ARM GAS  C:\Users\Greg\AppData\Local\Temp\ccyl0q0s.s 			page 1


   1              		.cpu cortex-m0plus
   2              		.fpu softvfp
   3              		.eabi_attribute 20, 1
   4              		.eabi_attribute 21, 1
   5              		.eabi_attribute 23, 3
   6              		.eabi_attribute 24, 1
   7              		.eabi_attribute 25, 1
   8              		.eabi_attribute 26, 1
   9              		.eabi_attribute 30, 1
  10              		.eabi_attribute 34, 0
  11              		.eabi_attribute 18, 4
  12              		.code	16
  13              		.file	"ADC.c"
  14              		.text
  15              	.Ltext0:
  16              		.cfi_sections	.debug_frame
  17              		.section	.text.ADC_IsChannelSigned,"ax",%progbits
  18              		.align	2
  19              		.code	16
  20              		.thumb_func
  21              		.type	ADC_IsChannelSigned, %function
  22              	ADC_IsChannelSigned:
  23              	.LFB12:
  24              		.file 1 ".\\Generated_Source\\PSoC4\\ADC.c"
   1:.\Generated_Source\PSoC4/ADC.c **** /***************************************************************************//**
   2:.\Generated_Source\PSoC4/ADC.c **** * \file     ADC.c
   3:.\Generated_Source\PSoC4/ADC.c **** * \version  1.10
   4:.\Generated_Source\PSoC4/ADC.c **** *
   5:.\Generated_Source\PSoC4/ADC.c **** * \brief
   6:.\Generated_Source\PSoC4/ADC.c **** * Provides the source code to the API for the ADC Component.
   7:.\Generated_Source\PSoC4/ADC.c **** *
   8:.\Generated_Source\PSoC4/ADC.c **** ********************************************************************************
   9:.\Generated_Source\PSoC4/ADC.c **** * \copyright
  10:.\Generated_Source\PSoC4/ADC.c **** * (c) 2015-2016, Cypress Semiconductor Corporation. All rights reserved.
  11:.\Generated_Source\PSoC4/ADC.c **** * This software, including source code, documentation and related
  12:.\Generated_Source\PSoC4/ADC.c **** * materials ("Software"), is owned by Cypress Semiconductor
  13:.\Generated_Source\PSoC4/ADC.c **** * Corporation ("Cypress") and is protected by and subject to worldwide
  14:.\Generated_Source\PSoC4/ADC.c **** * patent protection (United States and foreign), United States copyright
  15:.\Generated_Source\PSoC4/ADC.c **** * laws and international treaty provisions. Therefore, you may use this
  16:.\Generated_Source\PSoC4/ADC.c **** * Software only as provided in the license agreement accompanying the
  17:.\Generated_Source\PSoC4/ADC.c **** * software package from which you obtained this Software ("EULA").
  18:.\Generated_Source\PSoC4/ADC.c **** * If no EULA applies, Cypress hereby grants you a personal, nonexclusive,
  19:.\Generated_Source\PSoC4/ADC.c **** * non-transferable license to copy, modify, and compile the
  20:.\Generated_Source\PSoC4/ADC.c **** * Software source code solely for use in connection with Cypress's
  21:.\Generated_Source\PSoC4/ADC.c **** * integrated circuit products. Any reproduction, modification, translation,
  22:.\Generated_Source\PSoC4/ADC.c **** * compilation, or representation of this Software except as specified
  23:.\Generated_Source\PSoC4/ADC.c **** * above is prohibited without the express written permission of Cypress.
  24:.\Generated_Source\PSoC4/ADC.c **** * Disclaimer: THIS SOFTWARE IS PROVIDED AS-IS, WITH NO
  25:.\Generated_Source\PSoC4/ADC.c **** * WARRANTY OF ANY KIND, EXPRESS OR IMPLIED, INCLUDING,
  26:.\Generated_Source\PSoC4/ADC.c **** * BUT NOT LIMITED TO, NONINFRINGEMENT, IMPLIED
  27:.\Generated_Source\PSoC4/ADC.c **** * WARRANTIES OF MERCHANTABILITY AND FITNESS FOR A
  28:.\Generated_Source\PSoC4/ADC.c **** * PARTICULAR PURPOSE. Cypress reserves the right to make
  29:.\Generated_Source\PSoC4/ADC.c **** * changes to the Software without notice. Cypress does not assume any
  30:.\Generated_Source\PSoC4/ADC.c **** * liability arising out of the application or use of the Software or any
  31:.\Generated_Source\PSoC4/ADC.c **** * product or circuit described in the Software. Cypress does not
  32:.\Generated_Source\PSoC4/ADC.c **** * authorize its products for use in any products where a malfunction or
  33:.\Generated_Source\PSoC4/ADC.c **** * failure of the Cypress product may reasonably be expected to result in
ARM GAS  C:\Users\Greg\AppData\Local\Temp\ccyl0q0s.s 			page 2


  34:.\Generated_Source\PSoC4/ADC.c **** * significant property damage, injury or death ("High Risk Product"). By
  35:.\Generated_Source\PSoC4/ADC.c **** * including Cypress's product in a High Risk Product, the manufacturer
  36:.\Generated_Source\PSoC4/ADC.c **** * of such system or application assumes all risk of such use and in doing
  37:.\Generated_Source\PSoC4/ADC.c **** * so agrees to indemnify Cypress against all liability.
  38:.\Generated_Source\PSoC4/ADC.c **** *******************************************************************************/
  39:.\Generated_Source\PSoC4/ADC.c **** #include "ADC.h"
  40:.\Generated_Source\PSoC4/ADC.c **** 
  41:.\Generated_Source\PSoC4/ADC.c **** static int32 ADC_IsChannelSigned(uint32 chan);
  42:.\Generated_Source\PSoC4/ADC.c **** 
  43:.\Generated_Source\PSoC4/ADC.c **** uint8 ADC_initVar = 0u; 
  44:.\Generated_Source\PSoC4/ADC.c **** 
  45:.\Generated_Source\PSoC4/ADC.c **** uint8 ADC_selected = 0u; /* 0 if no configuration selected. 1 otherwise. */
  46:.\Generated_Source\PSoC4/ADC.c **** volatile int16 ADC_offset[ADC_TOTAL_CHANNELS_NUM]; 
  47:.\Generated_Source\PSoC4/ADC.c **** volatile int32 ADC_countsPer10Volt[ADC_TOTAL_CHANNELS_NUM]; 
  48:.\Generated_Source\PSoC4/ADC.c **** 
  49:.\Generated_Source\PSoC4/ADC.c **** static uint32 ADC_currentConfig = 0u; /* Currently active configuration */
  50:.\Generated_Source\PSoC4/ADC.c **** static uint32 ADC_channelEnMasks[ADC_TOTAL_CONFIGS];
  51:.\Generated_Source\PSoC4/ADC.c **** 
  52:.\Generated_Source\PSoC4/ADC.c **** /*******************************************************************************
  53:.\Generated_Source\PSoC4/ADC.c **** * Local data allocation
  54:.\Generated_Source\PSoC4/ADC.c **** *******************************************************************************/
  55:.\Generated_Source\PSoC4/ADC.c **** /* Channels configuration generated by customiser */
  56:.\Generated_Source\PSoC4/ADC.c **** static const uint32 CYCODE ADC_channelsConfig[] = { 0x00000100UL, 0x00001100UL,  };
  57:.\Generated_Source\PSoC4/ADC.c **** 
  58:.\Generated_Source\PSoC4/ADC.c **** /* Filter init */
  59:.\Generated_Source\PSoC4/ADC.c **** #if(ADC_ANY_CONFIG_USES_FILTER	!= 0u)	
  60:.\Generated_Source\PSoC4/ADC.c ****     #define ADC_UABH_A_FILTER_INITPAIRSSIZE ((ADC_FILTERTYPE_USED == ADC_FILTERTOPOLOGY_LOW_Q) \
  61:.\Generated_Source\PSoC4/ADC.c ****                                                          ? 18u \
  62:.\Generated_Source\PSoC4/ADC.c ****                                                          : 18u)
  63:.\Generated_Source\PSoC4/ADC.c ****     static CyUAB_reg_pair ADC_UABH_A_FILTER_initPairs[ADC_UABH_A_FILTER_INITPAIRSSIZE] =
  64:.\Generated_Source\PSoC4/ADC.c ****     {
  65:.\Generated_Source\PSoC4/ADC.c ****     	/*OA_CTRL default always first element in initPairs*/
  66:.\Generated_Source\PSoC4/ADC.c ****         /* Topology-invariant registers */
  67:.\Generated_Source\PSoC4/ADC.c ****          {ADC_UABH_A_OA_CTRL_PTR        , ((uint32)ADC_UABH_A_DEFAULT_OA_CTRL)}
  68:.\Generated_Source\PSoC4/ADC.c ****         ,{ADC_UABH_A_SW_STATIC_PTR      , ((uint32)ADC_UABH_A_DEFAULT_SW_STATIC)}
  69:.\Generated_Source\PSoC4/ADC.c ****         ,{ADC_UABH_A_SW_MODBIT_SRC_PTR      , ((uint32)ADC_UABH_A_DEFAULT_SW_MODBIT_SRC)}
  70:.\Generated_Source\PSoC4/ADC.c ****         ,{ADC_UABH_A_SRAM_CTRL_PTR      , ((uint32)ADC_UABH_A_INVAR_SRAM_CTRL)} 
  71:.\Generated_Source\PSoC4/ADC.c ****         ,{ADC_UABH_A_STARTUP_DELAY_PTR  , ((uint32)ADC_UABH_A_INVAR_STARTUP_DELAY)}
  72:.\Generated_Source\PSoC4/ADC.c ****         ,{ADC_UABH_A_SW_BOOST_CTRL_PTR  , ((uint32)ADC_UABH_A_DEFAULT_SW_BOOST_CTRL)}
  73:.\Generated_Source\PSoC4/ADC.c ****         ,{ADC_UABH_A_SW_OTHER_PTR  , ((uint32)ADC_UABH_A_DEFAULT_SW_OTHER)}
  74:.\Generated_Source\PSoC4/ADC.c ****         
  75:.\Generated_Source\PSoC4/ADC.c ****         #if (ADC_FILTERTYPE_USED == ADC_FILTERTOPOLOGY_LOW_Q)
  76:.\Generated_Source\PSoC4/ADC.c ****             /* Filter-invariant registers */
  77:.\Generated_Source\PSoC4/ADC.c ****             ,{ADC_UABH_A_SW_CA_IN0_PTR      , ((uint32)ADC_UABH_A_LOWQSTAT_SW_CA_IN0)}
  78:.\Generated_Source\PSoC4/ADC.c ****             ,{ADC_UABH_A_SW_CA_TOP_PTR      , ((uint32)ADC_UABH_A_LOWQSTAT_SW_CA_TOP)}
  79:.\Generated_Source\PSoC4/ADC.c ****             ,{ADC_UABH_A_SW_CC_IN0_PTR      , ((uint32)ADC_UABH_A_LOWQSTAT_SW_CC_IN0)}
  80:.\Generated_Source\PSoC4/ADC.c ****             ,{ADC_UABH_A_SW_CC_IN1_PTR      , ((uint32)ADC_UABH_A_LOWQSTAT_SW_CC_IN1)}
  81:.\Generated_Source\PSoC4/ADC.c ****             ,{ADC_UABH_A_SW_CF_BOT_PTR      , ((uint32)ADC_UABH_A_LOWQSTAT_SW_CF_BOT)}
  82:.\Generated_Source\PSoC4/ADC.c **** 
  83:.\Generated_Source\PSoC4/ADC.c ****             /* Parameter-based registers */
  84:.\Generated_Source\PSoC4/ADC.c ****             ,{ADC_UABH_A_CAP_CTRL_PTR       , ((uint32)ADC_UABH_A_LOWQDYN_CAP_CTRL)}
  85:.\Generated_Source\PSoC4/ADC.c ****             ,{ADC_UABH_A_SW_CB_IN0_PTR      , ((uint32)ADC_UABH_A_LOWQDYN_SW_CB_IN0)}
  86:.\Generated_Source\PSoC4/ADC.c ****             ,{ADC_UABH_A_SW_CB_IN1_PTR      , ((uint32)ADC_UABH_A_LOWQDYN_SW_CB_IN1)}
  87:.\Generated_Source\PSoC4/ADC.c ****             ,{ADC_UABH_A_SW_CB_TOP_PTR      , ((uint32)ADC_UABH_A_LOWQDYN_SW_CB_TOP)}
  88:.\Generated_Source\PSoC4/ADC.c ****             ,{ADC_UABH_A_SW_CC_TOP_PTR      , ((uint32)ADC_UABH_A_LOWQDYN_SW_CC_TOP)}
  89:.\Generated_Source\PSoC4/ADC.c ****             ,{ADC_UABH_A_CAP_ABCF_VAL_PTR   , ((uint32)ADC_UABH_A_LOWQDYN_CAP_ABCF_VAL)}
  90:.\Generated_Source\PSoC4/ADC.c ****         #elif (ADC_FILTERTYPE_USED == ADC_FILTERTOPOLOGY_HIGH_Q)
ARM GAS  C:\Users\Greg\AppData\Local\Temp\ccyl0q0s.s 			page 3


  91:.\Generated_Source\PSoC4/ADC.c ****             /* Filter-invariant registers */
  92:.\Generated_Source\PSoC4/ADC.c ****             ,{ADC_UABH_A_SW_CA_IN0_PTR      , ((uint32)ADC_UABH_A_HIGHQSTAT_SW_CA_IN0)}
  93:.\Generated_Source\PSoC4/ADC.c ****             ,{ADC_UABH_A_SW_CA_TOP_PTR      , ((uint32)ADC_UABH_A_HIGHQSTAT_SW_CA_TOP)}
  94:.\Generated_Source\PSoC4/ADC.c ****             ,{ADC_UABH_A_SW_CB_IN0_PTR      , ((uint32)ADC_UABH_A_HIGHQSTAT_SW_CB_IN0)}
  95:.\Generated_Source\PSoC4/ADC.c ****             ,{ADC_UABH_A_SW_CB_IN1_PTR      , ((uint32)ADC_UABH_A_HIGHQSTAT_SW_CB_IN1)}
  96:.\Generated_Source\PSoC4/ADC.c ****             ,{ADC_UABH_A_SW_CC_IN0_PTR      , ((uint32)ADC_UABH_A_HIGHQSTAT_SW_CC_IN0)}
  97:.\Generated_Source\PSoC4/ADC.c ****             ,{ADC_UABH_A_SW_CC_IN1_PTR      , ((uint32)ADC_UABH_A_HIGHQSTAT_SW_CC_IN1)}
  98:.\Generated_Source\PSoC4/ADC.c ****             ,{ADC_UABH_A_SW_CC_TOP_PTR      , ((uint32)ADC_UABH_A_HIGHQSTAT_SW_CC_TOP)}
  99:.\Generated_Source\PSoC4/ADC.c ****             ,{ADC_UABH_A_SW_CF_BOT_PTR      , ((uint32)ADC_UABH_A_HIGHQSTAT_SW_CF_BOT)}
 100:.\Generated_Source\PSoC4/ADC.c **** 
 101:.\Generated_Source\PSoC4/ADC.c ****             /* Parameter-based registers */
 102:.\Generated_Source\PSoC4/ADC.c ****             ,{ADC_UABH_A_CAP_CTRL_PTR       , ((uint32)ADC_UABH_A_HIGHQDYN_CAP_CTRL)}
 103:.\Generated_Source\PSoC4/ADC.c ****             ,{ADC_UABH_A_SW_CB_TOP_PTR      , ((uint32)ADC_UABH_A_HIGHQDYN_SW_CB_TOP)}
 104:.\Generated_Source\PSoC4/ADC.c ****             ,{ADC_UABH_A_CAP_ABCF_VAL_PTR   , ((uint32)ADC_UABH_A_HIGHQDYN_CAP_ABCF_VAL)}
 105:.\Generated_Source\PSoC4/ADC.c ****         #endif /* (ADC_FILTERTYPE_USED == ADC_FILTERTOPOLOGY_LOW_Q) */
 106:.\Generated_Source\PSoC4/ADC.c ****     };
 107:.\Generated_Source\PSoC4/ADC.c **** 
 108:.\Generated_Source\PSoC4/ADC.c ****     #define ADC_UABH_B_FILTER_INITPAIRSSIZE ((ADC_FILTERTYPE_USED == ADC_FILTERTOPOLOGY_LOW_Q) \
 109:.\Generated_Source\PSoC4/ADC.c ****                                                          ? 19u \
 110:.\Generated_Source\PSoC4/ADC.c ****                                                          : 19u)
 111:.\Generated_Source\PSoC4/ADC.c ****     static CyUAB_reg_pair ADC_UABH_B_FILTER_initPairs[ADC_UABH_B_FILTER_INITPAIRSSIZE] = 
 112:.\Generated_Source\PSoC4/ADC.c ****     {
 113:.\Generated_Source\PSoC4/ADC.c ****         /*OA_CTRL default always first element in initPairs*/
 114:.\Generated_Source\PSoC4/ADC.c ****         /* Topology-invariant registers */
 115:.\Generated_Source\PSoC4/ADC.c ****          {ADC_UABH_B_OA_CTRL_PTR        , ((uint32)ADC_UABH_B_DEFAULT_OA_CTRL)}
 116:.\Generated_Source\PSoC4/ADC.c ****         ,{ADC_UABH_B_SW_STATIC_PTR      , ((uint32)ADC_UABH_B_DEFAULT_SW_STATIC)}
 117:.\Generated_Source\PSoC4/ADC.c ****         ,{ADC_UABH_B_SW_MODBIT_SRC_PTR      , ((uint32)ADC_UABH_B_DEFAULT_SW_MODBIT_SRC)}
 118:.\Generated_Source\PSoC4/ADC.c ****         ,{ADC_UABH_B_SRAM_CTRL_PTR      , ((uint32)ADC_UABH_B_INVAR_SRAM_CTRL)} 
 119:.\Generated_Source\PSoC4/ADC.c ****         ,{ADC_UABH_B_STARTUP_DELAY_PTR  , ((uint32)ADC_UABH_B_INVAR_STARTUP_DELAY)}
 120:.\Generated_Source\PSoC4/ADC.c ****         ,{ADC_UABH_B_SW_BOOST_CTRL_PTR  , ((uint32)ADC_UABH_B_DEFAULT_SW_BOOST_CTRL)}
 121:.\Generated_Source\PSoC4/ADC.c ****         ,{ADC_UABH_B_SW_OTHER_PTR  , ((uint32)ADC_UABH_B_DEFAULT_SW_OTHER)}
 122:.\Generated_Source\PSoC4/ADC.c ****         
 123:.\Generated_Source\PSoC4/ADC.c ****         #if (ADC_FILTERTYPE_USED == ADC_FILTERTOPOLOGY_LOW_Q)
 124:.\Generated_Source\PSoC4/ADC.c ****                 	/* Filter-invariant registers */
 125:.\Generated_Source\PSoC4/ADC.c ****             ,{ADC_UABH_B_SW_CA_IN0_PTR      , ((uint32)ADC_UABH_B_LOWQSTAT_SW_CA_IN0)}
 126:.\Generated_Source\PSoC4/ADC.c ****             ,{ADC_UABH_B_SW_CA_IN1_PTR      , ((uint32)ADC_UABH_B_LOWQSTAT_SW_CA_IN1)}
 127:.\Generated_Source\PSoC4/ADC.c ****             ,{ADC_UABH_B_SW_CA_TOP_PTR      , ((uint32)ADC_UABH_B_LOWQSTAT_SW_CA_TOP)}
 128:.\Generated_Source\PSoC4/ADC.c ****             ,{ADC_UABH_B_SW_CB_IN0_PTR      , ((uint32)ADC_UABH_B_LOWQSTAT_SW_CB_IN0)}
 129:.\Generated_Source\PSoC4/ADC.c ****             ,{ADC_UABH_B_SW_CB_IN1_PTR      , ((uint32)ADC_UABH_B_LOWQSTAT_SW_CB_IN1)}
 130:.\Generated_Source\PSoC4/ADC.c ****             ,{ADC_UABH_B_SW_CB_TOP_PTR      , ((uint32)ADC_UABH_B_LOWQSTAT_SW_CB_TOP)}
 131:.\Generated_Source\PSoC4/ADC.c ****             ,{ADC_UABH_B_SW_CC_IN0_PTR      , ((uint32)ADC_UABH_B_LOWQSTAT_SW_CC_IN0)}
 132:.\Generated_Source\PSoC4/ADC.c ****             ,{ADC_UABH_B_SW_CC_IN1_PTR      , ((uint32)ADC_UABH_B_LOWQSTAT_SW_CC_IN1)}
 133:.\Generated_Source\PSoC4/ADC.c ****             ,{ADC_UABH_B_SW_CF_BOT_PTR      , ((uint32)ADC_UABH_B_LOWQSTAT_SW_CF_BOT)}
 134:.\Generated_Source\PSoC4/ADC.c ****             
 135:.\Generated_Source\PSoC4/ADC.c ****             /* Parameter-based registers */
 136:.\Generated_Source\PSoC4/ADC.c ****             ,{ADC_UABH_B_CAP_CTRL_PTR       , ((uint32)ADC_UABH_B_LOWQDYN_CAP_CTRL)}
 137:.\Generated_Source\PSoC4/ADC.c ****             ,{ADC_UABH_B_SW_CC_TOP_PTR      , ((uint32)ADC_UABH_B_LOWQDYN_SW_CC_TOP)}
 138:.\Generated_Source\PSoC4/ADC.c ****             ,{ADC_UABH_B_CAP_ABCF_VAL_PTR   , ((uint32)ADC_UABH_B_LOWQDYN_CAP_ABCF_VAL)}
 139:.\Generated_Source\PSoC4/ADC.c ****         #elif (ADC_FILTERTYPE_USED == ADC_FILTERTOPOLOGY_HIGH_Q)
 140:.\Generated_Source\PSoC4/ADC.c ****         	/* Filter-invariant registers */
 141:.\Generated_Source\PSoC4/ADC.c ****             ,{ADC_UABH_B_SW_CA_IN0_PTR      , ((uint32)ADC_UABH_B_HIGHQSTAT_SW_CA_IN0)}
 142:.\Generated_Source\PSoC4/ADC.c ****             ,{ADC_UABH_B_SW_CA_IN1_PTR      , ((uint32)ADC_UABH_B_HIGHQSTAT_SW_CA_IN1)}
 143:.\Generated_Source\PSoC4/ADC.c ****             ,{ADC_UABH_B_SW_CA_TOP_PTR      , ((uint32)ADC_UABH_B_HIGHQSTAT_SW_CA_TOP)}
 144:.\Generated_Source\PSoC4/ADC.c ****             ,{ADC_UABH_B_SW_CB_IN0_PTR      , ((uint32)ADC_UABH_B_HIGHQSTAT_SW_CB_IN0)}
 145:.\Generated_Source\PSoC4/ADC.c ****             ,{ADC_UABH_B_SW_CB_IN1_PTR      , ((uint32)ADC_UABH_B_HIGHQSTAT_SW_CB_IN1)}
 146:.\Generated_Source\PSoC4/ADC.c ****             ,{ADC_UABH_B_SW_CC_IN0_PTR      , ((uint32)ADC_UABH_B_HIGHQSTAT_SW_CC_IN0)}
 147:.\Generated_Source\PSoC4/ADC.c ****             ,{ADC_UABH_B_SW_CC_IN1_PTR      , ((uint32)ADC_UABH_B_HIGHQSTAT_SW_CC_IN1)}
ARM GAS  C:\Users\Greg\AppData\Local\Temp\ccyl0q0s.s 			page 4


 148:.\Generated_Source\PSoC4/ADC.c ****             ,{ADC_UABH_B_SW_CF_BOT_PTR      , ((uint32)ADC_UABH_B_HIGHQSTAT_SW_CF_BOT)}
 149:.\Generated_Source\PSoC4/ADC.c ****             
 150:.\Generated_Source\PSoC4/ADC.c ****             /* Parameter-based registers */
 151:.\Generated_Source\PSoC4/ADC.c ****             ,{ADC_UABH_B_CAP_CTRL_PTR       , ((uint32)ADC_UABH_B_HIGHQDYN_CAP_CTRL)}
 152:.\Generated_Source\PSoC4/ADC.c ****             ,{ADC_UABH_B_SW_CB_TOP_PTR      , ((uint32)ADC_UABH_B_HIGHQDYN_SW_CB_TOP)}
 153:.\Generated_Source\PSoC4/ADC.c ****             ,{ADC_UABH_B_SW_CC_TOP_PTR      , ((uint32)ADC_UABH_B_HIGHQDYN_SW_CC_TOP)}
 154:.\Generated_Source\PSoC4/ADC.c ****             ,{ADC_UABH_B_CAP_ABCF_VAL_PTR   , ((uint32)ADC_UABH_B_HIGHQDYN_CAP_ABCF_VAL)}
 155:.\Generated_Source\PSoC4/ADC.c ****         #endif /* #if (ADC_FILTERTYPE_USED == ADC_FILTERTOPOLOGY_LOW_Q) */
 156:.\Generated_Source\PSoC4/ADC.c ****     };
 157:.\Generated_Source\PSoC4/ADC.c **** 
 158:.\Generated_Source\PSoC4/ADC.c ****     static CyUAB_config ADC_UABH_A_FILTER_config = {
 159:.\Generated_Source\PSoC4/ADC.c ****         ADC_UABH_A_waveConfig,
 160:.\Generated_Source\PSoC4/ADC.c ****         ADC_UABH_A_FILTER_initPairs,
 161:.\Generated_Source\PSoC4/ADC.c ****         CyUAB_SHARED_SW_CFG(ADC_UABH_A_PARAM_REF_TIED,ADC_UABH_A_PARAM_AGND_TIED,
 162:.\Generated_Source\PSoC4/ADC.c ****             ADC_UABH_A_PARAM_SW_CC,ADC_UABH_A_PARAM_SW_BB,ADC_UABH_A_PARAM_SW_AA),
 163:.\Generated_Source\PSoC4/ADC.c ****         ADC_UABH_A_NUM_STEPS,
 164:.\Generated_Source\PSoC4/ADC.c ****         (uint8)(ADC_UABH_A_ELEMENT_COUNT(ADC_UABH_A_FILTER_initPairs))
 165:.\Generated_Source\PSoC4/ADC.c ****     };
 166:.\Generated_Source\PSoC4/ADC.c **** 
 167:.\Generated_Source\PSoC4/ADC.c ****     static CyUAB_config ADC_UABH_B_FILTER_config = {
 168:.\Generated_Source\PSoC4/ADC.c ****         ADC_UABH_B_waveConfig,
 169:.\Generated_Source\PSoC4/ADC.c ****         ADC_UABH_B_FILTER_initPairs,
 170:.\Generated_Source\PSoC4/ADC.c ****         CyUAB_SHARED_SW_CFG(ADC_UABH_B_PARAM_REF_TIED,ADC_UABH_B_PARAM_AGND_TIED,
 171:.\Generated_Source\PSoC4/ADC.c ****             ADC_UABH_B_PARAM_SW_CC,ADC_UABH_B_PARAM_SW_BB,ADC_UABH_B_PARAM_SW_AA),
 172:.\Generated_Source\PSoC4/ADC.c ****         ADC_UABH_B_NUM_STEPS,
 173:.\Generated_Source\PSoC4/ADC.c ****         (uint8)(ADC_UABH_B_ELEMENT_COUNT(ADC_UABH_B_FILTER_initPairs))
 174:.\Generated_Source\PSoC4/ADC.c ****     };
 175:.\Generated_Source\PSoC4/ADC.c **** #endif /* (ADC_ANY_CONFIG_USES_FILTER	!= 0u)	*/
 176:.\Generated_Source\PSoC4/ADC.c **** /*******************************************************************************
 177:.\Generated_Source\PSoC4/ADC.c **** * Function Name: ADC_Start
 178:.\Generated_Source\PSoC4/ADC.c **** ****************************************************************************//**
 179:.\Generated_Source\PSoC4/ADC.c **** *
 180:.\Generated_Source\PSoC4/ADC.c **** * \brief Performs all required initialization for this component and enables the 
 181:.\Generated_Source\PSoC4/ADC.c **** *  power. The power will be set to the appropriate power based on the clock 
 182:.\Generated_Source\PSoC4/ADC.c **** *  frequency.
 183:.\Generated_Source\PSoC4/ADC.c **** * 
 184:.\Generated_Source\PSoC4/ADC.c **** * \param None
 185:.\Generated_Source\PSoC4/ADC.c **** * 
 186:.\Generated_Source\PSoC4/ADC.c **** * \return None
 187:.\Generated_Source\PSoC4/ADC.c **** * 
 188:.\Generated_Source\PSoC4/ADC.c **** * \sideeffect None
 189:.\Generated_Source\PSoC4/ADC.c **** *
 190:.\Generated_Source\PSoC4/ADC.c **** * \globalvars
 191:.\Generated_Source\PSoC4/ADC.c **** *  \ref ADC_initVar (RW)
 192:.\Generated_Source\PSoC4/ADC.c **** *
 193:.\Generated_Source\PSoC4/ADC.c **** * <b>Code Snippet</b>
 194:.\Generated_Source\PSoC4/ADC.c **** *  \snippet main.c snippet_ADC_Start
 195:.\Generated_Source\PSoC4/ADC.c **** *
 196:.\Generated_Source\PSoC4/ADC.c **** *******************************************************************************/
 197:.\Generated_Source\PSoC4/ADC.c **** void ADC_Start(void)
 198:.\Generated_Source\PSoC4/ADC.c **** {
 199:.\Generated_Source\PSoC4/ADC.c ****     if (1u != (1u & ADC_initVar))
 200:.\Generated_Source\PSoC4/ADC.c ****     {
 201:.\Generated_Source\PSoC4/ADC.c ****         ADC_Init();
 202:.\Generated_Source\PSoC4/ADC.c ****         ADC_initVar |= 1u;
 203:.\Generated_Source\PSoC4/ADC.c ****     }
 204:.\Generated_Source\PSoC4/ADC.c ****     
ARM GAS  C:\Users\Greg\AppData\Local\Temp\ccyl0q0s.s 			page 5


 205:.\Generated_Source\PSoC4/ADC.c ****     ADC_Enable();
 206:.\Generated_Source\PSoC4/ADC.c ****     
 207:.\Generated_Source\PSoC4/ADC.c ****     return;
 208:.\Generated_Source\PSoC4/ADC.c **** }
 209:.\Generated_Source\PSoC4/ADC.c **** 
 210:.\Generated_Source\PSoC4/ADC.c **** /*******************************************************************************
 211:.\Generated_Source\PSoC4/ADC.c **** * Function Name: ADC_StartEx
 212:.\Generated_Source\PSoC4/ADC.c **** ****************************************************************************//**
 213:.\Generated_Source\PSoC4/ADC.c **** *
 214:.\Generated_Source\PSoC4/ADC.c **** * \brief This function starts the ADC and sets the Interrupt 
 215:.\Generated_Source\PSoC4/ADC.c **** * Service Routine to the provided address using the 
 216:.\Generated_Source\PSoC4/ADC.c **** * ADC_IRQ_StartEx() function. Refer to the Interrupt component 
 217:.\Generated_Source\PSoC4/ADC.c **** * datasheet for more information on the ADC_IRQ_StartEx() function.
 218:.\Generated_Source\PSoC4/ADC.c **** * 
 219:.\Generated_Source\PSoC4/ADC.c **** * \param address This is the address of a user defined function for the ISR.
 220:.\Generated_Source\PSoC4/ADC.c **** * 
 221:.\Generated_Source\PSoC4/ADC.c **** * \return None
 222:.\Generated_Source\PSoC4/ADC.c **** * 
 223:.\Generated_Source\PSoC4/ADC.c **** * \sideeffect None
 224:.\Generated_Source\PSoC4/ADC.c **** *
 225:.\Generated_Source\PSoC4/ADC.c **** * <b>Code Snippet</b>
 226:.\Generated_Source\PSoC4/ADC.c **** *  \snippet main.c snippet_ADC_StartEx
 227:.\Generated_Source\PSoC4/ADC.c **** *
 228:.\Generated_Source\PSoC4/ADC.c **** *******************************************************************************/
 229:.\Generated_Source\PSoC4/ADC.c **** void ADC_StartEx(cyisraddress address)
 230:.\Generated_Source\PSoC4/ADC.c **** {
 231:.\Generated_Source\PSoC4/ADC.c ****     ADC_Start();
 232:.\Generated_Source\PSoC4/ADC.c ****     ADC_IRQ_StartEx(address);
 233:.\Generated_Source\PSoC4/ADC.c ****     return;
 234:.\Generated_Source\PSoC4/ADC.c **** }
 235:.\Generated_Source\PSoC4/ADC.c **** 
 236:.\Generated_Source\PSoC4/ADC.c **** /*******************************************************************************
 237:.\Generated_Source\PSoC4/ADC.c **** * Function Name: ADC_Stop
 238:.\Generated_Source\PSoC4/ADC.c **** ****************************************************************************//**
 239:.\Generated_Source\PSoC4/ADC.c **** *
 240:.\Generated_Source\PSoC4/ADC.c **** * \brief This function stops ADC conversions and puts the ADC into its lowest 
 241:.\Generated_Source\PSoC4/ADC.c **** * power mode.
 242:.\Generated_Source\PSoC4/ADC.c **** * 
 243:.\Generated_Source\PSoC4/ADC.c **** * \param None
 244:.\Generated_Source\PSoC4/ADC.c **** * 
 245:.\Generated_Source\PSoC4/ADC.c **** * \return None
 246:.\Generated_Source\PSoC4/ADC.c **** * 
 247:.\Generated_Source\PSoC4/ADC.c **** * \sideeffect
 248:.\Generated_Source\PSoC4/ADC.c **** * Do not use the ADC_Stop() API to halt conversions. Instead use the 
 249:.\Generated_Source\PSoC4/ADC.c **** * ADC_StopConvert() API. If you use the ADC_Stop() API 
 250:.\Generated_Source\PSoC4/ADC.c **** * to halt conversions then later use the ADC_Start() and 
 251:.\Generated_Source\PSoC4/ADC.c **** * ADC_StartConvert() APIs to resume conversions, the first channel 
 252:.\Generated_Source\PSoC4/ADC.c **** * of the scan may be corrupt. The ADC_StopConvert() API will enable 
 253:.\Generated_Source\PSoC4/ADC.c **** * the ADC to complete the current scan of channels. After the 
 254:.\Generated_Source\PSoC4/ADC.c **** * channel scan is complete, the ADC will stop all conversions, which 
 255:.\Generated_Source\PSoC4/ADC.c **** * can be detected by the use of an ISR or the ADC_IsEndConversion() 
 256:.\Generated_Source\PSoC4/ADC.c **** * flag.
 257:.\Generated_Source\PSoC4/ADC.c **** *
 258:.\Generated_Source\PSoC4/ADC.c **** * <b>Code Snippet</b>
 259:.\Generated_Source\PSoC4/ADC.c **** *  \snippet main.c snippet_ADC_Stop
 260:.\Generated_Source\PSoC4/ADC.c **** *
 261:.\Generated_Source\PSoC4/ADC.c **** *******************************************************************************/
ARM GAS  C:\Users\Greg\AppData\Local\Temp\ccyl0q0s.s 			page 6


 262:.\Generated_Source\PSoC4/ADC.c **** void ADC_Stop(void)
 263:.\Generated_Source\PSoC4/ADC.c **** {	
 264:.\Generated_Source\PSoC4/ADC.c ****     #if(0u != ADC_ANY_CONFIG_USES_FILTER)	
 265:.\Generated_Source\PSoC4/ADC.c ****     	if((ADC_allConfigs[ADC_currentConfig].miscConfig 
 266:.\Generated_Source\PSoC4/ADC.c ****     	   & ADC_MISC_CONFIG_FILTER_PRESENT_MSK) 
 267:.\Generated_Source\PSoC4/ADC.c ****     	   == ADC_MISC_CONFIG_FILTER_PRESENT_MSK)
 268:.\Generated_Source\PSoC4/ADC.c ****     	{
 269:.\Generated_Source\PSoC4/ADC.c ****     		ADC_UABH_A_Stop();
 270:.\Generated_Source\PSoC4/ADC.c ****     		ADC_UABH_B_Stop();
 271:.\Generated_Source\PSoC4/ADC.c ****             ADC_FILTERAGND2SAR_BUFFER_Stop();
 272:.\Generated_Source\PSoC4/ADC.c ****     	}
 273:.\Generated_Source\PSoC4/ADC.c ****     #endif /* ADC_ANY_CONFIG_USES_FILTER != 0u */
 274:.\Generated_Source\PSoC4/ADC.c ****     ADC_SAR_CTRL_REG &= (uint32)~ADC_SAR_CTRL_ENABLED_MSK;
 275:.\Generated_Source\PSoC4/ADC.c ****     return;
 276:.\Generated_Source\PSoC4/ADC.c **** }
 277:.\Generated_Source\PSoC4/ADC.c **** 
 278:.\Generated_Source\PSoC4/ADC.c **** /* ****************************************************************************
 279:.\Generated_Source\PSoC4/ADC.c **** * Function Name: ADC_InitConfig
 280:.\Generated_Source\PSoC4/ADC.c **** ****************************************************************************//*
 281:.\Generated_Source\PSoC4/ADC.c **** *
 282:.\Generated_Source\PSoC4/ADC.c **** * \brief Configures all of the registers for a given configuration for scanning.
 283:.\Generated_Source\PSoC4/ADC.c **** *
 284:.\Generated_Source\PSoC4/ADC.c **** * \param scan Number of scan defined in the ADC.
 285:.\Generated_Source\PSoC4/ADC.c **** *
 286:.\Generated_Source\PSoC4/ADC.c **** * \return None
 287:.\Generated_Source\PSoC4/ADC.c **** *
 288:.\Generated_Source\PSoC4/ADC.c **** * \sideeffect None
 289:.\Generated_Source\PSoC4/ADC.c **** *
 290:.\Generated_Source\PSoC4/ADC.c **** * <b>Code Snippet</b>
 291:.\Generated_Source\PSoC4/ADC.c **** *  \snippet main.c snippet_ADC_InitConfig
 292:.\Generated_Source\PSoC4/ADC.c **** *
 293:.\Generated_Source\PSoC4/ADC.c **** *******************************************************************************/
 294:.\Generated_Source\PSoC4/ADC.c **** void ADC_InitConfig(const ADC_CONFIG_STRUCT *config)
 295:.\Generated_Source\PSoC4/ADC.c **** {
 296:.\Generated_Source\PSoC4/ADC.c **** 	uint32 chNum;
 297:.\Generated_Source\PSoC4/ADC.c ****     uint32 tmpRegVal;
 298:.\Generated_Source\PSoC4/ADC.c **** 	
 299:.\Generated_Source\PSoC4/ADC.c ****     #if(0u != ADC_ANY_CONFIG_USES_FILTER)	        
 300:.\Generated_Source\PSoC4/ADC.c ****     	if((config->miscConfig & ADC_MISC_CONFIG_FILTER_PRESENT_MSK) 
 301:.\Generated_Source\PSoC4/ADC.c ****     	    == ADC_MISC_CONFIG_FILTER_PRESENT_MSK)
 302:.\Generated_Source\PSoC4/ADC.c ****     	{
 303:.\Generated_Source\PSoC4/ADC.c ****             ADC_intUabClock_SetFractionalDividerRegister(config->filterClkDivider, 0u);    		
 304:.\Generated_Source\PSoC4/ADC.c ****     	}
 305:.\Generated_Source\PSoC4/ADC.c ****     #endif /* ADC_ANY_CONFIG_USES_FILTER != 0u */
 306:.\Generated_Source\PSoC4/ADC.c ****     #if (ADC_CLOCK_INTERNAL)
 307:.\Generated_Source\PSoC4/ADC.c ****         ADC_intSarClock_SetFractionalDividerRegister(config->clkDivider, 0u);
 308:.\Generated_Source\PSoC4/ADC.c ****         
 309:.\Generated_Source\PSoC4/ADC.c ****     #endif /* ADC_CLOCK_INTERNAL */
 310:.\Generated_Source\PSoC4/ADC.c ****     /* Init SAR and MUX registers */
 311:.\Generated_Source\PSoC4/ADC.c **** 	ADC_SAR_CTRL_REG |= config->ctrl
 312:.\Generated_Source\PSoC4/ADC.c ****    
 313:.\Generated_Source\PSoC4/ADC.c **** 	/* Enable the SAR internal pump when global pump is enabled */
 314:.\Generated_Source\PSoC4/ADC.c ****     | (((ADC_PUMP_CTRL_REG & ADC_PUMP_CTRL_ENABLED) != 0u) 
 315:.\Generated_Source\PSoC4/ADC.c ****     ? ADC_SAR_CTRL_BOOSTPUMP_EN_MSK : 0u);
 316:.\Generated_Source\PSoC4/ADC.c **** 	
 317:.\Generated_Source\PSoC4/ADC.c **** 	ADC_SAR_SAMPLE_CTRL_REG = config->sampleCtrl;
 318:.\Generated_Source\PSoC4/ADC.c **** 	ADC_SAR_RANGE_THRES_REG = config->rangeThres;	
ARM GAS  C:\Users\Greg\AppData\Local\Temp\ccyl0q0s.s 			page 7


 319:.\Generated_Source\PSoC4/ADC.c **** 	ADC_SAR_RANGE_COND_REG = config->rangeCond;
 320:.\Generated_Source\PSoC4/ADC.c **** 	ADC_SAR_SAMPLE_TIME01_REG = config->sampleTime01;
 321:.\Generated_Source\PSoC4/ADC.c **** 	ADC_SAR_SAMPLE_TIME23_REG = config->sampleTime23;
 322:.\Generated_Source\PSoC4/ADC.c ****     
 323:.\Generated_Source\PSoC4/ADC.c **** 	/* Connect Vminus to VSSA when even one channel is single-ended or multiple channels configured */
 324:.\Generated_Source\PSoC4/ADC.c **** 	if(1u == ADC_MUX_SWITCH0_INIT)
 325:.\Generated_Source\PSoC4/ADC.c **** 	{
 326:.\Generated_Source\PSoC4/ADC.c **** 		ADC_MUX_SWITCH0_REG |= ADC_MUX_FW_VSSA_VMINUS;
 327:.\Generated_Source\PSoC4/ADC.c **** 		/* Set MUX_HW_CTRL_VSSA in MUX_SWITCH_HW_CTRL when multiple channels enabled */
 328:.\Generated_Source\PSoC4/ADC.c **** 		if(1ul < config->numChannels)
 329:.\Generated_Source\PSoC4/ADC.c **** 		{
 330:.\Generated_Source\PSoC4/ADC.c **** 			ADC_MUX_SWITCH_HW_CTRL_REG |= ADC_MUX_FW_VSSA_VMINUS;
 331:.\Generated_Source\PSoC4/ADC.c **** 		}
 332:.\Generated_Source\PSoC4/ADC.c **** 	}
 333:.\Generated_Source\PSoC4/ADC.c ****     
 334:.\Generated_Source\PSoC4/ADC.c **** 	/* Clear and set interrupt masks */
 335:.\Generated_Source\PSoC4/ADC.c **** 	ADC_SAR_SATURATE_INTR_MASK_REG = 0u;
 336:.\Generated_Source\PSoC4/ADC.c ****     ADC_SAR_RANGE_INTR_MASK_REG = 0u;	
 337:.\Generated_Source\PSoC4/ADC.c **** 	ADC_SAR_SATURATE_INTR_MASK_REG = config->satIntMask;
 338:.\Generated_Source\PSoC4/ADC.c **** 	ADC_SAR_RANGE_INTR_MASK_REG = config->rangeIntMask;
 339:.\Generated_Source\PSoC4/ADC.c **** 	ADC_SAR_INTR_MASK_REG = ADC_EOS_MASK;
 340:.\Generated_Source\PSoC4/ADC.c ****     
 341:.\Generated_Source\PSoC4/ADC.c **** 	/* Double the non-overlap delay and latch enable time when using */
 342:.\Generated_Source\PSoC4/ADC.c ****     /* internal reference without bypass cap */
 343:.\Generated_Source\PSoC4/ADC.c ****     tmpRegVal = ADC_SAR_DFT_CTRL_REG;
 344:.\Generated_Source\PSoC4/ADC.c **** 	if(((config->ctrl & ADC__SAR_CTRL_VREF_BYP_AND_SEL_MSK) 
 345:.\Generated_Source\PSoC4/ADC.c **** 	    == ADC__INTERNAL1024) 
 346:.\Generated_Source\PSoC4/ADC.c **** 	    || ((config->ctrl & ADC__SAR_CTRL_VREF_BYP_AND_SEL_MSK) 
 347:.\Generated_Source\PSoC4/ADC.c **** 	    == ADC__INTERNALVREF))
 348:.\Generated_Source\PSoC4/ADC.c **** 	{
 349:.\Generated_Source\PSoC4/ADC.c ****         tmpRegVal &= ~ADC_SAR_DFT_CTRL_DCEN_MSK;
 350:.\Generated_Source\PSoC4/ADC.c **** 		tmpRegVal |= ADC_SAR_DFT_CTRL_DLY_INC_MSK;
 351:.\Generated_Source\PSoC4/ADC.c **** 	}
 352:.\Generated_Source\PSoC4/ADC.c **** 	else
 353:.\Generated_Source\PSoC4/ADC.c **** 	{
 354:.\Generated_Source\PSoC4/ADC.c **** 		tmpRegVal |= ADC_SAR_DFT_CTRL_DCEN_MSK;
 355:.\Generated_Source\PSoC4/ADC.c ****         tmpRegVal &= (uint32)~ADC_SAR_DFT_CTRL_DLY_INC_MSK;
 356:.\Generated_Source\PSoC4/ADC.c **** 	}	
 357:.\Generated_Source\PSoC4/ADC.c **** 	ADC_SAR_DFT_CTRL_REG = tmpRegVal;
 358:.\Generated_Source\PSoC4/ADC.c **** 	
 359:.\Generated_Source\PSoC4/ADC.c **** 	for(chNum = 0u; chNum < config->numChannels; chNum++)
 360:.\Generated_Source\PSoC4/ADC.c ****     {
 361:.\Generated_Source\PSoC4/ADC.c **** 		tmpRegVal = (ADC_channelsConfig[config->channelBase + chNum] 
 362:.\Generated_Source\PSoC4/ADC.c **** 		& ADC_CHANNEL_CONFIG_MASK);
 363:.\Generated_Source\PSoC4/ADC.c ****         
 364:.\Generated_Source\PSoC4/ADC.c ****         #if(ADC_TOTAL_CHANNELS_NUM > 1)
 365:.\Generated_Source\PSoC4/ADC.c ****             tmpRegVal |= ADC_InputsPlacement[config->channelBase + chNum];
 366:.\Generated_Source\PSoC4/ADC.c ****             /*Non-paired differential channels set NEG_ADDR_EN and clear DIFFERENTIAL_EN */
 367:.\Generated_Source\PSoC4/ADC.c ****             if(0u != (ADC_InputsPlacement[config->channelBase + chNum] & ADC_CHANNEL_CONFIG_NEG_ADD
 368:.\Generated_Source\PSoC4/ADC.c ****             {
 369:.\Generated_Source\PSoC4/ADC.c ****                 tmpRegVal &= ~ADC_SAR_CHAN_CONFIG_DIFFERENTIAL_EN_MSK;
 370:.\Generated_Source\PSoC4/ADC.c ****             }
 371:.\Generated_Source\PSoC4/ADC.c ****         #endif
 372:.\Generated_Source\PSoC4/ADC.c ****         
 373:.\Generated_Source\PSoC4/ADC.c **** 		CY_SET_REG32((reg32 *)(ADC_SAR_CHAN_CONFIG_IND + (uint32)(chNum << 2)), tmpRegVal);
 374:.\Generated_Source\PSoC4/ADC.c **** 	}
 375:.\Generated_Source\PSoC4/ADC.c **** 	
ARM GAS  C:\Users\Greg\AppData\Local\Temp\ccyl0q0s.s 			page 8


 376:.\Generated_Source\PSoC4/ADC.c ****     return;
 377:.\Generated_Source\PSoC4/ADC.c **** }
 378:.\Generated_Source\PSoC4/ADC.c **** 
 379:.\Generated_Source\PSoC4/ADC.c **** /* ****************************************************************************
 380:.\Generated_Source\PSoC4/ADC.c **** * Function Name: ADC_SelectConfig
 381:.\Generated_Source\PSoC4/ADC.c **** ****************************************************************************//* 
 382:.\Generated_Source\PSoC4/ADC.c **** *
 383:.\Generated_Source\PSoC4/ADC.c **** * \brief Selects the predefined configuration for scanning. Disables
 384:.\Generated_Source\PSoC4/ADC.c **** * and re-enables the SAR and filter (if filter used).
 385:.\Generated_Source\PSoC4/ADC.c **** * 
 386:.\Generated_Source\PSoC4/ADC.c **** * \param config Number of configuration  in the ADC.
 387:.\Generated_Source\PSoC4/ADC.c **** * 
 388:.\Generated_Source\PSoC4/ADC.c **** * \param restart Determines if the ADC should be  restarted after 
 389:.\Generated_Source\PSoC4/ADC.c **** * selecting the configuration.
 390:.\Generated_Source\PSoC4/ADC.c **** *
 391:.\Generated_Source\PSoC4/ADC.c **** * \sideeffect Calls ADC_Init() to initialize 
 392:.\Generated_Source\PSoC4/ADC.c **** * ADC_channelEnMasks[]
 393:.\Generated_Source\PSoC4/ADC.c **** *
 394:.\Generated_Source\PSoC4/ADC.c **** * <b>Code Snippet</b>
 395:.\Generated_Source\PSoC4/ADC.c **** *  \snippet main.c snippet_ADC_SelectConfig
 396:.\Generated_Source\PSoC4/ADC.c **** *
 397:.\Generated_Source\PSoC4/ADC.c **** *******************************************************************************/
 398:.\Generated_Source\PSoC4/ADC.c **** void ADC_SelectConfig(uint32 config, uint32 restart)
 399:.\Generated_Source\PSoC4/ADC.c **** {
 400:.\Generated_Source\PSoC4/ADC.c ****     /* Check whether the configuration number is valid or not */
 401:.\Generated_Source\PSoC4/ADC.c ****     if(ADC_TOTAL_CONFIGS > config)
 402:.\Generated_Source\PSoC4/ADC.c ****     {
 403:.\Generated_Source\PSoC4/ADC.c ****         /* Stop the ADC before changing configurations */
 404:.\Generated_Source\PSoC4/ADC.c **** 	    ADC_Stop();
 405:.\Generated_Source\PSoC4/ADC.c ****         ADC_selected = 1u;
 406:.\Generated_Source\PSoC4/ADC.c ****         
 407:.\Generated_Source\PSoC4/ADC.c ****     	if(0u == ADC_initVar)
 408:.\Generated_Source\PSoC4/ADC.c ****     	{
 409:.\Generated_Source\PSoC4/ADC.c ****             ADC_Init();
 410:.\Generated_Source\PSoC4/ADC.c ****     	}
 411:.\Generated_Source\PSoC4/ADC.c ****         #if (ADC_VREF_ROUTED)
 412:.\Generated_Source\PSoC4/ADC.c ****         ADC_vrefAMux_Select((uint8)config);
 413:.\Generated_Source\PSoC4/ADC.c ****         #endif
 414:.\Generated_Source\PSoC4/ADC.c ****     	ADC_InitConfig(&ADC_allConfigs[config]);
 415:.\Generated_Source\PSoC4/ADC.c ****         #if(0u != ADC_ANY_CONFIG_USES_FILTER)
 416:.\Generated_Source\PSoC4/ADC.c ****         ADC_filterVinMux_Select((uint8)config);
 417:.\Generated_Source\PSoC4/ADC.c ****         #endif
 418:.\Generated_Source\PSoC4/ADC.c ****     	ADC_SAR_CHAN_EN_REG = ADC_channelEnMasks[config];
 419:.\Generated_Source\PSoC4/ADC.c ****     	ADC_currentConfig = config;
 420:.\Generated_Source\PSoC4/ADC.c ****         
 421:.\Generated_Source\PSoC4/ADC.c ****         if(1u == restart)
 422:.\Generated_Source\PSoC4/ADC.c ****         {
 423:.\Generated_Source\PSoC4/ADC.c ****             /* Restart the ADC */    
 424:.\Generated_Source\PSoC4/ADC.c ****             ADC_Start();
 425:.\Generated_Source\PSoC4/ADC.c ****             
 426:.\Generated_Source\PSoC4/ADC.c ****             /* Restart the scan */
 427:.\Generated_Source\PSoC4/ADC.c ****             ADC_StartConvert();
 428:.\Generated_Source\PSoC4/ADC.c ****         }
 429:.\Generated_Source\PSoC4/ADC.c ****     }
 430:.\Generated_Source\PSoC4/ADC.c ****     return;
 431:.\Generated_Source\PSoC4/ADC.c **** }
 432:.\Generated_Source\PSoC4/ADC.c **** 
ARM GAS  C:\Users\Greg\AppData\Local\Temp\ccyl0q0s.s 			page 9


 433:.\Generated_Source\PSoC4/ADC.c **** /*******************************************************************************
 434:.\Generated_Source\PSoC4/ADC.c **** * Function Name: ADC_StartConvert
 435:.\Generated_Source\PSoC4/ADC.c **** ****************************************************************************//**
 436:.\Generated_Source\PSoC4/ADC.c **** *
 437:.\Generated_Source\PSoC4/ADC.c **** * \brief In continuous mode, this API starts the conversion process and it runs 
 438:.\Generated_Source\PSoC4/ADC.c **** * continuously. 
 439:.\Generated_Source\PSoC4/ADC.c **** 
 440:.\Generated_Source\PSoC4/ADC.c **** * In Single Shot mode, the function triggers a single scan and 
 441:.\Generated_Source\PSoC4/ADC.c **** * every scan requires a call of this function. The mode is set with the 
 442:.\Generated_Source\PSoC4/ADC.c **** * Sample Mode parameter in the customizer. The customizer setting can be 
 443:.\Generated_Source\PSoC4/ADC.c **** * overridden at run time with the ADC_SetConvertMode() function.
 444:.\Generated_Source\PSoC4/ADC.c **** * 
 445:.\Generated_Source\PSoC4/ADC.c **** * \param None
 446:.\Generated_Source\PSoC4/ADC.c **** * 
 447:.\Generated_Source\PSoC4/ADC.c **** * \return None
 448:.\Generated_Source\PSoC4/ADC.c **** * 
 449:.\Generated_Source\PSoC4/ADC.c **** * \sideeffect None
 450:.\Generated_Source\PSoC4/ADC.c **** *
 451:.\Generated_Source\PSoC4/ADC.c **** * <b>Code Snippet</b>
 452:.\Generated_Source\PSoC4/ADC.c **** *  \snippet main.c snippet_ADC_StartConvert
 453:.\Generated_Source\PSoC4/ADC.c **** *
 454:.\Generated_Source\PSoC4/ADC.c **** *******************************************************************************/
 455:.\Generated_Source\PSoC4/ADC.c **** void ADC_StartConvert(void)
 456:.\Generated_Source\PSoC4/ADC.c **** {
 457:.\Generated_Source\PSoC4/ADC.c **** 	/* Freerunning mode */
 458:.\Generated_Source\PSoC4/ADC.c **** 	if((ADC_SAR_SAMPLE_CTRL_REG 
 459:.\Generated_Source\PSoC4/ADC.c **** 		& ADC_SAR_SAMPLE_CTRL_DSI_TRIGGER_LEVEL_MSK) 
 460:.\Generated_Source\PSoC4/ADC.c **** 		== ADC_SAR_SAMPLE_CTRL_DSI_TRIGGER_LEVEL_MSK)
 461:.\Generated_Source\PSoC4/ADC.c ****     {
 462:.\Generated_Source\PSoC4/ADC.c **** 		ADC_SAR_SAMPLE_CTRL_REG |= ADC_SAR_SAMPLE_CTRL_CONTINUOUS_MSK ; 
 463:.\Generated_Source\PSoC4/ADC.c ****         #if (ADC_ANY_CONFIG_USES_FILTER)
 464:.\Generated_Source\PSoC4/ADC.c ****             if (0u == (ADC_initVar & 0x2u))
 465:.\Generated_Source\PSoC4/ADC.c ****             {
 466:.\Generated_Source\PSoC4/ADC.c ****                 ADC_initVar |= 0x2u;
 467:.\Generated_Source\PSoC4/ADC.c ****                 ADC_TrimOffset();
 468:.\Generated_Source\PSoC4/ADC.c ****             }
 469:.\Generated_Source\PSoC4/ADC.c ****         #endif /* (ADC_ANY_CONFIG_USES_FILTER && (CFG0_FILTER_TYPE == LOW_PASS)) */
 470:.\Generated_Source\PSoC4/ADC.c **** 	}
 471:.\Generated_Source\PSoC4/ADC.c **** 	else /* Firmware trigger */
 472:.\Generated_Source\PSoC4/ADC.c **** 	{
 473:.\Generated_Source\PSoC4/ADC.c **** 		ADC_SAR_START_CTRL_REG = ADC_SAR_START_CTRL_FW_TRIGGER_MSK;
 474:.\Generated_Source\PSoC4/ADC.c **** 	}
 475:.\Generated_Source\PSoC4/ADC.c ****     
 476:.\Generated_Source\PSoC4/ADC.c ****     return;
 477:.\Generated_Source\PSoC4/ADC.c **** }
 478:.\Generated_Source\PSoC4/ADC.c **** 
 479:.\Generated_Source\PSoC4/ADC.c **** /*******************************************************************************
 480:.\Generated_Source\PSoC4/ADC.c **** * Function Name: ADC_StopConvert
 481:.\Generated_Source\PSoC4/ADC.c **** ****************************************************************************//**
 482:.\Generated_Source\PSoC4/ADC.c **** *
 483:.\Generated_Source\PSoC4/ADC.c **** * \brief Forces the ADC to stop conversions. If a conversion is 
 484:.\Generated_Source\PSoC4/ADC.c **** * currently executing, that conversion will complete, but no further conversions 
 485:.\Generated_Source\PSoC4/ADC.c **** * will occur.
 486:.\Generated_Source\PSoC4/ADC.c **** * 
 487:.\Generated_Source\PSoC4/ADC.c **** * \param None
 488:.\Generated_Source\PSoC4/ADC.c **** *
 489:.\Generated_Source\PSoC4/ADC.c **** * \return None
ARM GAS  C:\Users\Greg\AppData\Local\Temp\ccyl0q0s.s 			page 10


 490:.\Generated_Source\PSoC4/ADC.c **** *
 491:.\Generated_Source\PSoC4/ADC.c **** * \sideeffect None
 492:.\Generated_Source\PSoC4/ADC.c **** *
 493:.\Generated_Source\PSoC4/ADC.c **** * <b>Code Snippet</b>
 494:.\Generated_Source\PSoC4/ADC.c **** *  \snippet main.c snippet_ADC_StopConvert
 495:.\Generated_Source\PSoC4/ADC.c **** *
 496:.\Generated_Source\PSoC4/ADC.c **** *******************************************************************************/
 497:.\Generated_Source\PSoC4/ADC.c **** void ADC_StopConvert(void)
 498:.\Generated_Source\PSoC4/ADC.c **** {
 499:.\Generated_Source\PSoC4/ADC.c ****     if((ADC_SAR_SAMPLE_CTRL_REG  
 500:.\Generated_Source\PSoC4/ADC.c **** 		& ADC_SAR_SAMPLE_CTRL_DSI_TRIGGER_LEVEL_MSK) 
 501:.\Generated_Source\PSoC4/ADC.c **** 		== ADC_SAR_SAMPLE_CTRL_DSI_TRIGGER_LEVEL_MSK)
 502:.\Generated_Source\PSoC4/ADC.c **** 	{
 503:.\Generated_Source\PSoC4/ADC.c ****         ADC_SAR_SAMPLE_CTRL_REG &= ~ADC_SAR_SAMPLE_CTRL_CONTINUOUS_MSK;
 504:.\Generated_Source\PSoC4/ADC.c ****         
 505:.\Generated_Source\PSoC4/ADC.c ****         if((ADC_allConfigs[ADC_currentConfig].miscConfig 
 506:.\Generated_Source\PSoC4/ADC.c ****             & ADC_MISC_CONFIG_FILTER_PRESENT_MSK) 
 507:.\Generated_Source\PSoC4/ADC.c ****     	    == ADC_MISC_CONFIG_FILTER_PRESENT_MSK)
 508:.\Generated_Source\PSoC4/ADC.c ****         {
 509:.\Generated_Source\PSoC4/ADC.c ****             /* Re-synchronize the Filter if a filter is present */
 510:.\Generated_Source\PSoC4/ADC.c ****             ADC_Stop();
 511:.\Generated_Source\PSoC4/ADC.c ****             ADC_Start();
 512:.\Generated_Source\PSoC4/ADC.c ****         }
 513:.\Generated_Source\PSoC4/ADC.c **** 	}
 514:.\Generated_Source\PSoC4/ADC.c ****     
 515:.\Generated_Source\PSoC4/ADC.c ****     return;
 516:.\Generated_Source\PSoC4/ADC.c **** }
 517:.\Generated_Source\PSoC4/ADC.c **** /*******************************************************************************
 518:.\Generated_Source\PSoC4/ADC.c **** * Function Name: ADC_SetConvertMode
 519:.\Generated_Source\PSoC4/ADC.c **** ****************************************************************************//**
 520:.\Generated_Source\PSoC4/ADC.c **** *
 521:.\Generated_Source\PSoC4/ADC.c **** * \brief Sets the conversion mode to either Single-Shot or continuous. This 
 522:.\Generated_Source\PSoC4/ADC.c **** * function overrides the settings applied in the customizer. Changing 
 523:.\Generated_Source\PSoC4/ADC.c **** * configurations will restore the values set in the customizer.
 524:.\Generated_Source\PSoC4/ADC.c **** *
 525:.\Generated_Source\PSoC4/ADC.c **** * \param mode Sets the conversion mode. See table below for details.
 526:.\Generated_Source\PSoC4/ADC.c **** * | Options                          | Description                             |
 527:.\Generated_Source\PSoC4/ADC.c **** * | :------------------------------- | :-------------------------------------- |
 528:.\Generated_Source\PSoC4/ADC.c **** * | ADC_SINGLE_SHOT     | Calling the ADC_StartConvert() function after setting mode this will trig
 529:.\Generated_Source\PSoC4/ADC.c **** * | ADC_CONTINUOUS      | Calling the ADC_StartConvert() function after setting this mode trigger c
 530:.\Generated_Source\PSoC4/ADC.c **** *
 531:.\Generated_Source\PSoC4/ADC.c **** * \return None
 532:.\Generated_Source\PSoC4/ADC.c **** * 
 533:.\Generated_Source\PSoC4/ADC.c **** * \sideeffect None
 534:.\Generated_Source\PSoC4/ADC.c **** *
 535:.\Generated_Source\PSoC4/ADC.c **** * <b>Code Snippet</b>
 536:.\Generated_Source\PSoC4/ADC.c **** *  \snippet main.c snippet_ADC_SetConvertMode
 537:.\Generated_Source\PSoC4/ADC.c **** *
 538:.\Generated_Source\PSoC4/ADC.c **** *******************************************************************************/
 539:.\Generated_Source\PSoC4/ADC.c **** void ADC_SetConvertMode(uint32 mode)
 540:.\Generated_Source\PSoC4/ADC.c **** {
 541:.\Generated_Source\PSoC4/ADC.c ****     if(ADC_CONTINUOUS == mode)
 542:.\Generated_Source\PSoC4/ADC.c ****     {
 543:.\Generated_Source\PSoC4/ADC.c ****         ADC_SAR_SAMPLE_CTRL_REG |= ADC_SAR_SAMPLE_CTRL_DSI_TRIGGER_LEVEL_MSK;       
 544:.\Generated_Source\PSoC4/ADC.c ****     }
 545:.\Generated_Source\PSoC4/ADC.c ****     else
 546:.\Generated_Source\PSoC4/ADC.c ****     {
ARM GAS  C:\Users\Greg\AppData\Local\Temp\ccyl0q0s.s 			page 11


 547:.\Generated_Source\PSoC4/ADC.c ****         ADC_SAR_SAMPLE_CTRL_REG &= ~ADC_SAR_SAMPLE_CTRL_DSI_TRIGGER_LEVEL_MSK;       
 548:.\Generated_Source\PSoC4/ADC.c ****     }
 549:.\Generated_Source\PSoC4/ADC.c **** }
 550:.\Generated_Source\PSoC4/ADC.c **** /* ****************************************************************************
 551:.\Generated_Source\PSoC4/ADC.c **** * Function Name: ADC_IRQ_Enable
 552:.\Generated_Source\PSoC4/ADC.c **** ****************************************************************************//*
 553:.\Generated_Source\PSoC4/ADC.c **** *
 554:.\Generated_Source\PSoC4/ADC.c **** * \brief Enables interrupts to occur at the end of a conversion. Global 
 555:.\Generated_Source\PSoC4/ADC.c **** * interrupts must also be enabled for the ADC interrupts to occur.
 556:.\Generated_Source\PSoC4/ADC.c **** *
 557:.\Generated_Source\PSoC4/ADC.c **** * \param None
 558:.\Generated_Source\PSoC4/ADC.c **** *
 559:.\Generated_Source\PSoC4/ADC.c **** * \return None
 560:.\Generated_Source\PSoC4/ADC.c **** *
 561:.\Generated_Source\PSoC4/ADC.c **** * \sideeffect None
 562:.\Generated_Source\PSoC4/ADC.c **** *
 563:.\Generated_Source\PSoC4/ADC.c **** * <b>Code Snippet</b>
 564:.\Generated_Source\PSoC4/ADC.c **** *  \snippet main.c snippet_ADC_IRQ_Enable
 565:.\Generated_Source\PSoC4/ADC.c **** *
 566:.\Generated_Source\PSoC4/ADC.c **** *******************************************************************************/
 567:.\Generated_Source\PSoC4/ADC.c **** 
 568:.\Generated_Source\PSoC4/ADC.c **** 
 569:.\Generated_Source\PSoC4/ADC.c **** /* ****************************************************************************
 570:.\Generated_Source\PSoC4/ADC.c **** * Function Name: ADC_IRQ_Disable
 571:.\Generated_Source\PSoC4/ADC.c **** ****************************************************************************//* 
 572:.\Generated_Source\PSoC4/ADC.c **** *
 573:.\Generated_Source\PSoC4/ADC.c **** * \brief Disables end of conversion interrupts. 
 574:.\Generated_Source\PSoC4/ADC.c **** *
 575:.\Generated_Source\PSoC4/ADC.c **** * \param None
 576:.\Generated_Source\PSoC4/ADC.c **** * 
 577:.\Generated_Source\PSoC4/ADC.c **** * \return None
 578:.\Generated_Source\PSoC4/ADC.c **** * 
 579:.\Generated_Source\PSoC4/ADC.c **** * \sideeffect None
 580:.\Generated_Source\PSoC4/ADC.c **** *
 581:.\Generated_Source\PSoC4/ADC.c **** * <b>Code Snippet</b>
 582:.\Generated_Source\PSoC4/ADC.c **** *  \snippet main.c snippet_ADC_IRQ_Disable
 583:.\Generated_Source\PSoC4/ADC.c **** *
 584:.\Generated_Source\PSoC4/ADC.c **** *******************************************************************************/
 585:.\Generated_Source\PSoC4/ADC.c **** 
 586:.\Generated_Source\PSoC4/ADC.c **** 
 587:.\Generated_Source\PSoC4/ADC.c **** /*******************************************************************************
 588:.\Generated_Source\PSoC4/ADC.c **** * Function Name: ADC_SetEosMask
 589:.\Generated_Source\PSoC4/ADC.c **** ****************************************************************************//**
 590:.\Generated_Source\PSoC4/ADC.c **** *
 591:.\Generated_Source\PSoC4/ADC.c **** * \brief Sets of clears the End of Scan (EOS) interrupt mask. 
 592:.\Generated_Source\PSoC4/ADC.c **** *
 593:.\Generated_Source\PSoC4/ADC.c **** * \param mask 1 to set the mask, 0 to clear the mask.
 594:.\Generated_Source\PSoC4/ADC.c **** *
 595:.\Generated_Source\PSoC4/ADC.c **** * \return None
 596:.\Generated_Source\PSoC4/ADC.c **** * 
 597:.\Generated_Source\PSoC4/ADC.c **** * \sideeffect All other bits in the INTR register are cleared by this function.
 598:.\Generated_Source\PSoC4/ADC.c **** *
 599:.\Generated_Source\PSoC4/ADC.c **** * <b>Code Snippet</b>
 600:.\Generated_Source\PSoC4/ADC.c **** *  \snippet main.c snippet_ADC_SetEosMask
 601:.\Generated_Source\PSoC4/ADC.c **** *
 602:.\Generated_Source\PSoC4/ADC.c **** *******************************************************************************/
 603:.\Generated_Source\PSoC4/ADC.c **** void ADC_SetEosMask(uint32 mask)
ARM GAS  C:\Users\Greg\AppData\Local\Temp\ccyl0q0s.s 			page 12


 604:.\Generated_Source\PSoC4/ADC.c **** {
 605:.\Generated_Source\PSoC4/ADC.c ****     ADC_SAR_INTR_MASK_REG = mask & ADC_EOS_MASK;
 606:.\Generated_Source\PSoC4/ADC.c ****     
 607:.\Generated_Source\PSoC4/ADC.c ****     return;
 608:.\Generated_Source\PSoC4/ADC.c **** }
 609:.\Generated_Source\PSoC4/ADC.c **** 
 610:.\Generated_Source\PSoC4/ADC.c **** /* ****************************************************************************
 611:.\Generated_Source\PSoC4/ADC.c **** * Function Name: ADC_SetChanMask
 612:.\Generated_Source\PSoC4/ADC.c **** ****************************************************************************//*
 613:.\Generated_Source\PSoC4/ADC.c **** *
 614:.\Generated_Source\PSoC4/ADC.c **** * \brief Sets enable/disable mask for all channels.
 615:.\Generated_Source\PSoC4/ADC.c **** *
 616:.\Generated_Source\PSoC4/ADC.c **** *
 617:.\Generated_Source\PSoC4/ADC.c **** * \param chanMask
 618:.\Generated_Source\PSoC4/ADC.c **** *  Channel mask.
 619:.\Generated_Source\PSoC4/ADC.c **** *
 620:.\Generated_Source\PSoC4/ADC.c **** * \sideeffect
 621:.\Generated_Source\PSoC4/ADC.c **** *  None.
 622:.\Generated_Source\PSoC4/ADC.c **** *
 623:.\Generated_Source\PSoC4/ADC.c **** * <b>Code Snippet</b>
 624:.\Generated_Source\PSoC4/ADC.c **** *  \snippet main.c snippet_ADC_SetChanMask
 625:.\Generated_Source\PSoC4/ADC.c **** *
 626:.\Generated_Source\PSoC4/ADC.c **** *******************************************************************************/
 627:.\Generated_Source\PSoC4/ADC.c **** void ADC_SetChanMask(uint32 chanMask)
 628:.\Generated_Source\PSoC4/ADC.c **** {
 629:.\Generated_Source\PSoC4/ADC.c ****     ADC_SAR_CHAN_EN_REG = chanMask & ADC_MAX_CHANNELS_EN_MASK;
 630:.\Generated_Source\PSoC4/ADC.c ****     ADC_channelEnMasks[ADC_currentConfig] = chanMask & ADC_MAX_CHANNELS_EN_MASK;
 631:.\Generated_Source\PSoC4/ADC.c ****     return;
 632:.\Generated_Source\PSoC4/ADC.c **** }
 633:.\Generated_Source\PSoC4/ADC.c **** 
 634:.\Generated_Source\PSoC4/ADC.c **** /*******************************************************************************
 635:.\Generated_Source\PSoC4/ADC.c **** * Function Name: ADC_IsEndConversion
 636:.\Generated_Source\PSoC4/ADC.c **** ****************************************************************************//**
 637:.\Generated_Source\PSoC4/ADC.c **** *
 638:.\Generated_Source\PSoC4/ADC.c **** * \brief Immediately returns the status of the conversion or does not return 
 639:.\Generated_Source\PSoC4/ADC.c **** * (blocking) until the conversion completes, depending on the retMode parameter.
 640:.\Generated_Source\PSoC4/ADC.c **** *
 641:.\Generated_Source\PSoC4/ADC.c **** * \param retMode Check conversion return mode. See the following table for 
 642:.\Generated_Source\PSoC4/ADC.c **** * options.
 643:.\Generated_Source\PSoC4/ADC.c **** * | Options                              | Description                             |
 644:.\Generated_Source\PSoC4/ADC.c **** * | :-------------------------------     | :-------------------------------------- |
 645:.\Generated_Source\PSoC4/ADC.c **** * | ADC_RETURN_STATUS       | Immediately returns the conversion status for sequential channels. If
 646:.\Generated_Source\PSoC4/ADC.c **** * | ADC_WAIT_FOR_RESULT     | Does not return a result until the ADC conversion of all sequential c
 647:.\Generated_Source\PSoC4/ADC.c **** * | ADC_RETURN_STATUS_INJ   | Immediately returns the conversion status for the injection channel. 
 648:.\Generated_Source\PSoC4/ADC.c **** * | ADC_WAIT_FOR_RESULT_INJ | Does not return a result until the ADC completes injection channel co
 649:.\Generated_Source\PSoC4/ADC.c **** * 
 650:.\Generated_Source\PSoC4/ADC.c **** * \return uint8: If a nonzero value is returned, the last conversion is complete. 
 651:.\Generated_Source\PSoC4/ADC.c **** * If the returned value is zero, the ADC is still calculating the last result.
 652:.\Generated_Source\PSoC4/ADC.c **** *
 653:.\Generated_Source\PSoC4/ADC.c **** * \sideeffect This function reads the end of conversion status, and clears it afterward.
 654:.\Generated_Source\PSoC4/ADC.c **** * 
 655:.\Generated_Source\PSoC4/ADC.c **** * <b>Code Snippet</b>
 656:.\Generated_Source\PSoC4/ADC.c **** *  \snippet main.c snippet_ADC_IsEndConversion
 657:.\Generated_Source\PSoC4/ADC.c **** *
 658:.\Generated_Source\PSoC4/ADC.c **** *******************************************************************************/
 659:.\Generated_Source\PSoC4/ADC.c **** uint32 ADC_IsEndConversion(uint32 retMode)
 660:.\Generated_Source\PSoC4/ADC.c **** {
ARM GAS  C:\Users\Greg\AppData\Local\Temp\ccyl0q0s.s 			page 13


 661:.\Generated_Source\PSoC4/ADC.c ****     uint32 endOfConversion = 0u;
 662:.\Generated_Source\PSoC4/ADC.c ****     uint32 wdt = 0x3FFFFFFuL; /* Watchdog timer for blocking while loop */
 663:.\Generated_Source\PSoC4/ADC.c ****     if((ADC_RETURN_STATUS == retMode) || (ADC_WAIT_FOR_RESULT == retMode))
 664:.\Generated_Source\PSoC4/ADC.c ****     {
 665:.\Generated_Source\PSoC4/ADC.c ****         do
 666:.\Generated_Source\PSoC4/ADC.c ****         {
 667:.\Generated_Source\PSoC4/ADC.c ****             endOfConversion = ADC_SAR_INTR_REG & ADC_EOS_MASK;
 668:.\Generated_Source\PSoC4/ADC.c ****             wdt--;
 669:.\Generated_Source\PSoC4/ADC.c ****         }while(((0u == endOfConversion) 
 670:.\Generated_Source\PSoC4/ADC.c ****             && (((uint32) retMode & ADC_WAIT_FOR_RESULT) != 0u))
 671:.\Generated_Source\PSoC4/ADC.c ****             && (0uL != wdt));
 672:.\Generated_Source\PSoC4/ADC.c **** 
 673:.\Generated_Source\PSoC4/ADC.c ****         if(0u != endOfConversion)
 674:.\Generated_Source\PSoC4/ADC.c ****         {
 675:.\Generated_Source\PSoC4/ADC.c ****             /* Clear EOS bit */
 676:.\Generated_Source\PSoC4/ADC.c ****             ADC_SAR_INTR_REG = ADC_EOS_MASK;
 677:.\Generated_Source\PSoC4/ADC.c ****         }
 678:.\Generated_Source\PSoC4/ADC.c ****     }
 679:.\Generated_Source\PSoC4/ADC.c ****     
 680:.\Generated_Source\PSoC4/ADC.c ****     return endOfConversion;
 681:.\Generated_Source\PSoC4/ADC.c **** }
 682:.\Generated_Source\PSoC4/ADC.c ****  
 683:.\Generated_Source\PSoC4/ADC.c **** /* ****************************************************************************
 684:.\Generated_Source\PSoC4/ADC.c **** * Function Name: ADC_IsChannelSigned(uint32 chan)
 685:.\Generated_Source\PSoC4/ADC.c **** ****************************************************************************//*
 686:.\Generated_Source\PSoC4/ADC.c **** *
 687:.\Generated_Source\PSoC4/ADC.c **** * Determines if the provided channel is in signed format. 
 688:.\Generated_Source\PSoC4/ADC.c **** *
 689:.\Generated_Source\PSoC4/ADC.c **** * \param chan The ADC channel to check. 
 690:.\Generated_Source\PSoC4/ADC.c **** *
 691:.\Generated_Source\PSoC4/ADC.c **** * \return None
 692:.\Generated_Source\PSoC4/ADC.c **** * 
 693:.\Generated_Source\PSoC4/ADC.c **** * \sideeffect None
 694:.\Generated_Source\PSoC4/ADC.c **** *
 695:.\Generated_Source\PSoC4/ADC.c **** *
 696:.\Generated_Source\PSoC4/ADC.c **** *******************************************************************************/
 697:.\Generated_Source\PSoC4/ADC.c **** static int32 ADC_IsChannelSigned(uint32 chan)
 698:.\Generated_Source\PSoC4/ADC.c **** {
  25              		.loc 1 698 0
  26              		.cfi_startproc
  27              	.LVL0:
 699:.\Generated_Source\PSoC4/ADC.c ****     int32 isSigned = 0;
 700:.\Generated_Source\PSoC4/ADC.c ****     uint32 chanConfig;
 701:.\Generated_Source\PSoC4/ADC.c ****     
 702:.\Generated_Source\PSoC4/ADC.c ****     chanConfig = CY_GET_REG32((reg32 *)(ADC_SAR_CHAN_CONFIG_IND + (uint32)(chan << 2u)));
  28              		.loc 1 702 0
  29 0000 8000     		lsl	r0, r0, #2
  30              	.LVL1:
  31 0002 114B     		ldr	r3, .L6
  32 0004 9C46     		mov	ip, r3
  33 0006 6044     		add	r0, r0, ip
  34 0008 0268     		ldr	r2, [r0]
  35              	.LVL2:
 703:.\Generated_Source\PSoC4/ADC.c ****     /* If differential mode */
 704:.\Generated_Source\PSoC4/ADC.c ****     if(0u != (chanConfig & ADC_CHANNEL_CONFIG_DIFF_ALL_MSK))
  36              		.loc 1 704 0
  37 000a 104B     		ldr	r3, .L6+4
ARM GAS  C:\Users\Greg\AppData\Local\Temp\ccyl0q0s.s 			page 14


  38 000c 1A42     		tst	r2, r3
  39 000e 0BD0     		beq	.L2
 705:.\Generated_Source\PSoC4/ADC.c ****     {
 706:.\Generated_Source\PSoC4/ADC.c ****         /*If signed differential */
 707:.\Generated_Source\PSoC4/ADC.c ****         if((ADC_allConfigs[ADC_currentConfig].sampleCtrl 
  40              		.loc 1 707 0
  41 0010 0F4B     		ldr	r3, .L6+8
  42 0012 1A68     		ldr	r2, [r3]
  43              	.LVL3:
  44 0014 D300     		lsl	r3, r2, #3
  45 0016 9B1A     		sub	r3, r3, r2
  46 0018 DB00     		lsl	r3, r3, #3
  47 001a 0E4A     		ldr	r2, .L6+12
  48 001c D318     		add	r3, r2, r3
  49 001e DB68     		ldr	r3, [r3, #12]
  50 0020 1B07     		lsl	r3, r3, #28
  51 0022 0DD4     		bmi	.L4
 699:.\Generated_Source\PSoC4/ADC.c ****     uint32 chanConfig;
  52              		.loc 1 699 0
  53 0024 0020     		mov	r0, #0
  54 0026 0EE0     		b	.L3
  55              	.LVL4:
  56              	.L2:
 708:.\Generated_Source\PSoC4/ADC.c ****             & ADC_SAR_SAMPLE_CTRL_DIFFERENTIAL_SIGNED_MSK) != 0u)
 709:.\Generated_Source\PSoC4/ADC.c ****         {
 710:.\Generated_Source\PSoC4/ADC.c ****             isSigned = 1;
 711:.\Generated_Source\PSoC4/ADC.c ****         }
 712:.\Generated_Source\PSoC4/ADC.c ****     }
 713:.\Generated_Source\PSoC4/ADC.c ****     else
 714:.\Generated_Source\PSoC4/ADC.c ****     {
 715:.\Generated_Source\PSoC4/ADC.c ****         if((ADC_allConfigs[ADC_currentConfig].sampleCtrl
  57              		.loc 1 715 0
  58 0028 094B     		ldr	r3, .L6+8
  59 002a 1A68     		ldr	r2, [r3]
  60              	.LVL5:
  61 002c D300     		lsl	r3, r2, #3
  62 002e 9B1A     		sub	r3, r3, r2
  63 0030 DB00     		lsl	r3, r3, #3
  64 0032 084A     		ldr	r2, .L6+12
  65 0034 D318     		add	r3, r2, r3
  66 0036 DB68     		ldr	r3, [r3, #12]
  67 0038 5B07     		lsl	r3, r3, #29
  68 003a 03D4     		bmi	.L5
 699:.\Generated_Source\PSoC4/ADC.c ****     uint32 chanConfig;
  69              		.loc 1 699 0
  70 003c 0020     		mov	r0, #0
  71 003e 02E0     		b	.L3
  72              	.L4:
 710:.\Generated_Source\PSoC4/ADC.c ****         }
  73              		.loc 1 710 0
  74 0040 0120     		mov	r0, #1
  75 0042 00E0     		b	.L3
  76              	.L5:
 716:.\Generated_Source\PSoC4/ADC.c ****             & ADC_SAR_SAMPLE_CTRL_SINGLE_ENDED_SIGNED_MSK) != 0u)
 717:.\Generated_Source\PSoC4/ADC.c ****         {
 718:.\Generated_Source\PSoC4/ADC.c ****             isSigned = 1;
  77              		.loc 1 718 0
ARM GAS  C:\Users\Greg\AppData\Local\Temp\ccyl0q0s.s 			page 15


  78 0044 0120     		mov	r0, #1
  79              	.L3:
  80              	.LVL6:
 719:.\Generated_Source\PSoC4/ADC.c ****         }
 720:.\Generated_Source\PSoC4/ADC.c ****     }
 721:.\Generated_Source\PSoC4/ADC.c ****     return isSigned;
 722:.\Generated_Source\PSoC4/ADC.c **** }
  81              		.loc 1 722 0
  82              		@ sp needed
  83 0046 7047     		bx	lr
  84              	.L7:
  85              		.align	2
  86              	.L6:
  87 0048 80003A40 		.word	1077543040
  88 004c 00010001 		.word	16777472
  89 0050 00000000 		.word	.LANCHOR0
  90 0054 00000000 		.word	ADC_allConfigs
  91              		.cfi_endproc
  92              	.LFE12:
  93              		.size	ADC_IsChannelSigned, .-ADC_IsChannelSigned
  94              		.section	.text.ADC_Stop,"ax",%progbits
  95              		.align	2
  96              		.global	ADC_Stop
  97              		.code	16
  98              		.thumb_func
  99              		.type	ADC_Stop, %function
 100              	ADC_Stop:
 101              	.LFB3:
 263:.\Generated_Source\PSoC4/ADC.c ****     #if(0u != ADC_ANY_CONFIG_USES_FILTER)	
 102              		.loc 1 263 0
 103              		.cfi_startproc
 274:.\Generated_Source\PSoC4/ADC.c ****     return;
 104              		.loc 1 274 0
 105 0000 024A     		ldr	r2, .L9
 106 0002 1368     		ldr	r3, [r2]
 107 0004 5B00     		lsl	r3, r3, #1
 108 0006 5B08     		lsr	r3, r3, #1
 109 0008 1360     		str	r3, [r2]
 276:.\Generated_Source\PSoC4/ADC.c **** 
 110              		.loc 1 276 0
 111              		@ sp needed
 112 000a 7047     		bx	lr
 113              	.L10:
 114              		.align	2
 115              	.L9:
 116 000c 00003A40 		.word	1077542912
 117              		.cfi_endproc
 118              	.LFE3:
 119              		.size	ADC_Stop, .-ADC_Stop
 120              		.section	.text.ADC_InitConfig,"ax",%progbits
 121              		.align	2
 122              		.global	ADC_InitConfig
 123              		.code	16
 124              		.thumb_func
 125              		.type	ADC_InitConfig, %function
 126              	ADC_InitConfig:
 127              	.LFB4:
ARM GAS  C:\Users\Greg\AppData\Local\Temp\ccyl0q0s.s 			page 16


 295:.\Generated_Source\PSoC4/ADC.c **** 	uint32 chNum;
 128              		.loc 1 295 0
 129              		.cfi_startproc
 130              	.LVL7:
 131 0000 10B5     		push	{r4, lr}
 132              		.cfi_def_cfa_offset 8
 133              		.cfi_offset 4, -8
 134              		.cfi_offset 14, -4
 135 0002 041C     		mov	r4, r0
 307:.\Generated_Source\PSoC4/ADC.c ****         
 136              		.loc 1 307 0
 137 0004 808E     		ldrh	r0, [r0, #52]
 138              	.LVL8:
 139 0006 0021     		mov	r1, #0
 140 0008 FFF7FEFF 		bl	ADC_intSarClock_SetFractionalDividerRegister
 141              	.LVL9:
 311:.\Generated_Source\PSoC4/ADC.c ****    
 142              		.loc 1 311 0
 143 000c A268     		ldr	r2, [r4, #8]
 314:.\Generated_Source\PSoC4/ADC.c ****     ? ADC_SAR_CTRL_BOOSTPUMP_EN_MSK : 0u);
 144              		.loc 1 314 0
 145 000e 2B4B     		ldr	r3, .L20
 146 0010 1B68     		ldr	r3, [r3]
 147 0012 002B     		cmp	r3, #0
 148 0014 02DA     		bge	.L19
 149 0016 8023     		mov	r3, #128
 150 0018 5B03     		lsl	r3, r3, #13
 151 001a 00E0     		b	.L12
 152              	.L19:
 153 001c 0023     		mov	r3, #0
 154              	.L12:
 314:.\Generated_Source\PSoC4/ADC.c ****     ? ADC_SAR_CTRL_BOOSTPUMP_EN_MSK : 0u);
 155              		.loc 1 314 0 is_stmt 0 discriminator 4
 156 001e 1343     		orr	r3, r2
 311:.\Generated_Source\PSoC4/ADC.c ****    
 157              		.loc 1 311 0 is_stmt 1 discriminator 4
 158 0020 274A     		ldr	r2, .L20+4
 159 0022 1168     		ldr	r1, [r2]
 160 0024 0B43     		orr	r3, r1
 161 0026 1360     		str	r3, [r2]
 317:.\Generated_Source\PSoC4/ADC.c **** 	ADC_SAR_RANGE_THRES_REG = config->rangeThres;	
 162              		.loc 1 317 0 discriminator 4
 163 0028 264B     		ldr	r3, .L20+8
 164 002a E268     		ldr	r2, [r4, #12]
 165 002c 1A60     		str	r2, [r3]
 318:.\Generated_Source\PSoC4/ADC.c **** 	ADC_SAR_RANGE_COND_REG = config->rangeCond;
 166              		.loc 1 318 0 discriminator 4
 167 002e 264B     		ldr	r3, .L20+12
 168 0030 A269     		ldr	r2, [r4, #24]
 169 0032 1A60     		str	r2, [r3]
 319:.\Generated_Source\PSoC4/ADC.c **** 	ADC_SAR_SAMPLE_TIME01_REG = config->sampleTime01;
 170              		.loc 1 319 0 discriminator 4
 171 0034 254B     		ldr	r3, .L20+16
 172 0036 E269     		ldr	r2, [r4, #28]
 173 0038 1A60     		str	r2, [r3]
 320:.\Generated_Source\PSoC4/ADC.c **** 	ADC_SAR_SAMPLE_TIME23_REG = config->sampleTime23;
 174              		.loc 1 320 0 discriminator 4
ARM GAS  C:\Users\Greg\AppData\Local\Temp\ccyl0q0s.s 			page 17


 175 003a 254B     		ldr	r3, .L20+20
 176 003c 2269     		ldr	r2, [r4, #16]
 177 003e 1A60     		str	r2, [r3]
 321:.\Generated_Source\PSoC4/ADC.c ****     
 178              		.loc 1 321 0 discriminator 4
 179 0040 244B     		ldr	r3, .L20+24
 180 0042 6269     		ldr	r2, [r4, #20]
 181 0044 1A60     		str	r2, [r3]
 335:.\Generated_Source\PSoC4/ADC.c ****     ADC_SAR_RANGE_INTR_MASK_REG = 0u;	
 182              		.loc 1 335 0 discriminator 4
 183 0046 244A     		ldr	r2, .L20+28
 184 0048 0021     		mov	r1, #0
 185 004a 1160     		str	r1, [r2]
 336:.\Generated_Source\PSoC4/ADC.c **** 	ADC_SAR_SATURATE_INTR_MASK_REG = config->satIntMask;
 186              		.loc 1 336 0 discriminator 4
 187 004c 234B     		ldr	r3, .L20+32
 188 004e 1960     		str	r1, [r3]
 337:.\Generated_Source\PSoC4/ADC.c **** 	ADC_SAR_RANGE_INTR_MASK_REG = config->rangeIntMask;
 189              		.loc 1 337 0 discriminator 4
 190 0050 A16A     		ldr	r1, [r4, #40]
 191 0052 1160     		str	r1, [r2]
 338:.\Generated_Source\PSoC4/ADC.c **** 	ADC_SAR_INTR_MASK_REG = ADC_EOS_MASK;
 192              		.loc 1 338 0 discriminator 4
 193 0054 626A     		ldr	r2, [r4, #36]
 194 0056 1A60     		str	r2, [r3]
 339:.\Generated_Source\PSoC4/ADC.c ****     
 195              		.loc 1 339 0 discriminator 4
 196 0058 0122     		mov	r2, #1
 197 005a 214B     		ldr	r3, .L20+36
 198 005c 1A60     		str	r2, [r3]
 343:.\Generated_Source\PSoC4/ADC.c **** 	if(((config->ctrl & ADC__SAR_CTRL_VREF_BYP_AND_SEL_MSK) 
 199              		.loc 1 343 0 discriminator 4
 200 005e 214B     		ldr	r3, .L20+40
 201 0060 1B68     		ldr	r3, [r3]
 202              	.LVL10:
 344:.\Generated_Source\PSoC4/ADC.c **** 	    == ADC__INTERNAL1024) 
 203              		.loc 1 344 0 discriminator 4
 204 0062 EF32     		add	r2, r2, #239
 205 0064 A168     		ldr	r1, [r4, #8]
 206 0066 0A40     		and	r2, r1
 207 0068 402A     		cmp	r2, #64
 208 006a 01D0     		beq	.L13
 346:.\Generated_Source\PSoC4/ADC.c **** 	    == ADC__INTERNALVREF))
 209              		.loc 1 346 0
 210 006c 002A     		cmp	r2, #0
 211 006e 04D1     		bne	.L14
 212              	.L13:
 349:.\Generated_Source\PSoC4/ADC.c **** 		tmpRegVal |= ADC_SAR_DFT_CTRL_DLY_INC_MSK;
 213              		.loc 1 349 0
 214 0070 1D4A     		ldr	r2, .L20+44
 215 0072 1340     		and	r3, r2
 216              	.LVL11:
 350:.\Generated_Source\PSoC4/ADC.c **** 	}
 217              		.loc 1 350 0
 218 0074 0122     		mov	r2, #1
 219 0076 1343     		orr	r3, r2
 220              	.LVL12:
ARM GAS  C:\Users\Greg\AppData\Local\Temp\ccyl0q0s.s 			page 18


 221 0078 04E0     		b	.L15
 222              	.L14:
 223              	.LVL13:
 355:.\Generated_Source\PSoC4/ADC.c **** 	}	
 224              		.loc 1 355 0
 225 007a 0122     		mov	r2, #1
 226 007c 9343     		bic	r3, r2
 227              	.LVL14:
 228 007e 8022     		mov	r2, #128
 229 0080 9205     		lsl	r2, r2, #22
 230 0082 1343     		orr	r3, r2
 231              	.LVL15:
 232              	.L15:
 357:.\Generated_Source\PSoC4/ADC.c **** 	
 233              		.loc 1 357 0
 234 0084 174A     		ldr	r2, .L20+40
 235 0086 1360     		str	r3, [r2]
 236              	.LVL16:
 359:.\Generated_Source\PSoC4/ADC.c ****     {
 237              		.loc 1 359 0
 238 0088 0021     		mov	r1, #0
 239 008a 13E0     		b	.L16
 240              	.LVL17:
 241              	.L18:
 361:.\Generated_Source\PSoC4/ADC.c **** 		& ADC_CHANNEL_CONFIG_MASK);
 242              		.loc 1 361 0
 243 008c 2368     		ldr	r3, [r4]
 244 008e 5A18     		add	r2, r3, r1
 245 0090 9200     		lsl	r2, r2, #2
 246 0092 164B     		ldr	r3, .L20+48
 247 0094 D058     		ldr	r0, [r2, r3]
 248 0096 164B     		ldr	r3, .L20+52
 249 0098 0340     		and	r3, r0
 250              	.LVL18:
 365:.\Generated_Source\PSoC4/ADC.c ****             /*Non-paired differential channels set NEG_ADDR_EN and clear DIFFERENTIAL_EN */
 251              		.loc 1 365 0
 252 009a 1648     		ldr	r0, .L20+56
 253 009c 1258     		ldr	r2, [r2, r0]
 254 009e 1343     		orr	r3, r2
 255              	.LVL19:
 367:.\Generated_Source\PSoC4/ADC.c ****             {
 256              		.loc 1 367 0
 257 00a0 D201     		lsl	r2, r2, #7
 258 00a2 01D5     		bpl	.L17
 369:.\Generated_Source\PSoC4/ADC.c ****             }
 259              		.loc 1 369 0
 260 00a4 144A     		ldr	r2, .L20+60
 261 00a6 1340     		and	r3, r2
 262              	.LVL20:
 263              	.L17:
 373:.\Generated_Source\PSoC4/ADC.c **** 	}
 264              		.loc 1 373 0 discriminator 2
 265 00a8 8A00     		lsl	r2, r1, #2
 266 00aa 1448     		ldr	r0, .L20+64
 267 00ac 8446     		mov	ip, r0
 268 00ae 6244     		add	r2, r2, ip
 269 00b0 1360     		str	r3, [r2]
ARM GAS  C:\Users\Greg\AppData\Local\Temp\ccyl0q0s.s 			page 19


 359:.\Generated_Source\PSoC4/ADC.c ****     {
 270              		.loc 1 359 0 discriminator 2
 271 00b2 0131     		add	r1, r1, #1
 272              	.LVL21:
 273              	.L16:
 359:.\Generated_Source\PSoC4/ADC.c ****     {
 274              		.loc 1 359 0 is_stmt 0 discriminator 1
 275 00b4 6368     		ldr	r3, [r4, #4]
 276              	.LVL22:
 277 00b6 8B42     		cmp	r3, r1
 278 00b8 E8D8     		bhi	.L18
 377:.\Generated_Source\PSoC4/ADC.c **** 
 279              		.loc 1 377 0 is_stmt 1
 280              		@ sp needed
 281              	.LVL23:
 282 00ba 10BD     		pop	{r4, pc}
 283              	.L21:
 284              		.align	2
 285              	.L20:
 286 00bc 80033A40 		.word	1077543808
 287 00c0 00003A40 		.word	1077542912
 288 00c4 04003A40 		.word	1077542916
 289 00c8 18003A40 		.word	1077542936
 290 00cc 1C003A40 		.word	1077542940
 291 00d0 10003A40 		.word	1077542928
 292 00d4 14003A40 		.word	1077542932
 293 00d8 28023A40 		.word	1077543464
 294 00dc 38023A40 		.word	1077543480
 295 00e0 18023A40 		.word	1077543448
 296 00e4 30003A40 		.word	1077542960
 297 00e8 FFFFFFDF 		.word	-536870913
 298 00ec 00000000 		.word	.LANCHOR1
 299 00f0 00370080 		.word	-2147469568
 300 00f4 00000000 		.word	ADC_InputsPlacement
 301 00f8 FFFEFFFF 		.word	-257
 302 00fc 80003A40 		.word	1077543040
 303              		.cfi_endproc
 304              	.LFE4:
 305              		.size	ADC_InitConfig, .-ADC_InitConfig
 306              		.section	.text.ADC_StartConvert,"ax",%progbits
 307              		.align	2
 308              		.global	ADC_StartConvert
 309              		.code	16
 310              		.thumb_func
 311              		.type	ADC_StartConvert, %function
 312              	ADC_StartConvert:
 313              	.LFB6:
 456:.\Generated_Source\PSoC4/ADC.c **** 	/* Freerunning mode */
 314              		.loc 1 456 0
 315              		.cfi_startproc
 458:.\Generated_Source\PSoC4/ADC.c **** 		& ADC_SAR_SAMPLE_CTRL_DSI_TRIGGER_LEVEL_MSK) 
 316              		.loc 1 458 0
 317 0000 074B     		ldr	r3, .L25
 318 0002 1B68     		ldr	r3, [r3]
 319 0004 5B03     		lsl	r3, r3, #13
 320 0006 06D5     		bpl	.L23
 462:.\Generated_Source\PSoC4/ADC.c ****         #if (ADC_ANY_CONFIG_USES_FILTER)
ARM GAS  C:\Users\Greg\AppData\Local\Temp\ccyl0q0s.s 			page 20


 321              		.loc 1 462 0
 322 0008 054A     		ldr	r2, .L25
 323 000a 1368     		ldr	r3, [r2]
 324 000c 8021     		mov	r1, #128
 325 000e 4902     		lsl	r1, r1, #9
 326 0010 0B43     		orr	r3, r1
 327 0012 1360     		str	r3, [r2]
 328 0014 02E0     		b	.L22
 329              	.L23:
 473:.\Generated_Source\PSoC4/ADC.c **** 	}
 330              		.loc 1 473 0
 331 0016 0122     		mov	r2, #1
 332 0018 024B     		ldr	r3, .L25+4
 333 001a 1A60     		str	r2, [r3]
 334              	.L22:
 477:.\Generated_Source\PSoC4/ADC.c **** 
 335              		.loc 1 477 0
 336              		@ sp needed
 337 001c 7047     		bx	lr
 338              	.L26:
 339 001e C046     		.align	2
 340              	.L25:
 341 0020 04003A40 		.word	1077542916
 342 0024 24003A40 		.word	1077542948
 343              		.cfi_endproc
 344              	.LFE6:
 345              		.size	ADC_StartConvert, .-ADC_StartConvert
 346              		.section	.text.ADC_SetConvertMode,"ax",%progbits
 347              		.align	2
 348              		.global	ADC_SetConvertMode
 349              		.code	16
 350              		.thumb_func
 351              		.type	ADC_SetConvertMode, %function
 352              	ADC_SetConvertMode:
 353              	.LFB8:
 540:.\Generated_Source\PSoC4/ADC.c ****     if(ADC_CONTINUOUS == mode)
 354              		.loc 1 540 0
 355              		.cfi_startproc
 356              	.LVL24:
 541:.\Generated_Source\PSoC4/ADC.c ****     {
 357              		.loc 1 541 0
 358 0000 0128     		cmp	r0, #1
 359 0002 06D1     		bne	.L28
 543:.\Generated_Source\PSoC4/ADC.c ****     }
 360              		.loc 1 543 0
 361 0004 064A     		ldr	r2, .L30
 362 0006 1368     		ldr	r3, [r2]
 363 0008 8021     		mov	r1, #128
 364 000a C902     		lsl	r1, r1, #11
 365 000c 0B43     		orr	r3, r1
 366 000e 1360     		str	r3, [r2]
 367 0010 04E0     		b	.L27
 368              	.L28:
 547:.\Generated_Source\PSoC4/ADC.c ****     }
 369              		.loc 1 547 0
 370 0012 034A     		ldr	r2, .L30
 371 0014 1168     		ldr	r1, [r2]
ARM GAS  C:\Users\Greg\AppData\Local\Temp\ccyl0q0s.s 			page 21


 372 0016 034B     		ldr	r3, .L30+4
 373 0018 0B40     		and	r3, r1
 374 001a 1360     		str	r3, [r2]
 375              	.L27:
 549:.\Generated_Source\PSoC4/ADC.c **** /* ****************************************************************************
 376              		.loc 1 549 0
 377              		@ sp needed
 378 001c 7047     		bx	lr
 379              	.L31:
 380 001e C046     		.align	2
 381              	.L30:
 382 0020 04003A40 		.word	1077542916
 383 0024 FFFFFBFF 		.word	-262145
 384              		.cfi_endproc
 385              	.LFE8:
 386              		.size	ADC_SetConvertMode, .-ADC_SetConvertMode
 387              		.section	.text.ADC_SetEosMask,"ax",%progbits
 388              		.align	2
 389              		.global	ADC_SetEosMask
 390              		.code	16
 391              		.thumb_func
 392              		.type	ADC_SetEosMask, %function
 393              	ADC_SetEosMask:
 394              	.LFB9:
 604:.\Generated_Source\PSoC4/ADC.c ****     ADC_SAR_INTR_MASK_REG = mask & ADC_EOS_MASK;
 395              		.loc 1 604 0
 396              		.cfi_startproc
 397              	.LVL25:
 605:.\Generated_Source\PSoC4/ADC.c ****     
 398              		.loc 1 605 0
 399 0000 0123     		mov	r3, #1
 400 0002 1840     		and	r0, r3
 401              	.LVL26:
 402 0004 014B     		ldr	r3, .L33
 403 0006 1860     		str	r0, [r3]
 608:.\Generated_Source\PSoC4/ADC.c **** 
 404              		.loc 1 608 0
 405              		@ sp needed
 406 0008 7047     		bx	lr
 407              	.L34:
 408 000a C046     		.align	2
 409              	.L33:
 410 000c 18023A40 		.word	1077543448
 411              		.cfi_endproc
 412              	.LFE9:
 413              		.size	ADC_SetEosMask, .-ADC_SetEosMask
 414              		.section	.text.ADC_SetChanMask,"ax",%progbits
 415              		.align	2
 416              		.global	ADC_SetChanMask
 417              		.code	16
 418              		.thumb_func
 419              		.type	ADC_SetChanMask, %function
 420              	ADC_SetChanMask:
 421              	.LFB10:
 628:.\Generated_Source\PSoC4/ADC.c ****     ADC_SAR_CHAN_EN_REG = chanMask & ADC_MAX_CHANNELS_EN_MASK;
 422              		.loc 1 628 0
 423              		.cfi_startproc
ARM GAS  C:\Users\Greg\AppData\Local\Temp\ccyl0q0s.s 			page 22


 424              	.LVL27:
 629:.\Generated_Source\PSoC4/ADC.c ****     ADC_channelEnMasks[ADC_currentConfig] = chanMask & ADC_MAX_CHANNELS_EN_MASK;
 425              		.loc 1 629 0
 426 0000 0323     		mov	r3, #3
 427 0002 1840     		and	r0, r3
 428              	.LVL28:
 429 0004 034B     		ldr	r3, .L36
 430 0006 1860     		str	r0, [r3]
 630:.\Generated_Source\PSoC4/ADC.c ****     return;
 431              		.loc 1 630 0
 432 0008 034A     		ldr	r2, .L36+4
 433 000a 1368     		ldr	r3, [r2]
 434 000c 9B00     		lsl	r3, r3, #2
 435 000e D318     		add	r3, r2, r3
 436 0010 5860     		str	r0, [r3, #4]
 632:.\Generated_Source\PSoC4/ADC.c **** 
 437              		.loc 1 632 0
 438              		@ sp needed
 439 0012 7047     		bx	lr
 440              	.L37:
 441              		.align	2
 442              	.L36:
 443 0014 20003A40 		.word	1077542944
 444 0018 00000000 		.word	.LANCHOR0
 445              		.cfi_endproc
 446              	.LFE10:
 447              		.size	ADC_SetChanMask, .-ADC_SetChanMask
 448              		.section	.text.ADC_IsEndConversion,"ax",%progbits
 449              		.align	2
 450              		.global	ADC_IsEndConversion
 451              		.code	16
 452              		.thumb_func
 453              		.type	ADC_IsEndConversion, %function
 454              	ADC_IsEndConversion:
 455              	.LFB11:
 660:.\Generated_Source\PSoC4/ADC.c ****     uint32 endOfConversion = 0u;
 456              		.loc 1 660 0
 457              		.cfi_startproc
 458              	.LVL29:
 459 0000 011C     		mov	r1, r0
 460              	.LVL30:
 663:.\Generated_Source\PSoC4/ADC.c ****     {
 461              		.loc 1 663 0
 462 0002 431E     		sub	r3, r0, #1
 463 0004 012B     		cmp	r3, #1
 464 0006 11D8     		bhi	.L42
 465 0008 094A     		ldr	r2, .L43
 466              	.LVL31:
 467              	.L41:
 667:.\Generated_Source\PSoC4/ADC.c ****             wdt--;
 468              		.loc 1 667 0 discriminator 1
 469 000a 0A4B     		ldr	r3, .L43+4
 470 000c 1B68     		ldr	r3, [r3]
 471 000e 0120     		mov	r0, #1
 472 0010 1840     		and	r0, r3
 473              	.LVL32:
 668:.\Generated_Source\PSoC4/ADC.c ****         }while(((0u == endOfConversion) 
ARM GAS  C:\Users\Greg\AppData\Local\Temp\ccyl0q0s.s 			page 23


 474              		.loc 1 668 0 discriminator 1
 475 0012 013A     		sub	r2, r2, #1
 476              	.LVL33:
 671:.\Generated_Source\PSoC4/ADC.c **** 
 477              		.loc 1 671 0 discriminator 1
 478 0014 0028     		cmp	r0, #0
 479 0016 03D1     		bne	.L40
 670:.\Generated_Source\PSoC4/ADC.c ****             && (0uL != wdt));
 480              		.loc 1 670 0
 481 0018 8B07     		lsl	r3, r1, #30
 482 001a 01D5     		bpl	.L40
 671:.\Generated_Source\PSoC4/ADC.c **** 
 483              		.loc 1 671 0
 484 001c 002A     		cmp	r2, #0
 485 001e F4D1     		bne	.L41
 486              	.L40:
 673:.\Generated_Source\PSoC4/ADC.c ****         {
 487              		.loc 1 673 0
 488 0020 0028     		cmp	r0, #0
 489 0022 04D0     		beq	.L39
 676:.\Generated_Source\PSoC4/ADC.c ****         }
 490              		.loc 1 676 0
 491 0024 0122     		mov	r2, #1
 492              	.LVL34:
 493 0026 034B     		ldr	r3, .L43+4
 494 0028 1A60     		str	r2, [r3]
 495 002a 00E0     		b	.L39
 496              	.LVL35:
 497              	.L42:
 661:.\Generated_Source\PSoC4/ADC.c ****     uint32 wdt = 0x3FFFFFFuL; /* Watchdog timer for blocking while loop */
 498              		.loc 1 661 0
 499 002c 0020     		mov	r0, #0
 500              	.LVL36:
 501              	.L39:
 681:.\Generated_Source\PSoC4/ADC.c ****  
 502              		.loc 1 681 0
 503              		@ sp needed
 504 002e 7047     		bx	lr
 505              	.L44:
 506              		.align	2
 507              	.L43:
 508 0030 FFFFFF03 		.word	67108863
 509 0034 10023A40 		.word	1077543440
 510              		.cfi_endproc
 511              	.LFE11:
 512              		.size	ADC_IsEndConversion, .-ADC_IsEndConversion
 513              		.section	.text.ADC_GetResult16,"ax",%progbits
 514              		.align	2
 515              		.global	ADC_GetResult16
 516              		.code	16
 517              		.thumb_func
 518              		.type	ADC_GetResult16, %function
 519              	ADC_GetResult16:
 520              	.LFB13:
 723:.\Generated_Source\PSoC4/ADC.c **** /*******************************************************************************
 724:.\Generated_Source\PSoC4/ADC.c **** * Function Name: ADC_GetResult16
 725:.\Generated_Source\PSoC4/ADC.c **** ****************************************************************************//**
ARM GAS  C:\Users\Greg\AppData\Local\Temp\ccyl0q0s.s 			page 24


 726:.\Generated_Source\PSoC4/ADC.c **** *
 727:.\Generated_Source\PSoC4/ADC.c **** * \brief Gets the data available in the channel result data register
 728:.\Generated_Source\PSoC4/ADC.c **** *
 729:.\Generated_Source\PSoC4/ADC.c **** * \param chan The ADC channel to read the result from. The first 
 730:.\Generated_Source\PSoC4/ADC.c **** * channel is 0 and the injection channel if enabled is the number of valid 
 731:.\Generated_Source\PSoC4/ADC.c **** * channels.
 732:.\Generated_Source\PSoC4/ADC.c **** *
 733:.\Generated_Source\PSoC4/ADC.c **** * \return Returns converted data as a signed 16-bit integer.
 734:.\Generated_Source\PSoC4/ADC.c **** * 
 735:.\Generated_Source\PSoC4/ADC.c **** * \sideeffect None
 736:.\Generated_Source\PSoC4/ADC.c **** * 
 737:.\Generated_Source\PSoC4/ADC.c **** * <b>Code Snippet</b>
 738:.\Generated_Source\PSoC4/ADC.c **** *  \snippet main.c snippet_ADC_GetResult16
 739:.\Generated_Source\PSoC4/ADC.c **** *
 740:.\Generated_Source\PSoC4/ADC.c **** *******************************************************************************/
 741:.\Generated_Source\PSoC4/ADC.c **** int16 ADC_GetResult16(uint32 chan)
 742:.\Generated_Source\PSoC4/ADC.c **** {
 521              		.loc 1 742 0
 522              		.cfi_startproc
 523              	.LVL37:
 524 0000 10B5     		push	{r4, lr}
 525              		.cfi_def_cfa_offset 8
 526              		.cfi_offset 4, -8
 527              		.cfi_offset 14, -4
 528 0002 041E     		sub	r4, r0, #0
 743:.\Generated_Source\PSoC4/ADC.c ****     uint32 adcResult;
 744:.\Generated_Source\PSoC4/ADC.c ****     
 745:.\Generated_Source\PSoC4/ADC.c ****     /* Halt CPU in debug mode if channel is out of valid range */
 746:.\Generated_Source\PSoC4/ADC.c ****     CYASSERT(chan < ADC_TOTAL_CHANNELS_NUM);
 529              		.loc 1 746 0
 530 0004 012C     		cmp	r4, #1
 531 0006 02D9     		bls	.L46
 532              		.loc 1 746 0 is_stmt 0 discriminator 1
 533 0008 0020     		mov	r0, #0
 534              	.LVL38:
 535 000a FFF7FEFF 		bl	CyHalt
 536              	.LVL39:
 537              	.L46:
 747:.\Generated_Source\PSoC4/ADC.c **** 
 748:.\Generated_Source\PSoC4/ADC.c ****     if(ADC_TOTAL_CHANNELS_NUM > chan)
 538              		.loc 1 748 0 is_stmt 1
 539 000e 012C     		cmp	r4, #1
 540 0010 07D8     		bhi	.L48
 749:.\Generated_Source\PSoC4/ADC.c ****     {   
 750:.\Generated_Source\PSoC4/ADC.c ****         adcResult = CY_GET_REG32((reg32 *)(ADC_SAR_CHAN_RESULT_IND + (uint32)(chan << 2u))) &
 541              		.loc 1 750 0
 542 0012 A400     		lsl	r4, r4, #2
 543              	.LVL40:
 544 0014 044B     		ldr	r3, .L49
 545 0016 9C46     		mov	ip, r3
 546 0018 6444     		add	r4, r4, ip
 547 001a 2068     		ldr	r0, [r4]
 548 001c 0004     		lsl	r0, r0, #16
 549 001e 000C     		lsr	r0, r0, #16
 550              	.LVL41:
 551 0020 00E0     		b	.L47
 552              	.LVL42:
ARM GAS  C:\Users\Greg\AppData\Local\Temp\ccyl0q0s.s 			page 25


 553              	.L48:
 751:.\Generated_Source\PSoC4/ADC.c ****             ADC_RESULT_MASK; 
 752:.\Generated_Source\PSoC4/ADC.c ****     }
 753:.\Generated_Source\PSoC4/ADC.c ****     else
 754:.\Generated_Source\PSoC4/ADC.c ****     {
 755:.\Generated_Source\PSoC4/ADC.c **** 		adcResult = 0u;
 554              		.loc 1 755 0
 555 0022 0020     		mov	r0, #0
 556              	.LVL43:
 557              	.L47:
 756:.\Generated_Source\PSoC4/ADC.c ****     }
 757:.\Generated_Source\PSoC4/ADC.c ****     
 758:.\Generated_Source\PSoC4/ADC.c ****     return (int16) adcResult;
 558              		.loc 1 758 0
 559 0024 00B2     		sxth	r0, r0
 560              	.LVL44:
 759:.\Generated_Source\PSoC4/ADC.c **** }
 561              		.loc 1 759 0
 562              		@ sp needed
 563 0026 10BD     		pop	{r4, pc}
 564              	.L50:
 565              		.align	2
 566              	.L49:
 567 0028 80013A40 		.word	1077543296
 568              		.cfi_endproc
 569              	.LFE13:
 570              		.size	ADC_GetResult16, .-ADC_GetResult16
 571              		.section	.text.ADC_GetResult32,"ax",%progbits
 572              		.align	2
 573              		.global	ADC_GetResult32
 574              		.code	16
 575              		.thumb_func
 576              		.type	ADC_GetResult32, %function
 577              	ADC_GetResult32:
 578              	.LFB14:
 760:.\Generated_Source\PSoC4/ADC.c **** 
 761:.\Generated_Source\PSoC4/ADC.c **** /*******************************************************************************
 762:.\Generated_Source\PSoC4/ADC.c **** * Function Name: ADC_GetResult32
 763:.\Generated_Source\PSoC4/ADC.c **** ****************************************************************************//**
 764:.\Generated_Source\PSoC4/ADC.c **** *
 765:.\Generated_Source\PSoC4/ADC.c **** * \brief Gets the data available in the channel result data register. 
 766:.\Generated_Source\PSoC4/ADC.c **** *
 767:.\Generated_Source\PSoC4/ADC.c **** * \param chan The ADC channel to read the result from. The first 
 768:.\Generated_Source\PSoC4/ADC.c **** * channel is 0 and the injection channel if enabled is the number of valid 
 769:.\Generated_Source\PSoC4/ADC.c **** * channels.
 770:.\Generated_Source\PSoC4/ADC.c **** *
 771:.\Generated_Source\PSoC4/ADC.c **** * \return Returns converted data as a signed 32-bit integer.
 772:.\Generated_Source\PSoC4/ADC.c **** * 
 773:.\Generated_Source\PSoC4/ADC.c **** * \sideeffect None
 774:.\Generated_Source\PSoC4/ADC.c **** *
 775:.\Generated_Source\PSoC4/ADC.c **** * <b>Code Snippet</b>
 776:.\Generated_Source\PSoC4/ADC.c **** *  \snippet main.c snippet_ADC_GetResult32
 777:.\Generated_Source\PSoC4/ADC.c **** *
 778:.\Generated_Source\PSoC4/ADC.c **** *******************************************************************************/
 779:.\Generated_Source\PSoC4/ADC.c **** int32 ADC_GetResult32(uint32 chan)
 780:.\Generated_Source\PSoC4/ADC.c **** {
 579              		.loc 1 780 0
ARM GAS  C:\Users\Greg\AppData\Local\Temp\ccyl0q0s.s 			page 26


 580              		.cfi_startproc
 581              	.LVL45:
 582 0000 38B5     		push	{r3, r4, r5, lr}
 583              		.cfi_def_cfa_offset 16
 584              		.cfi_offset 3, -16
 585              		.cfi_offset 4, -12
 586              		.cfi_offset 5, -8
 587              		.cfi_offset 14, -4
 588 0002 051E     		sub	r5, r0, #0
 781:.\Generated_Source\PSoC4/ADC.c ****     uint32 adcResult;
 782:.\Generated_Source\PSoC4/ADC.c ****     int16 adcResult16;
 783:.\Generated_Source\PSoC4/ADC.c ****     int32 finalResult;
 784:.\Generated_Source\PSoC4/ADC.c ****     
 785:.\Generated_Source\PSoC4/ADC.c ****     /* Halt CPU in debug mode if channel is out of valid range */
 786:.\Generated_Source\PSoC4/ADC.c ****     CYASSERT(chan < ADC_TOTAL_CHANNELS_NUM);
 589              		.loc 1 786 0
 590 0004 012D     		cmp	r5, #1
 591 0006 02D9     		bls	.L52
 592              		.loc 1 786 0 is_stmt 0 discriminator 1
 593 0008 0020     		mov	r0, #0
 594              	.LVL46:
 595 000a FFF7FEFF 		bl	CyHalt
 596              	.LVL47:
 597              	.L52:
 787:.\Generated_Source\PSoC4/ADC.c **** 
 788:.\Generated_Source\PSoC4/ADC.c ****     if(ADC_TOTAL_CHANNELS_NUM > chan)
 598              		.loc 1 788 0 is_stmt 1
 599 000e 012D     		cmp	r5, #1
 600 0010 07D8     		bhi	.L56
 789:.\Generated_Source\PSoC4/ADC.c ****     {
 790:.\Generated_Source\PSoC4/ADC.c ****         adcResult = CY_GET_REG32((reg32 *)(ADC_SAR_CHAN_RESULT_IND + (uint32)(chan << 2u))) &
 601              		.loc 1 790 0
 602 0012 AB00     		lsl	r3, r5, #2
 603 0014 084A     		ldr	r2, .L57
 604 0016 9446     		mov	ip, r2
 605 0018 6344     		add	r3, r3, ip
 606 001a 1C68     		ldr	r4, [r3]
 607 001c 2404     		lsl	r4, r4, #16
 608 001e 240C     		lsr	r4, r4, #16
 609              	.LVL48:
 610 0020 00E0     		b	.L53
 611              	.LVL49:
 612              	.L56:
 791:.\Generated_Source\PSoC4/ADC.c ****             ADC_RESULT_MASK;
 792:.\Generated_Source\PSoC4/ADC.c ****     }
 793:.\Generated_Source\PSoC4/ADC.c ****     else
 794:.\Generated_Source\PSoC4/ADC.c ****     {
 795:.\Generated_Source\PSoC4/ADC.c ****         adcResult = 0u;
 613              		.loc 1 795 0
 614 0022 0024     		mov	r4, #0
 615              	.L53:
 616              	.LVL50:
 796:.\Generated_Source\PSoC4/ADC.c ****     }
 797:.\Generated_Source\PSoC4/ADC.c ****     /* Sign extend if channel is signed format */
 798:.\Generated_Source\PSoC4/ADC.c ****     if(ADC_IsChannelSigned(chan) == 1)
 617              		.loc 1 798 0
 618 0024 281C     		mov	r0, r5
ARM GAS  C:\Users\Greg\AppData\Local\Temp\ccyl0q0s.s 			page 27


 619 0026 FFF7FEFF 		bl	ADC_IsChannelSigned
 620              	.LVL51:
 621 002a 0128     		cmp	r0, #1
 622 002c 01D1     		bne	.L54
 623              	.LVL52:
 799:.\Generated_Source\PSoC4/ADC.c ****     {
 800:.\Generated_Source\PSoC4/ADC.c ****         adcResult16 = (int16) adcResult;
 801:.\Generated_Source\PSoC4/ADC.c ****         finalResult = (int32) adcResult16;
 624              		.loc 1 801 0
 625 002e 20B2     		sxth	r0, r4
 626              	.LVL53:
 627 0030 00E0     		b	.L55
 628              	.LVL54:
 629              	.L54:
 802:.\Generated_Source\PSoC4/ADC.c ****     }
 803:.\Generated_Source\PSoC4/ADC.c ****     else
 804:.\Generated_Source\PSoC4/ADC.c ****     {
 805:.\Generated_Source\PSoC4/ADC.c ****         finalResult = (int32) adcResult;
 630              		.loc 1 805 0
 631 0032 201C     		mov	r0, r4
 632              	.LVL55:
 633              	.L55:
 806:.\Generated_Source\PSoC4/ADC.c ****     }
 807:.\Generated_Source\PSoC4/ADC.c ****     return finalResult;
 808:.\Generated_Source\PSoC4/ADC.c **** }
 634              		.loc 1 808 0
 635              		@ sp needed
 636              	.LVL56:
 637              	.LVL57:
 638 0034 38BD     		pop	{r3, r4, r5, pc}
 639              	.L58:
 640 0036 C046     		.align	2
 641              	.L57:
 642 0038 80013A40 		.word	1077543296
 643              		.cfi_endproc
 644              	.LFE14:
 645              		.size	ADC_GetResult32, .-ADC_GetResult32
 646              		.section	.text.ADC_SetLowLimit,"ax",%progbits
 647              		.align	2
 648              		.global	ADC_SetLowLimit
 649              		.code	16
 650              		.thumb_func
 651              		.type	ADC_SetLowLimit, %function
 652              	ADC_SetLowLimit:
 653              	.LFB15:
 809:.\Generated_Source\PSoC4/ADC.c **** 
 810:.\Generated_Source\PSoC4/ADC.c **** /*******************************************************************************
 811:.\Generated_Source\PSoC4/ADC.c **** * Function Name: ADC_SetLowLimit
 812:.\Generated_Source\PSoC4/ADC.c **** ****************************************************************************//**
 813:.\Generated_Source\PSoC4/ADC.c **** *
 814:.\Generated_Source\PSoC4/ADC.c **** * \brief Sets the low limit parameter for a limit condition.
 815:.\Generated_Source\PSoC4/ADC.c **** *
 816:.\Generated_Source\PSoC4/ADC.c **** * \param lowLimit The low limit for a limit condition.
 817:.\Generated_Source\PSoC4/ADC.c **** *
 818:.\Generated_Source\PSoC4/ADC.c **** * \return None
 819:.\Generated_Source\PSoC4/ADC.c **** * 
 820:.\Generated_Source\PSoC4/ADC.c **** * \sideeffect None
ARM GAS  C:\Users\Greg\AppData\Local\Temp\ccyl0q0s.s 			page 28


 821:.\Generated_Source\PSoC4/ADC.c **** *
 822:.\Generated_Source\PSoC4/ADC.c **** * <b>Code Snippet</b>
 823:.\Generated_Source\PSoC4/ADC.c **** *  \snippet main.c snippet_ADC_SetLowLimit
 824:.\Generated_Source\PSoC4/ADC.c **** *
 825:.\Generated_Source\PSoC4/ADC.c **** *******************************************************************************/
 826:.\Generated_Source\PSoC4/ADC.c **** void ADC_SetLowLimit(uint32 lowLimit)
 827:.\Generated_Source\PSoC4/ADC.c **** {   
 654              		.loc 1 827 0
 655              		.cfi_startproc
 656              	.LVL58:
 828:.\Generated_Source\PSoC4/ADC.c ****     ADC_SAR_RANGE_THRES_REG &= ~(uint32)(ADC_SAR_RANGE_THRES_RANGE_LOW_MSK);
 657              		.loc 1 828 0
 658 0000 054A     		ldr	r2, .L60
 659 0002 1368     		ldr	r3, [r2]
 660 0004 1B0C     		lsr	r3, r3, #16
 661 0006 1B04     		lsl	r3, r3, #16
 662 0008 1360     		str	r3, [r2]
 829:.\Generated_Source\PSoC4/ADC.c ****     ADC_SAR_RANGE_THRES_REG |= lowLimit & ADC_SAR_RANGE_THRES_RANGE_LOW_MSK;
 663              		.loc 1 829 0
 664 000a 1368     		ldr	r3, [r2]
 665 000c 0004     		lsl	r0, r0, #16
 666              	.LVL59:
 667 000e 000C     		lsr	r0, r0, #16
 668 0010 1843     		orr	r0, r3
 669 0012 1060     		str	r0, [r2]
 830:.\Generated_Source\PSoC4/ADC.c ****     return;
 831:.\Generated_Source\PSoC4/ADC.c **** }
 670              		.loc 1 831 0
 671              		@ sp needed
 672 0014 7047     		bx	lr
 673              	.L61:
 674 0016 C046     		.align	2
 675              	.L60:
 676 0018 18003A40 		.word	1077542936
 677              		.cfi_endproc
 678              	.LFE15:
 679              		.size	ADC_SetLowLimit, .-ADC_SetLowLimit
 680              		.section	.text.ADC_SetHighLimit,"ax",%progbits
 681              		.align	2
 682              		.global	ADC_SetHighLimit
 683              		.code	16
 684              		.thumb_func
 685              		.type	ADC_SetHighLimit, %function
 686              	ADC_SetHighLimit:
 687              	.LFB16:
 832:.\Generated_Source\PSoC4/ADC.c **** 
 833:.\Generated_Source\PSoC4/ADC.c **** /*******************************************************************************
 834:.\Generated_Source\PSoC4/ADC.c **** * Function Name: ADC_SetHighLimit
 835:.\Generated_Source\PSoC4/ADC.c **** ****************************************************************************//**
 836:.\Generated_Source\PSoC4/ADC.c **** *
 837:.\Generated_Source\PSoC4/ADC.c **** * \brief Sets the high limit parameter for a limit condition.
 838:.\Generated_Source\PSoC4/ADC.c **** *
 839:.\Generated_Source\PSoC4/ADC.c **** * \param highLimit The high limit for a limit condition.
 840:.\Generated_Source\PSoC4/ADC.c **** *
 841:.\Generated_Source\PSoC4/ADC.c **** * \return None
 842:.\Generated_Source\PSoC4/ADC.c **** * 
 843:.\Generated_Source\PSoC4/ADC.c **** * \sideeffect None
ARM GAS  C:\Users\Greg\AppData\Local\Temp\ccyl0q0s.s 			page 29


 844:.\Generated_Source\PSoC4/ADC.c **** * 
 845:.\Generated_Source\PSoC4/ADC.c **** * <b>Code Snippet</b>
 846:.\Generated_Source\PSoC4/ADC.c **** *  \snippet main.c snippet_ADC_SetHighLimit
 847:.\Generated_Source\PSoC4/ADC.c **** *
 848:.\Generated_Source\PSoC4/ADC.c **** *******************************************************************************/
 849:.\Generated_Source\PSoC4/ADC.c **** void ADC_SetHighLimit(uint32 highLimit)
 850:.\Generated_Source\PSoC4/ADC.c **** {   
 688              		.loc 1 850 0
 689              		.cfi_startproc
 690              	.LVL60:
 851:.\Generated_Source\PSoC4/ADC.c ****     ADC_SAR_RANGE_THRES_REG &= ~(uint32)(ADC_SAR_RANGE_THRES_RANGE_HIGH_MSK);
 691              		.loc 1 851 0
 692 0000 044A     		ldr	r2, .L63
 693 0002 1368     		ldr	r3, [r2]
 694 0004 1B04     		lsl	r3, r3, #16
 695 0006 1B0C     		lsr	r3, r3, #16
 696 0008 1360     		str	r3, [r2]
 852:.\Generated_Source\PSoC4/ADC.c ****     ADC_SAR_RANGE_THRES_REG |= (uint32)(highLimit << ADC_SAR_RANGE_THRES_RANGE_HIGH_SHFT);
 697              		.loc 1 852 0
 698 000a 1368     		ldr	r3, [r2]
 699 000c 0004     		lsl	r0, r0, #16
 700              	.LVL61:
 701 000e 1843     		orr	r0, r3
 702 0010 1060     		str	r0, [r2]
 853:.\Generated_Source\PSoC4/ADC.c ****     return;
 854:.\Generated_Source\PSoC4/ADC.c **** }
 703              		.loc 1 854 0
 704              		@ sp needed
 705 0012 7047     		bx	lr
 706              	.L64:
 707              		.align	2
 708              	.L63:
 709 0014 18003A40 		.word	1077542936
 710              		.cfi_endproc
 711              	.LFE16:
 712              		.size	ADC_SetHighLimit, .-ADC_SetHighLimit
 713              		.section	.text.ADC_SetLimitMask,"ax",%progbits
 714              		.align	2
 715              		.global	ADC_SetLimitMask
 716              		.code	16
 717              		.thumb_func
 718              		.type	ADC_SetLimitMask, %function
 719              	ADC_SetLimitMask:
 720              	.LFB17:
 855:.\Generated_Source\PSoC4/ADC.c **** 
 856:.\Generated_Source\PSoC4/ADC.c **** /*******************************************************************************
 857:.\Generated_Source\PSoC4/ADC.c **** * Function Name: ADC_SetLimitMask
 858:.\Generated_Source\PSoC4/ADC.c **** ****************************************************************************//**
 859:.\Generated_Source\PSoC4/ADC.c **** *
 860:.\Generated_Source\PSoC4/ADC.c **** * \brief Sets the channel limit condition mask.
 861:.\Generated_Source\PSoC4/ADC.c **** *
 862:.\Generated_Source\PSoC4/ADC.c **** *
 863:.\Generated_Source\PSoC4/ADC.c **** * \param mask Sets which channels that may cause a limit condition interrupt. 
 864:.\Generated_Source\PSoC4/ADC.c **** * Setting bits for channels that do not exist will have no effect. For example, 
 865:.\Generated_Source\PSoC4/ADC.c **** * if only 6  channels were enabled, setting a mask of 0x0103 would only enable 
 866:.\Generated_Source\PSoC4/ADC.c **** * the last two channels (0 and 1).
 867:.\Generated_Source\PSoC4/ADC.c **** *
ARM GAS  C:\Users\Greg\AppData\Local\Temp\ccyl0q0s.s 			page 30


 868:.\Generated_Source\PSoC4/ADC.c **** * \return None
 869:.\Generated_Source\PSoC4/ADC.c **** * 
 870:.\Generated_Source\PSoC4/ADC.c **** * \sideeffect None
 871:.\Generated_Source\PSoC4/ADC.c **** *
 872:.\Generated_Source\PSoC4/ADC.c **** * <b>Code Snippet</b>
 873:.\Generated_Source\PSoC4/ADC.c **** *  \snippet main.c snippet_ADC_SetLimitMask
 874:.\Generated_Source\PSoC4/ADC.c **** *
 875:.\Generated_Source\PSoC4/ADC.c **** *******************************************************************************/
 876:.\Generated_Source\PSoC4/ADC.c **** void ADC_SetLimitMask(uint32 mask)
 877:.\Generated_Source\PSoC4/ADC.c **** {   
 721              		.loc 1 877 0
 722              		.cfi_startproc
 723              	.LVL62:
 878:.\Generated_Source\PSoC4/ADC.c ****     ADC_SAR_RANGE_INTR_MASK_REG = mask & ADC_MAX_CHANNELS_EN_MASK;
 724              		.loc 1 878 0
 725 0000 0323     		mov	r3, #3
 726 0002 1840     		and	r0, r3
 727              	.LVL63:
 728 0004 014B     		ldr	r3, .L66
 729 0006 1860     		str	r0, [r3]
 879:.\Generated_Source\PSoC4/ADC.c ****  
 880:.\Generated_Source\PSoC4/ADC.c ****     return;
 881:.\Generated_Source\PSoC4/ADC.c **** }
 730              		.loc 1 881 0
 731              		@ sp needed
 732 0008 7047     		bx	lr
 733              	.L67:
 734 000a C046     		.align	2
 735              	.L66:
 736 000c 38023A40 		.word	1077543480
 737              		.cfi_endproc
 738              	.LFE17:
 739              		.size	ADC_SetLimitMask, .-ADC_SetLimitMask
 740              		.section	.text.ADC_SetSatMask,"ax",%progbits
 741              		.align	2
 742              		.global	ADC_SetSatMask
 743              		.code	16
 744              		.thumb_func
 745              		.type	ADC_SetSatMask, %function
 746              	ADC_SetSatMask:
 747              	.LFB18:
 882:.\Generated_Source\PSoC4/ADC.c **** 
 883:.\Generated_Source\PSoC4/ADC.c **** /*******************************************************************************
 884:.\Generated_Source\PSoC4/ADC.c **** * Function Name: ADC_SetSatMask
 885:.\Generated_Source\PSoC4/ADC.c **** ****************************************************************************//**
 886:.\Generated_Source\PSoC4/ADC.c **** *
 887:.\Generated_Source\PSoC4/ADC.c **** * \brief Sets the channel saturation event mask.
 888:.\Generated_Source\PSoC4/ADC.c **** *
 889:.\Generated_Source\PSoC4/ADC.c **** * \param mask Sets which channels that may cause a saturation event interrupt. 
 890:.\Generated_Source\PSoC4/ADC.c **** * Setting bits for channels that do not exist will have no effect. For example, 
 891:.\Generated_Source\PSoC4/ADC.c **** * if only 8 channels were enabled, setting a mask of 0x01C0 would only enable two 
 892:.\Generated_Source\PSoC4/ADC.c **** * channels (6 and 7).
 893:.\Generated_Source\PSoC4/ADC.c **** *
 894:.\Generated_Source\PSoC4/ADC.c **** * \return None
 895:.\Generated_Source\PSoC4/ADC.c **** * 
 896:.\Generated_Source\PSoC4/ADC.c **** * \sideeffect None
 897:.\Generated_Source\PSoC4/ADC.c **** *
ARM GAS  C:\Users\Greg\AppData\Local\Temp\ccyl0q0s.s 			page 31


 898:.\Generated_Source\PSoC4/ADC.c **** * <b>Code Snippet</b>
 899:.\Generated_Source\PSoC4/ADC.c **** *  \snippet main.c snippet_ADC_SetSatMask
 900:.\Generated_Source\PSoC4/ADC.c **** *
 901:.\Generated_Source\PSoC4/ADC.c **** *******************************************************************************/
 902:.\Generated_Source\PSoC4/ADC.c **** void ADC_SetSatMask(uint32 mask)
 903:.\Generated_Source\PSoC4/ADC.c **** {   
 748              		.loc 1 903 0
 749              		.cfi_startproc
 750              	.LVL64:
 904:.\Generated_Source\PSoC4/ADC.c ****     ADC_SAR_SATURATE_INTR_MASK_REG = mask & ADC_MAX_CHANNELS_EN_MASK;    
 751              		.loc 1 904 0
 752 0000 0323     		mov	r3, #3
 753 0002 1840     		and	r0, r3
 754              	.LVL65:
 755 0004 014B     		ldr	r3, .L69
 756 0006 1860     		str	r0, [r3]
 905:.\Generated_Source\PSoC4/ADC.c ****     return;
 906:.\Generated_Source\PSoC4/ADC.c **** }
 757              		.loc 1 906 0
 758              		@ sp needed
 759 0008 7047     		bx	lr
 760              	.L70:
 761 000a C046     		.align	2
 762              	.L69:
 763 000c 28023A40 		.word	1077543464
 764              		.cfi_endproc
 765              	.LFE18:
 766              		.size	ADC_SetSatMask, .-ADC_SetSatMask
 767              		.section	.text.ADC_SetOffset,"ax",%progbits
 768              		.align	2
 769              		.global	ADC_SetOffset
 770              		.code	16
 771              		.thumb_func
 772              		.type	ADC_SetOffset, %function
 773              	ADC_SetOffset:
 774              	.LFB19:
 907:.\Generated_Source\PSoC4/ADC.c **** 
 908:.\Generated_Source\PSoC4/ADC.c **** /*******************************************************************************
 909:.\Generated_Source\PSoC4/ADC.c **** * Function Name: ADC_SetOffset
 910:.\Generated_Source\PSoC4/ADC.c **** ****************************************************************************//**
 911:.\Generated_Source\PSoC4/ADC.c **** *
 912:.\Generated_Source\PSoC4/ADC.c **** * \brief Sets the ADC offset which is used by the functions 
 913:.\Generated_Source\PSoC4/ADC.c **** * ADC_CountsTo_uVolts, ADC_CountsTo_mVolts and 
 914:.\Generated_Source\PSoC4/ADC.c **** * ADC_CountsTo_Volts to subtract the offset from the given reading 
 915:.\Generated_Source\PSoC4/ADC.c **** * before calculating the voltage conversion.
 916:.\Generated_Source\PSoC4/ADC.c **** *
 917:.\Generated_Source\PSoC4/ADC.c **** * \param chan ADC channel number. 
 918:.\Generated_Source\PSoC4/ADC.c **** * 
 919:.\Generated_Source\PSoC4/ADC.c **** * \param offset This value is a measured value when the inputs are shorted or 
 920:.\Generated_Source\PSoC4/ADC.c **** * connected to the same input voltage.
 921:.\Generated_Source\PSoC4/ADC.c **** *
 922:.\Generated_Source\PSoC4/ADC.c **** * \return None
 923:.\Generated_Source\PSoC4/ADC.c **** * 
 924:.\Generated_Source\PSoC4/ADC.c **** * \sideeffect None
 925:.\Generated_Source\PSoC4/ADC.c **** *
 926:.\Generated_Source\PSoC4/ADC.c **** * <b>Code Snippet</b>
 927:.\Generated_Source\PSoC4/ADC.c **** *  \snippet main.c snippet_ADC_SetOffset
ARM GAS  C:\Users\Greg\AppData\Local\Temp\ccyl0q0s.s 			page 32


 928:.\Generated_Source\PSoC4/ADC.c **** *
 929:.\Generated_Source\PSoC4/ADC.c **** *******************************************************************************/
 930:.\Generated_Source\PSoC4/ADC.c **** void ADC_SetOffset(uint32 chan, int16 offset)
 931:.\Generated_Source\PSoC4/ADC.c **** {   
 775              		.loc 1 931 0
 776              		.cfi_startproc
 777              	.LVL66:
 778 0000 38B5     		push	{r3, r4, r5, lr}
 779              		.cfi_def_cfa_offset 16
 780              		.cfi_offset 3, -16
 781              		.cfi_offset 4, -12
 782              		.cfi_offset 5, -8
 783              		.cfi_offset 14, -4
 784 0002 041C     		mov	r4, r0
 785 0004 0D1C     		mov	r5, r1
 932:.\Generated_Source\PSoC4/ADC.c ****     /* Halt CPU in debug mode if channel is out of valid range */
 933:.\Generated_Source\PSoC4/ADC.c ****     CYASSERT(chan < ADC_TOTAL_CHANNELS_NUM);
 786              		.loc 1 933 0
 787 0006 0128     		cmp	r0, #1
 788 0008 02D9     		bls	.L72
 789              		.loc 1 933 0 is_stmt 0 discriminator 1
 790 000a 0020     		mov	r0, #0
 791              	.LVL67:
 792 000c FFF7FEFF 		bl	CyHalt
 793              	.LVL68:
 794              	.L72:
 934:.\Generated_Source\PSoC4/ADC.c **** 
 935:.\Generated_Source\PSoC4/ADC.c ****     ADC_offset[ADC_allConfigs[ADC_currentConfig].channelBase + chan] = offset;
 795              		.loc 1 935 0 is_stmt 1
 796 0010 054B     		ldr	r3, .L73
 797 0012 1A68     		ldr	r2, [r3]
 798 0014 D300     		lsl	r3, r2, #3
 799 0016 9B1A     		sub	r3, r3, r2
 800 0018 DB00     		lsl	r3, r3, #3
 801 001a 044A     		ldr	r2, .L73+4
 802 001c 9B58     		ldr	r3, [r3, r2]
 803 001e 1C19     		add	r4, r3, r4
 804              	.LVL69:
 805 0020 6400     		lsl	r4, r4, #1
 806 0022 034B     		ldr	r3, .L73+8
 807 0024 E552     		strh	r5, [r4, r3]
 936:.\Generated_Source\PSoC4/ADC.c ****     return;
 937:.\Generated_Source\PSoC4/ADC.c **** }
 808              		.loc 1 937 0
 809              		@ sp needed
 810 0026 38BD     		pop	{r3, r4, r5, pc}
 811              	.L74:
 812              		.align	2
 813              	.L73:
 814 0028 00000000 		.word	.LANCHOR0
 815 002c 00000000 		.word	ADC_allConfigs
 816 0030 00000000 		.word	ADC_offset
 817              		.cfi_endproc
 818              	.LFE19:
 819              		.size	ADC_SetOffset, .-ADC_SetOffset
 820              		.section	.text.ADC_SetGain,"ax",%progbits
 821              		.align	2
ARM GAS  C:\Users\Greg\AppData\Local\Temp\ccyl0q0s.s 			page 33


 822              		.global	ADC_SetGain
 823              		.code	16
 824              		.thumb_func
 825              		.type	ADC_SetGain, %function
 826              	ADC_SetGain:
 827              	.LFB20:
 938:.\Generated_Source\PSoC4/ADC.c **** 
 939:.\Generated_Source\PSoC4/ADC.c **** /*******************************************************************************
 940:.\Generated_Source\PSoC4/ADC.c **** * Function Name: ADC_SetGain
 941:.\Generated_Source\PSoC4/ADC.c **** ****************************************************************************//**
 942:.\Generated_Source\PSoC4/ADC.c **** *
 943:.\Generated_Source\PSoC4/ADC.c **** * \brief Sets the ADC gain in counts per 10 volt for the voltage 
 944:.\Generated_Source\PSoC4/ADC.c **** * conversion functions below. This value is set by default by the reference and 
 945:.\Generated_Source\PSoC4/ADC.c **** * input range settings. It should only be used to further calibrate the 
 946:.\Generated_Source\PSoC4/ADC.c **** * ADC with a known input or if an external reference is used. 
 947:.\Generated_Source\PSoC4/ADC.c **** * Affects the ADC_CountsTo_uVolts, ADC_CountsTo_mVolts 
 948:.\Generated_Source\PSoC4/ADC.c **** * and ADC_CountsTo_Volts functions by supplying the correct 
 949:.\Generated_Source\PSoC4/ADC.c **** * conversion between ADC counts and voltage.
 950:.\Generated_Source\PSoC4/ADC.c **** * 
 951:.\Generated_Source\PSoC4/ADC.c **** * \param chan ADC channel number.
 952:.\Generated_Source\PSoC4/ADC.c **** * 
 953:.\Generated_Source\PSoC4/ADC.c **** * \param adcGain ADC gain in counts per 10 volt.
 954:.\Generated_Source\PSoC4/ADC.c **** *
 955:.\Generated_Source\PSoC4/ADC.c **** * \return None
 956:.\Generated_Source\PSoC4/ADC.c **** * 
 957:.\Generated_Source\PSoC4/ADC.c **** * \sideeffect None
 958:.\Generated_Source\PSoC4/ADC.c **** *
 959:.\Generated_Source\PSoC4/ADC.c **** * <b>Code Snippet</b>
 960:.\Generated_Source\PSoC4/ADC.c **** *  \snippet main.c snippet_ADC_SetGain
 961:.\Generated_Source\PSoC4/ADC.c **** *
 962:.\Generated_Source\PSoC4/ADC.c **** *******************************************************************************/
 963:.\Generated_Source\PSoC4/ADC.c **** void ADC_SetGain(uint32 chan, int32 adcGain)
 964:.\Generated_Source\PSoC4/ADC.c **** {   
 828              		.loc 1 964 0
 829              		.cfi_startproc
 830              	.LVL70:
 831 0000 38B5     		push	{r3, r4, r5, lr}
 832              		.cfi_def_cfa_offset 16
 833              		.cfi_offset 3, -16
 834              		.cfi_offset 4, -12
 835              		.cfi_offset 5, -8
 836              		.cfi_offset 14, -4
 837 0002 041C     		mov	r4, r0
 838 0004 0D1C     		mov	r5, r1
 965:.\Generated_Source\PSoC4/ADC.c ****     /* Halt CPU in debug mode if channel is out of valid range */
 966:.\Generated_Source\PSoC4/ADC.c ****     CYASSERT(chan < ADC_TOTAL_CHANNELS_NUM);
 839              		.loc 1 966 0
 840 0006 0128     		cmp	r0, #1
 841 0008 02D9     		bls	.L76
 842              		.loc 1 966 0 is_stmt 0 discriminator 1
 843 000a 0020     		mov	r0, #0
 844              	.LVL71:
 845 000c FFF7FEFF 		bl	CyHalt
 846              	.LVL72:
 847              	.L76:
 967:.\Generated_Source\PSoC4/ADC.c **** 
 968:.\Generated_Source\PSoC4/ADC.c ****     ADC_countsPer10Volt[ADC_allConfigs[ADC_currentConfig].channelBase + chan]
ARM GAS  C:\Users\Greg\AppData\Local\Temp\ccyl0q0s.s 			page 34


 848              		.loc 1 968 0 is_stmt 1
 849 0010 054B     		ldr	r3, .L77
 850 0012 1A68     		ldr	r2, [r3]
 851 0014 D300     		lsl	r3, r2, #3
 852 0016 9B1A     		sub	r3, r3, r2
 853 0018 DB00     		lsl	r3, r3, #3
 854 001a 044A     		ldr	r2, .L77+4
 855 001c 9B58     		ldr	r3, [r3, r2]
 856 001e 1C19     		add	r4, r3, r4
 857              	.LVL73:
 969:.\Generated_Source\PSoC4/ADC.c **** 	= adcGain;
 858              		.loc 1 969 0
 859 0020 A400     		lsl	r4, r4, #2
 860 0022 034B     		ldr	r3, .L77+8
 861 0024 E550     		str	r5, [r4, r3]
 970:.\Generated_Source\PSoC4/ADC.c ****     return;
 971:.\Generated_Source\PSoC4/ADC.c **** }
 862              		.loc 1 971 0
 863              		@ sp needed
 864              	.LVL74:
 865 0026 38BD     		pop	{r3, r4, r5, pc}
 866              	.L78:
 867              		.align	2
 868              	.L77:
 869 0028 00000000 		.word	.LANCHOR0
 870 002c 00000000 		.word	ADC_allConfigs
 871 0030 00000000 		.word	ADC_countsPer10Volt
 872              		.cfi_endproc
 873              	.LFE20:
 874              		.size	ADC_SetGain, .-ADC_SetGain
 875              		.global	__aeabi_uidiv
 876              		.global	__aeabi_idiv
 877              		.global	__aeabi_i2f
 878              		.global	__aeabi_fmul
 879              		.global	__aeabi_fdiv
 880              		.section	.text.ADC_CountsTo_Volts,"ax",%progbits
 881              		.align	2
 882              		.global	ADC_CountsTo_Volts
 883              		.code	16
 884              		.thumb_func
 885              		.type	ADC_CountsTo_Volts, %function
 886              	ADC_CountsTo_Volts:
 887              	.LFB21:
 972:.\Generated_Source\PSoC4/ADC.c **** 
 973:.\Generated_Source\PSoC4/ADC.c **** /*******************************************************************************
 974:.\Generated_Source\PSoC4/ADC.c **** * Function Name: ADC_CountsTo_Volts
 975:.\Generated_Source\PSoC4/ADC.c **** ****************************************************************************//**
 976:.\Generated_Source\PSoC4/ADC.c **** *
 977:.\Generated_Source\PSoC4/ADC.c **** * \brief Converts the ADC output to Volts as a floating point number. For 
 978:.\Generated_Source\PSoC4/ADC.c **** * example, if the ADC measured 0.534 volts, the return value would be 0.534. The 
 979:.\Generated_Source\PSoC4/ADC.c **** * calculation of voltage depends on the value of the voltage reference. When the 
 980:.\Generated_Source\PSoC4/ADC.c **** * Vref is based on Vdda, the value used for Vdda is set for the project in the 
 981:.\Generated_Source\PSoC4/ADC.c **** * System tab of the DWR.
 982:.\Generated_Source\PSoC4/ADC.c **** *
 983:.\Generated_Source\PSoC4/ADC.c **** * \param chan ADC channel number.   
 984:.\Generated_Source\PSoC4/ADC.c **** *
 985:.\Generated_Source\PSoC4/ADC.c **** * \param adcCounts Result from the ADC conversion.
ARM GAS  C:\Users\Greg\AppData\Local\Temp\ccyl0q0s.s 			page 35


 986:.\Generated_Source\PSoC4/ADC.c **** *
 987:.\Generated_Source\PSoC4/ADC.c **** * \return Result in Volts.
 988:.\Generated_Source\PSoC4/ADC.c **** * 
 989:.\Generated_Source\PSoC4/ADC.c **** * \sideeffect None
 990:.\Generated_Source\PSoC4/ADC.c **** *
 991:.\Generated_Source\PSoC4/ADC.c **** * <b>Code Snippet</b>
 992:.\Generated_Source\PSoC4/ADC.c **** *  \snippet main.c snippet_ADC_CountsTo_Volts
 993:.\Generated_Source\PSoC4/ADC.c **** *
 994:.\Generated_Source\PSoC4/ADC.c **** *******************************************************************************/
 995:.\Generated_Source\PSoC4/ADC.c **** float32 ADC_CountsTo_Volts(uint32 chan, int16 adcCounts)
 996:.\Generated_Source\PSoC4/ADC.c **** {   
 888              		.loc 1 996 0
 889              		.cfi_startproc
 890              	.LVL75:
 891 0000 F8B5     		push	{r3, r4, r5, r6, r7, lr}
 892              		.cfi_def_cfa_offset 24
 893              		.cfi_offset 3, -24
 894              		.cfi_offset 4, -20
 895              		.cfi_offset 5, -16
 896              		.cfi_offset 6, -12
 897              		.cfi_offset 7, -8
 898              		.cfi_offset 14, -4
 899 0002 061C     		mov	r6, r0
 900 0004 0C1C     		mov	r4, r1
 901              	.LVL76:
 997:.\Generated_Source\PSoC4/ADC.c ****     float32 result_Volts = 0.0f;
 998:.\Generated_Source\PSoC4/ADC.c **** 	uint32 temp;
 999:.\Generated_Source\PSoC4/ADC.c **** 	uint32 averageAdcSamplesDiv;
1000:.\Generated_Source\PSoC4/ADC.c **** 	uint32 rawChannel;
1001:.\Generated_Source\PSoC4/ADC.c **** 	rawChannel = ADC_allConfigs[ADC_currentConfig].channelBase + chan;
 902              		.loc 1 1001 0
 903 0006 264B     		ldr	r3, .L85
 904 0008 1968     		ldr	r1, [r3]
 905              	.LVL77:
 906 000a 264F     		ldr	r7, .L85+4
 907 000c CA00     		lsl	r2, r1, #3
 908 000e 501A     		sub	r0, r2, r1
 909              	.LVL78:
 910 0010 C000     		lsl	r0, r0, #3
 911 0012 C559     		ldr	r5, [r0, r7]
 912 0014 AD19     		add	r5, r5, r6
 913              	.LVL79:
1002:.\Generated_Source\PSoC4/ADC.c **** 	
1003:.\Generated_Source\PSoC4/ADC.c **** 	if((ADC_allConfigs[ADC_currentConfig].sampleCtrl 
 914              		.loc 1 1003 0
 915 0016 3B18     		add	r3, r7, r0
 916 0018 DB68     		ldr	r3, [r3, #12]
 917 001a 9B07     		lsl	r3, r3, #30
 918 001c 3DD4     		bmi	.L84
1004:.\Generated_Source\PSoC4/ADC.c **** 		& ADC_SAR_SAMPLE_CTRL_LEFT_ALIGN_MSK) 
1005:.\Generated_Source\PSoC4/ADC.c **** 		!= ADC_SAR_SAMPLE_CTRL_LEFT_ALIGN_MSK)
1006:.\Generated_Source\PSoC4/ADC.c **** 	{
1007:.\Generated_Source\PSoC4/ADC.c ****         /* Halt CPU in debug mode if channel is out of valid range */
1008:.\Generated_Source\PSoC4/ADC.c ****         CYASSERT(chan < ADC_TOTAL_CHANNELS_NUM);
 919              		.loc 1 1008 0
 920 001e 012E     		cmp	r6, #1
 921 0020 02D9     		bls	.L81
ARM GAS  C:\Users\Greg\AppData\Local\Temp\ccyl0q0s.s 			page 36


 922              		.loc 1 1008 0 is_stmt 0 discriminator 1
 923 0022 0020     		mov	r0, #0
 924 0024 FFF7FEFF 		bl	CyHalt
 925              	.LVL80:
 926              	.L81:
1009:.\Generated_Source\PSoC4/ADC.c **** 
1010:.\Generated_Source\PSoC4/ADC.c ****         /* Divide the adcCount when accumulate averaging mode selected */
1011:.\Generated_Source\PSoC4/ADC.c **** 		if((ADC_allConfigs[ADC_currentConfig].sampleCtrl 
 927              		.loc 1 1011 0 is_stmt 1
 928 0028 1D4B     		ldr	r3, .L85
 929 002a 1A68     		ldr	r2, [r3]
 930 002c D300     		lsl	r3, r2, #3
 931 002e 9B1A     		sub	r3, r3, r2
 932 0030 DB00     		lsl	r3, r3, #3
 933 0032 1C4A     		ldr	r2, .L85+4
 934 0034 D318     		add	r3, r2, r3
 935 0036 DB68     		ldr	r3, [r3, #12]
 936 0038 1A06     		lsl	r2, r3, #24
 937 003a 19D4     		bmi	.L82
1012:.\Generated_Source\PSoC4/ADC.c **** 			& ADC_SAR_SAMPLE_CTRL_AVG_SHIFT_MSK) 
1013:.\Generated_Source\PSoC4/ADC.c **** 			!= ADC_SAR_SAMPLE_CTRL_AVG_SHIFT_MSK)
1014:.\Generated_Source\PSoC4/ADC.c **** 		{
1015:.\Generated_Source\PSoC4/ADC.c ****             if((ADC_channelsConfig[rawChannel] & ADC_SAR_CHAN_CONFIG_AVG_EN_MSK) != 0u)
 938              		.loc 1 1015 0
 939 003c AA00     		lsl	r2, r5, #2
 940 003e 1A49     		ldr	r1, .L85+8
 941 0040 5258     		ldr	r2, [r2, r1]
 942 0042 5205     		lsl	r2, r2, #21
 943 0044 14D5     		bpl	.L82
1016:.\Generated_Source\PSoC4/ADC.c ****             {
1017:.\Generated_Source\PSoC4/ADC.c ****                 /* Divide by 2^(AVG_CNT + 1) */
1018:.\Generated_Source\PSoC4/ADC.c **** 				averageAdcSamplesDiv = ((ADC_allConfigs[ADC_currentConfig].sampleCtrl 
1019:.\Generated_Source\PSoC4/ADC.c **** 					& ADC_SAR_SAMPLE_CTRL_AVG_CNT_MSK) 
 944              		.loc 1 1019 0
 945 0046 5B06     		lsl	r3, r3, #25
1018:.\Generated_Source\PSoC4/ADC.c **** 					& ADC_SAR_SAMPLE_CTRL_AVG_CNT_MSK) 
 946              		.loc 1 1018 0
 947 0048 5B0F     		lsr	r3, r3, #29
 948              	.LVL81:
1020:.\Generated_Source\PSoC4/ADC.c **** 					>> ADC_SAR_SAMPLE_CTRL_AVG_CNT_SHFT);
1021:.\Generated_Source\PSoC4/ADC.c ****                 averageAdcSamplesDiv = (1uL << (averageAdcSamplesDiv + 1uL));
 949              		.loc 1 1021 0
 950 004a 0133     		add	r3, r3, #1
 951              	.LVL82:
 952 004c 0127     		mov	r7, #1
 953 004e 9F40     		lsl	r7, r7, r3
 954              	.LVL83:
1022:.\Generated_Source\PSoC4/ADC.c ****                 
1023:.\Generated_Source\PSoC4/ADC.c ****                 /* If unsigned format, prevent sign extension */
1024:.\Generated_Source\PSoC4/ADC.c ****                 if(0 == ADC_IsChannelSigned(chan))
 955              		.loc 1 1024 0
 956 0050 301C     		mov	r0, r6
 957 0052 FFF7FEFF 		bl	ADC_IsChannelSigned
 958              	.LVL84:
 959 0056 0028     		cmp	r0, #0
 960 0058 05D1     		bne	.L83
1025:.\Generated_Source\PSoC4/ADC.c ****                 {
ARM GAS  C:\Users\Greg\AppData\Local\Temp\ccyl0q0s.s 			page 37


1026:.\Generated_Source\PSoC4/ADC.c **** 					temp = ((uint16) adcCounts / averageAdcSamplesDiv);
 961              		.loc 1 1026 0
 962 005a A0B2     		uxth	r0, r4
 963 005c 391C     		mov	r1, r7
 964 005e FFF7FEFF 		bl	__aeabi_uidiv
 965              	.LVL85:
1027:.\Generated_Source\PSoC4/ADC.c ****                     adcCounts = (int16) temp;
 966              		.loc 1 1027 0
 967 0062 04B2     		sxth	r4, r0
 968              	.LVL86:
 969 0064 04E0     		b	.L82
 970              	.LVL87:
 971              	.L83:
1028:.\Generated_Source\PSoC4/ADC.c ****                 }
1029:.\Generated_Source\PSoC4/ADC.c ****                 else
1030:.\Generated_Source\PSoC4/ADC.c ****                 {
1031:.\Generated_Source\PSoC4/ADC.c ****                     adcCounts /= (int16) averageAdcSamplesDiv;
 972              		.loc 1 1031 0
 973 0066 39B2     		sxth	r1, r7
 974 0068 201C     		mov	r0, r4
 975 006a FFF7FEFF 		bl	__aeabi_idiv
 976              	.LVL88:
 977 006e 04B2     		sxth	r4, r0
 978              	.LVL89:
 979              	.L82:
1032:.\Generated_Source\PSoC4/ADC.c ****                 }
1033:.\Generated_Source\PSoC4/ADC.c ****             }
1034:.\Generated_Source\PSoC4/ADC.c **** 		}
1035:.\Generated_Source\PSoC4/ADC.c ****         /* Subtract ADC offset */
1036:.\Generated_Source\PSoC4/ADC.c ****         adcCounts -= ADC_offset[rawChannel];
 980              		.loc 1 1036 0
 981 0070 6A00     		lsl	r2, r5, #1
 982 0072 0E4B     		ldr	r3, .L85+12
 983 0074 D05A     		ldrh	r0, [r2, r3]
 984 0076 201A     		sub	r0, r4, r0
 985 0078 00B2     		sxth	r0, r0
 986              	.LVL90:
1037:.\Generated_Source\PSoC4/ADC.c **** 
1038:.\Generated_Source\PSoC4/ADC.c ****         result_Volts = ((float32)adcCounts * ADC_10V_COUNTS) 
 987              		.loc 1 1038 0
 988 007a FFF7FEFF 		bl	__aeabi_i2f
 989              	.LVL91:
 990 007e 0C49     		ldr	r1, .L85+16
 991 0080 FFF7FEFF 		bl	__aeabi_fmul
 992              	.LVL92:
 993 0084 041C     		add	r4, r0, #0
1039:.\Generated_Source\PSoC4/ADC.c **** 			/ (float32)ADC_countsPer10Volt[rawChannel];
 994              		.loc 1 1039 0
 995 0086 AD00     		lsl	r5, r5, #2
 996              	.LVL93:
 997 0088 0A4B     		ldr	r3, .L85+20
 998 008a E858     		ldr	r0, [r5, r3]
 999 008c FFF7FEFF 		bl	__aeabi_i2f
 1000              	.LVL94:
 1001 0090 011C     		add	r1, r0, #0
1038:.\Generated_Source\PSoC4/ADC.c **** 			/ (float32)ADC_countsPer10Volt[rawChannel];
 1002              		.loc 1 1038 0
ARM GAS  C:\Users\Greg\AppData\Local\Temp\ccyl0q0s.s 			page 38


 1003 0092 201C     		add	r0, r4, #0
 1004 0094 FFF7FEFF 		bl	__aeabi_fdiv
 1005              	.LVL95:
 1006 0098 00E0     		b	.L80
 1007              	.LVL96:
 1008              	.L84:
 997:.\Generated_Source\PSoC4/ADC.c **** 	uint32 temp;
 1009              		.loc 1 997 0
 1010 009a 0020     		mov	r0, #0
 1011              	.LVL97:
 1012              	.L80:
1040:.\Generated_Source\PSoC4/ADC.c **** 	}
1041:.\Generated_Source\PSoC4/ADC.c **** 	return result_Volts;
1042:.\Generated_Source\PSoC4/ADC.c **** }
 1013              		.loc 1 1042 0
 1014              		@ sp needed
 1015              	.LVL98:
 1016 009c F8BD     		pop	{r3, r4, r5, r6, r7, pc}
 1017              	.L86:
 1018 009e C046     		.align	2
 1019              	.L85:
 1020 00a0 00000000 		.word	.LANCHOR0
 1021 00a4 00000000 		.word	ADC_allConfigs
 1022 00a8 00000000 		.word	.LANCHOR1
 1023 00ac 00000000 		.word	ADC_offset
 1024 00b0 00002041 		.word	1092616192
 1025 00b4 00000000 		.word	ADC_countsPer10Volt
 1026              		.cfi_endproc
 1027              	.LFE21:
 1028              		.size	ADC_CountsTo_Volts, .-ADC_CountsTo_Volts
 1029              		.section	.text.ADC_CountsTo_mVolts,"ax",%progbits
 1030              		.align	2
 1031              		.global	ADC_CountsTo_mVolts
 1032              		.code	16
 1033              		.thumb_func
 1034              		.type	ADC_CountsTo_mVolts, %function
 1035              	ADC_CountsTo_mVolts:
 1036              	.LFB22:
1043:.\Generated_Source\PSoC4/ADC.c **** 
1044:.\Generated_Source\PSoC4/ADC.c **** /*******************************************************************************
1045:.\Generated_Source\PSoC4/ADC.c **** * Function Name: ADC_CountsTo_mVolts
1046:.\Generated_Source\PSoC4/ADC.c **** ****************************************************************************//**
1047:.\Generated_Source\PSoC4/ADC.c **** *
1048:.\Generated_Source\PSoC4/ADC.c **** * \brief Converts the ADC output to millivolts as a 16-bit integer. 
1049:.\Generated_Source\PSoC4/ADC.c **** * For example, if the ADC measured 0.534 volts, the return value 
1050:.\Generated_Source\PSoC4/ADC.c **** * would be 534. The calculation of voltage depends on the value of the voltage 
1051:.\Generated_Source\PSoC4/ADC.c **** * reference. When the Vref is based on Vdda, the value used for Vdda is set for 
1052:.\Generated_Source\PSoC4/ADC.c **** * the project in the System tab of the DWR.
1053:.\Generated_Source\PSoC4/ADC.c **** *
1054:.\Generated_Source\PSoC4/ADC.c **** * \param chan ADC channel number. 
1055:.\Generated_Source\PSoC4/ADC.c **** *
1056:.\Generated_Source\PSoC4/ADC.c **** * \param adcCounts Result from the ADC conversion.
1057:.\Generated_Source\PSoC4/ADC.c **** * 
1058:.\Generated_Source\PSoC4/ADC.c **** * \return Result in mV.
1059:.\Generated_Source\PSoC4/ADC.c **** * 
1060:.\Generated_Source\PSoC4/ADC.c **** * \sideeffect None.
1061:.\Generated_Source\PSoC4/ADC.c **** *
ARM GAS  C:\Users\Greg\AppData\Local\Temp\ccyl0q0s.s 			page 39


1062:.\Generated_Source\PSoC4/ADC.c **** * <b>Code Snippet</b>
1063:.\Generated_Source\PSoC4/ADC.c **** *  \snippet main.c snippet_ADC_CountsTo_mVolts
1064:.\Generated_Source\PSoC4/ADC.c **** *
1065:.\Generated_Source\PSoC4/ADC.c **** *******************************************************************************/
1066:.\Generated_Source\PSoC4/ADC.c **** int16 ADC_CountsTo_mVolts(uint32 chan, int16 adcCounts)
1067:.\Generated_Source\PSoC4/ADC.c **** {   
 1037              		.loc 1 1067 0
 1038              		.cfi_startproc
 1039              	.LVL99:
 1040 0000 F8B5     		push	{r3, r4, r5, r6, r7, lr}
 1041              		.cfi_def_cfa_offset 24
 1042              		.cfi_offset 3, -24
 1043              		.cfi_offset 4, -20
 1044              		.cfi_offset 5, -16
 1045              		.cfi_offset 6, -12
 1046              		.cfi_offset 7, -8
 1047              		.cfi_offset 14, -4
 1048 0002 061C     		mov	r6, r0
 1049 0004 0C1C     		mov	r4, r1
 1050              	.LVL100:
1068:.\Generated_Source\PSoC4/ADC.c ****     int16 result_mVolts = 0;
1069:.\Generated_Source\PSoC4/ADC.c **** 	uint32 temp;
1070:.\Generated_Source\PSoC4/ADC.c **** 	uint32 averageAdcSamplesDiv;
1071:.\Generated_Source\PSoC4/ADC.c **** 	uint32 rawChannel;
1072:.\Generated_Source\PSoC4/ADC.c ****     
1073:.\Generated_Source\PSoC4/ADC.c **** 	rawChannel = ADC_allConfigs[ADC_currentConfig].channelBase + chan;
 1051              		.loc 1 1073 0
 1052 0006 2B4B     		ldr	r3, .L95
 1053 0008 1968     		ldr	r1, [r3]
 1054              	.LVL101:
 1055 000a 2B4F     		ldr	r7, .L95+4
 1056 000c CA00     		lsl	r2, r1, #3
 1057 000e 501A     		sub	r0, r2, r1
 1058              	.LVL102:
 1059 0010 C000     		lsl	r0, r0, #3
 1060 0012 C559     		ldr	r5, [r0, r7]
 1061 0014 AD19     		add	r5, r5, r6
 1062              	.LVL103:
1074:.\Generated_Source\PSoC4/ADC.c **** 	
1075:.\Generated_Source\PSoC4/ADC.c **** 	if((ADC_allConfigs[ADC_currentConfig].sampleCtrl 
 1063              		.loc 1 1075 0
 1064 0016 3B18     		add	r3, r7, r0
 1065 0018 DB68     		ldr	r3, [r3, #12]
 1066 001a 9B07     		lsl	r3, r3, #30
 1067 001c 47D4     		bmi	.L94
1076:.\Generated_Source\PSoC4/ADC.c **** 		& ADC_SAR_SAMPLE_CTRL_LEFT_ALIGN_MSK) 
1077:.\Generated_Source\PSoC4/ADC.c **** 		!= ADC_SAR_SAMPLE_CTRL_LEFT_ALIGN_MSK)
1078:.\Generated_Source\PSoC4/ADC.c **** 	{
1079:.\Generated_Source\PSoC4/ADC.c **** 		/* Halt CPU in debug mode if channel is out of valid range */
1080:.\Generated_Source\PSoC4/ADC.c **** 	    CYASSERT(chan < ADC_TOTAL_CHANNELS_NUM);
 1068              		.loc 1 1080 0
 1069 001e 012E     		cmp	r6, #1
 1070 0020 02D9     		bls	.L89
 1071              		.loc 1 1080 0 is_stmt 0 discriminator 1
 1072 0022 0020     		mov	r0, #0
 1073 0024 FFF7FEFF 		bl	CyHalt
 1074              	.LVL104:
ARM GAS  C:\Users\Greg\AppData\Local\Temp\ccyl0q0s.s 			page 40


 1075              	.L89:
1081:.\Generated_Source\PSoC4/ADC.c **** 
1082:.\Generated_Source\PSoC4/ADC.c **** 	    /* Divide the adcCount when accumulate averaging mode selected */
1083:.\Generated_Source\PSoC4/ADC.c **** 		if((ADC_allConfigs[ADC_currentConfig].sampleCtrl 
 1076              		.loc 1 1083 0 is_stmt 1
 1077 0028 224B     		ldr	r3, .L95
 1078 002a 1A68     		ldr	r2, [r3]
 1079 002c D300     		lsl	r3, r2, #3
 1080 002e 9B1A     		sub	r3, r3, r2
 1081 0030 DB00     		lsl	r3, r3, #3
 1082 0032 214A     		ldr	r2, .L95+4
 1083 0034 D318     		add	r3, r2, r3
 1084 0036 DB68     		ldr	r3, [r3, #12]
 1085 0038 1A06     		lsl	r2, r3, #24
 1086 003a 19D4     		bmi	.L90
1084:.\Generated_Source\PSoC4/ADC.c **** 			& ADC_SAR_SAMPLE_CTRL_AVG_SHIFT_MSK) 
1085:.\Generated_Source\PSoC4/ADC.c **** 			!= ADC_SAR_SAMPLE_CTRL_AVG_SHIFT_MSK)
1086:.\Generated_Source\PSoC4/ADC.c **** 		{
1087:.\Generated_Source\PSoC4/ADC.c **** 	        if((ADC_channelsConfig[rawChannel] 
 1087              		.loc 1 1087 0
 1088 003c AA00     		lsl	r2, r5, #2
 1089 003e 1F49     		ldr	r1, .L95+8
 1090 0040 5258     		ldr	r2, [r2, r1]
 1091 0042 5205     		lsl	r2, r2, #21
 1092 0044 14D5     		bpl	.L90
1088:.\Generated_Source\PSoC4/ADC.c **** 				& ADC_SAR_CHAN_CONFIG_AVG_EN_MSK) != 0u)
1089:.\Generated_Source\PSoC4/ADC.c **** 	        {
1090:.\Generated_Source\PSoC4/ADC.c ****                 /* Divide by 2^(AVG_CNT + 1) */
1091:.\Generated_Source\PSoC4/ADC.c **** 	            averageAdcSamplesDiv = ((ADC_allConfigs[ADC_currentConfig].sampleCtrl 
1092:.\Generated_Source\PSoC4/ADC.c **** 					& ADC_SAR_SAMPLE_CTRL_AVG_CNT_MSK) 
 1093              		.loc 1 1092 0
 1094 0046 5B06     		lsl	r3, r3, #25
1091:.\Generated_Source\PSoC4/ADC.c **** 					& ADC_SAR_SAMPLE_CTRL_AVG_CNT_MSK) 
 1095              		.loc 1 1091 0
 1096 0048 5B0F     		lsr	r3, r3, #29
 1097              	.LVL105:
1093:.\Generated_Source\PSoC4/ADC.c **** 					>> ADC_SAR_SAMPLE_CTRL_AVG_CNT_SHFT);
1094:.\Generated_Source\PSoC4/ADC.c ****                 averageAdcSamplesDiv = (1uL << (averageAdcSamplesDiv + 1uL));
 1098              		.loc 1 1094 0
 1099 004a 0133     		add	r3, r3, #1
 1100              	.LVL106:
 1101 004c 0127     		mov	r7, #1
 1102 004e 9F40     		lsl	r7, r7, r3
 1103              	.LVL107:
1095:.\Generated_Source\PSoC4/ADC.c ****                 
1096:.\Generated_Source\PSoC4/ADC.c ****                 /* If unsigned format, prevent sign extension */
1097:.\Generated_Source\PSoC4/ADC.c ****                 if(0 == ADC_IsChannelSigned(chan))
 1104              		.loc 1 1097 0
 1105 0050 301C     		mov	r0, r6
 1106 0052 FFF7FEFF 		bl	ADC_IsChannelSigned
 1107              	.LVL108:
 1108 0056 0028     		cmp	r0, #0
 1109 0058 05D1     		bne	.L91
1098:.\Generated_Source\PSoC4/ADC.c ****                 {
1099:.\Generated_Source\PSoC4/ADC.c **** 					temp = ((uint16) adcCounts / averageAdcSamplesDiv);
 1110              		.loc 1 1099 0
 1111 005a A0B2     		uxth	r0, r4
ARM GAS  C:\Users\Greg\AppData\Local\Temp\ccyl0q0s.s 			page 41


 1112 005c 391C     		mov	r1, r7
 1113 005e FFF7FEFF 		bl	__aeabi_uidiv
 1114              	.LVL109:
1100:.\Generated_Source\PSoC4/ADC.c ****                     adcCounts = (int16) temp;
 1115              		.loc 1 1100 0
 1116 0062 04B2     		sxth	r4, r0
 1117              	.LVL110:
 1118 0064 04E0     		b	.L90
 1119              	.LVL111:
 1120              	.L91:
1101:.\Generated_Source\PSoC4/ADC.c ****                 }
1102:.\Generated_Source\PSoC4/ADC.c ****                 else
1103:.\Generated_Source\PSoC4/ADC.c ****                 {
1104:.\Generated_Source\PSoC4/ADC.c ****                     adcCounts /= (int16) averageAdcSamplesDiv;
 1121              		.loc 1 1104 0
 1122 0066 39B2     		sxth	r1, r7
 1123 0068 201C     		mov	r0, r4
 1124 006a FFF7FEFF 		bl	__aeabi_idiv
 1125              	.LVL112:
 1126 006e 04B2     		sxth	r4, r0
 1127              	.LVL113:
 1128              	.L90:
1105:.\Generated_Source\PSoC4/ADC.c ****                 }
1106:.\Generated_Source\PSoC4/ADC.c **** 	        }
1107:.\Generated_Source\PSoC4/ADC.c **** 	    }
1108:.\Generated_Source\PSoC4/ADC.c **** 
1109:.\Generated_Source\PSoC4/ADC.c **** 	    /* Subtract ADC offset */
1110:.\Generated_Source\PSoC4/ADC.c **** 	    adcCounts -= ADC_offset[rawChannel];
 1129              		.loc 1 1110 0
 1130 0070 6B00     		lsl	r3, r5, #1
 1131 0072 134A     		ldr	r2, .L95+12
 1132 0074 985A     		ldrh	r0, [r3, r2]
 1133 0076 241A     		sub	r4, r4, r0
 1134              	.LVL114:
 1135 0078 24B2     		sxth	r4, r4
 1136              	.LVL115:
1111:.\Generated_Source\PSoC4/ADC.c **** 
1112:.\Generated_Source\PSoC4/ADC.c **** 	    result_mVolts = (int16)((((int32)adcCounts * ADC_10MV_COUNTS) + ( (adcCounts > 0) ? 
 1137              		.loc 1 1112 0
 1138 007a 1248     		ldr	r0, .L95+16
 1139 007c 6043     		mul	r0, r4
1113:.\Generated_Source\PSoC4/ADC.c **** 	             (ADC_countsPer10Volt[rawChannel] / 2) 
1114:.\Generated_Source\PSoC4/ADC.c **** 				: (-(ADC_countsPer10Volt[rawChannel] / 2)) )) 
 1140              		.loc 1 1114 0
 1141 007e 002C     		cmp	r4, #0
 1142 0080 06DD     		ble	.L92
1113:.\Generated_Source\PSoC4/ADC.c **** 	             (ADC_countsPer10Volt[rawChannel] / 2) 
 1143              		.loc 1 1113 0 discriminator 1
 1144 0082 AB00     		lsl	r3, r5, #2
 1145 0084 104A     		ldr	r2, .L95+20
 1146 0086 9B58     		ldr	r3, [r3, r2]
 1147              		.loc 1 1114 0 discriminator 1
 1148 0088 DA0F     		lsr	r2, r3, #31
 1149 008a D318     		add	r3, r2, r3
 1150 008c 5B10     		asr	r3, r3, #1
 1151 008e 06E0     		b	.L93
 1152              	.L92:
ARM GAS  C:\Users\Greg\AppData\Local\Temp\ccyl0q0s.s 			page 42


 1153              		.loc 1 1114 0 is_stmt 0 discriminator 2
 1154 0090 AB00     		lsl	r3, r5, #2
 1155 0092 0D4A     		ldr	r2, .L95+20
 1156 0094 9A58     		ldr	r2, [r3, r2]
 1157 0096 D30F     		lsr	r3, r2, #31
 1158 0098 9A18     		add	r2, r3, r2
 1159 009a 5210     		asr	r2, r2, #1
 1160 009c 5342     		neg	r3, r2
 1161              	.L93:
1112:.\Generated_Source\PSoC4/ADC.c **** 	             (ADC_countsPer10Volt[rawChannel] / 2) 
 1162              		.loc 1 1112 0 is_stmt 1
 1163 009e C018     		add	r0, r0, r3
1115:.\Generated_Source\PSoC4/ADC.c **** 	             / ADC_countsPer10Volt[rawChannel]);
 1164              		.loc 1 1115 0
 1165 00a0 AD00     		lsl	r5, r5, #2
 1166              	.LVL116:
 1167 00a2 094B     		ldr	r3, .L95+20
 1168 00a4 E958     		ldr	r1, [r5, r3]
 1169 00a6 FFF7FEFF 		bl	__aeabi_idiv
 1170              	.LVL117:
1112:.\Generated_Source\PSoC4/ADC.c **** 	             (ADC_countsPer10Volt[rawChannel] / 2) 
 1171              		.loc 1 1112 0
 1172 00aa 80B2     		uxth	r0, r0
 1173              	.LVL118:
 1174 00ac 00E0     		b	.L88
 1175              	.LVL119:
 1176              	.L94:
1068:.\Generated_Source\PSoC4/ADC.c **** 	uint32 temp;
 1177              		.loc 1 1068 0
 1178 00ae 0020     		mov	r0, #0
 1179              	.LVL120:
 1180              	.L88:
1116:.\Generated_Source\PSoC4/ADC.c **** 	}
1117:.\Generated_Source\PSoC4/ADC.c ****     return result_mVolts;
 1181              		.loc 1 1117 0
 1182 00b0 00B2     		sxth	r0, r0
1118:.\Generated_Source\PSoC4/ADC.c **** }
 1183              		.loc 1 1118 0
 1184              		@ sp needed
 1185              	.LVL121:
 1186 00b2 F8BD     		pop	{r3, r4, r5, r6, r7, pc}
 1187              	.L96:
 1188              		.align	2
 1189              	.L95:
 1190 00b4 00000000 		.word	.LANCHOR0
 1191 00b8 00000000 		.word	ADC_allConfigs
 1192 00bc 00000000 		.word	.LANCHOR1
 1193 00c0 00000000 		.word	ADC_offset
 1194 00c4 10270000 		.word	10000
 1195 00c8 00000000 		.word	ADC_countsPer10Volt
 1196              		.cfi_endproc
 1197              	.LFE22:
 1198              		.size	ADC_CountsTo_mVolts, .-ADC_CountsTo_mVolts
 1199              		.global	__aeabi_lmul
 1200              		.global	__aeabi_ldivmod
 1201              		.section	.text.ADC_CountsTo_uVolts,"ax",%progbits
 1202              		.align	2
ARM GAS  C:\Users\Greg\AppData\Local\Temp\ccyl0q0s.s 			page 43


 1203              		.global	ADC_CountsTo_uVolts
 1204              		.code	16
 1205              		.thumb_func
 1206              		.type	ADC_CountsTo_uVolts, %function
 1207              	ADC_CountsTo_uVolts:
 1208              	.LFB23:
1119:.\Generated_Source\PSoC4/ADC.c **** 
1120:.\Generated_Source\PSoC4/ADC.c **** /*******************************************************************************
1121:.\Generated_Source\PSoC4/ADC.c **** * Function Name: ADC_CountsTo_uVolts
1122:.\Generated_Source\PSoC4/ADC.c **** ****************************************************************************//**
1123:.\Generated_Source\PSoC4/ADC.c **** *
1124:.\Generated_Source\PSoC4/ADC.c **** * \brief Converts the ADC output to microvolts as a 32-bit integer. 
1125:.\Generated_Source\PSoC4/ADC.c **** * For example, if the ADC measured 0.534 volts, the return value 
1126:.\Generated_Source\PSoC4/ADC.c **** * would be 534000. The calculation of voltage depends on the value of the voltage 
1127:.\Generated_Source\PSoC4/ADC.c **** * reference. When the Vref is based on Vdda, the value used for Vdda is set for 
1128:.\Generated_Source\PSoC4/ADC.c **** * the project in the System tab of the DWR.
1129:.\Generated_Source\PSoC4/ADC.c **** *
1130:.\Generated_Source\PSoC4/ADC.c **** * \param chan ADC channel number.   
1131:.\Generated_Source\PSoC4/ADC.c **** *
1132:.\Generated_Source\PSoC4/ADC.c **** * \param adcCounts Result from the ADC conversion.
1133:.\Generated_Source\PSoC4/ADC.c **** *
1134:.\Generated_Source\PSoC4/ADC.c **** * \return Result in microvolts.
1135:.\Generated_Source\PSoC4/ADC.c **** * 
1136:.\Generated_Source\PSoC4/ADC.c **** * \sideeffect None
1137:.\Generated_Source\PSoC4/ADC.c **** *
1138:.\Generated_Source\PSoC4/ADC.c **** * <b>Code Snippet</b>
1139:.\Generated_Source\PSoC4/ADC.c **** *  \snippet main.c snippet_ADC_CountsTo_uVolts
1140:.\Generated_Source\PSoC4/ADC.c **** *
1141:.\Generated_Source\PSoC4/ADC.c **** *******************************************************************************/
1142:.\Generated_Source\PSoC4/ADC.c **** int32 ADC_CountsTo_uVolts(uint32 chan, int16 adcCounts)
1143:.\Generated_Source\PSoC4/ADC.c **** {   
 1209              		.loc 1 1143 0
 1210              		.cfi_startproc
 1211              	.LVL122:
 1212 0000 F8B5     		push	{r3, r4, r5, r6, r7, lr}
 1213              		.cfi_def_cfa_offset 24
 1214              		.cfi_offset 3, -24
 1215              		.cfi_offset 4, -20
 1216              		.cfi_offset 5, -16
 1217              		.cfi_offset 6, -12
 1218              		.cfi_offset 7, -8
 1219              		.cfi_offset 14, -4
 1220 0002 061C     		mov	r6, r0
 1221 0004 0C1C     		mov	r4, r1
 1222              	.LVL123:
1144:.\Generated_Source\PSoC4/ADC.c ****     int64 result_uVolts = 0;
1145:.\Generated_Source\PSoC4/ADC.c **** 	uint32 temp;
1146:.\Generated_Source\PSoC4/ADC.c **** 	uint32 averageAdcSamplesDiv;
1147:.\Generated_Source\PSoC4/ADC.c **** 	uint32 rawChannel;
1148:.\Generated_Source\PSoC4/ADC.c **** 	rawChannel = ADC_allConfigs[ADC_currentConfig].channelBase + chan;
 1223              		.loc 1 1148 0
 1224 0006 244B     		ldr	r3, .L103
 1225 0008 1968     		ldr	r1, [r3]
 1226              	.LVL124:
 1227 000a 244F     		ldr	r7, .L103+4
 1228 000c CA00     		lsl	r2, r1, #3
 1229 000e 501A     		sub	r0, r2, r1
ARM GAS  C:\Users\Greg\AppData\Local\Temp\ccyl0q0s.s 			page 44


 1230              	.LVL125:
 1231 0010 C000     		lsl	r0, r0, #3
 1232 0012 C559     		ldr	r5, [r0, r7]
 1233 0014 AD19     		add	r5, r5, r6
 1234              	.LVL126:
1149:.\Generated_Source\PSoC4/ADC.c **** 
1150:.\Generated_Source\PSoC4/ADC.c **** 	if((ADC_allConfigs[ADC_currentConfig].sampleCtrl 
 1235              		.loc 1 1150 0
 1236 0016 3B18     		add	r3, r7, r0
 1237 0018 DB68     		ldr	r3, [r3, #12]
 1238 001a 9B07     		lsl	r3, r3, #30
 1239 001c 39D4     		bmi	.L102
1151:.\Generated_Source\PSoC4/ADC.c **** 		& ADC_SAR_SAMPLE_CTRL_LEFT_ALIGN_MSK) 
1152:.\Generated_Source\PSoC4/ADC.c **** 		!= ADC_SAR_SAMPLE_CTRL_LEFT_ALIGN_MSK)
1153:.\Generated_Source\PSoC4/ADC.c **** 	{
1154:.\Generated_Source\PSoC4/ADC.c ****         /* Halt CPU in debug mode if channel is out of valid range */
1155:.\Generated_Source\PSoC4/ADC.c ****         CYASSERT(chan < ADC_TOTAL_CHANNELS_NUM);
 1240              		.loc 1 1155 0
 1241 001e 012E     		cmp	r6, #1
 1242 0020 02D9     		bls	.L99
 1243              		.loc 1 1155 0 is_stmt 0 discriminator 1
 1244 0022 0020     		mov	r0, #0
 1245 0024 FFF7FEFF 		bl	CyHalt
 1246              	.LVL127:
 1247              	.L99:
1156:.\Generated_Source\PSoC4/ADC.c **** 
1157:.\Generated_Source\PSoC4/ADC.c ****         /* Divide the adcCount when accumulate averaging mode selected */
1158:.\Generated_Source\PSoC4/ADC.c **** 		if((ADC_allConfigs[ADC_currentConfig].sampleCtrl 
 1248              		.loc 1 1158 0 is_stmt 1
 1249 0028 1B4B     		ldr	r3, .L103
 1250 002a 1A68     		ldr	r2, [r3]
 1251 002c D300     		lsl	r3, r2, #3
 1252 002e 9B1A     		sub	r3, r3, r2
 1253 0030 DB00     		lsl	r3, r3, #3
 1254 0032 1A4A     		ldr	r2, .L103+4
 1255 0034 D318     		add	r3, r2, r3
 1256 0036 DB68     		ldr	r3, [r3, #12]
 1257 0038 1A06     		lsl	r2, r3, #24
 1258 003a 19D4     		bmi	.L100
1159:.\Generated_Source\PSoC4/ADC.c **** 			& ADC_SAR_SAMPLE_CTRL_AVG_SHIFT_MSK) 
1160:.\Generated_Source\PSoC4/ADC.c **** 			!= ADC_SAR_SAMPLE_CTRL_AVG_SHIFT_MSK)
1161:.\Generated_Source\PSoC4/ADC.c **** 		{
1162:.\Generated_Source\PSoC4/ADC.c **** 	        if((ADC_channelsConfig[rawChannel] & ADC_SAR_CHAN_CONFIG_AVG_EN_MSK) != 0u)
 1259              		.loc 1 1162 0
 1260 003c AA00     		lsl	r2, r5, #2
 1261 003e 1849     		ldr	r1, .L103+8
 1262 0040 5258     		ldr	r2, [r2, r1]
 1263 0042 5205     		lsl	r2, r2, #21
 1264 0044 14D5     		bpl	.L100
1163:.\Generated_Source\PSoC4/ADC.c **** 	        {
1164:.\Generated_Source\PSoC4/ADC.c ****                 /* Divide by 2^(AVG_CNT + 1) */
1165:.\Generated_Source\PSoC4/ADC.c **** 				averageAdcSamplesDiv = ((ADC_allConfigs[ADC_currentConfig].sampleCtrl 
1166:.\Generated_Source\PSoC4/ADC.c **** 					& ADC_SAR_SAMPLE_CTRL_AVG_CNT_MSK) 
 1265              		.loc 1 1166 0
 1266 0046 5B06     		lsl	r3, r3, #25
1165:.\Generated_Source\PSoC4/ADC.c **** 					& ADC_SAR_SAMPLE_CTRL_AVG_CNT_MSK) 
 1267              		.loc 1 1165 0
ARM GAS  C:\Users\Greg\AppData\Local\Temp\ccyl0q0s.s 			page 45


 1268 0048 5B0F     		lsr	r3, r3, #29
 1269              	.LVL128:
1167:.\Generated_Source\PSoC4/ADC.c **** 					>> ADC_SAR_SAMPLE_CTRL_AVG_CNT_SHFT);
1168:.\Generated_Source\PSoC4/ADC.c ****                 averageAdcSamplesDiv = (1uL << (averageAdcSamplesDiv + 1uL));
 1270              		.loc 1 1168 0
 1271 004a 0133     		add	r3, r3, #1
 1272              	.LVL129:
 1273 004c 0127     		mov	r7, #1
 1274 004e 9F40     		lsl	r7, r7, r3
 1275              	.LVL130:
1169:.\Generated_Source\PSoC4/ADC.c ****                 
1170:.\Generated_Source\PSoC4/ADC.c ****                 /* If unsigned format, prevent sign extension */
1171:.\Generated_Source\PSoC4/ADC.c ****                 if(0 == ADC_IsChannelSigned(chan))
 1276              		.loc 1 1171 0
 1277 0050 301C     		mov	r0, r6
 1278 0052 FFF7FEFF 		bl	ADC_IsChannelSigned
 1279              	.LVL131:
 1280 0056 0028     		cmp	r0, #0
 1281 0058 05D1     		bne	.L101
1172:.\Generated_Source\PSoC4/ADC.c ****                 {
1173:.\Generated_Source\PSoC4/ADC.c **** 					temp = ((uint16) adcCounts / averageAdcSamplesDiv);
 1282              		.loc 1 1173 0
 1283 005a A0B2     		uxth	r0, r4
 1284 005c 391C     		mov	r1, r7
 1285 005e FFF7FEFF 		bl	__aeabi_uidiv
 1286              	.LVL132:
1174:.\Generated_Source\PSoC4/ADC.c ****                     adcCounts = (int16) temp;
 1287              		.loc 1 1174 0
 1288 0062 04B2     		sxth	r4, r0
 1289              	.LVL133:
 1290 0064 04E0     		b	.L100
 1291              	.LVL134:
 1292              	.L101:
1175:.\Generated_Source\PSoC4/ADC.c ****                 }
1176:.\Generated_Source\PSoC4/ADC.c ****                 else
1177:.\Generated_Source\PSoC4/ADC.c ****                 {
1178:.\Generated_Source\PSoC4/ADC.c ****                     adcCounts /= (int16) averageAdcSamplesDiv;
 1293              		.loc 1 1178 0
 1294 0066 39B2     		sxth	r1, r7
 1295 0068 201C     		mov	r0, r4
 1296 006a FFF7FEFF 		bl	__aeabi_idiv
 1297              	.LVL135:
 1298 006e 04B2     		sxth	r4, r0
 1299              	.LVL136:
 1300              	.L100:
1179:.\Generated_Source\PSoC4/ADC.c ****                 }
1180:.\Generated_Source\PSoC4/ADC.c ****             }
1181:.\Generated_Source\PSoC4/ADC.c ****         }
1182:.\Generated_Source\PSoC4/ADC.c **** 
1183:.\Generated_Source\PSoC4/ADC.c ****         /* Subtract ADC offset */
1184:.\Generated_Source\PSoC4/ADC.c ****         adcCounts -= ADC_offset[rawChannel];
 1301              		.loc 1 1184 0
 1302 0070 6A00     		lsl	r2, r5, #1
 1303 0072 0C4B     		ldr	r3, .L103+12
 1304 0074 D05A     		ldrh	r0, [r2, r3]
 1305 0076 201A     		sub	r0, r4, r0
 1306 0078 00B2     		sxth	r0, r0
ARM GAS  C:\Users\Greg\AppData\Local\Temp\ccyl0q0s.s 			page 46


 1307              	.LVL137:
1185:.\Generated_Source\PSoC4/ADC.c **** 
1186:.\Generated_Source\PSoC4/ADC.c ****         result_uVolts = ((int64)adcCounts * ADC_10UV_COUNTS) 
 1308              		.loc 1 1186 0
 1309 007a C117     		asr	r1, r0, #31
 1310 007c 0A4A     		ldr	r2, .L103+16
 1311 007e 0023     		mov	r3, #0
 1312 0080 FFF7FEFF 		bl	__aeabi_lmul
 1313              	.LVL138:
1187:.\Generated_Source\PSoC4/ADC.c **** 			/ ADC_countsPer10Volt[rawChannel];
 1314              		.loc 1 1187 0
 1315 0084 AD00     		lsl	r5, r5, #2
 1316              	.LVL139:
 1317 0086 094B     		ldr	r3, .L103+20
 1318 0088 EA58     		ldr	r2, [r5, r3]
 1319 008a D317     		asr	r3, r2, #31
1186:.\Generated_Source\PSoC4/ADC.c **** 			/ ADC_countsPer10Volt[rawChannel];
 1320              		.loc 1 1186 0
 1321 008c FFF7FEFF 		bl	__aeabi_ldivmod
 1322              	.LVL140:
 1323 0090 00E0     		b	.L98
 1324              	.LVL141:
 1325              	.L102:
1144:.\Generated_Source\PSoC4/ADC.c **** 	uint32 temp;
 1326              		.loc 1 1144 0
 1327 0092 0020     		mov	r0, #0
 1328              	.LVL142:
 1329              	.L98:
1188:.\Generated_Source\PSoC4/ADC.c **** 	}
1189:.\Generated_Source\PSoC4/ADC.c **** 	return ( (int32)result_uVolts );
1190:.\Generated_Source\PSoC4/ADC.c **** }
 1330              		.loc 1 1190 0
 1331              		@ sp needed
 1332              	.LVL143:
 1333 0094 F8BD     		pop	{r3, r4, r5, r6, r7, pc}
 1334              	.L104:
 1335 0096 C046     		.align	2
 1336              	.L103:
 1337 0098 00000000 		.word	.LANCHOR0
 1338 009c 00000000 		.word	ADC_allConfigs
 1339 00a0 00000000 		.word	.LANCHOR1
 1340 00a4 00000000 		.word	ADC_offset
 1341 00a8 80969800 		.word	10000000
 1342 00ac 00000000 		.word	ADC_countsPer10Volt
 1343              		.cfi_endproc
 1344              	.LFE23:
 1345              		.size	ADC_CountsTo_uVolts, .-ADC_CountsTo_uVolts
 1346              		.section	.text.ADC_Init,"ax",%progbits
 1347              		.align	2
 1348              		.global	ADC_Init
 1349              		.code	16
 1350              		.thumb_func
 1351              		.type	ADC_Init, %function
 1352              	ADC_Init:
 1353              	.LFB24:
1191:.\Generated_Source\PSoC4/ADC.c **** 
1192:.\Generated_Source\PSoC4/ADC.c **** #if(0u != ADC_ANY_CONFIG_USES_FILTER)		
ARM GAS  C:\Users\Greg\AppData\Local\Temp\ccyl0q0s.s 			page 47


1193:.\Generated_Source\PSoC4/ADC.c ****     /* ****************************************************************************
1194:.\Generated_Source\PSoC4/ADC.c ****     * Function Name: ADC_TrimOffset
1195:.\Generated_Source\PSoC4/ADC.c ****     ****************************************************************************//*
1196:.\Generated_Source\PSoC4/ADC.c ****     *
1197:.\Generated_Source\PSoC4/ADC.c ****     * \brief Runs an algorithm to reduce offset using the UAB's opamp trim.
1198:.\Generated_Source\PSoC4/ADC.c ****     *
1199:.\Generated_Source\PSoC4/ADC.c ****     * \param None
1200:.\Generated_Source\PSoC4/ADC.c ****     * 
1201:.\Generated_Source\PSoC4/ADC.c ****     * \return None
1202:.\Generated_Source\PSoC4/ADC.c ****     *
1203:.\Generated_Source\PSoC4/ADC.c ****     * \sideeffect None
1204:.\Generated_Source\PSoC4/ADC.c ****     *
1205:.\Generated_Source\PSoC4/ADC.c ****     * <b>Code Snippet</b>
1206:.\Generated_Source\PSoC4/ADC.c ****     *  \snippet main.c snippet_ADC_TrimOffset
1207:.\Generated_Source\PSoC4/ADC.c ****     *
1208:.\Generated_Source\PSoC4/ADC.c ****     *******************************************************************************/
1209:.\Generated_Source\PSoC4/ADC.c ****     void ADC_TrimOffset(void)
1210:.\Generated_Source\PSoC4/ADC.c ****     {
1211:.\Generated_Source\PSoC4/ADC.c ****         uint32 curTrim = 0uL;
1212:.\Generated_Source\PSoC4/ADC.c ****         uint32 bestTrim = 0uL;
1213:.\Generated_Source\PSoC4/ADC.c ****         int16 curResult = 0;
1214:.\Generated_Source\PSoC4/ADC.c ****         int16 bestResult = (int16)0x7fff; /* Max positive 16-bit number */
1215:.\Generated_Source\PSoC4/ADC.c ****         int16 targResult = 0;
1216:.\Generated_Source\PSoC4/ADC.c **** 
1217:.\Generated_Source\PSoC4/ADC.c ****         ADC_Stop();
1218:.\Generated_Source\PSoC4/ADC.c ****         ADC_Start();
1219:.\Generated_Source\PSoC4/ADC.c ****         ADC_StartConvert();
1220:.\Generated_Source\PSoC4/ADC.c ****         /* Set firmware modbit. */
1221:.\Generated_Source\PSoC4/ADC.c ****         ADC_UABH_A_CAP_ABCF_VAL_REG |= (0x1uL << CyUAB_SIGN_VAL_SHIFT);
1222:.\Generated_Source\PSoC4/ADC.c ****         ADC_UABH_B_CAP_ABCF_VAL_REG |= (0x1uL << CyUAB_SIGN_VAL_SHIFT);
1223:.\Generated_Source\PSoC4/ADC.c ****         /* Unsigned mode zero is 0x800, signed mode zero is 0 */
1224:.\Generated_Source\PSoC4/ADC.c ****         targResult = (0u != (ADC_SAR_SAMPLE_CTRL_REG 
1225:.\Generated_Source\PSoC4/ADC.c ****                                  & ADC_SAR_SAMPLE_CTRL_DIFFERENTIAL_SIGNED_MSK))
1226:.\Generated_Source\PSoC4/ADC.c ****                            ? 0
1227:.\Generated_Source\PSoC4/ADC.c ****                            : (int16)0x0800;
1228:.\Generated_Source\PSoC4/ADC.c ****                         
1229:.\Generated_Source\PSoC4/ADC.c ****         /* Check each trim value. Remember trim that created smallest offset.*/
1230:.\Generated_Source\PSoC4/ADC.c ****         for(curTrim = 0uL; curTrim < 0x10uL; curTrim++)
1231:.\Generated_Source\PSoC4/ADC.c ****         {
1232:.\Generated_Source\PSoC4/ADC.c ****             /* Use defines from cydevice_trm to set trim. */
1233:.\Generated_Source\PSoC4/ADC.c ****             CY_SET_REG32(CYREG_UAB0_OA_TRIM0, 
1234:.\Generated_Source\PSoC4/ADC.c ****                 CY_GET_REG32(CYREG_UAB0_OA_TRIM0) & ~(0xfuL << CyUAB_OA_OFFSET_SHIFT));
1235:.\Generated_Source\PSoC4/ADC.c ****             CY_SET_REG32(CYREG_UAB0_OA_TRIM0, 
1236:.\Generated_Source\PSoC4/ADC.c ****                 CY_GET_REG32(CYREG_UAB0_OA_TRIM0) | (curTrim << CyUAB_OA_OFFSET_SHIFT));
1237:.\Generated_Source\PSoC4/ADC.c ****             CyDelayUs(100u);
1238:.\Generated_Source\PSoC4/ADC.c ****             (void)ADC_IsEndConversion(ADC_WAIT_FOR_RESULT);
1239:.\Generated_Source\PSoC4/ADC.c ****             curResult = ADC_GetResult16(0uL) - targResult;
1240:.\Generated_Source\PSoC4/ADC.c ****             if (curResult < 0)
1241:.\Generated_Source\PSoC4/ADC.c ****             {
1242:.\Generated_Source\PSoC4/ADC.c ****                 curResult *= -1;
1243:.\Generated_Source\PSoC4/ADC.c ****             }
1244:.\Generated_Source\PSoC4/ADC.c ****             if (curResult < bestResult)
1245:.\Generated_Source\PSoC4/ADC.c ****             {
1246:.\Generated_Source\PSoC4/ADC.c ****                 bestResult = curResult;
1247:.\Generated_Source\PSoC4/ADC.c ****                 bestTrim = curTrim;
1248:.\Generated_Source\PSoC4/ADC.c ****             }
1249:.\Generated_Source\PSoC4/ADC.c ****         }
ARM GAS  C:\Users\Greg\AppData\Local\Temp\ccyl0q0s.s 			page 48


1250:.\Generated_Source\PSoC4/ADC.c ****         
1251:.\Generated_Source\PSoC4/ADC.c ****         /* Set the best trim. */
1252:.\Generated_Source\PSoC4/ADC.c ****         CY_SET_REG32(CYREG_UAB0_OA_TRIM0, 
1253:.\Generated_Source\PSoC4/ADC.c ****             CY_GET_REG32(CYREG_UAB0_OA_TRIM0) & ~(0xfuL << CyUAB_OA_OFFSET_SHIFT));
1254:.\Generated_Source\PSoC4/ADC.c ****         CY_SET_REG32(CYREG_UAB0_OA_TRIM0, 
1255:.\Generated_Source\PSoC4/ADC.c ****             CY_GET_REG32(CYREG_UAB0_OA_TRIM0) | (bestTrim << CyUAB_OA_OFFSET_SHIFT));
1256:.\Generated_Source\PSoC4/ADC.c ****         
1257:.\Generated_Source\PSoC4/ADC.c ****         /* Clear the modbit */
1258:.\Generated_Source\PSoC4/ADC.c ****         ADC_UABH_A_CAP_ABCF_VAL_REG &= ~(0x1uL << CyUAB_SIGN_VAL_SHIFT);
1259:.\Generated_Source\PSoC4/ADC.c ****         ADC_UABH_B_CAP_ABCF_VAL_REG &= ~(0x1uL << CyUAB_SIGN_VAL_SHIFT);
1260:.\Generated_Source\PSoC4/ADC.c ****     }
1261:.\Generated_Source\PSoC4/ADC.c **** #endif /* ADC_ANY_CONFIG_USES_FILTER != 0u */
1262:.\Generated_Source\PSoC4/ADC.c **** /* ****************************************************************************
1263:.\Generated_Source\PSoC4/ADC.c **** * Function Name: ADC_Init
1264:.\Generated_Source\PSoC4/ADC.c **** ****************************************************************************//*
1265:.\Generated_Source\PSoC4/ADC.c **** *
1266:.\Generated_Source\PSoC4/ADC.c **** * \brief Initialize the component according to parameters defined in the 
1267:.\Generated_Source\PSoC4/ADC.c **** * customizer.
1268:.\Generated_Source\PSoC4/ADC.c **** *
1269:.\Generated_Source\PSoC4/ADC.c **** * \param None
1270:.\Generated_Source\PSoC4/ADC.c **** * 
1271:.\Generated_Source\PSoC4/ADC.c **** * \return None
1272:.\Generated_Source\PSoC4/ADC.c **** *
1273:.\Generated_Source\PSoC4/ADC.c **** * \sideeffect None
1274:.\Generated_Source\PSoC4/ADC.c **** *
1275:.\Generated_Source\PSoC4/ADC.c **** * <b>Code Snippet</b>
1276:.\Generated_Source\PSoC4/ADC.c **** *  \snippet main.c snippet_ADC_Init
1277:.\Generated_Source\PSoC4/ADC.c **** *
1278:.\Generated_Source\PSoC4/ADC.c **** *******************************************************************************/
1279:.\Generated_Source\PSoC4/ADC.c **** void ADC_Init(void)
1280:.\Generated_Source\PSoC4/ADC.c **** {
 1354              		.loc 1 1280 0
 1355              		.cfi_startproc
 1356 0000 F0B5     		push	{r4, r5, r6, r7, lr}
 1357              		.cfi_def_cfa_offset 20
 1358              		.cfi_offset 4, -20
 1359              		.cfi_offset 5, -16
 1360              		.cfi_offset 6, -12
 1361              		.cfi_offset 7, -8
 1362              		.cfi_offset 14, -4
 1363 0002 4746     		mov	r7, r8
 1364 0004 80B4     		push	{r7}
 1365              		.cfi_def_cfa_offset 24
 1366              		.cfi_offset 8, -24
 1367              	.LVL144:
1281:.\Generated_Source\PSoC4/ADC.c **** 	uint32 chNum = 0ul;
1282:.\Generated_Source\PSoC4/ADC.c **** 	uint32 configNum = 0u;
1283:.\Generated_Source\PSoC4/ADC.c **** 	int32 counts;
1284:.\Generated_Source\PSoC4/ADC.c **** 	
1285:.\Generated_Source\PSoC4/ADC.c **** 	if(0u == ADC_initVar)
 1368              		.loc 1 1285 0
 1369 0006 424B     		ldr	r3, .L119
 1370 0008 1B7A     		ldrb	r3, [r3, #8]
 1371 000a 002B     		cmp	r3, #0
 1372 000c 55D0     		beq	.L116
 1373 000e 7CE0     		b	.L105
 1374              	.LVL145:
ARM GAS  C:\Users\Greg\AppData\Local\Temp\ccyl0q0s.s 			page 49


 1375              	.L113:
1286:.\Generated_Source\PSoC4/ADC.c **** 	{
1287:.\Generated_Source\PSoC4/ADC.c **** 		/* Set offset and countsPer10Volt for all channels */
1288:.\Generated_Source\PSoC4/ADC.c **** 		for(chNum = 0ul; chNum < ADC_TOTAL_CHANNELS_NUM; chNum++)
1289:.\Generated_Source\PSoC4/ADC.c **** 		{      
1290:.\Generated_Source\PSoC4/ADC.c **** 			if((ADC_channelsConfig[chNum] & ADC_SAR_CHAN_CONFIG_RESOLUTION_MSK) != 0u)
 1376              		.loc 1 1290 0
 1377 0010 A300     		lsl	r3, r4, #2
 1378 0012 404A     		ldr	r2, .L119+4
 1379 0014 9A58     		ldr	r2, [r3, r2]
 1380 0016 9305     		lsl	r3, r2, #22
 1381 0018 0AD5     		bpl	.L117
1291:.\Generated_Source\PSoC4/ADC.c ****         	{
1292:.\Generated_Source\PSoC4/ADC.c **** 				if((ADC_allConfigs[configNum].sampleCtrl 
 1382              		.loc 1 1292 0
 1383 001a FB00     		lsl	r3, r7, #3
 1384 001c DB1B     		sub	r3, r3, r7
 1385 001e DB00     		lsl	r3, r3, #3
 1386 0020 3D49     		ldr	r1, .L119+8
 1387 0022 CB18     		add	r3, r1, r3
 1388 0024 DB68     		ldr	r3, [r3, #12]
 1389 0026 DB07     		lsl	r3, r3, #31
 1390 0028 05D5     		bpl	.L118
1293:.\Generated_Source\PSoC4/ADC.c **** 					& ADC_SAR_SAMPLE_CTRL_SUB_RESOLUTION_MSK) 
1294:.\Generated_Source\PSoC4/ADC.c **** 					== ADC_SUB_RESOLUTION_10B)
1295:.\Generated_Source\PSoC4/ADC.c **** 				{
1296:.\Generated_Source\PSoC4/ADC.c **** 					counts = (int32) ADC_SAR_WRK_MAX_10BIT;
 1391              		.loc 1 1296 0
 1392 002a 8020     		mov	r0, #128
 1393 002c C000     		lsl	r0, r0, #3
 1394 002e 04E0     		b	.L108
 1395              	.L117:
1297:.\Generated_Source\PSoC4/ADC.c **** 				}
1298:.\Generated_Source\PSoC4/ADC.c **** 				else
1299:.\Generated_Source\PSoC4/ADC.c **** 				{
1300:.\Generated_Source\PSoC4/ADC.c **** 					counts = (int32) ADC_SAR_WRK_MAX_8BIT;
1301:.\Generated_Source\PSoC4/ADC.c **** 				}
1302:.\Generated_Source\PSoC4/ADC.c ****         	}
1303:.\Generated_Source\PSoC4/ADC.c ****         	else
1304:.\Generated_Source\PSoC4/ADC.c ****         	{
1305:.\Generated_Source\PSoC4/ADC.c ****                counts = (int32)ADC_SAR_WRK_MAX_12BIT;
 1396              		.loc 1 1305 0
 1397 0030 8020     		mov	r0, #128
 1398 0032 4001     		lsl	r0, r0, #5
 1399 0034 01E0     		b	.L108
 1400              	.L118:
1300:.\Generated_Source\PSoC4/ADC.c **** 				}
 1401              		.loc 1 1300 0
 1402 0036 8020     		mov	r0, #128
 1403 0038 4000     		lsl	r0, r0, #1
 1404              	.L108:
 1405              	.LVL146:
1306:.\Generated_Source\PSoC4/ADC.c ****         	}
1307:.\Generated_Source\PSoC4/ADC.c **** 			
1308:.\Generated_Source\PSoC4/ADC.c **** 			/* Single Ended Channel */
1309:.\Generated_Source\PSoC4/ADC.c **** 			if((ADC_channelsConfig[chNum] & ADC_SAR_CHAN_CONFIG_DIFFERENTIAL_EN_MSK) == 0u)
 1406              		.loc 1 1309 0
ARM GAS  C:\Users\Greg\AppData\Local\Temp\ccyl0q0s.s 			page 50


 1407 003a D305     		lsl	r3, r2, #23
 1408 003c 1DD4     		bmi	.L109
1310:.\Generated_Source\PSoC4/ADC.c ****         	{
1311:.\Generated_Source\PSoC4/ADC.c **** 				if(((ADC_allConfigs[configNum].sampleCtrl 
 1409              		.loc 1 1311 0
 1410 003e FB00     		lsl	r3, r7, #3
 1411 0040 DB1B     		sub	r3, r3, r7
 1412 0042 DB00     		lsl	r3, r3, #3
 1413 0044 344A     		ldr	r2, .L119+8
 1414 0046 D318     		add	r3, r2, r3
 1415 0048 DB68     		ldr	r3, [r3, #12]
 1416 004a 5B07     		lsl	r3, r3, #29
 1417 004c 10D5     		bpl	.L110
1312:.\Generated_Source\PSoC4/ADC.c **** 					& ADC_SAR_SAMPLE_CTRL_SINGLE_ENDED_SIGNED_MSK) 
1313:.\Generated_Source\PSoC4/ADC.c **** 					== ADC_SAR_SAMPLE_CTRL_SINGLE_ENDED_SIGNED_MSK) && 
1314:.\Generated_Source\PSoC4/ADC.c **** 					((ADC_allConfigs[configNum].ctrl & ADC_SAR_CTRL_NEG_SEL_MSK) 
 1418              		.loc 1 1314 0
 1419 004e FB00     		lsl	r3, r7, #3
 1420 0050 DB1B     		sub	r3, r3, r7
 1421 0052 DB00     		lsl	r3, r3, #3
 1422 0054 D318     		add	r3, r2, r3
 1423 0056 9B68     		ldr	r3, [r3, #8]
 1424 0058 E022     		mov	r2, #224
 1425 005a 1201     		lsl	r2, r2, #4
 1426 005c 1340     		and	r3, r2
1313:.\Generated_Source\PSoC4/ADC.c **** 					((ADC_allConfigs[configNum].ctrl & ADC_SAR_CTRL_NEG_SEL_MSK) 
 1427              		.loc 1 1313 0
 1428 005e 9342     		cmp	r3, r2
 1429 0060 06D1     		bne	.L110
1315:.\Generated_Source\PSoC4/ADC.c **** 					== ADC_NEG_VREF_SHIFTED))
1316:.\Generated_Source\PSoC4/ADC.c **** 				{
1317:.\Generated_Source\PSoC4/ADC.c **** 					/* Set offset to the minus half scale to convert results to unsigned format */
1318:.\Generated_Source\PSoC4/ADC.c ****                 	ADC_offset[chNum] = (int16)(counts / -2);		
 1430              		.loc 1 1318 0
 1431 0062 4308     		lsr	r3, r0, #1
 1432 0064 5B42     		neg	r3, r3
 1433 0066 9BB2     		uxth	r3, r3
 1434 0068 6200     		lsl	r2, r4, #1
 1435 006a 2C49     		ldr	r1, .L119+12
 1436 006c 5352     		strh	r3, [r2, r1]
 1437 006e 08E0     		b	.L111
 1438              	.L110:
1319:.\Generated_Source\PSoC4/ADC.c ****             	}
1320:.\Generated_Source\PSoC4/ADC.c **** 				else
1321:.\Generated_Source\PSoC4/ADC.c **** 				{
1322:.\Generated_Source\PSoC4/ADC.c ****                 	ADC_offset[chNum] = 0;	
 1439              		.loc 1 1322 0
 1440 0070 6300     		lsl	r3, r4, #1
 1441 0072 0021     		mov	r1, #0
 1442 0074 294A     		ldr	r2, .L119+12
 1443 0076 9952     		strh	r1, [r3, r2]
 1444 0078 03E0     		b	.L111
 1445              	.L109:
1323:.\Generated_Source\PSoC4/ADC.c **** 				}
1324:.\Generated_Source\PSoC4/ADC.c **** 			}
1325:.\Generated_Source\PSoC4/ADC.c **** 			else    /* Differential channel */
1326:.\Generated_Source\PSoC4/ADC.c ****         	{
ARM GAS  C:\Users\Greg\AppData\Local\Temp\ccyl0q0s.s 			page 51


1327:.\Generated_Source\PSoC4/ADC.c ****                	ADC_offset[chNum] = 0; 
 1446              		.loc 1 1327 0
 1447 007a 6300     		lsl	r3, r4, #1
 1448 007c 0021     		mov	r1, #0
 1449 007e 274A     		ldr	r2, .L119+12
 1450 0080 9952     		strh	r1, [r3, r2]
 1451              	.L111:
1328:.\Generated_Source\PSoC4/ADC.c **** 			}
1329:.\Generated_Source\PSoC4/ADC.c ****             
1330:.\Generated_Source\PSoC4/ADC.c **** 			/* Calculate gain in counts per 10 volts with rounding */
1331:.\Generated_Source\PSoC4/ADC.c ****         	ADC_countsPer10Volt[chNum] = (int16)(((counts * ADC_10MV_COUNTS) \
 1452              		.loc 1 1331 0
 1453 0082 274B     		ldr	r3, .L119+16
 1454 0084 5843     		mul	r0, r3
 1455              	.LVL147:
1332:.\Generated_Source\PSoC4/ADC.c ****                             + ADC_allConfigs[configNum].vrefMvValue) \
 1456              		.loc 1 1332 0
 1457 0086 244B     		ldr	r3, .L119+8
 1458 0088 9846     		mov	r8, r3
 1459 008a FE00     		lsl	r6, r7, #3
 1460 008c F51B     		sub	r5, r6, r7
 1461 008e ED00     		lsl	r5, r5, #3
 1462 0090 4544     		add	r5, r5, r8
 1463 0092 E96A     		ldr	r1, [r5, #44]
 1464 0094 4018     		add	r0, r0, r1
1333:.\Generated_Source\PSoC4/ADC.c **** 							/ (ADC_allConfigs[configNum].vrefMvValue * 2));
 1465              		.loc 1 1333 0
 1466 0096 4900     		lsl	r1, r1, #1
 1467 0098 FFF7FEFF 		bl	__aeabi_idiv
 1468              	.LVL148:
1331:.\Generated_Source\PSoC4/ADC.c ****                             + ADC_allConfigs[configNum].vrefMvValue) \
 1469              		.loc 1 1331 0
 1470 009c 00B2     		sxth	r0, r0
 1471 009e A300     		lsl	r3, r4, #2
 1472 00a0 204A     		ldr	r2, .L119+20
 1473 00a2 9850     		str	r0, [r3, r2]
1334:.\Generated_Source\PSoC4/ADC.c ****             
1335:.\Generated_Source\PSoC4/ADC.c ****             /* Increment configuration number after rolling over to the next configuration*/
1336:.\Generated_Source\PSoC4/ADC.c **** 			if((ADC_allConfigs[configNum].channelBase
 1474              		.loc 1 1336 0
 1475 00a4 F31B     		sub	r3, r6, r7
 1476 00a6 DB00     		lsl	r3, r3, #3
 1477 00a8 4246     		mov	r2, r8
 1478 00aa 9A58     		ldr	r2, [r3, r2]
1337:.\Generated_Source\PSoC4/ADC.c **** 				+ ADC_allConfigs[configNum].numChannels) == chNum)
 1479              		.loc 1 1337 0
 1480 00ac 6B68     		ldr	r3, [r5, #4]
 1481 00ae D318     		add	r3, r2, r3
1336:.\Generated_Source\PSoC4/ADC.c **** 				+ ADC_allConfigs[configNum].numChannels) == chNum)
 1482              		.loc 1 1336 0
 1483 00b0 A342     		cmp	r3, r4
 1484 00b2 00D1     		bne	.L112
1338:.\Generated_Source\PSoC4/ADC.c **** 			{
1339:.\Generated_Source\PSoC4/ADC.c **** 				configNum++;
 1485              		.loc 1 1339 0
 1486 00b4 0137     		add	r7, r7, #1
 1487              	.LVL149:
ARM GAS  C:\Users\Greg\AppData\Local\Temp\ccyl0q0s.s 			page 52


 1488              	.L112:
1288:.\Generated_Source\PSoC4/ADC.c **** 		{      
 1489              		.loc 1 1288 0 discriminator 2
 1490 00b6 0134     		add	r4, r4, #1
 1491              	.LVL150:
 1492 00b8 01E0     		b	.L106
 1493              	.LVL151:
 1494              	.L116:
 1495 00ba 0027     		mov	r7, #0
 1496 00bc 0024     		mov	r4, #0
 1497              	.LVL152:
 1498              	.L106:
1288:.\Generated_Source\PSoC4/ADC.c **** 		{      
 1499              		.loc 1 1288 0 is_stmt 0 discriminator 1
 1500 00be 012C     		cmp	r4, #1
 1501 00c0 A6D9     		bls	.L113
1340:.\Generated_Source\PSoC4/ADC.c **** 			}
1341:.\Generated_Source\PSoC4/ADC.c **** 		} /* for(chNum = 0ul; chNum < ADC_TOTAL_CHANNELS_NUM; chNum++) */
1342:.\Generated_Source\PSoC4/ADC.c ****         
1343:.\Generated_Source\PSoC4/ADC.c ****         #if(ADC_IRQ_REMOVE == 0u)
1344:.\Generated_Source\PSoC4/ADC.c ****             /* Start and set interrupt vector */
1345:.\Generated_Source\PSoC4/ADC.c ****             CyIntSetPriority(ADC_INTC_NUMBER, ADC_INTC_PRIOR_NUMBER);
 1502              		.loc 1 1345 0 is_stmt 1
 1503 00c2 0F20     		mov	r0, #15
 1504 00c4 0321     		mov	r1, #3
 1505 00c6 FFF7FEFF 		bl	CyIntSetPriority
 1506              	.LVL153:
1346:.\Generated_Source\PSoC4/ADC.c ****             (void)CyIntSetVector(ADC_INTC_NUMBER, &ADC_ISR);
 1507              		.loc 1 1346 0
 1508 00ca 0F20     		mov	r0, #15
 1509 00cc 1649     		ldr	r1, .L119+24
 1510 00ce FFF7FEFF 		bl	CyIntSetVector
 1511              	.LVL154:
1347:.\Generated_Source\PSoC4/ADC.c ****         #endif   /* End ADC_IRQ_REMOVE */
1348:.\Generated_Source\PSoC4/ADC.c ****         
1349:.\Generated_Source\PSoC4/ADC.c ****         /* Initialize the channel enable masks for each configuration */
1350:.\Generated_Source\PSoC4/ADC.c ****         for(configNum=0u; configNum < ADC_TOTAL_CONFIGS; configNum++)
 1512              		.loc 1 1350 0
 1513 00d2 0023     		mov	r3, #0
 1514 00d4 0AE0     		b	.L114
 1515              	.LVL155:
 1516              	.L115:
1351:.\Generated_Source\PSoC4/ADC.c **** 		{
1352:.\Generated_Source\PSoC4/ADC.c **** 			ADC_channelEnMasks[configNum] = ADC_allConfigs[configNum].chanEn;
 1517              		.loc 1 1352 0 discriminator 3
 1518 00d6 DA00     		lsl	r2, r3, #3
 1519 00d8 D21A     		sub	r2, r2, r3
 1520 00da D200     		lsl	r2, r2, #3
 1521 00dc 0E49     		ldr	r1, .L119+8
 1522 00de 8A18     		add	r2, r1, r2
 1523 00e0 116A     		ldr	r1, [r2, #32]
 1524 00e2 9A00     		lsl	r2, r3, #2
 1525 00e4 0A48     		ldr	r0, .L119
 1526 00e6 8218     		add	r2, r0, r2
 1527 00e8 5160     		str	r1, [r2, #4]
1350:.\Generated_Source\PSoC4/ADC.c **** 		{
 1528              		.loc 1 1350 0 discriminator 3
ARM GAS  C:\Users\Greg\AppData\Local\Temp\ccyl0q0s.s 			page 53


 1529 00ea 0133     		add	r3, r3, #1
 1530              	.LVL156:
 1531              	.L114:
1350:.\Generated_Source\PSoC4/ADC.c **** 		{
 1532              		.loc 1 1350 0 is_stmt 0 discriminator 1
 1533 00ec 002B     		cmp	r3, #0
 1534 00ee F2D0     		beq	.L115
1353:.\Generated_Source\PSoC4/ADC.c **** 		}
1354:.\Generated_Source\PSoC4/ADC.c ****         
1355:.\Generated_Source\PSoC4/ADC.c ****         #if(0u != ADC_ANY_CONFIG_USES_FILTER)		
1356:.\Generated_Source\PSoC4/ADC.c **** 		    /* Configure the common filter settings if any configuration filters */
1357:.\Generated_Source\PSoC4/ADC.c **** 		    ADC_UABH_A_Init(&ADC_UABH_A_FILTER_config);
1358:.\Generated_Source\PSoC4/ADC.c **** 		    ADC_UABH_B_Init(&ADC_UABH_B_FILTER_config);
1359:.\Generated_Source\PSoC4/ADC.c ****             ADC_FILTERAGND2SAR_BUFFER_Init();
1360:.\Generated_Source\PSoC4/ADC.c ****             /* Set several of the UAB switches or buffers based on what source is used as Vagnd/Vre
1361:.\Generated_Source\PSoC4/ADC.c ****             #if ADC_UABH_A_halfuab__VAGND_SRC != ADC_UABH_A_halfuab__SRC_AGNDBUF
1362:.\Generated_Source\PSoC4/ADC.c ****                 ADC_UABH_A_SetStaticSwitch(ADC_SW_EXTAGND, CyUAB_SW_CLOSED);
1363:.\Generated_Source\PSoC4/ADC.c ****             #else
1364:.\Generated_Source\PSoC4/ADC.c ****                 ADC_UABH_A_SetAgndPower(CyUAB_PWR_HIGH);
1365:.\Generated_Source\PSoC4/ADC.c ****             #endif
1366:.\Generated_Source\PSoC4/ADC.c ****             
1367:.\Generated_Source\PSoC4/ADC.c ****             /* Control UAB filter output switch with PHI3 "11" (always closed). */
1368:.\Generated_Source\PSoC4/ADC.c ****             ADC_UABH_B_SRAM0_REG |= 0x4u;
1369:.\Generated_Source\PSoC4/ADC.c ****             ADC_UABH_B_SRAM1_REG |= 0x4u;
1370:.\Generated_Source\PSoC4/ADC.c ****             ADC_UABH_B_SetSwitch(CyUAB_SW_PO, CyUAB_CLK_PHI3);
1371:.\Generated_Source\PSoC4/ADC.c ****         #endif /* ADC_ANY_CONFIG_USES_FILTER != 0u */
1372:.\Generated_Source\PSoC4/ADC.c ****         
1373:.\Generated_Source\PSoC4/ADC.c ****         /* Initialize configuration zero if SelectConfig has not been called */
1374:.\Generated_Source\PSoC4/ADC.c ****         if(0u == ADC_selected)
 1535              		.loc 1 1374 0 is_stmt 1
 1536 00f0 074B     		ldr	r3, .L119
 1537              	.LVL157:
 1538 00f2 5B7A     		ldrb	r3, [r3, #9]
 1539 00f4 002B     		cmp	r3, #0
 1540 00f6 08D1     		bne	.L105
1375:.\Generated_Source\PSoC4/ADC.c **** 	    {
1376:.\Generated_Source\PSoC4/ADC.c ****             ADC_selected = 1u;
 1541              		.loc 1 1376 0
 1542 00f8 054C     		ldr	r4, .L119
 1543              	.LVL158:
 1544 00fa 0133     		add	r3, r3, #1
 1545 00fc 6372     		strb	r3, [r4, #9]
 1546              	.LVL159:
1377:.\Generated_Source\PSoC4/ADC.c ****             configNum = 0u;
1378:.\Generated_Source\PSoC4/ADC.c ****             /* Change Vref selection if is was routed by Creator */
1379:.\Generated_Source\PSoC4/ADC.c ****             #if (ADC_VREF_ROUTED)
1380:.\Generated_Source\PSoC4/ADC.c ****             ADC_vrefAMux_Select((uint8)configNum);
1381:.\Generated_Source\PSoC4/ADC.c ****             #endif
1382:.\Generated_Source\PSoC4/ADC.c ****             ADC_InitConfig(&ADC_allConfigs[configNum]);
 1547              		.loc 1 1382 0
 1548 00fe 0648     		ldr	r0, .L119+8
 1549 0100 FFF7FEFF 		bl	ADC_InitConfig
 1550              	.LVL160:
1383:.\Generated_Source\PSoC4/ADC.c ****             ADC_SAR_CHAN_EN_REG = ADC_channelEnMasks[configNum];
 1551              		.loc 1 1383 0
 1552 0104 6268     		ldr	r2, [r4, #4]
 1553 0106 094B     		ldr	r3, .L119+28
ARM GAS  C:\Users\Greg\AppData\Local\Temp\ccyl0q0s.s 			page 54


 1554 0108 1A60     		str	r2, [r3]
 1555              	.LVL161:
 1556              	.L105:
1384:.\Generated_Source\PSoC4/ADC.c ****             #if(0u != ADC_ANY_CONFIG_USES_FILTER)	
1385:.\Generated_Source\PSoC4/ADC.c ****                 ADC_filterVinMux_Select((uint8)configNum);
1386:.\Generated_Source\PSoC4/ADC.c ****             #endif
1387:.\Generated_Source\PSoC4/ADC.c ****         }           
1388:.\Generated_Source\PSoC4/ADC.c **** 	}
1389:.\Generated_Source\PSoC4/ADC.c ****     return;
1390:.\Generated_Source\PSoC4/ADC.c **** }
 1557              		.loc 1 1390 0
 1558              		@ sp needed
 1559 010a 04BC     		pop	{r2}
 1560 010c 9046     		mov	r8, r2
 1561 010e F0BD     		pop	{r4, r5, r6, r7, pc}
 1562              	.L120:
 1563              		.align	2
 1564              	.L119:
 1565 0110 00000000 		.word	.LANCHOR0
 1566 0114 00000000 		.word	.LANCHOR1
 1567 0118 00000000 		.word	ADC_allConfigs
 1568 011c 00000000 		.word	ADC_offset
 1569 0120 10270000 		.word	10000
 1570 0124 00000000 		.word	ADC_countsPer10Volt
 1571 0128 00000000 		.word	ADC_ISR
 1572 012c 20003A40 		.word	1077542944
 1573              		.cfi_endproc
 1574              	.LFE24:
 1575              		.size	ADC_Init, .-ADC_Init
 1576              		.section	.text.ADC_Enable,"ax",%progbits
 1577              		.align	2
 1578              		.global	ADC_Enable
 1579              		.code	16
 1580              		.thumb_func
 1581              		.type	ADC_Enable, %function
 1582              	ADC_Enable:
 1583              	.LFB25:
1391:.\Generated_Source\PSoC4/ADC.c **** 
1392:.\Generated_Source\PSoC4/ADC.c **** /* ****************************************************************************
1393:.\Generated_Source\PSoC4/ADC.c **** * Function Name: ADC_Enable
1394:.\Generated_Source\PSoC4/ADC.c **** ****************************************************************************//*
1395:.\Generated_Source\PSoC4/ADC.c **** *
1396:.\Generated_Source\PSoC4/ADC.c **** * \brief Enables the component. 
1397:.\Generated_Source\PSoC4/ADC.c **** *
1398:.\Generated_Source\PSoC4/ADC.c **** * \param None
1399:.\Generated_Source\PSoC4/ADC.c **** * 
1400:.\Generated_Source\PSoC4/ADC.c **** * \return None
1401:.\Generated_Source\PSoC4/ADC.c **** * 
1402:.\Generated_Source\PSoC4/ADC.c **** * \sideeffect
1403:.\Generated_Source\PSoC4/ADC.c **** *  None
1404:.\Generated_Source\PSoC4/ADC.c **** *
1405:.\Generated_Source\PSoC4/ADC.c **** * <b>Code Snippet</b>
1406:.\Generated_Source\PSoC4/ADC.c **** *  \snippet main.c snippet_ADC_Enable
1407:.\Generated_Source\PSoC4/ADC.c **** *
1408:.\Generated_Source\PSoC4/ADC.c **** *******************************************************************************/
1409:.\Generated_Source\PSoC4/ADC.c **** void ADC_Enable(void) 
1410:.\Generated_Source\PSoC4/ADC.c **** {
ARM GAS  C:\Users\Greg\AppData\Local\Temp\ccyl0q0s.s 			page 55


 1584              		.loc 1 1410 0
 1585              		.cfi_startproc
 1586 0000 08B5     		push	{r3, lr}
 1587              		.cfi_def_cfa_offset 8
 1588              		.cfi_offset 3, -8
 1589              		.cfi_offset 14, -4
1411:.\Generated_Source\PSoC4/ADC.c **** 
1412:.\Generated_Source\PSoC4/ADC.c ****     #if(0u != ADC_ANY_CONFIG_USES_FILTER)	
1413:.\Generated_Source\PSoC4/ADC.c ****     	if((ADC_allConfigs[ADC_currentConfig].miscConfig
1414:.\Generated_Source\PSoC4/ADC.c ****     		& ADC_MISC_CONFIG_FILTER_PRESENT_MSK)
1415:.\Generated_Source\PSoC4/ADC.c ****     		== ADC_MISC_CONFIG_FILTER_PRESENT_MSK)
1416:.\Generated_Source\PSoC4/ADC.c ****     	{
1417:.\Generated_Source\PSoC4/ADC.c ****             ADC_FILTERAGND2SAR_BUFFER_Enable();
1418:.\Generated_Source\PSoC4/ADC.c ****     		ADC_UABH_A_Enable();
1419:.\Generated_Source\PSoC4/ADC.c ****     		ADC_UABH_B_Enable();
1420:.\Generated_Source\PSoC4/ADC.c ****             ADC_UABH_A_SetModbitSource(31u, 31u);
1421:.\Generated_Source\PSoC4/ADC.c ****             ADC_UABH_B_SetModbitSource(31u, 31u);
1422:.\Generated_Source\PSoC4/ADC.c ****             ADC_UABH_A_SetStartupDelay(ADC_allConfigs[ADC_currentConfig].filterStartDelay);
1423:.\Generated_Source\PSoC4/ADC.c ****             ADC_UABH_B_SetStartupDelay(ADC_allConfigs[ADC_currentConfig].filterStartDelay);
1424:.\Generated_Source\PSoC4/ADC.c ****             ADC_UABH_B_Run(1u);
1425:.\Generated_Source\PSoC4/ADC.c ****             ADC_UABH_A_Run(1u);
1426:.\Generated_Source\PSoC4/ADC.c ****     	}
1427:.\Generated_Source\PSoC4/ADC.c ****     #endif /* ADC_ANY_CONFIG_USES_FILTER != 0u */
1428:.\Generated_Source\PSoC4/ADC.c ****         
1429:.\Generated_Source\PSoC4/ADC.c ****     if (0u == (ADC_SAR_CTRL_REG & ADC_SAR_CTRL_ENABLED_MSK))
 1590              		.loc 1 1429 0
 1591 0002 094B     		ldr	r3, .L124
 1592 0004 1B68     		ldr	r3, [r3]
 1593 0006 002B     		cmp	r3, #0
 1594 0008 0CDB     		blt	.L121
 1595              	.L123:
1430:.\Generated_Source\PSoC4/ADC.c ****     {
1431:.\Generated_Source\PSoC4/ADC.c ****         while (0u != (ADC_SAR_STATUS_REG & ADC_BUSY_MSK))
 1596              		.loc 1 1431 0 discriminator 1
 1597 000a 084B     		ldr	r3, .L124+4
 1598 000c 1B68     		ldr	r3, [r3]
 1599 000e 002B     		cmp	r3, #0
 1600 0010 FBDB     		blt	.L123
1432:.\Generated_Source\PSoC4/ADC.c ****         {
1433:.\Generated_Source\PSoC4/ADC.c ****             /* wait for SAR to go idle to avoid deadlock */
1434:.\Generated_Source\PSoC4/ADC.c ****         }
1435:.\Generated_Source\PSoC4/ADC.c ****         
1436:.\Generated_Source\PSoC4/ADC.c ****         ADC_SAR_CTRL_REG |= ADC_SAR_CTRL_ENABLED_MSK;
 1601              		.loc 1 1436 0
 1602 0012 054A     		ldr	r2, .L124
 1603 0014 1368     		ldr	r3, [r2]
 1604 0016 8021     		mov	r1, #128
 1605 0018 0906     		lsl	r1, r1, #24
 1606 001a 0B43     		orr	r3, r1
 1607 001c 1360     		str	r3, [r2]
1437:.\Generated_Source\PSoC4/ADC.c ****         
1438:.\Generated_Source\PSoC4/ADC.c ****         /* The block is ready to use 10 us after the enable signal is set high. */
1439:.\Generated_Source\PSoC4/ADC.c ****         CyDelayUs(ADC_10US_DELAY);
 1608              		.loc 1 1439 0
 1609 001e 0A20     		mov	r0, #10
 1610 0020 FFF7FEFF 		bl	CyDelayUs
 1611              	.LVL162:
ARM GAS  C:\Users\Greg\AppData\Local\Temp\ccyl0q0s.s 			page 56


 1612              	.L121:
1440:.\Generated_Source\PSoC4/ADC.c ****     }
1441:.\Generated_Source\PSoC4/ADC.c ****     return;
1442:.\Generated_Source\PSoC4/ADC.c **** }
 1613              		.loc 1 1442 0
 1614              		@ sp needed
 1615 0024 08BD     		pop	{r3, pc}
 1616              	.L125:
 1617 0026 C046     		.align	2
 1618              	.L124:
 1619 0028 00003A40 		.word	1077542912
 1620 002c A0023A40 		.word	1077543584
 1621              		.cfi_endproc
 1622              	.LFE25:
 1623              		.size	ADC_Enable, .-ADC_Enable
 1624              		.section	.text.ADC_Start,"ax",%progbits
 1625              		.align	2
 1626              		.global	ADC_Start
 1627              		.code	16
 1628              		.thumb_func
 1629              		.type	ADC_Start, %function
 1630              	ADC_Start:
 1631              	.LFB1:
 198:.\Generated_Source\PSoC4/ADC.c ****     if (1u != (1u & ADC_initVar))
 1632              		.loc 1 198 0
 1633              		.cfi_startproc
 1634 0000 08B5     		push	{r3, lr}
 1635              		.cfi_def_cfa_offset 8
 1636              		.cfi_offset 3, -8
 1637              		.cfi_offset 14, -4
 199:.\Generated_Source\PSoC4/ADC.c ****     {
 1638              		.loc 1 199 0
 1639 0002 074B     		ldr	r3, .L128
 1640 0004 1B7A     		ldrb	r3, [r3, #8]
 1641 0006 DB07     		lsl	r3, r3, #31
 1642 0008 06D4     		bmi	.L127
 201:.\Generated_Source\PSoC4/ADC.c ****         ADC_initVar |= 1u;
 1643              		.loc 1 201 0
 1644 000a FFF7FEFF 		bl	ADC_Init
 1645              	.LVL163:
 202:.\Generated_Source\PSoC4/ADC.c ****     }
 1646              		.loc 1 202 0
 1647 000e 044A     		ldr	r2, .L128
 1648 0010 117A     		ldrb	r1, [r2, #8]
 1649 0012 0123     		mov	r3, #1
 1650 0014 0B43     		orr	r3, r1
 1651 0016 1372     		strb	r3, [r2, #8]
 1652              	.L127:
 205:.\Generated_Source\PSoC4/ADC.c ****     
 1653              		.loc 1 205 0
 1654 0018 FFF7FEFF 		bl	ADC_Enable
 1655              	.LVL164:
 208:.\Generated_Source\PSoC4/ADC.c **** 
 1656              		.loc 1 208 0
 1657              		@ sp needed
 1658 001c 08BD     		pop	{r3, pc}
 1659              	.L129:
ARM GAS  C:\Users\Greg\AppData\Local\Temp\ccyl0q0s.s 			page 57


 1660 001e C046     		.align	2
 1661              	.L128:
 1662 0020 00000000 		.word	.LANCHOR0
 1663              		.cfi_endproc
 1664              	.LFE1:
 1665              		.size	ADC_Start, .-ADC_Start
 1666              		.section	.text.ADC_StartEx,"ax",%progbits
 1667              		.align	2
 1668              		.global	ADC_StartEx
 1669              		.code	16
 1670              		.thumb_func
 1671              		.type	ADC_StartEx, %function
 1672              	ADC_StartEx:
 1673              	.LFB2:
 230:.\Generated_Source\PSoC4/ADC.c ****     ADC_Start();
 1674              		.loc 1 230 0
 1675              		.cfi_startproc
 1676              	.LVL165:
 1677 0000 10B5     		push	{r4, lr}
 1678              		.cfi_def_cfa_offset 8
 1679              		.cfi_offset 4, -8
 1680              		.cfi_offset 14, -4
 1681 0002 041C     		mov	r4, r0
 231:.\Generated_Source\PSoC4/ADC.c ****     ADC_IRQ_StartEx(address);
 1682              		.loc 1 231 0
 1683 0004 FFF7FEFF 		bl	ADC_Start
 1684              	.LVL166:
 232:.\Generated_Source\PSoC4/ADC.c ****     return;
 1685              		.loc 1 232 0
 1686 0008 201C     		mov	r0, r4
 1687 000a FFF7FEFF 		bl	ADC_IRQ_StartEx
 1688              	.LVL167:
 234:.\Generated_Source\PSoC4/ADC.c **** 
 1689              		.loc 1 234 0
 1690              		@ sp needed
 1691              	.LVL168:
 1692 000e 10BD     		pop	{r4, pc}
 1693              		.cfi_endproc
 1694              	.LFE2:
 1695              		.size	ADC_StartEx, .-ADC_StartEx
 1696              		.section	.text.ADC_SelectConfig,"ax",%progbits
 1697              		.align	2
 1698              		.global	ADC_SelectConfig
 1699              		.code	16
 1700              		.thumb_func
 1701              		.type	ADC_SelectConfig, %function
 1702              	ADC_SelectConfig:
 1703              	.LFB5:
 399:.\Generated_Source\PSoC4/ADC.c ****     /* Check whether the configuration number is valid or not */
 1704              		.loc 1 399 0
 1705              		.cfi_startproc
 1706              	.LVL169:
 1707 0000 38B5     		push	{r3, r4, r5, lr}
 1708              		.cfi_def_cfa_offset 16
 1709              		.cfi_offset 3, -16
 1710              		.cfi_offset 4, -12
 1711              		.cfi_offset 5, -8
ARM GAS  C:\Users\Greg\AppData\Local\Temp\ccyl0q0s.s 			page 58


 1712              		.cfi_offset 14, -4
 401:.\Generated_Source\PSoC4/ADC.c ****     {
 1713              		.loc 1 401 0
 1714 0002 0028     		cmp	r0, #0
 1715 0004 1FD1     		bne	.L131
 1716 0006 0D1C     		mov	r5, r1
 1717 0008 041C     		mov	r4, r0
 404:.\Generated_Source\PSoC4/ADC.c ****         ADC_selected = 1u;
 1718              		.loc 1 404 0
 1719 000a FFF7FEFF 		bl	ADC_Stop
 1720              	.LVL170:
 405:.\Generated_Source\PSoC4/ADC.c ****         
 1721              		.loc 1 405 0
 1722 000e 0E4B     		ldr	r3, .L134
 1723 0010 0122     		mov	r2, #1
 1724 0012 5A72     		strb	r2, [r3, #9]
 407:.\Generated_Source\PSoC4/ADC.c ****     	{
 1725              		.loc 1 407 0
 1726 0014 1B7A     		ldrb	r3, [r3, #8]
 1727 0016 002B     		cmp	r3, #0
 1728 0018 01D1     		bne	.L133
 409:.\Generated_Source\PSoC4/ADC.c ****     	}
 1729              		.loc 1 409 0
 1730 001a FFF7FEFF 		bl	ADC_Init
 1731              	.LVL171:
 1732              	.L133:
 414:.\Generated_Source\PSoC4/ADC.c ****         #if(0u != ADC_ANY_CONFIG_USES_FILTER)
 1733              		.loc 1 414 0
 1734 001e E300     		lsl	r3, r4, #3
 1735 0020 1B1B     		sub	r3, r3, r4
 1736 0022 DB00     		lsl	r3, r3, #3
 1737 0024 0948     		ldr	r0, .L134+4
 1738 0026 1818     		add	r0, r3, r0
 1739 0028 FFF7FEFF 		bl	ADC_InitConfig
 1740              	.LVL172:
 418:.\Generated_Source\PSoC4/ADC.c ****     	ADC_currentConfig = config;
 1741              		.loc 1 418 0
 1742 002c 064A     		ldr	r2, .L134
 1743 002e A300     		lsl	r3, r4, #2
 1744 0030 D318     		add	r3, r2, r3
 1745 0032 5968     		ldr	r1, [r3, #4]
 1746 0034 064B     		ldr	r3, .L134+8
 1747 0036 1960     		str	r1, [r3]
 419:.\Generated_Source\PSoC4/ADC.c ****         
 1748              		.loc 1 419 0
 1749 0038 1460     		str	r4, [r2]
 421:.\Generated_Source\PSoC4/ADC.c ****         {
 1750              		.loc 1 421 0
 1751 003a 012D     		cmp	r5, #1
 1752 003c 03D1     		bne	.L131
 424:.\Generated_Source\PSoC4/ADC.c ****             
 1753              		.loc 1 424 0
 1754 003e FFF7FEFF 		bl	ADC_Start
 1755              	.LVL173:
 427:.\Generated_Source\PSoC4/ADC.c ****         }
 1756              		.loc 1 427 0
 1757 0042 FFF7FEFF 		bl	ADC_StartConvert
ARM GAS  C:\Users\Greg\AppData\Local\Temp\ccyl0q0s.s 			page 59


 1758              	.LVL174:
 1759              	.L131:
 431:.\Generated_Source\PSoC4/ADC.c **** 
 1760              		.loc 1 431 0
 1761              		@ sp needed
 1762 0046 38BD     		pop	{r3, r4, r5, pc}
 1763              	.L135:
 1764              		.align	2
 1765              	.L134:
 1766 0048 00000000 		.word	.LANCHOR0
 1767 004c 00000000 		.word	ADC_allConfigs
 1768 0050 20003A40 		.word	1077542944
 1769              		.cfi_endproc
 1770              	.LFE5:
 1771              		.size	ADC_SelectConfig, .-ADC_SelectConfig
 1772              		.section	.text.ADC_StopConvert,"ax",%progbits
 1773              		.align	2
 1774              		.global	ADC_StopConvert
 1775              		.code	16
 1776              		.thumb_func
 1777              		.type	ADC_StopConvert, %function
 1778              	ADC_StopConvert:
 1779              	.LFB7:
 498:.\Generated_Source\PSoC4/ADC.c ****     if((ADC_SAR_SAMPLE_CTRL_REG  
 1780              		.loc 1 498 0
 1781              		.cfi_startproc
 1782 0000 08B5     		push	{r3, lr}
 1783              		.cfi_def_cfa_offset 8
 1784              		.cfi_offset 3, -8
 1785              		.cfi_offset 14, -4
 499:.\Generated_Source\PSoC4/ADC.c **** 		& ADC_SAR_SAMPLE_CTRL_DSI_TRIGGER_LEVEL_MSK) 
 1786              		.loc 1 499 0
 1787 0002 0C4B     		ldr	r3, .L138
 1788 0004 1B68     		ldr	r3, [r3]
 1789 0006 5B03     		lsl	r3, r3, #13
 1790 0008 12D5     		bpl	.L136
 503:.\Generated_Source\PSoC4/ADC.c ****         
 1791              		.loc 1 503 0
 1792 000a 0A4A     		ldr	r2, .L138
 1793 000c 1168     		ldr	r1, [r2]
 1794 000e 0A4B     		ldr	r3, .L138+4
 1795 0010 0B40     		and	r3, r1
 1796 0012 1360     		str	r3, [r2]
 505:.\Generated_Source\PSoC4/ADC.c ****             & ADC_MISC_CONFIG_FILTER_PRESENT_MSK) 
 1797              		.loc 1 505 0
 1798 0014 094B     		ldr	r3, .L138+8
 1799 0016 1A68     		ldr	r2, [r3]
 1800 0018 D300     		lsl	r3, r2, #3
 1801 001a 9B1A     		sub	r3, r3, r2
 1802 001c DB00     		lsl	r3, r3, #3
 1803 001e 084A     		ldr	r2, .L138+12
 1804 0020 D318     		add	r3, r2, r3
 1805 0022 1B6B     		ldr	r3, [r3, #48]
 1806 0024 9B07     		lsl	r3, r3, #30
 1807 0026 03D5     		bpl	.L136
 510:.\Generated_Source\PSoC4/ADC.c ****             ADC_Start();
 1808              		.loc 1 510 0
ARM GAS  C:\Users\Greg\AppData\Local\Temp\ccyl0q0s.s 			page 60


 1809 0028 FFF7FEFF 		bl	ADC_Stop
 1810              	.LVL175:
 511:.\Generated_Source\PSoC4/ADC.c ****         }
 1811              		.loc 1 511 0
 1812 002c FFF7FEFF 		bl	ADC_Start
 1813              	.LVL176:
 1814              	.L136:
 516:.\Generated_Source\PSoC4/ADC.c **** /*******************************************************************************
 1815              		.loc 1 516 0
 1816              		@ sp needed
 1817 0030 08BD     		pop	{r3, pc}
 1818              	.L139:
 1819 0032 C046     		.align	2
 1820              	.L138:
 1821 0034 04003A40 		.word	1077542916
 1822 0038 FFFFFEFF 		.word	-65537
 1823 003c 00000000 		.word	.LANCHOR0
 1824 0040 00000000 		.word	ADC_allConfigs
 1825              		.cfi_endproc
 1826              	.LFE7:
 1827              		.size	ADC_StopConvert, .-ADC_StopConvert
 1828              		.comm	ADC_countsPer10Volt,8,4
 1829              		.comm	ADC_offset,4,4
 1830              		.global	ADC_selected
 1831              		.global	ADC_initVar
 1832              		.section	.rodata
 1833              		.align	2
 1834              		.set	.LANCHOR1,. + 0
 1835              		.type	ADC_channelsConfig, %object
 1836              		.size	ADC_channelsConfig, 8
 1837              	ADC_channelsConfig:
 1838 0000 00010000 		.word	256
 1839 0004 00110000 		.word	4352
 1840              		.bss
 1841              		.align	2
 1842              		.set	.LANCHOR0,. + 0
 1843              		.type	ADC_currentConfig, %object
 1844              		.size	ADC_currentConfig, 4
 1845              	ADC_currentConfig:
 1846 0000 00000000 		.space	4
 1847              		.type	ADC_channelEnMasks, %object
 1848              		.size	ADC_channelEnMasks, 4
 1849              	ADC_channelEnMasks:
 1850 0004 00000000 		.space	4
 1851              		.type	ADC_initVar, %object
 1852              		.size	ADC_initVar, 1
 1853              	ADC_initVar:
 1854 0008 00       		.space	1
 1855              		.type	ADC_selected, %object
 1856              		.size	ADC_selected, 1
 1857              	ADC_selected:
 1858 0009 00       		.space	1
 1859 000a 0000     		.text
 1860              	.Letext0:
 1861              		.file 2 ".\\Generated_Source\\PSoC4\\cytypes.h"
 1862              		.file 3 ".\\Generated_Source\\PSoC4\\ADC.h"
 1863              		.file 4 ".\\Generated_Source\\PSoC4\\ADC_intSarClock.h"
ARM GAS  C:\Users\Greg\AppData\Local\Temp\ccyl0q0s.s 			page 61


 1864              		.file 5 ".\\Generated_Source\\PSoC4\\CyLib.h"
 1865              		.file 6 ".\\Generated_Source\\PSoC4\\ADC_IRQ.h"