ARM GAS  C:\Users\Greg\AppData\Local\Temp\ccxyvtRP.s 			page 1


   1              		.cpu cortex-m0plus
   2              		.fpu softvfp
   3              		.eabi_attribute 20, 1
   4              		.eabi_attribute 21, 1
   5              		.eabi_attribute 23, 3
   6              		.eabi_attribute 24, 1
   7              		.eabi_attribute 25, 1
   8              		.eabi_attribute 26, 1
   9              		.eabi_attribute 30, 1
  10              		.eabi_attribute 34, 0
  11              		.eabi_attribute 18, 4
  12              		.code	16
  13              		.file	"CSD_INT.c"
  14              		.text
  15              	.Ltext0:
  16              		.cfi_sections	.debug_frame
  17              		.section	.text.CSD_CSDPostSingleScan,"ax",%progbits
  18              		.align	2
  19              		.global	CSD_CSDPostSingleScan
  20              		.code	16
  21              		.thumb_func
  22              		.type	CSD_CSDPostSingleScan, %function
  23              	CSD_CSDPostSingleScan:
  24              	.LFB1:
  25              		.file 1 "Generated_Source\\PSoC4\\CSD_INT.c"
   1:Generated_Source\PSoC4/CSD_INT.c **** /***************************************************************************//**
   2:Generated_Source\PSoC4/CSD_INT.c **** * \file CSD_INT.c
   3:Generated_Source\PSoC4/CSD_INT.c **** * \version 3.10
   4:Generated_Source\PSoC4/CSD_INT.c **** *
   5:Generated_Source\PSoC4/CSD_INT.c **** * \brief
   6:Generated_Source\PSoC4/CSD_INT.c **** *   This file contains the source code for implementation of the CapSense component
   7:Generated_Source\PSoC4/CSD_INT.c **** *   Interrupt Service Routine (ISR).
   8:Generated_Source\PSoC4/CSD_INT.c **** *
   9:Generated_Source\PSoC4/CSD_INT.c **** * \see CapSense P4 v3.10 Datasheet
  10:Generated_Source\PSoC4/CSD_INT.c **** *
  11:Generated_Source\PSoC4/CSD_INT.c **** *//*****************************************************************************
  12:Generated_Source\PSoC4/CSD_INT.c **** * Copyright (2016), Cypress Semiconductor Corporation.
  13:Generated_Source\PSoC4/CSD_INT.c **** ********************************************************************************
  14:Generated_Source\PSoC4/CSD_INT.c **** * This software is owned by Cypress Semiconductor Corporation (Cypress) and is
  15:Generated_Source\PSoC4/CSD_INT.c **** * protected by and subject to worldwide patent protection (United States and
  16:Generated_Source\PSoC4/CSD_INT.c **** * foreign), United States copyright laws and international treaty provisions.
  17:Generated_Source\PSoC4/CSD_INT.c **** * Cypress hereby grants to licensee a personal, non-exclusive, non-transferable
  18:Generated_Source\PSoC4/CSD_INT.c **** * license to copy, use, modify, create derivative works of, and compile the
  19:Generated_Source\PSoC4/CSD_INT.c **** * Cypress Source Code and derivative works for the sole purpose of creating
  20:Generated_Source\PSoC4/CSD_INT.c **** * custom software in support of licensee product to be used only in conjunction
  21:Generated_Source\PSoC4/CSD_INT.c **** * with a Cypress integrated circuit as specified in the applicable agreement.
  22:Generated_Source\PSoC4/CSD_INT.c **** * Any reproduction, modification, translation, compilation, or representation of
  23:Generated_Source\PSoC4/CSD_INT.c **** * this software except as specified above is prohibited without the express
  24:Generated_Source\PSoC4/CSD_INT.c **** * written permission of Cypress.
  25:Generated_Source\PSoC4/CSD_INT.c **** *
  26:Generated_Source\PSoC4/CSD_INT.c **** * Disclaimer: CYPRESS MAKES NO WARRANTY OF ANY KIND, EXPRESS OR IMPLIED, WITH
  27:Generated_Source\PSoC4/CSD_INT.c **** * REGARD TO THIS MATERIAL, INCLUDING, BUT NOT LIMITED TO, THE IMPLIED
  28:Generated_Source\PSoC4/CSD_INT.c **** * WARRANTIES OF MERCHANTABILITY AND FITNESS FOR A PARTICULAR PURPOSE.
  29:Generated_Source\PSoC4/CSD_INT.c **** * Cypress reserves the right to make changes without further notice to the
  30:Generated_Source\PSoC4/CSD_INT.c **** * materials described herein. Cypress does not assume any liability arising out
  31:Generated_Source\PSoC4/CSD_INT.c **** * of the application or use of any product or circuit described herein. Cypress
  32:Generated_Source\PSoC4/CSD_INT.c **** * does not authorize its products for use as critical components in life-support
ARM GAS  C:\Users\Greg\AppData\Local\Temp\ccxyvtRP.s 			page 2


  33:Generated_Source\PSoC4/CSD_INT.c **** * systems where a malfunction or failure may reasonably be expected to result in
  34:Generated_Source\PSoC4/CSD_INT.c **** * significant injury to the user. The inclusion of Cypress' product in a life-
  35:Generated_Source\PSoC4/CSD_INT.c **** * support systems application implies that the manufacturer assumes all risk of
  36:Generated_Source\PSoC4/CSD_INT.c **** * such use and in doing so indemnifies Cypress against all charges. Use may be
  37:Generated_Source\PSoC4/CSD_INT.c **** * limited by and subject to the applicable Cypress software license agreement.
  38:Generated_Source\PSoC4/CSD_INT.c **** *******************************************************************************/
  39:Generated_Source\PSoC4/CSD_INT.c **** #include "cytypes.h"
  40:Generated_Source\PSoC4/CSD_INT.c **** #include "cyfitter.h"
  41:Generated_Source\PSoC4/CSD_INT.c **** #include "CSD_Configuration.h"
  42:Generated_Source\PSoC4/CSD_INT.c **** #include "CSD_Sensing.h"
  43:Generated_Source\PSoC4/CSD_INT.c **** 
  44:Generated_Source\PSoC4/CSD_INT.c **** 
  45:Generated_Source\PSoC4/CSD_INT.c **** /*******************************************************************************
  46:Generated_Source\PSoC4/CSD_INT.c **** * Static Function Prototypes
  47:Generated_Source\PSoC4/CSD_INT.c **** *******************************************************************************/
  48:Generated_Source\PSoC4/CSD_INT.c **** /**
  49:Generated_Source\PSoC4/CSD_INT.c **** * \if SECTION_CAPSENSE_INTERNAL
  50:Generated_Source\PSoC4/CSD_INT.c **** * \addtogroup group_capsense_internal
  51:Generated_Source\PSoC4/CSD_INT.c **** * \{
  52:Generated_Source\PSoC4/CSD_INT.c **** */
  53:Generated_Source\PSoC4/CSD_INT.c **** 
  54:Generated_Source\PSoC4/CSD_INT.c **** #if (((CSD_ENABLE == CSD_CSD_EN) || (CSD_ENABLE == CSD_CSD_CSX_EN)) && \
  55:Generated_Source\PSoC4/CSD_INT.c ****      (CSD_ENABLE == CSD_MULTI_FREQ_SCAN_EN))
  56:Generated_Source\PSoC4/CSD_INT.c ****     static void CSD_SsNextFrequencyScan(void);
  57:Generated_Source\PSoC4/CSD_INT.c **** #endif /* (((CSD_ENABLE == CSD_CSD_EN) || (CSD_ENABLE == CSD_CSD_CSX_EN)) && \
  58:Generated_Source\PSoC4/CSD_INT.c ****             (CSD_ENABLE == CSD_MULTI_FREQ_SCAN_EN)) */
  59:Generated_Source\PSoC4/CSD_INT.c **** 
  60:Generated_Source\PSoC4/CSD_INT.c **** #if ((CSD_ENABLE == CSD_CSD_EN) || (CSD_ENABLE == CSD_CSD_CSX_EN))
  61:Generated_Source\PSoC4/CSD_INT.c ****     CY_INLINE static void CSD_SsCSDPostScan(void);
  62:Generated_Source\PSoC4/CSD_INT.c ****     CY_INLINE static void CSD_SsCSDInitNextScan(void);
  63:Generated_Source\PSoC4/CSD_INT.c **** #endif /* ((CSD_ENABLE == CSD_CSD_EN) || (CSD_ENABLE == CSD_CSD_CSX_EN)) */ 
  64:Generated_Source\PSoC4/CSD_INT.c **** 
  65:Generated_Source\PSoC4/CSD_INT.c **** #if (CSD_ENABLE == CSD_CSD2X_EN)
  66:Generated_Source\PSoC4/CSD_INT.c ****     #if (CSD_ENABLE == CSD_MULTI_FREQ_SCAN_EN)
  67:Generated_Source\PSoC4/CSD_INT.c ****         CY_INLINE static void CSD_SsCSD2XCheckNextScan(void);
  68:Generated_Source\PSoC4/CSD_INT.c ****         static void CSD_SsCSD2XNextFrequencyScan(void);
  69:Generated_Source\PSoC4/CSD_INT.c ****     #endif /* (CSD_ENABLE == CSD_MULTI_FREQ_SCAN_EN) */
  70:Generated_Source\PSoC4/CSD_INT.c ****     CY_INLINE static void CSD_SsCSD2XInitNextScan(void);
  71:Generated_Source\PSoC4/CSD_INT.c **** #endif /* (CSD_ENABLE == CSD_CSD2X_EN) */
  72:Generated_Source\PSoC4/CSD_INT.c **** 
  73:Generated_Source\PSoC4/CSD_INT.c ****    
  74:Generated_Source\PSoC4/CSD_INT.c **** /** \}
  75:Generated_Source\PSoC4/CSD_INT.c **** * \endif */
  76:Generated_Source\PSoC4/CSD_INT.c **** 
  77:Generated_Source\PSoC4/CSD_INT.c **** 
  78:Generated_Source\PSoC4/CSD_INT.c **** /**
  79:Generated_Source\PSoC4/CSD_INT.c **** * \if SECTION_CAPSENSE_INTERRUPT
  80:Generated_Source\PSoC4/CSD_INT.c **** * \addtogroup group_capsense_interrupt
  81:Generated_Source\PSoC4/CSD_INT.c **** * \{
  82:Generated_Source\PSoC4/CSD_INT.c **** */
  83:Generated_Source\PSoC4/CSD_INT.c **** 
  84:Generated_Source\PSoC4/CSD_INT.c **** 
  85:Generated_Source\PSoC4/CSD_INT.c **** #if ((CSD_ENABLE == CSD_CSD_EN) || (CSD_ENABLE == CSD_CSD_CSX_EN))
  86:Generated_Source\PSoC4/CSD_INT.c **** 
  87:Generated_Source\PSoC4/CSD_INT.c **** #if (CSD_ENABLE == CSD_CSDV2)
  88:Generated_Source\PSoC4/CSD_INT.c ****     /*  CSDv2 HW IP block part */
  89:Generated_Source\PSoC4/CSD_INT.c **** 
ARM GAS  C:\Users\Greg\AppData\Local\Temp\ccxyvtRP.s 			page 3


  90:Generated_Source\PSoC4/CSD_INT.c ****     /*******************************************************************************
  91:Generated_Source\PSoC4/CSD_INT.c ****     * Function Name: CSD_CSDPostSingleScan
  92:Generated_Source\PSoC4/CSD_INT.c ****     ****************************************************************************//**
  93:Generated_Source\PSoC4/CSD_INT.c ****     *
  94:Generated_Source\PSoC4/CSD_INT.c ****     * \brief
  95:Generated_Source\PSoC4/CSD_INT.c ****     *  This is an internal ISR function for single-sensor scanning implementation.
  96:Generated_Source\PSoC4/CSD_INT.c ****     *
  97:Generated_Source\PSoC4/CSD_INT.c ****     * \details
  98:Generated_Source\PSoC4/CSD_INT.c ****     *  This ISR handler is triggered when the user calls the
  99:Generated_Source\PSoC4/CSD_INT.c ****     *  CSD_CSDScanExt() function.
 100:Generated_Source\PSoC4/CSD_INT.c ****     *
 101:Generated_Source\PSoC4/CSD_INT.c ****     *  The following tasks are performed for CSDv1 HW IP block:
 102:Generated_Source\PSoC4/CSD_INT.c ****     *    1. Disable the CSD interrupt
 103:Generated_Source\PSoC4/CSD_INT.c ****     *    2. Read the Counter register and update the data structure with raw data
 104:Generated_Source\PSoC4/CSD_INT.c ****     *    3. Connect the Vref buffer to the AMUX bus
 105:Generated_Source\PSoC4/CSD_INT.c ****     *    4. Update the Scan Counter
 106:Generated_Source\PSoC4/CSD_INT.c ****     *    5. Reset the BUSY flag
 107:Generated_Source\PSoC4/CSD_INT.c ****     *    6. Enable the CSD interrupt.
 108:Generated_Source\PSoC4/CSD_INT.c ****     *
 109:Generated_Source\PSoC4/CSD_INT.c ****     *  The following tasks are performed for CSDv2 HW IP block:
 110:Generated_Source\PSoC4/CSD_INT.c ****     *    1. Check if the raw data is not noisy
 111:Generated_Source\PSoC4/CSD_INT.c ****     *    2. Read the Counter register and update the data structure with raw data
 112:Generated_Source\PSoC4/CSD_INT.c ****     *    3. Configure and start the scan for the next frequency if the
 113:Generated_Source\PSoC4/CSD_INT.c ****     *      multi-frequency is enabled
 114:Generated_Source\PSoC4/CSD_INT.c ****     *    4. Update the Scan Counter
 115:Generated_Source\PSoC4/CSD_INT.c ****     *    5. Reset the BUSY flag
 116:Generated_Source\PSoC4/CSD_INT.c ****     *    6. Enable the CSD interrupt.
 117:Generated_Source\PSoC4/CSD_INT.c ****     *
 118:Generated_Source\PSoC4/CSD_INT.c ****     *  The ISR handler changes IMO and initializes scanning for the next frequency
 119:Generated_Source\PSoC4/CSD_INT.c ****     *  channels when multi-frequency scanning is enabled.
 120:Generated_Source\PSoC4/CSD_INT.c ****     *
 121:Generated_Source\PSoC4/CSD_INT.c **** 	*  This function has two Macro Callbacks that allow calling the user code
 122:Generated_Source\PSoC4/CSD_INT.c ****     *  from macros specified in a component's generated code. Refer to the 
 123:Generated_Source\PSoC4/CSD_INT.c ****     *  \ref group_capsense_macrocallbacks section of PSoC Creator User Guide 
 124:Generated_Source\PSoC4/CSD_INT.c ****     *  for details. 
 125:Generated_Source\PSoC4/CSD_INT.c ****     *
 126:Generated_Source\PSoC4/CSD_INT.c ****     *******************************************************************************/
 127:Generated_Source\PSoC4/CSD_INT.c ****     CY_ISR(CSD_CSDPostSingleScan)
 128:Generated_Source\PSoC4/CSD_INT.c ****     {
  26              		.loc 1 128 0
  27              		.cfi_startproc
 129:Generated_Source\PSoC4/CSD_INT.c ****         #ifdef CSD_ENTRY_CALLBACK
 130:Generated_Source\PSoC4/CSD_INT.c ****             CSD_EntryCallback();
 131:Generated_Source\PSoC4/CSD_INT.c ****         #endif /* CSD_ENTRY_CALLBACK */
 132:Generated_Source\PSoC4/CSD_INT.c **** 
 133:Generated_Source\PSoC4/CSD_INT.c ****         /* Clear pending interrupt */
 134:Generated_Source\PSoC4/CSD_INT.c ****         CY_SET_REG32(CSD_INTR_PTR, CSD_INTR_SET_MASK);
  28              		.loc 1 134 0
  29 0000 8322     		mov	r2, #131
  30 0002 5200     		lsl	r2, r2, #1
  31 0004 144B     		ldr	r3, .L4
  32 0006 1A60     		str	r2, [r3]
  33              	.LBB4:
  34              	.LBB5:
 135:Generated_Source\PSoC4/CSD_INT.c **** 
 136:Generated_Source\PSoC4/CSD_INT.c ****     #if (CSD_ENABLE == CSD_CSD_NOISE_METRIC_EN)
 137:Generated_Source\PSoC4/CSD_INT.c ****         if ((CSD_CSD_NOISE_METRIC_TH < ((CY_GET_REG32(CSD_RESULT_VAL1_PTR) &
ARM GAS  C:\Users\Greg\AppData\Local\Temp\ccxyvtRP.s 			page 4


 138:Generated_Source\PSoC4/CSD_INT.c ****                                                     CSD_RESULT_VAL1_BAD_CONVS_MASK) >>
 139:Generated_Source\PSoC4/CSD_INT.c ****                                                     CSD_RESULT_VAL1_BAD_CONVS_SHIFT)) &&
 140:Generated_Source\PSoC4/CSD_INT.c ****                                                     (0u < CSD_badConversionsNum))
 141:Generated_Source\PSoC4/CSD_INT.c ****         {
 142:Generated_Source\PSoC4/CSD_INT.c ****             /* Decrement bad conversions number */
 143:Generated_Source\PSoC4/CSD_INT.c ****             CSD_badConversionsNum--;
 144:Generated_Source\PSoC4/CSD_INT.c **** 
 145:Generated_Source\PSoC4/CSD_INT.c ****             /* Start the re-scan */
 146:Generated_Source\PSoC4/CSD_INT.c ****             CY_SET_REG32(CSD_SEQ_START_PTR, CSD_SEQ_START_AZ0_SKIP_MASK |
 147:Generated_Source\PSoC4/CSD_INT.c ****                                                          CSD_SEQ_START_AZ1_SKIP_MASK |
 148:Generated_Source\PSoC4/CSD_INT.c ****                                                          CSD_SEQ_START_START_MASK);
 149:Generated_Source\PSoC4/CSD_INT.c ****         }
 150:Generated_Source\PSoC4/CSD_INT.c ****         else
 151:Generated_Source\PSoC4/CSD_INT.c ****         {
 152:Generated_Source\PSoC4/CSD_INT.c ****     #endif /* (CSD_ENABLE == CSD_CSD_NOISE_METRIC_EN) */
 153:Generated_Source\PSoC4/CSD_INT.c **** 
 154:Generated_Source\PSoC4/CSD_INT.c ****             CSD_SsCSDPostScan();
 155:Generated_Source\PSoC4/CSD_INT.c **** 
 156:Generated_Source\PSoC4/CSD_INT.c ****             #if (CSD_ENABLE == CSD_MULTI_FREQ_SCAN_EN)
 157:Generated_Source\PSoC4/CSD_INT.c ****                 if (CSD_FREQ_CHANNEL_2 > CSD_scanFreqIndex)
 158:Generated_Source\PSoC4/CSD_INT.c ****                 {
 159:Generated_Source\PSoC4/CSD_INT.c ****                     /* Scan the next channel */
 160:Generated_Source\PSoC4/CSD_INT.c ****                     CSD_SsNextFrequencyScan();
 161:Generated_Source\PSoC4/CSD_INT.c ****                 }
 162:Generated_Source\PSoC4/CSD_INT.c ****                 else
 163:Generated_Source\PSoC4/CSD_INT.c ****                 {
 164:Generated_Source\PSoC4/CSD_INT.c ****                     /* All channels are scanned. Set IMO to zero channel */
 165:Generated_Source\PSoC4/CSD_INT.c ****                     CSD_scanFreqIndex = CSD_FREQ_CHANNEL_0;
 166:Generated_Source\PSoC4/CSD_INT.c ****                     CSD_SsChangeImoFreq(CSD_FREQ_CHANNEL_0);
 167:Generated_Source\PSoC4/CSD_INT.c **** 
 168:Generated_Source\PSoC4/CSD_INT.c ****                     #if (CSD_ENABLE == CSD_BLOCK_OFF_AFTER_SCAN_EN)
 169:Generated_Source\PSoC4/CSD_INT.c ****                         /*  Disable CSDv2 block */
 170:Generated_Source\PSoC4/CSD_INT.c ****                         CY_SET_REG32(CSD_CONFIG_PTR, CSD_configCsd);
 171:Generated_Source\PSoC4/CSD_INT.c ****                     #endif /* (CSD_ENABLE == CSD_BLOCK_OFF_AFTER_SCAN_EN) */
 172:Generated_Source\PSoC4/CSD_INT.c **** 
 173:Generated_Source\PSoC4/CSD_INT.c ****                     /* Update Scan Counter */
 174:Generated_Source\PSoC4/CSD_INT.c ****                     CSD_dsRam.scanCounter++;
 175:Generated_Source\PSoC4/CSD_INT.c **** 
 176:Generated_Source\PSoC4/CSD_INT.c ****                     /* Sensor is totally scanned. Reset BUSY flag */
 177:Generated_Source\PSoC4/CSD_INT.c ****                     CSD_dsRam.status &= ~(CSD_SW_STS_BUSY | CSD_WDGT_SW_STS_BUSY);
 178:Generated_Source\PSoC4/CSD_INT.c ****                 }
 179:Generated_Source\PSoC4/CSD_INT.c ****             #else
 180:Generated_Source\PSoC4/CSD_INT.c ****                 {
 181:Generated_Source\PSoC4/CSD_INT.c ****                     #if (CSD_ENABLE == CSD_BLOCK_OFF_AFTER_SCAN_EN)
 182:Generated_Source\PSoC4/CSD_INT.c ****                         /*  Disable CSDv2 block */
 183:Generated_Source\PSoC4/CSD_INT.c ****                         CY_SET_REG32(CSD_CONFIG_PTR, CSD_configCsd);
 184:Generated_Source\PSoC4/CSD_INT.c ****                     #endif /* (CSD_ENABLE == CSD_BLOCK_OFF_AFTER_SCAN_EN) */
 185:Generated_Source\PSoC4/CSD_INT.c **** 
 186:Generated_Source\PSoC4/CSD_INT.c ****                     /* Update Scan Counter */
 187:Generated_Source\PSoC4/CSD_INT.c ****                     CSD_dsRam.scanCounter++;
 188:Generated_Source\PSoC4/CSD_INT.c **** 
 189:Generated_Source\PSoC4/CSD_INT.c ****                     /* Sensor is totally scanned. Reset BUSY flag */
 190:Generated_Source\PSoC4/CSD_INT.c ****                     CSD_dsRam.status &= ~(CSD_SW_STS_BUSY | CSD_WDGT_SW_STS_BUSY);
 191:Generated_Source\PSoC4/CSD_INT.c ****                 }
 192:Generated_Source\PSoC4/CSD_INT.c ****             #endif /* (CSD_ENABLE == CSD_MULTI_FREQ_SCAN_EN) */
 193:Generated_Source\PSoC4/CSD_INT.c ****     #if (CSD_ENABLE == CSD_CSD_NOISE_METRIC_EN)
 194:Generated_Source\PSoC4/CSD_INT.c ****         }
ARM GAS  C:\Users\Greg\AppData\Local\Temp\ccxyvtRP.s 			page 5


 195:Generated_Source\PSoC4/CSD_INT.c ****     #endif /* (CSD_ENABLE == CSD_CSD_NOISE_METRIC_EN) */
 196:Generated_Source\PSoC4/CSD_INT.c **** 
 197:Generated_Source\PSoC4/CSD_INT.c ****         #ifdef CSD_EXIT_CALLBACK
 198:Generated_Source\PSoC4/CSD_INT.c ****             CSD_ExitCallback();
 199:Generated_Source\PSoC4/CSD_INT.c ****         #endif /* CSD_EXIT_CALLBACK */
 200:Generated_Source\PSoC4/CSD_INT.c ****     }
 201:Generated_Source\PSoC4/CSD_INT.c **** 
 202:Generated_Source\PSoC4/CSD_INT.c **** 
 203:Generated_Source\PSoC4/CSD_INT.c ****     /*******************************************************************************
 204:Generated_Source\PSoC4/CSD_INT.c ****     * Function Name: CSD_CSDPostMultiScan
 205:Generated_Source\PSoC4/CSD_INT.c ****     ****************************************************************************//**
 206:Generated_Source\PSoC4/CSD_INT.c ****     *
 207:Generated_Source\PSoC4/CSD_INT.c ****     * \brief
 208:Generated_Source\PSoC4/CSD_INT.c ****     *  This is an internal ISR function for multiple-sensor scanning 
 209:Generated_Source\PSoC4/CSD_INT.c ****     *  implementation.
 210:Generated_Source\PSoC4/CSD_INT.c ****     *
 211:Generated_Source\PSoC4/CSD_INT.c ****     * \details
 212:Generated_Source\PSoC4/CSD_INT.c ****     *  This ISR handler is triggered when the user calls the
 213:Generated_Source\PSoC4/CSD_INT.c ****     *  CSD_Scan() or CSD_ScanAllWidgets() APIs.
 214:Generated_Source\PSoC4/CSD_INT.c ****     *  
 215:Generated_Source\PSoC4/CSD_INT.c ****     *  The following tasks are performed:
 216:Generated_Source\PSoC4/CSD_INT.c ****     *    1. Disable the CSD interrupt
 217:Generated_Source\PSoC4/CSD_INT.c ****     *    2. Read the Counter register and update the data structure with raw data
 218:Generated_Source\PSoC4/CSD_INT.c ****     *    3. Connect the Vref buffer to the AMUX bus
 219:Generated_Source\PSoC4/CSD_INT.c ****     *    4. Disable the CSD block (after the widget has been scanned)
 220:Generated_Source\PSoC4/CSD_INT.c ****     *    5. Update Scan Counter
 221:Generated_Source\PSoC4/CSD_INT.c ****     *    6. Reset the BUSY flag
 222:Generated_Source\PSoC4/CSD_INT.c ****     *    7. Enable the CSD interrupt.
 223:Generated_Source\PSoC4/CSD_INT.c ****     *
 224:Generated_Source\PSoC4/CSD_INT.c ****     *  The ISR handler initializes scanning for the previous sensor when the 
 225:Generated_Source\PSoC4/CSD_INT.c ****     *  widget has more than one sensor.
 226:Generated_Source\PSoC4/CSD_INT.c ****     *  The ISR handler initializes scanning for the next widget when the
 227:Generated_Source\PSoC4/CSD_INT.c ****     *  CSD_ScanAllWidgets() APIs are called and the project has
 228:Generated_Source\PSoC4/CSD_INT.c ****     *  more than one widget.
 229:Generated_Source\PSoC4/CSD_INT.c ****     *  The ISR handler changes the IMO and initializes scanning for the next
 230:Generated_Source\PSoC4/CSD_INT.c ****     *  frequency channels when multi-frequency scanning is enabled.
 231:Generated_Source\PSoC4/CSD_INT.c ****     *
 232:Generated_Source\PSoC4/CSD_INT.c ****     *  This function has two Macro Callbacks that allow calling the user 
 233:Generated_Source\PSoC4/CSD_INT.c ****     *  code from macros specified in a component's generated code. Refer to the 
 234:Generated_Source\PSoC4/CSD_INT.c ****     *  \ref group_capsense_macrocallbacks section of PSoC Creator User Guide 
 235:Generated_Source\PSoC4/CSD_INT.c ****     *  for details.
 236:Generated_Source\PSoC4/CSD_INT.c ****     *
 237:Generated_Source\PSoC4/CSD_INT.c ****     *******************************************************************************/
 238:Generated_Source\PSoC4/CSD_INT.c ****     CY_ISR(CSD_CSDPostMultiScan)
 239:Generated_Source\PSoC4/CSD_INT.c ****     {
 240:Generated_Source\PSoC4/CSD_INT.c ****         /*  Declare and initialise ptr to sensor IO structure to appropriate address        */
 241:Generated_Source\PSoC4/CSD_INT.c ****         CSD_FLASH_IO_STRUCT const *curSnsIOPtr = (CSD_FLASH_IO_STRUCT const *)
 242:Generated_Source\PSoC4/CSD_INT.c ****                                                           CSD_dsFlash.wdgtArray[CSD_widgetIndex].pt
 243:Generated_Source\PSoC4/CSD_INT.c ****                                                           + CSD_sensorIndex;
 244:Generated_Source\PSoC4/CSD_INT.c **** 
 245:Generated_Source\PSoC4/CSD_INT.c ****         #ifdef CSD_ENTRY_CALLBACK
 246:Generated_Source\PSoC4/CSD_INT.c ****             CSD_EntryCallback();
 247:Generated_Source\PSoC4/CSD_INT.c ****         #endif /* CSD_ENTRY_CALLBACK */
 248:Generated_Source\PSoC4/CSD_INT.c **** 
 249:Generated_Source\PSoC4/CSD_INT.c ****         /* Clear pending interrupt */
 250:Generated_Source\PSoC4/CSD_INT.c ****         CY_SET_REG32(CSD_INTR_PTR, CSD_INTR_SET_MASK);
 251:Generated_Source\PSoC4/CSD_INT.c **** 
ARM GAS  C:\Users\Greg\AppData\Local\Temp\ccxyvtRP.s 			page 6


 252:Generated_Source\PSoC4/CSD_INT.c ****         #if (CSD_ENABLE == CSD_CSD_NOISE_METRIC_EN)
 253:Generated_Source\PSoC4/CSD_INT.c ****             if ((CSD_CSD_NOISE_METRIC_TH < ((CY_GET_REG32(CSD_RESULT_VAL1_PTR) &
 254:Generated_Source\PSoC4/CSD_INT.c ****                                                       CSD_RESULT_VAL1_BAD_CONVS_MASK) >>
 255:Generated_Source\PSoC4/CSD_INT.c ****                                                       CSD_RESULT_VAL1_BAD_CONVS_SHIFT)) &&
 256:Generated_Source\PSoC4/CSD_INT.c ****                                                       (0u < CSD_badConversionsNum))
 257:Generated_Source\PSoC4/CSD_INT.c ****             {
 258:Generated_Source\PSoC4/CSD_INT.c ****                 /* Decrement bad conversions number */
 259:Generated_Source\PSoC4/CSD_INT.c ****                 CSD_badConversionsNum--;
 260:Generated_Source\PSoC4/CSD_INT.c **** 
 261:Generated_Source\PSoC4/CSD_INT.c ****                 /* Start the re-scan */
 262:Generated_Source\PSoC4/CSD_INT.c ****                 CY_SET_REG32(CSD_SEQ_START_PTR, CSD_SEQ_START_AZ0_SKIP_MASK |
 263:Generated_Source\PSoC4/CSD_INT.c ****                                                              CSD_SEQ_START_AZ1_SKIP_MASK |
 264:Generated_Source\PSoC4/CSD_INT.c ****                                                              CSD_SEQ_START_START_MASK);
 265:Generated_Source\PSoC4/CSD_INT.c ****             }
 266:Generated_Source\PSoC4/CSD_INT.c ****             else
 267:Generated_Source\PSoC4/CSD_INT.c ****             {
 268:Generated_Source\PSoC4/CSD_INT.c ****         #endif /* (CSD_ENABLE == CSD_CSD_NOISE_METRIC_EN) */
 269:Generated_Source\PSoC4/CSD_INT.c **** 
 270:Generated_Source\PSoC4/CSD_INT.c ****             CSD_SsCSDPostScan();
 271:Generated_Source\PSoC4/CSD_INT.c **** 
 272:Generated_Source\PSoC4/CSD_INT.c ****             #if (CSD_ENABLE == CSD_MULTI_FREQ_SCAN_EN)
 273:Generated_Source\PSoC4/CSD_INT.c ****                 /* Disable sensor when all frequency channels are scanned */
 274:Generated_Source\PSoC4/CSD_INT.c ****                 if (CSD_FREQ_CHANNEL_2 == CSD_scanFreqIndex)
 275:Generated_Source\PSoC4/CSD_INT.c ****                 {
 276:Generated_Source\PSoC4/CSD_INT.c ****                     /* Disable sensor */
 277:Generated_Source\PSoC4/CSD_INT.c ****                     CSD_CSDDisconnectSns(curSnsIOPtr);
 278:Generated_Source\PSoC4/CSD_INT.c ****                 }
 279:Generated_Source\PSoC4/CSD_INT.c ****             #else
 280:Generated_Source\PSoC4/CSD_INT.c ****                 /* Disable sensor */
 281:Generated_Source\PSoC4/CSD_INT.c ****                 CSD_CSDDisconnectSns(curSnsIOPtr);
 282:Generated_Source\PSoC4/CSD_INT.c ****             #endif /* (CSD_ENABLE == CSD_MULTI_FREQ_SCAN_EN) */
 283:Generated_Source\PSoC4/CSD_INT.c **** 
 284:Generated_Source\PSoC4/CSD_INT.c ****             #if (CSD_ENABLE == CSD_MULTI_FREQ_SCAN_EN)
 285:Generated_Source\PSoC4/CSD_INT.c ****                 if (CSD_FREQ_CHANNEL_2 > CSD_scanFreqIndex)
 286:Generated_Source\PSoC4/CSD_INT.c ****                 {
 287:Generated_Source\PSoC4/CSD_INT.c ****                      /* Scan the next channel */
 288:Generated_Source\PSoC4/CSD_INT.c ****                     CSD_SsNextFrequencyScan();
 289:Generated_Source\PSoC4/CSD_INT.c ****                 }
 290:Generated_Source\PSoC4/CSD_INT.c ****                 else
 291:Generated_Source\PSoC4/CSD_INT.c ****                 {
 292:Generated_Source\PSoC4/CSD_INT.c ****                      /* All channels are scanned. Set IMO to zero channel */
 293:Generated_Source\PSoC4/CSD_INT.c ****                     CSD_scanFreqIndex = CSD_FREQ_CHANNEL_0;
 294:Generated_Source\PSoC4/CSD_INT.c ****                     CSD_SsChangeImoFreq(CSD_FREQ_CHANNEL_0);
 295:Generated_Source\PSoC4/CSD_INT.c **** 
 296:Generated_Source\PSoC4/CSD_INT.c ****                      /* Scan the next sensor */
 297:Generated_Source\PSoC4/CSD_INT.c ****                     CSD_SsCSDInitNextScan();
 298:Generated_Source\PSoC4/CSD_INT.c ****                 }
 299:Generated_Source\PSoC4/CSD_INT.c ****             #else
 300:Generated_Source\PSoC4/CSD_INT.c ****                 /* Scan the next sensor */
 301:Generated_Source\PSoC4/CSD_INT.c ****                 CSD_SsCSDInitNextScan();
 302:Generated_Source\PSoC4/CSD_INT.c ****             #endif /* (CSD_ENABLE == CSD_MULTI_FREQ_SCAN_EN) */
 303:Generated_Source\PSoC4/CSD_INT.c ****         #if (CSD_ENABLE == CSD_CSD_NOISE_METRIC_EN)
 304:Generated_Source\PSoC4/CSD_INT.c ****             }
 305:Generated_Source\PSoC4/CSD_INT.c ****         #endif /* (CSD_ENABLE == CSD_CSD_NOISE_METRIC_EN) */
 306:Generated_Source\PSoC4/CSD_INT.c **** 
 307:Generated_Source\PSoC4/CSD_INT.c ****         #ifdef CSD_EXIT_CALLBACK
 308:Generated_Source\PSoC4/CSD_INT.c ****             CSD_ExitCallback();
ARM GAS  C:\Users\Greg\AppData\Local\Temp\ccxyvtRP.s 			page 7


 309:Generated_Source\PSoC4/CSD_INT.c ****         #endif /* CSD_EXIT_CALLBACK */
 310:Generated_Source\PSoC4/CSD_INT.c ****     }
 311:Generated_Source\PSoC4/CSD_INT.c **** 
 312:Generated_Source\PSoC4/CSD_INT.c **** 
 313:Generated_Source\PSoC4/CSD_INT.c ****     #if (CSD_ENABLE == CSD_CSD_GANGED_SNS_EN)
 314:Generated_Source\PSoC4/CSD_INT.c ****     /*******************************************************************************
 315:Generated_Source\PSoC4/CSD_INT.c ****     * Function Name: CSD_CSDPostMultiScanGanged
 316:Generated_Source\PSoC4/CSD_INT.c ****     ****************************************************************************//**
 317:Generated_Source\PSoC4/CSD_INT.c ****     *
 318:Generated_Source\PSoC4/CSD_INT.c ****     * \brief
 319:Generated_Source\PSoC4/CSD_INT.c ****     *  This is an internal ISR function for multiple-sensor scanning 
 320:Generated_Source\PSoC4/CSD_INT.c ****     *  implementation for ganged sensors.
 321:Generated_Source\PSoC4/CSD_INT.c ****     *
 322:Generated_Source\PSoC4/CSD_INT.c ****     * \details
 323:Generated_Source\PSoC4/CSD_INT.c ****     *  This ISR handler is triggered when the user calls the
 324:Generated_Source\PSoC4/CSD_INT.c ****     *  CSD_Scan() API for a ganged sensor or the
 325:Generated_Source\PSoC4/CSD_INT.c ****     *  CSD_ScanAllWidgets() API in the project with ganged sensors.
 326:Generated_Source\PSoC4/CSD_INT.c ****     *
 327:Generated_Source\PSoC4/CSD_INT.c ****     *  The following tasks are performed:
 328:Generated_Source\PSoC4/CSD_INT.c ****     *    1. Disable the CSD interrupt
 329:Generated_Source\PSoC4/CSD_INT.c ****     *    2. Read the Counter register and update the data structure with raw data
 330:Generated_Source\PSoC4/CSD_INT.c ****     *    3. Connect the Vref buffer to the AMUX bus
 331:Generated_Source\PSoC4/CSD_INT.c ****     *    4. Disable the CSD block (after the widget has been scanned)
 332:Generated_Source\PSoC4/CSD_INT.c ****     *    5. Update Scan Counter
 333:Generated_Source\PSoC4/CSD_INT.c ****     *    6. Reset the BUSY flag
 334:Generated_Source\PSoC4/CSD_INT.c ****     *    7. Enable the CSD interrupt.
 335:Generated_Source\PSoC4/CSD_INT.c ****     *
 336:Generated_Source\PSoC4/CSD_INT.c ****     *  The ISR handler initializes scanning for the previous sensor when the
 337:Generated_Source\PSoC4/CSD_INT.c ****     *  widget has more than one sensor.
 338:Generated_Source\PSoC4/CSD_INT.c ****     *  The ISR handler initializes scanning for the next widget when the
 339:Generated_Source\PSoC4/CSD_INT.c ****     *  CSD_ScanAllWidgets() APIs are called and the project has 
 340:Generated_Source\PSoC4/CSD_INT.c ****     *  more than one widget.
 341:Generated_Source\PSoC4/CSD_INT.c ****     *  The ISR handler changes the IMO and initializes scanning for the next 
 342:Generated_Source\PSoC4/CSD_INT.c ****     *  frequency channels when multi-frequency scanning is enabled.
 343:Generated_Source\PSoC4/CSD_INT.c ****     *
 344:Generated_Source\PSoC4/CSD_INT.c ****     *  This function has two Macro Callbacks that allow calling the user 
 345:Generated_Source\PSoC4/CSD_INT.c ****     *  code from macros specified in a component's generated code. Refer to the 
 346:Generated_Source\PSoC4/CSD_INT.c ****     *  \ref group_capsense_macrocallbacks section of PSoC Creator User Guide 
 347:Generated_Source\PSoC4/CSD_INT.c ****     *  for details.
 348:Generated_Source\PSoC4/CSD_INT.c ****     *
 349:Generated_Source\PSoC4/CSD_INT.c ****     *******************************************************************************/
 350:Generated_Source\PSoC4/CSD_INT.c ****     CY_ISR(CSD_CSDPostMultiScanGanged)
 351:Generated_Source\PSoC4/CSD_INT.c ****     {
 352:Generated_Source\PSoC4/CSD_INT.c ****         #ifdef CSD_ENTRY_CALLBACK
 353:Generated_Source\PSoC4/CSD_INT.c ****             CSD_EntryCallback();
 354:Generated_Source\PSoC4/CSD_INT.c ****         #endif /* CSD_ENTRY_CALLBACK */
 355:Generated_Source\PSoC4/CSD_INT.c **** 
 356:Generated_Source\PSoC4/CSD_INT.c ****         /* Clear pending interrupt */
 357:Generated_Source\PSoC4/CSD_INT.c ****         CY_SET_REG32(CSD_INTR_PTR, CSD_INTR_SET_MASK);
 358:Generated_Source\PSoC4/CSD_INT.c **** 
 359:Generated_Source\PSoC4/CSD_INT.c ****         #if (CSD_ENABLE == CSD_CSD_NOISE_METRIC_EN)
 360:Generated_Source\PSoC4/CSD_INT.c ****             if ((CSD_CSD_NOISE_METRIC_TH < ((CY_GET_REG32(CSD_RESULT_VAL1_PTR) &
 361:Generated_Source\PSoC4/CSD_INT.c ****                                                       CSD_RESULT_VAL1_BAD_CONVS_MASK) >>
 362:Generated_Source\PSoC4/CSD_INT.c ****                                                       CSD_RESULT_VAL1_BAD_CONVS_SHIFT)) &&
 363:Generated_Source\PSoC4/CSD_INT.c ****                                                       (0u < CSD_badConversionsNum))
 364:Generated_Source\PSoC4/CSD_INT.c ****             {
 365:Generated_Source\PSoC4/CSD_INT.c ****                 /* Decrement bad conversions number */
ARM GAS  C:\Users\Greg\AppData\Local\Temp\ccxyvtRP.s 			page 8


 366:Generated_Source\PSoC4/CSD_INT.c ****                 CSD_badConversionsNum--;
 367:Generated_Source\PSoC4/CSD_INT.c **** 
 368:Generated_Source\PSoC4/CSD_INT.c ****                 /* Start the re-scan */
 369:Generated_Source\PSoC4/CSD_INT.c ****                 CY_SET_REG32(CSD_SEQ_START_PTR, CSD_SEQ_START_AZ0_SKIP_MASK |
 370:Generated_Source\PSoC4/CSD_INT.c ****                                                              CSD_SEQ_START_AZ1_SKIP_MASK |
 371:Generated_Source\PSoC4/CSD_INT.c ****                                                              CSD_SEQ_START_START_MASK);
 372:Generated_Source\PSoC4/CSD_INT.c ****             }
 373:Generated_Source\PSoC4/CSD_INT.c ****             else
 374:Generated_Source\PSoC4/CSD_INT.c ****             {
 375:Generated_Source\PSoC4/CSD_INT.c ****         #endif /* (CSD_ENABLE == CSD_CSD_NOISE_METRIC_EN) */
 376:Generated_Source\PSoC4/CSD_INT.c **** 
 377:Generated_Source\PSoC4/CSD_INT.c ****             CSD_SsCSDPostScan();
 378:Generated_Source\PSoC4/CSD_INT.c **** 
 379:Generated_Source\PSoC4/CSD_INT.c ****             #if (CSD_ENABLE == CSD_MULTI_FREQ_SCAN_EN)
 380:Generated_Source\PSoC4/CSD_INT.c ****                 if (CSD_FREQ_CHANNEL_2 == CSD_scanFreqIndex)
 381:Generated_Source\PSoC4/CSD_INT.c ****                 {
 382:Generated_Source\PSoC4/CSD_INT.c ****                     CSD_SsCSDDisconnectSnsExt((uint32)CSD_widgetIndex, (uint32)CSD_sensorIndex);
 383:Generated_Source\PSoC4/CSD_INT.c ****                 }
 384:Generated_Source\PSoC4/CSD_INT.c ****             #else
 385:Generated_Source\PSoC4/CSD_INT.c ****                 CSD_SsCSDDisconnectSnsExt((uint32)CSD_widgetIndex, (uint32)CSD_sensorIndex);
 386:Generated_Source\PSoC4/CSD_INT.c ****             #endif /* (CSD_ENABLE == CSD_MULTI_FREQ_SCAN_EN) */
 387:Generated_Source\PSoC4/CSD_INT.c **** 
 388:Generated_Source\PSoC4/CSD_INT.c ****             #if (CSD_ENABLE == CSD_MULTI_FREQ_SCAN_EN)
 389:Generated_Source\PSoC4/CSD_INT.c ****                 if (CSD_FREQ_CHANNEL_2 > CSD_scanFreqIndex)
 390:Generated_Source\PSoC4/CSD_INT.c ****                 {
 391:Generated_Source\PSoC4/CSD_INT.c ****                      /* Scan the next channel */
 392:Generated_Source\PSoC4/CSD_INT.c ****                     CSD_SsNextFrequencyScan();
 393:Generated_Source\PSoC4/CSD_INT.c ****                 }
 394:Generated_Source\PSoC4/CSD_INT.c ****                 else
 395:Generated_Source\PSoC4/CSD_INT.c ****                 {
 396:Generated_Source\PSoC4/CSD_INT.c ****                     /* All channels are scanned. Set IMO to zero channel */
 397:Generated_Source\PSoC4/CSD_INT.c ****                     CSD_scanFreqIndex = CSD_FREQ_CHANNEL_0;
 398:Generated_Source\PSoC4/CSD_INT.c ****                     CSD_SsChangeImoFreq(CSD_FREQ_CHANNEL_0);
 399:Generated_Source\PSoC4/CSD_INT.c **** 
 400:Generated_Source\PSoC4/CSD_INT.c ****                      /* Scan the next sensor */
 401:Generated_Source\PSoC4/CSD_INT.c ****                     CSD_SsCSDInitNextScan();
 402:Generated_Source\PSoC4/CSD_INT.c ****                 }
 403:Generated_Source\PSoC4/CSD_INT.c ****             #else
 404:Generated_Source\PSoC4/CSD_INT.c ****                  /* Scan the next sensor */
 405:Generated_Source\PSoC4/CSD_INT.c ****                 CSD_SsCSDInitNextScan();
 406:Generated_Source\PSoC4/CSD_INT.c ****             #endif /* (CSD_ENABLE == CSD_MULTI_FREQ_SCAN_EN) */
 407:Generated_Source\PSoC4/CSD_INT.c ****         #if (CSD_ENABLE == CSD_CSD_NOISE_METRIC_EN)
 408:Generated_Source\PSoC4/CSD_INT.c ****             }
 409:Generated_Source\PSoC4/CSD_INT.c ****         #endif /* (CSD_ENABLE == CSD_CSD_NOISE_METRIC_EN) */
 410:Generated_Source\PSoC4/CSD_INT.c **** 
 411:Generated_Source\PSoC4/CSD_INT.c ****         #ifdef CSD_EXIT_CALLBACK
 412:Generated_Source\PSoC4/CSD_INT.c ****             CSD_ExitCallback();
 413:Generated_Source\PSoC4/CSD_INT.c ****         #endif /* CSD_EXIT_CALLBACK */
 414:Generated_Source\PSoC4/CSD_INT.c ****     }
 415:Generated_Source\PSoC4/CSD_INT.c ****     #endif /* (CSD_ENABLE == CSD_CSD_GANGED_SNS_EN) */
 416:Generated_Source\PSoC4/CSD_INT.c **** 
 417:Generated_Source\PSoC4/CSD_INT.c **** #else
 418:Generated_Source\PSoC4/CSD_INT.c ****     /* CSDv1 part */
 419:Generated_Source\PSoC4/CSD_INT.c **** 
 420:Generated_Source\PSoC4/CSD_INT.c ****     /*******************************************************************************
 421:Generated_Source\PSoC4/CSD_INT.c ****     * Function Name: CSD_CSDPostSingleScan
 422:Generated_Source\PSoC4/CSD_INT.c ****     ****************************************************************************//**
ARM GAS  C:\Users\Greg\AppData\Local\Temp\ccxyvtRP.s 			page 9


 423:Generated_Source\PSoC4/CSD_INT.c ****     *
 424:Generated_Source\PSoC4/CSD_INT.c ****     * \brief
 425:Generated_Source\PSoC4/CSD_INT.c ****     *  This is an internal ISR function for single-sensor scanning implementation.
 426:Generated_Source\PSoC4/CSD_INT.c ****     *
 427:Generated_Source\PSoC4/CSD_INT.c ****     * \details
 428:Generated_Source\PSoC4/CSD_INT.c ****     *  This ISR handler is triggered when the user calls the
 429:Generated_Source\PSoC4/CSD_INT.c ****     *  CSD_CSDScanExt() function.
 430:Generated_Source\PSoC4/CSD_INT.c ****     *
 431:Generated_Source\PSoC4/CSD_INT.c ****     *  The following tasks are performed for CSDv1 HW IP block:
 432:Generated_Source\PSoC4/CSD_INT.c ****     *    1. Disable the CSD interrupt
 433:Generated_Source\PSoC4/CSD_INT.c ****     *    2. Read the Counter register and update the data structure with raw data
 434:Generated_Source\PSoC4/CSD_INT.c ****     *    3. Connect the Vref buffer to the AMUX bus
 435:Generated_Source\PSoC4/CSD_INT.c ****     *    4. Update the Scan Counter
 436:Generated_Source\PSoC4/CSD_INT.c ****     *    5. Reset the BUSY flag
 437:Generated_Source\PSoC4/CSD_INT.c ****     *    6. Enable the CSD interrupt.
 438:Generated_Source\PSoC4/CSD_INT.c ****     *
 439:Generated_Source\PSoC4/CSD_INT.c ****     *  The following tasks are performed for CSDv2 HW IP block:
 440:Generated_Source\PSoC4/CSD_INT.c ****     *    1. Check if the raw data is not noisy
 441:Generated_Source\PSoC4/CSD_INT.c ****     *    2. Read the Counter register and update the data structure with raw data
 442:Generated_Source\PSoC4/CSD_INT.c ****     *    3. Configure and start the scan for the next frequency if the
 443:Generated_Source\PSoC4/CSD_INT.c ****     *      multi-frequency is enabled
 444:Generated_Source\PSoC4/CSD_INT.c ****     *    4. Update the Scan Counter
 445:Generated_Source\PSoC4/CSD_INT.c ****     *    5. Reset the BUSY flag
 446:Generated_Source\PSoC4/CSD_INT.c ****     *    6. Enable the CSD interrupt.
 447:Generated_Source\PSoC4/CSD_INT.c ****     *
 448:Generated_Source\PSoC4/CSD_INT.c ****     *  The ISR handler changes IMO and initializes scanning for the next frequency
 449:Generated_Source\PSoC4/CSD_INT.c ****     *  channels when multi-frequency scanning is enabled.
 450:Generated_Source\PSoC4/CSD_INT.c ****     *
 451:Generated_Source\PSoC4/CSD_INT.c **** 	*  This function has two Macro Callbacks that allow calling the user code
 452:Generated_Source\PSoC4/CSD_INT.c ****     *  from macros specified in a component's generated code. Refer to the 
 453:Generated_Source\PSoC4/CSD_INT.c ****     *  \ref group_capsense_macrocallbacks section of PSoC Creator User Guide 
 454:Generated_Source\PSoC4/CSD_INT.c ****     *  for details. 
 455:Generated_Source\PSoC4/CSD_INT.c ****     *
 456:Generated_Source\PSoC4/CSD_INT.c ****     *******************************************************************************/
 457:Generated_Source\PSoC4/CSD_INT.c ****     CY_ISR(CSD_CSDPostSingleScan)
 458:Generated_Source\PSoC4/CSD_INT.c ****     {
 459:Generated_Source\PSoC4/CSD_INT.c ****         #ifdef CSD_ENTRY_CALLBACK
 460:Generated_Source\PSoC4/CSD_INT.c ****             CSD_EntryCallback();
 461:Generated_Source\PSoC4/CSD_INT.c ****         #endif /* CSD_ENTRY_CALLBACK */
 462:Generated_Source\PSoC4/CSD_INT.c **** 
 463:Generated_Source\PSoC4/CSD_INT.c ****         /* Clear pending interrupt */
 464:Generated_Source\PSoC4/CSD_INT.c ****         CY_SET_REG32(CSD_INTR_PTR, CSD_INTR_SET_MASK);
 465:Generated_Source\PSoC4/CSD_INT.c **** 
 466:Generated_Source\PSoC4/CSD_INT.c ****         /* Read Rawdata */
 467:Generated_Source\PSoC4/CSD_INT.c ****         CSD_SsCSDPostScan();
 468:Generated_Source\PSoC4/CSD_INT.c **** 
 469:Generated_Source\PSoC4/CSD_INT.c ****         #if (CSD_ENABLE == CSD_MULTI_FREQ_SCAN_EN)
 470:Generated_Source\PSoC4/CSD_INT.c ****             if (CSD_FREQ_CHANNEL_2 > CSD_scanFreqIndex)
 471:Generated_Source\PSoC4/CSD_INT.c ****             {
 472:Generated_Source\PSoC4/CSD_INT.c ****                 /*  Connect Vref Buffer to AMUX bus. CSDv1 block is enabled */
 473:Generated_Source\PSoC4/CSD_INT.c ****                 CY_SET_REG32(CSD_CONFIG_PTR, CSD_configCsd | CSD_CTANK_PRECHARGE_CONFIG_CSD_EN);
 474:Generated_Source\PSoC4/CSD_INT.c **** 
 475:Generated_Source\PSoC4/CSD_INT.c ****                 CSD_SsNextFrequencyScan();
 476:Generated_Source\PSoC4/CSD_INT.c ****             }
 477:Generated_Source\PSoC4/CSD_INT.c ****             else
 478:Generated_Source\PSoC4/CSD_INT.c ****             {
 479:Generated_Source\PSoC4/CSD_INT.c ****                 CSD_scanFreqIndex = CSD_FREQ_CHANNEL_0;
ARM GAS  C:\Users\Greg\AppData\Local\Temp\ccxyvtRP.s 			page 10


 480:Generated_Source\PSoC4/CSD_INT.c ****                 CSD_SsChangeImoFreq(CSD_FREQ_CHANNEL_0);
 481:Generated_Source\PSoC4/CSD_INT.c **** 
 482:Generated_Source\PSoC4/CSD_INT.c ****                 #if (CSD_ENABLE == CSD_BLOCK_OFF_AFTER_SCAN_EN)
 483:Generated_Source\PSoC4/CSD_INT.c ****                     /*  Disable CSDv1 block. Connect Vref Buffer to AMUX bus */
 484:Generated_Source\PSoC4/CSD_INT.c ****                     #if ((CSD_CSH_PRECHARGE_IO_BUF == CSD_CSD_CSH_PRECHARGE_SRC) &&\
 485:Generated_Source\PSoC4/CSD_INT.c ****                          (CSD_ENABLE == CSD_CSD_SHIELD_TANK_EN))
 486:Generated_Source\PSoC4/CSD_INT.c ****                         CY_SET_REG32(CSD_CONFIG_PTR, CSD_configCsd | CSD_CMOD_PRECHARGE_CONFIG);
 487:Generated_Source\PSoC4/CSD_INT.c ****                     #else
 488:Generated_Source\PSoC4/CSD_INT.c ****                         CY_SET_REG32(CSD_CONFIG_PTR, CSD_configCsd | CSD_CTANK_PRECHARGE_CONFIG);
 489:Generated_Source\PSoC4/CSD_INT.c ****                     #endif /* ((CSD_CSH_PRECHARGE_IO_BUF == CSD_CSD_CSH_PRECHARGE_SRC) &&\
 490:Generated_Source\PSoC4/CSD_INT.c ****                                (CSD_ENABLE == CSD_CSD_SHIELD_TANK_EN)) */
 491:Generated_Source\PSoC4/CSD_INT.c ****                 #else
 492:Generated_Source\PSoC4/CSD_INT.c ****                     /*  Connect Vref Buffer to AMUX bus. CSDv1 block is enabled */
 493:Generated_Source\PSoC4/CSD_INT.c ****                     CY_SET_REG32(CSD_CONFIG_PTR, CSD_configCsd | CSD_CTANK_PRECHARGE_CONFIG_CSD_EN)
 494:Generated_Source\PSoC4/CSD_INT.c ****                 #endif /* (CSD_ENABLE == CSD_BLOCK_OFF_AFTER_SCAN_EN) */
 495:Generated_Source\PSoC4/CSD_INT.c **** 
 496:Generated_Source\PSoC4/CSD_INT.c ****                 /* Update Scan Counter */
 497:Generated_Source\PSoC4/CSD_INT.c ****                 CSD_dsRam.scanCounter++;
 498:Generated_Source\PSoC4/CSD_INT.c **** 
 499:Generated_Source\PSoC4/CSD_INT.c ****                 /* Sensor is totally scanned. Reset BUSY flag */
 500:Generated_Source\PSoC4/CSD_INT.c ****                 CSD_dsRam.status &= ~(CSD_SW_STS_BUSY | CSD_WDGT_SW_STS_BUSY);
 501:Generated_Source\PSoC4/CSD_INT.c ****             }
 502:Generated_Source\PSoC4/CSD_INT.c ****         #else
 503:Generated_Source\PSoC4/CSD_INT.c ****             {
 504:Generated_Source\PSoC4/CSD_INT.c ****                 #if (CSD_ENABLE == CSD_BLOCK_OFF_AFTER_SCAN_EN)
 505:Generated_Source\PSoC4/CSD_INT.c ****                     /*  Disable CSDv1 block. Connect Vref Buffer to AMUX bus */
 506:Generated_Source\PSoC4/CSD_INT.c ****                     #if ((CSD_CSH_PRECHARGE_IO_BUF == CSD_CSD_CSH_PRECHARGE_SRC) &&\
 507:Generated_Source\PSoC4/CSD_INT.c ****                          (CSD_ENABLE == CSD_CSD_SHIELD_TANK_EN))
 508:Generated_Source\PSoC4/CSD_INT.c ****                         CY_SET_REG32(CSD_CONFIG_PTR, CSD_configCsd | CSD_CMOD_PRECHARGE_CONFIG);
 509:Generated_Source\PSoC4/CSD_INT.c ****                     #else
 510:Generated_Source\PSoC4/CSD_INT.c ****                         CY_SET_REG32(CSD_CONFIG_PTR, CSD_configCsd | CSD_CTANK_PRECHARGE_CONFIG);
 511:Generated_Source\PSoC4/CSD_INT.c ****                     #endif /* ((CSD_CSH_PRECHARGE_IO_BUF == CSD_CSD_CSH_PRECHARGE_SRC) &&\
 512:Generated_Source\PSoC4/CSD_INT.c ****                                (CSD_ENABLE == CSD_CSD_SHIELD_TANK_EN)) */
 513:Generated_Source\PSoC4/CSD_INT.c ****                 #else
 514:Generated_Source\PSoC4/CSD_INT.c ****                     /*  Connect Vref Buffer to AMUX bus. CSDv1 block is enabled */
 515:Generated_Source\PSoC4/CSD_INT.c ****                     CY_SET_REG32(CSD_CONFIG_PTR, CSD_configCsd | CSD_CTANK_PRECHARGE_CONFIG_CSD_EN)
 516:Generated_Source\PSoC4/CSD_INT.c ****                 #endif /* (CSD_ENABLE == CSD_BLOCK_OFF_AFTER_SCAN_EN) */
 517:Generated_Source\PSoC4/CSD_INT.c **** 
 518:Generated_Source\PSoC4/CSD_INT.c ****                 /* Update Scan Counter */
 519:Generated_Source\PSoC4/CSD_INT.c ****                 CSD_dsRam.scanCounter++;
 520:Generated_Source\PSoC4/CSD_INT.c **** 
 521:Generated_Source\PSoC4/CSD_INT.c ****                 /* Sensor is totally scanned. Reset BUSY flag */
 522:Generated_Source\PSoC4/CSD_INT.c ****                 CSD_dsRam.status &= ~(CSD_SW_STS_BUSY | CSD_WDGT_SW_STS_BUSY);
 523:Generated_Source\PSoC4/CSD_INT.c ****             }
 524:Generated_Source\PSoC4/CSD_INT.c ****         #endif /* (CSD_ENABLE == CSD_MULTI_FREQ_SCAN_EN) */
 525:Generated_Source\PSoC4/CSD_INT.c **** 
 526:Generated_Source\PSoC4/CSD_INT.c ****         #ifdef CSD_EXIT_CALLBACK
 527:Generated_Source\PSoC4/CSD_INT.c ****             CSD_ExitCallback();
 528:Generated_Source\PSoC4/CSD_INT.c ****         #endif /* CSD_EXIT_CALLBACK */
 529:Generated_Source\PSoC4/CSD_INT.c ****     }
 530:Generated_Source\PSoC4/CSD_INT.c **** 
 531:Generated_Source\PSoC4/CSD_INT.c **** 
 532:Generated_Source\PSoC4/CSD_INT.c ****     /*******************************************************************************
 533:Generated_Source\PSoC4/CSD_INT.c ****     * Function Name: CSD_CSDPostMultiScan
 534:Generated_Source\PSoC4/CSD_INT.c ****     ****************************************************************************//**
 535:Generated_Source\PSoC4/CSD_INT.c ****     *
 536:Generated_Source\PSoC4/CSD_INT.c ****     * \brief
ARM GAS  C:\Users\Greg\AppData\Local\Temp\ccxyvtRP.s 			page 11


 537:Generated_Source\PSoC4/CSD_INT.c ****     *  This is an internal ISR function for multiple-sensor scanning 
 538:Generated_Source\PSoC4/CSD_INT.c ****     *  implementation.
 539:Generated_Source\PSoC4/CSD_INT.c ****     *
 540:Generated_Source\PSoC4/CSD_INT.c ****     * \details
 541:Generated_Source\PSoC4/CSD_INT.c ****     *  This ISR handler is triggered when the user calls the
 542:Generated_Source\PSoC4/CSD_INT.c ****     *  CSD_Scan() or CSD_ScanAllWidgets() APIs.
 543:Generated_Source\PSoC4/CSD_INT.c ****     *  
 544:Generated_Source\PSoC4/CSD_INT.c ****     *  The following tasks are performed:
 545:Generated_Source\PSoC4/CSD_INT.c ****     *    1. Disable the CSD interrupt
 546:Generated_Source\PSoC4/CSD_INT.c ****     *    2. Read the Counter register and update the data structure with raw data
 547:Generated_Source\PSoC4/CSD_INT.c ****     *    3. Connect the Vref buffer to the AMUX bus
 548:Generated_Source\PSoC4/CSD_INT.c ****     *    4. Disable the CSD block (after the widget has been scanned)
 549:Generated_Source\PSoC4/CSD_INT.c ****     *    5. Update Scan Counter
 550:Generated_Source\PSoC4/CSD_INT.c ****     *    6. Reset the BUSY flag
 551:Generated_Source\PSoC4/CSD_INT.c ****     *    7. Enable the CSD interrupt.
 552:Generated_Source\PSoC4/CSD_INT.c ****     *
 553:Generated_Source\PSoC4/CSD_INT.c ****     *  The ISR handler initializes scanning for the previous sensor when the 
 554:Generated_Source\PSoC4/CSD_INT.c ****     *  widget has more than one sensor.
 555:Generated_Source\PSoC4/CSD_INT.c ****     *  The ISR handler initializes scanning for the next widget when the
 556:Generated_Source\PSoC4/CSD_INT.c ****     *  CSD_ScanAllWidgets() APIs are called and the project has
 557:Generated_Source\PSoC4/CSD_INT.c ****     *  more than one widget.
 558:Generated_Source\PSoC4/CSD_INT.c ****     *  The ISR handler changes the IMO and initializes scanning for the next
 559:Generated_Source\PSoC4/CSD_INT.c ****     *  frequency channels when multi-frequency scanning is enabled.
 560:Generated_Source\PSoC4/CSD_INT.c ****     *
 561:Generated_Source\PSoC4/CSD_INT.c ****     *  This function has two Macro Callbacks that allow calling the user 
 562:Generated_Source\PSoC4/CSD_INT.c ****     *  code from macros specified in a component's generated code. Refer to the 
 563:Generated_Source\PSoC4/CSD_INT.c ****     *  \ref group_capsense_macrocallbacks section of PSoC Creator User Guide 
 564:Generated_Source\PSoC4/CSD_INT.c ****     *  for details.
 565:Generated_Source\PSoC4/CSD_INT.c ****     *
 566:Generated_Source\PSoC4/CSD_INT.c ****     *******************************************************************************/
 567:Generated_Source\PSoC4/CSD_INT.c ****     CY_ISR(CSD_CSDPostMultiScan)
 568:Generated_Source\PSoC4/CSD_INT.c ****     {
 569:Generated_Source\PSoC4/CSD_INT.c ****         /*  Declare and initialise ptr to sensor IO structure to appropriate address        */
 570:Generated_Source\PSoC4/CSD_INT.c ****         CSD_FLASH_IO_STRUCT const *curSnsIOPtr = (CSD_FLASH_IO_STRUCT const *)
 571:Generated_Source\PSoC4/CSD_INT.c ****                                                           CSD_dsFlash.wdgtArray[CSD_widgetIndex].pt
 572:Generated_Source\PSoC4/CSD_INT.c ****                                                           + CSD_sensorIndex;
 573:Generated_Source\PSoC4/CSD_INT.c **** 
 574:Generated_Source\PSoC4/CSD_INT.c ****         #ifdef CSD_ENTRY_CALLBACK
 575:Generated_Source\PSoC4/CSD_INT.c ****             CSD_EntryCallback();
 576:Generated_Source\PSoC4/CSD_INT.c ****         #endif /* CSD_ENTRY_CALLBACK */
 577:Generated_Source\PSoC4/CSD_INT.c **** 
 578:Generated_Source\PSoC4/CSD_INT.c ****         /* Clear pending interrupt */
 579:Generated_Source\PSoC4/CSD_INT.c ****         CY_SET_REG32(CSD_INTR_PTR, CSD_INTR_SET_MASK);
 580:Generated_Source\PSoC4/CSD_INT.c **** 
 581:Generated_Source\PSoC4/CSD_INT.c ****          /* Read Rawdata */
 582:Generated_Source\PSoC4/CSD_INT.c ****         CSD_SsCSDPostScan();
 583:Generated_Source\PSoC4/CSD_INT.c **** 
 584:Generated_Source\PSoC4/CSD_INT.c ****         /*  Connect Vref Buffer to AMUX bus */
 585:Generated_Source\PSoC4/CSD_INT.c ****         CY_SET_REG32(CSD_CONFIG_PTR, CSD_configCsd | CSD_CTANK_PRECHARGE_CONFIG_CSD_EN);
 586:Generated_Source\PSoC4/CSD_INT.c **** 
 587:Generated_Source\PSoC4/CSD_INT.c ****         #if (CSD_ENABLE == CSD_MULTI_FREQ_SCAN_EN)
 588:Generated_Source\PSoC4/CSD_INT.c ****             /* Disable sensor when all frequency channels are scanned */
 589:Generated_Source\PSoC4/CSD_INT.c ****             if (CSD_FREQ_CHANNEL_2 == CSD_scanFreqIndex)
 590:Generated_Source\PSoC4/CSD_INT.c ****             {
 591:Generated_Source\PSoC4/CSD_INT.c ****                 /* Disable sensor */
 592:Generated_Source\PSoC4/CSD_INT.c ****                 CSD_CSDDisconnectSns(curSnsIOPtr);
 593:Generated_Source\PSoC4/CSD_INT.c ****             }
ARM GAS  C:\Users\Greg\AppData\Local\Temp\ccxyvtRP.s 			page 12


 594:Generated_Source\PSoC4/CSD_INT.c ****         #else
 595:Generated_Source\PSoC4/CSD_INT.c ****             /* Disable sensor */
 596:Generated_Source\PSoC4/CSD_INT.c ****             CSD_CSDDisconnectSns(curSnsIOPtr);
 597:Generated_Source\PSoC4/CSD_INT.c ****         #endif /* (CSD_ENABLE == CSD_MULTI_FREQ_SCAN_EN) */
 598:Generated_Source\PSoC4/CSD_INT.c **** 
 599:Generated_Source\PSoC4/CSD_INT.c ****         #if (CSD_ENABLE == CSD_MULTI_FREQ_SCAN_EN)
 600:Generated_Source\PSoC4/CSD_INT.c ****             if (CSD_FREQ_CHANNEL_2 > CSD_scanFreqIndex)
 601:Generated_Source\PSoC4/CSD_INT.c ****             {
 602:Generated_Source\PSoC4/CSD_INT.c ****                  /* Scan the next channel */
 603:Generated_Source\PSoC4/CSD_INT.c ****                 CSD_SsNextFrequencyScan();
 604:Generated_Source\PSoC4/CSD_INT.c ****             }
 605:Generated_Source\PSoC4/CSD_INT.c ****             else
 606:Generated_Source\PSoC4/CSD_INT.c ****             {
 607:Generated_Source\PSoC4/CSD_INT.c ****                  /* All channels are scanned. Set IMO to zero channel */
 608:Generated_Source\PSoC4/CSD_INT.c ****                 CSD_scanFreqIndex = CSD_FREQ_CHANNEL_0;
 609:Generated_Source\PSoC4/CSD_INT.c ****                 CSD_SsChangeImoFreq(CSD_FREQ_CHANNEL_0);
 610:Generated_Source\PSoC4/CSD_INT.c **** 
 611:Generated_Source\PSoC4/CSD_INT.c ****                  /* Scan the next sensor */
 612:Generated_Source\PSoC4/CSD_INT.c ****                 CSD_SsCSDInitNextScan();
 613:Generated_Source\PSoC4/CSD_INT.c ****             }
 614:Generated_Source\PSoC4/CSD_INT.c ****         #else
 615:Generated_Source\PSoC4/CSD_INT.c ****             /* Scan the next sensor */
 616:Generated_Source\PSoC4/CSD_INT.c ****             CSD_SsCSDInitNextScan();
 617:Generated_Source\PSoC4/CSD_INT.c ****         #endif /* (CSD_ENABLE == CSD_MULTI_FREQ_SCAN_EN) */
 618:Generated_Source\PSoC4/CSD_INT.c **** 
 619:Generated_Source\PSoC4/CSD_INT.c ****         #ifdef CSD_EXIT_CALLBACK
 620:Generated_Source\PSoC4/CSD_INT.c ****             CSD_ExitCallback();
 621:Generated_Source\PSoC4/CSD_INT.c ****         #endif /* CSD_EXIT_CALLBACK */
 622:Generated_Source\PSoC4/CSD_INT.c ****     }
 623:Generated_Source\PSoC4/CSD_INT.c **** 
 624:Generated_Source\PSoC4/CSD_INT.c **** 
 625:Generated_Source\PSoC4/CSD_INT.c ****     #if (CSD_ENABLE == CSD_CSD_GANGED_SNS_EN)
 626:Generated_Source\PSoC4/CSD_INT.c ****     /*******************************************************************************
 627:Generated_Source\PSoC4/CSD_INT.c ****     * Function Name: CSD_CSDPostMultiScanGanged
 628:Generated_Source\PSoC4/CSD_INT.c ****     ****************************************************************************//**
 629:Generated_Source\PSoC4/CSD_INT.c ****     *
 630:Generated_Source\PSoC4/CSD_INT.c ****     * \brief
 631:Generated_Source\PSoC4/CSD_INT.c ****     *  This is an internal ISR function for multiple-sensor scanning 
 632:Generated_Source\PSoC4/CSD_INT.c ****     *  implementation for ganged sensors.
 633:Generated_Source\PSoC4/CSD_INT.c ****     *
 634:Generated_Source\PSoC4/CSD_INT.c ****     * \details
 635:Generated_Source\PSoC4/CSD_INT.c ****     *  This ISR handler is triggered when the user calls the
 636:Generated_Source\PSoC4/CSD_INT.c ****     *  CSD_Scan() API for a ganged sensor or the
 637:Generated_Source\PSoC4/CSD_INT.c ****     *  CSD_ScanAllWidgets() API in the project with ganged sensors.
 638:Generated_Source\PSoC4/CSD_INT.c ****     *
 639:Generated_Source\PSoC4/CSD_INT.c ****     *  The following tasks are performed:
 640:Generated_Source\PSoC4/CSD_INT.c ****     *    1. Disable the CSD interrupt
 641:Generated_Source\PSoC4/CSD_INT.c ****     *    2. Read the Counter register and update the data structure with raw data
 642:Generated_Source\PSoC4/CSD_INT.c ****     *    3. Connect the Vref buffer to the AMUX bus
 643:Generated_Source\PSoC4/CSD_INT.c ****     *    4. Disable the CSD block (after the widget has been scanned)
 644:Generated_Source\PSoC4/CSD_INT.c ****     *    5. Update Scan Counter
 645:Generated_Source\PSoC4/CSD_INT.c ****     *    6. Reset the BUSY flag
 646:Generated_Source\PSoC4/CSD_INT.c ****     *    7. Enable the CSD interrupt.
 647:Generated_Source\PSoC4/CSD_INT.c ****     *
 648:Generated_Source\PSoC4/CSD_INT.c ****     *  The ISR handler initializes scanning for the previous sensor when the
 649:Generated_Source\PSoC4/CSD_INT.c ****     *  widget has more than one sensor.
 650:Generated_Source\PSoC4/CSD_INT.c ****     *  The ISR handler initializes scanning for the next widget when the
ARM GAS  C:\Users\Greg\AppData\Local\Temp\ccxyvtRP.s 			page 13


 651:Generated_Source\PSoC4/CSD_INT.c ****     *  CSD_ScanAllWidgets() APIs are called and the project has 
 652:Generated_Source\PSoC4/CSD_INT.c ****     *  more than one widget.
 653:Generated_Source\PSoC4/CSD_INT.c ****     *  The ISR handler changes the IMO and initializes scanning for the next 
 654:Generated_Source\PSoC4/CSD_INT.c ****     *  frequency channels when multi-frequency scanning is enabled.
 655:Generated_Source\PSoC4/CSD_INT.c ****     *
 656:Generated_Source\PSoC4/CSD_INT.c ****     *  This function has two Macro Callbacks that allow calling the user 
 657:Generated_Source\PSoC4/CSD_INT.c ****     *  code from macros specified in a component's generated code. Refer to the 
 658:Generated_Source\PSoC4/CSD_INT.c ****     *  \ref group_capsense_macrocallbacks section of PSoC Creator User Guide 
 659:Generated_Source\PSoC4/CSD_INT.c ****     *  for details.
 660:Generated_Source\PSoC4/CSD_INT.c ****     *
 661:Generated_Source\PSoC4/CSD_INT.c ****     *******************************************************************************/
 662:Generated_Source\PSoC4/CSD_INT.c ****     CY_ISR(CSD_CSDPostMultiScanGanged)
 663:Generated_Source\PSoC4/CSD_INT.c ****     {
 664:Generated_Source\PSoC4/CSD_INT.c ****         #ifdef CSD_ENTRY_CALLBACK
 665:Generated_Source\PSoC4/CSD_INT.c ****             CSD_EntryCallback();
 666:Generated_Source\PSoC4/CSD_INT.c ****         #endif /* CSD_ENTRY_CALLBACK */
 667:Generated_Source\PSoC4/CSD_INT.c **** 
 668:Generated_Source\PSoC4/CSD_INT.c ****         /* Clear pending interrupt */
 669:Generated_Source\PSoC4/CSD_INT.c ****         CY_SET_REG32(CSD_INTR_PTR, CSD_INTR_SET_MASK);
 670:Generated_Source\PSoC4/CSD_INT.c **** 
 671:Generated_Source\PSoC4/CSD_INT.c ****          /* Read Rawdata */
 672:Generated_Source\PSoC4/CSD_INT.c ****         CSD_SsCSDPostScan();
 673:Generated_Source\PSoC4/CSD_INT.c **** 
 674:Generated_Source\PSoC4/CSD_INT.c ****         /*  Connect Vref Buffer to AMUX bus */
 675:Generated_Source\PSoC4/CSD_INT.c ****         CY_SET_REG32(CSD_CONFIG_PTR, CSD_configCsd | CSD_CTANK_PRECHARGE_CONFIG_CSD_EN);
 676:Generated_Source\PSoC4/CSD_INT.c **** 
 677:Generated_Source\PSoC4/CSD_INT.c ****         #if (CSD_ENABLE == CSD_MULTI_FREQ_SCAN_EN)
 678:Generated_Source\PSoC4/CSD_INT.c ****             if (CSD_FREQ_CHANNEL_2 == CSD_scanFreqIndex)
 679:Generated_Source\PSoC4/CSD_INT.c ****             {
 680:Generated_Source\PSoC4/CSD_INT.c ****                 CSD_SsCSDDisconnectSnsExt((uint32)CSD_widgetIndex, (uint32)CSD_sensorIndex);
 681:Generated_Source\PSoC4/CSD_INT.c ****             }
 682:Generated_Source\PSoC4/CSD_INT.c ****         #else
 683:Generated_Source\PSoC4/CSD_INT.c ****             CSD_SsCSDDisconnectSnsExt((uint32)CSD_widgetIndex, (uint32)CSD_sensorIndex);
 684:Generated_Source\PSoC4/CSD_INT.c ****         #endif /* (CSD_ENABLE == CSD_MULTI_FREQ_SCAN_EN) */
 685:Generated_Source\PSoC4/CSD_INT.c **** 
 686:Generated_Source\PSoC4/CSD_INT.c ****         #if (CSD_ENABLE == CSD_MULTI_FREQ_SCAN_EN)
 687:Generated_Source\PSoC4/CSD_INT.c ****             if (CSD_FREQ_CHANNEL_2 > CSD_scanFreqIndex)
 688:Generated_Source\PSoC4/CSD_INT.c ****             {
 689:Generated_Source\PSoC4/CSD_INT.c ****                  /* Scan the next channel */
 690:Generated_Source\PSoC4/CSD_INT.c ****                 CSD_SsNextFrequencyScan();
 691:Generated_Source\PSoC4/CSD_INT.c ****             }
 692:Generated_Source\PSoC4/CSD_INT.c ****             else
 693:Generated_Source\PSoC4/CSD_INT.c ****             {
 694:Generated_Source\PSoC4/CSD_INT.c ****                 /* All channels are scanned. Set IMO to zero channel */
 695:Generated_Source\PSoC4/CSD_INT.c ****                 CSD_scanFreqIndex = CSD_FREQ_CHANNEL_0;
 696:Generated_Source\PSoC4/CSD_INT.c ****                 CSD_SsChangeImoFreq(CSD_FREQ_CHANNEL_0);
 697:Generated_Source\PSoC4/CSD_INT.c **** 
 698:Generated_Source\PSoC4/CSD_INT.c ****                  /* Scan the next sensor */
 699:Generated_Source\PSoC4/CSD_INT.c ****                 CSD_SsCSDInitNextScan();
 700:Generated_Source\PSoC4/CSD_INT.c ****             }
 701:Generated_Source\PSoC4/CSD_INT.c ****         #else
 702:Generated_Source\PSoC4/CSD_INT.c ****              /* Scan the next sensor */
 703:Generated_Source\PSoC4/CSD_INT.c ****             CSD_SsCSDInitNextScan();
 704:Generated_Source\PSoC4/CSD_INT.c ****         #endif /* (CSD_ENABLE == CSD_MULTI_FREQ_SCAN_EN) */
 705:Generated_Source\PSoC4/CSD_INT.c **** 
 706:Generated_Source\PSoC4/CSD_INT.c ****         #ifdef CSD_EXIT_CALLBACK
 707:Generated_Source\PSoC4/CSD_INT.c ****             CSD_ExitCallback();
ARM GAS  C:\Users\Greg\AppData\Local\Temp\ccxyvtRP.s 			page 14


 708:Generated_Source\PSoC4/CSD_INT.c ****         #endif /* CSD_EXIT_CALLBACK */
 709:Generated_Source\PSoC4/CSD_INT.c ****     }
 710:Generated_Source\PSoC4/CSD_INT.c ****     #endif /* (CSD_ENABLE == CSD_CSD_GANGED_SNS_EN) */
 711:Generated_Source\PSoC4/CSD_INT.c **** 
 712:Generated_Source\PSoC4/CSD_INT.c **** #endif /* (CSD_ENABLE == CSD_CSDV2) */
 713:Generated_Source\PSoC4/CSD_INT.c **** 
 714:Generated_Source\PSoC4/CSD_INT.c **** #endif /* ((CSD_ENABLE == CSD_CSD_EN) || (CSD_ENABLE == CSD_CSD_CSX_EN)) */
 715:Generated_Source\PSoC4/CSD_INT.c **** 
 716:Generated_Source\PSoC4/CSD_INT.c **** /** \}
 717:Generated_Source\PSoC4/CSD_INT.c ****  * \endif */
 718:Generated_Source\PSoC4/CSD_INT.c **** 
 719:Generated_Source\PSoC4/CSD_INT.c **** 
 720:Generated_Source\PSoC4/CSD_INT.c **** #if ((CSD_ENABLE == CSD_CSD_EN) || (CSD_ENABLE == CSD_CSD_CSX_EN))
 721:Generated_Source\PSoC4/CSD_INT.c **** 
 722:Generated_Source\PSoC4/CSD_INT.c **** /*******************************************************************************
 723:Generated_Source\PSoC4/CSD_INT.c **** * Function Name: CSD_SsCSDPostScan
 724:Generated_Source\PSoC4/CSD_INT.c **** ****************************************************************************//**
 725:Generated_Source\PSoC4/CSD_INT.c **** *
 726:Generated_Source\PSoC4/CSD_INT.c **** * \brief
 727:Generated_Source\PSoC4/CSD_INT.c **** *   This function reads rawdata and releases required HW resources after scan.
 728:Generated_Source\PSoC4/CSD_INT.c **** *
 729:Generated_Source\PSoC4/CSD_INT.c **** * \details
 730:Generated_Source\PSoC4/CSD_INT.c **** *   This function performs following tasks after scan:
 731:Generated_Source\PSoC4/CSD_INT.c **** *   - Reads SlotResult from Raw Counter;
 732:Generated_Source\PSoC4/CSD_INT.c **** *   - Inits bad Conversions number;
 733:Generated_Source\PSoC4/CSD_INT.c **** *   - Disconnects Vrefhi from AMUBUF positive input;
 734:Generated_Source\PSoC4/CSD_INT.c **** *   - Disconnects AMUBUF output from CSDBUSB with sych PHI2+HSCMP;
 735:Generated_Source\PSoC4/CSD_INT.c **** *   - Opens HCBV and HCBG switches.
 736:Generated_Source\PSoC4/CSD_INT.c **** *
 737:Generated_Source\PSoC4/CSD_INT.c **** *******************************************************************************/
 738:Generated_Source\PSoC4/CSD_INT.c **** CY_INLINE static void CSD_SsCSDPostScan(void)
 739:Generated_Source\PSoC4/CSD_INT.c **** {
 740:Generated_Source\PSoC4/CSD_INT.c ****     #if (CSD_ENABLE == CSD_CSDV2)
 741:Generated_Source\PSoC4/CSD_INT.c **** 
 742:Generated_Source\PSoC4/CSD_INT.c ****         uint32 tmpRawData;
 743:Generated_Source\PSoC4/CSD_INT.c ****         uint32 tmpMaxCount;
 744:Generated_Source\PSoC4/CSD_INT.c ****         CSD_RAM_WD_BASE_STRUCT const *ptrWdgt = (CSD_RAM_WD_BASE_STRUCT *)
 745:Generated_Source\PSoC4/CSD_INT.c ****                                             CSD_dsFlash.wdgtArray[CSD_widgetIndex].ptr2WdgtRam;
  35              		.loc 1 745 0
  36 0008 144B     		ldr	r3, .L4+4
  37 000a 1A78     		ldrb	r2, [r3]
 744:Generated_Source\PSoC4/CSD_INT.c ****                                             CSD_dsFlash.wdgtArray[CSD_widgetIndex].ptr2WdgtRam;
  38              		.loc 1 744 0
  39 000c D300     		lsl	r3, r2, #3
  40 000e 9B1A     		sub	r3, r3, r2
  41 0010 9B00     		lsl	r3, r3, #2
  42 0012 134A     		ldr	r2, .L4+8
  43 0014 D318     		add	r3, r2, r3
  44 0016 5B68     		ldr	r3, [r3, #4]
  45              	.LVL0:
 746:Generated_Source\PSoC4/CSD_INT.c **** 
 747:Generated_Source\PSoC4/CSD_INT.c ****         /* Read SlotResult from Raw Counter */
 748:Generated_Source\PSoC4/CSD_INT.c ****         tmpRawData = CSD_RESULT_VAL1_VALUE_MASK & CY_GET_REG32(CSD_COUNTER_PTR);
  46              		.loc 1 748 0
  47 0018 124A     		ldr	r2, .L4+12
  48 001a 1268     		ldr	r2, [r2]
  49 001c 1204     		lsl	r2, r2, #16
ARM GAS  C:\Users\Greg\AppData\Local\Temp\ccxyvtRP.s 			page 15


  50 001e 120C     		lsr	r2, r2, #16
  51              	.LVL1:
 749:Generated_Source\PSoC4/CSD_INT.c **** 
 750:Generated_Source\PSoC4/CSD_INT.c ****         tmpMaxCount = ((1uL << ptrWdgt->resolution) - 1uL);
  52              		.loc 1 750 0
  53 0020 1988     		ldrh	r1, [r3]
  54 0022 0123     		mov	r3, #1
  55              	.LVL2:
  56 0024 8B40     		lsl	r3, r3, r1
  57 0026 013B     		sub	r3, r3, #1
  58              	.LVL3:
 751:Generated_Source\PSoC4/CSD_INT.c ****         if(tmpRawData < tmpMaxCount)
  59              		.loc 1 751 0
  60 0028 9A42     		cmp	r2, r3
  61 002a 06D2     		bcs	.L2
 752:Generated_Source\PSoC4/CSD_INT.c ****         {
 753:Generated_Source\PSoC4/CSD_INT.c ****             CSD_curRamSnsPtr->raw[CSD_scanFreqIndex] = LO16(tmpRawData);
  62              		.loc 1 753 0
  63 002c 0E4B     		ldr	r3, .L4+16
  64              	.LVL4:
  65 002e 1968     		ldr	r1, [r3]
  66              	.LVL5:
  67 0030 0E4B     		ldr	r3, .L4+20
  68 0032 1B78     		ldrb	r3, [r3]
  69 0034 5B00     		lsl	r3, r3, #1
  70 0036 CA52     		strh	r2, [r1, r3]
  71 0038 05E0     		b	.L3
  72              	.LVL6:
  73              	.L2:
 754:Generated_Source\PSoC4/CSD_INT.c ****         }
 755:Generated_Source\PSoC4/CSD_INT.c ****         else
 756:Generated_Source\PSoC4/CSD_INT.c ****         {
 757:Generated_Source\PSoC4/CSD_INT.c ****             CSD_curRamSnsPtr->raw[CSD_scanFreqIndex] = LO16(tmpMaxCount);
  74              		.loc 1 757 0
  75 003a 0B4A     		ldr	r2, .L4+16
  76              	.LVL7:
  77 003c 1168     		ldr	r1, [r2]
  78 003e 0B4A     		ldr	r2, .L4+20
  79 0040 1278     		ldrb	r2, [r2]
  80 0042 5200     		lsl	r2, r2, #1
  81 0044 8B52     		strh	r3, [r1, r2]
  82              	.LVL8:
  83              	.L3:
  84              	.LBE5:
  85              	.LBE4:
 187:Generated_Source\PSoC4/CSD_INT.c **** 
  86              		.loc 1 187 0
  87 0046 0A4B     		ldr	r3, .L4+24
  88 0048 DA88     		ldrh	r2, [r3, #6]
  89 004a 0132     		add	r2, r2, #1
  90 004c DA80     		strh	r2, [r3, #6]
 190:Generated_Source\PSoC4/CSD_INT.c ****                 }
  91              		.loc 1 190 0
  92 004e 094A     		ldr	r2, .L4+28
  93 0050 9968     		ldr	r1, [r3, #8]
  94 0052 0A40     		and	r2, r1
  95 0054 9A60     		str	r2, [r3, #8]
ARM GAS  C:\Users\Greg\AppData\Local\Temp\ccxyvtRP.s 			page 16


 200:Generated_Source\PSoC4/CSD_INT.c **** 
  96              		.loc 1 200 0
  97              		@ sp needed
  98 0056 7047     		bx	lr
  99              	.L5:
 100              		.align	2
 101              	.L4:
 102 0058 F0000C40 		.word	1074528496
 103 005c 00000000 		.word	CSD_widgetIndex
 104 0060 00000000 		.word	CSD_dsFlash
 105 0064 D0000C40 		.word	1074528464
 106 0068 00000000 		.word	CSD_curRamSnsPtr
 107 006c 00000000 		.word	CSD_scanFreqIndex
 108 0070 00000000 		.word	CSD_dsRam
 109 0074 7FFFFEFF 		.word	-65665
 110              		.cfi_endproc
 111              	.LFE1:
 112              		.size	CSD_CSDPostSingleScan, .-CSD_CSDPostSingleScan
 113              		.section	.text.CSD_CSDPostMultiScan,"ax",%progbits
 114              		.align	2
 115              		.global	CSD_CSDPostMultiScan
 116              		.code	16
 117              		.thumb_func
 118              		.type	CSD_CSDPostMultiScan, %function
 119              	CSD_CSDPostMultiScan:
 120              	.LFB2:
 239:Generated_Source\PSoC4/CSD_INT.c ****         /*  Declare and initialise ptr to sensor IO structure to appropriate address        */
 121              		.loc 1 239 0
 122              		.cfi_startproc
 123 0000 38B5     		push	{r3, r4, r5, lr}
 124              		.cfi_def_cfa_offset 16
 125              		.cfi_offset 3, -16
 126              		.cfi_offset 4, -12
 127              		.cfi_offset 5, -8
 128              		.cfi_offset 14, -4
 241:Generated_Source\PSoC4/CSD_INT.c ****                                                           CSD_dsFlash.wdgtArray[CSD_widgetIndex].pt
 129              		.loc 1 241 0
 130 0002 3C4B     		ldr	r3, .L12
 131 0004 1978     		ldrb	r1, [r3]
 242:Generated_Source\PSoC4/CSD_INT.c ****                                                           + CSD_sensorIndex;
 132              		.loc 1 242 0
 133 0006 3C4C     		ldr	r4, .L12+4
 134 0008 CA00     		lsl	r2, r1, #3
 135 000a 521A     		sub	r2, r2, r1
 136 000c 9200     		lsl	r2, r2, #2
 137 000e 1059     		ldr	r0, [r2, r4]
 243:Generated_Source\PSoC4/CSD_INT.c **** 
 138              		.loc 1 243 0
 139 0010 3A4A     		ldr	r2, .L12+8
 140 0012 1578     		ldrb	r5, [r2]
 141 0014 E900     		lsl	r1, r5, #3
 142 0016 4A1B     		sub	r2, r1, r5
 143 0018 9200     		lsl	r2, r2, #2
 241:Generated_Source\PSoC4/CSD_INT.c ****                                                           CSD_dsFlash.wdgtArray[CSD_widgetIndex].pt
 144              		.loc 1 241 0
 145 001a 8018     		add	r0, r0, r2
 146              	.LVL9:
ARM GAS  C:\Users\Greg\AppData\Local\Temp\ccxyvtRP.s 			page 17


 250:Generated_Source\PSoC4/CSD_INT.c **** 
 147              		.loc 1 250 0
 148 001c 8321     		mov	r1, #131
 149 001e 4900     		lsl	r1, r1, #1
 150 0020 374A     		ldr	r2, .L12+12
 151 0022 1160     		str	r1, [r2]
 152              	.LBB10:
 153              	.LBB11:
 745:Generated_Source\PSoC4/CSD_INT.c **** 
 154              		.loc 1 745 0
 155 0024 1B78     		ldrb	r3, [r3]
 744:Generated_Source\PSoC4/CSD_INT.c ****                                             CSD_dsFlash.wdgtArray[CSD_widgetIndex].ptr2WdgtRam;
 156              		.loc 1 744 0
 157 0026 DA00     		lsl	r2, r3, #3
 158 0028 D31A     		sub	r3, r2, r3
 159 002a 9B00     		lsl	r3, r3, #2
 160 002c E318     		add	r3, r4, r3
 161 002e 5B68     		ldr	r3, [r3, #4]
 162              	.LVL10:
 748:Generated_Source\PSoC4/CSD_INT.c **** 
 163              		.loc 1 748 0
 164 0030 344A     		ldr	r2, .L12+16
 165 0032 1268     		ldr	r2, [r2]
 166 0034 1204     		lsl	r2, r2, #16
 167 0036 120C     		lsr	r2, r2, #16
 168              	.LVL11:
 750:Generated_Source\PSoC4/CSD_INT.c ****         if(tmpRawData < tmpMaxCount)
 169              		.loc 1 750 0
 170 0038 1988     		ldrh	r1, [r3]
 171 003a 0123     		mov	r3, #1
 172              	.LVL12:
 173 003c 8B40     		lsl	r3, r3, r1
 174 003e 013B     		sub	r3, r3, #1
 175              	.LVL13:
 751:Generated_Source\PSoC4/CSD_INT.c ****         {
 176              		.loc 1 751 0
 177 0040 9A42     		cmp	r2, r3
 178 0042 06D2     		bcs	.L7
 753:Generated_Source\PSoC4/CSD_INT.c ****         }
 179              		.loc 1 753 0
 180 0044 304B     		ldr	r3, .L12+20
 181              	.LVL14:
 182 0046 1968     		ldr	r1, [r3]
 183              	.LVL15:
 184 0048 304B     		ldr	r3, .L12+24
 185 004a 1B78     		ldrb	r3, [r3]
 186 004c 5B00     		lsl	r3, r3, #1
 187 004e CA52     		strh	r2, [r1, r3]
 188 0050 05E0     		b	.L8
 189              	.LVL16:
 190              	.L7:
 191              		.loc 1 757 0
 192 0052 2D4A     		ldr	r2, .L12+20
 193              	.LVL17:
 194 0054 1168     		ldr	r1, [r2]
 195 0056 2D4A     		ldr	r2, .L12+24
 196 0058 1278     		ldrb	r2, [r2]
ARM GAS  C:\Users\Greg\AppData\Local\Temp\ccxyvtRP.s 			page 18


 197 005a 5200     		lsl	r2, r2, #1
 198 005c 8B52     		strh	r3, [r1, r2]
 199              	.LVL18:
 200              	.L8:
 201              	.LBE11:
 202              	.LBE10:
 281:Generated_Source\PSoC4/CSD_INT.c ****             #endif /* (CSD_ENABLE == CSD_MULTI_FREQ_SCAN_EN) */
 203              		.loc 1 281 0
 204 005e FFF7FEFF 		bl	CSD_CSDDisconnectSns
 205              	.LVL19:
 206              	.LBB12:
 207              	.LBB13:
 758:Generated_Source\PSoC4/CSD_INT.c ****         }
 759:Generated_Source\PSoC4/CSD_INT.c **** 
 760:Generated_Source\PSoC4/CSD_INT.c ****         #if (CSD_ENABLE == CSD_CSD_NOISE_METRIC_EN)
 761:Generated_Source\PSoC4/CSD_INT.c ****             /*  Init bad Conversions number */
 762:Generated_Source\PSoC4/CSD_INT.c ****             CSD_badConversionsNum = CSD_BAD_CONVERSIONS_NUM;
 763:Generated_Source\PSoC4/CSD_INT.c ****         #endif /* (CSD_ENABLE == CSD_CSD_NOISE_METRIC_EN) */
 764:Generated_Source\PSoC4/CSD_INT.c **** 
 765:Generated_Source\PSoC4/CSD_INT.c ****         #if ((CSD_ENABLE == CSD_CSD_SHIELD_EN) && \
 766:Generated_Source\PSoC4/CSD_INT.c ****              (CSD_2000_MV <= CSD_CYDEV_VDDA_MV))
 767:Generated_Source\PSoC4/CSD_INT.c ****             /*  Disconnect Vrefhi from AMUBUF positive input. Disconnect AMUBUF output from CSDBUSB
 768:Generated_Source\PSoC4/CSD_INT.c ****             CY_SET_REG32(CSD_SW_AMUXBUF_SEL_PTR, CSD_SW_AMUXBUF_SEL_SW_DEFAULT);
 769:Generated_Source\PSoC4/CSD_INT.c ****         #endif /* ((CSD_ENABLE == CSD_CSD_SHIELD_EN) && \
 770:Generated_Source\PSoC4/CSD_INT.c ****                    (CSD_2000_MV <= CSD_CYDEV_VDDA_MV)) */
 771:Generated_Source\PSoC4/CSD_INT.c **** 
 772:Generated_Source\PSoC4/CSD_INT.c ****         #if (CSD_ENABLE == CSD_CSD_SHIELD_EN)
 773:Generated_Source\PSoC4/CSD_INT.c ****             /* Open HCBV and HCBG switches */
 774:Generated_Source\PSoC4/CSD_INT.c ****             CY_SET_REG32(CSD_SW_SHIELD_SEL_PTR, CSD_SW_SHIELD_SEL_SW_HCBV_STATIC_OPEN |
 775:Generated_Source\PSoC4/CSD_INT.c ****                                                              CSD_SW_SHIELD_SEL_SW_HCBG_STATIC_OPEN)
 776:Generated_Source\PSoC4/CSD_INT.c ****         #endif /* (CSD_ENABLE == CSD_CSD_SHIELD_EN) */
 777:Generated_Source\PSoC4/CSD_INT.c **** 
 778:Generated_Source\PSoC4/CSD_INT.c ****     #else
 779:Generated_Source\PSoC4/CSD_INT.c **** 
 780:Generated_Source\PSoC4/CSD_INT.c ****         /* Read SlotResult from Raw Counter */
 781:Generated_Source\PSoC4/CSD_INT.c ****        CSD_curRamSnsPtr->raw[CSD_scanFreqIndex] = (uint16)CY_GET_REG32(CSD_COUNTER_PTR);
 782:Generated_Source\PSoC4/CSD_INT.c **** 
 783:Generated_Source\PSoC4/CSD_INT.c ****     #endif /* (CSD_ENABLE == CSD_CSDV2) */
 784:Generated_Source\PSoC4/CSD_INT.c **** }
 785:Generated_Source\PSoC4/CSD_INT.c **** 
 786:Generated_Source\PSoC4/CSD_INT.c **** 
 787:Generated_Source\PSoC4/CSD_INT.c **** /*******************************************************************************
 788:Generated_Source\PSoC4/CSD_INT.c **** * Function Name: CSD_SsCSDInitNextScan
 789:Generated_Source\PSoC4/CSD_INT.c **** ****************************************************************************//**
 790:Generated_Source\PSoC4/CSD_INT.c **** *
 791:Generated_Source\PSoC4/CSD_INT.c **** * \brief
 792:Generated_Source\PSoC4/CSD_INT.c **** *   This function initializes the next sensor scan.
 793:Generated_Source\PSoC4/CSD_INT.c **** *
 794:Generated_Source\PSoC4/CSD_INT.c **** * \details
 795:Generated_Source\PSoC4/CSD_INT.c **** *   The function decrements the sensor index, updates sense clock for matrix
 796:Generated_Source\PSoC4/CSD_INT.c **** *   or touchpad widgets only, sets up Compensation IDAC, enables the sensor and
 797:Generated_Source\PSoC4/CSD_INT.c **** *   scans it. When all sensors are scanned it continues to set up the next widget
 798:Generated_Source\PSoC4/CSD_INT.c **** *   until all widgets are scanned. The CSD block is disabled when all widgets are
 799:Generated_Source\PSoC4/CSD_INT.c **** *   scanned.
 800:Generated_Source\PSoC4/CSD_INT.c **** *
 801:Generated_Source\PSoC4/CSD_INT.c **** *******************************************************************************/
 802:Generated_Source\PSoC4/CSD_INT.c **** CY_INLINE static void CSD_SsCSDInitNextScan(void)
ARM GAS  C:\Users\Greg\AppData\Local\Temp\ccxyvtRP.s 			page 19


 803:Generated_Source\PSoC4/CSD_INT.c **** {
 804:Generated_Source\PSoC4/CSD_INT.c ****     /*  Declare and initialise ptr to widget and sensor structures to appropriate address */
 805:Generated_Source\PSoC4/CSD_INT.c ****     #if (((CSD_ENABLE == CSD_CSD_IDAC_COMP_EN) || \
 806:Generated_Source\PSoC4/CSD_INT.c ****              (CSD_ENABLE == (CSD_CSD_MATRIX_WIDGET_EN | CSD_CSD_TOUCHPAD_WIDGET_EN))) || \
 807:Generated_Source\PSoC4/CSD_INT.c ****          (((CSD_DISABLE == CSD_CSD_COMMON_SNS_CLK_EN) && \
 808:Generated_Source\PSoC4/CSD_INT.c ****            (CSD_ENABLE == CSD_CSDV2) && \
 809:Generated_Source\PSoC4/CSD_INT.c ****           (CSD_ENABLE == (CSD_CSD_MATRIX_WIDGET_EN | CSD_CSD_TOUCHPAD_WIDGET_EN)))))
 810:Generated_Source\PSoC4/CSD_INT.c ****         CSD_RAM_WD_BASE_STRUCT *ptrWdgt = (CSD_RAM_WD_BASE_STRUCT *)
 811:Generated_Source\PSoC4/CSD_INT.c ****                                                         CSD_dsFlash.wdgtArray[CSD_widgetIndex].ptr2
 208              		.loc 1 811 0
 209 0062 244B     		ldr	r3, .L12
 210 0064 1878     		ldrb	r0, [r3]
 810:Generated_Source\PSoC4/CSD_INT.c ****                                                         CSD_dsFlash.wdgtArray[CSD_widgetIndex].ptr2
 211              		.loc 1 810 0
 212 0066 2449     		ldr	r1, .L12+4
 213 0068 C200     		lsl	r2, r0, #3
 214 006a 121A     		sub	r2, r2, r0
 215 006c 9200     		lsl	r2, r2, #2
 216 006e 8A18     		add	r2, r1, r2
 217 0070 5068     		ldr	r0, [r2, #4]
 218              	.LVL20:
 812:Generated_Source\PSoC4/CSD_INT.c ****     #endif /* ((((CSD_ENABLE == CSD_CSD_IDAC_COMP_EN) && \
 813:Generated_Source\PSoC4/CSD_INT.c ****                (CSD_ENABLE == (CSD_CSD_MATRIX_WIDGET_EN | CSD_CSD_TOUCHPAD_WIDGET_EN)))) || \
 814:Generated_Source\PSoC4/CSD_INT.c ****                (((CSD_DISABLE == CSD_CSD_COMMON_SNS_CLK_EN) && \
 815:Generated_Source\PSoC4/CSD_INT.c ****                (CSD_ENABLE == (CSD_CSD_MATRIX_WIDGET_EN | CSD_CSD_TOUCHPAD_WIDGET_EN))) && \
 816:Generated_Source\PSoC4/CSD_INT.c ****                (CSD_CLK_SOURCE_DIRECT == CSD_CSD_SNS_CLK_SOURCE))) */
 817:Generated_Source\PSoC4/CSD_INT.c **** 
 818:Generated_Source\PSoC4/CSD_INT.c ****     /* Check if all sensors are scanned in widget */
 819:Generated_Source\PSoC4/CSD_INT.c ****     if (((uint8)CSD_dsFlash.wdgtArray[(CSD_widgetIndex)].totalNumSns - 1u) > CSD_sensorIndex)
 219              		.loc 1 819 0
 220 0072 1B78     		ldrb	r3, [r3]
 221 0074 DA00     		lsl	r2, r3, #3
 222 0076 D31A     		sub	r3, r2, r3
 223 0078 9B00     		lsl	r3, r3, #2
 224 007a CB18     		add	r3, r1, r3
 225 007c 9B7D     		ldrb	r3, [r3, #22]
 226 007e 1F4A     		ldr	r2, .L12+8
 227 0080 1278     		ldrb	r2, [r2]
 228 0082 013B     		sub	r3, r3, #1
 229 0084 9342     		cmp	r3, r2
 230 0086 1DD9     		bls	.L9
 820:Generated_Source\PSoC4/CSD_INT.c ****     {
 821:Generated_Source\PSoC4/CSD_INT.c ****         /*  Decrement snsIndex to configure next sensor in widget */
 822:Generated_Source\PSoC4/CSD_INT.c ****         CSD_sensorIndex++;
 231              		.loc 1 822 0
 232 0088 1C4C     		ldr	r4, .L12+8
 233 008a 2378     		ldrb	r3, [r4]
 234 008c 0133     		add	r3, r3, #1
 235 008e DBB2     		uxtb	r3, r3
 236 0090 2370     		strb	r3, [r4]
 823:Generated_Source\PSoC4/CSD_INT.c **** 
 824:Generated_Source\PSoC4/CSD_INT.c ****         /*  Update global pointer to CSD_RAM_SNS_STRUCT to current sensor  */
 825:Generated_Source\PSoC4/CSD_INT.c ****         CSD_curRamSnsPtr = (CSD_RAM_SNS_STRUCT *)
 826:Generated_Source\PSoC4/CSD_INT.c ****                                                   CSD_dsFlash.wdgtArray[CSD_widgetIndex].ptr2SnsRam
 237              		.loc 1 826 0
 238 0092 184D     		ldr	r5, .L12
 239 0094 2A78     		ldrb	r2, [r5]
ARM GAS  C:\Users\Greg\AppData\Local\Temp\ccxyvtRP.s 			page 20


 240 0096 D300     		lsl	r3, r2, #3
 241 0098 9B1A     		sub	r3, r3, r2
 242 009a 9B00     		lsl	r3, r3, #2
 243 009c CB18     		add	r3, r1, r3
 244 009e 9968     		ldr	r1, [r3, #8]
 827:Generated_Source\PSoC4/CSD_INT.c ****                                                   + CSD_sensorIndex;
 245              		.loc 1 827 0
 246 00a0 2278     		ldrb	r2, [r4]
 247 00a2 9300     		lsl	r3, r2, #2
 248 00a4 9B18     		add	r3, r3, r2
 249 00a6 5B00     		lsl	r3, r3, #1
 250 00a8 CB18     		add	r3, r1, r3
 825:Generated_Source\PSoC4/CSD_INT.c ****                                                   CSD_dsFlash.wdgtArray[CSD_widgetIndex].ptr2SnsRam
 251              		.loc 1 825 0
 252 00aa 174A     		ldr	r2, .L12+20
 253 00ac 1360     		str	r3, [r2]
 828:Generated_Source\PSoC4/CSD_INT.c **** 
 829:Generated_Source\PSoC4/CSD_INT.c ****         /* Configure clock divider to row or column */
 830:Generated_Source\PSoC4/CSD_INT.c ****         #if ((CSD_DISABLE == CSD_CSD_COMMON_SNS_CLK_EN) && \
 831:Generated_Source\PSoC4/CSD_INT.c ****              (CSD_ENABLE == (CSD_CSD_MATRIX_WIDGET_EN | CSD_CSD_TOUCHPAD_WIDGET_EN)))
 832:Generated_Source\PSoC4/CSD_INT.c ****             if ((CSD_WD_TOUCHPAD_E == (CSD_WD_TYPE_ENUM)CSD_dsFlash.wdgtArray[(CSD_widgetIndex)].wd
 833:Generated_Source\PSoC4/CSD_INT.c ****                 (CSD_WD_MATRIX_BUTTON_E == (CSD_WD_TYPE_ENUM)CSD_dsFlash.wdgtArray[(CSD_widgetIndex
 834:Generated_Source\PSoC4/CSD_INT.c ****             {
 835:Generated_Source\PSoC4/CSD_INT.c ****                 CSD_SsCSDConfigClock();
 836:Generated_Source\PSoC4/CSD_INT.c **** 
 837:Generated_Source\PSoC4/CSD_INT.c ****                 #if (CSD_ENABLE == CSD_CSDV2)
 838:Generated_Source\PSoC4/CSD_INT.c ****                      /* Set up scanning resolution */
 839:Generated_Source\PSoC4/CSD_INT.c ****                     CSD_SsCSDCalculateScanDuration(ptrWdgt);
 840:Generated_Source\PSoC4/CSD_INT.c ****                 #endif /* (CSD_ENABLE == CSD_CSDV2) */
 841:Generated_Source\PSoC4/CSD_INT.c ****             }
 842:Generated_Source\PSoC4/CSD_INT.c ****         #endif /* ((CSD_DISABLE == CSD_CSD_COMMON_SNS_CLK_EN) && \
 843:Generated_Source\PSoC4/CSD_INT.c ****                    (CSD_ENABLE == (CSD_CSD_MATRIX_WIDGET_EN | CSD_CSD_TOUCHPAD_WIDGET_EN)))) */
 844:Generated_Source\PSoC4/CSD_INT.c **** 
 845:Generated_Source\PSoC4/CSD_INT.c ****         /* Setup Compensation IDAC for next sensor in widget */
 846:Generated_Source\PSoC4/CSD_INT.c ****         #if ((CSD_ENABLE == CSD_CSD_IDAC_COMP_EN) || \
 847:Generated_Source\PSoC4/CSD_INT.c ****              (CSD_ENABLE == (CSD_CSD_MATRIX_WIDGET_EN | CSD_CSD_TOUCHPAD_WIDGET_EN)))
 848:Generated_Source\PSoC4/CSD_INT.c ****             CSD_SsCSDSetUpIdacs(ptrWdgt);
 254              		.loc 1 848 0
 255 00ae FFF7FEFF 		bl	CSD_SsCSDSetUpIdacs
 256              	.LVL21:
 849:Generated_Source\PSoC4/CSD_INT.c ****         #endif /* ((CSD_ENABLE == CSD_CSD_IDAC_COMP_EN) || \
 850:Generated_Source\PSoC4/CSD_INT.c ****              (CSD_ENABLE == (CSD_CSD_MATRIX_WIDGET_EN | CSD_CSD_TOUCHPAD_WIDGET_EN)))*/
 851:Generated_Source\PSoC4/CSD_INT.c **** 
 852:Generated_Source\PSoC4/CSD_INT.c ****         /* Enable sensor */
 853:Generated_Source\PSoC4/CSD_INT.c ****         CSD_SsCSDConnectSensorExt((uint32)CSD_widgetIndex, (uint32)CSD_sensorIndex);
 257              		.loc 1 853 0
 258 00b2 2878     		ldrb	r0, [r5]
 259 00b4 C0B2     		uxtb	r0, r0
 260 00b6 2178     		ldrb	r1, [r4]
 261 00b8 C9B2     		uxtb	r1, r1
 262 00ba FFF7FEFF 		bl	CSD_SsCSDConnectSensorExt
 263              	.LVL22:
 854:Generated_Source\PSoC4/CSD_INT.c **** 
 855:Generated_Source\PSoC4/CSD_INT.c ****         /* Proceed scanning */
 856:Generated_Source\PSoC4/CSD_INT.c ****         CSD_SsCSDStartSample();
 264              		.loc 1 856 0
 265 00be FFF7FEFF 		bl	CSD_SsCSDStartSample
ARM GAS  C:\Users\Greg\AppData\Local\Temp\ccxyvtRP.s 			page 21


 266              	.LVL23:
 267 00c2 15E0     		b	.L6
 268              	.LVL24:
 269              	.L9:
 857:Generated_Source\PSoC4/CSD_INT.c ****     }
 858:Generated_Source\PSoC4/CSD_INT.c ****     /*    Call scan next widget API if requested, if not, complete the scan  */
 859:Generated_Source\PSoC4/CSD_INT.c ****     else
 860:Generated_Source\PSoC4/CSD_INT.c ****     {
 861:Generated_Source\PSoC4/CSD_INT.c ****         CSD_sensorIndex = 0u;
 270              		.loc 1 861 0
 271 00c4 0022     		mov	r2, #0
 272 00c6 0D4B     		ldr	r3, .L12+8
 273 00c8 1A70     		strb	r2, [r3]
 862:Generated_Source\PSoC4/CSD_INT.c **** 
 863:Generated_Source\PSoC4/CSD_INT.c ****         /* Current widget is totally scanned. Reset WIDGET BUSY flag */
 864:Generated_Source\PSoC4/CSD_INT.c ****         CSD_dsRam.status &= ~CSD_WDGT_SW_STS_BUSY;
 274              		.loc 1 864 0
 275 00ca 114A     		ldr	r2, .L12+28
 276 00cc 114B     		ldr	r3, .L12+32
 277 00ce 9168     		ldr	r1, [r2, #8]
 278 00d0 0B40     		and	r3, r1
 279 00d2 9360     		str	r3, [r2, #8]
 865:Generated_Source\PSoC4/CSD_INT.c **** 
 866:Generated_Source\PSoC4/CSD_INT.c ****         /* Check if all widgets have been scanned */
 867:Generated_Source\PSoC4/CSD_INT.c ****         if (CSD_ENABLE == CSD_requestScanAllWidget)
 280              		.loc 1 867 0
 281 00d4 104A     		ldr	r2, .L12+36
 282 00d6 1278     		ldrb	r2, [r2]
 283 00d8 012A     		cmp	r2, #1
 284 00da 02D1     		bne	.L11
 868:Generated_Source\PSoC4/CSD_INT.c ****         {
 869:Generated_Source\PSoC4/CSD_INT.c ****             /* Configure and begin scanning next widget */
 870:Generated_Source\PSoC4/CSD_INT.c ****             CSD_SsPostAllWidgetsScan();
 285              		.loc 1 870 0
 286 00dc FFF7FEFF 		bl	CSD_SsPostAllWidgetsScan
 287              	.LVL25:
 288 00e0 06E0     		b	.L6
 289              	.LVL26:
 290              	.L11:
 871:Generated_Source\PSoC4/CSD_INT.c ****         }
 872:Generated_Source\PSoC4/CSD_INT.c ****         else
 873:Generated_Source\PSoC4/CSD_INT.c ****         {
 874:Generated_Source\PSoC4/CSD_INT.c ****             #if (CSD_ENABLE == CSD_BLOCK_OFF_AFTER_SCAN_EN)
 875:Generated_Source\PSoC4/CSD_INT.c ****                 #if (CSD_ENABLE == CSD_CSDV2)
 876:Generated_Source\PSoC4/CSD_INT.c ****                     /*  Disable the CSD block */
 877:Generated_Source\PSoC4/CSD_INT.c ****                     CY_SET_REG32(CSD_CONFIG_PTR, CSD_configCsd);
 878:Generated_Source\PSoC4/CSD_INT.c ****                 #else
 879:Generated_Source\PSoC4/CSD_INT.c ****                     /*  Disable the CSD block. Connect Vref Buffer to AMUX bus */
 880:Generated_Source\PSoC4/CSD_INT.c ****                     #if ((CSD_CSH_PRECHARGE_IO_BUF == CSD_CSD_CSH_PRECHARGE_SRC) &&\
 881:Generated_Source\PSoC4/CSD_INT.c ****                          (CSD_ENABLE == CSD_CSD_SHIELD_TANK_EN))
 882:Generated_Source\PSoC4/CSD_INT.c ****                         CY_SET_REG32(CSD_CONFIG_PTR, CSD_configCsd | CSD_CMOD_PRECHARGE_CONFIG);
 883:Generated_Source\PSoC4/CSD_INT.c ****                     #else
 884:Generated_Source\PSoC4/CSD_INT.c ****                         CY_SET_REG32(CSD_CONFIG_PTR, CSD_configCsd | CSD_CTANK_PRECHARGE_CONFIG);
 885:Generated_Source\PSoC4/CSD_INT.c ****                     #endif /* ((CSD_CSH_PRECHARGE_IO_BUF == CSD_CSD_CSH_PRECHARGE_SRC) &&\
 886:Generated_Source\PSoC4/CSD_INT.c ****                                (CSD_ENABLE == CSD_CSD_SHIELD_TANK_EN)) */
 887:Generated_Source\PSoC4/CSD_INT.c ****                 #endif /* (CSD_ENABLE == CSD_CSDV2) */
 888:Generated_Source\PSoC4/CSD_INT.c ****             #endif /* (CSD_ENABLE == CSD_BLOCK_OFF_AFTER_SCAN_EN) */
ARM GAS  C:\Users\Greg\AppData\Local\Temp\ccxyvtRP.s 			page 22


 889:Generated_Source\PSoC4/CSD_INT.c **** 
 890:Generated_Source\PSoC4/CSD_INT.c ****             /* All widgets are totally scanned. Reset BUSY flag */
 891:Generated_Source\PSoC4/CSD_INT.c ****             CSD_dsRam.status &= ~CSD_SW_STS_BUSY;
 291              		.loc 1 891 0
 292 00e2 0B4A     		ldr	r2, .L12+28
 293 00e4 8021     		mov	r1, #128
 294 00e6 8B43     		bic	r3, r1
 295 00e8 9360     		str	r3, [r2, #8]
 892:Generated_Source\PSoC4/CSD_INT.c **** 
 893:Generated_Source\PSoC4/CSD_INT.c ****             /* Update scan Counter */
 894:Generated_Source\PSoC4/CSD_INT.c ****             CSD_dsRam.scanCounter++;
 296              		.loc 1 894 0
 297 00ea D388     		ldrh	r3, [r2, #6]
 298 00ec 0133     		add	r3, r3, #1
 299 00ee D380     		strh	r3, [r2, #6]
 300              	.LVL27:
 301              	.L6:
 302              	.LBE13:
 303              	.LBE12:
 310:Generated_Source\PSoC4/CSD_INT.c **** 
 304              		.loc 1 310 0
 305              		@ sp needed
 306 00f0 38BD     		pop	{r3, r4, r5, pc}
 307              	.L13:
 308 00f2 C046     		.align	2
 309              	.L12:
 310 00f4 00000000 		.word	CSD_widgetIndex
 311 00f8 00000000 		.word	CSD_dsFlash
 312 00fc 00000000 		.word	CSD_sensorIndex
 313 0100 F0000C40 		.word	1074528496
 314 0104 D0000C40 		.word	1074528464
 315 0108 00000000 		.word	CSD_curRamSnsPtr
 316 010c 00000000 		.word	CSD_scanFreqIndex
 317 0110 00000000 		.word	CSD_dsRam
 318 0114 FFFFFEFF 		.word	-65537
 319 0118 00000000 		.word	CSD_requestScanAllWidget
 320              		.cfi_endproc
 321              	.LFE2:
 322              		.size	CSD_CSDPostMultiScan, .-CSD_CSDPostMultiScan
 323              		.text
 324              	.Letext0:
 325              		.file 2 "Generated_Source\\PSoC4\\cytypes.h"
 326              		.file 3 "Generated_Source\\PSoC4\\CSD_Configuration.h"
 327              		.file 4 "Generated_Source\\PSoC4\\CSD_Structure.h"
 328              		.file 5 "Generated_Source\\PSoC4\\CSD_Sensing.h"
 329              		.file 6 "Generated_Source\\PSoC4\\CSD_SensingCSD_LL.h"