ARM GAS  C:\Users\Greg\AppData\Local\Temp\cczebQkf.s 			page 1


   1              		.cpu cortex-m0plus
   2              		.fpu softvfp
   3              		.eabi_attribute 20, 1
   4              		.eabi_attribute 21, 1
   5              		.eabi_attribute 23, 3
   6              		.eabi_attribute 24, 1
   7              		.eabi_attribute 25, 1
   8              		.eabi_attribute 26, 1
   9              		.eabi_attribute 30, 1
  10              		.eabi_attribute 34, 0
  11              		.eabi_attribute 18, 4
  12              		.code	16
  13              		.file	"CSD_Structure.c"
  14              		.text
  15              	.Ltext0:
  16              		.cfi_sections	.debug_frame
  17              		.section	.text.DsParseParamId,"ax",%progbits
  18              		.align	2
  19              		.code	16
  20              		.thumb_func
  21              		.type	DsParseParamId, %function
  22              	DsParseParamId:
  23              	.LFB2:
  24              		.file 1 "Generated_Source\\PSoC4\\CSD_Structure.c"
   1:Generated_Source\PSoC4/CSD_Structure.c **** /***************************************************************************//**
   2:Generated_Source\PSoC4/CSD_Structure.c **** * \file CSD_Structure.c
   3:Generated_Source\PSoC4/CSD_Structure.c **** * \version 3.10
   4:Generated_Source\PSoC4/CSD_Structure.c **** *
   5:Generated_Source\PSoC4/CSD_Structure.c **** * \brief
   6:Generated_Source\PSoC4/CSD_Structure.c **** *   This file defines the data structure global variables and provides implementation
   7:Generated_Source\PSoC4/CSD_Structure.c **** *   for the high-level and low-level APIs of the Data Structure module.
   8:Generated_Source\PSoC4/CSD_Structure.c **** *
   9:Generated_Source\PSoC4/CSD_Structure.c **** * \see CapSense P4 v3.10 Datasheet
  10:Generated_Source\PSoC4/CSD_Structure.c **** *
  11:Generated_Source\PSoC4/CSD_Structure.c **** *//*****************************************************************************
  12:Generated_Source\PSoC4/CSD_Structure.c **** * Copyright (2016), Cypress Semiconductor Corporation.
  13:Generated_Source\PSoC4/CSD_Structure.c **** ********************************************************************************
  14:Generated_Source\PSoC4/CSD_Structure.c **** * This software is owned by Cypress Semiconductor Corporation (Cypress) and is
  15:Generated_Source\PSoC4/CSD_Structure.c **** * protected by and subject to worldwide patent protection (United States and
  16:Generated_Source\PSoC4/CSD_Structure.c **** * foreign), United States copyright laws and international treaty provisions.
  17:Generated_Source\PSoC4/CSD_Structure.c **** * Cypress hereby grants to licensee a personal, non-exclusive, non-transferable
  18:Generated_Source\PSoC4/CSD_Structure.c **** * license to copy, use, modify, create derivative works of, and compile the
  19:Generated_Source\PSoC4/CSD_Structure.c **** * Cypress Source Code and derivative works for the sole purpose of creating
  20:Generated_Source\PSoC4/CSD_Structure.c **** * custom software in support of licensee product to be used only in conjunction
  21:Generated_Source\PSoC4/CSD_Structure.c **** * with a Cypress integrated circuit as specified in the applicable agreement.
  22:Generated_Source\PSoC4/CSD_Structure.c **** * Any reproduction, modification, translation, compilation, or representation of
  23:Generated_Source\PSoC4/CSD_Structure.c **** * this software except as specified above is prohibited without the express
  24:Generated_Source\PSoC4/CSD_Structure.c **** * written permission of Cypress.
  25:Generated_Source\PSoC4/CSD_Structure.c **** *
  26:Generated_Source\PSoC4/CSD_Structure.c **** * Disclaimer: CYPRESS MAKES NO WARRANTY OF ANY KIND, EXPRESS OR IMPLIED, WITH
  27:Generated_Source\PSoC4/CSD_Structure.c **** * REGARD TO THIS MATERIAL, INCLUDING, BUT NOT LIMITED TO, THE IMPLIED
  28:Generated_Source\PSoC4/CSD_Structure.c **** * WARRANTIES OF MERCHANTABILITY AND FITNESS FOR A PARTICULAR PURPOSE.
  29:Generated_Source\PSoC4/CSD_Structure.c **** * Cypress reserves the right to make changes without further notice to the
  30:Generated_Source\PSoC4/CSD_Structure.c **** * materials described herein. Cypress does not assume any liability arising out
  31:Generated_Source\PSoC4/CSD_Structure.c **** * of the application or use of any product or circuit described herein. Cypress
  32:Generated_Source\PSoC4/CSD_Structure.c **** * does not authorize its products for use as critical components in life-support
  33:Generated_Source\PSoC4/CSD_Structure.c **** * systems where a malfunction or failure may reasonably be expected to result in
ARM GAS  C:\Users\Greg\AppData\Local\Temp\cczebQkf.s 			page 2


  34:Generated_Source\PSoC4/CSD_Structure.c **** * significant injury to the user. The inclusion of Cypress' product in a life-
  35:Generated_Source\PSoC4/CSD_Structure.c **** * support systems application implies that the manufacturer assumes all risk of
  36:Generated_Source\PSoC4/CSD_Structure.c **** * such use and in doing so indemnifies Cypress against all charges. Use may be
  37:Generated_Source\PSoC4/CSD_Structure.c **** * limited by and subject to the applicable Cypress software license agreement.
  38:Generated_Source\PSoC4/CSD_Structure.c **** *******************************************************************************/
  39:Generated_Source\PSoC4/CSD_Structure.c **** 
  40:Generated_Source\PSoC4/CSD_Structure.c **** #include <cytypes.h>
  41:Generated_Source\PSoC4/CSD_Structure.c **** #include "CyLib.h"
  42:Generated_Source\PSoC4/CSD_Structure.c **** #include "CSD_Structure.h"
  43:Generated_Source\PSoC4/CSD_Structure.c **** #include "CSD_Configuration.h"
  44:Generated_Source\PSoC4/CSD_Structure.c **** 
  45:Generated_Source\PSoC4/CSD_Structure.c **** #if (0u != CSD_ADC_EN)
  46:Generated_Source\PSoC4/CSD_Structure.c ****     #include "CSD_Adc.h"
  47:Generated_Source\PSoC4/CSD_Structure.c **** #endif /* (0u != CSD_ADC_EN) */
  48:Generated_Source\PSoC4/CSD_Structure.c **** 
  49:Generated_Source\PSoC4/CSD_Structure.c **** #if (CSD_ENABLE == CSD_SELF_TEST_EN)
  50:Generated_Source\PSoC4/CSD_Structure.c ****     #include "CSD_SelfTest.h"
  51:Generated_Source\PSoC4/CSD_Structure.c **** #endif
  52:Generated_Source\PSoC4/CSD_Structure.c **** 
  53:Generated_Source\PSoC4/CSD_Structure.c **** /*******************************************************************************
  54:Generated_Source\PSoC4/CSD_Structure.c **** * Define the RAM Data Structure variables and their init data in flash
  55:Generated_Source\PSoC4/CSD_Structure.c **** *******************************************************************************/
  56:Generated_Source\PSoC4/CSD_Structure.c **** /**
  57:Generated_Source\PSoC4/CSD_Structure.c **** * \if SECTION_GLOBAL_VARIABLES
  58:Generated_Source\PSoC4/CSD_Structure.c **** * \addtogroup group_global_variables
  59:Generated_Source\PSoC4/CSD_Structure.c **** * \{
  60:Generated_Source\PSoC4/CSD_Structure.c **** */
  61:Generated_Source\PSoC4/CSD_Structure.c **** 
  62:Generated_Source\PSoC4/CSD_Structure.c **** /**
  63:Generated_Source\PSoC4/CSD_Structure.c **** * Variable that contains CSD configuration, settings and scanning results.
  64:Generated_Source\PSoC4/CSD_Structure.c **** * CSD_dsRam represents RAM Data Structure.
  65:Generated_Source\PSoC4/CSD_Structure.c **** */
  66:Generated_Source\PSoC4/CSD_Structure.c **** CSD_RAM_STRUCT CSD_dsRam;
  67:Generated_Source\PSoC4/CSD_Structure.c **** /** \}
  68:Generated_Source\PSoC4/CSD_Structure.c **** * \endif */
  69:Generated_Source\PSoC4/CSD_Structure.c **** 
  70:Generated_Source\PSoC4/CSD_Structure.c **** /*******************************************************************************
  71:Generated_Source\PSoC4/CSD_Structure.c **** * Declare Widget's De-bounce Counters
  72:Generated_Source\PSoC4/CSD_Structure.c **** *******************************************************************************/
  73:Generated_Source\PSoC4/CSD_Structure.c **** static uint8 CSD_debounceButton0[CSD_BUTTON0_NUM_SENSORS];
  74:Generated_Source\PSoC4/CSD_Structure.c **** 
  75:Generated_Source\PSoC4/CSD_Structure.c **** 
  76:Generated_Source\PSoC4/CSD_Structure.c **** /***************************************************************************//**
  77:Generated_Source\PSoC4/CSD_Structure.c **** * Declare Filter History Objects
  78:Generated_Source\PSoC4/CSD_Structure.c **** *******************************************************************************/
  79:Generated_Source\PSoC4/CSD_Structure.c **** static CSD_REGULAR_FLTR_STRUCT CSD_fltrHistoryButton0[CSD_BUTTON0_NUM_SENSORS];
  80:Generated_Source\PSoC4/CSD_Structure.c **** 
  81:Generated_Source\PSoC4/CSD_Structure.c **** /*******************************************************************************
  82:Generated_Source\PSoC4/CSD_Structure.c **** * Define and initialize the Flash Data Structure
  83:Generated_Source\PSoC4/CSD_Structure.c **** *******************************************************************************/
  84:Generated_Source\PSoC4/CSD_Structure.c **** 
  85:Generated_Source\PSoC4/CSD_Structure.c **** /**
  86:Generated_Source\PSoC4/CSD_Structure.c **** * \if SECTION_API_CONSTANTS
  87:Generated_Source\PSoC4/CSD_Structure.c **** * \addtogroup group_api_constants
  88:Generated_Source\PSoC4/CSD_Structure.c **** * \{
  89:Generated_Source\PSoC4/CSD_Structure.c **** */
  90:Generated_Source\PSoC4/CSD_Structure.c **** 
ARM GAS  C:\Users\Greg\AppData\Local\Temp\cczebQkf.s 			page 3


  91:Generated_Source\PSoC4/CSD_Structure.c **** /**
  92:Generated_Source\PSoC4/CSD_Structure.c **** * Constant for the FLASH Data Structure
  93:Generated_Source\PSoC4/CSD_Structure.c **** */
  94:Generated_Source\PSoC4/CSD_Structure.c **** const CSD_FLASH_STRUCT CSD_dsFlash =
  95:Generated_Source\PSoC4/CSD_Structure.c **** {
  96:Generated_Source\PSoC4/CSD_Structure.c ****     /* Flash Widget Initialization Data */
  97:Generated_Source\PSoC4/CSD_Structure.c ****     {
  98:Generated_Source\PSoC4/CSD_Structure.c ****         { /* Button0 */
  99:Generated_Source\PSoC4/CSD_Structure.c ****             &CSD_ioList[0u],
 100:Generated_Source\PSoC4/CSD_Structure.c ****             (void *)&CSD_dsRam.wdgtList.button0,
 101:Generated_Source\PSoC4/CSD_Structure.c ****             CSD_dsRam.snsList.button0,
 102:Generated_Source\PSoC4/CSD_Structure.c ****             (void *)CSD_fltrHistoryButton0,
 103:Generated_Source\PSoC4/CSD_Structure.c ****             CSD_debounceButton0,
 104:Generated_Source\PSoC4/CSD_Structure.c ****             CSD_BUTTON0_STATIC_CONFIG,
 105:Generated_Source\PSoC4/CSD_Structure.c ****             CSD_BUTTON0_NUM_SENSORS,
 106:Generated_Source\PSoC4/CSD_Structure.c ****             (uint8)CSD_WD_BUTTON_E,
 107:Generated_Source\PSoC4/CSD_Structure.c ****             CSD_BUTTON0_NUM_SENSORS,
 108:Generated_Source\PSoC4/CSD_Structure.c ****         },
 109:Generated_Source\PSoC4/CSD_Structure.c ****     },
 110:Generated_Source\PSoC4/CSD_Structure.c **** };
 111:Generated_Source\PSoC4/CSD_Structure.c **** 
 112:Generated_Source\PSoC4/CSD_Structure.c **** 
 113:Generated_Source\PSoC4/CSD_Structure.c **** /**
 114:Generated_Source\PSoC4/CSD_Structure.c **** * Array of pointers to the electrode specific register
 115:Generated_Source\PSoC4/CSD_Structure.c **** */
 116:Generated_Source\PSoC4/CSD_Structure.c **** const CSD_FLASH_IO_STRUCT CSD_ioList[CSD_TOTAL_ELECTRODES] =
 117:Generated_Source\PSoC4/CSD_Structure.c **** {
 118:Generated_Source\PSoC4/CSD_Structure.c ****     { /* 0: Button0_Sns0 */
 119:Generated_Source\PSoC4/CSD_Structure.c ****         (reg32 *)CSD_Sns__0__HSIOM,
 120:Generated_Source\PSoC4/CSD_Structure.c ****         (reg32 *)CSD_Sns__0__PC,
 121:Generated_Source\PSoC4/CSD_Structure.c ****         (reg32 *)CSD_Sns__0__DR,
 122:Generated_Source\PSoC4/CSD_Structure.c ****         (reg32 *)CSD_Sns__0__PS,
 123:Generated_Source\PSoC4/CSD_Structure.c ****         CSD_Sns__0__HSIOM_MASK,
 124:Generated_Source\PSoC4/CSD_Structure.c ****         CSD_Sns__0__MASK,
 125:Generated_Source\PSoC4/CSD_Structure.c ****         CSD_Sns__0__HSIOM_SHIFT,
 126:Generated_Source\PSoC4/CSD_Structure.c ****         (uint8)CSD_Sns__0__SHIFT,
 127:Generated_Source\PSoC4/CSD_Structure.c ****         (uint8)CSD_Sns__0__SHIFT * 3u,
 128:Generated_Source\PSoC4/CSD_Structure.c ****     },
 129:Generated_Source\PSoC4/CSD_Structure.c ****     { /* 1: Button0_Sns1 */
 130:Generated_Source\PSoC4/CSD_Structure.c ****         (reg32 *)CSD_Sns__1__HSIOM,
 131:Generated_Source\PSoC4/CSD_Structure.c ****         (reg32 *)CSD_Sns__1__PC,
 132:Generated_Source\PSoC4/CSD_Structure.c ****         (reg32 *)CSD_Sns__1__DR,
 133:Generated_Source\PSoC4/CSD_Structure.c ****         (reg32 *)CSD_Sns__1__PS,
 134:Generated_Source\PSoC4/CSD_Structure.c ****         CSD_Sns__1__HSIOM_MASK,
 135:Generated_Source\PSoC4/CSD_Structure.c ****         CSD_Sns__1__MASK,
 136:Generated_Source\PSoC4/CSD_Structure.c ****         CSD_Sns__1__HSIOM_SHIFT,
 137:Generated_Source\PSoC4/CSD_Structure.c ****         (uint8)CSD_Sns__1__SHIFT,
 138:Generated_Source\PSoC4/CSD_Structure.c ****         (uint8)CSD_Sns__1__SHIFT * 3u,
 139:Generated_Source\PSoC4/CSD_Structure.c ****     },
 140:Generated_Source\PSoC4/CSD_Structure.c **** };
 141:Generated_Source\PSoC4/CSD_Structure.c **** 
 142:Generated_Source\PSoC4/CSD_Structure.c **** 
 143:Generated_Source\PSoC4/CSD_Structure.c **** 
 144:Generated_Source\PSoC4/CSD_Structure.c **** /** \}
 145:Generated_Source\PSoC4/CSD_Structure.c **** * \endif */
 146:Generated_Source\PSoC4/CSD_Structure.c **** 
 147:Generated_Source\PSoC4/CSD_Structure.c **** /* Initialization data for RAM widget list */
ARM GAS  C:\Users\Greg\AppData\Local\Temp\cczebQkf.s 			page 4


 148:Generated_Source\PSoC4/CSD_Structure.c **** static const CSD_RAM_WD_LIST_STRUCT CSD_ramWidgetInit =
 149:Generated_Source\PSoC4/CSD_Structure.c **** {
 150:Generated_Source\PSoC4/CSD_Structure.c ****     { /* Button0 */
 151:Generated_Source\PSoC4/CSD_Structure.c ****         CSD_BUTTON0_RESOLUTION,
 152:Generated_Source\PSoC4/CSD_Structure.c ****         CSD_BUTTON0_FINGER_TH,
 153:Generated_Source\PSoC4/CSD_Structure.c ****         CSD_BUTTON0_NOISE_TH,
 154:Generated_Source\PSoC4/CSD_Structure.c ****         CSD_BUTTON0_NNOISE_TH,
 155:Generated_Source\PSoC4/CSD_Structure.c ****         CSD_BUTTON0_HYSTERESIS,
 156:Generated_Source\PSoC4/CSD_Structure.c ****         CSD_BUTTON0_ON_DEBOUNCE,
 157:Generated_Source\PSoC4/CSD_Structure.c ****         CSD_BUTTON0_LOW_BSLN_RST,
 158:Generated_Source\PSoC4/CSD_Structure.c ****         CSD_BUTTON0_BSLN_COEFF,
 159:Generated_Source\PSoC4/CSD_Structure.c ****         {
 160:Generated_Source\PSoC4/CSD_Structure.c ****             CSD_BUTTON0_IDAC_MOD0,
 161:Generated_Source\PSoC4/CSD_Structure.c ****         },
 162:Generated_Source\PSoC4/CSD_Structure.c ****         CSD_BUTTON0_SNS_CLK,
 163:Generated_Source\PSoC4/CSD_Structure.c ****         CSD_BUTTON0_SNS_CLK_SOURCE,
 164:Generated_Source\PSoC4/CSD_Structure.c ****     },
 165:Generated_Source\PSoC4/CSD_Structure.c **** };
 166:Generated_Source\PSoC4/CSD_Structure.c **** 
 167:Generated_Source\PSoC4/CSD_Structure.c **** 
 168:Generated_Source\PSoC4/CSD_Structure.c **** /* IDAC Initialization Data */
 169:Generated_Source\PSoC4/CSD_Structure.c **** static const uint8 CSD_ramIdacInit[CSD_TOTAL_SENSORS] =
 170:Generated_Source\PSoC4/CSD_Structure.c **** {
 171:Generated_Source\PSoC4/CSD_Structure.c ****     /* Button0 */
 172:Generated_Source\PSoC4/CSD_Structure.c ****     CSD_BUTTON0_SNS0_IDAC_COMP0,
 173:Generated_Source\PSoC4/CSD_Structure.c ****     CSD_BUTTON0_SNS1_IDAC_COMP0,
 174:Generated_Source\PSoC4/CSD_Structure.c **** };
 175:Generated_Source\PSoC4/CSD_Structure.c **** 
 176:Generated_Source\PSoC4/CSD_Structure.c **** 
 177:Generated_Source\PSoC4/CSD_Structure.c **** /*******************************************************************************
 178:Generated_Source\PSoC4/CSD_Structure.c **** * Define internal data types and statements
 179:Generated_Source\PSoC4/CSD_Structure.c **** *******************************************************************************/
 180:Generated_Source\PSoC4/CSD_Structure.c **** #define PARAM_TYPE_OFFSET       (30u)
 181:Generated_Source\PSoC4/CSD_Structure.c **** #define PARAM_TYPE_MASK         (3Lu << PARAM_TYPE_OFFSET)
 182:Generated_Source\PSoC4/CSD_Structure.c **** #define PARAM_RWBIT_OFFSET      (29u)
 183:Generated_Source\PSoC4/CSD_Structure.c **** #define PARAM_RWBIT_MASK        (1Lu << PARAM_RWBIT_OFFSET)
 184:Generated_Source\PSoC4/CSD_Structure.c **** #define PARAM_FBIT_OFFSET       (28u)
 185:Generated_Source\PSoC4/CSD_Structure.c **** #define PARAM_FBIT_MASK         (1Lu << PARAM_FBIT_OFFSET)
 186:Generated_Source\PSoC4/CSD_Structure.c **** #define PARAM_UBIT_OFFSET       (23u)
 187:Generated_Source\PSoC4/CSD_Structure.c **** #define PARAM_UBIT_MASK         (1Lu << PARAM_UBIT_OFFSET)
 188:Generated_Source\PSoC4/CSD_Structure.c **** #define PARAM_WDID_OFFSET       (16u)
 189:Generated_Source\PSoC4/CSD_Structure.c **** #define PARAM_WDID_MASK         (0x7FLu << PARAM_WDID_OFFSET)
 190:Generated_Source\PSoC4/CSD_Structure.c **** #define PARAM_CRC_OFFSET        (24u)
 191:Generated_Source\PSoC4/CSD_Structure.c **** #define PARAM_CRC_MASK          (0x0FLu << PARAM_CRC_OFFSET)
 192:Generated_Source\PSoC4/CSD_Structure.c **** 
 193:Generated_Source\PSoC4/CSD_Structure.c **** /* Define align masks for uint16 and uint32 */
 194:Generated_Source\PSoC4/CSD_Structure.c **** #define UINT16_ALIGN_MASK       (1Lu)
 195:Generated_Source\PSoC4/CSD_Structure.c **** #define UINT32_ALIGN_MASK       (3Lu)
 196:Generated_Source\PSoC4/CSD_Structure.c **** 
 197:Generated_Source\PSoC4/CSD_Structure.c **** /* Define supported parameter types */
 198:Generated_Source\PSoC4/CSD_Structure.c **** #define DS_PARAM_TYPE_UINT8     (0x01u)
 199:Generated_Source\PSoC4/CSD_Structure.c **** #define DS_PARAM_TYPE_UINT16    (0x02u)
 200:Generated_Source\PSoC4/CSD_Structure.c **** #define DS_PARAM_TYPE_UINT32    (0x03u)
 201:Generated_Source\PSoC4/CSD_Structure.c **** 
 202:Generated_Source\PSoC4/CSD_Structure.c **** 
 203:Generated_Source\PSoC4/CSD_Structure.c **** /* Define PARAM_ID structure */
 204:Generated_Source\PSoC4/CSD_Structure.c **** typedef struct
ARM GAS  C:\Users\Greg\AppData\Local\Temp\cczebQkf.s 			page 5


 205:Generated_Source\PSoC4/CSD_Structure.c **** {
 206:Generated_Source\PSoC4/CSD_Structure.c ****     uint16 offset;      /* parameter offset                     */
 207:Generated_Source\PSoC4/CSD_Structure.c ****     uint8  widgetId;    /* widget Id parameter belongs to       */
 208:Generated_Source\PSoC4/CSD_Structure.c ****     uint8  affectsCrc;  /* parameter affects widget CRC         */
 209:Generated_Source\PSoC4/CSD_Structure.c ****     uint8  crc;         /* parameter CRC                        */
 210:Generated_Source\PSoC4/CSD_Structure.c ****     uint8  flash;       /* parameter located in FLASH flag      */
 211:Generated_Source\PSoC4/CSD_Structure.c ****     uint8  rw;          /* parameter is read/write flag         */
 212:Generated_Source\PSoC4/CSD_Structure.c ****     uint8  type;        /* parameter type: uint8/uint16/uint32  */
 213:Generated_Source\PSoC4/CSD_Structure.c **** } PARAM_ID_STRUCT;
 214:Generated_Source\PSoC4/CSD_Structure.c **** 
 215:Generated_Source\PSoC4/CSD_Structure.c **** 
 216:Generated_Source\PSoC4/CSD_Structure.c **** /*******************************************************************************
 217:Generated_Source\PSoC4/CSD_Structure.c **** * Static Function Prototypes
 218:Generated_Source\PSoC4/CSD_Structure.c **** *******************************************************************************/
 219:Generated_Source\PSoC4/CSD_Structure.c **** /**
 220:Generated_Source\PSoC4/CSD_Structure.c **** * \if SECTION_CAPSENSE_INTERNAL
 221:Generated_Source\PSoC4/CSD_Structure.c **** * \addtogroup group_capsense_internal
 222:Generated_Source\PSoC4/CSD_Structure.c **** * \{
 223:Generated_Source\PSoC4/CSD_Structure.c **** */
 224:Generated_Source\PSoC4/CSD_Structure.c **** 
 225:Generated_Source\PSoC4/CSD_Structure.c **** static cystatus DsParseParamId(uint32 paramId, PARAM_ID_STRUCT *pData);
 226:Generated_Source\PSoC4/CSD_Structure.c **** 
 227:Generated_Source\PSoC4/CSD_Structure.c **** /** \}
 228:Generated_Source\PSoC4/CSD_Structure.c **** * \endif */
 229:Generated_Source\PSoC4/CSD_Structure.c **** 
 230:Generated_Source\PSoC4/CSD_Structure.c **** 
 231:Generated_Source\PSoC4/CSD_Structure.c **** /*******************************************************************************
 232:Generated_Source\PSoC4/CSD_Structure.c **** * Function Name: CSD_DsInitialize
 233:Generated_Source\PSoC4/CSD_Structure.c **** ****************************************************************************//**
 234:Generated_Source\PSoC4/CSD_Structure.c **** *
 235:Generated_Source\PSoC4/CSD_Structure.c **** * \brief
 236:Generated_Source\PSoC4/CSD_Structure.c **** *   This function initializes the Data Structure storage.
 237:Generated_Source\PSoC4/CSD_Structure.c **** *
 238:Generated_Source\PSoC4/CSD_Structure.c **** * \details
 239:Generated_Source\PSoC4/CSD_Structure.c **** *   This function copies the default widget configuration parameters 
 240:Generated_Source\PSoC4/CSD_Structure.c **** *   from the Flash storage into the RAM Data Structure.
 241:Generated_Source\PSoC4/CSD_Structure.c **** *
 242:Generated_Source\PSoC4/CSD_Structure.c **** *******************************************************************************/
 243:Generated_Source\PSoC4/CSD_Structure.c **** void CSD_DsInitialize(void)
 244:Generated_Source\PSoC4/CSD_Structure.c **** {
 245:Generated_Source\PSoC4/CSD_Structure.c ****     #if (0u != CSD_CSX_EN) || (0 != CSD_CSD_IDAC_COMP_EN)
 246:Generated_Source\PSoC4/CSD_Structure.c ****         uint32 snsId;
 247:Generated_Source\PSoC4/CSD_Structure.c ****         uint32 wdgtId;
 248:Generated_Source\PSoC4/CSD_Structure.c ****     
 249:Generated_Source\PSoC4/CSD_Structure.c ****         CSD_RAM_SNS_STRUCT * ptrSns;
 250:Generated_Source\PSoC4/CSD_Structure.c ****         CSD_FLASH_WD_STRUCT const * ptrFlashWdgt;
 251:Generated_Source\PSoC4/CSD_Structure.c ****         uint8 const * ptrIdacInit = CSD_ramIdacInit;
 252:Generated_Source\PSoC4/CSD_Structure.c ****     #endif        
 253:Generated_Source\PSoC4/CSD_Structure.c ****     
 254:Generated_Source\PSoC4/CSD_Structure.c ****     /* Reset RAM data structure content */
 255:Generated_Source\PSoC4/CSD_Structure.c ****     (void)memset(&CSD_dsRam, 0, sizeof(CSD_dsRam));
 256:Generated_Source\PSoC4/CSD_Structure.c ****     
 257:Generated_Source\PSoC4/CSD_Structure.c ****     /* Initialize configId and deviceId registers */
 258:Generated_Source\PSoC4/CSD_Structure.c ****     CSD_dsRam.configId = CSD_CONFIG_ID;
 259:Generated_Source\PSoC4/CSD_Structure.c ****     CSD_dsRam.deviceId = CSD_DEVICE_ID;
 260:Generated_Source\PSoC4/CSD_Structure.c ****     
 261:Generated_Source\PSoC4/CSD_Structure.c ****     /* Initialize global RAM data */
ARM GAS  C:\Users\Greg\AppData\Local\Temp\cczebQkf.s 			page 6


 262:Generated_Source\PSoC4/CSD_Structure.c ****     CSD_dsRam.csd0Config = CSD_CSD0_CONFIG;
 263:Generated_Source\PSoC4/CSD_Structure.c **** 
 264:Generated_Source\PSoC4/CSD_Structure.c ****     #if ((0u != CSD_CSD2X_EN) || (0u != CSD_CSX2X_EN))
 265:Generated_Source\PSoC4/CSD_Structure.c ****         CSD_dsRam.csd1Config = CSD_CSD1_CONFIG;
 266:Generated_Source\PSoC4/CSD_Structure.c ****     #endif /* #if ((0u != CSD_CSD2X_EN) || (0u != CSD_CSX2X_EN)) */
 267:Generated_Source\PSoC4/CSD_Structure.c ****     
 268:Generated_Source\PSoC4/CSD_Structure.c ****     #if (0u != CSD_TOTAL_CSD_WIDGETS)
 269:Generated_Source\PSoC4/CSD_Structure.c ****         CSD_dsRam.modCsdClk = CSD_CSD_SCANSPEED_DIVIDER;
 270:Generated_Source\PSoC4/CSD_Structure.c ****         
 271:Generated_Source\PSoC4/CSD_Structure.c ****         #if (0u != CSD_CSD_COMMON_SNS_CLK_EN)
 272:Generated_Source\PSoC4/CSD_Structure.c ****             CSD_dsRam.snsCsdClk = CSD_CSD_SNS_CLK_DIVIDER;
 273:Generated_Source\PSoC4/CSD_Structure.c ****         #endif /* #if (0u != CSD_CSD_COMMON_SNS_CLK_EN) */
 274:Generated_Source\PSoC4/CSD_Structure.c ****     #endif /* #if (0u != CSD_TOTAL_CSD_WIDGETS) */
 275:Generated_Source\PSoC4/CSD_Structure.c ****     
 276:Generated_Source\PSoC4/CSD_Structure.c ****     #if (0u != CSD_CSX_EN)
 277:Generated_Source\PSoC4/CSD_Structure.c ****         CSD_dsRam.modCsxClk = CSD_CSX_SCANSPEED_DIVIDER;
 278:Generated_Source\PSoC4/CSD_Structure.c ****         
 279:Generated_Source\PSoC4/CSD_Structure.c ****         #if (0u != CSD_CSX_COMMON_TX_CLK_EN)
 280:Generated_Source\PSoC4/CSD_Structure.c ****             CSD_dsRam.snsCsxClk = CSD_CSX_TX_CLK_DIVIDER;
 281:Generated_Source\PSoC4/CSD_Structure.c ****         #endif /* #if (0u != CSD_CSX_COMMON_TX_CLK_EN) */
 282:Generated_Source\PSoC4/CSD_Structure.c ****     #endif /* #if (0u != CSD_CSX_EN) */
 283:Generated_Source\PSoC4/CSD_Structure.c ****     
 284:Generated_Source\PSoC4/CSD_Structure.c ****     #if (0u != CSD_SELF_TEST_EN)
 285:Generated_Source\PSoC4/CSD_Structure.c ****         CSD_dsRam.glbCrc = CSD_GLB_CRC;
 286:Generated_Source\PSoC4/CSD_Structure.c ****     #endif /* #if (0u != CSD_SELF_TEST_EN) */
 287:Generated_Source\PSoC4/CSD_Structure.c ****    
 288:Generated_Source\PSoC4/CSD_Structure.c ****     /* Initialize RAM widget data */
 289:Generated_Source\PSoC4/CSD_Structure.c ****     CSD_dsRam.wdgtList = CSD_ramWidgetInit;
 290:Generated_Source\PSoC4/CSD_Structure.c ****     
 291:Generated_Source\PSoC4/CSD_Structure.c ****     #if (0u != CSD_CSX_EN) || (0 != CSD_CSD_IDAC_COMP_EN)
 292:Generated_Source\PSoC4/CSD_Structure.c ****         /* Initialize IDAC data */
 293:Generated_Source\PSoC4/CSD_Structure.c ****         ptrFlashWdgt = CSD_dsFlash.wdgtArray;
 294:Generated_Source\PSoC4/CSD_Structure.c ****         
 295:Generated_Source\PSoC4/CSD_Structure.c ****         for (wdgtId = CSD_TOTAL_WIDGETS; wdgtId-- > 0u; )
 296:Generated_Source\PSoC4/CSD_Structure.c ****         {
 297:Generated_Source\PSoC4/CSD_Structure.c ****             ptrSns = ptrFlashWdgt->ptr2SnsRam;
 298:Generated_Source\PSoC4/CSD_Structure.c ****                 
 299:Generated_Source\PSoC4/CSD_Structure.c ****             for (snsId = CSD_GET_SNS_CNT_BY_PTR(ptrFlashWdgt); snsId-- > 0u;)
 300:Generated_Source\PSoC4/CSD_Structure.c ****             {
 301:Generated_Source\PSoC4/CSD_Structure.c ****                 ptrSns->idacComp[0u] = *ptrIdacInit;
 302:Generated_Source\PSoC4/CSD_Structure.c ****                 ptrIdacInit++;
 303:Generated_Source\PSoC4/CSD_Structure.c ****                 
 304:Generated_Source\PSoC4/CSD_Structure.c ****                 #if (0u != CSD_MULTI_FREQ_SCAN_EN)
 305:Generated_Source\PSoC4/CSD_Structure.c ****                     ptrSns->idacComp[1u] = *ptrIdacInit;
 306:Generated_Source\PSoC4/CSD_Structure.c ****                     ptrIdacInit++;
 307:Generated_Source\PSoC4/CSD_Structure.c ****                     
 308:Generated_Source\PSoC4/CSD_Structure.c ****                     ptrSns->idacComp[2u] = *ptrIdacInit;
 309:Generated_Source\PSoC4/CSD_Structure.c ****                     ptrIdacInit++;
 310:Generated_Source\PSoC4/CSD_Structure.c ****                 #endif /* #if (0u != CSD_MULTI_FREQ_SCAN_EN) */
 311:Generated_Source\PSoC4/CSD_Structure.c ****                 
 312:Generated_Source\PSoC4/CSD_Structure.c ****                 ptrSns++;
 313:Generated_Source\PSoC4/CSD_Structure.c ****             }
 314:Generated_Source\PSoC4/CSD_Structure.c ****             
 315:Generated_Source\PSoC4/CSD_Structure.c ****             ptrFlashWdgt++; /* Move to next widget */
 316:Generated_Source\PSoC4/CSD_Structure.c ****         }
 317:Generated_Source\PSoC4/CSD_Structure.c ****     #endif /*(0u != CSD_CSX_EN) || (0 != CSD_CSD_IDAC_COMP_EN)*/
 318:Generated_Source\PSoC4/CSD_Structure.c ****     
ARM GAS  C:\Users\Greg\AppData\Local\Temp\cczebQkf.s 			page 7


 319:Generated_Source\PSoC4/CSD_Structure.c ****     #if (0u != CSD_ADC_EN)
 320:Generated_Source\PSoC4/CSD_Structure.c ****         CSD_AdcDsInitialize();
 321:Generated_Source\PSoC4/CSD_Structure.c ****     #endif /* (0u != CSD_ADC_EN) */
 322:Generated_Source\PSoC4/CSD_Structure.c **** }
 323:Generated_Source\PSoC4/CSD_Structure.c **** 
 324:Generated_Source\PSoC4/CSD_Structure.c **** 
 325:Generated_Source\PSoC4/CSD_Structure.c **** #if (0u != CSD_ADC_EN)
 326:Generated_Source\PSoC4/CSD_Structure.c ****     /*******************************************************************************
 327:Generated_Source\PSoC4/CSD_Structure.c ****     * Function Name: CSD_AdcDsInitialize
 328:Generated_Source\PSoC4/CSD_Structure.c ****     ****************************************************************************//**
 329:Generated_Source\PSoC4/CSD_Structure.c ****     *
 330:Generated_Source\PSoC4/CSD_Structure.c ****     * \brief
 331:Generated_Source\PSoC4/CSD_Structure.c ****     *   Configures the initial Adc datastructure members.
 332:Generated_Source\PSoC4/CSD_Structure.c ****     *
 333:Generated_Source\PSoC4/CSD_Structure.c ****     *******************************************************************************/
 334:Generated_Source\PSoC4/CSD_Structure.c ****     void CSD_AdcDsInitialize(void)
 335:Generated_Source\PSoC4/CSD_Structure.c ****     {
 336:Generated_Source\PSoC4/CSD_Structure.c ****         CSD_dsRam.adcResolution = CSD_ADC_RESOLUTION;
 337:Generated_Source\PSoC4/CSD_Structure.c ****         CSD_dsRam.adcIdac = (uint8)(CSD_ADC_IDACVAL);
 338:Generated_Source\PSoC4/CSD_Structure.c ****     }
 339:Generated_Source\PSoC4/CSD_Structure.c **** #endif /* (0u != CSD_ADC_EN) */
 340:Generated_Source\PSoC4/CSD_Structure.c **** 
 341:Generated_Source\PSoC4/CSD_Structure.c **** 
 342:Generated_Source\PSoC4/CSD_Structure.c **** /*******************************************************************************
 343:Generated_Source\PSoC4/CSD_Structure.c **** * Function Name: DsParseParamId
 344:Generated_Source\PSoC4/CSD_Structure.c **** ****************************************************************************//**
 345:Generated_Source\PSoC4/CSD_Structure.c **** *
 346:Generated_Source\PSoC4/CSD_Structure.c **** * \brief
 347:Generated_Source\PSoC4/CSD_Structure.c **** *   This function parses the parameter ID and checks its correctness.
 348:Generated_Source\PSoC4/CSD_Structure.c **** *
 349:Generated_Source\PSoC4/CSD_Structure.c **** * \details
 350:Generated_Source\PSoC4/CSD_Structure.c **** *   This function checks the parameter CRC if the self-test is enabled, 
 351:Generated_Source\PSoC4/CSD_Structure.c **** *   validates the offset value and parameter type.
 352:Generated_Source\PSoC4/CSD_Structure.c **** *
 353:Generated_Source\PSoC4/CSD_Structure.c **** * \param paramId The parameter to parse.
 354:Generated_Source\PSoC4/CSD_Structure.c **** * \param pData   The pointer to the structure that will hold parsed data.
 355:Generated_Source\PSoC4/CSD_Structure.c **** *
 356:Generated_Source\PSoC4/CSD_Structure.c **** * \return CYRET_SUCCESS     If the parameter is valid
 357:Generated_Source\PSoC4/CSD_Structure.c **** *         CYRET_BAD_PARAM   If  the parameter is invalid
 358:Generated_Source\PSoC4/CSD_Structure.c **** *
 359:Generated_Source\PSoC4/CSD_Structure.c **** *******************************************************************************/
 360:Generated_Source\PSoC4/CSD_Structure.c **** static cystatus DsParseParamId(uint32 paramId, PARAM_ID_STRUCT *pData)
 361:Generated_Source\PSoC4/CSD_Structure.c **** {
  25              		.loc 1 361 0
  26              		.cfi_startproc
  27              	.LVL0:
  28 0000 30B5     		push	{r4, r5, lr}
  29              		.cfi_def_cfa_offset 12
  30              		.cfi_offset 4, -12
  31              		.cfi_offset 5, -8
  32              		.cfi_offset 14, -4
  33              	.LVL1:
 362:Generated_Source\PSoC4/CSD_Structure.c ****     cystatus result = CYRET_SUCCESS;
 363:Generated_Source\PSoC4/CSD_Structure.c ****     
 364:Generated_Source\PSoC4/CSD_Structure.c ****     #if (0u != CSD_SELF_TEST_EN)
 365:Generated_Source\PSoC4/CSD_Structure.c ****         const uint8 crcTable[] =
 366:Generated_Source\PSoC4/CSD_Structure.c ****         {
ARM GAS  C:\Users\Greg\AppData\Local\Temp\cczebQkf.s 			page 8


 367:Generated_Source\PSoC4/CSD_Structure.c ****             0x00u, 0x09u, 0x0Bu, 0x02u, 0x0Fu, 0x06u, 0x04u, 0x0Du,
 368:Generated_Source\PSoC4/CSD_Structure.c ****             0x07u, 0x0Eu, 0x0Cu, 0x05u, 0x08u, 0x01u, 0x03u, 0x0Au
 369:Generated_Source\PSoC4/CSD_Structure.c ****         };
 370:Generated_Source\PSoC4/CSD_Structure.c ****         
 371:Generated_Source\PSoC4/CSD_Structure.c ****         uint32 i;
 372:Generated_Source\PSoC4/CSD_Structure.c ****         uint32 actualCrc = 0u;
 373:Generated_Source\PSoC4/CSD_Structure.c ****         uint32 crcIndex;
 374:Generated_Source\PSoC4/CSD_Structure.c ****     #endif /* #if (0u != CSD_SELF_TEST_EN) */
 375:Generated_Source\PSoC4/CSD_Structure.c ****             
 376:Generated_Source\PSoC4/CSD_Structure.c ****     /* Extract parameter data */
 377:Generated_Source\PSoC4/CSD_Structure.c ****     pData->offset     = LO16(paramId);
  34              		.loc 1 377 0
  35 0002 84B2     		uxth	r4, r0
  36 0004 0C80     		strh	r4, [r1]
 378:Generated_Source\PSoC4/CSD_Structure.c ****     pData->affectsCrc = LO8((paramId & PARAM_UBIT_MASK)  >> PARAM_UBIT_OFFSET);
  37              		.loc 1 378 0
  38 0006 0302     		lsl	r3, r0, #8
  39 0008 DB0F     		lsr	r3, r3, #31
  40 000a CB70     		strb	r3, [r1, #3]
 379:Generated_Source\PSoC4/CSD_Structure.c ****     pData->widgetId   = LO8((paramId & PARAM_WDID_MASK)  >> PARAM_WDID_OFFSET);
  41              		.loc 1 379 0
  42 000c 4302     		lsl	r3, r0, #9
  43 000e 5B0E     		lsr	r3, r3, #25
  44 0010 8B70     		strb	r3, [r1, #2]
 380:Generated_Source\PSoC4/CSD_Structure.c ****     pData->type       = LO8((paramId & PARAM_TYPE_MASK)  >> PARAM_TYPE_OFFSET);
  45              		.loc 1 380 0
  46 0012 850F     		lsr	r5, r0, #30
  47 0014 CD71     		strb	r5, [r1, #7]
 381:Generated_Source\PSoC4/CSD_Structure.c ****     pData->flash      = LO8((paramId & PARAM_FBIT_MASK)  >> PARAM_FBIT_OFFSET);
  48              		.loc 1 381 0
  49 0016 C300     		lsl	r3, r0, #3
  50 0018 DB0F     		lsr	r3, r3, #31
  51 001a 4B71     		strb	r3, [r1, #5]
 382:Generated_Source\PSoC4/CSD_Structure.c ****     pData->rw         = LO8((paramId & PARAM_RWBIT_MASK) >> PARAM_RWBIT_OFFSET);
  52              		.loc 1 382 0
  53 001c 8200     		lsl	r2, r0, #2
  54 001e D20F     		lsr	r2, r2, #31
  55 0020 8A71     		strb	r2, [r1, #6]
 383:Generated_Source\PSoC4/CSD_Structure.c ****     pData->crc        = LO8((paramId & PARAM_CRC_MASK)   >> PARAM_CRC_OFFSET);
  56              		.loc 1 383 0
  57 0022 0001     		lsl	r0, r0, #4
  58              	.LVL2:
  59 0024 000F     		lsr	r0, r0, #28
  60 0026 0871     		strb	r0, [r1, #4]
 384:Generated_Source\PSoC4/CSD_Structure.c ****     
 385:Generated_Source\PSoC4/CSD_Structure.c ****     /* Check parameter CRC if self-test is enabled */
 386:Generated_Source\PSoC4/CSD_Structure.c ****     #if (0u != CSD_SELF_TEST_EN)
 387:Generated_Source\PSoC4/CSD_Structure.c ****  
 388:Generated_Source\PSoC4/CSD_Structure.c ****         /* Calculate CRC for bits 0..24.
 389:Generated_Source\PSoC4/CSD_Structure.c ****          * The CRC is calculated using nibbles (4-bits). 
 390:Generated_Source\PSoC4/CSD_Structure.c ****          * So for 0..24 bits there are in total 6 nibbles. */
 391:Generated_Source\PSoC4/CSD_Structure.c ****         for (i = 6u; i > 0u; i--)
 392:Generated_Source\PSoC4/CSD_Structure.c ****         {
 393:Generated_Source\PSoC4/CSD_Structure.c ****             crcIndex = actualCrc ^ (paramId & 0x0Fu);
 394:Generated_Source\PSoC4/CSD_Structure.c ****             actualCrc = crcTable[crcIndex];
 395:Generated_Source\PSoC4/CSD_Structure.c ****             paramId >>= 4u;
 396:Generated_Source\PSoC4/CSD_Structure.c ****         }
ARM GAS  C:\Users\Greg\AppData\Local\Temp\cczebQkf.s 			page 9


 397:Generated_Source\PSoC4/CSD_Structure.c **** 
 398:Generated_Source\PSoC4/CSD_Structure.c ****         /* Add bits 28..32 */
 399:Generated_Source\PSoC4/CSD_Structure.c ****         crcIndex = actualCrc ^ ((paramId >> 4u) & 0x0Fu);
 400:Generated_Source\PSoC4/CSD_Structure.c ****         actualCrc = crcTable[crcIndex];
 401:Generated_Source\PSoC4/CSD_Structure.c **** 
 402:Generated_Source\PSoC4/CSD_Structure.c ****         /* Add bits 24..28 (CRC) */
 403:Generated_Source\PSoC4/CSD_Structure.c ****         crcIndex = actualCrc ^ (paramId & 0x0Fu);
 404:Generated_Source\PSoC4/CSD_Structure.c ****         actualCrc = crcTable[crcIndex];
 405:Generated_Source\PSoC4/CSD_Structure.c ****         
 406:Generated_Source\PSoC4/CSD_Structure.c ****         if (0u != actualCrc)
 407:Generated_Source\PSoC4/CSD_Structure.c ****         {
 408:Generated_Source\PSoC4/CSD_Structure.c ****             /* CRC mismatch */
 409:Generated_Source\PSoC4/CSD_Structure.c ****             result = CYRET_BAD_PARAM;
 410:Generated_Source\PSoC4/CSD_Structure.c ****         }
 411:Generated_Source\PSoC4/CSD_Structure.c ****         
 412:Generated_Source\PSoC4/CSD_Structure.c ****         if ((CYRET_SUCCESS == result) && 
 413:Generated_Source\PSoC4/CSD_Structure.c ****             (0u != pData->affectsCrc) && (pData->widgetId >= CSD_TOTAL_WIDGETS ))
 414:Generated_Source\PSoC4/CSD_Structure.c ****         {
 415:Generated_Source\PSoC4/CSD_Structure.c ****             /* Wrong widgetId for protected parameter */
 416:Generated_Source\PSoC4/CSD_Structure.c ****             result = CYRET_BAD_PARAM;
 417:Generated_Source\PSoC4/CSD_Structure.c ****         }
 418:Generated_Source\PSoC4/CSD_Structure.c ****         
 419:Generated_Source\PSoC4/CSD_Structure.c ****         /* Check offset value range */
 420:Generated_Source\PSoC4/CSD_Structure.c ****         if (CYRET_SUCCESS == result)
 421:Generated_Source\PSoC4/CSD_Structure.c ****         {
 422:Generated_Source\PSoC4/CSD_Structure.c ****             if (0u == pData->flash)
 423:Generated_Source\PSoC4/CSD_Structure.c ****             {
 424:Generated_Source\PSoC4/CSD_Structure.c ****                 /* Check offset for RAM Data Structure range */
 425:Generated_Source\PSoC4/CSD_Structure.c ****                 if (pData->offset >= sizeof(CSD_dsRam))
 426:Generated_Source\PSoC4/CSD_Structure.c ****                 {
 427:Generated_Source\PSoC4/CSD_Structure.c ****                     result = CYRET_BAD_PARAM;
 428:Generated_Source\PSoC4/CSD_Structure.c ****                 }
 429:Generated_Source\PSoC4/CSD_Structure.c ****             }
 430:Generated_Source\PSoC4/CSD_Structure.c ****             else
 431:Generated_Source\PSoC4/CSD_Structure.c ****             {
 432:Generated_Source\PSoC4/CSD_Structure.c ****                 /* Check offset for Flash Data Structure range */
 433:Generated_Source\PSoC4/CSD_Structure.c ****                 if (pData->offset >= sizeof(CSD_dsFlash))
 434:Generated_Source\PSoC4/CSD_Structure.c ****                 {
 435:Generated_Source\PSoC4/CSD_Structure.c ****                     result = CYRET_BAD_PARAM;
 436:Generated_Source\PSoC4/CSD_Structure.c ****                 }
 437:Generated_Source\PSoC4/CSD_Structure.c ****                 
 438:Generated_Source\PSoC4/CSD_Structure.c ****                 /* Check if it is marked as Read Only */
 439:Generated_Source\PSoC4/CSD_Structure.c ****                 if (0u != pData->rw)
 440:Generated_Source\PSoC4/CSD_Structure.c ****                 {
 441:Generated_Source\PSoC4/CSD_Structure.c ****                     result = CYRET_BAD_PARAM;
 442:Generated_Source\PSoC4/CSD_Structure.c ****                 }
 443:Generated_Source\PSoC4/CSD_Structure.c ****             }
 444:Generated_Source\PSoC4/CSD_Structure.c ****         }
 445:Generated_Source\PSoC4/CSD_Structure.c ****     #else /* #if (0u != CSD_SELF_TEST_EN) */
 446:Generated_Source\PSoC4/CSD_Structure.c ****         /* Check offset value range */
 447:Generated_Source\PSoC4/CSD_Structure.c ****         if (0u == pData->flash)
  61              		.loc 1 447 0
  62 0028 002B     		cmp	r3, #0
  63 002a 03D1     		bne	.L2
 448:Generated_Source\PSoC4/CSD_Structure.c ****         {
 449:Generated_Source\PSoC4/CSD_Structure.c ****             /* Check offset for RAM Data Structure range */
 450:Generated_Source\PSoC4/CSD_Structure.c ****             if (pData->offset >= sizeof(CSD_dsRam))
ARM GAS  C:\Users\Greg\AppData\Local\Temp\cczebQkf.s 			page 10


  64              		.loc 1 450 0
  65 002c 432C     		cmp	r4, #67
  66 002e 09D8     		bhi	.L9
 362:Generated_Source\PSoC4/CSD_Structure.c ****     
  67              		.loc 1 362 0
  68 0030 0020     		mov	r0, #0
  69 0032 0AE0     		b	.L3
  70              	.L2:
 451:Generated_Source\PSoC4/CSD_Structure.c ****             {
 452:Generated_Source\PSoC4/CSD_Structure.c ****                 result = CYRET_BAD_PARAM;
 453:Generated_Source\PSoC4/CSD_Structure.c ****             }
 454:Generated_Source\PSoC4/CSD_Structure.c ****         }
 455:Generated_Source\PSoC4/CSD_Structure.c ****         else
 456:Generated_Source\PSoC4/CSD_Structure.c ****         {
 457:Generated_Source\PSoC4/CSD_Structure.c ****             /* Check offset for Flash Data Structure range */
 458:Generated_Source\PSoC4/CSD_Structure.c ****             if (pData->offset >= sizeof(CSD_dsFlash))
  71              		.loc 1 458 0
  72 0034 1B2C     		cmp	r4, #27
  73 0036 01D8     		bhi	.L10
 362:Generated_Source\PSoC4/CSD_Structure.c ****     
  74              		.loc 1 362 0
  75 0038 0020     		mov	r0, #0
  76 003a 00E0     		b	.L4
  77              	.L10:
 459:Generated_Source\PSoC4/CSD_Structure.c ****             {
 460:Generated_Source\PSoC4/CSD_Structure.c ****                 result = CYRET_BAD_PARAM;
  78              		.loc 1 460 0
  79 003c 0120     		mov	r0, #1
  80              	.L4:
  81              	.LVL3:
 461:Generated_Source\PSoC4/CSD_Structure.c ****             }
 462:Generated_Source\PSoC4/CSD_Structure.c ****             
 463:Generated_Source\PSoC4/CSD_Structure.c ****             /* Check if it is marked as Read Only */
 464:Generated_Source\PSoC4/CSD_Structure.c ****             if (0u != pData->rw)
  82              		.loc 1 464 0
  83 003e 002A     		cmp	r2, #0
  84 0040 02D1     		bne	.L11
  85 0042 02E0     		b	.L3
  86              	.LVL4:
  87              	.L9:
 452:Generated_Source\PSoC4/CSD_Structure.c ****             }
  88              		.loc 1 452 0
  89 0044 0120     		mov	r0, #1
  90 0046 00E0     		b	.L3
  91              	.LVL5:
  92              	.L11:
 465:Generated_Source\PSoC4/CSD_Structure.c ****             {
 466:Generated_Source\PSoC4/CSD_Structure.c ****                 result = CYRET_BAD_PARAM;
  93              		.loc 1 466 0
  94 0048 0120     		mov	r0, #1
  95              	.LVL6:
  96              	.L3:
 467:Generated_Source\PSoC4/CSD_Structure.c ****             }
 468:Generated_Source\PSoC4/CSD_Structure.c ****         }
 469:Generated_Source\PSoC4/CSD_Structure.c ****     #endif /* #if (0u != CSD_SELF_TEST_EN) */
 470:Generated_Source\PSoC4/CSD_Structure.c **** 
 471:Generated_Source\PSoC4/CSD_Structure.c ****     if (CYRET_SUCCESS == result)
ARM GAS  C:\Users\Greg\AppData\Local\Temp\cczebQkf.s 			page 11


  97              		.loc 1 471 0
  98 004a 0028     		cmp	r0, #0
  99 004c 11D1     		bne	.L5
 472:Generated_Source\PSoC4/CSD_Structure.c ****     {
 473:Generated_Source\PSoC4/CSD_Structure.c ****         /* Check parameter type, offset alignment */
 474:Generated_Source\PSoC4/CSD_Structure.c ****         switch (pData->type)
 100              		.loc 1 474 0
 101 004e 022D     		cmp	r5, #2
 102 0050 04D0     		beq	.L6
 103 0052 032D     		cmp	r5, #3
 104 0054 05D0     		beq	.L7
 105 0056 012D     		cmp	r5, #1
 106 0058 06D1     		bne	.L15
 107 005a 0AE0     		b	.L5
 108              	.L6:
 475:Generated_Source\PSoC4/CSD_Structure.c ****         {
 476:Generated_Source\PSoC4/CSD_Structure.c ****         case DS_PARAM_TYPE_UINT16:
 477:Generated_Source\PSoC4/CSD_Structure.c ****             if (0u != (pData->offset & UINT16_ALIGN_MASK))
 109              		.loc 1 477 0
 110 005c E307     		lsl	r3, r4, #31
 111 005e 05D4     		bmi	.L13
 112 0060 07E0     		b	.L5
 113              	.L7:
 478:Generated_Source\PSoC4/CSD_Structure.c ****             {
 479:Generated_Source\PSoC4/CSD_Structure.c ****                 result = CYRET_BAD_PARAM;
 480:Generated_Source\PSoC4/CSD_Structure.c ****             }
 481:Generated_Source\PSoC4/CSD_Structure.c ****             break;
 482:Generated_Source\PSoC4/CSD_Structure.c ****             
 483:Generated_Source\PSoC4/CSD_Structure.c ****         case DS_PARAM_TYPE_UINT32:
 484:Generated_Source\PSoC4/CSD_Structure.c ****             if (0u != (pData->offset & UINT32_ALIGN_MASK))
 114              		.loc 1 484 0
 115 0062 A307     		lsl	r3, r4, #30
 116 0064 04D1     		bne	.L14
 117 0066 04E0     		b	.L5
 118              	.L15:
 485:Generated_Source\PSoC4/CSD_Structure.c ****             {
 486:Generated_Source\PSoC4/CSD_Structure.c ****                 result = CYRET_BAD_PARAM;
 487:Generated_Source\PSoC4/CSD_Structure.c ****             }
 488:Generated_Source\PSoC4/CSD_Structure.c ****             break;
 489:Generated_Source\PSoC4/CSD_Structure.c ****             
 490:Generated_Source\PSoC4/CSD_Structure.c ****         case DS_PARAM_TYPE_UINT8:
 491:Generated_Source\PSoC4/CSD_Structure.c ****             break;
 492:Generated_Source\PSoC4/CSD_Structure.c ****             
 493:Generated_Source\PSoC4/CSD_Structure.c ****         default:
 494:Generated_Source\PSoC4/CSD_Structure.c ****             result = CYRET_BAD_PARAM;
 119              		.loc 1 494 0
 120 0068 0120     		mov	r0, #1
 121              	.LVL7:
 122 006a 02E0     		b	.L5
 123              	.LVL8:
 124              	.L13:
 479:Generated_Source\PSoC4/CSD_Structure.c ****             }
 125              		.loc 1 479 0
 126 006c 0120     		mov	r0, #1
 127              	.LVL9:
 128 006e 00E0     		b	.L5
 129              	.LVL10:
ARM GAS  C:\Users\Greg\AppData\Local\Temp\cczebQkf.s 			page 12


 130              	.L14:
 486:Generated_Source\PSoC4/CSD_Structure.c ****             }
 131              		.loc 1 486 0
 132 0070 0120     		mov	r0, #1
 133              	.LVL11:
 134              	.L5:
 495:Generated_Source\PSoC4/CSD_Structure.c ****             break;
 496:Generated_Source\PSoC4/CSD_Structure.c ****         }
 497:Generated_Source\PSoC4/CSD_Structure.c ****     }
 498:Generated_Source\PSoC4/CSD_Structure.c **** 
 499:Generated_Source\PSoC4/CSD_Structure.c ****     return result;
 500:Generated_Source\PSoC4/CSD_Structure.c **** }
 135              		.loc 1 500 0
 136              		@ sp needed
 137 0072 30BD     		pop	{r4, r5, pc}
 138              		.cfi_endproc
 139              	.LFE2:
 140              		.size	DsParseParamId, .-DsParseParamId
 141              		.section	.text.CSD_DsInitialize,"ax",%progbits
 142              		.align	2
 143              		.global	CSD_DsInitialize
 144              		.code	16
 145              		.thumb_func
 146              		.type	CSD_DsInitialize, %function
 147              	CSD_DsInitialize:
 148              	.LFB1:
 244:Generated_Source\PSoC4/CSD_Structure.c ****     #if (0u != CSD_CSX_EN) || (0 != CSD_CSD_IDAC_COMP_EN)
 149              		.loc 1 244 0
 150              		.cfi_startproc
 151 0000 38B5     		push	{r3, r4, r5, lr}
 152              		.cfi_def_cfa_offset 16
 153              		.cfi_offset 3, -16
 154              		.cfi_offset 4, -12
 155              		.cfi_offset 5, -8
 156              		.cfi_offset 14, -4
 157              	.LVL12:
 255:Generated_Source\PSoC4/CSD_Structure.c ****     
 158              		.loc 1 255 0
 159 0002 164D     		ldr	r5, .L21
 160 0004 281C     		mov	r0, r5
 161 0006 0021     		mov	r1, #0
 162 0008 4422     		mov	r2, #68
 163 000a FFF7FEFF 		bl	memset
 164              	.LVL13:
 258:Generated_Source\PSoC4/CSD_Structure.c ****     CSD_dsRam.deviceId = CSD_DEVICE_ID;
 165              		.loc 1 258 0
 166 000e 144B     		ldr	r3, .L21+4
 167 0010 2B80     		strh	r3, [r5]
 259:Generated_Source\PSoC4/CSD_Structure.c ****     
 168              		.loc 1 259 0
 169 0012 B023     		mov	r3, #176
 170 0014 5B00     		lsl	r3, r3, #1
 171 0016 6B80     		strh	r3, [r5, #2]
 262:Generated_Source\PSoC4/CSD_Structure.c **** 
 172              		.loc 1 262 0
 173 0018 593B     		sub	r3, r3, #89
 174 001a FF3B     		sub	r3, r3, #255
ARM GAS  C:\Users\Greg\AppData\Local\Temp\cczebQkf.s 			page 13


 175 001c EB82     		strh	r3, [r5, #22]
 269:Generated_Source\PSoC4/CSD_Structure.c ****         
 176              		.loc 1 269 0
 177 001e 073B     		sub	r3, r3, #7
 178 0020 2B76     		strb	r3, [r5, #24]
 289:Generated_Source\PSoC4/CSD_Structure.c ****     
 179              		.loc 1 289 0
 180 0022 104C     		ldr	r4, .L21+8
 181 0024 281C     		mov	r0, r5
 182 0026 1A30     		add	r0, r0, #26
 183 0028 211C     		mov	r1, r4
 184 002a 2031     		add	r1, r1, #32
 185 002c 0E22     		mov	r2, #14
 186 002e FFF7FEFF 		bl	memcpy
 187              	.LVL14:
 251:Generated_Source\PSoC4/CSD_Structure.c ****     #endif        
 188              		.loc 1 251 0
 189 0032 221C     		mov	r2, r4
 293:Generated_Source\PSoC4/CSD_Structure.c ****         
 190              		.loc 1 293 0
 191 0034 0434     		add	r4, r4, #4
 295:Generated_Source\PSoC4/CSD_Structure.c ****         {
 192              		.loc 1 295 0
 193 0036 0123     		mov	r3, #1
 194 0038 0CE0     		b	.L17
 195              	.LVL15:
 196              	.L20:
 297:Generated_Source\PSoC4/CSD_Structure.c ****                 
 197              		.loc 1 297 0
 198 003a A168     		ldr	r1, [r4, #8]
 199              	.LVL16:
 299:Generated_Source\PSoC4/CSD_Structure.c ****             {
 200              		.loc 1 299 0
 201 003c E38A     		ldrh	r3, [r4, #22]
 202              	.LVL17:
 203 003e 04E0     		b	.L18
 204              	.LVL18:
 205              	.L19:
 301:Generated_Source\PSoC4/CSD_Structure.c ****                 ptrIdacInit++;
 206              		.loc 1 301 0
 207 0040 1378     		ldrb	r3, [r2]
 208 0042 4B72     		strb	r3, [r1, #9]
 302:Generated_Source\PSoC4/CSD_Structure.c ****                 
 209              		.loc 1 302 0
 210 0044 0132     		add	r2, r2, #1
 211              	.LVL19:
 312:Generated_Source\PSoC4/CSD_Structure.c ****             }
 212              		.loc 1 312 0
 213 0046 0A31     		add	r1, r1, #10
 214              	.LVL20:
 299:Generated_Source\PSoC4/CSD_Structure.c ****             {
 215              		.loc 1 299 0
 216 0048 031C     		mov	r3, r0
 217              	.LVL21:
 218              	.L18:
 299:Generated_Source\PSoC4/CSD_Structure.c ****             {
 219              		.loc 1 299 0 is_stmt 0 discriminator 1
ARM GAS  C:\Users\Greg\AppData\Local\Temp\cczebQkf.s 			page 14


 220 004a 581E     		sub	r0, r3, #1
 221              	.LVL22:
 222 004c 002B     		cmp	r3, #0
 223 004e F7D1     		bne	.L19
 315:Generated_Source\PSoC4/CSD_Structure.c ****         }
 224              		.loc 1 315 0 is_stmt 1
 225 0050 1C34     		add	r4, r4, #28
 226              	.LVL23:
 295:Generated_Source\PSoC4/CSD_Structure.c ****         {
 227              		.loc 1 295 0
 228 0052 2B1C     		mov	r3, r5
 229              	.LVL24:
 230              	.L17:
 295:Generated_Source\PSoC4/CSD_Structure.c ****         {
 231              		.loc 1 295 0 is_stmt 0 discriminator 1
 232 0054 5D1E     		sub	r5, r3, #1
 233              	.LVL25:
 234 0056 002B     		cmp	r3, #0
 235 0058 EFD1     		bne	.L20
 322:Generated_Source\PSoC4/CSD_Structure.c **** 
 236              		.loc 1 322 0 is_stmt 1
 237              		@ sp needed
 238              	.LVL26:
 239              	.LVL27:
 240 005a 38BD     		pop	{r3, r4, r5, pc}
 241              	.L22:
 242              		.align	2
 243              	.L21:
 244 005c 00000000 		.word	CSD_dsRam
 245 0060 307C0000 		.word	31792
 246 0064 00000000 		.word	.LANCHOR0
 247              		.cfi_endproc
 248              	.LFE1:
 249              		.size	CSD_DsInitialize, .-CSD_DsInitialize
 250              		.section	.text.CSD_GetParam,"ax",%progbits
 251              		.align	2
 252              		.global	CSD_GetParam
 253              		.code	16
 254              		.thumb_func
 255              		.type	CSD_GetParam, %function
 256              	CSD_GetParam:
 257              	.LFB3:
 501:Generated_Source\PSoC4/CSD_Structure.c **** 
 502:Generated_Source\PSoC4/CSD_Structure.c **** /*******************************************************************************
 503:Generated_Source\PSoC4/CSD_Structure.c **** * Function Name: CSD_GetParam
 504:Generated_Source\PSoC4/CSD_Structure.c **** ****************************************************************************//**
 505:Generated_Source\PSoC4/CSD_Structure.c **** *
 506:Generated_Source\PSoC4/CSD_Structure.c **** * \brief
 507:Generated_Source\PSoC4/CSD_Structure.c **** *  Gets the specified parameter value from the \ref group_structures.
 508:Generated_Source\PSoC4/CSD_Structure.c **** *
 509:Generated_Source\PSoC4/CSD_Structure.c **** * \details
 510:Generated_Source\PSoC4/CSD_Structure.c **** *  This function gets the value of the specified parameter by the paramId 
 511:Generated_Source\PSoC4/CSD_Structure.c **** *  argument. The paramId for each register is available in the 
 512:Generated_Source\PSoC4/CSD_Structure.c **** *  CSD RegisterMap header file as 
 513:Generated_Source\PSoC4/CSD_Structure.c **** *  CSD_<ParameterName>_PARAM_ID. The paramId is a special 
 514:Generated_Source\PSoC4/CSD_Structure.c **** *  enumerated value generated by the customizer. The format of paramId is as 
 515:Generated_Source\PSoC4/CSD_Structure.c **** *  follows:
ARM GAS  C:\Users\Greg\AppData\Local\Temp\cczebQkf.s 			page 15


 516:Generated_Source\PSoC4/CSD_Structure.c **** *    1. [ byte 3 byte 2 byte 1 byte 0 ] 
 517:Generated_Source\PSoC4/CSD_Structure.c **** *    2. [ TTWFCCCC UIIIIIII MMMMMMMM LLLLLLLL ]
 518:Generated_Source\PSoC4/CSD_Structure.c **** *    3. T - encodes the parameter type:
 519:Generated_Source\PSoC4/CSD_Structure.c **** *      - 01b: uint8
 520:Generated_Source\PSoC4/CSD_Structure.c **** *      - 10b: uint16
 521:Generated_Source\PSoC4/CSD_Structure.c **** *      - 11b: uint32
 522:Generated_Source\PSoC4/CSD_Structure.c **** *    4. W - indicates whether the parameter is writable:
 523:Generated_Source\PSoC4/CSD_Structure.c **** *      - 0: ReadOnly
 524:Generated_Source\PSoC4/CSD_Structure.c **** *      - 1: Read/Write
 525:Generated_Source\PSoC4/CSD_Structure.c **** *    5. C - 4 bit CRC (X^3 + 1) of the whole paramId word, the C bits are 
 526:Generated_Source\PSoC4/CSD_Structure.c **** *       filled with 0s when the CRC is calculated.
 527:Generated_Source\PSoC4/CSD_Structure.c **** *    6. U - indicates if the parameter affects the RAM Widget Object CRC.
 528:Generated_Source\PSoC4/CSD_Structure.c **** *    7. I - specifies that the widgetID parameter belongs to
 529:Generated_Source\PSoC4/CSD_Structure.c **** *    8. M,L - the parameter offset MSB and LSB accordingly in:
 530:Generated_Source\PSoC4/CSD_Structure.c **** *      - Flash Data Structure if W bit is 0.
 531:Generated_Source\PSoC4/CSD_Structure.c **** *      - RAM Data Structure if W bit is 1.
 532:Generated_Source\PSoC4/CSD_Structure.c **** *
 533:Generated_Source\PSoC4/CSD_Structure.c **** *  Refer to the \ref group_structures section for details of the data structure 
 534:Generated_Source\PSoC4/CSD_Structure.c **** *  organization and examples of its register access.
 535:Generated_Source\PSoC4/CSD_Structure.c **** *
 536:Generated_Source\PSoC4/CSD_Structure.c **** * \param  paramId 
 537:Generated_Source\PSoC4/CSD_Structure.c **** *  Specify the ID of parameter to get its value.
 538:Generated_Source\PSoC4/CSD_Structure.c **** *  A macro for the parameter ID can be found in the CSD RegisterMap header 
 539:Generated_Source\PSoC4/CSD_Structure.c **** *  file defined as CSD_<ParameterName>_PARAM_ID.
 540:Generated_Source\PSoC4/CSD_Structure.c **** *
 541:Generated_Source\PSoC4/CSD_Structure.c **** * \param  value   
 542:Generated_Source\PSoC4/CSD_Structure.c **** *  The pointer to a variable that should be updated with the got value.
 543:Generated_Source\PSoC4/CSD_Structure.c **** *
 544:Generated_Source\PSoC4/CSD_Structure.c **** * \return
 545:Generated_Source\PSoC4/CSD_Structure.c **** *  Returns the status of operation:
 546:Generated_Source\PSoC4/CSD_Structure.c **** *    - CYRET_SUCCESS if the operation is successfully completed.
 547:Generated_Source\PSoC4/CSD_Structure.c **** *    - CYRET_BAD_PARAM if the input parameter is invalid. 
 548:Generated_Source\PSoC4/CSD_Structure.c **** *
 549:Generated_Source\PSoC4/CSD_Structure.c **** *******************************************************************************/
 550:Generated_Source\PSoC4/CSD_Structure.c **** cystatus CSD_GetParam(uint32 paramId, uint32 *value)
 551:Generated_Source\PSoC4/CSD_Structure.c **** {
 258              		.loc 1 551 0
 259              		.cfi_startproc
 260              	.LVL28:
 261 0000 30B5     		push	{r4, r5, lr}
 262              		.cfi_def_cfa_offset 12
 263              		.cfi_offset 4, -12
 264              		.cfi_offset 5, -8
 265              		.cfi_offset 14, -4
 266 0002 83B0     		sub	sp, sp, #12
 267              		.cfi_def_cfa_offset 24
 268 0004 0D1C     		mov	r5, r1
 552:Generated_Source\PSoC4/CSD_Structure.c ****     PARAM_ID_STRUCT pData;
 553:Generated_Source\PSoC4/CSD_Structure.c ****     cystatus result;
 554:Generated_Source\PSoC4/CSD_Structure.c ****     
 555:Generated_Source\PSoC4/CSD_Structure.c ****     union
 556:Generated_Source\PSoC4/CSD_Structure.c ****     {
 557:Generated_Source\PSoC4/CSD_Structure.c ****         volatile void   const * ptr;
 558:Generated_Source\PSoC4/CSD_Structure.c ****         volatile uint8  const * ptrUint8;
 559:Generated_Source\PSoC4/CSD_Structure.c ****         volatile uint16 const * ptrUint16;
 560:Generated_Source\PSoC4/CSD_Structure.c ****         volatile uint32 const * ptrUint32;
 561:Generated_Source\PSoC4/CSD_Structure.c ****     } ptrData;
ARM GAS  C:\Users\Greg\AppData\Local\Temp\cczebQkf.s 			page 16


 562:Generated_Source\PSoC4/CSD_Structure.c ****     
 563:Generated_Source\PSoC4/CSD_Structure.c ****     result = DsParseParamId(paramId, &pData);
 269              		.loc 1 563 0
 270 0006 6946     		mov	r1, sp
 271              	.LVL29:
 272 0008 FFF7FEFF 		bl	DsParseParamId
 273              	.LVL30:
 274 000c 041E     		sub	r4, r0, #0
 275              	.LVL31:
 564:Generated_Source\PSoC4/CSD_Structure.c ****     
 565:Generated_Source\PSoC4/CSD_Structure.c ****     /* Parse and validate paramId */
 566:Generated_Source\PSoC4/CSD_Structure.c ****     if (CYRET_SUCCESS == result)
 276              		.loc 1 566 0
 277 000e 1ED1     		bne	.L24
 567:Generated_Source\PSoC4/CSD_Structure.c ****     {
 568:Generated_Source\PSoC4/CSD_Structure.c ****         /* Get base address of parameter */
 569:Generated_Source\PSoC4/CSD_Structure.c ****         if (0u == pData.flash)
 278              		.loc 1 569 0
 279 0010 6B46     		mov	r3, sp
 280 0012 5B79     		ldrb	r3, [r3, #5]
 281 0014 002B     		cmp	r3, #0
 282 0016 01D1     		bne	.L25
 570:Generated_Source\PSoC4/CSD_Structure.c ****         {
 571:Generated_Source\PSoC4/CSD_Structure.c ****             ptrData.ptr = &CSD_dsRam;
 283              		.loc 1 571 0
 284 0018 0E4A     		ldr	r2, .L30
 285              	.LVL32:
 286 001a 01E0     		b	.L26
 287              	.L25:
 572:Generated_Source\PSoC4/CSD_Structure.c ****         }
 573:Generated_Source\PSoC4/CSD_Structure.c ****         else
 574:Generated_Source\PSoC4/CSD_Structure.c ****         {
 575:Generated_Source\PSoC4/CSD_Structure.c ****             ptrData.ptr = &CSD_dsFlash;
 288              		.loc 1 575 0
 289 001c 0E4B     		ldr	r3, .L30+4
 290 001e 1A1D     		add	r2, r3, #4
 291              	.L26:
 576:Generated_Source\PSoC4/CSD_Structure.c ****         }
 577:Generated_Source\PSoC4/CSD_Structure.c ****         
 578:Generated_Source\PSoC4/CSD_Structure.c ****         /* Add offset to base address */
 579:Generated_Source\PSoC4/CSD_Structure.c ****         ptrData.ptrUint8 += pData.offset;
 292              		.loc 1 579 0
 293 0020 6B46     		mov	r3, sp
 294 0022 1B88     		ldrh	r3, [r3]
 295              	.LVL33:
 296 0024 D318     		add	r3, r2, r3
 580:Generated_Source\PSoC4/CSD_Structure.c ****         
 581:Generated_Source\PSoC4/CSD_Structure.c ****         /* Read data */
 582:Generated_Source\PSoC4/CSD_Structure.c ****         if (DS_PARAM_TYPE_UINT8 == pData.type)
 297              		.loc 1 582 0
 298 0026 6A46     		mov	r2, sp
 299              	.LVL34:
 300 0028 D279     		ldrb	r2, [r2, #7]
 301 002a 012A     		cmp	r2, #1
 302 002c 02D1     		bne	.L27
 583:Generated_Source\PSoC4/CSD_Structure.c ****         {
 584:Generated_Source\PSoC4/CSD_Structure.c ****             *value = (uint32) (*ptrData.ptrUint8);
ARM GAS  C:\Users\Greg\AppData\Local\Temp\cczebQkf.s 			page 17


 303              		.loc 1 584 0
 304 002e 1B78     		ldrb	r3, [r3]
 305 0030 2B60     		str	r3, [r5]
 306 0032 0CE0     		b	.L24
 307              	.L27:
 585:Generated_Source\PSoC4/CSD_Structure.c ****         }
 586:Generated_Source\PSoC4/CSD_Structure.c ****         else if (DS_PARAM_TYPE_UINT16 == pData.type)
 308              		.loc 1 586 0
 309 0034 022A     		cmp	r2, #2
 310 0036 02D1     		bne	.L28
 587:Generated_Source\PSoC4/CSD_Structure.c ****         {
 588:Generated_Source\PSoC4/CSD_Structure.c ****             *value = (uint32) (*ptrData.ptrUint16);
 311              		.loc 1 588 0
 312 0038 1B88     		ldrh	r3, [r3]
 313 003a 2B60     		str	r3, [r5]
 314 003c 07E0     		b	.L24
 315              	.L28:
 589:Generated_Source\PSoC4/CSD_Structure.c ****         }
 590:Generated_Source\PSoC4/CSD_Structure.c ****         else if (DS_PARAM_TYPE_UINT32 == pData.type)
 316              		.loc 1 590 0
 317 003e 032A     		cmp	r2, #3
 318 0040 02D1     		bne	.L29
 591:Generated_Source\PSoC4/CSD_Structure.c ****         {
 592:Generated_Source\PSoC4/CSD_Structure.c ****             *value = *ptrData.ptrUint32;
 319              		.loc 1 592 0
 320 0042 1B68     		ldr	r3, [r3]
 321 0044 2B60     		str	r3, [r5]
 322 0046 02E0     		b	.L24
 323              	.L29:
 593:Generated_Source\PSoC4/CSD_Structure.c ****         }
 594:Generated_Source\PSoC4/CSD_Structure.c ****         else
 595:Generated_Source\PSoC4/CSD_Structure.c ****         {
 596:Generated_Source\PSoC4/CSD_Structure.c ****             /* Parameter comes here already validated. */
 597:Generated_Source\PSoC4/CSD_Structure.c ****             CYASSERT(0u);
 324              		.loc 1 597 0 discriminator 1
 325 0048 0020     		mov	r0, #0
 326              	.LVL35:
 327 004a FFF7FEFF 		bl	CyHalt
 328              	.LVL36:
 329              	.L24:
 598:Generated_Source\PSoC4/CSD_Structure.c ****         }
 599:Generated_Source\PSoC4/CSD_Structure.c ****     }
 600:Generated_Source\PSoC4/CSD_Structure.c ****     
 601:Generated_Source\PSoC4/CSD_Structure.c ****     return result;
 602:Generated_Source\PSoC4/CSD_Structure.c **** }
 330              		.loc 1 602 0
 331 004e 201C     		mov	r0, r4
 332 0050 03B0     		add	sp, sp, #12
 333              		@ sp needed
 334              	.LVL37:
 335              	.LVL38:
 336 0052 30BD     		pop	{r4, r5, pc}
 337              	.L31:
 338              		.align	2
 339              	.L30:
 340 0054 00000000 		.word	CSD_dsRam
 341 0058 00000000 		.word	.LANCHOR0
ARM GAS  C:\Users\Greg\AppData\Local\Temp\cczebQkf.s 			page 18


 342              		.cfi_endproc
 343              	.LFE3:
 344              		.size	CSD_GetParam, .-CSD_GetParam
 345              		.section	.text.CSD_SetParam,"ax",%progbits
 346              		.align	2
 347              		.global	CSD_SetParam
 348              		.code	16
 349              		.thumb_func
 350              		.type	CSD_SetParam, %function
 351              	CSD_SetParam:
 352              	.LFB4:
 603:Generated_Source\PSoC4/CSD_Structure.c **** 
 604:Generated_Source\PSoC4/CSD_Structure.c **** 
 605:Generated_Source\PSoC4/CSD_Structure.c **** /*******************************************************************************
 606:Generated_Source\PSoC4/CSD_Structure.c **** * Function Name: CSD_SetParam
 607:Generated_Source\PSoC4/CSD_Structure.c **** ****************************************************************************//**
 608:Generated_Source\PSoC4/CSD_Structure.c **** *
 609:Generated_Source\PSoC4/CSD_Structure.c **** * \brief
 610:Generated_Source\PSoC4/CSD_Structure.c **** *  Sets a new value for the specified parameter in the \ref group_structures.
 611:Generated_Source\PSoC4/CSD_Structure.c **** *
 612:Generated_Source\PSoC4/CSD_Structure.c **** * \details
 613:Generated_Source\PSoC4/CSD_Structure.c **** *  This function sets the value of the specified parameter by the paramId 
 614:Generated_Source\PSoC4/CSD_Structure.c **** *  argument. The paramId for each register is available in the 
 615:Generated_Source\PSoC4/CSD_Structure.c **** *  CSD RegisterMap header file as 
 616:Generated_Source\PSoC4/CSD_Structure.c **** *  CSD_<ParameterName>_PARAM_ID. The paramId is a special 
 617:Generated_Source\PSoC4/CSD_Structure.c **** *  enumerated value generated by the customizer. The format of paramId is as 
 618:Generated_Source\PSoC4/CSD_Structure.c **** *  follows:
 619:Generated_Source\PSoC4/CSD_Structure.c **** *    1. [ byte 3 byte 2 byte 1 byte 0 ] 
 620:Generated_Source\PSoC4/CSD_Structure.c **** *    2. [ TTWFCCCC UIIIIIII MMMMMMMM LLLLLLLL ]
 621:Generated_Source\PSoC4/CSD_Structure.c **** *    3. T - encodes the parameter type:
 622:Generated_Source\PSoC4/CSD_Structure.c **** *      - 01b: uint8
 623:Generated_Source\PSoC4/CSD_Structure.c **** *      - 10b: uint16
 624:Generated_Source\PSoC4/CSD_Structure.c **** *      - 11b: uint32
 625:Generated_Source\PSoC4/CSD_Structure.c **** *    4. W - indicates whether the parameter is writable:
 626:Generated_Source\PSoC4/CSD_Structure.c **** *      - 0: ReadOnly
 627:Generated_Source\PSoC4/CSD_Structure.c **** *      - 1: Read/Write
 628:Generated_Source\PSoC4/CSD_Structure.c **** *    5. C - 4 bit CRC (X^3 + 1) of the whole paramId word, the C bits are 
 629:Generated_Source\PSoC4/CSD_Structure.c **** *       filled with 0s when the CRC is calculated.
 630:Generated_Source\PSoC4/CSD_Structure.c **** *    6. U - indicates if the parameter affects the RAM Widget Object CRC.
 631:Generated_Source\PSoC4/CSD_Structure.c **** *    7. I - specifies that the widgetID parameter belongs to
 632:Generated_Source\PSoC4/CSD_Structure.c **** *    8. M,L - the parameter offset MSB and LSB accordingly in:
 633:Generated_Source\PSoC4/CSD_Structure.c **** *      - Flash Data Structure if W bit is 0.
 634:Generated_Source\PSoC4/CSD_Structure.c **** *      - RAM Data Structure if W bit is 1.
 635:Generated_Source\PSoC4/CSD_Structure.c **** *
 636:Generated_Source\PSoC4/CSD_Structure.c **** *  Refer to the \ref group_structures section for details of the data structure 
 637:Generated_Source\PSoC4/CSD_Structure.c **** *  organization and examples of its register access.
 638:Generated_Source\PSoC4/CSD_Structure.c **** *
 639:Generated_Source\PSoC4/CSD_Structure.c **** * \param paramId  
 640:Generated_Source\PSoC4/CSD_Structure.c **** *  Specify the ID of parameter to set its value.
 641:Generated_Source\PSoC4/CSD_Structure.c **** *  A macro for the parameter ID can be found in the CSD RegisterMap header
 642:Generated_Source\PSoC4/CSD_Structure.c **** *  file defined as CSD_<ParameterName>_PARAM_ID.
 643:Generated_Source\PSoC4/CSD_Structure.c **** 
 644:Generated_Source\PSoC4/CSD_Structure.c **** * \param value    
 645:Generated_Source\PSoC4/CSD_Structure.c **** *  Specify the new parameter's value.
 646:Generated_Source\PSoC4/CSD_Structure.c **** *
 647:Generated_Source\PSoC4/CSD_Structure.c **** * \return
 648:Generated_Source\PSoC4/CSD_Structure.c **** *  Returns the status of operation:
ARM GAS  C:\Users\Greg\AppData\Local\Temp\cczebQkf.s 			page 19


 649:Generated_Source\PSoC4/CSD_Structure.c **** *    - CYRET_SUCCESS if the operation is successfully completed.
 650:Generated_Source\PSoC4/CSD_Structure.c **** *    - CYRET_BAD_PARAM if the input parameter is invalid. 
 651:Generated_Source\PSoC4/CSD_Structure.c **** *
 652:Generated_Source\PSoC4/CSD_Structure.c **** *******************************************************************************/
 653:Generated_Source\PSoC4/CSD_Structure.c **** cystatus CSD_SetParam(uint32 paramId, uint32 value)
 654:Generated_Source\PSoC4/CSD_Structure.c **** {
 353              		.loc 1 654 0
 354              		.cfi_startproc
 355              	.LVL39:
 356 0000 30B5     		push	{r4, r5, lr}
 357              		.cfi_def_cfa_offset 12
 358              		.cfi_offset 4, -12
 359              		.cfi_offset 5, -8
 360              		.cfi_offset 14, -4
 361 0002 83B0     		sub	sp, sp, #12
 362              		.cfi_def_cfa_offset 24
 363 0004 0D1C     		mov	r5, r1
 655:Generated_Source\PSoC4/CSD_Structure.c ****     cystatus result;
 656:Generated_Source\PSoC4/CSD_Structure.c ****     PARAM_ID_STRUCT pData;
 657:Generated_Source\PSoC4/CSD_Structure.c ****     
 658:Generated_Source\PSoC4/CSD_Structure.c ****     union
 659:Generated_Source\PSoC4/CSD_Structure.c ****     {
 660:Generated_Source\PSoC4/CSD_Structure.c ****         volatile void   * ptr;
 661:Generated_Source\PSoC4/CSD_Structure.c ****         volatile uint8  * ptrUint8;
 662:Generated_Source\PSoC4/CSD_Structure.c ****         volatile uint16 * ptrUint16;
 663:Generated_Source\PSoC4/CSD_Structure.c ****         volatile uint32 * ptrUint32;
 664:Generated_Source\PSoC4/CSD_Structure.c ****     } ptrData;
 665:Generated_Source\PSoC4/CSD_Structure.c ****     
 666:Generated_Source\PSoC4/CSD_Structure.c ****     result = DsParseParamId(paramId, &pData);
 364              		.loc 1 666 0
 365 0006 6946     		mov	r1, sp
 366              	.LVL40:
 367 0008 FFF7FEFF 		bl	DsParseParamId
 368              	.LVL41:
 369 000c 041E     		sub	r4, r0, #0
 370              	.LVL42:
 667:Generated_Source\PSoC4/CSD_Structure.c ****     
 668:Generated_Source\PSoC4/CSD_Structure.c ****     /* verify if parameter is writable */
 669:Generated_Source\PSoC4/CSD_Structure.c ****     if (CYRET_SUCCESS == result)
 371              		.loc 1 669 0
 372 000e 04D1     		bne	.L33
 670:Generated_Source\PSoC4/CSD_Structure.c ****     {
 671:Generated_Source\PSoC4/CSD_Structure.c ****         if (0u == pData.rw)
 373              		.loc 1 671 0
 374 0010 6B46     		mov	r3, sp
 375 0012 9B79     		ldrb	r3, [r3, #6]
 376 0014 002B     		cmp	r3, #0
 377 0016 00D1     		bne	.L33
 672:Generated_Source\PSoC4/CSD_Structure.c ****         {
 673:Generated_Source\PSoC4/CSD_Structure.c ****             result = CYRET_BAD_PARAM;
 378              		.loc 1 673 0
 379 0018 0134     		add	r4, r4, #1
 380              	.L33:
 381              	.LVL43:
 674:Generated_Source\PSoC4/CSD_Structure.c ****         }
 675:Generated_Source\PSoC4/CSD_Structure.c ****     }
 676:Generated_Source\PSoC4/CSD_Structure.c ****     
ARM GAS  C:\Users\Greg\AppData\Local\Temp\cczebQkf.s 			page 20


 677:Generated_Source\PSoC4/CSD_Structure.c ****     /* Parse and validate paramId */
 678:Generated_Source\PSoC4/CSD_Structure.c ****     if (CYRET_SUCCESS == result)
 382              		.loc 1 678 0
 383 001a 002C     		cmp	r4, #0
 384 001c 16D1     		bne	.L34
 679:Generated_Source\PSoC4/CSD_Structure.c ****     {
 680:Generated_Source\PSoC4/CSD_Structure.c ****         /* Get base address of parameter */
 681:Generated_Source\PSoC4/CSD_Structure.c ****         ptrData.ptr = &CSD_dsRam;
 682:Generated_Source\PSoC4/CSD_Structure.c ****         
 683:Generated_Source\PSoC4/CSD_Structure.c ****         /* Add offset to base address */
 684:Generated_Source\PSoC4/CSD_Structure.c ****         ptrData.ptrUint8 += pData.offset;
 385              		.loc 1 684 0
 386 001e 6B46     		mov	r3, sp
 387 0020 1A88     		ldrh	r2, [r3]
 388 0022 0C4B     		ldr	r3, .L39
 389 0024 D318     		add	r3, r2, r3
 685:Generated_Source\PSoC4/CSD_Structure.c ****         
 686:Generated_Source\PSoC4/CSD_Structure.c ****         /* Write data */
 687:Generated_Source\PSoC4/CSD_Structure.c ****         if (DS_PARAM_TYPE_UINT8 == pData.type)
 390              		.loc 1 687 0
 391 0026 6A46     		mov	r2, sp
 392 0028 D279     		ldrb	r2, [r2, #7]
 393 002a 012A     		cmp	r2, #1
 394 002c 02D1     		bne	.L35
 688:Generated_Source\PSoC4/CSD_Structure.c ****         {
 689:Generated_Source\PSoC4/CSD_Structure.c ****             *ptrData.ptrUint8 = LO8(value);
 395              		.loc 1 689 0
 396 002e EDB2     		uxtb	r5, r5
 397              	.LVL44:
 398 0030 1D70     		strb	r5, [r3]
 399 0032 0BE0     		b	.L34
 400              	.LVL45:
 401              	.L35:
 690:Generated_Source\PSoC4/CSD_Structure.c ****         }
 691:Generated_Source\PSoC4/CSD_Structure.c ****         else if (DS_PARAM_TYPE_UINT16 == pData.type)
 402              		.loc 1 691 0
 403 0034 022A     		cmp	r2, #2
 404 0036 02D1     		bne	.L36
 692:Generated_Source\PSoC4/CSD_Structure.c ****         {
 693:Generated_Source\PSoC4/CSD_Structure.c ****             *ptrData.ptrUint16 = LO16(value);
 405              		.loc 1 693 0
 406 0038 ADB2     		uxth	r5, r5
 407              	.LVL46:
 408 003a 1D80     		strh	r5, [r3]
 409 003c 06E0     		b	.L34
 410              	.LVL47:
 411              	.L36:
 694:Generated_Source\PSoC4/CSD_Structure.c ****         }
 695:Generated_Source\PSoC4/CSD_Structure.c ****         else if (DS_PARAM_TYPE_UINT32 == pData.type)
 412              		.loc 1 695 0
 413 003e 032A     		cmp	r2, #3
 414 0040 01D1     		bne	.L37
 696:Generated_Source\PSoC4/CSD_Structure.c ****         {
 697:Generated_Source\PSoC4/CSD_Structure.c ****             *ptrData.ptrUint32 = value;
 415              		.loc 1 697 0
 416 0042 1D60     		str	r5, [r3]
 417 0044 02E0     		b	.L34
ARM GAS  C:\Users\Greg\AppData\Local\Temp\cczebQkf.s 			page 21


 418              	.L37:
 698:Generated_Source\PSoC4/CSD_Structure.c ****         }
 699:Generated_Source\PSoC4/CSD_Structure.c ****         else
 700:Generated_Source\PSoC4/CSD_Structure.c ****         {
 701:Generated_Source\PSoC4/CSD_Structure.c ****             /* Parameter comes here already validated. */
 702:Generated_Source\PSoC4/CSD_Structure.c ****             CYASSERT(0u);
 419              		.loc 1 702 0 discriminator 1
 420 0046 0020     		mov	r0, #0
 421 0048 FFF7FEFF 		bl	CyHalt
 422              	.LVL48:
 423              	.L34:
 703:Generated_Source\PSoC4/CSD_Structure.c ****         }
 704:Generated_Source\PSoC4/CSD_Structure.c ****         
 705:Generated_Source\PSoC4/CSD_Structure.c ****         #if (CSD_ENABLE == (CSD_TST_WDGT_CRC_EN || CSD_TST_GLOBAL_CRC_EN))
 706:Generated_Source\PSoC4/CSD_Structure.c ****             /* Update widget or global CRC if self-test is enabled and parameter affects it */
 707:Generated_Source\PSoC4/CSD_Structure.c ****             if (0u != pData.affectsCrc)
 708:Generated_Source\PSoC4/CSD_Structure.c ****             {
 709:Generated_Source\PSoC4/CSD_Structure.c ****                 if ((ptrData.ptrUint16 >= &CSD_dsRam.csd0Config) &&
 710:Generated_Source\PSoC4/CSD_Structure.c ****                     (ptrData.ptrUint16 <  &CSD_dsRam.glbCrc))
 711:Generated_Source\PSoC4/CSD_Structure.c ****                 {
 712:Generated_Source\PSoC4/CSD_Structure.c ****                     
 713:Generated_Source\PSoC4/CSD_Structure.c ****                     #if (CSD_ENABLE == CSD_TST_GLOBAL_CRC_EN)
 714:Generated_Source\PSoC4/CSD_Structure.c ****                         CSD_DsUpdateGlobalCrc();
 715:Generated_Source\PSoC4/CSD_Structure.c ****                     #endif /* (CSD_ENABLE == CSD_TST_GLOBAL_CRC_EN) */
 716:Generated_Source\PSoC4/CSD_Structure.c **** 
 717:Generated_Source\PSoC4/CSD_Structure.c ****                 }
 718:Generated_Source\PSoC4/CSD_Structure.c ****                 else
 719:Generated_Source\PSoC4/CSD_Structure.c ****                 {
 720:Generated_Source\PSoC4/CSD_Structure.c ****                     #if (CSD_ENABLE == CSD_TST_WDGT_CRC_EN)
 721:Generated_Source\PSoC4/CSD_Structure.c ****                         CSD_DsUpdateWidgetCrc((uint32)pData.widgetId);
 722:Generated_Source\PSoC4/CSD_Structure.c ****                     #endif /* (CSD_ENABLE == CSD_TST_WDGT_CRC_EN) */
 723:Generated_Source\PSoC4/CSD_Structure.c ****                 }
 724:Generated_Source\PSoC4/CSD_Structure.c ****             }
 725:Generated_Source\PSoC4/CSD_Structure.c ****         #endif /* (CSD_ENABLE == (CSD_TST_WDGT_CRC_EN || CSD_TST_GLOBAL_CRC_EN)) */
 726:Generated_Source\PSoC4/CSD_Structure.c ****     }
 727:Generated_Source\PSoC4/CSD_Structure.c ****     
 728:Generated_Source\PSoC4/CSD_Structure.c ****     return result;
 729:Generated_Source\PSoC4/CSD_Structure.c **** }
 424              		.loc 1 729 0
 425 004c 201C     		mov	r0, r4
 426 004e 03B0     		add	sp, sp, #12
 427              		@ sp needed
 428              	.LVL49:
 429 0050 30BD     		pop	{r4, r5, pc}
 430              	.L40:
 431 0052 C046     		.align	2
 432              	.L39:
 433 0054 00000000 		.word	CSD_dsRam
 434              		.cfi_endproc
 435              	.LFE4:
 436              		.size	CSD_SetParam, .-CSD_SetParam
 437              		.section	.text.CSD_IsAnyWidgetActive,"ax",%progbits
 438              		.align	2
 439              		.global	CSD_IsAnyWidgetActive
 440              		.code	16
 441              		.thumb_func
 442              		.type	CSD_IsAnyWidgetActive, %function
ARM GAS  C:\Users\Greg\AppData\Local\Temp\cczebQkf.s 			page 22


 443              	CSD_IsAnyWidgetActive:
 444              	.LFB5:
 730:Generated_Source\PSoC4/CSD_Structure.c **** 
 731:Generated_Source\PSoC4/CSD_Structure.c **** /*******************************************************************************
 732:Generated_Source\PSoC4/CSD_Structure.c **** * Function Name: CSD_IsAnyWidgetActive
 733:Generated_Source\PSoC4/CSD_Structure.c **** ****************************************************************************//**
 734:Generated_Source\PSoC4/CSD_Structure.c **** *
 735:Generated_Source\PSoC4/CSD_Structure.c **** * \brief
 736:Generated_Source\PSoC4/CSD_Structure.c **** *  Reports if any widget has detected a touch.
 737:Generated_Source\PSoC4/CSD_Structure.c **** *
 738:Generated_Source\PSoC4/CSD_Structure.c **** * \details
 739:Generated_Source\PSoC4/CSD_Structure.c **** *  This function reports if any widget has detected a touch or not by extracting 
 740:Generated_Source\PSoC4/CSD_Structure.c **** *  the information from the wdgtStatus registers 
 741:Generated_Source\PSoC4/CSD_Structure.c **** *  (CSD_WDGT_STATUS<X>_VALUE). This function does not process any 
 742:Generated_Source\PSoC4/CSD_Structure.c **** *  widget but extracts the processed results from the \ref group_structures.
 743:Generated_Source\PSoC4/CSD_Structure.c **** *
 744:Generated_Source\PSoC4/CSD_Structure.c **** * \return 
 745:Generated_Source\PSoC4/CSD_Structure.c **** *   Returns the touch detection status of all widgets:
 746:Generated_Source\PSoC4/CSD_Structure.c **** *     - Zero if no touch is detected in all widgets or sensors.
 747:Generated_Source\PSoC4/CSD_Structure.c **** *     - Non-zero if at least one widget or sensor detected a touch.
 748:Generated_Source\PSoC4/CSD_Structure.c **** *
 749:Generated_Source\PSoC4/CSD_Structure.c **** *******************************************************************************/
 750:Generated_Source\PSoC4/CSD_Structure.c **** uint32 CSD_IsAnyWidgetActive(void)
 751:Generated_Source\PSoC4/CSD_Structure.c **** {
 445              		.loc 1 751 0
 446              		.cfi_startproc
 447              	.LVL50:
 752:Generated_Source\PSoC4/CSD_Structure.c ****     uint32 result = 0Lu;
 753:Generated_Source\PSoC4/CSD_Structure.c ****     uint32 wdWord;
 754:Generated_Source\PSoC4/CSD_Structure.c ****     
 755:Generated_Source\PSoC4/CSD_Structure.c ****     for (wdWord = CSD_WDGT_STATUS_WORDS; wdWord-- > 0u;)
 448              		.loc 1 755 0
 449 0000 0123     		mov	r3, #1
 752:Generated_Source\PSoC4/CSD_Structure.c ****     uint32 result = 0Lu;
 450              		.loc 1 752 0
 451 0002 0020     		mov	r0, #0
 452              		.loc 1 755 0
 453 0004 05E0     		b	.L42
 454              	.LVL51:
 455              	.L43:
 756:Generated_Source\PSoC4/CSD_Structure.c ****     {
 757:Generated_Source\PSoC4/CSD_Structure.c ****         result |= CSD_dsRam.wdgtStatus[wdWord];
 456              		.loc 1 757 0
 457 0006 131D     		add	r3, r2, #4
 458 0008 9B00     		lsl	r3, r3, #2
 459 000a 0449     		ldr	r1, .L44
 460 000c 5B58     		ldr	r3, [r3, r1]
 461 000e 1843     		orr	r0, r3
 462              	.LVL52:
 755:Generated_Source\PSoC4/CSD_Structure.c ****     {
 463              		.loc 1 755 0
 464 0010 131C     		mov	r3, r2
 465              	.LVL53:
 466              	.L42:
 755:Generated_Source\PSoC4/CSD_Structure.c ****     {
 467              		.loc 1 755 0 is_stmt 0 discriminator 1
 468 0012 5A1E     		sub	r2, r3, #1
ARM GAS  C:\Users\Greg\AppData\Local\Temp\cczebQkf.s 			page 23


 469              	.LVL54:
 470 0014 002B     		cmp	r3, #0
 471 0016 F6D1     		bne	.L43
 758:Generated_Source\PSoC4/CSD_Structure.c ****     }
 759:Generated_Source\PSoC4/CSD_Structure.c ****     
 760:Generated_Source\PSoC4/CSD_Structure.c ****     return result;
 761:Generated_Source\PSoC4/CSD_Structure.c **** }
 472              		.loc 1 761 0 is_stmt 1
 473              		@ sp needed
 474 0018 7047     		bx	lr
 475              	.L45:
 476 001a C046     		.align	2
 477              	.L44:
 478 001c 00000000 		.word	CSD_dsRam
 479              		.cfi_endproc
 480              	.LFE5:
 481              		.size	CSD_IsAnyWidgetActive, .-CSD_IsAnyWidgetActive
 482              		.section	.text.CSD_IsWidgetActive,"ax",%progbits
 483              		.align	2
 484              		.global	CSD_IsWidgetActive
 485              		.code	16
 486              		.thumb_func
 487              		.type	CSD_IsWidgetActive, %function
 488              	CSD_IsWidgetActive:
 489              	.LFB6:
 762:Generated_Source\PSoC4/CSD_Structure.c **** 
 763:Generated_Source\PSoC4/CSD_Structure.c **** 
 764:Generated_Source\PSoC4/CSD_Structure.c **** /*******************************************************************************
 765:Generated_Source\PSoC4/CSD_Structure.c **** * Function Name: CSD_IsWidgetActive
 766:Generated_Source\PSoC4/CSD_Structure.c **** ****************************************************************************//**
 767:Generated_Source\PSoC4/CSD_Structure.c **** *
 768:Generated_Source\PSoC4/CSD_Structure.c **** * \brief
 769:Generated_Source\PSoC4/CSD_Structure.c **** *  Reports if the specified widget detects a touch on any of its sensors.
 770:Generated_Source\PSoC4/CSD_Structure.c **** *
 771:Generated_Source\PSoC4/CSD_Structure.c **** * \details
 772:Generated_Source\PSoC4/CSD_Structure.c **** *  This function reports if the specified widget has detected a touch or not by 
 773:Generated_Source\PSoC4/CSD_Structure.c **** *  extracting the information from the wdgtStatus registers 
 774:Generated_Source\PSoC4/CSD_Structure.c **** *  (CSD_WDGT_STATUS<X>_VALUE). This function does not process the 
 775:Generated_Source\PSoC4/CSD_Structure.c **** *  widget, but extracts the processed results from the \ref group_structures.
 776:Generated_Source\PSoC4/CSD_Structure.c **** *
 777:Generated_Source\PSoC4/CSD_Structure.c **** * \param widgetId  
 778:Generated_Source\PSoC4/CSD_Structure.c **** *  Specify the ID number of the widget to get its status.
 779:Generated_Source\PSoC4/CSD_Structure.c **** *  A macro for the widget ID can be found in the CSD Configuration header 
 780:Generated_Source\PSoC4/CSD_Structure.c **** *  file defined as CSD_<WidgetName>_WDGT_ID.
 781:Generated_Source\PSoC4/CSD_Structure.c **** *
 782:Generated_Source\PSoC4/CSD_Structure.c **** * \return 
 783:Generated_Source\PSoC4/CSD_Structure.c **** *  Returns the touch detection status of the specified widgets:
 784:Generated_Source\PSoC4/CSD_Structure.c **** *    - Zero if no touch is detected in the specified widget or a wrong widgetId
 785:Generated_Source\PSoC4/CSD_Structure.c **** *      is specified
 786:Generated_Source\PSoC4/CSD_Structure.c **** *    - Non-zero if at least one sensor of the specified widget is active i.e. 
 787:Generated_Source\PSoC4/CSD_Structure.c **** *      touch is detected
 788:Generated_Source\PSoC4/CSD_Structure.c **** *
 789:Generated_Source\PSoC4/CSD_Structure.c **** *******************************************************************************/
 790:Generated_Source\PSoC4/CSD_Structure.c **** uint32 CSD_IsWidgetActive(uint32 widgetId)
 791:Generated_Source\PSoC4/CSD_Structure.c **** {
 490              		.loc 1 791 0
 491              		.cfi_startproc
ARM GAS  C:\Users\Greg\AppData\Local\Temp\cczebQkf.s 			page 24


 492              	.LVL55:
 792:Generated_Source\PSoC4/CSD_Structure.c ****     uint32 result = 0Lu;
 793:Generated_Source\PSoC4/CSD_Structure.c ****    
 794:Generated_Source\PSoC4/CSD_Structure.c ****     if (widgetId < CSD_TOTAL_WIDGETS)
 493              		.loc 1 794 0
 494 0000 0028     		cmp	r0, #0
 495 0002 0BD1     		bne	.L48
 795:Generated_Source\PSoC4/CSD_Structure.c ****     {
 796:Generated_Source\PSoC4/CSD_Structure.c ****         result = CSD_GET_WIDGET_ACTIVE_STATUS(widgetId);
 496              		.loc 1 796 0
 497 0004 1F22     		mov	r2, #31
 498 0006 0240     		and	r2, r0
 499 0008 0123     		mov	r3, #1
 500 000a 9340     		lsl	r3, r3, r2
 501 000c 1A1C     		mov	r2, r3
 502 000e 4309     		lsr	r3, r0, #5
 503 0010 0433     		add	r3, r3, #4
 504 0012 9B00     		lsl	r3, r3, #2
 505 0014 0249     		ldr	r1, .L49
 506 0016 5858     		ldr	r0, [r3, r1]
 507              	.LVL56:
 508 0018 1040     		and	r0, r2
 509              	.LVL57:
 510 001a 00E0     		b	.L47
 511              	.LVL58:
 512              	.L48:
 792:Generated_Source\PSoC4/CSD_Structure.c ****     uint32 result = 0Lu;
 513              		.loc 1 792 0
 514 001c 0020     		mov	r0, #0
 515              	.LVL59:
 516              	.L47:
 797:Generated_Source\PSoC4/CSD_Structure.c ****     }
 798:Generated_Source\PSoC4/CSD_Structure.c ****     return result;
 799:Generated_Source\PSoC4/CSD_Structure.c **** }
 517              		.loc 1 799 0
 518              		@ sp needed
 519 001e 7047     		bx	lr
 520              	.L50:
 521              		.align	2
 522              	.L49:
 523 0020 00000000 		.word	CSD_dsRam
 524              		.cfi_endproc
 525              	.LFE6:
 526              		.size	CSD_IsWidgetActive, .-CSD_IsWidgetActive
 527              		.section	.text.CSD_IsSensorActive,"ax",%progbits
 528              		.align	2
 529              		.global	CSD_IsSensorActive
 530              		.code	16
 531              		.thumb_func
 532              		.type	CSD_IsSensorActive, %function
 533              	CSD_IsSensorActive:
 534              	.LFB7:
 800:Generated_Source\PSoC4/CSD_Structure.c **** 
 801:Generated_Source\PSoC4/CSD_Structure.c **** 
 802:Generated_Source\PSoC4/CSD_Structure.c **** /*******************************************************************************
 803:Generated_Source\PSoC4/CSD_Structure.c **** * Function Name: CSD_IsSensorActive
 804:Generated_Source\PSoC4/CSD_Structure.c **** ****************************************************************************//**
ARM GAS  C:\Users\Greg\AppData\Local\Temp\cczebQkf.s 			page 25


 805:Generated_Source\PSoC4/CSD_Structure.c **** *
 806:Generated_Source\PSoC4/CSD_Structure.c **** * \brief
 807:Generated_Source\PSoC4/CSD_Structure.c **** *  Reports if the specified sensor in the widget detects a touch.
 808:Generated_Source\PSoC4/CSD_Structure.c **** *
 809:Generated_Source\PSoC4/CSD_Structure.c **** * \details 
 810:Generated_Source\PSoC4/CSD_Structure.c **** *  This function reports if the specified sensor in the widget has detected a 
 811:Generated_Source\PSoC4/CSD_Structure.c **** *  touch or not by extracting the information from wdgtStatus registers 
 812:Generated_Source\PSoC4/CSD_Structure.c **** *  (CSD_WDGT_STATUS<X>_VALUE). This function does not process the
 813:Generated_Source\PSoC4/CSD_Structure.c **** *  widget or sensor, but extracts the processed results from the \ref group_structures.
 814:Generated_Source\PSoC4/CSD_Structure.c **** *   
 815:Generated_Source\PSoC4/CSD_Structure.c **** *  For Proximity sensors this function returns proximity detection status. To 
 816:Generated_Source\PSoC4/CSD_Structure.c **** *  get finger touch status of proximity sensors, use the 
 817:Generated_Source\PSoC4/CSD_Structure.c **** *  CSD_IsProximitySensorActive() function. 
 818:Generated_Source\PSoC4/CSD_Structure.c **** *
 819:Generated_Source\PSoC4/CSD_Structure.c **** * \param widgetId  
 820:Generated_Source\PSoC4/CSD_Structure.c **** *  Specify the ID number of the widget.
 821:Generated_Source\PSoC4/CSD_Structure.c **** *  A macro for the widget ID can be found in the CSD Configuration header 
 822:Generated_Source\PSoC4/CSD_Structure.c **** *  file defined as CSD_<WidgetName>_WDGT_ID 
 823:Generated_Source\PSoC4/CSD_Structure.c **** 
 824:Generated_Source\PSoC4/CSD_Structure.c **** * \param sensorId  
 825:Generated_Source\PSoC4/CSD_Structure.c **** *  Specify the ID number of the sensor within the widget to get its touch 
 826:Generated_Source\PSoC4/CSD_Structure.c **** *  detection status.
 827:Generated_Source\PSoC4/CSD_Structure.c **** *  A macro for the sensor ID within specified widget can be found in the 
 828:Generated_Source\PSoC4/CSD_Structure.c **** *  CSD Configuration header file defined as 
 829:Generated_Source\PSoC4/CSD_Structure.c **** *  CSD_<WidgetName>_SNS<SensorNumber>_ID 
 830:Generated_Source\PSoC4/CSD_Structure.c **** *
 831:Generated_Source\PSoC4/CSD_Structure.c **** * \return 
 832:Generated_Source\PSoC4/CSD_Structure.c **** *  Returns the touch detection status of the specified sensor / widget:
 833:Generated_Source\PSoC4/CSD_Structure.c **** *    - Zero if no touch is detected in the specified sensor / widget or a wrong
 834:Generated_Source\PSoC4/CSD_Structure.c **** *      widget ID / sensor ID is specified
 835:Generated_Source\PSoC4/CSD_Structure.c **** *    - Non-zero if the specified sensor is active i.e. touch is detected. If the
 836:Generated_Source\PSoC4/CSD_Structure.c **** *      specific sensor belongs to a proximity widget, the proximity detection 
 837:Generated_Source\PSoC4/CSD_Structure.c **** *      status is returned.
 838:Generated_Source\PSoC4/CSD_Structure.c **** *
 839:Generated_Source\PSoC4/CSD_Structure.c **** *******************************************************************************/
 840:Generated_Source\PSoC4/CSD_Structure.c **** uint32 CSD_IsSensorActive(uint32 widgetId, uint32 sensorId)
 841:Generated_Source\PSoC4/CSD_Structure.c **** {
 535              		.loc 1 841 0
 536              		.cfi_startproc
 537              	.LVL60:
 842:Generated_Source\PSoC4/CSD_Structure.c ****     uint32 result = 0Lu;
 843:Generated_Source\PSoC4/CSD_Structure.c ****     
 844:Generated_Source\PSoC4/CSD_Structure.c ****     if ((widgetId < CSD_TOTAL_WIDGETS) &&
 538              		.loc 1 844 0
 539 0000 0028     		cmp	r0, #0
 540 0002 0ED1     		bne	.L53
 845:Generated_Source\PSoC4/CSD_Structure.c ****         (sensorId < CSD_GET_SENSOR_COUNT(widgetId)))
 541              		.loc 1 845 0 discriminator 1
 542 0004 C300     		lsl	r3, r0, #3
 543 0006 1B1A     		sub	r3, r3, r0
 544 0008 9B00     		lsl	r3, r3, #2
 545 000a 084A     		ldr	r2, .L55
 546 000c D318     		add	r3, r2, r3
 547 000e 5B8B     		ldrh	r3, [r3, #26]
 844:Generated_Source\PSoC4/CSD_Structure.c ****         (sensorId < CSD_GET_SENSOR_COUNT(widgetId)))
 548              		.loc 1 844 0 discriminator 1
 549 0010 8B42     		cmp	r3, r1
ARM GAS  C:\Users\Greg\AppData\Local\Temp\cczebQkf.s 			page 26


 550 0012 08D9     		bls	.L54
 846:Generated_Source\PSoC4/CSD_Structure.c ****     {
 847:Generated_Source\PSoC4/CSD_Structure.c ****         #if (CSD_ENABLE == CSD_PROXIMITY_WIDGET_EN)
 848:Generated_Source\PSoC4/CSD_Structure.c ****             if (CSD_WD_PROXIMITY_E == 
 849:Generated_Source\PSoC4/CSD_Structure.c **** 				(CSD_WD_TYPE_ENUM)CSD_dsFlash.wdgtArray[widgetId].wdgtType)
 850:Generated_Source\PSoC4/CSD_Structure.c ****             {
 851:Generated_Source\PSoC4/CSD_Structure.c ****                 sensorId = CSD_PROX_STS_OFFSET(sensorId);
 852:Generated_Source\PSoC4/CSD_Structure.c ****             }
 853:Generated_Source\PSoC4/CSD_Structure.c ****         #endif /* (CSD_ENABLE != CSD_PROXIMITY_WIDGET_EN) */
 854:Generated_Source\PSoC4/CSD_Structure.c ****         result = CSD_dsRam.snsStatus[widgetId] & (1Lu << sensorId);
 551              		.loc 1 854 0
 552 0014 064B     		ldr	r3, .L55+4
 553 0016 1818     		add	r0, r3, r0
 554              	.LVL61:
 555 0018 037D     		ldrb	r3, [r0, #20]
 556 001a 0120     		mov	r0, #1
 557 001c 8840     		lsl	r0, r0, r1
 558 001e 1840     		and	r0, r3
 559              	.LVL62:
 560 0020 02E0     		b	.L52
 561              	.LVL63:
 562              	.L53:
 842:Generated_Source\PSoC4/CSD_Structure.c ****     
 563              		.loc 1 842 0
 564 0022 0020     		mov	r0, #0
 565              	.LVL64:
 566 0024 00E0     		b	.L52
 567              	.LVL65:
 568              	.L54:
 569 0026 0020     		mov	r0, #0
 570              	.LVL66:
 571              	.L52:
 855:Generated_Source\PSoC4/CSD_Structure.c ****     }
 856:Generated_Source\PSoC4/CSD_Structure.c ****     
 857:Generated_Source\PSoC4/CSD_Structure.c ****     return result;
 858:Generated_Source\PSoC4/CSD_Structure.c **** }
 572              		.loc 1 858 0
 573              		@ sp needed
 574 0028 7047     		bx	lr
 575              	.L56:
 576 002a C046     		.align	2
 577              	.L55:
 578 002c 00000000 		.word	.LANCHOR0
 579 0030 00000000 		.word	CSD_dsRam
 580              		.cfi_endproc
 581              	.LFE7:
 582              		.size	CSD_IsSensorActive, .-CSD_IsSensorActive
 583              		.global	CSD_ioList
 584              		.global	CSD_dsFlash
 585              		.comm	CSD_dsRam,68,4
 586              		.section	.rodata
 587              		.align	2
 588              		.set	.LANCHOR0,. + 0
 589              		.type	CSD_ramIdacInit, %object
 590              		.size	CSD_ramIdacInit, 2
 591              	CSD_ramIdacInit:
 592 0000 20       		.byte	32
ARM GAS  C:\Users\Greg\AppData\Local\Temp\cczebQkf.s 			page 27


 593 0001 20       		.byte	32
 594 0002 0000     		.space	2
 595              		.type	CSD_dsFlash, %object
 596              		.size	CSD_dsFlash, 28
 597              	CSD_dsFlash:
 598 0004 00000000 		.word	CSD_ioList
 599 0008 1A000000 		.word	CSD_dsRam+26
 600 000c 28000000 		.word	CSD_dsRam+40
 601 0010 00000000 		.word	CSD_fltrHistoryButton0
 602 0014 04000000 		.word	CSD_debounceButton0
 603 0018 0100     		.short	1
 604 001a 0200     		.short	2
 605 001c 01       		.byte	1
 606 001d 02       		.byte	2
 607 001e 0000     		.space	2
 608              		.type	CSD_ramWidgetInit, %object
 609              		.size	CSD_ramWidgetInit, 14
 610              	CSD_ramWidgetInit:
 611 0020 1000     		.short	16
 612 0022 6400     		.short	100
 613 0024 28       		.byte	40
 614 0025 28       		.byte	40
 615 0026 0A       		.byte	10
 616 0027 03       		.byte	3
 617 0028 1E       		.byte	30
 618 0029 64       		.byte	100
 619 002a 20       		.byte	32
 620 002b 80       		.byte	-128
 621 002c 00       		.byte	0
 622 002d 00       		.space	1
 623 002e 0000     		.space	2
 624              		.type	CSD_ioList, %object
 625              		.size	CSD_ioList, 56
 626              	CSD_ioList:
 627 0030 00010240 		.word	1073873152
 628 0034 08010440 		.word	1074004232
 629 0038 00010440 		.word	1074004224
 630 003c 04010440 		.word	1074004228
 631 0040 0000F000 		.word	15728640
 632 0044 20000000 		.word	32
 633 0048 14       		.byte	20
 634 0049 05       		.byte	5
 635 004a 0F       		.byte	15
 636 004b 00       		.space	1
 637 004c 00010240 		.word	1073873152
 638 0050 08010440 		.word	1074004232
 639 0054 00010440 		.word	1074004224
 640 0058 04010440 		.word	1074004228
 641 005c 000000F0 		.word	-268435456
 642 0060 80000000 		.word	128
 643 0064 1C       		.byte	28
 644 0065 07       		.byte	7
 645 0066 15       		.byte	21
 646 0067 00       		.space	1
 647              		.bss
 648              		.align	2
 649              		.type	CSD_fltrHistoryButton0, %object
ARM GAS  C:\Users\Greg\AppData\Local\Temp\cczebQkf.s 			page 28


 650              		.size	CSD_fltrHistoryButton0, 4
 651              	CSD_fltrHistoryButton0:
 652 0000 00000000 		.space	4
 653              		.type	CSD_debounceButton0, %object
 654              		.size	CSD_debounceButton0, 2
 655              	CSD_debounceButton0:
 656 0004 0000     		.space	2
 657 0006 0000     		.text
 658              	.Letext0:
 659              		.file 2 "Generated_Source\\PSoC4/cytypes.h"
 660              		.file 3 "Generated_Source\\PSoC4\\CSD_Configuration.h"
 661              		.file 4 "Generated_Source\\PSoC4\\CSD_Structure.h"
 662              		.file 5 "Generated_Source\\PSoC4\\CyLib.h"