ARM GAS  C:\Users\Greg\AppData\Local\Temp\ccTXpTtu.s 			page 1


   1              		.cpu cortex-m0plus
   2              		.fpu softvfp
   3              		.eabi_attribute 20, 1
   4              		.eabi_attribute 21, 1
   5              		.eabi_attribute 23, 3
   6              		.eabi_attribute 24, 1
   7              		.eabi_attribute 25, 1
   8              		.eabi_attribute 26, 1
   9              		.eabi_attribute 30, 1
  10              		.eabi_attribute 34, 0
  11              		.eabi_attribute 18, 4
  12              		.code	16
  13              		.file	"CyDMA.c"
  14              		.text
  15              	.Ltext0:
  16              		.cfi_sections	.debug_frame
  17              		.section	.text.CyDmaInterrupt,"ax",%progbits
  18              		.align	2
  19              		.global	CyDmaInterrupt
  20              		.code	16
  21              		.thumb_func
  22              		.type	CyDmaInterrupt, %function
  23              	CyDmaInterrupt:
  24              	.LFB15:
  25              		.file 1 "Generated_Source\\PSoC4\\CyDMA.c"
   1:Generated_Source\PSoC4/CyDMA.c **** /*******************************************************************************
   2:Generated_Source\PSoC4/CyDMA.c **** * File Name: CyDMA.c
   3:Generated_Source\PSoC4/CyDMA.c **** * Version 1.10
   4:Generated_Source\PSoC4/CyDMA.c **** *
   5:Generated_Source\PSoC4/CyDMA.c **** * Description:
   6:Generated_Source\PSoC4/CyDMA.c **** *  This file contains all of the global DMA API functions.
   7:Generated_Source\PSoC4/CyDMA.c **** *
   8:Generated_Source\PSoC4/CyDMA.c **** ********************************************************************************
   9:Generated_Source\PSoC4/CyDMA.c **** * Copyright 2015, Cypress Semiconductor Corporation. All rights reserved.
  10:Generated_Source\PSoC4/CyDMA.c **** * You may use this file only in accordance with the license, terms, conditions,
  11:Generated_Source\PSoC4/CyDMA.c **** * disclaimers, and limitations in the end user license agreement accompanying
  12:Generated_Source\PSoC4/CyDMA.c **** * the software package with which this file was provided.
  13:Generated_Source\PSoC4/CyDMA.c **** *******************************************************************************/
  14:Generated_Source\PSoC4/CyDMA.c **** 
  15:Generated_Source\PSoC4/CyDMA.c **** #include "CyDMA.h"
  16:Generated_Source\PSoC4/CyDMA.c **** #include "CyLib.h"
  17:Generated_Source\PSoC4/CyDMA.c **** 
  18:Generated_Source\PSoC4/CyDMA.c **** /* Default callback function. It is invoked if the user callback function is
  19:Generated_Source\PSoC4/CyDMA.c **** * undefined.
  20:Generated_Source\PSoC4/CyDMA.c **** */
  21:Generated_Source\PSoC4/CyDMA.c **** static void CyDmaDefaultInterruptCallback(void);
  22:Generated_Source\PSoC4/CyDMA.c **** 
  23:Generated_Source\PSoC4/CyDMA.c **** /* Array of pointers to user defined callback functions to be called
  24:Generated_Source\PSoC4/CyDMA.c **** * from DMA interrupt.
  25:Generated_Source\PSoC4/CyDMA.c **** */
  26:Generated_Source\PSoC4/CyDMA.c **** static cydma_callback_t CyDmaInterruptCallback[CYDMA_CH_NR] = {
  27:Generated_Source\PSoC4/CyDMA.c ****     &CyDmaDefaultInterruptCallback, &CyDmaDefaultInterruptCallback,
  28:Generated_Source\PSoC4/CyDMA.c ****     &CyDmaDefaultInterruptCallback, &CyDmaDefaultInterruptCallback,
  29:Generated_Source\PSoC4/CyDMA.c ****     &CyDmaDefaultInterruptCallback, &CyDmaDefaultInterruptCallback,
  30:Generated_Source\PSoC4/CyDMA.c ****     &CyDmaDefaultInterruptCallback, &CyDmaDefaultInterruptCallback
  31:Generated_Source\PSoC4/CyDMA.c **** };
  32:Generated_Source\PSoC4/CyDMA.c **** 
ARM GAS  C:\Users\Greg\AppData\Local\Temp\ccTXpTtu.s 			page 2


  33:Generated_Source\PSoC4/CyDMA.c **** /* The live status of all DMA channels usage. Bit i is associated to channel i,
  34:Generated_Source\PSoC4/CyDMA.c **** * with i = 0..CYDMA_CH_NR-1. '0' - channel is free. '1' - channel is in use.
  35:Generated_Source\PSoC4/CyDMA.c **** * All the channels allocated for DMA instances placed on a schematic are in use
  36:Generated_Source\PSoC4/CyDMA.c **** * by default and cannot be freed. 
  37:Generated_Source\PSoC4/CyDMA.c **** * DMA_CHANNELS_USED__MASK is generated during the build time and is a bit field
  38:Generated_Source\PSoC4/CyDMA.c **** * corresponding to the DMA channels placed on a design schematic.
  39:Generated_Source\PSoC4/CyDMA.c **** */
  40:Generated_Source\PSoC4/CyDMA.c **** static uint32 CyDmaChannelUsedMask = DMA_CHANNELS_USED__MASK;
  41:Generated_Source\PSoC4/CyDMA.c **** 
  42:Generated_Source\PSoC4/CyDMA.c **** 
  43:Generated_Source\PSoC4/CyDMA.c **** /*******************************************************************************
  44:Generated_Source\PSoC4/CyDMA.c **** * Function Name: CyDmaEnable
  45:Generated_Source\PSoC4/CyDMA.c **** ********************************************************************************
  46:Generated_Source\PSoC4/CyDMA.c **** *
  47:Generated_Source\PSoC4/CyDMA.c **** * Summary:
  48:Generated_Source\PSoC4/CyDMA.c **** *  Sets the default ISR to be called by the DMA interrupt and enables the DMA
  49:Generated_Source\PSoC4/CyDMA.c **** *  transfer engine.
  50:Generated_Source\PSoC4/CyDMA.c **** *
  51:Generated_Source\PSoC4/CyDMA.c **** * Parameters:
  52:Generated_Source\PSoC4/CyDMA.c **** *  None.
  53:Generated_Source\PSoC4/CyDMA.c **** *                   
  54:Generated_Source\PSoC4/CyDMA.c **** * Return:
  55:Generated_Source\PSoC4/CyDMA.c **** *  None.
  56:Generated_Source\PSoC4/CyDMA.c **** *
  57:Generated_Source\PSoC4/CyDMA.c **** * Side effect:
  58:Generated_Source\PSoC4/CyDMA.c **** *  Does not affect the channel enable status. Overrides the interrupt vector
  59:Generated_Source\PSoC4/CyDMA.c **** *  set prior the first time CyDmaEnable() is called.
  60:Generated_Source\PSoC4/CyDMA.c **** *
  61:Generated_Source\PSoC4/CyDMA.c **** *******************************************************************************/
  62:Generated_Source\PSoC4/CyDMA.c **** void CyDmaEnable(void)
  63:Generated_Source\PSoC4/CyDMA.c **** {
  64:Generated_Source\PSoC4/CyDMA.c ****     static uint8 initIntrVector = 0u;
  65:Generated_Source\PSoC4/CyDMA.c **** 
  66:Generated_Source\PSoC4/CyDMA.c ****     if(0u == initIntrVector)
  67:Generated_Source\PSoC4/CyDMA.c ****     {
  68:Generated_Source\PSoC4/CyDMA.c ****         CyDmaSetInterruptVector(&CyDmaInterrupt);
  69:Generated_Source\PSoC4/CyDMA.c ****         CyIntSetPriority(CYDMA_INTR_NUMBER, CYDMA_INTR_PRIO);
  70:Generated_Source\PSoC4/CyDMA.c ****         initIntrVector = 1u;
  71:Generated_Source\PSoC4/CyDMA.c ****     }
  72:Generated_Source\PSoC4/CyDMA.c ****     CYDMA_CTL_REG = CYDMA_ENABLED;
  73:Generated_Source\PSoC4/CyDMA.c **** }
  74:Generated_Source\PSoC4/CyDMA.c **** 
  75:Generated_Source\PSoC4/CyDMA.c **** 
  76:Generated_Source\PSoC4/CyDMA.c **** /*******************************************************************************
  77:Generated_Source\PSoC4/CyDMA.c **** * Function Name: CyDmaDisable
  78:Generated_Source\PSoC4/CyDMA.c **** ********************************************************************************
  79:Generated_Source\PSoC4/CyDMA.c **** *
  80:Generated_Source\PSoC4/CyDMA.c **** * Summary:
  81:Generated_Source\PSoC4/CyDMA.c **** *  Disables the DMA transfer engine.
  82:Generated_Source\PSoC4/CyDMA.c **** *
  83:Generated_Source\PSoC4/CyDMA.c **** * Parameters:
  84:Generated_Source\PSoC4/CyDMA.c **** *  None.
  85:Generated_Source\PSoC4/CyDMA.c **** *                   
  86:Generated_Source\PSoC4/CyDMA.c **** * Return:
  87:Generated_Source\PSoC4/CyDMA.c **** *  None.
  88:Generated_Source\PSoC4/CyDMA.c **** *
  89:Generated_Source\PSoC4/CyDMA.c **** * Side effect:
ARM GAS  C:\Users\Greg\AppData\Local\Temp\ccTXpTtu.s 			page 3


  90:Generated_Source\PSoC4/CyDMA.c **** *  Does not affect the channel enable status.
  91:Generated_Source\PSoC4/CyDMA.c **** *
  92:Generated_Source\PSoC4/CyDMA.c **** *******************************************************************************/
  93:Generated_Source\PSoC4/CyDMA.c **** void CyDmaDisable(void)
  94:Generated_Source\PSoC4/CyDMA.c **** {
  95:Generated_Source\PSoC4/CyDMA.c ****     CYDMA_CTL_REG = (uint32)~CYDMA_ENABLED;
  96:Generated_Source\PSoC4/CyDMA.c **** }
  97:Generated_Source\PSoC4/CyDMA.c **** 
  98:Generated_Source\PSoC4/CyDMA.c **** 
  99:Generated_Source\PSoC4/CyDMA.c **** /*******************************************************************************
 100:Generated_Source\PSoC4/CyDMA.c **** * Function Name: CyDmaGetStatus
 101:Generated_Source\PSoC4/CyDMA.c **** ********************************************************************************
 102:Generated_Source\PSoC4/CyDMA.c **** *
 103:Generated_Source\PSoC4/CyDMA.c **** * Summary:
 104:Generated_Source\PSoC4/CyDMA.c **** *  Returns the status of the DMA transfer engine.
 105:Generated_Source\PSoC4/CyDMA.c **** *
 106:Generated_Source\PSoC4/CyDMA.c **** * Parameters:
 107:Generated_Source\PSoC4/CyDMA.c **** *  None.
 108:Generated_Source\PSoC4/CyDMA.c **** *                   
 109:Generated_Source\PSoC4/CyDMA.c **** * Return:
 110:Generated_Source\PSoC4/CyDMA.c **** *  The contents of the DMA status register. Refer to the status register bit
 111:Generated_Source\PSoC4/CyDMA.c **** *  definitions in CyDMA_P4.h or the API description in the DMA channel
 112:Generated_Source\PSoC4/CyDMA.c **** *  datasheet.
 113:Generated_Source\PSoC4/CyDMA.c **** *
 114:Generated_Source\PSoC4/CyDMA.c **** * Side effect:
 115:Generated_Source\PSoC4/CyDMA.c **** *  The series of function calls CyDmaGetActiveSrcAddress(),
 116:Generated_Source\PSoC4/CyDMA.c **** *  CyDmaGetActiveDstAddress(), CyDmaGetStatus() are not atomic, the DMA
 117:Generated_Source\PSoC4/CyDMA.c **** *  engine may have advanced after one or more of these function calls. Meaning
 118:Generated_Source\PSoC4/CyDMA.c **** *  the returns from these three functions may not be related to each other.
 119:Generated_Source\PSoC4/CyDMA.c **** *
 120:Generated_Source\PSoC4/CyDMA.c **** *******************************************************************************/
 121:Generated_Source\PSoC4/CyDMA.c **** uint32 CyDmaGetStatus(void)
 122:Generated_Source\PSoC4/CyDMA.c **** {
 123:Generated_Source\PSoC4/CyDMA.c ****     return (CYDMA_STATUS_REG);
 124:Generated_Source\PSoC4/CyDMA.c **** }
 125:Generated_Source\PSoC4/CyDMA.c **** 
 126:Generated_Source\PSoC4/CyDMA.c **** 
 127:Generated_Source\PSoC4/CyDMA.c **** /*******************************************************************************
 128:Generated_Source\PSoC4/CyDMA.c **** * Function Name: CyDmaGetActiveChannels
 129:Generated_Source\PSoC4/CyDMA.c **** ********************************************************************************
 130:Generated_Source\PSoC4/CyDMA.c **** *
 131:Generated_Source\PSoC4/CyDMA.c **** * Summary:
 132:Generated_Source\PSoC4/CyDMA.c **** *  Returns a bit field of all the DMA channels that are either active or
 133:Generated_Source\PSoC4/CyDMA.c **** *  pending.
 134:Generated_Source\PSoC4/CyDMA.c **** *
 135:Generated_Source\PSoC4/CyDMA.c **** * Parameters:
 136:Generated_Source\PSoC4/CyDMA.c **** *  None.
 137:Generated_Source\PSoC4/CyDMA.c **** *                   
 138:Generated_Source\PSoC4/CyDMA.c **** * Return:
 139:Generated_Source\PSoC4/CyDMA.c **** *  Bit field of active and pending channels. 
 140:Generated_Source\PSoC4/CyDMA.c **** *
 141:Generated_Source\PSoC4/CyDMA.c **** *******************************************************************************/
 142:Generated_Source\PSoC4/CyDMA.c **** uint32 CyDmaGetActiveChannels(void)
 143:Generated_Source\PSoC4/CyDMA.c **** {
 144:Generated_Source\PSoC4/CyDMA.c ****     return (CYDMA_STATUS_CH_ACT_REG);
 145:Generated_Source\PSoC4/CyDMA.c **** }
 146:Generated_Source\PSoC4/CyDMA.c **** 
ARM GAS  C:\Users\Greg\AppData\Local\Temp\ccTXpTtu.s 			page 4


 147:Generated_Source\PSoC4/CyDMA.c **** 
 148:Generated_Source\PSoC4/CyDMA.c **** /*******************************************************************************
 149:Generated_Source\PSoC4/CyDMA.c **** * Function Name: CyDmaGetActiveSrcAddress
 150:Generated_Source\PSoC4/CyDMA.c **** ********************************************************************************
 151:Generated_Source\PSoC4/CyDMA.c **** *
 152:Generated_Source\PSoC4/CyDMA.c **** * Summary:
 153:Generated_Source\PSoC4/CyDMA.c **** *  Returns the source address currently being used by the DMA transfer engine.
 154:Generated_Source\PSoC4/CyDMA.c **** *  This function can be used to debug the DMA, or observe where it is at in a
 155:Generated_Source\PSoC4/CyDMA.c **** *  transfer. It will not be used in normal DMA operation.
 156:Generated_Source\PSoC4/CyDMA.c **** *
 157:Generated_Source\PSoC4/CyDMA.c **** * Parameters:
 158:Generated_Source\PSoC4/CyDMA.c **** *  None.
 159:Generated_Source\PSoC4/CyDMA.c **** *                   
 160:Generated_Source\PSoC4/CyDMA.c **** * Return:
 161:Generated_Source\PSoC4/CyDMA.c **** *  Source address currently being used by the DMA transfer engine.
 162:Generated_Source\PSoC4/CyDMA.c **** *
 163:Generated_Source\PSoC4/CyDMA.c **** * Side effect:
 164:Generated_Source\PSoC4/CyDMA.c **** *  The series of function calls CyDmaGetActiveSrcAddress(),
 165:Generated_Source\PSoC4/CyDMA.c **** *  CyDmaGetActiveDstAddress(), CyDmaGetStatus() are not atomic, the DMA
 166:Generated_Source\PSoC4/CyDMA.c **** *  engine may have advanced after one or more of these function calls. Meaning
 167:Generated_Source\PSoC4/CyDMA.c **** *  the returns from these three functions may not be related to each other.
 168:Generated_Source\PSoC4/CyDMA.c **** *
 169:Generated_Source\PSoC4/CyDMA.c **** *******************************************************************************/
 170:Generated_Source\PSoC4/CyDMA.c **** void * CyDmaGetActiveSrcAddress(void)
 171:Generated_Source\PSoC4/CyDMA.c **** {
 172:Generated_Source\PSoC4/CyDMA.c ****     return ((void *)CYDMA_STATUS_SRC_ADDR_REG);
 173:Generated_Source\PSoC4/CyDMA.c **** }
 174:Generated_Source\PSoC4/CyDMA.c **** 
 175:Generated_Source\PSoC4/CyDMA.c **** 
 176:Generated_Source\PSoC4/CyDMA.c **** /*******************************************************************************
 177:Generated_Source\PSoC4/CyDMA.c **** * Function Name: CyDmaGetActiveDstAddress
 178:Generated_Source\PSoC4/CyDMA.c **** ********************************************************************************
 179:Generated_Source\PSoC4/CyDMA.c **** *
 180:Generated_Source\PSoC4/CyDMA.c **** * Summary:
 181:Generated_Source\PSoC4/CyDMA.c **** *  Returns the destination address currently being used by the DMA transfer
 182:Generated_Source\PSoC4/CyDMA.c **** *  engine. This function can be used to debug the DMA, or observe where it is at
 183:Generated_Source\PSoC4/CyDMA.c **** *  in a transfer. It will not be used in normal DMA operation.
 184:Generated_Source\PSoC4/CyDMA.c **** *
 185:Generated_Source\PSoC4/CyDMA.c **** * Parameters:
 186:Generated_Source\PSoC4/CyDMA.c **** *  None.
 187:Generated_Source\PSoC4/CyDMA.c **** *                   
 188:Generated_Source\PSoC4/CyDMA.c **** * Return:
 189:Generated_Source\PSoC4/CyDMA.c **** *  Destination address currently being used by the DMA transfer engine.
 190:Generated_Source\PSoC4/CyDMA.c **** *
 191:Generated_Source\PSoC4/CyDMA.c **** * Side effect:
 192:Generated_Source\PSoC4/CyDMA.c **** *  The series of function calls CyDmaGetActiveSrcAddress(),
 193:Generated_Source\PSoC4/CyDMA.c **** *  CyDmaGetActiveDstAddress(), CyDmaGetStatus() are not atomic, the DMA
 194:Generated_Source\PSoC4/CyDMA.c **** *  engine may have advanced after one or more of these function calls. Meaning
 195:Generated_Source\PSoC4/CyDMA.c **** *  the returns from these three functions may not be related to each other.
 196:Generated_Source\PSoC4/CyDMA.c **** *
 197:Generated_Source\PSoC4/CyDMA.c **** *******************************************************************************/
 198:Generated_Source\PSoC4/CyDMA.c **** void * CyDmaGetActiveDstAddress(void)
 199:Generated_Source\PSoC4/CyDMA.c **** {
 200:Generated_Source\PSoC4/CyDMA.c ****     return ((void *)CYDMA_STATUS_DST_ADDR_REG);
 201:Generated_Source\PSoC4/CyDMA.c **** }
 202:Generated_Source\PSoC4/CyDMA.c **** 
 203:Generated_Source\PSoC4/CyDMA.c **** 
ARM GAS  C:\Users\Greg\AppData\Local\Temp\ccTXpTtu.s 			page 5


 204:Generated_Source\PSoC4/CyDMA.c **** /*******************************************************************************
 205:Generated_Source\PSoC4/CyDMA.c **** * Function Name: CyDmaSetInterruptVector
 206:Generated_Source\PSoC4/CyDMA.c **** ********************************************************************************
 207:Generated_Source\PSoC4/CyDMA.c **** *
 208:Generated_Source\PSoC4/CyDMA.c **** * Summary:
 209:Generated_Source\PSoC4/CyDMA.c **** *  Sets the function that will be called by the DMA interrupt. Note, calling
 210:Generated_Source\PSoC4/CyDMA.c **** *  CyDmaEnable() for the first time overrides any effect this API could have.
 211:Generated_Source\PSoC4/CyDMA.c **** *  Call CyDmaSetInterruptVector() after calling CyDmaEnable() to change
 212:Generated_Source\PSoC4/CyDMA.c **** *  the default ISR.
 213:Generated_Source\PSoC4/CyDMA.c **** *
 214:Generated_Source\PSoC4/CyDMA.c **** * Parameters:
 215:Generated_Source\PSoC4/CyDMA.c **** *  interruptVector: Address of the function that will be called by the DMA
 216:Generated_Source\PSoC4/CyDMA.c **** *                   interrupt.
 217:Generated_Source\PSoC4/CyDMA.c **** * Return:
 218:Generated_Source\PSoC4/CyDMA.c **** *  None.
 219:Generated_Source\PSoC4/CyDMA.c **** *
 220:Generated_Source\PSoC4/CyDMA.c **** * Side effect:
 221:Generated_Source\PSoC4/CyDMA.c **** *  Other components that use DMA may register their callback functions to be
 222:Generated_Source\PSoC4/CyDMA.c **** *  called from the default DMA ISR. Therefore, changing the DMA ISR to a user
 223:Generated_Source\PSoC4/CyDMA.c **** *  defined ISR using this API may prevent these other components from
 224:Generated_Source\PSoC4/CyDMA.c **** *  functioning correctly.
 225:Generated_Source\PSoC4/CyDMA.c **** *
 226:Generated_Source\PSoC4/CyDMA.c **** *******************************************************************************/
 227:Generated_Source\PSoC4/CyDMA.c **** void CyDmaSetInterruptVector(cyisraddress interruptVector)
 228:Generated_Source\PSoC4/CyDMA.c **** {
 229:Generated_Source\PSoC4/CyDMA.c ****     (void)CyIntSetVector(CYDMA_INTR_NUMBER, interruptVector);
 230:Generated_Source\PSoC4/CyDMA.c **** }
 231:Generated_Source\PSoC4/CyDMA.c **** 
 232:Generated_Source\PSoC4/CyDMA.c **** 
 233:Generated_Source\PSoC4/CyDMA.c **** /*******************************************************************************
 234:Generated_Source\PSoC4/CyDMA.c **** * Function Name: CyDmaGetInterruptSource
 235:Generated_Source\PSoC4/CyDMA.c **** ********************************************************************************
 236:Generated_Source\PSoC4/CyDMA.c **** *
 237:Generated_Source\PSoC4/CyDMA.c **** * Summary:
 238:Generated_Source\PSoC4/CyDMA.c **** *  Returns the bit field of which channels generated an interrupt request.
 239:Generated_Source\PSoC4/CyDMA.c **** *
 240:Generated_Source\PSoC4/CyDMA.c **** * Parameters:
 241:Generated_Source\PSoC4/CyDMA.c **** *  None.
 242:Generated_Source\PSoC4/CyDMA.c **** *                   
 243:Generated_Source\PSoC4/CyDMA.c **** * Return:
 244:Generated_Source\PSoC4/CyDMA.c **** *  Bit filed of which channels generated an interrupt request.
 245:Generated_Source\PSoC4/CyDMA.c **** *
 246:Generated_Source\PSoC4/CyDMA.c **** *******************************************************************************/
 247:Generated_Source\PSoC4/CyDMA.c **** uint32 CyDmaGetInterruptSource(void)
 248:Generated_Source\PSoC4/CyDMA.c **** {
 249:Generated_Source\PSoC4/CyDMA.c ****     return (CYDMA_INTR_REG);
 250:Generated_Source\PSoC4/CyDMA.c **** }
 251:Generated_Source\PSoC4/CyDMA.c **** 
 252:Generated_Source\PSoC4/CyDMA.c **** 
 253:Generated_Source\PSoC4/CyDMA.c **** /*******************************************************************************
 254:Generated_Source\PSoC4/CyDMA.c **** * Function Name: CyDmaClearInterruptSource
 255:Generated_Source\PSoC4/CyDMA.c **** ********************************************************************************
 256:Generated_Source\PSoC4/CyDMA.c **** *
 257:Generated_Source\PSoC4/CyDMA.c **** * Summary:
 258:Generated_Source\PSoC4/CyDMA.c **** *  Clears the pending interrupts.
 259:Generated_Source\PSoC4/CyDMA.c **** *
 260:Generated_Source\PSoC4/CyDMA.c **** * Parameters:
ARM GAS  C:\Users\Greg\AppData\Local\Temp\ccTXpTtu.s 			page 6


 261:Generated_Source\PSoC4/CyDMA.c **** *  interruptMask: Bit field of interrupts to clear.
 262:Generated_Source\PSoC4/CyDMA.c **** *                   
 263:Generated_Source\PSoC4/CyDMA.c **** * Return:
 264:Generated_Source\PSoC4/CyDMA.c **** *  None.
 265:Generated_Source\PSoC4/CyDMA.c **** *
 266:Generated_Source\PSoC4/CyDMA.c **** *******************************************************************************/
 267:Generated_Source\PSoC4/CyDMA.c **** void CyDmaClearInterruptSource(uint32 interruptMask)
 268:Generated_Source\PSoC4/CyDMA.c **** {
 269:Generated_Source\PSoC4/CyDMA.c ****     CYDMA_INTR_REG = interruptMask;
 270:Generated_Source\PSoC4/CyDMA.c **** }
 271:Generated_Source\PSoC4/CyDMA.c **** 
 272:Generated_Source\PSoC4/CyDMA.c **** 
 273:Generated_Source\PSoC4/CyDMA.c **** /*******************************************************************************
 274:Generated_Source\PSoC4/CyDMA.c **** * Function Name: CyDmaSetInterruptSourceMask
 275:Generated_Source\PSoC4/CyDMA.c **** ********************************************************************************
 276:Generated_Source\PSoC4/CyDMA.c **** *
 277:Generated_Source\PSoC4/CyDMA.c **** * Summary:
 278:Generated_Source\PSoC4/CyDMA.c **** *  Sets mask for interrupt source.
 279:Generated_Source\PSoC4/CyDMA.c **** *
 280:Generated_Source\PSoC4/CyDMA.c **** * Parameters:
 281:Generated_Source\PSoC4/CyDMA.c **** *  interruptmask: Mask corresponding to interrupt bit field.
 282:Generated_Source\PSoC4/CyDMA.c **** *                   
 283:Generated_Source\PSoC4/CyDMA.c **** * Return:
 284:Generated_Source\PSoC4/CyDMA.c **** *  None.
 285:Generated_Source\PSoC4/CyDMA.c **** *
 286:Generated_Source\PSoC4/CyDMA.c **** *******************************************************************************/
 287:Generated_Source\PSoC4/CyDMA.c **** void CyDmaSetInterruptSourceMask(uint32 interruptMask)
 288:Generated_Source\PSoC4/CyDMA.c **** {
 289:Generated_Source\PSoC4/CyDMA.c ****     CYDMA_INTR_MASK_REG = interruptMask;
 290:Generated_Source\PSoC4/CyDMA.c **** }
 291:Generated_Source\PSoC4/CyDMA.c **** 
 292:Generated_Source\PSoC4/CyDMA.c **** 
 293:Generated_Source\PSoC4/CyDMA.c **** /*******************************************************************************
 294:Generated_Source\PSoC4/CyDMA.c **** * Function Name: CyDmaGetInterruptSourceMask
 295:Generated_Source\PSoC4/CyDMA.c **** ********************************************************************************
 296:Generated_Source\PSoC4/CyDMA.c **** *
 297:Generated_Source\PSoC4/CyDMA.c **** * Summary:
 298:Generated_Source\PSoC4/CyDMA.c **** *  Returns mask for interrupt source.
 299:Generated_Source\PSoC4/CyDMA.c **** *
 300:Generated_Source\PSoC4/CyDMA.c **** * Parameters:
 301:Generated_Source\PSoC4/CyDMA.c **** *  None.
 302:Generated_Source\PSoC4/CyDMA.c **** *                   
 303:Generated_Source\PSoC4/CyDMA.c **** * Return:
 304:Generated_Source\PSoC4/CyDMA.c **** *  Mask corresponding to interrupt bit field.
 305:Generated_Source\PSoC4/CyDMA.c **** *
 306:Generated_Source\PSoC4/CyDMA.c **** *******************************************************************************/
 307:Generated_Source\PSoC4/CyDMA.c **** uint32 CyDmaGetInterruptSourceMask(void)
 308:Generated_Source\PSoC4/CyDMA.c **** {
 309:Generated_Source\PSoC4/CyDMA.c ****     return (CYDMA_INTR_MASK_REG);
 310:Generated_Source\PSoC4/CyDMA.c **** }
 311:Generated_Source\PSoC4/CyDMA.c **** 
 312:Generated_Source\PSoC4/CyDMA.c **** 
 313:Generated_Source\PSoC4/CyDMA.c **** /*******************************************************************************
 314:Generated_Source\PSoC4/CyDMA.c **** * Function Name: CyDmaGetInterruptSourceMasked
 315:Generated_Source\PSoC4/CyDMA.c **** ********************************************************************************
 316:Generated_Source\PSoC4/CyDMA.c **** *
 317:Generated_Source\PSoC4/CyDMA.c **** * Summary:
ARM GAS  C:\Users\Greg\AppData\Local\Temp\ccTXpTtu.s 			page 7


 318:Generated_Source\PSoC4/CyDMA.c **** *  Returns the bitwise AND of the interrupt source and the interrupt mask.
 319:Generated_Source\PSoC4/CyDMA.c **** *
 320:Generated_Source\PSoC4/CyDMA.c **** * Parameters:
 321:Generated_Source\PSoC4/CyDMA.c **** *  None.
 322:Generated_Source\PSoC4/CyDMA.c **** *                   
 323:Generated_Source\PSoC4/CyDMA.c **** * Return:
 324:Generated_Source\PSoC4/CyDMA.c **** *  Bitwise AND of the interrupt source and the interrupt mask.
 325:Generated_Source\PSoC4/CyDMA.c **** *
 326:Generated_Source\PSoC4/CyDMA.c **** *******************************************************************************/
 327:Generated_Source\PSoC4/CyDMA.c **** uint32 CyDmaGetInterruptSourceMasked(void)
 328:Generated_Source\PSoC4/CyDMA.c **** {
 329:Generated_Source\PSoC4/CyDMA.c ****     return (CYDMA_INTR_MASKED_REG);
 330:Generated_Source\PSoC4/CyDMA.c **** }
 331:Generated_Source\PSoC4/CyDMA.c **** 
 332:Generated_Source\PSoC4/CyDMA.c **** 
 333:Generated_Source\PSoC4/CyDMA.c **** /*******************************************************************************
 334:Generated_Source\PSoC4/CyDMA.c **** * Function Name: CyDmaSetInterruptCallback
 335:Generated_Source\PSoC4/CyDMA.c **** ********************************************************************************
 336:Generated_Source\PSoC4/CyDMA.c **** *
 337:Generated_Source\PSoC4/CyDMA.c **** * Summary:
 338:Generated_Source\PSoC4/CyDMA.c **** *  Sets a user defined callback function to be called by the DMA interrupt. The
 339:Generated_Source\PSoC4/CyDMA.c **** *  function should contain code to process the interrupt request for the 
 340:Generated_Source\PSoC4/CyDMA.c **** *  associated DMA channel.
 341:Generated_Source\PSoC4/CyDMA.c **** *
 342:Generated_Source\PSoC4/CyDMA.c **** * Parameters:
 343:Generated_Source\PSoC4/CyDMA.c **** *  channel:  Channel used by this function.
 344:Generated_Source\PSoC4/CyDMA.c **** *  callback: Pointer to the user defined callback function.
 345:Generated_Source\PSoC4/CyDMA.c **** *
 346:Generated_Source\PSoC4/CyDMA.c **** * Return:
 347:Generated_Source\PSoC4/CyDMA.c **** *  Pointer to the function previously set for the specified channel. 
 348:Generated_Source\PSoC4/CyDMA.c **** *
 349:Generated_Source\PSoC4/CyDMA.c **** *******************************************************************************/
 350:Generated_Source\PSoC4/CyDMA.c **** cydma_callback_t CyDmaSetInterruptCallback(int32 channel, cydma_callback_t callback)
 351:Generated_Source\PSoC4/CyDMA.c **** {
 352:Generated_Source\PSoC4/CyDMA.c ****     cydma_callback_t prevCallback;
 353:Generated_Source\PSoC4/CyDMA.c **** 
 354:Generated_Source\PSoC4/CyDMA.c ****     CYASSERT((channel >= 0) && (channel < CYDMA_CH_NR));
 355:Generated_Source\PSoC4/CyDMA.c **** 
 356:Generated_Source\PSoC4/CyDMA.c ****     prevCallback = CyDmaInterruptCallback[channel];
 357:Generated_Source\PSoC4/CyDMA.c ****     CyDmaInterruptCallback[channel] = callback;
 358:Generated_Source\PSoC4/CyDMA.c ****     return (prevCallback);
 359:Generated_Source\PSoC4/CyDMA.c **** }
 360:Generated_Source\PSoC4/CyDMA.c **** 
 361:Generated_Source\PSoC4/CyDMA.c **** 
 362:Generated_Source\PSoC4/CyDMA.c **** /*******************************************************************************
 363:Generated_Source\PSoC4/CyDMA.c **** * Function Name: CyDmaGetInterruptCallback
 364:Generated_Source\PSoC4/CyDMA.c **** ********************************************************************************
 365:Generated_Source\PSoC4/CyDMA.c **** *
 366:Generated_Source\PSoC4/CyDMA.c **** * Summary:
 367:Generated_Source\PSoC4/CyDMA.c **** *  Returns the pointer to the interrupt callback function for the specified DMA
 368:Generated_Source\PSoC4/CyDMA.c **** *  channel.
 369:Generated_Source\PSoC4/CyDMA.c **** *
 370:Generated_Source\PSoC4/CyDMA.c **** * Parameters:
 371:Generated_Source\PSoC4/CyDMA.c **** *  channel: Channel used by this function.
 372:Generated_Source\PSoC4/CyDMA.c **** *
 373:Generated_Source\PSoC4/CyDMA.c **** * Return:
 374:Generated_Source\PSoC4/CyDMA.c **** *  Callback function pointer for the specified channel.
ARM GAS  C:\Users\Greg\AppData\Local\Temp\ccTXpTtu.s 			page 8


 375:Generated_Source\PSoC4/CyDMA.c **** *
 376:Generated_Source\PSoC4/CyDMA.c **** *******************************************************************************/
 377:Generated_Source\PSoC4/CyDMA.c **** cydma_callback_t CyDmaGetInterruptCallback(int32 channel)
 378:Generated_Source\PSoC4/CyDMA.c **** {
 379:Generated_Source\PSoC4/CyDMA.c ****     CYASSERT((channel >= 0) && (channel < CYDMA_CH_NR));
 380:Generated_Source\PSoC4/CyDMA.c ****     
 381:Generated_Source\PSoC4/CyDMA.c ****     return (CyDmaInterruptCallback[channel]);
 382:Generated_Source\PSoC4/CyDMA.c **** }
 383:Generated_Source\PSoC4/CyDMA.c **** 
 384:Generated_Source\PSoC4/CyDMA.c **** 
 385:Generated_Source\PSoC4/CyDMA.c **** /*******************************************************************************
 386:Generated_Source\PSoC4/CyDMA.c **** * Function Name: CyDmaInterrupt
 387:Generated_Source\PSoC4/CyDMA.c **** ********************************************************************************
 388:Generated_Source\PSoC4/CyDMA.c **** *
 389:Generated_Source\PSoC4/CyDMA.c **** * Summary:
 390:Generated_Source\PSoC4/CyDMA.c **** *  The default ISR for DMA interrupts. The handler checks which DMA channel has
 391:Generated_Source\PSoC4/CyDMA.c **** *  triggered the interrupt and calls the user defined callback function.
 392:Generated_Source\PSoC4/CyDMA.c **** *  The callback function is set using CyDmaSetInteruptCallback() API.
 393:Generated_Source\PSoC4/CyDMA.c **** *
 394:Generated_Source\PSoC4/CyDMA.c **** * Parameters:
 395:Generated_Source\PSoC4/CyDMA.c **** *  None.
 396:Generated_Source\PSoC4/CyDMA.c **** *
 397:Generated_Source\PSoC4/CyDMA.c **** * Return:
 398:Generated_Source\PSoC4/CyDMA.c **** *  None.
 399:Generated_Source\PSoC4/CyDMA.c **** *
 400:Generated_Source\PSoC4/CyDMA.c **** * Side Effects:
 401:Generated_Source\PSoC4/CyDMA.c **** *  This function clears the pending interrupts.
 402:Generated_Source\PSoC4/CyDMA.c **** *
 403:Generated_Source\PSoC4/CyDMA.c **** *******************************************************************************/
 404:Generated_Source\PSoC4/CyDMA.c **** CY_ISR(CyDmaInterrupt)
 405:Generated_Source\PSoC4/CyDMA.c **** {
  26              		.loc 1 405 0
  27              		.cfi_startproc
  28 0000 38B5     		push	{r3, r4, r5, lr}
  29              		.cfi_def_cfa_offset 16
  30              		.cfi_offset 3, -16
  31              		.cfi_offset 4, -12
  32              		.cfi_offset 5, -8
  33              		.cfi_offset 14, -4
  34              	.LVL0:
 406:Generated_Source\PSoC4/CyDMA.c ****     uint32 intr;
 407:Generated_Source\PSoC4/CyDMA.c ****     uint32 cbIdx = 0u;
 408:Generated_Source\PSoC4/CyDMA.c **** 
 409:Generated_Source\PSoC4/CyDMA.c ****     /* Get interrupt source. */
 410:Generated_Source\PSoC4/CyDMA.c ****     intr = CYDMA_INTR_MASKED_REG;
  35              		.loc 1 410 0
  36 0002 084B     		ldr	r3, .L5
  37 0004 1C68     		ldr	r4, [r3]
  38              	.LVL1:
 411:Generated_Source\PSoC4/CyDMA.c **** 
 412:Generated_Source\PSoC4/CyDMA.c ****     /* Clear pending interrupts. */
 413:Generated_Source\PSoC4/CyDMA.c ****     CYDMA_INTR_REG = intr;
  39              		.loc 1 413 0
  40 0006 084B     		ldr	r3, .L5+4
  41 0008 1C60     		str	r4, [r3]
 407:Generated_Source\PSoC4/CyDMA.c **** 
  42              		.loc 1 407 0
ARM GAS  C:\Users\Greg\AppData\Local\Temp\ccTXpTtu.s 			page 9


  43 000a 0025     		mov	r5, #0
 414:Generated_Source\PSoC4/CyDMA.c **** 
 415:Generated_Source\PSoC4/CyDMA.c ****     /* Call user defined callback functions for triggered interrupt sources. */
 416:Generated_Source\PSoC4/CyDMA.c ****     while(0u != intr)
  44              		.loc 1 416 0
  45 000c 07E0     		b	.L2
  46              	.LVL2:
  47              	.L4:
 417:Generated_Source\PSoC4/CyDMA.c ****     {
 418:Generated_Source\PSoC4/CyDMA.c ****         if(0u != (intr & 0x1u))
  48              		.loc 1 418 0
  49 000e E307     		lsl	r3, r4, #31
  50 0010 03D5     		bpl	.L3
 419:Generated_Source\PSoC4/CyDMA.c ****         {
 420:Generated_Source\PSoC4/CyDMA.c ****             CyDmaInterruptCallback[cbIdx]();
  51              		.loc 1 420 0
  52 0012 AB00     		lsl	r3, r5, #2
  53 0014 054A     		ldr	r2, .L5+8
  54 0016 9B58     		ldr	r3, [r3, r2]
  55 0018 9847     		blx	r3
  56              	.LVL3:
  57              	.L3:
 421:Generated_Source\PSoC4/CyDMA.c ****         }
 422:Generated_Source\PSoC4/CyDMA.c ****         intr >>= 1;
  58              		.loc 1 422 0
  59 001a 6408     		lsr	r4, r4, #1
  60              	.LVL4:
 423:Generated_Source\PSoC4/CyDMA.c ****         ++cbIdx;
  61              		.loc 1 423 0
  62 001c 0135     		add	r5, r5, #1
  63              	.LVL5:
  64              	.L2:
 416:Generated_Source\PSoC4/CyDMA.c ****     {
  65              		.loc 1 416 0
  66 001e 002C     		cmp	r4, #0
  67 0020 F5D1     		bne	.L4
 424:Generated_Source\PSoC4/CyDMA.c ****     }
 425:Generated_Source\PSoC4/CyDMA.c **** }
  68              		.loc 1 425 0
  69              		@ sp needed
  70              	.LVL6:
  71              	.LVL7:
  72 0022 38BD     		pop	{r3, r4, r5, pc}
  73              	.L6:
  74              		.align	2
  75              	.L5:
  76 0024 FC171040 		.word	1074796540
  77 0028 F0171040 		.word	1074796528
  78 002c 00000000 		.word	.LANCHOR0
  79              		.cfi_endproc
  80              	.LFE15:
  81              		.size	CyDmaInterrupt, .-CyDmaInterrupt
  82              		.section	.text.CyDmaDefaultInterruptCallback,"ax",%progbits
  83              		.align	2
  84              		.code	16
  85              		.thumb_func
  86              		.type	CyDmaDefaultInterruptCallback, %function
ARM GAS  C:\Users\Greg\AppData\Local\Temp\ccTXpTtu.s 			page 10


  87              	CyDmaDefaultInterruptCallback:
  88              	.LFB16:
 426:Generated_Source\PSoC4/CyDMA.c **** 
 427:Generated_Source\PSoC4/CyDMA.c **** 
 428:Generated_Source\PSoC4/CyDMA.c **** /*******************************************************************************
 429:Generated_Source\PSoC4/CyDMA.c **** * Function Name: CyDmaDefaultInterruptCallback
 430:Generated_Source\PSoC4/CyDMA.c **** ********************************************************************************
 431:Generated_Source\PSoC4/CyDMA.c **** *
 432:Generated_Source\PSoC4/CyDMA.c **** * Summary:
 433:Generated_Source\PSoC4/CyDMA.c **** *  This function is invoked when the user defined callback function is undefined
 434:Generated_Source\PSoC4/CyDMA.c **** *  for the interrupt source.
 435:Generated_Source\PSoC4/CyDMA.c **** *
 436:Generated_Source\PSoC4/CyDMA.c **** * Parameters:
 437:Generated_Source\PSoC4/CyDMA.c **** *  None.
 438:Generated_Source\PSoC4/CyDMA.c **** *
 439:Generated_Source\PSoC4/CyDMA.c **** * Return:
 440:Generated_Source\PSoC4/CyDMA.c **** *  None.
 441:Generated_Source\PSoC4/CyDMA.c **** *
 442:Generated_Source\PSoC4/CyDMA.c **** *******************************************************************************/
 443:Generated_Source\PSoC4/CyDMA.c **** static void CyDmaDefaultInterruptCallback(void)
 444:Generated_Source\PSoC4/CyDMA.c **** {
  89              		.loc 1 444 0
  90              		.cfi_startproc
  91 0000 08B5     		push	{r3, lr}
  92              		.cfi_def_cfa_offset 8
  93              		.cfi_offset 3, -8
  94              		.cfi_offset 14, -4
 445:Generated_Source\PSoC4/CyDMA.c ****     /* Halt CPU in debug mode. We get here because there is no user defined
 446:Generated_Source\PSoC4/CyDMA.c ****     * callback function for the interrupt source. You should either set a
 447:Generated_Source\PSoC4/CyDMA.c ****     * callback function or disable generating an interrupt from this
 448:Generated_Source\PSoC4/CyDMA.c ****     * interrupt source.
 449:Generated_Source\PSoC4/CyDMA.c ****     * To set a callback, use the CyDmaSetInterruptCallback() API function.
 450:Generated_Source\PSoC4/CyDMA.c ****     * To disable interrupt generation, write '0' to the corresponding bit
 451:Generated_Source\PSoC4/CyDMA.c ****     * in the interrupt mask by calling CyDmaSetInterruptSourceMask().
 452:Generated_Source\PSoC4/CyDMA.c ****     */
 453:Generated_Source\PSoC4/CyDMA.c ****     CYASSERT(0 != 0);
  95              		.loc 1 453 0
  96 0002 0020     		mov	r0, #0
  97 0004 FFF7FEFF 		bl	CyHalt
  98              	.LVL8:
 454:Generated_Source\PSoC4/CyDMA.c **** }
  99              		.loc 1 454 0
 100              		@ sp needed
 101 0008 08BD     		pop	{r3, pc}
 102              		.cfi_endproc
 103              	.LFE16:
 104              		.size	CyDmaDefaultInterruptCallback, .-CyDmaDefaultInterruptCallback
 105 000a C046     		.section	.text.CyDmaDisable,"ax",%progbits
 106              		.align	2
 107              		.global	CyDmaDisable
 108              		.code	16
 109              		.thumb_func
 110              		.type	CyDmaDisable, %function
 111              	CyDmaDisable:
 112              	.LFB2:
  94:Generated_Source\PSoC4/CyDMA.c ****     CYDMA_CTL_REG = (uint32)~CYDMA_ENABLED;
 113              		.loc 1 94 0
ARM GAS  C:\Users\Greg\AppData\Local\Temp\ccTXpTtu.s 			page 11


 114              		.cfi_startproc
  95:Generated_Source\PSoC4/CyDMA.c **** }
 115              		.loc 1 95 0
 116 0000 014A     		ldr	r2, .L9
 117 0002 024B     		ldr	r3, .L9+4
 118 0004 1A60     		str	r2, [r3]
  96:Generated_Source\PSoC4/CyDMA.c **** 
 119              		.loc 1 96 0
 120              		@ sp needed
 121 0006 7047     		bx	lr
 122              	.L10:
 123              		.align	2
 124              	.L9:
 125 0008 FFFFFF7F 		.word	2147483647
 126 000c 00101040 		.word	1074794496
 127              		.cfi_endproc
 128              	.LFE2:
 129              		.size	CyDmaDisable, .-CyDmaDisable
 130              		.section	.text.CyDmaGetStatus,"ax",%progbits
 131              		.align	2
 132              		.global	CyDmaGetStatus
 133              		.code	16
 134              		.thumb_func
 135              		.type	CyDmaGetStatus, %function
 136              	CyDmaGetStatus:
 137              	.LFB3:
 122:Generated_Source\PSoC4/CyDMA.c ****     return (CYDMA_STATUS_REG);
 138              		.loc 1 122 0
 139              		.cfi_startproc
 123:Generated_Source\PSoC4/CyDMA.c **** }
 140              		.loc 1 123 0
 141 0000 014B     		ldr	r3, .L12
 142 0002 1868     		ldr	r0, [r3]
 124:Generated_Source\PSoC4/CyDMA.c **** 
 143              		.loc 1 124 0
 144              		@ sp needed
 145 0004 7047     		bx	lr
 146              	.L13:
 147 0006 C046     		.align	2
 148              	.L12:
 149 0008 10101040 		.word	1074794512
 150              		.cfi_endproc
 151              	.LFE3:
 152              		.size	CyDmaGetStatus, .-CyDmaGetStatus
 153              		.section	.text.CyDmaGetActiveChannels,"ax",%progbits
 154              		.align	2
 155              		.global	CyDmaGetActiveChannels
 156              		.code	16
 157              		.thumb_func
 158              		.type	CyDmaGetActiveChannels, %function
 159              	CyDmaGetActiveChannels:
 160              	.LFB4:
 143:Generated_Source\PSoC4/CyDMA.c ****     return (CYDMA_STATUS_CH_ACT_REG);
 161              		.loc 1 143 0
 162              		.cfi_startproc
 144:Generated_Source\PSoC4/CyDMA.c **** }
 163              		.loc 1 144 0
ARM GAS  C:\Users\Greg\AppData\Local\Temp\ccTXpTtu.s 			page 12


 164 0000 014B     		ldr	r3, .L15
 165 0002 1868     		ldr	r0, [r3]
 145:Generated_Source\PSoC4/CyDMA.c **** 
 166              		.loc 1 145 0
 167              		@ sp needed
 168 0004 7047     		bx	lr
 169              	.L16:
 170 0006 C046     		.align	2
 171              	.L15:
 172 0008 1C101040 		.word	1074794524
 173              		.cfi_endproc
 174              	.LFE4:
 175              		.size	CyDmaGetActiveChannels, .-CyDmaGetActiveChannels
 176              		.section	.text.CyDmaGetActiveSrcAddress,"ax",%progbits
 177              		.align	2
 178              		.global	CyDmaGetActiveSrcAddress
 179              		.code	16
 180              		.thumb_func
 181              		.type	CyDmaGetActiveSrcAddress, %function
 182              	CyDmaGetActiveSrcAddress:
 183              	.LFB5:
 171:Generated_Source\PSoC4/CyDMA.c ****     return ((void *)CYDMA_STATUS_SRC_ADDR_REG);
 184              		.loc 1 171 0
 185              		.cfi_startproc
 172:Generated_Source\PSoC4/CyDMA.c **** }
 186              		.loc 1 172 0
 187 0000 014B     		ldr	r3, .L18
 188 0002 1868     		ldr	r0, [r3]
 173:Generated_Source\PSoC4/CyDMA.c **** 
 189              		.loc 1 173 0
 190              		@ sp needed
 191 0004 7047     		bx	lr
 192              	.L19:
 193 0006 C046     		.align	2
 194              	.L18:
 195 0008 14101040 		.word	1074794516
 196              		.cfi_endproc
 197              	.LFE5:
 198              		.size	CyDmaGetActiveSrcAddress, .-CyDmaGetActiveSrcAddress
 199              		.section	.text.CyDmaGetActiveDstAddress,"ax",%progbits
 200              		.align	2
 201              		.global	CyDmaGetActiveDstAddress
 202              		.code	16
 203              		.thumb_func
 204              		.type	CyDmaGetActiveDstAddress, %function
 205              	CyDmaGetActiveDstAddress:
 206              	.LFB6:
 199:Generated_Source\PSoC4/CyDMA.c ****     return ((void *)CYDMA_STATUS_DST_ADDR_REG);
 207              		.loc 1 199 0
 208              		.cfi_startproc
 200:Generated_Source\PSoC4/CyDMA.c **** }
 209              		.loc 1 200 0
 210 0000 014B     		ldr	r3, .L21
 211 0002 1868     		ldr	r0, [r3]
 201:Generated_Source\PSoC4/CyDMA.c **** 
 212              		.loc 1 201 0
 213              		@ sp needed
ARM GAS  C:\Users\Greg\AppData\Local\Temp\ccTXpTtu.s 			page 13


 214 0004 7047     		bx	lr
 215              	.L22:
 216 0006 C046     		.align	2
 217              	.L21:
 218 0008 18101040 		.word	1074794520
 219              		.cfi_endproc
 220              	.LFE6:
 221              		.size	CyDmaGetActiveDstAddress, .-CyDmaGetActiveDstAddress
 222              		.section	.text.CyDmaSetInterruptVector,"ax",%progbits
 223              		.align	2
 224              		.global	CyDmaSetInterruptVector
 225              		.code	16
 226              		.thumb_func
 227              		.type	CyDmaSetInterruptVector, %function
 228              	CyDmaSetInterruptVector:
 229              	.LFB7:
 228:Generated_Source\PSoC4/CyDMA.c ****     (void)CyIntSetVector(CYDMA_INTR_NUMBER, interruptVector);
 230              		.loc 1 228 0
 231              		.cfi_startproc
 232              	.LVL9:
 233 0000 08B5     		push	{r3, lr}
 234              		.cfi_def_cfa_offset 8
 235              		.cfi_offset 3, -8
 236              		.cfi_offset 14, -4
 237 0002 011C     		mov	r1, r0
 229:Generated_Source\PSoC4/CyDMA.c **** }
 238              		.loc 1 229 0
 239 0004 0C20     		mov	r0, #12
 240              	.LVL10:
 241 0006 FFF7FEFF 		bl	CyIntSetVector
 242              	.LVL11:
 230:Generated_Source\PSoC4/CyDMA.c **** 
 243              		.loc 1 230 0
 244              		@ sp needed
 245 000a 08BD     		pop	{r3, pc}
 246              		.cfi_endproc
 247              	.LFE7:
 248              		.size	CyDmaSetInterruptVector, .-CyDmaSetInterruptVector
 249              		.section	.text.CyDmaEnable,"ax",%progbits
 250              		.align	2
 251              		.global	CyDmaEnable
 252              		.code	16
 253              		.thumb_func
 254              		.type	CyDmaEnable, %function
 255              	CyDmaEnable:
 256              	.LFB1:
  63:Generated_Source\PSoC4/CyDMA.c ****     static uint8 initIntrVector = 0u;
 257              		.loc 1 63 0
 258              		.cfi_startproc
 259 0000 08B5     		push	{r3, lr}
 260              		.cfi_def_cfa_offset 8
 261              		.cfi_offset 3, -8
 262              		.cfi_offset 14, -4
  66:Generated_Source\PSoC4/CyDMA.c ****     {
 263              		.loc 1 66 0
 264 0002 094B     		ldr	r3, .L26
 265 0004 1B78     		ldrb	r3, [r3]
ARM GAS  C:\Users\Greg\AppData\Local\Temp\ccTXpTtu.s 			page 14


 266 0006 002B     		cmp	r3, #0
 267 0008 09D1     		bne	.L25
  68:Generated_Source\PSoC4/CyDMA.c ****         CyIntSetPriority(CYDMA_INTR_NUMBER, CYDMA_INTR_PRIO);
 268              		.loc 1 68 0
 269 000a 0848     		ldr	r0, .L26+4
 270 000c FFF7FEFF 		bl	CyDmaSetInterruptVector
 271              	.LVL12:
  69:Generated_Source\PSoC4/CyDMA.c ****         initIntrVector = 1u;
 272              		.loc 1 69 0
 273 0010 0C20     		mov	r0, #12
 274 0012 0321     		mov	r1, #3
 275 0014 FFF7FEFF 		bl	CyIntSetPriority
 276              	.LVL13:
  70:Generated_Source\PSoC4/CyDMA.c ****     }
 277              		.loc 1 70 0
 278 0018 0122     		mov	r2, #1
 279 001a 034B     		ldr	r3, .L26
 280 001c 1A70     		strb	r2, [r3]
 281              	.L25:
  72:Generated_Source\PSoC4/CyDMA.c **** }
 282              		.loc 1 72 0
 283 001e 8022     		mov	r2, #128
 284 0020 1206     		lsl	r2, r2, #24
 285 0022 034B     		ldr	r3, .L26+8
 286 0024 1A60     		str	r2, [r3]
  73:Generated_Source\PSoC4/CyDMA.c **** 
 287              		.loc 1 73 0
 288              		@ sp needed
 289 0026 08BD     		pop	{r3, pc}
 290              	.L27:
 291              		.align	2
 292              	.L26:
 293 0028 00000000 		.word	.LANCHOR1
 294 002c 00000000 		.word	CyDmaInterrupt
 295 0030 00101040 		.word	1074794496
 296              		.cfi_endproc
 297              	.LFE1:
 298              		.size	CyDmaEnable, .-CyDmaEnable
 299              		.section	.text.CyDmaGetInterruptSource,"ax",%progbits
 300              		.align	2
 301              		.global	CyDmaGetInterruptSource
 302              		.code	16
 303              		.thumb_func
 304              		.type	CyDmaGetInterruptSource, %function
 305              	CyDmaGetInterruptSource:
 306              	.LFB8:
 248:Generated_Source\PSoC4/CyDMA.c ****     return (CYDMA_INTR_REG);
 307              		.loc 1 248 0
 308              		.cfi_startproc
 249:Generated_Source\PSoC4/CyDMA.c **** }
 309              		.loc 1 249 0
 310 0000 014B     		ldr	r3, .L29
 311 0002 1868     		ldr	r0, [r3]
 250:Generated_Source\PSoC4/CyDMA.c **** 
 312              		.loc 1 250 0
 313              		@ sp needed
 314 0004 7047     		bx	lr
ARM GAS  C:\Users\Greg\AppData\Local\Temp\ccTXpTtu.s 			page 15


 315              	.L30:
 316 0006 C046     		.align	2
 317              	.L29:
 318 0008 F0171040 		.word	1074796528
 319              		.cfi_endproc
 320              	.LFE8:
 321              		.size	CyDmaGetInterruptSource, .-CyDmaGetInterruptSource
 322              		.section	.text.CyDmaClearInterruptSource,"ax",%progbits
 323              		.align	2
 324              		.global	CyDmaClearInterruptSource
 325              		.code	16
 326              		.thumb_func
 327              		.type	CyDmaClearInterruptSource, %function
 328              	CyDmaClearInterruptSource:
 329              	.LFB9:
 268:Generated_Source\PSoC4/CyDMA.c ****     CYDMA_INTR_REG = interruptMask;
 330              		.loc 1 268 0
 331              		.cfi_startproc
 332              	.LVL14:
 269:Generated_Source\PSoC4/CyDMA.c **** }
 333              		.loc 1 269 0
 334 0000 014B     		ldr	r3, .L32
 335 0002 1860     		str	r0, [r3]
 270:Generated_Source\PSoC4/CyDMA.c **** 
 336              		.loc 1 270 0
 337              		@ sp needed
 338 0004 7047     		bx	lr
 339              	.L33:
 340 0006 C046     		.align	2
 341              	.L32:
 342 0008 F0171040 		.word	1074796528
 343              		.cfi_endproc
 344              	.LFE9:
 345              		.size	CyDmaClearInterruptSource, .-CyDmaClearInterruptSource
 346              		.section	.text.CyDmaSetInterruptSourceMask,"ax",%progbits
 347              		.align	2
 348              		.global	CyDmaSetInterruptSourceMask
 349              		.code	16
 350              		.thumb_func
 351              		.type	CyDmaSetInterruptSourceMask, %function
 352              	CyDmaSetInterruptSourceMask:
 353              	.LFB10:
 288:Generated_Source\PSoC4/CyDMA.c ****     CYDMA_INTR_MASK_REG = interruptMask;
 354              		.loc 1 288 0
 355              		.cfi_startproc
 356              	.LVL15:
 289:Generated_Source\PSoC4/CyDMA.c **** }
 357              		.loc 1 289 0
 358 0000 014B     		ldr	r3, .L35
 359 0002 1860     		str	r0, [r3]
 290:Generated_Source\PSoC4/CyDMA.c **** 
 360              		.loc 1 290 0
 361              		@ sp needed
 362 0004 7047     		bx	lr
 363              	.L36:
 364 0006 C046     		.align	2
 365              	.L35:
ARM GAS  C:\Users\Greg\AppData\Local\Temp\ccTXpTtu.s 			page 16


 366 0008 F8171040 		.word	1074796536
 367              		.cfi_endproc
 368              	.LFE10:
 369              		.size	CyDmaSetInterruptSourceMask, .-CyDmaSetInterruptSourceMask
 370              		.section	.text.CyDmaGetInterruptSourceMask,"ax",%progbits
 371              		.align	2
 372              		.global	CyDmaGetInterruptSourceMask
 373              		.code	16
 374              		.thumb_func
 375              		.type	CyDmaGetInterruptSourceMask, %function
 376              	CyDmaGetInterruptSourceMask:
 377              	.LFB11:
 308:Generated_Source\PSoC4/CyDMA.c ****     return (CYDMA_INTR_MASK_REG);
 378              		.loc 1 308 0
 379              		.cfi_startproc
 309:Generated_Source\PSoC4/CyDMA.c **** }
 380              		.loc 1 309 0
 381 0000 014B     		ldr	r3, .L38
 382 0002 1868     		ldr	r0, [r3]
 310:Generated_Source\PSoC4/CyDMA.c **** 
 383              		.loc 1 310 0
 384              		@ sp needed
 385 0004 7047     		bx	lr
 386              	.L39:
 387 0006 C046     		.align	2
 388              	.L38:
 389 0008 F8171040 		.word	1074796536
 390              		.cfi_endproc
 391              	.LFE11:
 392              		.size	CyDmaGetInterruptSourceMask, .-CyDmaGetInterruptSourceMask
 393              		.section	.text.CyDmaGetInterruptSourceMasked,"ax",%progbits
 394              		.align	2
 395              		.global	CyDmaGetInterruptSourceMasked
 396              		.code	16
 397              		.thumb_func
 398              		.type	CyDmaGetInterruptSourceMasked, %function
 399              	CyDmaGetInterruptSourceMasked:
 400              	.LFB12:
 328:Generated_Source\PSoC4/CyDMA.c ****     return (CYDMA_INTR_MASKED_REG);
 401              		.loc 1 328 0
 402              		.cfi_startproc
 329:Generated_Source\PSoC4/CyDMA.c **** }
 403              		.loc 1 329 0
 404 0000 014B     		ldr	r3, .L41
 405 0002 1868     		ldr	r0, [r3]
 330:Generated_Source\PSoC4/CyDMA.c **** 
 406              		.loc 1 330 0
 407              		@ sp needed
 408 0004 7047     		bx	lr
 409              	.L42:
 410 0006 C046     		.align	2
 411              	.L41:
 412 0008 FC171040 		.word	1074796540
 413              		.cfi_endproc
 414              	.LFE12:
 415              		.size	CyDmaGetInterruptSourceMasked, .-CyDmaGetInterruptSourceMasked
 416              		.section	.text.CyDmaSetInterruptCallback,"ax",%progbits
ARM GAS  C:\Users\Greg\AppData\Local\Temp\ccTXpTtu.s 			page 17


 417              		.align	2
 418              		.global	CyDmaSetInterruptCallback
 419              		.code	16
 420              		.thumb_func
 421              		.type	CyDmaSetInterruptCallback, %function
 422              	CyDmaSetInterruptCallback:
 423              	.LFB13:
 351:Generated_Source\PSoC4/CyDMA.c ****     cydma_callback_t prevCallback;
 424              		.loc 1 351 0
 425              		.cfi_startproc
 426              	.LVL16:
 427 0000 38B5     		push	{r3, r4, r5, lr}
 428              		.cfi_def_cfa_offset 16
 429              		.cfi_offset 3, -16
 430              		.cfi_offset 4, -12
 431              		.cfi_offset 5, -8
 432              		.cfi_offset 14, -4
 433 0002 041C     		mov	r4, r0
 434 0004 0D1C     		mov	r5, r1
 354:Generated_Source\PSoC4/CyDMA.c **** 
 435              		.loc 1 354 0
 436 0006 0728     		cmp	r0, #7
 437 0008 02D9     		bls	.L44
 354:Generated_Source\PSoC4/CyDMA.c **** 
 438              		.loc 1 354 0 is_stmt 0 discriminator 1
 439 000a 0020     		mov	r0, #0
 440              	.LVL17:
 441 000c FFF7FEFF 		bl	CyHalt
 442              	.LVL18:
 443              	.L44:
 356:Generated_Source\PSoC4/CyDMA.c ****     CyDmaInterruptCallback[channel] = callback;
 444              		.loc 1 356 0 is_stmt 1
 445 0010 024B     		ldr	r3, .L45
 446 0012 A400     		lsl	r4, r4, #2
 447              	.LVL19:
 448 0014 E058     		ldr	r0, [r4, r3]
 449              	.LVL20:
 357:Generated_Source\PSoC4/CyDMA.c ****     return (prevCallback);
 450              		.loc 1 357 0
 451 0016 E550     		str	r5, [r4, r3]
 359:Generated_Source\PSoC4/CyDMA.c **** 
 452              		.loc 1 359 0
 453              		@ sp needed
 454              	.LVL21:
 455 0018 38BD     		pop	{r3, r4, r5, pc}
 456              	.L46:
 457 001a C046     		.align	2
 458              	.L45:
 459 001c 00000000 		.word	.LANCHOR0
 460              		.cfi_endproc
 461              	.LFE13:
 462              		.size	CyDmaSetInterruptCallback, .-CyDmaSetInterruptCallback
 463              		.section	.text.CyDmaGetInterruptCallback,"ax",%progbits
 464              		.align	2
 465              		.global	CyDmaGetInterruptCallback
 466              		.code	16
 467              		.thumb_func
ARM GAS  C:\Users\Greg\AppData\Local\Temp\ccTXpTtu.s 			page 18


 468              		.type	CyDmaGetInterruptCallback, %function
 469              	CyDmaGetInterruptCallback:
 470              	.LFB14:
 378:Generated_Source\PSoC4/CyDMA.c ****     CYASSERT((channel >= 0) && (channel < CYDMA_CH_NR));
 471              		.loc 1 378 0
 472              		.cfi_startproc
 473              	.LVL22:
 474 0000 10B5     		push	{r4, lr}
 475              		.cfi_def_cfa_offset 8
 476              		.cfi_offset 4, -8
 477              		.cfi_offset 14, -4
 478 0002 041E     		sub	r4, r0, #0
 379:Generated_Source\PSoC4/CyDMA.c ****     
 479              		.loc 1 379 0
 480 0004 072C     		cmp	r4, #7
 481 0006 02D9     		bls	.L48
 379:Generated_Source\PSoC4/CyDMA.c ****     
 482              		.loc 1 379 0 is_stmt 0 discriminator 1
 483 0008 0020     		mov	r0, #0
 484              	.LVL23:
 485 000a FFF7FEFF 		bl	CyHalt
 486              	.LVL24:
 487              	.L48:
 381:Generated_Source\PSoC4/CyDMA.c **** }
 488              		.loc 1 381 0 is_stmt 1
 489 000e A400     		lsl	r4, r4, #2
 490              	.LVL25:
 491 0010 014B     		ldr	r3, .L49
 492 0012 E058     		ldr	r0, [r4, r3]
 382:Generated_Source\PSoC4/CyDMA.c **** 
 493              		.loc 1 382 0
 494              		@ sp needed
 495 0014 10BD     		pop	{r4, pc}
 496              	.L50:
 497 0016 C046     		.align	2
 498              	.L49:
 499 0018 00000000 		.word	.LANCHOR0
 500              		.cfi_endproc
 501              	.LFE14:
 502              		.size	CyDmaGetInterruptCallback, .-CyDmaGetInterruptCallback
 503              		.section	.text.CyDmaChAlloc,"ax",%progbits
 504              		.align	2
 505              		.global	CyDmaChAlloc
 506              		.code	16
 507              		.thumb_func
 508              		.type	CyDmaChAlloc, %function
 509              	CyDmaChAlloc:
 510              	.LFB17:
 455:Generated_Source\PSoC4/CyDMA.c **** 
 456:Generated_Source\PSoC4/CyDMA.c **** 
 457:Generated_Source\PSoC4/CyDMA.c **** /*******************************************************************************
 458:Generated_Source\PSoC4/CyDMA.c **** * Function Name: CyDmaChAlloc
 459:Generated_Source\PSoC4/CyDMA.c **** ********************************************************************************
 460:Generated_Source\PSoC4/CyDMA.c **** *
 461:Generated_Source\PSoC4/CyDMA.c **** * Summary:
 462:Generated_Source\PSoC4/CyDMA.c **** *  Allocates a channel number to use with later DMA functions.
 463:Generated_Source\PSoC4/CyDMA.c **** *
ARM GAS  C:\Users\Greg\AppData\Local\Temp\ccTXpTtu.s 			page 19


 464:Generated_Source\PSoC4/CyDMA.c **** * Parameters:
 465:Generated_Source\PSoC4/CyDMA.c **** *  None.
 466:Generated_Source\PSoC4/CyDMA.c **** *                   
 467:Generated_Source\PSoC4/CyDMA.c **** * Return:
 468:Generated_Source\PSoC4/CyDMA.c **** *  The allocated channel number. Zero is a valid channel number.
 469:Generated_Source\PSoC4/CyDMA.c **** *  CYDMA_INVALID_CHANNEL is returned if there are no channels available.
 470:Generated_Source\PSoC4/CyDMA.c **** *
 471:Generated_Source\PSoC4/CyDMA.c **** *******************************************************************************/
 472:Generated_Source\PSoC4/CyDMA.c **** int32 CyDmaChAlloc(void)
 473:Generated_Source\PSoC4/CyDMA.c **** {
 511              		.loc 1 473 0
 512              		.cfi_startproc
 513              	.LVL26:
 474:Generated_Source\PSoC4/CyDMA.c ****     int32  channel = CYDMA_CH_NR-1;
 475:Generated_Source\PSoC4/CyDMA.c ****     uint32 channelMask = (uint32)(1UL << (CYDMA_CH_NR-1));
 514              		.loc 1 475 0
 515 0000 8023     		mov	r3, #128
 474:Generated_Source\PSoC4/CyDMA.c ****     int32  channel = CYDMA_CH_NR-1;
 516              		.loc 1 474 0
 517 0002 0720     		mov	r0, #7
 476:Generated_Source\PSoC4/CyDMA.c ****     
 477:Generated_Source\PSoC4/CyDMA.c ****     while (channel >= 0)
 518              		.loc 1 477 0
 519 0004 09E0     		b	.L52
 520              	.LVL27:
 521              	.L55:
 478:Generated_Source\PSoC4/CyDMA.c ****     {
 479:Generated_Source\PSoC4/CyDMA.c ****         if(0u == (CyDmaChannelUsedMask & channelMask))
 522              		.loc 1 479 0
 523 0006 064A     		ldr	r2, .L56
 524 0008 5268     		ldr	r2, [r2, #4]
 525 000a 1342     		tst	r3, r2
 526 000c 03D1     		bne	.L53
 480:Generated_Source\PSoC4/CyDMA.c ****         {
 481:Generated_Source\PSoC4/CyDMA.c ****             /* Mark channel as used and exit loop. */ 
 482:Generated_Source\PSoC4/CyDMA.c ****             CyDmaChannelUsedMask |= channelMask;
 527              		.loc 1 482 0
 528 000e 1343     		orr	r3, r2
 529              	.LVL28:
 530 0010 034A     		ldr	r2, .L56
 531 0012 5360     		str	r3, [r2, #4]
 483:Generated_Source\PSoC4/CyDMA.c ****             break;
 532              		.loc 1 483 0
 533 0014 03E0     		b	.L54
 534              	.LVL29:
 535              	.L53:
 484:Generated_Source\PSoC4/CyDMA.c ****         }
 485:Generated_Source\PSoC4/CyDMA.c ****         channelMask >>= 1;
 536              		.loc 1 485 0
 537 0016 5B08     		lsr	r3, r3, #1
 538              	.LVL30:
 486:Generated_Source\PSoC4/CyDMA.c ****         --channel;
 539              		.loc 1 486 0
 540 0018 0138     		sub	r0, r0, #1
 541              	.LVL31:
 542              	.L52:
 477:Generated_Source\PSoC4/CyDMA.c ****     {
ARM GAS  C:\Users\Greg\AppData\Local\Temp\ccTXpTtu.s 			page 20


 543              		.loc 1 477 0
 544 001a 0028     		cmp	r0, #0
 545 001c F3DA     		bge	.L55
 546              	.LVL32:
 547              	.L54:
 487:Generated_Source\PSoC4/CyDMA.c ****     }
 488:Generated_Source\PSoC4/CyDMA.c ****     return (channel);
 489:Generated_Source\PSoC4/CyDMA.c **** }
 548              		.loc 1 489 0
 549              		@ sp needed
 550 001e 7047     		bx	lr
 551              	.L57:
 552              		.align	2
 553              	.L56:
 554 0020 00000000 		.word	.LANCHOR1
 555              		.cfi_endproc
 556              	.LFE17:
 557              		.size	CyDmaChAlloc, .-CyDmaChAlloc
 558              		.section	.text.CyDmaChFree,"ax",%progbits
 559              		.align	2
 560              		.global	CyDmaChFree
 561              		.code	16
 562              		.thumb_func
 563              		.type	CyDmaChFree, %function
 564              	CyDmaChFree:
 565              	.LFB18:
 490:Generated_Source\PSoC4/CyDMA.c **** 
 491:Generated_Source\PSoC4/CyDMA.c **** 
 492:Generated_Source\PSoC4/CyDMA.c **** /*******************************************************************************
 493:Generated_Source\PSoC4/CyDMA.c **** * Function Name: CyDmaChFree
 494:Generated_Source\PSoC4/CyDMA.c **** ********************************************************************************
 495:Generated_Source\PSoC4/CyDMA.c **** *
 496:Generated_Source\PSoC4/CyDMA.c **** * Summary:
 497:Generated_Source\PSoC4/CyDMA.c **** *  Frees a channel handle allocated by CyDmaChAlloc(). Channels allocated for
 498:Generated_Source\PSoC4/CyDMA.c **** *  DMA instances placed on a schematic cannot be freed.
 499:Generated_Source\PSoC4/CyDMA.c **** *
 500:Generated_Source\PSoC4/CyDMA.c **** * Parameters:
 501:Generated_Source\PSoC4/CyDMA.c **** *  channel: The handle previously returned by CyDmaChAlloc().
 502:Generated_Source\PSoC4/CyDMA.c **** *                   
 503:Generated_Source\PSoC4/CyDMA.c **** * Return:
 504:Generated_Source\PSoC4/CyDMA.c **** *  CYRET_SUCCESS if successful.
 505:Generated_Source\PSoC4/CyDMA.c **** *  CYRET_BAD_PARAM if channel is invalid.
 506:Generated_Source\PSoC4/CyDMA.c **** *
 507:Generated_Source\PSoC4/CyDMA.c **** *******************************************************************************/
 508:Generated_Source\PSoC4/CyDMA.c **** cystatus CyDmaChFree(int32 channel)
 509:Generated_Source\PSoC4/CyDMA.c **** {
 566              		.loc 1 509 0
 567              		.cfi_startproc
 568              	.LVL33:
 569 0000 10B5     		push	{r4, lr}
 570              		.cfi_def_cfa_offset 8
 571              		.cfi_offset 4, -8
 572              		.cfi_offset 14, -4
 573 0002 041E     		sub	r4, r0, #0
 574              	.LVL34:
 510:Generated_Source\PSoC4/CyDMA.c ****     uint32   channelMask;
 511:Generated_Source\PSoC4/CyDMA.c ****     cystatus result = CYRET_BAD_PARAM;
ARM GAS  C:\Users\Greg\AppData\Local\Temp\ccTXpTtu.s 			page 21


 512:Generated_Source\PSoC4/CyDMA.c **** 
 513:Generated_Source\PSoC4/CyDMA.c ****     CYASSERT((channel >= 0) && (channel < CYDMA_CH_NR));
 575              		.loc 1 513 0
 576 0004 072C     		cmp	r4, #7
 577 0006 02D9     		bls	.L59
 578              		.loc 1 513 0 is_stmt 0 discriminator 1
 579 0008 0020     		mov	r0, #0
 580              	.LVL35:
 581 000a FFF7FEFF 		bl	CyHalt
 582              	.LVL36:
 583              	.L59:
 514:Generated_Source\PSoC4/CyDMA.c ****     
 515:Generated_Source\PSoC4/CyDMA.c ****     channelMask = (uint32)(1UL << channel);
 584              		.loc 1 515 0 is_stmt 1
 585 000e 0120     		mov	r0, #1
 586 0010 A040     		lsl	r0, r0, r4
 587              	.LVL37:
 516:Generated_Source\PSoC4/CyDMA.c **** 
 517:Generated_Source\PSoC4/CyDMA.c ****     /* Check against attempt to free channel allocated for DMA instance
 518:Generated_Source\PSoC4/CyDMA.c ****     * placed on schematic.
 519:Generated_Source\PSoC4/CyDMA.c ****     */
 520:Generated_Source\PSoC4/CyDMA.c ****     if(0u == (channelMask & DMA_CHANNELS_USED__MASK))
 521:Generated_Source\PSoC4/CyDMA.c ****     {
 522:Generated_Source\PSoC4/CyDMA.c ****         CyDmaChannelUsedMask &= (uint32)~channelMask;
 588              		.loc 1 522 0
 589 0012 034A     		ldr	r2, .L60
 590 0014 5368     		ldr	r3, [r2, #4]
 591 0016 8343     		bic	r3, r0
 592 0018 5360     		str	r3, [r2, #4]
 593              	.LVL38:
 523:Generated_Source\PSoC4/CyDMA.c ****         result = CYRET_SUCCESS;
 524:Generated_Source\PSoC4/CyDMA.c ****     }
 525:Generated_Source\PSoC4/CyDMA.c ****     
 526:Generated_Source\PSoC4/CyDMA.c ****     return (result);
 527:Generated_Source\PSoC4/CyDMA.c **** }
 594              		.loc 1 527 0
 595 001a 0020     		mov	r0, #0
 596              	.LVL39:
 597              		@ sp needed
 598              	.LVL40:
 599 001c 10BD     		pop	{r4, pc}
 600              	.L61:
 601 001e C046     		.align	2
 602              	.L60:
 603 0020 00000000 		.word	.LANCHOR1
 604              		.cfi_endproc
 605              	.LFE18:
 606              		.size	CyDmaChFree, .-CyDmaChFree
 607              		.section	.text.CyDmaChEnable,"ax",%progbits
 608              		.align	2
 609              		.global	CyDmaChEnable
 610              		.code	16
 611              		.thumb_func
 612              		.type	CyDmaChEnable, %function
 613              	CyDmaChEnable:
 614              	.LFB19:
 528:Generated_Source\PSoC4/CyDMA.c **** 
ARM GAS  C:\Users\Greg\AppData\Local\Temp\ccTXpTtu.s 			page 22


 529:Generated_Source\PSoC4/CyDMA.c **** 
 530:Generated_Source\PSoC4/CyDMA.c **** /*******************************************************************************
 531:Generated_Source\PSoC4/CyDMA.c **** * Function Name: CyDmaChEnable
 532:Generated_Source\PSoC4/CyDMA.c **** ********************************************************************************
 533:Generated_Source\PSoC4/CyDMA.c **** *
 534:Generated_Source\PSoC4/CyDMA.c **** * Summary:
 535:Generated_Source\PSoC4/CyDMA.c **** *  Enables the DMA channel.
 536:Generated_Source\PSoC4/CyDMA.c **** *
 537:Generated_Source\PSoC4/CyDMA.c **** * Parameters:
 538:Generated_Source\PSoC4/CyDMA.c **** *  channel: Channel used by this function.
 539:Generated_Source\PSoC4/CyDMA.c **** *                   
 540:Generated_Source\PSoC4/CyDMA.c **** * Return:
 541:Generated_Source\PSoC4/CyDMA.c **** *  None.
 542:Generated_Source\PSoC4/CyDMA.c **** *
 543:Generated_Source\PSoC4/CyDMA.c **** * Side effect:
 544:Generated_Source\PSoC4/CyDMA.c **** *  If this function is called before CyDmaSetConfiguration(), and
 545:Generated_Source\PSoC4/CyDMA.c **** *  CyDmaSetSrcAddress() and CyDmaSetDstAddress(), the operation of
 546:Generated_Source\PSoC4/CyDMA.c **** *  the DMA is undefined and could result in system data corruption. 
 547:Generated_Source\PSoC4/CyDMA.c **** *
 548:Generated_Source\PSoC4/CyDMA.c **** *******************************************************************************/
 549:Generated_Source\PSoC4/CyDMA.c **** void CyDmaChEnable(int32 channel)
 550:Generated_Source\PSoC4/CyDMA.c **** {
 615              		.loc 1 550 0
 616              		.cfi_startproc
 617              	.LVL41:
 618 0000 10B5     		push	{r4, lr}
 619              		.cfi_def_cfa_offset 8
 620              		.cfi_offset 4, -8
 621              		.cfi_offset 14, -4
 622 0002 041E     		sub	r4, r0, #0
 551:Generated_Source\PSoC4/CyDMA.c ****     CYASSERT((channel >= 0) && (channel < CYDMA_CH_NR));
 623              		.loc 1 551 0
 624 0004 072C     		cmp	r4, #7
 625 0006 02D9     		bls	.L63
 626              		.loc 1 551 0 is_stmt 0 discriminator 1
 627 0008 0020     		mov	r0, #0
 628              	.LVL42:
 629 000a FFF7FEFF 		bl	CyHalt
 630              	.LVL43:
 631              	.L63:
 552:Generated_Source\PSoC4/CyDMA.c **** 
 553:Generated_Source\PSoC4/CyDMA.c ****     CYDMA_CH_CTL_BASE.ctl[channel] |= CYDMA_ENABLED;
 632              		.loc 1 553 0 is_stmt 1
 633 000e 044A     		ldr	r2, .L64
 634 0010 A400     		lsl	r4, r4, #2
 635              	.LVL44:
 636 0012 A358     		ldr	r3, [r4, r2]
 637 0014 8021     		mov	r1, #128
 638 0016 0906     		lsl	r1, r1, #24
 639 0018 0B43     		orr	r3, r1
 640 001a A350     		str	r3, [r4, r2]
 554:Generated_Source\PSoC4/CyDMA.c **** }
 641              		.loc 1 554 0
 642              		@ sp needed
 643 001c 10BD     		pop	{r4, pc}
 644              	.L65:
 645 001e C046     		.align	2
ARM GAS  C:\Users\Greg\AppData\Local\Temp\ccTXpTtu.s 			page 23


 646              	.L64:
 647 0020 80101040 		.word	1074794624
 648              		.cfi_endproc
 649              	.LFE19:
 650              		.size	CyDmaChEnable, .-CyDmaChEnable
 651              		.section	.text.CyDmaChDisable,"ax",%progbits
 652              		.align	2
 653              		.global	CyDmaChDisable
 654              		.code	16
 655              		.thumb_func
 656              		.type	CyDmaChDisable, %function
 657              	CyDmaChDisable:
 658              	.LFB20:
 555:Generated_Source\PSoC4/CyDMA.c **** 
 556:Generated_Source\PSoC4/CyDMA.c **** 
 557:Generated_Source\PSoC4/CyDMA.c **** /*******************************************************************************
 558:Generated_Source\PSoC4/CyDMA.c **** * Function Name: CyDmaChDisable
 559:Generated_Source\PSoC4/CyDMA.c **** ********************************************************************************
 560:Generated_Source\PSoC4/CyDMA.c **** *
 561:Generated_Source\PSoC4/CyDMA.c **** * Summary:
 562:Generated_Source\PSoC4/CyDMA.c **** *  Disables the DMA channel.
 563:Generated_Source\PSoC4/CyDMA.c **** *
 564:Generated_Source\PSoC4/CyDMA.c **** * Parameters:
 565:Generated_Source\PSoC4/CyDMA.c **** *  channel: Channel used by this function.
 566:Generated_Source\PSoC4/CyDMA.c **** *                   
 567:Generated_Source\PSoC4/CyDMA.c **** * Return:
 568:Generated_Source\PSoC4/CyDMA.c **** *  None.
 569:Generated_Source\PSoC4/CyDMA.c **** *
 570:Generated_Source\PSoC4/CyDMA.c **** * Side effect:
 571:Generated_Source\PSoC4/CyDMA.c **** *  If this function is called during a DMA transfer the transfer is aborted. 
 572:Generated_Source\PSoC4/CyDMA.c **** *
 573:Generated_Source\PSoC4/CyDMA.c **** *******************************************************************************/
 574:Generated_Source\PSoC4/CyDMA.c **** void CyDmaChDisable(int32 channel)
 575:Generated_Source\PSoC4/CyDMA.c **** {
 659              		.loc 1 575 0
 660              		.cfi_startproc
 661              	.LVL45:
 662 0000 10B5     		push	{r4, lr}
 663              		.cfi_def_cfa_offset 8
 664              		.cfi_offset 4, -8
 665              		.cfi_offset 14, -4
 666 0002 041E     		sub	r4, r0, #0
 576:Generated_Source\PSoC4/CyDMA.c ****     CYASSERT((channel >= 0) && (channel < CYDMA_CH_NR));
 667              		.loc 1 576 0
 668 0004 072C     		cmp	r4, #7
 669 0006 02D9     		bls	.L67
 670              		.loc 1 576 0 is_stmt 0 discriminator 1
 671 0008 0020     		mov	r0, #0
 672              	.LVL46:
 673 000a FFF7FEFF 		bl	CyHalt
 674              	.LVL47:
 675              	.L67:
 577:Generated_Source\PSoC4/CyDMA.c **** 
 578:Generated_Source\PSoC4/CyDMA.c ****     CYDMA_CH_CTL_BASE.ctl[channel] &= (uint32)~CYDMA_ENABLED;
 676              		.loc 1 578 0 is_stmt 1
 677 000e 034A     		ldr	r2, .L68
 678 0010 A400     		lsl	r4, r4, #2
ARM GAS  C:\Users\Greg\AppData\Local\Temp\ccTXpTtu.s 			page 24


 679              	.LVL48:
 680 0012 A358     		ldr	r3, [r4, r2]
 681 0014 5B00     		lsl	r3, r3, #1
 682 0016 5B08     		lsr	r3, r3, #1
 683 0018 A350     		str	r3, [r4, r2]
 579:Generated_Source\PSoC4/CyDMA.c **** }
 684              		.loc 1 579 0
 685              		@ sp needed
 686 001a 10BD     		pop	{r4, pc}
 687              	.L69:
 688              		.align	2
 689              	.L68:
 690 001c 80101040 		.word	1074794624
 691              		.cfi_endproc
 692              	.LFE20:
 693              		.size	CyDmaChDisable, .-CyDmaChDisable
 694              		.section	.text.CyDmaTrigger,"ax",%progbits
 695              		.align	2
 696              		.global	CyDmaTrigger
 697              		.code	16
 698              		.thumb_func
 699              		.type	CyDmaTrigger, %function
 700              	CyDmaTrigger:
 701              	.LFB21:
 580:Generated_Source\PSoC4/CyDMA.c **** 
 581:Generated_Source\PSoC4/CyDMA.c **** 
 582:Generated_Source\PSoC4/CyDMA.c **** /*******************************************************************************
 583:Generated_Source\PSoC4/CyDMA.c **** * Function Name: CyDmaTrigger
 584:Generated_Source\PSoC4/CyDMA.c **** ********************************************************************************
 585:Generated_Source\PSoC4/CyDMA.c **** *
 586:Generated_Source\PSoC4/CyDMA.c **** * Summary:
 587:Generated_Source\PSoC4/CyDMA.c **** *  Triggers the DMA channel, this is useful only for software triggers. This is
 588:Generated_Source\PSoC4/CyDMA.c **** *  not needed when hardware triggers are used.
 589:Generated_Source\PSoC4/CyDMA.c **** *
 590:Generated_Source\PSoC4/CyDMA.c **** * Parameters:
 591:Generated_Source\PSoC4/CyDMA.c **** *  channel: Channel used by this function.
 592:Generated_Source\PSoC4/CyDMA.c **** *                   
 593:Generated_Source\PSoC4/CyDMA.c **** * Return:
 594:Generated_Source\PSoC4/CyDMA.c **** *  None. 
 595:Generated_Source\PSoC4/CyDMA.c **** *
 596:Generated_Source\PSoC4/CyDMA.c **** *******************************************************************************/
 597:Generated_Source\PSoC4/CyDMA.c **** void CyDmaTrigger(int32 channel)
 598:Generated_Source\PSoC4/CyDMA.c **** {
 702              		.loc 1 598 0
 703              		.cfi_startproc
 704              	.LVL49:
 705 0000 10B5     		push	{r4, lr}
 706              		.cfi_def_cfa_offset 8
 707              		.cfi_offset 4, -8
 708              		.cfi_offset 14, -4
 709 0002 041E     		sub	r4, r0, #0
 599:Generated_Source\PSoC4/CyDMA.c ****     /* The LUT is device-dependent, thus it is generated during the build process. */
 600:Generated_Source\PSoC4/CyDMA.c ****     static const uint32 trCtlLut[] = {0xC0020000U};
 601:Generated_Source\PSoC4/CyDMA.c **** 
 602:Generated_Source\PSoC4/CyDMA.c ****     CYASSERT((channel >= 0) && (channel < CYDMA_CH_NR));
 710              		.loc 1 602 0
 711 0004 072C     		cmp	r4, #7
ARM GAS  C:\Users\Greg\AppData\Local\Temp\ccTXpTtu.s 			page 25


 712 0006 02D9     		bls	.L71
 713              		.loc 1 602 0 is_stmt 0 discriminator 1
 714 0008 0020     		mov	r0, #0
 715              	.LVL50:
 716 000a FFF7FEFF 		bl	CyHalt
 717              	.LVL51:
 718              	.L71:
 603:Generated_Source\PSoC4/CyDMA.c **** 
 604:Generated_Source\PSoC4/CyDMA.c ****     CYDMA_TR_CTL_REG = trCtlLut[(uint32)channel >> CYDMA_TR_GROUP_SHR] | ((uint32)channel & CYDMA_T
 719              		.loc 1 604 0 is_stmt 1
 720 000e 0723     		mov	r3, #7
 721 0010 1C40     		and	r4, r3
 722              	.LVL52:
 723 0012 024B     		ldr	r3, .L72
 724 0014 1C43     		orr	r4, r3
 725 0016 024B     		ldr	r3, .L72+4
 726 0018 1C60     		str	r4, [r3]
 605:Generated_Source\PSoC4/CyDMA.c **** }
 727              		.loc 1 605 0
 728              		@ sp needed
 729 001a 10BD     		pop	{r4, pc}
 730              	.L73:
 731              		.align	2
 732              	.L72:
 733 001c 000002C0 		.word	-1073610752
 734 0020 00060040 		.word	1073743360
 735              		.cfi_endproc
 736              	.LFE21:
 737              		.size	CyDmaTrigger, .-CyDmaTrigger
 738              		.section	.text.CyDmaSetPriority,"ax",%progbits
 739              		.align	2
 740              		.global	CyDmaSetPriority
 741              		.code	16
 742              		.thumb_func
 743              		.type	CyDmaSetPriority, %function
 744              	CyDmaSetPriority:
 745              	.LFB22:
 606:Generated_Source\PSoC4/CyDMA.c **** 
 607:Generated_Source\PSoC4/CyDMA.c **** 
 608:Generated_Source\PSoC4/CyDMA.c **** /*******************************************************************************
 609:Generated_Source\PSoC4/CyDMA.c **** * Function Name: CyDmaSetPriority
 610:Generated_Source\PSoC4/CyDMA.c **** ********************************************************************************
 611:Generated_Source\PSoC4/CyDMA.c **** *
 612:Generated_Source\PSoC4/CyDMA.c **** * Summary:
 613:Generated_Source\PSoC4/CyDMA.c **** *  Sets the priority for the channel.
 614:Generated_Source\PSoC4/CyDMA.c **** *
 615:Generated_Source\PSoC4/CyDMA.c **** * Parameters:
 616:Generated_Source\PSoC4/CyDMA.c **** *  channel:  Channel used by this function
 617:Generated_Source\PSoC4/CyDMA.c **** *  priority: Priority for channel. Priority can be 0,1,2, or 3.
 618:Generated_Source\PSoC4/CyDMA.c **** *            0 is the highest priority.
 619:Generated_Source\PSoC4/CyDMA.c **** *                   
 620:Generated_Source\PSoC4/CyDMA.c **** * Return:
 621:Generated_Source\PSoC4/CyDMA.c **** *  None.
 622:Generated_Source\PSoC4/CyDMA.c **** *
 623:Generated_Source\PSoC4/CyDMA.c **** * Side effect:
 624:Generated_Source\PSoC4/CyDMA.c **** *  This function should not be called while the channel is enabled.
 625:Generated_Source\PSoC4/CyDMA.c **** *
ARM GAS  C:\Users\Greg\AppData\Local\Temp\ccTXpTtu.s 			page 26


 626:Generated_Source\PSoC4/CyDMA.c **** *******************************************************************************/
 627:Generated_Source\PSoC4/CyDMA.c **** void CyDmaSetPriority(int32 channel, int32 priority)
 628:Generated_Source\PSoC4/CyDMA.c **** {
 746              		.loc 1 628 0
 747              		.cfi_startproc
 748              	.LVL53:
 749 0000 38B5     		push	{r3, r4, r5, lr}
 750              		.cfi_def_cfa_offset 16
 751              		.cfi_offset 3, -16
 752              		.cfi_offset 4, -12
 753              		.cfi_offset 5, -8
 754              		.cfi_offset 14, -4
 755 0002 041C     		mov	r4, r0
 756 0004 0D1C     		mov	r5, r1
 629:Generated_Source\PSoC4/CyDMA.c ****     uint32 regValue;
 630:Generated_Source\PSoC4/CyDMA.c **** 
 631:Generated_Source\PSoC4/CyDMA.c ****     CYASSERT((channel  >= 0) && (channel  <  CYDMA_CH_NR));
 757              		.loc 1 631 0
 758 0006 0728     		cmp	r0, #7
 759 0008 02D9     		bls	.L75
 760              		.loc 1 631 0 is_stmt 0 discriminator 1
 761 000a 0020     		mov	r0, #0
 762              	.LVL54:
 763 000c FFF7FEFF 		bl	CyHalt
 764              	.LVL55:
 765              	.L75:
 632:Generated_Source\PSoC4/CyDMA.c ****     CYASSERT((priority >= 0) && (priority <= CY_DMA_MAX_PRIO));
 766              		.loc 1 632 0 is_stmt 1
 767 0010 032D     		cmp	r5, #3
 768 0012 02D9     		bls	.L76
 769              		.loc 1 632 0 is_stmt 0 discriminator 1
 770 0014 0020     		mov	r0, #0
 771 0016 FFF7FEFF 		bl	CyHalt
 772              	.LVL56:
 773              	.L76:
 633:Generated_Source\PSoC4/CyDMA.c **** 
 634:Generated_Source\PSoC4/CyDMA.c ****     regValue = CYDMA_CH_CTL_BASE.ctl[channel] & (uint32)~CYDMA_PRIO;
 774              		.loc 1 634 0 is_stmt 1
 775 001a 044A     		ldr	r2, .L77
 776 001c A400     		lsl	r4, r4, #2
 777              	.LVL57:
 778 001e A158     		ldr	r1, [r4, r2]
 779 0020 034B     		ldr	r3, .L77+4
 780 0022 0B40     		and	r3, r1
 781              	.LVL58:
 635:Generated_Source\PSoC4/CyDMA.c ****     CYDMA_CH_CTL_BASE.ctl[channel] = regValue | (uint32)((uint32)priority << CYDMA_PRIO_POS);
 782              		.loc 1 635 0
 783 0024 2907     		lsl	r1, r5, #28
 784 0026 1943     		orr	r1, r3
 785 0028 A150     		str	r1, [r4, r2]
 636:Generated_Source\PSoC4/CyDMA.c **** }
 786              		.loc 1 636 0
 787              		@ sp needed
 788              	.LVL59:
 789 002a 38BD     		pop	{r3, r4, r5, pc}
 790              	.L78:
 791              		.align	2
ARM GAS  C:\Users\Greg\AppData\Local\Temp\ccTXpTtu.s 			page 27


 792              	.L77:
 793 002c 80101040 		.word	1074794624
 794 0030 FFFFFFCF 		.word	-805306369
 795              		.cfi_endproc
 796              	.LFE22:
 797              		.size	CyDmaSetPriority, .-CyDmaSetPriority
 798              		.section	.text.CyDmaGetPriority,"ax",%progbits
 799              		.align	2
 800              		.global	CyDmaGetPriority
 801              		.code	16
 802              		.thumb_func
 803              		.type	CyDmaGetPriority, %function
 804              	CyDmaGetPriority:
 805              	.LFB23:
 637:Generated_Source\PSoC4/CyDMA.c **** 
 638:Generated_Source\PSoC4/CyDMA.c **** 
 639:Generated_Source\PSoC4/CyDMA.c **** /*******************************************************************************
 640:Generated_Source\PSoC4/CyDMA.c **** * Function Name: CyDmaGetPriority
 641:Generated_Source\PSoC4/CyDMA.c **** ********************************************************************************
 642:Generated_Source\PSoC4/CyDMA.c **** *
 643:Generated_Source\PSoC4/CyDMA.c **** * Summary:
 644:Generated_Source\PSoC4/CyDMA.c **** *  Gets the priority for the channel.
 645:Generated_Source\PSoC4/CyDMA.c **** *
 646:Generated_Source\PSoC4/CyDMA.c **** * Parameters:
 647:Generated_Source\PSoC4/CyDMA.c **** *  channel: Channel used by this function.
 648:Generated_Source\PSoC4/CyDMA.c **** *                   
 649:Generated_Source\PSoC4/CyDMA.c **** * Return:
 650:Generated_Source\PSoC4/CyDMA.c **** *  Priority for channel. Priority can be 0,1,2, or 3. 0 is the highest priority.
 651:Generated_Source\PSoC4/CyDMA.c **** *
 652:Generated_Source\PSoC4/CyDMA.c **** *******************************************************************************/
 653:Generated_Source\PSoC4/CyDMA.c **** int32 CyDmaGetPriority(int32 channel)
 654:Generated_Source\PSoC4/CyDMA.c **** {
 806              		.loc 1 654 0
 807              		.cfi_startproc
 808              	.LVL60:
 809 0000 10B5     		push	{r4, lr}
 810              		.cfi_def_cfa_offset 8
 811              		.cfi_offset 4, -8
 812              		.cfi_offset 14, -4
 813 0002 041E     		sub	r4, r0, #0
 655:Generated_Source\PSoC4/CyDMA.c ****     uint32 priority;
 656:Generated_Source\PSoC4/CyDMA.c **** 
 657:Generated_Source\PSoC4/CyDMA.c ****     CYASSERT((channel >= 0) && (channel < CYDMA_CH_NR));
 814              		.loc 1 657 0
 815 0004 072C     		cmp	r4, #7
 816 0006 02D9     		bls	.L80
 817              		.loc 1 657 0 is_stmt 0 discriminator 1
 818 0008 0020     		mov	r0, #0
 819              	.LVL61:
 820 000a FFF7FEFF 		bl	CyHalt
 821              	.LVL62:
 822              	.L80:
 658:Generated_Source\PSoC4/CyDMA.c **** 
 659:Generated_Source\PSoC4/CyDMA.c ****     priority = (CYDMA_CH_CTL_BASE.ctl[channel] & CYDMA_PRIO) >> CYDMA_PRIO_POS;
 823              		.loc 1 659 0 is_stmt 1
 824 000e A400     		lsl	r4, r4, #2
 825              	.LVL63:
ARM GAS  C:\Users\Greg\AppData\Local\Temp\ccTXpTtu.s 			page 28


 826 0010 024B     		ldr	r3, .L81
 827 0012 E058     		ldr	r0, [r4, r3]
 828 0014 8000     		lsl	r0, r0, #2
 829 0016 800F     		lsr	r0, r0, #30
 830              	.LVL64:
 660:Generated_Source\PSoC4/CyDMA.c ****     return ((int32)priority);
 661:Generated_Source\PSoC4/CyDMA.c **** }
 831              		.loc 1 661 0
 832              		@ sp needed
 833 0018 10BD     		pop	{r4, pc}
 834              	.L82:
 835 001a C046     		.align	2
 836              	.L81:
 837 001c 80101040 		.word	1074794624
 838              		.cfi_endproc
 839              	.LFE23:
 840              		.size	CyDmaGetPriority, .-CyDmaGetPriority
 841              		.section	.text.CyDmaSetNextDescriptor,"ax",%progbits
 842              		.align	2
 843              		.global	CyDmaSetNextDescriptor
 844              		.code	16
 845              		.thumb_func
 846              		.type	CyDmaSetNextDescriptor, %function
 847              	CyDmaSetNextDescriptor:
 848              	.LFB24:
 662:Generated_Source\PSoC4/CyDMA.c **** 
 663:Generated_Source\PSoC4/CyDMA.c **** 
 664:Generated_Source\PSoC4/CyDMA.c **** /*******************************************************************************
 665:Generated_Source\PSoC4/CyDMA.c **** * Function Name: CyDmaSetNextDescriptor
 666:Generated_Source\PSoC4/CyDMA.c **** ********************************************************************************
 667:Generated_Source\PSoC4/CyDMA.c **** *
 668:Generated_Source\PSoC4/CyDMA.c **** * Summary:
 669:Generated_Source\PSoC4/CyDMA.c **** *  Sets the descriptor that should be run the next time the channel is
 670:Generated_Source\PSoC4/CyDMA.c **** *  triggered.
 671:Generated_Source\PSoC4/CyDMA.c **** *
 672:Generated_Source\PSoC4/CyDMA.c **** * Parameters:
 673:Generated_Source\PSoC4/CyDMA.c **** *  channel:    Channel used by this function.
 674:Generated_Source\PSoC4/CyDMA.c **** *  descriptor: Next Descriptor to run (0 or 1).
 675:Generated_Source\PSoC4/CyDMA.c **** *
 676:Generated_Source\PSoC4/CyDMA.c **** * Return:
 677:Generated_Source\PSoC4/CyDMA.c **** *  None.
 678:Generated_Source\PSoC4/CyDMA.c **** *                   
 679:Generated_Source\PSoC4/CyDMA.c **** * Side effect:
 680:Generated_Source\PSoC4/CyDMA.c **** *  This function should not be called while the channel is enabled.
 681:Generated_Source\PSoC4/CyDMA.c **** *
 682:Generated_Source\PSoC4/CyDMA.c **** *******************************************************************************/
 683:Generated_Source\PSoC4/CyDMA.c **** void CyDmaSetNextDescriptor(int32 channel, int32 descriptor)
 684:Generated_Source\PSoC4/CyDMA.c **** {
 849              		.loc 1 684 0
 850              		.cfi_startproc
 851              	.LVL65:
 852 0000 38B5     		push	{r3, r4, r5, lr}
 853              		.cfi_def_cfa_offset 16
 854              		.cfi_offset 3, -16
 855              		.cfi_offset 4, -12
 856              		.cfi_offset 5, -8
 857              		.cfi_offset 14, -4
ARM GAS  C:\Users\Greg\AppData\Local\Temp\ccTXpTtu.s 			page 29


 858 0002 041C     		mov	r4, r0
 859 0004 0D1C     		mov	r5, r1
 685:Generated_Source\PSoC4/CyDMA.c ****     uint32 regValue;
 686:Generated_Source\PSoC4/CyDMA.c **** 
 687:Generated_Source\PSoC4/CyDMA.c ****     CYASSERT((channel    >= 0) && (channel    < CYDMA_CH_NR));
 860              		.loc 1 687 0
 861 0006 0728     		cmp	r0, #7
 862 0008 02D9     		bls	.L84
 863              		.loc 1 687 0 is_stmt 0 discriminator 1
 864 000a 0020     		mov	r0, #0
 865              	.LVL66:
 866 000c FFF7FEFF 		bl	CyHalt
 867              	.LVL67:
 868              	.L84:
 688:Generated_Source\PSoC4/CyDMA.c ****     CYASSERT((descriptor >= 0) && (descriptor < CYDMA_DESCR_NR));
 869              		.loc 1 688 0 is_stmt 1
 870 0010 012D     		cmp	r5, #1
 871 0012 02D9     		bls	.L85
 872              		.loc 1 688 0 is_stmt 0 discriminator 1
 873 0014 0020     		mov	r0, #0
 874 0016 FFF7FEFF 		bl	CyHalt
 875              	.LVL68:
 876              	.L85:
 689:Generated_Source\PSoC4/CyDMA.c **** 
 690:Generated_Source\PSoC4/CyDMA.c ****     regValue = CYDMA_CH_CTL_BASE.ctl[channel] & (uint32)~CYDMA_DESCRIPTOR;
 877              		.loc 1 690 0 is_stmt 1
 878 001a 044A     		ldr	r2, .L86
 879 001c A400     		lsl	r4, r4, #2
 880              	.LVL69:
 881 001e A158     		ldr	r1, [r4, r2]
 882 0020 034B     		ldr	r3, .L86+4
 883 0022 0B40     		and	r3, r1
 884              	.LVL70:
 691:Generated_Source\PSoC4/CyDMA.c ****     CYDMA_CH_CTL_BASE.ctl[channel] = regValue | (uint32)((uint32)descriptor << CYDMA_DESCRIPTOR_POS
 885              		.loc 1 691 0
 886 0024 A907     		lsl	r1, r5, #30
 887 0026 1943     		orr	r1, r3
 888 0028 A150     		str	r1, [r4, r2]
 692:Generated_Source\PSoC4/CyDMA.c **** }
 889              		.loc 1 692 0
 890              		@ sp needed
 891              	.LVL71:
 892 002a 38BD     		pop	{r3, r4, r5, pc}
 893              	.L87:
 894              		.align	2
 895              	.L86:
 896 002c 80101040 		.word	1074794624
 897 0030 FFFFFFBF 		.word	-1073741825
 898              		.cfi_endproc
 899              	.LFE24:
 900              		.size	CyDmaSetNextDescriptor, .-CyDmaSetNextDescriptor
 901              		.section	.text.CyDmaGetNextDescriptor,"ax",%progbits
 902              		.align	2
 903              		.global	CyDmaGetNextDescriptor
 904              		.code	16
 905              		.thumb_func
 906              		.type	CyDmaGetNextDescriptor, %function
ARM GAS  C:\Users\Greg\AppData\Local\Temp\ccTXpTtu.s 			page 30


 907              	CyDmaGetNextDescriptor:
 908              	.LFB25:
 693:Generated_Source\PSoC4/CyDMA.c **** 
 694:Generated_Source\PSoC4/CyDMA.c **** 
 695:Generated_Source\PSoC4/CyDMA.c **** /*******************************************************************************
 696:Generated_Source\PSoC4/CyDMA.c **** * Function Name: CyDmaGetNextDescriptor
 697:Generated_Source\PSoC4/CyDMA.c **** ********************************************************************************
 698:Generated_Source\PSoC4/CyDMA.c **** *
 699:Generated_Source\PSoC4/CyDMA.c **** * Summary:
 700:Generated_Source\PSoC4/CyDMA.c **** *  Returns the next descriptor that should be run, as set by 
 701:Generated_Source\PSoC4/CyDMA.c **** *  CyDmaSetNextDescriptor().
 702:Generated_Source\PSoC4/CyDMA.c **** *
 703:Generated_Source\PSoC4/CyDMA.c **** * Parameters:
 704:Generated_Source\PSoC4/CyDMA.c **** *  channel: channel used by this function.
 705:Generated_Source\PSoC4/CyDMA.c **** *                   
 706:Generated_Source\PSoC4/CyDMA.c **** * Return:
 707:Generated_Source\PSoC4/CyDMA.c **** *  Next Descriptor to run (0 or 1).
 708:Generated_Source\PSoC4/CyDMA.c **** *
 709:Generated_Source\PSoC4/CyDMA.c **** *******************************************************************************/
 710:Generated_Source\PSoC4/CyDMA.c **** int32 CyDmaGetNextDescriptor(int32 channel)
 711:Generated_Source\PSoC4/CyDMA.c **** {
 909              		.loc 1 711 0
 910              		.cfi_startproc
 911              	.LVL72:
 912 0000 10B5     		push	{r4, lr}
 913              		.cfi_def_cfa_offset 8
 914              		.cfi_offset 4, -8
 915              		.cfi_offset 14, -4
 916 0002 041E     		sub	r4, r0, #0
 712:Generated_Source\PSoC4/CyDMA.c ****     uint32 nextDescriptor;
 713:Generated_Source\PSoC4/CyDMA.c **** 
 714:Generated_Source\PSoC4/CyDMA.c ****     CYASSERT((channel >= 0) && (channel < CYDMA_CH_NR));
 917              		.loc 1 714 0
 918 0004 072C     		cmp	r4, #7
 919 0006 02D9     		bls	.L89
 920              		.loc 1 714 0 is_stmt 0 discriminator 1
 921 0008 0020     		mov	r0, #0
 922              	.LVL73:
 923 000a FFF7FEFF 		bl	CyHalt
 924              	.LVL74:
 925              	.L89:
 715:Generated_Source\PSoC4/CyDMA.c **** 
 716:Generated_Source\PSoC4/CyDMA.c ****     nextDescriptor = (CYDMA_CH_CTL_BASE.ctl[channel] & CYDMA_DESCRIPTOR) >> CYDMA_DESCRIPTOR_POS;
 926              		.loc 1 716 0 is_stmt 1
 927 000e A400     		lsl	r4, r4, #2
 928              	.LVL75:
 929 0010 024B     		ldr	r3, .L90
 930 0012 E058     		ldr	r0, [r4, r3]
 931 0014 4000     		lsl	r0, r0, #1
 932 0016 C00F     		lsr	r0, r0, #31
 933              	.LVL76:
 717:Generated_Source\PSoC4/CyDMA.c ****     return ((int32)nextDescriptor);
 718:Generated_Source\PSoC4/CyDMA.c **** }
 934              		.loc 1 718 0
 935              		@ sp needed
 936 0018 10BD     		pop	{r4, pc}
 937              	.L91:
ARM GAS  C:\Users\Greg\AppData\Local\Temp\ccTXpTtu.s 			page 31


 938 001a C046     		.align	2
 939              	.L90:
 940 001c 80101040 		.word	1074794624
 941              		.cfi_endproc
 942              	.LFE25:
 943              		.size	CyDmaGetNextDescriptor, .-CyDmaGetNextDescriptor
 944              		.section	.text.CyDmaSetConfiguration,"ax",%progbits
 945              		.align	2
 946              		.global	CyDmaSetConfiguration
 947              		.code	16
 948              		.thumb_func
 949              		.type	CyDmaSetConfiguration, %function
 950              	CyDmaSetConfiguration:
 951              	.LFB26:
 719:Generated_Source\PSoC4/CyDMA.c **** 
 720:Generated_Source\PSoC4/CyDMA.c **** 
 721:Generated_Source\PSoC4/CyDMA.c **** /*******************************************************************************
 722:Generated_Source\PSoC4/CyDMA.c **** * Function Name: CyDmaSetConfiguration
 723:Generated_Source\PSoC4/CyDMA.c **** ********************************************************************************
 724:Generated_Source\PSoC4/CyDMA.c **** *
 725:Generated_Source\PSoC4/CyDMA.c **** * Summary:
 726:Generated_Source\PSoC4/CyDMA.c **** *  Sets configuration information for the specified descriptor.
 727:Generated_Source\PSoC4/CyDMA.c **** *
 728:Generated_Source\PSoC4/CyDMA.c **** * Parameters:
 729:Generated_Source\PSoC4/CyDMA.c **** *  channel:    DMA channel modified by this function.
 730:Generated_Source\PSoC4/CyDMA.c **** *  descriptor: Descriptor (0 or 1) modified by this function.
 731:Generated_Source\PSoC4/CyDMA.c **** *  config:     Pointer to a configuration structure. Refer to cydma_init_struct
 732:Generated_Source\PSoC4/CyDMA.c **** *              structure definition in CyDMA_P4.h and/or DMA channel datasheet
 733:Generated_Source\PSoC4/CyDMA.c **** *              for more information.
 734:Generated_Source\PSoC4/CyDMA.c **** *                   
 735:Generated_Source\PSoC4/CyDMA.c **** * Return:
 736:Generated_Source\PSoC4/CyDMA.c **** *  None.
 737:Generated_Source\PSoC4/CyDMA.c **** *
 738:Generated_Source\PSoC4/CyDMA.c **** * Side effect:
 739:Generated_Source\PSoC4/CyDMA.c **** *  The status register associated with the specified descriptor is reset to
 740:Generated_Source\PSoC4/CyDMA.c **** *  zero after this function call. This function also validates the descriptor.
 741:Generated_Source\PSoC4/CyDMA.c **** *  This function should not be called while the descriptor is active.
 742:Generated_Source\PSoC4/CyDMA.c **** *  This can be checked by calling CyDmaGetStatus().
 743:Generated_Source\PSoC4/CyDMA.c **** *
 744:Generated_Source\PSoC4/CyDMA.c **** *******************************************************************************/
 745:Generated_Source\PSoC4/CyDMA.c **** void CyDmaSetConfiguration(int32 channel, int32 descriptor, const cydma_init_struct * config)
 746:Generated_Source\PSoC4/CyDMA.c **** {  
 952              		.loc 1 746 0
 953              		.cfi_startproc
 954              	.LVL77:
 955 0000 70B5     		push	{r4, r5, r6, lr}
 956              		.cfi_def_cfa_offset 16
 957              		.cfi_offset 4, -16
 958              		.cfi_offset 5, -12
 959              		.cfi_offset 6, -8
 960              		.cfi_offset 14, -4
 961 0002 061C     		mov	r6, r0
 962 0004 0D1C     		mov	r5, r1
 963 0006 141C     		mov	r4, r2
 747:Generated_Source\PSoC4/CyDMA.c ****     CYASSERT((channel        >= 0) && (channel         < CYDMA_CH_NR));
 964              		.loc 1 747 0
 965 0008 0728     		cmp	r0, #7
ARM GAS  C:\Users\Greg\AppData\Local\Temp\ccTXpTtu.s 			page 32


 966 000a 02D9     		bls	.L93
 967              		.loc 1 747 0 is_stmt 0 discriminator 1
 968 000c 0020     		mov	r0, #0
 969              	.LVL78:
 970 000e FFF7FEFF 		bl	CyHalt
 971              	.LVL79:
 972              	.L93:
 748:Generated_Source\PSoC4/CyDMA.c ****     CYASSERT((descriptor     >= 0) && (descriptor      < CYDMA_DESCR_NR));
 973              		.loc 1 748 0 is_stmt 1
 974 0012 012D     		cmp	r5, #1
 975 0014 02D9     		bls	.L94
 976              		.loc 1 748 0 is_stmt 0 discriminator 1
 977 0016 0020     		mov	r0, #0
 978 0018 FFF7FEFF 		bl	CyHalt
 979              	.LVL80:
 980              	.L94:
 749:Generated_Source\PSoC4/CyDMA.c **** 
 750:Generated_Source\PSoC4/CyDMA.c ****     CYASSERT(0u == (config->dataElementSize     & (uint32)~CYDMA_DATA_SIZE));   
 981              		.loc 1 750 0 is_stmt 1
 982 001c 294B     		ldr	r3, .L103
 983 001e 2268     		ldr	r2, [r4]
 984 0020 1A42     		tst	r2, r3
 985 0022 02D0     		beq	.L95
 986              		.loc 1 750 0 is_stmt 0 discriminator 1
 987 0024 0020     		mov	r0, #0
 988 0026 FFF7FEFF 		bl	CyHalt
 989              	.LVL81:
 990              	.L95:
 751:Generated_Source\PSoC4/CyDMA.c ****     CYASSERT((config->numDataElements > 0)     && (config->numDataElements <= CYDMA_MAX_DATA_NR));
 991              		.loc 1 751 0 is_stmt 1
 992 002a 6368     		ldr	r3, [r4, #4]
 993 002c 013B     		sub	r3, r3, #1
 994 002e 264A     		ldr	r2, .L103+4
 995 0030 9342     		cmp	r3, r2
 996 0032 02D9     		bls	.L96
 997              		.loc 1 751 0 is_stmt 0 discriminator 1
 998 0034 0020     		mov	r0, #0
 999 0036 FFF7FEFF 		bl	CyHalt
 1000              	.LVL82:
 1001              	.L96:
 752:Generated_Source\PSoC4/CyDMA.c ****     CYASSERT(0u == (config->srcDstTransferWidth & (uint32)~CYDMA_TRANSFER_WIDTH));
 1002              		.loc 1 752 0 is_stmt 1
 1003 003a 244B     		ldr	r3, .L103+8
 1004 003c A268     		ldr	r2, [r4, #8]
 1005 003e 1A42     		tst	r2, r3
 1006 0040 02D0     		beq	.L97
 1007              		.loc 1 752 0 is_stmt 0 discriminator 1
 1008 0042 0020     		mov	r0, #0
 1009 0044 FFF7FEFF 		bl	CyHalt
 1010              	.LVL83:
 1011              	.L97:
 753:Generated_Source\PSoC4/CyDMA.c ****     CYASSERT(0u == (config->addressIncrement    & (uint32)~CYDMA_ADDR_INCR));
 1012              		.loc 1 753 0 is_stmt 1
 1013 0048 214B     		ldr	r3, .L103+12
 1014 004a E268     		ldr	r2, [r4, #12]
 1015 004c 1A42     		tst	r2, r3
 1016 004e 02D0     		beq	.L98
ARM GAS  C:\Users\Greg\AppData\Local\Temp\ccTXpTtu.s 			page 33


 1017              		.loc 1 753 0 is_stmt 0 discriminator 1
 1018 0050 0020     		mov	r0, #0
 1019 0052 FFF7FEFF 		bl	CyHalt
 1020              	.LVL84:
 1021              	.L98:
 754:Generated_Source\PSoC4/CyDMA.c ****     CYASSERT(0u == (config->triggerType         & (uint32)~CYDMA_TRIGGER_TYPE));
 1022              		.loc 1 754 0 is_stmt 1
 1023 0056 1F4B     		ldr	r3, .L103+16
 1024 0058 2269     		ldr	r2, [r4, #16]
 1025 005a 1A42     		tst	r2, r3
 1026 005c 02D0     		beq	.L99
 1027              		.loc 1 754 0 is_stmt 0 discriminator 1
 1028 005e 0020     		mov	r0, #0
 1029 0060 FFF7FEFF 		bl	CyHalt
 1030              	.LVL85:
 1031              	.L99:
 755:Generated_Source\PSoC4/CyDMA.c ****     CYASSERT(0u == (config->transferMode        & (uint32)~CYDMA_TRANSFER_MODE));
 1032              		.loc 1 755 0 is_stmt 1
 1033 0064 6369     		ldr	r3, [r4, #20]
 1034 0066 9B00     		lsl	r3, r3, #2
 1035 0068 02D0     		beq	.L100
 1036              		.loc 1 755 0 is_stmt 0 discriminator 1
 1037 006a 0020     		mov	r0, #0
 1038 006c FFF7FEFF 		bl	CyHalt
 1039              	.LVL86:
 1040              	.L100:
 756:Generated_Source\PSoC4/CyDMA.c ****     CYASSERT(0u == (config->preemptable         & (uint32)~CYDMA_PREEMPTABLE));
 1041              		.loc 1 756 0 is_stmt 1
 1042 0070 194B     		ldr	r3, .L103+20
 1043 0072 A269     		ldr	r2, [r4, #24]
 1044 0074 1A42     		tst	r2, r3
 1045 0076 02D0     		beq	.L101
 1046              		.loc 1 756 0 is_stmt 0 discriminator 1
 1047 0078 0020     		mov	r0, #0
 1048 007a FFF7FEFF 		bl	CyHalt
 1049              	.LVL87:
 1050              	.L101:
 757:Generated_Source\PSoC4/CyDMA.c ****     CYASSERT(0u == (config->actions             & (uint32)~CYDMA_POST_COMPLETE_ACTIONS));
 1051              		.loc 1 757 0 is_stmt 1
 1052 007e 174B     		ldr	r3, .L103+24
 1053 0080 E269     		ldr	r2, [r4, #28]
 1054 0082 1A42     		tst	r2, r3
 1055 0084 02D0     		beq	.L102
 1056              		.loc 1 757 0 is_stmt 0 discriminator 1
 1057 0086 0020     		mov	r0, #0
 1058 0088 FFF7FEFF 		bl	CyHalt
 1059              	.LVL88:
 1060              	.L102:
 758:Generated_Source\PSoC4/CyDMA.c ****     
 759:Generated_Source\PSoC4/CyDMA.c ****     CYDMA_DESCR_BASE.descriptor[channel][descriptor].ctl = config->dataElementSize     |
 760:Generated_Source\PSoC4/CyDMA.c ****                                                   ((uint32)config->numDataElements-1u) |
 1061              		.loc 1 760 0 is_stmt 1
 1062 008c 6368     		ldr	r3, [r4, #4]
 1063 008e 013B     		sub	r3, r3, #1
 759:Generated_Source\PSoC4/CyDMA.c ****                                                   ((uint32)config->numDataElements-1u) |
 1064              		.loc 1 759 0
 1065 0090 2268     		ldr	r2, [r4]
ARM GAS  C:\Users\Greg\AppData\Local\Temp\ccTXpTtu.s 			page 34


 1066 0092 1343     		orr	r3, r2
 1067              		.loc 1 760 0
 1068 0094 A268     		ldr	r2, [r4, #8]
 1069 0096 1343     		orr	r3, r2
 761:Generated_Source\PSoC4/CyDMA.c ****                                                            config->srcDstTransferWidth |
 1070              		.loc 1 761 0
 1071 0098 E268     		ldr	r2, [r4, #12]
 1072 009a 1343     		orr	r3, r2
 762:Generated_Source\PSoC4/CyDMA.c ****                                                            config->addressIncrement    |
 1073              		.loc 1 762 0
 1074 009c 2269     		ldr	r2, [r4, #16]
 1075 009e 1343     		orr	r3, r2
 763:Generated_Source\PSoC4/CyDMA.c ****                                                            config->triggerType         |
 1076              		.loc 1 763 0
 1077 00a0 6269     		ldr	r2, [r4, #20]
 1078 00a2 1343     		orr	r3, r2
 764:Generated_Source\PSoC4/CyDMA.c ****                                                            config->transferMode        |
 1079              		.loc 1 764 0
 1080 00a4 A269     		ldr	r2, [r4, #24]
 1081 00a6 1343     		orr	r3, r2
 765:Generated_Source\PSoC4/CyDMA.c ****                                                            config->preemptable         |
 766:Generated_Source\PSoC4/CyDMA.c ****                                                            config->actions;
 1082              		.loc 1 766 0
 1083 00a8 E269     		ldr	r2, [r4, #28]
 765:Generated_Source\PSoC4/CyDMA.c ****                                                            config->preemptable         |
 1084              		.loc 1 765 0
 1085 00aa 1343     		orr	r3, r2
 759:Generated_Source\PSoC4/CyDMA.c ****                                                   ((uint32)config->numDataElements-1u) |
 1086              		.loc 1 759 0
 1087 00ac 7600     		lsl	r6, r6, #1
 1088              	.LVL89:
 1089 00ae 7519     		add	r5, r6, r5
 1090              	.LVL90:
 1091 00b0 2D01     		lsl	r5, r5, #4
 1092 00b2 0B4A     		ldr	r2, .L103+28
 1093 00b4 9446     		mov	ip, r2
 1094 00b6 6544     		add	r5, r5, ip
 1095 00b8 AB60     		str	r3, [r5, #8]
 767:Generated_Source\PSoC4/CyDMA.c **** 
 768:Generated_Source\PSoC4/CyDMA.c ****     CYDMA_DESCR_BASE.descriptor[channel][descriptor].status = CYDMA_VALID;
 1096              		.loc 1 768 0
 1097 00ba 8023     		mov	r3, #128
 1098 00bc 1B06     		lsl	r3, r3, #24
 1099 00be EB60     		str	r3, [r5, #12]
 769:Generated_Source\PSoC4/CyDMA.c **** }
 1100              		.loc 1 769 0
 1101              		@ sp needed
 1102              	.LVL91:
 1103 00c0 70BD     		pop	{r4, r5, r6, pc}
 1104              	.L104:
 1105 00c2 C046     		.align	2
 1106              	.L103:
 1107 00c4 FFFFFCFF 		.word	-196609
 1108 00c8 FFFF0000 		.word	65535
 1109 00cc FFFFAFFF 		.word	-5242881
 1110 00d0 FFFF5FFF 		.word	-10485761
 1111 00d4 FFFFFFFC 		.word	-50331649
ARM GAS  C:\Users\Greg\AppData\Local\Temp\ccTXpTtu.s 			page 35


 1112 00d8 FFFFFFEF 		.word	-268435457
 1113 00dc FFFFFFD3 		.word	-738197505
 1114 00e0 00181040 		.word	1074796544
 1115              		.cfi_endproc
 1116              	.LFE26:
 1117              		.size	CyDmaSetConfiguration, .-CyDmaSetConfiguration
 1118              		.section	.text.CyDmaValidateDescriptor,"ax",%progbits
 1119              		.align	2
 1120              		.global	CyDmaValidateDescriptor
 1121              		.code	16
 1122              		.thumb_func
 1123              		.type	CyDmaValidateDescriptor, %function
 1124              	CyDmaValidateDescriptor:
 1125              	.LFB27:
 770:Generated_Source\PSoC4/CyDMA.c **** 
 771:Generated_Source\PSoC4/CyDMA.c **** 
 772:Generated_Source\PSoC4/CyDMA.c **** /*******************************************************************************
 773:Generated_Source\PSoC4/CyDMA.c **** * Function Name: CyDmaValidateDescriptor
 774:Generated_Source\PSoC4/CyDMA.c **** ********************************************************************************
 775:Generated_Source\PSoC4/CyDMA.c **** *
 776:Generated_Source\PSoC4/CyDMA.c **** * Summary:
 777:Generated_Source\PSoC4/CyDMA.c **** *  Validates the specified descriptor after it has been invalidated.
 778:Generated_Source\PSoC4/CyDMA.c **** *
 779:Generated_Source\PSoC4/CyDMA.c **** * Parameters:
 780:Generated_Source\PSoC4/CyDMA.c **** *  channel:    Channel used by this function.
 781:Generated_Source\PSoC4/CyDMA.c **** *  descriptor: Descriptor (0 or 1) modified by this function.
 782:Generated_Source\PSoC4/CyDMA.c **** *                   
 783:Generated_Source\PSoC4/CyDMA.c **** * Return:
 784:Generated_Source\PSoC4/CyDMA.c **** *  None. 
 785:Generated_Source\PSoC4/CyDMA.c **** *
 786:Generated_Source\PSoC4/CyDMA.c **** * Side effect:
 787:Generated_Source\PSoC4/CyDMA.c **** *  The status register associated with the specified descriptor is reset to
 788:Generated_Source\PSoC4/CyDMA.c **** *  zero after this function call.
 789:Generated_Source\PSoC4/CyDMA.c **** *  This function should not be called when the specified descriptor is active
 790:Generated_Source\PSoC4/CyDMA.c **** *  in the DMA transfer engine. This can be checked by calling CyDmaGetStatus().
 791:Generated_Source\PSoC4/CyDMA.c **** *
 792:Generated_Source\PSoC4/CyDMA.c **** *******************************************************************************/
 793:Generated_Source\PSoC4/CyDMA.c **** void CyDmaValidateDescriptor(int32 channel, int32 descriptor)
 794:Generated_Source\PSoC4/CyDMA.c **** {
 1126              		.loc 1 794 0
 1127              		.cfi_startproc
 1128              	.LVL92:
 1129 0000 38B5     		push	{r3, r4, r5, lr}
 1130              		.cfi_def_cfa_offset 16
 1131              		.cfi_offset 3, -16
 1132              		.cfi_offset 4, -12
 1133              		.cfi_offset 5, -8
 1134              		.cfi_offset 14, -4
 1135 0002 051C     		mov	r5, r0
 1136 0004 0C1C     		mov	r4, r1
 795:Generated_Source\PSoC4/CyDMA.c ****     CYASSERT((channel    >= 0) && (channel    < CYDMA_CH_NR));
 1137              		.loc 1 795 0
 1138 0006 0728     		cmp	r0, #7
 1139 0008 02D9     		bls	.L106
 1140              		.loc 1 795 0 is_stmt 0 discriminator 1
 1141 000a 0020     		mov	r0, #0
 1142              	.LVL93:
ARM GAS  C:\Users\Greg\AppData\Local\Temp\ccTXpTtu.s 			page 36


 1143 000c FFF7FEFF 		bl	CyHalt
 1144              	.LVL94:
 1145              	.L106:
 796:Generated_Source\PSoC4/CyDMA.c ****     CYASSERT((descriptor >= 0) && (descriptor < CYDMA_DESCR_NR));
 1146              		.loc 1 796 0 is_stmt 1
 1147 0010 012C     		cmp	r4, #1
 1148 0012 02D9     		bls	.L107
 1149              		.loc 1 796 0 is_stmt 0 discriminator 1
 1150 0014 0020     		mov	r0, #0
 1151 0016 FFF7FEFF 		bl	CyHalt
 1152              	.LVL95:
 1153              	.L107:
 797:Generated_Source\PSoC4/CyDMA.c **** 
 798:Generated_Source\PSoC4/CyDMA.c ****     CYDMA_DESCR_BASE.descriptor[channel][descriptor].status = CYDMA_VALID;
 1154              		.loc 1 798 0 is_stmt 1
 1155 001a 6D00     		lsl	r5, r5, #1
 1156              	.LVL96:
 1157 001c 2C19     		add	r4, r5, r4
 1158              	.LVL97:
 1159 001e 2401     		lsl	r4, r4, #4
 1160 0020 034B     		ldr	r3, .L108
 1161 0022 9C46     		mov	ip, r3
 1162 0024 6444     		add	r4, r4, ip
 1163 0026 8023     		mov	r3, #128
 1164 0028 1B06     		lsl	r3, r3, #24
 1165 002a 6360     		str	r3, [r4, #4]
 799:Generated_Source\PSoC4/CyDMA.c **** }
 1166              		.loc 1 799 0
 1167              		@ sp needed
 1168 002c 38BD     		pop	{r3, r4, r5, pc}
 1169              	.L109:
 1170 002e C046     		.align	2
 1171              	.L108:
 1172 0030 08181040 		.word	1074796552
 1173              		.cfi_endproc
 1174              	.LFE27:
 1175              		.size	CyDmaValidateDescriptor, .-CyDmaValidateDescriptor
 1176              		.section	.text.CyDmaGetDescriptorStatus,"ax",%progbits
 1177              		.align	2
 1178              		.global	CyDmaGetDescriptorStatus
 1179              		.code	16
 1180              		.thumb_func
 1181              		.type	CyDmaGetDescriptorStatus, %function
 1182              	CyDmaGetDescriptorStatus:
 1183              	.LFB28:
 800:Generated_Source\PSoC4/CyDMA.c **** 
 801:Generated_Source\PSoC4/CyDMA.c **** 
 802:Generated_Source\PSoC4/CyDMA.c **** /*******************************************************************************
 803:Generated_Source\PSoC4/CyDMA.c **** * Function Name: CyDmaGetDescriptorStatus
 804:Generated_Source\PSoC4/CyDMA.c **** ********************************************************************************
 805:Generated_Source\PSoC4/CyDMA.c **** *
 806:Generated_Source\PSoC4/CyDMA.c **** * Summary:
 807:Generated_Source\PSoC4/CyDMA.c **** *  Returns the status of the specified descriptor.
 808:Generated_Source\PSoC4/CyDMA.c **** *
 809:Generated_Source\PSoC4/CyDMA.c **** * Parameters:
 810:Generated_Source\PSoC4/CyDMA.c **** *  channel:    Channel used by this function.
 811:Generated_Source\PSoC4/CyDMA.c **** *  descriptor: Descriptor (0 or 1) modified by this function.
ARM GAS  C:\Users\Greg\AppData\Local\Temp\ccTXpTtu.s 			page 37


 812:Generated_Source\PSoC4/CyDMA.c **** *                   
 813:Generated_Source\PSoC4/CyDMA.c **** * Return:
 814:Generated_Source\PSoC4/CyDMA.c **** *  Returns the contents of the specified descriptors status register. Refer to 
 815:Generated_Source\PSoC4/CyDMA.c **** *  descriptor status register bit definitions in CyDMA_P4.h or the API
 816:Generated_Source\PSoC4/CyDMA.c **** *  description in the DMA channel datasheet for more information.
 817:Generated_Source\PSoC4/CyDMA.c **** *
 818:Generated_Source\PSoC4/CyDMA.c **** *******************************************************************************/
 819:Generated_Source\PSoC4/CyDMA.c **** uint32 CyDmaGetDescriptorStatus(int32 channel, int32 descriptor)
 820:Generated_Source\PSoC4/CyDMA.c **** {
 1184              		.loc 1 820 0
 1185              		.cfi_startproc
 1186              	.LVL98:
 1187 0000 38B5     		push	{r3, r4, r5, lr}
 1188              		.cfi_def_cfa_offset 16
 1189              		.cfi_offset 3, -16
 1190              		.cfi_offset 4, -12
 1191              		.cfi_offset 5, -8
 1192              		.cfi_offset 14, -4
 1193 0002 051C     		mov	r5, r0
 1194 0004 0C1C     		mov	r4, r1
 821:Generated_Source\PSoC4/CyDMA.c ****     CYASSERT((channel    >= 0) && (channel    < CYDMA_CH_NR));
 1195              		.loc 1 821 0
 1196 0006 0728     		cmp	r0, #7
 1197 0008 02D9     		bls	.L111
 1198              		.loc 1 821 0 is_stmt 0 discriminator 1
 1199 000a 0020     		mov	r0, #0
 1200              	.LVL99:
 1201 000c FFF7FEFF 		bl	CyHalt
 1202              	.LVL100:
 1203              	.L111:
 822:Generated_Source\PSoC4/CyDMA.c ****     CYASSERT((descriptor >= 0) && (descriptor < CYDMA_DESCR_NR));
 1204              		.loc 1 822 0 is_stmt 1
 1205 0010 012C     		cmp	r4, #1
 1206 0012 02D9     		bls	.L112
 1207              		.loc 1 822 0 is_stmt 0 discriminator 1
 1208 0014 0020     		mov	r0, #0
 1209 0016 FFF7FEFF 		bl	CyHalt
 1210              	.LVL101:
 1211              	.L112:
 823:Generated_Source\PSoC4/CyDMA.c **** 
 824:Generated_Source\PSoC4/CyDMA.c ****     return (CYDMA_DESCR_BASE.descriptor[channel][descriptor].status);
 1212              		.loc 1 824 0 is_stmt 1
 1213 001a 6D00     		lsl	r5, r5, #1
 1214              	.LVL102:
 1215 001c 2C19     		add	r4, r5, r4
 1216              	.LVL103:
 1217 001e 2401     		lsl	r4, r4, #4
 1218 0020 024B     		ldr	r3, .L113
 1219 0022 9C46     		mov	ip, r3
 1220 0024 6444     		add	r4, r4, ip
 1221 0026 6068     		ldr	r0, [r4, #4]
 825:Generated_Source\PSoC4/CyDMA.c **** }
 1222              		.loc 1 825 0
 1223              		@ sp needed
 1224 0028 38BD     		pop	{r3, r4, r5, pc}
 1225              	.L114:
 1226 002a C046     		.align	2
ARM GAS  C:\Users\Greg\AppData\Local\Temp\ccTXpTtu.s 			page 38


 1227              	.L113:
 1228 002c 08181040 		.word	1074796552
 1229              		.cfi_endproc
 1230              	.LFE28:
 1231              		.size	CyDmaGetDescriptorStatus, .-CyDmaGetDescriptorStatus
 1232              		.section	.text.CyDmaSetSrcAddress,"ax",%progbits
 1233              		.align	2
 1234              		.global	CyDmaSetSrcAddress
 1235              		.code	16
 1236              		.thumb_func
 1237              		.type	CyDmaSetSrcAddress, %function
 1238              	CyDmaSetSrcAddress:
 1239              	.LFB29:
 826:Generated_Source\PSoC4/CyDMA.c **** 
 827:Generated_Source\PSoC4/CyDMA.c **** 
 828:Generated_Source\PSoC4/CyDMA.c **** /*******************************************************************************
 829:Generated_Source\PSoC4/CyDMA.c **** * Function Name: CyDmaSetSrcAddress
 830:Generated_Source\PSoC4/CyDMA.c **** ********************************************************************************
 831:Generated_Source\PSoC4/CyDMA.c **** *
 832:Generated_Source\PSoC4/CyDMA.c **** * Summary:
 833:Generated_Source\PSoC4/CyDMA.c **** *  Configures the source address for the specified descriptor.
 834:Generated_Source\PSoC4/CyDMA.c **** *
 835:Generated_Source\PSoC4/CyDMA.c **** * Parameters:
 836:Generated_Source\PSoC4/CyDMA.c **** *  channel:    Channel used by this function.
 837:Generated_Source\PSoC4/CyDMA.c **** *  descriptor: Descriptor (0 or 1) modified by this function.
 838:Generated_Source\PSoC4/CyDMA.c **** *  srcAddress: Address of DMA transfer source.
 839:Generated_Source\PSoC4/CyDMA.c **** *                   
 840:Generated_Source\PSoC4/CyDMA.c **** * Return:
 841:Generated_Source\PSoC4/CyDMA.c **** *  None.
 842:Generated_Source\PSoC4/CyDMA.c **** *
 843:Generated_Source\PSoC4/CyDMA.c **** * Side effect:
 844:Generated_Source\PSoC4/CyDMA.c **** *  This function should not be called when the specified descriptor is active
 845:Generated_Source\PSoC4/CyDMA.c **** *  in the DMA transfer engine. This can be checked by calling CyDmaGetStatus(). 
 846:Generated_Source\PSoC4/CyDMA.c **** *
 847:Generated_Source\PSoC4/CyDMA.c **** *******************************************************************************/
 848:Generated_Source\PSoC4/CyDMA.c **** void CyDmaSetSrcAddress(int32 channel, int32 descriptor, void * srcAddress)
 849:Generated_Source\PSoC4/CyDMA.c **** {
 1240              		.loc 1 849 0
 1241              		.cfi_startproc
 1242              	.LVL104:
 1243 0000 70B5     		push	{r4, r5, r6, lr}
 1244              		.cfi_def_cfa_offset 16
 1245              		.cfi_offset 4, -16
 1246              		.cfi_offset 5, -12
 1247              		.cfi_offset 6, -8
 1248              		.cfi_offset 14, -4
 1249 0002 051C     		mov	r5, r0
 1250 0004 0C1C     		mov	r4, r1
 1251 0006 161C     		mov	r6, r2
 850:Generated_Source\PSoC4/CyDMA.c ****     CYASSERT((channel    >= 0) && (channel    < CYDMA_CH_NR));
 1252              		.loc 1 850 0
 1253 0008 0728     		cmp	r0, #7
 1254 000a 02D9     		bls	.L116
 1255              		.loc 1 850 0 is_stmt 0 discriminator 1
 1256 000c 0020     		mov	r0, #0
 1257              	.LVL105:
 1258 000e FFF7FEFF 		bl	CyHalt
ARM GAS  C:\Users\Greg\AppData\Local\Temp\ccTXpTtu.s 			page 39


 1259              	.LVL106:
 1260              	.L116:
 851:Generated_Source\PSoC4/CyDMA.c ****     CYASSERT((descriptor >= 0) && (descriptor < CYDMA_DESCR_NR));
 1261              		.loc 1 851 0 is_stmt 1
 1262 0012 012C     		cmp	r4, #1
 1263 0014 02D9     		bls	.L117
 1264              		.loc 1 851 0 is_stmt 0 discriminator 1
 1265 0016 0020     		mov	r0, #0
 1266 0018 FFF7FEFF 		bl	CyHalt
 1267              	.LVL107:
 1268              	.L117:
 852:Generated_Source\PSoC4/CyDMA.c **** 
 853:Generated_Source\PSoC4/CyDMA.c ****     CYDMA_DESCR_BASE.descriptor[channel][descriptor].src = srcAddress;
 1269              		.loc 1 853 0 is_stmt 1
 1270 001c 6D00     		lsl	r5, r5, #1
 1271              	.LVL108:
 1272 001e 2C19     		add	r4, r5, r4
 1273              	.LVL109:
 1274 0020 2401     		lsl	r4, r4, #4
 1275 0022 014B     		ldr	r3, .L118
 1276 0024 E650     		str	r6, [r4, r3]
 854:Generated_Source\PSoC4/CyDMA.c **** }
 1277              		.loc 1 854 0
 1278              		@ sp needed
 1279              	.LVL110:
 1280 0026 70BD     		pop	{r4, r5, r6, pc}
 1281              	.L119:
 1282              		.align	2
 1283              	.L118:
 1284 0028 00181040 		.word	1074796544
 1285              		.cfi_endproc
 1286              	.LFE29:
 1287              		.size	CyDmaSetSrcAddress, .-CyDmaSetSrcAddress
 1288              		.section	.text.CyDmaGetSrcAddress,"ax",%progbits
 1289              		.align	2
 1290              		.global	CyDmaGetSrcAddress
 1291              		.code	16
 1292              		.thumb_func
 1293              		.type	CyDmaGetSrcAddress, %function
 1294              	CyDmaGetSrcAddress:
 1295              	.LFB30:
 855:Generated_Source\PSoC4/CyDMA.c **** 
 856:Generated_Source\PSoC4/CyDMA.c **** 
 857:Generated_Source\PSoC4/CyDMA.c **** /*******************************************************************************
 858:Generated_Source\PSoC4/CyDMA.c **** * Function Name: CyDmaGetSrcAddress
 859:Generated_Source\PSoC4/CyDMA.c **** ********************************************************************************
 860:Generated_Source\PSoC4/CyDMA.c **** *
 861:Generated_Source\PSoC4/CyDMA.c **** * Summary:
 862:Generated_Source\PSoC4/CyDMA.c **** *  Returns the source address for the specified descriptor, set by 
 863:Generated_Source\PSoC4/CyDMA.c **** *  CyDmaSetSrcAddress().
 864:Generated_Source\PSoC4/CyDMA.c **** *
 865:Generated_Source\PSoC4/CyDMA.c **** * Parameters:
 866:Generated_Source\PSoC4/CyDMA.c **** *  channel:    Channel used by this function.
 867:Generated_Source\PSoC4/CyDMA.c **** *  descriptor: Specifies descriptor (0 or 1) used by this function.
 868:Generated_Source\PSoC4/CyDMA.c **** *                   
 869:Generated_Source\PSoC4/CyDMA.c **** * Return:
 870:Generated_Source\PSoC4/CyDMA.c **** *  Source address written to specified descriptor.
ARM GAS  C:\Users\Greg\AppData\Local\Temp\ccTXpTtu.s 			page 40


 871:Generated_Source\PSoC4/CyDMA.c **** *
 872:Generated_Source\PSoC4/CyDMA.c **** *******************************************************************************/
 873:Generated_Source\PSoC4/CyDMA.c **** void * CyDmaGetSrcAddress(int32 channel, int32 descriptor)
 874:Generated_Source\PSoC4/CyDMA.c **** {
 1296              		.loc 1 874 0
 1297              		.cfi_startproc
 1298              	.LVL111:
 1299 0000 38B5     		push	{r3, r4, r5, lr}
 1300              		.cfi_def_cfa_offset 16
 1301              		.cfi_offset 3, -16
 1302              		.cfi_offset 4, -12
 1303              		.cfi_offset 5, -8
 1304              		.cfi_offset 14, -4
 1305 0002 051C     		mov	r5, r0
 1306 0004 0C1C     		mov	r4, r1
 875:Generated_Source\PSoC4/CyDMA.c ****     CYASSERT((channel    >= 0) && (channel    < CYDMA_CH_NR));
 1307              		.loc 1 875 0
 1308 0006 0728     		cmp	r0, #7
 1309 0008 02D9     		bls	.L121
 1310              		.loc 1 875 0 is_stmt 0 discriminator 1
 1311 000a 0020     		mov	r0, #0
 1312              	.LVL112:
 1313 000c FFF7FEFF 		bl	CyHalt
 1314              	.LVL113:
 1315              	.L121:
 876:Generated_Source\PSoC4/CyDMA.c ****     CYASSERT((descriptor >= 0) && (descriptor < CYDMA_DESCR_NR));
 1316              		.loc 1 876 0 is_stmt 1
 1317 0010 012C     		cmp	r4, #1
 1318 0012 02D9     		bls	.L122
 1319              		.loc 1 876 0 is_stmt 0 discriminator 1
 1320 0014 0020     		mov	r0, #0
 1321 0016 FFF7FEFF 		bl	CyHalt
 1322              	.LVL114:
 1323              	.L122:
 877:Generated_Source\PSoC4/CyDMA.c **** 
 878:Generated_Source\PSoC4/CyDMA.c ****     return (CYDMA_DESCR_BASE.descriptor[channel][descriptor].src);
 1324              		.loc 1 878 0 is_stmt 1
 1325 001a 6D00     		lsl	r5, r5, #1
 1326              	.LVL115:
 1327 001c 2C19     		add	r4, r5, r4
 1328              	.LVL116:
 1329 001e 2401     		lsl	r4, r4, #4
 1330 0020 014B     		ldr	r3, .L123
 1331 0022 E058     		ldr	r0, [r4, r3]
 879:Generated_Source\PSoC4/CyDMA.c **** }
 1332              		.loc 1 879 0
 1333              		@ sp needed
 1334 0024 38BD     		pop	{r3, r4, r5, pc}
 1335              	.L124:
 1336 0026 C046     		.align	2
 1337              	.L123:
 1338 0028 00181040 		.word	1074796544
 1339              		.cfi_endproc
 1340              	.LFE30:
 1341              		.size	CyDmaGetSrcAddress, .-CyDmaGetSrcAddress
 1342              		.section	.text.CyDmaSetDstAddress,"ax",%progbits
 1343              		.align	2
ARM GAS  C:\Users\Greg\AppData\Local\Temp\ccTXpTtu.s 			page 41


 1344              		.global	CyDmaSetDstAddress
 1345              		.code	16
 1346              		.thumb_func
 1347              		.type	CyDmaSetDstAddress, %function
 1348              	CyDmaSetDstAddress:
 1349              	.LFB31:
 880:Generated_Source\PSoC4/CyDMA.c **** 
 881:Generated_Source\PSoC4/CyDMA.c **** 
 882:Generated_Source\PSoC4/CyDMA.c **** /*******************************************************************************
 883:Generated_Source\PSoC4/CyDMA.c **** * Function Name: CyDmaSetDstAddress
 884:Generated_Source\PSoC4/CyDMA.c **** ********************************************************************************
 885:Generated_Source\PSoC4/CyDMA.c **** *
 886:Generated_Source\PSoC4/CyDMA.c **** * Summary:
 887:Generated_Source\PSoC4/CyDMA.c **** *  Configures the destination address for the specified descriptor.
 888:Generated_Source\PSoC4/CyDMA.c **** *
 889:Generated_Source\PSoC4/CyDMA.c **** * Parameters:
 890:Generated_Source\PSoC4/CyDMA.c **** *  channel:    Channel used by this function.
 891:Generated_Source\PSoC4/CyDMA.c **** *  descriptor: Descriptor (0 or 1) modified by this function.
 892:Generated_Source\PSoC4/CyDMA.c **** *  dstAddress: Address of DMA transfer destination.
 893:Generated_Source\PSoC4/CyDMA.c **** *                   
 894:Generated_Source\PSoC4/CyDMA.c **** * Return:
 895:Generated_Source\PSoC4/CyDMA.c **** *  None.
 896:Generated_Source\PSoC4/CyDMA.c **** *
 897:Generated_Source\PSoC4/CyDMA.c **** * Side effect:
 898:Generated_Source\PSoC4/CyDMA.c **** *  This function should not be called when the specified descriptor is active
 899:Generated_Source\PSoC4/CyDMA.c **** *  in the DMA transfer engine. This can be checked by calling CyDmaGetStatus(). 
 900:Generated_Source\PSoC4/CyDMA.c **** *
 901:Generated_Source\PSoC4/CyDMA.c **** *******************************************************************************/
 902:Generated_Source\PSoC4/CyDMA.c **** void CyDmaSetDstAddress(int32 channel, int32 descriptor, void * dstAddress)
 903:Generated_Source\PSoC4/CyDMA.c **** {
 1350              		.loc 1 903 0
 1351              		.cfi_startproc
 1352              	.LVL117:
 1353 0000 70B5     		push	{r4, r5, r6, lr}
 1354              		.cfi_def_cfa_offset 16
 1355              		.cfi_offset 4, -16
 1356              		.cfi_offset 5, -12
 1357              		.cfi_offset 6, -8
 1358              		.cfi_offset 14, -4
 1359 0002 051C     		mov	r5, r0
 1360 0004 0C1C     		mov	r4, r1
 1361 0006 161C     		mov	r6, r2
 904:Generated_Source\PSoC4/CyDMA.c ****     CYASSERT((channel    >= 0) && (channel    < CYDMA_CH_NR));
 1362              		.loc 1 904 0
 1363 0008 0728     		cmp	r0, #7
 1364 000a 02D9     		bls	.L126
 1365              		.loc 1 904 0 is_stmt 0 discriminator 1
 1366 000c 0020     		mov	r0, #0
 1367              	.LVL118:
 1368 000e FFF7FEFF 		bl	CyHalt
 1369              	.LVL119:
 1370              	.L126:
 905:Generated_Source\PSoC4/CyDMA.c ****     CYASSERT((descriptor >= 0) && (descriptor < CYDMA_DESCR_NR));
 1371              		.loc 1 905 0 is_stmt 1
 1372 0012 012C     		cmp	r4, #1
 1373 0014 02D9     		bls	.L127
 1374              		.loc 1 905 0 is_stmt 0 discriminator 1
ARM GAS  C:\Users\Greg\AppData\Local\Temp\ccTXpTtu.s 			page 42


 1375 0016 0020     		mov	r0, #0
 1376 0018 FFF7FEFF 		bl	CyHalt
 1377              	.LVL120:
 1378              	.L127:
 906:Generated_Source\PSoC4/CyDMA.c **** 
 907:Generated_Source\PSoC4/CyDMA.c ****     CYDMA_DESCR_BASE.descriptor[channel][descriptor].dst = dstAddress;
 1379              		.loc 1 907 0 is_stmt 1
 1380 001c 6D00     		lsl	r5, r5, #1
 1381              	.LVL121:
 1382 001e 2C19     		add	r4, r5, r4
 1383              	.LVL122:
 1384 0020 2401     		lsl	r4, r4, #4
 1385 0022 024B     		ldr	r3, .L128
 1386 0024 9C46     		mov	ip, r3
 1387 0026 6444     		add	r4, r4, ip
 1388 0028 6660     		str	r6, [r4, #4]
 908:Generated_Source\PSoC4/CyDMA.c **** }
 1389              		.loc 1 908 0
 1390              		@ sp needed
 1391              	.LVL123:
 1392 002a 70BD     		pop	{r4, r5, r6, pc}
 1393              	.L129:
 1394              		.align	2
 1395              	.L128:
 1396 002c 00181040 		.word	1074796544
 1397              		.cfi_endproc
 1398              	.LFE31:
 1399              		.size	CyDmaSetDstAddress, .-CyDmaSetDstAddress
 1400              		.section	.text.CyDmaGetDstAddress,"ax",%progbits
 1401              		.align	2
 1402              		.global	CyDmaGetDstAddress
 1403              		.code	16
 1404              		.thumb_func
 1405              		.type	CyDmaGetDstAddress, %function
 1406              	CyDmaGetDstAddress:
 1407              	.LFB32:
 909:Generated_Source\PSoC4/CyDMA.c **** 
 910:Generated_Source\PSoC4/CyDMA.c **** 
 911:Generated_Source\PSoC4/CyDMA.c **** /*******************************************************************************
 912:Generated_Source\PSoC4/CyDMA.c **** * Function Name: CyDmaGetDstAddress
 913:Generated_Source\PSoC4/CyDMA.c **** ********************************************************************************
 914:Generated_Source\PSoC4/CyDMA.c **** *
 915:Generated_Source\PSoC4/CyDMA.c **** * Summary:
 916:Generated_Source\PSoC4/CyDMA.c **** *  Returns the destination address for the specified descriptor, set by 
 917:Generated_Source\PSoC4/CyDMA.c **** *  CyDmaSetDstAddress().
 918:Generated_Source\PSoC4/CyDMA.c **** *
 919:Generated_Source\PSoC4/CyDMA.c **** * Parameters:
 920:Generated_Source\PSoC4/CyDMA.c **** *  channel:    Channel used by this function.
 921:Generated_Source\PSoC4/CyDMA.c **** *  descriptor: Specifies descriptor (0 or 1) used by this function.
 922:Generated_Source\PSoC4/CyDMA.c **** *                   
 923:Generated_Source\PSoC4/CyDMA.c **** * Return:
 924:Generated_Source\PSoC4/CyDMA.c **** *  Destination address written to specified descriptor.
 925:Generated_Source\PSoC4/CyDMA.c **** *
 926:Generated_Source\PSoC4/CyDMA.c **** *******************************************************************************/
 927:Generated_Source\PSoC4/CyDMA.c **** void * CyDmaGetDstAddress(int32 channel, int32 descriptor)
 928:Generated_Source\PSoC4/CyDMA.c **** {
 1408              		.loc 1 928 0
ARM GAS  C:\Users\Greg\AppData\Local\Temp\ccTXpTtu.s 			page 43


 1409              		.cfi_startproc
 1410              	.LVL124:
 1411 0000 38B5     		push	{r3, r4, r5, lr}
 1412              		.cfi_def_cfa_offset 16
 1413              		.cfi_offset 3, -16
 1414              		.cfi_offset 4, -12
 1415              		.cfi_offset 5, -8
 1416              		.cfi_offset 14, -4
 1417 0002 051C     		mov	r5, r0
 1418 0004 0C1C     		mov	r4, r1
 929:Generated_Source\PSoC4/CyDMA.c ****     CYASSERT((channel    >= 0) && (channel    < CYDMA_CH_NR));
 1419              		.loc 1 929 0
 1420 0006 0728     		cmp	r0, #7
 1421 0008 02D9     		bls	.L131
 1422              		.loc 1 929 0 is_stmt 0 discriminator 1
 1423 000a 0020     		mov	r0, #0
 1424              	.LVL125:
 1425 000c FFF7FEFF 		bl	CyHalt
 1426              	.LVL126:
 1427              	.L131:
 930:Generated_Source\PSoC4/CyDMA.c ****     CYASSERT((descriptor >= 0) && (descriptor < CYDMA_DESCR_NR));
 1428              		.loc 1 930 0 is_stmt 1
 1429 0010 012C     		cmp	r4, #1
 1430 0012 02D9     		bls	.L132
 1431              		.loc 1 930 0 is_stmt 0 discriminator 1
 1432 0014 0020     		mov	r0, #0
 1433 0016 FFF7FEFF 		bl	CyHalt
 1434              	.LVL127:
 1435              	.L132:
 931:Generated_Source\PSoC4/CyDMA.c **** 
 932:Generated_Source\PSoC4/CyDMA.c ****     return (CYDMA_DESCR_BASE.descriptor[channel][descriptor].dst);
 1436              		.loc 1 932 0 is_stmt 1
 1437 001a 6D00     		lsl	r5, r5, #1
 1438              	.LVL128:
 1439 001c 2C19     		add	r4, r5, r4
 1440              	.LVL129:
 1441 001e 2401     		lsl	r4, r4, #4
 1442 0020 024B     		ldr	r3, .L133
 1443 0022 9C46     		mov	ip, r3
 1444 0024 6444     		add	r4, r4, ip
 1445 0026 6068     		ldr	r0, [r4, #4]
 933:Generated_Source\PSoC4/CyDMA.c **** }
 1446              		.loc 1 933 0
 1447              		@ sp needed
 1448 0028 38BD     		pop	{r3, r4, r5, pc}
 1449              	.L134:
 1450 002a C046     		.align	2
 1451              	.L133:
 1452 002c 00181040 		.word	1074796544
 1453              		.cfi_endproc
 1454              	.LFE32:
 1455              		.size	CyDmaGetDstAddress, .-CyDmaGetDstAddress
 1456              		.section	.text.CyDmaSetDataElementSize,"ax",%progbits
 1457              		.align	2
 1458              		.global	CyDmaSetDataElementSize
 1459              		.code	16
 1460              		.thumb_func
ARM GAS  C:\Users\Greg\AppData\Local\Temp\ccTXpTtu.s 			page 44


 1461              		.type	CyDmaSetDataElementSize, %function
 1462              	CyDmaSetDataElementSize:
 1463              	.LFB33:
 934:Generated_Source\PSoC4/CyDMA.c **** 
 935:Generated_Source\PSoC4/CyDMA.c **** /*******************************************************************************
 936:Generated_Source\PSoC4/CyDMA.c **** * Function Name: CyDmaSetDataElementSize
 937:Generated_Source\PSoC4/CyDMA.c **** ********************************************************************************
 938:Generated_Source\PSoC4/CyDMA.c **** *
 939:Generated_Source\PSoC4/CyDMA.c **** * Summary:
 940:Generated_Source\PSoC4/CyDMA.c **** *  Sets the data element size for the specified descriptor.
 941:Generated_Source\PSoC4/CyDMA.c **** *
 942:Generated_Source\PSoC4/CyDMA.c **** * Parameters:
 943:Generated_Source\PSoC4/CyDMA.c **** *  channel:         Channel used by this function.
 944:Generated_Source\PSoC4/CyDMA.c **** *  descriptor:      Descriptor (0 or 1) modified by this function.
 945:Generated_Source\PSoC4/CyDMA.c **** *  dataElementSize: Specifies the size of the data element. The DMA transfer
 946:Generated_Source\PSoC4/CyDMA.c **** *                   engine transfers one data element at a time. How these
 947:Generated_Source\PSoC4/CyDMA.c **** *                   transfers occur is controlled by the transfer mode.
 948:Generated_Source\PSoC4/CyDMA.c **** *                   Refer to the API bit field definitions in CyDMA_P4.h
 949:Generated_Source\PSoC4/CyDMA.c **** *                   or API description in the DMA channel datasheet for the 
 950:Generated_Source\PSoC4/CyDMA.c **** *                   parameter options.
 951:Generated_Source\PSoC4/CyDMA.c **** *
 952:Generated_Source\PSoC4/CyDMA.c **** * Return:
 953:Generated_Source\PSoC4/CyDMA.c **** *  None.
 954:Generated_Source\PSoC4/CyDMA.c **** *
 955:Generated_Source\PSoC4/CyDMA.c **** * Side effect:
 956:Generated_Source\PSoC4/CyDMA.c **** *  This function should not be called when the specified descriptor is active
 957:Generated_Source\PSoC4/CyDMA.c **** *  in the DMA transfer engine. This can be checked by calling CyDmaGetStatus(). 
 958:Generated_Source\PSoC4/CyDMA.c **** *
 959:Generated_Source\PSoC4/CyDMA.c **** *******************************************************************************/
 960:Generated_Source\PSoC4/CyDMA.c **** void CyDmaSetDataElementSize(int32 channel, int32 descriptor, uint32 dataElementSize)
 961:Generated_Source\PSoC4/CyDMA.c **** {
 1464              		.loc 1 961 0
 1465              		.cfi_startproc
 1466              	.LVL130:
 1467 0000 70B5     		push	{r4, r5, r6, lr}
 1468              		.cfi_def_cfa_offset 16
 1469              		.cfi_offset 4, -16
 1470              		.cfi_offset 5, -12
 1471              		.cfi_offset 6, -8
 1472              		.cfi_offset 14, -4
 1473 0002 061C     		mov	r6, r0
 1474 0004 0C1C     		mov	r4, r1
 1475 0006 151C     		mov	r5, r2
 962:Generated_Source\PSoC4/CyDMA.c ****     uint32 regValue;
 963:Generated_Source\PSoC4/CyDMA.c ****     
 964:Generated_Source\PSoC4/CyDMA.c ****     CYASSERT((channel    >= 0) && (channel    < CYDMA_CH_NR));
 1476              		.loc 1 964 0
 1477 0008 0728     		cmp	r0, #7
 1478 000a 02D9     		bls	.L136
 1479              		.loc 1 964 0 is_stmt 0 discriminator 1
 1480 000c 0020     		mov	r0, #0
 1481              	.LVL131:
 1482 000e FFF7FEFF 		bl	CyHalt
 1483              	.LVL132:
 1484              	.L136:
 965:Generated_Source\PSoC4/CyDMA.c ****     CYASSERT((descriptor >= 0) && (descriptor < CYDMA_DESCR_NR));
 1485              		.loc 1 965 0 is_stmt 1
ARM GAS  C:\Users\Greg\AppData\Local\Temp\ccTXpTtu.s 			page 45


 1486 0012 012C     		cmp	r4, #1
 1487 0014 02D9     		bls	.L137
 1488              		.loc 1 965 0 is_stmt 0 discriminator 1
 1489 0016 0020     		mov	r0, #0
 1490 0018 FFF7FEFF 		bl	CyHalt
 1491              	.LVL133:
 1492              	.L137:
 966:Generated_Source\PSoC4/CyDMA.c ****     CYASSERT(0u == (dataElementSize & (uint32)~CYDMA_DATA_SIZE));
 1493              		.loc 1 966 0 is_stmt 1
 1494 001c 084B     		ldr	r3, .L139
 1495 001e 1D42     		tst	r5, r3
 1496 0020 02D0     		beq	.L138
 1497              		.loc 1 966 0 is_stmt 0 discriminator 1
 1498 0022 0020     		mov	r0, #0
 1499 0024 FFF7FEFF 		bl	CyHalt
 1500              	.LVL134:
 1501              	.L138:
 967:Generated_Source\PSoC4/CyDMA.c **** 
 968:Generated_Source\PSoC4/CyDMA.c ****     regValue = CYDMA_DESCR_BASE.descriptor[channel][descriptor].ctl & (uint32)~CYDMA_DATA_SIZE;
 1502              		.loc 1 968 0 is_stmt 1
 1503 0028 7600     		lsl	r6, r6, #1
 1504              	.LVL135:
 1505 002a 3419     		add	r4, r6, r4
 1506              	.LVL136:
 1507 002c 2401     		lsl	r4, r4, #4
 1508 002e 054B     		ldr	r3, .L139+4
 1509 0030 9C46     		mov	ip, r3
 1510 0032 6444     		add	r4, r4, ip
 1511 0034 A268     		ldr	r2, [r4, #8]
 1512 0036 024B     		ldr	r3, .L139
 1513 0038 1340     		and	r3, r2
 1514              	.LVL137:
 969:Generated_Source\PSoC4/CyDMA.c ****     CYDMA_DESCR_BASE.descriptor[channel][descriptor].ctl = regValue | dataElementSize;
 1515              		.loc 1 969 0
 1516 003a 1D43     		orr	r5, r3
 1517              	.LVL138:
 1518 003c A560     		str	r5, [r4, #8]
 970:Generated_Source\PSoC4/CyDMA.c **** }
 1519              		.loc 1 970 0
 1520              		@ sp needed
 1521 003e 70BD     		pop	{r4, r5, r6, pc}
 1522              	.L140:
 1523              		.align	2
 1524              	.L139:
 1525 0040 FFFFFCFF 		.word	-196609
 1526 0044 00181040 		.word	1074796544
 1527              		.cfi_endproc
 1528              	.LFE33:
 1529              		.size	CyDmaSetDataElementSize, .-CyDmaSetDataElementSize
 1530              		.section	.text.CyDmaGetDataElementSize,"ax",%progbits
 1531              		.align	2
 1532              		.global	CyDmaGetDataElementSize
 1533              		.code	16
 1534              		.thumb_func
 1535              		.type	CyDmaGetDataElementSize, %function
 1536              	CyDmaGetDataElementSize:
 1537              	.LFB34:
ARM GAS  C:\Users\Greg\AppData\Local\Temp\ccTXpTtu.s 			page 46


 971:Generated_Source\PSoC4/CyDMA.c **** 
 972:Generated_Source\PSoC4/CyDMA.c **** 
 973:Generated_Source\PSoC4/CyDMA.c **** /*******************************************************************************
 974:Generated_Source\PSoC4/CyDMA.c **** * Function Name: CyDmaGetDataElementSize
 975:Generated_Source\PSoC4/CyDMA.c **** ********************************************************************************
 976:Generated_Source\PSoC4/CyDMA.c **** *
 977:Generated_Source\PSoC4/CyDMA.c **** * Summary:
 978:Generated_Source\PSoC4/CyDMA.c **** *  Returns the data element size configured for the specified descriptor, set by
 979:Generated_Source\PSoC4/CyDMA.c **** *  CyDmaSetDataElementSize() or CyDmaSetConfiguration.
 980:Generated_Source\PSoC4/CyDMA.c **** *
 981:Generated_Source\PSoC4/CyDMA.c **** * Parameters:
 982:Generated_Source\PSoC4/CyDMA.c **** *  channel:    Channel used by this function.
 983:Generated_Source\PSoC4/CyDMA.c **** *  descriptor: Descriptor (0 or 1) modified by this function.
 984:Generated_Source\PSoC4/CyDMA.c **** *                   
 985:Generated_Source\PSoC4/CyDMA.c **** * Return:
 986:Generated_Source\PSoC4/CyDMA.c **** *  The size of the data element. The DMA transfer engine transfers one data
 987:Generated_Source\PSoC4/CyDMA.c **** *  element at a time. How these transfers occur is controlled by the transfer
 988:Generated_Source\PSoC4/CyDMA.c **** *  mode. Refer to the API bit field definitions in CyDMA_P4.h or the API 
 989:Generated_Source\PSoC4/CyDMA.c **** *  description in the DMA channel datasheet for more information.
 990:Generated_Source\PSoC4/CyDMA.c **** *
 991:Generated_Source\PSoC4/CyDMA.c **** * Note:
 992:Generated_Source\PSoC4/CyDMA.c **** *  The size of the source and destination can be configured to use the
 993:Generated_Source\PSoC4/CyDMA.c **** *  data element size, or a Word, this is set in CyDmaSetSrcDstTransferWidth().
 994:Generated_Source\PSoC4/CyDMA.c **** *
 995:Generated_Source\PSoC4/CyDMA.c **** *******************************************************************************/
 996:Generated_Source\PSoC4/CyDMA.c **** uint32 CyDmaGetDataElementSize(int32 channel, int32 descriptor)
 997:Generated_Source\PSoC4/CyDMA.c **** {
 1538              		.loc 1 997 0
 1539              		.cfi_startproc
 1540              	.LVL139:
 1541 0000 38B5     		push	{r3, r4, r5, lr}
 1542              		.cfi_def_cfa_offset 16
 1543              		.cfi_offset 3, -16
 1544              		.cfi_offset 4, -12
 1545              		.cfi_offset 5, -8
 1546              		.cfi_offset 14, -4
 1547 0002 051C     		mov	r5, r0
 1548 0004 0C1C     		mov	r4, r1
 998:Generated_Source\PSoC4/CyDMA.c ****     CYASSERT((channel    >= 0) && (channel    < CYDMA_CH_NR));
 1549              		.loc 1 998 0
 1550 0006 0728     		cmp	r0, #7
 1551 0008 02D9     		bls	.L142
 1552              		.loc 1 998 0 is_stmt 0 discriminator 1
 1553 000a 0020     		mov	r0, #0
 1554              	.LVL140:
 1555 000c FFF7FEFF 		bl	CyHalt
 1556              	.LVL141:
 1557              	.L142:
 999:Generated_Source\PSoC4/CyDMA.c ****     CYASSERT((descriptor >= 0) && (descriptor < CYDMA_DESCR_NR));
 1558              		.loc 1 999 0 is_stmt 1
 1559 0010 012C     		cmp	r4, #1
 1560 0012 02D9     		bls	.L143
 1561              		.loc 1 999 0 is_stmt 0 discriminator 1
 1562 0014 0020     		mov	r0, #0
 1563 0016 FFF7FEFF 		bl	CyHalt
 1564              	.LVL142:
 1565              	.L143:
ARM GAS  C:\Users\Greg\AppData\Local\Temp\ccTXpTtu.s 			page 47


1000:Generated_Source\PSoC4/CyDMA.c **** 
1001:Generated_Source\PSoC4/CyDMA.c ****     return (CYDMA_DESCR_BASE.descriptor[channel][descriptor].ctl & CYDMA_DATA_SIZE);
 1566              		.loc 1 1001 0 is_stmt 1
 1567 001a 6D00     		lsl	r5, r5, #1
 1568              	.LVL143:
 1569 001c 2C19     		add	r4, r5, r4
 1570              	.LVL144:
 1571 001e 2401     		lsl	r4, r4, #4
 1572 0020 034B     		ldr	r3, .L144
 1573 0022 9C46     		mov	ip, r3
 1574 0024 6444     		add	r4, r4, ip
 1575 0026 A068     		ldr	r0, [r4, #8]
 1576 0028 C023     		mov	r3, #192
 1577 002a 9B02     		lsl	r3, r3, #10
 1578 002c 1840     		and	r0, r3
1002:Generated_Source\PSoC4/CyDMA.c **** }
 1579              		.loc 1 1002 0
 1580              		@ sp needed
 1581 002e 38BD     		pop	{r3, r4, r5, pc}
 1582              	.L145:
 1583              		.align	2
 1584              	.L144:
 1585 0030 00181040 		.word	1074796544
 1586              		.cfi_endproc
 1587              	.LFE34:
 1588              		.size	CyDmaGetDataElementSize, .-CyDmaGetDataElementSize
 1589              		.section	.text.CyDmaSetNumDataElements,"ax",%progbits
 1590              		.align	2
 1591              		.global	CyDmaSetNumDataElements
 1592              		.code	16
 1593              		.thumb_func
 1594              		.type	CyDmaSetNumDataElements, %function
 1595              	CyDmaSetNumDataElements:
 1596              	.LFB35:
1003:Generated_Source\PSoC4/CyDMA.c **** 
1004:Generated_Source\PSoC4/CyDMA.c **** 
1005:Generated_Source\PSoC4/CyDMA.c **** /*******************************************************************************
1006:Generated_Source\PSoC4/CyDMA.c **** * Function Name: CyDmaSetNumDataElements
1007:Generated_Source\PSoC4/CyDMA.c **** ********************************************************************************
1008:Generated_Source\PSoC4/CyDMA.c **** *
1009:Generated_Source\PSoC4/CyDMA.c **** * Summary:
1010:Generated_Source\PSoC4/CyDMA.c **** *  Sets the number of data elements to transfer for specified descriptor.
1011:Generated_Source\PSoC4/CyDMA.c **** *
1012:Generated_Source\PSoC4/CyDMA.c **** * Parameters:
1013:Generated_Source\PSoC4/CyDMA.c **** *  channel:         Channel used by this function.
1014:Generated_Source\PSoC4/CyDMA.c **** *  descriptor:      Descriptor (0 or 1) modified by this function.
1015:Generated_Source\PSoC4/CyDMA.c **** *  numDataElements: Total number of data elements this descriptor transfers.
1016:Generated_Source\PSoC4/CyDMA.c **** *                   Valid ranges are 1 to 65536.
1017:Generated_Source\PSoC4/CyDMA.c **** *                   
1018:Generated_Source\PSoC4/CyDMA.c **** * Return:
1019:Generated_Source\PSoC4/CyDMA.c **** *  None.
1020:Generated_Source\PSoC4/CyDMA.c **** *
1021:Generated_Source\PSoC4/CyDMA.c **** * Side effect:
1022:Generated_Source\PSoC4/CyDMA.c **** *  This function should not be called when the specified descriptor is active
1023:Generated_Source\PSoC4/CyDMA.c **** *  in the DMA transfer engine. This can be checked by calling CyDmaGetStatus(). 
1024:Generated_Source\PSoC4/CyDMA.c **** *
1025:Generated_Source\PSoC4/CyDMA.c **** *******************************************************************************/
ARM GAS  C:\Users\Greg\AppData\Local\Temp\ccTXpTtu.s 			page 48


1026:Generated_Source\PSoC4/CyDMA.c **** void CyDmaSetNumDataElements(int32 channel, int32 descriptor, int32 numDataElements)
1027:Generated_Source\PSoC4/CyDMA.c **** {
 1597              		.loc 1 1027 0
 1598              		.cfi_startproc
 1599              	.LVL145:
 1600 0000 70B5     		push	{r4, r5, r6, lr}
 1601              		.cfi_def_cfa_offset 16
 1602              		.cfi_offset 4, -16
 1603              		.cfi_offset 5, -12
 1604              		.cfi_offset 6, -8
 1605              		.cfi_offset 14, -4
 1606 0002 061C     		mov	r6, r0
 1607 0004 0C1C     		mov	r4, r1
 1608 0006 151C     		mov	r5, r2
1028:Generated_Source\PSoC4/CyDMA.c ****     uint32 regValue;
1029:Generated_Source\PSoC4/CyDMA.c ****     
1030:Generated_Source\PSoC4/CyDMA.c ****     CYASSERT((channel        >= 0) && (channel         <  CYDMA_CH_NR));
 1609              		.loc 1 1030 0
 1610 0008 0728     		cmp	r0, #7
 1611 000a 02D9     		bls	.L147
 1612              		.loc 1 1030 0 is_stmt 0 discriminator 1
 1613 000c 0020     		mov	r0, #0
 1614              	.LVL146:
 1615 000e FFF7FEFF 		bl	CyHalt
 1616              	.LVL147:
 1617              	.L147:
1031:Generated_Source\PSoC4/CyDMA.c ****     CYASSERT((descriptor     >= 0) && (descriptor      <  CYDMA_DESCR_NR));
 1618              		.loc 1 1031 0 is_stmt 1
 1619 0012 012C     		cmp	r4, #1
 1620 0014 02D9     		bls	.L148
 1621              		.loc 1 1031 0 is_stmt 0 discriminator 1
 1622 0016 0020     		mov	r0, #0
 1623 0018 FFF7FEFF 		bl	CyHalt
 1624              	.LVL148:
 1625              	.L148:
1032:Generated_Source\PSoC4/CyDMA.c ****     CYASSERT((numDataElements > 0) && (numDataElements <= CYDMA_MAX_DATA_NR));
 1626              		.loc 1 1032 0 is_stmt 1
 1627 001c 6B1E     		sub	r3, r5, #1
 1628 001e 094A     		ldr	r2, .L150
 1629 0020 9342     		cmp	r3, r2
 1630 0022 02D9     		bls	.L149
 1631              		.loc 1 1032 0 is_stmt 0 discriminator 1
 1632 0024 0020     		mov	r0, #0
 1633 0026 FFF7FEFF 		bl	CyHalt
 1634              	.LVL149:
 1635              	.L149:
1033:Generated_Source\PSoC4/CyDMA.c ****     
1034:Generated_Source\PSoC4/CyDMA.c ****     --numDataElements;
 1636              		.loc 1 1034 0 is_stmt 1
 1637 002a 6B1E     		sub	r3, r5, #1
 1638              	.LVL150:
1035:Generated_Source\PSoC4/CyDMA.c ****     regValue = CYDMA_DESCR_BASE.descriptor[channel][descriptor].ctl & (uint32)~CYDMA_DATA_NR;
 1639              		.loc 1 1035 0
 1640 002c 7600     		lsl	r6, r6, #1
 1641              	.LVL151:
 1642 002e 3419     		add	r4, r6, r4
 1643              	.LVL152:
ARM GAS  C:\Users\Greg\AppData\Local\Temp\ccTXpTtu.s 			page 49


 1644 0030 2401     		lsl	r4, r4, #4
 1645 0032 054A     		ldr	r2, .L150+4
 1646 0034 9446     		mov	ip, r2
 1647 0036 6444     		add	r4, r4, ip
 1648 0038 A568     		ldr	r5, [r4, #8]
 1649 003a 2D0C     		lsr	r5, r5, #16
 1650 003c 2D04     		lsl	r5, r5, #16
 1651              	.LVL153:
1036:Generated_Source\PSoC4/CyDMA.c ****     CYDMA_DESCR_BASE.descriptor[channel][descriptor].ctl = regValue | (uint32)numDataElements;
 1652              		.loc 1 1036 0
 1653 003e 1D43     		orr	r5, r3
 1654              	.LVL154:
 1655 0040 A560     		str	r5, [r4, #8]
1037:Generated_Source\PSoC4/CyDMA.c **** }
 1656              		.loc 1 1037 0
 1657              		@ sp needed
 1658 0042 70BD     		pop	{r4, r5, r6, pc}
 1659              	.L151:
 1660              		.align	2
 1661              	.L150:
 1662 0044 FFFF0000 		.word	65535
 1663 0048 00181040 		.word	1074796544
 1664              		.cfi_endproc
 1665              	.LFE35:
 1666              		.size	CyDmaSetNumDataElements, .-CyDmaSetNumDataElements
 1667              		.section	.text.CyDmaGetNumDataElements,"ax",%progbits
 1668              		.align	2
 1669              		.global	CyDmaGetNumDataElements
 1670              		.code	16
 1671              		.thumb_func
 1672              		.type	CyDmaGetNumDataElements, %function
 1673              	CyDmaGetNumDataElements:
 1674              	.LFB36:
1038:Generated_Source\PSoC4/CyDMA.c **** 
1039:Generated_Source\PSoC4/CyDMA.c **** 
1040:Generated_Source\PSoC4/CyDMA.c **** /*******************************************************************************
1041:Generated_Source\PSoC4/CyDMA.c **** * Function Name: CyDmaGetNumDataElements
1042:Generated_Source\PSoC4/CyDMA.c **** ********************************************************************************
1043:Generated_Source\PSoC4/CyDMA.c **** *
1044:Generated_Source\PSoC4/CyDMA.c **** * Summary:
1045:Generated_Source\PSoC4/CyDMA.c **** *  Returns the number of data elements to be transferred. Only reflects the
1046:Generated_Source\PSoC4/CyDMA.c **** *  value written by CyDmaSetNumDataElements() or CyDmaSetConfiguration(). This
1047:Generated_Source\PSoC4/CyDMA.c **** *  does not reflect how many elements have been transferred. For that
1048:Generated_Source\PSoC4/CyDMA.c **** *  information use the CyDmaGetDescriptorStatus() function.
1049:Generated_Source\PSoC4/CyDMA.c **** *
1050:Generated_Source\PSoC4/CyDMA.c **** * Parameters:
1051:Generated_Source\PSoC4/CyDMA.c **** *  channel:    Channel used by this function.
1052:Generated_Source\PSoC4/CyDMA.c **** *  descriptor: Descriptor (0 or 1) modified by this function.
1053:Generated_Source\PSoC4/CyDMA.c **** *                   
1054:Generated_Source\PSoC4/CyDMA.c **** * Return:
1055:Generated_Source\PSoC4/CyDMA.c **** *  Number of data elements to transfer.
1056:Generated_Source\PSoC4/CyDMA.c **** *
1057:Generated_Source\PSoC4/CyDMA.c **** *******************************************************************************/
1058:Generated_Source\PSoC4/CyDMA.c **** int32 CyDmaGetNumDataElements(int32 channel, int32 descriptor)
1059:Generated_Source\PSoC4/CyDMA.c **** {
 1675              		.loc 1 1059 0
 1676              		.cfi_startproc
ARM GAS  C:\Users\Greg\AppData\Local\Temp\ccTXpTtu.s 			page 50


 1677              	.LVL155:
 1678 0000 38B5     		push	{r3, r4, r5, lr}
 1679              		.cfi_def_cfa_offset 16
 1680              		.cfi_offset 3, -16
 1681              		.cfi_offset 4, -12
 1682              		.cfi_offset 5, -8
 1683              		.cfi_offset 14, -4
 1684 0002 051C     		mov	r5, r0
 1685 0004 0C1C     		mov	r4, r1
1060:Generated_Source\PSoC4/CyDMA.c ****     uint32 numElements;
1061:Generated_Source\PSoC4/CyDMA.c **** 
1062:Generated_Source\PSoC4/CyDMA.c ****     CYASSERT((channel    >= 0) && (channel    < CYDMA_CH_NR));
 1686              		.loc 1 1062 0
 1687 0006 0728     		cmp	r0, #7
 1688 0008 02D9     		bls	.L153
 1689              		.loc 1 1062 0 is_stmt 0 discriminator 1
 1690 000a 0020     		mov	r0, #0
 1691              	.LVL156:
 1692 000c FFF7FEFF 		bl	CyHalt
 1693              	.LVL157:
 1694              	.L153:
1063:Generated_Source\PSoC4/CyDMA.c ****     CYASSERT((descriptor >= 0) && (descriptor < CYDMA_DESCR_NR));
 1695              		.loc 1 1063 0 is_stmt 1
 1696 0010 012C     		cmp	r4, #1
 1697 0012 02D9     		bls	.L154
 1698              		.loc 1 1063 0 is_stmt 0 discriminator 1
 1699 0014 0020     		mov	r0, #0
 1700 0016 FFF7FEFF 		bl	CyHalt
 1701              	.LVL158:
 1702              	.L154:
1064:Generated_Source\PSoC4/CyDMA.c ****     
1065:Generated_Source\PSoC4/CyDMA.c ****     numElements = (CYDMA_DESCR_BASE.descriptor[channel][descriptor].ctl & CYDMA_DATA_NR) + 1u;
 1703              		.loc 1 1065 0 is_stmt 1
 1704 001a 6D00     		lsl	r5, r5, #1
 1705              	.LVL159:
 1706 001c 2C19     		add	r4, r5, r4
 1707              	.LVL160:
 1708 001e 2401     		lsl	r4, r4, #4
 1709 0020 034B     		ldr	r3, .L155
 1710 0022 9C46     		mov	ip, r3
 1711 0024 6444     		add	r4, r4, ip
 1712 0026 A068     		ldr	r0, [r4, #8]
 1713 0028 0004     		lsl	r0, r0, #16
 1714 002a 000C     		lsr	r0, r0, #16
 1715 002c 0130     		add	r0, r0, #1
 1716              	.LVL161:
1066:Generated_Source\PSoC4/CyDMA.c ****     return ((int32)numElements);
1067:Generated_Source\PSoC4/CyDMA.c **** }
 1717              		.loc 1 1067 0
 1718              		@ sp needed
 1719 002e 38BD     		pop	{r3, r4, r5, pc}
 1720              	.L156:
 1721              		.align	2
 1722              	.L155:
 1723 0030 00181040 		.word	1074796544
 1724              		.cfi_endproc
 1725              	.LFE36:
ARM GAS  C:\Users\Greg\AppData\Local\Temp\ccTXpTtu.s 			page 51


 1726              		.size	CyDmaGetNumDataElements, .-CyDmaGetNumDataElements
 1727              		.section	.text.CyDmaSetSrcDstTransferWidth,"ax",%progbits
 1728              		.align	2
 1729              		.global	CyDmaSetSrcDstTransferWidth
 1730              		.code	16
 1731              		.thumb_func
 1732              		.type	CyDmaSetSrcDstTransferWidth, %function
 1733              	CyDmaSetSrcDstTransferWidth:
 1734              	.LFB37:
1068:Generated_Source\PSoC4/CyDMA.c **** 
1069:Generated_Source\PSoC4/CyDMA.c **** 
1070:Generated_Source\PSoC4/CyDMA.c **** /*******************************************************************************
1071:Generated_Source\PSoC4/CyDMA.c **** * Function Name: CyDmaSetSrcDstTransferWidth
1072:Generated_Source\PSoC4/CyDMA.c **** ********************************************************************************
1073:Generated_Source\PSoC4/CyDMA.c **** *
1074:Generated_Source\PSoC4/CyDMA.c **** * Summary:
1075:Generated_Source\PSoC4/CyDMA.c **** *  Sets the width of the source and destination. The DMA can either read and
1076:Generated_Source\PSoC4/CyDMA.c **** *  write data from the source and destination at the size specified by
1077:Generated_Source\PSoC4/CyDMA.c **** *  CyDmaSetDataElementSize() or by a word (4bytes). This also determines how
1078:Generated_Source\PSoC4/CyDMA.c **** *  many bytes the addresses are incremented if increment source and destination
1079:Generated_Source\PSoC4/CyDMA.c **** *  address are turned on.
1080:Generated_Source\PSoC4/CyDMA.c **** *
1081:Generated_Source\PSoC4/CyDMA.c **** * Parameters:
1082:Generated_Source\PSoC4/CyDMA.c **** *  channel:       Channel used by this function.
1083:Generated_Source\PSoC4/CyDMA.c **** *  descriptor:    Descriptor (0 or 1) modified by this function.
1084:Generated_Source\PSoC4/CyDMA.c **** *  transferWidth: Specifies the source and destination widths. Refer to 
1085:Generated_Source\PSoC4/CyDMA.c **** *                 the API bit field definitions in CyDMA_P4.h or the API
1086:Generated_Source\PSoC4/CyDMA.c **** *                 description in the DMA channel datasheet for the parameter
1087:Generated_Source\PSoC4/CyDMA.c **** *                 options.
1088:Generated_Source\PSoC4/CyDMA.c **** *                   
1089:Generated_Source\PSoC4/CyDMA.c **** * Return:
1090:Generated_Source\PSoC4/CyDMA.c **** *  None.
1091:Generated_Source\PSoC4/CyDMA.c **** *
1092:Generated_Source\PSoC4/CyDMA.c **** * Side effect:
1093:Generated_Source\PSoC4/CyDMA.c **** *  This function should not be called when the specified descriptor is active
1094:Generated_Source\PSoC4/CyDMA.c **** *  in the DMA transfer engine. This can be checked by calling CyDmaGetStatus(). 
1095:Generated_Source\PSoC4/CyDMA.c **** *
1096:Generated_Source\PSoC4/CyDMA.c **** *******************************************************************************/
1097:Generated_Source\PSoC4/CyDMA.c **** void CyDmaSetSrcDstTransferWidth(int32 channel, int32 descriptor, uint32 transferWidth)
1098:Generated_Source\PSoC4/CyDMA.c **** {
 1735              		.loc 1 1098 0
 1736              		.cfi_startproc
 1737              	.LVL162:
 1738 0000 70B5     		push	{r4, r5, r6, lr}
 1739              		.cfi_def_cfa_offset 16
 1740              		.cfi_offset 4, -16
 1741              		.cfi_offset 5, -12
 1742              		.cfi_offset 6, -8
 1743              		.cfi_offset 14, -4
 1744 0002 061C     		mov	r6, r0
 1745 0004 0C1C     		mov	r4, r1
 1746 0006 151C     		mov	r5, r2
1099:Generated_Source\PSoC4/CyDMA.c ****     uint32 regValue;
1100:Generated_Source\PSoC4/CyDMA.c **** 
1101:Generated_Source\PSoC4/CyDMA.c ****     CYASSERT((channel    >= 0) && (channel    < CYDMA_CH_NR));
 1747              		.loc 1 1101 0
 1748 0008 0728     		cmp	r0, #7
ARM GAS  C:\Users\Greg\AppData\Local\Temp\ccTXpTtu.s 			page 52


 1749 000a 02D9     		bls	.L158
 1750              		.loc 1 1101 0 is_stmt 0 discriminator 1
 1751 000c 0020     		mov	r0, #0
 1752              	.LVL163:
 1753 000e FFF7FEFF 		bl	CyHalt
 1754              	.LVL164:
 1755              	.L158:
1102:Generated_Source\PSoC4/CyDMA.c ****     CYASSERT((descriptor >= 0) && (descriptor < CYDMA_DESCR_NR));
 1756              		.loc 1 1102 0 is_stmt 1
 1757 0012 012C     		cmp	r4, #1
 1758 0014 02D9     		bls	.L159
 1759              		.loc 1 1102 0 is_stmt 0 discriminator 1
 1760 0016 0020     		mov	r0, #0
 1761 0018 FFF7FEFF 		bl	CyHalt
 1762              	.LVL165:
 1763              	.L159:
1103:Generated_Source\PSoC4/CyDMA.c ****     CYASSERT(0u == (transferWidth & (uint32)~CYDMA_TRANSFER_WIDTH));
 1764              		.loc 1 1103 0 is_stmt 1
 1765 001c 084B     		ldr	r3, .L161
 1766 001e 1D42     		tst	r5, r3
 1767 0020 02D0     		beq	.L160
 1768              		.loc 1 1103 0 is_stmt 0 discriminator 1
 1769 0022 0020     		mov	r0, #0
 1770 0024 FFF7FEFF 		bl	CyHalt
 1771              	.LVL166:
 1772              	.L160:
1104:Generated_Source\PSoC4/CyDMA.c **** 
1105:Generated_Source\PSoC4/CyDMA.c ****     regValue = CYDMA_DESCR_BASE.descriptor[channel][descriptor].ctl & (uint32)~CYDMA_TRANSFER_WIDTH
 1773              		.loc 1 1105 0 is_stmt 1
 1774 0028 7600     		lsl	r6, r6, #1
 1775              	.LVL167:
 1776 002a 3419     		add	r4, r6, r4
 1777              	.LVL168:
 1778 002c 2401     		lsl	r4, r4, #4
 1779 002e 054B     		ldr	r3, .L161+4
 1780 0030 9C46     		mov	ip, r3
 1781 0032 6444     		add	r4, r4, ip
 1782 0034 A268     		ldr	r2, [r4, #8]
 1783 0036 024B     		ldr	r3, .L161
 1784 0038 1340     		and	r3, r2
 1785              	.LVL169:
1106:Generated_Source\PSoC4/CyDMA.c ****     CYDMA_DESCR_BASE.descriptor[channel][descriptor].ctl = regValue | transferWidth;
 1786              		.loc 1 1106 0
 1787 003a 1D43     		orr	r5, r3
 1788              	.LVL170:
 1789 003c A560     		str	r5, [r4, #8]
1107:Generated_Source\PSoC4/CyDMA.c **** }
 1790              		.loc 1 1107 0
 1791              		@ sp needed
 1792 003e 70BD     		pop	{r4, r5, r6, pc}
 1793              	.L162:
 1794              		.align	2
 1795              	.L161:
 1796 0040 FFFFAFFF 		.word	-5242881
 1797 0044 00181040 		.word	1074796544
 1798              		.cfi_endproc
 1799              	.LFE37:
ARM GAS  C:\Users\Greg\AppData\Local\Temp\ccTXpTtu.s 			page 53


 1800              		.size	CyDmaSetSrcDstTransferWidth, .-CyDmaSetSrcDstTransferWidth
 1801              		.section	.text.CyDmaGetSrcDstTransferWidth,"ax",%progbits
 1802              		.align	2
 1803              		.global	CyDmaGetSrcDstTransferWidth
 1804              		.code	16
 1805              		.thumb_func
 1806              		.type	CyDmaGetSrcDstTransferWidth, %function
 1807              	CyDmaGetSrcDstTransferWidth:
 1808              	.LFB38:
1108:Generated_Source\PSoC4/CyDMA.c **** 
1109:Generated_Source\PSoC4/CyDMA.c **** 
1110:Generated_Source\PSoC4/CyDMA.c **** /*******************************************************************************
1111:Generated_Source\PSoC4/CyDMA.c **** * Function Name: CyDmaGetSrcDstTransferWidth
1112:Generated_Source\PSoC4/CyDMA.c **** ********************************************************************************
1113:Generated_Source\PSoC4/CyDMA.c **** *
1114:Generated_Source\PSoC4/CyDMA.c **** * Summary:
1115:Generated_Source\PSoC4/CyDMA.c **** *  Returns the width of the source and destination, as set by 
1116:Generated_Source\PSoC4/CyDMA.c **** *  CyDmaSetSrcDstTransferWidth() or CyDmaSetConfiguration().
1117:Generated_Source\PSoC4/CyDMA.c **** *
1118:Generated_Source\PSoC4/CyDMA.c **** * Parameters:
1119:Generated_Source\PSoC4/CyDMA.c **** *  channel:    Channel used by this function.
1120:Generated_Source\PSoC4/CyDMA.c **** *  descriptor: Descriptor (0 or 1) modified by this function.
1121:Generated_Source\PSoC4/CyDMA.c **** *                   
1122:Generated_Source\PSoC4/CyDMA.c **** * Return:
1123:Generated_Source\PSoC4/CyDMA.c **** *  Width of source and destination. Refer to the API bit field definitions in
1124:Generated_Source\PSoC4/CyDMA.c **** *  CyDMA_P4.h or the API description in the DMA channel datasheet for more
1125:Generated_Source\PSoC4/CyDMA.c **** *  information.
1126:Generated_Source\PSoC4/CyDMA.c **** *
1127:Generated_Source\PSoC4/CyDMA.c **** *******************************************************************************/
1128:Generated_Source\PSoC4/CyDMA.c **** uint32 CyDmaGetSrcDstTransferWidth(int32 channel, int32 descriptor)
1129:Generated_Source\PSoC4/CyDMA.c **** {
 1809              		.loc 1 1129 0
 1810              		.cfi_startproc
 1811              	.LVL171:
 1812 0000 38B5     		push	{r3, r4, r5, lr}
 1813              		.cfi_def_cfa_offset 16
 1814              		.cfi_offset 3, -16
 1815              		.cfi_offset 4, -12
 1816              		.cfi_offset 5, -8
 1817              		.cfi_offset 14, -4
 1818 0002 051C     		mov	r5, r0
 1819 0004 0C1C     		mov	r4, r1
1130:Generated_Source\PSoC4/CyDMA.c ****     CYASSERT((channel    >= 0) && (channel    < CYDMA_CH_NR));
 1820              		.loc 1 1130 0
 1821 0006 0728     		cmp	r0, #7
 1822 0008 02D9     		bls	.L164
 1823              		.loc 1 1130 0 is_stmt 0 discriminator 1
 1824 000a 0020     		mov	r0, #0
 1825              	.LVL172:
 1826 000c FFF7FEFF 		bl	CyHalt
 1827              	.LVL173:
 1828              	.L164:
1131:Generated_Source\PSoC4/CyDMA.c ****     CYASSERT((descriptor >= 0) && (descriptor < CYDMA_DESCR_NR));
 1829              		.loc 1 1131 0 is_stmt 1
 1830 0010 012C     		cmp	r4, #1
 1831 0012 02D9     		bls	.L165
 1832              		.loc 1 1131 0 is_stmt 0 discriminator 1
ARM GAS  C:\Users\Greg\AppData\Local\Temp\ccTXpTtu.s 			page 54


 1833 0014 0020     		mov	r0, #0
 1834 0016 FFF7FEFF 		bl	CyHalt
 1835              	.LVL174:
 1836              	.L165:
1132:Generated_Source\PSoC4/CyDMA.c ****     return (CYDMA_DESCR_BASE.descriptor[channel][descriptor].ctl & CYDMA_TRANSFER_WIDTH);
 1837              		.loc 1 1132 0 is_stmt 1
 1838 001a 6D00     		lsl	r5, r5, #1
 1839              	.LVL175:
 1840 001c 2C19     		add	r4, r5, r4
 1841              	.LVL176:
 1842 001e 2401     		lsl	r4, r4, #4
 1843 0020 034B     		ldr	r3, .L166
 1844 0022 9C46     		mov	ip, r3
 1845 0024 6444     		add	r4, r4, ip
 1846 0026 A068     		ldr	r0, [r4, #8]
 1847 0028 A023     		mov	r3, #160
 1848 002a DB03     		lsl	r3, r3, #15
 1849 002c 1840     		and	r0, r3
1133:Generated_Source\PSoC4/CyDMA.c **** }
 1850              		.loc 1 1133 0
 1851              		@ sp needed
 1852 002e 38BD     		pop	{r3, r4, r5, pc}
 1853              	.L167:
 1854              		.align	2
 1855              	.L166:
 1856 0030 00181040 		.word	1074796544
 1857              		.cfi_endproc
 1858              	.LFE38:
 1859              		.size	CyDmaGetSrcDstTransferWidth, .-CyDmaGetSrcDstTransferWidth
 1860              		.section	.text.CyDmaSetAddressIncrement,"ax",%progbits
 1861              		.align	2
 1862              		.global	CyDmaSetAddressIncrement
 1863              		.code	16
 1864              		.thumb_func
 1865              		.type	CyDmaSetAddressIncrement, %function
 1866              	CyDmaSetAddressIncrement:
 1867              	.LFB39:
1134:Generated_Source\PSoC4/CyDMA.c **** 
1135:Generated_Source\PSoC4/CyDMA.c **** 
1136:Generated_Source\PSoC4/CyDMA.c **** /*******************************************************************************
1137:Generated_Source\PSoC4/CyDMA.c **** * Function Name: CyDmaSetAddressIncrement
1138:Generated_Source\PSoC4/CyDMA.c **** ********************************************************************************
1139:Generated_Source\PSoC4/CyDMA.c **** *
1140:Generated_Source\PSoC4/CyDMA.c **** * Summary:
1141:Generated_Source\PSoC4/CyDMA.c **** *  Sets whether the source or destination addresses are incremented after the
1142:Generated_Source\PSoC4/CyDMA.c **** *  transfer of each data element. The amount that the source and destination
1143:Generated_Source\PSoC4/CyDMA.c **** *  address are incremented is determined by the CyDmaSetSrcDstTransferWidth()
1144:Generated_Source\PSoC4/CyDMA.c **** *  function. The addresses will either be incremented by the data element size
1145:Generated_Source\PSoC4/CyDMA.c **** *  or by a word (4 bytes).
1146:Generated_Source\PSoC4/CyDMA.c **** *
1147:Generated_Source\PSoC4/CyDMA.c **** * Parameters:
1148:Generated_Source\PSoC4/CyDMA.c **** *  channel:          Channel used by this function.
1149:Generated_Source\PSoC4/CyDMA.c **** *  descriptor:       Descriptor (0 or 1) modified by this function.
1150:Generated_Source\PSoC4/CyDMA.c **** *  addressIncrement: Address increment settings. Refer to the API bit fields 
1151:Generated_Source\PSoC4/CyDMA.c **** *                    definition in CyDMA_P4.h or the API description in the DMA
1152:Generated_Source\PSoC4/CyDMA.c **** *                    channel datasheet for the parameter options.
1153:Generated_Source\PSoC4/CyDMA.c **** *    
ARM GAS  C:\Users\Greg\AppData\Local\Temp\ccTXpTtu.s 			page 55


1154:Generated_Source\PSoC4/CyDMA.c **** * Return:
1155:Generated_Source\PSoC4/CyDMA.c **** *  None.
1156:Generated_Source\PSoC4/CyDMA.c **** *
1157:Generated_Source\PSoC4/CyDMA.c **** * Side effect:
1158:Generated_Source\PSoC4/CyDMA.c **** *  This function should not be called when the specified descriptor is active
1159:Generated_Source\PSoC4/CyDMA.c **** *  in the DMA transfer engine. This can be checked by calling CyDmaGetStatus(). 
1160:Generated_Source\PSoC4/CyDMA.c **** *
1161:Generated_Source\PSoC4/CyDMA.c **** *******************************************************************************/
1162:Generated_Source\PSoC4/CyDMA.c **** void CyDmaSetAddressIncrement(int32 channel, int32 descriptor, uint32 addressIncrement)
1163:Generated_Source\PSoC4/CyDMA.c **** {
 1868              		.loc 1 1163 0
 1869              		.cfi_startproc
 1870              	.LVL177:
 1871 0000 70B5     		push	{r4, r5, r6, lr}
 1872              		.cfi_def_cfa_offset 16
 1873              		.cfi_offset 4, -16
 1874              		.cfi_offset 5, -12
 1875              		.cfi_offset 6, -8
 1876              		.cfi_offset 14, -4
 1877 0002 061C     		mov	r6, r0
 1878 0004 0C1C     		mov	r4, r1
 1879 0006 151C     		mov	r5, r2
1164:Generated_Source\PSoC4/CyDMA.c ****     uint32 regValue;
1165:Generated_Source\PSoC4/CyDMA.c **** 
1166:Generated_Source\PSoC4/CyDMA.c ****     CYASSERT((channel    >= 0) && (channel    < CYDMA_CH_NR));
 1880              		.loc 1 1166 0
 1881 0008 0728     		cmp	r0, #7
 1882 000a 02D9     		bls	.L169
 1883              		.loc 1 1166 0 is_stmt 0 discriminator 1
 1884 000c 0020     		mov	r0, #0
 1885              	.LVL178:
 1886 000e FFF7FEFF 		bl	CyHalt
 1887              	.LVL179:
 1888              	.L169:
1167:Generated_Source\PSoC4/CyDMA.c ****     CYASSERT((descriptor >= 0) && (descriptor < CYDMA_DESCR_NR));
 1889              		.loc 1 1167 0 is_stmt 1
 1890 0012 012C     		cmp	r4, #1
 1891 0014 02D9     		bls	.L170
 1892              		.loc 1 1167 0 is_stmt 0 discriminator 1
 1893 0016 0020     		mov	r0, #0
 1894 0018 FFF7FEFF 		bl	CyHalt
 1895              	.LVL180:
 1896              	.L170:
1168:Generated_Source\PSoC4/CyDMA.c ****     CYASSERT(0u == (addressIncrement & (uint32)~CYDMA_ADDR_INCR));
 1897              		.loc 1 1168 0 is_stmt 1
 1898 001c 084B     		ldr	r3, .L172
 1899 001e 1D42     		tst	r5, r3
 1900 0020 02D0     		beq	.L171
 1901              		.loc 1 1168 0 is_stmt 0 discriminator 1
 1902 0022 0020     		mov	r0, #0
 1903 0024 FFF7FEFF 		bl	CyHalt
 1904              	.LVL181:
 1905              	.L171:
1169:Generated_Source\PSoC4/CyDMA.c **** 
1170:Generated_Source\PSoC4/CyDMA.c ****     regValue = CYDMA_DESCR_BASE.descriptor[channel][descriptor].ctl & (uint32)~CYDMA_ADDR_INCR;
 1906              		.loc 1 1170 0 is_stmt 1
 1907 0028 7600     		lsl	r6, r6, #1
ARM GAS  C:\Users\Greg\AppData\Local\Temp\ccTXpTtu.s 			page 56


 1908              	.LVL182:
 1909 002a 3419     		add	r4, r6, r4
 1910              	.LVL183:
 1911 002c 2401     		lsl	r4, r4, #4
 1912 002e 054B     		ldr	r3, .L172+4
 1913 0030 9C46     		mov	ip, r3
 1914 0032 6444     		add	r4, r4, ip
 1915 0034 A268     		ldr	r2, [r4, #8]
 1916 0036 024B     		ldr	r3, .L172
 1917 0038 1340     		and	r3, r2
 1918              	.LVL184:
1171:Generated_Source\PSoC4/CyDMA.c ****     CYDMA_DESCR_BASE.descriptor[channel][descriptor].ctl = regValue | addressIncrement;
 1919              		.loc 1 1171 0
 1920 003a 1D43     		orr	r5, r3
 1921              	.LVL185:
 1922 003c A560     		str	r5, [r4, #8]
1172:Generated_Source\PSoC4/CyDMA.c **** }
 1923              		.loc 1 1172 0
 1924              		@ sp needed
 1925 003e 70BD     		pop	{r4, r5, r6, pc}
 1926              	.L173:
 1927              		.align	2
 1928              	.L172:
 1929 0040 FFFF5FFF 		.word	-10485761
 1930 0044 00181040 		.word	1074796544
 1931              		.cfi_endproc
 1932              	.LFE39:
 1933              		.size	CyDmaSetAddressIncrement, .-CyDmaSetAddressIncrement
 1934              		.section	.text.CyDmaGetAddressIncrement,"ax",%progbits
 1935              		.align	2
 1936              		.global	CyDmaGetAddressIncrement
 1937              		.code	16
 1938              		.thumb_func
 1939              		.type	CyDmaGetAddressIncrement, %function
 1940              	CyDmaGetAddressIncrement:
 1941              	.LFB40:
1173:Generated_Source\PSoC4/CyDMA.c **** 
1174:Generated_Source\PSoC4/CyDMA.c **** 
1175:Generated_Source\PSoC4/CyDMA.c **** /*******************************************************************************
1176:Generated_Source\PSoC4/CyDMA.c **** * Function Name: CyDmaGetAddressIncrement
1177:Generated_Source\PSoC4/CyDMA.c **** ********************************************************************************
1178:Generated_Source\PSoC4/CyDMA.c **** *
1179:Generated_Source\PSoC4/CyDMA.c **** * Summary:
1180:Generated_Source\PSoC4/CyDMA.c **** *  Returns address increment settings as set by CyDmaSetAddressIncrement() or
1181:Generated_Source\PSoC4/CyDMA.c **** *  CyDmaSetConfiguration().
1182:Generated_Source\PSoC4/CyDMA.c **** *
1183:Generated_Source\PSoC4/CyDMA.c **** * Parameters:
1184:Generated_Source\PSoC4/CyDMA.c **** *  channel:    Channel used by this function.
1185:Generated_Source\PSoC4/CyDMA.c **** *  descriptor: Descriptor (0 or 1) modified by this function.
1186:Generated_Source\PSoC4/CyDMA.c **** *                   
1187:Generated_Source\PSoC4/CyDMA.c **** * Return:
1188:Generated_Source\PSoC4/CyDMA.c **** *  Address increment settings. Refer to the API bit field definitions in
1189:Generated_Source\PSoC4/CyDMA.c **** *  CyDMA_P4.h or the API description in the DMA channel datasheet for more
1190:Generated_Source\PSoC4/CyDMA.c **** *  information.
1191:Generated_Source\PSoC4/CyDMA.c **** *
1192:Generated_Source\PSoC4/CyDMA.c **** *******************************************************************************/
1193:Generated_Source\PSoC4/CyDMA.c **** uint32 CyDmaGetAddressIncrement(int32 channel, int32 descriptor)
ARM GAS  C:\Users\Greg\AppData\Local\Temp\ccTXpTtu.s 			page 57


1194:Generated_Source\PSoC4/CyDMA.c **** {
 1942              		.loc 1 1194 0
 1943              		.cfi_startproc
 1944              	.LVL186:
 1945 0000 38B5     		push	{r3, r4, r5, lr}
 1946              		.cfi_def_cfa_offset 16
 1947              		.cfi_offset 3, -16
 1948              		.cfi_offset 4, -12
 1949              		.cfi_offset 5, -8
 1950              		.cfi_offset 14, -4
 1951 0002 051C     		mov	r5, r0
 1952 0004 0C1C     		mov	r4, r1
1195:Generated_Source\PSoC4/CyDMA.c ****     CYASSERT((channel    >= 0) && (channel    < CYDMA_CH_NR));
 1953              		.loc 1 1195 0
 1954 0006 0728     		cmp	r0, #7
 1955 0008 02D9     		bls	.L175
 1956              		.loc 1 1195 0 is_stmt 0 discriminator 1
 1957 000a 0020     		mov	r0, #0
 1958              	.LVL187:
 1959 000c FFF7FEFF 		bl	CyHalt
 1960              	.LVL188:
 1961              	.L175:
1196:Generated_Source\PSoC4/CyDMA.c ****     CYASSERT((descriptor >= 0) && (descriptor < CYDMA_DESCR_NR));
 1962              		.loc 1 1196 0 is_stmt 1
 1963 0010 012C     		cmp	r4, #1
 1964 0012 02D9     		bls	.L176
 1965              		.loc 1 1196 0 is_stmt 0 discriminator 1
 1966 0014 0020     		mov	r0, #0
 1967 0016 FFF7FEFF 		bl	CyHalt
 1968              	.LVL189:
 1969              	.L176:
1197:Generated_Source\PSoC4/CyDMA.c **** 
1198:Generated_Source\PSoC4/CyDMA.c ****     return (CYDMA_DESCR_BASE.descriptor[channel][descriptor].ctl & CYDMA_ADDR_INCR);
 1970              		.loc 1 1198 0 is_stmt 1
 1971 001a 6D00     		lsl	r5, r5, #1
 1972              	.LVL190:
 1973 001c 2C19     		add	r4, r5, r4
 1974              	.LVL191:
 1975 001e 2401     		lsl	r4, r4, #4
 1976 0020 034B     		ldr	r3, .L177
 1977 0022 9C46     		mov	ip, r3
 1978 0024 6444     		add	r4, r4, ip
 1979 0026 A068     		ldr	r0, [r4, #8]
 1980 0028 A023     		mov	r3, #160
 1981 002a 1B04     		lsl	r3, r3, #16
 1982 002c 1840     		and	r0, r3
1199:Generated_Source\PSoC4/CyDMA.c **** }
 1983              		.loc 1 1199 0
 1984              		@ sp needed
 1985 002e 38BD     		pop	{r3, r4, r5, pc}
 1986              	.L178:
 1987              		.align	2
 1988              	.L177:
 1989 0030 00181040 		.word	1074796544
 1990              		.cfi_endproc
 1991              	.LFE40:
 1992              		.size	CyDmaGetAddressIncrement, .-CyDmaGetAddressIncrement
ARM GAS  C:\Users\Greg\AppData\Local\Temp\ccTXpTtu.s 			page 58


 1993              		.section	.text.CyDmaSetTriggerType,"ax",%progbits
 1994              		.align	2
 1995              		.global	CyDmaSetTriggerType
 1996              		.code	16
 1997              		.thumb_func
 1998              		.type	CyDmaSetTriggerType, %function
 1999              	CyDmaSetTriggerType:
 2000              	.LFB41:
1200:Generated_Source\PSoC4/CyDMA.c **** 
1201:Generated_Source\PSoC4/CyDMA.c **** 
1202:Generated_Source\PSoC4/CyDMA.c **** /*******************************************************************************
1203:Generated_Source\PSoC4/CyDMA.c **** * Function Name: CyDmaSetTriggerType
1204:Generated_Source\PSoC4/CyDMA.c **** ********************************************************************************
1205:Generated_Source\PSoC4/CyDMA.c **** *
1206:Generated_Source\PSoC4/CyDMA.c **** * Summary:
1207:Generated_Source\PSoC4/CyDMA.c **** *  Sets the type of input trigger for the DMA For level sensitive triggers sets
1208:Generated_Source\PSoC4/CyDMA.c **** *  how long the DMA waits for the trigger to go low (deactivate) before
1209:Generated_Source\PSoC4/CyDMA.c **** *  triggering the channel again.
1210:Generated_Source\PSoC4/CyDMA.c **** *
1211:Generated_Source\PSoC4/CyDMA.c **** * Parameters:
1212:Generated_Source\PSoC4/CyDMA.c **** *  channel:     Channel used by this function.
1213:Generated_Source\PSoC4/CyDMA.c **** *  descriptor:  Descriptor (0 or 1) modified by this function.
1214:Generated_Source\PSoC4/CyDMA.c **** *  triggerType: Type of DMA trigger. Refer to the API bit field definitions
1215:Generated_Source\PSoC4/CyDMA.c **** *               in CyDMA_P4.h or the API description in the DMA channel
1216:Generated_Source\PSoC4/CyDMA.c **** *               datasheet for the parameter options.
1217:Generated_Source\PSoC4/CyDMA.c **** *                   
1218:Generated_Source\PSoC4/CyDMA.c **** * Return:
1219:Generated_Source\PSoC4/CyDMA.c **** *  None.
1220:Generated_Source\PSoC4/CyDMA.c **** *
1221:Generated_Source\PSoC4/CyDMA.c **** * Side effect:
1222:Generated_Source\PSoC4/CyDMA.c **** *  This function should not be called when the specified descriptor is active
1223:Generated_Source\PSoC4/CyDMA.c **** *  in the DMA transfer engine. This can be checked by calling CyDmaGetStatus(). 
1224:Generated_Source\PSoC4/CyDMA.c **** *
1225:Generated_Source\PSoC4/CyDMA.c **** *******************************************************************************/
1226:Generated_Source\PSoC4/CyDMA.c **** void CyDmaSetTriggerType(int32 channel, int32 descriptor, uint32 triggerType)
1227:Generated_Source\PSoC4/CyDMA.c **** {
 2001              		.loc 1 1227 0
 2002              		.cfi_startproc
 2003              	.LVL192:
 2004 0000 70B5     		push	{r4, r5, r6, lr}
 2005              		.cfi_def_cfa_offset 16
 2006              		.cfi_offset 4, -16
 2007              		.cfi_offset 5, -12
 2008              		.cfi_offset 6, -8
 2009              		.cfi_offset 14, -4
 2010 0002 061C     		mov	r6, r0
 2011 0004 0C1C     		mov	r4, r1
 2012 0006 151C     		mov	r5, r2
1228:Generated_Source\PSoC4/CyDMA.c ****     uint32 regValue;
1229:Generated_Source\PSoC4/CyDMA.c **** 
1230:Generated_Source\PSoC4/CyDMA.c ****     CYASSERT((channel    >= 0) && (channel    < CYDMA_CH_NR));
 2013              		.loc 1 1230 0
 2014 0008 0728     		cmp	r0, #7
 2015 000a 02D9     		bls	.L180
 2016              		.loc 1 1230 0 is_stmt 0 discriminator 1
 2017 000c 0020     		mov	r0, #0
 2018              	.LVL193:
ARM GAS  C:\Users\Greg\AppData\Local\Temp\ccTXpTtu.s 			page 59


 2019 000e FFF7FEFF 		bl	CyHalt
 2020              	.LVL194:
 2021              	.L180:
1231:Generated_Source\PSoC4/CyDMA.c ****     CYASSERT((descriptor >= 0) && (descriptor < CYDMA_DESCR_NR));
 2022              		.loc 1 1231 0 is_stmt 1
 2023 0012 012C     		cmp	r4, #1
 2024 0014 02D9     		bls	.L181
 2025              		.loc 1 1231 0 is_stmt 0 discriminator 1
 2026 0016 0020     		mov	r0, #0
 2027 0018 FFF7FEFF 		bl	CyHalt
 2028              	.LVL195:
 2029              	.L181:
1232:Generated_Source\PSoC4/CyDMA.c ****     CYASSERT(0u == (triggerType & (uint32)~CYDMA_TRIGGER_TYPE));
 2030              		.loc 1 1232 0 is_stmt 1
 2031 001c 084B     		ldr	r3, .L183
 2032 001e 1D42     		tst	r5, r3
 2033 0020 02D0     		beq	.L182
 2034              		.loc 1 1232 0 is_stmt 0 discriminator 1
 2035 0022 0020     		mov	r0, #0
 2036 0024 FFF7FEFF 		bl	CyHalt
 2037              	.LVL196:
 2038              	.L182:
1233:Generated_Source\PSoC4/CyDMA.c **** 
1234:Generated_Source\PSoC4/CyDMA.c ****     regValue = CYDMA_DESCR_BASE.descriptor[channel][descriptor].ctl & (uint32)~CYDMA_TRIGGER_TYPE;
 2039              		.loc 1 1234 0 is_stmt 1
 2040 0028 7600     		lsl	r6, r6, #1
 2041              	.LVL197:
 2042 002a 3419     		add	r4, r6, r4
 2043              	.LVL198:
 2044 002c 2401     		lsl	r4, r4, #4
 2045 002e 054B     		ldr	r3, .L183+4
 2046 0030 9C46     		mov	ip, r3
 2047 0032 6444     		add	r4, r4, ip
 2048 0034 A268     		ldr	r2, [r4, #8]
 2049 0036 024B     		ldr	r3, .L183
 2050 0038 1340     		and	r3, r2
 2051              	.LVL199:
1235:Generated_Source\PSoC4/CyDMA.c ****     CYDMA_DESCR_BASE.descriptor[channel][descriptor].ctl = regValue | triggerType;
 2052              		.loc 1 1235 0
 2053 003a 1D43     		orr	r5, r3
 2054              	.LVL200:
 2055 003c A560     		str	r5, [r4, #8]
1236:Generated_Source\PSoC4/CyDMA.c **** }
 2056              		.loc 1 1236 0
 2057              		@ sp needed
 2058 003e 70BD     		pop	{r4, r5, r6, pc}
 2059              	.L184:
 2060              		.align	2
 2061              	.L183:
 2062 0040 FFFFFFFC 		.word	-50331649
 2063 0044 00181040 		.word	1074796544
 2064              		.cfi_endproc
 2065              	.LFE41:
 2066              		.size	CyDmaSetTriggerType, .-CyDmaSetTriggerType
 2067              		.section	.text.CyDmaGetTriggerType,"ax",%progbits
 2068              		.align	2
 2069              		.global	CyDmaGetTriggerType
ARM GAS  C:\Users\Greg\AppData\Local\Temp\ccTXpTtu.s 			page 60


 2070              		.code	16
 2071              		.thumb_func
 2072              		.type	CyDmaGetTriggerType, %function
 2073              	CyDmaGetTriggerType:
 2074              	.LFB42:
1237:Generated_Source\PSoC4/CyDMA.c **** 
1238:Generated_Source\PSoC4/CyDMA.c **** 
1239:Generated_Source\PSoC4/CyDMA.c **** /*******************************************************************************
1240:Generated_Source\PSoC4/CyDMA.c **** * Function Name: CyDmaGetTriggerType
1241:Generated_Source\PSoC4/CyDMA.c **** ********************************************************************************
1242:Generated_Source\PSoC4/CyDMA.c **** *
1243:Generated_Source\PSoC4/CyDMA.c **** * Summary:
1244:Generated_Source\PSoC4/CyDMA.c **** *  Returns the trigger deactivation settings as set by CyDmaSetTriggerType() or
1245:Generated_Source\PSoC4/CyDMA.c **** *  CyDmaSetConfiguration().
1246:Generated_Source\PSoC4/CyDMA.c **** *
1247:Generated_Source\PSoC4/CyDMA.c **** * Parameters:
1248:Generated_Source\PSoC4/CyDMA.c **** *  channel:    Channel used by this function.
1249:Generated_Source\PSoC4/CyDMA.c **** *  descriptor: Descriptor (0 or 1) modified by this function.
1250:Generated_Source\PSoC4/CyDMA.c **** *                   
1251:Generated_Source\PSoC4/CyDMA.c **** * Return:
1252:Generated_Source\PSoC4/CyDMA.c **** *  Trigger deactivation settings. Refer to the API bit field definitions in
1253:Generated_Source\PSoC4/CyDMA.c **** *  CyDMA_P4.h or the API description in the DMA channel datasheet for more
1254:Generated_Source\PSoC4/CyDMA.c **** *  information.
1255:Generated_Source\PSoC4/CyDMA.c **** *
1256:Generated_Source\PSoC4/CyDMA.c **** *******************************************************************************/
1257:Generated_Source\PSoC4/CyDMA.c **** uint32 CyDmaGetTriggerType(int32 channel, int32 descriptor)
1258:Generated_Source\PSoC4/CyDMA.c **** {
 2075              		.loc 1 1258 0
 2076              		.cfi_startproc
 2077              	.LVL201:
 2078 0000 38B5     		push	{r3, r4, r5, lr}
 2079              		.cfi_def_cfa_offset 16
 2080              		.cfi_offset 3, -16
 2081              		.cfi_offset 4, -12
 2082              		.cfi_offset 5, -8
 2083              		.cfi_offset 14, -4
 2084 0002 051C     		mov	r5, r0
 2085 0004 0C1C     		mov	r4, r1
1259:Generated_Source\PSoC4/CyDMA.c ****     CYASSERT((channel    >= 0) && (channel    < CYDMA_CH_NR));
 2086              		.loc 1 1259 0
 2087 0006 0728     		cmp	r0, #7
 2088 0008 02D9     		bls	.L186
 2089              		.loc 1 1259 0 is_stmt 0 discriminator 1
 2090 000a 0020     		mov	r0, #0
 2091              	.LVL202:
 2092 000c FFF7FEFF 		bl	CyHalt
 2093              	.LVL203:
 2094              	.L186:
1260:Generated_Source\PSoC4/CyDMA.c ****     CYASSERT((descriptor >= 0) && (descriptor < CYDMA_DESCR_NR));
 2095              		.loc 1 1260 0 is_stmt 1
 2096 0010 012C     		cmp	r4, #1
 2097 0012 02D9     		bls	.L187
 2098              		.loc 1 1260 0 is_stmt 0 discriminator 1
 2099 0014 0020     		mov	r0, #0
 2100 0016 FFF7FEFF 		bl	CyHalt
 2101              	.LVL204:
 2102              	.L187:
ARM GAS  C:\Users\Greg\AppData\Local\Temp\ccTXpTtu.s 			page 61


1261:Generated_Source\PSoC4/CyDMA.c **** 
1262:Generated_Source\PSoC4/CyDMA.c ****     return (CYDMA_DESCR_BASE.descriptor[channel][descriptor].ctl & CYDMA_TRIGGER_TYPE);
 2103              		.loc 1 1262 0 is_stmt 1
 2104 001a 6D00     		lsl	r5, r5, #1
 2105              	.LVL205:
 2106 001c 2C19     		add	r4, r5, r4
 2107              	.LVL206:
 2108 001e 2401     		lsl	r4, r4, #4
 2109 0020 034B     		ldr	r3, .L188
 2110 0022 9C46     		mov	ip, r3
 2111 0024 6444     		add	r4, r4, ip
 2112 0026 A068     		ldr	r0, [r4, #8]
 2113 0028 C023     		mov	r3, #192
 2114 002a 9B04     		lsl	r3, r3, #18
 2115 002c 1840     		and	r0, r3
1263:Generated_Source\PSoC4/CyDMA.c **** }
 2116              		.loc 1 1263 0
 2117              		@ sp needed
 2118 002e 38BD     		pop	{r3, r4, r5, pc}
 2119              	.L189:
 2120              		.align	2
 2121              	.L188:
 2122 0030 00181040 		.word	1074796544
 2123              		.cfi_endproc
 2124              	.LFE42:
 2125              		.size	CyDmaGetTriggerType, .-CyDmaGetTriggerType
 2126              		.section	.text.CyDmaSetTransferMode,"ax",%progbits
 2127              		.align	2
 2128              		.global	CyDmaSetTransferMode
 2129              		.code	16
 2130              		.thumb_func
 2131              		.type	CyDmaSetTransferMode, %function
 2132              	CyDmaSetTransferMode:
 2133              	.LFB43:
1264:Generated_Source\PSoC4/CyDMA.c **** 
1265:Generated_Source\PSoC4/CyDMA.c **** 
1266:Generated_Source\PSoC4/CyDMA.c **** /*******************************************************************************
1267:Generated_Source\PSoC4/CyDMA.c **** * Function Name: CyDmaSetTransferMode
1268:Generated_Source\PSoC4/CyDMA.c **** ********************************************************************************
1269:Generated_Source\PSoC4/CyDMA.c **** *
1270:Generated_Source\PSoC4/CyDMA.c **** * Summary:
1271:Generated_Source\PSoC4/CyDMA.c **** *  Sets the DMA transfer mode. This determines how the DMA reacts to each trigger
1272:Generated_Source\PSoC4/CyDMA.c **** *  event.
1273:Generated_Source\PSoC4/CyDMA.c **** *
1274:Generated_Source\PSoC4/CyDMA.c **** * Parameters:
1275:Generated_Source\PSoC4/CyDMA.c **** *  channel:      Channel used by this function.
1276:Generated_Source\PSoC4/CyDMA.c **** *  descriptor:   Descriptor (0 or 1) modified by this function.
1277:Generated_Source\PSoC4/CyDMA.c **** *  transferMode: Specifies the DMA transfer mode settings. Refer to the API bit
1278:Generated_Source\PSoC4/CyDMA.c **** *                field definitions in CyDMA_P4.h or the API description in the
1279:Generated_Source\PSoC4/CyDMA.c **** *                DMA channel datasheet for the parameter options.
1280:Generated_Source\PSoC4/CyDMA.c **** *                   
1281:Generated_Source\PSoC4/CyDMA.c **** * Return:
1282:Generated_Source\PSoC4/CyDMA.c **** *  None.
1283:Generated_Source\PSoC4/CyDMA.c **** *
1284:Generated_Source\PSoC4/CyDMA.c **** * Side effect:
1285:Generated_Source\PSoC4/CyDMA.c **** *  This function should not be called when the specified descriptor is active
1286:Generated_Source\PSoC4/CyDMA.c **** *  in the DMA transfer engine. This can be checked by calling CyDmaGetStatus(). 
ARM GAS  C:\Users\Greg\AppData\Local\Temp\ccTXpTtu.s 			page 62


1287:Generated_Source\PSoC4/CyDMA.c **** *
1288:Generated_Source\PSoC4/CyDMA.c **** *******************************************************************************/
1289:Generated_Source\PSoC4/CyDMA.c **** void CyDmaSetTransferMode(int32 channel, int32 descriptor, uint32 transferMode)
1290:Generated_Source\PSoC4/CyDMA.c **** {
 2134              		.loc 1 1290 0
 2135              		.cfi_startproc
 2136              	.LVL207:
 2137 0000 70B5     		push	{r4, r5, r6, lr}
 2138              		.cfi_def_cfa_offset 16
 2139              		.cfi_offset 4, -16
 2140              		.cfi_offset 5, -12
 2141              		.cfi_offset 6, -8
 2142              		.cfi_offset 14, -4
 2143 0002 061C     		mov	r6, r0
 2144 0004 0C1C     		mov	r4, r1
 2145 0006 151C     		mov	r5, r2
1291:Generated_Source\PSoC4/CyDMA.c ****     uint32 regValue;
1292:Generated_Source\PSoC4/CyDMA.c **** 
1293:Generated_Source\PSoC4/CyDMA.c ****     CYASSERT((channel    >= 0) && (channel    < CYDMA_CH_NR));
 2146              		.loc 1 1293 0
 2147 0008 0728     		cmp	r0, #7
 2148 000a 02D9     		bls	.L191
 2149              		.loc 1 1293 0 is_stmt 0 discriminator 1
 2150 000c 0020     		mov	r0, #0
 2151              	.LVL208:
 2152 000e FFF7FEFF 		bl	CyHalt
 2153              	.LVL209:
 2154              	.L191:
1294:Generated_Source\PSoC4/CyDMA.c ****     CYASSERT((descriptor >= 0) && (descriptor < CYDMA_DESCR_NR));
 2155              		.loc 1 1294 0 is_stmt 1
 2156 0012 012C     		cmp	r4, #1
 2157 0014 02D9     		bls	.L192
 2158              		.loc 1 1294 0 is_stmt 0 discriminator 1
 2159 0016 0020     		mov	r0, #0
 2160 0018 FFF7FEFF 		bl	CyHalt
 2161              	.LVL210:
 2162              	.L192:
1295:Generated_Source\PSoC4/CyDMA.c ****     CYASSERT(0u == (transferMode & (uint32)~CYDMA_TRANSFER_MODE));
 2163              		.loc 1 1295 0 is_stmt 1
 2164 001c AB00     		lsl	r3, r5, #2
 2165 001e 02D0     		beq	.L193
 2166              		.loc 1 1295 0 is_stmt 0 discriminator 1
 2167 0020 0020     		mov	r0, #0
 2168 0022 FFF7FEFF 		bl	CyHalt
 2169              	.LVL211:
 2170              	.L193:
1296:Generated_Source\PSoC4/CyDMA.c **** 
1297:Generated_Source\PSoC4/CyDMA.c ****     regValue = CYDMA_DESCR_BASE.descriptor[channel][descriptor].ctl & (uint32)~CYDMA_TRANSFER_MODE;
 2171              		.loc 1 1297 0 is_stmt 1
 2172 0026 7600     		lsl	r6, r6, #1
 2173              	.LVL212:
 2174 0028 3419     		add	r4, r6, r4
 2175              	.LVL213:
 2176 002a 2401     		lsl	r4, r4, #4
 2177 002c 044B     		ldr	r3, .L194
 2178 002e 9C46     		mov	ip, r3
 2179 0030 6444     		add	r4, r4, ip
ARM GAS  C:\Users\Greg\AppData\Local\Temp\ccTXpTtu.s 			page 63


 2180 0032 A268     		ldr	r2, [r4, #8]
 2181 0034 9200     		lsl	r2, r2, #2
 2182 0036 9208     		lsr	r2, r2, #2
 2183              	.LVL214:
1298:Generated_Source\PSoC4/CyDMA.c ****     CYDMA_DESCR_BASE.descriptor[channel][descriptor].ctl = regValue | transferMode;
 2184              		.loc 1 1298 0
 2185 0038 2A43     		orr	r2, r5
 2186              	.LVL215:
 2187 003a A260     		str	r2, [r4, #8]
1299:Generated_Source\PSoC4/CyDMA.c **** }
 2188              		.loc 1 1299 0
 2189              		@ sp needed
 2190              	.LVL216:
 2191 003c 70BD     		pop	{r4, r5, r6, pc}
 2192              	.L195:
 2193 003e C046     		.align	2
 2194              	.L194:
 2195 0040 00181040 		.word	1074796544
 2196              		.cfi_endproc
 2197              	.LFE43:
 2198              		.size	CyDmaSetTransferMode, .-CyDmaSetTransferMode
 2199              		.section	.text.CyDmaGetTransferMode,"ax",%progbits
 2200              		.align	2
 2201              		.global	CyDmaGetTransferMode
 2202              		.code	16
 2203              		.thumb_func
 2204              		.type	CyDmaGetTransferMode, %function
 2205              	CyDmaGetTransferMode:
 2206              	.LFB44:
1300:Generated_Source\PSoC4/CyDMA.c **** 
1301:Generated_Source\PSoC4/CyDMA.c **** 
1302:Generated_Source\PSoC4/CyDMA.c **** /*******************************************************************************
1303:Generated_Source\PSoC4/CyDMA.c **** * Function Name: CyDmaGetTransferMode
1304:Generated_Source\PSoC4/CyDMA.c **** ********************************************************************************
1305:Generated_Source\PSoC4/CyDMA.c **** *
1306:Generated_Source\PSoC4/CyDMA.c **** * Summary:
1307:Generated_Source\PSoC4/CyDMA.c **** *  Returns the transfer mode for the specified descriptor as set by 
1308:Generated_Source\PSoC4/CyDMA.c **** *  CyDmaSetTransferMode() or CyDmaSetConfiguration.
1309:Generated_Source\PSoC4/CyDMA.c **** *
1310:Generated_Source\PSoC4/CyDMA.c **** * Parameters:
1311:Generated_Source\PSoC4/CyDMA.c **** *  channel:    Channel used by this function.
1312:Generated_Source\PSoC4/CyDMA.c **** *  descriptor: Descriptor (0 or 1) modified by this function.
1313:Generated_Source\PSoC4/CyDMA.c **** *                   
1314:Generated_Source\PSoC4/CyDMA.c **** * Return:
1315:Generated_Source\PSoC4/CyDMA.c **** *  DMA transfer mode settings. Refer to the API bit field definitions in
1316:Generated_Source\PSoC4/CyDMA.c **** *  CyDMA_P4.h or the API description in the DMA channel datasheet for more
1317:Generated_Source\PSoC4/CyDMA.c **** *  information.
1318:Generated_Source\PSoC4/CyDMA.c **** *
1319:Generated_Source\PSoC4/CyDMA.c **** *******************************************************************************/
1320:Generated_Source\PSoC4/CyDMA.c **** uint32 CyDmaGetTransferMode(int32 channel, int32 descriptor)
1321:Generated_Source\PSoC4/CyDMA.c **** {
 2207              		.loc 1 1321 0
 2208              		.cfi_startproc
 2209              	.LVL217:
 2210 0000 38B5     		push	{r3, r4, r5, lr}
 2211              		.cfi_def_cfa_offset 16
 2212              		.cfi_offset 3, -16
ARM GAS  C:\Users\Greg\AppData\Local\Temp\ccTXpTtu.s 			page 64


 2213              		.cfi_offset 4, -12
 2214              		.cfi_offset 5, -8
 2215              		.cfi_offset 14, -4
 2216 0002 051C     		mov	r5, r0
 2217 0004 0C1C     		mov	r4, r1
1322:Generated_Source\PSoC4/CyDMA.c ****     CYASSERT((channel    >= 0) && (channel    < CYDMA_CH_NR));
 2218              		.loc 1 1322 0
 2219 0006 0728     		cmp	r0, #7
 2220 0008 02D9     		bls	.L197
 2221              		.loc 1 1322 0 is_stmt 0 discriminator 1
 2222 000a 0020     		mov	r0, #0
 2223              	.LVL218:
 2224 000c FFF7FEFF 		bl	CyHalt
 2225              	.LVL219:
 2226              	.L197:
1323:Generated_Source\PSoC4/CyDMA.c ****     CYASSERT((descriptor >= 0) && (descriptor < CYDMA_DESCR_NR));
 2227              		.loc 1 1323 0 is_stmt 1
 2228 0010 012C     		cmp	r4, #1
 2229 0012 02D9     		bls	.L198
 2230              		.loc 1 1323 0 is_stmt 0 discriminator 1
 2231 0014 0020     		mov	r0, #0
 2232 0016 FFF7FEFF 		bl	CyHalt
 2233              	.LVL220:
 2234              	.L198:
1324:Generated_Source\PSoC4/CyDMA.c **** 
1325:Generated_Source\PSoC4/CyDMA.c ****     return (CYDMA_DESCR_BASE.descriptor[channel][descriptor].ctl & CYDMA_TRANSFER_MODE);
 2235              		.loc 1 1325 0 is_stmt 1
 2236 001a 6D00     		lsl	r5, r5, #1
 2237              	.LVL221:
 2238 001c 2C19     		add	r4, r5, r4
 2239              	.LVL222:
 2240 001e 2401     		lsl	r4, r4, #4
 2241 0020 034B     		ldr	r3, .L199
 2242 0022 9C46     		mov	ip, r3
 2243 0024 6444     		add	r4, r4, ip
 2244 0026 A068     		ldr	r0, [r4, #8]
 2245 0028 800F     		lsr	r0, r0, #30
 2246 002a 8007     		lsl	r0, r0, #30
1326:Generated_Source\PSoC4/CyDMA.c **** }
 2247              		.loc 1 1326 0
 2248              		@ sp needed
 2249 002c 38BD     		pop	{r3, r4, r5, pc}
 2250              	.L200:
 2251 002e C046     		.align	2
 2252              	.L199:
 2253 0030 00181040 		.word	1074796544
 2254              		.cfi_endproc
 2255              	.LFE44:
 2256              		.size	CyDmaGetTransferMode, .-CyDmaGetTransferMode
 2257              		.section	.text.CyDmaSetPreemptable,"ax",%progbits
 2258              		.align	2
 2259              		.global	CyDmaSetPreemptable
 2260              		.code	16
 2261              		.thumb_func
 2262              		.type	CyDmaSetPreemptable, %function
 2263              	CyDmaSetPreemptable:
 2264              	.LFB45:
ARM GAS  C:\Users\Greg\AppData\Local\Temp\ccTXpTtu.s 			page 65


1327:Generated_Source\PSoC4/CyDMA.c **** 
1328:Generated_Source\PSoC4/CyDMA.c **** 
1329:Generated_Source\PSoC4/CyDMA.c **** /*******************************************************************************
1330:Generated_Source\PSoC4/CyDMA.c **** * Function Name: CyDmaSetPreemptable
1331:Generated_Source\PSoC4/CyDMA.c **** ********************************************************************************
1332:Generated_Source\PSoC4/CyDMA.c **** *
1333:Generated_Source\PSoC4/CyDMA.c **** * Summary:
1334:Generated_Source\PSoC4/CyDMA.c **** *  Determines if the descriptor is preemptable.
1335:Generated_Source\PSoC4/CyDMA.c **** *
1336:Generated_Source\PSoC4/CyDMA.c **** * Parameters:
1337:Generated_Source\PSoC4/CyDMA.c **** *  channel:     Channel used by this function.
1338:Generated_Source\PSoC4/CyDMA.c **** *  descriptor:  Descriptor (0 or 1) modified by this function.
1339:Generated_Source\PSoC4/CyDMA.c **** *  preemptable: Descriptor preemption settings. Refer to the API bit fields
1340:Generated_Source\PSoC4/CyDMA.c **** *               definition in CyDMA_P4.h or the API description in the DMA 
1341:Generated_Source\PSoC4/CyDMA.c **** *               channel datasheet for the parameter options.
1342:Generated_Source\PSoC4/CyDMA.c **** *                   
1343:Generated_Source\PSoC4/CyDMA.c **** * Return:
1344:Generated_Source\PSoC4/CyDMA.c **** *  None.
1345:Generated_Source\PSoC4/CyDMA.c **** *
1346:Generated_Source\PSoC4/CyDMA.c **** * Side effect:
1347:Generated_Source\PSoC4/CyDMA.c **** *  This function should not be called when the specified descriptor is active
1348:Generated_Source\PSoC4/CyDMA.c **** *  in the DMA transfer engine. This can be checked by calling CyDmaGetStatus(). 
1349:Generated_Source\PSoC4/CyDMA.c **** *
1350:Generated_Source\PSoC4/CyDMA.c **** *******************************************************************************/
1351:Generated_Source\PSoC4/CyDMA.c **** void CyDmaSetPreemptable(int32 channel, int32 descriptor, uint32 preemptable)
1352:Generated_Source\PSoC4/CyDMA.c **** {
 2265              		.loc 1 1352 0
 2266              		.cfi_startproc
 2267              	.LVL223:
 2268 0000 70B5     		push	{r4, r5, r6, lr}
 2269              		.cfi_def_cfa_offset 16
 2270              		.cfi_offset 4, -16
 2271              		.cfi_offset 5, -12
 2272              		.cfi_offset 6, -8
 2273              		.cfi_offset 14, -4
 2274 0002 061C     		mov	r6, r0
 2275 0004 0C1C     		mov	r4, r1
 2276 0006 151C     		mov	r5, r2
1353:Generated_Source\PSoC4/CyDMA.c ****     uint32 regValue;
1354:Generated_Source\PSoC4/CyDMA.c **** 
1355:Generated_Source\PSoC4/CyDMA.c ****     CYASSERT((channel    >= 0) && (channel    < CYDMA_CH_NR));
 2277              		.loc 1 1355 0
 2278 0008 0728     		cmp	r0, #7
 2279 000a 02D9     		bls	.L202
 2280              		.loc 1 1355 0 is_stmt 0 discriminator 1
 2281 000c 0020     		mov	r0, #0
 2282              	.LVL224:
 2283 000e FFF7FEFF 		bl	CyHalt
 2284              	.LVL225:
 2285              	.L202:
1356:Generated_Source\PSoC4/CyDMA.c ****     CYASSERT((descriptor >= 0) && (descriptor < CYDMA_DESCR_NR));
 2286              		.loc 1 1356 0 is_stmt 1
 2287 0012 012C     		cmp	r4, #1
 2288 0014 02D9     		bls	.L203
 2289              		.loc 1 1356 0 is_stmt 0 discriminator 1
 2290 0016 0020     		mov	r0, #0
 2291 0018 FFF7FEFF 		bl	CyHalt
ARM GAS  C:\Users\Greg\AppData\Local\Temp\ccTXpTtu.s 			page 66


 2292              	.LVL226:
 2293              	.L203:
1357:Generated_Source\PSoC4/CyDMA.c ****     CYASSERT(0u == (preemptable & (uint32)~CYDMA_PREEMPTABLE));
 2294              		.loc 1 1357 0 is_stmt 1
 2295 001c 084B     		ldr	r3, .L205
 2296 001e 1D42     		tst	r5, r3
 2297 0020 02D0     		beq	.L204
 2298              		.loc 1 1357 0 is_stmt 0 discriminator 1
 2299 0022 0020     		mov	r0, #0
 2300 0024 FFF7FEFF 		bl	CyHalt
 2301              	.LVL227:
 2302              	.L204:
1358:Generated_Source\PSoC4/CyDMA.c **** 
1359:Generated_Source\PSoC4/CyDMA.c ****     regValue = CYDMA_DESCR_BASE.descriptor[channel][descriptor].ctl & (uint32)~CYDMA_PREEMPTABLE;
 2303              		.loc 1 1359 0 is_stmt 1
 2304 0028 7600     		lsl	r6, r6, #1
 2305              	.LVL228:
 2306 002a 3419     		add	r4, r6, r4
 2307              	.LVL229:
 2308 002c 2401     		lsl	r4, r4, #4
 2309 002e 054B     		ldr	r3, .L205+4
 2310 0030 9C46     		mov	ip, r3
 2311 0032 6444     		add	r4, r4, ip
 2312 0034 A268     		ldr	r2, [r4, #8]
 2313 0036 024B     		ldr	r3, .L205
 2314 0038 1340     		and	r3, r2
 2315              	.LVL230:
1360:Generated_Source\PSoC4/CyDMA.c ****     CYDMA_DESCR_BASE.descriptor[channel][descriptor].ctl = regValue | preemptable;
 2316              		.loc 1 1360 0
 2317 003a 1D43     		orr	r5, r3
 2318              	.LVL231:
 2319 003c A560     		str	r5, [r4, #8]
1361:Generated_Source\PSoC4/CyDMA.c **** }
 2320              		.loc 1 1361 0
 2321              		@ sp needed
 2322 003e 70BD     		pop	{r4, r5, r6, pc}
 2323              	.L206:
 2324              		.align	2
 2325              	.L205:
 2326 0040 FFFFFFEF 		.word	-268435457
 2327 0044 00181040 		.word	1074796544
 2328              		.cfi_endproc
 2329              	.LFE45:
 2330              		.size	CyDmaSetPreemptable, .-CyDmaSetPreemptable
 2331              		.section	.text.CyDmaGetPreemptable,"ax",%progbits
 2332              		.align	2
 2333              		.global	CyDmaGetPreemptable
 2334              		.code	16
 2335              		.thumb_func
 2336              		.type	CyDmaGetPreemptable, %function
 2337              	CyDmaGetPreemptable:
 2338              	.LFB46:
1362:Generated_Source\PSoC4/CyDMA.c **** 
1363:Generated_Source\PSoC4/CyDMA.c **** 
1364:Generated_Source\PSoC4/CyDMA.c **** /*******************************************************************************
1365:Generated_Source\PSoC4/CyDMA.c **** * Function Name: CyDmaGetPreemptable
1366:Generated_Source\PSoC4/CyDMA.c **** ********************************************************************************
ARM GAS  C:\Users\Greg\AppData\Local\Temp\ccTXpTtu.s 			page 67


1367:Generated_Source\PSoC4/CyDMA.c **** *
1368:Generated_Source\PSoC4/CyDMA.c **** * Summary:
1369:Generated_Source\PSoC4/CyDMA.c **** *  Returns whether or not the descriptor is preemptable.
1370:Generated_Source\PSoC4/CyDMA.c **** *
1371:Generated_Source\PSoC4/CyDMA.c **** * Parameters:
1372:Generated_Source\PSoC4/CyDMA.c **** *  channel:    Channel used by this function.
1373:Generated_Source\PSoC4/CyDMA.c **** *  descriptor: Descriptor (0 or 1) modified by this function.
1374:Generated_Source\PSoC4/CyDMA.c **** *                   
1375:Generated_Source\PSoC4/CyDMA.c **** * Return:
1376:Generated_Source\PSoC4/CyDMA.c **** *  Descriptor preemption setting. Refer to the API bit field definitions in
1377:Generated_Source\PSoC4/CyDMA.c **** *  CyDMA_P4.h or the API description in the DMA channel datasheet for more
1378:Generated_Source\PSoC4/CyDMA.c **** *  information.
1379:Generated_Source\PSoC4/CyDMA.c **** *
1380:Generated_Source\PSoC4/CyDMA.c **** *******************************************************************************/
1381:Generated_Source\PSoC4/CyDMA.c **** uint32 CyDmaGetPreemptable(int32 channel, int32 descriptor)
1382:Generated_Source\PSoC4/CyDMA.c **** {
 2339              		.loc 1 1382 0
 2340              		.cfi_startproc
 2341              	.LVL232:
 2342 0000 38B5     		push	{r3, r4, r5, lr}
 2343              		.cfi_def_cfa_offset 16
 2344              		.cfi_offset 3, -16
 2345              		.cfi_offset 4, -12
 2346              		.cfi_offset 5, -8
 2347              		.cfi_offset 14, -4
 2348 0002 051C     		mov	r5, r0
 2349 0004 0C1C     		mov	r4, r1
1383:Generated_Source\PSoC4/CyDMA.c ****     CYASSERT((channel    >= 0) && (channel    < CYDMA_CH_NR));
 2350              		.loc 1 1383 0
 2351 0006 0728     		cmp	r0, #7
 2352 0008 02D9     		bls	.L208
 2353              		.loc 1 1383 0 is_stmt 0 discriminator 1
 2354 000a 0020     		mov	r0, #0
 2355              	.LVL233:
 2356 000c FFF7FEFF 		bl	CyHalt
 2357              	.LVL234:
 2358              	.L208:
1384:Generated_Source\PSoC4/CyDMA.c ****     CYASSERT((descriptor >= 0) && (descriptor < CYDMA_DESCR_NR));
 2359              		.loc 1 1384 0 is_stmt 1
 2360 0010 012C     		cmp	r4, #1
 2361 0012 02D9     		bls	.L209
 2362              		.loc 1 1384 0 is_stmt 0 discriminator 1
 2363 0014 0020     		mov	r0, #0
 2364 0016 FFF7FEFF 		bl	CyHalt
 2365              	.LVL235:
 2366              	.L209:
1385:Generated_Source\PSoC4/CyDMA.c **** 
1386:Generated_Source\PSoC4/CyDMA.c ****     return (CYDMA_DESCR_BASE.descriptor[channel][descriptor].ctl & CYDMA_PREEMPTABLE);
 2367              		.loc 1 1386 0 is_stmt 1
 2368 001a 6D00     		lsl	r5, r5, #1
 2369              	.LVL236:
 2370 001c 2C19     		add	r4, r5, r4
 2371              	.LVL237:
 2372 001e 2401     		lsl	r4, r4, #4
 2373 0020 034B     		ldr	r3, .L210
 2374 0022 9C46     		mov	ip, r3
 2375 0024 6444     		add	r4, r4, ip
ARM GAS  C:\Users\Greg\AppData\Local\Temp\ccTXpTtu.s 			page 68


 2376 0026 A068     		ldr	r0, [r4, #8]
 2377 0028 8023     		mov	r3, #128
 2378 002a 5B05     		lsl	r3, r3, #21
 2379 002c 1840     		and	r0, r3
1387:Generated_Source\PSoC4/CyDMA.c **** }
 2380              		.loc 1 1387 0
 2381              		@ sp needed
 2382 002e 38BD     		pop	{r3, r4, r5, pc}
 2383              	.L211:
 2384              		.align	2
 2385              	.L210:
 2386 0030 00181040 		.word	1074796544
 2387              		.cfi_endproc
 2388              	.LFE46:
 2389              		.size	CyDmaGetPreemptable, .-CyDmaGetPreemptable
 2390              		.section	.text.CyDmaSetPostCompletionActions,"ax",%progbits
 2391              		.align	2
 2392              		.global	CyDmaSetPostCompletionActions
 2393              		.code	16
 2394              		.thumb_func
 2395              		.type	CyDmaSetPostCompletionActions, %function
 2396              	CyDmaSetPostCompletionActions:
 2397              	.LFB47:
1388:Generated_Source\PSoC4/CyDMA.c **** 
1389:Generated_Source\PSoC4/CyDMA.c **** 
1390:Generated_Source\PSoC4/CyDMA.c **** /*******************************************************************************
1391:Generated_Source\PSoC4/CyDMA.c **** * Function Name: CyDmaSetPostCompletionActions
1392:Generated_Source\PSoC4/CyDMA.c **** ********************************************************************************
1393:Generated_Source\PSoC4/CyDMA.c **** *
1394:Generated_Source\PSoC4/CyDMA.c **** * Summary:
1395:Generated_Source\PSoC4/CyDMA.c **** *  Determines what occurs after a descriptor completes.
1396:Generated_Source\PSoC4/CyDMA.c **** *
1397:Generated_Source\PSoC4/CyDMA.c **** * Parameters:
1398:Generated_Source\PSoC4/CyDMA.c **** *  channel:    Channel used by this function.
1399:Generated_Source\PSoC4/CyDMA.c **** *  descriptor: Descriptor (0 or 1) modified by this function.
1400:Generated_Source\PSoC4/CyDMA.c **** *  actions:    Specifies descriptor post completion actions. Refer to the API
1401:Generated_Source\PSoC4/CyDMA.c **** *              bit field definitions in CyDMA_P4.h or the API description
1402:Generated_Source\PSoC4/CyDMA.c **** *              in the DMA channel datasheet for the parameter options.
1403:Generated_Source\PSoC4/CyDMA.c **** *                   
1404:Generated_Source\PSoC4/CyDMA.c **** * Return:
1405:Generated_Source\PSoC4/CyDMA.c **** *  None.  
1406:Generated_Source\PSoC4/CyDMA.c **** *
1407:Generated_Source\PSoC4/CyDMA.c **** * Side effect:
1408:Generated_Source\PSoC4/CyDMA.c **** *  This function should not be called when the specified descriptor is active
1409:Generated_Source\PSoC4/CyDMA.c **** *  in the DMA transfer engine. This can be checked by calling CyDmaGetStatus(). 
1410:Generated_Source\PSoC4/CyDMA.c **** *
1411:Generated_Source\PSoC4/CyDMA.c **** *******************************************************************************/
1412:Generated_Source\PSoC4/CyDMA.c **** void CyDmaSetPostCompletionActions(int32 channel, int32 descriptor, uint32 actions)
1413:Generated_Source\PSoC4/CyDMA.c **** {
 2398              		.loc 1 1413 0
 2399              		.cfi_startproc
 2400              	.LVL238:
 2401 0000 70B5     		push	{r4, r5, r6, lr}
 2402              		.cfi_def_cfa_offset 16
 2403              		.cfi_offset 4, -16
 2404              		.cfi_offset 5, -12
 2405              		.cfi_offset 6, -8
ARM GAS  C:\Users\Greg\AppData\Local\Temp\ccTXpTtu.s 			page 69


 2406              		.cfi_offset 14, -4
 2407 0002 061C     		mov	r6, r0
 2408 0004 0C1C     		mov	r4, r1
 2409 0006 151C     		mov	r5, r2
1414:Generated_Source\PSoC4/CyDMA.c ****     uint32 regValue;
1415:Generated_Source\PSoC4/CyDMA.c **** 
1416:Generated_Source\PSoC4/CyDMA.c ****     CYASSERT((channel    >= 0) && (channel    < CYDMA_CH_NR));
 2410              		.loc 1 1416 0
 2411 0008 0728     		cmp	r0, #7
 2412 000a 02D9     		bls	.L213
 2413              		.loc 1 1416 0 is_stmt 0 discriminator 1
 2414 000c 0020     		mov	r0, #0
 2415              	.LVL239:
 2416 000e FFF7FEFF 		bl	CyHalt
 2417              	.LVL240:
 2418              	.L213:
1417:Generated_Source\PSoC4/CyDMA.c ****     CYASSERT((descriptor >= 0) && (descriptor < CYDMA_DESCR_NR));
 2419              		.loc 1 1417 0 is_stmt 1
 2420 0012 012C     		cmp	r4, #1
 2421 0014 02D9     		bls	.L214
 2422              		.loc 1 1417 0 is_stmt 0 discriminator 1
 2423 0016 0020     		mov	r0, #0
 2424 0018 FFF7FEFF 		bl	CyHalt
 2425              	.LVL241:
 2426              	.L214:
1418:Generated_Source\PSoC4/CyDMA.c ****     CYASSERT(0u == (actions & (uint32)~CYDMA_POST_COMPLETE_ACTIONS));
 2427              		.loc 1 1418 0 is_stmt 1
 2428 001c 084B     		ldr	r3, .L216
 2429 001e 1D42     		tst	r5, r3
 2430 0020 02D0     		beq	.L215
 2431              		.loc 1 1418 0 is_stmt 0 discriminator 1
 2432 0022 0020     		mov	r0, #0
 2433 0024 FFF7FEFF 		bl	CyHalt
 2434              	.LVL242:
 2435              	.L215:
1419:Generated_Source\PSoC4/CyDMA.c **** 
1420:Generated_Source\PSoC4/CyDMA.c ****     regValue = CYDMA_DESCR_BASE.descriptor[channel][descriptor].ctl & (uint32)~CYDMA_POST_COMPLETE_
 2436              		.loc 1 1420 0 is_stmt 1
 2437 0028 7600     		lsl	r6, r6, #1
 2438              	.LVL243:
 2439 002a 3419     		add	r4, r6, r4
 2440              	.LVL244:
 2441 002c 2401     		lsl	r4, r4, #4
 2442 002e 054B     		ldr	r3, .L216+4
 2443 0030 9C46     		mov	ip, r3
 2444 0032 6444     		add	r4, r4, ip
 2445 0034 A268     		ldr	r2, [r4, #8]
 2446 0036 024B     		ldr	r3, .L216
 2447 0038 1340     		and	r3, r2
 2448              	.LVL245:
1421:Generated_Source\PSoC4/CyDMA.c ****     CYDMA_DESCR_BASE.descriptor[channel][descriptor].ctl = regValue | actions;
 2449              		.loc 1 1421 0
 2450 003a 1D43     		orr	r5, r3
 2451              	.LVL246:
 2452 003c A560     		str	r5, [r4, #8]
1422:Generated_Source\PSoC4/CyDMA.c **** }
 2453              		.loc 1 1422 0
ARM GAS  C:\Users\Greg\AppData\Local\Temp\ccTXpTtu.s 			page 70


 2454              		@ sp needed
 2455 003e 70BD     		pop	{r4, r5, r6, pc}
 2456              	.L217:
 2457              		.align	2
 2458              	.L216:
 2459 0040 FFFFFFD3 		.word	-738197505
 2460 0044 00181040 		.word	1074796544
 2461              		.cfi_endproc
 2462              	.LFE47:
 2463              		.size	CyDmaSetPostCompletionActions, .-CyDmaSetPostCompletionActions
 2464              		.section	.text.CyDmaGetPostCompletionActions,"ax",%progbits
 2465              		.align	2
 2466              		.global	CyDmaGetPostCompletionActions
 2467              		.code	16
 2468              		.thumb_func
 2469              		.type	CyDmaGetPostCompletionActions, %function
 2470              	CyDmaGetPostCompletionActions:
 2471              	.LFB48:
1423:Generated_Source\PSoC4/CyDMA.c **** 
1424:Generated_Source\PSoC4/CyDMA.c **** 
1425:Generated_Source\PSoC4/CyDMA.c **** /*******************************************************************************
1426:Generated_Source\PSoC4/CyDMA.c **** * Function Name: CyDmaGetPostCompletionActions
1427:Generated_Source\PSoC4/CyDMA.c **** ********************************************************************************
1428:Generated_Source\PSoC4/CyDMA.c **** *
1429:Generated_Source\PSoC4/CyDMA.c **** * Summary:
1430:Generated_Source\PSoC4/CyDMA.c **** *  Returns the post descriptor action settings as set by 
1431:Generated_Source\PSoC4/CyDMA.c **** *  CyDmaSetPostCompletionActions() or CyDmaSetConfiguration().
1432:Generated_Source\PSoC4/CyDMA.c **** *
1433:Generated_Source\PSoC4/CyDMA.c **** * Parameters:
1434:Generated_Source\PSoC4/CyDMA.c **** *  channel:    Channel used by this function.
1435:Generated_Source\PSoC4/CyDMA.c **** *  descriptor: Descriptor (0 or 1) modified by this function.
1436:Generated_Source\PSoC4/CyDMA.c **** *                   
1437:Generated_Source\PSoC4/CyDMA.c **** * Return:
1438:Generated_Source\PSoC4/CyDMA.c **** *  Post descriptor actions. Refer to the API bit field definitions in
1439:Generated_Source\PSoC4/CyDMA.c **** *  CyDMA_P4.h or the API description in the DMA channel datasheet for more
1440:Generated_Source\PSoC4/CyDMA.c **** *  information.
1441:Generated_Source\PSoC4/CyDMA.c **** *
1442:Generated_Source\PSoC4/CyDMA.c **** *******************************************************************************/
1443:Generated_Source\PSoC4/CyDMA.c **** uint32 CyDmaGetPostCompletionActions(int32 channel, int32 descriptor)
1444:Generated_Source\PSoC4/CyDMA.c **** {
 2472              		.loc 1 1444 0
 2473              		.cfi_startproc
 2474              	.LVL247:
 2475 0000 38B5     		push	{r3, r4, r5, lr}
 2476              		.cfi_def_cfa_offset 16
 2477              		.cfi_offset 3, -16
 2478              		.cfi_offset 4, -12
 2479              		.cfi_offset 5, -8
 2480              		.cfi_offset 14, -4
 2481 0002 051C     		mov	r5, r0
 2482 0004 0C1C     		mov	r4, r1
1445:Generated_Source\PSoC4/CyDMA.c ****     CYASSERT((channel    >= 0) && (channel    < CYDMA_CH_NR));
 2483              		.loc 1 1445 0
 2484 0006 0728     		cmp	r0, #7
 2485 0008 02D9     		bls	.L219
 2486              		.loc 1 1445 0 is_stmt 0 discriminator 1
 2487 000a 0020     		mov	r0, #0
ARM GAS  C:\Users\Greg\AppData\Local\Temp\ccTXpTtu.s 			page 71


 2488              	.LVL248:
 2489 000c FFF7FEFF 		bl	CyHalt
 2490              	.LVL249:
 2491              	.L219:
1446:Generated_Source\PSoC4/CyDMA.c ****     CYASSERT((descriptor >= 0) && (descriptor < CYDMA_DESCR_NR));
 2492              		.loc 1 1446 0 is_stmt 1
 2493 0010 012C     		cmp	r4, #1
 2494 0012 02D9     		bls	.L220
 2495              		.loc 1 1446 0 is_stmt 0 discriminator 1
 2496 0014 0020     		mov	r0, #0
 2497 0016 FFF7FEFF 		bl	CyHalt
 2498              	.LVL250:
 2499              	.L220:
1447:Generated_Source\PSoC4/CyDMA.c **** 
1448:Generated_Source\PSoC4/CyDMA.c ****     return (CYDMA_DESCR_BASE.descriptor[channel][descriptor].ctl & CYDMA_POST_COMPLETE_ACTIONS);
 2500              		.loc 1 1448 0 is_stmt 1
 2501 001a 6D00     		lsl	r5, r5, #1
 2502              	.LVL251:
 2503 001c 2C19     		add	r4, r5, r4
 2504              	.LVL252:
 2505 001e 2401     		lsl	r4, r4, #4
 2506 0020 034B     		ldr	r3, .L221
 2507 0022 9C46     		mov	ip, r3
 2508 0024 6444     		add	r4, r4, ip
 2509 0026 A068     		ldr	r0, [r4, #8]
 2510 0028 B023     		mov	r3, #176
 2511 002a 9B05     		lsl	r3, r3, #22
 2512 002c 1840     		and	r0, r3
1449:Generated_Source\PSoC4/CyDMA.c **** }
 2513              		.loc 1 1449 0
 2514              		@ sp needed
 2515 002e 38BD     		pop	{r3, r4, r5, pc}
 2516              	.L222:
 2517              		.align	2
 2518              	.L221:
 2519 0030 00181040 		.word	1074796544
 2520              		.cfi_endproc
 2521              	.LFE48:
 2522              		.size	CyDmaGetPostCompletionActions, .-CyDmaGetPostCompletionActions
 2523              		.data
 2524              		.align	2
 2525              		.set	.LANCHOR0,. + 0
 2526              		.type	CyDmaInterruptCallback, %object
 2527              		.size	CyDmaInterruptCallback, 32
 2528              	CyDmaInterruptCallback:
 2529 0000 00000000 		.word	CyDmaDefaultInterruptCallback
 2530 0004 00000000 		.word	CyDmaDefaultInterruptCallback
 2531 0008 00000000 		.word	CyDmaDefaultInterruptCallback
 2532 000c 00000000 		.word	CyDmaDefaultInterruptCallback
 2533 0010 00000000 		.word	CyDmaDefaultInterruptCallback
 2534 0014 00000000 		.word	CyDmaDefaultInterruptCallback
 2535 0018 00000000 		.word	CyDmaDefaultInterruptCallback
 2536 001c 00000000 		.word	CyDmaDefaultInterruptCallback
 2537              		.bss
 2538              		.align	2
 2539              		.set	.LANCHOR1,. + 0
 2540              		.type	initIntrVector.4912, %object
ARM GAS  C:\Users\Greg\AppData\Local\Temp\ccTXpTtu.s 			page 72


 2541              		.size	initIntrVector.4912, 1
 2542              	initIntrVector.4912:
 2543 0000 00       		.space	1
 2544 0001 000000   		.space	3
 2545              		.type	CyDmaChannelUsedMask, %object
 2546              		.size	CyDmaChannelUsedMask, 4
 2547              	CyDmaChannelUsedMask:
 2548 0004 00000000 		.space	4
 2549              		.text
 2550              	.Letext0:
 2551              		.file 2 "Generated_Source\\PSoC4\\cytypes.h"
 2552              		.file 3 "Generated_Source\\PSoC4\\CyDMA.h"
 2553              		.file 4 "Generated_Source\\PSoC4\\CyLib.h"