ARM GAS  C:\Users\Greg\AppData\Local\Temp\ccDdNMYe.s 			page 1


   1              		.cpu cortex-m0plus
   2              		.fpu softvfp
   3              		.eabi_attribute 20, 1
   4              		.eabi_attribute 21, 1
   5              		.eabi_attribute 23, 3
   6              		.eabi_attribute 24, 1
   7              		.eabi_attribute 25, 1
   8              		.eabi_attribute 26, 1
   9              		.eabi_attribute 30, 1
  10              		.eabi_attribute 34, 0
  11              		.eabi_attribute 18, 4
  12              		.code	16
  13              		.file	"main.c"
  14              		.text
  15              	.Ltext0:
  16              		.cfi_sections	.debug_frame
  17              		.section	.text.InitResources,"ax",%progbits
  18              		.align	2
  19              		.global	InitResources
  20              		.code	16
  21              		.thumb_func
  22              		.type	InitResources, %function
  23              	InitResources:
  24              	.LFB36:
  25              		.file 1 ".\\main.c"
   1:.\main.c      **** /******************************************************************************
   2:.\main.c      **** * Project Name      : CE211321_Temperature_Sensing
   3:.\main.c      **** * Version           : 1.0
   4:.\main.c      **** * Device Used       : CY8C4A45LQI-L483
   5:.\main.c      **** * Software Used     : PSoC Creator 3.3 CP3
   6:.\main.c      **** * Compiler Used     : ARM GCC 4.9.3 
   7:.\main.c      **** * Related Hardware  : CY8CKIT-048 PSoC Analog Coprocessor Pioneer Kit 
   8:.\main.c      **** *******************************************************************************
   9:.\main.c      **** * Copyright (2016), Cypress Semiconductor Corporation.
  10:.\main.c      **** *******************************************************************************
  11:.\main.c      **** * This software, including source code, documentation and related materials
  12:.\main.c      **** * ("Software") is owned by Cypress Semiconductor Corporation (Cypress) and is
  13:.\main.c      **** * protected by and subject to worldwide patent protection (United States and 
  14:.\main.c      **** * foreign), United States copyright laws and international treaty provisions. 
  15:.\main.c      **** * Cypress hereby grants to licensee a personal, non-exclusive, non-transferable
  16:.\main.c      **** * license to copy, use, modify, create derivative works of, and compile the 
  17:.\main.c      **** * Cypress source code and derivative works for the sole purpose of creating 
  18:.\main.c      **** * custom software in support of licensee product, such licensee product to be
  19:.\main.c      **** * used only in conjunction with Cypress's integrated circuit as specified in the
  20:.\main.c      **** * applicable agreement. Any reproduction, modification, translation, compilation,
  21:.\main.c      **** * or representation of this Software except as specified above is prohibited 
  22:.\main.c      **** * without the express written permission of Cypress.
  23:.\main.c      **** * 
  24:.\main.c      **** * Disclaimer: THIS SOFTWARE IS PROVIDED AS-IS, WITH NO WARRANTY OF ANY KIND, 
  25:.\main.c      **** * EXPRESS OR IMPLIED, INCLUDING, BUT NOT LIMITED TO, NONINFRINGEMENT, IMPLIED 
  26:.\main.c      **** * WARRANTIES OF MERCHANTABILITY AND FITNESS FOR A PARTICULAR PURPOSE.
  27:.\main.c      **** * Cypress reserves the right to make changes to the Software without notice. 
  28:.\main.c      **** * Cypress does not assume any liability arising out of the application or use
  29:.\main.c      **** * of Software or any product or circuit described in the Software. Cypress does
  30:.\main.c      **** * not authorize its products for use as critical components in any products 
  31:.\main.c      **** * where a malfunction or failure may reasonably be expected to result in 
  32:.\main.c      **** * significant injury or death ("ACTIVE Risk Product"). By including Cypress's 
ARM GAS  C:\Users\Greg\AppData\Local\Temp\ccDdNMYe.s 			page 2


  33:.\main.c      **** * product in a ACTIVE Risk Product, the manufacturer of such system or application
  34:.\main.c      **** * assumes all risk of such use and in doing so indemnifies Cypress against all
  35:.\main.c      **** * liability. Use of this Software may be limited by and subject to the applicable
  36:.\main.c      **** * Cypress software license agreement.
  37:.\main.c      **** *******************************************************************************/
  38:.\main.c      **** /*******************************************************************************
  39:.\main.c      **** * Theory of Operation: This code example demonstrates how to implement an analog 
  40:.\main.c      **** * front end (AFE) for a thermistor using the PSoC Analog Coprocessor. The measured 
  41:.\main.c      **** * thermistor resistance and the calculated temperature are sent over I2C. The RGB 
  42:.\main.c      **** * LED is controlled based on the calculated temperature value.
  43:.\main.c      **** *******************************************************************************/
  44:.\main.c      **** 
  45:.\main.c      **** /* Header File Includes */
  46:.\main.c      **** #include <project.h>
  47:.\main.c      **** 
  48:.\main.c      **** #define ADC_CHANNEL_VREF			(0u)
  49:.\main.c      **** #define ADC_CHANNEL_VTH				(1u)
  50:.\main.c      **** 
  51:.\main.c      **** /* IIR Filter coefficients for each signal */
  52:.\main.c      **** /* Cut off frequency = fs/(2 * pi * iir_filter_constant).  In this project fs ~= 1 ksps.
  53:.\main.c      **** This results in a cut-off frequency of 4.97 Hz.  We are using IIR filter as FIR requires 
  54:.\main.c      **** more order of filter to get the same cut-off frequency*/
  55:.\main.c      **** #define FILTER_COEFFICIENT_TEMPERATURE	(32u)
  56:.\main.c      **** /* EzI2C Read/Write Boundary */
  57:.\main.c      **** #define READ_WRITE_BOUNDARY         (0u)
  58:.\main.c      **** 
  59:.\main.c      **** /* Structure that holds the temperature sensor (thermistor) data                 */
  60:.\main.c      **** /* Use __attribute__((packed)) for GCC and MDK compilers to pack structures      */
  61:.\main.c      **** /* For other compilers use the corresponding directive.                          */
  62:.\main.c      **** /* For example, for IAR use the following directive                              */
  63:.\main.c      **** /* typedef __packed struct {..}struct_name;                                      */
  64:.\main.c      **** typedef struct __attribute__((packed))
  65:.\main.c      **** {
  66:.\main.c      **** 	int16 Vth;					/* Voltage across thermistor */
  67:.\main.c      **** 	uint16 Rth;					/* Thermistor resistance */
  68:.\main.c      **** 	int16 temperature;			/* Measured temperature */
  69:.\main.c      **** }temperature_sensor_data;
  70:.\main.c      **** 
  71:.\main.c      **** /* Function Prototypes */
  72:.\main.c      **** void InitResources(void);
  73:.\main.c      **** 
  74:.\main.c      **** /* Declare the i2cBuffer to exchange sensor data between Bridge Control 
  75:.\main.c      **** Panel (BCP) and PSoC Analog Coprocessor */
  76:.\main.c      **** temperature_sensor_data i2cBuffer = {0, 0, 0};
  77:.\main.c      **** 
  78:.\main.c      **** /*******************************************************************************
  79:.\main.c      **** * Function Name: main
  80:.\main.c      **** ********************************************************************************
  81:.\main.c      **** *
  82:.\main.c      **** * Summary:
  83:.\main.c      **** *  This function initializes all the resources, and in an infinite loop, measures the temperature f
  84:.\main.c      **** *  readings and to send the data over I2C.
  85:.\main.c      **** *
  86:.\main.c      **** * Parameters:
  87:.\main.c      **** *  None
  88:.\main.c      **** *
  89:.\main.c      **** * Return:
ARM GAS  C:\Users\Greg\AppData\Local\Temp\ccDdNMYe.s 			page 3


  90:.\main.c      **** *  int
  91:.\main.c      **** *
  92:.\main.c      **** * Side Effects:
  93:.\main.c      **** *   None
  94:.\main.c      **** *******************************************************************************/
  95:.\main.c      **** int main()
  96:.\main.c      **** {
  97:.\main.c      **** 
  98:.\main.c      ****     /* Variables to hold the the ADC readings */
  99:.\main.c      ****     int16 adcResultVREF, adcResultVTH;
 100:.\main.c      ****     
 101:.\main.c      ****     /* Filter input and output variables for Vref and Vth measurements */
 102:.\main.c      ****     int16 filterOutputVref=0;
 103:.\main.c      ****     int16 filterOutputVth=0;
 104:.\main.c      ****     
 105:.\main.c      ****     /* Variables to hold calculated resistance and temperature */
 106:.\main.c      ****     int16 thermistorResistance, temperature;
 107:.\main.c      ****     
 108:.\main.c      ****     /* Variable to store the status returned by CyEnterCriticalSection()*/
 109:.\main.c      ****     uint8 interruptState = 0;
 110:.\main.c      ****     
 111:.\main.c      ****     /* Enable global interrupts */
 112:.\main.c      ****     CyGlobalIntEnable;
 113:.\main.c      ****     
 114:.\main.c      ****     /* Initialize hardware resources */
 115:.\main.c      ****     InitResources();
 116:.\main.c      **** 
 117:.\main.c      ****     /* Infinite Loop */
 118:.\main.c      ****     for(;;)
 119:.\main.c      ****     {
 120:.\main.c      ****         /* Green LED driven from P0_3 (Arduino A1) */
 121:.\main.c      ****         GreenLED_Write(~P0_3_Read());
 122:.\main.c      ****         
 123:.\main.c      ****         /* Check if the ADC data is ready */
 124:.\main.c      ****         if(ADC_IsEndConversion(ADC_RETURN_STATUS))
 125:.\main.c      ****         {
 126:.\main.c      ****             /* Read the ADC result for reference and thermistor voltages */
 127:.\main.c      ****             adcResultVREF = ADC_GetResult16(ADC_CHANNEL_VREF);
 128:.\main.c      ****             adcResultVTH = ADC_GetResult16(ADC_CHANNEL_VTH);
 129:.\main.c      ****             
 130:.\main.c      ****             /* Low pass filter the measured ADC counts of Vref */            
 131:.\main.c      ****             filterOutputVref = (adcResultVREF + (FILTER_COEFFICIENT_TEMPERATURE - 1) * filterOutput
 132:.\main.c      ****                     
 133:.\main.c      ****             /* Low pass filter the measured ADC counts of Vth */         
 134:.\main.c      ****             filterOutputVth = (adcResultVTH + (FILTER_COEFFICIENT_TEMPERATURE - 1) * filterOutputVt
 135:.\main.c      ****                         
 136:.\main.c      ****             /* Calculate thermistor resistance */
 137:.\main.c      ****             thermistorResistance = Thermistor_GetResistance(filterOutputVref, filterOutputVth);    
 138:.\main.c      ****             
 139:.\main.c      ****             /* Calculate temperature in degree Celsius using the Component API */
 140:.\main.c      ****             temperature = Thermistor_GetTemperature(thermistorResistance);
 141:.\main.c      ****                        
 142:.\main.c      **** 			/* Enter critical section to check if I2C bus is busy or not */
 143:.\main.c      ****             interruptState = CyEnterCriticalSection();
 144:.\main.c      ****             
 145:.\main.c      ****         	if(!(EZI2C_EzI2CGetActivity() & EZI2C_EZI2C_STATUS_BUSY))
 146:.\main.c      ****         	{
ARM GAS  C:\Users\Greg\AppData\Local\Temp\ccDdNMYe.s 			page 4


 147:.\main.c      ****                 /* Update I2C Buffer */
 148:.\main.c      ****                 i2cBuffer.Rth = thermistorResistance;
 149:.\main.c      ****                 i2cBuffer.temperature = temperature;
 150:.\main.c      ****                 i2cBuffer.Vth = filterOutputVth;
 151:.\main.c      ****             }
 152:.\main.c      **** 			
 153:.\main.c      **** 			/* Exit critical section */
 154:.\main.c      ****             CyExitCriticalSection(interruptState);
 155:.\main.c      ****         }
 156:.\main.c      ****     }
 157:.\main.c      **** }
 158:.\main.c      **** 
 159:.\main.c      **** /*******************************************************************************
 160:.\main.c      **** * Function Name: void InitResources(void)
 161:.\main.c      **** ********************************************************************************
 162:.\main.c      **** *
 163:.\main.c      **** * Summary:
 164:.\main.c      **** *  This function initializes all the hardware resources
 165:.\main.c      **** *
 166:.\main.c      **** * Parameters:
 167:.\main.c      **** *  None
 168:.\main.c      **** *
 169:.\main.c      **** * Return:
 170:.\main.c      **** *  None
 171:.\main.c      **** *
 172:.\main.c      **** * Side Effects:
 173:.\main.c      **** *   None
 174:.\main.c      **** *******************************************************************************/
 175:.\main.c      **** void InitResources(void)
 176:.\main.c      **** {
  26              		.loc 1 176 0
  27              		.cfi_startproc
  28 0000 08B5     		push	{r3, lr}
  29              		.cfi_def_cfa_offset 8
  30              		.cfi_offset 3, -8
  31              		.cfi_offset 14, -4
 177:.\main.c      ****     /* Start EZI2C Slave Component and initialize buffer */
 178:.\main.c      ****     EZI2C_Start();
  32              		.loc 1 178 0
  33 0002 FFF7FEFF 		bl	EZI2C_Start
  34              	.LVL0:
 179:.\main.c      ****     EZI2C_EzI2CSetBuffer1(sizeof(i2cBuffer), READ_WRITE_BOUNDARY, (uint8 *)&i2cBuffer);
  35              		.loc 1 179 0
  36 0006 0620     		mov	r0, #6
  37 0008 0021     		mov	r1, #0
  38 000a 074A     		ldr	r2, .L2
  39 000c FFF7FEFF 		bl	EZI2C_EzI2CSetBuffer1
  40              	.LVL1:
 180:.\main.c      ****         
 181:.\main.c      ****     /* Start the Scanning SAR ADC Component and start conversion */
 182:.\main.c      ****     ADC_Start();
  41              		.loc 1 182 0
  42 0010 FFF7FEFF 		bl	ADC_Start
  43              	.LVL2:
 183:.\main.c      ****     ADC_StartConvert();
  44              		.loc 1 183 0
  45 0014 FFF7FEFF 		bl	ADC_StartConvert
ARM GAS  C:\Users\Greg\AppData\Local\Temp\ccDdNMYe.s 			page 5


  46              	.LVL3:
 184:.\main.c      ****     
 185:.\main.c      ****     /* Start Reference buffer */
 186:.\main.c      ****     VrefBuffer_Start();
  47              		.loc 1 186 0
  48 0018 FFF7FEFF 		bl	VrefBuffer_Start
  49              	.LVL4:
 187:.\main.c      ****     
 188:.\main.c      ****     /* Start Programmable Voltage Reference */
 189:.\main.c      ****     PVref_Start();
  50              		.loc 1 189 0
  51 001c FFF7FEFF 		bl	PVref_Start
  52              	.LVL5:
 190:.\main.c      ****     
 191:.\main.c      ****     /* Enable Programmable Voltage Reference */
 192:.\main.c      ****     PVref_Enable();
  53              		.loc 1 192 0
  54 0020 FFF7FEFF 		bl	PVref_Enable
  55              	.LVL6:
 193:.\main.c      **** }
  56              		.loc 1 193 0
  57              		@ sp needed
  58 0024 08BD     		pop	{r3, pc}
  59              	.L3:
  60 0026 C046     		.align	2
  61              	.L2:
  62 0028 00000000 		.word	.LANCHOR0
  63              		.cfi_endproc
  64              	.LFE36:
  65              		.size	InitResources, .-InitResources
  66              		.section	.text.main,"ax",%progbits
  67              		.align	2
  68              		.global	main
  69              		.code	16
  70              		.thumb_func
  71              		.type	main, %function
  72              	main:
  73              	.LFB35:
  96:.\main.c      **** 
  74              		.loc 1 96 0
  75              		.cfi_startproc
  76 0000 F0B5     		push	{r4, r5, r6, r7, lr}
  77              		.cfi_def_cfa_offset 20
  78              		.cfi_offset 4, -20
  79              		.cfi_offset 5, -16
  80              		.cfi_offset 6, -12
  81              		.cfi_offset 7, -8
  82              		.cfi_offset 14, -4
  83 0002 83B0     		sub	sp, sp, #12
  84              		.cfi_def_cfa_offset 32
  85              	.LVL7:
 112:.\main.c      ****     
  86              		.loc 1 112 0
  87              	@ 112 ".\main.c" 1
  88 0004 62B6     		CPSIE   i
  89              	@ 0 "" 2
 115:.\main.c      **** 
ARM GAS  C:\Users\Greg\AppData\Local\Temp\ccDdNMYe.s 			page 6


  90              		.loc 1 115 0
  91              		.code	16
  92 0006 FFF7FEFF 		bl	InitResources
  93              	.LVL8:
 103:.\main.c      ****     
  94              		.loc 1 103 0
  95 000a 0024     		mov	r4, #0
 102:.\main.c      ****     int16 filterOutputVth=0;
  96              		.loc 1 102 0
  97 000c 0026     		mov	r6, #0
  98              	.LVL9:
  99              	.L5:
 121:.\main.c      ****         
 100              		.loc 1 121 0
 101 000e FFF7FEFF 		bl	P0_3_Read
 102              	.LVL10:
 103 0012 C043     		mvn	r0, r0
 104 0014 C0B2     		uxtb	r0, r0
 105 0016 FFF7FEFF 		bl	GreenLED_Write
 106              	.LVL11:
 124:.\main.c      ****         {
 107              		.loc 1 124 0
 108 001a 0120     		mov	r0, #1
 109 001c FFF7FEFF 		bl	ADC_IsEndConversion
 110              	.LVL12:
 111 0020 B6B2     		uxth	r6, r6
 112 0022 A4B2     		uxth	r4, r4
 113 0024 0028     		cmp	r0, #0
 114 0026 F2D0     		beq	.L5
 127:.\main.c      ****             adcResultVTH = ADC_GetResult16(ADC_CHANNEL_VTH);
 115              		.loc 1 127 0
 116 0028 0020     		mov	r0, #0
 117 002a FFF7FEFF 		bl	ADC_GetResult16
 118              	.LVL13:
 119 002e 051C     		mov	r5, r0
 120              	.LVL14:
 128:.\main.c      ****             
 121              		.loc 1 128 0
 122 0030 0120     		mov	r0, #1
 123 0032 FFF7FEFF 		bl	ADC_GetResult16
 124              	.LVL15:
 131:.\main.c      ****                     
 125              		.loc 1 131 0
 126 0036 32B2     		sxth	r2, r6
 127 0038 5301     		lsl	r3, r2, #5
 128 003a 9B1A     		sub	r3, r3, r2
 129 003c EB18     		add	r3, r5, r3
 130 003e 5B09     		lsr	r3, r3, #5
 131 0040 9EB2     		uxth	r6, r3
 132              	.LVL16:
 134:.\main.c      ****                         
 133              		.loc 1 134 0
 134 0042 24B2     		sxth	r4, r4
 135              	.LVL17:
 136 0044 6301     		lsl	r3, r4, #5
 137 0046 1C1B     		sub	r4, r3, r4
 138 0048 0419     		add	r4, r0, r4
ARM GAS  C:\Users\Greg\AppData\Local\Temp\ccDdNMYe.s 			page 7


 139 004a 6409     		lsr	r4, r4, #5
 140 004c A4B2     		uxth	r4, r4
 141              	.LVL18:
 137:.\main.c      ****             
 142              		.loc 1 137 0
 143 004e 30B2     		sxth	r0, r6
 144              	.LVL19:
 145 0050 21B2     		sxth	r1, r4
 146 0052 FFF7FEFF 		bl	Thermistor_GetResistance
 147              	.LVL20:
 148 0056 051C     		mov	r5, r0
 149              	.LVL21:
 140:.\main.c      ****                        
 150              		.loc 1 140 0
 151 0058 00B2     		sxth	r0, r0
 152 005a FFF7FEFF 		bl	Thermistor_GetTemperature
 153              	.LVL22:
 154 005e 071C     		mov	r7, r0
 155              	.LVL23:
 143:.\main.c      ****             
 156              		.loc 1 143 0
 157 0060 FFF7FEFF 		bl	CyEnterCriticalSection
 158              	.LVL24:
 159 0064 0190     		str	r0, [sp, #4]
 160              	.LVL25:
 145:.\main.c      ****         	{
 161              		.loc 1 145 0
 162 0066 FFF7FEFF 		bl	EZI2C_EzI2CGetActivity
 163              	.LVL26:
 164 006a 8306     		lsl	r3, r0, #26
 165 006c 03D4     		bmi	.L6
 148:.\main.c      ****                 i2cBuffer.temperature = temperature;
 166              		.loc 1 148 0
 167 006e 044B     		ldr	r3, .L8
 168 0070 5D80     		strh	r5, [r3, #2]
 149:.\main.c      ****                 i2cBuffer.Vth = filterOutputVth;
 169              		.loc 1 149 0
 170 0072 9F80     		strh	r7, [r3, #4]
 150:.\main.c      ****             }
 171              		.loc 1 150 0
 172 0074 1C80     		strh	r4, [r3]
 173              	.L6:
 154:.\main.c      ****         }
 174              		.loc 1 154 0
 175 0076 0198     		ldr	r0, [sp, #4]
 176 0078 FFF7FEFF 		bl	CyExitCriticalSection
 177              	.LVL27:
 178 007c C7E7     		b	.L5
 179              	.L9:
 180 007e C046     		.align	2
 181              	.L8:
 182 0080 00000000 		.word	.LANCHOR0
 183              		.cfi_endproc
 184              	.LFE35:
 185              		.size	main, .-main
 186              		.global	i2cBuffer
 187              		.bss
ARM GAS  C:\Users\Greg\AppData\Local\Temp\ccDdNMYe.s 			page 8


 188              		.align	2
 189              		.set	.LANCHOR0,. + 0
 190              		.type	i2cBuffer, %object
 191              		.size	i2cBuffer, 6
 192              	i2cBuffer:
 193 0000 00000000 		.space	6
 193      0000
 194 0006 0000     		.text
 195              	.Letext0:
 196              		.file 2 "Generated_Source\\PSoC4/cytypes.h"
 197              		.file 3 "Generated_Source\\PSoC4/EZI2C.h"
 198              		.file 4 "Generated_Source\\PSoC4/ADC.h"
 199              		.file 5 "Generated_Source\\PSoC4/VrefBuffer.h"
 200              		.file 6 "Generated_Source\\PSoC4/PVref.h"
 201              		.file 7 "Generated_Source\\PSoC4/EZI2C_EZI2C.h"
 202              		.file 8 "Generated_Source\\PSoC4/GreenLED.h"
 203              		.file 9 "Generated_Source\\PSoC4/Thermistor.h"
 204              		.file 10 "Generated_Source\\PSoC4/P0_3.h"
 205              		.file 11 "Generated_Source\\PSoC4/CyLib.h"