ARM GAS  C:\Users\Alan\AppData\Local\Temp\ccFUMGJh.s 			page 1


   1              		.syntax unified
   2              		.cpu cortex-m0
   3              		.fpu softvfp
   4              		.eabi_attribute 20, 1
   5              		.eabi_attribute 21, 1
   6              		.eabi_attribute 23, 3
   7              		.eabi_attribute 24, 1
   8              		.eabi_attribute 25, 1
   9              		.eabi_attribute 26, 1
  10              		.eabi_attribute 30, 1
  11              		.eabi_attribute 34, 0
  12              		.eabi_attribute 18, 4
  13              		.thumb
  14              		.syntax unified
  15              		.file	"ADC_PM.c"
  16              		.text
  17              	.Ltext0:
  18              		.cfi_sections	.debug_frame
  19              		.section	.text.ADC_SaveConfig,"ax",%progbits
  20              		.align	2
  21              		.global	ADC_SaveConfig
  22              		.code	16
  23              		.thumb_func
  24              		.type	ADC_SaveConfig, %function
  25              	ADC_SaveConfig:
  26              	.LFB1:
  27              		.file 1 "Generated_Source\\PSoC4\\ADC_PM.c"
   1:Generated_Source\PSoC4/ADC_PM.c **** /*******************************************************************************
   2:Generated_Source\PSoC4/ADC_PM.c **** * File Name: ADC_PM.c
   3:Generated_Source\PSoC4/ADC_PM.c **** * Version 2.40
   4:Generated_Source\PSoC4/ADC_PM.c **** *
   5:Generated_Source\PSoC4/ADC_PM.c **** * Description:
   6:Generated_Source\PSoC4/ADC_PM.c **** *  This file provides Sleep/WakeUp APIs functionality.
   7:Generated_Source\PSoC4/ADC_PM.c **** *
   8:Generated_Source\PSoC4/ADC_PM.c **** * Note:
   9:Generated_Source\PSoC4/ADC_PM.c **** *
  10:Generated_Source\PSoC4/ADC_PM.c **** ********************************************************************************
  11:Generated_Source\PSoC4/ADC_PM.c **** * Copyright 2008-2015, Cypress Semiconductor Corporation.  All rights reserved.
  12:Generated_Source\PSoC4/ADC_PM.c **** * You may use this file only in accordance with the license, terms, conditions,
  13:Generated_Source\PSoC4/ADC_PM.c **** * disclaimers, and limitations in the end user license agreement accompanying
  14:Generated_Source\PSoC4/ADC_PM.c **** * the software package with which this file was provided.
  15:Generated_Source\PSoC4/ADC_PM.c **** *******************************************************************************/
  16:Generated_Source\PSoC4/ADC_PM.c **** 
  17:Generated_Source\PSoC4/ADC_PM.c **** #include "ADC.h"
  18:Generated_Source\PSoC4/ADC_PM.c **** 
  19:Generated_Source\PSoC4/ADC_PM.c **** 
  20:Generated_Source\PSoC4/ADC_PM.c **** /***************************************
  21:Generated_Source\PSoC4/ADC_PM.c **** * Local data allocation
  22:Generated_Source\PSoC4/ADC_PM.c **** ***************************************/
  23:Generated_Source\PSoC4/ADC_PM.c **** 
  24:Generated_Source\PSoC4/ADC_PM.c **** static ADC_BACKUP_STRUCT  ADC_backup =
  25:Generated_Source\PSoC4/ADC_PM.c **** {
  26:Generated_Source\PSoC4/ADC_PM.c ****     ADC_DISABLED
  27:Generated_Source\PSoC4/ADC_PM.c **** };
  28:Generated_Source\PSoC4/ADC_PM.c **** 
  29:Generated_Source\PSoC4/ADC_PM.c **** 
  30:Generated_Source\PSoC4/ADC_PM.c **** /*******************************************************************************
ARM GAS  C:\Users\Alan\AppData\Local\Temp\ccFUMGJh.s 			page 2


  31:Generated_Source\PSoC4/ADC_PM.c **** * Function Name: ADC_SaveConfig
  32:Generated_Source\PSoC4/ADC_PM.c **** ********************************************************************************
  33:Generated_Source\PSoC4/ADC_PM.c **** *
  34:Generated_Source\PSoC4/ADC_PM.c **** * Summary:
  35:Generated_Source\PSoC4/ADC_PM.c **** *  Saves the current user configuration.
  36:Generated_Source\PSoC4/ADC_PM.c **** *
  37:Generated_Source\PSoC4/ADC_PM.c **** * Parameters:
  38:Generated_Source\PSoC4/ADC_PM.c **** *  None.
  39:Generated_Source\PSoC4/ADC_PM.c **** *
  40:Generated_Source\PSoC4/ADC_PM.c **** * Return:
  41:Generated_Source\PSoC4/ADC_PM.c **** *  None.
  42:Generated_Source\PSoC4/ADC_PM.c **** *
  43:Generated_Source\PSoC4/ADC_PM.c **** *******************************************************************************/
  44:Generated_Source\PSoC4/ADC_PM.c **** void ADC_SaveConfig(void)
  45:Generated_Source\PSoC4/ADC_PM.c **** {
  28              		.loc 1 45 0
  29              		.cfi_startproc
  30              		@ args = 0, pretend = 0, frame = 0
  31              		@ frame_needed = 0, uses_anonymous_args = 0
  32              		@ link register save eliminated.
  46:Generated_Source\PSoC4/ADC_PM.c ****     /* All configuration registers are marked as [reset_all_retention] */
  47:Generated_Source\PSoC4/ADC_PM.c **** }
  33              		.loc 1 47 0
  34              		@ sp needed
  35 0000 7047     		bx	lr
  36              		.cfi_endproc
  37              	.LFE1:
  38              		.size	ADC_SaveConfig, .-ADC_SaveConfig
  39 0002 C046     		.section	.text.ADC_RestoreConfig,"ax",%progbits
  40              		.align	2
  41              		.global	ADC_RestoreConfig
  42              		.code	16
  43              		.thumb_func
  44              		.type	ADC_RestoreConfig, %function
  45              	ADC_RestoreConfig:
  46              	.LFB2:
  48:Generated_Source\PSoC4/ADC_PM.c **** 
  49:Generated_Source\PSoC4/ADC_PM.c **** 
  50:Generated_Source\PSoC4/ADC_PM.c **** /*******************************************************************************
  51:Generated_Source\PSoC4/ADC_PM.c **** * Function Name: ADC_RestoreConfig
  52:Generated_Source\PSoC4/ADC_PM.c **** ********************************************************************************
  53:Generated_Source\PSoC4/ADC_PM.c **** *
  54:Generated_Source\PSoC4/ADC_PM.c **** * Summary:
  55:Generated_Source\PSoC4/ADC_PM.c **** *  Restores the current user configuration.
  56:Generated_Source\PSoC4/ADC_PM.c **** *
  57:Generated_Source\PSoC4/ADC_PM.c **** * Parameters:
  58:Generated_Source\PSoC4/ADC_PM.c **** *  None.
  59:Generated_Source\PSoC4/ADC_PM.c **** *
  60:Generated_Source\PSoC4/ADC_PM.c **** * Return:
  61:Generated_Source\PSoC4/ADC_PM.c **** *  None.
  62:Generated_Source\PSoC4/ADC_PM.c **** *
  63:Generated_Source\PSoC4/ADC_PM.c **** *******************************************************************************/
  64:Generated_Source\PSoC4/ADC_PM.c **** void ADC_RestoreConfig(void)
  65:Generated_Source\PSoC4/ADC_PM.c **** {
  47              		.loc 1 65 0
  48              		.cfi_startproc
  49              		@ args = 0, pretend = 0, frame = 0
ARM GAS  C:\Users\Alan\AppData\Local\Temp\ccFUMGJh.s 			page 3


  50              		@ frame_needed = 0, uses_anonymous_args = 0
  51              		@ link register save eliminated.
  66:Generated_Source\PSoC4/ADC_PM.c ****     /* All congiguration registers are marked as [reset_all_retention] */
  67:Generated_Source\PSoC4/ADC_PM.c **** }
  52              		.loc 1 67 0
  53              		@ sp needed
  54 0000 7047     		bx	lr
  55              		.cfi_endproc
  56              	.LFE2:
  57              		.size	ADC_RestoreConfig, .-ADC_RestoreConfig
  58 0002 C046     		.section	.text.ADC_Sleep,"ax",%progbits
  59              		.align	2
  60              		.global	ADC_Sleep
  61              		.code	16
  62              		.thumb_func
  63              		.type	ADC_Sleep, %function
  64              	ADC_Sleep:
  65              	.LFB3:
  68:Generated_Source\PSoC4/ADC_PM.c **** 
  69:Generated_Source\PSoC4/ADC_PM.c **** 
  70:Generated_Source\PSoC4/ADC_PM.c **** /*******************************************************************************
  71:Generated_Source\PSoC4/ADC_PM.c **** * Function Name: ADC_Sleep
  72:Generated_Source\PSoC4/ADC_PM.c **** ********************************************************************************
  73:Generated_Source\PSoC4/ADC_PM.c **** *
  74:Generated_Source\PSoC4/ADC_PM.c **** * Summary:
  75:Generated_Source\PSoC4/ADC_PM.c **** *  Stops the ADC operation and saves the configuration registers and component
  76:Generated_Source\PSoC4/ADC_PM.c **** *  enable state. Should be called just prior to entering sleep.
  77:Generated_Source\PSoC4/ADC_PM.c **** *
  78:Generated_Source\PSoC4/ADC_PM.c **** * Parameters:
  79:Generated_Source\PSoC4/ADC_PM.c **** *  None.
  80:Generated_Source\PSoC4/ADC_PM.c **** *
  81:Generated_Source\PSoC4/ADC_PM.c **** * Return:
  82:Generated_Source\PSoC4/ADC_PM.c **** *  None.
  83:Generated_Source\PSoC4/ADC_PM.c **** *
  84:Generated_Source\PSoC4/ADC_PM.c **** * Global Variables:
  85:Generated_Source\PSoC4/ADC_PM.c **** *  ADC_backup - modified.
  86:Generated_Source\PSoC4/ADC_PM.c **** *
  87:Generated_Source\PSoC4/ADC_PM.c **** *******************************************************************************/
  88:Generated_Source\PSoC4/ADC_PM.c **** void ADC_Sleep(void)
  89:Generated_Source\PSoC4/ADC_PM.c **** {
  66              		.loc 1 89 0
  67              		.cfi_startproc
  68              		@ args = 0, pretend = 0, frame = 0
  69              		@ frame_needed = 0, uses_anonymous_args = 0
  70 0000 10B5     		push	{r4, lr}
  71              		.cfi_def_cfa_offset 8
  72              		.cfi_offset 4, -8
  73              		.cfi_offset 14, -4
  90:Generated_Source\PSoC4/ADC_PM.c ****     /* During deepsleep/ hibernate mode keep SARMUX active, i.e. do not open
  91:Generated_Source\PSoC4/ADC_PM.c ****     *   all switches (disconnect), to be used for ADFT
  92:Generated_Source\PSoC4/ADC_PM.c ****     */
  93:Generated_Source\PSoC4/ADC_PM.c ****     ADC_SAR_DFT_CTRL_REG |= ADC_ADFT_OVERRIDE;
  74              		.loc 1 93 0
  75 0002 164A     		ldr	r2, .L8
  76 0004 1368     		ldr	r3, [r2]
  77 0006 8021     		movs	r1, #128
  78 0008 0906     		lsls	r1, r1, #24
ARM GAS  C:\Users\Alan\AppData\Local\Temp\ccFUMGJh.s 			page 4


  79 000a 0B43     		orrs	r3, r1
  80 000c 1360     		str	r3, [r2]
  94:Generated_Source\PSoC4/ADC_PM.c ****     if((ADC_SAR_CTRL_REG  & ADC_ENABLE) != 0u)
  81              		.loc 1 94 0
  82 000e 144B     		ldr	r3, .L8+4
  83 0010 1B68     		ldr	r3, [r3]
  84 0012 002B     		cmp	r3, #0
  85 0014 1DDA     		bge	.L4
  95:Generated_Source\PSoC4/ADC_PM.c ****     {
  96:Generated_Source\PSoC4/ADC_PM.c ****         if((ADC_SAR_SAMPLE_CTRL_REG & ADC_CONTINUOUS_EN) != 0u)
  86              		.loc 1 96 0
  87 0016 134B     		ldr	r3, .L8+8
  88 0018 1B68     		ldr	r3, [r3]
  89 001a DB03     		lsls	r3, r3, #15
  90 001c 03D5     		bpl	.L5
  97:Generated_Source\PSoC4/ADC_PM.c ****         {
  98:Generated_Source\PSoC4/ADC_PM.c ****             ADC_backup.enableState = ADC_ENABLED | ADC_STARTED;
  91              		.loc 1 98 0
  92 001e 0322     		movs	r2, #3
  93 0020 114B     		ldr	r3, .L8+12
  94 0022 1A70     		strb	r2, [r3]
  95 0024 02E0     		b	.L6
  96              	.L5:
  99:Generated_Source\PSoC4/ADC_PM.c ****         }
 100:Generated_Source\PSoC4/ADC_PM.c ****         else
 101:Generated_Source\PSoC4/ADC_PM.c ****         {
 102:Generated_Source\PSoC4/ADC_PM.c ****             ADC_backup.enableState = ADC_ENABLED;
  97              		.loc 1 102 0
  98 0026 0122     		movs	r2, #1
  99 0028 0F4B     		ldr	r3, .L8+12
 100 002a 1A70     		strb	r2, [r3]
 101              	.L6:
 103:Generated_Source\PSoC4/ADC_PM.c ****         }
 104:Generated_Source\PSoC4/ADC_PM.c ****         ADC_StopConvert();
 102              		.loc 1 104 0
 103 002c FFF7FEFF 		bl	ADC_StopConvert
 104              	.LVL0:
 105:Generated_Source\PSoC4/ADC_PM.c ****         ADC_Stop();
 105              		.loc 1 105 0
 106 0030 FFF7FEFF 		bl	ADC_Stop
 107              	.LVL1:
 106:Generated_Source\PSoC4/ADC_PM.c ****         
 107:Generated_Source\PSoC4/ADC_PM.c ****         /* Disable the SAR internal pump before entering the chip low power mode */
 108:Generated_Source\PSoC4/ADC_PM.c ****         if((ADC_SAR_CTRL_REG & ADC_BOOSTPUMP_EN) != 0u)
 108              		.loc 1 108 0
 109 0034 0A4B     		ldr	r3, .L8+4
 110 0036 1B68     		ldr	r3, [r3]
 111 0038 DB02     		lsls	r3, r3, #11
 112 003a 0DD5     		bpl	.L3
 109:Generated_Source\PSoC4/ADC_PM.c ****         {
 110:Generated_Source\PSoC4/ADC_PM.c ****             ADC_SAR_CTRL_REG &= (uint32)~ADC_BOOSTPUMP_EN;
 113              		.loc 1 110 0
 114 003c 084A     		ldr	r2, .L8+4
 115 003e 1168     		ldr	r1, [r2]
 116 0040 0A4B     		ldr	r3, .L8+16
 117 0042 0B40     		ands	r3, r1
 118 0044 1360     		str	r3, [r2]
ARM GAS  C:\Users\Alan\AppData\Local\Temp\ccFUMGJh.s 			page 5


 111:Generated_Source\PSoC4/ADC_PM.c ****             ADC_backup.enableState |= ADC_BOOSTPUMP_ENABLED;
 119              		.loc 1 111 0
 120 0046 084A     		ldr	r2, .L8+12
 121 0048 1178     		ldrb	r1, [r2]
 122 004a 0423     		movs	r3, #4
 123 004c 0B43     		orrs	r3, r1
 124 004e 1370     		strb	r3, [r2]
 125 0050 02E0     		b	.L3
 126              	.L4:
 112:Generated_Source\PSoC4/ADC_PM.c ****         }
 113:Generated_Source\PSoC4/ADC_PM.c ****     }
 114:Generated_Source\PSoC4/ADC_PM.c ****     else
 115:Generated_Source\PSoC4/ADC_PM.c ****     {
 116:Generated_Source\PSoC4/ADC_PM.c ****         ADC_backup.enableState = ADC_DISABLED;
 127              		.loc 1 116 0
 128 0052 0022     		movs	r2, #0
 129 0054 044B     		ldr	r3, .L8+12
 130 0056 1A70     		strb	r2, [r3]
 131              	.L3:
 117:Generated_Source\PSoC4/ADC_PM.c ****     }
 118:Generated_Source\PSoC4/ADC_PM.c **** }
 132              		.loc 1 118 0
 133              		@ sp needed
 134 0058 10BD     		pop	{r4, pc}
 135              	.L9:
 136 005a C046     		.align	2
 137              	.L8:
 138 005c 30003A40 		.word	1077542960
 139 0060 00003A40 		.word	1077542912
 140 0064 04003A40 		.word	1077542916
 141 0068 00000000 		.word	.LANCHOR0
 142 006c FFFFEFFF 		.word	-1048577
 143              		.cfi_endproc
 144              	.LFE3:
 145              		.size	ADC_Sleep, .-ADC_Sleep
 146              		.section	.text.ADC_Wakeup,"ax",%progbits
 147              		.align	2
 148              		.global	ADC_Wakeup
 149              		.code	16
 150              		.thumb_func
 151              		.type	ADC_Wakeup, %function
 152              	ADC_Wakeup:
 153              	.LFB4:
 119:Generated_Source\PSoC4/ADC_PM.c **** 
 120:Generated_Source\PSoC4/ADC_PM.c **** 
 121:Generated_Source\PSoC4/ADC_PM.c **** /*******************************************************************************
 122:Generated_Source\PSoC4/ADC_PM.c **** * Function Name: ADC_Wakeup
 123:Generated_Source\PSoC4/ADC_PM.c **** ********************************************************************************
 124:Generated_Source\PSoC4/ADC_PM.c **** *
 125:Generated_Source\PSoC4/ADC_PM.c **** * Summary:
 126:Generated_Source\PSoC4/ADC_PM.c **** *  Restores the component enable state and configuration registers.
 127:Generated_Source\PSoC4/ADC_PM.c **** *  This should be called just after awaking from sleep mode.
 128:Generated_Source\PSoC4/ADC_PM.c **** *
 129:Generated_Source\PSoC4/ADC_PM.c **** * Parameters:
 130:Generated_Source\PSoC4/ADC_PM.c **** *  None.
 131:Generated_Source\PSoC4/ADC_PM.c **** *
 132:Generated_Source\PSoC4/ADC_PM.c **** * Return:
ARM GAS  C:\Users\Alan\AppData\Local\Temp\ccFUMGJh.s 			page 6


 133:Generated_Source\PSoC4/ADC_PM.c **** *  None.
 134:Generated_Source\PSoC4/ADC_PM.c **** *
 135:Generated_Source\PSoC4/ADC_PM.c **** * Global Variables:
 136:Generated_Source\PSoC4/ADC_PM.c **** *  ADC_backup - used.
 137:Generated_Source\PSoC4/ADC_PM.c **** *
 138:Generated_Source\PSoC4/ADC_PM.c **** *******************************************************************************/
 139:Generated_Source\PSoC4/ADC_PM.c **** void ADC_Wakeup(void)
 140:Generated_Source\PSoC4/ADC_PM.c **** {
 154              		.loc 1 140 0
 155              		.cfi_startproc
 156              		@ args = 0, pretend = 0, frame = 0
 157              		@ frame_needed = 0, uses_anonymous_args = 0
 158 0000 10B5     		push	{r4, lr}
 159              		.cfi_def_cfa_offset 8
 160              		.cfi_offset 4, -8
 161              		.cfi_offset 14, -4
 141:Generated_Source\PSoC4/ADC_PM.c ****     ADC_SAR_DFT_CTRL_REG &= (uint32)~ADC_ADFT_OVERRIDE;
 162              		.loc 1 141 0
 163 0002 0D4A     		ldr	r2, .L13
 164 0004 1368     		ldr	r3, [r2]
 165 0006 5B00     		lsls	r3, r3, #1
 166 0008 5B08     		lsrs	r3, r3, #1
 167 000a 1360     		str	r3, [r2]
 142:Generated_Source\PSoC4/ADC_PM.c ****     if(ADC_backup.enableState != ADC_DISABLED)
 168              		.loc 1 142 0
 169 000c 0B4B     		ldr	r3, .L13+4
 170 000e 1B78     		ldrb	r3, [r3]
 171 0010 002B     		cmp	r3, #0
 172 0012 0FD0     		beq	.L10
 143:Generated_Source\PSoC4/ADC_PM.c ****     {
 144:Generated_Source\PSoC4/ADC_PM.c ****         /* Enable the SAR internal pump  */
 145:Generated_Source\PSoC4/ADC_PM.c ****         if((ADC_backup.enableState & ADC_BOOSTPUMP_ENABLED) != 0u)
 173              		.loc 1 145 0
 174 0014 5B07     		lsls	r3, r3, #29
 175 0016 05D5     		bpl	.L12
 146:Generated_Source\PSoC4/ADC_PM.c ****         {
 147:Generated_Source\PSoC4/ADC_PM.c ****             ADC_SAR_CTRL_REG |= ADC_BOOSTPUMP_EN;
 176              		.loc 1 147 0
 177 0018 094A     		ldr	r2, .L13+8
 178 001a 1368     		ldr	r3, [r2]
 179 001c 8021     		movs	r1, #128
 180 001e 4903     		lsls	r1, r1, #13
 181 0020 0B43     		orrs	r3, r1
 182 0022 1360     		str	r3, [r2]
 183              	.L12:
 148:Generated_Source\PSoC4/ADC_PM.c ****         }
 149:Generated_Source\PSoC4/ADC_PM.c ****         ADC_Enable();
 184              		.loc 1 149 0
 185 0024 FFF7FEFF 		bl	ADC_Enable
 186              	.LVL2:
 150:Generated_Source\PSoC4/ADC_PM.c ****         if((ADC_backup.enableState & ADC_STARTED) != 0u)
 187              		.loc 1 150 0
 188 0028 044B     		ldr	r3, .L13+4
 189 002a 1B78     		ldrb	r3, [r3]
 190 002c 9B07     		lsls	r3, r3, #30
 191 002e 01D5     		bpl	.L10
 151:Generated_Source\PSoC4/ADC_PM.c ****         {
ARM GAS  C:\Users\Alan\AppData\Local\Temp\ccFUMGJh.s 			page 7


 152:Generated_Source\PSoC4/ADC_PM.c ****             ADC_StartConvert();
 192              		.loc 1 152 0
 193 0030 FFF7FEFF 		bl	ADC_StartConvert
 194              	.LVL3:
 195              	.L10:
 153:Generated_Source\PSoC4/ADC_PM.c ****         }
 154:Generated_Source\PSoC4/ADC_PM.c ****     }
 155:Generated_Source\PSoC4/ADC_PM.c **** }
 196              		.loc 1 155 0
 197              		@ sp needed
 198 0034 10BD     		pop	{r4, pc}
 199              	.L14:
 200 0036 C046     		.align	2
 201              	.L13:
 202 0038 30003A40 		.word	1077542960
 203 003c 00000000 		.word	.LANCHOR0
 204 0040 00003A40 		.word	1077542912
 205              		.cfi_endproc
 206              	.LFE4:
 207              		.size	ADC_Wakeup, .-ADC_Wakeup
 208              		.bss
 209              		.align	2
 210              		.set	.LANCHOR0,. + 0
 211              		.type	ADC_backup, %object
 212              		.size	ADC_backup, 1
 213              	ADC_backup:
 214 0000 00       		.space	1
 215              		.text
 216              	.Letext0:
 217              		.file 2 "Generated_Source\\PSoC4\\cytypes.h"
 218              		.file 3 "Generated_Source\\PSoC4\\ADC.h"