ARM GAS  C:\Users\gjl\AppData\Local\Temp\ccHudlr6.s 			page 1


   1              		.syntax unified
   2              		.cpu cortex-m0
   3              		.fpu softvfp
   4              		.eabi_attribute 20, 1
   5              		.eabi_attribute 21, 1
   6              		.eabi_attribute 23, 3
   7              		.eabi_attribute 24, 1
   8              		.eabi_attribute 25, 1
   9              		.eabi_attribute 26, 1
  10              		.eabi_attribute 30, 1
  11              		.eabi_attribute 34, 0
  12              		.eabi_attribute 18, 4
  13              		.thumb
  14              		.syntax unified
  15              		.file	"I2C_I2C_MASTER.c"
  16              		.text
  17              	.Ltext0:
  18              		.cfi_sections	.debug_frame
  19              		.section	.text.I2C_I2CMasterSendStart,"ax",%progbits
  20              		.align	2
  21              		.global	I2C_I2CMasterSendStart
  22              		.code	16
  23              		.thumb_func
  24              		.type	I2C_I2CMasterSendStart, %function
  25              	I2C_I2CMasterSendStart:
  26              	.LFB3:
  27              		.file 1 "Generated_Source\\PSoC4\\I2C_I2C_MASTER.c"
   1:Generated_Source\PSoC4/I2C_I2C_MASTER.c **** /***************************************************************************//**
   2:Generated_Source\PSoC4/I2C_I2C_MASTER.c **** * \file I2C_I2C_MASTER.c
   3:Generated_Source\PSoC4/I2C_I2C_MASTER.c **** * \version 3.20
   4:Generated_Source\PSoC4/I2C_I2C_MASTER.c **** *
   5:Generated_Source\PSoC4/I2C_I2C_MASTER.c **** * \brief
   6:Generated_Source\PSoC4/I2C_I2C_MASTER.c **** *  This file provides the source code to the API for the SCB Component in
   7:Generated_Source\PSoC4/I2C_I2C_MASTER.c **** *  I2C Master mode.
   8:Generated_Source\PSoC4/I2C_I2C_MASTER.c **** *
   9:Generated_Source\PSoC4/I2C_I2C_MASTER.c **** * Note:
  10:Generated_Source\PSoC4/I2C_I2C_MASTER.c **** *
  11:Generated_Source\PSoC4/I2C_I2C_MASTER.c **** *******************************************************************************
  12:Generated_Source\PSoC4/I2C_I2C_MASTER.c **** * \copyright
  13:Generated_Source\PSoC4/I2C_I2C_MASTER.c **** * Copyright 2013-2016, Cypress Semiconductor Corporation.  All rights reserved.
  14:Generated_Source\PSoC4/I2C_I2C_MASTER.c **** * You may use this file only in accordance with the license, terms, conditions,
  15:Generated_Source\PSoC4/I2C_I2C_MASTER.c **** * disclaimers, and limitations in the end user license agreement accompanying
  16:Generated_Source\PSoC4/I2C_I2C_MASTER.c **** * the software package with which this file was provided.
  17:Generated_Source\PSoC4/I2C_I2C_MASTER.c **** *******************************************************************************/
  18:Generated_Source\PSoC4/I2C_I2C_MASTER.c **** 
  19:Generated_Source\PSoC4/I2C_I2C_MASTER.c **** #include "I2C_PVT.h"
  20:Generated_Source\PSoC4/I2C_I2C_MASTER.c **** #include "I2C_I2C_PVT.h"
  21:Generated_Source\PSoC4/I2C_I2C_MASTER.c **** 
  22:Generated_Source\PSoC4/I2C_I2C_MASTER.c **** #if(I2C_I2C_MASTER_CONST)
  23:Generated_Source\PSoC4/I2C_I2C_MASTER.c **** 
  24:Generated_Source\PSoC4/I2C_I2C_MASTER.c **** /***************************************
  25:Generated_Source\PSoC4/I2C_I2C_MASTER.c **** *      I2C Master Private Vars
  26:Generated_Source\PSoC4/I2C_I2C_MASTER.c **** ***************************************/
  27:Generated_Source\PSoC4/I2C_I2C_MASTER.c **** 
  28:Generated_Source\PSoC4/I2C_I2C_MASTER.c **** /* Master variables */
  29:Generated_Source\PSoC4/I2C_I2C_MASTER.c **** volatile uint16 I2C_mstrStatus;      /* Master Status byte  */
  30:Generated_Source\PSoC4/I2C_I2C_MASTER.c **** volatile uint8  I2C_mstrControl;     /* Master Control byte */
ARM GAS  C:\Users\gjl\AppData\Local\Temp\ccHudlr6.s 			page 2


  31:Generated_Source\PSoC4/I2C_I2C_MASTER.c **** 
  32:Generated_Source\PSoC4/I2C_I2C_MASTER.c **** /* Receive buffer variables */
  33:Generated_Source\PSoC4/I2C_I2C_MASTER.c **** volatile uint8 * I2C_mstrRdBufPtr;   /* Pointer to Master Read buffer */
  34:Generated_Source\PSoC4/I2C_I2C_MASTER.c **** volatile uint32  I2C_mstrRdBufSize;  /* Master Read buffer size       */
  35:Generated_Source\PSoC4/I2C_I2C_MASTER.c **** volatile uint32  I2C_mstrRdBufIndex; /* Master Read buffer Index      */
  36:Generated_Source\PSoC4/I2C_I2C_MASTER.c **** 
  37:Generated_Source\PSoC4/I2C_I2C_MASTER.c **** /* Transmit buffer variables */
  38:Generated_Source\PSoC4/I2C_I2C_MASTER.c **** volatile uint8 * I2C_mstrWrBufPtr;   /* Pointer to Master Write buffer */
  39:Generated_Source\PSoC4/I2C_I2C_MASTER.c **** volatile uint32  I2C_mstrWrBufSize;  /* Master Write buffer size       */
  40:Generated_Source\PSoC4/I2C_I2C_MASTER.c **** volatile uint32  I2C_mstrWrBufIndex; /* Master Write buffer Index      */
  41:Generated_Source\PSoC4/I2C_I2C_MASTER.c **** volatile uint32  I2C_mstrWrBufIndexTmp; /* Master Write buffer Index Tmp */
  42:Generated_Source\PSoC4/I2C_I2C_MASTER.c **** 
  43:Generated_Source\PSoC4/I2C_I2C_MASTER.c **** #if (!I2C_CY_SCBIP_V0 && \
  44:Generated_Source\PSoC4/I2C_I2C_MASTER.c ****     I2C_I2C_MULTI_MASTER_SLAVE_CONST && I2C_I2C_WAKE_ENABLE_CONST)
  45:Generated_Source\PSoC4/I2C_I2C_MASTER.c ****     static void I2C_I2CMasterDisableEcAm(void);
  46:Generated_Source\PSoC4/I2C_I2C_MASTER.c **** #endif /* (!I2C_CY_SCBIP_V0) */
  47:Generated_Source\PSoC4/I2C_I2C_MASTER.c **** 
  48:Generated_Source\PSoC4/I2C_I2C_MASTER.c **** 
  49:Generated_Source\PSoC4/I2C_I2C_MASTER.c **** /*******************************************************************************
  50:Generated_Source\PSoC4/I2C_I2C_MASTER.c **** * Function Name: I2C_I2CMasterWriteBuf
  51:Generated_Source\PSoC4/I2C_I2C_MASTER.c **** ****************************************************************************//**
  52:Generated_Source\PSoC4/I2C_I2C_MASTER.c **** *
  53:Generated_Source\PSoC4/I2C_I2C_MASTER.c **** *  Automatically writes an entire buffer of data to a slave device.
  54:Generated_Source\PSoC4/I2C_I2C_MASTER.c **** *  Once the data transfer is initiated by this function, further data transfer
  55:Generated_Source\PSoC4/I2C_I2C_MASTER.c **** *  is handled by the included ISR.
  56:Generated_Source\PSoC4/I2C_I2C_MASTER.c **** *  Enables the I2C interrupt and clears I2C_I2C_MSTAT_WR_CMPLT 
  57:Generated_Source\PSoC4/I2C_I2C_MASTER.c **** *  status.
  58:Generated_Source\PSoC4/I2C_I2C_MASTER.c **** *
  59:Generated_Source\PSoC4/I2C_I2C_MASTER.c **** *  \param slaveAddr: 7-bit slave address.
  60:Generated_Source\PSoC4/I2C_I2C_MASTER.c **** *  \param xferData: Pointer to buffer of data to be sent.
  61:Generated_Source\PSoC4/I2C_I2C_MASTER.c **** *  \param cnt: Size of buffer to send.
  62:Generated_Source\PSoC4/I2C_I2C_MASTER.c **** *  \param mode: Transfer mode defines:
  63:Generated_Source\PSoC4/I2C_I2C_MASTER.c **** *  (1) Whether a start or restart condition is generated at the beginning 
  64:Generated_Source\PSoC4/I2C_I2C_MASTER.c **** *  of the transfer, and
  65:Generated_Source\PSoC4/I2C_I2C_MASTER.c **** *  (2) Whether the transfer is completed or halted before the stop 
  66:Generated_Source\PSoC4/I2C_I2C_MASTER.c **** *  condition is generated on the bus.Transfer mode, mode constants 
  67:Generated_Source\PSoC4/I2C_I2C_MASTER.c **** *  may be ORed together.
  68:Generated_Source\PSoC4/I2C_I2C_MASTER.c **** *  - I2C_I2C_MODE_COMPLETE_XFER - Perform complete transfer 
  69:Generated_Source\PSoC4/I2C_I2C_MASTER.c **** *    from Start to Stop.
  70:Generated_Source\PSoC4/I2C_I2C_MASTER.c **** *  - I2C_I2C_MODE_REPEAT_START - Send Repeat Start instead 
  71:Generated_Source\PSoC4/I2C_I2C_MASTER.c **** *    of Start. A Stop is generated after transfer is completed unless 
  72:Generated_Source\PSoC4/I2C_I2C_MASTER.c **** *    NO_STOP is specified.
  73:Generated_Source\PSoC4/I2C_I2C_MASTER.c **** *  - I2C_I2C_MODE_NO_STOP Execute transfer without a Stop.
  74:Generated_Source\PSoC4/I2C_I2C_MASTER.c **** *    The following transfer expected to perform ReStart.
  75:Generated_Source\PSoC4/I2C_I2C_MASTER.c **** *
  76:Generated_Source\PSoC4/I2C_I2C_MASTER.c **** * \return
  77:Generated_Source\PSoC4/I2C_I2C_MASTER.c **** *  Error status.
  78:Generated_Source\PSoC4/I2C_I2C_MASTER.c **** *  - I2C_I2C_MSTR_NO_ERROR - Function complete without error. 
  79:Generated_Source\PSoC4/I2C_I2C_MASTER.c **** *    The master started the transfer.
  80:Generated_Source\PSoC4/I2C_I2C_MASTER.c **** *  - I2C_I2C_MSTR_BUS_BUSY - Bus is busy. Nothing was sent on
  81:Generated_Source\PSoC4/I2C_I2C_MASTER.c **** *    the bus. The attempt has to be retried.
  82:Generated_Source\PSoC4/I2C_I2C_MASTER.c **** *  - I2C_I2C_MSTR_NOT_READY - Master is not ready for to start
  83:Generated_Source\PSoC4/I2C_I2C_MASTER.c **** *    transfer. A master still has not completed previous transaction or a 
  84:Generated_Source\PSoC4/I2C_I2C_MASTER.c **** *    slave operation is in progress (in multi-master-slave configuration).
  85:Generated_Source\PSoC4/I2C_I2C_MASTER.c **** *    Nothing was sent on the bus. The attempt has to be retried.
  86:Generated_Source\PSoC4/I2C_I2C_MASTER.c **** *
  87:Generated_Source\PSoC4/I2C_I2C_MASTER.c **** * \globalvars
ARM GAS  C:\Users\gjl\AppData\Local\Temp\ccHudlr6.s 			page 3


  88:Generated_Source\PSoC4/I2C_I2C_MASTER.c **** *  I2C_mstrStatus  - used to store current status of I2C Master.
  89:Generated_Source\PSoC4/I2C_I2C_MASTER.c **** *  I2C_state       - used to store current state of software FSM.
  90:Generated_Source\PSoC4/I2C_I2C_MASTER.c **** *  I2C_mstrControl - used to control master end of transaction with
  91:Generated_Source\PSoC4/I2C_I2C_MASTER.c **** *  or without the Stop generation.
  92:Generated_Source\PSoC4/I2C_I2C_MASTER.c **** *  I2C_mstrWrBufPtr - used to store pointer to master write buffer.
  93:Generated_Source\PSoC4/I2C_I2C_MASTER.c **** *  I2C_mstrWrBufIndex - used to current index within master write
  94:Generated_Source\PSoC4/I2C_I2C_MASTER.c **** *  buffer.
  95:Generated_Source\PSoC4/I2C_I2C_MASTER.c **** *  I2C_mstrWrBufSize - used to store master write buffer size.
  96:Generated_Source\PSoC4/I2C_I2C_MASTER.c **** *
  97:Generated_Source\PSoC4/I2C_I2C_MASTER.c **** *******************************************************************************/
  98:Generated_Source\PSoC4/I2C_I2C_MASTER.c **** uint32 I2C_I2CMasterWriteBuf(uint32 slaveAddress, uint8 * wrData, uint32 cnt, uint32 mode)
  99:Generated_Source\PSoC4/I2C_I2C_MASTER.c **** {
 100:Generated_Source\PSoC4/I2C_I2C_MASTER.c ****     uint32 errStatus;
 101:Generated_Source\PSoC4/I2C_I2C_MASTER.c **** 
 102:Generated_Source\PSoC4/I2C_I2C_MASTER.c ****     errStatus = I2C_I2C_MSTR_NOT_READY;
 103:Generated_Source\PSoC4/I2C_I2C_MASTER.c **** 
 104:Generated_Source\PSoC4/I2C_I2C_MASTER.c ****     if(NULL != wrData)  /* Check buffer pointer */
 105:Generated_Source\PSoC4/I2C_I2C_MASTER.c ****     {
 106:Generated_Source\PSoC4/I2C_I2C_MASTER.c ****         /* Check FSM state and bus before generating Start/ReStart condition */
 107:Generated_Source\PSoC4/I2C_I2C_MASTER.c ****         if(I2C_CHECK_I2C_FSM_IDLE)
 108:Generated_Source\PSoC4/I2C_I2C_MASTER.c ****         {
 109:Generated_Source\PSoC4/I2C_I2C_MASTER.c ****             I2C_DisableInt();  /* Lock from interruption */
 110:Generated_Source\PSoC4/I2C_I2C_MASTER.c **** 
 111:Generated_Source\PSoC4/I2C_I2C_MASTER.c ****             /* Check bus state */
 112:Generated_Source\PSoC4/I2C_I2C_MASTER.c ****             errStatus = I2C_CHECK_I2C_STATUS(I2C_I2C_STATUS_BUS_BUSY) ?
 113:Generated_Source\PSoC4/I2C_I2C_MASTER.c ****                             I2C_I2C_MSTR_BUS_BUSY : I2C_I2C_MSTR_NO_ERROR;
 114:Generated_Source\PSoC4/I2C_I2C_MASTER.c ****         }
 115:Generated_Source\PSoC4/I2C_I2C_MASTER.c ****         else if(I2C_CHECK_I2C_FSM_HALT)
 116:Generated_Source\PSoC4/I2C_I2C_MASTER.c ****         {
 117:Generated_Source\PSoC4/I2C_I2C_MASTER.c ****             I2C_mstrStatus &= (uint16) ~I2C_I2C_MSTAT_XFER_HALT;
 118:Generated_Source\PSoC4/I2C_I2C_MASTER.c ****                               errStatus  = I2C_I2C_MSTR_NO_ERROR;
 119:Generated_Source\PSoC4/I2C_I2C_MASTER.c ****         }
 120:Generated_Source\PSoC4/I2C_I2C_MASTER.c ****         else
 121:Generated_Source\PSoC4/I2C_I2C_MASTER.c ****         {
 122:Generated_Source\PSoC4/I2C_I2C_MASTER.c ****             /* Unexpected FSM state: exit */
 123:Generated_Source\PSoC4/I2C_I2C_MASTER.c ****         }
 124:Generated_Source\PSoC4/I2C_I2C_MASTER.c ****     }
 125:Generated_Source\PSoC4/I2C_I2C_MASTER.c **** 
 126:Generated_Source\PSoC4/I2C_I2C_MASTER.c ****     /* Check if master is ready to start  */
 127:Generated_Source\PSoC4/I2C_I2C_MASTER.c ****     if(I2C_I2C_MSTR_NO_ERROR == errStatus) /* No error proceed */
 128:Generated_Source\PSoC4/I2C_I2C_MASTER.c ****     {
 129:Generated_Source\PSoC4/I2C_I2C_MASTER.c ****     #if (!I2C_CY_SCBIP_V0 && \
 130:Generated_Source\PSoC4/I2C_I2C_MASTER.c ****         I2C_I2C_MULTI_MASTER_SLAVE_CONST && I2C_I2C_WAKE_ENABLE_CONST)
 131:Generated_Source\PSoC4/I2C_I2C_MASTER.c ****             I2C_I2CMasterDisableEcAm();
 132:Generated_Source\PSoC4/I2C_I2C_MASTER.c ****     #endif /* (!I2C_CY_SCBIP_V0) */
 133:Generated_Source\PSoC4/I2C_I2C_MASTER.c **** 
 134:Generated_Source\PSoC4/I2C_I2C_MASTER.c ****         /* Set up write transaction */
 135:Generated_Source\PSoC4/I2C_I2C_MASTER.c ****         I2C_state = I2C_I2C_FSM_MSTR_WR_ADDR;
 136:Generated_Source\PSoC4/I2C_I2C_MASTER.c ****         I2C_mstrWrBufIndexTmp = 0u;
 137:Generated_Source\PSoC4/I2C_I2C_MASTER.c ****         I2C_mstrWrBufIndex    = 0u;
 138:Generated_Source\PSoC4/I2C_I2C_MASTER.c ****         I2C_mstrWrBufSize     = cnt;
 139:Generated_Source\PSoC4/I2C_I2C_MASTER.c ****         I2C_mstrWrBufPtr      = (volatile uint8 *) wrData;
 140:Generated_Source\PSoC4/I2C_I2C_MASTER.c ****         I2C_mstrControl       = (uint8) mode;
 141:Generated_Source\PSoC4/I2C_I2C_MASTER.c **** 
 142:Generated_Source\PSoC4/I2C_I2C_MASTER.c ****         slaveAddress = I2C_GET_I2C_8BIT_ADDRESS(slaveAddress);
 143:Generated_Source\PSoC4/I2C_I2C_MASTER.c **** 
 144:Generated_Source\PSoC4/I2C_I2C_MASTER.c ****         I2C_mstrStatus &= (uint16) ~I2C_I2C_MSTAT_WR_CMPLT;
ARM GAS  C:\Users\gjl\AppData\Local\Temp\ccHudlr6.s 			page 4


 145:Generated_Source\PSoC4/I2C_I2C_MASTER.c **** 
 146:Generated_Source\PSoC4/I2C_I2C_MASTER.c ****         I2C_ClearMasterInterruptSource(I2C_INTR_MASTER_ALL);
 147:Generated_Source\PSoC4/I2C_I2C_MASTER.c ****         I2C_ClearTxInterruptSource(I2C_INTR_TX_UNDERFLOW);
 148:Generated_Source\PSoC4/I2C_I2C_MASTER.c **** 
 149:Generated_Source\PSoC4/I2C_I2C_MASTER.c ****         /* The TX and RX FIFO have to be EMPTY */
 150:Generated_Source\PSoC4/I2C_I2C_MASTER.c **** 
 151:Generated_Source\PSoC4/I2C_I2C_MASTER.c ****         /* Enable interrupt source to catch when address is sent */
 152:Generated_Source\PSoC4/I2C_I2C_MASTER.c ****         I2C_SetTxInterruptMode(I2C_INTR_TX_UNDERFLOW);
 153:Generated_Source\PSoC4/I2C_I2C_MASTER.c **** 
 154:Generated_Source\PSoC4/I2C_I2C_MASTER.c ****         /* Generate Start or ReStart */
 155:Generated_Source\PSoC4/I2C_I2C_MASTER.c ****         if(I2C_CHECK_I2C_MODE_RESTART(mode))
 156:Generated_Source\PSoC4/I2C_I2C_MASTER.c ****         {
 157:Generated_Source\PSoC4/I2C_I2C_MASTER.c ****             I2C_I2C_MASTER_GENERATE_RESTART;
 158:Generated_Source\PSoC4/I2C_I2C_MASTER.c ****             I2C_TX_FIFO_WR_REG = slaveAddress;
 159:Generated_Source\PSoC4/I2C_I2C_MASTER.c ****         }
 160:Generated_Source\PSoC4/I2C_I2C_MASTER.c ****         else
 161:Generated_Source\PSoC4/I2C_I2C_MASTER.c ****         {
 162:Generated_Source\PSoC4/I2C_I2C_MASTER.c ****             I2C_TX_FIFO_WR_REG = slaveAddress;
 163:Generated_Source\PSoC4/I2C_I2C_MASTER.c ****             I2C_I2C_MASTER_GENERATE_START;
 164:Generated_Source\PSoC4/I2C_I2C_MASTER.c ****         }
 165:Generated_Source\PSoC4/I2C_I2C_MASTER.c ****     }
 166:Generated_Source\PSoC4/I2C_I2C_MASTER.c **** 
 167:Generated_Source\PSoC4/I2C_I2C_MASTER.c ****     I2C_EnableInt();   /* Release lock */
 168:Generated_Source\PSoC4/I2C_I2C_MASTER.c **** 
 169:Generated_Source\PSoC4/I2C_I2C_MASTER.c ****     return(errStatus);
 170:Generated_Source\PSoC4/I2C_I2C_MASTER.c **** }
 171:Generated_Source\PSoC4/I2C_I2C_MASTER.c **** 
 172:Generated_Source\PSoC4/I2C_I2C_MASTER.c **** 
 173:Generated_Source\PSoC4/I2C_I2C_MASTER.c **** /*******************************************************************************
 174:Generated_Source\PSoC4/I2C_I2C_MASTER.c **** * Function Name: I2C_I2CMasterReadBuf
 175:Generated_Source\PSoC4/I2C_I2C_MASTER.c **** ****************************************************************************//**
 176:Generated_Source\PSoC4/I2C_I2C_MASTER.c **** *
 177:Generated_Source\PSoC4/I2C_I2C_MASTER.c **** *  Automatically reads an entire buffer of data from a slave device.
 178:Generated_Source\PSoC4/I2C_I2C_MASTER.c **** *  Once the data transfer is initiated by this function, further data transfer
 179:Generated_Source\PSoC4/I2C_I2C_MASTER.c **** *  is handled by the included ISR.
 180:Generated_Source\PSoC4/I2C_I2C_MASTER.c **** *  Enables the I2C interrupt and clears I2C_I2C_MSTAT_RD_CMPLT 
 181:Generated_Source\PSoC4/I2C_I2C_MASTER.c **** *  status.
 182:Generated_Source\PSoC4/I2C_I2C_MASTER.c **** *
 183:Generated_Source\PSoC4/I2C_I2C_MASTER.c **** *  \param slaveAddr: 7-bit slave address.
 184:Generated_Source\PSoC4/I2C_I2C_MASTER.c **** *  \param xferData: Pointer to buffer of data to be sent.
 185:Generated_Source\PSoC4/I2C_I2C_MASTER.c **** *  \param cnt: Size of buffer to send.
 186:Generated_Source\PSoC4/I2C_I2C_MASTER.c **** *  \param mode: Transfer mode defines:
 187:Generated_Source\PSoC4/I2C_I2C_MASTER.c **** *  (1) Whether a start or restart condition is generated at the beginning 
 188:Generated_Source\PSoC4/I2C_I2C_MASTER.c **** *  of the transfer, and
 189:Generated_Source\PSoC4/I2C_I2C_MASTER.c **** *  (2) Whether the transfer is completed or halted before the stop 
 190:Generated_Source\PSoC4/I2C_I2C_MASTER.c **** *  condition is generated on the bus.Transfer mode, mode constants may 
 191:Generated_Source\PSoC4/I2C_I2C_MASTER.c **** *  be ORed together. See I2C_I2CMasterWriteBuf() 
 192:Generated_Source\PSoC4/I2C_I2C_MASTER.c **** *  function for constants.
 193:Generated_Source\PSoC4/I2C_I2C_MASTER.c **** *
 194:Generated_Source\PSoC4/I2C_I2C_MASTER.c **** * \return
 195:Generated_Source\PSoC4/I2C_I2C_MASTER.c **** *  Error status.See I2C_I2CMasterWriteBuf() 
 196:Generated_Source\PSoC4/I2C_I2C_MASTER.c **** *  function for constants.
 197:Generated_Source\PSoC4/I2C_I2C_MASTER.c **** *
 198:Generated_Source\PSoC4/I2C_I2C_MASTER.c **** * \globalvars
 199:Generated_Source\PSoC4/I2C_I2C_MASTER.c **** *  I2C_mstrStatus  - used to store current status of I2C Master.
 200:Generated_Source\PSoC4/I2C_I2C_MASTER.c **** *  I2C_state       - used to store current state of software FSM.
 201:Generated_Source\PSoC4/I2C_I2C_MASTER.c **** *  I2C_mstrControl - used to control master end of transaction with
ARM GAS  C:\Users\gjl\AppData\Local\Temp\ccHudlr6.s 			page 5


 202:Generated_Source\PSoC4/I2C_I2C_MASTER.c **** *  or without the Stop generation.
 203:Generated_Source\PSoC4/I2C_I2C_MASTER.c **** *  I2C_mstrRdBufPtr - used to store pointer to master read buffer.
 204:Generated_Source\PSoC4/I2C_I2C_MASTER.c **** *  I2C_mstrRdBufIndex - used to current index within master read
 205:Generated_Source\PSoC4/I2C_I2C_MASTER.c **** *  buffer.
 206:Generated_Source\PSoC4/I2C_I2C_MASTER.c **** *  I2C_mstrRdBufSize - used to store master read buffer size.
 207:Generated_Source\PSoC4/I2C_I2C_MASTER.c **** *
 208:Generated_Source\PSoC4/I2C_I2C_MASTER.c **** *******************************************************************************/
 209:Generated_Source\PSoC4/I2C_I2C_MASTER.c **** uint32 I2C_I2CMasterReadBuf(uint32 slaveAddress, uint8 * rdData, uint32 cnt, uint32 mode)
 210:Generated_Source\PSoC4/I2C_I2C_MASTER.c **** {
 211:Generated_Source\PSoC4/I2C_I2C_MASTER.c ****     uint32 errStatus;
 212:Generated_Source\PSoC4/I2C_I2C_MASTER.c **** 
 213:Generated_Source\PSoC4/I2C_I2C_MASTER.c ****     errStatus = I2C_I2C_MSTR_NOT_READY;
 214:Generated_Source\PSoC4/I2C_I2C_MASTER.c **** 
 215:Generated_Source\PSoC4/I2C_I2C_MASTER.c ****     if(NULL != rdData)
 216:Generated_Source\PSoC4/I2C_I2C_MASTER.c ****     {
 217:Generated_Source\PSoC4/I2C_I2C_MASTER.c ****         /* Check FSM state and bus before generating Start/ReStart condition */
 218:Generated_Source\PSoC4/I2C_I2C_MASTER.c ****         if(I2C_CHECK_I2C_FSM_IDLE)
 219:Generated_Source\PSoC4/I2C_I2C_MASTER.c ****         {
 220:Generated_Source\PSoC4/I2C_I2C_MASTER.c ****             I2C_DisableInt();  /* Lock from interruption */
 221:Generated_Source\PSoC4/I2C_I2C_MASTER.c **** 
 222:Generated_Source\PSoC4/I2C_I2C_MASTER.c ****             /* Check bus state */
 223:Generated_Source\PSoC4/I2C_I2C_MASTER.c ****             errStatus = I2C_CHECK_I2C_STATUS(I2C_I2C_STATUS_BUS_BUSY) ?
 224:Generated_Source\PSoC4/I2C_I2C_MASTER.c ****                             I2C_I2C_MSTR_BUS_BUSY : I2C_I2C_MSTR_NO_ERROR;
 225:Generated_Source\PSoC4/I2C_I2C_MASTER.c ****         }
 226:Generated_Source\PSoC4/I2C_I2C_MASTER.c ****         else if(I2C_CHECK_I2C_FSM_HALT)
 227:Generated_Source\PSoC4/I2C_I2C_MASTER.c ****         {
 228:Generated_Source\PSoC4/I2C_I2C_MASTER.c ****             I2C_mstrStatus &= (uint16) ~I2C_I2C_MSTAT_XFER_HALT;
 229:Generated_Source\PSoC4/I2C_I2C_MASTER.c ****                               errStatus  =  I2C_I2C_MSTR_NO_ERROR;
 230:Generated_Source\PSoC4/I2C_I2C_MASTER.c ****         }
 231:Generated_Source\PSoC4/I2C_I2C_MASTER.c ****         else
 232:Generated_Source\PSoC4/I2C_I2C_MASTER.c ****         {
 233:Generated_Source\PSoC4/I2C_I2C_MASTER.c ****             /* Unexpected FSM state: exit */
 234:Generated_Source\PSoC4/I2C_I2C_MASTER.c ****         }
 235:Generated_Source\PSoC4/I2C_I2C_MASTER.c ****     }
 236:Generated_Source\PSoC4/I2C_I2C_MASTER.c **** 
 237:Generated_Source\PSoC4/I2C_I2C_MASTER.c ****     /* Check master ready to proceed */
 238:Generated_Source\PSoC4/I2C_I2C_MASTER.c ****     if(I2C_I2C_MSTR_NO_ERROR == errStatus) /* No error proceed */
 239:Generated_Source\PSoC4/I2C_I2C_MASTER.c ****     {
 240:Generated_Source\PSoC4/I2C_I2C_MASTER.c ****         #if (!I2C_CY_SCBIP_V0 && \
 241:Generated_Source\PSoC4/I2C_I2C_MASTER.c ****         I2C_I2C_MULTI_MASTER_SLAVE_CONST && I2C_I2C_WAKE_ENABLE_CONST)
 242:Generated_Source\PSoC4/I2C_I2C_MASTER.c ****             I2C_I2CMasterDisableEcAm();
 243:Generated_Source\PSoC4/I2C_I2C_MASTER.c ****         #endif /* (!I2C_CY_SCBIP_V0) */
 244:Generated_Source\PSoC4/I2C_I2C_MASTER.c **** 
 245:Generated_Source\PSoC4/I2C_I2C_MASTER.c ****         /* Set up read transaction */
 246:Generated_Source\PSoC4/I2C_I2C_MASTER.c ****         I2C_state = I2C_I2C_FSM_MSTR_RD_ADDR;
 247:Generated_Source\PSoC4/I2C_I2C_MASTER.c ****         I2C_mstrRdBufIndex = 0u;
 248:Generated_Source\PSoC4/I2C_I2C_MASTER.c ****         I2C_mstrRdBufSize  = cnt;
 249:Generated_Source\PSoC4/I2C_I2C_MASTER.c ****         I2C_mstrRdBufPtr   = (volatile uint8 *) rdData;
 250:Generated_Source\PSoC4/I2C_I2C_MASTER.c ****         I2C_mstrControl    = (uint8) mode;
 251:Generated_Source\PSoC4/I2C_I2C_MASTER.c **** 
 252:Generated_Source\PSoC4/I2C_I2C_MASTER.c ****         slaveAddress = (I2C_GET_I2C_8BIT_ADDRESS(slaveAddress) | I2C_I2C_READ_FLAG);
 253:Generated_Source\PSoC4/I2C_I2C_MASTER.c **** 
 254:Generated_Source\PSoC4/I2C_I2C_MASTER.c ****         I2C_mstrStatus &= (uint16) ~I2C_I2C_MSTAT_RD_CMPLT;
 255:Generated_Source\PSoC4/I2C_I2C_MASTER.c **** 
 256:Generated_Source\PSoC4/I2C_I2C_MASTER.c ****         I2C_ClearMasterInterruptSource(I2C_INTR_MASTER_ALL);
 257:Generated_Source\PSoC4/I2C_I2C_MASTER.c **** 
 258:Generated_Source\PSoC4/I2C_I2C_MASTER.c ****         /* TX and RX FIFO have to be EMPTY */
ARM GAS  C:\Users\gjl\AppData\Local\Temp\ccHudlr6.s 			page 6


 259:Generated_Source\PSoC4/I2C_I2C_MASTER.c **** 
 260:Generated_Source\PSoC4/I2C_I2C_MASTER.c ****         /* Prepare reading */
 261:Generated_Source\PSoC4/I2C_I2C_MASTER.c ****         if(I2C_mstrRdBufSize < I2C_I2C_FIFO_SIZE)
 262:Generated_Source\PSoC4/I2C_I2C_MASTER.c ****         {
 263:Generated_Source\PSoC4/I2C_I2C_MASTER.c ****             /* Reading byte-by-byte */
 264:Generated_Source\PSoC4/I2C_I2C_MASTER.c ****             I2C_SetRxInterruptMode(I2C_INTR_RX_NOT_EMPTY);
 265:Generated_Source\PSoC4/I2C_I2C_MASTER.c ****         }
 266:Generated_Source\PSoC4/I2C_I2C_MASTER.c ****         else
 267:Generated_Source\PSoC4/I2C_I2C_MASTER.c ****         {
 268:Generated_Source\PSoC4/I2C_I2C_MASTER.c ****             /* Receive RX FIFO chunks */
 269:Generated_Source\PSoC4/I2C_I2C_MASTER.c ****             I2C_ENABLE_MASTER_AUTO_DATA_ACK;
 270:Generated_Source\PSoC4/I2C_I2C_MASTER.c ****             I2C_SetRxInterruptMode(I2C_INTR_RX_FULL);
 271:Generated_Source\PSoC4/I2C_I2C_MASTER.c ****         }
 272:Generated_Source\PSoC4/I2C_I2C_MASTER.c **** 
 273:Generated_Source\PSoC4/I2C_I2C_MASTER.c ****         /* Generate Start or ReStart */
 274:Generated_Source\PSoC4/I2C_I2C_MASTER.c ****         if(I2C_CHECK_I2C_MODE_RESTART(mode))
 275:Generated_Source\PSoC4/I2C_I2C_MASTER.c ****         {
 276:Generated_Source\PSoC4/I2C_I2C_MASTER.c ****             I2C_I2C_MASTER_GENERATE_RESTART;
 277:Generated_Source\PSoC4/I2C_I2C_MASTER.c ****             I2C_TX_FIFO_WR_REG = (slaveAddress);
 278:Generated_Source\PSoC4/I2C_I2C_MASTER.c ****         }
 279:Generated_Source\PSoC4/I2C_I2C_MASTER.c ****         else
 280:Generated_Source\PSoC4/I2C_I2C_MASTER.c ****         {
 281:Generated_Source\PSoC4/I2C_I2C_MASTER.c ****             I2C_TX_FIFO_WR_REG = (slaveAddress);
 282:Generated_Source\PSoC4/I2C_I2C_MASTER.c ****             I2C_I2C_MASTER_GENERATE_START;
 283:Generated_Source\PSoC4/I2C_I2C_MASTER.c ****         }
 284:Generated_Source\PSoC4/I2C_I2C_MASTER.c ****     }
 285:Generated_Source\PSoC4/I2C_I2C_MASTER.c **** 
 286:Generated_Source\PSoC4/I2C_I2C_MASTER.c ****     I2C_EnableInt();   /* Release lock */
 287:Generated_Source\PSoC4/I2C_I2C_MASTER.c **** 
 288:Generated_Source\PSoC4/I2C_I2C_MASTER.c ****     return(errStatus);
 289:Generated_Source\PSoC4/I2C_I2C_MASTER.c **** }
 290:Generated_Source\PSoC4/I2C_I2C_MASTER.c **** 
 291:Generated_Source\PSoC4/I2C_I2C_MASTER.c **** 
 292:Generated_Source\PSoC4/I2C_I2C_MASTER.c **** /*******************************************************************************
 293:Generated_Source\PSoC4/I2C_I2C_MASTER.c **** * Function Name: I2C_I2CMasterSendStart
 294:Generated_Source\PSoC4/I2C_I2C_MASTER.c **** ****************************************************************************//**
 295:Generated_Source\PSoC4/I2C_I2C_MASTER.c **** *
 296:Generated_Source\PSoC4/I2C_I2C_MASTER.c **** *  Generates Start condition and sends slave address with read/write bit.
 297:Generated_Source\PSoC4/I2C_I2C_MASTER.c **** *  Disables the I2C interrupt.
 298:Generated_Source\PSoC4/I2C_I2C_MASTER.c **** *  This function is blocking and does not return until start condition and
 299:Generated_Source\PSoC4/I2C_I2C_MASTER.c **** *  address byte are sent and ACK/NACK response is received or errors occurred.
 300:Generated_Source\PSoC4/I2C_I2C_MASTER.c **** *
 301:Generated_Source\PSoC4/I2C_I2C_MASTER.c **** * \param slaveAddress: Right justified 7-bit Slave address (valid range 
 302:Generated_Source\PSoC4/I2C_I2C_MASTER.c **** *  8 to 120).
 303:Generated_Source\PSoC4/I2C_I2C_MASTER.c **** * \param bitRnW: Direction of the following transfer. 
 304:Generated_Source\PSoC4/I2C_I2C_MASTER.c **** *  It is defined by read/write bit within address byte.
 305:Generated_Source\PSoC4/I2C_I2C_MASTER.c **** *  - I2C_I2C_WRITE_XFER_MODE - Set write direction for the 
 306:Generated_Source\PSoC4/I2C_I2C_MASTER.c **** *    following transfer.
 307:Generated_Source\PSoC4/I2C_I2C_MASTER.c **** *  - I2C_I2C_READ_XFER_MODE - Set read direction for the 
 308:Generated_Source\PSoC4/I2C_I2C_MASTER.c **** *    following transfer.
 309:Generated_Source\PSoC4/I2C_I2C_MASTER.c **** *
 310:Generated_Source\PSoC4/I2C_I2C_MASTER.c **** * \return
 311:Generated_Source\PSoC4/I2C_I2C_MASTER.c **** *  Error status.
 312:Generated_Source\PSoC4/I2C_I2C_MASTER.c **** *   - I2C_I2C_MSTR_NO_ERROR - Function complete without error.
 313:Generated_Source\PSoC4/I2C_I2C_MASTER.c **** *   - I2C_I2C_MSTR_BUS_BUSY - Bus is busy. 
 314:Generated_Source\PSoC4/I2C_I2C_MASTER.c **** *     Nothing was sent on the bus. The attempt has to be retried.
 315:Generated_Source\PSoC4/I2C_I2C_MASTER.c **** *   - I2C_I2C_MSTR_NOT_READY - Master is not ready for to 
ARM GAS  C:\Users\gjl\AppData\Local\Temp\ccHudlr6.s 			page 7


 316:Generated_Source\PSoC4/I2C_I2C_MASTER.c **** *     start transfer.
 317:Generated_Source\PSoC4/I2C_I2C_MASTER.c **** *     A master still has not completed previous transaction or a slave 
 318:Generated_Source\PSoC4/I2C_I2C_MASTER.c **** *     operation is in progress (in multi-master-slave configuration).
 319:Generated_Source\PSoC4/I2C_I2C_MASTER.c **** *     Nothing was sent on the bus. The attempt has to be retried.
 320:Generated_Source\PSoC4/I2C_I2C_MASTER.c **** *   - I2C_I2C_MSTR_ERR_LB_NAK - Error condition: Last byte was 
 321:Generated_Source\PSoC4/I2C_I2C_MASTER.c **** *     NAKed.
 322:Generated_Source\PSoC4/I2C_I2C_MASTER.c **** *   - I2C_I2C_MSTR_ERR_ARB_LOST - Error condition: Master lost 
 323:Generated_Source\PSoC4/I2C_I2C_MASTER.c **** *     arbitration.
 324:Generated_Source\PSoC4/I2C_I2C_MASTER.c **** *   - I2C_I2C_MSTR_ERR_BUS_ERR - Error condition: Master 
 325:Generated_Source\PSoC4/I2C_I2C_MASTER.c **** *     encountered a bus error. Bus error is misplaced start or stop detection.
 326:Generated_Source\PSoC4/I2C_I2C_MASTER.c **** *   - I2C_I2C_MSTR_ERR_ABORT_START - Error condition: The start 
 327:Generated_Source\PSoC4/I2C_I2C_MASTER.c **** *     condition generation was aborted due to beginning of Slave operation. 
 328:Generated_Source\PSoC4/I2C_I2C_MASTER.c **** *     This error condition is only applicable for Multi-Master-Slave mode.
 329:Generated_Source\PSoC4/I2C_I2C_MASTER.c **** *
 330:Generated_Source\PSoC4/I2C_I2C_MASTER.c **** * \globalvars
 331:Generated_Source\PSoC4/I2C_I2C_MASTER.c **** *  I2C_state - used to store current state of software FSM.
 332:Generated_Source\PSoC4/I2C_I2C_MASTER.c **** *
 333:Generated_Source\PSoC4/I2C_I2C_MASTER.c **** *******************************************************************************/
 334:Generated_Source\PSoC4/I2C_I2C_MASTER.c **** uint32 I2C_I2CMasterSendStart(uint32 slaveAddress, uint32 bitRnW)
 335:Generated_Source\PSoC4/I2C_I2C_MASTER.c **** {
  28              		.loc 1 335 0
  29              		.cfi_startproc
  30              		@ args = 0, pretend = 0, frame = 0
  31              		@ frame_needed = 0, uses_anonymous_args = 0
  32              	.LVL0:
  33 0000 70B5     		push	{r4, r5, r6, lr}
  34              		.cfi_def_cfa_offset 16
  35              		.cfi_offset 4, -16
  36              		.cfi_offset 5, -12
  37              		.cfi_offset 6, -8
  38              		.cfi_offset 14, -4
  39 0002 0400     		movs	r4, r0
  40 0004 0D00     		movs	r5, r1
  41              	.LVL1:
 336:Generated_Source\PSoC4/I2C_I2C_MASTER.c ****     uint32  resetIp;
 337:Generated_Source\PSoC4/I2C_I2C_MASTER.c ****     uint32 errStatus;
 338:Generated_Source\PSoC4/I2C_I2C_MASTER.c **** 
 339:Generated_Source\PSoC4/I2C_I2C_MASTER.c ****     resetIp   = 0u;
 340:Generated_Source\PSoC4/I2C_I2C_MASTER.c ****     errStatus = I2C_I2C_MSTR_NOT_READY;
 341:Generated_Source\PSoC4/I2C_I2C_MASTER.c **** 
 342:Generated_Source\PSoC4/I2C_I2C_MASTER.c ****     /* Check FSM state before generating Start condition */
 343:Generated_Source\PSoC4/I2C_I2C_MASTER.c ****     if(I2C_CHECK_I2C_FSM_IDLE)
  42              		.loc 1 343 0
  43 0006 2D4B     		ldr	r3, .L12
  44 0008 1B78     		ldrb	r3, [r3]
  45 000a 102B     		cmp	r3, #16
  46 000c 51D1     		bne	.L8
 344:Generated_Source\PSoC4/I2C_I2C_MASTER.c ****     {
 345:Generated_Source\PSoC4/I2C_I2C_MASTER.c ****         /* If bus is free, generate Start condition */
 346:Generated_Source\PSoC4/I2C_I2C_MASTER.c ****         if(I2C_CHECK_I2C_STATUS(I2C_I2C_STATUS_BUS_BUSY))
  47              		.loc 1 346 0
  48 000e 2C4B     		ldr	r3, .L12+4
  49 0010 1B68     		ldr	r3, [r3]
  50 0012 DB07     		lsls	r3, r3, #31
  51 0014 4FD4     		bmi	.L9
 347:Generated_Source\PSoC4/I2C_I2C_MASTER.c ****         {
 348:Generated_Source\PSoC4/I2C_I2C_MASTER.c ****             errStatus = I2C_I2C_MSTR_BUS_BUSY;
ARM GAS  C:\Users\gjl\AppData\Local\Temp\ccHudlr6.s 			page 8


 349:Generated_Source\PSoC4/I2C_I2C_MASTER.c ****         }
 350:Generated_Source\PSoC4/I2C_I2C_MASTER.c ****         else
 351:Generated_Source\PSoC4/I2C_I2C_MASTER.c ****         {
 352:Generated_Source\PSoC4/I2C_I2C_MASTER.c ****             I2C_DisableInt();  /* Lock from interruption */
  52              		.loc 1 352 0
  53 0016 0820     		movs	r0, #8
  54              	.LVL2:
  55 0018 FFF7FEFF 		bl	CyIntDisable
  56              	.LVL3:
 353:Generated_Source\PSoC4/I2C_I2C_MASTER.c **** 
 354:Generated_Source\PSoC4/I2C_I2C_MASTER.c ****         #if (!I2C_CY_SCBIP_V0 && \
 355:Generated_Source\PSoC4/I2C_I2C_MASTER.c ****             I2C_I2C_MULTI_MASTER_SLAVE_CONST && I2C_I2C_WAKE_ENABLE_CONST)
 356:Generated_Source\PSoC4/I2C_I2C_MASTER.c ****             I2C_I2CMasterDisableEcAm();
 357:Generated_Source\PSoC4/I2C_I2C_MASTER.c ****         #endif /* (!I2C_CY_SCBIP_V0) */
 358:Generated_Source\PSoC4/I2C_I2C_MASTER.c **** 
 359:Generated_Source\PSoC4/I2C_I2C_MASTER.c ****             slaveAddress = I2C_GET_I2C_8BIT_ADDRESS(slaveAddress);
  57              		.loc 1 359 0
  58 001c 6400     		lsls	r4, r4, #1
  59              	.LVL4:
  60 001e FF23     		movs	r3, #255
  61 0020 1C40     		ands	r4, r3
  62              	.LVL5:
 360:Generated_Source\PSoC4/I2C_I2C_MASTER.c **** 
 361:Generated_Source\PSoC4/I2C_I2C_MASTER.c ****             if(0u == bitRnW) /* Write direction */
  63              		.loc 1 361 0
  64 0022 002D     		cmp	r5, #0
  65 0024 03D1     		bne	.L3
 362:Generated_Source\PSoC4/I2C_I2C_MASTER.c ****             {
 363:Generated_Source\PSoC4/I2C_I2C_MASTER.c ****                 I2C_state = I2C_I2C_FSM_MSTR_WR_DATA;
  66              		.loc 1 363 0
  67 0026 2422     		movs	r2, #36
  68 0028 244B     		ldr	r3, .L12
  69 002a 1A70     		strb	r2, [r3]
  70 002c 04E0     		b	.L4
  71              	.L3:
 364:Generated_Source\PSoC4/I2C_I2C_MASTER.c ****             }
 365:Generated_Source\PSoC4/I2C_I2C_MASTER.c ****             else /* Read direction */
 366:Generated_Source\PSoC4/I2C_I2C_MASTER.c ****             {
 367:Generated_Source\PSoC4/I2C_I2C_MASTER.c ****                 I2C_state = I2C_I2C_FSM_MSTR_RD_DATA;
  72              		.loc 1 367 0
  73 002e 2522     		movs	r2, #37
  74 0030 224B     		ldr	r3, .L12
  75 0032 1A70     		strb	r2, [r3]
 368:Generated_Source\PSoC4/I2C_I2C_MASTER.c ****                          slaveAddress |= I2C_I2C_READ_FLAG;
  76              		.loc 1 368 0
  77 0034 0123     		movs	r3, #1
  78 0036 1C43     		orrs	r4, r3
  79              	.LVL6:
  80              	.L4:
 369:Generated_Source\PSoC4/I2C_I2C_MASTER.c ****             }
 370:Generated_Source\PSoC4/I2C_I2C_MASTER.c **** 
 371:Generated_Source\PSoC4/I2C_I2C_MASTER.c ****             /* TX and RX FIFO have to be EMPTY */
 372:Generated_Source\PSoC4/I2C_I2C_MASTER.c **** 
 373:Generated_Source\PSoC4/I2C_I2C_MASTER.c ****             I2C_TX_FIFO_WR_REG = slaveAddress; /* Put address in TX FIFO */
  81              		.loc 1 373 0
  82 0038 224B     		ldr	r3, .L12+8
  83 003a 1C60     		str	r4, [r3]
ARM GAS  C:\Users\gjl\AppData\Local\Temp\ccHudlr6.s 			page 9


 374:Generated_Source\PSoC4/I2C_I2C_MASTER.c ****             I2C_ClearMasterInterruptSource(I2C_INTR_MASTER_ALL);
  84              		.loc 1 374 0
  85 003c 224A     		ldr	r2, .L12+12
  86 003e 234B     		ldr	r3, .L12+16
  87 0040 1A60     		str	r2, [r3]
 375:Generated_Source\PSoC4/I2C_I2C_MASTER.c **** 
 376:Generated_Source\PSoC4/I2C_I2C_MASTER.c ****             I2C_I2C_MASTER_GENERATE_START;
  88              		.loc 1 376 0
  89 0042 0222     		movs	r2, #2
  90 0044 224B     		ldr	r3, .L12+20
  91 0046 1A60     		str	r2, [r3]
  92              	.L5:
 377:Generated_Source\PSoC4/I2C_I2C_MASTER.c **** 
 378:Generated_Source\PSoC4/I2C_I2C_MASTER.c **** 
 379:Generated_Source\PSoC4/I2C_I2C_MASTER.c ****             while(!I2C_CHECK_INTR_MASTER(I2C_INTR_MASTER_I2C_ACK      |
  93              		.loc 1 379 0 discriminator 1
  94 0048 204B     		ldr	r3, .L12+16
  95 004a 1A68     		ldr	r2, [r3]
  96 004c 0823     		movs	r3, #8
  97 004e FF33     		adds	r3, r3, #255
  98 0050 1A42     		tst	r2, r3
  99 0052 F9D0     		beq	.L5
 380:Generated_Source\PSoC4/I2C_I2C_MASTER.c ****                                                       I2C_INTR_MASTER_I2C_NACK     |
 381:Generated_Source\PSoC4/I2C_I2C_MASTER.c ****                                                       I2C_INTR_MASTER_I2C_ARB_LOST |
 382:Generated_Source\PSoC4/I2C_I2C_MASTER.c ****                                                       I2C_INTR_MASTER_I2C_BUS_ERROR))
 383:Generated_Source\PSoC4/I2C_I2C_MASTER.c ****             {
 384:Generated_Source\PSoC4/I2C_I2C_MASTER.c ****                 /*
 385:Generated_Source\PSoC4/I2C_I2C_MASTER.c ****                 * Write: wait until address has been transferred
 386:Generated_Source\PSoC4/I2C_I2C_MASTER.c ****                 * Read : wait until address has been transferred, data byte is going to RX FIFO as 
 387:Generated_Source\PSoC4/I2C_I2C_MASTER.c ****                 */
 388:Generated_Source\PSoC4/I2C_I2C_MASTER.c ****             }
 389:Generated_Source\PSoC4/I2C_I2C_MASTER.c **** 
 390:Generated_Source\PSoC4/I2C_I2C_MASTER.c ****             /* Check the results of the address phase */
 391:Generated_Source\PSoC4/I2C_I2C_MASTER.c ****             if(I2C_CHECK_INTR_MASTER(I2C_INTR_MASTER_I2C_ACK))
 100              		.loc 1 391 0
 101 0054 1D4B     		ldr	r3, .L12+16
 102 0056 1B68     		ldr	r3, [r3]
 103 0058 5B07     		lsls	r3, r3, #29
 104 005a 14D4     		bmi	.L10
 392:Generated_Source\PSoC4/I2C_I2C_MASTER.c ****             {
 393:Generated_Source\PSoC4/I2C_I2C_MASTER.c ****                 errStatus = I2C_I2C_MSTR_NO_ERROR;
 394:Generated_Source\PSoC4/I2C_I2C_MASTER.c ****             }
 395:Generated_Source\PSoC4/I2C_I2C_MASTER.c ****             else if(I2C_CHECK_INTR_MASTER(I2C_INTR_MASTER_I2C_NACK))
 105              		.loc 1 395 0
 106 005c 1B4B     		ldr	r3, .L12+16
 107 005e 1B68     		ldr	r3, [r3]
 108 0060 9B07     		lsls	r3, r3, #30
 109 0062 13D4     		bmi	.L11
 396:Generated_Source\PSoC4/I2C_I2C_MASTER.c ****             {
 397:Generated_Source\PSoC4/I2C_I2C_MASTER.c ****                 errStatus = I2C_I2C_MSTR_ERR_LB_NAK;
 398:Generated_Source\PSoC4/I2C_I2C_MASTER.c ****             }
 399:Generated_Source\PSoC4/I2C_I2C_MASTER.c ****             else if(I2C_CHECK_INTR_MASTER(I2C_INTR_MASTER_I2C_ARB_LOST))
 110              		.loc 1 399 0
 111 0064 194B     		ldr	r3, .L12+16
 112 0066 1B68     		ldr	r3, [r3]
 113 0068 DB07     		lsls	r3, r3, #31
 114 006a 05D5     		bpl	.L7
ARM GAS  C:\Users\gjl\AppData\Local\Temp\ccHudlr6.s 			page 10


 400:Generated_Source\PSoC4/I2C_I2C_MASTER.c ****             {
 401:Generated_Source\PSoC4/I2C_I2C_MASTER.c ****                 I2C_state = I2C_I2C_FSM_IDLE;
 115              		.loc 1 401 0
 116 006c 1022     		movs	r2, #16
 117 006e 134B     		ldr	r3, .L12
 118 0070 1A70     		strb	r2, [r3]
 119              	.LVL7:
 402:Generated_Source\PSoC4/I2C_I2C_MASTER.c ****                              errStatus = I2C_I2C_MSTR_ERR_ARB_LOST;
 120              		.loc 1 402 0
 121 0072 0120     		movs	r0, #1
 403:Generated_Source\PSoC4/I2C_I2C_MASTER.c ****                              resetIp   = I2C_I2C_RESET_ERROR;
 122              		.loc 1 403 0
 123 0074 0121     		movs	r1, #1
 124 0076 0BE0     		b	.L6
 125              	.LVL8:
 126              	.L7:
 404:Generated_Source\PSoC4/I2C_I2C_MASTER.c ****             }
 405:Generated_Source\PSoC4/I2C_I2C_MASTER.c ****             else /* I2C_INTR_MASTER_I2C_BUS_ERROR set is else condition */
 406:Generated_Source\PSoC4/I2C_I2C_MASTER.c ****             {
 407:Generated_Source\PSoC4/I2C_I2C_MASTER.c ****                 I2C_state = I2C_I2C_FSM_IDLE;
 127              		.loc 1 407 0
 128 0078 1022     		movs	r2, #16
 129 007a 104B     		ldr	r3, .L12
 130 007c 1A70     		strb	r2, [r3]
 131              	.LVL9:
 408:Generated_Source\PSoC4/I2C_I2C_MASTER.c ****                              errStatus = I2C_I2C_MSTR_ERR_BUS_ERR;
 132              		.loc 1 408 0
 133 007e 8020     		movs	r0, #128
 134 0080 4000     		lsls	r0, r0, #1
 409:Generated_Source\PSoC4/I2C_I2C_MASTER.c ****                              resetIp   = I2C_I2C_RESET_ERROR;
 135              		.loc 1 409 0
 136 0082 0121     		movs	r1, #1
 137 0084 04E0     		b	.L6
 138              	.LVL10:
 139              	.L10:
 393:Generated_Source\PSoC4/I2C_I2C_MASTER.c ****             }
 140              		.loc 1 393 0
 141 0086 0020     		movs	r0, #0
 339:Generated_Source\PSoC4/I2C_I2C_MASTER.c ****     errStatus = I2C_I2C_MSTR_NOT_READY;
 142              		.loc 1 339 0
 143 0088 0021     		movs	r1, #0
 144 008a 01E0     		b	.L6
 145              	.L11:
 397:Generated_Source\PSoC4/I2C_I2C_MASTER.c ****             }
 146              		.loc 1 397 0
 147 008c 0220     		movs	r0, #2
 339:Generated_Source\PSoC4/I2C_I2C_MASTER.c ****     errStatus = I2C_I2C_MSTR_NOT_READY;
 148              		.loc 1 339 0
 149 008e 0021     		movs	r1, #0
 150              	.LVL11:
 151              	.L6:
 410:Generated_Source\PSoC4/I2C_I2C_MASTER.c ****             }
 411:Generated_Source\PSoC4/I2C_I2C_MASTER.c **** 
 412:Generated_Source\PSoC4/I2C_I2C_MASTER.c ****             I2C_ClearMasterInterruptSource(I2C_INTR_MASTER_I2C_ACK      |
 152              		.loc 1 412 0
 153 0090 0822     		movs	r2, #8
 154 0092 FF32     		adds	r2, r2, #255
ARM GAS  C:\Users\gjl\AppData\Local\Temp\ccHudlr6.s 			page 11


 155 0094 0D4B     		ldr	r3, .L12+16
 156 0096 1A60     		str	r2, [r3]
 413:Generated_Source\PSoC4/I2C_I2C_MASTER.c ****                                                         I2C_INTR_MASTER_I2C_NACK     |
 414:Generated_Source\PSoC4/I2C_I2C_MASTER.c ****                                                         I2C_INTR_MASTER_I2C_ARB_LOST |
 415:Generated_Source\PSoC4/I2C_I2C_MASTER.c ****                                                         I2C_INTR_MASTER_I2C_BUS_ERROR);
 416:Generated_Source\PSoC4/I2C_I2C_MASTER.c **** 
 417:Generated_Source\PSoC4/I2C_I2C_MASTER.c ****             /* Reset block in case of: LOST_ARB or BUS_ERR */
 418:Generated_Source\PSoC4/I2C_I2C_MASTER.c ****             if(0u != resetIp)
 157              		.loc 1 418 0
 158 0098 0029     		cmp	r1, #0
 159 009a 0DD0     		beq	.L2
 419:Generated_Source\PSoC4/I2C_I2C_MASTER.c ****             {
 420:Generated_Source\PSoC4/I2C_I2C_MASTER.c ****                 I2C_SCB_SW_RESET;
 160              		.loc 1 420 0
 161 009c 0D4A     		ldr	r2, .L12+24
 162 009e 1368     		ldr	r3, [r2]
 163 00a0 5B00     		lsls	r3, r3, #1
 164 00a2 5B08     		lsrs	r3, r3, #1
 165 00a4 1360     		str	r3, [r2]
 166 00a6 1368     		ldr	r3, [r2]
 167 00a8 8021     		movs	r1, #128
 168              	.LVL12:
 169 00aa 0906     		lsls	r1, r1, #24
 170 00ac 0B43     		orrs	r3, r1
 171 00ae 1360     		str	r3, [r2]
 172 00b0 02E0     		b	.L2
 173              	.LVL13:
 174              	.L8:
 340:Generated_Source\PSoC4/I2C_I2C_MASTER.c **** 
 175              		.loc 1 340 0
 176 00b2 0420     		movs	r0, #4
 177              	.LVL14:
 178 00b4 00E0     		b	.L2
 179              	.LVL15:
 180              	.L9:
 348:Generated_Source\PSoC4/I2C_I2C_MASTER.c ****         }
 181              		.loc 1 348 0
 182 00b6 0820     		movs	r0, #8
 183              	.LVL16:
 184              	.L2:
 421:Generated_Source\PSoC4/I2C_I2C_MASTER.c ****             }
 422:Generated_Source\PSoC4/I2C_I2C_MASTER.c ****         }
 423:Generated_Source\PSoC4/I2C_I2C_MASTER.c ****     }
 424:Generated_Source\PSoC4/I2C_I2C_MASTER.c **** 
 425:Generated_Source\PSoC4/I2C_I2C_MASTER.c ****     return(errStatus);
 426:Generated_Source\PSoC4/I2C_I2C_MASTER.c **** }
 185              		.loc 1 426 0
 186              		@ sp needed
 187              	.LVL17:
 188              	.LVL18:
 189 00b8 70BD     		pop	{r4, r5, r6, pc}
 190              	.L13:
 191 00ba C046     		.align	2
 192              	.L12:
 193 00bc 00000000 		.word	I2C_state
 194 00c0 64002440 		.word	1076101220
 195 00c4 40022440 		.word	1076101696
ARM GAS  C:\Users\gjl\AppData\Local\Temp\ccHudlr6.s 			page 12


 196 00c8 17030000 		.word	791
 197 00cc 000F2440 		.word	1076104960
 198 00d0 68002440 		.word	1076101224
 199 00d4 00002440 		.word	1076101120
 200              		.cfi_endproc
 201              	.LFE3:
 202              		.size	I2C_I2CMasterSendStart, .-I2C_I2CMasterSendStart
 203              		.section	.text.I2C_I2CMasterSendStop,"ax",%progbits
 204              		.align	2
 205              		.global	I2C_I2CMasterSendStop
 206              		.code	16
 207              		.thumb_func
 208              		.type	I2C_I2CMasterSendStop, %function
 209              	I2C_I2CMasterSendStop:
 210              	.LFB5:
 427:Generated_Source\PSoC4/I2C_I2C_MASTER.c **** 
 428:Generated_Source\PSoC4/I2C_I2C_MASTER.c **** 
 429:Generated_Source\PSoC4/I2C_I2C_MASTER.c **** /*******************************************************************************
 430:Generated_Source\PSoC4/I2C_I2C_MASTER.c **** * Function Name: I2C_I2CMasterSendRestart
 431:Generated_Source\PSoC4/I2C_I2C_MASTER.c **** ****************************************************************************//**
 432:Generated_Source\PSoC4/I2C_I2C_MASTER.c **** *
 433:Generated_Source\PSoC4/I2C_I2C_MASTER.c **** *  Generates Restart condition and sends slave address with read/write bit.
 434:Generated_Source\PSoC4/I2C_I2C_MASTER.c **** *  This function is blocking and does not return until start condition and
 435:Generated_Source\PSoC4/I2C_I2C_MASTER.c **** *  address are sent and ACK/NACK response is received or errors occurred.
 436:Generated_Source\PSoC4/I2C_I2C_MASTER.c **** *
 437:Generated_Source\PSoC4/I2C_I2C_MASTER.c **** * \param slaveAddress: Right justified 7-bit Slave address (valid range 
 438:Generated_Source\PSoC4/I2C_I2C_MASTER.c **** *   8 to 120).
 439:Generated_Source\PSoC4/I2C_I2C_MASTER.c **** * \param bitRnW: Direction of the following transfer. It is defined by 
 440:Generated_Source\PSoC4/I2C_I2C_MASTER.c **** *  read/write bit within address byte. 
 441:Generated_Source\PSoC4/I2C_I2C_MASTER.c **** *  See I2C_I2CMasterSendStart() function for constants.
 442:Generated_Source\PSoC4/I2C_I2C_MASTER.c **** *
 443:Generated_Source\PSoC4/I2C_I2C_MASTER.c **** * \return
 444:Generated_Source\PSoC4/I2C_I2C_MASTER.c **** *  Error status. 
 445:Generated_Source\PSoC4/I2C_I2C_MASTER.c **** *  See I2C_I2CMasterSendStart() function for constants.
 446:Generated_Source\PSoC4/I2C_I2C_MASTER.c **** *
 447:Generated_Source\PSoC4/I2C_I2C_MASTER.c **** * \sideeffect
 448:Generated_Source\PSoC4/I2C_I2C_MASTER.c **** *  A valid Start or ReStart condition must be generated before calling 
 449:Generated_Source\PSoC4/I2C_I2C_MASTER.c **** *  this function. This function does nothing if Start or ReStart conditions 
 450:Generated_Source\PSoC4/I2C_I2C_MASTER.c **** *  failed before this function was called.
 451:Generated_Source\PSoC4/I2C_I2C_MASTER.c **** *  For read transaction, at least one byte has to be read before ReStart 
 452:Generated_Source\PSoC4/I2C_I2C_MASTER.c **** *  generation.
 453:Generated_Source\PSoC4/I2C_I2C_MASTER.c **** *
 454:Generated_Source\PSoC4/I2C_I2C_MASTER.c **** * \globalvars
 455:Generated_Source\PSoC4/I2C_I2C_MASTER.c **** *  I2C_state - used to store current state of software FSM.
 456:Generated_Source\PSoC4/I2C_I2C_MASTER.c **** *
 457:Generated_Source\PSoC4/I2C_I2C_MASTER.c **** *******************************************************************************/
 458:Generated_Source\PSoC4/I2C_I2C_MASTER.c **** uint32 I2C_I2CMasterSendRestart(uint32 slaveAddress, uint32 bitRnW)
 459:Generated_Source\PSoC4/I2C_I2C_MASTER.c **** {
 460:Generated_Source\PSoC4/I2C_I2C_MASTER.c ****     uint32 resetIp;
 461:Generated_Source\PSoC4/I2C_I2C_MASTER.c ****     uint32 errStatus;
 462:Generated_Source\PSoC4/I2C_I2C_MASTER.c **** 
 463:Generated_Source\PSoC4/I2C_I2C_MASTER.c ****     resetIp   = 0u;
 464:Generated_Source\PSoC4/I2C_I2C_MASTER.c ****     errStatus = I2C_I2C_MSTR_NOT_READY;
 465:Generated_Source\PSoC4/I2C_I2C_MASTER.c **** 
 466:Generated_Source\PSoC4/I2C_I2C_MASTER.c ****     /* Check FSM state before generating ReStart condition */
 467:Generated_Source\PSoC4/I2C_I2C_MASTER.c ****     if(I2C_CHECK_I2C_MASTER_ACTIVE)
 468:Generated_Source\PSoC4/I2C_I2C_MASTER.c ****     {
ARM GAS  C:\Users\gjl\AppData\Local\Temp\ccHudlr6.s 			page 13


 469:Generated_Source\PSoC4/I2C_I2C_MASTER.c ****         slaveAddress = I2C_GET_I2C_8BIT_ADDRESS(slaveAddress);
 470:Generated_Source\PSoC4/I2C_I2C_MASTER.c **** 
 471:Generated_Source\PSoC4/I2C_I2C_MASTER.c ****         if(0u == bitRnW) /* Write direction */
 472:Generated_Source\PSoC4/I2C_I2C_MASTER.c ****         {
 473:Generated_Source\PSoC4/I2C_I2C_MASTER.c ****             I2C_state = I2C_I2C_FSM_MSTR_WR_DATA;
 474:Generated_Source\PSoC4/I2C_I2C_MASTER.c ****         }
 475:Generated_Source\PSoC4/I2C_I2C_MASTER.c ****         else  /* Read direction */
 476:Generated_Source\PSoC4/I2C_I2C_MASTER.c ****         {
 477:Generated_Source\PSoC4/I2C_I2C_MASTER.c ****             I2C_state  = I2C_I2C_FSM_MSTR_RD_DATA;
 478:Generated_Source\PSoC4/I2C_I2C_MASTER.c ****                       slaveAddress |= I2C_I2C_READ_FLAG;
 479:Generated_Source\PSoC4/I2C_I2C_MASTER.c ****         }
 480:Generated_Source\PSoC4/I2C_I2C_MASTER.c **** 
 481:Generated_Source\PSoC4/I2C_I2C_MASTER.c ****         /* TX and RX FIFO have to be EMPTY */
 482:Generated_Source\PSoC4/I2C_I2C_MASTER.c **** 
 483:Generated_Source\PSoC4/I2C_I2C_MASTER.c ****         /* Clean-up interrupt status */
 484:Generated_Source\PSoC4/I2C_I2C_MASTER.c ****         I2C_ClearMasterInterruptSource(I2C_INTR_MASTER_ALL);
 485:Generated_Source\PSoC4/I2C_I2C_MASTER.c **** 
 486:Generated_Source\PSoC4/I2C_I2C_MASTER.c ****         /* A proper ReStart sequence is: generate ReStart, then put an address byte in the TX FIFO.
 487:Generated_Source\PSoC4/I2C_I2C_MASTER.c ****         * Otherwise the master treats the address in the TX FIFO as a data byte if a previous trans
 488:Generated_Source\PSoC4/I2C_I2C_MASTER.c ****         * The write transfer continues instead of ReStart.
 489:Generated_Source\PSoC4/I2C_I2C_MASTER.c ****         */
 490:Generated_Source\PSoC4/I2C_I2C_MASTER.c ****         I2C_I2C_MASTER_GENERATE_RESTART;
 491:Generated_Source\PSoC4/I2C_I2C_MASTER.c **** 
 492:Generated_Source\PSoC4/I2C_I2C_MASTER.c ****         while(I2C_CHECK_I2C_MASTER_CMD(I2C_I2C_MASTER_CMD_M_START))
 493:Generated_Source\PSoC4/I2C_I2C_MASTER.c ****         {
 494:Generated_Source\PSoC4/I2C_I2C_MASTER.c ****             /* Wait until ReStart has been generated */
 495:Generated_Source\PSoC4/I2C_I2C_MASTER.c ****         }
 496:Generated_Source\PSoC4/I2C_I2C_MASTER.c **** 
 497:Generated_Source\PSoC4/I2C_I2C_MASTER.c ****         /* Put address into TX FIFO */
 498:Generated_Source\PSoC4/I2C_I2C_MASTER.c ****         I2C_TX_FIFO_WR_REG = slaveAddress;
 499:Generated_Source\PSoC4/I2C_I2C_MASTER.c **** 
 500:Generated_Source\PSoC4/I2C_I2C_MASTER.c ****         /* Wait for address to be transferred */
 501:Generated_Source\PSoC4/I2C_I2C_MASTER.c ****         while(!I2C_CHECK_INTR_MASTER(I2C_INTR_MASTER_I2C_ACK      |
 502:Generated_Source\PSoC4/I2C_I2C_MASTER.c ****                                                   I2C_INTR_MASTER_I2C_NACK     |
 503:Generated_Source\PSoC4/I2C_I2C_MASTER.c ****                                                   I2C_INTR_MASTER_I2C_ARB_LOST |
 504:Generated_Source\PSoC4/I2C_I2C_MASTER.c ****                                                   I2C_INTR_MASTER_I2C_BUS_ERROR))
 505:Generated_Source\PSoC4/I2C_I2C_MASTER.c ****         {
 506:Generated_Source\PSoC4/I2C_I2C_MASTER.c ****             /* Wait until address has been transferred */
 507:Generated_Source\PSoC4/I2C_I2C_MASTER.c ****         }
 508:Generated_Source\PSoC4/I2C_I2C_MASTER.c **** 
 509:Generated_Source\PSoC4/I2C_I2C_MASTER.c ****         /* Check results of address phase */
 510:Generated_Source\PSoC4/I2C_I2C_MASTER.c ****         if(I2C_CHECK_INTR_MASTER(I2C_INTR_MASTER_I2C_ACK))
 511:Generated_Source\PSoC4/I2C_I2C_MASTER.c ****         {
 512:Generated_Source\PSoC4/I2C_I2C_MASTER.c ****             errStatus = I2C_I2C_MSTR_NO_ERROR;
 513:Generated_Source\PSoC4/I2C_I2C_MASTER.c ****         }
 514:Generated_Source\PSoC4/I2C_I2C_MASTER.c ****         else if(I2C_CHECK_INTR_MASTER(I2C_INTR_MASTER_I2C_NACK))
 515:Generated_Source\PSoC4/I2C_I2C_MASTER.c ****         {
 516:Generated_Source\PSoC4/I2C_I2C_MASTER.c ****              errStatus = I2C_I2C_MSTR_ERR_LB_NAK;
 517:Generated_Source\PSoC4/I2C_I2C_MASTER.c ****         }
 518:Generated_Source\PSoC4/I2C_I2C_MASTER.c ****         else if(I2C_CHECK_INTR_MASTER(I2C_INTR_MASTER_I2C_ARB_LOST))
 519:Generated_Source\PSoC4/I2C_I2C_MASTER.c ****         {
 520:Generated_Source\PSoC4/I2C_I2C_MASTER.c ****             I2C_state = I2C_I2C_FSM_IDLE;
 521:Generated_Source\PSoC4/I2C_I2C_MASTER.c ****                          errStatus = I2C_I2C_MSTR_ERR_ARB_LOST;
 522:Generated_Source\PSoC4/I2C_I2C_MASTER.c ****                          resetIp   = I2C_I2C_RESET_ERROR;
 523:Generated_Source\PSoC4/I2C_I2C_MASTER.c ****         }
 524:Generated_Source\PSoC4/I2C_I2C_MASTER.c ****         else /* I2C_INTR_MASTER_I2C_BUS_ERROR set is else condition */
 525:Generated_Source\PSoC4/I2C_I2C_MASTER.c ****         {
ARM GAS  C:\Users\gjl\AppData\Local\Temp\ccHudlr6.s 			page 14


 526:Generated_Source\PSoC4/I2C_I2C_MASTER.c ****             I2C_state = I2C_I2C_FSM_IDLE;
 527:Generated_Source\PSoC4/I2C_I2C_MASTER.c ****                          errStatus = I2C_I2C_MSTR_ERR_BUS_ERR;
 528:Generated_Source\PSoC4/I2C_I2C_MASTER.c ****                          resetIp   = I2C_I2C_RESET_ERROR;
 529:Generated_Source\PSoC4/I2C_I2C_MASTER.c ****         }
 530:Generated_Source\PSoC4/I2C_I2C_MASTER.c **** 
 531:Generated_Source\PSoC4/I2C_I2C_MASTER.c ****         I2C_ClearMasterInterruptSource(I2C_INTR_MASTER_I2C_ACK      |
 532:Generated_Source\PSoC4/I2C_I2C_MASTER.c ****                                                     I2C_INTR_MASTER_I2C_NACK     |
 533:Generated_Source\PSoC4/I2C_I2C_MASTER.c ****                                                     I2C_INTR_MASTER_I2C_ARB_LOST |
 534:Generated_Source\PSoC4/I2C_I2C_MASTER.c ****                                                     I2C_INTR_MASTER_I2C_BUS_ERROR);
 535:Generated_Source\PSoC4/I2C_I2C_MASTER.c **** 
 536:Generated_Source\PSoC4/I2C_I2C_MASTER.c ****         /* Reset block in case of: LOST_ARB or BUS_ERR */
 537:Generated_Source\PSoC4/I2C_I2C_MASTER.c ****         if(0u != resetIp)
 538:Generated_Source\PSoC4/I2C_I2C_MASTER.c ****         {
 539:Generated_Source\PSoC4/I2C_I2C_MASTER.c ****             I2C_SCB_SW_RESET;
 540:Generated_Source\PSoC4/I2C_I2C_MASTER.c ****         }
 541:Generated_Source\PSoC4/I2C_I2C_MASTER.c ****     }
 542:Generated_Source\PSoC4/I2C_I2C_MASTER.c **** 
 543:Generated_Source\PSoC4/I2C_I2C_MASTER.c ****     return(errStatus);
 544:Generated_Source\PSoC4/I2C_I2C_MASTER.c **** }
 545:Generated_Source\PSoC4/I2C_I2C_MASTER.c **** 
 546:Generated_Source\PSoC4/I2C_I2C_MASTER.c **** 
 547:Generated_Source\PSoC4/I2C_I2C_MASTER.c **** /*******************************************************************************
 548:Generated_Source\PSoC4/I2C_I2C_MASTER.c **** * Function Name: I2C_I2CMasterSendStop
 549:Generated_Source\PSoC4/I2C_I2C_MASTER.c **** ****************************************************************************//**
 550:Generated_Source\PSoC4/I2C_I2C_MASTER.c **** *
 551:Generated_Source\PSoC4/I2C_I2C_MASTER.c **** *  Generates Stop condition on the bus. 
 552:Generated_Source\PSoC4/I2C_I2C_MASTER.c **** *  The NAK is generated before Stop in case of a read transaction.
 553:Generated_Source\PSoC4/I2C_I2C_MASTER.c **** *  At least one byte has to be read if a Start or ReStart condition with read 
 554:Generated_Source\PSoC4/I2C_I2C_MASTER.c **** *  direction was generated before.
 555:Generated_Source\PSoC4/I2C_I2C_MASTER.c **** *  This function is blocking and does not return until a Stop condition is 
 556:Generated_Source\PSoC4/I2C_I2C_MASTER.c **** *  generated or error occurred.
 557:Generated_Source\PSoC4/I2C_I2C_MASTER.c **** *
 558:Generated_Source\PSoC4/I2C_I2C_MASTER.c **** * \return
 559:Generated_Source\PSoC4/I2C_I2C_MASTER.c **** *  Error status.
 560:Generated_Source\PSoC4/I2C_I2C_MASTER.c **** *  See I2C_I2CMasterSendStart() function for constants.
 561:Generated_Source\PSoC4/I2C_I2C_MASTER.c **** *
 562:Generated_Source\PSoC4/I2C_I2C_MASTER.c **** * \sideeffect
 563:Generated_Source\PSoC4/I2C_I2C_MASTER.c **** *  A valid Start or ReStart condition must be generated before calling 
 564:Generated_Source\PSoC4/I2C_I2C_MASTER.c **** *  this function. This function does nothing if Start or ReStart conditions 
 565:Generated_Source\PSoC4/I2C_I2C_MASTER.c **** *  failed before this function was called.
 566:Generated_Source\PSoC4/I2C_I2C_MASTER.c **** *  For read transaction, at least one byte has to be read before ReStart 
 567:Generated_Source\PSoC4/I2C_I2C_MASTER.c **** *  generation.
 568:Generated_Source\PSoC4/I2C_I2C_MASTER.c **** *
 569:Generated_Source\PSoC4/I2C_I2C_MASTER.c **** * \globalvars
 570:Generated_Source\PSoC4/I2C_I2C_MASTER.c **** *  I2C_state - used to store current state of software FSM.
 571:Generated_Source\PSoC4/I2C_I2C_MASTER.c **** *
 572:Generated_Source\PSoC4/I2C_I2C_MASTER.c **** *******************************************************************************/
 573:Generated_Source\PSoC4/I2C_I2C_MASTER.c **** uint32 I2C_I2CMasterSendStop(void)
 574:Generated_Source\PSoC4/I2C_I2C_MASTER.c **** {
 211              		.loc 1 574 0
 212              		.cfi_startproc
 213              		@ args = 0, pretend = 0, frame = 0
 214              		@ frame_needed = 0, uses_anonymous_args = 0
 215              		@ link register save eliminated.
 216              	.LVL19:
 575:Generated_Source\PSoC4/I2C_I2C_MASTER.c ****     uint32 resetIp;
 576:Generated_Source\PSoC4/I2C_I2C_MASTER.c ****     uint32 errStatus;
ARM GAS  C:\Users\gjl\AppData\Local\Temp\ccHudlr6.s 			page 15


 577:Generated_Source\PSoC4/I2C_I2C_MASTER.c **** 
 578:Generated_Source\PSoC4/I2C_I2C_MASTER.c ****     resetIp   = 0u;
 579:Generated_Source\PSoC4/I2C_I2C_MASTER.c ****     errStatus = I2C_I2C_MSTR_NOT_READY;
 580:Generated_Source\PSoC4/I2C_I2C_MASTER.c **** 
 581:Generated_Source\PSoC4/I2C_I2C_MASTER.c ****     /* Check FSM state before generating Stop condition */
 582:Generated_Source\PSoC4/I2C_I2C_MASTER.c ****     if(I2C_CHECK_I2C_MASTER_ACTIVE)
 217              		.loc 1 582 0
 218 0000 1D4B     		ldr	r3, .L23
 219 0002 1B78     		ldrb	r3, [r3]
 220 0004 9B06     		lsls	r3, r3, #26
 221 0006 34D5     		bpl	.L19
 583:Generated_Source\PSoC4/I2C_I2C_MASTER.c ****     {
 584:Generated_Source\PSoC4/I2C_I2C_MASTER.c ****         /*
 585:Generated_Source\PSoC4/I2C_I2C_MASTER.c ****         * Write direction: generates Stop
 586:Generated_Source\PSoC4/I2C_I2C_MASTER.c ****         * Read  direction: generates NACK and Stop
 587:Generated_Source\PSoC4/I2C_I2C_MASTER.c ****         */
 588:Generated_Source\PSoC4/I2C_I2C_MASTER.c ****         I2C_I2C_MASTER_GENERATE_STOP;
 222              		.loc 1 588 0
 223 0008 1C4B     		ldr	r3, .L23+4
 224 000a 1B68     		ldr	r3, [r3]
 225 000c 9B06     		lsls	r3, r3, #26
 226 000e 01D5     		bpl	.L20
 227 0010 1822     		movs	r2, #24
 228 0012 00E0     		b	.L16
 229              	.L20:
 230 0014 1022     		movs	r2, #16
 231              	.L16:
 232              		.loc 1 588 0 is_stmt 0 discriminator 4
 233 0016 1A4B     		ldr	r3, .L23+8
 234 0018 1A60     		str	r2, [r3]
 235              	.L17:
 589:Generated_Source\PSoC4/I2C_I2C_MASTER.c **** 
 590:Generated_Source\PSoC4/I2C_I2C_MASTER.c ****         while(!I2C_CHECK_INTR_MASTER(I2C_INTR_MASTER_I2C_STOP     |
 236              		.loc 1 590 0 is_stmt 1 discriminator 1
 237 001a 1A4B     		ldr	r3, .L23+12
 238 001c 1A68     		ldr	r2, [r3]
 239 001e 1223     		movs	r3, #18
 240 0020 FF33     		adds	r3, r3, #255
 241 0022 1A42     		tst	r2, r3
 242 0024 F9D0     		beq	.L17
 591:Generated_Source\PSoC4/I2C_I2C_MASTER.c ****                                                   I2C_INTR_MASTER_I2C_ARB_LOST |
 592:Generated_Source\PSoC4/I2C_I2C_MASTER.c ****                                                   I2C_INTR_MASTER_I2C_BUS_ERROR))
 593:Generated_Source\PSoC4/I2C_I2C_MASTER.c ****         {
 594:Generated_Source\PSoC4/I2C_I2C_MASTER.c ****             /* Wait until Stop has been generated */
 595:Generated_Source\PSoC4/I2C_I2C_MASTER.c ****         }
 596:Generated_Source\PSoC4/I2C_I2C_MASTER.c **** 
 597:Generated_Source\PSoC4/I2C_I2C_MASTER.c ****         /* Check Stop generation */
 598:Generated_Source\PSoC4/I2C_I2C_MASTER.c ****         if(I2C_CHECK_INTR_MASTER(I2C_INTR_MASTER_I2C_STOP))
 243              		.loc 1 598 0
 244 0026 174B     		ldr	r3, .L23+12
 245 0028 1B68     		ldr	r3, [r3]
 246 002a DB06     		lsls	r3, r3, #27
 247 002c 06D4     		bmi	.L21
 599:Generated_Source\PSoC4/I2C_I2C_MASTER.c ****         {
 600:Generated_Source\PSoC4/I2C_I2C_MASTER.c ****             errStatus = I2C_I2C_MSTR_NO_ERROR;
 601:Generated_Source\PSoC4/I2C_I2C_MASTER.c ****         }
 602:Generated_Source\PSoC4/I2C_I2C_MASTER.c ****         else if(I2C_CHECK_INTR_MASTER(I2C_INTR_MASTER_I2C_ARB_LOST))
ARM GAS  C:\Users\gjl\AppData\Local\Temp\ccHudlr6.s 			page 16


 248              		.loc 1 602 0
 249 002e 154B     		ldr	r3, .L23+12
 250 0030 1B68     		ldr	r3, [r3]
 251 0032 DB07     		lsls	r3, r3, #31
 252 0034 05D5     		bpl	.L22
 603:Generated_Source\PSoC4/I2C_I2C_MASTER.c ****         {
 604:Generated_Source\PSoC4/I2C_I2C_MASTER.c ****             errStatus = I2C_I2C_MSTR_ERR_ARB_LOST;
 253              		.loc 1 604 0
 254 0036 0120     		movs	r0, #1
 605:Generated_Source\PSoC4/I2C_I2C_MASTER.c ****             resetIp   = I2C_I2C_RESET_ERROR;
 255              		.loc 1 605 0
 256 0038 0121     		movs	r1, #1
 257 003a 05E0     		b	.L18
 258              	.L21:
 600:Generated_Source\PSoC4/I2C_I2C_MASTER.c ****         }
 259              		.loc 1 600 0
 260 003c 0020     		movs	r0, #0
 578:Generated_Source\PSoC4/I2C_I2C_MASTER.c ****     errStatus = I2C_I2C_MSTR_NOT_READY;
 261              		.loc 1 578 0
 262 003e 0021     		movs	r1, #0
 263 0040 02E0     		b	.L18
 264              	.L22:
 606:Generated_Source\PSoC4/I2C_I2C_MASTER.c ****         }
 607:Generated_Source\PSoC4/I2C_I2C_MASTER.c ****         else /* I2C_INTR_MASTER_I2C_BUS_ERROR is set */
 608:Generated_Source\PSoC4/I2C_I2C_MASTER.c ****         {
 609:Generated_Source\PSoC4/I2C_I2C_MASTER.c ****             errStatus = I2C_I2C_MSTR_ERR_BUS_ERR;
 265              		.loc 1 609 0
 266 0042 8020     		movs	r0, #128
 267 0044 4000     		lsls	r0, r0, #1
 610:Generated_Source\PSoC4/I2C_I2C_MASTER.c ****             resetIp   = I2C_I2C_RESET_ERROR;
 268              		.loc 1 610 0
 269 0046 0121     		movs	r1, #1
 270              	.L18:
 271              	.LVL20:
 611:Generated_Source\PSoC4/I2C_I2C_MASTER.c ****         }
 612:Generated_Source\PSoC4/I2C_I2C_MASTER.c **** 
 613:Generated_Source\PSoC4/I2C_I2C_MASTER.c ****         I2C_ClearMasterInterruptSource(I2C_INTR_MASTER_I2C_STOP     |
 272              		.loc 1 613 0
 273 0048 1222     		movs	r2, #18
 274 004a FF32     		adds	r2, r2, #255
 275 004c 0D4B     		ldr	r3, .L23+12
 276 004e 1A60     		str	r2, [r3]
 614:Generated_Source\PSoC4/I2C_I2C_MASTER.c ****                                                     I2C_INTR_MASTER_I2C_ARB_LOST |
 615:Generated_Source\PSoC4/I2C_I2C_MASTER.c ****                                                     I2C_INTR_MASTER_I2C_BUS_ERROR);
 616:Generated_Source\PSoC4/I2C_I2C_MASTER.c **** 
 617:Generated_Source\PSoC4/I2C_I2C_MASTER.c ****         I2C_state = I2C_I2C_FSM_IDLE;
 277              		.loc 1 617 0
 278 0050 023A     		subs	r2, r2, #2
 279 0052 FF3A     		subs	r2, r2, #255
 280 0054 084B     		ldr	r3, .L23
 281 0056 1A70     		strb	r2, [r3]
 618:Generated_Source\PSoC4/I2C_I2C_MASTER.c **** 
 619:Generated_Source\PSoC4/I2C_I2C_MASTER.c ****         /* Reset block in case of: LOST_ARB or BUS_ERR */
 620:Generated_Source\PSoC4/I2C_I2C_MASTER.c ****         if(0u != resetIp)
 282              		.loc 1 620 0
 283 0058 0029     		cmp	r1, #0
 284 005a 0BD0     		beq	.L15
ARM GAS  C:\Users\gjl\AppData\Local\Temp\ccHudlr6.s 			page 17


 621:Generated_Source\PSoC4/I2C_I2C_MASTER.c ****         {
 622:Generated_Source\PSoC4/I2C_I2C_MASTER.c ****             I2C_SCB_SW_RESET;
 285              		.loc 1 622 0
 286 005c 0A4A     		ldr	r2, .L23+16
 287 005e 1368     		ldr	r3, [r2]
 288 0060 5B00     		lsls	r3, r3, #1
 289 0062 5B08     		lsrs	r3, r3, #1
 290 0064 1360     		str	r3, [r2]
 291 0066 1368     		ldr	r3, [r2]
 292 0068 8021     		movs	r1, #128
 293              	.LVL21:
 294 006a 0906     		lsls	r1, r1, #24
 295 006c 0B43     		orrs	r3, r1
 296 006e 1360     		str	r3, [r2]
 297 0070 00E0     		b	.L15
 298              	.LVL22:
 299              	.L19:
 579:Generated_Source\PSoC4/I2C_I2C_MASTER.c **** 
 300              		.loc 1 579 0
 301 0072 0420     		movs	r0, #4
 302              	.LVL23:
 303              	.L15:
 623:Generated_Source\PSoC4/I2C_I2C_MASTER.c ****         }
 624:Generated_Source\PSoC4/I2C_I2C_MASTER.c ****     }
 625:Generated_Source\PSoC4/I2C_I2C_MASTER.c **** 
 626:Generated_Source\PSoC4/I2C_I2C_MASTER.c ****     return(errStatus);
 627:Generated_Source\PSoC4/I2C_I2C_MASTER.c **** }
 304              		.loc 1 627 0
 305              		@ sp needed
 306 0074 7047     		bx	lr
 307              	.L24:
 308 0076 C046     		.align	2
 309              	.L23:
 310 0078 00000000 		.word	I2C_state
 311 007c 64002440 		.word	1076101220
 312 0080 68002440 		.word	1076101224
 313 0084 000F2440 		.word	1076104960
 314 0088 00002440 		.word	1076101120
 315              		.cfi_endproc
 316              	.LFE5:
 317              		.size	I2C_I2CMasterSendStop, .-I2C_I2CMasterSendStop
 318              		.section	.text.I2C_I2CMasterWriteByte,"ax",%progbits
 319              		.align	2
 320              		.global	I2C_I2CMasterWriteByte
 321              		.code	16
 322              		.thumb_func
 323              		.type	I2C_I2CMasterWriteByte, %function
 324              	I2C_I2CMasterWriteByte:
 325              	.LFB6:
 628:Generated_Source\PSoC4/I2C_I2C_MASTER.c **** 
 629:Generated_Source\PSoC4/I2C_I2C_MASTER.c **** 
 630:Generated_Source\PSoC4/I2C_I2C_MASTER.c **** /*******************************************************************************
 631:Generated_Source\PSoC4/I2C_I2C_MASTER.c **** * Function Name: I2C_I2CMasterWriteByte
 632:Generated_Source\PSoC4/I2C_I2C_MASTER.c **** ****************************************************************************//**
 633:Generated_Source\PSoC4/I2C_I2C_MASTER.c **** *
 634:Generated_Source\PSoC4/I2C_I2C_MASTER.c **** *  Sends one byte to a slave.
 635:Generated_Source\PSoC4/I2C_I2C_MASTER.c **** *  This function is blocking and does not return until byte is transmitted
ARM GAS  C:\Users\gjl\AppData\Local\Temp\ccHudlr6.s 			page 18


 636:Generated_Source\PSoC4/I2C_I2C_MASTER.c **** *  or error occurred.
 637:Generated_Source\PSoC4/I2C_I2C_MASTER.c **** *
 638:Generated_Source\PSoC4/I2C_I2C_MASTER.c **** * \param data: The data byte to send to the slave.
 639:Generated_Source\PSoC4/I2C_I2C_MASTER.c **** *
 640:Generated_Source\PSoC4/I2C_I2C_MASTER.c **** * \return
 641:Generated_Source\PSoC4/I2C_I2C_MASTER.c **** *  Error status.
 642:Generated_Source\PSoC4/I2C_I2C_MASTER.c **** *  See I2C_I2CMasterSendStart() function for constants.
 643:Generated_Source\PSoC4/I2C_I2C_MASTER.c **** *
 644:Generated_Source\PSoC4/I2C_I2C_MASTER.c **** * \sideeffect
 645:Generated_Source\PSoC4/I2C_I2C_MASTER.c **** *  A valid Start or ReStart condition must be generated before calling
 646:Generated_Source\PSoC4/I2C_I2C_MASTER.c **** *  this function. This function does nothing if Start or ReStart condition
 647:Generated_Source\PSoC4/I2C_I2C_MASTER.c **** *  failed before this function was called.
 648:Generated_Source\PSoC4/I2C_I2C_MASTER.c **** *
 649:Generated_Source\PSoC4/I2C_I2C_MASTER.c **** * \globalvars
 650:Generated_Source\PSoC4/I2C_I2C_MASTER.c **** *  I2C_state - used to store current state of software FSM.
 651:Generated_Source\PSoC4/I2C_I2C_MASTER.c **** *
 652:Generated_Source\PSoC4/I2C_I2C_MASTER.c **** *******************************************************************************/
 653:Generated_Source\PSoC4/I2C_I2C_MASTER.c **** uint32 I2C_I2CMasterWriteByte(uint32 theByte)
 654:Generated_Source\PSoC4/I2C_I2C_MASTER.c **** {
 326              		.loc 1 654 0
 327              		.cfi_startproc
 328              		@ args = 0, pretend = 0, frame = 0
 329              		@ frame_needed = 0, uses_anonymous_args = 0
 330              		@ link register save eliminated.
 331              	.LVL24:
 655:Generated_Source\PSoC4/I2C_I2C_MASTER.c ****     uint32 resetIp;
 656:Generated_Source\PSoC4/I2C_I2C_MASTER.c ****     uint32 errStatus;
 657:Generated_Source\PSoC4/I2C_I2C_MASTER.c **** 
 658:Generated_Source\PSoC4/I2C_I2C_MASTER.c ****     resetIp   = 0u;
 659:Generated_Source\PSoC4/I2C_I2C_MASTER.c ****     errStatus = I2C_I2C_MSTR_NOT_READY;
 660:Generated_Source\PSoC4/I2C_I2C_MASTER.c **** 
 661:Generated_Source\PSoC4/I2C_I2C_MASTER.c ****     /* Check FSM state before write byte */
 662:Generated_Source\PSoC4/I2C_I2C_MASTER.c ****     if(I2C_CHECK_I2C_MASTER_ACTIVE)
 332              		.loc 1 662 0
 333 0000 214B     		ldr	r3, .L33
 334 0002 1B78     		ldrb	r3, [r3]
 335 0004 9B06     		lsls	r3, r3, #26
 336 0006 3CD5     		bpl	.L32
 663:Generated_Source\PSoC4/I2C_I2C_MASTER.c ****     {
 664:Generated_Source\PSoC4/I2C_I2C_MASTER.c ****         I2C_TX_FIFO_WR_REG = theByte;
 337              		.loc 1 664 0
 338 0008 204B     		ldr	r3, .L33+4
 339 000a 1860     		str	r0, [r3]
 340              	.L27:
 665:Generated_Source\PSoC4/I2C_I2C_MASTER.c **** 
 666:Generated_Source\PSoC4/I2C_I2C_MASTER.c ****         while(!I2C_CHECK_INTR_MASTER(I2C_INTR_MASTER_I2C_ACK      |
 341              		.loc 1 666 0 discriminator 1
 342 000c 204B     		ldr	r3, .L33+8
 343 000e 1A68     		ldr	r2, [r3]
 344 0010 0823     		movs	r3, #8
 345 0012 FF33     		adds	r3, r3, #255
 346 0014 1A42     		tst	r2, r3
 347 0016 F9D0     		beq	.L27
 667:Generated_Source\PSoC4/I2C_I2C_MASTER.c ****                                                   I2C_INTR_MASTER_I2C_NACK     |
 668:Generated_Source\PSoC4/I2C_I2C_MASTER.c ****                                                   I2C_INTR_MASTER_I2C_ARB_LOST |
 669:Generated_Source\PSoC4/I2C_I2C_MASTER.c ****                                                   I2C_INTR_MASTER_I2C_BUS_ERROR))
 670:Generated_Source\PSoC4/I2C_I2C_MASTER.c ****         {
ARM GAS  C:\Users\gjl\AppData\Local\Temp\ccHudlr6.s 			page 19


 671:Generated_Source\PSoC4/I2C_I2C_MASTER.c ****             /* Wait until byte has been transferred */
 672:Generated_Source\PSoC4/I2C_I2C_MASTER.c ****         }
 673:Generated_Source\PSoC4/I2C_I2C_MASTER.c **** 
 674:Generated_Source\PSoC4/I2C_I2C_MASTER.c ****         /* Check results after byte was sent */
 675:Generated_Source\PSoC4/I2C_I2C_MASTER.c ****         if(I2C_CHECK_INTR_MASTER(I2C_INTR_MASTER_I2C_ACK))
 348              		.loc 1 675 0
 349 0018 1D4B     		ldr	r3, .L33+8
 350 001a 1B68     		ldr	r3, [r3]
 351 001c 5B07     		lsls	r3, r3, #29
 352 001e 05D5     		bpl	.L28
 676:Generated_Source\PSoC4/I2C_I2C_MASTER.c ****         {
 677:Generated_Source\PSoC4/I2C_I2C_MASTER.c ****             I2C_state = I2C_I2C_FSM_MSTR_HALT;
 353              		.loc 1 677 0
 354 0020 6022     		movs	r2, #96
 355 0022 194B     		ldr	r3, .L33
 356 0024 1A70     		strb	r2, [r3]
 357              	.LVL25:
 678:Generated_Source\PSoC4/I2C_I2C_MASTER.c ****                          errStatus = I2C_I2C_MSTR_NO_ERROR;
 358              		.loc 1 678 0
 359 0026 0020     		movs	r0, #0
 360              	.LVL26:
 658:Generated_Source\PSoC4/I2C_I2C_MASTER.c ****     errStatus = I2C_I2C_MSTR_NOT_READY;
 361              		.loc 1 658 0
 362 0028 0021     		movs	r1, #0
 363 002a 19E0     		b	.L29
 364              	.LVL27:
 365              	.L28:
 679:Generated_Source\PSoC4/I2C_I2C_MASTER.c ****         }
 680:Generated_Source\PSoC4/I2C_I2C_MASTER.c ****         else if(I2C_CHECK_INTR_MASTER(I2C_INTR_MASTER_I2C_NACK))
 366              		.loc 1 680 0
 367 002c 184B     		ldr	r3, .L33+8
 368 002e 1B68     		ldr	r3, [r3]
 369 0030 9B07     		lsls	r3, r3, #30
 370 0032 05D5     		bpl	.L30
 681:Generated_Source\PSoC4/I2C_I2C_MASTER.c ****         {
 682:Generated_Source\PSoC4/I2C_I2C_MASTER.c ****             I2C_state = I2C_I2C_FSM_MSTR_HALT;
 371              		.loc 1 682 0
 372 0034 6022     		movs	r2, #96
 373 0036 144B     		ldr	r3, .L33
 374 0038 1A70     		strb	r2, [r3]
 375              	.LVL28:
 683:Generated_Source\PSoC4/I2C_I2C_MASTER.c ****                          errStatus = I2C_I2C_MSTR_ERR_LB_NAK;
 376              		.loc 1 683 0
 377 003a 0220     		movs	r0, #2
 378              	.LVL29:
 658:Generated_Source\PSoC4/I2C_I2C_MASTER.c ****     errStatus = I2C_I2C_MSTR_NOT_READY;
 379              		.loc 1 658 0
 380 003c 0021     		movs	r1, #0
 381 003e 0FE0     		b	.L29
 382              	.LVL30:
 383              	.L30:
 684:Generated_Source\PSoC4/I2C_I2C_MASTER.c ****         }
 685:Generated_Source\PSoC4/I2C_I2C_MASTER.c ****         else if(I2C_CHECK_INTR_MASTER(I2C_INTR_MASTER_I2C_ARB_LOST))
 384              		.loc 1 685 0
 385 0040 134B     		ldr	r3, .L33+8
 386 0042 1B68     		ldr	r3, [r3]
 387 0044 DB07     		lsls	r3, r3, #31
ARM GAS  C:\Users\gjl\AppData\Local\Temp\ccHudlr6.s 			page 20


 388 0046 05D5     		bpl	.L31
 686:Generated_Source\PSoC4/I2C_I2C_MASTER.c ****         {
 687:Generated_Source\PSoC4/I2C_I2C_MASTER.c ****             I2C_state = I2C_I2C_FSM_IDLE;
 389              		.loc 1 687 0
 390 0048 1022     		movs	r2, #16
 391 004a 0F4B     		ldr	r3, .L33
 392 004c 1A70     		strb	r2, [r3]
 393              	.LVL31:
 688:Generated_Source\PSoC4/I2C_I2C_MASTER.c ****                          errStatus = I2C_I2C_MSTR_ERR_ARB_LOST;
 394              		.loc 1 688 0
 395 004e 0120     		movs	r0, #1
 396              	.LVL32:
 689:Generated_Source\PSoC4/I2C_I2C_MASTER.c ****                          resetIp   = I2C_I2C_RESET_ERROR;
 397              		.loc 1 689 0
 398 0050 0121     		movs	r1, #1
 399 0052 05E0     		b	.L29
 400              	.LVL33:
 401              	.L31:
 690:Generated_Source\PSoC4/I2C_I2C_MASTER.c ****         }
 691:Generated_Source\PSoC4/I2C_I2C_MASTER.c ****         else /* I2C_INTR_MASTER_I2C_BUS_ERROR set is */
 692:Generated_Source\PSoC4/I2C_I2C_MASTER.c ****         {
 693:Generated_Source\PSoC4/I2C_I2C_MASTER.c ****             I2C_state = I2C_I2C_FSM_IDLE;
 402              		.loc 1 693 0
 403 0054 1022     		movs	r2, #16
 404 0056 0C4B     		ldr	r3, .L33
 405 0058 1A70     		strb	r2, [r3]
 406              	.LVL34:
 694:Generated_Source\PSoC4/I2C_I2C_MASTER.c ****                          errStatus = I2C_I2C_MSTR_ERR_BUS_ERR;
 407              		.loc 1 694 0
 408 005a 8020     		movs	r0, #128
 409              	.LVL35:
 410 005c 4000     		lsls	r0, r0, #1
 695:Generated_Source\PSoC4/I2C_I2C_MASTER.c ****                          resetIp   = I2C_I2C_RESET_ERROR;
 411              		.loc 1 695 0
 412 005e 0121     		movs	r1, #1
 413              	.LVL36:
 414              	.L29:
 696:Generated_Source\PSoC4/I2C_I2C_MASTER.c ****         }
 697:Generated_Source\PSoC4/I2C_I2C_MASTER.c **** 
 698:Generated_Source\PSoC4/I2C_I2C_MASTER.c ****         I2C_ClearMasterInterruptSource(I2C_INTR_MASTER_I2C_ACK      |
 415              		.loc 1 698 0
 416 0060 0822     		movs	r2, #8
 417 0062 FF32     		adds	r2, r2, #255
 418 0064 0A4B     		ldr	r3, .L33+8
 419 0066 1A60     		str	r2, [r3]
 699:Generated_Source\PSoC4/I2C_I2C_MASTER.c ****                                                     I2C_INTR_MASTER_I2C_NACK     |
 700:Generated_Source\PSoC4/I2C_I2C_MASTER.c ****                                                     I2C_INTR_MASTER_I2C_ARB_LOST |
 701:Generated_Source\PSoC4/I2C_I2C_MASTER.c ****                                                     I2C_INTR_MASTER_I2C_BUS_ERROR);
 702:Generated_Source\PSoC4/I2C_I2C_MASTER.c **** 
 703:Generated_Source\PSoC4/I2C_I2C_MASTER.c ****         /* Reset block in case of: LOST_ARB or BUS_ERR */
 704:Generated_Source\PSoC4/I2C_I2C_MASTER.c ****         if(0u != resetIp)
 420              		.loc 1 704 0
 421 0068 0029     		cmp	r1, #0
 422 006a 0BD0     		beq	.L26
 705:Generated_Source\PSoC4/I2C_I2C_MASTER.c ****         {
 706:Generated_Source\PSoC4/I2C_I2C_MASTER.c ****             I2C_SCB_SW_RESET;
 423              		.loc 1 706 0
ARM GAS  C:\Users\gjl\AppData\Local\Temp\ccHudlr6.s 			page 21


 424 006c 094A     		ldr	r2, .L33+12
 425 006e 1368     		ldr	r3, [r2]
 426 0070 5B00     		lsls	r3, r3, #1
 427 0072 5B08     		lsrs	r3, r3, #1
 428 0074 1360     		str	r3, [r2]
 429 0076 1368     		ldr	r3, [r2]
 430 0078 8021     		movs	r1, #128
 431              	.LVL37:
 432 007a 0906     		lsls	r1, r1, #24
 433 007c 0B43     		orrs	r3, r1
 434 007e 1360     		str	r3, [r2]
 435 0080 00E0     		b	.L26
 436              	.LVL38:
 437              	.L32:
 659:Generated_Source\PSoC4/I2C_I2C_MASTER.c **** 
 438              		.loc 1 659 0
 439 0082 0420     		movs	r0, #4
 440              	.LVL39:
 441              	.L26:
 707:Generated_Source\PSoC4/I2C_I2C_MASTER.c ****         }
 708:Generated_Source\PSoC4/I2C_I2C_MASTER.c ****     }
 709:Generated_Source\PSoC4/I2C_I2C_MASTER.c **** 
 710:Generated_Source\PSoC4/I2C_I2C_MASTER.c ****     return(errStatus);
 711:Generated_Source\PSoC4/I2C_I2C_MASTER.c **** }
 442              		.loc 1 711 0
 443              		@ sp needed
 444 0084 7047     		bx	lr
 445              	.L34:
 446 0086 C046     		.align	2
 447              	.L33:
 448 0088 00000000 		.word	I2C_state
 449 008c 40022440 		.word	1076101696
 450 0090 000F2440 		.word	1076104960
 451 0094 00002440 		.word	1076101120
 452              		.cfi_endproc
 453              	.LFE6:
 454              		.size	I2C_I2CMasterWriteByte, .-I2C_I2CMasterWriteByte
 455              		.section	.text.I2C_I2CMasterReadByte,"ax",%progbits
 456              		.align	2
 457              		.global	I2C_I2CMasterReadByte
 458              		.code	16
 459              		.thumb_func
 460              		.type	I2C_I2CMasterReadByte, %function
 461              	I2C_I2CMasterReadByte:
 462              	.LFB7:
 712:Generated_Source\PSoC4/I2C_I2C_MASTER.c **** 
 713:Generated_Source\PSoC4/I2C_I2C_MASTER.c **** 
 714:Generated_Source\PSoC4/I2C_I2C_MASTER.c **** /*******************************************************************************
 715:Generated_Source\PSoC4/I2C_I2C_MASTER.c **** * Function Name: I2C_I2CMasterReadByte
 716:Generated_Source\PSoC4/I2C_I2C_MASTER.c **** ****************************************************************************//**
 717:Generated_Source\PSoC4/I2C_I2C_MASTER.c **** *
 718:Generated_Source\PSoC4/I2C_I2C_MASTER.c **** *  Reads one byte from a slave and generates ACK or prepares to generate NAK. 
 719:Generated_Source\PSoC4/I2C_I2C_MASTER.c **** *  The NAK will be generated before Stop or ReStart condition by 
 720:Generated_Source\PSoC4/I2C_I2C_MASTER.c **** *  I2C_I2CMasterSendStop() or 
 721:Generated_Source\PSoC4/I2C_I2C_MASTER.c **** *  I2C_I2CMasterSendRestart() function appropriately.
 722:Generated_Source\PSoC4/I2C_I2C_MASTER.c **** *  This function is blocking. It does not return until a byte is received or 
 723:Generated_Source\PSoC4/I2C_I2C_MASTER.c **** *  an error occurs.
ARM GAS  C:\Users\gjl\AppData\Local\Temp\ccHudlr6.s 			page 22


 724:Generated_Source\PSoC4/I2C_I2C_MASTER.c **** *
 725:Generated_Source\PSoC4/I2C_I2C_MASTER.c **** * \param ackNack: Response to received byte.
 726:Generated_Source\PSoC4/I2C_I2C_MASTER.c **** *  - I2C_I2C_ACK_DATA - Generates ACK. 
 727:Generated_Source\PSoC4/I2C_I2C_MASTER.c **** *     The master notifies slave that transfer continues.
 728:Generated_Source\PSoC4/I2C_I2C_MASTER.c **** *  - I2C_I2C_NAK_DATA - Prepares to generate NAK.
 729:Generated_Source\PSoC4/I2C_I2C_MASTER.c **** *     The master will notify slave that transfer is completed.
 730:Generated_Source\PSoC4/I2C_I2C_MASTER.c **** *
 731:Generated_Source\PSoC4/I2C_I2C_MASTER.c **** * \return
 732:Generated_Source\PSoC4/I2C_I2C_MASTER.c **** *  Byte read from the slave. In case of error the MSB of returned data 
 733:Generated_Source\PSoC4/I2C_I2C_MASTER.c **** *  is set to 1.
 734:Generated_Source\PSoC4/I2C_I2C_MASTER.c **** *
 735:Generated_Source\PSoC4/I2C_I2C_MASTER.c **** * \sideeffect
 736:Generated_Source\PSoC4/I2C_I2C_MASTER.c **** *  A valid Start or ReStart condition must be generated before calling
 737:Generated_Source\PSoC4/I2C_I2C_MASTER.c **** *  this function. This function does nothing if Start or ReStart condition
 738:Generated_Source\PSoC4/I2C_I2C_MASTER.c **** *  failed before this function was called.
 739:Generated_Source\PSoC4/I2C_I2C_MASTER.c **** *
 740:Generated_Source\PSoC4/I2C_I2C_MASTER.c **** * \globalvars
 741:Generated_Source\PSoC4/I2C_I2C_MASTER.c **** *  I2C_state - used to store current state of software FSM.
 742:Generated_Source\PSoC4/I2C_I2C_MASTER.c **** *
 743:Generated_Source\PSoC4/I2C_I2C_MASTER.c **** *******************************************************************************/
 744:Generated_Source\PSoC4/I2C_I2C_MASTER.c **** uint32 I2C_I2CMasterReadByte(uint32 ackNack)
 745:Generated_Source\PSoC4/I2C_I2C_MASTER.c **** {
 463              		.loc 1 745 0
 464              		.cfi_startproc
 465              		@ args = 0, pretend = 0, frame = 0
 466              		@ frame_needed = 0, uses_anonymous_args = 0
 467              		@ link register save eliminated.
 468              	.LVL40:
 469 0000 0100     		movs	r1, r0
 470              	.LVL41:
 746:Generated_Source\PSoC4/I2C_I2C_MASTER.c ****     uint32 theByte;
 747:Generated_Source\PSoC4/I2C_I2C_MASTER.c **** 
 748:Generated_Source\PSoC4/I2C_I2C_MASTER.c ****     /* Return invalid byte in case BUS_ERR happen during receiving */
 749:Generated_Source\PSoC4/I2C_I2C_MASTER.c ****     theByte = I2C_I2C_INVALID_BYTE;
 750:Generated_Source\PSoC4/I2C_I2C_MASTER.c **** 
 751:Generated_Source\PSoC4/I2C_I2C_MASTER.c ****     /* Check FSM state before read byte */
 752:Generated_Source\PSoC4/I2C_I2C_MASTER.c ****     if(I2C_CHECK_I2C_MASTER_ACTIVE)
 471              		.loc 1 752 0
 472 0002 194B     		ldr	r3, .L42
 473 0004 1B78     		ldrb	r3, [r3]
 474 0006 9B06     		lsls	r3, r3, #26
 475 0008 2BD5     		bpl	.L41
 476              	.L38:
 753:Generated_Source\PSoC4/I2C_I2C_MASTER.c ****     {
 754:Generated_Source\PSoC4/I2C_I2C_MASTER.c ****         while((!I2C_CHECK_INTR_RX(I2C_INTR_RX_NOT_EMPTY)) &&
 477              		.loc 1 754 0 discriminator 2
 478 000a 184B     		ldr	r3, .L42+4
 479 000c 1B68     		ldr	r3, [r3]
 480 000e 5B07     		lsls	r3, r3, #29
 481 0010 05D4     		bmi	.L37
 755:Generated_Source\PSoC4/I2C_I2C_MASTER.c ****               (!I2C_CHECK_INTR_MASTER(I2C_INTR_MASTER_I2C_ARB_LOST |
 482              		.loc 1 755 0 discriminator 1
 483 0012 174B     		ldr	r3, .L42+8
 484 0014 1A68     		ldr	r2, [r3]
 485 0016 0223     		movs	r3, #2
 486 0018 FF33     		adds	r3, r3, #255
 754:Generated_Source\PSoC4/I2C_I2C_MASTER.c ****               (!I2C_CHECK_INTR_MASTER(I2C_INTR_MASTER_I2C_ARB_LOST |
ARM GAS  C:\Users\gjl\AppData\Local\Temp\ccHudlr6.s 			page 23


 487              		.loc 1 754 0 discriminator 1
 488 001a 1A42     		tst	r2, r3
 489 001c F5D0     		beq	.L38
 490              	.L37:
 756:Generated_Source\PSoC4/I2C_I2C_MASTER.c ****                                                   I2C_INTR_MASTER_I2C_BUS_ERROR)))
 757:Generated_Source\PSoC4/I2C_I2C_MASTER.c ****         {
 758:Generated_Source\PSoC4/I2C_I2C_MASTER.c ****             /* Wait until byte has been received */
 759:Generated_Source\PSoC4/I2C_I2C_MASTER.c ****         }
 760:Generated_Source\PSoC4/I2C_I2C_MASTER.c **** 
 761:Generated_Source\PSoC4/I2C_I2C_MASTER.c ****         /* Check the results after the byte was sent */
 762:Generated_Source\PSoC4/I2C_I2C_MASTER.c ****         if(I2C_CHECK_INTR_RX(I2C_INTR_RX_NOT_EMPTY))
 491              		.loc 1 762 0
 492 001e 134B     		ldr	r3, .L42+4
 493 0020 1B68     		ldr	r3, [r3]
 494 0022 5B07     		lsls	r3, r3, #29
 495 0024 0DD5     		bpl	.L39
 763:Generated_Source\PSoC4/I2C_I2C_MASTER.c ****         {
 764:Generated_Source\PSoC4/I2C_I2C_MASTER.c ****             theByte = I2C_RX_FIFO_RD_REG;
 496              		.loc 1 764 0
 497 0026 134B     		ldr	r3, .L42+12
 498 0028 1868     		ldr	r0, [r3]
 499              	.LVL42:
 765:Generated_Source\PSoC4/I2C_I2C_MASTER.c **** 
 766:Generated_Source\PSoC4/I2C_I2C_MASTER.c ****             I2C_ClearRxInterruptSource(I2C_INTR_RX_NOT_EMPTY);
 500              		.loc 1 766 0
 501 002a 0422     		movs	r2, #4
 502 002c 0F4B     		ldr	r3, .L42+4
 503 002e 1A60     		str	r2, [r3]
 767:Generated_Source\PSoC4/I2C_I2C_MASTER.c **** 
 768:Generated_Source\PSoC4/I2C_I2C_MASTER.c ****             if(0u == ackNack)
 504              		.loc 1 768 0
 505 0030 0029     		cmp	r1, #0
 506 0032 02D1     		bne	.L40
 769:Generated_Source\PSoC4/I2C_I2C_MASTER.c ****             {
 770:Generated_Source\PSoC4/I2C_I2C_MASTER.c ****                 I2C_I2C_MASTER_GENERATE_ACK;
 507              		.loc 1 770 0
 508 0034 104B     		ldr	r3, .L42+16
 509 0036 1A60     		str	r2, [r3]
 510 0038 15E0     		b	.L36
 511              	.L40:
 771:Generated_Source\PSoC4/I2C_I2C_MASTER.c ****             }
 772:Generated_Source\PSoC4/I2C_I2C_MASTER.c ****             else
 773:Generated_Source\PSoC4/I2C_I2C_MASTER.c ****             {
 774:Generated_Source\PSoC4/I2C_I2C_MASTER.c ****                 /* NACK is generated by Stop or ReStart command */
 775:Generated_Source\PSoC4/I2C_I2C_MASTER.c ****                 I2C_state = I2C_I2C_FSM_MSTR_HALT;
 512              		.loc 1 775 0
 513 003a 6022     		movs	r2, #96
 514 003c 0A4B     		ldr	r3, .L42
 515 003e 1A70     		strb	r2, [r3]
 516 0040 11E0     		b	.L36
 517              	.LVL43:
 518              	.L39:
 776:Generated_Source\PSoC4/I2C_I2C_MASTER.c ****             }
 777:Generated_Source\PSoC4/I2C_I2C_MASTER.c ****         }
 778:Generated_Source\PSoC4/I2C_I2C_MASTER.c ****         else
 779:Generated_Source\PSoC4/I2C_I2C_MASTER.c ****         {
 780:Generated_Source\PSoC4/I2C_I2C_MASTER.c ****             I2C_ClearMasterInterruptSource(I2C_INTR_MASTER_ALL);
ARM GAS  C:\Users\gjl\AppData\Local\Temp\ccHudlr6.s 			page 24


 519              		.loc 1 780 0
 520 0042 0E4A     		ldr	r2, .L42+20
 521 0044 0A4B     		ldr	r3, .L42+8
 522 0046 1A60     		str	r2, [r3]
 781:Generated_Source\PSoC4/I2C_I2C_MASTER.c **** 
 782:Generated_Source\PSoC4/I2C_I2C_MASTER.c ****             /* Reset block in case of: LOST_ARB or BUS_ERR */
 783:Generated_Source\PSoC4/I2C_I2C_MASTER.c ****             I2C_SCB_SW_RESET;
 523              		.loc 1 783 0
 524 0048 0D4A     		ldr	r2, .L42+24
 525 004a 1368     		ldr	r3, [r2]
 526 004c 5B00     		lsls	r3, r3, #1
 527 004e 5B08     		lsrs	r3, r3, #1
 528 0050 1360     		str	r3, [r2]
 529 0052 1368     		ldr	r3, [r2]
 530 0054 8021     		movs	r1, #128
 531 0056 0906     		lsls	r1, r1, #24
 532 0058 0B43     		orrs	r3, r1
 533 005a 1360     		str	r3, [r2]
 749:Generated_Source\PSoC4/I2C_I2C_MASTER.c **** 
 534              		.loc 1 749 0
 535 005c 0120     		movs	r0, #1
 536              	.LVL44:
 537 005e 4042     		rsbs	r0, r0, #0
 538 0060 01E0     		b	.L36
 539              	.LVL45:
 540              	.L41:
 541 0062 0120     		movs	r0, #1
 542              	.LVL46:
 543 0064 4042     		rsbs	r0, r0, #0
 544              	.LVL47:
 545              	.L36:
 784:Generated_Source\PSoC4/I2C_I2C_MASTER.c ****         }
 785:Generated_Source\PSoC4/I2C_I2C_MASTER.c ****     }
 786:Generated_Source\PSoC4/I2C_I2C_MASTER.c **** 
 787:Generated_Source\PSoC4/I2C_I2C_MASTER.c ****     return(theByte);
 788:Generated_Source\PSoC4/I2C_I2C_MASTER.c **** }
 546              		.loc 1 788 0
 547              		@ sp needed
 548 0066 7047     		bx	lr
 549              	.L43:
 550              		.align	2
 551              	.L42:
 552 0068 00000000 		.word	I2C_state
 553 006c C00F2440 		.word	1076105152
 554 0070 000F2440 		.word	1076104960
 555 0074 40032440 		.word	1076101952
 556 0078 68002440 		.word	1076101224
 557 007c 17030000 		.word	791
 558 0080 00002440 		.word	1076101120
 559              		.cfi_endproc
 560              	.LFE7:
 561              		.size	I2C_I2CMasterReadByte, .-I2C_I2CMasterReadByte
 562              		.section	.text.I2C_I2CMasterGetReadBufSize,"ax",%progbits
 563              		.align	2
 564              		.global	I2C_I2CMasterGetReadBufSize
 565              		.code	16
 566              		.thumb_func
ARM GAS  C:\Users\gjl\AppData\Local\Temp\ccHudlr6.s 			page 25


 567              		.type	I2C_I2CMasterGetReadBufSize, %function
 568              	I2C_I2CMasterGetReadBufSize:
 569              	.LFB8:
 789:Generated_Source\PSoC4/I2C_I2C_MASTER.c **** 
 790:Generated_Source\PSoC4/I2C_I2C_MASTER.c **** 
 791:Generated_Source\PSoC4/I2C_I2C_MASTER.c **** /*******************************************************************************
 792:Generated_Source\PSoC4/I2C_I2C_MASTER.c **** * Function Name: I2C_I2CMasterGetReadBufSize
 793:Generated_Source\PSoC4/I2C_I2C_MASTER.c **** ****************************************************************************//**
 794:Generated_Source\PSoC4/I2C_I2C_MASTER.c **** *
 795:Generated_Source\PSoC4/I2C_I2C_MASTER.c **** *  Returns the number of bytes that has been transferred with an
 796:Generated_Source\PSoC4/I2C_I2C_MASTER.c **** *  I2C_I2CMasterReadBuf() function.
 797:Generated_Source\PSoC4/I2C_I2C_MASTER.c **** *
 798:Generated_Source\PSoC4/I2C_I2C_MASTER.c **** * \return
 799:Generated_Source\PSoC4/I2C_I2C_MASTER.c **** *  Byte count of transfer. If the transfer is not yet complete, it returns
 800:Generated_Source\PSoC4/I2C_I2C_MASTER.c **** *  the byte count transferred so far.
 801:Generated_Source\PSoC4/I2C_I2C_MASTER.c **** *
 802:Generated_Source\PSoC4/I2C_I2C_MASTER.c **** * \sideeffect
 803:Generated_Source\PSoC4/I2C_I2C_MASTER.c **** *  This function returns not valid value if 
 804:Generated_Source\PSoC4/I2C_I2C_MASTER.c **** *  I2C_I2C_MSTAT_ERR_ARB_LOST or
 805:Generated_Source\PSoC4/I2C_I2C_MASTER.c **** *  I2C_I2C_MSTAT_ERR_BUS_ERROR occurred while read transfer.
 806:Generated_Source\PSoC4/I2C_I2C_MASTER.c **** *
 807:Generated_Source\PSoC4/I2C_I2C_MASTER.c **** * \globalvars
 808:Generated_Source\PSoC4/I2C_I2C_MASTER.c **** *  I2C_mstrRdBufIndex - used to current index within master read
 809:Generated_Source\PSoC4/I2C_I2C_MASTER.c **** *  buffer.
 810:Generated_Source\PSoC4/I2C_I2C_MASTER.c **** *
 811:Generated_Source\PSoC4/I2C_I2C_MASTER.c **** *******************************************************************************/
 812:Generated_Source\PSoC4/I2C_I2C_MASTER.c **** uint32 I2C_I2CMasterGetReadBufSize(void)
 813:Generated_Source\PSoC4/I2C_I2C_MASTER.c **** {
 570              		.loc 1 813 0
 571              		.cfi_startproc
 572              		@ args = 0, pretend = 0, frame = 0
 573              		@ frame_needed = 0, uses_anonymous_args = 0
 574              		@ link register save eliminated.
 814:Generated_Source\PSoC4/I2C_I2C_MASTER.c ****     return(I2C_mstrRdBufIndex);
 575              		.loc 1 814 0
 576 0000 014B     		ldr	r3, .L45
 577 0002 1868     		ldr	r0, [r3]
 815:Generated_Source\PSoC4/I2C_I2C_MASTER.c **** }
 578              		.loc 1 815 0
 579              		@ sp needed
 580 0004 7047     		bx	lr
 581              	.L46:
 582 0006 C046     		.align	2
 583              	.L45:
 584 0008 00000000 		.word	I2C_mstrRdBufIndex
 585              		.cfi_endproc
 586              	.LFE8:
 587              		.size	I2C_I2CMasterGetReadBufSize, .-I2C_I2CMasterGetReadBufSize
 588              		.section	.text.I2C_I2CMasterGetWriteBufSize,"ax",%progbits
 589              		.align	2
 590              		.global	I2C_I2CMasterGetWriteBufSize
 591              		.code	16
 592              		.thumb_func
 593              		.type	I2C_I2CMasterGetWriteBufSize, %function
 594              	I2C_I2CMasterGetWriteBufSize:
 595              	.LFB9:
 816:Generated_Source\PSoC4/I2C_I2C_MASTER.c **** 
ARM GAS  C:\Users\gjl\AppData\Local\Temp\ccHudlr6.s 			page 26


 817:Generated_Source\PSoC4/I2C_I2C_MASTER.c **** 
 818:Generated_Source\PSoC4/I2C_I2C_MASTER.c **** /*******************************************************************************
 819:Generated_Source\PSoC4/I2C_I2C_MASTER.c **** * Function Name: I2C_I2CMasterGetWriteBufSize
 820:Generated_Source\PSoC4/I2C_I2C_MASTER.c **** ****************************************************************************//**
 821:Generated_Source\PSoC4/I2C_I2C_MASTER.c **** *
 822:Generated_Source\PSoC4/I2C_I2C_MASTER.c **** *  Returns the number of bytes that have been transferred with an
 823:Generated_Source\PSoC4/I2C_I2C_MASTER.c **** *  SCB_I2CMasterWriteBuf() function.
 824:Generated_Source\PSoC4/I2C_I2C_MASTER.c **** *
 825:Generated_Source\PSoC4/I2C_I2C_MASTER.c **** * \return
 826:Generated_Source\PSoC4/I2C_I2C_MASTER.c **** *   Byte count of transfer. If the transfer is not yet complete, it returns
 827:Generated_Source\PSoC4/I2C_I2C_MASTER.c **** *   zero unit transfer completion.
 828:Generated_Source\PSoC4/I2C_I2C_MASTER.c **** *
 829:Generated_Source\PSoC4/I2C_I2C_MASTER.c **** * \sideeffect
 830:Generated_Source\PSoC4/I2C_I2C_MASTER.c **** *   This function returns not valid value if 
 831:Generated_Source\PSoC4/I2C_I2C_MASTER.c **** *   I2C_I2C_MSTAT_ERR_ARB_LOST or 
 832:Generated_Source\PSoC4/I2C_I2C_MASTER.c **** *   I2C_I2C_MSTAT_ERR_BUS_ERROR occurred while read transfer.
 833:Generated_Source\PSoC4/I2C_I2C_MASTER.c **** *
 834:Generated_Source\PSoC4/I2C_I2C_MASTER.c **** * \globalvars
 835:Generated_Source\PSoC4/I2C_I2C_MASTER.c **** *  I2C_mstrWrBufIndex - used to current index within master write
 836:Generated_Source\PSoC4/I2C_I2C_MASTER.c **** *  buffer.
 837:Generated_Source\PSoC4/I2C_I2C_MASTER.c **** *
 838:Generated_Source\PSoC4/I2C_I2C_MASTER.c **** *******************************************************************************/
 839:Generated_Source\PSoC4/I2C_I2C_MASTER.c **** uint32 I2C_I2CMasterGetWriteBufSize(void)
 840:Generated_Source\PSoC4/I2C_I2C_MASTER.c **** {
 596              		.loc 1 840 0
 597              		.cfi_startproc
 598              		@ args = 0, pretend = 0, frame = 0
 599              		@ frame_needed = 0, uses_anonymous_args = 0
 600              		@ link register save eliminated.
 841:Generated_Source\PSoC4/I2C_I2C_MASTER.c ****     return(I2C_mstrWrBufIndex);
 601              		.loc 1 841 0
 602 0000 014B     		ldr	r3, .L48
 603 0002 1868     		ldr	r0, [r3]
 842:Generated_Source\PSoC4/I2C_I2C_MASTER.c **** }
 604              		.loc 1 842 0
 605              		@ sp needed
 606 0004 7047     		bx	lr
 607              	.L49:
 608 0006 C046     		.align	2
 609              	.L48:
 610 0008 00000000 		.word	I2C_mstrWrBufIndex
 611              		.cfi_endproc
 612              	.LFE9:
 613              		.size	I2C_I2CMasterGetWriteBufSize, .-I2C_I2CMasterGetWriteBufSize
 614              		.section	.text.I2C_I2CMasterClearReadBuf,"ax",%progbits
 615              		.align	2
 616              		.global	I2C_I2CMasterClearReadBuf
 617              		.code	16
 618              		.thumb_func
 619              		.type	I2C_I2CMasterClearReadBuf, %function
 620              	I2C_I2CMasterClearReadBuf:
 621              	.LFB10:
 843:Generated_Source\PSoC4/I2C_I2C_MASTER.c **** 
 844:Generated_Source\PSoC4/I2C_I2C_MASTER.c **** 
 845:Generated_Source\PSoC4/I2C_I2C_MASTER.c **** /*******************************************************************************
 846:Generated_Source\PSoC4/I2C_I2C_MASTER.c **** * Function Name: I2C_I2CMasterClearReadBuf
 847:Generated_Source\PSoC4/I2C_I2C_MASTER.c **** ****************************************************************************//**
ARM GAS  C:\Users\gjl\AppData\Local\Temp\ccHudlr6.s 			page 27


 848:Generated_Source\PSoC4/I2C_I2C_MASTER.c **** *
 849:Generated_Source\PSoC4/I2C_I2C_MASTER.c **** *  Resets the read buffer pointer back to the first byte in the buffer.
 850:Generated_Source\PSoC4/I2C_I2C_MASTER.c **** *
 851:Generated_Source\PSoC4/I2C_I2C_MASTER.c **** * \globalvars
 852:Generated_Source\PSoC4/I2C_I2C_MASTER.c **** *  I2C_mstrRdBufIndex - used to current index within master read
 853:Generated_Source\PSoC4/I2C_I2C_MASTER.c **** *   buffer.
 854:Generated_Source\PSoC4/I2C_I2C_MASTER.c **** *  I2C_mstrStatus - used to store current status of I2C Master.
 855:Generated_Source\PSoC4/I2C_I2C_MASTER.c **** *
 856:Generated_Source\PSoC4/I2C_I2C_MASTER.c **** *******************************************************************************/
 857:Generated_Source\PSoC4/I2C_I2C_MASTER.c **** void I2C_I2CMasterClearReadBuf(void)
 858:Generated_Source\PSoC4/I2C_I2C_MASTER.c **** {
 622              		.loc 1 858 0
 623              		.cfi_startproc
 624              		@ args = 0, pretend = 0, frame = 0
 625              		@ frame_needed = 0, uses_anonymous_args = 0
 626 0000 10B5     		push	{r4, lr}
 627              		.cfi_def_cfa_offset 8
 628              		.cfi_offset 4, -8
 629              		.cfi_offset 14, -4
 859:Generated_Source\PSoC4/I2C_I2C_MASTER.c ****     I2C_DisableInt();  /* Lock from interruption */
 630              		.loc 1 859 0
 631 0002 0820     		movs	r0, #8
 632 0004 FFF7FEFF 		bl	CyIntDisable
 633              	.LVL48:
 860:Generated_Source\PSoC4/I2C_I2C_MASTER.c **** 
 861:Generated_Source\PSoC4/I2C_I2C_MASTER.c ****     I2C_mstrRdBufIndex = 0u;
 634              		.loc 1 861 0
 635 0008 0022     		movs	r2, #0
 636 000a 054B     		ldr	r3, .L51
 637 000c 1A60     		str	r2, [r3]
 862:Generated_Source\PSoC4/I2C_I2C_MASTER.c ****     I2C_mstrStatus    &= (uint16) ~I2C_I2C_MSTAT_RD_CMPLT;
 638              		.loc 1 862 0
 639 000e 054A     		ldr	r2, .L51+4
 640 0010 1388     		ldrh	r3, [r2]
 641 0012 0121     		movs	r1, #1
 642 0014 8B43     		bics	r3, r1
 643 0016 1380     		strh	r3, [r2]
 863:Generated_Source\PSoC4/I2C_I2C_MASTER.c **** 
 864:Generated_Source\PSoC4/I2C_I2C_MASTER.c ****     I2C_EnableInt();   /* Release lock */
 644              		.loc 1 864 0
 645 0018 0820     		movs	r0, #8
 646 001a FFF7FEFF 		bl	CyIntEnable
 647              	.LVL49:
 865:Generated_Source\PSoC4/I2C_I2C_MASTER.c **** }
 648              		.loc 1 865 0
 649              		@ sp needed
 650 001e 10BD     		pop	{r4, pc}
 651              	.L52:
 652              		.align	2
 653              	.L51:
 654 0020 00000000 		.word	I2C_mstrRdBufIndex
 655 0024 00000000 		.word	I2C_mstrStatus
 656              		.cfi_endproc
 657              	.LFE10:
 658              		.size	I2C_I2CMasterClearReadBuf, .-I2C_I2CMasterClearReadBuf
 659              		.section	.text.I2C_I2CMasterClearWriteBuf,"ax",%progbits
 660              		.align	2
ARM GAS  C:\Users\gjl\AppData\Local\Temp\ccHudlr6.s 			page 28


 661              		.global	I2C_I2CMasterClearWriteBuf
 662              		.code	16
 663              		.thumb_func
 664              		.type	I2C_I2CMasterClearWriteBuf, %function
 665              	I2C_I2CMasterClearWriteBuf:
 666              	.LFB11:
 866:Generated_Source\PSoC4/I2C_I2C_MASTER.c **** 
 867:Generated_Source\PSoC4/I2C_I2C_MASTER.c **** 
 868:Generated_Source\PSoC4/I2C_I2C_MASTER.c **** /*******************************************************************************
 869:Generated_Source\PSoC4/I2C_I2C_MASTER.c **** * Function Name: I2C_I2CMasterClearWriteBuf
 870:Generated_Source\PSoC4/I2C_I2C_MASTER.c **** ****************************************************************************//**
 871:Generated_Source\PSoC4/I2C_I2C_MASTER.c **** *
 872:Generated_Source\PSoC4/I2C_I2C_MASTER.c **** *  Resets the write buffer pointer back to the first byte in the buffer.
 873:Generated_Source\PSoC4/I2C_I2C_MASTER.c **** *
 874:Generated_Source\PSoC4/I2C_I2C_MASTER.c **** * \globalvars
 875:Generated_Source\PSoC4/I2C_I2C_MASTER.c **** *  I2C_mstrRdBufIndex - used to current index within master read
 876:Generated_Source\PSoC4/I2C_I2C_MASTER.c **** *   buffer.
 877:Generated_Source\PSoC4/I2C_I2C_MASTER.c **** *  I2C_mstrStatus - used to store current status of I2C Master.
 878:Generated_Source\PSoC4/I2C_I2C_MASTER.c **** *
 879:Generated_Source\PSoC4/I2C_I2C_MASTER.c **** *******************************************************************************/
 880:Generated_Source\PSoC4/I2C_I2C_MASTER.c **** void I2C_I2CMasterClearWriteBuf(void)
 881:Generated_Source\PSoC4/I2C_I2C_MASTER.c **** {
 667              		.loc 1 881 0
 668              		.cfi_startproc
 669              		@ args = 0, pretend = 0, frame = 0
 670              		@ frame_needed = 0, uses_anonymous_args = 0
 671 0000 10B5     		push	{r4, lr}
 672              		.cfi_def_cfa_offset 8
 673              		.cfi_offset 4, -8
 674              		.cfi_offset 14, -4
 882:Generated_Source\PSoC4/I2C_I2C_MASTER.c ****     I2C_DisableInt();  /* Lock from interruption */
 675              		.loc 1 882 0
 676 0002 0820     		movs	r0, #8
 677 0004 FFF7FEFF 		bl	CyIntDisable
 678              	.LVL50:
 883:Generated_Source\PSoC4/I2C_I2C_MASTER.c **** 
 884:Generated_Source\PSoC4/I2C_I2C_MASTER.c ****     I2C_mstrWrBufIndex = 0u;
 679              		.loc 1 884 0
 680 0008 0022     		movs	r2, #0
 681 000a 054B     		ldr	r3, .L54
 682 000c 1A60     		str	r2, [r3]
 885:Generated_Source\PSoC4/I2C_I2C_MASTER.c ****     I2C_mstrStatus    &= (uint16) ~I2C_I2C_MSTAT_WR_CMPLT;
 683              		.loc 1 885 0
 684 000e 054A     		ldr	r2, .L54+4
 685 0010 1388     		ldrh	r3, [r2]
 686 0012 0221     		movs	r1, #2
 687 0014 8B43     		bics	r3, r1
 688 0016 1380     		strh	r3, [r2]
 886:Generated_Source\PSoC4/I2C_I2C_MASTER.c **** 
 887:Generated_Source\PSoC4/I2C_I2C_MASTER.c ****     I2C_EnableInt();   /* Release lock */
 689              		.loc 1 887 0
 690 0018 0820     		movs	r0, #8
 691 001a FFF7FEFF 		bl	CyIntEnable
 692              	.LVL51:
 888:Generated_Source\PSoC4/I2C_I2C_MASTER.c **** }
 693              		.loc 1 888 0
 694              		@ sp needed
ARM GAS  C:\Users\gjl\AppData\Local\Temp\ccHudlr6.s 			page 29


 695 001e 10BD     		pop	{r4, pc}
 696              	.L55:
 697              		.align	2
 698              	.L54:
 699 0020 00000000 		.word	I2C_mstrWrBufIndex
 700 0024 00000000 		.word	I2C_mstrStatus
 701              		.cfi_endproc
 702              	.LFE11:
 703              		.size	I2C_I2CMasterClearWriteBuf, .-I2C_I2CMasterClearWriteBuf
 704              		.section	.text.I2C_I2CMasterStatus,"ax",%progbits
 705              		.align	2
 706              		.global	I2C_I2CMasterStatus
 707              		.code	16
 708              		.thumb_func
 709              		.type	I2C_I2CMasterStatus, %function
 710              	I2C_I2CMasterStatus:
 711              	.LFB12:
 889:Generated_Source\PSoC4/I2C_I2C_MASTER.c **** 
 890:Generated_Source\PSoC4/I2C_I2C_MASTER.c **** 
 891:Generated_Source\PSoC4/I2C_I2C_MASTER.c **** /*******************************************************************************
 892:Generated_Source\PSoC4/I2C_I2C_MASTER.c **** * Function Name: I2C_I2CMasterStatus
 893:Generated_Source\PSoC4/I2C_I2C_MASTER.c **** ****************************************************************************//**
 894:Generated_Source\PSoC4/I2C_I2C_MASTER.c **** *
 895:Generated_Source\PSoC4/I2C_I2C_MASTER.c **** *  Returns the master's communication status.
 896:Generated_Source\PSoC4/I2C_I2C_MASTER.c **** *
 897:Generated_Source\PSoC4/I2C_I2C_MASTER.c **** * \return
 898:Generated_Source\PSoC4/I2C_I2C_MASTER.c **** *  Current status of I2C master. This status incorporates status constants. 
 899:Generated_Source\PSoC4/I2C_I2C_MASTER.c **** *  Each constant is a bit field value. The value returned may have multiple 
 900:Generated_Source\PSoC4/I2C_I2C_MASTER.c **** *  bits set to indicate the status of the read or write transfer.
 901:Generated_Source\PSoC4/I2C_I2C_MASTER.c **** *  - I2C_I2C_MSTAT_RD_CMPLT - Read transfer complete.
 902:Generated_Source\PSoC4/I2C_I2C_MASTER.c **** *    The error condition status bits must be checked to ensure that 
 903:Generated_Source\PSoC4/I2C_I2C_MASTER.c **** *    read transfer was completed successfully.
 904:Generated_Source\PSoC4/I2C_I2C_MASTER.c **** *  - I2C_I2C_MSTAT_WR_CMPLT - Write transfer complete.
 905:Generated_Source\PSoC4/I2C_I2C_MASTER.c **** *    The error condition status bits must be checked to ensure that write 
 906:Generated_Source\PSoC4/I2C_I2C_MASTER.c **** *    transfer was completed successfully.
 907:Generated_Source\PSoC4/I2C_I2C_MASTER.c **** *  - I2C_I2C_MSTAT_XFER_INP - Transfer in progress.
 908:Generated_Source\PSoC4/I2C_I2C_MASTER.c **** *  - I2C_I2C_MSTAT_XFER_HALT - Transfer has been halted. 
 909:Generated_Source\PSoC4/I2C_I2C_MASTER.c **** *    The I2C bus is waiting for ReStart or Stop condition generation.
 910:Generated_Source\PSoC4/I2C_I2C_MASTER.c **** *  - I2C_I2C_MSTAT_ERR_SHORT_XFER - Error condition: Write 
 911:Generated_Source\PSoC4/I2C_I2C_MASTER.c **** *    transfer completed before all bytes were transferred. The slave NAKed 
 912:Generated_Source\PSoC4/I2C_I2C_MASTER.c **** *    the byte which was expected to be ACKed.
 913:Generated_Source\PSoC4/I2C_I2C_MASTER.c **** *  - I2C_I2C_MSTAT_ERR_ADDR_NAK - Error condition: Slave did 
 914:Generated_Source\PSoC4/I2C_I2C_MASTER.c **** *    not acknowledge address.
 915:Generated_Source\PSoC4/I2C_I2C_MASTER.c **** *  - I2C_I2C_MSTAT_ERR_ARB_LOST - Error condition: Master lost 
 916:Generated_Source\PSoC4/I2C_I2C_MASTER.c **** *    arbitration during communications with slave.
 917:Generated_Source\PSoC4/I2C_I2C_MASTER.c **** *  - I2C_I2C_MSTAT_ERR_BUS_ERROR - Error condition: bus error 
 918:Generated_Source\PSoC4/I2C_I2C_MASTER.c **** *    occurred during master transfer due to misplaced Start or Stop 
 919:Generated_Source\PSoC4/I2C_I2C_MASTER.c **** *    condition on the bus.
 920:Generated_Source\PSoC4/I2C_I2C_MASTER.c **** *  - I2C_I2C_MSTAT_ERR_ABORT_XFER - Error condition: Slave was 
 921:Generated_Source\PSoC4/I2C_I2C_MASTER.c **** *    addressed by another master while master performed the start condition 
 922:Generated_Source\PSoC4/I2C_I2C_MASTER.c **** *    generation. As a result, master has automatically switched to slave 
 923:Generated_Source\PSoC4/I2C_I2C_MASTER.c **** *    mode and is responding. The master transaction has not taken place
 924:Generated_Source\PSoC4/I2C_I2C_MASTER.c **** *    This error condition only applicable for Multi-Master-Slave mode.
 925:Generated_Source\PSoC4/I2C_I2C_MASTER.c **** *  - I2C_I2C_MSTAT_ERR_XFER - Error condition: This is the 
 926:Generated_Source\PSoC4/I2C_I2C_MASTER.c **** *    ORed value of all error conditions provided above.
 927:Generated_Source\PSoC4/I2C_I2C_MASTER.c **** *
 928:Generated_Source\PSoC4/I2C_I2C_MASTER.c **** * \globalvars
ARM GAS  C:\Users\gjl\AppData\Local\Temp\ccHudlr6.s 			page 30


 929:Generated_Source\PSoC4/I2C_I2C_MASTER.c **** *  I2C_mstrStatus - used to store current status of I2C Master.
 930:Generated_Source\PSoC4/I2C_I2C_MASTER.c **** *
 931:Generated_Source\PSoC4/I2C_I2C_MASTER.c **** *******************************************************************************/
 932:Generated_Source\PSoC4/I2C_I2C_MASTER.c **** uint32 I2C_I2CMasterStatus(void)
 933:Generated_Source\PSoC4/I2C_I2C_MASTER.c **** {
 712              		.loc 1 933 0
 713              		.cfi_startproc
 714              		@ args = 0, pretend = 0, frame = 0
 715              		@ frame_needed = 0, uses_anonymous_args = 0
 716 0000 10B5     		push	{r4, lr}
 717              		.cfi_def_cfa_offset 8
 718              		.cfi_offset 4, -8
 719              		.cfi_offset 14, -4
 934:Generated_Source\PSoC4/I2C_I2C_MASTER.c ****     uint32 status;
 935:Generated_Source\PSoC4/I2C_I2C_MASTER.c **** 
 936:Generated_Source\PSoC4/I2C_I2C_MASTER.c ****     I2C_DisableInt();  /* Lock from interruption */
 720              		.loc 1 936 0
 721 0002 0820     		movs	r0, #8
 722 0004 FFF7FEFF 		bl	CyIntDisable
 723              	.LVL52:
 937:Generated_Source\PSoC4/I2C_I2C_MASTER.c **** 
 938:Generated_Source\PSoC4/I2C_I2C_MASTER.c ****     status = (uint32) I2C_mstrStatus;
 724              		.loc 1 938 0
 725 0008 074B     		ldr	r3, .L58
 726 000a 1C88     		ldrh	r4, [r3]
 727 000c A2B2     		uxth	r2, r4
 728 000e 1400     		movs	r4, r2
 729              	.LVL53:
 939:Generated_Source\PSoC4/I2C_I2C_MASTER.c **** 
 940:Generated_Source\PSoC4/I2C_I2C_MASTER.c ****     if (I2C_CHECK_I2C_MASTER_ACTIVE)
 730              		.loc 1 940 0
 731 0010 064B     		ldr	r3, .L58+4
 732 0012 1B78     		ldrb	r3, [r3]
 733 0014 9B06     		lsls	r3, r3, #26
 734 0016 02D5     		bpl	.L57
 941:Generated_Source\PSoC4/I2C_I2C_MASTER.c ****     {
 942:Generated_Source\PSoC4/I2C_I2C_MASTER.c ****         /* Add status of master pending transaction: MSTAT_XFER_INP */
 943:Generated_Source\PSoC4/I2C_I2C_MASTER.c ****         status |= (uint32) I2C_I2C_MSTAT_XFER_INP;
 735              		.loc 1 943 0
 736 0018 0423     		movs	r3, #4
 737 001a 1A43     		orrs	r2, r3
 738              	.LVL54:
 739 001c 94B2     		uxth	r4, r2
 740              	.LVL55:
 741              	.L57:
 944:Generated_Source\PSoC4/I2C_I2C_MASTER.c ****     }
 945:Generated_Source\PSoC4/I2C_I2C_MASTER.c **** 
 946:Generated_Source\PSoC4/I2C_I2C_MASTER.c ****     I2C_EnableInt();   /* Release lock */
 742              		.loc 1 946 0
 743 001e 0820     		movs	r0, #8
 744 0020 FFF7FEFF 		bl	CyIntEnable
 745              	.LVL56:
 947:Generated_Source\PSoC4/I2C_I2C_MASTER.c **** 
 948:Generated_Source\PSoC4/I2C_I2C_MASTER.c ****     return(status);
 949:Generated_Source\PSoC4/I2C_I2C_MASTER.c **** }
 746              		.loc 1 949 0
 747 0024 2000     		movs	r0, r4
ARM GAS  C:\Users\gjl\AppData\Local\Temp\ccHudlr6.s 			page 31


 748              		@ sp needed
 749              	.LVL57:
 750 0026 10BD     		pop	{r4, pc}
 751              	.L59:
 752              		.align	2
 753              	.L58:
 754 0028 00000000 		.word	I2C_mstrStatus
 755 002c 00000000 		.word	I2C_state
 756              		.cfi_endproc
 757              	.LFE12:
 758              		.size	I2C_I2CMasterStatus, .-I2C_I2CMasterStatus
 759              		.section	.text.I2C_I2CMasterClearStatus,"ax",%progbits
 760              		.align	2
 761              		.global	I2C_I2CMasterClearStatus
 762              		.code	16
 763              		.thumb_func
 764              		.type	I2C_I2CMasterClearStatus, %function
 765              	I2C_I2CMasterClearStatus:
 766              	.LFB13:
 950:Generated_Source\PSoC4/I2C_I2C_MASTER.c **** 
 951:Generated_Source\PSoC4/I2C_I2C_MASTER.c **** 
 952:Generated_Source\PSoC4/I2C_I2C_MASTER.c **** /*******************************************************************************
 953:Generated_Source\PSoC4/I2C_I2C_MASTER.c **** * Function Name: I2C_I2CMasterClearStatus
 954:Generated_Source\PSoC4/I2C_I2C_MASTER.c **** ****************************************************************************//**
 955:Generated_Source\PSoC4/I2C_I2C_MASTER.c **** *
 956:Generated_Source\PSoC4/I2C_I2C_MASTER.c **** *  Clears all status flags and returns the master status.
 957:Generated_Source\PSoC4/I2C_I2C_MASTER.c **** *
 958:Generated_Source\PSoC4/I2C_I2C_MASTER.c **** * \return
 959:Generated_Source\PSoC4/I2C_I2C_MASTER.c **** *  Current status of master. See the I2C_I2CMasterStatus() 
 960:Generated_Source\PSoC4/I2C_I2C_MASTER.c **** *  function for constants.
 961:Generated_Source\PSoC4/I2C_I2C_MASTER.c **** *
 962:Generated_Source\PSoC4/I2C_I2C_MASTER.c **** * \globalvars
 963:Generated_Source\PSoC4/I2C_I2C_MASTER.c **** *  I2C_mstrStatus - used to store current status of I2C Master.
 964:Generated_Source\PSoC4/I2C_I2C_MASTER.c **** *
 965:Generated_Source\PSoC4/I2C_I2C_MASTER.c **** *******************************************************************************/
 966:Generated_Source\PSoC4/I2C_I2C_MASTER.c **** uint32 I2C_I2CMasterClearStatus(void)
 967:Generated_Source\PSoC4/I2C_I2C_MASTER.c **** {
 767              		.loc 1 967 0
 768              		.cfi_startproc
 769              		@ args = 0, pretend = 0, frame = 0
 770              		@ frame_needed = 0, uses_anonymous_args = 0
 771 0000 10B5     		push	{r4, lr}
 772              		.cfi_def_cfa_offset 8
 773              		.cfi_offset 4, -8
 774              		.cfi_offset 14, -4
 968:Generated_Source\PSoC4/I2C_I2C_MASTER.c ****     uint32 status;
 969:Generated_Source\PSoC4/I2C_I2C_MASTER.c **** 
 970:Generated_Source\PSoC4/I2C_I2C_MASTER.c ****     I2C_DisableInt();  /* Lock from interruption */
 775              		.loc 1 970 0
 776 0002 0820     		movs	r0, #8
 777 0004 FFF7FEFF 		bl	CyIntDisable
 778              	.LVL58:
 971:Generated_Source\PSoC4/I2C_I2C_MASTER.c **** 
 972:Generated_Source\PSoC4/I2C_I2C_MASTER.c ****     /* Read and clear master status */
 973:Generated_Source\PSoC4/I2C_I2C_MASTER.c ****     status = (uint32) I2C_mstrStatus;
 779              		.loc 1 973 0
 780 0008 044B     		ldr	r3, .L61
ARM GAS  C:\Users\gjl\AppData\Local\Temp\ccHudlr6.s 			page 32


 781 000a 1C88     		ldrh	r4, [r3]
 782 000c A4B2     		uxth	r4, r4
 783              	.LVL59:
 974:Generated_Source\PSoC4/I2C_I2C_MASTER.c ****     I2C_mstrStatus = I2C_I2C_MSTAT_CLEAR;
 784              		.loc 1 974 0
 785 000e 0022     		movs	r2, #0
 786 0010 1A80     		strh	r2, [r3]
 975:Generated_Source\PSoC4/I2C_I2C_MASTER.c **** 
 976:Generated_Source\PSoC4/I2C_I2C_MASTER.c ****     I2C_EnableInt();   /* Release lock */
 787              		.loc 1 976 0
 788 0012 0820     		movs	r0, #8
 789 0014 FFF7FEFF 		bl	CyIntEnable
 790              	.LVL60:
 977:Generated_Source\PSoC4/I2C_I2C_MASTER.c **** 
 978:Generated_Source\PSoC4/I2C_I2C_MASTER.c ****     return(status);
 979:Generated_Source\PSoC4/I2C_I2C_MASTER.c **** }
 791              		.loc 1 979 0
 792 0018 2000     		movs	r0, r4
 793              		@ sp needed
 794              	.LVL61:
 795 001a 10BD     		pop	{r4, pc}
 796              	.L62:
 797              		.align	2
 798              	.L61:
 799 001c 00000000 		.word	I2C_mstrStatus
 800              		.cfi_endproc
 801              	.LFE13:
 802              		.size	I2C_I2CMasterClearStatus, .-I2C_I2CMasterClearStatus
 803              		.section	.text.I2C_I2CReStartGeneration,"ax",%progbits
 804              		.align	2
 805              		.global	I2C_I2CReStartGeneration
 806              		.code	16
 807              		.thumb_func
 808              		.type	I2C_I2CReStartGeneration, %function
 809              	I2C_I2CReStartGeneration:
 810              	.LFB14:
 980:Generated_Source\PSoC4/I2C_I2C_MASTER.c **** 
 981:Generated_Source\PSoC4/I2C_I2C_MASTER.c **** 
 982:Generated_Source\PSoC4/I2C_I2C_MASTER.c **** /*******************************************************************************
 983:Generated_Source\PSoC4/I2C_I2C_MASTER.c **** * Function Name: I2C_I2CReStartGeneration
 984:Generated_Source\PSoC4/I2C_I2C_MASTER.c **** ****************************************************************************//**
 985:Generated_Source\PSoC4/I2C_I2C_MASTER.c **** *
 986:Generated_Source\PSoC4/I2C_I2C_MASTER.c **** *  Generates a ReStart condition:
 987:Generated_Source\PSoC4/I2C_I2C_MASTER.c **** *  - SCB IP V1 and later: Generates ReStart using the scb IP functionality
 988:Generated_Source\PSoC4/I2C_I2C_MASTER.c **** *    Sets the I2C_MASTER_CMD_M_START and I2C_MASTER_CMD_M_NACK (if the previous
 989:Generated_Source\PSoC4/I2C_I2C_MASTER.c **** *    transaction was read) bits in the SCB.I2C_MASTER_CMD register.
 990:Generated_Source\PSoC4/I2C_I2C_MASTER.c **** *    This combination forces the master to generate ReStart.
 991:Generated_Source\PSoC4/I2C_I2C_MASTER.c **** *
 992:Generated_Source\PSoC4/I2C_I2C_MASTER.c **** *  - SCB IP V0: Generates Restart using the GPIO and scb IP functionality.
 993:Generated_Source\PSoC4/I2C_I2C_MASTER.c **** *    After the master completes write or read, the SCL is stretched.
 994:Generated_Source\PSoC4/I2C_I2C_MASTER.c **** *    The master waits until SDA line is released by the slave. Then the GPIO
 995:Generated_Source\PSoC4/I2C_I2C_MASTER.c **** *    function is enabled and the scb IP disabled as it already does not drive
 996:Generated_Source\PSoC4/I2C_I2C_MASTER.c **** *    the bus. In case of the previous transfer was read, the NACK is generated
 997:Generated_Source\PSoC4/I2C_I2C_MASTER.c **** *    by the GPIO. The delay of tLOW is added to manage the hold time.
 998:Generated_Source\PSoC4/I2C_I2C_MASTER.c **** *    Set I2C_M_CMD.START and enable the scb IP. The ReStart generation
 999:Generated_Source\PSoC4/I2C_I2C_MASTER.c **** *    is started after the I2C function is enabled for the SCL.
1000:Generated_Source\PSoC4/I2C_I2C_MASTER.c **** *    Note1: the scb IP due re-enable generates Start but on the I2C bus it
ARM GAS  C:\Users\gjl\AppData\Local\Temp\ccHudlr6.s 			page 33


1001:Generated_Source\PSoC4/I2C_I2C_MASTER.c **** *           appears as ReStart.
1002:Generated_Source\PSoC4/I2C_I2C_MASTER.c **** *    Note2: the I2C_M_CMD.START is queued if scb IP is disabled.
1003:Generated_Source\PSoC4/I2C_I2C_MASTER.c **** *    Note3: the I2C_STATUS_M_READ is cleared is address was NACKed before.
1004:Generated_Source\PSoC4/I2C_I2C_MASTER.c **** *
1005:Generated_Source\PSoC4/I2C_I2C_MASTER.c **** * \sideeffect
1006:Generated_Source\PSoC4/I2C_I2C_MASTER.c **** *  SCB IP V0: The NACK generation by the GPIO may cause a greater SCL period
1007:Generated_Source\PSoC4/I2C_I2C_MASTER.c **** *             than expected for the selected master data rate.
1008:Generated_Source\PSoC4/I2C_I2C_MASTER.c **** *
1009:Generated_Source\PSoC4/I2C_I2C_MASTER.c **** *******************************************************************************/
1010:Generated_Source\PSoC4/I2C_I2C_MASTER.c **** void I2C_I2CReStartGeneration(void)
1011:Generated_Source\PSoC4/I2C_I2C_MASTER.c **** {
 811              		.loc 1 1011 0
 812              		.cfi_startproc
 813              		@ args = 0, pretend = 0, frame = 0
 814              		@ frame_needed = 0, uses_anonymous_args = 0
 815              		@ link register save eliminated.
 816              	.LVL62:
1012:Generated_Source\PSoC4/I2C_I2C_MASTER.c **** #if(I2C_CY_SCBIP_V0)
1013:Generated_Source\PSoC4/I2C_I2C_MASTER.c ****     /* Generates Restart use GPIO and scb IP functionality. Ticket ID#143715,
1014:Generated_Source\PSoC4/I2C_I2C_MASTER.c ****     * ID#145238 and ID#173656.
1015:Generated_Source\PSoC4/I2C_I2C_MASTER.c ****     */
1016:Generated_Source\PSoC4/I2C_I2C_MASTER.c ****     uint32 status = I2C_I2C_STATUS_REG;
1017:Generated_Source\PSoC4/I2C_I2C_MASTER.c **** 
1018:Generated_Source\PSoC4/I2C_I2C_MASTER.c ****     while(I2C_WAIT_SDA_SET_HIGH)
1019:Generated_Source\PSoC4/I2C_I2C_MASTER.c ****     {
1020:Generated_Source\PSoC4/I2C_I2C_MASTER.c ****         /* Wait when slave release SDA line: SCL tHIGH is complete */
1021:Generated_Source\PSoC4/I2C_I2C_MASTER.c ****     }
1022:Generated_Source\PSoC4/I2C_I2C_MASTER.c **** 
1023:Generated_Source\PSoC4/I2C_I2C_MASTER.c ****     /* Prepare DR register to drive SCL line */
1024:Generated_Source\PSoC4/I2C_I2C_MASTER.c ****     I2C_SET_I2C_SCL_DR(I2C_I2C_SCL_LOW);
1025:Generated_Source\PSoC4/I2C_I2C_MASTER.c **** 
1026:Generated_Source\PSoC4/I2C_I2C_MASTER.c ****     /* Switch HSIOM to GPIO: SCL goes low */
1027:Generated_Source\PSoC4/I2C_I2C_MASTER.c ****     I2C_SET_I2C_SCL_HSIOM_SEL(I2C_HSIOM_GPIO_SEL);
1028:Generated_Source\PSoC4/I2C_I2C_MASTER.c **** 
1029:Generated_Source\PSoC4/I2C_I2C_MASTER.c ****     /* Disable SCB block */
1030:Generated_Source\PSoC4/I2C_I2C_MASTER.c ****     I2C_CTRL_REG &= (uint32) ~I2C_CTRL_ENABLED;
1031:Generated_Source\PSoC4/I2C_I2C_MASTER.c **** 
1032:Generated_Source\PSoC4/I2C_I2C_MASTER.c ****     if(0u != (status & I2C_I2C_STATUS_M_READ))
1033:Generated_Source\PSoC4/I2C_I2C_MASTER.c ****     {
1034:Generated_Source\PSoC4/I2C_I2C_MASTER.c ****         /* Generate NACK use GPIO functionality */
1035:Generated_Source\PSoC4/I2C_I2C_MASTER.c ****         I2C_SET_I2C_SCL_DR(I2C_I2C_SCL_LOW);
1036:Generated_Source\PSoC4/I2C_I2C_MASTER.c ****         CyDelayUs(I2C_I2C_TLOW_TIME); /* Count tLOW */
1037:Generated_Source\PSoC4/I2C_I2C_MASTER.c **** 
1038:Generated_Source\PSoC4/I2C_I2C_MASTER.c ****         I2C_SET_I2C_SCL_DR(I2C_I2C_SCL_HIGH);
1039:Generated_Source\PSoC4/I2C_I2C_MASTER.c ****         while(I2C_WAIT_SCL_SET_HIGH)
1040:Generated_Source\PSoC4/I2C_I2C_MASTER.c ****         {
1041:Generated_Source\PSoC4/I2C_I2C_MASTER.c ****             /* Wait until slave releases SCL in case if it stretches */
1042:Generated_Source\PSoC4/I2C_I2C_MASTER.c ****         }
1043:Generated_Source\PSoC4/I2C_I2C_MASTER.c ****         CyDelayUs(I2C_I2C_THIGH_TIME); /* Count tHIGH */
1044:Generated_Source\PSoC4/I2C_I2C_MASTER.c ****     }
1045:Generated_Source\PSoC4/I2C_I2C_MASTER.c **** 
1046:Generated_Source\PSoC4/I2C_I2C_MASTER.c ****     /* Count tLOW as hold time for write and read */
1047:Generated_Source\PSoC4/I2C_I2C_MASTER.c ****     I2C_SET_I2C_SCL_DR(I2C_I2C_SCL_LOW);
1048:Generated_Source\PSoC4/I2C_I2C_MASTER.c ****     CyDelayUs(I2C_I2C_TLOW_TIME); /* Count tLOW */
1049:Generated_Source\PSoC4/I2C_I2C_MASTER.c **** 
1050:Generated_Source\PSoC4/I2C_I2C_MASTER.c ****     /* Set command for Start generation: it will appear */
1051:Generated_Source\PSoC4/I2C_I2C_MASTER.c ****     I2C_I2C_MASTER_CMD_REG = I2C_I2C_MASTER_CMD_M_START;
ARM GAS  C:\Users\gjl\AppData\Local\Temp\ccHudlr6.s 			page 34


1052:Generated_Source\PSoC4/I2C_I2C_MASTER.c **** 
1053:Generated_Source\PSoC4/I2C_I2C_MASTER.c ****     /* Enable SCB block */
1054:Generated_Source\PSoC4/I2C_I2C_MASTER.c ****     I2C_CTRL_REG |= (uint32) I2C_CTRL_ENABLED;
1055:Generated_Source\PSoC4/I2C_I2C_MASTER.c **** 
1056:Generated_Source\PSoC4/I2C_I2C_MASTER.c ****     /* Switch HSIOM to I2C: */
1057:Generated_Source\PSoC4/I2C_I2C_MASTER.c ****     I2C_SET_I2C_SCL_HSIOM_SEL(I2C_HSIOM_I2C_SEL);
1058:Generated_Source\PSoC4/I2C_I2C_MASTER.c **** 
1059:Generated_Source\PSoC4/I2C_I2C_MASTER.c ****     /* Revert SCL DR register */
1060:Generated_Source\PSoC4/I2C_I2C_MASTER.c ****     I2C_SET_I2C_SCL_DR(I2C_I2C_SCL_HIGH);
1061:Generated_Source\PSoC4/I2C_I2C_MASTER.c **** #else
1062:Generated_Source\PSoC4/I2C_I2C_MASTER.c ****     uint32 cmd;
1063:Generated_Source\PSoC4/I2C_I2C_MASTER.c **** 
1064:Generated_Source\PSoC4/I2C_I2C_MASTER.c ****     /* Generates ReStart use scb IP functionality */
1065:Generated_Source\PSoC4/I2C_I2C_MASTER.c ****     cmd  = I2C_I2C_MASTER_CMD_M_START;
1066:Generated_Source\PSoC4/I2C_I2C_MASTER.c ****     cmd |= I2C_CHECK_I2C_STATUS(I2C_I2C_STATUS_M_READ) ?
 817              		.loc 1 1066 0
 818 0000 054B     		ldr	r3, .L65
 819 0002 1B68     		ldr	r3, [r3]
 820 0004 2022     		movs	r2, #32
 821 0006 1340     		ands	r3, r2
1067:Generated_Source\PSoC4/I2C_I2C_MASTER.c ****                 (I2C_I2C_MASTER_CMD_M_NACK) : (0u);
 822              		.loc 1 1067 0
 823 0008 00D0     		beq	.L64
 824 000a 0823     		movs	r3, #8
 825              	.L64:
1066:Generated_Source\PSoC4/I2C_I2C_MASTER.c ****                 (I2C_I2C_MASTER_CMD_M_NACK) : (0u);
 826              		.loc 1 1066 0 discriminator 4
 827 000c 0122     		movs	r2, #1
 828 000e 1343     		orrs	r3, r2
 829              	.LVL63:
1068:Generated_Source\PSoC4/I2C_I2C_MASTER.c **** 
1069:Generated_Source\PSoC4/I2C_I2C_MASTER.c ****     I2C_I2C_MASTER_CMD_REG = cmd;
 830              		.loc 1 1069 0 discriminator 4
 831 0010 024A     		ldr	r2, .L65+4
 832 0012 1360     		str	r3, [r2]
1070:Generated_Source\PSoC4/I2C_I2C_MASTER.c **** #endif /* (I2C_CY_SCBIP_V1) */
1071:Generated_Source\PSoC4/I2C_I2C_MASTER.c **** }
 833              		.loc 1 1071 0 discriminator 4
 834              		@ sp needed
 835 0014 7047     		bx	lr
 836              	.L66:
 837 0016 C046     		.align	2
 838              	.L65:
 839 0018 64002440 		.word	1076101220
 840 001c 68002440 		.word	1076101224
 841              		.cfi_endproc
 842              	.LFE14:
 843              		.size	I2C_I2CReStartGeneration, .-I2C_I2CReStartGeneration
 844              		.section	.text.I2C_I2CMasterWriteBuf,"ax",%progbits
 845              		.align	2
 846              		.global	I2C_I2CMasterWriteBuf
 847              		.code	16
 848              		.thumb_func
 849              		.type	I2C_I2CMasterWriteBuf, %function
 850              	I2C_I2CMasterWriteBuf:
 851              	.LFB1:
  99:Generated_Source\PSoC4/I2C_I2C_MASTER.c ****     uint32 errStatus;
ARM GAS  C:\Users\gjl\AppData\Local\Temp\ccHudlr6.s 			page 35


 852              		.loc 1 99 0
 853              		.cfi_startproc
 854              		@ args = 0, pretend = 0, frame = 8
 855              		@ frame_needed = 0, uses_anonymous_args = 0
 856              	.LVL64:
 857 0000 F0B5     		push	{r4, r5, r6, r7, lr}
 858              		.cfi_def_cfa_offset 20
 859              		.cfi_offset 4, -20
 860              		.cfi_offset 5, -16
 861              		.cfi_offset 6, -12
 862              		.cfi_offset 7, -8
 863              		.cfi_offset 14, -4
 864 0002 83B0     		sub	sp, sp, #12
 865              		.cfi_def_cfa_offset 32
 866 0004 0190     		str	r0, [sp, #4]
 867 0006 0C00     		movs	r4, r1
 868 0008 1700     		movs	r7, r2
 869 000a 1D00     		movs	r5, r3
 870              	.LVL65:
 104:Generated_Source\PSoC4/I2C_I2C_MASTER.c ****     {
 871              		.loc 1 104 0
 872 000c 0029     		cmp	r1, #0
 873 000e 17D0     		beq	.L72
 107:Generated_Source\PSoC4/I2C_I2C_MASTER.c ****         {
 874              		.loc 1 107 0
 875 0010 284B     		ldr	r3, .L75
 876              	.LVL66:
 877 0012 1B78     		ldrb	r3, [r3]
 878 0014 102B     		cmp	r3, #16
 879 0016 08D1     		bne	.L69
 109:Generated_Source\PSoC4/I2C_I2C_MASTER.c **** 
 880              		.loc 1 109 0
 881 0018 0820     		movs	r0, #8
 882              	.LVL67:
 883 001a FFF7FEFF 		bl	CyIntDisable
 884              	.LVL68:
 112:Generated_Source\PSoC4/I2C_I2C_MASTER.c ****                             I2C_I2C_MSTR_BUS_BUSY : I2C_I2C_MSTR_NO_ERROR;
 885              		.loc 1 112 0
 886 001e 264B     		ldr	r3, .L75+4
 887 0020 1B68     		ldr	r3, [r3]
 888 0022 DB07     		lsls	r3, r3, #31
 889 0024 0ED5     		bpl	.L73
 890 0026 0826     		movs	r6, #8
 891 0028 0FE0     		b	.L68
 892              	.LVL69:
 893              	.L69:
 115:Generated_Source\PSoC4/I2C_I2C_MASTER.c ****         {
 894              		.loc 1 115 0
 895 002a 224B     		ldr	r3, .L75
 896 002c 1B78     		ldrb	r3, [r3]
 897 002e 602B     		cmp	r3, #96
 898 0030 0AD1     		bne	.L74
 117:Generated_Source\PSoC4/I2C_I2C_MASTER.c ****                               errStatus  = I2C_I2C_MSTR_NO_ERROR;
 899              		.loc 1 117 0
 900 0032 224A     		ldr	r2, .L75+8
 901              	.LVL70:
 902 0034 1388     		ldrh	r3, [r2]
ARM GAS  C:\Users\gjl\AppData\Local\Temp\ccHudlr6.s 			page 36


 903 0036 0821     		movs	r1, #8
 904              	.LVL71:
 905 0038 8B43     		bics	r3, r1
 906 003a 1380     		strh	r3, [r2]
 907              	.LVL72:
 118:Generated_Source\PSoC4/I2C_I2C_MASTER.c ****         }
 908              		.loc 1 118 0
 909 003c 0026     		movs	r6, #0
 910 003e 04E0     		b	.L68
 911              	.LVL73:
 912              	.L72:
 102:Generated_Source\PSoC4/I2C_I2C_MASTER.c **** 
 913              		.loc 1 102 0
 914 0040 0426     		movs	r6, #4
 915 0042 02E0     		b	.L68
 916              	.LVL74:
 917              	.L73:
 112:Generated_Source\PSoC4/I2C_I2C_MASTER.c ****                             I2C_I2C_MSTR_BUS_BUSY : I2C_I2C_MSTR_NO_ERROR;
 918              		.loc 1 112 0
 919 0044 0026     		movs	r6, #0
 920 0046 00E0     		b	.L68
 921              	.LVL75:
 922              	.L74:
 102:Generated_Source\PSoC4/I2C_I2C_MASTER.c **** 
 923              		.loc 1 102 0
 924 0048 0426     		movs	r6, #4
 925              	.LVL76:
 926              	.L68:
 127:Generated_Source\PSoC4/I2C_I2C_MASTER.c ****     {
 927              		.loc 1 127 0
 928 004a 002E     		cmp	r6, #0
 929 004c 2BD1     		bne	.L70
 135:Generated_Source\PSoC4/I2C_I2C_MASTER.c ****         I2C_mstrWrBufIndexTmp = 0u;
 930              		.loc 1 135 0
 931 004e 2822     		movs	r2, #40
 932 0050 184B     		ldr	r3, .L75
 933 0052 1A70     		strb	r2, [r3]
 136:Generated_Source\PSoC4/I2C_I2C_MASTER.c ****         I2C_mstrWrBufIndex    = 0u;
 934              		.loc 1 136 0
 935 0054 0023     		movs	r3, #0
 936 0056 1A4A     		ldr	r2, .L75+12
 937 0058 1360     		str	r3, [r2]
 137:Generated_Source\PSoC4/I2C_I2C_MASTER.c ****         I2C_mstrWrBufSize     = cnt;
 938              		.loc 1 137 0
 939 005a 1A4A     		ldr	r2, .L75+16
 940 005c 1360     		str	r3, [r2]
 138:Generated_Source\PSoC4/I2C_I2C_MASTER.c ****         I2C_mstrWrBufPtr      = (volatile uint8 *) wrData;
 941              		.loc 1 138 0
 942 005e 1A4B     		ldr	r3, .L75+20
 943 0060 1F60     		str	r7, [r3]
 139:Generated_Source\PSoC4/I2C_I2C_MASTER.c ****         I2C_mstrControl       = (uint8) mode;
 944              		.loc 1 139 0
 945 0062 1A4B     		ldr	r3, .L75+24
 946 0064 1C60     		str	r4, [r3]
 140:Generated_Source\PSoC4/I2C_I2C_MASTER.c **** 
 947              		.loc 1 140 0
 948 0066 EAB2     		uxtb	r2, r5
ARM GAS  C:\Users\gjl\AppData\Local\Temp\ccHudlr6.s 			page 37


 949 0068 194B     		ldr	r3, .L75+28
 950 006a 1A70     		strb	r2, [r3]
 142:Generated_Source\PSoC4/I2C_I2C_MASTER.c **** 
 951              		.loc 1 142 0
 952 006c 019B     		ldr	r3, [sp, #4]
 953 006e 5C00     		lsls	r4, r3, #1
 954              	.LVL77:
 955 0070 FF23     		movs	r3, #255
 956 0072 1C40     		ands	r4, r3
 957              	.LVL78:
 144:Generated_Source\PSoC4/I2C_I2C_MASTER.c **** 
 958              		.loc 1 144 0
 959 0074 114A     		ldr	r2, .L75+8
 960 0076 1388     		ldrh	r3, [r2]
 961 0078 0221     		movs	r1, #2
 962 007a 8B43     		bics	r3, r1
 963 007c 1380     		strh	r3, [r2]
 146:Generated_Source\PSoC4/I2C_I2C_MASTER.c ****         I2C_ClearTxInterruptSource(I2C_INTR_TX_UNDERFLOW);
 964              		.loc 1 146 0
 965 007e 154A     		ldr	r2, .L75+32
 966 0080 154B     		ldr	r3, .L75+36
 967 0082 1A60     		str	r2, [r3]
 968              	.LVL79:
 147:Generated_Source\PSoC4/I2C_I2C_MASTER.c **** 
 969              		.loc 1 147 0
 970 0084 4023     		movs	r3, #64
 971 0086 154A     		ldr	r2, .L75+40
 972 0088 1360     		str	r3, [r2]
 152:Generated_Source\PSoC4/I2C_I2C_MASTER.c **** 
 973              		.loc 1 152 0
 974 008a 154A     		ldr	r2, .L75+44
 975 008c 1360     		str	r3, [r2]
 155:Generated_Source\PSoC4/I2C_I2C_MASTER.c ****         {
 976              		.loc 1 155 0
 977 008e EB07     		lsls	r3, r5, #31
 978 0090 04D5     		bpl	.L71
 157:Generated_Source\PSoC4/I2C_I2C_MASTER.c ****             I2C_TX_FIFO_WR_REG = slaveAddress;
 979              		.loc 1 157 0
 980 0092 FFF7FEFF 		bl	I2C_I2CReStartGeneration
 981              	.LVL80:
 158:Generated_Source\PSoC4/I2C_I2C_MASTER.c ****         }
 982              		.loc 1 158 0
 983 0096 134B     		ldr	r3, .L75+48
 984 0098 1C60     		str	r4, [r3]
 985 009a 04E0     		b	.L70
 986              	.L71:
 162:Generated_Source\PSoC4/I2C_I2C_MASTER.c ****             I2C_I2C_MASTER_GENERATE_START;
 987              		.loc 1 162 0
 988 009c 114B     		ldr	r3, .L75+48
 989 009e 1C60     		str	r4, [r3]
 163:Generated_Source\PSoC4/I2C_I2C_MASTER.c ****         }
 990              		.loc 1 163 0
 991 00a0 0222     		movs	r2, #2
 992 00a2 114B     		ldr	r3, .L75+52
 993 00a4 1A60     		str	r2, [r3]
 994              	.LVL81:
 995              	.L70:
ARM GAS  C:\Users\gjl\AppData\Local\Temp\ccHudlr6.s 			page 38


 167:Generated_Source\PSoC4/I2C_I2C_MASTER.c **** 
 996              		.loc 1 167 0
 997 00a6 0820     		movs	r0, #8
 998 00a8 FFF7FEFF 		bl	CyIntEnable
 999              	.LVL82:
 170:Generated_Source\PSoC4/I2C_I2C_MASTER.c **** 
 1000              		.loc 1 170 0
 1001 00ac 3000     		movs	r0, r6
 1002 00ae 03B0     		add	sp, sp, #12
 1003              		@ sp needed
 1004              	.LVL83:
 1005              	.LVL84:
 1006              	.LVL85:
 1007 00b0 F0BD     		pop	{r4, r5, r6, r7, pc}
 1008              	.L76:
 1009 00b2 C046     		.align	2
 1010              	.L75:
 1011 00b4 00000000 		.word	I2C_state
 1012 00b8 64002440 		.word	1076101220
 1013 00bc 00000000 		.word	I2C_mstrStatus
 1014 00c0 00000000 		.word	I2C_mstrWrBufIndexTmp
 1015 00c4 00000000 		.word	I2C_mstrWrBufIndex
 1016 00c8 00000000 		.word	I2C_mstrWrBufSize
 1017 00cc 00000000 		.word	I2C_mstrWrBufPtr
 1018 00d0 00000000 		.word	I2C_mstrControl
 1019 00d4 17030000 		.word	791
 1020 00d8 000F2440 		.word	1076104960
 1021 00dc 800F2440 		.word	1076105088
 1022 00e0 880F2440 		.word	1076105096
 1023 00e4 40022440 		.word	1076101696
 1024 00e8 68002440 		.word	1076101224
 1025              		.cfi_endproc
 1026              	.LFE1:
 1027              		.size	I2C_I2CMasterWriteBuf, .-I2C_I2CMasterWriteBuf
 1028              		.section	.text.I2C_I2CMasterReadBuf,"ax",%progbits
 1029              		.align	2
 1030              		.global	I2C_I2CMasterReadBuf
 1031              		.code	16
 1032              		.thumb_func
 1033              		.type	I2C_I2CMasterReadBuf, %function
 1034              	I2C_I2CMasterReadBuf:
 1035              	.LFB2:
 210:Generated_Source\PSoC4/I2C_I2C_MASTER.c ****     uint32 errStatus;
 1036              		.loc 1 210 0
 1037              		.cfi_startproc
 1038              		@ args = 0, pretend = 0, frame = 8
 1039              		@ frame_needed = 0, uses_anonymous_args = 0
 1040              	.LVL86:
 1041 0000 F0B5     		push	{r4, r5, r6, r7, lr}
 1042              		.cfi_def_cfa_offset 20
 1043              		.cfi_offset 4, -20
 1044              		.cfi_offset 5, -16
 1045              		.cfi_offset 6, -12
 1046              		.cfi_offset 7, -8
 1047              		.cfi_offset 14, -4
 1048 0002 83B0     		sub	sp, sp, #12
 1049              		.cfi_def_cfa_offset 32
ARM GAS  C:\Users\gjl\AppData\Local\Temp\ccHudlr6.s 			page 39


 1050 0004 0190     		str	r0, [sp, #4]
 1051 0006 0C00     		movs	r4, r1
 1052 0008 1700     		movs	r7, r2
 1053 000a 1D00     		movs	r5, r3
 1054              	.LVL87:
 215:Generated_Source\PSoC4/I2C_I2C_MASTER.c ****     {
 1055              		.loc 1 215 0
 1056 000c 0029     		cmp	r1, #0
 1057 000e 17D0     		beq	.L84
 218:Generated_Source\PSoC4/I2C_I2C_MASTER.c ****         {
 1058              		.loc 1 218 0
 1059 0010 2D4B     		ldr	r3, .L87
 1060              	.LVL88:
 1061 0012 1B78     		ldrb	r3, [r3]
 1062 0014 102B     		cmp	r3, #16
 1063 0016 08D1     		bne	.L79
 220:Generated_Source\PSoC4/I2C_I2C_MASTER.c **** 
 1064              		.loc 1 220 0
 1065 0018 0820     		movs	r0, #8
 1066              	.LVL89:
 1067 001a FFF7FEFF 		bl	CyIntDisable
 1068              	.LVL90:
 223:Generated_Source\PSoC4/I2C_I2C_MASTER.c ****                             I2C_I2C_MSTR_BUS_BUSY : I2C_I2C_MSTR_NO_ERROR;
 1069              		.loc 1 223 0
 1070 001e 2B4B     		ldr	r3, .L87+4
 1071 0020 1B68     		ldr	r3, [r3]
 1072 0022 DB07     		lsls	r3, r3, #31
 1073 0024 0ED5     		bpl	.L85
 1074 0026 0826     		movs	r6, #8
 1075 0028 0FE0     		b	.L78
 1076              	.LVL91:
 1077              	.L79:
 226:Generated_Source\PSoC4/I2C_I2C_MASTER.c ****         {
 1078              		.loc 1 226 0
 1079 002a 274B     		ldr	r3, .L87
 1080 002c 1B78     		ldrb	r3, [r3]
 1081 002e 602B     		cmp	r3, #96
 1082 0030 0AD1     		bne	.L86
 228:Generated_Source\PSoC4/I2C_I2C_MASTER.c ****                               errStatus  =  I2C_I2C_MSTR_NO_ERROR;
 1083              		.loc 1 228 0
 1084 0032 274A     		ldr	r2, .L87+8
 1085              	.LVL92:
 1086 0034 1388     		ldrh	r3, [r2]
 1087 0036 0821     		movs	r1, #8
 1088              	.LVL93:
 1089 0038 8B43     		bics	r3, r1
 1090 003a 1380     		strh	r3, [r2]
 1091              	.LVL94:
 229:Generated_Source\PSoC4/I2C_I2C_MASTER.c ****         }
 1092              		.loc 1 229 0
 1093 003c 0026     		movs	r6, #0
 1094 003e 04E0     		b	.L78
 1095              	.LVL95:
 1096              	.L84:
 213:Generated_Source\PSoC4/I2C_I2C_MASTER.c **** 
 1097              		.loc 1 213 0
 1098 0040 0426     		movs	r6, #4
ARM GAS  C:\Users\gjl\AppData\Local\Temp\ccHudlr6.s 			page 40


 1099 0042 02E0     		b	.L78
 1100              	.LVL96:
 1101              	.L85:
 223:Generated_Source\PSoC4/I2C_I2C_MASTER.c ****                             I2C_I2C_MSTR_BUS_BUSY : I2C_I2C_MSTR_NO_ERROR;
 1102              		.loc 1 223 0
 1103 0044 0026     		movs	r6, #0
 1104 0046 00E0     		b	.L78
 1105              	.LVL97:
 1106              	.L86:
 213:Generated_Source\PSoC4/I2C_I2C_MASTER.c **** 
 1107              		.loc 1 213 0
 1108 0048 0426     		movs	r6, #4
 1109              	.LVL98:
 1110              	.L78:
 238:Generated_Source\PSoC4/I2C_I2C_MASTER.c ****     {
 1111              		.loc 1 238 0
 1112 004a 002E     		cmp	r6, #0
 1113 004c 35D1     		bne	.L80
 246:Generated_Source\PSoC4/I2C_I2C_MASTER.c ****         I2C_mstrRdBufIndex = 0u;
 1114              		.loc 1 246 0
 1115 004e 2922     		movs	r2, #41
 1116 0050 1D4B     		ldr	r3, .L87
 1117 0052 1A70     		strb	r2, [r3]
 247:Generated_Source\PSoC4/I2C_I2C_MASTER.c ****         I2C_mstrRdBufSize  = cnt;
 1118              		.loc 1 247 0
 1119 0054 0022     		movs	r2, #0
 1120 0056 1F4B     		ldr	r3, .L87+12
 1121 0058 1A60     		str	r2, [r3]
 248:Generated_Source\PSoC4/I2C_I2C_MASTER.c ****         I2C_mstrRdBufPtr   = (volatile uint8 *) rdData;
 1122              		.loc 1 248 0
 1123 005a 1F4A     		ldr	r2, .L87+16
 1124 005c 1760     		str	r7, [r2]
 249:Generated_Source\PSoC4/I2C_I2C_MASTER.c ****         I2C_mstrControl    = (uint8) mode;
 1125              		.loc 1 249 0
 1126 005e 1F4B     		ldr	r3, .L87+20
 1127 0060 1C60     		str	r4, [r3]
 250:Generated_Source\PSoC4/I2C_I2C_MASTER.c **** 
 1128              		.loc 1 250 0
 1129 0062 EBB2     		uxtb	r3, r5
 1130 0064 1E49     		ldr	r1, .L87+24
 1131 0066 0B70     		strb	r3, [r1]
 252:Generated_Source\PSoC4/I2C_I2C_MASTER.c **** 
 1132              		.loc 1 252 0
 1133 0068 019B     		ldr	r3, [sp, #4]
 1134 006a 5C00     		lsls	r4, r3, #1
 1135              	.LVL99:
 1136 006c FF23     		movs	r3, #255
 1137 006e 1C40     		ands	r4, r3
 1138 0070 0120     		movs	r0, #1
 1139 0072 0443     		orrs	r4, r0
 1140              	.LVL100:
 254:Generated_Source\PSoC4/I2C_I2C_MASTER.c **** 
 1141              		.loc 1 254 0
 1142 0074 1649     		ldr	r1, .L87+8
 1143 0076 0B88     		ldrh	r3, [r1]
 1144 0078 8343     		bics	r3, r0
 1145 007a 0B80     		strh	r3, [r1]
ARM GAS  C:\Users\gjl\AppData\Local\Temp\ccHudlr6.s 			page 41


 256:Generated_Source\PSoC4/I2C_I2C_MASTER.c **** 
 1146              		.loc 1 256 0
 1147 007c 1949     		ldr	r1, .L87+28
 1148 007e 1A4B     		ldr	r3, .L87+32
 1149 0080 1960     		str	r1, [r3]
 1150              	.LVL101:
 261:Generated_Source\PSoC4/I2C_I2C_MASTER.c ****         {
 1151              		.loc 1 261 0
 1152 0082 1368     		ldr	r3, [r2]
 1153 0084 072B     		cmp	r3, #7
 1154 0086 03D8     		bhi	.L81
 264:Generated_Source\PSoC4/I2C_I2C_MASTER.c ****         }
 1155              		.loc 1 264 0
 1156 0088 0422     		movs	r2, #4
 1157 008a 184B     		ldr	r3, .L87+36
 1158 008c 1A60     		str	r2, [r3]
 1159 008e 08E0     		b	.L82
 1160              	.L81:
 269:Generated_Source\PSoC4/I2C_I2C_MASTER.c ****             I2C_SetRxInterruptMode(I2C_INTR_RX_FULL);
 1161              		.loc 1 269 0
 1162 0090 174A     		ldr	r2, .L87+40
 1163 0092 1368     		ldr	r3, [r2]
 1164 0094 8021     		movs	r1, #128
 1165 0096 4900     		lsls	r1, r1, #1
 1166 0098 0B43     		orrs	r3, r1
 1167 009a 1360     		str	r3, [r2]
 270:Generated_Source\PSoC4/I2C_I2C_MASTER.c ****         }
 1168              		.loc 1 270 0
 1169 009c 0822     		movs	r2, #8
 1170 009e 134B     		ldr	r3, .L87+36
 1171 00a0 1A60     		str	r2, [r3]
 1172              	.L82:
 274:Generated_Source\PSoC4/I2C_I2C_MASTER.c ****         {
 1173              		.loc 1 274 0
 1174 00a2 EB07     		lsls	r3, r5, #31
 1175 00a4 04D5     		bpl	.L83
 276:Generated_Source\PSoC4/I2C_I2C_MASTER.c ****             I2C_TX_FIFO_WR_REG = (slaveAddress);
 1176              		.loc 1 276 0
 1177 00a6 FFF7FEFF 		bl	I2C_I2CReStartGeneration
 1178              	.LVL102:
 277:Generated_Source\PSoC4/I2C_I2C_MASTER.c ****         }
 1179              		.loc 1 277 0
 1180 00aa 124B     		ldr	r3, .L87+44
 1181 00ac 1C60     		str	r4, [r3]
 1182 00ae 04E0     		b	.L80
 1183              	.L83:
 281:Generated_Source\PSoC4/I2C_I2C_MASTER.c ****             I2C_I2C_MASTER_GENERATE_START;
 1184              		.loc 1 281 0
 1185 00b0 104B     		ldr	r3, .L87+44
 1186 00b2 1C60     		str	r4, [r3]
 282:Generated_Source\PSoC4/I2C_I2C_MASTER.c ****         }
 1187              		.loc 1 282 0
 1188 00b4 0222     		movs	r2, #2
 1189 00b6 104B     		ldr	r3, .L87+48
 1190 00b8 1A60     		str	r2, [r3]
 1191              	.LVL103:
 1192              	.L80:
ARM GAS  C:\Users\gjl\AppData\Local\Temp\ccHudlr6.s 			page 42


 286:Generated_Source\PSoC4/I2C_I2C_MASTER.c **** 
 1193              		.loc 1 286 0
 1194 00ba 0820     		movs	r0, #8
 1195 00bc FFF7FEFF 		bl	CyIntEnable
 1196              	.LVL104:
 289:Generated_Source\PSoC4/I2C_I2C_MASTER.c **** 
 1197              		.loc 1 289 0
 1198 00c0 3000     		movs	r0, r6
 1199 00c2 03B0     		add	sp, sp, #12
 1200              		@ sp needed
 1201              	.LVL105:
 1202              	.LVL106:
 1203              	.LVL107:
 1204 00c4 F0BD     		pop	{r4, r5, r6, r7, pc}
 1205              	.L88:
 1206 00c6 C046     		.align	2
 1207              	.L87:
 1208 00c8 00000000 		.word	I2C_state
 1209 00cc 64002440 		.word	1076101220
 1210 00d0 00000000 		.word	I2C_mstrStatus
 1211 00d4 00000000 		.word	I2C_mstrRdBufIndex
 1212 00d8 00000000 		.word	I2C_mstrRdBufSize
 1213 00dc 00000000 		.word	I2C_mstrRdBufPtr
 1214 00e0 00000000 		.word	I2C_mstrControl
 1215 00e4 17030000 		.word	791
 1216 00e8 000F2440 		.word	1076104960
 1217 00ec C80F2440 		.word	1076105160
 1218 00f0 60002440 		.word	1076101216
 1219 00f4 40022440 		.word	1076101696
 1220 00f8 68002440 		.word	1076101224
 1221              		.cfi_endproc
 1222              	.LFE2:
 1223              		.size	I2C_I2CMasterReadBuf, .-I2C_I2CMasterReadBuf
 1224              		.section	.text.I2C_I2CMasterSendRestart,"ax",%progbits
 1225              		.align	2
 1226              		.global	I2C_I2CMasterSendRestart
 1227              		.code	16
 1228              		.thumb_func
 1229              		.type	I2C_I2CMasterSendRestart, %function
 1230              	I2C_I2CMasterSendRestart:
 1231              	.LFB4:
 459:Generated_Source\PSoC4/I2C_I2C_MASTER.c ****     uint32 resetIp;
 1232              		.loc 1 459 0
 1233              		.cfi_startproc
 1234              		@ args = 0, pretend = 0, frame = 0
 1235              		@ frame_needed = 0, uses_anonymous_args = 0
 1236              	.LVL108:
 1237 0000 10B5     		push	{r4, lr}
 1238              		.cfi_def_cfa_offset 8
 1239              		.cfi_offset 4, -8
 1240              		.cfi_offset 14, -4
 1241              	.LVL109:
 467:Generated_Source\PSoC4/I2C_I2C_MASTER.c ****     {
 1242              		.loc 1 467 0
 1243 0002 2A4B     		ldr	r3, .L100
 1244 0004 1B78     		ldrb	r3, [r3]
 1245 0006 9B06     		lsls	r3, r3, #26
ARM GAS  C:\Users\gjl\AppData\Local\Temp\ccHudlr6.s 			page 43


 1246 0008 4DD5     		bpl	.L97
 469:Generated_Source\PSoC4/I2C_I2C_MASTER.c **** 
 1247              		.loc 1 469 0
 1248 000a 4000     		lsls	r0, r0, #1
 1249              	.LVL110:
 1250 000c FF24     		movs	r4, #255
 1251 000e 0440     		ands	r4, r0
 1252              	.LVL111:
 471:Generated_Source\PSoC4/I2C_I2C_MASTER.c ****         {
 1253              		.loc 1 471 0
 1254 0010 0029     		cmp	r1, #0
 1255 0012 03D1     		bne	.L91
 473:Generated_Source\PSoC4/I2C_I2C_MASTER.c ****         }
 1256              		.loc 1 473 0
 1257 0014 2422     		movs	r2, #36
 1258 0016 254B     		ldr	r3, .L100
 1259 0018 1A70     		strb	r2, [r3]
 1260 001a 04E0     		b	.L92
 1261              	.L91:
 477:Generated_Source\PSoC4/I2C_I2C_MASTER.c ****                       slaveAddress |= I2C_I2C_READ_FLAG;
 1262              		.loc 1 477 0
 1263 001c 2522     		movs	r2, #37
 1264 001e 234B     		ldr	r3, .L100
 1265 0020 1A70     		strb	r2, [r3]
 478:Generated_Source\PSoC4/I2C_I2C_MASTER.c ****         }
 1266              		.loc 1 478 0
 1267 0022 0123     		movs	r3, #1
 1268 0024 1C43     		orrs	r4, r3
 1269              	.LVL112:
 1270              	.L92:
 484:Generated_Source\PSoC4/I2C_I2C_MASTER.c **** 
 1271              		.loc 1 484 0
 1272 0026 224A     		ldr	r2, .L100+4
 1273 0028 224B     		ldr	r3, .L100+8
 1274 002a 1A60     		str	r2, [r3]
 490:Generated_Source\PSoC4/I2C_I2C_MASTER.c **** 
 1275              		.loc 1 490 0
 1276 002c FFF7FEFF 		bl	I2C_I2CReStartGeneration
 1277              	.LVL113:
 1278              	.L93:
 492:Generated_Source\PSoC4/I2C_I2C_MASTER.c ****         {
 1279              		.loc 1 492 0 discriminator 1
 1280 0030 214B     		ldr	r3, .L100+12
 1281 0032 1B68     		ldr	r3, [r3]
 1282 0034 DB07     		lsls	r3, r3, #31
 1283 0036 FBD4     		bmi	.L93
 498:Generated_Source\PSoC4/I2C_I2C_MASTER.c **** 
 1284              		.loc 1 498 0
 1285 0038 204B     		ldr	r3, .L100+16
 1286 003a 1C60     		str	r4, [r3]
 1287              	.L94:
 501:Generated_Source\PSoC4/I2C_I2C_MASTER.c ****                                                   I2C_INTR_MASTER_I2C_NACK     |
 1288              		.loc 1 501 0 discriminator 1
 1289 003c 1D4B     		ldr	r3, .L100+8
 1290 003e 1A68     		ldr	r2, [r3]
 1291 0040 0823     		movs	r3, #8
 1292 0042 FF33     		adds	r3, r3, #255
ARM GAS  C:\Users\gjl\AppData\Local\Temp\ccHudlr6.s 			page 44


 1293 0044 1A42     		tst	r2, r3
 1294 0046 F9D0     		beq	.L94
 510:Generated_Source\PSoC4/I2C_I2C_MASTER.c ****         {
 1295              		.loc 1 510 0
 1296 0048 1A4B     		ldr	r3, .L100+8
 1297 004a 1B68     		ldr	r3, [r3]
 1298 004c 5B07     		lsls	r3, r3, #29
 1299 004e 14D4     		bmi	.L98
 514:Generated_Source\PSoC4/I2C_I2C_MASTER.c ****         {
 1300              		.loc 1 514 0
 1301 0050 184B     		ldr	r3, .L100+8
 1302 0052 1B68     		ldr	r3, [r3]
 1303 0054 9B07     		lsls	r3, r3, #30
 1304 0056 13D4     		bmi	.L99
 518:Generated_Source\PSoC4/I2C_I2C_MASTER.c ****         {
 1305              		.loc 1 518 0
 1306 0058 164B     		ldr	r3, .L100+8
 1307 005a 1B68     		ldr	r3, [r3]
 1308 005c DB07     		lsls	r3, r3, #31
 1309 005e 05D5     		bpl	.L96
 520:Generated_Source\PSoC4/I2C_I2C_MASTER.c ****                          errStatus = I2C_I2C_MSTR_ERR_ARB_LOST;
 1310              		.loc 1 520 0
 1311 0060 1022     		movs	r2, #16
 1312 0062 124B     		ldr	r3, .L100
 1313 0064 1A70     		strb	r2, [r3]
 1314              	.LVL114:
 521:Generated_Source\PSoC4/I2C_I2C_MASTER.c ****                          resetIp   = I2C_I2C_RESET_ERROR;
 1315              		.loc 1 521 0
 1316 0066 0120     		movs	r0, #1
 522:Generated_Source\PSoC4/I2C_I2C_MASTER.c ****         }
 1317              		.loc 1 522 0
 1318 0068 0121     		movs	r1, #1
 1319 006a 0BE0     		b	.L95
 1320              	.LVL115:
 1321              	.L96:
 526:Generated_Source\PSoC4/I2C_I2C_MASTER.c ****                          errStatus = I2C_I2C_MSTR_ERR_BUS_ERR;
 1322              		.loc 1 526 0
 1323 006c 1022     		movs	r2, #16
 1324 006e 0F4B     		ldr	r3, .L100
 1325 0070 1A70     		strb	r2, [r3]
 1326              	.LVL116:
 527:Generated_Source\PSoC4/I2C_I2C_MASTER.c ****                          resetIp   = I2C_I2C_RESET_ERROR;
 1327              		.loc 1 527 0
 1328 0072 8020     		movs	r0, #128
 1329 0074 4000     		lsls	r0, r0, #1
 528:Generated_Source\PSoC4/I2C_I2C_MASTER.c ****         }
 1330              		.loc 1 528 0
 1331 0076 0121     		movs	r1, #1
 1332 0078 04E0     		b	.L95
 1333              	.LVL117:
 1334              	.L98:
 512:Generated_Source\PSoC4/I2C_I2C_MASTER.c ****         }
 1335              		.loc 1 512 0
 1336 007a 0020     		movs	r0, #0
 463:Generated_Source\PSoC4/I2C_I2C_MASTER.c ****     errStatus = I2C_I2C_MSTR_NOT_READY;
 1337              		.loc 1 463 0
 1338 007c 0021     		movs	r1, #0
ARM GAS  C:\Users\gjl\AppData\Local\Temp\ccHudlr6.s 			page 45


 1339 007e 01E0     		b	.L95
 1340              	.L99:
 516:Generated_Source\PSoC4/I2C_I2C_MASTER.c ****         }
 1341              		.loc 1 516 0
 1342 0080 0220     		movs	r0, #2
 463:Generated_Source\PSoC4/I2C_I2C_MASTER.c ****     errStatus = I2C_I2C_MSTR_NOT_READY;
 1343              		.loc 1 463 0
 1344 0082 0021     		movs	r1, #0
 1345              	.LVL118:
 1346              	.L95:
 531:Generated_Source\PSoC4/I2C_I2C_MASTER.c ****                                                     I2C_INTR_MASTER_I2C_NACK     |
 1347              		.loc 1 531 0
 1348 0084 0822     		movs	r2, #8
 1349 0086 FF32     		adds	r2, r2, #255
 1350 0088 0A4B     		ldr	r3, .L100+8
 1351 008a 1A60     		str	r2, [r3]
 537:Generated_Source\PSoC4/I2C_I2C_MASTER.c ****         {
 1352              		.loc 1 537 0
 1353 008c 0029     		cmp	r1, #0
 1354 008e 0BD0     		beq	.L90
 539:Generated_Source\PSoC4/I2C_I2C_MASTER.c ****         }
 1355              		.loc 1 539 0
 1356 0090 0B4A     		ldr	r2, .L100+20
 1357 0092 1368     		ldr	r3, [r2]
 1358 0094 5B00     		lsls	r3, r3, #1
 1359 0096 5B08     		lsrs	r3, r3, #1
 1360 0098 1360     		str	r3, [r2]
 1361 009a 1368     		ldr	r3, [r2]
 1362 009c 8021     		movs	r1, #128
 1363              	.LVL119:
 1364 009e 0906     		lsls	r1, r1, #24
 1365 00a0 0B43     		orrs	r3, r1
 1366 00a2 1360     		str	r3, [r2]
 1367 00a4 00E0     		b	.L90
 1368              	.LVL120:
 1369              	.L97:
 464:Generated_Source\PSoC4/I2C_I2C_MASTER.c **** 
 1370              		.loc 1 464 0
 1371 00a6 0420     		movs	r0, #4
 1372              	.LVL121:
 1373              	.L90:
 544:Generated_Source\PSoC4/I2C_I2C_MASTER.c **** 
 1374              		.loc 1 544 0
 1375              		@ sp needed
 1376 00a8 10BD     		pop	{r4, pc}
 1377              	.L101:
 1378 00aa C046     		.align	2
 1379              	.L100:
 1380 00ac 00000000 		.word	I2C_state
 1381 00b0 17030000 		.word	791
 1382 00b4 000F2440 		.word	1076104960
 1383 00b8 68002440 		.word	1076101224
 1384 00bc 40022440 		.word	1076101696
 1385 00c0 00002440 		.word	1076101120
 1386              		.cfi_endproc
 1387              	.LFE4:
 1388              		.size	I2C_I2CMasterSendRestart, .-I2C_I2CMasterSendRestart
ARM GAS  C:\Users\gjl\AppData\Local\Temp\ccHudlr6.s 			page 46


 1389              		.comm	I2C_mstrWrBufIndexTmp,4,4
 1390              		.comm	I2C_mstrWrBufIndex,4,4
 1391              		.comm	I2C_mstrWrBufSize,4,4
 1392              		.comm	I2C_mstrWrBufPtr,4,4
 1393              		.comm	I2C_mstrRdBufIndex,4,4
 1394              		.comm	I2C_mstrRdBufSize,4,4
 1395              		.comm	I2C_mstrRdBufPtr,4,4
 1396              		.comm	I2C_mstrControl,1,1
 1397              		.comm	I2C_mstrStatus,2,2
 1398              		.text
 1399              	.Letext0:
 1400              		.file 2 "Generated_Source\\PSoC4/cytypes.h"
 1401              		.file 3 "Generated_Source\\PSoC4\\I2C_I2C_PVT.h"
 1402              		.file 4 "Generated_Source\\PSoC4/CyLib.h"