ARM GAS  C:\Users\gjl\AppData\Local\Temp\ccHudlr6.s 			page 1


   1              		.syntax unified
   2              		.cpu cortex-m0
   3              		.fpu softvfp
   4              		.eabi_attribute 20, 1
   5              		.eabi_attribute 21, 1
   6              		.eabi_attribute 23, 3
   7              		.eabi_attribute 24, 1
   8              		.eabi_attribute 25, 1
   9              		.eabi_attribute 26, 1
  10              		.eabi_attribute 30, 1
  11              		.eabi_attribute 34, 0
  12              		.eabi_attribute 18, 4
  13              		.thumb
  14              		.syntax unified
  15              		.file	"I2C_I2C_MASTER.c"
  16              		.text
  17              	.Ltext0:
  18              		.cfi_sections	.debug_frame
  19              		.section	.text.I2C_I2CMasterSendStart,"ax",%progbits
  20              		.align	2
  21              		.global	I2C_I2CMasterSendStart
  22              		.code	16
  23              		.thumb_func
  24              		.type	I2C_I2CMasterSendStart, %function
  25              	I2C_I2CMasterSendStart:
  26              	.LFB3:
  27              		.file 1 "Generated_Source\\PSoC4\\I2C_I2C_MASTER.c"
   1:Generated_Source\PSoC4/I2C_I2C_MASTER.c **** /***************************************************************************//**
   2:Generated_Source\PSoC4/I2C_I2C_MASTER.c **** * \file I2C_I2C_MASTER.c
   3:Generated_Source\PSoC4/I2C_I2C_MASTER.c **** * \version 3.20
   4:Generated_Source\PSoC4/I2C_I2C_MASTER.c **** *
   5:Generated_Source\PSoC4/I2C_I2C_MASTER.c **** * \brief
   6:Generated_Source\PSoC4/I2C_I2C_MASTER.c **** *  This file provides the source code to the API for the SCB Component in
   7:Generated_Source\PSoC4/I2C_I2C_MASTER.c **** *  I2C Master mode.
   8:Generated_Source\PSoC4/I2C_I2C_MASTER.c **** *
   9:Generated_Source\PSoC4/I2C_I2C_MASTER.c **** * Note:
  10:Generated_Source\PSoC4/I2C_I2C_MASTER.c **** *
  11:Generated_Source\PSoC4/I2C_I2C_MASTER.c **** *******************************************************************************
  12:Generated_Source\PSoC4/I2C_I2C_MASTER.c **** * \copyright
  13:Generated_Source\PSoC4/I2C_I2C_MASTER.c **** * Copyright 2013-2016, Cypress Semiconductor Corporation.  All rights reserved.
  14:Generated_Source\PSoC4/I2C_I2C_MASTER.c **** * You may use this file only in accordance with the license, terms, conditions,
  15:Generated_Source\PSoC4/I2C_I2C_MASTER.c **** * disclaimers, and limitations in the end user license agreement accompanying
  16:Generated_Source\PSoC4/I2C_I2C_MASTER.c **** * the software package with which this file was provided.
  17:Generated_Source\PSoC4/I2C_I2C_MASTER.c **** *******************************************************************************/
  18:Generated_Source\PSoC4/I2C_I2C_MASTER.c **** 
  19:Generated_Source\PSoC4/I2C_I2C_MASTER.c **** #include "I2C_PVT.h"
  20:Generated_Source\PSoC4/I2C_I2C_MASTER.c **** #include "I2C_I2C_PVT.h"
  21:Generated_Source\PSoC4/I2C_I2C_MASTER.c **** 
  22:Generated_Source\PSoC4/I2C_I2C_MASTER.c **** #if(I2C_I2C_MASTER_CONST)
  23:Generated_Source\PSoC4/I2C_I2C_MASTER.c **** 
  24:Generated_Source\PSoC4/I2C_I2C_MASTER.c **** /***************************************
  25:Generated_Source\PSoC4/I2C_I2C_MASTER.c **** *      I2C Master Private Vars
  26:Generated_Source\PSoC4/I2C_I2C_MASTER.c **** ***************************************/
  27:Generated_Source\PSoC4/I2C_I2C_MASTER.c **** 
  28:Generated_Source\PSoC4/I2C_I2C_MASTER.c **** /* Master variables */
  29:Generated_Source\PSoC4/I2C_I2C_MASTER.c **** volatile uint16 I2C_mstrStatus;      /* Master Status byte  */
  30:Generated_Source\PSoC4/I2C_I2C_MASTER.c **** volatile uint8  I2C_mstrControl;     /* Master Control byte */
ARM GAS  C:\Users\gjl\AppData\Local\Temp\ccHudlr6.s 			page 2


  31:Generated_Source\PSoC4/I2C_I2C_MASTER.c **** 
  32:Generated_Source\PSoC4/I2C_I2C_MASTER.c **** /* Receive buffer variables */
  33:Generated_Source\PSoC4/I2C_I2C_MASTER.c **** volatile uint8 * I2C_mstrRdBufPtr;   /* Pointer to Master Read buffer */
  34:Generated_Source\PSoC4/I2C_I2C_MASTER.c **** volatile uint32  I2C_mstrRdBufSize;  /* Master Read buffer size       */
  35:Generated_Source\PSoC4/I2C_I2C_MASTER.c **** volatile uint32  I2C_mstrRdBufIndex; /* Master Read buffer Index      */
  36:Generated_Source\PSoC4/I2C_I2C_MASTER.c **** 
  37:Generated_Source\PSoC4/I2C_I2C_MASTER.c **** /* Transmit buffer variables */
  38:Generated_Source\PSoC4/I2C_I2C_MASTER.c **** volatile uint8 * I2C_mstrWrBufPtr;   /* Pointer to Master Write buffer */
  39:Generated_Source\PSoC4/I2C_I2C_MASTER.c **** volatile uint32  I2C_mstrWrBufSize;  /* Master Write buffer size       */
  40:Generated_Source\PSoC4/I2C_I2C_MASTER.c **** volatile uint32  I2C_mstrWrBufIndex; /* Master Write buffer Index      */
  41:Generated_Source\PSoC4/I2C_I2C_MASTER.c **** volatile uint32  I2C_mstrWrBufIndexTmp; /* Master Write buffer Index Tmp */
  42:Generated_Source\PSoC4/I2C_I2C_MASTER.c **** 
  43:Generated_Source\PSoC4/I2C_I2C_MASTER.c **** #if (!I2C_CY_SCBIP_V0 && \
  44:Generated_Source\PSoC4/I2C_I2C_MASTER.c ****     I2C_I2C_MULTI_MASTER_SLAVE_CONST && I2C_I2C_WAKE_ENABLE_CONST)
  45:Generated_Source\PSoC4/I2C_I2C_MASTER.c ****     static void I2C_I2CMasterDisableEcAm(void);
  46:Generated_Source\PSoC4/I2C_I2C_MASTER.c **** #endif /* (!I2C_CY_SCBIP_V0) */
  47:Generated_Source\PSoC4/I2C_I2C_MASTER.c **** 
  48:Generated_Source\PSoC4/I2C_I2C_MASTER.c **** 
  49:Generated_Source\PSoC4/I2C_I2C_MASTER.c **** /*******************************************************************************
  50:Generated_Source\PSoC4/I2C_I2C_MASTER.c **** * Function Name: I2C_I2CMasterWriteBuf
  51:Generated_Source\PSoC4/I2C_I2C_MASTER.c **** ****************************************************************************//**
  52:Generated_Source\PSoC4/I2C_I2C_MASTER.c **** *
  53:Generated_Source\PSoC4/I2C_I2C_MASTER.c **** *  Automatically writes an entire buffer of data to a slave device.
  54:Generated_Source\PSoC4/I2C_I2C_MASTER.c **** *  Once the data transfer is initiated by this function, further data transfer
  55:Generated_Source\PSoC4/I2C_I2C_MASTER.c **** *  is handled by the included ISR.
  56:Generated_Source\PSoC4/I2C_I2C_MASTER.c **** *  Enables the I2C interrupt and clears I2C_I2C_MSTAT_WR_CMPLT 
  57:Generated_Source\PSoC4/I2C_I2C_MASTER.c **** *  status.
  58:Generated_Source\PSoC4/I2C_I2C_MASTER.c **** *
  59:Generated_Source\PSoC4/I2C_I2C_MASTER.c **** *  \param slaveAddr: 7-bit slave address.
  60:Generated_Source\PSoC4/I2C_I2C_MASTER.c **** *  \param xferData: Pointer to buffer of data to be sent.
  61:Generated_Source\PSoC4/I2C_I2C_MASTER.c **** *  \param cnt: Size of buffer to send.
  62:Generated_Source\PSoC4/I2C_I2C_MASTER.c **** *  \param mode: Transfer mode defines:
  63:Generated_Source\PSoC4/I2C_I2C_MASTER.c **** *  (1) Whether a start or restart condition is generated at the beginning 
  64:Generated_Source\PSoC4/I2C_I2C_MASTER.c **** *  of the transfer, and
  65:Generated_Source\PSoC4/I2C_I2C_MASTER.c **** *  (2) Whether the transfer is completed or halted before the stop 
  66:Generated_Source\PSoC4/I2C_I2C_MASTER.c **** *  condition is generated on the bus.Transfer mode, mode constants 
  67:Generated_Source\PSoC4/I2C_I2C_MASTER.c **** *  may be ORed together.
  68:Generated_Source\PSoC4/I2C_I2C_MASTER.c **** *  - I2C_I2C_MODE_COMPLETE_XFER - Perform complete transfer 
  69:Generated_Source\PSoC4/I2C_I2C_MASTER.c **** *    from Start to Stop.
  70:Generated_Source\PSoC4/I2C_I2C_MASTER.c **** *  - I2C_I2C_MODE_REPEAT_START - Send Repeat Start instead 
  71:Generated_Source\PSoC4/I2C_I2C_MASTER.c **** *    of Start. A Stop is generated after transfer is completed unless 
  72:Generated_Source\PSoC4/I2C_I2C_MASTER.c **** *    NO_STOP is specified.
  73:Generated_Source\PSoC4/I2C_I2C_MASTER.c **** *  - I2C_I2C_MODE_NO_STOP Execute transfer without a Stop.
  74:Generated_Source\PSoC4/I2C_I2C_MASTER.c **** *    The following transfer expected to perform ReStart.
  75:Generated_Source\PSoC4/I2C_I2C_MASTER.c **** *
  76:Generated_Source\PSoC4/I2C_I2C_MASTER.c **** * \return
  77:Generated_Source\PSoC4/I2C_I2C_MASTER.c **** *  Error status.
  78:Generated_Source\PSoC4/I2C_I2C_MASTER.c **** *  - I2C_I2C_MSTR_NO_ERROR - Function complete without error. 
  79:Generated_Source\PSoC4/I2C_I2C_MASTER.c **** *    The master started the transfer.
  80:Generated_Source\PSoC4/I2C_I2C_MASTER.c **** *  - I2C_I2C_MSTR_BUS_BUSY - Bus is busy. Nothing was sent on
  81:Generated_Source\PSoC4/I2C_I2C_MASTER.c **** *    the bus. The attempt has to be retried.
  82:Generated_Source\PSoC4/I2C_I2C_MASTER.c **** *  - I2C_I2C_MSTR_NOT_READY - Master is not ready for to start
  83:Generated_Source\PSoC4/I2C_I2C_MASTER.c **** *    transfer. A master still has not completed previous transaction or a 
  84:Generated_Source\PSoC4/I2C_I2C_MASTER.c **** *    slave operation is in progress (in multi-master-slave configuration).
  85:Generated_Source\PSoC4/I2C_I2C_MASTER.c **** *    Nothing was sent on the bus. The attempt has to be retried.
  86:Generated_Source\PSoC4/I2C_I2C_MASTER.c **** *
  87:Generated_Source\PSoC4/I2C_I2C_MASTER.c **** * \globalvars
ARM GAS  C:\Users\gjl\AppData\Local\Temp\ccHudlr6.s 			page 3


  88:Generated_Source\PSoC4/I2C_I2C_MASTER.c **** *  I2C_mstrStatus  - used to store current status of I2C Master.
  89:Generated_Source\PSoC4/I2C_I2C_MASTER.c **** *  I2C_state       - used to store current state of software FSM.
  90:Generated_Source\PSoC4/I2C_I2C_MASTER.c **** *  I2C_mstrControl - used to control master end of transaction with
  91:Generated_Source\PSoC4/I2C_I2C_MASTER.c **** *  or without the Stop generation.
  92:Generated_Source\PSoC4/I2C_I2C_MASTER.c **** *  I2C_mstrWrBufPtr - used to store pointer to master write buffer.
  93:Generated_Source\PSoC4/I2C_I2C_MASTER.c **** *  I2C_mstrWrBufIndex - used to current index within master write
  94:Generated_Source\PSoC4/I2C_I2C_MASTER.c **** *  buffer.
  95:Generated_Source\PSoC4/I2C_I2C_MASTER.c **** *  I2C_mstrWrBufSize - used to store master write buffer size.
  96:Generated_Source\PSoC4/I2C_I2C_MASTER.c **** *
  97:Generated_Source\PSoC4/I2C_I2C_MASTER.c **** *******************************************************************************/
  98:Generated_Source\PSoC4/I2C_I2C_MASTER.c **** uint32 I2C_I2CMasterWriteBuf(uint32 slaveAddress, uint8 * wrData, uint32 cnt, uint32 mode)
  99:Generated_Source\PSoC4/I2C_I2C_MASTER.c **** {
 100:Generated_Source\PSoC4/I2C_I2C_MASTER.c ****     uint32 errStatus;
 101:Generated_Source\PSoC4/I2C_I2C_MASTER.c **** 
 102:Generated_Source\PSoC4/I2C_I2C_MASTER.c ****     errStatus = I2C_I2C_MSTR_NOT_READY;
 103:Generated_Source\PSoC4/I2C_I2C_MASTER.c **** 
 104:Generated_Source\PSoC4/I2C_I2C_MASTER.c ****     if(NULL != wrData)  /* Check buffer pointer */
 105:Generated_Source\PSoC4/I2C_I2C_MASTER.c ****     {
 106:Generated_Source\PSoC4/I2C_I2C_MASTER.c ****         /* Check FSM state and bus before generating Start/ReStart condition */
 107:Generated_Source\PSoC4/I2C_I2C_MASTER.c ****         if(I2C_CHECK_I2C_FSM_IDLE)
 108:Generated_Source\PSoC4/I2C_I2C_MASTER.c ****         {
 109:Generated_Source\PSoC4/I2C_I2C_MASTER.c ****             I2C_DisableInt();  /* Lock from interruption */
 110:Generated_Source\PSoC4/I2C_I2C_MASTER.c **** 
 111:Generated_Source\PSoC4/I2C_I2C_MASTER.c ****             /* Check bus state */
 112:Generated_Source\PSoC4/I2C_I2C_MASTER.c ****             errStatus = I2C_CHECK_I2C_STATUS(I2C_I2C_STATUS_BUS_BUSY) ?
 113:Generated_Source\PSoC4/I2C_I2C_MASTER.c ****                             I2C_I2C_MSTR_BUS_BUSY : I2C_I2C_MSTR_NO_ERROR;
 114:Generated_Source\PSoC4/I2C_I2C_MASTER.c ****         }
 115:Generated_Source\PSoC4/I2C_I2C_MASTER.c ****         else if(I2C_CHECK_I2C_FSM_HALT)
 116:Generated_Source\PSoC4/I2C_I2C_MASTER.c ****         {
 117:Generated_Source\PSoC4/I2C_I2C_MASTER.c ****             I2C_mstrStatus &= (uint16) ~I2C_I2C_MSTAT_XFER_HALT;
 118:Generated_Source\PSoC4/I2C_I2C_MASTER.c ****                               errStatus  = I2C_I2C_MSTR_NO_ERROR;
 119:Generated_Source\PSoC4/I2C_I2C_MASTER.c ****         }
 120:Generated_Source\PSoC4/I2C_I2C_MASTER.c ****         else
 121:Generated_Source\PSoC4/I2C_I2C_MASTER.c ****         {
 122:Generated_Source\PSoC4/I2C_I2C_MASTER.c ****             /* Unexpected FSM state: exit */
 123:Generated_Source\PSoC4/I2C_I2C_MASTER.c ****         }
 124:Generated_Source\PSoC4/I2C_I2C_MASTER.c ****     }
 125:Generated_Source\PSoC4/I2C_I2C_MASTER.c **** 
 126:Generated_Source\PSoC4/I2C_I2C_MASTER.c ****     /* Check if master is ready to start  */
 127:Generated_Source\PSoC4/I2C_I2C_MASTER.c ****     if(I2C_I2C_MSTR_NO_ERROR == errStatus) /* No error proceed */
 128:Generated_Source\PSoC4/I2C_I2C_MASTER.c ****     {
 129:Generated_Source\PSoC4/I2C_I2C_MASTER.c ****     #if (!I2C_CY_SCBIP_V0 && \
 130:Generated_Source\PSoC4/I2C_I2C_MASTER.c ****         I2C_I2C_MULTI_MASTER_SLAVE_CONST && I2C_I2C_WAKE_ENABLE_CONST)
 131:Generated_Source\PSoC4/I2C_I2C_MASTER.c ****             I2C_I2CMasterDisableEcAm();
 132:Generated_Source\PSoC4/I2C_I2C_MASTER.c ****     #endif /* (!I2C_CY_SCBIP_V0) */
 133:Generated_Source\PSoC4/I2C_I2C_MASTER.c **** 
 134:Generated_Source\PSoC4/I2C_I2C_MASTER.c ****         /* Set up write transaction */
 135:Generated_Source\PSoC4/I2C_I2C_MASTER.c ****         I2C_state = I2C_I2C_FSM_MSTR_WR_ADDR;
 136:Generated_Source\PSoC4/I2C_I2C_MASTER.c ****         I2C_mstrWrBufIndexTmp = 0u;
 137:Generated_Source\PSoC4/I2C_I2C_MASTER.c ****         I2C_mstrWrBufIndex    = 0u;
 138:Generated_Source\PSoC4/I2C_I2C_MASTER.c ****         I2C_mstrWrBufSize     = cnt;
 139:Generated_Source\PSoC4/I2C_I2C_MASTER.c ****         I2C_mstrWrBufPtr      = (volatile uint8 *) wrData;
 140:Generated_Source\PSoC4/I2C_I2C_MASTER.c ****         I2C_mstrControl       = (uint8) mode;
 141:Generated_Source\PSoC4/I2C_I2C_MASTER.c **** 
 142:Generated_Source\PSoC4/I2C_I2C_MASTER.c ****         slaveAddress = I2C_GET_I2C_8BIT_ADDRESS(slaveAddress);
 143:Generated_Source\PSoC4/I2C_I2C_MASTER.c **** 
 144:Generated_Source\PSoC4/I2C_I2C_MASTER.c ****         I2C_mstrStatus &= (uint16) ~I2C_I2C_MSTAT_WR_CMPLT;
ARM GAS  C:\Users\gjl\AppData\Local\Temp\ccHudlr6.s 			page 4


 145:Generated_Source\PSoC4/I2C_I2C_MASTER.c **** 
 146:Generated_Source\PSoC4/I2C_I2C_MASTER.c ****         I2C_ClearMasterInterruptSource(I2C_INTR_MASTER_ALL);
 147:Generated_Source\PSoC4/I2C_I2C_MASTER.c ****         I2C_ClearTxInterruptSource(I2C_INTR_TX_UNDERFLOW);
 148:Generated_Source\PSoC4/I2C_I2C_MASTER.c **** 
 149:Generated_Source\PSoC4/I2C_I2C_MASTER.c ****         /* The TX and RX FIFO have to be EMPTY */
 150:Generated_Source\PSoC4/I2C_I2C_MASTER.c **** 
 151:Generated_Source\PSoC4/I2C_I2C_MASTER.c ****         /* Enable interrupt source to catch when address is sent */
 152:Generated_Source\PSoC4/I2C_I2C_MASTER.c ****         I2C_SetTxInterruptMode(I2C_INTR_TX_UNDERFLOW);
 153:Generated_Source\PSoC4/I2C_I2C_MASTER.c **** 
 154:Generated_Source\PSoC4/I2C_I2C_MASTER.c ****         /* Generate Start or ReStart */
 155:Generated_Source\PSoC4/I2C_I2C_MASTER.c ****         if(I2C_CHECK_I2C_MODE_RESTART(mode))
 156:Generated_Source\PSoC4/I2C_I2C_MASTER.c ****         {
 157:Generated_Source\PSoC4/I2C_I2C_MASTER.c ****             I2C_I2C_MASTER_GENERATE_RESTART;
 158:Generated_Source\PSoC4/I2C_I2C_MASTER.c ****             I2C_TX_FIFO_WR_REG = slaveAddress;
 159:Generated_Source\PSoC4/I2C_I2C_MASTER.c ****         }
 160:Generated_Source\PSoC4/I2C_I2C_MASTER.c ****         else
 161:Generated_Source\PSoC4/I2C_I2C_MASTER.c ****         {
 162:Generated_Source\PSoC4/I2C_I2C_MASTER.c ****             I2C_TX_FIFO_WR_REG = slaveAddress;
 163:Generated_Source\PSoC4/I2C_I2C_MASTER.c ****             I2C_I2C_MASTER_GENERATE_START;
 164:Generated_Source\PSoC4/I2C_I2C_MASTER.c ****         }
 165:Generated_Source\PSoC4/I2C_I2C_MASTER.c ****     }
 166:Generated_Source\PSoC4/I2C_I2C_MASTER.c **** 
 167:Generated_Source\PSoC4/I2C_I2C_MASTER.c ****     I2C_EnableInt();   /* Release lock */
 168:Generated_Source\PSoC4/I2C_I2C_MASTER.c **** 
 169:Generated_Source\PSoC4/I2C_I2C_MASTER.c ****     return(errStatus);
 170:Generated_Source\PSoC4/I2C_I2C_MASTER.c **** }
 171:Generated_Source\PSoC4/I2C_I2C_MASTER.c **** 
 172:Generated_Source\PSoC4/I2C_I2C_MASTER.c **** 
 173:Generated_Source\PSoC4/I2C_I2C_MASTER.c **** /*******************************************************************************
 174:Generated_Source\PSoC4/I2C_I2C_MASTER.c **** * Function Name: I2C_I2CMasterReadBuf
 175:Generated_Source\PSoC4/I2C_I2C_MASTER.c **** ****************************************************************************//**
 176:Generated_Source\PSoC4/I2C_I2C_MASTER.c **** *
 177:Generated_Source\PSoC4/I2C_I2C_MASTER.c **** *  Automatically reads an entire buffer of data from a slave device.
 178:Generated_Source\PSoC4/I2C_I2C_MASTER.c **** *  Once the data transfer is initiated by this function, further data transfer
 179:Generated_Source\PSoC4/I2C_I2C_MASTER.c **** *  is handled by the included ISR.
 180:Generated_Source\PSoC4/I2C_I2C_MASTER.c **** *  Enables the I2C interrupt and clears I2C_I2C_MSTAT_RD_CMPLT 
 181:Generated_Source\PSoC4/I2C_I2C_MASTER.c **** *  status.
 182:Generated_Source\PSoC4/I2C_I2C_MASTER.c **** *
 183:Generated_Source\PSoC4/I2C_I2C_MASTER.c **** *  \param slaveAddr: 7-bit slave address.
 184:Generated_Source\PSoC4/I2C_I2C_MASTER.c **** *  \param xferData: Pointer to buffer of data to be sent.
 185:Generated_Source\PSoC4/I2C_I2C_MASTER.c **** *  \param cnt: Size of buffer to send.
 186:Generated_Source\PSoC4/I2C_I2C_MASTER.c **** *  \param mode: Transfer mode defines:
 187:Generated_Source\PSoC4/I2C_I2C_MASTER.c **** *  (1) Whether a start or restart condition is generated at the beginning 
 188:Generated_Source\PSoC4/I2C_I2C_MASTER.c **** *  of the transfer, and
 189:Generated_Source\PSoC4/I2C_I2C_MASTER.c **** *  (2) Whether the transfer is completed or halted before the stop 
 190:Generated_Source\PSoC4/I2C_I2C_MASTER.c **** *  condition is generated on the bus.Transfer mode, mode constants may 
 191:Generated_Source\PSoC4/I2C_I2C_MASTER.c **** *  be ORed together. See I2C_I2CMasterWriteBuf() 
 192:Generated_Source\PSoC4/I2C_I2C_MASTER.c **** *  function for constants.
 193:Generated_Source\PSoC4/I2C_I2C_MASTER.c **** *
 194:Generated_Source\PSoC4/I2C_I2C_MASTER.c **** * \return
 195:Generated_Source\PSoC4/I2C_I2C_MASTER.c **** *  Error status.See I2C_I2CMasterWriteBuf() 
 196:Generated_Source\PSoC4/I2C_I2C_MASTER.c **** *  function for constants.
 197:Generated_Source\PSoC4/I2C_I2C_MASTER.c **** *
 198:Generated_Source\PSoC4/I2C_I2C_MASTER.c **** * \globalvars
 199:Generated_Source\PSoC4/I2C_I2C_MASTER.c **** *  I2C_mstrStatus  - used to store current status of I2C Master.
 200:Generated_Source\PSoC4/I2C_I2C_MASTER.c **** *  I2C_state       - used to store current state of software FSM.
 201:Generated_Source\PSoC4/I2C_I2C_MASTER.c **** *  I2C_mstrControl - used to control master end of transaction with
ARM GAS  C:\Users\gjl\AppData\Local\Temp\ccHudlr6.s 			page 5


 202:Generated_Source\PSoC4/I2C_I2C_MASTER.c **** *  or without the Stop generation.
 203:Generated_Source\PSoC4/I2C_I2C_MASTER.c **** *  I2C_mstrRdBufPtr - used to store pointer to master read buffer.
 204:Generated_Source\PSoC4/I2C_I2C_MASTER.c **** *  I2C_mstrRdBufIndex - used to current index within master read
 205:Generated_Source\PSoC4/I2C_I2C_MASTER.c **** *  buffer.
 206:Generated_Source\PSoC4/I2C_I2C_MASTER.c **** *  I2C_mstrRdBufSize - used to store master read buffer size.
 207:Generated_Source\PSoC4/I2C_I2C_MASTER.c **** *
 208:Generated_Source\PSoC4/I2C_I2C_MASTER.c **** *******************************************************************************/
 209:Generated_Source\PSoC4/I2C_I2C_MASTER.c **** uint32 I2C_I2CMasterReadBuf(uint32 slaveAddress, uint8 * rdData, uint32 cnt, uint32 mode)
 210:Generated_Source\PSoC4/I2C_I2C_MASTER.c **** {
 211:Generated_Source\PSoC4/I2C_I2C_MASTER.c ****     uint32 errStatus;
 212:Generated_Source\PSoC4/I2C_I2C_MASTER.c **** 
 213:Generated_Source\PSoC4/I2C_I2C_MASTER.c ****     errStatus = I2C_I2C_MSTR_NOT_READY;
 214:Generated_Source\PSoC4/I2C_I2C_MASTER.c **** 
 215:Generated_Source\PSoC4/I2C_I2C_MASTER.c ****     if(NULL != rdData)
 216:Generated_Source\PSoC4/I2C_I2C_MASTER.c ****     {
 217:Generated_Source\PSoC4/I2C_I2C_MASTER.c ****         /* Check FSM state and bus before generating Start/ReStart condition */
 218:Generated_Source\PSoC4/I2C_I2C_MASTER.c ****         if(I2C_CHECK_I2C_FSM_IDLE)
 219:Generated_Source\PSoC4/I2C_I2C_MASTER.c ****         {
 220:Generated_Source\PSoC4/I2C_I2C_MASTER.c ****             I2C_DisableInt();  /* Lock from interruption */
 221:Generated_Source\PSoC4/I2C_I2C_MASTER.c **** 
 222:Generated_Source\PSoC4/I2C_I2C_MASTER.c ****             /* Check bus state */
 223:Generated_Source\PSoC4/I2C_I2C_MASTER.c ****             errStatus = I2C_CHECK_I2C_STATUS(I2C_I2C_STATUS_BUS_BUSY) ?
 224:Generated_Source\PSoC4/I2C_I2C_MASTER.c ****                             I2C_I2C_MSTR_BUS_BUSY : I2C_I2C_MSTR_NO_ERROR;
 225:Generated_Source\PSoC4/I2C_I2C_MASTER.c ****         }
 226:Generated_Source\PSoC4/I2C_I2C_MASTER.c ****         else if(I2C_CHECK_I2C_FSM_HALT)
 227:Generated_Source\PSoC4/I2C_I2C_MASTER.c ****         {
 228:Generated_Source\PSoC4/I2C_I2C_MASTER.c ****             I2C_mstrStatus &= (uint16) ~I2C_I2C_MSTAT_XFER_HALT;
 229:Generated_Source\PSoC4/I2C_I2C_MASTER.c ****                               errStatus  =  I2C_I2C_MSTR_NO_ERROR;
 230:Generated_Source\PSoC4/I2C_I2C_MASTER.c ****         }
 231:Generated_Source\PSoC4/I2C_I2C_MASTER.c ****         else
 232:Generated_Source\PSoC4/I2C_I2C_MASTER.c ****         {
 233:Generated_Source\PSoC4/I2C_I2C_MASTER.c ****             /* Unexpected FSM state: exit */
 234:Generated_Source\PSoC4/I2C_I2C_MASTER.c ****         }
 235:Generated_Source\PSoC4/I2C_I2C_MASTER.c ****     }
 236:Generated_Source\PSoC4/I2C_I2C_MASTER.c **** 
 237:Generated_Source\PSoC4/I2C_I2C_MASTER.c ****     /* Check master ready to proceed */
 238:Generated_Source\PSoC4/I2C_I2C_MASTER.c ****     if(I2C_I2C_MSTR_NO_ERROR == errStatus) /* No error proceed */
 239:Generated_Source\PSoC4/I2C_I2C_MASTER.c ****     {
 240:Generated_Source\PSoC4/I2C_I2C_MASTER.c ****         #if (!I2C_CY_SCBIP_V0 && \
 241:Generated_Source\PSoC4/I2C_I2C_MASTER.c ****         I2C_I2C_MULTI_MASTER_SLAVE_CONST && I2C_I2C_WAKE_ENABLE_CONST)
 242:Generated_Source\PSoC4/I2C_I2C_MASTER.c ****             I2C_I2CMasterDisableEcAm();
 243:Generated_Source\PSoC4/I2C_I2C_MASTER.c ****         #endif /* (!I2C_CY_SCBIP_V0) */
 244:Generated_Source\PSoC4/I2C_I2C_MASTER.c **** 
 245:Generated_Source\PSoC4/I2C_I2C_MASTER.c ****         /* Set up read transaction */
 246:Generated_Source\PSoC4/I2C_I2C_MASTER.c ****         I2C_state = I2C_I2C_FSM_MSTR_RD_ADDR;
 247:Generated_Source\PSoC4/I2C_I2C_MASTER.c ****         I2C_mstrRdBufIndex = 0u;
 248:Generated_Source\PSoC4/I2C_I2C_MASTER.c ****         I2C_mstrRdBufSize  = cnt;
 249:Generated_Source\PSoC4/I2C_I2C_MASTER.c ****         I2C_mstrRdBufPtr   = (volatile uint8 *) rdData;
 250:Generated_Source\PSoC4/I2C_I2C_MASTER.c ****         I2C_mstrControl    = (uint8) mode;
 251:Generated_Source\PSoC4/I2C_I2C_MASTER.c **** 
 252:Generated_Source\PSoC4/I2C_I2C_MASTER.c ****         slaveAddress = (I2C_GET_I2C_8BIT_ADDRESS(slaveAddress) | I2C_I2C_READ_FLAG);
 253:Generated_Source\PSoC4/I2C_I2C_MASTER.c **** 
 254:Generated_Source\PSoC4/I2C_I2C_MASTER.c ****         I2C_mstrStatus &= (uint16) ~I2C_I2C_MSTAT_RD_CMPLT;
 255:Generated_Source\PSoC4/I2C_I2C_MASTER.c **** 
 256:Generated_Source\PSoC4/I2C_I2C_MASTER.c ****         I2C_ClearMasterInterruptSource(I2C_INTR_MASTER_ALL);
 257:Generated_Source\PSoC4/I2C_I2C_MASTER.c **** 
 258:Generated_Source\PSoC4/I2C_I2C_MASTER.c ****         /* TX and RX FIFO have to be EMPTY */
ARM GAS  C:\Users\gjl\AppData\Local\Temp\ccHudlr6.s 			page 6


 259:Generated_Source\PSoC4/I2C_I2C_MASTER.c **** 
 260:Generated_Source\PSoC4/I2C_I2C_MASTER.c ****         /* Prepare reading */
 261:Generated_Source\PSoC4/I2C_I2C_MASTER.c ****         if(I2C_mstrRdBufSize < I2C_I2C_FIFO_SIZE)
 262:Generated_Source\PSoC4/I2C_I2C_MASTER.c ****         {
 263:Generated_Source\PSoC4/I2C_I2C_MASTER.c ****             /* Reading byte-by-byte */
 264:Generated_Source\PSoC4/I2C_I2C_MASTER.c ****             I2C_SetRxInterruptMode(I2C_INTR_RX_NOT_EMPTY);
 265:Generated_Source\PSoC4/I2C_I2C_MASTER.c ****         }
 266:Generated_Source\PSoC4/I2C_I2C_MASTER.c ****         else
 267:Generated_Source\PSoC4/I2C_I2C_MASTER.c ****         {
 268:Generated_Source\PSoC4/I2C_I2C_MASTER.c ****             /* Receive RX FIFO chunks */
 269:Generated_Source\PSoC4/I2C_I2C_MASTER.c ****             I2C_ENABLE_MASTER_AUTO_DATA_ACK;
 270:Generated_Source\PSoC4/I2C_I2C_MASTER.c ****             I2C_SetRxInterruptMode(I2C_INTR_RX_FULL);
 271:Generated_Source\PSoC4/I2C_I2C_MASTER.c ****         }
 272:Generated_Source\PSoC4/I2C_I2C_MASTER.c **** 
 273:Generated_Source\PSoC4/I2C_I2C_MASTER.c ****         /* Generate Start or ReStart */
 274:Generated_Source\PSoC4/I2C_I2C_MASTER.c ****         if(I2C_CHECK_I2C_MODE_RESTART(mode))
 275:Generated_Source\PSoC4/I2C_I2C_MASTER.c ****         {
 276:Generated_Source\PSoC4/I2C_I2C_MASTER.c ****             I2C_I2C_MASTER_GENERATE_RESTART;
 277:Generated_Source\PSoC4/I2C_I2C_MASTER.c ****             I2C_TX_FIFO_WR_REG = (slaveAddress);
 278:Generated_Source\PSoC4/I2C_I2C_MASTER.c ****         }
 279:Generated_Source\PSoC4/I2C_I2C_MASTER.c ****         else
 280:Generated_Source\PSoC4/I2C_I2C_MASTER.c ****         {
 281:Generated_Source\PSoC4/I2C_I2C_MASTER.c ****             I2C_TX_FIFO_WR_REG = (slaveAddress);
 282:Generated_Source\PSoC4/I2C_I2C_MASTER.c ****             I2C_I2C_MASTER_GENERATE_START;
 283:Generated_Source\PSoC4/I2C_I2C_MASTER.c ****         }
 284:Generated_Source\PSoC4/I2C_I2C_MASTER.c ****     }
 285:Generated_Source\PSoC4/I2C_I2C_MASTER.c **** 
 286:Generated_Source\PSoC4/I2C_I2C_MASTER.c ****     I2C_EnableInt();   /* Release lock */
 287:Generated_Source\PSoC4/I2C_I2C_MASTER.c **** 
 288:Generated_Source\PSoC4/I2C_I2C_MASTER.c ****     return(errStatus);
 289:Generated_Source\PSoC4/I2C_I2C_MASTER.c **** }
 290:Generated_Source\PSoC4/I2C_I2C_MASTER.c **** 
 291:Generated_Source\PSoC4/I2C_I2C_MASTER.c **** 
 292:Generated_Source\PSoC4/I2C_I2C_MASTER.c **** /*******************************************************************************
 293:Generated_Source\PSoC4/I2C_I2C_MASTER.c **** * Function Name: I2C_I2CMasterSendStart
 294:Generated_Source\PSoC4/I2C_I2C_MASTER.c **** ****************************************************************************//**
 295:Generated_Source\PSoC4/I2C_I2C_MASTER.c **** *
 296:Generated_Source\PSoC4/I2C_I2C_MASTER.c **** *  Generates Start condition and sends slave address with read/write bit.
 297:Generated_Source\PSoC4/I2C_I2C_MASTER.c **** *  Disables the I2C interrupt.
 298:Generated_Source\PSoC4/I2C_I2C_MASTER.c **** *  This function is blocking and does not return until start condition and
 299:Generated_Source\PSoC4/I2C_I2C_MASTER.c **** *  address byte are sent and ACK/NACK response is received or errors occurred.
 300:Generated_Source\PSoC4/I2C_I2C_MASTER.c **** *
 301:Generated_Source\PSoC4/I2C_I2C_MASTER.c **** * \param slaveAddress: Right justified 7-bit Slave address (valid range 
 302:Generated_Source\PSoC4/I2C_I2C_MASTER.c **** *  8 to 120).
 303:Generated_Source\PSoC4/I2C_I2C_MASTER.c **** * \param bitRnW: Direction of the following transfer. 
 304:Generated_Source\PSoC4/I2C_I2C_MASTER.c **** *  It is defined by read/write bit within address byte.
 305:Generated_Source\PSoC4/I2C_I2C_MASTER.c **** *  - I2C_I2C_WRITE_XFER_MODE - Set write direction for the 
 306:Generated_Source\PSoC4/I2C_I2C_MASTER.c **** *    following transfer.
 307:Generated_Source\PSoC4/I2C_I2C_MASTER.c **** *  - I2C_I2C_READ_XFER_MODE - Set read direction for the 
 308:Generated_Source\PSoC4/I2C_I2C_MASTER.c **** *    following transfer.
 309:Generated_Source\PSoC4/I2C_I2C_MASTER.c **** *
 310:Generated_Source\PSoC4/I2C_I2C_MASTER.c **** * \return
 311:Generated_Source\PSoC4/I2C_I2C_MASTER.c **** *  Error status.
 312:Generated_Source\PSoC4/I2C_I2C_MASTER.c **** *   - I2C_I2C_MSTR_NO_ERROR - Function complete without error.
 313:Generated_Source\PSoC4/I2C_I2C_MASTER.c **** *   - I2C_I2C_MSTR_BUS_BUSY - Bus is busy. 
 314:Generated_Source\PSoC4/I2C_I2C_MASTER.c **** *     Nothing was sent on the bus. The attempt has to be retried.
 315:Generated_Source\PSoC4/I2C_I2C_MASTER.c **** *   - I2C_I2C_MSTR_NOT_READY - Master is not ready for to 
ARM GAS  C:\Users\gjl\AppData\Local\Temp\ccHudlr6.s 			page 7


 316:Generated_Source\PSoC4/I2C_I2C_MASTER.c **** *     start transfer.
 317:Generated_Source\PSoC4/I2C_I2C_MASTER.c **** *     A master still has not completed previous transaction or a slave 
 318:Generated_Source\PSoC4/I2C_I2C_MASTER.c **** *     operation is in progress (in multi-master-slave configuration).
 319:Generated_Source\PSoC4/I2C_I2C_MASTER.c **** *     Nothing was sent on the bus. The attempt has to be retried.
 320:Generated_Source\PSoC4/I2C_I2C_MASTER.c **** *   - I2C_I2C_MSTR_ERR_LB_NAK - Error condition: Last byte was 
 321:Generated_Source\PSoC4/I2C_I2C_MASTER.c **** *     NAKed.
 322:Generated_Source\PSoC4/I2C_I2C_MASTER.c **** *   - I2C_I2C_MSTR_ERR_ARB_LOST - Error condition: Master lost 
 323:Generated_Source\PSoC4/I2C_I2C_MASTER.c **** *     arbitration.
 324:Generated_Source\PSoC4/I2C_I2C_MASTER.c **** *   - I2C_I2C_MSTR_ERR_BUS_ERR - Error condition: Master 
 325:Generated_Source\PSoC4/I2C_I2C_MASTER.c **** *     encountered a bus error. Bus error is misplaced start or stop detection.
 326:Generated_Source\PSoC4/I2C_I2C_MASTER.c **** *   - I2C_I2C_MSTR_ERR_ABORT_START - Error condition: The start 
 327:Generated_Source\PSoC4/I2C_I2C_MASTER.c **** *     condition generation was aborted due to beginning of Slave operation. 
 328:Generated_Source\PSoC4/I2C_I2C_MASTER.c **** *     This error condition is only applicable for Multi-Master-Slave mode.
 329:Generated_Source\PSoC4/I2C_I2C_MASTER.c **** *
 330:Generated_Source\PSoC4/I2C_I2C_MASTER.c **** * \globalvars
 331:Generated_Source\PSoC4/I2C_I2C_MASTER.c **** *  I2C_state - used to store current state of software FSM.
 332:Generated_Source\PSoC4/I2C_I2C_MASTER.c **** *
 333:Generated_Source\PSoC4/I2C_I2C_MASTER.c **** *******************************************************************************/
 334:Generated_Source\PSoC4/I2C_I2C_MASTER.c **** uint32 I2C_I2CMasterSendStart(uint32 slaveAddress, uint32 bitRnW)
 335:Generated_Source\PSoC4/I2C_I2C_MASTER.c **** {
  28              		.loc 1 335 0
  29              		.cfi_startproc
  30              		@ args = 0, pretend = 0, frame = 0
  31              		@ frame_needed = 0, uses_anonymous_args = 0
  32              	.LVL0:
  33 0000 70B5     		push	{r4, r5, r6, lr}
  34              		.cfi_def_cfa_offset 16
  35              		.cfi_offset 4, -16
  36              		.cfi_offset 5, -12
  37              		.cfi_offset 6, -8
  38              		.cfi_offset 14, -4
  39 0002 0400     		movs	r4, r0
  40 0004 0D00     		movs	r5, r1
  41              	.LVL1:
 336:Generated_Source\PSoC4/I2C_I2C_MASTER.c ****     uint32  resetIp;
 337:Generated_Source\PSoC4/I2C_I2C_MASTER.c ****     uint32 errStatus;
 338:Generated_Source\PSoC4/I2C_I2C_MASTER.c **** 
 339:Generated_Source\PSoC4/I2C_I2C_MASTER.c ****     resetIp   = 0u;
 340:Generated_Source\PSoC4/I2C_I2C_MASTER.c ****     errStatus = I2C_I2C_MSTR_NOT_READY;
 341:Generated_Source\PSoC4/I2C_I2C_MASTER.c **** 
 342:Generated_Source\PSoC4/I2C_I2C_MASTER.c ****     /* Check FSM state before generating Start condition */
 343:Generated_Source\PSoC4/I2C_I2C_MASTER.c ****     if(I2C_CHECK_I2C_FSM_IDLE)
  42              		.loc 1 343 0
  43 0006 2D4B     		ldr	r3, .L12
  44 0008 1B78     		ldrb	r3, [r3]
  45 000a 102B     		cmp	r3, #16
  46 000c 51D1     		bne	.L8
 344:Generated_Source\PSoC4/I2C_I2C_MASTER.c ****     {
 345:Generated_Source\PSoC4/I2C_I2C_MASTER.c ****         /* If bus is free, generate Start condition */
 346:Generated_Source\PSoC4/I2C_I2C_MASTER.c ****         if(I2C_CHECK_I2C_STATUS(I2C_I2C_STATUS_BUS_BUSY))
  47              		.loc 1 346 0
  48 000e 2C4B     		ldr	r3, .L12+4
  49 0010 1B68     		ldr	r3, [r3]
  50 0012 DB07     		lsls	r3, r3, #31
  51 0014 4FD4     		bmi	.L9
 347:Generated_Source\PSoC4/I2C_I2C_MASTER.c ****         {
 348:Generated_Source\PSoC4/I2C_I2C_MASTER.c ****             errStatus = I2C_I2C_MSTR_BUS_BUSY;
ARM GAS  C:\Users\gjl\AppData\Local\Temp\ccHudlr6.s 			page 8


 349:Generated_Source\PSoC4/I2C_I2C_MASTER.c ****         }
 350:Generated_Source\PSoC4/I2C_I2C_MASTER.c ****         else
 351:Generated_Source\PSoC4/I2C_I2C_MASTER.c ****         {
 352:Generated_Source\PSoC4/I2C_I2C_MASTER.c ****             I2C_DisableInt();  /* Lock from interruption */
  52              		.loc 1 352 0
  53 0016 0820     		movs	r0, #8
  54              	.LVL2:
  55 0018 FFF7FEFF 		bl	CyIntDisable
  56              	.LVL3:
 353:Generated_Source\PSoC4/I2C_I2C_MASTER.c **** 
 354:Generated_Source\PSoC4/I2C_I2C_MASTER.c ****         #if (!I2C_CY_SCBIP_V0 && \
 355:Generated_Source\PSoC4/I2C_I2C_MASTER.c ****             I2C_I2C_MULTI_MASTER_SLAVE_CONST && I2C_I2C_WAKE_ENABLE_CONST)
 356:Generated_Source\PSoC4/I2C_I2C_MASTER.c ****             I2C_I2CMasterDisableEcAm();
 357:Generated_Source\PSoC4/I2C_I2C_MASTER.c ****         #endif /* (!I2C_CY_SCBIP_V0) */
 358:Generated_Source\PSoC4/I2C_I2C_MASTER.c **** 
 359:Generated_Source\PSoC4/I2C_I2C_MASTER.c ****             slaveAddress = I2C_GET_I2C_8BIT_ADDRESS(slaveAddress);
  57              		.loc 1 359 0
  58 001c 6400     		lsls	r4, r4, #1
  59              	.LVL4:
  60 001e FF23     		movs	r3, #255
  61 0020 1C40     		ands	r4, r3
  62              	.LVL5:
 360:Generated_Source\PSoC4/I2C_I2C_MASTER.c **** 
 361:Generated_Source\PSoC4/I2C_I2C_MASTER.c ****             if(0u == bitRnW) /* Write direction */
  63              		.loc 1 361 0
  64 0022 002D     		cmp	r5, #0
  65 0024 03D1     		bne	.L3
 362:Generated_Source\PSoC4/I2C_I2C_MASTER.c ****             {
 363:Generated_Source\PSoC4/I2C_I2C_MASTER.c ****                 I2C_state = I2C_I2C_FSM_MSTR_WR_DATA;
  66              		.loc 1 363 0
  67 0026 2422     		movs	r2, #36
  68 0028 244B     		ldr	r3, .L12
  69 002a 1A70     		strb	r2, [r3]
  70 002c 04E0     		b	.L4
  71              	.L3:
 364:Generated_Source\PSoC4/I2C_I2C_MASTER.c ****             }
 365:Generated_Source\PSoC4/I2C_I2C_MASTER.c ****             else /* Read direction */
 366:Generated_Source\PSoC4/I2C_I2C_MASTER.c ****             {
 367:Generated_Source\PSoC4/I2C_I2C_MASTER.c ****                 I2C_state = I2C_I2C_FSM_MSTR_RD_DATA;
  72              		.loc 1 367 0
  73 002e 2522     		movs	r2, #37
  74 0030 224B     		ldr	r3, .L12
  75 0032 1A70     		strb	r2, [r3]
 368:Generated_Source\PSoC4/I2C_I2C_MASTER.c ****                          slaveAddress |= I2C_I2C_READ_FLAG;
  76              		.loc 1 368 0
  77 0034 0123     		movs	r3, #1
  78 0036 1C43     		orrs	r4, r3
  79              	.LVL6:
  80              	.L4:
 369:Generated_Source\PSoC4/I2C_I2C_MASTER.c ****             }
 370:Generated_Source\PSoC4/I2C_I2C_MASTER.c **** 
 371:Generated_Source\PSoC4/I2C_I2C_MASTER.c ****             /* TX and RX FIFO have to be EMPTY */
 372:Generated_Source\PSoC4/I2C_I2C_MASTER.c **** 
 373:Generated_Source\PSoC4/I2C_I2C_MASTER.c ****             I2C_TX_FIFO_WR_REG = slaveAddress; /* Put address in TX FIFO */
  81              		.loc 1 373 0
  82 0038 224B     		ldr	r3, .L12+8
  83 003a 1C60     		str	r4, [r3]
ARM GAS  C:\Users\gjl\AppData\Local\Temp\ccHudlr6.s 			page 9


 374:Generated_Source\PSoC4/I2C_I2C_MASTER.c ****             I2C_ClearMasterInterruptSource(I2C_INTR_MASTER_ALL);
  84              		.loc 1 374 0
  85 003c 224A     		ldr	r2, .L12+12
  86 003e 234B     		ldr	r3, .L12+16
  87 0040 1A60     		str	r2, [r3]
 375:Generated_Source\PSoC4/I2C_I2C_MASTER.c **** 
 376:Generated_Source\PSoC4/I2C_I2C_MASTER.c ****             I2C_I2C_MASTER_GENERATE_START;
  88              		.loc 1 376 0
  89 0042 0222     		movs	r2, #2
  90 0044 224B     		ldr	r3, .L12+20
  91 0046 1A60     		str	r2, [r3]
  92              	.L5:
 377:Generated_Source\PSoC4/I2C_I2C_MASTER.c **** 
 378:Generated_Source\PSoC4/I2C_I2C_MASTER.c **** 
 379:Generated_Source\PSoC4/I2C_I2C_MASTER.c ****             while(!I2C_CHECK_INTR_MASTER(I2C_INTR_MASTER_I2C_ACK      |
  93              		.loc 1 379 0 discriminator 1
  94 0048 204B     		ldr	r3, .L12+16
  95 004a 1A68     		ldr	r2, [r3]
  96 004c 0823     		movs	r3, #8
  97 004e FF33     		adds	r3, r3, #255
  98 0050 1A42     		tst	r2, r3
  99 0052 F9D0     		beq	.L5
 380:Generated_Source\PSoC4/I2C_I2C_MASTER.c ****                                                       I2C_INTR_MASTER_I2C_NACK     |
 381:Generated_Source\PSoC4/I2C_I2C_MASTER.c ****                                                       I2C_INTR_MASTER_I2C_ARB_LOST |
 382:Generated_Source\PSoC4/I2C_I2C_MASTER.c ****                                                       I2C_INTR_MASTER_I2C_BUS_ERROR))
 383:Generated_Source\PSoC4/I2C_I2C_MASTER.c ****             {
 384:Generated_Source\PSoC4/I2C_I2C_MASTER.c ****                 /*
 385:Generated_Source\PSoC4/I2C_I2C_MASTER.c ****                 * Write: wait until address has been transferred
 386:Generated_Source\PSoC4/I2C_I2C_MASTER.c ****                 * Read : wait until address has been transferred, data byte is going to RX FIFO as 
 387:Generated_Source\PSoC4/I2C_I2C_MASTER.c ****                 */
 388:Generated_Source\PSoC4/I2C_I2C_MASTER.c ****             }
 389:Generated_Source\PSoC4/I2C_I2C_MASTER.c **** 
 390:Generated_Source\PSoC4/I2C_I2C_MASTER.c ****             /* Check the results of the address phase */
 391:Generated_Source\PSoC4/I2C_I2C_MASTER.c ****             if(I2C_CHECK_INTR_MASTER(I2C_INTR_MASTER_I2C_ACK))
 100              		.loc 1 391 0
 101 0054 1D4B     		ldr	r3, .L12+16
 102 0056 1B68     		ldr	r3, [r3]
 103 0058 5B07     		lsls	r3, r3, #29
 104 005a 14D4     		bmi	.L10
 392:Generated_Source\PSoC4/I2C_I2C_MASTER.c ****             {
 393:Generated_Source\PSoC4/I2C_I2C_MASTER.c ****                 errStatus = I2C_I2C_MSTR_NO_ERROR;
 394:Generated_Source\PSoC4/I2C_I2C_MASTER.c ****             }
 395:Generated_Source\PSoC4/I2C_I2C_MASTER.c ****             else if(I2C_CHECK_INTR_MASTER(I2C_INTR_MASTER_I2C_NACK))
 105              		.loc 1 395 0
 106 005c 1B4B     		ldr	r3, .L12+16
 107 005e 1B68     		ldr	r3, [r3]
 108 0060 9B07     		lsls	r3, r3, #30
 109 0062 13D4     		bmi	.L11
 396:Generated_Source\PSoC4/I2C_I2C_MASTER.c ****             {
 397:Generated_Source\PSoC4/I2C_I2C_MASTER.c ****                 errStatus = I2C_I2C_MSTR_ERR_LB_NAK;
 398:Generated_Source\PSoC4/I2C_I2C_MASTER.c ****             }
 399:Generated_Source\PSoC4/I2C_I2C_MASTER.c ****             else if(I2C_CHECK_INTR_MASTER(I2C_INTR_MASTER_I2C_ARB_LOST))
 110              		.loc 1 399 0
 111 0064 194B     		ldr	r3, .L12+16
 112 0066 1B68     		ldr	r3, [r3]
 113 0068 DB07     		lsls	r3, r3, #31
 114 006a 05D5     		bpl	.L7
ARM GAS  C:\Users\gjl\AppData\Local\Temp\ccHudlr6.s 			page 10


 400:Generated_Source\PSoC4/I2C_I2C_MASTER.c ****             {
 401:Generated_Source\PSoC4/I2C_I2C_MASTER.c ****                 I2C_state = I2C_I2C_FSM_IDLE;
 115              		.loc 1 401 0
 116 006c 1022     		movs	r2, #16
 117 006e 134B     		ldr	r3, .L12
 118 0070 1A70     		strb	r2, [r3]
 119              	.LVL7:
 402:Generated_Source\PSoC4/I2C_I2C_MASTER.c ****                              errStatus = I2C_I2C_MSTR_ERR_ARB_LOST;
 120              		.loc 1 402 0
 121 0072 0120     		movs	r0, #1
 403:Generated_Source\PSoC4/I2C_I2C_MASTER.c ****                              resetIp   = I2C_I2C_RESET_ERROR;
 122              		.loc 1 403 0
 123 0074 0121     		movs	r1, #1
 124 0076 0BE0     		b	.L6
 125              	.LVL8:
 126              	.L7:
 404:Generated_Source\PSoC4/I2C_I2C_MASTER.c ****             }
 405:Generated_Source\PSoC4/I2C_I2C_MASTER.c ****             else /* I2C_INTR_MASTER_I2C_BUS_ERROR set is else condition */
 406:Generated_Source\PSoC4/I2C_I2C_MASTER.c ****             {
 407:Generated_Source\PSoC4/I2C_I2C_MASTER.c ****                 I2C_state = I2C_I2C_FSM_IDLE;
 127              		.loc 1 407 0
 128 0078 1022     		movs	r2, #16
 129 007a 104B     		ldr	r3, .L12
 130 007c 1A70     		strb	r2, [r3]
 131              	.LVL9:
 408:Generated_Source\PSoC4/I2C_I2C_MASTER.c ****                              errStatus = I2C_I2C_MSTR_ERR_BUS_ERR;
 132              		.loc 1 408 0
 133 007e 8020     		movs	r0, #128
 134 0080 4000     		lsls	r0, r0, #1
 409:Generated_Source\PSoC4/I2C_I2C_MASTER.c ****                              resetIp   = I2C_I2C_RESET_ERROR;
 135              		.loc 1 409 0
 136 0082 0121     		movs	r1, #1
 137 0084 04E0     		b	.L6
 138              	.LVL10:
 139              	.L10:
 393:Generated_Source\PSoC4/I2C_I2C_MASTER.c ****             }
 140              		.loc 1 393 0
 141 0086 0020     		movs	r0, #0
 339:Generated_Source\PSoC4/I2C_I2C_MASTER.c ****     errStatus = I2C_I2C_MSTR_NOT_READY;
 142              		.loc 1 339 0
 143 0088 0021     		movs	r1, #0
 144 008a 01E0     		b	.L6
 145              	.L11:
 397:Generated_Source\PSoC4/I2C_I2C_MASTER.c ****             }
 146              		.loc 1 397 0
 147 008c 0220     		movs	r0, #2
 339:Generated_Source\PSoC4/I2C_I2C_MASTER.c ****     errStatus = I2C_I2C_MSTR_NOT_READY;
 148              		.loc 1 339 0
 149 008e 0021     		movs	r1, #0
 150              	.LVL11:
 151              	.L6:
 410:Generated_Source\PSoC4/I2C_I2C_MASTER.c ****             }
 411:Generated_Source\PSoC4/I2C_I2C_MASTER.c **** 
 412:Generated_Source\PSoC4/I2C_I2C_MASTER.c ****             I2C_ClearMasterInterruptSource(I2C_INTR_MASTER_I2C_ACK      |
 152              		.loc 1 412 0
 153 0090 0822     		movs	r2, #8
 154 0092 FF32     		adds	r2, r2, #255
ARM GAS  C:\Users\gjl\AppData\Local\Temp\ccHudlr6.s 			page 11


 155 0094 0D4B     		ldr	r3, .L12+16
 156 0096 1A60     		str	r2, [r3]
 413:Generated_Source\PSoC4/I2C_I2C_MASTER.c ****                                                         I2C_INTR_MASTER_I2C_NACK     |
 414:Generated_Source\PSoC4/I2C_I2C_MASTER.c ****                                                         I2C_INTR_MASTER_I2C_ARB_LOST |
 415:Generated_Source\PSoC4/I2C_I2C_MASTER.c ****                                                         I2C_INTR_MASTER_I2C_BUS_ERROR);
 416:Generated_Source\PSoC4/I2C_I2C_MASTER.c **** 
 417:Generated_Source\PSoC4/I2C_I2C_MASTER.c ****             /* Reset block in case of: LOST_ARB or BUS_ERR */
 418:Generated_Source\PSoC4/I2C_I2C_MASTER.c ****             if(0u != resetIp)
 157              		.loc 1 418 0
 158 0098 0029     		cmp	r1, #0
 159 009a 0DD0     		beq	.L2
 419:Generated_Source\PSoC4/I2C_I2C_MASTER.c ****             {
 420:Generated_Source\PSoC4/I2C_I2C_MASTER.c ****                 I2C_SCB_SW_RESET;
 160              		.loc 1 420 0
 161 009c 0D4A     		ldr	r2, .L12+24
 162 009e 1368     		ldr	r3, [r2]
 163 00a0 5B00     		lsls	r3, r3, #1
 164 00a2 5B08     		lsrs	r3, r3, #1
 165 00a4 1360     		str	r3, [r2]
 166 00a6 1368     		ldr	r3, [r2]
 167 00a8 8021     		movs	r1, #128
 168              	.LVL12:
 169 00aa 0906     		lsls	r1, r1, #24
 170 00ac 0B43     		orrs	r3, r1
 171 00ae 1360     		str	r3, [r2]
 172 00b0 02E0     		b	.L2
 173              	.LVL13:
 174              	.L8:
 340:Generated_Source\PSoC4/I2C_I2C_MASTER.c **** 
 175              		.loc 1 340 0
 176 00b2 0420     		movs	r0, #4
 177              	.LVL14:
 178 00b4 00E0     		b	.L2
 179              	.LVL15:
 180              	.L9:
 348:Generated_Source\PSoC4/I2C_I2C_MASTER.c ****         }
 181              		.loc 1 348 0
 182 00b6 0820     		movs	r0, #8
 183              	.LVL16:
 184              	.L2:
 421:Generated_Source\PSoC4/I2C_I2C_MASTER.c ****             }
 422:Generated_Source\PSoC4/I2C_I2C_MASTER.c ****         }
 423:Generated_Source\PSoC4/I2C_I2C_MASTER.c ****     }
 424:Generated_Source\PSoC4/I2C_I2C_MASTER.c **** 
 425:Generated_Source\PSoC4/I2C_I2C_MASTER.c ****     return(errStatus);
 426:Generated_Source\PSoC4/I2C_I2C_MASTER.c **** }
 185              		.loc 1 426 0
 186              		@ sp needed
 187              	.LVL17:
 188              	.LVL18:
 189 00b8 70BD     		pop	{r4, r5, r6, pc}
 190              	.L13:
 191 00ba C046     		.align	2
 192              	.L12:
 193 00bc 00000000 		.word	I2C_state
 194 00c0 64002440 		.word	1076101220
 195 00c4 40022440 		.word	1076101696
ARM GAS  C:\Users\gjl\AppData\Local\Temp\ccHudlr6.s 			page 12


 196 00c8 17030000 		.word	791
 197 00cc 000F2440 		.word	1076104960
 198 00d0 68002440 		.word	1076101224
 199 00d4 00002440 		.word	1076101120
 200              		.cfi_endproc
 201              	.LFE3:
 202              		.size	I2C_I2CMasterSendStart, .-I2C_I2CMasterSendStart
 203              		.section	.text.I2C_I2CMasterSendStop,"ax",%progbits
 204              		.align	2
 205              		.global	I2C_I2CMasterSendStop
 206              		.code	16
 207              		.thumb_func
 208              		.type	I2C_I2CMasterSendStop, %function
 209              	I2C_I2CMasterSendStop:
 210              	.LFB5:
 427:Generated_Source\PSoC4/I2C_I2C_MASTER.c **** 
 428:Generated_Source\PSoC4/I2C_I2C_MASTER.c **** 
 429:Generated_Source\PSoC4/I2C_I2C_MASTER.c **** /*******************************************************************************
 430:Generated_Source\PSoC4/I2C_I2C_MASTER.c **** * Function Name: I2C_I2CMasterSendRestart
 431:Generated_Source\PSoC4/I2C_I2C_MASTER.c **** ****************************************************************************//**
 432:Generated_Source\PSoC4/I2C_I2C_MASTER.c **** *
 433:Generated_Source\PSoC4/I2C_I2C_MASTER.c **** *  Generates Restart condition and sends slave address with read/write bit.
 434:Generated_Source\PSoC4/I2C_I2C_MASTER.c **** *  This function is blocking and does not return until start condition and
 435:Generated_Source\PSoC4/I2C_I2C_MASTER.c **** *  address are sent and ACK/NACK response is received or errors occurred.
 436:Generated_Source\PSoC4/I2C_I2C_MASTER.c **** *
 437:Generated_Source\PSoC4/I2C_I2C_MASTER.c **** * \param slaveAddress: Right justified 7-bit Slave address (valid range 
 438:Generated_Source\PSoC4/I2C_I2C_MASTER.c **** *   8 to 120).
 439:Generated_Source\PSoC4/I2C_I2C_MASTER.c **** * \param bitRnW: Direction of the following transfer. It is defined by 
 440:Generated_Source\PSoC4/I2C_I2C_MASTER.c **** *  read/write bit within address byte. 
 441:Generated_Source\PSoC4/I2C_I2C_MASTER.c **** *  See I2C_I2CMasterSendStart() function for constants.
 442:Generated_Source\PSoC4/I2C_I2C_MASTER.c **** *
 443:Generated_Source\PSoC4/I2C_I2C_MASTER.c **** * \return
 444:Generated_Source\PSoC4/I2C_I2C_MASTER.c **** *  Error status. 
 445:Generated_Source\PSoC4/I2C_I2C_MASTER.c **** *  See I2C_I2CMasterSendStart() function for constants.
 446:Generated_Source\PSoC4/I2C_I2C_MASTER.c **** *
 447:Generated_Source\PSoC4/I2C_I2C_MASTER.c **** * \sideeffect
 448:Generated_Source\PSoC4/I2C_I2C_MASTER.c **** *  A valid Start or ReStart condition must be generated before calling 
 449:Generated_Source\PSoC4/I2C_I2C_MASTER.c **** *  this function. This function does nothing if Start or ReStart conditions 
 450:Generated_Source\PSoC4/I2C_I2C_MASTER.c **** *  failed before this function was called.
 451:Generated_Source\PSoC4/I2C_I2C_MASTER.c **** *  For read transaction, at least one byte has to be read before ReStart 
 452:Generated_Source\PSoC4/I2C_I2C_MASTER.c **** *  generation.
 453:Generated_Source\PSoC4/I2C_I2C_MASTER.c **** *
 454:Generated_Source\PSoC4/I2C_I2C_MASTER.c **** * \globalvars
 455:Generated_Source\PSoC4/I2C_I2C_MASTER.c **** *  I2C_state - used to store current state of software FSM.
 456:Generated_Source\PSoC4/I2C_I2C_MASTER.c **** *
 457:Generated_Source\PSoC4/I2C_I2C_MASTER.c **** *******************************************************************************/
 458:Generated_Source\PSoC4/I2C_I2C_MASTER.c **** uint32 I2C_I2CMasterSendRestart(uint32 slaveAddress, uint32 bitRnW)
 459:Generated_Source\PSoC4/I2C_I2C_MASTER.c **** {
 460:Generated_Source\PSoC4/I2C_I2C_MASTER.c ****     uint32 resetIp;
 461:Generated_Source\PSoC4/I2C_I2C_MASTER.c ****     uint32 errStatus;
 462:Generated_Source\PSoC4/I2C_I2C_MASTER.c **** 
 463:Generated_Source\PSoC4/I2C_I2C_MASTER.c ****     resetIp   = 0u;
 464:Generated_Source\PSoC4/I2C_I2C_MASTER.c ****     errStatus = I2C_I2C_MSTR_NOT_READY;
 465:Generated_Source\PSoC4/I2C_I2C_MASTER.c **** 
 466:Generated_Source\PSoC4/I2C_I2C_MASTER.c ****     /* Check FSM state before generating ReStart condition */
 467:Generated_Source\PSoC4/I2C_I2C_MASTER.c ****     if(I2C_CHECK_I2C_MASTER_ACTIVE)
 468:Generated_Source\PSoC4/I2C_I2C_MASTER.c ****     {
ARM GAS  C:\Users\gjl\AppData\Local\Temp\ccHudlr6.s 			page 13


 469:Generated_Source\PSoC4/I2C_I2C_MASTER.c ****         slaveAddress = I2C_GET_I2C_8BIT_ADDRESS(slaveAddress);
 470:Generated_Source\PSoC4/I2C_I2C_MASTER.c **** 
 471:Generated_Source\PSoC4/I2C_I2C_MASTER.c ****         if(0u == bitRnW) /* Write direction */
 472:Generated_Source\PSoC4/I2C_I2C_MASTER.c ****         {
 473:Generated_Source\PSoC4/I2C_I2C_MASTER.c ****             I2C_state = I2C_I2C_FSM_MSTR_WR_DATA;
 474:Generated_Source\PSoC4/I2C_I2C_MASTER.c ****         }
 475:Generated_Source\PSoC4/I2C_I2C_MASTER.c ****         else  /* Read direction */
 476:Generated_Source\PSoC4/I2C_I2C_MASTER.c ****         {
 477:Generated_Source\PSoC4/I2C_I2C_MASTER.c ****             I2C_state  = I2C_I2C_FSM_MSTR_RD_DATA;
 478:Generated_Source\PSoC4/I2C_I2C_MASTER.c ****                       slaveAddress |= I2C_I2C_READ_FLAG;
 479:Generated_Source\PSoC4/I2C_I2C_MASTER.c ****         }
 480:Generated_Source\PSoC4/I2C_I2C_MASTER.c **** 
 481:Generated_Source\PSoC4/I2C_I2C_MASTER.c ****         /* TX and RX FIFO have to be EMPTY */
 482:Generated_Source\PSoC4/I2C_I2C_MASTER.c **** 
 483:Generated_Source\PSoC4/I2C_I2C_MASTER.c ****         /* Clean-up interrupt status */
 484:Generated_Source\PSoC4/I2C_I2C_MASTER.c ****         I2C_ClearMasterInterruptSource(I2C_INTR_MASTER_ALL);
 485:Generated_Source\PSoC4/I2C_I2C_MASTER.c **** 
 486:Generated_Source\PSoC4/I2C_I2C_MASTER.c ****         /* A proper ReStart sequence is: generate ReStart, then put an address byte in the TX FIFO.
 487:Generated_Source\PSoC4/I2C_I2C_MASTER.c ****         * Otherwise the master treats the address in the TX FIFO as a data byte if a previous trans
 488:Generated_Source\PSoC4/I2C_I2C_MASTER.c ****         * The write transfer continues instead of ReStart.
 489:Generated_Source\PSoC4/I2C_I2C_MASTER.c ****         */
 490:Generated_Source\PSoC4/I2C_I2C_MASTER.c ****         I2C_I2C_MASTER_GENERATE_RESTART;
 491:Generated_Source\PSoC4/I2C_I2C_MASTER.c **** 
 492:Generated_Source\PSoC4/I2C_I2C_MASTER.c ****         while(I2C_CHECK_I2C_MASTER_CMD(I2C_I2C_MASTER_CMD_M_START))
 493:Generated_Source\PSoC4/I2C_I2C_MASTER.c ****         {
 494:Generated_Source\PSoC4/I2C_I2C_MASTER.c ****             /* Wait until ReStart has been generated */
 495:Generated_Source\PSoC4/I2C_I2C_MASTER.c ****         }
 496:Generated_Source\PSoC4/I2C_I2C_MASTER.c **** 
 497:Generated_Source\PSoC4/I2C_I2C_MASTER.c ****         /* Put address into TX FIFO */
 498:Generated_Source\PSoC4/I2C_I2C_MASTER.c ****         I2C_TX_FIFO_WR_REG = slaveAddress;
 499:Generated_Source\PSoC4/I2C_I2C_MASTER.c **** 
 500:Generated_Source\PSoC4/I2C_I2C_MASTER.c ****         /* Wait for address to be transferred */
 501:Generated_Source\PSoC4/I2C_I2C_MASTER.c ****         while(!I2C_CHECK_INTR_MASTER(I2C_INTR_MASTER_I2C_ACK      |
 502:Generated_Source\PSoC4/I2C_I2C_MASTER.c ****                                                   I2C_INTR_MASTER_I2C_NACK     |
 503:Generated_Source\PSoC4/I2C_I2C_MASTER.c ****                                                   I2C_INTR_MASTER_I2C_ARB_LOST |
 504:Generated_Source\PSoC4/I2C_I2C_MASTER.c ****                                                   I2C_INTR_MASTER_I2C_BUS_ERROR))
 505:Generated_Source\PSoC4/I2C_I2C_MASTER.c ****         {
 506:Generated_Source\PSoC4/I2C_I2C_MASTER.c ****             /* Wait until address has been transferred */
 507:Generated_Source\PSoC4/I2C_I2C_MASTER.c ****         }
 508:Generated_Source\PSoC4/I2C_I2C_MASTER.c **** 
 509:Generated_Source\PSoC4/I2C_I2C_MASTER.c ****         /* Check results of address phase */
 510:Generated_Source\PSoC4/I2C_I2C_MASTER.c ****         if(I2C_CHECK_INTR_MASTER(I2C_INTR_MASTER_I2C_ACK))
 511:Generated_Source\PSoC4/I2C_I2C_MASTER.c ****         {
 512:Generated_Source\PSoC4/I2C_I2C_MASTER.c ****             errStatus = I2C_I2C_MSTR_NO_ERROR;
 513:Generated_Source\PSoC4/I2C_I2C_MASTER.c ****         }
 514:Generated_Source\PSoC4/I2C_I2C_MASTER.c ****         else if(I2C_CHECK_INTR_MASTER(I2C_INTR_MASTER_I2C_NACK))
 515:Generated_Source\PSoC4/I2C_I2C_MASTER.c ****         {
 516:Generated_Source\PSoC4/I2C_I2C_MASTER.c ****              errStatus = I2C_I2C_MSTR_ERR_LB_NAK;
 517:Generated_Source\PSoC4/I2C_I2C_MASTER.c ****         }
 518:Generated_Source\PSoC4/I2C_I2C_MASTER.c ****         else if(I2C_CHECK_INTR_MASTER(I2C_INTR_MASTER_I2C_ARB_LOST))
 519:Generated_Source\PSoC4/I2C_I2C_MASTER.c ****         {
 520:Generated_Source\PSoC4/I2C_I2C_MASTER.c ****             I2C_state = I2C_I2C_FSM_IDLE;
 521:Generated_Source\PSoC4/I2C_I2C_MASTER.c ****                          errStatus = I2C_I2C_MSTR_ERR_ARB_LOST;
 522:Generated_Source\PSoC4/I2C_I2C_MASTER.c ****                          resetIp   = I2C_I2C_RESET_ERROR;
 523:Generated_Source\PSoC4/I2C_I2C_MASTER.c ****         }
 524:Generated_Source\PSoC4/I2C_I2C_MASTER.c ****         else /* I2C_INTR_MASTER_I2C_BUS_ERROR set is else condition */
 525:Generated_Source\PSoC4/I2C_I2C_MASTER.c ****         {
ARM GAS  C:\Users\gjl\AppData\Local\Temp\ccHudlr6.s 			page 14


 526:Generated_Source\PSoC4/I2C_I2C_MASTER.c ****             I2C_state = I2C_I2C_FSM_IDLE;
 527:Generated_Source\PSoC4/I2C_I2C_MASTER.c ****                          errStatus = I2C_I2C_MSTR_ERR_BUS_ERR;
 528:Generated_Source\PSoC4/I2C_I2C_MASTER.c ****                          resetIp   = I2C_I2C_RESET_ERROR;
 529:Generated_Source\PSoC4/I2C_I2C_MASTER.c ****         }
 530:Generated_Source\PSoC4/I2C_I2C_MASTER.c **** 
 531:Generated_Source\PSoC4/I2C_I2C_MASTER.c ****         I2C_ClearMasterInterruptSource(I2C_INTR_MASTER_I2C_ACK      |
 532:Generated_Source\PSoC4/I2C_I2C_MASTER.c ****                                                     I2C_INTR_MASTER_I2C_NACK     |
 533:Generated_Source\PSoC4/I2C_I2C_MASTER.c ****                                                     I2C_INTR_MASTER_I2C_ARB_LOST |
 534:Generated_Source\PSoC4/I2C_I2C_MASTER.c ****                                                     I2C_INTR_MASTER_I2C_BUS_ERROR);
 535:Generated_Source\PSoC4/I2C_I2C_MASTER.c **** 
 536:Generated_Source\PSoC4/I2C_I2C_MASTER.c ****         /* Reset block in case of: LOST_ARB or BUS_ERR */
 537:Generated_Source\PSoC4/I2C_I2C_MASTER.c ****         if(0u != resetIp)
 538:Generated_Source\PSoC4/I2C_I2C_MASTER.c ****         {
 539:Generated_Source\PSoC4/I2C_I2C_MASTER.c ****             I2C_SCB_SW_RESET;
 540:Generated_Source\PSoC4/I2C_I2C_MASTER.c ****         }
 541:Generated_Source\PSoC4/I2C_I2C_MASTER.c ****     }
 542:Generated_Source\PSoC4/I2C_I2C_MASTER.c **** 
 543:Generated_Source\PSoC4/I2C_I2C_MASTER.c ****     return(errStatus);
 544:Generated_Source\PSoC4/I2C_I2C_MASTER.c **** }
 545:Generated_Source\PSoC4/I2C_I2C_MASTER.c **** 
 546:Generated_Source\PSoC4/I2C_I2C_MASTER.c **** 
 547:Generated_Source\PSoC4/I2C_I2C_MASTER.c **** /*******************************************************************************
 548:Generated_Source\PSoC4/I2C_I2C_MASTER.c **** * Function Name: I2C_I2CMasterSendStop
 549:Generated_Source\PSoC4/I2C_I2C_MASTER.c **** ****************************************************************************//**
 550:Generated_Source\PSoC4/I2C_I2C_MASTER.c **** *
 551:Generated_Source\PSoC4/I2C_I2C_MASTER.c **** *  Generates Stop condition on the bus. 
 552:Generated_Source\PSoC4/I2C_I2C_MASTER.c **** *  The NAK is generated before Stop in case of a read transaction.
 553:Generated_Source\PSoC4/I2C_I2C_MASTER.c **** *  At least one byte has to be read if a Start or ReStart condition with read 
 554:Generated_Source\PSoC4/I2C_I2C_MASTER.c **** *  direction was generated before.
 555:Generated_Source\PSoC4/I2C_I2C_MASTER.c **** *  This function is blocking and does not return until a Stop condition is 
 556:Generated_Source\PSoC4/I2C_I2C_MASTER.c **** *  generated or error occurred.
 557:Generated_Source\PSoC4/I2C_I2C_MASTER.c **** *
 558:Generated_Source\PSoC4/I2C_I2C_MASTER.c **** * \return
 559:Generated_Source\PSoC4/I2C_I2C_MASTER.c **** *  Error status.
 560:Generated_Source\PSoC4/I2C_I2C_MASTER.c **** *  See I2C_I2CMasterSendStart() function for constants.
 561:Generated_Source\PSoC4/I2C_I2C_MASTER.c **** *
 562:Generated_Source\PSoC4/I2C_I2C_MASTER.c **** * \sideeffect
 563:Generated_Source\PSoC4/I2C_I2C_MASTER.c **** *  A valid Start or ReStart condition must be generated before calling 
 564:Generated_Source\PSoC4/I2C_I2C_MASTER.c **** *  this function. This function does nothing if Start or ReStart conditions 
 565:Generated_Source\PSoC4/I2C_I2C_MASTER.c **** *  failed before this function was called.
 566:Generated_Source\PSoC4/I2C_I2C_MASTER.c **** *  For read transaction, at least one byte has to be read before ReStart 
 567:Generated_Source\PSoC4/I2C_I2C_MASTER.c **** *  generation.
 568:Generated_Source\PSoC4/I2C_I2C_MASTER.c **** *
 569:Generated_Source\PSoC4/I2C_I2C_MASTER.c **** * \globalvars
 570:Generated_Source\PSoC4/I2C_I2C_MASTER.c **** *  I2C_state - used to store current state of software FSM.
 571:Generated_Source\PSoC4/I2C_I2C_MASTER.c **** *
 572:Generated_Source\PSoC4/I2C_I2C_MASTER.c **** *******************************************************************************/
 573:Generated_Source\PSoC4/I2C_I2C_MASTER.c **** uint32 I2C_I2CMasterSendStop(void)
 574:Generated_Source\PSoC4/I2C_I2C_MASTER.c **** {
 211              		.loc 1 574 0
 212              		.cfi_startproc
 213              		@ args = 0, pretend = 0, frame = 0
 214              		@ frame_needed = 0, uses_anonymous_args = 0
 215              		@ link register save eliminated.
 216              	.LVL19:
 575:Generated_Source\PSoC4/I2C_I2C_MASTER.c ****     uint32 resetIp;
 576:Generated_Source\PSoC4/I2C_I2C_MASTER.c ****     uint32 errStatus;
ARM GAS  C:\Users\gjl\AppData\Local\Temp\ccHudlr6.s 			page 15


 577:Generated_Source\PSoC4/I2C_I2C_MASTER.c **** 
 578:Generated_Source\PSoC4/I2C_I2C_MASTER.c ****     resetIp   = 0u;
 579:Generated_Source\PSoC4/I2C_I2C_MASTER.c ****     errStatus = I2C_I2C_MSTR_NOT_READY;
 580:Generated_Source\PSoC4/I2C_I2C_MASTER.c **** 
 581:Generated_Source\PSoC4/I2C_I2C_MASTER.c ****     /* Check FSM state before generating Stop condition */
 582:Generated_Source\PSoC4/I2C_I2C_MASTER.c ****     if(I2C_CHECK_I2C_MASTER_ACTIVE)
 217              		.loc 1 582 0
 218 0000 1D4B     		ldr	r3, .L23
 219 0002 1B78     		ldrb	r3, [r3]
 220 0004 9B06     		lsls	r3, r3, #26
 221 0006 34D5     		bpl	.L19
 583:Generated_Source\PSoC4/I2C_I2C_MASTER.c ****     {
 584:Generated_Source\PSoC4/I2C_I2C_MASTER.c ****         /*
 585:Generated_Source\PSoC4/I2C_I2C_MASTER.c ****         * Write direction: generates Stop
 586:Generated_Source\PSoC4/I2C_I2C_MASTER.c ****         * Read  direction: generates NACK and Stop
 587:Generated_Source\PSoC4/I2C_I2C_MASTER.c ****         */
 588:Generated_Source\PSoC4/I2C_I2C_MASTER.c ****         I2C_I2C_MASTER_GENERATE_STOP;
 222              		.loc 1 588 0
 223 0008 1C4B     		ldr	r3, .L23+4
 224 000a 1B68     		ldr	r3, [r3]
 225 000c 9B06     		lsls	r3, r3, #26
 226 000e 01D5     		bpl	.L20
 227 0010 1822     		movs	r2, #24
 228 0012 00E0     		b	.L16
 229              	.L20:
 230 0014 1022     		movs	r2, #16
 231              	.L16:
 232              		.loc 1 588 0 is_stmt 0 discriminator 4
 233 0016 1A4B     		ldr	r3, .L23+8
 234 0018 1A60     		str	r2, [r3]
 235              	.L17:
 589:Generated_Source\PSoC4/I2C_I2C_MASTER.c **** 
 590:Generated_Source\PSoC4/I2C_I2C_MASTER.c ****         while(!I2C_CHECK_INTR_MASTER(I2C_INTR_MASTER_I2C_STOP     |
 236              		.loc 1 590 0 is_stmt 1 discriminator 1
 237 001a 1A4B     		ldr	r3, .L23+12
 238 001c 1A68     		ldr	r2, [r3]
 239 001e 1223     		movs	r3, #18
 240 0020 FF33     		adds	r3, r3, #255
 241 0022 1A42     		tst	r2, r3
 242 0024 F9D0     		beq	.L17
 591:Generated_Source\PSoC4/I2C_I2C_MASTER.c ****                                                   I2C_INTR_MASTER_I2C_ARB_LOST |
 592:Generated_Source\PSoC4/I2C_I2C_MASTER.c ****                                                   I2C_INTR_MASTER_I2C_BUS_ERROR))
 593:Generated_Source\PSoC4/I2C_I2C_MASTER.c ****         {
 594:Generated_Source\PSoC4/I2C_I2C_MASTER.c ****             /* Wait until Stop has been generated */
 595:Generated_Source\PSoC4/I2C_I2C_MASTER.c ****         }
 596:Generated_Source\PSoC4/I2C_I2C_MASTER.c **** 
 597:Generated_Source\PSoC4/I2C_I2C_MASTER.c ****         /* Check Stop generation */
 598:Generated_Source\PSoC4/I2C_I2C_MASTER.c ****         if(I2C_CHECK_INTR_MASTER(I2C_INTR_MASTER_I2C_STOP))
 243              		.loc 1 598 0
 244 0026 174B     		ldr	r3, .L23+12
 245 0028 1B68     		ldr	r3, [r3]
 246 002a DB06     		lsls	r3, r3, #27
 247 002c 06D4     		bmi	.L21
 599:Generated_Source\PSoC4/I2C_I2C_MASTER.c ****         {
 600:Generated_Source\PSoC4/I2C_I2C_MASTER.c ****             errStatus = I2C_I2C_MSTR_NO_ERROR;
 601:Generated_Source\PSoC4/I2C_I2C_MASTER.c ****         }
 602:Generated_Source\PSoC4/I2C_I2C_MASTER.c ****         else if(I2C_CHECK_INTR_MASTER(I2C_INTR_MASTER_I2C_ARB_LOST))
ARM GAS  C:\Users\gjl\AppData\Local\Temp\ccHudlr6.s 			page 16


 248              		.loc 1 602 0
 249 002e 154B     		ldr	r3, .L23+12
 250 0030 1B68     		ldr	r3, [r3]
 251 0032 DB07     		lsls	r3, r3, #31
 252 0034 05D5     		bpl	.L22
 603:Generated_Source\PSoC4/I2C_I2C_MASTER.c ****         {
 604:Generated_Source\PSoC4/I2C_I2C_MASTER.c ****             errStatus = I2C_I2C_MSTR_ERR_ARB_LOST;
 253              		.loc 1 604 0
 254 0036 0120     		movs	r0, #1
 605:Generated_Source\PSoC4/I2C_I2C_MASTER.c ****             resetIp   = I2C_I2C_RESET_ERROR;
 255              		.loc 1 605 0
 256 0038 0121     		movs	r1, #1
 257 003a 05E0     		b	.L18
 258              	.L21:
 600:Generated_Source\PSoC4/I2C_I2C_MASTER.c ****         }
 259              		.loc 1 600 0
 260 003c 0020     		movs	r0, #0
 578:Generated_Source\PSoC4/I2C_I2C_MASTER.c ****     errStatus = I2C_I2C_MSTR_NOT_READY;
 261              		.loc 1 578 0
 262 003e 0021     		movs	r1, #0
 263 0040 02E0     		b	.L18
 264              	.L22:
 606:Generated_Source\PSoC4/I2C_I2C_MASTER.c ****         }
 607:Generated_Source\PSoC4/I2C_I2C_MASTER.c ****         else /* I2C_INTR_MASTER_I2C_BUS_ERROR is set */
 608:Generated_Source\PSoC4/I2C_I2C_MASTER.c ****         {
 609:Generated_Source\PSoC4/I2C_I2C_MASTER.c ****             errStatus = I2C_I2C_MSTR_ERR_BUS_ERR;
 265              		.loc 1 609 0
 266 0042 8020     		movs	r0, #128
 267 0044 4000     		lsls	r0, r0, #1
 610:Generated_Source\PSoC4/I2C_I2C_MASTER.c ****             resetIp   = I2C_I2C_RESET_ERROR;
 268              		.loc 1 610 0
 269 0046 0121     		movs	r1, #1
 270              	.L18:
 271              	.LVL20:
 611:Generated_Source\PSoC4/I2C_I2C_MASTER.c ****         }
 612:Generated_Source\PSoC4/I2C_I2C_MASTER.c **** 
 613:Generated_Source\PSoC4/I2C_I2C_MASTER.c ****         I2C_ClearMasterInterruptSource(I2C_INTR_MASTER_I2C_STOP     |
 272              		.loc 1 613 0
 273 0048 1222     		movs	r2, #18
 274 004a FF32     		adds	r2, r2, #255
 275 004c 0D4B     		ldr	r3, .L23+12
 276 004e 1A60     		str	r2, [r3]
 614:Generated_Source\PSoC4/I2C_I2C_MASTER.c ****                                                     I2C_INTR_MASTER_I2C_ARB_LOST |
 615:Generated_Source\PSoC4/I2C_I2C_MASTER.c ****                                                     I2C_INTR_MASTER_I2C_BUS_ERROR);
 616:Generated_Source\PSoC4/I2C_I2C_MASTER.c **** 
 617:Generated_Source\PSoC4/I2C_I2C_MASTER.c ****         I2C_state = I2C_I2C_FSM_IDLE;
 277              		.loc 1 617 0
 278 0050 023A     		subs	r2, r2, #2
 279 0052 FF3A     		subs	r2, r2, #255
 280 0054 084B     		ldr	r3, .L23
 281 0056 1A70     		strb	r2, [r3]
 618:Generated_Source\PSoC4/I2C_I2C_MASTER.c **** 
 619:Generated_Source\PSoC4/I2C_I2C_MASTER.c ****         /* Reset block in case of: LOST_ARB or BUS_ERR */
 620:Generated_Source\PSoC4/I2C_I2C_MASTER.c ****         if(0u != resetIp)
 282              		.loc 1 620 0
 283 0058 0029     		cmp	r1, #0
 284 005a 0BD0     		beq	.L15
ARM GAS  C:\Users\gjl\AppData\Local\Temp\ccHudlr6.s 			page 17


 621:Generated_Source\PSoC4/I2C_I2C_MASTER.c ****         {
 622:Generated_Source\PSoC4/I2C_I2C_MASTER.c ****             I2C_SCB_SW_RESET;
 285              		.loc 1 622 0
 286 005c 0A4A     		ldr	r2, .L23+16
 287 005e 1368     		ldr	r3, [r2]
 288 0060 5B00     		lsls	r3, r3, #1
 289 0062 5B08     		lsrs	r3, r3, #1
 290 0064 1360     		str	r3, [r2]
 291 0066 1368     		ldr	r3, [r2]
 292 0068 8021     		movs	r1, #128
 293              	.LVL21:
 294 006a 0906     		lsls	r1, r1, #24
 295 006c 0B43     		orrs	r3, r1
 296 006e 1360     		str	r3, [r2]
 297 0070 00E0     		b	.L15
 298              	.LVL22:
 299              	.L19:
 579:Generated_Source\PSoC4/I2C_I2C_MASTER.c **** 
 300              		.loc 1 579 0
 301 0072 0420     		movs	r0, #4
 302              	.LVL23:
 303              	.L15:
 623:Generated_Source\PSoC4/I2C_I2C_MASTER.c ****         }
 624:Generated_Source\PSoC4/I2C_I2C_MASTER.c ****     }
 625:Generated_Source\PSoC4/I2C_I2C_MASTER.c **** 
 626:Generated_Source\PSoC4/I2C_I2C_MASTER.c ****     return(errStatus);
 627:Generated_Source\PSoC4/I2C_I2C_MASTER.c **** }
 304              		.loc 1 627 0
 305              		@ sp needed
 306 0074 7047     		bx	lr
 307              	.L24:
 308 0076 C046     		.align	2
 309              	.L23:
 310 0078 00000000 		.word	I2C_state
 311 007c 64002440 		.word	1076101220
 312 0080 68002440 		.word	1076101224
 313 0084 000F2440 		.word	1076104960
 314 0088 00002440 		.word	1076101120
 315              		.cfi_endproc
 316              	.LFE5:
 317              		.size	I2C_I2CMasterSendStop, .-I2C_I2CMasterSendStop
 318              		.section	.text.I2C_I2CMasterWriteByte,"ax",%progbits
 319              		.align	2
 320              		.global	I2C_I2CMasterWriteByte
 321              		.code	16
 322              		.thumb_func
 323              		.type	I2C_I2CMasterWriteByte, %function
 324              	I2C_I2CMasterWriteByte:
 325              	.LFB6:
 628:Generated_Source\PSoC4/I2C_I2C_MASTER.c **** 
 629:Generated_Source\PSoC4/I2C_I2C_MASTER.c **** 
 630:Generated_Source\PSoC4/I2C_I2C_MASTER.c **** /*******************************************************************************
 631:Generated_Source\PSoC4/I2C_I2C_MASTER.c **** * Function Name: I2C_I2CMasterWriteByte
 632:Generated_Source\PSoC4/I2C_I2C_MASTER.c **** ****************************************************************************//**
 633:Generated_Source\PSoC4/I2C_I2C_MASTER.c **** *
 634:Generated_Source\PSoC4/I2C_I2C_MASTER.c **** *  Sends one byte to a slave.
 635:Generated_Source\PSoC4/I2C_I2C_MASTER.c **** *  This function is blocking and does not return until byte is transmitted
ARM GAS  C:\Users\gjl\AppData\Local\Temp\ccHudlr6.s 			page 18


 636:Generated_Source\PSoC4/I2C_I2C_MASTER.c **** *  or error occurred.
 637:Generated_Source\PSoC4/I2C_I2C_MASTER.c **** *
 638:Generated_Source\PSoC4/I2C_I2C_MASTER.c **** * \param data: The data byte to send to the slave.
 639:Generated_Source\PSoC4/I2C_I2C_MASTER.c **** *
 640:Generated_Source\PSoC4/I2C_I2C_MASTER.c **** * \return
 641:Generated_Source\PSoC4/I2C_I2C_MASTER.c **** *  Error status.
 642:Generated_Source\PSoC4/I2C_I2C_MASTER.c **** *  See I2C_I2CMasterSendStart() function for constants.
 643:Generated_Source\PSoC4/I2C_I2C_MASTER.c **** *
 644:Generated_Source\PSoC4/I2C_I2C_MASTER.c **** * \sideeffect
 645:Generated_Source\PSoC4/I2C_I2C_MASTER.c **** *  A valid Start or ReStart condition must be generated before calling
 646:Generated_Source\PSoC4/I2C_I2C_MASTER.c **** *  this function. This function does nothing if Start or ReStart condition
 647:Generated_Source\PSoC4/I2C_I2C_MASTER.c **** *  failed before this function was called.
 648:Generated_Source\PSoC4/I2C_I2C_MASTER.c **** *
 649:Generated_Source\PSoC4/I2C_I2C_MASTER.c **** * \globalvars
 650:Generated_Source\PSoC4/I2C_I2C_MASTER.c **** *  I2C_state - used to store current state of software FSM.
 651:Generated_Source\PSoC4/I2C_I2C_MASTER.c **** *
 652:Generated_Source\PSoC4/I2C_I2C_MASTER.c **** *******************************************************************************/
 653:Generated_Source\PSoC4/I2C_I2C_MASTER.c **** uint32 I2C_I2CMasterWriteByte(uint32 theByte)
 654:Generated_Source\PSoC4/I2C_I2C_MASTER.c **** {
 326              		.loc 1 654 0
 327              		.cfi_startproc
 328              		@ args = 0, pretend = 0, frame = 0
 329              		@ frame_needed = 0, uses_anonymous_args = 0
 330              		@ link register save eliminated.
 331              	.LVL24:
 655:Generated_Source\PSoC4/I2C_I2C_MASTER.c ****     uint32 resetIp;
 656:Generated_Source\PSoC4/I2C_I2C_MASTER.c ****     uint32 errStatus;
 657:Generated_Source\PSoC4/I2C_I2C_MASTER.c **** 
 658:Generated_Source\PSoC4/I2C_I2C_MASTER.c ****     resetIp   = 0u;
 659:Generated_Source\PSoC4/I2C_I2C_MASTER.c ****     errStatus = I2C_I2C_MSTR_NOT_READY;
 660:Generated_Source\PSoC4/I2C_I2C_MASTER.c **** 
 661:Generated_Source\PSoC4/I2C_I2C_MASTER.c ****     /* Check FSM state before write byte */
 662:Generated_Source\PSoC4/I2C_I2C_MASTER.c ****     if(I2C_CHECK_I2C_MASTER_ACTIVE)
 332              		.loc 1 662 0
 333 0000 214B     		ldr	r3, .L33
 334 0002 1B78     		ldrb	r3, [r3]
 335 0004 9B06     		lsls	r3, r3, #26
 336 0006 3CD5     		bpl	.L32
 663:Generated_Source\PSoC4/I2C_I2C_MASTER.c ****     {
 664:Generated_Source\PSoC4/I2C_I2C_MASTER.c ****         I2C_TX_FIFO_WR_REG = theByte;
 337              		.loc 1 664 0
 338 0008 204B     		ldr	r3, .L33+4
 339 000a 1860     		str	r0, [r3]
 340              	.L27:
 665:Generated_Source\PSoC4/I2C_I2C_MASTER.c **** 
 666:Generated_Source\PSoC4/I2C_I2C_MASTER.c ****         while(!I2C_CHECK_INTR_MASTER(I2C_INTR_MASTER_I2C_ACK      |
 341              		.loc 1 666 0 discriminator 1
 342 000c 204B     		ldr	r3, .L33+8
 343 000e 1A68     		ldr	r2, [r3]
 344 0010 0823     		movs	r3, #8
 345 0012 FF33     		adds	r3, r3, #255
 346 0014 1A42     		tst	r2, r3
 347 0016 F9D0     		beq	.L27
 667:Generated_Source\PSoC4/I2C_I2C_MASTER.c ****                                                   I2C_INTR_MASTER_I2C_NACK     |
 668:Generated_Source\PSoC4/I2C_I2C_MASTER.c ****                                                   I2C_INTR_MASTER_I2C_ARB_LOST |
 669:Generated_Source\PSoC4/I2C_I2C_MASTER.c ****                                                   I2C_INTR_MASTER_I2C_BUS_ERROR))
 670:Generated_Source\PSoC4/I2C_I2C_MASTER.c ****         {
ARM GAS  C:\Users\gjl\AppData\Local\Temp\ccHudlr6.s 			page 19


 671:Generated_Source\PSoC4/I2C_I2C_MASTER.c ****             /* Wait until byte has been transferred */
 672:Generated_Source\PSoC4/I2C_I2C_MASTER.c ****         }
 673:Generated_Source\PSoC4/I2C_I2C_MASTER.c **** 
 674:Generated_Source\PSoC4/I2C_I2C_MASTER.c ****         /* Check results after byte was sent */
 675:Generated_Source\PSoC4/I2C_I2C_MASTER.c ****         if(I2C_CHECK_INTR_MASTER(I2C_INTR_MASTER_I2C_ACK))
 348              		.loc 1 675 0
 349 0018 1D4B     		ldr	r3, .L33+8
 350 001a 1B68     		ldr	r3, [r3]
 351 001c 5B07     		lsls	r3, r3, #29
 352 001e 05D5     		bpl	.L28
 676:Generated_Source\PSoC4/I2C_I2C_MASTER.c ****         {
 677:Generated_Source\PSoC4/I2C_I2C_MASTER.c ****             I2C_state = I2C_I2C_FSM_MSTR_HALT;
 353              		.loc 1 677 0
 354 0020 6022     		movs	r2, #96
 355 0022 194B     		ldr	r3, .L33
 356 0024 1A70     		strb	r2, [r3]
 357              	.LVL25:
 678:Generated_Source\PSoC4/I2C_I2C_MASTER.c ****                          errStatus = I2C_I2C_MSTR_NO_ERROR;
 358              		.loc 1 678 0
 359 0026 0020     		movs	r0, #0
 360              	.LVL26:
 658:Generated_Source\PSoC4/I2C_I2C_MASTER.c ****     errStatus = I2C_I2C_MSTR_NOT_READY;
 361              		.loc 1 658 0
 362 0028 0021     		movs	r1, #0
 363 002a 19E0     		b	.L29
 364              	.LVL27:
 365              	.L28:
 679:Generated_Source\PSoC4/I2C_I2C_MASTER.c ****         }
 680:Generated_Source\PSoC4/I2C_I2C_MASTER.c ****         else if(I2C_CHECK_INTR_MASTER(I2C_INTR_MASTER_I2C_NACK))
 366              		.loc 1 680 0
 367 002c 184B     		ldr	r3, .L33+8
 368 002e 1B68     		ldr	r3, [r3]
 369 0030 9B07     		lsls	r3, r3, #30
 370 0032 05D5     		bpl	.L30
 681:Generated_Source\PSoC4/I2C_I2C_MASTER.c ****         {
 682:Generated_Source\PSoC4/I2C_I2C_MASTER.c ****             I2C_state = I2C_I2C_FSM_MSTR_HALT;
 371              		.loc 1 682 0
 372 0034 6022     		movs	r2, #96
 373 0036 144B     		ldr	r3, .L33
 374 0038 1A70     		strb	r2, [r3]
 375              	.LVL28:
 683:Generated_Source\PSoC4/I2C_I2C_MASTER.c ****                          errStatus = I2C_I2C_MSTR_ERR_LB_NAK;
 376              		.loc 1 683 0
 377 003a 0220     		movs	r0, #2
 378              	.LVL29:
 658:Generated_Source\PSoC4/I2C_I2C_MASTER.c ****     errStatus = I2C_I2C_MSTR_NOT_READY;
 379              		.loc 1 658 0
 380 003c 0021     		movs	r1, #0
 381 003e 0FE0     		b	.L29
 382              	.LVL30:
 383              	.L30:
 684:Generated_Source\PSoC4/I2C_I2C_MASTER.c ****         }
 685:Generated_Source\PSoC4/I2C_I2C_MASTER.c ****         else if(I2C_CHECK_INTR_MASTER(I2C_INTR_MASTER_I2C_ARB_LOST))
 384              		.loc 1 685 0
 385 0040 134B     		ldr	r3, .L33+8
 386 0042 1B68     		ldr	r3, [r3]
 387 0044 DB07     		lsls	r3, r3, #31
ARM GAS  C:\Users\gjl\AppData\Local\Temp\ccHudlr6.s 			page 20


 388 0046 05D5     		bpl	.L31
 686:Generated_Source\PSoC4/I2C_I2C_MASTER.c ****         {
 687:Generated_Source\PSoC4/I2C_I2C_MASTER.c ****             I2C_state = I2C_I2C_FSM_IDLE;
 389              		.loc 1 687 0
 390 0048 1022     		movs	r2, #16
 391 004a 0F4B     		ldr	r3, .L33
 392 004c 1A70     		strb	r2, [r3]
 393              	.LVL31:
 688:Generated_Source\PSoC4/I2C_I2C_MASTER.c ****                          errStatus = I2C_I2C_MSTR_ERR_ARB_LOST;
 394              		.loc 1 688 0
 395 004e 0120     		movs	r0, #1
 396              	.LVL32:
 689:Generated_Source\PSoC4/I2C_I2C_MASTER.c ****                          resetIp   = I2C_I2C_RESET_ERROR;
 397              		.loc 1 689 0
 398 0050 0121     		movs	r1, #1
 399 0052 05E0     		b	.L29
 400              	.LVL33:
 401              	.L31:
 690:Generated_Source\PSoC4/I2C_I2C_MASTER.c ****         }
 691:Generated_Source\PSoC4/I2C_I2C_MASTER.c ****         else /* I2C_INTR_MASTER_I2C_BUS_ERROR set is */
 692:Generated_Source\PSoC4/I2C_I2C_MASTER.c ****         {
 693:Generated_Source\PSoC4/I2C_I2C_MASTER.c ****             I2C_state = I2C_I2C_FSM_IDLE;
 402              		.loc 1 693 0
 403 0054 1022     		movs	r2, #16
 404 0056 0C4B     		ldr	r3, .L33
 405 0058 1A70     		strb	r2, [r3]
 406              	.LVL34:
 694:Generated_Source\PSoC4/I2C_I2C_MASTER.c ****                          errStatus = I2C_I2C_MSTR_ERR_BUS_ERR;
 407              		.loc 1 694 0
 408 005a 8020     		movs	r0, #128
 409              	.LVL35:
 410 005c 4000     		lsls	r0, r0, #1
 695:Generated_Source\PSoC4/I2C_I2C_MASTER.c ****                          resetIp   = I2C_I2C_RESET_ERROR;
 411              		.loc 1 695 0
 412 005e 0121     		movs	r1, #1
 413              	.LVL36:
 414              	.L29:
 696:Generated_Source\PSoC4/I2C_I2C_MASTER.c ****         }
 697:Generated_Source\PSoC4/I2C_I2C_MASTER.c **** 
 698:Generated_Source\PSoC4/I2C_I2C_MASTER.c ****         I2C_ClearMasterInterruptSource(I2C_INTR_MASTER_I2C_ACK      |
 415              		.loc 1 698 0
 416 0060 0822     		movs	r2, #8
 417 0062 FF32     		adds	r2, r2, #255
 418 0064 0A4B     		ldr	r3, .L33+8
 419 0066 1A60     		str	r2, [r3]
 699:Generated_Source\PSoC4/I2C_I2C_MASTER.c ****                                                     I2C_INTR_MASTER_I2C_NACK     |
 700:Generated_Source\PSoC4/I2C_I2C_MASTER.c ****                                                     I2C_INTR_MASTER_I2C_ARB_LOST |
 701:Generated_Source\PSoC4/I2C_I2C_MASTER.c ****                                                     I2C_INTR_MASTER_I2C_BUS_ERROR);
 702:Generated_Source\PSoC4/I2C_I2C_MASTER.c **** 
 703:Generated_Source\PSoC4/I2C_I2C_MASTER.c ****         /* Reset block in case of: LOST_ARB or BUS_ERR */
 704:Generated_Source\PSoC4/I2C_I2C_MASTER.c ****         if(0u != resetIp)
 420              		.loc 1 704 0
 421 0068 0029     		cmp	r1, #0
 422 006a 0BD0     		beq	.L26
 705:Generated_Source\PSoC4/I2C_I2C_MASTER.c ****         {
 706:Generated_Source\PSoC4/I2C_I2C_MASTER.c ****             I2C_SCB_SW_RESET;
 423              		.loc 1 706 0
ARM GAS  C:\Users\gjl\AppData\Local\Temp\ccHudlr6.s 			page 21


 424 006c 094A     		ldr	r2, .L33+12
 425 006e 1368     		ldr	r3, [r2]
 426 0070 5B00     		lsls	r3, r3, #1
 427 0072 5B08     		lsrs	r3, r3, #1
 428 0074 1360     		str	r3, [r2]
 429 0076 1368     		ldr	r3, [r2]
 430 0078 8021     		movs	r1, #128
 431              	.LVL37:
 432 007a 0906     		lsls	r1, r1, #24
 433 007c 0B43     		orrs	r3, r1
 434 007e 1360     		str	r3, [r2]
 435 0080 00E0     		b	.L26
 436              	.LVL38:
 437              	.L32:
 659:Generated_Source\PSoC4/I2C_I2C_MASTER.c **** 
 438              		.loc 1 659 0
 439 0082 0420     		movs	r0, #4
 440              	.LVL39:
 441              	.L26:
 707:Generated_Source\PSoC4/I2C_I2C_MASTER.c ****         }
 708:Generated_Source\PSoC4/I2C_I2C_MASTER.c ****     }
 709:Generated_Source\PSoC4/I2C_I2C_MASTER.c **** 
 710:Generated_Source\PSoC4/I2C_I2C_MASTER.c ****     return(errStatus);
 711:Generated_Source\PSoC4/I2C_I2C_MASTER.c **** }
 442              		.loc 1 711 0
 443              		@ sp needed
 444 0084 7047     		bx	lr
 445              	.L34:
 446 0086 C046     		.align	2
 447              	.L33:
 448 0088 00000000 		.word	I2C_state
 449 008c 40022440 		.word	1076101696
 450 0090 000F2440 		.word	1076104960
 451 0094 00002440 		.word	1076101120
 452              		.cfi_endproc
 453              	.LFE6:
 454              		.size	I2C_I2CMasterWriteByte, .-I2C_I2CMasterWriteByte
 455              		.section	.text.I2C_I2CMasterReadByte,"ax",%progbits
 456              		.align	2
 457              		.global	I2C_I2CMasterReadByte
 458              		.code	16
 459              		.thumb_func
 460              		.type	I2C_I2CMasterReadByte, %function
 461              	I2C_I2CMasterReadByte:
 462              	.LFB7:
 712:Generated_Source\PSoC4/I2C_I2C_MASTER.c **** 
 713:Generated_Source\PSoC4/I2C_I2C_MASTER.c **** 
 714:Generated_Source\PSoC4/I2C_I2C_MASTER.c **** /*******************************************************************************
 715:Generated_Source\PSoC4/I2C_I2C_MASTER.c **** * Function Name: I2C_I2CMasterReadByte
 716:Generated_Source\PSoC4/I2C_I2C_MASTER.c **** ****************************************************************************//**
 717:Generated_Source\PSoC4/I2C_I2C_MASTER.c **** *
 718:Generated_Source\PSoC4/I2C_I2C_MASTER.c **** *  Reads one byte from a slave and generates ACK or prepares to generate NAK. 
 719:Generated_Source\PSoC4/I2C_I2C_MASTER.c **** *  The NAK will be generated before Stop or ReStart condition by 
 720:Generated_Source\PSoC4/I2C_I2C_MASTER.c **** *  I2C_I2CMasterSendStop() or 
 721:Generated_Source\PSoC4/I2C_I2C_MASTER.c **** *  I2C_I2CMasterSendRestart() function appropriately.
 722:Generated_Source\PSoC4/I2C_I2C_MASTER.c **** *  This function is blocking. It does not return until a byte is received or 
 723:Generated_Source\PSoC4/I2C_I2C_MASTER.c **** *  an error occurs.
ARM GAS  C:\Users\gjl\AppData\Local\Temp\ccHudlr6.s 			page 22


 724:Generated_Source\PSoC4/I2C_I2C_MASTER.c **** *
 725:Generated_Source\PSoC4/I2C_I2C_MASTER.c **** * \param ackNack: Response to received byte.
 726:Generated_Source\PSoC4/I2C_I2C_MASTER.c **** *  - I2C_I2C_ACK_DATA - Generates ACK. 
 727:Generated_Source\PSoC4/I2C_I2C_MASTER.c **** *     The master notifies slave that transfer continues.
 728:Generated_Source\PSoC4/I2C_I2C_MASTER.c **** *  - I2C_I2C_NAK_DATA - Prepares to generate NAK.
 729:Generated_Source\PSoC4/I2C_I2C_MASTER.c **** *     The master will notify slave that transfer is completed.
 730:Generated_Source\PSoC4/I2C_I2C_MASTER.c **** *
 731:Generated_Source\PSoC4/I2C_I2C_MASTER.c **** * \return
 732:Generated_Source\PSoC4/I2C_I2C_MASTER.c **** *  Byte read from the slave. In case of error the MSB of returned data 
 733:Generated_Source\PSoC4/I2C_I2C_MASTER.c **** *  is set to 1.
 734:Generated_Source\PSoC4/I2C_I2C_MASTER.c **** *
 735:Generated_Source\PSoC4/I2C_I2C_MASTER.c **** * \sideeffect
 736:Generated_Source\PSoC4/I2C_I2C_MASTER.c **** *  A valid Start or ReStart condition must be generated before calling
 737:Generated_Source\PSoC4/I2C_I2C_MASTER.c **** *  this function. This function does nothing if Start or ReStart condition
 738:Generated_Source\PSoC4/I2C_I2C_MASTER.c **** *  failed before this function was called.
 739:Generated_Source\PSoC4/I2C_I2C_MASTER.c **** *
 740:Generated_Source\PSoC4/I2C_I2C_MASTER.c **** * \globalvars
 741:Generated_Source\PSoC4/I2C_I2C_MASTER.c **** *  I2C_state - used to store current state of software FSM.
 742:Generated_Source\PSoC4/I2C_I2C_MASTER.c **** *
 743:Generated_Source\PSoC4/I2C_I2C_MASTER.c **** *******************************************************************************/
 744:Generated_Source\PSoC4/I2C_I2C_MASTER.c **** uint32 I2C_I2CMasterReadByte(uint32 ackNack)
 745:Generated_Source\PSoC4/I2C_I2C_MASTER.c **** {
 463              		.loc 1 745 0
 464              		.cfi_startproc
 465              		@ args = 0, pretend = 0, frame = 0
 466              		@ frame_needed = 0, uses_anonymous_args = 0
 467              		@ link register save eliminated.
 468              	.LVL40:
 469 0000 0100     		movs	r1, r0
 470              	.LVL41:
 746:Generated_Source\PSoC4/I2C_I2C_MASTER.c ****     uint32 theByte;
 747:Generated_Source\PSoC4/I2C_I2C_MASTER.c **** 
 748:Generated_Source\PSoC4/I2C_I2C_MASTER.c ****     /* Return invalid byte in case BUS_ERR happen during receiving */
 749:Generated_Source\PSoC4/I2C_I2C_MASTER.c ****     theByte = I2C_I2C_INVALID_BYTE;
 750:Generated_Source\PSoC4/I2C_I2C_MASTER.c **** 
 751:Generated_Source\PSoC4/I2C_I2C_MASTER.c ****     /* Check FSM state before read byte */
 752:Generated_Source\PSoC4/I2C_I2C_MASTER.c ****     if(I2C_CHECK_I2C_MASTER_ACTIVE)
 471              		.loc 1 752 0
 472 0002 194B     		ldr	r3, .L42
 473 0004 1B78     		ldrb	r3, [r3]
 474 0006 9B06     		lsls	r3, r3, #26
 475 0008 2BD5     		bpl	.L41
 476              	.L38:
 753:Generated_Source\PSoC4/I2C_I2C_MASTER.c ****     {
 754:Generated_Source\PSoC4/I2C_I2C_MASTER.c ****         while((!I2C_CHECK_INTR_RX(I2C_INTR_RX_NOT_EMPTY)) &&
 477              		.loc 1 754 0 discriminator 2
 478 000a 184B     		ldr	r3, .L42+4
 479 000c 1B68     		ldr	r3, [r3]
 480 000e 5B07     		lsls	r3, r3, #29
 481 0010 05D4     		bmi	.L37
 755:Generated_Source\PSoC4/I2C_I2C_MASTER.c ****               (!I2C_CHECK_INTR_MASTER(I2C_INTR_MASTER_I2C_ARB_LOST |
 482              		.loc 1 755 0 discriminator 1
 483 0012 174B     		ldr	r3, .L42+8
 484 0014 1A68     		ldr	r2, [r3]
 485 0016 0223     		movs	r3, #2
 486 0018 FF33     		adds	r3, r3, #255
 754:Generated_Source\PSoC4/I2C_I2C_MASTER.c ****               (!I2C_CHECK_INTR_MASTER(I2C_INTR_MASTER_I2C_ARB_LOST |
ARM GAS  C:\Users\gjl\AppData\Local\Temp\ccHudlr6.s 			page 23


 487              		.loc 1 754 0 discriminator 1
 488 001a 1A42     		tst	r2, r3
 489 001c F5D0     		beq	.L38
 490              	.L37:
 756:Generated_Source\PSoC4/I2C_I2C_MASTER.c ****                                                   I2C_INTR_MASTER_I2C_BUS_ERROR)))
 757:Generated_Source\PSoC4/I2C_I2C_MASTER.c ****         {
 758:Generated_Source\PSoC4/I2C_I2C_MASTER.c ****             /* Wait until byte has been received */
 759:Generated_Source\PSoC4/I2C_I2C_MASTER.c ****         }
 760:Generated_Source\PSoC4/I2C_I2C_MASTER.c **** 
 761:Generated_Source\PSoC4/I2C_I2C_MASTER.c ****         /* Check the results after the byte was sent */
 762:Generated_Source\PSoC4/I2C_I2C_MASTER.c ****         if(I2C_CHECK_INTR_RX(I2C_INTR_RX_NOT_EMPTY))
 491              		.loc 1 762 0
 492 001e 134B     		ldr	r3, .L42+4
 493 0020 1B68     		ldr	r3, [r3]
 494 0022 5B07     		lsls	r3, r3, #29
 495 0024 0DD5     		bpl	.L39
 763:Generated_Source\PSoC4/I2C_I2C_MASTER.c ****         {
 764:Generated_Source\PSoC4/I2C_I2C_MASTER.c ****             theByte = I2C_RX_FIFO_RD_REG;
 496              		.loc 1 764 0
 497 0026 134B     		ldr	r3, .L42+12
 498 0028 1868     		ldr	r0, [r3]
 499              	.LVL42:
 765:Generated_Source\PSoC4/I2C_I2C_MASTER.c **** 
 766:Generated_Source\PSoC4/I2C_I2C_MASTER.c ****             I2C_ClearRxInterruptSource(I2C_INTR_RX_NOT_EMPTY);
 500              		.loc 1 766 0
 501 002a 0422     		movs	r2, #4
 502 002c 0F4B     		ldr	r3, .L42+4
 503 002e 1A60     		str	r2, [r3]
 767:Generated_Source\PSoC4/I2C_I2C_MASTER.c **** 
 768:Generated_Source\PSoC4/I2C_I2C_MASTER.c ****             if(0u == ackNack)
 504              		.loc 1 768 0
 505 0030 0029     		cmp	r1, #0
 506 0032 02D1     		bne	.L40
 769:Generated_Source\PSoC4/I2C_I2C_MASTER.c ****             {
 770:Generated_Source\PSoC4/I2C_I2C_MASTER.c ****                 I2C_I2C_MASTER_GENERATE_ACK;
 507              		.loc 1 770 0
 508 0034 104B     		ldr	r3, .L42+16
 509 0036 1A60     		str	r2, [r3]
 510 0038 15E0     		b	.L36
 511              	.L40:
 771:Generated_Source\PSoC4/I2C_I2C_MASTER.c ****             }
 772:Generated_Source\PSoC4/I2C_I2C_MASTER.c ****             else
 773:Generated_Source\PSoC4/I2C_I2C_MASTER.c ****             {
 774:Generated_Source\PSoC4/I2C_I2C_MASTER.c ****                 /* NACK is generated by Stop or ReStart command */
 775:Generated_Source\PSoC4/I2C_I2C_MASTER.c ****                 I2C_state = I2C_I2C_FSM_MSTR_HALT;
 512              		.loc 1 775 0
 513 003a 6022     		movs	r2, #96
 514 003c 0A4B     		ldr	r3, .L42
 515 003e 1A70     		strb	r2, [r3]
 516 0040 11E0     		b	.L36
 517              	.LVL43:
 518              	.L39:
 776:Generated_Source\PSoC4/I2C_I2C_MASTER.c ****             }
 777:Generated_Source\PSoC4/I2C_I2C_MASTER.c ****         }
 778:Generated_Source\PSoC4/I2C_I2C_MASTER.c ****         else
 779:Generated_Source\PSoC4/I2C_I2C_MASTER.c ****         {
 780:Generated_Source\PSoC4/I2C_I2C_MASTER.c ****             I2C_ClearMasterInterruptSource(I2C_INTR_MASTER_ALL);
ARM GAS  C:\Users\gjl\AppData\Local\Temp\ccHudlr6.s 			page 24


 519              		.loc 1 780 0
 520 0042 0E4A     		ldr	r2, .L42+20
 521 0044 0A4B     		ldr	r3, .L42+8
 522 0046 1A60     		str	r2, [r3]
 781:Generated_Source\PSoC4/I2C_I2C_MASTER.c **** 
 782:Generated_Source\PSoC4/I2C_I2C_MASTER.c ****             /* Reset block in case of: LOST_ARB or BUS_ERR */
 783:Generated_Source\PSoC4/I2C_I2C_MASTER.c ****             I2C_SCB_SW_RESET;
 523              		.loc 1 783 0
 524 0048 0D4A     		ldr	r2, .L42+24
 525 004a 1368     		ldr	r3, [r2]
 526 004c 5B00     		lsls	r3, r3, #1
 527 004e 5B08     		lsrs	r3, r3, #1
 528 0050 1360     		str	r3, [r2]
 529 0052 1368     		ldr	r3, [r2]
 530 0054 8021     		movs	r1, #128
 531 0056 0906     		lsls	r1, r1, #24
 532 0058 0B43     		orrs	r3, r1
 533 005a 1360     		str	r3, [r2]
 749:Generated_Source\PSoC4/I2C_I2C_MASTER.c **** 
 534              		.loc 1 749 0
 535 005c 0120     		movs	r0, #1
 536              	.LVL44:
 537 005e 4042     		rsbs	r0, r0, #0
 538 0060 01E0     		b	.L36
 539              	.LVL45:
 540              	.L41:
 541 0062 0120     		movs	r0, #1
 542              	.LVL46:
 543 0064 4042     		rsbs	r0, r0, #0
 544              	.LVL47:
 545              	.L36:
 784:Generated_Source\PSoC4/I2C_I2C_MASTER.c ****         }
 785:Generated_Source\PSoC4/I2C_I2C_MASTER.c ****     }
 786:Generated_Source\PSoC4/I2C_I2C_MASTER.c **** 
 787:Generated_Source\PSoC4/I2C_I2C_MASTER.c ****     return(theByte);
 788:Generated_Source\PSoC4/I2C_I2C_MASTER.c **** }
 546              		.loc 1 788 0
 547              		@ sp needed
 548 0066 7047     		bx	lr
 549              	.L43:
 550              		.align	2
 551              	.L42:
 552 0068 00000000 		.word	I2C_state
 553 006c C00F2440 		.word	1076105152
 554 0070 000F2440 		.word	1076104960
 555 0074 40032440 		.word	1076101952
 556 0078 68002440 		.word	1076101224
 557 007c 17030000 		.word	791
 558 0080 00002440 		.word	1076101120
 559              		.cfi_endproc
 560              	.LFE7:
 561              		.size	I2C_I2CMasterReadByte, .-I2C_I2CMasterReadByte
 562              		.section	.text.I2C_I2CMasterGetReadBufSize,"ax",%progbits
 563              		.align	2
 564              		.global	I2C_I2CMasterGetReadBufSize
 565              		.code	16
 566              		.thumb_func
ARM GAS  C:\Users\gjl\AppData\Local\Temp\ccHudlr6.s 			page 25


 567              		.type	I2C_I2CMasterGetReadBufSize, %function
 568              	I2C_I2CMasterGetReadBufSize:
 569              	.LFB8:
 789:Generated_Source\PSoC4/I2C_I2C_MASTER.c **** 
 790:Generated_Source\PSoC4/I2C_I2C_MASTER.c **** 
 791:Generated_Source\PSoC4/I2C_I2C_MASTER.c **** /*******************************************************************************
 792:Generated_Source\PSoC4/I2C_I2C_MASTER.c **** * Function Name: I2C_I2CMasterGetReadBufSize
 793:Generated_Source\PSoC4/I2C_I2C_MASTER.c **** ****************************************************************************//**
 794:Generated_Source\PSoC4/I2C_I2C_MASTER.c **** *
 795:Generated_Source\PSoC4/I2C_I2C_MASTER.c **** *  Returns the number of bytes that has been transferred with an
 796:Generated_Source\PSoC4/I2C_I2C_MASTER.c **** *  I2C_I2CMasterReadBuf() function.
 797:Generated_Source\PSoC4/I2C_I2C_MASTER.c **** *
 798:Generated_Source\PSoC4/I2C_I2C_MASTER.c **** * \return
 799:Generated_Source\PSoC4/I2C_I2C_MASTER.c **** *  Byte count of transfer. If the transfer is not yet complete, it returns
 800:Generated_Source\PSoC4/I2C_I2C_MASTER.c **** *  the byte count transferred so far.
 801:Generated_Source\PSoC4/I2C_I2C_MASTER.c **** *
 802:Generated_Source\PSoC4/I2C_I2C_MASTER.c **** * \sideeffect
 803:Generated_Source\PSoC4/I2C_I2C_MASTER.c **** *  This function returns not valid value if 
 804:Generated_Source\PSoC4/I2C_I2C_MASTER.c **** *  I2C_I2C_MSTAT_ERR_ARB_LOST or
 805:Generated_Source\PSoC4/I2C_I2C_MASTER.c **** *  I2C_I2C_MSTAT_ERR_BUS_ERROR occurred while read transfer.
 806:Generated_Source\PSoC4/I2C_I2C_MASTER.c **** *
 807:Generated_Source\PSoC4/I2C_I2C_MASTER.c **** * \globalvars
 808:Generated_Source\PSoC4/I2C_I2C_MASTER.c **** *  I2C_mstrRdBufIndex - used to current index within master read
 809:Generated_Source\PSoC4/I2C_I2C_MASTER.c **** *  buffer.
 810:Generated_Source\PSoC4/I2C_I2C_MASTER.c **** *
 811:Generated_Source\PSoC4/I2C_I2C_MASTER.c **** *******************************************************************************/
 812:Generated_Source\PSoC4/I2C_I2C_MASTER.c **** uint32 I2C_I2CMasterGetReadBufSize(void)
 813:Generated_Source\PSoC4/I2C_I2C_MASTER.c **** {
 570              		.loc 1 813 0
 571              		.cfi_startproc
 572              		@ args = 0, pretend = 0, frame = 0
 573              		@ frame_needed = 0, uses_anonymous_args = 0
 574              		@ link register save eliminated.
 814:Generated_Source\PSoC4/I2C_I2C_MASTER.c ****     return(I2C_mstrRdBufIndex);
 575              		.loc 1 814 0
 576 0000 014B     		ldr	r3, .L45
 577 0002 1868     		ldr	r0, [r3]
 815:Generated_Source\PSoC4/I2C_I2C_MASTER.c **** }
 578              		.loc 1 815 0
 579              		@ sp needed
 580 0004 7047     		bx	lr
 581              	.L46:
 582 0006 C046     		.align	2
 583              	.L45:
 584 0008 00000000 		.word	I2C_mstrRdBufIndex
 585              		.cfi_endproc
 586              	.LFE8:
 587              		.size	I2C_I2CMasterGetReadBufSize, .-I2C_I2CMasterGetReadBufSize
 588              		.section	.text.I2C_I2CMasterGetWriteBufSize,"ax",%progbits
 589              		.align	2
 590              		.global	I2C_I2CMasterGetWriteBufSize
 591              		.code	16
 592              		.thumb_func
 593              		.type	I2C_I2CMasterGetWriteBufSize, %function
 594              	I2C_I2CMasterGetWriteBufSize:
 595              	.LFB9:
 816:Generated_Source\PSoC4/I2C_I2C_MASTER.c **** 
ARM GAS  C:\Users\gjl\AppData\Local\Temp\ccHudlr6.s 			page 26


 817:Generated_Source\PSoC4/I2C_I2C_MASTER.c **** 
 818:Generated_Source\PSoC4/I2C_I2C_MASTER.c **** /*******************************************************************************
 819:Generated_Source\PSoC4/I2C_I2C_MASTER.c **** * Function Name: I2C_I2CMasterGetWriteBufSize
 820:Generated_Source\PSoC4/I2C_I2C_MASTER.c **** ****************************************************************************//**
 821:Generated_Source\PSoC4/I2C_I2C_MASTER.c **** *
 822:Generated_Source\PSoC4/I2C_I2C_MASTER.c **** *  Returns the number of bytes that have been transferred with an
 823:Generated_Source\PSoC4/I2C_I2C_MASTER.c **** *  SCB_I2CMasterWriteBuf() function.
 824:Generated_Source\PSoC4/I2C_I2C_MASTER.c **** *
 825:Generated_Source\PSoC4/I2C_I2C_MASTER.c **** * \return
 826:Generated_Source\PSoC4/I2C_I2C_MASTER.c **** *   Byte count of transfer. If the transfer is not yet complete, it returns
 827:Generated_Source\PSoC4/I2C_I2C_MASTER.c **** *   zero unit transfer completion.
 828:Generated_Source\PSoC4/I2C_I2C_MASTER.c **** *
 829:Generated_Source\PSoC4/I2C_I2C_MASTER.c **** * \sideeffect
 830:Generated_Source\PSoC4/I2C_I2C_MASTER.c **** *   This function returns not valid value if 
 831:Generated_Source\PSoC4/I2C_I2C_MASTER.c **** *   I2C_I2C_MSTAT_ERR_ARB_LOST or 
 832:Generated_Source\PSoC4/I2C_I2C_MASTER.c **** *   I2C_I2C_MSTAT_ERR_BUS_ERROR occurred while read transfer.
 833:Generated_Source\PSoC4/I2C_I2C_MASTER.c **** *
 834:Generated_Source\PSoC4/I2C_I2C_MASTER.c **** * \globalvars
 835:Generated_Source\PSoC4/I2C_I2C_MASTER.c **** *  I2C_mstrWrBufIndex - used to current index within master write
 836:Generated_Source\PSoC4/I2C_I2C_MASTER.c **** *  buffer.
 837:Generated_Source\PSoC4/I2C_I2C_MASTER.c **** *
 838:Generated_Source\PSoC4/I2C_I2C_MASTER.c **** *******************************************************************************/
 839:Generated_Source\PSoC4/I2C_I2C_MASTER.c **** uint32 I2C_I2CMasterGetWriteBufSize(void)
 840:Generated_Source\PSoC4/I2C_I2C_MASTER.c **** {
 596              		.loc 1 840 0
 597              		.cfi_startproc
 598              		@ args = 0, pretend = 0, frame = 0
 599              		@ frame_needed = 0, uses_anonymous_args = 0
 600              		@ link register save eliminated.
 841:Generated_Source\PSoC4/I2C_I2C_MASTER.c ****     return(I2C_mstrWrBufIndex);
 601              		.loc 1 841 0
 602 0000 014B     		ldr	r3, .L48
 603 0002 1868     		ldr	r0, [r3]
 842:Generated_Source\PSoC4/I2C_I2C_MASTER.c **** }
 604              		.loc 1 842 0
 605              		@ sp needed
 606 0004 7047     		bx	lr
 607              	.L49:
 608 0006 C046     		.align	2
 609              	.L48:
 610 0008 00000000 		.word	I2C_mstrWrBufIndex
 611              		.cfi_endproc
 612              	.LFE9:
 613              		.size	I2C_I2CMasterGetWriteBufSize, .-I2C_I2CMasterGetWriteBufSize
 614              		.section	.text.I2C_I2CMasterClearReadBuf,"ax",%progbits
 615              		.align	2
 616              		.global	I2C_I2CMasterClearReadBuf
 617              		.code	16
 618              		.thumb_func
 619              		.type	I2C_I2CMasterClearReadBuf, %function
 620              	I2C_I2CMasterClearReadBuf:
 621              	.LFB10:
 843:Generated_Source\PSoC4/I2C_I2C_MASTER.c **** 
 844:Generated_Source\PSoC4/I2C_I2C_MASTER.c **** 
 845:Generated_Source\PSoC4/I2C_I2C_MASTER.c **** /*******************************************************************************
 846:Generated_Source\PSoC4/I2C_I2C_MASTER.c **** * Function Name: I2C_I2CMasterClearReadBuf
 847:Generated_Source\PSoC4/I2C_I2C_MASTER.c **** ****************************************************************************//**
ARM GAS  C:\Users\gjl\AppData\Local\Temp\ccHudlr6.s 			page 27


 848:Generated_Source\PSoC4/I2C_I2C_MASTER.c **** *
 849:Generated_Source\PSoC4/I2C_I2C_MASTER.c **** *  Resets the read buffer pointer back to the first byte in the buffer.
 850:Generated_Source\PSoC4/I2C_I2C_MASTER.c **** *
 851:Generated_Source\PSoC4/I2C_I2C_MASTER.c **** * \globalvars
 852:Generated_Source\PSoC4/I2C_I2C_MASTER.c **** *  I2C_mstrRdBufIndex - used to current index within master read
 853:Generated_Source\PSoC4/I2C_I2C_MASTER.c **** *   buffer.
 854:Generated_Source\PSoC4/I2C_I2C_MASTER.c **** *  I2C_mstrStatus - used to store current status of I2C Master.
 855:Generated_Source\PSoC4/I2C_I2C_MASTER.c **** *
 856:Generated_Source\PSoC4/I2C_I2C_MASTER.c **** *******************************************************************************/
 857:Generated_Source\PSoC4/I2C_I2C_MASTER.c **** void I2C_I2CMasterClearReadBuf(void)
 858:Generated_Source\PSoC4/I2C_I2C_MASTER.c **** {
 622              		.loc 1 858 0
 623              		.cfi_startproc
 624              		@ args = 0, pretend = 0, frame = 0
 625              		@ frame_needed = 0, uses_anonymous_args = 0
 626 0000 10B5     		push	{r4, lr}
 627              		.cfi_def_cfa_offset 8
 628              		.cfi_offset 4, -8
 629              		.cfi_offset 14, -4
 859:Generated_Source\PSoC4/I2C_I2C_MASTER.c ****     I2C_DisableInt();  /* Lock from interruption */
 630              		.loc 1 859 0
 631 0002 0820     		movs	r0, #8
 632 0004 FFF7FEFF 		bl	CyIntDisable
 633              	.LVL48:
 860:Generated_Source\PSoC4/I2C_I2C_MASTER.c **** 
 861:Generated_Source\PSoC4/I2C_I2C_MASTER.c ****     I2C_mstrRdBufIndex = 0u;
 634              		.loc 1 861 0
 635 0008 0022     		movs	r2, #0
 636 000a 054B     		ldr	r3, .L51
 637 000c 1A60     		str	r2, [r3]
 862:Generated_Source\PSoC4/I2C_I2C_MASTER.c ****     I2C_mstrStatus    &= (uint16) ~I2C_I2C_MSTAT_RD_CMPLT;
 638              		.loc 1 862 0
 639 000e 054A     		ldr	r2, .L51+4
 640 0010 1388     		ldrh	r3, [r2]
 641 0012 0121     		movs	r1, #1
 642 0014 8B43     		bics	r3, r1
 643 0016 1380     		strh	r3, [r2]
 863:Generated_Source\PSoC4/I2C_I2C_MASTER.c **** 
 864:Generated_Source\PSoC4/I2C_I2C_MASTER.c ****     I2C_EnableInt();   /* Release lock */
 644              		.loc 1 864 0
 645 0018 0820     		movs	r0, #8
 646 001a FFF7FEFF 		bl	CyIntEnable
 647              	.LVL49:
 865:Generated_Source\PSoC4/I2C_I2C_MASTER.c **** }
 648              		.loc 1 865 0
 649              		@ sp needed
 650 001e 10BD     		pop	{r4, pc}
 651              	.L52:
 652              		.align	2
 653              	.L51:
 654 0020 00000000 		.word	I2C_mstrRdBufIndex
 655 0024 00000000 		.word	I2C_mstrStatus
 656              		.cfi_endproc
 657              	.LFE10:
 658              		.size	I2C_I2CMasterClearReadBuf, .-I2C_I2CMasterClearReadBuf
 659              		.section	.text.I2C_I2CMasterClearWriteBuf,"ax",%progbits
 660              		.align	2
ARM GAS  C:\Users\gjl\AppData\Local\Temp\ccHudlr6.s 			page 28


 661              		.global	I2C_I2CMasterClearWriteBuf
 662              		.code	16
 663              		.thumb_func
 664              		.type	I2C_I2CMasterClearWriteBuf, %function
 665              	I2C_I2CMasterClearWriteBuf:
 666              	.LFB11:
 866:Generated_Source\PSoC4/I2C_I2C_MASTER.c **** 
 867:Generated_Source\PSoC4/I2C_I2C_MASTER.c **** 
 868:Generated_Source\PSoC4/I2C_I2C_MASTER.c **** /*******************************************************************************
 869:Generated_Source\PSoC4/I2C_I2C_MASTER.c **** * Function Name: I2C_I2CMasterClearWriteBuf
 870:Generated_Source\PSoC4/I2C_I2C_MASTER.c **** ****************************************************************************//**
 871:Generated_Source\PSoC4/I2C_I2C_MASTER.c **** *
 872:Generated_Source\PSoC4/I2C_I2C_MASTER.c **** *  Resets the write buffer pointer back to the first byte in the buffer.
 873:Generated_Source\PSoC4/I2C_I2C_MASTER.c **** *
 874:Generated_Source\PSoC4/I2C_I2C_MASTER.c **** * \globalvars
 875:Generated_Source\PSoC4/I2C_I2C_MASTER.c **** *  I2C_mstrRdBufIndex - used to current index within master read
 876:Generated_Source\PSoC4/I2C_I2C_MASTER.c **** *   buffer.
 877:Generated_Source\PSoC4/I2C_I2C_MASTER.c **** *  I2C_mstrStatus - used to store current status of I2C Master.
 878:Generated_Source\PSoC4/I2C_I2C_MASTER.c **** *
 879:Generated_Source\PSoC4/I2C_I2C_MASTER.c **** *******************************************************************************/
 880:Generated_Source\PSoC4/I2C_I2C_MASTER.c **** void I2C_I2CMasterClearWriteBuf(void)
 881:Generated_Source\PSoC4/I2C_I2C_MASTER.c **** {
 667              		.loc 1 881 0
 668              		.cfi_startproc
 669              		@ args = 0, pretend = 0, frame = 0
 670              		@ frame_needed = 0, uses_anonymous_args = 0
 671 0000 10B5     		push	{r4, lr}
 672              		.cfi_def_cfa_offset 8
 673              		.cfi_offset 4, -8
 674              		.cfi_offset 14, -4
 882:Generated_Source\PSoC4/I2C_I2C_MASTER.c ****     I2C_DisableInt();  /* Lock from interruption */
 675              		.loc 1 882 0
 676 0002 0820     		movs	r0, #8
 677 0004 FFF7FEFF 		bl	CyIntDisable
 678              	.LVL50:
 883:Generated_Source\PSoC4/I2C_I2C_MASTER.c **** 
 884:Generated_Source\PSoC4/I2C_I2C_MASTER.c ****     I2C_mstrWrBufIndex = 0u;
 679              		.loc 1 884 0
 680 0008 0022     		movs	r2, #0
 681 000a 054B     		ldr	r3, .L54
 682 000c 1A60     		str	r2, [r3]
 885:Generated_Source\PSoC4/I2C_I2C_MASTER.c ****     I2C_mstrStatus    &= (uint16) ~I2C_I2C_MSTAT_WR_CMPLT;
 683              		.loc 1 885 0
 684 000e 054A     		ldr	r2, .L54+4
 685 0010 1388     		ldrh	r3, [r2]
 686 0012 0221     		movs	r1, #2
 687 0014 8B43     		bics	r3, r1
 688 0016 1380     		strh	r3, [r2]
 886:Generated_Source\PSoC4/I2C_I2C_MASTER.c **** 
 887:Generated_Source\PSoC4/I2C_I2C_MASTER.c ****     I2C_EnableInt();   /* Release lock */
 689              		.loc 1 887 0
 690 0018 0820     		movs	r0, #8
 691 001a FFF7FEFF 		bl	CyIntEnable
 692              	.LVL51:
 888:Generated_Source\PSoC4/I2C_I2C_MASTER.c **** }
 693              		.loc 1 888 0
 694              		@ sp needed
ARM GAS  C:\Users\gjl\AppData\Local\Temp\ccHudlr6.s 			page 29


 695 001e 10BD     		pop	{r4, pc}
 696              	.L55:
 697              		.align	2
 698              	.L54:
 699 0020 00000000 		.word	I2C_mstrWrBufIndex
 700 0024 00000000 		.word	I2C_mstrStatus
 701              		.cfi_endproc
 702              	.LFE11:
 703              		.size	I2C_I2CMasterClearWriteBuf, .-I2C_I2CMasterClearWriteBuf
 704              		.section	.text.I2C_I2CMasterStatus,"ax",%progbits
 705              		.align	2
 706              		.global	I2C_I2CMasterStatus
 707              		.code	16
 708              		.thumb_func
 709              		.type	I2C_I2CMasterStatus, %function
 710              	I2C_I2CMasterStatus:
 711              	.LFB12:
 889:Generated_Source\PSoC4/I2C_I2C_MASTER.c **** 
 890:Generated_Source\PSoC4/I2C_I2C_MASTER.c **** 
 891:Generated_Source\PSoC4/I2C_I2C_MASTER.c **** /*******************************************************************************
 892:Generated_Source\PSoC4/I2C_I2C_MASTER.c **** * Function Name: I2C_I2CMasterStatus
 893:Generated_Source\PSoC4/I2C_I2C_MASTER.c **** ****************************************************************************//**
 894:Generated_Source\PSoC4/I2C_I2C_MASTER.c **** *
 895:Generated_Source\PSoC4/I2C_I2C_MASTER.c **** *  Returns the master's communication status.
 896:Generated_Source\PSoC4/I2C_I2C_MASTER.c **** *
 897:Generated_Source\PSoC4/I2C_I2C_MASTER.c **** * \return
 898:Generated_Source\PSoC4/I2C_I2C_MASTER.c **** *  Current status of I2C master. This status incorporates status constants. 
 899:Generated_Source\PSoC4/I2C_I2C_MASTER.c **** *  Each constant is a bit field value. The value returned may have multiple 
 900:Generated_Source\PSoC4/I2C_I2C_MASTER.c **** *  bits set to indicate the status of the read or write transfer.
 901:Generated_Source\PSoC4/I2C_I2C_MASTER.c **** *  - I2C_I2C_MSTAT_RD_CMPLT - Read transfer complete.
 902:Generated_Source\PSoC4/I2C_I2C_MASTER.c **** *    The error condition status bits must be checked to ensure that 
 903:Generated_Source\PSoC4/I2C_I2C_MASTER.c **** *    read transfer was completed successfully.
 904:Generated_Source\PSoC4/I2C_I2C_MASTER.c **** *  - I2C_I2C_MSTAT_WR_CMPLT - Write transfer complete.
 905:Generated_Source\PSoC4/I2C_I2C_MASTER.c **** *    The error condition status bits must be checked to ensure that write 
 906:Generated_Source\PSoC4/I2C_I2C_MASTER.c **** *    transfer was completed successfully.
 907:Generated_Source\PSoC4/I2C_I2C_MASTER.c **** *  - I2C_I2C_MSTAT_XFER_INP - Transfer in progress.
 908:Generated_Source\PSoC4/I2C_I2C_MASTER.c **** *  - I2C_I2C_MSTAT_XFER_HALT - Transfer has been halted. 
 909:Generated_Source\PSoC4/I2C_I2C_MASTER.c **** *    The I2C bus is waiting for ReStart or Stop condition generation.
 910:Generated_Source\PSoC4/I2C_I2C_MASTER.c **** *  - I2C_I2C_MSTAT_ERR_SHORT_XFER - Error condition: Write 
 911:Generated_Source\PSoC4/I2C_I2C_MASTER.c **** *    transfer completed before all bytes were transferred. The slave NAKed 
 912:Generated_Source\PSoC4/I2C_I2C_MASTER.c **** *    the byte which was expected to be ACKed.
 913:Generated_Source\PSoC4/I2C_I2C_MASTER.c **** *  - I2C_I2C_MSTAT_ERR_ADDR_NAK - Error condition: Slave did 
 914:Generated_Source\PSoC4/I2C_I2C_MASTER.c **** *    not acknowledge address.
 915:Generated_Source\PSoC4/I2C_I2C_MASTER.c **** *  - I2C_I2C_MSTAT_ERR_ARB_LOST - Error condition: Master lost 
 916:Generated_Source\PSoC4/I2C_I2C_MASTER.c **** *    arbitration during communications with slave.
 917:Generated_Source\PSoC4/I2C_I2C_MASTER.c **** *  - I2C_I2C_MSTAT_ERR_BUS_ERROR - Error condition: bus error 
 918:Generated_Source\PSoC4/I2C_I2C_MASTER.c **** *    occurred during master transfer due to misplaced Start or Stop 
 919:Generated_Source\PSoC4/I2C_I2C_MASTER.c **** *    condition on the bus.
 920:Generated_Source\PSoC4/I2C_I2C_MASTER.c **** *  - I2C_I2C_MSTAT_ERR_ABORT_XFER - Error condition: Slave was 
 921:Generated_Source\PSoC4/I2C_I2C_MASTER.c **** *    addressed by another master while master performed the start condition 
 922:Generated_Source\PSoC4/I2C_I2C_MASTER.c **** *    generation. As a result, master has automatically switched to slave 
 923:Generated_Source\PSoC4/I2C_I2C_MASTER.c **** *    mode and is responding. The master transaction has not taken place
 924:Generated_Source\PSoC4/I2C_I2C_MASTER.c **** *    This error condition only applicable for Multi-Master-Slave mode.
 925:Generated_Source\PSoC4/I2C_I2C_MASTER.c **** *  - I2C_I2C_MSTAT_ERR_XFER - Error condition: This is the 
 926:Generated_Source\PSoC4/I2C_I2C_MASTER.c **** *    ORed value of all error conditions provided above.
 927:Generated_Source\PSoC4/I2C_I2C_MASTER.c **** *
 928:Generated_Source\PSoC4/I2C_I2C_MASTER.c **** * \globalvars
ARM GAS  C:\Users\gjl\AppData\Local\Temp\ccHudlr6.s 			page 30


 929:Generated_Source\PSoC4/I2C_I2C_MASTER.c **** *  I2C_mstrStatus - used to store current status of I2C Master.
 930:Generated_Source\PSoC4/I2C_I2C_MASTER.c **** *
 931:Generated_Source\PSoC4/I2C_I2C_MASTER.c **** *******************************************************************************/
 932:Generated_Source\PSoC4/I2C_I2C_MASTER.c **** uint32 I2C_I2CMasterStatus(void)
 933:Generated_Source\PSoC4/I2C_I2C_MASTER.c **** {
 712              		.loc 1 933 0
 713              		.cfi_startproc
 714              		@ args = 0, pretend = 0, frame = 0
 715              		@ frame_needed = 0, uses_anonymous_args = 0
 716 0000 10B5     		push	{r4, lr}
 717              		.cfi_def_cfa_offset 8
 718              		.cfi_offset 4, -8
 719              		.cfi_offset 14, -4
 934:Generated_Source\PSoC4/I2C_I2C_MASTER.c ****     uint32 status;
 935:Generated_Source\PSoC4/I2C_I2C_MASTER.c **** 
 936:Generated_Source\PSoC4/I2C_I2C_MASTER.c ****     I2C_DisableInt();  /* Lock from interruption */
 720              		.loc 1 936 0
 721 0002 0820     		movs	r0, #8
 722 0004 FFF7FEFF 		bl	CyIntDisable
 723              	.LVL52:
 937:Generated_Source\PSoC4/I2C_I2C_MASTER.c **** 
 938:Generated_Source\PSoC4/I2C_I2C_MASTER.c ****     status = (uint32) I2C_mstrStatus;
 724              		.loc 1 938 0
 725 0008 074B     		ldr	r3, .L58
 726 000a 1C88     		ldrh	r4, [r3]
 727 000c A2B2     		uxth	r2, r4
 728 000e 1400     		movs	r4, r2
 729              	.LVL53:
 939:Generated_Source\PSoC4/I2C_I2C_MASTER.c **** 
 940:Generated_Source\PSoC4/I2C_I2C_MASTER.c ****     if (I2C_CHECK_I2C_MASTER_ACTIVE)
 730              		.loc 1 940 0
 731 0010 064B     		ldr	r3, .L58+4
 732 0012 1B78     		ldrb	r3, [r3]
 733 0014 9B06     		lsls	r3, r3, #26
 734 0016 02D5     		bpl	.L57
 941:Generated_Source\PSoC4/I2C_I2C_MASTER.c ****     {
 942:Generated_Source\PSoC4/I2C_I2C_MASTER.c ****         /* Add status of master pending transaction: MSTAT_XFER_INP */
 943:Generated_Source\PSoC4/I2C_I2C_MASTER.c ****         status |= (uint32) I2C_I2C_MSTAT_XFER_INP;
 735              		.loc 1 943 0
 736 0018 0423     		movs	r3, #4
 737 001a 1A43     		orrs	r2, r3
 738              	.LVL54:
 739 001c 94B2     		uxth	r4, r2
 740              	.LVL55:
 741              	.L57:
 944:Generated_Source\PSoC4/I2C_I2C_MASTER.c ****     }
 945:Generated_Source\PSoC4/I2C_I2C_MASTER.c **** 
 946:Generated_Source\PSoC4/I2C_I2C_MASTER.c ****     I2C_EnableInt();   /* Release lock */
 742              		.loc 1 946 0
 743 001e 0820     		movs	r0, #8
 744 0020 FFF7FEFF 		bl	CyIntEnable
 745              	.LVL56:
 947:Generated_Source\PSoC4/I2C_I2C_MASTER.c **** 
 948:Generated_Source\PSoC4/I2C_I2C_MASTER.c ****     return(status);
 949:Generated_Source\PSoC4/I2C_I2C_MASTER.c **** }
 746              		.loc 1 949 0
 747 0024 2000     		movs	r0, r4
ARM GAS  C:\Users\gjl\AppData\Local\Temp\ccHudlr6.s 			page 31


 748              		@ sp needed
 749              	.LVL57:
 750 0026 10BD     		pop	{r4, pc}
 751              	.L59:
 752              		.align	2
 753              	.L58:
 754 0028 00000000 		.word	I2C_mstrStatus
 755 002c 00000000 		.word	I2C_state
 756              		.cfi_endproc
 757              	.LFE12:
 758              		.size	I2C_I2CMasterStatus, .-I2C_I2CMasterStatus
 759              		.section	.text.I2C_I2CMasterClearStatus,"ax",%progbits
 760              		.align	2
 761              		.global	I2C_I2CMasterClearStatus
 762              		.code	16
 763              		.thumb_func
 764              		.type	I2C_I2CMasterClearStatus, %function
 765              	I2C_I2CMasterClearStatus:
 766              	.LFB13:
 950:Generated_Source\PSoC4/I2C_I2C_MASTER.c **** 
 951:Generated_Source\PSoC4/I2C_I2C_MASTER.c **** 
 952:Generated_Source\PSoC4/I2C_I2C_MASTER.c **** /*******************************************************************************
 953:Generated_Source\PSoC4/I2C_I2C_MASTER.c **** * Function Name: I2C_I2CMasterClearStatus
 954:Generated_Source\PSoC4/I2C_I2C_MASTER.c **** ****************************************************************************//**
 955:Generated_Source\PSoC4/I2C_I2C_MASTER.c **** *
 956:Generated_Source\PSoC4/I2C_I2C_MASTER.c **** *  Clears all status flags and returns the master status.
 957:Generated_Source\PSoC4/I2C_I2C_MASTER.c **** *
 958:Generated_Source\PSoC4/I2C_I2C_MASTER.c **** * \return
 959:Generated_Source\PSoC4/I2C_I2C_MASTER.c **** *  Current status of master. See the I2C_I2CMasterStatus() 
 960:Generated_Source\PSoC4/I2C_I2C_MASTER.c **** *  function for constants.
 961:Generated_Source\PSoC4/I2C_I2C_MASTER.c **** *
 962:Generated_Source\PSoC4/I2C_I2C_MASTER.c **** * \globalvars
 963:Generated_Source\PSoC4/I2C_I2C_MASTER.c **** *  I2C_mstrStatus - used to store current status of I2C Master.
 964:Generated_Source\PSoC4/I2C_I2C_MASTER.c **** *
 965:Generated_Source\PSoC4/I2C_I2C_MASTER.c **** *******************************************************************************/
 966:Generated_Source\PSoC4/I2C_I2C_MASTER.c **** uint32 I2C_I2CMasterClearStatus(void)
 967:Generated_Source\PSoC4/I2C_I2C_MASTER.c **** {
 767              		.loc 1 967 0
 768              		.cfi_startproc
 769              		@ args = 0, pretend = 0, frame = 0
 770              		@ frame_needed = 0, uses_anonymous_args = 0
 771 0000 10B5     		push	{r4, lr}
 772              		.cfi_def_cfa_offset 8
 773              		.cfi_offset 4, -8
 774              		.cfi_offset 14, -4
 968:Generated_Source\PSoC4/I2C_I2C_MASTER.c ****     uint32 status;
 969:Generated_Source\PSoC4/I2C_I2C_MASTER.c **** 
 970:Generated_Source\PSoC4/I2C_I2C_MASTER.c ****     I2C_DisableInt();  /* Lock from interruption */
 775              		.loc 1 970 0
 776 0002 0820     		movs	r0, #8
 777 0004 FFF7FEFF 		bl	CyIntDisable
 778              	.LVL58:
 971:Generated_Source\PSoC4/I2C_I2C_MASTER.c **** 
 972:Generated_Source\PSoC4/I2C_I2C_MASTER.c ****     /* Read and clear master status */
 973:Generated_Source\PSoC4/I2C_I2C_MASTER.c ****     status = (uint32) I2C_mstrStatus;
 779              		.loc 1 973 0
 780 0008 044B     		ldr	r3, .L61
ARM GAS  C:\Users\gjl\AppData\Local\Temp\ccHudlr6.s 			page 32


 781 000a 1C88     		ldrh	r4, [r3]
 782 000c A4B2     		uxth	r4, r4
 783              	.LVL59:
 974:Generated_Source\PSoC4/I2C_I2C_MASTER.c ****     I2C_mstrStatus = I2C_I2C_MSTAT_CLEAR;
 784              		.loc 1 974 0
 785 000e 0022     		movs	r2, #0
 786 0010 1A80     		strh	r2, [r3]
 975:Generated_Source\PSoC4/I2C_I2C_MASTER.c **** 
 976:Generated_Source\PSoC4/I2C_I2C_MASTER.c ****     I2C_EnableInt();   /* Release lock */
 787              		.loc 1 976 0
 788 0012 0820     		movs	r0, #8
 789 0014 FFF7FEFF 		bl	CyIntEnable
 790              	.LVL60:
 977:Generated_Source\PSoC4/I2C_I2C_MASTER.c **** 
 978:Generated_Source\PSoC4/I2C_I2C_MASTER.c ****     return(status);
 979:Generated_Source\PSoC4/I2C_I2C_MASTER.c **** }
 791              		.loc 1 979 0
 792 0018 2000     		movs	r0, r4
 793              		@ sp needed
 794              	.LVL61:
 795 001a 10BD     		pop	{r4, pc}
 796              	.L62:
 797              		.align	2
 798              	.L61:
 799 001c 00000000 		.word	I2C_mstrStatus
 800              		.cfi_endproc
 801              	.LFE13:
 802              		.size	I2C_I2CMasterClearStatus, .-I2C_I2CMasterClearStatus
 803              		.section	.text.I2C_I2CReStartGeneration,"ax",%progbits
 804              		.align	2
 805              		.global	I2C_I2CReStartGeneration
 806              		.code	16
 807              		.thumb_func
 808              		.type	I2C_I2CReStartGeneration, %function
 809              	I2C_I2CReStartGeneration:
 810              	.LFB14:
 980:Generated_Source\PSoC4/I2C_I2C_MASTER.c **** 
 981:Generated_Source\PSoC4/I2C_I2C_MASTER.c **** 
 982:Generated_Source\PSoC4/I2C_I2C_MASTER.c **** /*******************************************************************************
 983:Generated_Source\PSoC4/I2C_I2C_MASTER.c **** * Function Name: I2C_I2CReStartGeneration
 984:Generated_Source\PSoC4/I2C_I2C_MASTER.c **** ****************************************************************************//**
 985:Generated_Source\PSoC4/I2C_I2C_MASTER.c **** *
 986:Generated_Source\PSoC4/I2C_I2C_MASTER.c **** *  Generates a ReStart condition:
 987:Generated_Source\PSoC4/I2C_I2C_MASTER.c **** *  - SCB IP V1 and later: Generates ReStart using the scb IP functionality
 988:Generated_Source\PSoC4/I2C_I2C_MASTER.c **** *    Sets the I2C_MASTER_CMD_M_START and I2C_MASTER_CMD_M_NACK (if the previous
 989:Generated_Source\PSoC4/I2C_I2C_MASTER.c **** *    transaction was read) bits in the SCB.I2C_MASTER_CMD register.
 990:Generated_Source\PSoC4/I2C_I2C_MASTER.c **** *    This combination forces the master to generate ReStart.
 991:Generated_Source\PSoC4/I2C_I2C_MASTER.c **** *
 992:Generated_Source\PSoC4/I2C_I2C_MASTER.c **** *  - SCB IP V0: Generates Restart using the GPIO and scb IP functionality.
 993:Generated_Source\PSoC4/I2C_I2C_MASTER.c **** *    After the master completes write or read, the SCL is stretched.
 994:Generated_Source\PSoC4/I2C_I2C_MASTER.c **** *    The master waits until SDA line is released by the slave. Then the GPIO
 995:Generated_Source\PSoC4/I2C_I2C_MASTER.c **** *    function is enabled and the scb IP disabled as it already does not drive
 996:Generated_Source\PSoC4/I2C_I2C_MASTER.c **** *    the bus. In case of the previous transfer was read, the NACK is generated
 997:Generated_Source\PSoC4/I2C_I2C_MASTER.c **** *    by the GPIO. The delay of tLOW is added to manage the hold time.
 998:Generated_Source\PSoC4/I2C_I2C_MASTER.c **** *    Set I2C_M_CMD.START and enable the scb IP. The ReStart generation
 999:Generated_Source\PSoC4/I2C_I2C_MASTER.c **** *    is started after the I2C function is enabled for the SCL.
1000:Generated_Source\PSoC4/I2C_I2C_MASTER.c **** *    Note1: the scb IP due re-enable generates Start but on the I2C bus it
ARM GAS  C:\Users\gjl\AppData\Local\Temp\ccHudlr6.s 			page 33


1001:Generated_Source\PSoC4/I2C_I2C_MASTER.c **** *           appears as ReStart.
1002:Generated_Source\PSoC4/I2C_I2C_MASTER.c **** *    Note2: the I2C_M_CMD.START is queued if scb IP is disabled.
1003:Generated_Source\PSoC4/I2C_I2C_MASTER.c **** *    Note3: the I2C_STATUS_M_READ is cleared is address was NACKed before.
1004:Generated_Source\PSoC4/I2C_I2C_MASTER.c **** *
1005:Generated_Source\PSoC4/I2C_I2C_MASTER.c **** * \sideeffect
1006:Generated_Source\PSoC4/I2C_I2C_MASTER.c **** *  SCB IP V0: The NACK generation by the GPIO may cause a greater SCL period
1007:Generated_Source\PSoC4/I2C_I2C_MASTER.c **** *             than expected for the selected master data rate.
1008:Generated_Source\PSoC4/I2C_I2C_MASTER.c **** *
1009:Generated_Source\PSoC4/I2C_I2C_MASTER.c **** *******************************************************************************/
1010:Generated_Source\PSoC4/I2C_I2C_MASTER.c **** void I2C_I2CReStartGeneration(void)
1011:Generated_Source\PSoC4/I2C_I2C_MASTER.c **** {
 811              		.loc 1 1011 0
 812              		.cfi_startproc
 813              		@ args = 0, pretend = 0, frame = 0
 814              		@ frame_needed = 0, uses_anonymous_args = 0
 815              		@ link register save eliminated.
 816              	.LVL62:
1012:Generated_Source\PSoC4/I2C_I2C_MASTER.c **** #if(I2C_CY_SCBIP_V0)
1013:Generated_Source\PSoC4/I2C_I2C_MASTER.c ****     /* Generates Restart use GPIO and scb IP functionality. Ticket ID#143715,
1014:Generated_Source\PSoC4/I2C_I2C_MASTER.c ****     * ID#145238 and ID#173656.
1015:Generated_Source\PSoC4/I2C_I2C_MASTER.c ****     */
1016:Generated_Source\PSoC4/I2C_I2C_MASTER.c ****     uint32 status = I2C_I2C_STATUS_REG;
1017:Generated_Source\PSoC4/I2C_I2C_MASTER.c **** 
1018:Generated_Source\PSoC4/I2C_I2C_MASTER.c ****     while(I2C_WAIT_SDA_SET_HIGH)
1019:Generated_Source\PSoC4/I2C_I2C_MASTER.c ****     {
1020:Generated_Source\PSoC4/I2C_I2C_MASTER.c ****         /* Wait when slave release SDA line: SCL tHIGH is complete */
1021:Generated_Source\PSoC4/I2C_I2C_MASTER.c ****     }
1022:Generated_Source\PSoC4/I2C_I2C_MASTER.c **** 
1023:Generated_Source\PSoC4/I2C_I2C_MASTER.c ****     /* Prepare DR register to drive SCL line */
1024:Generated_Source\PSoC4/I2C_I2C_MASTER.c ****     I2C_SET_I2C_SCL_DR(I2C_I2C_SCL_LOW);
1025:Generated_Source\PSoC4/I2C_I2C_MASTER.c **** 
1026:Generated_Source\PSoC4/I2C_I2C_MASTER.c ****     /* Switch HSIOM to GPIO: SCL goes low */
1027:Generated_Source\PSoC4/I2C_I2C_MASTER.c ****     I2C_SET_I2C_SCL_HSIOM_SEL(I2C_HSIOM_GPIO_SEL);
1028:Generated_Source\PSoC4/I2C_I2C_MASTER.c **** 
1029:Generated_Source\PSoC4/I2C_I2C_MASTER.c ****     /* Disable SCB block */
1030:Generated_Source\PSoC4/I2C_I2C_MASTER.c ****     I2C_CTRL_REG &= (uint32) ~I2C_CTRL_ENABLED;
1031:Generated_Source\PSoC4/I2C_I2C_MASTER.c **** 
1032:Generated_Source\PSoC4/I2C_I2C_MASTER.c ****     if(0u != (status & I2C_I2C_STATUS_M_READ))
1033:Generated_Source\PSoC4/I2C_I2C_MASTER.c ****     {
1034:Generated_Source\PSoC4/I2C_I2C_MASTER.c ****         /* Generate NACK use GPIO functionality */
1035:Generated_Source\PSoC4/I2C_I2C_MASTER.c ****         I2C_SET_I2C_SCL_DR(I2C_I2C_SCL_LOW);
1036:Generated_Source\PSoC4/I2C_I2C_MASTER.c ****         CyDelayUs(I2C_I2C_TLOW_TIME); /* Count tLOW */
1037:Generated_Source\PSoC4/I2C_I2C_MASTER.c **** 
1038:Generated_Source\PSoC4/I2C_I2C_MASTER.c ****         I2C_SET_I2C_SCL_DR(I2C_I2C_SCL_HIGH);
1039:Generated_Source\PSoC4/I2C_I2C_MASTER.c ****         while(I2C_WAIT_SCL_SET_HIGH)
1040:Generated_Source\PSoC4/I2C_I2C_MASTER.c ****         {
1041:Generated_Source\PSoC4/I2C_I2C_MASTER.c ****             /* Wait until slave releases SCL in case if it stretches */
1042:Generated_Source\PSoC4/I2C_I2C_MASTER.c ****         }
1043:Generated_Source\PSoC4/I2C_I2C_MASTER.c ****         CyDelayUs(I2C_I2C_THIGH_TIME); /* Count tHIGH */
1044:Generated_Source\PSoC4/I2C_I2C_MASTER.c ****     }
1045:Generated_Source\PSoC4/I2C_I2C_MASTER.c **** 
1046:Generated_Source\PSoC4/I2C_I2C_MASTER.c ****     /* Count tLOW as hold time for write and read */
1047:Generated_Source\PSoC4/I2C_I2C_MASTER.c ****     I2C_SET_I2C_SCL_DR(I2C_I2C_SCL_LOW);
1048:Generated_Source\PSoC4/I2C_I2C_MASTER.c ****     CyDelayUs(I2C_I2C_TLOW_TIME); /* Count tLOW */
1049:Generated_Source\PSoC4/I2C_I2C_MASTER.c **** 
1050:Generated_Source\PSoC4/I2C_I2C_MASTER.c ****     /* Set command for Start generation: it will appear */
1051:Generated_Source\PSoC4/I2C_I2C_MASTER.c ****     I2C_I2C_MASTER_CMD_REG = I2C_I2C_MASTER_CMD_M_START;
ARM GAS  C:\Users\gjl\AppData\Local\Temp\ccHudlr6.s 			page 34


1052:Generated_Source\PSoC4/I2C_I2C_MASTER.c **** 
1053:Generated_Source\PSoC4/I2C_I2C_MASTER.c ****     /* Enable SCB block */
1054:Generated_Source\PSoC4/I2C_I2C_MASTER.c ****     I2C_CTRL_REG |= (uint32) I2C_CTRL_ENABLED;
1055:Generated_Source\PSoC4/I2C_I2C_MASTER.c **** 
1056:Generated_Source\PSoC4/I2C_I2C_MASTER.c ****     /* Switch HSIOM to I2C: */
1057:Generated_Source\PSoC4/I2C_I2C_MASTER.c ****     I2C_SET_I2C_SCL_HSIOM_SEL(I2C_HSIOM_I2C_SEL);
1058:Generated_Source\PSoC4/I2C_I2C_MASTER.c **** 
1059:Generated_Source\PSoC4/I2C_I2C_MASTER.c ****     /* Revert SCL DR register */
1060:Generated_Source\PSoC4/I2C_I2C_MASTER.c ****     I2C_SET_I2C_SCL_DR(I2C_I2C_SCL_HIGH);
1061:Generated_Source\PSoC4/I2C_I2C_MASTER.c **** #else
1062:Generated_Source\PSoC4/I2C_I2C_MASTER.c ****     uint32 cmd;
1063:Generated_Source\PSoC4/I2C_I2C_MASTER.c **** 
1064:Generated_Source\PSoC4/I2C_I2C_MASTER.c ****     /* Generates ReStart use scb IP functionality */
1065:Generated_Source\PSoC4/I2C_I2C_MASTER.c ****     cmd  = I2C_I2C_MASTER_CMD_M_START;
1066:Generated_Source\PSoC4/I2C_I2C_MASTER.c ****     cmd |= I2C_CHECK_I2C_STATUS(I2C_I2C_STATUS_M_READ) ?
 817              		.loc 1 1066 0
 818 0000 054B     		ldr	r3, .L65
 819 0002 1B68     		ldr	r3, [r3]
 820 0004 2022     		movs	r2, #32
 821 0006 1340     		ands	r3, r2
1067:Generated_Source\PSoC4/I2C_I2C_MASTER.c ****                 (I2C_I2C_MASTER_CMD_M_NACK) : (0u);
 822              		.loc 1 1067 0
 823 0008 00D0     		beq	.L64
 824 000a 0823     		movs	r3, #8
 825              	.L64:
1066:Generated_Source\PSoC4/I2C_I2C_MASTER.c ****                 (I2C_I2C_MASTER_CMD_M_NACK) : (0u);
 826              		.loc 1 1066 0 discriminator 4
 827 000c 0122     		movs	r2, #1
 828 000e 1343     		orrs	r3, r2
 829              	.LVL63:
1068:Generated_Source\PSoC4/I2C_I2C_MASTER.c **** 
1069:Generated_Source\PSoC4/I2C_I2C_MASTER.c ****     I2C_I2C_MASTER_CMD_REG = cmd;
 830              		.loc 1 1069 0 discriminator 4
 831 0010 024A     		ldr	r2, .L65+4
 832 0012 1360     		str	r3, [r2]
1070:Generated_Source\PSoC4/I2C_I2C_MASTER.c **** #endif /* (I2C_CY_SCBIP_V1) */
1071:Generated_Source\PSoC4/I2C_I2C_MASTER.c **** }
 833              		.loc 1 1071 0 discriminator 4
 834              		@ sp needed
 835 0014 7047     		bx	lr
 836              	.L66:
 837 0016 C046     		.align	2
 838              	.L65:
 839 0018 64002440 		.word	1076101220
 840 001c 68002440 		.word	1076101224
 841              		.cfi_endproc
 842              	.LFE14:
 843              		.size	I2C_I2CReStartGeneration, .-I2C_I2CReStartGeneration
 844              		.section	.text.I2C_I2CMasterWriteBuf,"ax",%progbits
 845              		.align	2
 846              		.global	I2C_I2CMasterWriteBuf
 847              		.code	16
 848              		.thumb_func
 849              		.type	I2C_I2CMasterWriteBuf, %function
 850              	I2C_I2CMasterWriteBuf:
 851              	.LFB1:
  99:Generated_Source\PSoC4/I2C_I2C_MASTER.c ****     uint32 errStatus;
ARM GAS  C:\Users\gjl\AppData\Local\Temp\ccHudlr6.s 			page 35


 852              		.loc 1 99 0
 853              		.cfi_startproc
 854              		@ args = 0, pretend = 0, frame = 8
 855              		@ frame_needed = 0, uses_anonymous_args = 0
 856              	.LVL64:
 857 0000 F0B5     		push	{r4, r5, r6, r7, lr}
 858              		.cfi_def_cfa_offset 20
 859              		.cfi_offset 4, -20
 860              		.cfi_offset 5, -16
 861              		.cfi_offset 6, -12
 862              		.cfi_offset 7, -8
 863              		.cfi_offset 14, -4
 864 0002 83B0     		sub	sp, sp, #12
 865              		.cfi_def_cfa_offset 32
 866 0004 0190     		str	r0, [sp, #4]
 867 0006 0C00     		movs	r4, r1
 868 0008 1700     		movs	r7, r2
 869 000a 1D00     		movs	r5, r3
 870              	.LVL65:
 104:Generated_Source\PSoC4/I2C_I2C_MASTER.c ****     {
 871              		.loc 1 104 0
 872 000c 0029     		cmp	r1, #0
 873 000e 17D0     		beq	.L72
 107:Generated_Source\PSoC4/I2C_I2C_MASTER.c ****         {
 874              		.loc 1 107 0
 875 0010 284B     		ldr	r3, .L75
 876              	.LVL66:
 877 0012 1B78     		ldrb	r3, [r3]
 878 0014 102B     		cmp	r3, #16
 879 0016 08D1     		bne	.L69
 109:Generated_Source\PSoC4/I2C_I2C_MASTER.c **** 
 880              		.loc 1 109 0
 881 0018 0820     		movs	r0, #8
 882              	.LVL67:
 883 001a FFF7FEFF 		bl	CyIntDisable
 884              	.LVL68:
 112:Generated_Source\PSoC4/I2C_I2C_MASTER.c ****                             I2C_I2C_MSTR_BUS_BUSY : I2C_I2C_MSTR_NO_ERROR;
 885              		.loc 1 112 0
 886 001e 264B     		ldr	r3, .L75+4
 887 0020 1B68     		ldr	r3, [r3]
 888 0022 DB07     		lsls	r3, r3, #31
 889 0024 0ED5     		bpl	.L73
 890 0026 0826     		movs	r6, #8
 891 0028 0FE0     		b	.L68
 892              	.LVL69:
 893              	.L69:
 115:Generated_Source\PSoC4/I2C_I2C_MASTER.c ****         {
 894              		.loc 1 115 0
 895 002a 224B     		ldr	r3, .L75
 896 002c 1B78     		ldrb	r3, [r3]
 897 002e 602B     		cmp	r3, #96
 898 0030 0AD1     		bne	.L74
 117:Generated_Source\PSoC4/I2C_I2C_MASTER.c ****                               errStatus  = I2C_I2C_MSTR_NO_ERROR;
 899              		.loc 1 117 0
 900 0032 224A     		ldr	r2, .L75+8
 901              	.LVL70:
 902 0034 1388     		ldrh	r3, [r2]
ARM GAS  C:\Users\gjl\AppData\Local\Temp\ccHudlr6.s 			page 36


 903 0036 0821     		movs	r1, #8
 904              	.LVL71:
 905 0038 8B43     		bics	r3, r1
 906 003a 1380     		strh	r3, [r2]
 907              	.LVL72:
 118:Generated_Source\PSoC4/I2C_I2C_MASTER.c ****         }
 908              		.loc 1 118 0
 909 003c 0026     		movs	r6, #0
 910 003e 04E0     		b	.L68
 911              	.LVL73:
 912              	.L72:
 102:Generated_Source\PSoC4/I2C_I2C_MASTER.c **** 
 913              		.loc 1 102 0
 914 0040 0426     		movs	r6, #4
 915 0042 02E0     		b	.L68
 916              	.LVL74:
 917              	.L73:
 112:Generated_Source\PSoC4/I2C_I2C_MASTER.c ****                             I2C_I2C_MSTR_BUS_BUSY : I2C_I2C_MSTR_NO_ERROR;
 918              		.loc 1 112 0
 919 0044 0026     		movs	r6, #0
 920 0046 00E0     		b	.L68
 921              	.LVL75:
 922              	.L74:
 102:Generated_Source\PSoC4/I2C_I2C_MASTER.c **** 
 923              		.loc 1 102 0
 924 0048 0426     		movs	r6, #4
 925              	.LVL76:
 926              	.L68:
 127:Generated_Source\PSoC4/I2C_I2C_MASTER.c ****     {
 927              		.loc 1 127 0
 928 004a 002E     		cmp	r6, #0
 929 004c 2BD1     		bne	.L70
 135:Generated_Source\PSoC4/I2C_I2C_MASTER.c ****         I2C_mstrWrBufIndexTmp = 0u;
 930              		.loc 1 135 0
 931 004e 2822     		movs	r2, #40
 932 0050 184B     		ldr	r3, .L75
 933 0052 1A70     		strb	r2, [r3]
 136:Generated_Source\PSoC4/I2C_I2C_MASTER.c ****         I2C_mstrWrBufIndex    = 0u;
 934              		.loc 1 136 0
 935 0054 0023     		movs	r3, #0
 936 0056 1A4A     		ldr	r2, .L75+12
 937 0058 1360     		str	r3, [r2]
 137:Generated_Source\PSoC4/I2C_I2C_MASTER.c ****         I2C_mstrWrBufSize     = cnt;
 938              		.loc 1 137 0
 939 005a 1A4A     		ldr	r2, .L75+16
 940 005c 1360     		str	r3, [r2]
 138:Generated_Source\PSoC4/I2C_I2C_MASTER.c ****         I2C_mstrWrBufPtr      = (volatile uint8 *) wrData;
 941              		.loc 1 138 0
 942 005e 1A4B     		ldr	r3, .L75+20
 943 0060 1F60     		str	r7, [r3]
 139:Generated_Source\PSoC4/I2C_I2C_MASTER.c ****         I2C_mstrControl       = (uint8) mode;
 944              		.loc 1 139 0
 945 0062 1A4B     		ldr	r3, .L75+24
 946 0064 1C60     		str	r4, [r3]
 140:Generated_Source\PSoC4/I2C_I2C_MASTER.c **** 
 947              		.loc 1 140 0
 948 0066 EAB2     		uxtb	r2, r5
ARM GAS  C:\Users\gjl\AppData\Local\Temp\ccHudlr6.s 			page 37


 949 0068 194B     		ldr	r3, .L75+28
 950 006a 1A70     		strb	r2, [r3]
 142:Generated_Source\PSoC4/I2C_I2C_MASTER.c **** 
 951              		.loc 1 142 0
 952 006c 019B     		ldr	r3, [sp, #4]
 953 006e 5C00     		lsls	r4, r3, #1
 954              	.LVL77:
 955 0070 FF23     		movs	r3, #255
 956 0072 1C40     		ands	r4, r3
 957              	.LVL78:
 144:Generated_Source\PSoC4/I2C_I2C_MASTER.c **** 
 958              		.loc 1 144 0
 959 0074 114A     		ldr	r2, .L75+8
 960 0076 1388     		ldrh	r3, [r2]
 961 0078 0221     		movs	r1, #2
 962 007a 8B43     		bics	r3, r1
 963 007c 1380     		strh	r3, [r2]
 146:Generated_Source\PSoC4/I2C_I2C_MASTER.c ****         I2C_ClearTxInterruptSource(I2C_INTR_TX_UNDERFLOW);
 964              		.loc 1 146 0
 965 007e 154A     		ldr	r2, .L75+32
 966 0080 154B     		ldr	r3, .L75+36
 967 0082 1A60     		str	r2, [r3]
 968              	.LVL79:
 147:Generated_Source\PSoC4/I2C_I2C_MASTER.c **** 
 969              		.loc 1 147 0
 970 0084 4023     		movs	r3, #64
 971 0086 154A     		ldr	r2, .L75+40
 972 0088 1360     		str	r3, [r2]
 152:Generated_Source\PSoC4/I2C_I2C_MASTER.c **** 
 973              		.loc 1 152 0
 974 008a 154A     		ldr	r2, .L75+44
 975 008c 1360     		str	r3, [r2]
 155:Generated_Source\PSoC4/I2C_I2C_MASTER.c ****         {
 976              		.loc 1 155 0
 977 008e EB07     		lsls	r3, r5, #31
 978 0090 04D5     		bpl	.L71
 157:Generated_Source\PSoC4/I2C_I2C_MASTER.c ****             I2C_TX_FIFO_WR_REG = slaveAddress;
 979              		.loc 1 157 0
 980 0092 FFF7FEFF 		bl	I2C_I2CReStartGeneration
 981              	.LVL80:
 158:Generated_Source\PSoC4/I2C_I2C_MASTER.c ****         }
 982              		.loc 1 158 0
 983 0096 134B     		ldr	r3, .L75+48
 984 0098 1C60     		str	r4, [r3]
 985 009a 04E0     		b	.L70
 986              	.L71:
 162:Generated_Source\PSoC4/I2C_I2C_MASTER.c ****             I2C_I2C_MASTER_GENERATE_START;
 987              		.loc 1 162 0
 988 009c 114B     		ldr	r3, .L75+48
 989 009e 1C60     		str	r4, [r3]
 163:Generated_Source\PSoC4/I2C_I2C_MASTER.c ****         }
 990              		.loc 1 163 0
 991 00a0 0222     		movs	r2, #2
 992 00a2 114B     		ldr	r3, .L75+52
 993 00a4 1A60     		str	r2, [r3]
 994              	.LVL81:
 995              	.L70:
ARM GAS  C:\Users\gjl\AppData\Local\Temp\ccHudlr6.s 			page 38


 167:Generated_Source\PSoC4/I2C_I2C_MASTER.c **** 
 996              		.loc 1 167 0
 997 00a6 0820     		movs	r0, #8
 998 00a8 FFF7FEFF 		bl	CyIntEnable
 999              	.LVL82:
 170:Generated_Source\PSoC4/I2C_I2C_MASTER.c **** 
 1000              		.loc 1 170 0
 1001 00ac 3000     		movs	r0, r6
 1002 00ae 03B0     		add	sp, sp, #12
 1003              		@ sp needed
 1004              	.LVL83:
 1005              	.LVL84:
 1006              	.LVL85:
 1007 00b0 F0BD     		pop	{r4, r5, r6, r7, pc}
 1008              	.L76:
 1009 00b2 C046     		.align	2
 1010              	.L75:
 1011 00b4 00000000 		.word	I2C_state
 1012 00b8 64002440 		.word	1076101220
 1013 00bc 00000000 		.word	I2C_mstrStatus
 1014 00c0 00000000 		.word	I2C_mstrWrBufIndexTmp
 1015 00c4 00000000 		.word	I2C_mstrWrBufIndex
 1016 00c8 00000000 		.word	I2C_mstrWrBufSize
 1017 00cc 00000000 		.word	I2C_mstrWrBufPtr
 1018 00d0 00000000 		.word	I2C_mstrControl
 1019 00d4 17030000 		.word	791
 1020 00d8 000F2440 		.word	1076104960
 1021 00dc 800F2440 		.word	1076105088
 1022 00e0 880F2440 		.word	1076105096
 1023 00e4 40022440 		.word	1076101696
 1024 00e8 68002440 		.word	1076101224
 1025              		.cfi_endproc
 1026              	.LFE1:
 1027              		.size	I2C_I2CMasterWriteBuf, .-I2C_I2CMasterWriteBuf
 1028              		.section	.text.I2C_I2CMasterReadBuf,"ax",%progbits
 1029              		.align	2
 1030              		.global	I2C_I2CMasterReadBuf
 1031              		.code	16
 1032              		.thumb_func
 1033              		.type	I2C_I2CMasterReadBuf, %function
 1034              	I2C_I2CMasterReadBuf:
 1035              	.LFB2:
 210:Generated_Source\PSoC4/I2C_I2C_MASTER.c ****     uint32 errStatus;
 1036              		.loc 1 210 0
 1037              		.cfi_startproc
 1038              		@ args = 0, pretend = 0, frame = 8
 1039              		@ frame_needed = 0, uses_anonymous_args = 0
 1040              	.LVL86:
 1041 0000 F0B5     		push	{r4, r5, r6, r7, lr}
 1042              		.cfi_def_cfa_offset 20
 1043              		.cfi_offset 4, -20
 1044              		.cfi_offset 5, -16
 1045              		.cfi_offset 6, -12
 1046              		.cfi_offset 7, -8
 1047              		.cfi_offset 14, -4
 1048 0002 83B0     		sub	sp, sp, #12
 1049              		.cfi_def_cfa_offset 32
ARM GAS  C:\Users\gjl\AppData\Local\Temp\ccHudlr6.s 			page 39


 1050 0004 0190     		str	r0, [sp, #4]
 1051 0006 0C00     		movs	r4, r1
 1052 0008 1700     		movs	r7, r2
 1053 000a 1D00     		movs	r5, r3
 1054              	.LVL87:
 215:Generated_Source\PSoC4/I2C_I2C_MASTER.c ****     {
 1055              		.loc 1 215 0
 1056 000c 0029     		cmp	r1, #0
 1057 000e 17D0     		beq	.L84
 218:Generated_Source\PSoC4/I2C_I2C_MASTER.c ****         {
 1058              		.loc 1 218 0
 1059 0010 2D4B     		ldr	r3, .L87
 1060              	.LVL88:
 1061 0012 1B78     		ldrb	r3, [r3]
 1062 0014 102B     		cmp	r3, #16
 1063 0016 08D1     		bne	.L79
 220:Generated_Source\PSoC4/I2C_I2C_MASTER.c **** 
 1064              		.loc 1 220 0
 1065 0018 0820     		movs	r0, #8
 1066              	.LVL89:
 1067 001a FFF7FEFF 		bl	CyIntDisable
 1068              	.LVL90:
 223:Generated_Source\PSoC4/I2C_I2C_MASTER.c ****                             I2C_I2C_MSTR_BUS_BUSY : I2C_I2C_MSTR_NO_ERROR;
 1069              		.loc 1 223 0
 1070 001e 2B4B     		ldr	r3, .L87+4
 1071 0020 1B68     		ldr	r3, [r3]
 1072 0022 DB07     		lsls	r3, r3, #31
 1073 0024 0ED5     		bpl	.L85
 1074 0026 0826     		movs	r6, #8
 1075 0028 0FE0     		b	.L78
 1076              	.LVL91:
 1077              	.L79:
 226:Generated_Source\PSoC4/I2C_I2C_MASTER.c ****         {
 1078              		.loc 1 226 0
 1079 002a 274B     		ldr	r3, .L87
 1080 002c 1B78     		ldrb	r3, [r3]
 1081 002e 602B     		cmp	r3, #96
 1082 0030 0AD1     		bne	.L86
 228:Generated_Source\PSoC4/I2C_I2C_MASTER.c ****                               errStatus  =  I2C_I2C_MSTR_NO_ERROR;
 1083              		.loc 1 228 0
 1084 0032 274A     		ldr	r2, .L87+8
 1085              	.LVL92:
 1086 0034 1388     		ldrh	r3, [r2]
 1087 0036 0821     		movs	r1, #8
 1088              	.LVL93:
 1089 0038 8B43     		bics	r3, r1
 1090 003a 1380     		strh	r3, [r2]
 1091              	.LVL94:
 229:Generated_Source\PSoC4/I2C_I2C_MASTER.c ****         }
 1092              		.loc 1 229 0
 1093 003c 0026     		movs	r6, #0
 1094 003e 04E0     		b	.L78
 1095              	.LVL95:
 1096              	.L84:
 213:Generated_Source\PSoC4/I2C_I2C_MASTER.c **** 
 1097              		.loc 1 213 0
 1098 0040 0426     		movs	r6, #4
ARM GAS  C:\Users\gjl\AppData\Local\Temp\ccHudlr6.s 			page 40


 1099 0042 02E0     		b	.L78
 1100              	.LVL96:
 1101              	.L85:
 223:Generated_Source\PSoC4/I2C_I2C_MASTER.c ****                             I2C_I2C_MSTR_BUS_BUSY : I2C_I2C_MSTR_NO_ERROR;
 1102              		.loc 1 223 0
 1103 0044 0026     		movs	r6, #0
 1104 0046 00E0     		b	.L78
 1105              	.LVL97:
 1106              	.L86:
 213:Generated_Source\PSoC4/I2C_I2C_MASTER.c **** 
 1107              		.loc 1 213 0
 1108 0048 0426     		movs	r6, #4
 1109              	.LVL98:
 1110              	.L78:
 238:Generated_Source\PSoC4/I2C_I2C_MASTER.c ****     {
 1111              		.loc 1 238 0
 1112 004a 002E     		cmp	r6, #0
 1113 004c 35D1     		bne	.L80
 246:Generated_Source\PSoC4/I2C_I2C_MASTER.c ****         I2C_mstrRdBufIndex = 0u;
 1114              		.loc 1 246 0
 1115 004e 2922     		movs	r2, #41
 1116 0050 1D4B     		ldr	r3, .L87
 1117 0052 1A70     		strb	r2, [r3]
 247:Generated_Source\PSoC4/I2C_I2C_MASTER.c ****         I2C_mstrRdBufSize  = cnt;
 1118              		.loc 1 247 0
 1119 0054 0022     		movs	r2, #0
 1120 0056 1F4B     		ldr	r3, .L87+12
 1121 0058 1A60     		str	r2, [r3]
 248:Generated_Source\PSoC4/I2C_I2C_MASTER.c ****         I2C_mstrRdBufPtr   = (volatile uint8 *) rdData;
 1122              		.loc 1 248 0
 1123 005a 1F4A     		ldr	r2, .L87+16
 1124 005c 1760     		str	r7, [r2]
 249:Generated_Source\PSoC4/I2C_I2C_MASTER.c ****         I2C_mstrControl    = (uint8) mode;
 1125              		.loc 1 249 0
 1126 005e 1F4B     		ldr	r3, .L87+20
 1127 0060 1C60     		str	r4, [r3]
 250:Generated_Source\PSoC4/I2C_I2C_MASTER.c **** 
 1128              		.loc 1 250 0
 1129 0062 EBB2     		uxtb	r3, r5
 1130 0064 1E49     		ldr	r1, .L87+24
 1131 0066 0B70     		strb	r3, [r1]
 252:Generated_Source\PSoC4/I2C_I2C_MASTER.c **** 
 1132              		.loc 1 252 0
 1133 0068 019B     		ldr	r3, [sp, #4]
 1134 006a 5C00     		lsls	r4, r3, #1
 1135              	.LVL99:
 1136 006c FF23     		movs	r3, #255
 1137 006e 1C40     		ands	r4, r3
 1138 0070 0120     		movs	r0, #1
 1139 0072 0443     		orrs	r4, r0
 1140              	.LVL100:
 254:Generated_Source\PSoC4/I2C_I2C_MASTER.c **** 
 1141              		.loc 1 254 0
 1142 0074 1649     		ldr	r1, .L87+8
 1143 0076 0B88     		ldrh	r3, [r1]
 1144 0078 8343     		bics	r3, r0
 1145 007a 0B80     		strh	r3, [r1]
ARM GAS  C:\Users\gjl\AppData\Local\Temp\ccHudlr6.s 			page 41


 256:Generated_Source\PSoC4/I2C_I2C_MASTER.c **** 
 1146              		.loc 1 256 0
 1147 007c 1949     		ldr	r1, .L87+28
 1148 007e 1A4B     		ldr	r3, .L87+32
 1149 0080 1960     		str	r1, [r3]
 1150              	.LVL101:
 261:Generated_Source\PSoC4/I2C_I2C_MASTER.c ****         {
 1151              		.loc 1 261 0
 1152 0082 1368     		ldr	r3, [r2]
 1153 0084 072B     		cmp	r3, #7
 1154 0086 03D8     		bhi	.L81
 264:Generated_Source\PSoC4/I2C_I2C_MASTER.c ****         }
 1155              		.loc 1 264 0
 1156 0088 0422     		movs	r2, #4
 1157 008a 184B     		ldr	r3, .L87+36
 1158 008c 1A60     		str	r2, [r3]
 1159 008e 08E0     		b	.L82
 1160              	.L81:
 269:Generated_Source\PSoC4/I2C_I2C_MASTER.c ****             I2C_SetRxInterruptMode(I2C_INTR_RX_FULL);
 1161              		.loc 1 269 0
 1162 0090 174A     		ldr	r2, .L87+40
 1163 0092 1368     		ldr	r3, [r2]
 1164 0094 8021     		movs	r1, #128
 1165 0096 4900     		lsls	r1, r1, #1
 1166 0098 0B43     		orrs	r3, r1
 1167 009a 1360     		str	r3, [r2]
 270:Generated_Source\PSoC4/I2C_I2C_MASTER.c ****         }
 1168              		.loc 1 270 0
 1169 009c 0822     		movs	r2, #8
 1170 009e 134B     		ldr	r3, .L87+36
 1171 00a0 1A60     		str	r2, [r3]
 1172              	.L82:
 274:Generated_Source\PSoC4/I2C_I2C_MASTER.c ****         {
 1173              		.loc 1 274 0
 1174 00a2 EB07     		lsls	r3, r5, #31
 1175 00a4 04D5     		bpl	.L83
 276:Generated_Source\PSoC4/I2C_I2C_MASTER.c ****             I2C_TX_FIFO_WR_REG = (slaveAddress);
 1176              		.loc 1 276 0
 1177 00a6 FFF7FEFF 		bl	I2C_I2CReStartGeneration
 1178              	.LVL102:
 277:Generated_Source\PSoC4/I2C_I2C_MASTER.c ****         }
 1179              		.loc 1 277 0
 1180 00aa 124B     		ldr	r3, .L87+44
 1181 00ac 1C60     		str	r4, [r3]
 1182 00ae 04E0     		b	.L80
 1183              	.L83:
 281:Generated_Source\PSoC4/I2C_I2C_MASTER.c ****             I2C_I2C_MASTER_GENERATE_START;
 1184              		.loc 1 281 0
 1185 00b0 104B     		ldr	r3, .L87+44
 1186 00b2 1C60     		str	r4, [r3]
 282:Generated_Source\PSoC4/I2C_I2C_MASTER.c ****         }
 1187              		.loc 1 282 0
 1188 00b4 0222     		movs	r2, #2
 1189 00b6 104B     		ldr	r3, .L87+48
 1190 00b8 1A60     		str	r2, [r3]
 1191              	.LVL103:
 1192              	.L80:
ARM GAS  C:\Users\gjl\AppData\Local\Temp\ccHudlr6.s 			page 42


 286:Generated_Source\PSoC4/I2C_I2C_MASTER.c **** 
 1193              		.loc 1 286 0
 1194 00ba 0820     		movs	r0, #8
 1195 00bc FFF7FEFF 		bl	CyIntEnable
 1196              	.LVL104:
 289:Generated_Source\PSoC4/I2C_I2C_MASTER.c **** 
 1197              		.loc 1 289 0
 1198 00c0 3000     		movs	r0, r6
 1199 00c2 03B0     		add	sp, sp, #12
 1200              		@ sp needed
 1201              	.LVL105:
 1202              	.LVL106:
 1203              	.LVL107:
 1204 00c4 F0BD     		pop	{r4, r5, r6, r7, pc}
 1205              	.L88:
 1206 00c6 C046     		.align	2
 1207              	.L87:
 1208 00c8 00000000 		.word	I2C_state
 1209 00cc 64002440 		.word	1076101220
 1210 00d0 00000000 		.word	I2C_mstrStatus
 1211 00d4 00000000 		.word	I2C_mstrRdBufIndex
 1212 00d8 00000000 		.word	I2C_mstrRdBufSize
 1213 00dc 00000000 		.word	I2C_mstrRdBufPtr
 1214 00e0 00000000 		.word	I2C_mstrControl
 1215 00e4 17030000 		.word	791
 1216 00e8 000F2440 		.word	1076104960
 1217 00ec C80F2440 		.word	1076105160
 1218 00f0 60002440 		.word	1076101216
 1219 00f4 40022440 		.word	1076101696
 1220 00f8 68002440 		.word	1076101224
 1221              		.cfi_endproc
 1222              	.LFE2:
 1223              		.size	I2C_I2CMasterReadBuf, .-I2C_I2CMasterReadBuf
 1224              		.section	.text.I2C_I2CMasterSendRestart,"ax",%progbits
 1225              		.align	2
 1226              		.global	I2C_I2CMasterSendRestart
 1227              		.code	16
 1228              		.thumb_func
 1229              		.type	I2C_I2CMasterSendRestart, %function
 1230              	I2C_I2CMasterSendRestart:
 1231              	.LFB4:
 459:Generated_Source\PSoC4/I2C_I2C_MASTER.c ****     uint32 resetIp;
 1232              		.loc 1 459 0
 1233              		.cfi_startproc
 1234              		@ args = 0, pretend = 0, frame = 0
 1235              		@ frame_needed = 0, uses_anonymous_args = 0
 1236              	.LVL108:
 1237 0000 10B5     		push	{r4, lr}
 1238              		.cfi_def_cfa_offset 8
 1239              		.cfi_offset 4, -8
 1240              		.cfi_offset 14, -4
 1241              	.LVL109:
 467:Generated_Source\PSoC4/I2C_I2C_MASTER.c ****     {
 1242              		.loc 1 467 0
 1243 0002 2A4B     		ldr	r3, .L100
 1244 0004 1B78     		ldrb	r3, [r3]
 1245 0006 9B06     		lsls	r3, r3, #26
ARM GAS  C:\Users\gjl\AppData\Local\Temp\ccHudlr6.s 			page 43


 1246 0008 4DD5     		bpl	.L97
 469:Generated_Source\PSoC4/I2C_I2C_MASTER.c **** 
 1247              		.loc 1 469 0
 1248 000a 4000     		lsls	r0, r0, #1
 1249              	.LVL110:
 1250 000c FF24     		movs	r4, #255
 1251 000e 0440     		ands	r4, r0
 1252              	.LVL111:
 471:Generated_Source\PSoC4/I2C_I2C_MASTER.c ****         {
 1253              		.loc 1 471 0
 1254 0010 0029     		cmp	r1, #0
 1255 0012 03D1     		bne	.L91
 473:Generated_Source\PSoC4/I2C_I2C_MASTER.c ****         }
 1256              		.loc 1 473 0
 1257 0014 2422     		movs	r2, #36
 1258 0016 254B     		ldr	r3, .L100
 1259 0018 1A70     		strb	r2, [r3]
 1260 001a 04E0     		b	.L92
 1261              	.L91:
 477:Generated_Source\PSoC4/I2C_I2C_MASTER.c ****                       slaveAddress |= I2C_I2C_READ_FLAG;
 1262              		.loc 1 477 0
 1263 001c 2522     		movs	r2, #37
 1264 001e 234B     		ldr	r3, .L100
 1265 0020 1A70     		strb	r2, [r3]
 478:Generated_Source\PSoC4/I2C_I2C_MASTER.c ****         }
 1266              		.loc 1 478 0
 1267 0022 0123     		movs	r3, #1
 1268 0024 1C43     		orrs	r4, r3
 1269              	.LVL112:
 1270              	.L92:
 484:Generated_Source\PSoC4/I2C_I2C_MASTER.c **** 
 1271              		.loc 1 484 0
 1272 0026 224A     		ldr	r2, .L100+4
 1273 0028 224B     		ldr	r3, .L100+8
 1274 002a 1A60     		str	r2, [r3]
 490:Generated_Source\PSoC4/I2C_I2C_MASTER.c **** 
 1275              		.loc 1 490 0
 1276 002c FFF7FEFF 		bl	I2C_I2CReStartGeneration
 1277              	.LVL113:
 1278              	.L93:
 492:Generated_Source\PSoC4/I2C_I2C_MASTER.c ****         {
 1279              		.loc 1 492 0 discriminator 1
 1280 0030 214B     		ldr	r3, .L100+12
 1281 0032 1B68     		ldr	r3, [r3]
 1282 0034 DB07     		lsls	r3, r3, #31
 1283 0036 FBD4     		bmi	.L93
 498:Generated_Source\PSoC4/I2C_I2C_MASTER.c **** 
 1284              		.loc 1 498 0
 1285 0038 204B     		ldr	r3, .L100+16
 1286 003a 1C60     		str	r4, [r3]
 1287              	.L94:
 501:Generated_Source\PSoC4/I2C_I2C_MASTER.c ****                                                   I2C_INTR_MASTER_I2C_NACK     |
 1288              		.loc 1 501 0 discriminator 1
 1289 003c 1D4B     		ldr	r3, .L100+8
 1290 003e 1A68     		ldr	r2, [r3]
 1291 0040 0823     		movs	r3, #8
 1292 0042 FF33     		adds	r3, r3, #255
ARM GAS  C:\Users\gjl\AppData\Local\Temp\ccHudlr6.s 			page 44


 1293 0044 1A42     		tst	r2, r3
 1294 0046 F9D0     		beq	.L94
 510:Generated_Source\PSoC4/I2C_I2C_MASTER.c ****         {
 1295              		.loc 1 510 0
 1296 0048 1A4B     		ldr	r3, .L100+8
 1297 004a 1B68     		ldr	r3, [r3]
 1298 004c 5B07     		lsls	r3, r3, #29
 1299 004e 14D4     		bmi	.L98
 514:Generated_Source\PSoC4/I2C_I2C_MASTER.c ****         {
 1300              		.loc 1 514 0
 1301 0050 184B     		ldr	r3, .L100+8
 1302 0052 1B68     		ldr	r3, [r3]
 1303 0054 9B07     		lsls	r3, r3, #30
 1304 0056 13D4     		bmi	.L99
 518:Generated_Source\PSoC4/I2C_I2C_MASTER.c ****         {
 1305              		.loc 1 518 0
 1306 0058 164B     		ldr	r3, .L100+8
 1307 005a 1B68     		ldr	r3, [r3]
 1308 005c DB07     		lsls	r3, r3, #31
 1309 005e 05D5     		bpl	.L96
 520:Generated_Source\PSoC4/I2C_I2C_MASTER.c ****                          errStatus = I2C_I2C_MSTR_ERR_ARB_LOST;
 1310              		.loc 1 520 0
 1311 0060 1022     		movs	r2, #16
 1312 0062 124B     		ldr	r3, .L100
 1313 0064 1A70     		strb	r2, [r3]
 1314              	.LVL114:
 521:Generated_Source\PSoC4/I2C_I2C_MASTER.c ****                          resetIp   = I2C_I2C_RESET_ERROR;
 1315              		.loc 1 521 0
 1316 0066 0120     		movs	r0, #1
 522:Generated_Source\PSoC4/I2C_I2C_MASTER.c ****         }
 1317              		.loc 1 522 0
 1318 0068 0121     		movs	r1, #1
 1319 006a 0BE0     		b	.L95
 1320              	.LVL115:
 1321              	.L96:
 526:Generated_Source\PSoC4/I2C_I2C_MASTER.c ****                          errStatus = I2C_I2C_MSTR_ERR_BUS_ERR;
 1322              		.loc 1 526 0
 1323 006c 1022     		movs	r2, #16
 1324 006e 0F4B     		ldr	r3, .L100
 1325 0070 1A70     		strb	r2, [r3]
 1326              	.LVL116:
 527:Generated_Source\PSoC4/I2C_I2C_MASTER.c ****                          resetIp   = I2C_I2C_RESET_ERROR;
 1327              		.loc 1 527 0
 1328 0072 8020     		movs	r0, #128
 1329 0074 4000     		lsls	r0, r0, #1
 528:Generated_Source\PSoC4/I2C_I2C_MASTER.c ****         }
 1330              		.loc 1 528 0
 1331 0076 0121     		movs	r1, #1
 1332 0078 04E0     		b	.L95
 1333              	.LVL117:
 1334              	.L98:
 512:Generated_Source\PSoC4/I2C_I2C_MASTER.c ****         }
 1335              		.loc 1 512 0
 1336 007a 0020     		movs	r0, #0
 463:Generated_Source\PSoC4/I2C_I2C_MASTER.c ****     errStatus = I2C_I2C_MSTR_NOT_READY;
 1337              		.loc 1 463 0
 1338 007c 0021     		movs	r1, #0
ARM GAS  C:\Users\gjl\AppData\Local\Temp\ccHudlr6.s 			page 45


 1339 007e 01E0     		b	.L95
 1340              	.L99:
 516:Generated_Source\PSoC4/I2C_I2C_MASTER.c ****         }
 1341              		.loc 1 516 0
 1342 0080 0220     		movs	r0, #2
 463:Generated_Source\PSoC4/I2C_I2C_MASTER.c ****     errStatus = I2C_I2C_MSTR_NOT_READY;
 1343              		.loc 1 463 0
 1344 0082 0021     		movs	r1, #0
 1345              	.LVL118:
 1346              	.L95:
 531:Generated_Source\PSoC4/I2C_I2C_MASTER.c ****                                                     I2C_INTR_MASTER_I2C_NACK     |
 1347              		.loc 1 531 0
 1348 0084 0822     		movs	r2, #8
 1349 0086 FF32     		adds	r2, r2, #255
 1350 0088 0A4B     		ldr	r3, .L100+8
 1351 008a 1A60     		str	r2, [r3]
 537:Generated_Source\PSoC4/I2C_I2C_MASTER.c ****         {
 1352              		.loc 1 537 0
 1353 008c 0029     		cmp	r1, #0
 1354 008e 0BD0     		beq	.L90
 539:Generated_Source\PSoC4/I2C_I2C_MASTER.c ****         }
 1355              		.loc 1 539 0
 1356 0090 0B4A     		ldr	r2, .L100+20
 1357 0092 1368     		ldr	r3, [r2]
 1358 0094 5B00     		lsls	r3, r3, #1
 1359 0096 5B08     		lsrs	r3, r3, #1
 1360 0098 1360     		str	r3, [r2]
 1361 009a 1368     		ldr	r3, [r2]
 1362 009c 8021     		movs	r1, #128
 1363              	.LVL119:
 1364 009e 0906     		lsls	r1, r1, #24
 1365 00a0 0B43     		orrs	r3, r1
 1366 00a2 1360     		str	r3, [r2]
 1367 00a4 00E0     		b	.L90
 1368              	.LVL120:
 1369              	.L97:
 464:Generated_Source\PSoC4/I2C_I2C_MASTER.c **** 
 1370              		.loc 1 464 0
 1371 00a6 0420     		movs	r0, #4
 1372              	.LVL121:
 1373              	.L90:
 544:Generated_Source\PSoC4/I2C_I2C_MASTER.c **** 
 1374              		.loc 1 544 0
 1375              		@ sp needed
 1376 00a8 10BD     		pop	{r4, pc}
 1377              	.L101:
 1378 00aa C046     		.align	2
 1379              	.L100:
 1380 00ac 00000000 		.word	I2C_state
 1381 00b0 17030000 		.word	791
 1382 00b4 000F2440 		.word	1076104960
 1383 00b8 68002440 		.word	1076101224
 1384 00bc 40022440 		.word	1076101696
 1385 00c0 00002440 		.word	1076101120
 1386              		.cfi_endproc
 1387              	.LFE4:
 1388              		.size	I2C_I2CMasterSendRestart, .-I2C_I2CMasterSendRestart
ARM GAS  C:\Users\gjl\AppData\Local\Temp\ccHudlr6.s 			page 46


 1389              		.comm	I2C_mstrWrBufIndexTmp,4,4
 1390              		.comm	I2C_mstrWrBufIndex,4,4
 1391              		.comm	I2C_mstrWrBufSize,4,4
 1392              		.comm	I2C_mstrWrBufPtr,4,4
 1393              		.comm	I2C_mstrRdBufIndex,4,4
 1394              		.comm	I2C_mstrRdBufSize,4,4
 1395              		.comm	I2C_mstrRdBufPtr,4,4
 1396              		.comm	I2C_mstrControl,1,1
 1397              		.comm	I2C_mstrStatus,2,2
 1398              		.text
 1399              	.Letext0:
 1400              		.file 2 "Generated_Source\\PSoC4/cytypes.h"
 1401              		.file 3 "Generated_Source\\PSoC4\\I2C_I2C_PVT.h"
 1402              		.file 4 "Generated_Source\\PSoC4/CyLib.h"
 1403              		.section	.debug_info,"",%progbits
 1404              	.Ldebug_info0:
 1405 0000 9E050000 		.4byte	0x59e
 1406 0004 0400     		.2byte	0x4
 1407 0006 00000000 		.4byte	.Ldebug_abbrev0
 1408 000a 04       		.byte	0x4
 1409 000b 01       		.uleb128 0x1
 1410 000c 2E020000 		.4byte	.LASF54
 1411 0010 0C       		.byte	0xc
 1412 0011 A9010000 		.4byte	.LASF55
 1413 0015 58010000 		.4byte	.LASF56
 1414 0019 00000000 		.4byte	.Ldebug_ranges0+0
 1415 001d 00000000 		.4byte	0
 1416 0021 00000000 		.4byte	.Ldebug_line0
 1417 0025 02       		.uleb128 0x2
 1418 0026 01       		.byte	0x1
 1419 0027 06       		.byte	0x6
 1420 0028 B5000000 		.4byte	.LASF0
 1421 002c 02       		.uleb128 0x2
 1422 002d 01       		.byte	0x1
 1423 002e 08       		.byte	0x8
 1424 002f C1000000 		.4byte	.LASF1
 1425 0033 02       		.uleb128 0x2
 1426 0034 02       		.byte	0x2
 1427 0035 05       		.byte	0x5
 1428 0036 0B030000 		.4byte	.LASF2
 1429 003a 02       		.uleb128 0x2
 1430 003b 02       		.byte	0x2
 1431 003c 07       		.byte	0x7
 1432 003d 66000000 		.4byte	.LASF3
 1433 0041 02       		.uleb128 0x2
 1434 0042 04       		.byte	0x4
 1435 0043 05       		.byte	0x5
 1436 0044 73030000 		.4byte	.LASF4
 1437 0048 02       		.uleb128 0x2
 1438 0049 04       		.byte	0x4
 1439 004a 07       		.byte	0x7
 1440 004b 11010000 		.4byte	.LASF5
 1441 004f 02       		.uleb128 0x2
 1442 0050 08       		.byte	0x8
 1443 0051 05       		.byte	0x5
 1444 0052 D4020000 		.4byte	.LASF6
 1445 0056 02       		.uleb128 0x2
ARM GAS  C:\Users\gjl\AppData\Local\Temp\ccHudlr6.s 			page 47


 1446 0057 08       		.byte	0x8
 1447 0058 07       		.byte	0x7
 1448 0059 05020000 		.4byte	.LASF7
 1449 005d 03       		.uleb128 0x3
 1450 005e 04       		.byte	0x4
 1451 005f 05       		.byte	0x5
 1452 0060 696E7400 		.ascii	"int\000"
 1453 0064 02       		.uleb128 0x2
 1454 0065 04       		.byte	0x4
 1455 0066 07       		.byte	0x7
 1456 0067 F1010000 		.4byte	.LASF8
 1457 006b 04       		.uleb128 0x4
 1458 006c 39010000 		.4byte	.LASF9
 1459 0070 02       		.byte	0x2
 1460 0071 D201     		.2byte	0x1d2
 1461 0073 2C000000 		.4byte	0x2c
 1462 0077 04       		.uleb128 0x4
 1463 0078 A2010000 		.4byte	.LASF10
 1464 007c 02       		.byte	0x2
 1465 007d D301     		.2byte	0x1d3
 1466 007f 3A000000 		.4byte	0x3a
 1467 0083 04       		.uleb128 0x4
 1468 0084 D8010000 		.4byte	.LASF11
 1469 0088 02       		.byte	0x2
 1470 0089 D401     		.2byte	0x1d4
 1471 008b 48000000 		.4byte	0x48
 1472 008f 02       		.uleb128 0x2
 1473 0090 04       		.byte	0x4
 1474 0091 04       		.byte	0x4
 1475 0092 AF000000 		.4byte	.LASF12
 1476 0096 02       		.uleb128 0x2
 1477 0097 08       		.byte	0x8
 1478 0098 04       		.byte	0x4
 1479 0099 51010000 		.4byte	.LASF13
 1480 009d 02       		.uleb128 0x2
 1481 009e 01       		.byte	0x1
 1482 009f 08       		.byte	0x8
 1483 00a0 E2020000 		.4byte	.LASF14
 1484 00a4 05       		.uleb128 0x5
 1485 00a5 6B000000 		.4byte	0x6b
 1486 00a9 05       		.uleb128 0x5
 1487 00aa 77000000 		.4byte	0x77
 1488 00ae 04       		.uleb128 0x4
 1489 00af 1C000000 		.4byte	.LASF15
 1490 00b3 02       		.byte	0x2
 1491 00b4 7E02     		.2byte	0x27e
 1492 00b6 BA000000 		.4byte	0xba
 1493 00ba 05       		.uleb128 0x5
 1494 00bb 83000000 		.4byte	0x83
 1495 00bf 02       		.uleb128 0x2
 1496 00c0 08       		.byte	0x8
 1497 00c1 04       		.byte	0x4
 1498 00c2 7C030000 		.4byte	.LASF16
 1499 00c6 02       		.uleb128 0x2
 1500 00c7 04       		.byte	0x4
 1501 00c8 07       		.byte	0x7
 1502 00c9 CB020000 		.4byte	.LASF17
ARM GAS  C:\Users\gjl\AppData\Local\Temp\ccHudlr6.s 			page 48


 1503 00cd 06       		.uleb128 0x6
 1504 00ce CF000000 		.4byte	.LASF22
 1505 00d2 01       		.byte	0x1
 1506 00d3 4E01     		.2byte	0x14e
 1507 00d5 83000000 		.4byte	0x83
 1508 00d9 00000000 		.4byte	.LFB3
 1509 00dd D8000000 		.4byte	.LFE3-.LFB3
 1510 00e1 01       		.uleb128 0x1
 1511 00e2 9C       		.byte	0x9c
 1512 00e3 37010000 		.4byte	0x137
 1513 00e7 07       		.uleb128 0x7
 1514 00e8 21020000 		.4byte	.LASF18
 1515 00ec 01       		.byte	0x1
 1516 00ed 4E01     		.2byte	0x14e
 1517 00ef 83000000 		.4byte	0x83
 1518 00f3 00000000 		.4byte	.LLST0
 1519 00f7 07       		.uleb128 0x7
 1520 00f8 8F010000 		.4byte	.LASF19
 1521 00fc 01       		.byte	0x1
 1522 00fd 4E01     		.2byte	0x14e
 1523 00ff 83000000 		.4byte	0x83
 1524 0103 63000000 		.4byte	.LLST1
 1525 0107 08       		.uleb128 0x8
 1526 0108 80000000 		.4byte	.LASF20
 1527 010c 01       		.byte	0x1
 1528 010d 5001     		.2byte	0x150
 1529 010f 83000000 		.4byte	0x83
 1530 0113 A5000000 		.4byte	.LLST2
 1531 0117 08       		.uleb128 0x8
 1532 0118 47010000 		.4byte	.LASF21
 1533 011c 01       		.byte	0x1
 1534 011d 5101     		.2byte	0x151
 1535 011f 83000000 		.4byte	0x83
 1536 0123 00010000 		.4byte	.LLST3
 1537 0127 09       		.uleb128 0x9
 1538 0128 1C000000 		.4byte	.LVL3
 1539 012c 8B050000 		.4byte	0x58b
 1540 0130 0A       		.uleb128 0xa
 1541 0131 01       		.uleb128 0x1
 1542 0132 50       		.byte	0x50
 1543 0133 01       		.uleb128 0x1
 1544 0134 38       		.byte	0x38
 1545 0135 00       		.byte	0
 1546 0136 00       		.byte	0
 1547 0137 06       		.uleb128 0x6
 1548 0138 02040000 		.4byte	.LASF23
 1549 013c 01       		.byte	0x1
 1550 013d 3D02     		.2byte	0x23d
 1551 013f 83000000 		.4byte	0x83
 1552 0143 00000000 		.4byte	.LFB5
 1553 0147 8C000000 		.4byte	.LFE5-.LFB5
 1554 014b 01       		.uleb128 0x1
 1555 014c 9C       		.byte	0x9c
 1556 014d 72010000 		.4byte	0x172
 1557 0151 08       		.uleb128 0x8
 1558 0152 80000000 		.4byte	.LASF20
 1559 0156 01       		.byte	0x1
ARM GAS  C:\Users\gjl\AppData\Local\Temp\ccHudlr6.s 			page 49


 1560 0157 3F02     		.2byte	0x23f
 1561 0159 83000000 		.4byte	0x83
 1562 015d 68010000 		.4byte	.LLST4
 1563 0161 08       		.uleb128 0x8
 1564 0162 47010000 		.4byte	.LASF21
 1565 0166 01       		.byte	0x1
 1566 0167 4002     		.2byte	0x240
 1567 0169 83000000 		.4byte	0x83
 1568 016d 93010000 		.4byte	.LLST5
 1569 0171 00       		.byte	0
 1570 0172 06       		.uleb128 0x6
 1571 0173 E7020000 		.4byte	.LASF24
 1572 0177 01       		.byte	0x1
 1573 0178 8D02     		.2byte	0x28d
 1574 017a 83000000 		.4byte	0x83
 1575 017e 00000000 		.4byte	.LFB6
 1576 0182 98000000 		.4byte	.LFE6-.LFB6
 1577 0186 01       		.uleb128 0x1
 1578 0187 9C       		.byte	0x9c
 1579 0188 BD010000 		.4byte	0x1bd
 1580 018c 07       		.uleb128 0x7
 1581 018d 15030000 		.4byte	.LASF25
 1582 0191 01       		.byte	0x1
 1583 0192 8D02     		.2byte	0x28d
 1584 0194 83000000 		.4byte	0x83
 1585 0198 C9010000 		.4byte	.LLST6
 1586 019c 08       		.uleb128 0x8
 1587 019d 80000000 		.4byte	.LASF20
 1588 01a1 01       		.byte	0x1
 1589 01a2 8F02     		.2byte	0x28f
 1590 01a4 83000000 		.4byte	0x83
 1591 01a8 4E020000 		.4byte	.LLST7
 1592 01ac 08       		.uleb128 0x8
 1593 01ad 47010000 		.4byte	.LASF21
 1594 01b1 01       		.byte	0x1
 1595 01b2 9002     		.2byte	0x290
 1596 01b4 83000000 		.4byte	0x83
 1597 01b8 9D020000 		.4byte	.LLST8
 1598 01bc 00       		.byte	0
 1599 01bd 06       		.uleb128 0x6
 1600 01be 36030000 		.4byte	.LASF26
 1601 01c2 01       		.byte	0x1
 1602 01c3 E802     		.2byte	0x2e8
 1603 01c5 83000000 		.4byte	0x83
 1604 01c9 00000000 		.4byte	.LFB7
 1605 01cd 84000000 		.4byte	.LFE7-.LFB7
 1606 01d1 01       		.uleb128 0x1
 1607 01d2 9C       		.byte	0x9c
 1608 01d3 F8010000 		.4byte	0x1f8
 1609 01d7 07       		.uleb128 0x7
 1610 01d8 3F010000 		.4byte	.LASF27
 1611 01dc 01       		.byte	0x1
 1612 01dd E802     		.2byte	0x2e8
 1613 01df 83000000 		.4byte	0x83
 1614 01e3 29030000 		.4byte	.LLST9
 1615 01e7 08       		.uleb128 0x8
 1616 01e8 15030000 		.4byte	.LASF25
ARM GAS  C:\Users\gjl\AppData\Local\Temp\ccHudlr6.s 			page 50


 1617 01ec 01       		.byte	0x1
 1618 01ed EA02     		.2byte	0x2ea
 1619 01ef 83000000 		.4byte	0x83
 1620 01f3 84030000 		.4byte	.LLST10
 1621 01f7 00       		.byte	0
 1622 01f8 0B       		.uleb128 0xb
 1623 01f9 00000000 		.4byte	.LASF28
 1624 01fd 01       		.byte	0x1
 1625 01fe 2C03     		.2byte	0x32c
 1626 0200 83000000 		.4byte	0x83
 1627 0204 00000000 		.4byte	.LFB8
 1628 0208 0C000000 		.4byte	.LFE8-.LFB8
 1629 020c 01       		.uleb128 0x1
 1630 020d 9C       		.byte	0x9c
 1631 020e 0B       		.uleb128 0xb
 1632 020f 88030000 		.4byte	.LASF29
 1633 0213 01       		.byte	0x1
 1634 0214 4703     		.2byte	0x347
 1635 0216 83000000 		.4byte	0x83
 1636 021a 00000000 		.4byte	.LFB9
 1637 021e 0C000000 		.4byte	.LFE9-.LFB9
 1638 0222 01       		.uleb128 0x1
 1639 0223 9C       		.byte	0x9c
 1640 0224 0C       		.uleb128 0xc
 1641 0225 4C000000 		.4byte	.LASF30
 1642 0229 01       		.byte	0x1
 1643 022a 5903     		.2byte	0x359
 1644 022c 00000000 		.4byte	.LFB10
 1645 0230 28000000 		.4byte	.LFE10-.LFB10
 1646 0234 01       		.uleb128 0x1
 1647 0235 9C       		.byte	0x9c
 1648 0236 5D020000 		.4byte	0x25d
 1649 023a 0D       		.uleb128 0xd
 1650 023b 08000000 		.4byte	.LVL48
 1651 023f 8B050000 		.4byte	0x58b
 1652 0243 4D020000 		.4byte	0x24d
 1653 0247 0A       		.uleb128 0xa
 1654 0248 01       		.uleb128 0x1
 1655 0249 50       		.byte	0x50
 1656 024a 01       		.uleb128 0x1
 1657 024b 38       		.byte	0x38
 1658 024c 00       		.byte	0
 1659 024d 09       		.uleb128 0x9
 1660 024e 1E000000 		.4byte	.LVL49
 1661 0252 96050000 		.4byte	0x596
 1662 0256 0A       		.uleb128 0xa
 1663 0257 01       		.uleb128 0x1
 1664 0258 50       		.byte	0x50
 1665 0259 01       		.uleb128 0x1
 1666 025a 38       		.byte	0x38
 1667 025b 00       		.byte	0
 1668 025c 00       		.byte	0
 1669 025d 0C       		.uleb128 0xc
 1670 025e E6000000 		.4byte	.LASF31
 1671 0262 01       		.byte	0x1
 1672 0263 7003     		.2byte	0x370
 1673 0265 00000000 		.4byte	.LFB11
ARM GAS  C:\Users\gjl\AppData\Local\Temp\ccHudlr6.s 			page 51


 1674 0269 28000000 		.4byte	.LFE11-.LFB11
 1675 026d 01       		.uleb128 0x1
 1676 026e 9C       		.byte	0x9c
 1677 026f 96020000 		.4byte	0x296
 1678 0273 0D       		.uleb128 0xd
 1679 0274 08000000 		.4byte	.LVL50
 1680 0278 8B050000 		.4byte	0x58b
 1681 027c 86020000 		.4byte	0x286
 1682 0280 0A       		.uleb128 0xa
 1683 0281 01       		.uleb128 0x1
 1684 0282 50       		.byte	0x50
 1685 0283 01       		.uleb128 0x1
 1686 0284 38       		.byte	0x38
 1687 0285 00       		.byte	0
 1688 0286 09       		.uleb128 0x9
 1689 0287 1E000000 		.4byte	.LVL51
 1690 028b 96050000 		.4byte	0x596
 1691 028f 0A       		.uleb128 0xa
 1692 0290 01       		.uleb128 0x1
 1693 0291 50       		.byte	0x50
 1694 0292 01       		.uleb128 0x1
 1695 0293 38       		.byte	0x38
 1696 0294 00       		.byte	0
 1697 0295 00       		.byte	0
 1698 0296 06       		.uleb128 0x6
 1699 0297 88000000 		.4byte	.LASF32
 1700 029b 01       		.byte	0x1
 1701 029c A403     		.2byte	0x3a4
 1702 029e 83000000 		.4byte	0x83
 1703 02a2 00000000 		.4byte	.LFB12
 1704 02a6 30000000 		.4byte	.LFE12-.LFB12
 1705 02aa 01       		.uleb128 0x1
 1706 02ab 9C       		.byte	0x9c
 1707 02ac E3020000 		.4byte	0x2e3
 1708 02b0 08       		.uleb128 0x8
 1709 02b1 79000000 		.4byte	.LASF33
 1710 02b5 01       		.byte	0x1
 1711 02b6 A603     		.2byte	0x3a6
 1712 02b8 83000000 		.4byte	0x83
 1713 02bc BC030000 		.4byte	.LLST11
 1714 02c0 0D       		.uleb128 0xd
 1715 02c1 08000000 		.4byte	.LVL52
 1716 02c5 8B050000 		.4byte	0x58b
 1717 02c9 D3020000 		.4byte	0x2d3
 1718 02cd 0A       		.uleb128 0xa
 1719 02ce 01       		.uleb128 0x1
 1720 02cf 50       		.byte	0x50
 1721 02d0 01       		.uleb128 0x1
 1722 02d1 38       		.byte	0x38
 1723 02d2 00       		.byte	0
 1724 02d3 09       		.uleb128 0x9
 1725 02d4 24000000 		.4byte	.LVL56
 1726 02d8 96050000 		.4byte	0x596
 1727 02dc 0A       		.uleb128 0xa
 1728 02dd 01       		.uleb128 0x1
 1729 02de 50       		.byte	0x50
 1730 02df 01       		.uleb128 0x1
ARM GAS  C:\Users\gjl\AppData\Local\Temp\ccHudlr6.s 			page 52


 1731 02e0 38       		.byte	0x38
 1732 02e1 00       		.byte	0
 1733 02e2 00       		.byte	0
 1734 02e3 06       		.uleb128 0x6
 1735 02e4 DF030000 		.4byte	.LASF34
 1736 02e8 01       		.byte	0x1
 1737 02e9 C603     		.2byte	0x3c6
 1738 02eb 83000000 		.4byte	0x83
 1739 02ef 00000000 		.4byte	.LFB13
 1740 02f3 20000000 		.4byte	.LFE13-.LFB13
 1741 02f7 01       		.uleb128 0x1
 1742 02f8 9C       		.byte	0x9c
 1743 02f9 30030000 		.4byte	0x330
 1744 02fd 08       		.uleb128 0x8
 1745 02fe 79000000 		.4byte	.LASF33
 1746 0302 01       		.byte	0x1
 1747 0303 C803     		.2byte	0x3c8
 1748 0305 83000000 		.4byte	0x83
 1749 0309 E5030000 		.4byte	.LLST12
 1750 030d 0D       		.uleb128 0xd
 1751 030e 08000000 		.4byte	.LVL58
 1752 0312 8B050000 		.4byte	0x58b
 1753 0316 20030000 		.4byte	0x320
 1754 031a 0A       		.uleb128 0xa
 1755 031b 01       		.uleb128 0x1
 1756 031c 50       		.byte	0x50
 1757 031d 01       		.uleb128 0x1
 1758 031e 38       		.byte	0x38
 1759 031f 00       		.byte	0
 1760 0320 09       		.uleb128 0x9
 1761 0321 18000000 		.4byte	.LVL60
 1762 0325 96050000 		.4byte	0x596
 1763 0329 0A       		.uleb128 0xa
 1764 032a 01       		.uleb128 0x1
 1765 032b 50       		.byte	0x50
 1766 032c 01       		.uleb128 0x1
 1767 032d 38       		.byte	0x38
 1768 032e 00       		.byte	0
 1769 032f 00       		.byte	0
 1770 0330 0C       		.uleb128 0xc
 1771 0331 33000000 		.4byte	.LASF35
 1772 0335 01       		.byte	0x1
 1773 0336 F203     		.2byte	0x3f2
 1774 0338 00000000 		.4byte	.LFB14
 1775 033c 20000000 		.4byte	.LFE14-.LFB14
 1776 0340 01       		.uleb128 0x1
 1777 0341 9C       		.byte	0x9c
 1778 0342 57030000 		.4byte	0x357
 1779 0346 0E       		.uleb128 0xe
 1780 0347 636D6400 		.ascii	"cmd\000"
 1781 034b 01       		.byte	0x1
 1782 034c 2604     		.2byte	0x426
 1783 034e 83000000 		.4byte	0x83
 1784 0352 03040000 		.4byte	.LLST13
 1785 0356 00       		.byte	0
 1786 0357 0F       		.uleb128 0xf
 1787 0358 23010000 		.4byte	.LASF36
ARM GAS  C:\Users\gjl\AppData\Local\Temp\ccHudlr6.s 			page 53


 1788 035c 01       		.byte	0x1
 1789 035d 62       		.byte	0x62
 1790 035e 83000000 		.4byte	0x83
 1791 0362 00000000 		.4byte	.LFB1
 1792 0366 EC000000 		.4byte	.LFE1-.LFB1
 1793 036a 01       		.uleb128 0x1
 1794 036b 9C       		.byte	0x9c
 1795 036c E7030000 		.4byte	0x3e7
 1796 0370 10       		.uleb128 0x10
 1797 0371 21020000 		.4byte	.LASF18
 1798 0375 01       		.byte	0x1
 1799 0376 62       		.byte	0x62
 1800 0377 83000000 		.4byte	0x83
 1801 037b 22040000 		.4byte	.LLST14
 1802 037f 10       		.uleb128 0x10
 1803 0380 FE010000 		.4byte	.LASF37
 1804 0384 01       		.byte	0x1
 1805 0385 62       		.byte	0x62
 1806 0386 E7030000 		.4byte	0x3e7
 1807 038a 7A040000 		.4byte	.LLST15
 1808 038e 11       		.uleb128 0x11
 1809 038f 636E7400 		.ascii	"cnt\000"
 1810 0393 01       		.byte	0x1
 1811 0394 62       		.byte	0x62
 1812 0395 83000000 		.4byte	0x83
 1813 0399 F7040000 		.4byte	.LLST16
 1814 039d 10       		.uleb128 0x10
 1815 039e 1C020000 		.4byte	.LASF38
 1816 03a2 01       		.byte	0x1
 1817 03a3 62       		.byte	0x62
 1818 03a4 83000000 		.4byte	0x83
 1819 03a8 65050000 		.4byte	.LLST17
 1820 03ac 12       		.uleb128 0x12
 1821 03ad 47010000 		.4byte	.LASF21
 1822 03b1 01       		.byte	0x1
 1823 03b2 64       		.byte	0x64
 1824 03b3 83000000 		.4byte	0x83
 1825 03b7 A7050000 		.4byte	.LLST18
 1826 03bb 0D       		.uleb128 0xd
 1827 03bc 1E000000 		.4byte	.LVL68
 1828 03c0 8B050000 		.4byte	0x58b
 1829 03c4 CE030000 		.4byte	0x3ce
 1830 03c8 0A       		.uleb128 0xa
 1831 03c9 01       		.uleb128 0x1
 1832 03ca 50       		.byte	0x50
 1833 03cb 01       		.uleb128 0x1
 1834 03cc 38       		.byte	0x38
 1835 03cd 00       		.byte	0
 1836 03ce 13       		.uleb128 0x13
 1837 03cf 96000000 		.4byte	.LVL80
 1838 03d3 30030000 		.4byte	0x330
 1839 03d7 09       		.uleb128 0x9
 1840 03d8 AC000000 		.4byte	.LVL82
 1841 03dc 96050000 		.4byte	0x596
 1842 03e0 0A       		.uleb128 0xa
 1843 03e1 01       		.uleb128 0x1
 1844 03e2 50       		.byte	0x50
ARM GAS  C:\Users\gjl\AppData\Local\Temp\ccHudlr6.s 			page 54


 1845 03e3 01       		.uleb128 0x1
 1846 03e4 38       		.byte	0x38
 1847 03e5 00       		.byte	0
 1848 03e6 00       		.byte	0
 1849 03e7 14       		.uleb128 0x14
 1850 03e8 04       		.byte	0x4
 1851 03e9 6B000000 		.4byte	0x6b
 1852 03ed 0F       		.uleb128 0xf
 1853 03ee CA030000 		.4byte	.LASF39
 1854 03f2 01       		.byte	0x1
 1855 03f3 D1       		.byte	0xd1
 1856 03f4 83000000 		.4byte	0x83
 1857 03f8 00000000 		.4byte	.LFB2
 1858 03fc FC000000 		.4byte	.LFE2-.LFB2
 1859 0400 01       		.uleb128 0x1
 1860 0401 9C       		.byte	0x9c
 1861 0402 7D040000 		.4byte	0x47d
 1862 0406 10       		.uleb128 0x10
 1863 0407 21020000 		.4byte	.LASF18
 1864 040b 01       		.byte	0x1
 1865 040c D1       		.byte	0xd1
 1866 040d 83000000 		.4byte	0x83
 1867 0411 E9050000 		.4byte	.LLST19
 1868 0415 10       		.uleb128 0x10
 1869 0416 D1010000 		.4byte	.LASF40
 1870 041a 01       		.byte	0x1
 1871 041b D1       		.byte	0xd1
 1872 041c E7030000 		.4byte	0x3e7
 1873 0420 41060000 		.4byte	.LLST20
 1874 0424 11       		.uleb128 0x11
 1875 0425 636E7400 		.ascii	"cnt\000"
 1876 0429 01       		.byte	0x1
 1877 042a D1       		.byte	0xd1
 1878 042b 83000000 		.4byte	0x83
 1879 042f BE060000 		.4byte	.LLST21
 1880 0433 10       		.uleb128 0x10
 1881 0434 1C020000 		.4byte	.LASF38
 1882 0438 01       		.byte	0x1
 1883 0439 D1       		.byte	0xd1
 1884 043a 83000000 		.4byte	0x83
 1885 043e 2C070000 		.4byte	.LLST22
 1886 0442 12       		.uleb128 0x12
 1887 0443 47010000 		.4byte	.LASF21
 1888 0447 01       		.byte	0x1
 1889 0448 D3       		.byte	0xd3
 1890 0449 83000000 		.4byte	0x83
 1891 044d 6E070000 		.4byte	.LLST23
 1892 0451 0D       		.uleb128 0xd
 1893 0452 1E000000 		.4byte	.LVL90
 1894 0456 8B050000 		.4byte	0x58b
 1895 045a 64040000 		.4byte	0x464
 1896 045e 0A       		.uleb128 0xa
 1897 045f 01       		.uleb128 0x1
 1898 0460 50       		.byte	0x50
 1899 0461 01       		.uleb128 0x1
 1900 0462 38       		.byte	0x38
 1901 0463 00       		.byte	0
ARM GAS  C:\Users\gjl\AppData\Local\Temp\ccHudlr6.s 			page 55


 1902 0464 13       		.uleb128 0x13
 1903 0465 AA000000 		.4byte	.LVL102
 1904 0469 30030000 		.4byte	0x330
 1905 046d 09       		.uleb128 0x9
 1906 046e C0000000 		.4byte	.LVL104
 1907 0472 96050000 		.4byte	0x596
 1908 0476 0A       		.uleb128 0xa
 1909 0477 01       		.uleb128 0x1
 1910 0478 50       		.byte	0x50
 1911 0479 01       		.uleb128 0x1
 1912 047a 38       		.byte	0x38
 1913 047b 00       		.byte	0
 1914 047c 00       		.byte	0
 1915 047d 06       		.uleb128 0x6
 1916 047e 1D030000 		.4byte	.LASF41
 1917 0482 01       		.byte	0x1
 1918 0483 CA01     		.2byte	0x1ca
 1919 0485 83000000 		.4byte	0x83
 1920 0489 00000000 		.4byte	.LFB4
 1921 048d C4000000 		.4byte	.LFE4-.LFB4
 1922 0491 01       		.uleb128 0x1
 1923 0492 9C       		.byte	0x9c
 1924 0493 E1040000 		.4byte	0x4e1
 1925 0497 07       		.uleb128 0x7
 1926 0498 21020000 		.4byte	.LASF18
 1927 049c 01       		.byte	0x1
 1928 049d CA01     		.2byte	0x1ca
 1929 049f 83000000 		.4byte	0x83
 1930 04a3 B0070000 		.4byte	.LLST24
 1931 04a7 07       		.uleb128 0x7
 1932 04a8 8F010000 		.4byte	.LASF19
 1933 04ac 01       		.byte	0x1
 1934 04ad CA01     		.2byte	0x1ca
 1935 04af 83000000 		.4byte	0x83
 1936 04b3 E7070000 		.4byte	.LLST25
 1937 04b7 08       		.uleb128 0x8
 1938 04b8 80000000 		.4byte	.LASF20
 1939 04bc 01       		.byte	0x1
 1940 04bd CC01     		.2byte	0x1cc
 1941 04bf 83000000 		.4byte	0x83
 1942 04c3 21080000 		.4byte	.LLST26
 1943 04c7 08       		.uleb128 0x8
 1944 04c8 47010000 		.4byte	.LASF21
 1945 04cc 01       		.byte	0x1
 1946 04cd CD01     		.2byte	0x1cd
 1947 04cf 83000000 		.4byte	0x83
 1948 04d3 7C080000 		.4byte	.LLST27
 1949 04d7 13       		.uleb128 0x13
 1950 04d8 30000000 		.4byte	.LVL113
 1951 04dc 30030000 		.4byte	0x330
 1952 04e0 00       		.byte	0
 1953 04e1 15       		.uleb128 0x15
 1954 04e2 F8030000 		.4byte	.LASF42
 1955 04e6 03       		.byte	0x3
 1956 04e7 1E       		.byte	0x1e
 1957 04e8 A4000000 		.4byte	0xa4
 1958 04ec 16       		.uleb128 0x16
ARM GAS  C:\Users\gjl\AppData\Local\Temp\ccHudlr6.s 			page 56


 1959 04ed BC020000 		.4byte	.LASF43
 1960 04f1 01       		.byte	0x1
 1961 04f2 1D       		.byte	0x1d
 1962 04f3 A9000000 		.4byte	0xa9
 1963 04f7 05       		.uleb128 0x5
 1964 04f8 03       		.byte	0x3
 1965 04f9 00000000 		.4byte	I2C_mstrStatus
 1966 04fd 16       		.uleb128 0x16
 1967 04fe 01010000 		.4byte	.LASF44
 1968 0502 01       		.byte	0x1
 1969 0503 1E       		.byte	0x1e
 1970 0504 A4000000 		.4byte	0xa4
 1971 0508 05       		.uleb128 0x5
 1972 0509 03       		.byte	0x3
 1973 050a 00000000 		.4byte	I2C_mstrControl
 1974 050e 16       		.uleb128 0x16
 1975 050f 4C030000 		.4byte	.LASF45
 1976 0513 01       		.byte	0x1
 1977 0514 21       		.byte	0x21
 1978 0515 1F050000 		.4byte	0x51f
 1979 0519 05       		.uleb128 0x5
 1980 051a 03       		.byte	0x3
 1981 051b 00000000 		.4byte	I2C_mstrRdBufPtr
 1982 051f 14       		.uleb128 0x14
 1983 0520 04       		.byte	0x4
 1984 0521 A4000000 		.4byte	0xa4
 1985 0525 16       		.uleb128 0x16
 1986 0526 DF010000 		.4byte	.LASF46
 1987 052a 01       		.byte	0x1
 1988 052b 22       		.byte	0x22
 1989 052c BA000000 		.4byte	0xba
 1990 0530 05       		.uleb128 0x5
 1991 0531 03       		.byte	0x3
 1992 0532 00000000 		.4byte	I2C_mstrRdBufSize
 1993 0536 16       		.uleb128 0x16
 1994 0537 9C000000 		.4byte	.LASF47
 1995 053b 01       		.byte	0x1
 1996 053c 23       		.byte	0x23
 1997 053d BA000000 		.4byte	0xba
 1998 0541 05       		.uleb128 0x5
 1999 0542 03       		.byte	0x3
 2000 0543 00000000 		.4byte	I2C_mstrRdBufIndex
 2001 0547 16       		.uleb128 0x16
 2002 0548 22000000 		.4byte	.LASF48
 2003 054c 01       		.byte	0x1
 2004 054d 26       		.byte	0x26
 2005 054e 1F050000 		.4byte	0x51f
 2006 0552 05       		.uleb128 0x5
 2007 0553 03       		.byte	0x3
 2008 0554 00000000 		.4byte	I2C_mstrWrBufPtr
 2009 0558 16       		.uleb128 0x16
 2010 0559 B8030000 		.4byte	.LASF49
 2011 055d 01       		.byte	0x1
 2012 055e 27       		.byte	0x27
 2013 055f BA000000 		.4byte	0xba
 2014 0563 05       		.uleb128 0x5
 2015 0564 03       		.byte	0x3
ARM GAS  C:\Users\gjl\AppData\Local\Temp\ccHudlr6.s 			page 57


 2016 0565 00000000 		.4byte	I2C_mstrWrBufSize
 2017 0569 16       		.uleb128 0x16
 2018 056a A5030000 		.4byte	.LASF50
 2019 056e 01       		.byte	0x1
 2020 056f 28       		.byte	0x28
 2021 0570 BA000000 		.4byte	0xba
 2022 0574 05       		.uleb128 0x5
 2023 0575 03       		.byte	0x3
 2024 0576 00000000 		.4byte	I2C_mstrWrBufIndex
 2025 057a 16       		.uleb128 0x16
 2026 057b 5D030000 		.4byte	.LASF51
 2027 057f 01       		.byte	0x1
 2028 0580 29       		.byte	0x29
 2029 0581 BA000000 		.4byte	0xba
 2030 0585 05       		.uleb128 0x5
 2031 0586 03       		.byte	0x3
 2032 0587 00000000 		.4byte	I2C_mstrWrBufIndexTmp
 2033 058b 17       		.uleb128 0x17
 2034 058c FE020000 		.4byte	.LASF52
 2035 0590 FE020000 		.4byte	.LASF52
 2036 0594 04       		.byte	0x4
 2037 0595 C5       		.byte	0xc5
 2038 0596 17       		.uleb128 0x17
 2039 0597 96010000 		.4byte	.LASF53
 2040 059b 96010000 		.4byte	.LASF53
 2041 059f 04       		.byte	0x4
 2042 05a0 C3       		.byte	0xc3
 2043 05a1 00       		.byte	0
 2044              		.section	.debug_abbrev,"",%progbits
 2045              	.Ldebug_abbrev0:
 2046 0000 01       		.uleb128 0x1
 2047 0001 11       		.uleb128 0x11
 2048 0002 01       		.byte	0x1
 2049 0003 25       		.uleb128 0x25
 2050 0004 0E       		.uleb128 0xe
 2051 0005 13       		.uleb128 0x13
 2052 0006 0B       		.uleb128 0xb
 2053 0007 03       		.uleb128 0x3
 2054 0008 0E       		.uleb128 0xe
 2055 0009 1B       		.uleb128 0x1b
 2056 000a 0E       		.uleb128 0xe
 2057 000b 55       		.uleb128 0x55
 2058 000c 17       		.uleb128 0x17
 2059 000d 11       		.uleb128 0x11
 2060 000e 01       		.uleb128 0x1
 2061 000f 10       		.uleb128 0x10
 2062 0010 17       		.uleb128 0x17
 2063 0011 00       		.byte	0
 2064 0012 00       		.byte	0
 2065 0013 02       		.uleb128 0x2
 2066 0014 24       		.uleb128 0x24
 2067 0015 00       		.byte	0
 2068 0016 0B       		.uleb128 0xb
 2069 0017 0B       		.uleb128 0xb
 2070 0018 3E       		.uleb128 0x3e
 2071 0019 0B       		.uleb128 0xb
 2072 001a 03       		.uleb128 0x3
ARM GAS  C:\Users\gjl\AppData\Local\Temp\ccHudlr6.s 			page 58


 2073 001b 0E       		.uleb128 0xe
 2074 001c 00       		.byte	0
 2075 001d 00       		.byte	0
 2076 001e 03       		.uleb128 0x3
 2077 001f 24       		.uleb128 0x24
 2078 0020 00       		.byte	0
 2079 0021 0B       		.uleb128 0xb
 2080 0022 0B       		.uleb128 0xb
 2081 0023 3E       		.uleb128 0x3e
 2082 0024 0B       		.uleb128 0xb
 2083 0025 03       		.uleb128 0x3
 2084 0026 08       		.uleb128 0x8
 2085 0027 00       		.byte	0
 2086 0028 00       		.byte	0
 2087 0029 04       		.uleb128 0x4
 2088 002a 16       		.uleb128 0x16
 2089 002b 00       		.byte	0
 2090 002c 03       		.uleb128 0x3
 2091 002d 0E       		.uleb128 0xe
 2092 002e 3A       		.uleb128 0x3a
 2093 002f 0B       		.uleb128 0xb
 2094 0030 3B       		.uleb128 0x3b
 2095 0031 05       		.uleb128 0x5
 2096 0032 49       		.uleb128 0x49
 2097 0033 13       		.uleb128 0x13
 2098 0034 00       		.byte	0
 2099 0035 00       		.byte	0
 2100 0036 05       		.uleb128 0x5
 2101 0037 35       		.uleb128 0x35
 2102 0038 00       		.byte	0
 2103 0039 49       		.uleb128 0x49
 2104 003a 13       		.uleb128 0x13
 2105 003b 00       		.byte	0
 2106 003c 00       		.byte	0
 2107 003d 06       		.uleb128 0x6
 2108 003e 2E       		.uleb128 0x2e
 2109 003f 01       		.byte	0x1
 2110 0040 3F       		.uleb128 0x3f
 2111 0041 19       		.uleb128 0x19
 2112 0042 03       		.uleb128 0x3
 2113 0043 0E       		.uleb128 0xe
 2114 0044 3A       		.uleb128 0x3a
 2115 0045 0B       		.uleb128 0xb
 2116 0046 3B       		.uleb128 0x3b
 2117 0047 05       		.uleb128 0x5
 2118 0048 27       		.uleb128 0x27
 2119 0049 19       		.uleb128 0x19
 2120 004a 49       		.uleb128 0x49
 2121 004b 13       		.uleb128 0x13
 2122 004c 11       		.uleb128 0x11
 2123 004d 01       		.uleb128 0x1
 2124 004e 12       		.uleb128 0x12
 2125 004f 06       		.uleb128 0x6
 2126 0050 40       		.uleb128 0x40
 2127 0051 18       		.uleb128 0x18
 2128 0052 9742     		.uleb128 0x2117
 2129 0054 19       		.uleb128 0x19
ARM GAS  C:\Users\gjl\AppData\Local\Temp\ccHudlr6.s 			page 59


 2130 0055 01       		.uleb128 0x1
 2131 0056 13       		.uleb128 0x13
 2132 0057 00       		.byte	0
 2133 0058 00       		.byte	0
 2134 0059 07       		.uleb128 0x7
 2135 005a 05       		.uleb128 0x5
 2136 005b 00       		.byte	0
 2137 005c 03       		.uleb128 0x3
 2138 005d 0E       		.uleb128 0xe
 2139 005e 3A       		.uleb128 0x3a
 2140 005f 0B       		.uleb128 0xb
 2141 0060 3B       		.uleb128 0x3b
 2142 0061 05       		.uleb128 0x5
 2143 0062 49       		.uleb128 0x49
 2144 0063 13       		.uleb128 0x13
 2145 0064 02       		.uleb128 0x2
 2146 0065 17       		.uleb128 0x17
 2147 0066 00       		.byte	0
 2148 0067 00       		.byte	0
 2149 0068 08       		.uleb128 0x8
 2150 0069 34       		.uleb128 0x34
 2151 006a 00       		.byte	0
 2152 006b 03       		.uleb128 0x3
 2153 006c 0E       		.uleb128 0xe
 2154 006d 3A       		.uleb128 0x3a
 2155 006e 0B       		.uleb128 0xb
 2156 006f 3B       		.uleb128 0x3b
 2157 0070 05       		.uleb128 0x5
 2158 0071 49       		.uleb128 0x49
 2159 0072 13       		.uleb128 0x13
 2160 0073 02       		.uleb128 0x2
 2161 0074 17       		.uleb128 0x17
 2162 0075 00       		.byte	0
 2163 0076 00       		.byte	0
 2164 0077 09       		.uleb128 0x9
 2165 0078 898201   		.uleb128 0x4109
 2166 007b 01       		.byte	0x1
 2167 007c 11       		.uleb128 0x11
 2168 007d 01       		.uleb128 0x1
 2169 007e 31       		.uleb128 0x31
 2170 007f 13       		.uleb128 0x13
 2171 0080 00       		.byte	0
 2172 0081 00       		.byte	0
 2173 0082 0A       		.uleb128 0xa
 2174 0083 8A8201   		.uleb128 0x410a
 2175 0086 00       		.byte	0
 2176 0087 02       		.uleb128 0x2
 2177 0088 18       		.uleb128 0x18
 2178 0089 9142     		.uleb128 0x2111
 2179 008b 18       		.uleb128 0x18
 2180 008c 00       		.byte	0
 2181 008d 00       		.byte	0
 2182 008e 0B       		.uleb128 0xb
 2183 008f 2E       		.uleb128 0x2e
 2184 0090 00       		.byte	0
 2185 0091 3F       		.uleb128 0x3f
 2186 0092 19       		.uleb128 0x19
ARM GAS  C:\Users\gjl\AppData\Local\Temp\ccHudlr6.s 			page 60


 2187 0093 03       		.uleb128 0x3
 2188 0094 0E       		.uleb128 0xe
 2189 0095 3A       		.uleb128 0x3a
 2190 0096 0B       		.uleb128 0xb
 2191 0097 3B       		.uleb128 0x3b
 2192 0098 05       		.uleb128 0x5
 2193 0099 27       		.uleb128 0x27
 2194 009a 19       		.uleb128 0x19
 2195 009b 49       		.uleb128 0x49
 2196 009c 13       		.uleb128 0x13
 2197 009d 11       		.uleb128 0x11
 2198 009e 01       		.uleb128 0x1
 2199 009f 12       		.uleb128 0x12
 2200 00a0 06       		.uleb128 0x6
 2201 00a1 40       		.uleb128 0x40
 2202 00a2 18       		.uleb128 0x18
 2203 00a3 9742     		.uleb128 0x2117
 2204 00a5 19       		.uleb128 0x19
 2205 00a6 00       		.byte	0
 2206 00a7 00       		.byte	0
 2207 00a8 0C       		.uleb128 0xc
 2208 00a9 2E       		.uleb128 0x2e
 2209 00aa 01       		.byte	0x1
 2210 00ab 3F       		.uleb128 0x3f
 2211 00ac 19       		.uleb128 0x19
 2212 00ad 03       		.uleb128 0x3
 2213 00ae 0E       		.uleb128 0xe
 2214 00af 3A       		.uleb128 0x3a
 2215 00b0 0B       		.uleb128 0xb
 2216 00b1 3B       		.uleb128 0x3b
 2217 00b2 05       		.uleb128 0x5
 2218 00b3 27       		.uleb128 0x27
 2219 00b4 19       		.uleb128 0x19
 2220 00b5 11       		.uleb128 0x11
 2221 00b6 01       		.uleb128 0x1
 2222 00b7 12       		.uleb128 0x12
 2223 00b8 06       		.uleb128 0x6
 2224 00b9 40       		.uleb128 0x40
 2225 00ba 18       		.uleb128 0x18
 2226 00bb 9742     		.uleb128 0x2117
 2227 00bd 19       		.uleb128 0x19
 2228 00be 01       		.uleb128 0x1
 2229 00bf 13       		.uleb128 0x13
 2230 00c0 00       		.byte	0
 2231 00c1 00       		.byte	0
 2232 00c2 0D       		.uleb128 0xd
 2233 00c3 898201   		.uleb128 0x4109
 2234 00c6 01       		.byte	0x1
 2235 00c7 11       		.uleb128 0x11
 2236 00c8 01       		.uleb128 0x1
 2237 00c9 31       		.uleb128 0x31
 2238 00ca 13       		.uleb128 0x13
 2239 00cb 01       		.uleb128 0x1
 2240 00cc 13       		.uleb128 0x13
 2241 00cd 00       		.byte	0
 2242 00ce 00       		.byte	0
 2243 00cf 0E       		.uleb128 0xe
ARM GAS  C:\Users\gjl\AppData\Local\Temp\ccHudlr6.s 			page 61


 2244 00d0 34       		.uleb128 0x34
 2245 00d1 00       		.byte	0
 2246 00d2 03       		.uleb128 0x3
 2247 00d3 08       		.uleb128 0x8
 2248 00d4 3A       		.uleb128 0x3a
 2249 00d5 0B       		.uleb128 0xb
 2250 00d6 3B       		.uleb128 0x3b
 2251 00d7 05       		.uleb128 0x5
 2252 00d8 49       		.uleb128 0x49
 2253 00d9 13       		.uleb128 0x13
 2254 00da 02       		.uleb128 0x2
 2255 00db 17       		.uleb128 0x17
 2256 00dc 00       		.byte	0
 2257 00dd 00       		.byte	0
 2258 00de 0F       		.uleb128 0xf
 2259 00df 2E       		.uleb128 0x2e
 2260 00e0 01       		.byte	0x1
 2261 00e1 3F       		.uleb128 0x3f
 2262 00e2 19       		.uleb128 0x19
 2263 00e3 03       		.uleb128 0x3
 2264 00e4 0E       		.uleb128 0xe
 2265 00e5 3A       		.uleb128 0x3a
 2266 00e6 0B       		.uleb128 0xb
 2267 00e7 3B       		.uleb128 0x3b
 2268 00e8 0B       		.uleb128 0xb
 2269 00e9 27       		.uleb128 0x27
 2270 00ea 19       		.uleb128 0x19
 2271 00eb 49       		.uleb128 0x49
 2272 00ec 13       		.uleb128 0x13
 2273 00ed 11       		.uleb128 0x11
 2274 00ee 01       		.uleb128 0x1
 2275 00ef 12       		.uleb128 0x12
 2276 00f0 06       		.uleb128 0x6
 2277 00f1 40       		.uleb128 0x40
 2278 00f2 18       		.uleb128 0x18
 2279 00f3 9742     		.uleb128 0x2117
 2280 00f5 19       		.uleb128 0x19
 2281 00f6 01       		.uleb128 0x1
 2282 00f7 13       		.uleb128 0x13
 2283 00f8 00       		.byte	0
 2284 00f9 00       		.byte	0
 2285 00fa 10       		.uleb128 0x10
 2286 00fb 05       		.uleb128 0x5
 2287 00fc 00       		.byte	0
 2288 00fd 03       		.uleb128 0x3
 2289 00fe 0E       		.uleb128 0xe
 2290 00ff 3A       		.uleb128 0x3a
 2291 0100 0B       		.uleb128 0xb
 2292 0101 3B       		.uleb128 0x3b
 2293 0102 0B       		.uleb128 0xb
 2294 0103 49       		.uleb128 0x49
 2295 0104 13       		.uleb128 0x13
 2296 0105 02       		.uleb128 0x2
 2297 0106 17       		.uleb128 0x17
 2298 0107 00       		.byte	0
 2299 0108 00       		.byte	0
 2300 0109 11       		.uleb128 0x11
ARM GAS  C:\Users\gjl\AppData\Local\Temp\ccHudlr6.s 			page 62


 2301 010a 05       		.uleb128 0x5
 2302 010b 00       		.byte	0
 2303 010c 03       		.uleb128 0x3
 2304 010d 08       		.uleb128 0x8
 2305 010e 3A       		.uleb128 0x3a
 2306 010f 0B       		.uleb128 0xb
 2307 0110 3B       		.uleb128 0x3b
 2308 0111 0B       		.uleb128 0xb
 2309 0112 49       		.uleb128 0x49
 2310 0113 13       		.uleb128 0x13
 2311 0114 02       		.uleb128 0x2
 2312 0115 17       		.uleb128 0x17
 2313 0116 00       		.byte	0
 2314 0117 00       		.byte	0
 2315 0118 12       		.uleb128 0x12
 2316 0119 34       		.uleb128 0x34
 2317 011a 00       		.byte	0
 2318 011b 03       		.uleb128 0x3
 2319 011c 0E       		.uleb128 0xe
 2320 011d 3A       		.uleb128 0x3a
 2321 011e 0B       		.uleb128 0xb
 2322 011f 3B       		.uleb128 0x3b
 2323 0120 0B       		.uleb128 0xb
 2324 0121 49       		.uleb128 0x49
 2325 0122 13       		.uleb128 0x13
 2326 0123 02       		.uleb128 0x2
 2327 0124 17       		.uleb128 0x17
 2328 0125 00       		.byte	0
 2329 0126 00       		.byte	0
 2330 0127 13       		.uleb128 0x13
 2331 0128 898201   		.uleb128 0x4109
 2332 012b 00       		.byte	0
 2333 012c 11       		.uleb128 0x11
 2334 012d 01       		.uleb128 0x1
 2335 012e 31       		.uleb128 0x31
 2336 012f 13       		.uleb128 0x13
 2337 0130 00       		.byte	0
 2338 0131 00       		.byte	0
 2339 0132 14       		.uleb128 0x14
 2340 0133 0F       		.uleb128 0xf
 2341 0134 00       		.byte	0
 2342 0135 0B       		.uleb128 0xb
 2343 0136 0B       		.uleb128 0xb
 2344 0137 49       		.uleb128 0x49
 2345 0138 13       		.uleb128 0x13
 2346 0139 00       		.byte	0
 2347 013a 00       		.byte	0
 2348 013b 15       		.uleb128 0x15
 2349 013c 34       		.uleb128 0x34
 2350 013d 00       		.byte	0
 2351 013e 03       		.uleb128 0x3
 2352 013f 0E       		.uleb128 0xe
 2353 0140 3A       		.uleb128 0x3a
 2354 0141 0B       		.uleb128 0xb
 2355 0142 3B       		.uleb128 0x3b
 2356 0143 0B       		.uleb128 0xb
 2357 0144 49       		.uleb128 0x49
ARM GAS  C:\Users\gjl\AppData\Local\Temp\ccHudlr6.s 			page 63


 2358 0145 13       		.uleb128 0x13
 2359 0146 3F       		.uleb128 0x3f
 2360 0147 19       		.uleb128 0x19
 2361 0148 3C       		.uleb128 0x3c
 2362 0149 19       		.uleb128 0x19
 2363 014a 00       		.byte	0
 2364 014b 00       		.byte	0
 2365 014c 16       		.uleb128 0x16
 2366 014d 34       		.uleb128 0x34
 2367 014e 00       		.byte	0
 2368 014f 03       		.uleb128 0x3
 2369 0150 0E       		.uleb128 0xe
 2370 0151 3A       		.uleb128 0x3a
 2371 0152 0B       		.uleb128 0xb
 2372 0153 3B       		.uleb128 0x3b
 2373 0154 0B       		.uleb128 0xb
 2374 0155 49       		.uleb128 0x49
 2375 0156 13       		.uleb128 0x13
 2376 0157 3F       		.uleb128 0x3f
 2377 0158 19       		.uleb128 0x19
 2378 0159 02       		.uleb128 0x2
 2379 015a 18       		.uleb128 0x18
 2380 015b 00       		.byte	0
 2381 015c 00       		.byte	0
 2382 015d 17       		.uleb128 0x17
 2383 015e 2E       		.uleb128 0x2e
 2384 015f 00       		.byte	0
 2385 0160 3F       		.uleb128 0x3f
 2386 0161 19       		.uleb128 0x19
 2387 0162 3C       		.uleb128 0x3c
 2388 0163 19       		.uleb128 0x19
 2389 0164 6E       		.uleb128 0x6e
 2390 0165 0E       		.uleb128 0xe
 2391 0166 03       		.uleb128 0x3
 2392 0167 0E       		.uleb128 0xe
 2393 0168 3A       		.uleb128 0x3a
 2394 0169 0B       		.uleb128 0xb
 2395 016a 3B       		.uleb128 0x3b
 2396 016b 0B       		.uleb128 0xb
 2397 016c 00       		.byte	0
 2398 016d 00       		.byte	0
 2399 016e 00       		.byte	0
 2400              		.section	.debug_loc,"",%progbits
 2401              	.Ldebug_loc0:
 2402              	.LLST0:
 2403 0000 00000000 		.4byte	.LVL0
 2404 0004 18000000 		.4byte	.LVL2
 2405 0008 0100     		.2byte	0x1
 2406 000a 50       		.byte	0x50
 2407 000b 18000000 		.4byte	.LVL2
 2408 000f 1E000000 		.4byte	.LVL4
 2409 0013 0100     		.2byte	0x1
 2410 0015 54       		.byte	0x54
 2411 0016 1E000000 		.4byte	.LVL4
 2412 001a 22000000 		.4byte	.LVL5
 2413 001e 0400     		.2byte	0x4
 2414 0020 F3       		.byte	0xf3
ARM GAS  C:\Users\gjl\AppData\Local\Temp\ccHudlr6.s 			page 64


 2415 0021 01       		.uleb128 0x1
 2416 0022 50       		.byte	0x50
 2417 0023 9F       		.byte	0x9f
 2418 0024 22000000 		.4byte	.LVL5
 2419 0028 B2000000 		.4byte	.LVL13
 2420 002c 0100     		.2byte	0x1
 2421 002e 54       		.byte	0x54
 2422 002f B2000000 		.4byte	.LVL13
 2423 0033 B4000000 		.4byte	.LVL14
 2424 0037 0100     		.2byte	0x1
 2425 0039 50       		.byte	0x50
 2426 003a B4000000 		.4byte	.LVL14
 2427 003e B6000000 		.4byte	.LVL15
 2428 0042 0100     		.2byte	0x1
 2429 0044 54       		.byte	0x54
 2430 0045 B6000000 		.4byte	.LVL15
 2431 0049 B8000000 		.4byte	.LVL16
 2432 004d 0100     		.2byte	0x1
 2433 004f 50       		.byte	0x50
 2434 0050 B8000000 		.4byte	.LVL16
 2435 0054 B8000000 		.4byte	.LVL17
 2436 0058 0100     		.2byte	0x1
 2437 005a 54       		.byte	0x54
 2438 005b 00000000 		.4byte	0
 2439 005f 00000000 		.4byte	0
 2440              	.LLST1:
 2441 0063 00000000 		.4byte	.LVL0
 2442 0067 1B000000 		.4byte	.LVL3-1
 2443 006b 0100     		.2byte	0x1
 2444 006d 51       		.byte	0x51
 2445 006e 1B000000 		.4byte	.LVL3-1
 2446 0072 B2000000 		.4byte	.LVL13
 2447 0076 0100     		.2byte	0x1
 2448 0078 55       		.byte	0x55
 2449 0079 B2000000 		.4byte	.LVL13
 2450 007d B8000000 		.4byte	.LVL16
 2451 0081 0100     		.2byte	0x1
 2452 0083 51       		.byte	0x51
 2453 0084 B8000000 		.4byte	.LVL16
 2454 0088 B8000000 		.4byte	.LVL18
 2455 008c 0100     		.2byte	0x1
 2456 008e 55       		.byte	0x55
 2457 008f B8000000 		.4byte	.LVL18
 2458 0093 D8000000 		.4byte	.LFE3
 2459 0097 0400     		.2byte	0x4
 2460 0099 F3       		.byte	0xf3
 2461 009a 01       		.uleb128 0x1
 2462 009b 51       		.byte	0x51
 2463 009c 9F       		.byte	0x9f
 2464 009d 00000000 		.4byte	0
 2465 00a1 00000000 		.4byte	0
 2466              	.LLST2:
 2467 00a5 06000000 		.4byte	.LVL1
 2468 00a9 72000000 		.4byte	.LVL7
 2469 00ad 0200     		.2byte	0x2
 2470 00af 30       		.byte	0x30
 2471 00b0 9F       		.byte	0x9f
ARM GAS  C:\Users\gjl\AppData\Local\Temp\ccHudlr6.s 			page 65


 2472 00b1 72000000 		.4byte	.LVL7
 2473 00b5 78000000 		.4byte	.LVL8
 2474 00b9 0200     		.2byte	0x2
 2475 00bb 31       		.byte	0x31
 2476 00bc 9F       		.byte	0x9f
 2477 00bd 78000000 		.4byte	.LVL8
 2478 00c1 7E000000 		.4byte	.LVL9
 2479 00c5 0200     		.2byte	0x2
 2480 00c7 30       		.byte	0x30
 2481 00c8 9F       		.byte	0x9f
 2482 00c9 7E000000 		.4byte	.LVL9
 2483 00cd 86000000 		.4byte	.LVL10
 2484 00d1 0200     		.2byte	0x2
 2485 00d3 31       		.byte	0x31
 2486 00d4 9F       		.byte	0x9f
 2487 00d5 86000000 		.4byte	.LVL10
 2488 00d9 90000000 		.4byte	.LVL11
 2489 00dd 0200     		.2byte	0x2
 2490 00df 30       		.byte	0x30
 2491 00e0 9F       		.byte	0x9f
 2492 00e1 90000000 		.4byte	.LVL11
 2493 00e5 AA000000 		.4byte	.LVL12
 2494 00e9 0100     		.2byte	0x1
 2495 00eb 51       		.byte	0x51
 2496 00ec B2000000 		.4byte	.LVL13
 2497 00f0 B8000000 		.4byte	.LVL16
 2498 00f4 0200     		.2byte	0x2
 2499 00f6 30       		.byte	0x30
 2500 00f7 9F       		.byte	0x9f
 2501 00f8 00000000 		.4byte	0
 2502 00fc 00000000 		.4byte	0
 2503              	.LLST3:
 2504 0100 06000000 		.4byte	.LVL1
 2505 0104 72000000 		.4byte	.LVL7
 2506 0108 0200     		.2byte	0x2
 2507 010a 34       		.byte	0x34
 2508 010b 9F       		.byte	0x9f
 2509 010c 72000000 		.4byte	.LVL7
 2510 0110 78000000 		.4byte	.LVL8
 2511 0114 0200     		.2byte	0x2
 2512 0116 31       		.byte	0x31
 2513 0117 9F       		.byte	0x9f
 2514 0118 78000000 		.4byte	.LVL8
 2515 011c 7E000000 		.4byte	.LVL9
 2516 0120 0200     		.2byte	0x2
 2517 0122 34       		.byte	0x34
 2518 0123 9F       		.byte	0x9f
 2519 0124 7E000000 		.4byte	.LVL9
 2520 0128 86000000 		.4byte	.LVL10
 2521 012c 0400     		.2byte	0x4
 2522 012e 0A       		.byte	0xa
 2523 012f 0001     		.2byte	0x100
 2524 0131 9F       		.byte	0x9f
 2525 0132 86000000 		.4byte	.LVL10
 2526 0136 90000000 		.4byte	.LVL11
 2527 013a 0200     		.2byte	0x2
 2528 013c 34       		.byte	0x34
ARM GAS  C:\Users\gjl\AppData\Local\Temp\ccHudlr6.s 			page 66


 2529 013d 9F       		.byte	0x9f
 2530 013e 90000000 		.4byte	.LVL11
 2531 0142 B2000000 		.4byte	.LVL13
 2532 0146 0100     		.2byte	0x1
 2533 0148 50       		.byte	0x50
 2534 0149 B2000000 		.4byte	.LVL13
 2535 014d B8000000 		.4byte	.LVL16
 2536 0151 0200     		.2byte	0x2
 2537 0153 34       		.byte	0x34
 2538 0154 9F       		.byte	0x9f
 2539 0155 B8000000 		.4byte	.LVL16
 2540 0159 D8000000 		.4byte	.LFE3
 2541 015d 0100     		.2byte	0x1
 2542 015f 50       		.byte	0x50
 2543 0160 00000000 		.4byte	0
 2544 0164 00000000 		.4byte	0
 2545              	.LLST4:
 2546 0168 00000000 		.4byte	.LVL19
 2547 016c 48000000 		.4byte	.LVL20
 2548 0170 0200     		.2byte	0x2
 2549 0172 30       		.byte	0x30
 2550 0173 9F       		.byte	0x9f
 2551 0174 48000000 		.4byte	.LVL20
 2552 0178 6A000000 		.4byte	.LVL21
 2553 017c 0100     		.2byte	0x1
 2554 017e 51       		.byte	0x51
 2555 017f 72000000 		.4byte	.LVL22
 2556 0183 74000000 		.4byte	.LVL23
 2557 0187 0200     		.2byte	0x2
 2558 0189 30       		.byte	0x30
 2559 018a 9F       		.byte	0x9f
 2560 018b 00000000 		.4byte	0
 2561 018f 00000000 		.4byte	0
 2562              	.LLST5:
 2563 0193 00000000 		.4byte	.LVL19
 2564 0197 48000000 		.4byte	.LVL20
 2565 019b 0200     		.2byte	0x2
 2566 019d 34       		.byte	0x34
 2567 019e 9F       		.byte	0x9f
 2568 019f 48000000 		.4byte	.LVL20
 2569 01a3 72000000 		.4byte	.LVL22
 2570 01a7 0100     		.2byte	0x1
 2571 01a9 50       		.byte	0x50
 2572 01aa 72000000 		.4byte	.LVL22
 2573 01ae 74000000 		.4byte	.LVL23
 2574 01b2 0200     		.2byte	0x2
 2575 01b4 34       		.byte	0x34
 2576 01b5 9F       		.byte	0x9f
 2577 01b6 74000000 		.4byte	.LVL23
 2578 01ba 8C000000 		.4byte	.LFE5
 2579 01be 0100     		.2byte	0x1
 2580 01c0 50       		.byte	0x50
 2581 01c1 00000000 		.4byte	0
 2582 01c5 00000000 		.4byte	0
 2583              	.LLST6:
 2584 01c9 00000000 		.4byte	.LVL24
 2585 01cd 28000000 		.4byte	.LVL26
ARM GAS  C:\Users\gjl\AppData\Local\Temp\ccHudlr6.s 			page 67


 2586 01d1 0100     		.2byte	0x1
 2587 01d3 50       		.byte	0x50
 2588 01d4 28000000 		.4byte	.LVL26
 2589 01d8 2C000000 		.4byte	.LVL27
 2590 01dc 0400     		.2byte	0x4
 2591 01de F3       		.byte	0xf3
 2592 01df 01       		.uleb128 0x1
 2593 01e0 50       		.byte	0x50
 2594 01e1 9F       		.byte	0x9f
 2595 01e2 2C000000 		.4byte	.LVL27
 2596 01e6 3C000000 		.4byte	.LVL29
 2597 01ea 0100     		.2byte	0x1
 2598 01ec 50       		.byte	0x50
 2599 01ed 3C000000 		.4byte	.LVL29
 2600 01f1 40000000 		.4byte	.LVL30
 2601 01f5 0400     		.2byte	0x4
 2602 01f7 F3       		.byte	0xf3
 2603 01f8 01       		.uleb128 0x1
 2604 01f9 50       		.byte	0x50
 2605 01fa 9F       		.byte	0x9f
 2606 01fb 40000000 		.4byte	.LVL30
 2607 01ff 50000000 		.4byte	.LVL32
 2608 0203 0100     		.2byte	0x1
 2609 0205 50       		.byte	0x50
 2610 0206 50000000 		.4byte	.LVL32
 2611 020a 54000000 		.4byte	.LVL33
 2612 020e 0400     		.2byte	0x4
 2613 0210 F3       		.byte	0xf3
 2614 0211 01       		.uleb128 0x1
 2615 0212 50       		.byte	0x50
 2616 0213 9F       		.byte	0x9f
 2617 0214 54000000 		.4byte	.LVL33
 2618 0218 5C000000 		.4byte	.LVL35
 2619 021c 0100     		.2byte	0x1
 2620 021e 50       		.byte	0x50
 2621 021f 5C000000 		.4byte	.LVL35
 2622 0223 82000000 		.4byte	.LVL38
 2623 0227 0400     		.2byte	0x4
 2624 0229 F3       		.byte	0xf3
 2625 022a 01       		.uleb128 0x1
 2626 022b 50       		.byte	0x50
 2627 022c 9F       		.byte	0x9f
 2628 022d 82000000 		.4byte	.LVL38
 2629 0231 84000000 		.4byte	.LVL39
 2630 0235 0100     		.2byte	0x1
 2631 0237 50       		.byte	0x50
 2632 0238 84000000 		.4byte	.LVL39
 2633 023c 98000000 		.4byte	.LFE6
 2634 0240 0400     		.2byte	0x4
 2635 0242 F3       		.byte	0xf3
 2636 0243 01       		.uleb128 0x1
 2637 0244 50       		.byte	0x50
 2638 0245 9F       		.byte	0x9f
 2639 0246 00000000 		.4byte	0
 2640 024a 00000000 		.4byte	0
 2641              	.LLST7:
 2642 024e 00000000 		.4byte	.LVL24
ARM GAS  C:\Users\gjl\AppData\Local\Temp\ccHudlr6.s 			page 68


 2643 0252 4E000000 		.4byte	.LVL31
 2644 0256 0200     		.2byte	0x2
 2645 0258 30       		.byte	0x30
 2646 0259 9F       		.byte	0x9f
 2647 025a 4E000000 		.4byte	.LVL31
 2648 025e 54000000 		.4byte	.LVL33
 2649 0262 0200     		.2byte	0x2
 2650 0264 31       		.byte	0x31
 2651 0265 9F       		.byte	0x9f
 2652 0266 54000000 		.4byte	.LVL33
 2653 026a 5A000000 		.4byte	.LVL34
 2654 026e 0200     		.2byte	0x2
 2655 0270 30       		.byte	0x30
 2656 0271 9F       		.byte	0x9f
 2657 0272 5A000000 		.4byte	.LVL34
 2658 0276 60000000 		.4byte	.LVL36
 2659 027a 0200     		.2byte	0x2
 2660 027c 31       		.byte	0x31
 2661 027d 9F       		.byte	0x9f
 2662 027e 60000000 		.4byte	.LVL36
 2663 0282 7A000000 		.4byte	.LVL37
 2664 0286 0100     		.2byte	0x1
 2665 0288 51       		.byte	0x51
 2666 0289 82000000 		.4byte	.LVL38
 2667 028d 84000000 		.4byte	.LVL39
 2668 0291 0200     		.2byte	0x2
 2669 0293 30       		.byte	0x30
 2670 0294 9F       		.byte	0x9f
 2671 0295 00000000 		.4byte	0
 2672 0299 00000000 		.4byte	0
 2673              	.LLST8:
 2674 029d 00000000 		.4byte	.LVL24
 2675 02a1 26000000 		.4byte	.LVL25
 2676 02a5 0200     		.2byte	0x2
 2677 02a7 34       		.byte	0x34
 2678 02a8 9F       		.byte	0x9f
 2679 02a9 26000000 		.4byte	.LVL25
 2680 02ad 2C000000 		.4byte	.LVL27
 2681 02b1 0200     		.2byte	0x2
 2682 02b3 30       		.byte	0x30
 2683 02b4 9F       		.byte	0x9f
 2684 02b5 2C000000 		.4byte	.LVL27
 2685 02b9 3A000000 		.4byte	.LVL28
 2686 02bd 0200     		.2byte	0x2
 2687 02bf 34       		.byte	0x34
 2688 02c0 9F       		.byte	0x9f
 2689 02c1 3A000000 		.4byte	.LVL28
 2690 02c5 40000000 		.4byte	.LVL30
 2691 02c9 0200     		.2byte	0x2
 2692 02cb 32       		.byte	0x32
 2693 02cc 9F       		.byte	0x9f
 2694 02cd 40000000 		.4byte	.LVL30
 2695 02d1 4E000000 		.4byte	.LVL31
 2696 02d5 0200     		.2byte	0x2
 2697 02d7 34       		.byte	0x34
 2698 02d8 9F       		.byte	0x9f
 2699 02d9 4E000000 		.4byte	.LVL31
ARM GAS  C:\Users\gjl\AppData\Local\Temp\ccHudlr6.s 			page 69


 2700 02dd 54000000 		.4byte	.LVL33
 2701 02e1 0200     		.2byte	0x2
 2702 02e3 31       		.byte	0x31
 2703 02e4 9F       		.byte	0x9f
 2704 02e5 54000000 		.4byte	.LVL33
 2705 02e9 5A000000 		.4byte	.LVL34
 2706 02ed 0200     		.2byte	0x2
 2707 02ef 34       		.byte	0x34
 2708 02f0 9F       		.byte	0x9f
 2709 02f1 5A000000 		.4byte	.LVL34
 2710 02f5 60000000 		.4byte	.LVL36
 2711 02f9 0400     		.2byte	0x4
 2712 02fb 0A       		.byte	0xa
 2713 02fc 0001     		.2byte	0x100
 2714 02fe 9F       		.byte	0x9f
 2715 02ff 60000000 		.4byte	.LVL36
 2716 0303 82000000 		.4byte	.LVL38
 2717 0307 0100     		.2byte	0x1
 2718 0309 50       		.byte	0x50
 2719 030a 82000000 		.4byte	.LVL38
 2720 030e 84000000 		.4byte	.LVL39
 2721 0312 0200     		.2byte	0x2
 2722 0314 34       		.byte	0x34
 2723 0315 9F       		.byte	0x9f
 2724 0316 84000000 		.4byte	.LVL39
 2725 031a 98000000 		.4byte	.LFE6
 2726 031e 0100     		.2byte	0x1
 2727 0320 50       		.byte	0x50
 2728 0321 00000000 		.4byte	0
 2729 0325 00000000 		.4byte	0
 2730              	.LLST9:
 2731 0329 00000000 		.4byte	.LVL40
 2732 032d 2A000000 		.4byte	.LVL42
 2733 0331 0100     		.2byte	0x1
 2734 0333 50       		.byte	0x50
 2735 0334 2A000000 		.4byte	.LVL42
 2736 0338 42000000 		.4byte	.LVL43
 2737 033c 0100     		.2byte	0x1
 2738 033e 51       		.byte	0x51
 2739 033f 42000000 		.4byte	.LVL43
 2740 0343 5E000000 		.4byte	.LVL44
 2741 0347 0100     		.2byte	0x1
 2742 0349 50       		.byte	0x50
 2743 034a 5E000000 		.4byte	.LVL44
 2744 034e 62000000 		.4byte	.LVL45
 2745 0352 0400     		.2byte	0x4
 2746 0354 F3       		.byte	0xf3
 2747 0355 01       		.uleb128 0x1
 2748 0356 50       		.byte	0x50
 2749 0357 9F       		.byte	0x9f
 2750 0358 62000000 		.4byte	.LVL45
 2751 035c 64000000 		.4byte	.LVL46
 2752 0360 0100     		.2byte	0x1
 2753 0362 50       		.byte	0x50
 2754 0363 64000000 		.4byte	.LVL46
 2755 0367 66000000 		.4byte	.LVL47
 2756 036b 0100     		.2byte	0x1
ARM GAS  C:\Users\gjl\AppData\Local\Temp\ccHudlr6.s 			page 70


 2757 036d 51       		.byte	0x51
 2758 036e 66000000 		.4byte	.LVL47
 2759 0372 84000000 		.4byte	.LFE7
 2760 0376 0400     		.2byte	0x4
 2761 0378 F3       		.byte	0xf3
 2762 0379 01       		.uleb128 0x1
 2763 037a 50       		.byte	0x50
 2764 037b 9F       		.byte	0x9f
 2765 037c 00000000 		.4byte	0
 2766 0380 00000000 		.4byte	0
 2767              	.LLST10:
 2768 0384 02000000 		.4byte	.LVL41
 2769 0388 2A000000 		.4byte	.LVL42
 2770 038c 0300     		.2byte	0x3
 2771 038e 09       		.byte	0x9
 2772 038f FF       		.byte	0xff
 2773 0390 9F       		.byte	0x9f
 2774 0391 2A000000 		.4byte	.LVL42
 2775 0395 42000000 		.4byte	.LVL43
 2776 0399 0100     		.2byte	0x1
 2777 039b 50       		.byte	0x50
 2778 039c 42000000 		.4byte	.LVL43
 2779 03a0 66000000 		.4byte	.LVL47
 2780 03a4 0300     		.2byte	0x3
 2781 03a6 09       		.byte	0x9
 2782 03a7 FF       		.byte	0xff
 2783 03a8 9F       		.byte	0x9f
 2784 03a9 66000000 		.4byte	.LVL47
 2785 03ad 84000000 		.4byte	.LFE7
 2786 03b1 0100     		.2byte	0x1
 2787 03b3 50       		.byte	0x50
 2788 03b4 00000000 		.4byte	0
 2789 03b8 00000000 		.4byte	0
 2790              	.LLST11:
 2791 03bc 10000000 		.4byte	.LVL53
 2792 03c0 1C000000 		.4byte	.LVL54
 2793 03c4 0100     		.2byte	0x1
 2794 03c6 52       		.byte	0x52
 2795 03c7 1C000000 		.4byte	.LVL54
 2796 03cb 26000000 		.4byte	.LVL57
 2797 03cf 0100     		.2byte	0x1
 2798 03d1 54       		.byte	0x54
 2799 03d2 26000000 		.4byte	.LVL57
 2800 03d6 30000000 		.4byte	.LFE12
 2801 03da 0100     		.2byte	0x1
 2802 03dc 50       		.byte	0x50
 2803 03dd 00000000 		.4byte	0
 2804 03e1 00000000 		.4byte	0
 2805              	.LLST12:
 2806 03e5 0E000000 		.4byte	.LVL59
 2807 03e9 1A000000 		.4byte	.LVL61
 2808 03ed 0100     		.2byte	0x1
 2809 03ef 54       		.byte	0x54
 2810 03f0 1A000000 		.4byte	.LVL61
 2811 03f4 20000000 		.4byte	.LFE13
 2812 03f8 0100     		.2byte	0x1
 2813 03fa 50       		.byte	0x50
ARM GAS  C:\Users\gjl\AppData\Local\Temp\ccHudlr6.s 			page 71


 2814 03fb 00000000 		.4byte	0
 2815 03ff 00000000 		.4byte	0
 2816              	.LLST13:
 2817 0403 00000000 		.4byte	.LVL62
 2818 0407 10000000 		.4byte	.LVL63
 2819 040b 0200     		.2byte	0x2
 2820 040d 31       		.byte	0x31
 2821 040e 9F       		.byte	0x9f
 2822 040f 10000000 		.4byte	.LVL63
 2823 0413 20000000 		.4byte	.LFE14
 2824 0417 0100     		.2byte	0x1
 2825 0419 53       		.byte	0x53
 2826 041a 00000000 		.4byte	0
 2827 041e 00000000 		.4byte	0
 2828              	.LLST14:
 2829 0422 00000000 		.4byte	.LVL64
 2830 0426 1A000000 		.4byte	.LVL67
 2831 042a 0100     		.2byte	0x1
 2832 042c 50       		.byte	0x50
 2833 042d 1A000000 		.4byte	.LVL67
 2834 0431 2A000000 		.4byte	.LVL69
 2835 0435 0200     		.2byte	0x2
 2836 0437 91       		.byte	0x91
 2837 0438 64       		.sleb128 -28
 2838 0439 2A000000 		.4byte	.LVL69
 2839 043d 44000000 		.4byte	.LVL74
 2840 0441 0100     		.2byte	0x1
 2841 0443 50       		.byte	0x50
 2842 0444 44000000 		.4byte	.LVL74
 2843 0448 48000000 		.4byte	.LVL75
 2844 044c 0200     		.2byte	0x2
 2845 044e 91       		.byte	0x91
 2846 044f 64       		.sleb128 -28
 2847 0450 48000000 		.4byte	.LVL75
 2848 0454 4A000000 		.4byte	.LVL76
 2849 0458 0100     		.2byte	0x1
 2850 045a 50       		.byte	0x50
 2851 045b 4A000000 		.4byte	.LVL76
 2852 045f 74000000 		.4byte	.LVL78
 2853 0463 0200     		.2byte	0x2
 2854 0465 91       		.byte	0x91
 2855 0466 64       		.sleb128 -28
 2856 0467 74000000 		.4byte	.LVL78
 2857 046b A6000000 		.4byte	.LVL81
 2858 046f 0100     		.2byte	0x1
 2859 0471 54       		.byte	0x54
 2860 0472 00000000 		.4byte	0
 2861 0476 00000000 		.4byte	0
 2862              	.LLST15:
 2863 047a 00000000 		.4byte	.LVL64
 2864 047e 1D000000 		.4byte	.LVL68-1
 2865 0482 0100     		.2byte	0x1
 2866 0484 51       		.byte	0x51
 2867 0485 1D000000 		.4byte	.LVL68-1
 2868 0489 2A000000 		.4byte	.LVL69
 2869 048d 0100     		.2byte	0x1
 2870 048f 54       		.byte	0x54
ARM GAS  C:\Users\gjl\AppData\Local\Temp\ccHudlr6.s 			page 72


 2871 0490 2A000000 		.4byte	.LVL69
 2872 0494 38000000 		.4byte	.LVL71
 2873 0498 0100     		.2byte	0x1
 2874 049a 51       		.byte	0x51
 2875 049b 38000000 		.4byte	.LVL71
 2876 049f 40000000 		.4byte	.LVL73
 2877 04a3 0100     		.2byte	0x1
 2878 04a5 54       		.byte	0x54
 2879 04a6 40000000 		.4byte	.LVL73
 2880 04aa 44000000 		.4byte	.LVL74
 2881 04ae 0100     		.2byte	0x1
 2882 04b0 51       		.byte	0x51
 2883 04b1 44000000 		.4byte	.LVL74
 2884 04b5 48000000 		.4byte	.LVL75
 2885 04b9 0100     		.2byte	0x1
 2886 04bb 54       		.byte	0x54
 2887 04bc 48000000 		.4byte	.LVL75
 2888 04c0 4A000000 		.4byte	.LVL76
 2889 04c4 0100     		.2byte	0x1
 2890 04c6 51       		.byte	0x51
 2891 04c7 4A000000 		.4byte	.LVL76
 2892 04cb 70000000 		.4byte	.LVL77
 2893 04cf 0100     		.2byte	0x1
 2894 04d1 54       		.byte	0x54
 2895 04d2 70000000 		.4byte	.LVL77
 2896 04d6 84000000 		.4byte	.LVL79
 2897 04da 0500     		.2byte	0x5
 2898 04dc 03       		.byte	0x3
 2899 04dd 00000000 		.4byte	I2C_mstrWrBufPtr
 2900 04e1 84000000 		.4byte	.LVL79
 2901 04e5 EC000000 		.4byte	.LFE1
 2902 04e9 0400     		.2byte	0x4
 2903 04eb F3       		.byte	0xf3
 2904 04ec 01       		.uleb128 0x1
 2905 04ed 51       		.byte	0x51
 2906 04ee 9F       		.byte	0x9f
 2907 04ef 00000000 		.4byte	0
 2908 04f3 00000000 		.4byte	0
 2909              	.LLST16:
 2910 04f7 00000000 		.4byte	.LVL64
 2911 04fb 1D000000 		.4byte	.LVL68-1
 2912 04ff 0100     		.2byte	0x1
 2913 0501 52       		.byte	0x52
 2914 0502 1D000000 		.4byte	.LVL68-1
 2915 0506 2A000000 		.4byte	.LVL69
 2916 050a 0100     		.2byte	0x1
 2917 050c 57       		.byte	0x57
 2918 050d 2A000000 		.4byte	.LVL69
 2919 0511 34000000 		.4byte	.LVL70
 2920 0515 0100     		.2byte	0x1
 2921 0517 52       		.byte	0x52
 2922 0518 34000000 		.4byte	.LVL70
 2923 051c 40000000 		.4byte	.LVL73
 2924 0520 0100     		.2byte	0x1
 2925 0522 57       		.byte	0x57
 2926 0523 40000000 		.4byte	.LVL73
 2927 0527 44000000 		.4byte	.LVL74
ARM GAS  C:\Users\gjl\AppData\Local\Temp\ccHudlr6.s 			page 73


 2928 052b 0100     		.2byte	0x1
 2929 052d 52       		.byte	0x52
 2930 052e 44000000 		.4byte	.LVL74
 2931 0532 48000000 		.4byte	.LVL75
 2932 0536 0100     		.2byte	0x1
 2933 0538 57       		.byte	0x57
 2934 0539 48000000 		.4byte	.LVL75
 2935 053d 4A000000 		.4byte	.LVL76
 2936 0541 0100     		.2byte	0x1
 2937 0543 52       		.byte	0x52
 2938 0544 4A000000 		.4byte	.LVL76
 2939 0548 B0000000 		.4byte	.LVL85
 2940 054c 0100     		.2byte	0x1
 2941 054e 57       		.byte	0x57
 2942 054f B0000000 		.4byte	.LVL85
 2943 0553 EC000000 		.4byte	.LFE1
 2944 0557 0400     		.2byte	0x4
 2945 0559 F3       		.byte	0xf3
 2946 055a 01       		.uleb128 0x1
 2947 055b 52       		.byte	0x52
 2948 055c 9F       		.byte	0x9f
 2949 055d 00000000 		.4byte	0
 2950 0561 00000000 		.4byte	0
 2951              	.LLST17:
 2952 0565 00000000 		.4byte	.LVL64
 2953 0569 12000000 		.4byte	.LVL66
 2954 056d 0100     		.2byte	0x1
 2955 056f 53       		.byte	0x53
 2956 0570 12000000 		.4byte	.LVL66
 2957 0574 40000000 		.4byte	.LVL73
 2958 0578 0100     		.2byte	0x1
 2959 057a 55       		.byte	0x55
 2960 057b 40000000 		.4byte	.LVL73
 2961 057f 44000000 		.4byte	.LVL74
 2962 0583 0100     		.2byte	0x1
 2963 0585 53       		.byte	0x53
 2964 0586 44000000 		.4byte	.LVL74
 2965 058a B0000000 		.4byte	.LVL83
 2966 058e 0100     		.2byte	0x1
 2967 0590 55       		.byte	0x55
 2968 0591 B0000000 		.4byte	.LVL83
 2969 0595 EC000000 		.4byte	.LFE1
 2970 0599 0400     		.2byte	0x4
 2971 059b F3       		.byte	0xf3
 2972 059c 01       		.uleb128 0x1
 2973 059d 53       		.byte	0x53
 2974 059e 9F       		.byte	0x9f
 2975 059f 00000000 		.4byte	0
 2976 05a3 00000000 		.4byte	0
 2977              	.LLST18:
 2978 05a7 0C000000 		.4byte	.LVL65
 2979 05ab 3C000000 		.4byte	.LVL72
 2980 05af 0200     		.2byte	0x2
 2981 05b1 34       		.byte	0x34
 2982 05b2 9F       		.byte	0x9f
 2983 05b3 3C000000 		.4byte	.LVL72
 2984 05b7 40000000 		.4byte	.LVL73
ARM GAS  C:\Users\gjl\AppData\Local\Temp\ccHudlr6.s 			page 74


 2985 05bb 0200     		.2byte	0x2
 2986 05bd 30       		.byte	0x30
 2987 05be 9F       		.byte	0x9f
 2988 05bf 40000000 		.4byte	.LVL73
 2989 05c3 4A000000 		.4byte	.LVL76
 2990 05c7 0200     		.2byte	0x2
 2991 05c9 34       		.byte	0x34
 2992 05ca 9F       		.byte	0x9f
 2993 05cb 4A000000 		.4byte	.LVL76
 2994 05cf B0000000 		.4byte	.LVL84
 2995 05d3 0100     		.2byte	0x1
 2996 05d5 56       		.byte	0x56
 2997 05d6 B0000000 		.4byte	.LVL84
 2998 05da EC000000 		.4byte	.LFE1
 2999 05de 0100     		.2byte	0x1
 3000 05e0 50       		.byte	0x50
 3001 05e1 00000000 		.4byte	0
 3002 05e5 00000000 		.4byte	0
 3003              	.LLST19:
 3004 05e9 00000000 		.4byte	.LVL86
 3005 05ed 1A000000 		.4byte	.LVL89
 3006 05f1 0100     		.2byte	0x1
 3007 05f3 50       		.byte	0x50
 3008 05f4 1A000000 		.4byte	.LVL89
 3009 05f8 2A000000 		.4byte	.LVL91
 3010 05fc 0200     		.2byte	0x2
 3011 05fe 91       		.byte	0x91
 3012 05ff 64       		.sleb128 -28
 3013 0600 2A000000 		.4byte	.LVL91
 3014 0604 44000000 		.4byte	.LVL96
 3015 0608 0100     		.2byte	0x1
 3016 060a 50       		.byte	0x50
 3017 060b 44000000 		.4byte	.LVL96
 3018 060f 48000000 		.4byte	.LVL97
 3019 0613 0200     		.2byte	0x2
 3020 0615 91       		.byte	0x91
 3021 0616 64       		.sleb128 -28
 3022 0617 48000000 		.4byte	.LVL97
 3023 061b 4A000000 		.4byte	.LVL98
 3024 061f 0100     		.2byte	0x1
 3025 0621 50       		.byte	0x50
 3026 0622 4A000000 		.4byte	.LVL98
 3027 0626 74000000 		.4byte	.LVL100
 3028 062a 0200     		.2byte	0x2
 3029 062c 91       		.byte	0x91
 3030 062d 64       		.sleb128 -28
 3031 062e 74000000 		.4byte	.LVL100
 3032 0632 BA000000 		.4byte	.LVL103
 3033 0636 0100     		.2byte	0x1
 3034 0638 54       		.byte	0x54
 3035 0639 00000000 		.4byte	0
 3036 063d 00000000 		.4byte	0
 3037              	.LLST20:
 3038 0641 00000000 		.4byte	.LVL86
 3039 0645 1D000000 		.4byte	.LVL90-1
 3040 0649 0100     		.2byte	0x1
 3041 064b 51       		.byte	0x51
ARM GAS  C:\Users\gjl\AppData\Local\Temp\ccHudlr6.s 			page 75


 3042 064c 1D000000 		.4byte	.LVL90-1
 3043 0650 2A000000 		.4byte	.LVL91
 3044 0654 0100     		.2byte	0x1
 3045 0656 54       		.byte	0x54
 3046 0657 2A000000 		.4byte	.LVL91
 3047 065b 38000000 		.4byte	.LVL93
 3048 065f 0100     		.2byte	0x1
 3049 0661 51       		.byte	0x51
 3050 0662 38000000 		.4byte	.LVL93
 3051 0666 40000000 		.4byte	.LVL95
 3052 066a 0100     		.2byte	0x1
 3053 066c 54       		.byte	0x54
 3054 066d 40000000 		.4byte	.LVL95
 3055 0671 44000000 		.4byte	.LVL96
 3056 0675 0100     		.2byte	0x1
 3057 0677 51       		.byte	0x51
 3058 0678 44000000 		.4byte	.LVL96
 3059 067c 48000000 		.4byte	.LVL97
 3060 0680 0100     		.2byte	0x1
 3061 0682 54       		.byte	0x54
 3062 0683 48000000 		.4byte	.LVL97
 3063 0687 4A000000 		.4byte	.LVL98
 3064 068b 0100     		.2byte	0x1
 3065 068d 51       		.byte	0x51
 3066 068e 4A000000 		.4byte	.LVL98
 3067 0692 6C000000 		.4byte	.LVL99
 3068 0696 0100     		.2byte	0x1
 3069 0698 54       		.byte	0x54
 3070 0699 6C000000 		.4byte	.LVL99
 3071 069d 82000000 		.4byte	.LVL101
 3072 06a1 0500     		.2byte	0x5
 3073 06a3 03       		.byte	0x3
 3074 06a4 00000000 		.4byte	I2C_mstrRdBufPtr
 3075 06a8 82000000 		.4byte	.LVL101
 3076 06ac FC000000 		.4byte	.LFE2
 3077 06b0 0400     		.2byte	0x4
 3078 06b2 F3       		.byte	0xf3
 3079 06b3 01       		.uleb128 0x1
 3080 06b4 51       		.byte	0x51
 3081 06b5 9F       		.byte	0x9f
 3082 06b6 00000000 		.4byte	0
 3083 06ba 00000000 		.4byte	0
 3084              	.LLST21:
 3085 06be 00000000 		.4byte	.LVL86
 3086 06c2 1D000000 		.4byte	.LVL90-1
 3087 06c6 0100     		.2byte	0x1
 3088 06c8 52       		.byte	0x52
 3089 06c9 1D000000 		.4byte	.LVL90-1
 3090 06cd 2A000000 		.4byte	.LVL91
 3091 06d1 0100     		.2byte	0x1
 3092 06d3 57       		.byte	0x57
 3093 06d4 2A000000 		.4byte	.LVL91
 3094 06d8 34000000 		.4byte	.LVL92
 3095 06dc 0100     		.2byte	0x1
 3096 06de 52       		.byte	0x52
 3097 06df 34000000 		.4byte	.LVL92
 3098 06e3 40000000 		.4byte	.LVL95
ARM GAS  C:\Users\gjl\AppData\Local\Temp\ccHudlr6.s 			page 76


 3099 06e7 0100     		.2byte	0x1
 3100 06e9 57       		.byte	0x57
 3101 06ea 40000000 		.4byte	.LVL95
 3102 06ee 44000000 		.4byte	.LVL96
 3103 06f2 0100     		.2byte	0x1
 3104 06f4 52       		.byte	0x52
 3105 06f5 44000000 		.4byte	.LVL96
 3106 06f9 48000000 		.4byte	.LVL97
 3107 06fd 0100     		.2byte	0x1
 3108 06ff 57       		.byte	0x57
 3109 0700 48000000 		.4byte	.LVL97
 3110 0704 4A000000 		.4byte	.LVL98
 3111 0708 0100     		.2byte	0x1
 3112 070a 52       		.byte	0x52
 3113 070b 4A000000 		.4byte	.LVL98
 3114 070f C4000000 		.4byte	.LVL107
 3115 0713 0100     		.2byte	0x1
 3116 0715 57       		.byte	0x57
 3117 0716 C4000000 		.4byte	.LVL107
 3118 071a FC000000 		.4byte	.LFE2
 3119 071e 0400     		.2byte	0x4
 3120 0720 F3       		.byte	0xf3
 3121 0721 01       		.uleb128 0x1
 3122 0722 52       		.byte	0x52
 3123 0723 9F       		.byte	0x9f
 3124 0724 00000000 		.4byte	0
 3125 0728 00000000 		.4byte	0
 3126              	.LLST22:
 3127 072c 00000000 		.4byte	.LVL86
 3128 0730 12000000 		.4byte	.LVL88
 3129 0734 0100     		.2byte	0x1
 3130 0736 53       		.byte	0x53
 3131 0737 12000000 		.4byte	.LVL88
 3132 073b 40000000 		.4byte	.LVL95
 3133 073f 0100     		.2byte	0x1
 3134 0741 55       		.byte	0x55
 3135 0742 40000000 		.4byte	.LVL95
 3136 0746 44000000 		.4byte	.LVL96
 3137 074a 0100     		.2byte	0x1
 3138 074c 53       		.byte	0x53
 3139 074d 44000000 		.4byte	.LVL96
 3140 0751 C4000000 		.4byte	.LVL105
 3141 0755 0100     		.2byte	0x1
 3142 0757 55       		.byte	0x55
 3143 0758 C4000000 		.4byte	.LVL105
 3144 075c FC000000 		.4byte	.LFE2
 3145 0760 0400     		.2byte	0x4
 3146 0762 F3       		.byte	0xf3
 3147 0763 01       		.uleb128 0x1
 3148 0764 53       		.byte	0x53
 3149 0765 9F       		.byte	0x9f
 3150 0766 00000000 		.4byte	0
 3151 076a 00000000 		.4byte	0
 3152              	.LLST23:
 3153 076e 0C000000 		.4byte	.LVL87
 3154 0772 3C000000 		.4byte	.LVL94
 3155 0776 0200     		.2byte	0x2
ARM GAS  C:\Users\gjl\AppData\Local\Temp\ccHudlr6.s 			page 77


 3156 0778 34       		.byte	0x34
 3157 0779 9F       		.byte	0x9f
 3158 077a 3C000000 		.4byte	.LVL94
 3159 077e 40000000 		.4byte	.LVL95
 3160 0782 0200     		.2byte	0x2
 3161 0784 30       		.byte	0x30
 3162 0785 9F       		.byte	0x9f
 3163 0786 40000000 		.4byte	.LVL95
 3164 078a 4A000000 		.4byte	.LVL98
 3165 078e 0200     		.2byte	0x2
 3166 0790 34       		.byte	0x34
 3167 0791 9F       		.byte	0x9f
 3168 0792 4A000000 		.4byte	.LVL98
 3169 0796 C4000000 		.4byte	.LVL106
 3170 079a 0100     		.2byte	0x1
 3171 079c 56       		.byte	0x56
 3172 079d C4000000 		.4byte	.LVL106
 3173 07a1 FC000000 		.4byte	.LFE2
 3174 07a5 0100     		.2byte	0x1
 3175 07a7 50       		.byte	0x50
 3176 07a8 00000000 		.4byte	0
 3177 07ac 00000000 		.4byte	0
 3178              	.LLST24:
 3179 07b0 00000000 		.4byte	.LVL108
 3180 07b4 0C000000 		.4byte	.LVL110
 3181 07b8 0100     		.2byte	0x1
 3182 07ba 50       		.byte	0x50
 3183 07bb 0C000000 		.4byte	.LVL110
 3184 07bf 10000000 		.4byte	.LVL111
 3185 07c3 0400     		.2byte	0x4
 3186 07c5 F3       		.byte	0xf3
 3187 07c6 01       		.uleb128 0x1
 3188 07c7 50       		.byte	0x50
 3189 07c8 9F       		.byte	0x9f
 3190 07c9 10000000 		.4byte	.LVL111
 3191 07cd A6000000 		.4byte	.LVL120
 3192 07d1 0100     		.2byte	0x1
 3193 07d3 54       		.byte	0x54
 3194 07d4 A6000000 		.4byte	.LVL120
 3195 07d8 A8000000 		.4byte	.LVL121
 3196 07dc 0100     		.2byte	0x1
 3197 07de 50       		.byte	0x50
 3198 07df 00000000 		.4byte	0
 3199 07e3 00000000 		.4byte	0
 3200              	.LLST25:
 3201 07e7 00000000 		.4byte	.LVL108
 3202 07eb 2F000000 		.4byte	.LVL113-1
 3203 07ef 0100     		.2byte	0x1
 3204 07f1 51       		.byte	0x51
 3205 07f2 2F000000 		.4byte	.LVL113-1
 3206 07f6 A6000000 		.4byte	.LVL120
 3207 07fa 0400     		.2byte	0x4
 3208 07fc F3       		.byte	0xf3
 3209 07fd 01       		.uleb128 0x1
 3210 07fe 51       		.byte	0x51
 3211 07ff 9F       		.byte	0x9f
 3212 0800 A6000000 		.4byte	.LVL120
ARM GAS  C:\Users\gjl\AppData\Local\Temp\ccHudlr6.s 			page 78


 3213 0804 A8000000 		.4byte	.LVL121
 3214 0808 0100     		.2byte	0x1
 3215 080a 51       		.byte	0x51
 3216 080b A8000000 		.4byte	.LVL121
 3217 080f C4000000 		.4byte	.LFE4
 3218 0813 0400     		.2byte	0x4
 3219 0815 F3       		.byte	0xf3
 3220 0816 01       		.uleb128 0x1
 3221 0817 51       		.byte	0x51
 3222 0818 9F       		.byte	0x9f
 3223 0819 00000000 		.4byte	0
 3224 081d 00000000 		.4byte	0
 3225              	.LLST26:
 3226 0821 02000000 		.4byte	.LVL109
 3227 0825 66000000 		.4byte	.LVL114
 3228 0829 0200     		.2byte	0x2
 3229 082b 30       		.byte	0x30
 3230 082c 9F       		.byte	0x9f
 3231 082d 66000000 		.4byte	.LVL114
 3232 0831 6C000000 		.4byte	.LVL115
 3233 0835 0200     		.2byte	0x2
 3234 0837 31       		.byte	0x31
 3235 0838 9F       		.byte	0x9f
 3236 0839 6C000000 		.4byte	.LVL115
 3237 083d 72000000 		.4byte	.LVL116
 3238 0841 0200     		.2byte	0x2
 3239 0843 30       		.byte	0x30
 3240 0844 9F       		.byte	0x9f
 3241 0845 72000000 		.4byte	.LVL116
 3242 0849 7A000000 		.4byte	.LVL117
 3243 084d 0200     		.2byte	0x2
 3244 084f 31       		.byte	0x31
 3245 0850 9F       		.byte	0x9f
 3246 0851 7A000000 		.4byte	.LVL117
 3247 0855 84000000 		.4byte	.LVL118
 3248 0859 0200     		.2byte	0x2
 3249 085b 30       		.byte	0x30
 3250 085c 9F       		.byte	0x9f
 3251 085d 84000000 		.4byte	.LVL118
 3252 0861 9E000000 		.4byte	.LVL119
 3253 0865 0100     		.2byte	0x1
 3254 0867 51       		.byte	0x51
 3255 0868 A6000000 		.4byte	.LVL120
 3256 086c A8000000 		.4byte	.LVL121
 3257 0870 0200     		.2byte	0x2
 3258 0872 30       		.byte	0x30
 3259 0873 9F       		.byte	0x9f
 3260 0874 00000000 		.4byte	0
 3261 0878 00000000 		.4byte	0
 3262              	.LLST27:
 3263 087c 02000000 		.4byte	.LVL109
 3264 0880 66000000 		.4byte	.LVL114
 3265 0884 0200     		.2byte	0x2
 3266 0886 34       		.byte	0x34
 3267 0887 9F       		.byte	0x9f
 3268 0888 66000000 		.4byte	.LVL114
 3269 088c 6C000000 		.4byte	.LVL115
ARM GAS  C:\Users\gjl\AppData\Local\Temp\ccHudlr6.s 			page 79


 3270 0890 0200     		.2byte	0x2
 3271 0892 31       		.byte	0x31
 3272 0893 9F       		.byte	0x9f
 3273 0894 6C000000 		.4byte	.LVL115
 3274 0898 72000000 		.4byte	.LVL116
 3275 089c 0200     		.2byte	0x2
 3276 089e 34       		.byte	0x34
 3277 089f 9F       		.byte	0x9f
 3278 08a0 72000000 		.4byte	.LVL116
 3279 08a4 7A000000 		.4byte	.LVL117
 3280 08a8 0400     		.2byte	0x4
 3281 08aa 0A       		.byte	0xa
 3282 08ab 0001     		.2byte	0x100
 3283 08ad 9F       		.byte	0x9f
 3284 08ae 7A000000 		.4byte	.LVL117
 3285 08b2 84000000 		.4byte	.LVL118
 3286 08b6 0200     		.2byte	0x2
 3287 08b8 34       		.byte	0x34
 3288 08b9 9F       		.byte	0x9f
 3289 08ba 84000000 		.4byte	.LVL118
 3290 08be A6000000 		.4byte	.LVL120
 3291 08c2 0100     		.2byte	0x1
 3292 08c4 50       		.byte	0x50
 3293 08c5 A6000000 		.4byte	.LVL120
 3294 08c9 A8000000 		.4byte	.LVL121
 3295 08cd 0200     		.2byte	0x2
 3296 08cf 34       		.byte	0x34
 3297 08d0 9F       		.byte	0x9f
 3298 08d1 A8000000 		.4byte	.LVL121
 3299 08d5 C4000000 		.4byte	.LFE4
 3300 08d9 0100     		.2byte	0x1
 3301 08db 50       		.byte	0x50
 3302 08dc 00000000 		.4byte	0
 3303 08e0 00000000 		.4byte	0
 3304              		.section	.debug_aranges,"",%progbits
 3305 0000 84000000 		.4byte	0x84
 3306 0004 0200     		.2byte	0x2
 3307 0006 00000000 		.4byte	.Ldebug_info0
 3308 000a 04       		.byte	0x4
 3309 000b 00       		.byte	0
 3310 000c 0000     		.2byte	0
 3311 000e 0000     		.2byte	0
 3312 0010 00000000 		.4byte	.LFB3
 3313 0014 D8000000 		.4byte	.LFE3-.LFB3
 3314 0018 00000000 		.4byte	.LFB5
 3315 001c 8C000000 		.4byte	.LFE5-.LFB5
 3316 0020 00000000 		.4byte	.LFB6
 3317 0024 98000000 		.4byte	.LFE6-.LFB6
 3318 0028 00000000 		.4byte	.LFB7
 3319 002c 84000000 		.4byte	.LFE7-.LFB7
 3320 0030 00000000 		.4byte	.LFB8
 3321 0034 0C000000 		.4byte	.LFE8-.LFB8
 3322 0038 00000000 		.4byte	.LFB9
 3323 003c 0C000000 		.4byte	.LFE9-.LFB9
 3324 0040 00000000 		.4byte	.LFB10
 3325 0044 28000000 		.4byte	.LFE10-.LFB10
 3326 0048 00000000 		.4byte	.LFB11
ARM GAS  C:\Users\gjl\AppData\Local\Temp\ccHudlr6.s 			page 80


 3327 004c 28000000 		.4byte	.LFE11-.LFB11
 3328 0050 00000000 		.4byte	.LFB12
 3329 0054 30000000 		.4byte	.LFE12-.LFB12
 3330 0058 00000000 		.4byte	.LFB13
 3331 005c 20000000 		.4byte	.LFE13-.LFB13
 3332 0060 00000000 		.4byte	.LFB14
 3333 0064 20000000 		.4byte	.LFE14-.LFB14
 3334 0068 00000000 		.4byte	.LFB1
 3335 006c EC000000 		.4byte	.LFE1-.LFB1
 3336 0070 00000000 		.4byte	.LFB2
 3337 0074 FC000000 		.4byte	.LFE2-.LFB2
 3338 0078 00000000 		.4byte	.LFB4
 3339 007c C4000000 		.4byte	.LFE4-.LFB4
 3340 0080 00000000 		.4byte	0
 3341 0084 00000000 		.4byte	0
 3342              		.section	.debug_ranges,"",%progbits
 3343              	.Ldebug_ranges0:
 3344 0000 00000000 		.4byte	.LFB3
 3345 0004 D8000000 		.4byte	.LFE3
 3346 0008 00000000 		.4byte	.LFB5
 3347 000c 8C000000 		.4byte	.LFE5
 3348 0010 00000000 		.4byte	.LFB6
 3349 0014 98000000 		.4byte	.LFE6
 3350 0018 00000000 		.4byte	.LFB7
 3351 001c 84000000 		.4byte	.LFE7
 3352 0020 00000000 		.4byte	.LFB8
 3353 0024 0C000000 		.4byte	.LFE8
 3354 0028 00000000 		.4byte	.LFB9
 3355 002c 0C000000 		.4byte	.LFE9
 3356 0030 00000000 		.4byte	.LFB10
 3357 0034 28000000 		.4byte	.LFE10
 3358 0038 00000000 		.4byte	.LFB11
 3359 003c 28000000 		.4byte	.LFE11
 3360 0040 00000000 		.4byte	.LFB12
 3361 0044 30000000 		.4byte	.LFE12
 3362 0048 00000000 		.4byte	.LFB13
 3363 004c 20000000 		.4byte	.LFE13
 3364 0050 00000000 		.4byte	.LFB14
 3365 0054 20000000 		.4byte	.LFE14
 3366 0058 00000000 		.4byte	.LFB1
 3367 005c EC000000 		.4byte	.LFE1
 3368 0060 00000000 		.4byte	.LFB2
 3369 0064 FC000000 		.4byte	.LFE2
 3370 0068 00000000 		.4byte	.LFB4
 3371 006c C4000000 		.4byte	.LFE4
 3372 0070 00000000 		.4byte	0
 3373 0074 00000000 		.4byte	0
 3374              		.section	.debug_line,"",%progbits
 3375              	.Ldebug_line0:
 3376 0000 9D020000 		.section	.debug_str,"MS",%progbits,1
 3376      02006700 
 3376      00000201 
 3376      FB0E0D00 
 3376      01010101 
 3377              	.LASF28:
 3378 0000 4932435F 		.ascii	"I2C_I2CMasterGetReadBufSize\000"
 3378      4932434D 
ARM GAS  C:\Users\gjl\AppData\Local\Temp\ccHudlr6.s 			page 81


 3378      61737465 
 3378      72476574 
 3378      52656164 
 3379              	.LASF15:
 3380 001c 72656733 		.ascii	"reg32\000"
 3380      3200
 3381              	.LASF48:
 3382 0022 4932435F 		.ascii	"I2C_mstrWrBufPtr\000"
 3382      6D737472 
 3382      57724275 
 3382      66507472 
 3382      00
 3383              	.LASF35:
 3384 0033 4932435F 		.ascii	"I2C_I2CReStartGeneration\000"
 3384      49324352 
 3384      65537461 
 3384      72744765 
 3384      6E657261 
 3385              	.LASF30:
 3386 004c 4932435F 		.ascii	"I2C_I2CMasterClearReadBuf\000"
 3386      4932434D 
 3386      61737465 
 3386      72436C65 
 3386      61725265 
 3387              	.LASF3:
 3388 0066 73686F72 		.ascii	"short unsigned int\000"
 3388      7420756E 
 3388      7369676E 
 3388      65642069 
 3388      6E7400
 3389              	.LASF33:
 3390 0079 73746174 		.ascii	"status\000"
 3390      757300
 3391              	.LASF20:
 3392 0080 72657365 		.ascii	"resetIp\000"
 3392      74497000 
 3393              	.LASF32:
 3394 0088 4932435F 		.ascii	"I2C_I2CMasterStatus\000"
 3394      4932434D 
 3394      61737465 
 3394      72537461 
 3394      74757300 
 3395              	.LASF47:
 3396 009c 4932435F 		.ascii	"I2C_mstrRdBufIndex\000"
 3396      6D737472 
 3396      52644275 
 3396      66496E64 
 3396      657800
 3397              	.LASF12:
 3398 00af 666C6F61 		.ascii	"float\000"
 3398      7400
 3399              	.LASF0:
 3400 00b5 7369676E 		.ascii	"signed char\000"
 3400      65642063 
 3400      68617200 
 3401              	.LASF1:
 3402 00c1 756E7369 		.ascii	"unsigned char\000"
ARM GAS  C:\Users\gjl\AppData\Local\Temp\ccHudlr6.s 			page 82


 3402      676E6564 
 3402      20636861 
 3402      7200
 3403              	.LASF22:
 3404 00cf 4932435F 		.ascii	"I2C_I2CMasterSendStart\000"
 3404      4932434D 
 3404      61737465 
 3404      7253656E 
 3404      64537461 
 3405              	.LASF31:
 3406 00e6 4932435F 		.ascii	"I2C_I2CMasterClearWriteBuf\000"
 3406      4932434D 
 3406      61737465 
 3406      72436C65 
 3406      61725772 
 3407              	.LASF44:
 3408 0101 4932435F 		.ascii	"I2C_mstrControl\000"
 3408      6D737472 
 3408      436F6E74 
 3408      726F6C00 
 3409              	.LASF5:
 3410 0111 6C6F6E67 		.ascii	"long unsigned int\000"
 3410      20756E73 
 3410      69676E65 
 3410      6420696E 
 3410      7400
 3411              	.LASF36:
 3412 0123 4932435F 		.ascii	"I2C_I2CMasterWriteBuf\000"
 3412      4932434D 
 3412      61737465 
 3412      72577269 
 3412      74654275 
 3413              	.LASF9:
 3414 0139 75696E74 		.ascii	"uint8\000"
 3414      3800
 3415              	.LASF27:
 3416 013f 61636B4E 		.ascii	"ackNack\000"
 3416      61636B00 
 3417              	.LASF21:
 3418 0147 65727253 		.ascii	"errStatus\000"
 3418      74617475 
 3418      7300
 3419              	.LASF13:
 3420 0151 646F7562 		.ascii	"double\000"
 3420      6C6500
 3421              	.LASF56:
 3422 0158 433A5C47 		.ascii	"C:\\Git\\WW101\\ww101-shield\\firmware\\TestProgram"
 3422      69745C57 
 3422      57313031 
 3422      5C777731 
 3422      30312D73 
 3423 0186 344D2E63 		.ascii	"4M.cydsn\000"
 3423      7964736E 
 3423      00
 3424              	.LASF19:
 3425 018f 62697452 		.ascii	"bitRnW\000"
 3425      6E5700
ARM GAS  C:\Users\gjl\AppData\Local\Temp\ccHudlr6.s 			page 83


 3426              	.LASF53:
 3427 0196 4379496E 		.ascii	"CyIntEnable\000"
 3427      74456E61 
 3427      626C6500 
 3428              	.LASF10:
 3429 01a2 75696E74 		.ascii	"uint16\000"
 3429      313600
 3430              	.LASF55:
 3431 01a9 47656E65 		.ascii	"Generated_Source\\PSoC4\\I2C_I2C_MASTER.c\000"
 3431      72617465 
 3431      645F536F 
 3431      75726365 
 3431      5C50536F 
 3432              	.LASF40:
 3433 01d1 72644461 		.ascii	"rdData\000"
 3433      746100
 3434              	.LASF11:
 3435 01d8 75696E74 		.ascii	"uint32\000"
 3435      333200
 3436              	.LASF46:
 3437 01df 4932435F 		.ascii	"I2C_mstrRdBufSize\000"
 3437      6D737472 
 3437      52644275 
 3437      6653697A 
 3437      6500
 3438              	.LASF8:
 3439 01f1 756E7369 		.ascii	"unsigned int\000"
 3439      676E6564 
 3439      20696E74 
 3439      00
 3440              	.LASF37:
 3441 01fe 77724461 		.ascii	"wrData\000"
 3441      746100
 3442              	.LASF7:
 3443 0205 6C6F6E67 		.ascii	"long long unsigned int\000"
 3443      206C6F6E 
 3443      6720756E 
 3443      7369676E 
 3443      65642069 
 3444              	.LASF38:
 3445 021c 6D6F6465 		.ascii	"mode\000"
 3445      00
 3446              	.LASF18:
 3447 0221 736C6176 		.ascii	"slaveAddress\000"
 3447      65416464 
 3447      72657373 
 3447      00
 3448              	.LASF54:
 3449 022e 474E5520 		.ascii	"GNU C11 5.4.1 20160609 (release) [ARM/embedded-5-br"
 3449      43313120 
 3449      352E342E 
 3449      31203230 
 3449      31363036 
 3450 0261 616E6368 		.ascii	"anch revision 237715] -mcpu=cortex-m0 -mthumb -g -O"
 3450      20726576 
 3450      6973696F 
 3450      6E203233 
ARM GAS  C:\Users\gjl\AppData\Local\Temp\ccHudlr6.s 			page 84


 3450      37373135 
 3451 0294 67202D66 		.ascii	"g -ffunction-sections -ffat-lto-objects\000"
 3451      66756E63 
 3451      74696F6E 
 3451      2D736563 
 3451      74696F6E 
 3452              	.LASF43:
 3453 02bc 4932435F 		.ascii	"I2C_mstrStatus\000"
 3453      6D737472 
 3453      53746174 
 3453      757300
 3454              	.LASF17:
 3455 02cb 73697A65 		.ascii	"sizetype\000"
 3455      74797065 
 3455      00
 3456              	.LASF6:
 3457 02d4 6C6F6E67 		.ascii	"long long int\000"
 3457      206C6F6E 
 3457      6720696E 
 3457      7400
 3458              	.LASF14:
 3459 02e2 63686172 		.ascii	"char\000"
 3459      00
 3460              	.LASF24:
 3461 02e7 4932435F 		.ascii	"I2C_I2CMasterWriteByte\000"
 3461      4932434D 
 3461      61737465 
 3461      72577269 
 3461      74654279 
 3462              	.LASF52:
 3463 02fe 4379496E 		.ascii	"CyIntDisable\000"
 3463      74446973 
 3463      61626C65 
 3463      00
 3464              	.LASF2:
 3465 030b 73686F72 		.ascii	"short int\000"
 3465      7420696E 
 3465      7400
 3466              	.LASF25:
 3467 0315 74686542 		.ascii	"theByte\000"
 3467      79746500 
 3468              	.LASF41:
 3469 031d 4932435F 		.ascii	"I2C_I2CMasterSendRestart\000"
 3469      4932434D 
 3469      61737465 
 3469      7253656E 
 3469      64526573 
 3470              	.LASF26:
 3471 0336 4932435F 		.ascii	"I2C_I2CMasterReadByte\000"
 3471      4932434D 
 3471      61737465 
 3471      72526561 
 3471      64427974 
 3472              	.LASF45:
 3473 034c 4932435F 		.ascii	"I2C_mstrRdBufPtr\000"
 3473      6D737472 
 3473      52644275 
ARM GAS  C:\Users\gjl\AppData\Local\Temp\ccHudlr6.s 			page 85


 3473      66507472 
 3473      00
 3474              	.LASF51:
 3475 035d 4932435F 		.ascii	"I2C_mstrWrBufIndexTmp\000"
 3475      6D737472 
 3475      57724275 
 3475      66496E64 
 3475      6578546D 
 3476              	.LASF4:
 3477 0373 6C6F6E67 		.ascii	"long int\000"
 3477      20696E74 
 3477      00
 3478              	.LASF16:
 3479 037c 6C6F6E67 		.ascii	"long double\000"
 3479      20646F75 
 3479      626C6500 
 3480              	.LASF29:
 3481 0388 4932435F 		.ascii	"I2C_I2CMasterGetWriteBufSize\000"
 3481      4932434D 
 3481      61737465 
 3481      72476574 
 3481      57726974 
 3482              	.LASF50:
 3483 03a5 4932435F 		.ascii	"I2C_mstrWrBufIndex\000"
 3483      6D737472 
 3483      57724275 
 3483      66496E64 
 3483      657800
 3484              	.LASF49:
 3485 03b8 4932435F 		.ascii	"I2C_mstrWrBufSize\000"
 3485      6D737472 
 3485      57724275 
 3485      6653697A 
 3485      6500
 3486              	.LASF39:
 3487 03ca 4932435F 		.ascii	"I2C_I2CMasterReadBuf\000"
 3487      4932434D 
 3487      61737465 
 3487      72526561 
 3487      64427566 
 3488              	.LASF34:
 3489 03df 4932435F 		.ascii	"I2C_I2CMasterClearStatus\000"
 3489      4932434D 
 3489      61737465 
 3489      72436C65 
 3489      61725374 
 3490              	.LASF42:
 3491 03f8 4932435F 		.ascii	"I2C_state\000"
 3491      73746174 
 3491      6500
 3492              	.LASF23:
 3493 0402 4932435F 		.ascii	"I2C_I2CMasterSendStop\000"
 3493      4932434D 
 3493      61737465 
 3493      7253656E 
 3493      6453746F 
 3494              		.ident	"GCC: (GNU Tools for ARM Embedded Processors) 5.4.1 20160609 (release) [ARM/embedded-5-bran
ARM GAS  C:\Users\gjl\AppData\Local\Temp\ccHudlr6.s 			page 86


