ARM GAS  C:\Users\Alan\AppData\Local\Temp\ccgS1osr.s 			page 1


   1              		.syntax unified
   2              		.cpu cortex-m0
   3              		.fpu softvfp
   4              		.eabi_attribute 20, 1
   5              		.eabi_attribute 21, 1
   6              		.eabi_attribute 23, 3
   7              		.eabi_attribute 24, 1
   8              		.eabi_attribute 25, 1
   9              		.eabi_attribute 26, 1
  10              		.eabi_attribute 30, 1
  11              		.eabi_attribute 34, 0
  12              		.eabi_attribute 18, 4
  13              		.thumb
  14              		.syntax unified
  15              		.file	"main.c"
  16              		.text
  17              	.Ltext0:
  18              		.cfi_sections	.debug_frame
  19              		.section	.text.sysTickISR,"ax",%progbits
  20              		.align	2
  21              		.global	sysTickISR
  22              		.code	16
  23              		.thumb_func
  24              		.type	sysTickISR, %function
  25              	sysTickISR:
  26              	.LFB37:
  27              		.file 1 "main.c"
   1:main.c        **** #include "project.h"
   2:main.c        **** #include "regmap.h"
   3:main.c        **** #include "u8g2.h"
   4:main.c        **** #include <stdio.h>
   5:main.c        **** 
   6:main.c        **** dataSet_t pafeDataSet;
   7:main.c        **** #define PSOC_AFE_I2C (0x42)
   8:main.c        **** // How often in MS to update the screen
   9:main.c        **** #define UPDATE_INTERVAL 200
  10:main.c        **** int updateData=0; // this flag is set by the systick timer ISR
  11:main.c        **** u8x8_t u8x8;
  12:main.c        **** int16 A0,A1,A2; // hold the ADC values for the 3 ADC channels
  13:main.c        **** char buff[64];  // a global scratch buffer to hold sprintfs
  14:main.c        **** int bootloaderMode = 0; // the baseboard button toggles this flag
  15:main.c        **** 
  16:main.c        **** // A HAL function for the u8x8 library
  17:main.c        **** uint8_t u8x8_byte_hw_i2c(u8x8_t *u8x8, uint8_t msg, uint8_t arg_int, void *arg_ptr)
  18:main.c        **** {
  19:main.c        ****     uint8_t *data;
  20:main.c        ****     switch(msg)
  21:main.c        ****     {
  22:main.c        ****         case U8X8_MSG_BYTE_SEND:
  23:main.c        ****             data = (uint8_t *)arg_ptr;
  24:main.c        ****             while( arg_int > 0 )
  25:main.c        ****             {
  26:main.c        ****                 (void)I2C_I2CMasterWriteByte(*data); // No Error Checking..
  27:main.c        ****   	            data++;
  28:main.c        **** 	            arg_int--;
  29:main.c        ****             }
  30:main.c        ****         break;
ARM GAS  C:\Users\Alan\AppData\Local\Temp\ccgS1osr.s 			page 2


  31:main.c        ****       
  32:main.c        ****         case U8X8_MSG_BYTE_INIT: // Using the HW block you dont need to set 1/1
  33:main.c        ****         break;
  34:main.c        ****         case U8X8_MSG_BYTE_SET_DC:
  35:main.c        ****         break;
  36:main.c        ****         case U8X8_MSG_BYTE_START_TRANSFER:
  37:main.c        ****             (void)I2C_I2CMasterSendStart(u8x8_GetI2CAddress(u8x8)>>1,I2C_I2C_WRITE_XFER_MODE); // n
  38:main.c        ****          break;
  39:main.c        ****         
  40:main.c        ****         case U8X8_MSG_BYTE_END_TRANSFER:
  41:main.c        ****             (void)I2C_I2CMasterSendStop(); // no error checking
  42:main.c        ****         break;
  43:main.c        ****     
  44:main.c        ****         default:
  45:main.c        ****             return 0;
  46:main.c        ****     }
  47:main.c        ****     
  48:main.c        ****     return 1;
  49:main.c        **** }
  50:main.c        **** 
  51:main.c        **** /* 
  52:main.c        ****  * A PSoC implementation of the delay and gpio callback for the u8x8 HAL
  53:main.c        ****  * 
  54:main.c        **** */
  55:main.c        **** uint8_t psoc_gpio_and_delay_cb(u8x8_t *u8x8, uint8_t msg, uint8_t arg_int, void *arg_ptr)
  56:main.c        **** {
  57:main.c        ****     (void)u8x8;
  58:main.c        ****     (void)arg_ptr;
  59:main.c        ****     switch(msg)
  60:main.c        ****     {
  61:main.c        ****         case U8X8_MSG_GPIO_AND_DELAY_INIT: // for now who cares?
  62:main.c        ****         break;
  63:main.c        ****         case U8X8_MSG_DELAY_MILLI:
  64:main.c        ****             CyDelay(arg_int);
  65:main.c        ****         break;
  66:main.c        ****         case U8X8_MSG_DELAY_10MICRO:
  67:main.c        ****             CyDelayUs(10);
  68:main.c        ****         break;
  69:main.c        ****         case U8X8_MSG_DELAY_100NANO:
  70:main.c        ****             CyDelayCycles((CYDEV_BCLK__SYSCLK__HZ/1000000) * 100 - 16); //PSoC system reference gui
  71:main.c        ****         break;
  72:main.c        ****         /*    - My Display has only I2C... which I have implemented in HW
  73:main.c        ****          * If you want to use a software interface or have these pins then you 
  74:main.c        ****          * need to read and write them
  75:main.c        ****         case U8X8_MSG_GPIO_SPI_CLOCK:
  76:main.c        ****         case U8X8_MSG_GPIO_SPI_DATA:
  77:main.c        ****         case U8X8_MSG_GPIO_CS:
  78:main.c        ****         case U8X8_MSG_GPIO_DC:
  79:main.c        ****         case U8X8_MSG_GPIO_RESET:
  80:main.c        ****         case U8X8_MSG_GPIO_SPI_CLOCK:
  81:main.c        ****         case U8X8_MSG_GPIO_SPI_DATA:		
  82:main.c        ****         case U8X8_MSG_GPIO_D0:    
  83:main.c        ****         case U8X8_MSG_GPIO_D1:			
  84:main.c        ****         case U8X8_MSG_GPIO_D2:		
  85:main.c        ****         case U8X8_MSG_GPIO_D3:		
  86:main.c        ****         case U8X8_MSG_GPIO_D4:	
  87:main.c        ****         case U8X8_MSG_GPIO_D5:	
ARM GAS  C:\Users\Alan\AppData\Local\Temp\ccgS1osr.s 			page 3


  88:main.c        ****         case U8X8_MSG_GPIO_D6:	
  89:main.c        ****         case U8X8_MSG_GPIO_D7:
  90:main.c        ****         case U8X8_MSG_GPIO_E: 	
  91:main.c        ****         case U8X8_MSG_GPIO_I2C_CLOCK:
  92:main.c        ****         case U8X8_MSG_GPIO_I2C_DATA:
  93:main.c        ****         break;  */
  94:main.c        ****     }
  95:main.c        ****     return 1;
  96:main.c        **** }
  97:main.c        **** 
  98:main.c        **** 
  99:main.c        **** // The function is called by the systick timer... and is used to trigger
 100:main.c        **** // the updateDisplay screen every UPDATE_INTERVAL
 101:main.c        **** void sysTickISR()
 102:main.c        **** {
  28              		.loc 1 102 0
  29              		.cfi_startproc
  30              		@ args = 0, pretend = 0, frame = 0
  31              		@ frame_needed = 0, uses_anonymous_args = 0
  32              		@ link register save eliminated.
 103:main.c        ****     static int counter=0;
 104:main.c        ****     if(counter++ > UPDATE_INTERVAL)
  33              		.loc 1 104 0
  34 0000 054A     		ldr	r2, .L3
  35 0002 1368     		ldr	r3, [r2]
  36 0004 591C     		adds	r1, r3, #1
  37 0006 1160     		str	r1, [r2]
  38 0008 C82B     		cmp	r3, #200
  39 000a 04DD     		ble	.L1
 105:main.c        ****     {
 106:main.c        ****         updateData = 1;
  40              		.loc 1 106 0
  41 000c 1300     		movs	r3, r2
  42 000e 0122     		movs	r2, #1
  43 0010 5A60     		str	r2, [r3, #4]
 107:main.c        ****         counter = 0;
  44              		.loc 1 107 0
  45 0012 0022     		movs	r2, #0
  46 0014 1A60     		str	r2, [r3]
  47              	.L1:
 108:main.c        ****     }
 109:main.c        **** }
  48              		.loc 1 109 0
  49              		@ sp needed
  50 0016 7047     		bx	lr
  51              	.L4:
  52              		.align	2
  53              	.L3:
  54 0018 00000000 		.word	.LANCHOR0
  55              		.cfi_endproc
  56              	.LFE37:
  57              		.size	sysTickISR, .-sysTickISR
  58              		.section	.text.u8x8_byte_hw_i2c,"ax",%progbits
  59              		.align	2
  60              		.global	u8x8_byte_hw_i2c
  61              		.code	16
  62              		.thumb_func
ARM GAS  C:\Users\Alan\AppData\Local\Temp\ccgS1osr.s 			page 4


  63              		.type	u8x8_byte_hw_i2c, %function
  64              	u8x8_byte_hw_i2c:
  65              	.LFB35:
  18:main.c        ****     uint8_t *data;
  66              		.loc 1 18 0
  67              		.cfi_startproc
  68              		@ args = 0, pretend = 0, frame = 0
  69              		@ frame_needed = 0, uses_anonymous_args = 0
  70              	.LVL0:
  71 0000 70B5     		push	{r4, r5, r6, lr}
  72              		.cfi_def_cfa_offset 16
  73              		.cfi_offset 4, -16
  74              		.cfi_offset 5, -12
  75              		.cfi_offset 6, -8
  76              		.cfi_offset 14, -4
  77 0002 1400     		movs	r4, r2
  78 0004 1D00     		movs	r5, r3
  20:main.c        ****     {
  79              		.loc 1 20 0
  80 0006 1439     		subs	r1, r1, #20
  81              	.LVL1:
  82 0008 CBB2     		uxtb	r3, r1
  83              	.LVL2:
  84 000a 0C2B     		cmp	r3, #12
  85 000c 03D8     		bhi	.L6
  86 000e 9900     		lsls	r1, r3, #2
  87 0010 0E4B     		ldr	r3, .L14
  88 0012 5B58     		ldr	r3, [r3, r1]
  89 0014 9F46     		mov	pc, r3
  90              		.section	.rodata
  91              		.align	2
  92              	.L8:
  93 0000 46000000 		.word	.L13
  94 0004 16000000 		.word	.L6
  95 0008 16000000 		.word	.L6
  96 000c 26000000 		.word	.L9
  97 0010 2E000000 		.word	.L10
  98 0014 3E000000 		.word	.L11
  99 0018 16000000 		.word	.L6
 100 001c 16000000 		.word	.L6
 101 0020 16000000 		.word	.L6
 102 0024 16000000 		.word	.L6
 103 0028 16000000 		.word	.L6
 104 002c 16000000 		.word	.L6
 105 0030 46000000 		.word	.L13
 106              		.section	.text.u8x8_byte_hw_i2c
 107              	.L6:
  45:main.c        ****     }
 108              		.loc 1 45 0
 109 0016 0020     		movs	r0, #0
 110              	.LVL3:
 111 0018 16E0     		b	.L7
 112              	.LVL4:
 113              	.L12:
  26:main.c        ****   	            data++;
 114              		.loc 1 26 0
 115 001a 2878     		ldrb	r0, [r5]
ARM GAS  C:\Users\Alan\AppData\Local\Temp\ccgS1osr.s 			page 5


 116 001c FFF7FEFF 		bl	I2C_I2CMasterWriteByte
 117              	.LVL5:
  27:main.c        **** 	            arg_int--;
 118              		.loc 1 27 0
 119 0020 0135     		adds	r5, r5, #1
 120              	.LVL6:
  28:main.c        ****             }
 121              		.loc 1 28 0
 122 0022 013C     		subs	r4, r4, #1
 123              	.LVL7:
 124 0024 E4B2     		uxtb	r4, r4
 125              	.LVL8:
 126              	.L9:
  24:main.c        ****             {
 127              		.loc 1 24 0
 128 0026 002C     		cmp	r4, #0
 129 0028 F7D1     		bne	.L12
  48:main.c        **** }
 130              		.loc 1 48 0
 131 002a 0120     		movs	r0, #1
 132 002c 0CE0     		b	.L7
 133              	.LVL9:
 134              	.L10:
  37:main.c        ****          break;
 135              		.loc 1 37 0
 136 002e 2023     		movs	r3, #32
 137 0030 C05C     		ldrb	r0, [r0, r3]
 138              	.LVL10:
 139 0032 4008     		lsrs	r0, r0, #1
 140 0034 0021     		movs	r1, #0
 141 0036 FFF7FEFF 		bl	I2C_I2CMasterSendStart
 142              	.LVL11:
  48:main.c        **** }
 143              		.loc 1 48 0
 144 003a 0120     		movs	r0, #1
  38:main.c        ****         
 145              		.loc 1 38 0
 146 003c 04E0     		b	.L7
 147              	.LVL12:
 148              	.L11:
  41:main.c        ****         break;
 149              		.loc 1 41 0
 150 003e FFF7FEFF 		bl	I2C_I2CMasterSendStop
 151              	.LVL13:
  48:main.c        **** }
 152              		.loc 1 48 0
 153 0042 0120     		movs	r0, #1
  42:main.c        ****     
 154              		.loc 1 42 0
 155 0044 00E0     		b	.L7
 156              	.LVL14:
 157              	.L13:
  48:main.c        **** }
 158              		.loc 1 48 0
 159 0046 0120     		movs	r0, #1
 160              	.LVL15:
 161              	.L7:
ARM GAS  C:\Users\Alan\AppData\Local\Temp\ccgS1osr.s 			page 6


  49:main.c        **** 
 162              		.loc 1 49 0
 163              		@ sp needed
 164 0048 70BD     		pop	{r4, r5, r6, pc}
 165              	.L15:
 166 004a C046     		.align	2
 167              	.L14:
 168 004c 00000000 		.word	.L8
 169              		.cfi_endproc
 170              	.LFE35:
 171              		.size	u8x8_byte_hw_i2c, .-u8x8_byte_hw_i2c
 172              		.section	.text.psoc_gpio_and_delay_cb,"ax",%progbits
 173              		.align	2
 174              		.global	psoc_gpio_and_delay_cb
 175              		.code	16
 176              		.thumb_func
 177              		.type	psoc_gpio_and_delay_cb, %function
 178              	psoc_gpio_and_delay_cb:
 179              	.LFB36:
  56:main.c        ****     (void)u8x8;
 180              		.loc 1 56 0
 181              		.cfi_startproc
 182              		@ args = 0, pretend = 0, frame = 0
 183              		@ frame_needed = 0, uses_anonymous_args = 0
 184              	.LVL16:
 185 0000 10B5     		push	{r4, lr}
 186              		.cfi_def_cfa_offset 8
 187              		.cfi_offset 4, -8
 188              		.cfi_offset 14, -4
  59:main.c        ****     {
 189              		.loc 1 59 0
 190 0002 2A29     		cmp	r1, #42
 191 0004 07D0     		beq	.L18
 192 0006 2B29     		cmp	r1, #43
 193 0008 09D0     		beq	.L19
 194 000a 2929     		cmp	r1, #41
 195 000c 0AD1     		bne	.L17
  64:main.c        ****         break;
 196              		.loc 1 64 0
 197 000e 1000     		movs	r0, r2
 198              	.LVL17:
 199 0010 FFF7FEFF 		bl	CyDelay
 200              	.LVL18:
  65:main.c        ****         case U8X8_MSG_DELAY_10MICRO:
 201              		.loc 1 65 0
 202 0014 06E0     		b	.L17
 203              	.LVL19:
 204              	.L18:
  67:main.c        ****         break;
 205              		.loc 1 67 0
 206 0016 0A20     		movs	r0, #10
 207              	.LVL20:
 208 0018 FFF7FEFF 		bl	CyDelayUs
 209              	.LVL21:
  68:main.c        ****         case U8X8_MSG_DELAY_100NANO:
 210              		.loc 1 68 0
 211 001c 02E0     		b	.L17
ARM GAS  C:\Users\Alan\AppData\Local\Temp\ccgS1osr.s 			page 7


 212              	.LVL22:
 213              	.L19:
  70:main.c        ****         break;
 214              		.loc 1 70 0
 215 001e 0248     		ldr	r0, .L21
 216              	.LVL23:
 217 0020 FFF7FEFF 		bl	CyDelayCycles
 218              	.LVL24:
 219              	.L17:
  96:main.c        **** 
 220              		.loc 1 96 0
 221 0024 0120     		movs	r0, #1
 222              		@ sp needed
 223 0026 10BD     		pop	{r4, pc}
 224              	.L22:
 225              		.align	2
 226              	.L21:
 227 0028 B0120000 		.word	4784
 228              		.cfi_endproc
 229              	.LFE36:
 230              		.size	psoc_gpio_and_delay_cb, .-psoc_gpio_and_delay_cb
 231              		.section	.text.displayDataScreen0,"ax",%progbits
 232              		.align	2
 233              		.global	displayDataScreen0
 234              		.code	16
 235              		.thumb_func
 236              		.type	displayDataScreen0, %function
 237              	displayDataScreen0:
 238              	.LFB38:
 110:main.c        **** 
 111:main.c        **** 
 112:main.c        **** // This function displays the voltage in mV from the 3 Arduino header pins (A0,A1,A2)
 113:main.c        **** void displayDataScreen0()
 114:main.c        **** {
 239              		.loc 1 114 0
 240              		.cfi_startproc
 241              		@ args = 0, pretend = 0, frame = 0
 242              		@ frame_needed = 0, uses_anonymous_args = 0
 243 0000 70B5     		push	{r4, r5, r6, lr}
 244              		.cfi_def_cfa_offset 16
 245              		.cfi_offset 4, -16
 246              		.cfi_offset 5, -12
 247              		.cfi_offset 6, -8
 248              		.cfi_offset 14, -4
 115:main.c        ****     sprintf(buff,"A0=%d mV   ",ADC_CountsTo_mVolts(0,A0));
 249              		.loc 1 115 0
 250 0002 1B4B     		ldr	r3, .L24
 251 0004 0021     		movs	r1, #0
 252 0006 595E     		ldrsh	r1, [r3, r1]
 253 0008 0020     		movs	r0, #0
 254 000a FFF7FEFF 		bl	ADC_CountsTo_mVolts
 255              	.LVL25:
 256 000e 0200     		movs	r2, r0
 257 0010 184C     		ldr	r4, .L24+4
 258 0012 1949     		ldr	r1, .L24+8
 259 0014 2000     		movs	r0, r4
 260 0016 FFF7FEFF 		bl	sprintf
ARM GAS  C:\Users\Alan\AppData\Local\Temp\ccgS1osr.s 			page 8


 261              	.LVL26:
 116:main.c        ****     u8x8_DrawString(&u8x8,0,3,buff);
 262              		.loc 1 116 0
 263 001a 184D     		ldr	r5, .L24+12
 264 001c 2300     		movs	r3, r4
 265 001e 0322     		movs	r2, #3
 266 0020 0021     		movs	r1, #0
 267 0022 2800     		movs	r0, r5
 268 0024 FFF7FEFF 		bl	u8x8_DrawString
 269              	.LVL27:
 117:main.c        ****     
 118:main.c        ****     sprintf(buff,"A1=%d mV   ",ADC_CountsTo_mVolts(1,A1));
 270              		.loc 1 118 0
 271 0028 154B     		ldr	r3, .L24+16
 272 002a 0021     		movs	r1, #0
 273 002c 595E     		ldrsh	r1, [r3, r1]
 274 002e 0120     		movs	r0, #1
 275 0030 FFF7FEFF 		bl	ADC_CountsTo_mVolts
 276              	.LVL28:
 277 0034 0200     		movs	r2, r0
 278 0036 1349     		ldr	r1, .L24+20
 279 0038 2000     		movs	r0, r4
 280 003a FFF7FEFF 		bl	sprintf
 281              	.LVL29:
 119:main.c        ****     u8x8_DrawString(&u8x8,0,4,buff);
 282              		.loc 1 119 0
 283 003e 2300     		movs	r3, r4
 284 0040 0422     		movs	r2, #4
 285 0042 0021     		movs	r1, #0
 286 0044 2800     		movs	r0, r5
 287 0046 FFF7FEFF 		bl	u8x8_DrawString
 288              	.LVL30:
 120:main.c        ****     
 121:main.c        ****     sprintf(buff,"A2=%d mV  ",ADC_CountsTo_mVolts(2,A2));
 289              		.loc 1 121 0
 290 004a 0F4B     		ldr	r3, .L24+24
 291 004c 0021     		movs	r1, #0
 292 004e 595E     		ldrsh	r1, [r3, r1]
 293 0050 0220     		movs	r0, #2
 294 0052 FFF7FEFF 		bl	ADC_CountsTo_mVolts
 295              	.LVL31:
 296 0056 0200     		movs	r2, r0
 297 0058 0C49     		ldr	r1, .L24+28
 298 005a 2000     		movs	r0, r4
 299 005c FFF7FEFF 		bl	sprintf
 300              	.LVL32:
 122:main.c        ****     u8x8_DrawString(&u8x8,0,5,buff);
 301              		.loc 1 122 0
 302 0060 2300     		movs	r3, r4
 303 0062 0522     		movs	r2, #5
 304 0064 0021     		movs	r1, #0
 305 0066 2800     		movs	r0, r5
 306 0068 FFF7FEFF 		bl	u8x8_DrawString
 307              	.LVL33:
 123:main.c        ****    
 124:main.c        **** }
 308              		.loc 1 124 0
ARM GAS  C:\Users\Alan\AppData\Local\Temp\ccgS1osr.s 			page 9


 309              		@ sp needed
 310 006c 70BD     		pop	{r4, r5, r6, pc}
 311              	.L25:
 312 006e C046     		.align	2
 313              	.L24:
 314 0070 00000000 		.word	A0
 315 0074 00000000 		.word	buff
 316 0078 00000000 		.word	.LC3
 317 007c 00000000 		.word	u8x8
 318 0080 00000000 		.word	A1
 319 0084 0C000000 		.word	.LC8
 320 0088 00000000 		.word	A2
 321 008c 18000000 		.word	.LC11
 322              		.cfi_endproc
 323              	.LFE38:
 324              		.size	displayDataScreen0, .-displayDataScreen0
 325              		.global	__aeabi_f2d
 326              		.global	__aeabi_i2f
 327              		.global	__aeabi_ddiv
 328              		.section	.text.displayDataScreen1,"ax",%progbits
 329              		.align	2
 330              		.global	displayDataScreen1
 331              		.code	16
 332              		.thumb_func
 333              		.type	displayDataScreen1, %function
 334              	displayDataScreen1:
 335              	.LFB39:
 125:main.c        **** 
 126:main.c        **** // This function displays the last read values from the I2C Register Map
 127:main.c        **** // In addition it displays the current values it is reading from A1(DAC) ,A2 (Pot)
 128:main.c        **** void displayDataScreen1()
 129:main.c        **** {
 336              		.loc 1 129 0
 337              		.cfi_startproc
 338              		@ args = 0, pretend = 0, frame = 0
 339              		@ frame_needed = 0, uses_anonymous_args = 0
 340 0000 70B5     		push	{r4, r5, r6, lr}
 341              		.cfi_def_cfa_offset 16
 342              		.cfi_offset 4, -16
 343              		.cfi_offset 5, -12
 344              		.cfi_offset 6, -8
 345              		.cfi_offset 14, -4
 130:main.c        ****     
 131:main.c        ****     sprintf(buff,"Temp=%.1f C",pafeDataSet.temperature);
 346              		.loc 1 131 0
 347 0002 504C     		ldr	r4, .L27
 348 0004 E179     		ldrb	r1, [r4, #7]
 349 0006 237A     		ldrb	r3, [r4, #8]
 350 0008 1B02     		lsls	r3, r3, #8
 351 000a 0B43     		orrs	r3, r1
 352 000c 1A00     		movs	r2, r3
 353 000e 607A     		ldrb	r0, [r4, #9]
 354 0010 0004     		lsls	r0, r0, #16
 355 0012 0300     		movs	r3, r0
 356 0014 1343     		orrs	r3, r2
 357 0016 A07A     		ldrb	r0, [r4, #10]
 358 0018 0006     		lsls	r0, r0, #24
ARM GAS  C:\Users\Alan\AppData\Local\Temp\ccgS1osr.s 			page 10


 359 001a 1843     		orrs	r0, r3
 360 001c FFF7FEFF 		bl	__aeabi_f2d
 361              	.LVL34:
 362 0020 0200     		movs	r2, r0
 363 0022 0B00     		movs	r3, r1
 364 0024 484D     		ldr	r5, .L27+4
 365 0026 4949     		ldr	r1, .L27+8
 366 0028 2800     		movs	r0, r5
 367 002a FFF7FEFF 		bl	sprintf
 368              	.LVL35:
 132:main.c        ****     u8x8_DrawString(&u8x8,0,2,buff);
 369              		.loc 1 132 0
 370 002e 484E     		ldr	r6, .L27+12
 371 0030 2B00     		movs	r3, r5
 372 0032 0222     		movs	r2, #2
 373 0034 0021     		movs	r1, #0
 374 0036 3000     		movs	r0, r6
 375 0038 FFF7FEFF 		bl	u8x8_DrawString
 376              	.LVL36:
 133:main.c        ****     
 134:main.c        ****     sprintf(buff,"Humidity=%.1f%%",pafeDataSet.humidity);
 377              		.loc 1 134 0
 378 003c E17A     		ldrb	r1, [r4, #11]
 379 003e 237B     		ldrb	r3, [r4, #12]
 380 0040 1B02     		lsls	r3, r3, #8
 381 0042 0B43     		orrs	r3, r1
 382 0044 1A00     		movs	r2, r3
 383 0046 607B     		ldrb	r0, [r4, #13]
 384 0048 0004     		lsls	r0, r0, #16
 385 004a 0300     		movs	r3, r0
 386 004c 1343     		orrs	r3, r2
 387 004e A07B     		ldrb	r0, [r4, #14]
 388 0050 0006     		lsls	r0, r0, #24
 389 0052 1843     		orrs	r0, r3
 390 0054 FFF7FEFF 		bl	__aeabi_f2d
 391              	.LVL37:
 392 0058 0200     		movs	r2, r0
 393 005a 0B00     		movs	r3, r1
 394 005c 3D49     		ldr	r1, .L27+16
 395 005e 2800     		movs	r0, r5
 396 0060 FFF7FEFF 		bl	sprintf
 397              	.LVL38:
 135:main.c        ****     u8x8_DrawString(&u8x8,0,3,buff);
 398              		.loc 1 135 0
 399 0064 2B00     		movs	r3, r5
 400 0066 0322     		movs	r2, #3
 401 0068 0021     		movs	r1, #0
 402 006a 3000     		movs	r0, r6
 403 006c FFF7FEFF 		bl	u8x8_DrawString
 404              	.LVL39:
 136:main.c        **** 
 137:main.c        ****     sprintf(buff,"Illum=%.1f lux",pafeDataSet.illuminance);
 405              		.loc 1 137 0
 406 0070 E17B     		ldrb	r1, [r4, #15]
 407 0072 237C     		ldrb	r3, [r4, #16]
 408 0074 1B02     		lsls	r3, r3, #8
 409 0076 0B43     		orrs	r3, r1
ARM GAS  C:\Users\Alan\AppData\Local\Temp\ccgS1osr.s 			page 11


 410 0078 1A00     		movs	r2, r3
 411 007a 607C     		ldrb	r0, [r4, #17]
 412 007c 0004     		lsls	r0, r0, #16
 413 007e 0300     		movs	r3, r0
 414 0080 1343     		orrs	r3, r2
 415 0082 A07C     		ldrb	r0, [r4, #18]
 416 0084 0006     		lsls	r0, r0, #24
 417 0086 1843     		orrs	r0, r3
 418 0088 FFF7FEFF 		bl	__aeabi_f2d
 419              	.LVL40:
 420 008c 0200     		movs	r2, r0
 421 008e 0B00     		movs	r3, r1
 422 0090 3149     		ldr	r1, .L27+20
 423 0092 2800     		movs	r0, r5
 424 0094 FFF7FEFF 		bl	sprintf
 425              	.LVL41:
 138:main.c        ****     u8x8_DrawString(&u8x8,0,4,buff);
 426              		.loc 1 138 0
 427 0098 2B00     		movs	r3, r5
 428 009a 0422     		movs	r2, #4
 429 009c 0021     		movs	r1, #0
 430 009e 3000     		movs	r0, r6
 431 00a0 FFF7FEFF 		bl	u8x8_DrawString
 432              	.LVL42:
 139:main.c        ****     
 140:main.c        ****     
 141:main.c        ****     sprintf(buff,"Pot=%.2fV",pafeDataSet.potVal);
 433              		.loc 1 141 0
 434 00a4 E17C     		ldrb	r1, [r4, #19]
 435 00a6 237D     		ldrb	r3, [r4, #20]
 436 00a8 1B02     		lsls	r3, r3, #8
 437 00aa 0B43     		orrs	r3, r1
 438 00ac 1A00     		movs	r2, r3
 439 00ae 607D     		ldrb	r0, [r4, #21]
 440 00b0 0004     		lsls	r0, r0, #16
 441 00b2 0300     		movs	r3, r0
 442 00b4 1343     		orrs	r3, r2
 443 00b6 A07D     		ldrb	r0, [r4, #22]
 444 00b8 0006     		lsls	r0, r0, #24
 445 00ba 1843     		orrs	r0, r3
 446 00bc FFF7FEFF 		bl	__aeabi_f2d
 447              	.LVL43:
 448 00c0 0200     		movs	r2, r0
 449 00c2 0B00     		movs	r3, r1
 450 00c4 2549     		ldr	r1, .L27+24
 451 00c6 2800     		movs	r0, r5
 452 00c8 FFF7FEFF 		bl	sprintf
 453              	.LVL44:
 142:main.c        ****     u8x8_DrawString(&u8x8,0,5,buff);
 454              		.loc 1 142 0
 455 00cc 2B00     		movs	r3, r5
 456 00ce 0522     		movs	r2, #5
 457 00d0 0021     		movs	r1, #0
 458 00d2 3000     		movs	r0, r6
 459 00d4 FFF7FEFF 		bl	u8x8_DrawString
 460              	.LVL45:
 143:main.c        **** 
ARM GAS  C:\Users\Alan\AppData\Local\Temp\ccgS1osr.s 			page 12


 144:main.c        ****     sprintf(buff,"A2=%.2fV",(float)ADC_CountsTo_mVolts(2,A2) / 1000.0);
 461              		.loc 1 144 0
 462 00d8 214B     		ldr	r3, .L27+28
 463 00da 0021     		movs	r1, #0
 464 00dc 595E     		ldrsh	r1, [r3, r1]
 465 00de 0220     		movs	r0, #2
 466 00e0 FFF7FEFF 		bl	ADC_CountsTo_mVolts
 467              	.LVL46:
 468 00e4 FFF7FEFF 		bl	__aeabi_i2f
 469              	.LVL47:
 470 00e8 FFF7FEFF 		bl	__aeabi_f2d
 471              	.LVL48:
 472 00ec 0022     		movs	r2, #0
 473 00ee 1D4B     		ldr	r3, .L27+32
 474 00f0 FFF7FEFF 		bl	__aeabi_ddiv
 475              	.LVL49:
 476 00f4 0200     		movs	r2, r0
 477 00f6 0B00     		movs	r3, r1
 478 00f8 1B49     		ldr	r1, .L27+36
 479 00fa 2800     		movs	r0, r5
 480 00fc FFF7FEFF 		bl	sprintf
 481              	.LVL50:
 145:main.c        ****     u8x8_DrawString(&u8x8,0,6,buff);
 482              		.loc 1 145 0
 483 0100 2B00     		movs	r3, r5
 484 0102 0622     		movs	r2, #6
 485 0104 0021     		movs	r1, #0
 486 0106 3000     		movs	r0, r6
 487 0108 FFF7FEFF 		bl	u8x8_DrawString
 488              	.LVL51:
 146:main.c        ****     
 147:main.c        ****     sprintf(buff,"A1=%.2fV",(float)ADC_CountsTo_mVolts(1,A1) /1000.0);
 489              		.loc 1 147 0
 490 010c 174B     		ldr	r3, .L27+40
 491 010e 0021     		movs	r1, #0
 492 0110 595E     		ldrsh	r1, [r3, r1]
 493 0112 0120     		movs	r0, #1
 494 0114 FFF7FEFF 		bl	ADC_CountsTo_mVolts
 495              	.LVL52:
 496 0118 FFF7FEFF 		bl	__aeabi_i2f
 497              	.LVL53:
 498 011c FFF7FEFF 		bl	__aeabi_f2d
 499              	.LVL54:
 500 0120 0022     		movs	r2, #0
 501 0122 104B     		ldr	r3, .L27+32
 502 0124 FFF7FEFF 		bl	__aeabi_ddiv
 503              	.LVL55:
 504 0128 0200     		movs	r2, r0
 505 012a 0B00     		movs	r3, r1
 506 012c 1049     		ldr	r1, .L27+44
 507 012e 2800     		movs	r0, r5
 508 0130 FFF7FEFF 		bl	sprintf
 509              	.LVL56:
 148:main.c        ****     u8x8_DrawString(&u8x8,0,7,buff);
 510              		.loc 1 148 0
 511 0134 2B00     		movs	r3, r5
 512 0136 0722     		movs	r2, #7
ARM GAS  C:\Users\Alan\AppData\Local\Temp\ccgS1osr.s 			page 13


 513 0138 0021     		movs	r1, #0
 514 013a 3000     		movs	r0, r6
 515 013c FFF7FEFF 		bl	u8x8_DrawString
 516              	.LVL57:
 149:main.c        ****     
 150:main.c        **** 
 151:main.c        ****     
 152:main.c        **** }
 517              		.loc 1 152 0
 518              		@ sp needed
 519 0140 70BD     		pop	{r4, r5, r6, pc}
 520              	.L28:
 521 0142 C046     		.align	2
 522              	.L27:
 523 0144 00000000 		.word	pafeDataSet
 524 0148 00000000 		.word	buff
 525 014c 24000000 		.word	.LC14
 526 0150 00000000 		.word	u8x8
 527 0154 30000000 		.word	.LC18
 528 0158 40000000 		.word	.LC20
 529 015c 50000000 		.word	.LC22
 530 0160 00000000 		.word	A2
 531 0164 00408F40 		.word	1083129856
 532 0168 5C000000 		.word	.LC25
 533 016c 00000000 		.word	A1
 534 0170 68000000 		.word	.LC28
 535              		.cfi_endproc
 536              	.LFE39:
 537              		.size	displayDataScreen1, .-displayDataScreen1
 538              		.section	.text.displayDataScreen2,"ax",%progbits
 539              		.align	2
 540              		.global	displayDataScreen2
 541              		.code	16
 542              		.thumb_func
 543              		.type	displayDataScreen2, %function
 544              	displayDataScreen2:
 545              	.LFB40:
 153:main.c        **** 
 154:main.c        **** // This function displays the I2C Register map variable from the LED and Buttons
 155:main.c        **** void displayDataScreen2()
 156:main.c        **** {
 546              		.loc 1 156 0
 547              		.cfi_startproc
 548              		@ args = 0, pretend = 0, frame = 0
 549              		@ frame_needed = 0, uses_anonymous_args = 0
 550 0000 70B5     		push	{r4, r5, r6, lr}
 551              		.cfi_def_cfa_offset 16
 552              		.cfi_offset 4, -16
 553              		.cfi_offset 5, -12
 554              		.cfi_offset 6, -8
 555              		.cfi_offset 14, -4
 157:main.c        ****     sprintf(buff,"Buttons=%x",pafeDataSet.buttonVal);
 556              		.loc 1 157 0
 557 0002 124E     		ldr	r6, .L30
 558 0004 B279     		ldrb	r2, [r6, #6]
 559 0006 124C     		ldr	r4, .L30+4
 560 0008 1249     		ldr	r1, .L30+8
ARM GAS  C:\Users\Alan\AppData\Local\Temp\ccgS1osr.s 			page 14


 561 000a 2000     		movs	r0, r4
 562 000c FFF7FEFF 		bl	sprintf
 563              	.LVL58:
 158:main.c        ****     u8x8_DrawString(&u8x8,0,3,buff);
 564              		.loc 1 158 0
 565 0010 114D     		ldr	r5, .L30+12
 566 0012 2300     		movs	r3, r4
 567 0014 0322     		movs	r2, #3
 568 0016 0021     		movs	r1, #0
 569 0018 2800     		movs	r0, r5
 570 001a FFF7FEFF 		bl	u8x8_DrawString
 571              	.LVL59:
 159:main.c        ****     
 160:main.c        ****     sprintf(buff,"LEDs=%x",pafeDataSet.ledVal);
 572              		.loc 1 160 0
 573 001e 3279     		ldrb	r2, [r6, #4]
 574 0020 0E49     		ldr	r1, .L30+16
 575 0022 2000     		movs	r0, r4
 576 0024 FFF7FEFF 		bl	sprintf
 577              	.LVL60:
 161:main.c        ****     u8x8_DrawString(&u8x8,0,4,buff);
 578              		.loc 1 161 0
 579 0028 2300     		movs	r3, r4
 580 002a 0422     		movs	r2, #4
 581 002c 0021     		movs	r1, #0
 582 002e 2800     		movs	r0, r5
 583 0030 FFF7FEFF 		bl	u8x8_DrawString
 584              	.LVL61:
 162:main.c        ****     
 163:main.c        ****     
 164:main.c        ****     sprintf(buff,"LED Cntrl=%x",pafeDataSet.ledControl);
 585              		.loc 1 164 0
 586 0034 7279     		ldrb	r2, [r6, #5]
 587 0036 0A49     		ldr	r1, .L30+20
 588 0038 2000     		movs	r0, r4
 589 003a FFF7FEFF 		bl	sprintf
 590              	.LVL62:
 165:main.c        ****     u8x8_DrawString(&u8x8,0,5,buff);
 591              		.loc 1 165 0
 592 003e 2300     		movs	r3, r4
 593 0040 0522     		movs	r2, #5
 594 0042 0021     		movs	r1, #0
 595 0044 2800     		movs	r0, r5
 596 0046 FFF7FEFF 		bl	u8x8_DrawString
 597              	.LVL63:
 166:main.c        ****     
 167:main.c        **** }
 598              		.loc 1 167 0
 599              		@ sp needed
 600 004a 70BD     		pop	{r4, r5, r6, pc}
 601              	.L31:
 602              		.align	2
 603              	.L30:
 604 004c 00000000 		.word	pafeDataSet
 605 0050 00000000 		.word	buff
 606 0054 74000000 		.word	.LC31
 607 0058 00000000 		.word	u8x8
ARM GAS  C:\Users\Alan\AppData\Local\Temp\ccgS1osr.s 			page 15


 608 005c 80000000 		.word	.LC35
 609 0060 88000000 		.word	.LC37
 610              		.cfi_endproc
 611              	.LFE40:
 612              		.size	displayDataScreen2, .-displayDataScreen2
 613              		.section	.text.handleBaseSwitch,"ax",%progbits
 614              		.align	2
 615              		.global	handleBaseSwitch
 616              		.code	16
 617              		.thumb_func
 618              		.type	handleBaseSwitch, %function
 619              	handleBaseSwitch:
 620              	.LFB42:
 168:main.c        **** 
 169:main.c        **** 
 170:main.c        **** // This typedef is used to hold a function pointer for the display function
 171:main.c        **** // and a subtitle for the screen
 172:main.c        **** typedef struct DisplayFunction {
 173:main.c        ****     void (*fcn)(void);
 174:main.c        ****     char *title;
 175:main.c        **** } DisplayFunction;
 176:main.c        **** 
 177:main.c        **** // One entry per screen
 178:main.c        **** DisplayFunction displayFunctions[] = { 
 179:main.c        ****     {displayDataScreen1,"Test"},
 180:main.c        ****     {displayDataScreen0,"Base ADC"},
 181:main.c        ****     {displayDataScreen2,"Buttons"}
 182:main.c        **** };
 183:main.c        **** #define NUM_SCREENS (sizeof(displayFunctions)/sizeof(DisplayFunction))
 184:main.c        **** int currentScreen=0; // a counter of the current displayed screen
 185:main.c        **** 
 186:main.c        **** 
 187:main.c        **** // This function displays the main title, subtitle (cetered)
 188:main.c        **** // the calls the current display function
 189:main.c        **** void switchScreen()
 190:main.c        **** {
 191:main.c        ****     int offset = (16-strlen(displayFunctions[currentScreen].title))/2;
 192:main.c        ****     u8x8_ClearDisplay(&u8x8);
 193:main.c        ****     u8x8_DrawString(&u8x8,1,0,"PSoC AFE Shield");
 194:main.c        ****     u8x8_DrawString(&u8x8,offset,1,displayFunctions[currentScreen].title);
 195:main.c        ****    
 196:main.c        ****     (*displayFunctions[currentScreen].fcn)();
 197:main.c        ****    
 198:main.c        **** }
 199:main.c        **** 
 200:main.c        **** // ISR for base button... it puts the baseboard into "bootloader mode" which actually
 201:main.c        **** // enables the shield to bootload (by not writing to the screen)
 202:main.c        **** void handleBaseSwitch()
 203:main.c        **** {
 621              		.loc 1 203 0
 622              		.cfi_startproc
 623              		@ args = 0, pretend = 0, frame = 0
 624              		@ frame_needed = 0, uses_anonymous_args = 0
 625 0000 10B5     		push	{r4, lr}
 626              		.cfi_def_cfa_offset 8
 627              		.cfi_offset 4, -8
 628              		.cfi_offset 14, -4
ARM GAS  C:\Users\Alan\AppData\Local\Temp\ccgS1osr.s 			page 16


 204:main.c        ****     bootloaderMode = !bootloaderMode;
 629              		.loc 1 204 0
 630 0002 054B     		ldr	r3, .L33
 631 0004 9868     		ldr	r0, [r3, #8]
 632 0006 4242     		rsbs	r2, r0, #0
 633 0008 5041     		adcs	r0, r0, r2
 634 000a 9860     		str	r0, [r3, #8]
 205:main.c        ****     Red_Write(bootloaderMode);
 635              		.loc 1 205 0
 636 000c C0B2     		uxtb	r0, r0
 637 000e FFF7FEFF 		bl	Red_Write
 638              	.LVL64:
 206:main.c        ****     SW1_ClearInterrupt();
 639              		.loc 1 206 0
 640 0012 FFF7FEFF 		bl	SW1_ClearInterrupt
 641              	.LVL65:
 207:main.c        **** }
 642              		.loc 1 207 0
 643              		@ sp needed
 644 0016 10BD     		pop	{r4, pc}
 645              	.L34:
 646              		.align	2
 647              	.L33:
 648 0018 00000000 		.word	.LANCHOR0
 649              		.cfi_endproc
 650              	.LFE42:
 651              		.size	handleBaseSwitch, .-handleBaseSwitch
 652              		.section	.text.switchScreen,"ax",%progbits
 653              		.align	2
 654              		.global	switchScreen
 655              		.code	16
 656              		.thumb_func
 657              		.type	switchScreen, %function
 658              	switchScreen:
 659              	.LFB41:
 190:main.c        ****     int offset = (16-strlen(displayFunctions[currentScreen].title))/2;
 660              		.loc 1 190 0
 661              		.cfi_startproc
 662              		@ args = 0, pretend = 0, frame = 0
 663              		@ frame_needed = 0, uses_anonymous_args = 0
 664 0000 F8B5     		push	{r3, r4, r5, r6, r7, lr}
 665              		.cfi_def_cfa_offset 24
 666              		.cfi_offset 3, -24
 667              		.cfi_offset 4, -20
 668              		.cfi_offset 5, -16
 669              		.cfi_offset 6, -12
 670              		.cfi_offset 7, -8
 671              		.cfi_offset 14, -4
 191:main.c        ****     u8x8_ClearDisplay(&u8x8);
 672              		.loc 1 191 0
 673 0002 114F     		ldr	r7, .L36
 674 0004 114E     		ldr	r6, .L36+4
 675 0006 FB68     		ldr	r3, [r7, #12]
 676 0008 DB00     		lsls	r3, r3, #3
 677 000a F318     		adds	r3, r6, r3
 678 000c 5868     		ldr	r0, [r3, #4]
 679 000e FFF7FEFF 		bl	strlen
ARM GAS  C:\Users\Alan\AppData\Local\Temp\ccgS1osr.s 			page 17


 680              	.LVL66:
 681 0012 1023     		movs	r3, #16
 682 0014 1C1A     		subs	r4, r3, r0
 683 0016 6408     		lsrs	r4, r4, #1
 684              	.LVL67:
 192:main.c        ****     u8x8_DrawString(&u8x8,1,0,"PSoC AFE Shield");
 685              		.loc 1 192 0
 686 0018 0D4D     		ldr	r5, .L36+8
 687 001a 2800     		movs	r0, r5
 688 001c FFF7FEFF 		bl	u8x8_ClearDisplay
 689              	.LVL68:
 193:main.c        ****     u8x8_DrawString(&u8x8,offset,1,displayFunctions[currentScreen].title);
 690              		.loc 1 193 0
 691 0020 0C4B     		ldr	r3, .L36+12
 692 0022 0022     		movs	r2, #0
 693 0024 0121     		movs	r1, #1
 694 0026 2800     		movs	r0, r5
 695 0028 FFF7FEFF 		bl	u8x8_DrawString
 696              	.LVL69:
 194:main.c        ****    
 697              		.loc 1 194 0
 698 002c FB68     		ldr	r3, [r7, #12]
 699 002e DB00     		lsls	r3, r3, #3
 700 0030 F318     		adds	r3, r6, r3
 701 0032 5B68     		ldr	r3, [r3, #4]
 702 0034 E1B2     		uxtb	r1, r4
 703 0036 0122     		movs	r2, #1
 704 0038 2800     		movs	r0, r5
 705 003a FFF7FEFF 		bl	u8x8_DrawString
 706              	.LVL70:
 196:main.c        ****    
 707              		.loc 1 196 0
 708 003e FB68     		ldr	r3, [r7, #12]
 709 0040 DB00     		lsls	r3, r3, #3
 710 0042 9B59     		ldr	r3, [r3, r6]
 711 0044 9847     		blx	r3
 712              	.LVL71:
 198:main.c        **** 
 713              		.loc 1 198 0
 714              		@ sp needed
 715              	.LVL72:
 716 0046 F8BD     		pop	{r3, r4, r5, r6, r7, pc}
 717              	.L37:
 718              		.align	2
 719              	.L36:
 720 0048 00000000 		.word	.LANCHOR0
 721 004c 00000000 		.word	.LANCHOR1
 722 0050 00000000 		.word	u8x8
 723 0054 98000000 		.word	.LC43
 724              		.cfi_endproc
 725              	.LFE41:
 726              		.size	switchScreen, .-switchScreen
 727              		.global	__aeabi_uidivmod
 728              		.global	__aeabi_dadd
 729              		.global	__aeabi_d2f
 730              		.global	__aeabi_dcmpgt
 731              		.section	.text.main,"ax",%progbits
ARM GAS  C:\Users\Alan\AppData\Local\Temp\ccgS1osr.s 			page 18


 732              		.align	2
 733              		.global	main
 734              		.code	16
 735              		.thumb_func
 736              		.type	main, %function
 737              	main:
 738              	.LFB43:
 208:main.c        **** 
 209:main.c        **** 
 210:main.c        **** 
 211:main.c        **** int main(void)
 212:main.c        **** {
 739              		.loc 1 212 0
 740              		.cfi_startproc
 741              		@ args = 0, pretend = 0, frame = 8
 742              		@ frame_needed = 0, uses_anonymous_args = 0
 743 0000 30B5     		push	{r4, r5, lr}
 744              		.cfi_def_cfa_offset 12
 745              		.cfi_offset 4, -12
 746              		.cfi_offset 5, -8
 747              		.cfi_offset 14, -4
 748 0002 85B0     		sub	sp, sp, #20
 749              		.cfi_def_cfa_offset 32
 213:main.c        ****   
 214:main.c        ****     CyGlobalIntEnable; /* Enable global interrupts. */
 750              		.loc 1 214 0
 751              		.syntax divided
 752              	@ 214 "main.c" 1
 753 0004 62B6     		CPSIE   i
 754              	@ 0 "" 2
 215:main.c        ****   
 216:main.c        ****     
 217:main.c        ****     ADC_Start();
 755              		.loc 1 217 0
 756              		.thumb
 757              		.syntax unified
 758 0006 FFF7FEFF 		bl	ADC_Start
 759              	.LVL73:
 218:main.c        ****     ADC_StartConvert();
 760              		.loc 1 218 0
 761 000a FFF7FEFF 		bl	ADC_StartConvert
 762              	.LVL74:
 219:main.c        ****     I2C_Start();
 763              		.loc 1 219 0
 764 000e FFF7FEFF 		bl	I2C_Start
 765              	.LVL75:
 220:main.c        ****     
 221:main.c        ****     SWISR_StartEx(handleBaseSwitch);
 766              		.loc 1 221 0
 767 0012 5848     		ldr	r0, .L52
 768 0014 FFF7FEFF 		bl	SWISR_StartEx
 769              	.LVL76:
 222:main.c        **** 
 223:main.c        ****     // Initialize the U8 Display
 224:main.c        ****     u8x8_Setup(&u8x8, u8x8_d_ssd1306_128x64_noname, u8x8_cad_ssd13xx_i2c, u8x8_byte_hw_i2c, psoc_gp
 770              		.loc 1 224 0
 771 0018 574C     		ldr	r4, .L52+4
ARM GAS  C:\Users\Alan\AppData\Local\Temp\ccgS1osr.s 			page 19


 772 001a 584B     		ldr	r3, .L52+8
 773 001c 0093     		str	r3, [sp]
 774 001e 584B     		ldr	r3, .L52+12
 775 0020 584A     		ldr	r2, .L52+16
 776 0022 5949     		ldr	r1, .L52+20
 777 0024 2000     		movs	r0, r4
 778 0026 FFF7FEFF 		bl	u8x8_Setup
 779              	.LVL77:
 225:main.c        ****     u8x8_InitDisplay(&u8x8);  
 780              		.loc 1 225 0
 781 002a 2000     		movs	r0, r4
 782 002c FFF7FEFF 		bl	u8x8_InitDisplay
 783              	.LVL78:
 226:main.c        ****     u8x8_SetPowerSave(&u8x8,0);
 784              		.loc 1 226 0
 785 0030 0021     		movs	r1, #0
 786 0032 2000     		movs	r0, r4
 787 0034 FFF7FEFF 		bl	u8x8_SetPowerSave
 788              	.LVL79:
 227:main.c        ****     u8x8_SetFont(&u8x8,u8x8_font_amstrad_cpc_extended_f);
 789              		.loc 1 227 0
 790 0038 5449     		ldr	r1, .L52+24
 791 003a 2000     		movs	r0, r4
 792 003c FFF7FEFF 		bl	u8x8_SetFont
 793              	.LVL80:
 228:main.c        ****    
 229:main.c        ****     switchScreen(); // Display the screen for the first time
 794              		.loc 1 229 0
 795 0040 FFF7FEFF 		bl	switchScreen
 796              	.LVL81:
 230:main.c        ****         
 231:main.c        ****     CySysTickStart();
 797              		.loc 1 231 0
 798 0044 FFF7FEFF 		bl	CySysTickStart
 799              	.LVL82:
 232:main.c        ****     CySysTickSetCallback(0,sysTickISR);
 800              		.loc 1 232 0
 801 0048 5149     		ldr	r1, .L52+28
 802 004a 0020     		movs	r0, #0
 803 004c FFF7FEFF 		bl	CySysTickSetCallback
 804              	.LVL83:
 233:main.c        ****    
 234:main.c        ****     // This structure is used to send the ezi2c register address + the dac value
 235:main.c        ****     typedef CY_PACKED struct SendBuff {
 236:main.c        ****         uint8 address;
 237:main.c        ****         float dacValue;
 238:main.c        ****     } CY_PACKED_ATTR SendBuff_t;
 239:main.c        ****     
 240:main.c        ****     SendBuff_t sendBuff;
 241:main.c        ****     sendBuff.address = 0; // Start in the first byte of the I2C register map
 805              		.loc 1 241 0
 806 0050 0022     		movs	r2, #0
 807 0052 02AB     		add	r3, sp, #8
 808 0054 1A70     		strb	r2, [r3]
 242:main.c        ****     sendBuff.dacValue = 0.0; // star the dac at 0.0v
 809              		.loc 1 242 0
 810 0056 0923     		movs	r3, #9
ARM GAS  C:\Users\Alan\AppData\Local\Temp\ccgS1osr.s 			page 20


 811 0058 6B44     		add	r3, r3, sp
 812 005a 0022     		movs	r2, #0
 813 005c 1A70     		strb	r2, [r3]
 814 005e 5A70     		strb	r2, [r3, #1]
 815 0060 9A70     		strb	r2, [r3, #2]
 816 0062 DA70     		strb	r2, [r3, #3]
 243:main.c        ****    
 244:main.c        **** 
 245:main.c        **** 
 246:main.c        ****     // set the PSoC AFE EZI2C Read Pointer to 0
 247:main.c        ****     uint32 rval = I2C_I2CMasterSendStart(PSOC_AFE_I2C,I2C_I2C_WRITE_XFER_MODE);
 817              		.loc 1 247 0
 818 0064 0021     		movs	r1, #0
 819 0066 4220     		movs	r0, #66
 820 0068 FFF7FEFF 		bl	I2C_I2CMasterSendStart
 821              	.LVL84:
 248:main.c        ****     if(rval != I2C_I2C_MSTR_NO_ERROR) // if something bad happens hang the device and turn on the g
 822              		.loc 1 248 0
 823 006c 0028     		cmp	r0, #0
 824 006e 03D0     		beq	.L39
 249:main.c        ****     {
 250:main.c        ****         Green_Write(0);
 825              		.loc 1 250 0
 826 0070 0020     		movs	r0, #0
 827              	.LVL85:
 828 0072 FFF7FEFF 		bl	Green_Write
 829              	.LVL86:
 830              	.L40:
 831 0076 FEE7     		b	.L40
 832              	.LVL87:
 833              	.L39:
 251:main.c        ****         while(1);
 252:main.c        ****     }
 253:main.c        ****     I2C_I2CMasterWriteByte(0);
 834              		.loc 1 253 0
 835 0078 0020     		movs	r0, #0
 836              	.LVL88:
 837 007a FFF7FEFF 		bl	I2C_I2CMasterWriteByte
 838              	.LVL89:
 254:main.c        ****     I2C_I2CMasterSendStop();
 839              		.loc 1 254 0
 840 007e FFF7FEFF 		bl	I2C_I2CMasterSendStop
 841              	.LVL90:
 842              	.L50:
 843              	.LBB2:
 255:main.c        ****         
 256:main.c        ****     for(;;)
 257:main.c        ****     {
 258:main.c        ****         int b1Prev;
 259:main.c        ****         int b1State;
 260:main.c        ****         
 261:main.c        ****         // Read the values of the Analog Arduino Pins
 262:main.c        ****         if(ADC_IsEndConversion(ADC_RETURN_STATUS))
 844              		.loc 1 262 0
 845 0082 0120     		movs	r0, #1
 846 0084 FFF7FEFF 		bl	ADC_IsEndConversion
 847              	.LVL91:
ARM GAS  C:\Users\Alan\AppData\Local\Temp\ccgS1osr.s 			page 21


 848 0088 0028     		cmp	r0, #0
 849 008a 0ED0     		beq	.L41
 263:main.c        ****         {
 264:main.c        ****             A0 = ADC_GetResult16(0);
 850              		.loc 1 264 0
 851 008c 0020     		movs	r0, #0
 852 008e FFF7FEFF 		bl	ADC_GetResult16
 853              	.LVL92:
 854 0092 404B     		ldr	r3, .L52+32
 855 0094 1880     		strh	r0, [r3]
 265:main.c        ****             A1 = ADC_GetResult16(1);
 856              		.loc 1 265 0
 857 0096 0120     		movs	r0, #1
 858 0098 FFF7FEFF 		bl	ADC_GetResult16
 859              	.LVL93:
 860 009c 3E4B     		ldr	r3, .L52+36
 861 009e 1880     		strh	r0, [r3]
 266:main.c        ****             A2 = ADC_GetResult16(2);            
 862              		.loc 1 266 0
 863 00a0 0220     		movs	r0, #2
 864 00a2 FFF7FEFF 		bl	ADC_GetResult16
 865              	.LVL94:
 866 00a6 3D4B     		ldr	r3, .L52+40
 867 00a8 1880     		strh	r0, [r3]
 868              	.L41:
 267:main.c        ****         }
 268:main.c        ****         
 269:main.c        ****         // Handle the user button which switches screens
 270:main.c        ****         b1State = D3_Read();
 869              		.loc 1 270 0
 870 00aa FFF7FEFF 		bl	D3_Read
 871              	.LVL95:
 872 00ae 041E     		subs	r4, r0, #0
 873              	.LVL96:
 271:main.c        ****         if(b1State == 0 && b1Prev == 1)
 874              		.loc 1 271 0
 875 00b0 0AD1     		bne	.L42
 876              		.loc 1 271 0 is_stmt 0 discriminator 1
 877 00b2 012D     		cmp	r5, #1
 878 00b4 08D1     		bne	.L42
 272:main.c        ****         {
 273:main.c        ****             currentScreen = (currentScreen + 1) % NUM_SCREENS;
 879              		.loc 1 273 0 is_stmt 1
 880 00b6 3A4D     		ldr	r5, .L52+44
 881              	.LVL97:
 882 00b8 EB68     		ldr	r3, [r5, #12]
 883 00ba 581C     		adds	r0, r3, #1
 884              	.LVL98:
 885 00bc 0321     		movs	r1, #3
 886 00be FFF7FEFF 		bl	__aeabi_uidivmod
 887              	.LVL99:
 888 00c2 E960     		str	r1, [r5, #12]
 274:main.c        ****             switchScreen();
 889              		.loc 1 274 0
 890 00c4 FFF7FEFF 		bl	switchScreen
 891              	.LVL100:
 892              	.L42:
ARM GAS  C:\Users\Alan\AppData\Local\Temp\ccgS1osr.s 			page 22


 275:main.c        ****         }
 276:main.c        ****         b1Prev = b1State;
 277:main.c        ****       
 278:main.c        ****         
 279:main.c        ****         
 280:main.c        ****         // Read the PSoC AFE Shield I2C Register Map
 281:main.c        ****         I2C_I2CMasterReadBuf(PSOC_AFE_I2C,(uint8 *)&pafeDataSet,sizeof(pafeDataSet),I2C_I2C_MODE_CO
 893              		.loc 1 281 0
 894 00c8 0023     		movs	r3, #0
 895 00ca 1722     		movs	r2, #23
 896 00cc 3549     		ldr	r1, .L52+48
 897 00ce 4220     		movs	r0, #66
 898 00d0 FFF7FEFF 		bl	I2C_I2CMasterReadBuf
 899              	.LVL101:
 900              	.L43:
 282:main.c        ****         while (0u == (I2C_I2CMasterStatus() & I2C_I2C_MSTAT_RD_CMPLT));
 901              		.loc 1 282 0 discriminator 1
 902 00d4 FFF7FEFF 		bl	I2C_I2CMasterStatus
 903              	.LVL102:
 904 00d8 C307     		lsls	r3, r0, #31
 905 00da FBD5     		bpl	.L43
 283:main.c        ****         
 284:main.c        ****         // If the timer ISR sets the updateDate flag then update the DAC & the Display
 285:main.c        ****         if(updateData)
 906              		.loc 1 285 0
 907 00dc 304B     		ldr	r3, .L52+44
 908 00de 5B68     		ldr	r3, [r3, #4]
 909 00e0 002B     		cmp	r3, #0
 910 00e2 41D0     		beq	.L48
 286:main.c        ****         {
 287:main.c        ****             updateData = 0;
 911              		.loc 1 287 0
 912 00e4 2E4B     		ldr	r3, .L52+44
 913 00e6 0022     		movs	r2, #0
 914 00e8 5A60     		str	r2, [r3, #4]
 288:main.c        ****             (*displayFunctions[currentScreen].fcn)(); // Update the display
 915              		.loc 1 288 0
 916 00ea DB68     		ldr	r3, [r3, #12]
 917 00ec DB00     		lsls	r3, r3, #3
 918 00ee 2E4A     		ldr	r2, .L52+52
 919 00f0 9B58     		ldr	r3, [r3, r2]
 920 00f2 9847     		blx	r3
 921              	.LVL103:
 289:main.c        ****             
 290:main.c        ****             
 291:main.c        ****             // Update Dac Value
 292:main.c        ****             sendBuff.dacValue = sendBuff.dacValue + 0.1;
 922              		.loc 1 292 0
 923 00f4 029B     		ldr	r3, [sp, #8]
 924 00f6 1B0A     		lsrs	r3, r3, #8
 925 00f8 02AA     		add	r2, sp, #8
 926 00fa 1079     		ldrb	r0, [r2, #4]
 927 00fc 0006     		lsls	r0, r0, #24
 928 00fe 1843     		orrs	r0, r3
 929 0100 FFF7FEFF 		bl	__aeabi_f2d
 930              	.LVL104:
 931 0104 294A     		ldr	r2, .L52+56
ARM GAS  C:\Users\Alan\AppData\Local\Temp\ccgS1osr.s 			page 23


 932 0106 2A4B     		ldr	r3, .L52+60
 933 0108 FFF7FEFF 		bl	__aeabi_dadd
 934              	.LVL105:
 935 010c FFF7FEFF 		bl	__aeabi_d2f
 936              	.LVL106:
 937 0110 0922     		movs	r2, #9
 938 0112 6A44     		add	r2, r2, sp
 939 0114 1070     		strb	r0, [r2]
 940 0116 010A     		lsrs	r1, r0, #8
 941 0118 5170     		strb	r1, [r2, #1]
 942 011a 010C     		lsrs	r1, r0, #16
 943 011c 9170     		strb	r1, [r2, #2]
 944 011e 030E     		lsrs	r3, r0, #24
 945 0120 D370     		strb	r3, [r2, #3]
 293:main.c        ****             if(sendBuff.dacValue > 2.1)
 946              		.loc 1 293 0
 947 0122 FFF7FEFF 		bl	__aeabi_f2d
 948              	.LVL107:
 949 0126 234A     		ldr	r2, .L52+64
 950 0128 234B     		ldr	r3, .L52+68
 951 012a FFF7FEFF 		bl	__aeabi_dcmpgt
 952              	.LVL108:
 953 012e 0028     		cmp	r0, #0
 954 0130 06D0     		beq	.L45
 294:main.c        ****                 sendBuff.dacValue = 0.0;
 955              		.loc 1 294 0
 956 0132 0923     		movs	r3, #9
 957 0134 6B44     		add	r3, r3, sp
 958 0136 0022     		movs	r2, #0
 959 0138 1A70     		strb	r2, [r3]
 960 013a 5A70     		strb	r2, [r3, #1]
 961 013c 9A70     		strb	r2, [r3, #2]
 962 013e DA70     		strb	r2, [r3, #3]
 963              	.L45:
 295:main.c        ****         
 296:main.c        ****             // Send the updated DAC value
 297:main.c        ****             I2C_I2CMasterWriteBuf(PSOC_AFE_I2C,(uint8 *)&sendBuff,sizeof(sendBuff),I2C_I2C_MODE_COM
 964              		.loc 1 297 0
 965 0140 0023     		movs	r3, #0
 966 0142 0522     		movs	r2, #5
 967 0144 02A9     		add	r1, sp, #8
 968 0146 4220     		movs	r0, #66
 969 0148 FFF7FEFF 		bl	I2C_I2CMasterWriteBuf
 970              	.LVL109:
 971              	.L47:
 298:main.c        ****             while (0u == (I2C_I2CMasterStatus() & I2C_I2C_MSTAT_WR_CMPLT));
 972              		.loc 1 298 0 discriminator 1
 973 014c FFF7FEFF 		bl	I2C_I2CMasterStatus
 974              	.LVL110:
 975 0150 8307     		lsls	r3, r0, #30
 976 0152 FBD5     		bpl	.L47
 977 0154 08E0     		b	.L48
 978              	.L49:
 299:main.c        ****    
 300:main.c        ****         }
 301:main.c        ****         
 302:main.c        ****         while(bootloaderMode) // Disable all I2C traffic so PSoc AFE can bootload
ARM GAS  C:\Users\Alan\AppData\Local\Temp\ccgS1osr.s 			page 24


 303:main.c        ****         {
 304:main.c        ****             CyDelay(100);
 979              		.loc 1 304 0
 980 0156 6420     		movs	r0, #100
 981 0158 FFF7FEFF 		bl	CyDelay
 982              	.LVL111:
 305:main.c        ****             Red_Write(~Red_Read());
 983              		.loc 1 305 0
 984 015c FFF7FEFF 		bl	Red_Read
 985              	.LVL112:
 986 0160 C043     		mvns	r0, r0
 987 0162 C0B2     		uxtb	r0, r0
 988 0164 FFF7FEFF 		bl	Red_Write
 989              	.LVL113:
 990              	.L48:
 302:main.c        ****         {
 991              		.loc 1 302 0
 992 0168 0D4B     		ldr	r3, .L52+44
 993 016a 9B68     		ldr	r3, [r3, #8]
 994 016c 002B     		cmp	r3, #0
 995 016e F2D1     		bne	.L49
 276:main.c        ****       
 996              		.loc 1 276 0
 997 0170 2500     		movs	r5, r4
 998 0172 86E7     		b	.L50
 999              	.L53:
 1000              		.align	2
 1001              	.L52:
 1002 0174 00000000 		.word	handleBaseSwitch
 1003 0178 00000000 		.word	u8x8
 1004 017c 00000000 		.word	psoc_gpio_and_delay_cb
 1005 0180 00000000 		.word	u8x8_byte_hw_i2c
 1006 0184 00000000 		.word	u8x8_cad_ssd13xx_i2c
 1007 0188 00000000 		.word	u8x8_d_ssd1306_128x64_noname
 1008 018c 00000000 		.word	u8x8_font_amstrad_cpc_extended_f
 1009 0190 00000000 		.word	sysTickISR
 1010 0194 00000000 		.word	A0
 1011 0198 00000000 		.word	A1
 1012 019c 00000000 		.word	A2
 1013 01a0 00000000 		.word	.LANCHOR0
 1014 01a4 00000000 		.word	pafeDataSet
 1015 01a8 00000000 		.word	.LANCHOR1
 1016 01ac 9A999999 		.word	-1717986918
 1017 01b0 9999B93F 		.word	1069128089
 1018 01b4 CDCCCCCC 		.word	-858993459
 1019 01b8 CCCC0040 		.word	1073794252
 1020              	.LBE2:
 1021              		.cfi_endproc
 1022              	.LFE43:
 1023              		.size	main, .-main
 1024              		.global	currentScreen
 1025              		.global	displayFunctions
 1026              		.global	bootloaderMode
 1027              		.comm	buff,64,4
 1028              		.comm	A2,2,2
 1029              		.comm	A1,2,2
 1030              		.comm	A0,2,2
ARM GAS  C:\Users\Alan\AppData\Local\Temp\ccgS1osr.s 			page 25


 1031              		.comm	u8x8,44,4
 1032              		.global	updateData
 1033              		.comm	pafeDataSet,23,4
 1034              		.data
 1035              		.align	2
 1036              		.set	.LANCHOR1,. + 0
 1037              		.type	displayFunctions, %object
 1038              		.size	displayFunctions, 24
 1039              	displayFunctions:
 1040 0000 00000000 		.word	displayDataScreen1
 1041 0004 A8000000 		.word	.LC59
 1042 0008 00000000 		.word	displayDataScreen0
 1043 000c B0000000 		.word	.LC60
 1044 0010 00000000 		.word	displayDataScreen2
 1045 0014 BC000000 		.word	.LC61
 1046              		.section	.rodata.str1.4,"aMS",%progbits,1
 1047              		.align	2
 1048              	.LC3:
 1049 0000 41303D25 		.ascii	"A0=%d mV   \000"
 1049      64206D56 
 1049      20202000 
 1050              	.LC8:
 1051 000c 41313D25 		.ascii	"A1=%d mV   \000"
 1051      64206D56 
 1051      20202000 
 1052              	.LC11:
 1053 0018 41323D25 		.ascii	"A2=%d mV  \000"
 1053      64206D56 
 1053      202000
 1054 0023 00       		.space	1
 1055              	.LC14:
 1056 0024 54656D70 		.ascii	"Temp=%.1f C\000"
 1056      3D252E31 
 1056      66204300 
 1057              	.LC18:
 1058 0030 48756D69 		.ascii	"Humidity=%.1f%%\000"
 1058      64697479 
 1058      3D252E31 
 1058      66252500 
 1059              	.LC20:
 1060 0040 496C6C75 		.ascii	"Illum=%.1f lux\000"
 1060      6D3D252E 
 1060      3166206C 
 1060      757800
 1061 004f 00       		.space	1
 1062              	.LC22:
 1063 0050 506F743D 		.ascii	"Pot=%.2fV\000"
 1063      252E3266 
 1063      5600
 1064 005a 0000     		.space	2
 1065              	.LC25:
 1066 005c 41323D25 		.ascii	"A2=%.2fV\000"
 1066      2E326656 
 1066      00
 1067 0065 000000   		.space	3
 1068              	.LC28:
 1069 0068 41313D25 		.ascii	"A1=%.2fV\000"
ARM GAS  C:\Users\Alan\AppData\Local\Temp\ccgS1osr.s 			page 26


 1069      2E326656 
 1069      00
 1070 0071 000000   		.space	3
 1071              	.LC31:
 1072 0074 42757474 		.ascii	"Buttons=%x\000"
 1072      6F6E733D 
 1072      257800
 1073 007f 00       		.space	1
 1074              	.LC35:
 1075 0080 4C454473 		.ascii	"LEDs=%x\000"
 1075      3D257800 
 1076              	.LC37:
 1077 0088 4C454420 		.ascii	"LED Cntrl=%x\000"
 1077      436E7472 
 1077      6C3D2578 
 1077      00
 1078 0095 000000   		.space	3
 1079              	.LC43:
 1080 0098 50536F43 		.ascii	"PSoC AFE Shield\000"
 1080      20414645 
 1080      20536869 
 1080      656C6400 
 1081              	.LC59:
 1082 00a8 54657374 		.ascii	"Test\000"
 1082      00
 1083 00ad 000000   		.space	3
 1084              	.LC60:
 1085 00b0 42617365 		.ascii	"Base ADC\000"
 1085      20414443 
 1085      00
 1086 00b9 000000   		.space	3
 1087              	.LC61:
 1088 00bc 42757474 		.ascii	"Buttons\000"
 1088      6F6E7300 
 1089              		.bss
 1090              		.align	2
 1091              		.set	.LANCHOR0,. + 0
 1092              		.type	counter.9762, %object
 1093              		.size	counter.9762, 4
 1094              	counter.9762:
 1095 0000 00000000 		.space	4
 1096              		.type	updateData, %object
 1097              		.size	updateData, 4
 1098              	updateData:
 1099 0004 00000000 		.space	4
 1100              		.type	bootloaderMode, %object
 1101              		.size	bootloaderMode, 4
 1102              	bootloaderMode:
 1103 0008 00000000 		.space	4
 1104              		.type	currentScreen, %object
 1105              		.size	currentScreen, 4
 1106              	currentScreen:
 1107 000c 00000000 		.space	4
 1108              		.text
 1109              	.Letext0:
 1110              		.file 2 "c:\\program files (x86)\\cypress\\psoc creator\\4.1\\psoc creator\\import\\gnu\\arm\\5.4.
 1111              		.file 3 "c:\\program files (x86)\\cypress\\psoc creator\\4.1\\psoc creator\\import\\gnu\\arm\\5.4.
ARM GAS  C:\Users\Alan\AppData\Local\Temp\ccgS1osr.s 			page 27


 1112              		.file 4 "Generated_Source\\PSoC4/cytypes.h"
 1113              		.file 5 "..\\I2CRegMap/regmap.h"
 1114              		.file 6 "..\\..\\u8g2\\csrc/u8x8.h"
 1115              		.file 7 "Generated_Source\\PSoC4/I2C_I2C.h"
 1116              		.file 8 "Generated_Source\\PSoC4/CyLib.h"
 1117              		.file 9 "Generated_Source\\PSoC4/ADC.h"
 1118              		.file 10 "c:\\program files (x86)\\cypress\\psoc creator\\4.1\\psoc creator\\import\\gnu\\arm\\5.4
 1119              		.file 11 "Generated_Source\\PSoC4/Red.h"
 1120              		.file 12 "Generated_Source\\PSoC4/SW1.h"
 1121              		.file 13 "c:\\program files (x86)\\cypress\\psoc creator\\4.1\\psoc creator\\import\\gnu\\arm\\5.4
 1122              		.file 14 "Generated_Source\\PSoC4/D3.h"
 1123              		.file 15 "Generated_Source\\PSoC4/I2C.h"
 1124              		.file 16 "Generated_Source\\PSoC4/SWISR.h"
 1125              		.file 17 "Generated_Source\\PSoC4/Green.h"