ARM GAS  C:\Users\gjl\AppData\Local\Temp\ccNm9gHl.s 			page 1


   1              		.syntax unified
   2              		.cpu cortex-m0
   3              		.fpu softvfp
   4              		.eabi_attribute 20, 1
   5              		.eabi_attribute 21, 1
   6              		.eabi_attribute 23, 3
   7              		.eabi_attribute 24, 1
   8              		.eabi_attribute 25, 1
   9              		.eabi_attribute 26, 1
  10              		.eabi_attribute 30, 1
  11              		.eabi_attribute 34, 0
  12              		.eabi_attribute 18, 4
  13              		.thumb
  14              		.syntax unified
  15              		.file	"u8g2_d_memory.c"
  16              		.text
  17              	.Ltext0:
  18              		.cfi_sections	.debug_frame
  19              		.section	.text.u8g2_m_ssd1305_16_1,"ax",%progbits
  20              		.align	2
  21              		.global	u8g2_m_ssd1305_16_1
  22              		.code	16
  23              		.thumb_func
  24              		.type	u8g2_m_ssd1305_16_1, %function
  25              	u8g2_m_ssd1305_16_1:
  26              	.LFB0:
  27              		.file 1 "..\\u8g2\\csrc\\u8g2_d_memory.c"
   1:..\u8g2\csrc/u8g2_d_memory.c **** /* u8g2_d_memory.c */
   2:..\u8g2\csrc/u8g2_d_memory.c **** /* generated code, codebuild, u8g2 project */
   3:..\u8g2\csrc/u8g2_d_memory.c **** 
   4:..\u8g2\csrc/u8g2_d_memory.c **** #include "u8g2.h"
   5:..\u8g2\csrc/u8g2_d_memory.c **** 
   6:..\u8g2\csrc/u8g2_d_memory.c **** uint8_t *u8g2_m_ssd1305_16_1(uint8_t *page_cnt)
   7:..\u8g2\csrc/u8g2_d_memory.c **** {
  28              		.loc 1 7 0
  29              		.cfi_startproc
  30              		@ args = 0, pretend = 0, frame = 0
  31              		@ frame_needed = 0, uses_anonymous_args = 0
  32              		@ link register save eliminated.
  33              	.LVL0:
   8:..\u8g2\csrc/u8g2_d_memory.c ****   static uint8_t buf[128];
   9:..\u8g2\csrc/u8g2_d_memory.c ****   *page_cnt = 1;
  34              		.loc 1 9 0
  35 0000 0123     		movs	r3, #1
  36 0002 0370     		strb	r3, [r0]
  10:..\u8g2\csrc/u8g2_d_memory.c ****   return buf;
  11:..\u8g2\csrc/u8g2_d_memory.c **** }
  37              		.loc 1 11 0
  38 0004 0048     		ldr	r0, .L2
  39              	.LVL1:
  40              		@ sp needed
  41 0006 7047     		bx	lr
  42              	.L3:
  43              		.align	2
  44              	.L2:
  45 0008 00000000 		.word	.LANCHOR0
  46              		.cfi_endproc
ARM GAS  C:\Users\gjl\AppData\Local\Temp\ccNm9gHl.s 			page 2


  47              	.LFE0:
  48              		.size	u8g2_m_ssd1305_16_1, .-u8g2_m_ssd1305_16_1
  49              		.section	.text.u8g2_m_ssd1305_16_2,"ax",%progbits
  50              		.align	2
  51              		.global	u8g2_m_ssd1305_16_2
  52              		.code	16
  53              		.thumb_func
  54              		.type	u8g2_m_ssd1305_16_2, %function
  55              	u8g2_m_ssd1305_16_2:
  56              	.LFB1:
  12:..\u8g2\csrc/u8g2_d_memory.c **** uint8_t *u8g2_m_ssd1305_16_2(uint8_t *page_cnt)
  13:..\u8g2\csrc/u8g2_d_memory.c **** {
  57              		.loc 1 13 0
  58              		.cfi_startproc
  59              		@ args = 0, pretend = 0, frame = 0
  60              		@ frame_needed = 0, uses_anonymous_args = 0
  61              		@ link register save eliminated.
  62              	.LVL2:
  14:..\u8g2\csrc/u8g2_d_memory.c ****   static uint8_t buf[256];
  15:..\u8g2\csrc/u8g2_d_memory.c ****   *page_cnt = 2;
  63              		.loc 1 15 0
  64 0000 0223     		movs	r3, #2
  65 0002 0370     		strb	r3, [r0]
  16:..\u8g2\csrc/u8g2_d_memory.c ****   return buf;
  17:..\u8g2\csrc/u8g2_d_memory.c **** }
  66              		.loc 1 17 0
  67 0004 0048     		ldr	r0, .L5
  68              	.LVL3:
  69              		@ sp needed
  70 0006 7047     		bx	lr
  71              	.L6:
  72              		.align	2
  73              	.L5:
  74 0008 80000000 		.word	.LANCHOR1
  75              		.cfi_endproc
  76              	.LFE1:
  77              		.size	u8g2_m_ssd1305_16_2, .-u8g2_m_ssd1305_16_2
  78              		.section	.text.u8g2_m_ssd1305_16_f,"ax",%progbits
  79              		.align	2
  80              		.global	u8g2_m_ssd1305_16_f
  81              		.code	16
  82              		.thumb_func
  83              		.type	u8g2_m_ssd1305_16_f, %function
  84              	u8g2_m_ssd1305_16_f:
  85              	.LFB2:
  18:..\u8g2\csrc/u8g2_d_memory.c **** uint8_t *u8g2_m_ssd1305_16_f(uint8_t *page_cnt)
  19:..\u8g2\csrc/u8g2_d_memory.c **** {
  86              		.loc 1 19 0
  87              		.cfi_startproc
  88              		@ args = 0, pretend = 0, frame = 0
  89              		@ frame_needed = 0, uses_anonymous_args = 0
  90              		@ link register save eliminated.
  91              	.LVL4:
  20:..\u8g2\csrc/u8g2_d_memory.c ****   static uint8_t buf[512];
  21:..\u8g2\csrc/u8g2_d_memory.c ****   *page_cnt = 4;
  92              		.loc 1 21 0
  93 0000 0423     		movs	r3, #4
ARM GAS  C:\Users\gjl\AppData\Local\Temp\ccNm9gHl.s 			page 3


  94 0002 0370     		strb	r3, [r0]
  22:..\u8g2\csrc/u8g2_d_memory.c ****   return buf;
  23:..\u8g2\csrc/u8g2_d_memory.c **** }
  95              		.loc 1 23 0
  96 0004 0048     		ldr	r0, .L8
  97              	.LVL5:
  98              		@ sp needed
  99 0006 7047     		bx	lr
 100              	.L9:
 101              		.align	2
 102              	.L8:
 103 0008 80010000 		.word	.LANCHOR2
 104              		.cfi_endproc
 105              	.LFE2:
 106              		.size	u8g2_m_ssd1305_16_f, .-u8g2_m_ssd1305_16_f
 107              		.section	.text.u8g2_m_ssd1306_16_1,"ax",%progbits
 108              		.align	2
 109              		.global	u8g2_m_ssd1306_16_1
 110              		.code	16
 111              		.thumb_func
 112              		.type	u8g2_m_ssd1306_16_1, %function
 113              	u8g2_m_ssd1306_16_1:
 114              	.LFB3:
  24:..\u8g2\csrc/u8g2_d_memory.c **** uint8_t *u8g2_m_ssd1306_16_1(uint8_t *page_cnt)
  25:..\u8g2\csrc/u8g2_d_memory.c **** {
 115              		.loc 1 25 0
 116              		.cfi_startproc
 117              		@ args = 0, pretend = 0, frame = 0
 118              		@ frame_needed = 0, uses_anonymous_args = 0
 119              		@ link register save eliminated.
 120              	.LVL6:
  26:..\u8g2\csrc/u8g2_d_memory.c ****   static uint8_t buf[128];
  27:..\u8g2\csrc/u8g2_d_memory.c ****   *page_cnt = 1;
 121              		.loc 1 27 0
 122 0000 0123     		movs	r3, #1
 123 0002 0370     		strb	r3, [r0]
  28:..\u8g2\csrc/u8g2_d_memory.c ****   return buf;
  29:..\u8g2\csrc/u8g2_d_memory.c **** }
 124              		.loc 1 29 0
 125 0004 0048     		ldr	r0, .L11
 126              	.LVL7:
 127              		@ sp needed
 128 0006 7047     		bx	lr
 129              	.L12:
 130              		.align	2
 131              	.L11:
 132 0008 80030000 		.word	.LANCHOR3
 133              		.cfi_endproc
 134              	.LFE3:
 135              		.size	u8g2_m_ssd1306_16_1, .-u8g2_m_ssd1306_16_1
 136              		.section	.text.u8g2_m_ssd1306_16_2,"ax",%progbits
 137              		.align	2
 138              		.global	u8g2_m_ssd1306_16_2
 139              		.code	16
 140              		.thumb_func
 141              		.type	u8g2_m_ssd1306_16_2, %function
 142              	u8g2_m_ssd1306_16_2:
ARM GAS  C:\Users\gjl\AppData\Local\Temp\ccNm9gHl.s 			page 4


 143              	.LFB4:
  30:..\u8g2\csrc/u8g2_d_memory.c **** uint8_t *u8g2_m_ssd1306_16_2(uint8_t *page_cnt)
  31:..\u8g2\csrc/u8g2_d_memory.c **** {
 144              		.loc 1 31 0
 145              		.cfi_startproc
 146              		@ args = 0, pretend = 0, frame = 0
 147              		@ frame_needed = 0, uses_anonymous_args = 0
 148              		@ link register save eliminated.
 149              	.LVL8:
  32:..\u8g2\csrc/u8g2_d_memory.c ****   static uint8_t buf[256];
  33:..\u8g2\csrc/u8g2_d_memory.c ****   *page_cnt = 2;
 150              		.loc 1 33 0
 151 0000 0223     		movs	r3, #2
 152 0002 0370     		strb	r3, [r0]
  34:..\u8g2\csrc/u8g2_d_memory.c ****   return buf;
  35:..\u8g2\csrc/u8g2_d_memory.c **** }
 153              		.loc 1 35 0
 154 0004 0048     		ldr	r0, .L14
 155              	.LVL9:
 156              		@ sp needed
 157 0006 7047     		bx	lr
 158              	.L15:
 159              		.align	2
 160              	.L14:
 161 0008 00040000 		.word	.LANCHOR4
 162              		.cfi_endproc
 163              	.LFE4:
 164              		.size	u8g2_m_ssd1306_16_2, .-u8g2_m_ssd1306_16_2
 165              		.section	.text.u8g2_m_ssd1306_16_f,"ax",%progbits
 166              		.align	2
 167              		.global	u8g2_m_ssd1306_16_f
 168              		.code	16
 169              		.thumb_func
 170              		.type	u8g2_m_ssd1306_16_f, %function
 171              	u8g2_m_ssd1306_16_f:
 172              	.LFB5:
  36:..\u8g2\csrc/u8g2_d_memory.c **** uint8_t *u8g2_m_ssd1306_16_f(uint8_t *page_cnt)
  37:..\u8g2\csrc/u8g2_d_memory.c **** {
 173              		.loc 1 37 0
 174              		.cfi_startproc
 175              		@ args = 0, pretend = 0, frame = 0
 176              		@ frame_needed = 0, uses_anonymous_args = 0
 177              		@ link register save eliminated.
 178              	.LVL10:
  38:..\u8g2\csrc/u8g2_d_memory.c ****   static uint8_t buf[1024];
  39:..\u8g2\csrc/u8g2_d_memory.c ****   *page_cnt = 8;
 179              		.loc 1 39 0
 180 0000 0823     		movs	r3, #8
 181 0002 0370     		strb	r3, [r0]
  40:..\u8g2\csrc/u8g2_d_memory.c ****   return buf;
  41:..\u8g2\csrc/u8g2_d_memory.c **** }
 182              		.loc 1 41 0
 183 0004 0048     		ldr	r0, .L17
 184              	.LVL11:
 185              		@ sp needed
 186 0006 7047     		bx	lr
 187              	.L18:
ARM GAS  C:\Users\gjl\AppData\Local\Temp\ccNm9gHl.s 			page 5


 188              		.align	2
 189              	.L17:
 190 0008 00050000 		.word	.LANCHOR5
 191              		.cfi_endproc
 192              	.LFE5:
 193              		.size	u8g2_m_ssd1306_16_f, .-u8g2_m_ssd1306_16_f
 194              		.section	.text.u8g2_m_sh1106_16_1,"ax",%progbits
 195              		.align	2
 196              		.global	u8g2_m_sh1106_16_1
 197              		.code	16
 198              		.thumb_func
 199              		.type	u8g2_m_sh1106_16_1, %function
 200              	u8g2_m_sh1106_16_1:
 201              	.LFB6:
  42:..\u8g2\csrc/u8g2_d_memory.c **** uint8_t *u8g2_m_sh1106_16_1(uint8_t *page_cnt)
  43:..\u8g2\csrc/u8g2_d_memory.c **** {
 202              		.loc 1 43 0
 203              		.cfi_startproc
 204              		@ args = 0, pretend = 0, frame = 0
 205              		@ frame_needed = 0, uses_anonymous_args = 0
 206              		@ link register save eliminated.
 207              	.LVL12:
  44:..\u8g2\csrc/u8g2_d_memory.c ****   static uint8_t buf[128];
  45:..\u8g2\csrc/u8g2_d_memory.c ****   *page_cnt = 1;
 208              		.loc 1 45 0
 209 0000 0123     		movs	r3, #1
 210 0002 0370     		strb	r3, [r0]
  46:..\u8g2\csrc/u8g2_d_memory.c ****   return buf;
  47:..\u8g2\csrc/u8g2_d_memory.c **** }
 211              		.loc 1 47 0
 212 0004 0048     		ldr	r0, .L20
 213              	.LVL13:
 214              		@ sp needed
 215 0006 7047     		bx	lr
 216              	.L21:
 217              		.align	2
 218              	.L20:
 219 0008 00090000 		.word	.LANCHOR6
 220              		.cfi_endproc
 221              	.LFE6:
 222              		.size	u8g2_m_sh1106_16_1, .-u8g2_m_sh1106_16_1
 223              		.section	.text.u8g2_m_sh1106_16_2,"ax",%progbits
 224              		.align	2
 225              		.global	u8g2_m_sh1106_16_2
 226              		.code	16
 227              		.thumb_func
 228              		.type	u8g2_m_sh1106_16_2, %function
 229              	u8g2_m_sh1106_16_2:
 230              	.LFB7:
  48:..\u8g2\csrc/u8g2_d_memory.c **** uint8_t *u8g2_m_sh1106_16_2(uint8_t *page_cnt)
  49:..\u8g2\csrc/u8g2_d_memory.c **** {
 231              		.loc 1 49 0
 232              		.cfi_startproc
 233              		@ args = 0, pretend = 0, frame = 0
 234              		@ frame_needed = 0, uses_anonymous_args = 0
 235              		@ link register save eliminated.
 236              	.LVL14:
ARM GAS  C:\Users\gjl\AppData\Local\Temp\ccNm9gHl.s 			page 6


  50:..\u8g2\csrc/u8g2_d_memory.c ****   static uint8_t buf[256];
  51:..\u8g2\csrc/u8g2_d_memory.c ****   *page_cnt = 2;
 237              		.loc 1 51 0
 238 0000 0223     		movs	r3, #2
 239 0002 0370     		strb	r3, [r0]
  52:..\u8g2\csrc/u8g2_d_memory.c ****   return buf;
  53:..\u8g2\csrc/u8g2_d_memory.c **** }
 240              		.loc 1 53 0
 241 0004 0048     		ldr	r0, .L23
 242              	.LVL15:
 243              		@ sp needed
 244 0006 7047     		bx	lr
 245              	.L24:
 246              		.align	2
 247              	.L23:
 248 0008 80090000 		.word	.LANCHOR7
 249              		.cfi_endproc
 250              	.LFE7:
 251              		.size	u8g2_m_sh1106_16_2, .-u8g2_m_sh1106_16_2
 252              		.section	.text.u8g2_m_sh1106_16_f,"ax",%progbits
 253              		.align	2
 254              		.global	u8g2_m_sh1106_16_f
 255              		.code	16
 256              		.thumb_func
 257              		.type	u8g2_m_sh1106_16_f, %function
 258              	u8g2_m_sh1106_16_f:
 259              	.LFB8:
  54:..\u8g2\csrc/u8g2_d_memory.c **** uint8_t *u8g2_m_sh1106_16_f(uint8_t *page_cnt)
  55:..\u8g2\csrc/u8g2_d_memory.c **** {
 260              		.loc 1 55 0
 261              		.cfi_startproc
 262              		@ args = 0, pretend = 0, frame = 0
 263              		@ frame_needed = 0, uses_anonymous_args = 0
 264              		@ link register save eliminated.
 265              	.LVL16:
  56:..\u8g2\csrc/u8g2_d_memory.c ****   static uint8_t buf[1024];
  57:..\u8g2\csrc/u8g2_d_memory.c ****   *page_cnt = 8;
 266              		.loc 1 57 0
 267 0000 0823     		movs	r3, #8
 268 0002 0370     		strb	r3, [r0]
  58:..\u8g2\csrc/u8g2_d_memory.c ****   return buf;
  59:..\u8g2\csrc/u8g2_d_memory.c **** }
 269              		.loc 1 59 0
 270 0004 0048     		ldr	r0, .L26
 271              	.LVL17:
 272              		@ sp needed
 273 0006 7047     		bx	lr
 274              	.L27:
 275              		.align	2
 276              	.L26:
 277 0008 800A0000 		.word	.LANCHOR8
 278              		.cfi_endproc
 279              	.LFE8:
 280              		.size	u8g2_m_sh1106_16_f, .-u8g2_m_sh1106_16_f
 281              		.section	.text.u8g2_m_ssd1306_8_1,"ax",%progbits
 282              		.align	2
 283              		.global	u8g2_m_ssd1306_8_1
ARM GAS  C:\Users\gjl\AppData\Local\Temp\ccNm9gHl.s 			page 7


 284              		.code	16
 285              		.thumb_func
 286              		.type	u8g2_m_ssd1306_8_1, %function
 287              	u8g2_m_ssd1306_8_1:
 288              	.LFB9:
  60:..\u8g2\csrc/u8g2_d_memory.c **** uint8_t *u8g2_m_ssd1306_8_1(uint8_t *page_cnt)
  61:..\u8g2\csrc/u8g2_d_memory.c **** {
 289              		.loc 1 61 0
 290              		.cfi_startproc
 291              		@ args = 0, pretend = 0, frame = 0
 292              		@ frame_needed = 0, uses_anonymous_args = 0
 293              		@ link register save eliminated.
 294              	.LVL18:
  62:..\u8g2\csrc/u8g2_d_memory.c ****   static uint8_t buf[64];
  63:..\u8g2\csrc/u8g2_d_memory.c ****   *page_cnt = 1;
 295              		.loc 1 63 0
 296 0000 0123     		movs	r3, #1
 297 0002 0370     		strb	r3, [r0]
  64:..\u8g2\csrc/u8g2_d_memory.c ****   return buf;
  65:..\u8g2\csrc/u8g2_d_memory.c **** }
 298              		.loc 1 65 0
 299 0004 0048     		ldr	r0, .L29
 300              	.LVL19:
 301              		@ sp needed
 302 0006 7047     		bx	lr
 303              	.L30:
 304              		.align	2
 305              	.L29:
 306 0008 800E0000 		.word	.LANCHOR9
 307              		.cfi_endproc
 308              	.LFE9:
 309              		.size	u8g2_m_ssd1306_8_1, .-u8g2_m_ssd1306_8_1
 310              		.section	.text.u8g2_m_ssd1306_8_2,"ax",%progbits
 311              		.align	2
 312              		.global	u8g2_m_ssd1306_8_2
 313              		.code	16
 314              		.thumb_func
 315              		.type	u8g2_m_ssd1306_8_2, %function
 316              	u8g2_m_ssd1306_8_2:
 317              	.LFB10:
  66:..\u8g2\csrc/u8g2_d_memory.c **** uint8_t *u8g2_m_ssd1306_8_2(uint8_t *page_cnt)
  67:..\u8g2\csrc/u8g2_d_memory.c **** {
 318              		.loc 1 67 0
 319              		.cfi_startproc
 320              		@ args = 0, pretend = 0, frame = 0
 321              		@ frame_needed = 0, uses_anonymous_args = 0
 322              		@ link register save eliminated.
 323              	.LVL20:
  68:..\u8g2\csrc/u8g2_d_memory.c ****   static uint8_t buf[128];
  69:..\u8g2\csrc/u8g2_d_memory.c ****   *page_cnt = 2;
 324              		.loc 1 69 0
 325 0000 0223     		movs	r3, #2
 326 0002 0370     		strb	r3, [r0]
  70:..\u8g2\csrc/u8g2_d_memory.c ****   return buf;
 327              		.loc 1 70 0
 328 0004 0148     		ldr	r0, .L32
 329              	.LVL21:
ARM GAS  C:\Users\gjl\AppData\Local\Temp\ccNm9gHl.s 			page 8


  71:..\u8g2\csrc/u8g2_d_memory.c **** }
 330              		.loc 1 71 0
 331 0006 4030     		adds	r0, r0, #64
 332              		@ sp needed
 333 0008 7047     		bx	lr
 334              	.L33:
 335 000a C046     		.align	2
 336              	.L32:
 337 000c 800E0000 		.word	.LANCHOR9
 338              		.cfi_endproc
 339              	.LFE10:
 340              		.size	u8g2_m_ssd1306_8_2, .-u8g2_m_ssd1306_8_2
 341              		.section	.text.u8g2_m_ssd1306_8_f,"ax",%progbits
 342              		.align	2
 343              		.global	u8g2_m_ssd1306_8_f
 344              		.code	16
 345              		.thumb_func
 346              		.type	u8g2_m_ssd1306_8_f, %function
 347              	u8g2_m_ssd1306_8_f:
 348              	.LFB11:
  72:..\u8g2\csrc/u8g2_d_memory.c **** uint8_t *u8g2_m_ssd1306_8_f(uint8_t *page_cnt)
  73:..\u8g2\csrc/u8g2_d_memory.c **** {
 349              		.loc 1 73 0
 350              		.cfi_startproc
 351              		@ args = 0, pretend = 0, frame = 0
 352              		@ frame_needed = 0, uses_anonymous_args = 0
 353              		@ link register save eliminated.
 354              	.LVL22:
  74:..\u8g2\csrc/u8g2_d_memory.c ****   static uint8_t buf[384];
  75:..\u8g2\csrc/u8g2_d_memory.c ****   *page_cnt = 6;
 355              		.loc 1 75 0
 356 0000 0623     		movs	r3, #6
 357 0002 0370     		strb	r3, [r0]
  76:..\u8g2\csrc/u8g2_d_memory.c ****   return buf;
 358              		.loc 1 76 0
 359 0004 0148     		ldr	r0, .L35
 360              	.LVL23:
  77:..\u8g2\csrc/u8g2_d_memory.c **** }
 361              		.loc 1 77 0
 362 0006 4030     		adds	r0, r0, #64
 363              		@ sp needed
 364 0008 7047     		bx	lr
 365              	.L36:
 366 000a C046     		.align	2
 367              	.L35:
 368 000c 000F0000 		.word	.LANCHOR10
 369              		.cfi_endproc
 370              	.LFE11:
 371              		.size	u8g2_m_ssd1306_8_f, .-u8g2_m_ssd1306_8_f
 372              		.section	.text.u8g2_m_ssd1309_16_1,"ax",%progbits
 373              		.align	2
 374              		.global	u8g2_m_ssd1309_16_1
 375              		.code	16
 376              		.thumb_func
 377              		.type	u8g2_m_ssd1309_16_1, %function
 378              	u8g2_m_ssd1309_16_1:
 379              	.LFB12:
ARM GAS  C:\Users\gjl\AppData\Local\Temp\ccNm9gHl.s 			page 9


  78:..\u8g2\csrc/u8g2_d_memory.c **** uint8_t *u8g2_m_ssd1309_16_1(uint8_t *page_cnt)
  79:..\u8g2\csrc/u8g2_d_memory.c **** {
 380              		.loc 1 79 0
 381              		.cfi_startproc
 382              		@ args = 0, pretend = 0, frame = 0
 383              		@ frame_needed = 0, uses_anonymous_args = 0
 384              		@ link register save eliminated.
 385              	.LVL24:
  80:..\u8g2\csrc/u8g2_d_memory.c ****   static uint8_t buf[128];
  81:..\u8g2\csrc/u8g2_d_memory.c ****   *page_cnt = 1;
 386              		.loc 1 81 0
 387 0000 0123     		movs	r3, #1
 388 0002 0370     		strb	r3, [r0]
  82:..\u8g2\csrc/u8g2_d_memory.c ****   return buf;
 389              		.loc 1 82 0
 390 0004 0148     		ldr	r0, .L38
 391              	.LVL25:
  83:..\u8g2\csrc/u8g2_d_memory.c **** }
 392              		.loc 1 83 0
 393 0006 4030     		adds	r0, r0, #64
 394              		@ sp needed
 395 0008 7047     		bx	lr
 396              	.L39:
 397 000a C046     		.align	2
 398              	.L38:
 399 000c 80100000 		.word	.LANCHOR11
 400              		.cfi_endproc
 401              	.LFE12:
 402              		.size	u8g2_m_ssd1309_16_1, .-u8g2_m_ssd1309_16_1
 403              		.section	.text.u8g2_m_ssd1309_16_2,"ax",%progbits
 404              		.align	2
 405              		.global	u8g2_m_ssd1309_16_2
 406              		.code	16
 407              		.thumb_func
 408              		.type	u8g2_m_ssd1309_16_2, %function
 409              	u8g2_m_ssd1309_16_2:
 410              	.LFB13:
  84:..\u8g2\csrc/u8g2_d_memory.c **** uint8_t *u8g2_m_ssd1309_16_2(uint8_t *page_cnt)
  85:..\u8g2\csrc/u8g2_d_memory.c **** {
 411              		.loc 1 85 0
 412              		.cfi_startproc
 413              		@ args = 0, pretend = 0, frame = 0
 414              		@ frame_needed = 0, uses_anonymous_args = 0
 415              		@ link register save eliminated.
 416              	.LVL26:
  86:..\u8g2\csrc/u8g2_d_memory.c ****   static uint8_t buf[256];
  87:..\u8g2\csrc/u8g2_d_memory.c ****   *page_cnt = 2;
 417              		.loc 1 87 0
 418 0000 0223     		movs	r3, #2
 419 0002 0370     		strb	r3, [r0]
  88:..\u8g2\csrc/u8g2_d_memory.c ****   return buf;
 420              		.loc 1 88 0
 421 0004 0148     		ldr	r0, .L41
 422              	.LVL27:
  89:..\u8g2\csrc/u8g2_d_memory.c **** }
 423              		.loc 1 89 0
 424 0006 4030     		adds	r0, r0, #64
ARM GAS  C:\Users\gjl\AppData\Local\Temp\ccNm9gHl.s 			page 10


 425              		@ sp needed
 426 0008 7047     		bx	lr
 427              	.L42:
 428 000a C046     		.align	2
 429              	.L41:
 430 000c 00110000 		.word	.LANCHOR12
 431              		.cfi_endproc
 432              	.LFE13:
 433              		.size	u8g2_m_ssd1309_16_2, .-u8g2_m_ssd1309_16_2
 434              		.section	.text.u8g2_m_ssd1309_16_f,"ax",%progbits
 435              		.align	2
 436              		.global	u8g2_m_ssd1309_16_f
 437              		.code	16
 438              		.thumb_func
 439              		.type	u8g2_m_ssd1309_16_f, %function
 440              	u8g2_m_ssd1309_16_f:
 441              	.LFB14:
  90:..\u8g2\csrc/u8g2_d_memory.c **** uint8_t *u8g2_m_ssd1309_16_f(uint8_t *page_cnt)
  91:..\u8g2\csrc/u8g2_d_memory.c **** {
 442              		.loc 1 91 0
 443              		.cfi_startproc
 444              		@ args = 0, pretend = 0, frame = 0
 445              		@ frame_needed = 0, uses_anonymous_args = 0
 446              		@ link register save eliminated.
 447              	.LVL28:
  92:..\u8g2\csrc/u8g2_d_memory.c ****   static uint8_t buf[1024];
  93:..\u8g2\csrc/u8g2_d_memory.c ****   *page_cnt = 8;
 448              		.loc 1 93 0
 449 0000 0823     		movs	r3, #8
 450 0002 0370     		strb	r3, [r0]
  94:..\u8g2\csrc/u8g2_d_memory.c ****   return buf;
 451              		.loc 1 94 0
 452 0004 0148     		ldr	r0, .L44
 453              	.LVL29:
  95:..\u8g2\csrc/u8g2_d_memory.c **** }
 454              		.loc 1 95 0
 455 0006 4030     		adds	r0, r0, #64
 456              		@ sp needed
 457 0008 7047     		bx	lr
 458              	.L45:
 459 000a C046     		.align	2
 460              	.L44:
 461 000c 00120000 		.word	.LANCHOR13
 462              		.cfi_endproc
 463              	.LFE14:
 464              		.size	u8g2_m_ssd1309_16_f, .-u8g2_m_ssd1309_16_f
 465              		.section	.text.u8g2_m_ssd1325_16_1,"ax",%progbits
 466              		.align	2
 467              		.global	u8g2_m_ssd1325_16_1
 468              		.code	16
 469              		.thumb_func
 470              		.type	u8g2_m_ssd1325_16_1, %function
 471              	u8g2_m_ssd1325_16_1:
 472              	.LFB15:
  96:..\u8g2\csrc/u8g2_d_memory.c **** uint8_t *u8g2_m_ssd1325_16_1(uint8_t *page_cnt)
  97:..\u8g2\csrc/u8g2_d_memory.c **** {
 473              		.loc 1 97 0
ARM GAS  C:\Users\gjl\AppData\Local\Temp\ccNm9gHl.s 			page 11


 474              		.cfi_startproc
 475              		@ args = 0, pretend = 0, frame = 0
 476              		@ frame_needed = 0, uses_anonymous_args = 0
 477              		@ link register save eliminated.
 478              	.LVL30:
  98:..\u8g2\csrc/u8g2_d_memory.c ****   static uint8_t buf[128];
  99:..\u8g2\csrc/u8g2_d_memory.c ****   *page_cnt = 1;
 479              		.loc 1 99 0
 480 0000 0123     		movs	r3, #1
 481 0002 0370     		strb	r3, [r0]
 100:..\u8g2\csrc/u8g2_d_memory.c ****   return buf;
 482              		.loc 1 100 0
 483 0004 0148     		ldr	r0, .L47
 484              	.LVL31:
 101:..\u8g2\csrc/u8g2_d_memory.c **** }
 485              		.loc 1 101 0
 486 0006 4030     		adds	r0, r0, #64
 487              		@ sp needed
 488 0008 7047     		bx	lr
 489              	.L48:
 490 000a C046     		.align	2
 491              	.L47:
 492 000c 00160000 		.word	.LANCHOR14
 493              		.cfi_endproc
 494              	.LFE15:
 495              		.size	u8g2_m_ssd1325_16_1, .-u8g2_m_ssd1325_16_1
 496              		.section	.text.u8g2_m_ssd1325_16_2,"ax",%progbits
 497              		.align	2
 498              		.global	u8g2_m_ssd1325_16_2
 499              		.code	16
 500              		.thumb_func
 501              		.type	u8g2_m_ssd1325_16_2, %function
 502              	u8g2_m_ssd1325_16_2:
 503              	.LFB16:
 102:..\u8g2\csrc/u8g2_d_memory.c **** uint8_t *u8g2_m_ssd1325_16_2(uint8_t *page_cnt)
 103:..\u8g2\csrc/u8g2_d_memory.c **** {
 504              		.loc 1 103 0
 505              		.cfi_startproc
 506              		@ args = 0, pretend = 0, frame = 0
 507              		@ frame_needed = 0, uses_anonymous_args = 0
 508              		@ link register save eliminated.
 509              	.LVL32:
 104:..\u8g2\csrc/u8g2_d_memory.c ****   static uint8_t buf[256];
 105:..\u8g2\csrc/u8g2_d_memory.c ****   *page_cnt = 2;
 510              		.loc 1 105 0
 511 0000 0223     		movs	r3, #2
 512 0002 0370     		strb	r3, [r0]
 106:..\u8g2\csrc/u8g2_d_memory.c ****   return buf;
 513              		.loc 1 106 0
 514 0004 0148     		ldr	r0, .L50
 515              	.LVL33:
 107:..\u8g2\csrc/u8g2_d_memory.c **** }
 516              		.loc 1 107 0
 517 0006 4030     		adds	r0, r0, #64
 518              		@ sp needed
 519 0008 7047     		bx	lr
 520              	.L51:
ARM GAS  C:\Users\gjl\AppData\Local\Temp\ccNm9gHl.s 			page 12


 521 000a C046     		.align	2
 522              	.L50:
 523 000c 80160000 		.word	.LANCHOR15
 524              		.cfi_endproc
 525              	.LFE16:
 526              		.size	u8g2_m_ssd1325_16_2, .-u8g2_m_ssd1325_16_2
 527              		.section	.text.u8g2_m_ssd1325_16_f,"ax",%progbits
 528              		.align	2
 529              		.global	u8g2_m_ssd1325_16_f
 530              		.code	16
 531              		.thumb_func
 532              		.type	u8g2_m_ssd1325_16_f, %function
 533              	u8g2_m_ssd1325_16_f:
 534              	.LFB17:
 108:..\u8g2\csrc/u8g2_d_memory.c **** uint8_t *u8g2_m_ssd1325_16_f(uint8_t *page_cnt)
 109:..\u8g2\csrc/u8g2_d_memory.c **** {
 535              		.loc 1 109 0
 536              		.cfi_startproc
 537              		@ args = 0, pretend = 0, frame = 0
 538              		@ frame_needed = 0, uses_anonymous_args = 0
 539              		@ link register save eliminated.
 540              	.LVL34:
 110:..\u8g2\csrc/u8g2_d_memory.c ****   static uint8_t buf[1024];
 111:..\u8g2\csrc/u8g2_d_memory.c ****   *page_cnt = 8;
 541              		.loc 1 111 0
 542 0000 0823     		movs	r3, #8
 543 0002 0370     		strb	r3, [r0]
 112:..\u8g2\csrc/u8g2_d_memory.c ****   return buf;
 544              		.loc 1 112 0
 545 0004 0148     		ldr	r0, .L53
 546              	.LVL35:
 113:..\u8g2\csrc/u8g2_d_memory.c **** }
 547              		.loc 1 113 0
 548 0006 4030     		adds	r0, r0, #64
 549              		@ sp needed
 550 0008 7047     		bx	lr
 551              	.L54:
 552 000a C046     		.align	2
 553              	.L53:
 554 000c 80170000 		.word	.LANCHOR16
 555              		.cfi_endproc
 556              	.LFE17:
 557              		.size	u8g2_m_ssd1325_16_f, .-u8g2_m_ssd1325_16_f
 558              		.section	.text.u8g2_m_ssd1327_12_1,"ax",%progbits
 559              		.align	2
 560              		.global	u8g2_m_ssd1327_12_1
 561              		.code	16
 562              		.thumb_func
 563              		.type	u8g2_m_ssd1327_12_1, %function
 564              	u8g2_m_ssd1327_12_1:
 565              	.LFB18:
 114:..\u8g2\csrc/u8g2_d_memory.c **** uint8_t *u8g2_m_ssd1327_12_1(uint8_t *page_cnt)
 115:..\u8g2\csrc/u8g2_d_memory.c **** {
 566              		.loc 1 115 0
 567              		.cfi_startproc
 568              		@ args = 0, pretend = 0, frame = 0
 569              		@ frame_needed = 0, uses_anonymous_args = 0
ARM GAS  C:\Users\gjl\AppData\Local\Temp\ccNm9gHl.s 			page 13


 570              		@ link register save eliminated.
 571              	.LVL36:
 116:..\u8g2\csrc/u8g2_d_memory.c ****   static uint8_t buf[96];
 117:..\u8g2\csrc/u8g2_d_memory.c ****   *page_cnt = 1;
 572              		.loc 1 117 0
 573 0000 0123     		movs	r3, #1
 574 0002 0370     		strb	r3, [r0]
 118:..\u8g2\csrc/u8g2_d_memory.c ****   return buf;
 575              		.loc 1 118 0
 576 0004 0148     		ldr	r0, .L56
 577              	.LVL37:
 119:..\u8g2\csrc/u8g2_d_memory.c **** }
 578              		.loc 1 119 0
 579 0006 4030     		adds	r0, r0, #64
 580              		@ sp needed
 581 0008 7047     		bx	lr
 582              	.L57:
 583 000a C046     		.align	2
 584              	.L56:
 585 000c 801B0000 		.word	.LANCHOR17
 586              		.cfi_endproc
 587              	.LFE18:
 588              		.size	u8g2_m_ssd1327_12_1, .-u8g2_m_ssd1327_12_1
 589              		.section	.text.u8g2_m_ssd1327_12_2,"ax",%progbits
 590              		.align	2
 591              		.global	u8g2_m_ssd1327_12_2
 592              		.code	16
 593              		.thumb_func
 594              		.type	u8g2_m_ssd1327_12_2, %function
 595              	u8g2_m_ssd1327_12_2:
 596              	.LFB19:
 120:..\u8g2\csrc/u8g2_d_memory.c **** uint8_t *u8g2_m_ssd1327_12_2(uint8_t *page_cnt)
 121:..\u8g2\csrc/u8g2_d_memory.c **** {
 597              		.loc 1 121 0
 598              		.cfi_startproc
 599              		@ args = 0, pretend = 0, frame = 0
 600              		@ frame_needed = 0, uses_anonymous_args = 0
 601              		@ link register save eliminated.
 602              	.LVL38:
 122:..\u8g2\csrc/u8g2_d_memory.c ****   static uint8_t buf[192];
 123:..\u8g2\csrc/u8g2_d_memory.c ****   *page_cnt = 2;
 603              		.loc 1 123 0
 604 0000 0223     		movs	r3, #2
 605 0002 0370     		strb	r3, [r0]
 124:..\u8g2\csrc/u8g2_d_memory.c ****   return buf;
 606              		.loc 1 124 0
 607 0004 0148     		ldr	r0, .L59
 608              	.LVL39:
 125:..\u8g2\csrc/u8g2_d_memory.c **** }
 609              		.loc 1 125 0
 610 0006 2030     		adds	r0, r0, #32
 611              		@ sp needed
 612 0008 7047     		bx	lr
 613              	.L60:
 614 000a C046     		.align	2
 615              	.L59:
 616 000c 001C0000 		.word	.LANCHOR18
ARM GAS  C:\Users\gjl\AppData\Local\Temp\ccNm9gHl.s 			page 14


 617              		.cfi_endproc
 618              	.LFE19:
 619              		.size	u8g2_m_ssd1327_12_2, .-u8g2_m_ssd1327_12_2
 620              		.section	.text.u8g2_m_ssd1327_12_f,"ax",%progbits
 621              		.align	2
 622              		.global	u8g2_m_ssd1327_12_f
 623              		.code	16
 624              		.thumb_func
 625              		.type	u8g2_m_ssd1327_12_f, %function
 626              	u8g2_m_ssd1327_12_f:
 627              	.LFB20:
 126:..\u8g2\csrc/u8g2_d_memory.c **** uint8_t *u8g2_m_ssd1327_12_f(uint8_t *page_cnt)
 127:..\u8g2\csrc/u8g2_d_memory.c **** {
 628              		.loc 1 127 0
 629              		.cfi_startproc
 630              		@ args = 0, pretend = 0, frame = 0
 631              		@ frame_needed = 0, uses_anonymous_args = 0
 632              		@ link register save eliminated.
 633              	.LVL40:
 128:..\u8g2\csrc/u8g2_d_memory.c ****   static uint8_t buf[1152];
 129:..\u8g2\csrc/u8g2_d_memory.c ****   *page_cnt = 12;
 634              		.loc 1 129 0
 635 0000 0C23     		movs	r3, #12
 636 0002 0370     		strb	r3, [r0]
 130:..\u8g2\csrc/u8g2_d_memory.c ****   return buf;
 637              		.loc 1 130 0
 638 0004 0148     		ldr	r0, .L62
 639              	.LVL41:
 131:..\u8g2\csrc/u8g2_d_memory.c **** }
 640              		.loc 1 131 0
 641 0006 6030     		adds	r0, r0, #96
 642              		@ sp needed
 643 0008 7047     		bx	lr
 644              	.L63:
 645 000a C046     		.align	2
 646              	.L62:
 647 000c 801C0000 		.word	.LANCHOR19
 648              		.cfi_endproc
 649              	.LFE20:
 650              		.size	u8g2_m_ssd1327_12_f, .-u8g2_m_ssd1327_12_f
 651              		.section	.text.u8g2_m_ld7032_8_1,"ax",%progbits
 652              		.align	2
 653              		.global	u8g2_m_ld7032_8_1
 654              		.code	16
 655              		.thumb_func
 656              		.type	u8g2_m_ld7032_8_1, %function
 657              	u8g2_m_ld7032_8_1:
 658              	.LFB21:
 132:..\u8g2\csrc/u8g2_d_memory.c **** uint8_t *u8g2_m_ld7032_8_1(uint8_t *page_cnt)
 133:..\u8g2\csrc/u8g2_d_memory.c **** {
 659              		.loc 1 133 0
 660              		.cfi_startproc
 661              		@ args = 0, pretend = 0, frame = 0
 662              		@ frame_needed = 0, uses_anonymous_args = 0
 663              		@ link register save eliminated.
 664              	.LVL42:
 134:..\u8g2\csrc/u8g2_d_memory.c ****   static uint8_t buf[64];
ARM GAS  C:\Users\gjl\AppData\Local\Temp\ccNm9gHl.s 			page 15


 135:..\u8g2\csrc/u8g2_d_memory.c ****   *page_cnt = 1;
 665              		.loc 1 135 0
 666 0000 0123     		movs	r3, #1
 667 0002 0370     		strb	r3, [r0]
 136:..\u8g2\csrc/u8g2_d_memory.c ****   return buf;
 668              		.loc 1 136 0
 669 0004 0148     		ldr	r0, .L65
 670              	.LVL43:
 137:..\u8g2\csrc/u8g2_d_memory.c **** }
 671              		.loc 1 137 0
 672 0006 6030     		adds	r0, r0, #96
 673              		@ sp needed
 674 0008 7047     		bx	lr
 675              	.L66:
 676 000a C046     		.align	2
 677              	.L65:
 678 000c 00210000 		.word	.LANCHOR20
 679              		.cfi_endproc
 680              	.LFE21:
 681              		.size	u8g2_m_ld7032_8_1, .-u8g2_m_ld7032_8_1
 682              		.section	.text.u8g2_m_ld7032_8_2,"ax",%progbits
 683              		.align	2
 684              		.global	u8g2_m_ld7032_8_2
 685              		.code	16
 686              		.thumb_func
 687              		.type	u8g2_m_ld7032_8_2, %function
 688              	u8g2_m_ld7032_8_2:
 689              	.LFB22:
 138:..\u8g2\csrc/u8g2_d_memory.c **** uint8_t *u8g2_m_ld7032_8_2(uint8_t *page_cnt)
 139:..\u8g2\csrc/u8g2_d_memory.c **** {
 690              		.loc 1 139 0
 691              		.cfi_startproc
 692              		@ args = 0, pretend = 0, frame = 0
 693              		@ frame_needed = 0, uses_anonymous_args = 0
 694              		@ link register save eliminated.
 695              	.LVL44:
 140:..\u8g2\csrc/u8g2_d_memory.c ****   static uint8_t buf[128];
 141:..\u8g2\csrc/u8g2_d_memory.c ****   *page_cnt = 2;
 696              		.loc 1 141 0
 697 0000 0223     		movs	r3, #2
 698 0002 0370     		strb	r3, [r0]
 142:..\u8g2\csrc/u8g2_d_memory.c ****   return buf;
 699              		.loc 1 142 0
 700 0004 0148     		ldr	r0, .L68
 701              	.LVL45:
 143:..\u8g2\csrc/u8g2_d_memory.c **** }
 702              		.loc 1 143 0
 703 0006 2030     		adds	r0, r0, #32
 704              		@ sp needed
 705 0008 7047     		bx	lr
 706              	.L69:
 707 000a C046     		.align	2
 708              	.L68:
 709 000c 80210000 		.word	.LANCHOR21
 710              		.cfi_endproc
 711              	.LFE22:
 712              		.size	u8g2_m_ld7032_8_2, .-u8g2_m_ld7032_8_2
ARM GAS  C:\Users\gjl\AppData\Local\Temp\ccNm9gHl.s 			page 16


 713              		.section	.text.u8g2_m_ld7032_8_f,"ax",%progbits
 714              		.align	2
 715              		.global	u8g2_m_ld7032_8_f
 716              		.code	16
 717              		.thumb_func
 718              		.type	u8g2_m_ld7032_8_f, %function
 719              	u8g2_m_ld7032_8_f:
 720              	.LFB23:
 144:..\u8g2\csrc/u8g2_d_memory.c **** uint8_t *u8g2_m_ld7032_8_f(uint8_t *page_cnt)
 145:..\u8g2\csrc/u8g2_d_memory.c **** {
 721              		.loc 1 145 0
 722              		.cfi_startproc
 723              		@ args = 0, pretend = 0, frame = 0
 724              		@ frame_needed = 0, uses_anonymous_args = 0
 725              		@ link register save eliminated.
 726              	.LVL46:
 146:..\u8g2\csrc/u8g2_d_memory.c ****   static uint8_t buf[256];
 147:..\u8g2\csrc/u8g2_d_memory.c ****   *page_cnt = 4;
 727              		.loc 1 147 0
 728 0000 0423     		movs	r3, #4
 729 0002 0370     		strb	r3, [r0]
 148:..\u8g2\csrc/u8g2_d_memory.c ****   return buf;
 730              		.loc 1 148 0
 731 0004 0148     		ldr	r0, .L71
 732              	.LVL47:
 149:..\u8g2\csrc/u8g2_d_memory.c **** }
 733              		.loc 1 149 0
 734 0006 2030     		adds	r0, r0, #32
 735              		@ sp needed
 736 0008 7047     		bx	lr
 737              	.L72:
 738 000a C046     		.align	2
 739              	.L71:
 740 000c 00220000 		.word	.LANCHOR22
 741              		.cfi_endproc
 742              	.LFE23:
 743              		.size	u8g2_m_ld7032_8_f, .-u8g2_m_ld7032_8_f
 744              		.section	.text.u8g2_m_st7920_24_1,"ax",%progbits
 745              		.align	2
 746              		.global	u8g2_m_st7920_24_1
 747              		.code	16
 748              		.thumb_func
 749              		.type	u8g2_m_st7920_24_1, %function
 750              	u8g2_m_st7920_24_1:
 751              	.LFB24:
 150:..\u8g2\csrc/u8g2_d_memory.c **** uint8_t *u8g2_m_st7920_24_1(uint8_t *page_cnt)
 151:..\u8g2\csrc/u8g2_d_memory.c **** {
 752              		.loc 1 151 0
 753              		.cfi_startproc
 754              		@ args = 0, pretend = 0, frame = 0
 755              		@ frame_needed = 0, uses_anonymous_args = 0
 756              		@ link register save eliminated.
 757              	.LVL48:
 152:..\u8g2\csrc/u8g2_d_memory.c ****   static uint8_t buf[192];
 153:..\u8g2\csrc/u8g2_d_memory.c ****   *page_cnt = 1;
 758              		.loc 1 153 0
 759 0000 0123     		movs	r3, #1
ARM GAS  C:\Users\gjl\AppData\Local\Temp\ccNm9gHl.s 			page 17


 760 0002 0370     		strb	r3, [r0]
 154:..\u8g2\csrc/u8g2_d_memory.c ****   return buf;
 761              		.loc 1 154 0
 762 0004 0148     		ldr	r0, .L74
 763              	.LVL49:
 155:..\u8g2\csrc/u8g2_d_memory.c **** }
 764              		.loc 1 155 0
 765 0006 2030     		adds	r0, r0, #32
 766              		@ sp needed
 767 0008 7047     		bx	lr
 768              	.L75:
 769 000a C046     		.align	2
 770              	.L74:
 771 000c 00230000 		.word	.LANCHOR23
 772              		.cfi_endproc
 773              	.LFE24:
 774              		.size	u8g2_m_st7920_24_1, .-u8g2_m_st7920_24_1
 775              		.section	.text.u8g2_m_st7920_24_2,"ax",%progbits
 776              		.align	2
 777              		.global	u8g2_m_st7920_24_2
 778              		.code	16
 779              		.thumb_func
 780              		.type	u8g2_m_st7920_24_2, %function
 781              	u8g2_m_st7920_24_2:
 782              	.LFB25:
 156:..\u8g2\csrc/u8g2_d_memory.c **** uint8_t *u8g2_m_st7920_24_2(uint8_t *page_cnt)
 157:..\u8g2\csrc/u8g2_d_memory.c **** {
 783              		.loc 1 157 0
 784              		.cfi_startproc
 785              		@ args = 0, pretend = 0, frame = 0
 786              		@ frame_needed = 0, uses_anonymous_args = 0
 787              		@ link register save eliminated.
 788              	.LVL50:
 158:..\u8g2\csrc/u8g2_d_memory.c ****   static uint8_t buf[384];
 159:..\u8g2\csrc/u8g2_d_memory.c ****   *page_cnt = 2;
 789              		.loc 1 159 0
 790 0000 0223     		movs	r3, #2
 791 0002 0370     		strb	r3, [r0]
 160:..\u8g2\csrc/u8g2_d_memory.c ****   return buf;
 792              		.loc 1 160 0
 793 0004 0148     		ldr	r0, .L77
 794              	.LVL51:
 161:..\u8g2\csrc/u8g2_d_memory.c **** }
 795              		.loc 1 161 0
 796 0006 6030     		adds	r0, r0, #96
 797              		@ sp needed
 798 0008 7047     		bx	lr
 799              	.L78:
 800 000a C046     		.align	2
 801              	.L77:
 802 000c 80230000 		.word	.LANCHOR24
 803              		.cfi_endproc
 804              	.LFE25:
 805              		.size	u8g2_m_st7920_24_2, .-u8g2_m_st7920_24_2
 806              		.section	.text.u8g2_m_st7920_24_f,"ax",%progbits
 807              		.align	2
 808              		.global	u8g2_m_st7920_24_f
ARM GAS  C:\Users\gjl\AppData\Local\Temp\ccNm9gHl.s 			page 18


 809              		.code	16
 810              		.thumb_func
 811              		.type	u8g2_m_st7920_24_f, %function
 812              	u8g2_m_st7920_24_f:
 813              	.LFB26:
 162:..\u8g2\csrc/u8g2_d_memory.c **** uint8_t *u8g2_m_st7920_24_f(uint8_t *page_cnt)
 163:..\u8g2\csrc/u8g2_d_memory.c **** {
 814              		.loc 1 163 0
 815              		.cfi_startproc
 816              		@ args = 0, pretend = 0, frame = 0
 817              		@ frame_needed = 0, uses_anonymous_args = 0
 818              		@ link register save eliminated.
 819              	.LVL52:
 164:..\u8g2\csrc/u8g2_d_memory.c ****   static uint8_t buf[768];
 165:..\u8g2\csrc/u8g2_d_memory.c ****   *page_cnt = 4;
 820              		.loc 1 165 0
 821 0000 0423     		movs	r3, #4
 822 0002 0370     		strb	r3, [r0]
 166:..\u8g2\csrc/u8g2_d_memory.c ****   return buf;
 823              		.loc 1 166 0
 824 0004 0148     		ldr	r0, .L80
 825              	.LVL53:
 167:..\u8g2\csrc/u8g2_d_memory.c **** }
 826              		.loc 1 167 0
 827 0006 6030     		adds	r0, r0, #96
 828              		@ sp needed
 829 0008 7047     		bx	lr
 830              	.L81:
 831 000a C046     		.align	2
 832              	.L80:
 833 000c 00250000 		.word	.LANCHOR25
 834              		.cfi_endproc
 835              	.LFE26:
 836              		.size	u8g2_m_st7920_24_f, .-u8g2_m_st7920_24_f
 837              		.section	.text.u8g2_m_st7920_16_1,"ax",%progbits
 838              		.align	2
 839              		.global	u8g2_m_st7920_16_1
 840              		.code	16
 841              		.thumb_func
 842              		.type	u8g2_m_st7920_16_1, %function
 843              	u8g2_m_st7920_16_1:
 844              	.LFB27:
 168:..\u8g2\csrc/u8g2_d_memory.c **** uint8_t *u8g2_m_st7920_16_1(uint8_t *page_cnt)
 169:..\u8g2\csrc/u8g2_d_memory.c **** {
 845              		.loc 1 169 0
 846              		.cfi_startproc
 847              		@ args = 0, pretend = 0, frame = 0
 848              		@ frame_needed = 0, uses_anonymous_args = 0
 849              		@ link register save eliminated.
 850              	.LVL54:
 170:..\u8g2\csrc/u8g2_d_memory.c ****   static uint8_t buf[128];
 171:..\u8g2\csrc/u8g2_d_memory.c ****   *page_cnt = 1;
 851              		.loc 1 171 0
 852 0000 0123     		movs	r3, #1
 853 0002 0370     		strb	r3, [r0]
 172:..\u8g2\csrc/u8g2_d_memory.c ****   return buf;
 854              		.loc 1 172 0
ARM GAS  C:\Users\gjl\AppData\Local\Temp\ccNm9gHl.s 			page 19


 855 0004 0148     		ldr	r0, .L83
 856              	.LVL55:
 173:..\u8g2\csrc/u8g2_d_memory.c **** }
 857              		.loc 1 173 0
 858 0006 6030     		adds	r0, r0, #96
 859              		@ sp needed
 860 0008 7047     		bx	lr
 861              	.L84:
 862 000a C046     		.align	2
 863              	.L83:
 864 000c 00280000 		.word	.LANCHOR26
 865              		.cfi_endproc
 866              	.LFE27:
 867              		.size	u8g2_m_st7920_16_1, .-u8g2_m_st7920_16_1
 868              		.section	.text.u8g2_m_st7920_16_2,"ax",%progbits
 869              		.align	2
 870              		.global	u8g2_m_st7920_16_2
 871              		.code	16
 872              		.thumb_func
 873              		.type	u8g2_m_st7920_16_2, %function
 874              	u8g2_m_st7920_16_2:
 875              	.LFB28:
 174:..\u8g2\csrc/u8g2_d_memory.c **** uint8_t *u8g2_m_st7920_16_2(uint8_t *page_cnt)
 175:..\u8g2\csrc/u8g2_d_memory.c **** {
 876              		.loc 1 175 0
 877              		.cfi_startproc
 878              		@ args = 0, pretend = 0, frame = 0
 879              		@ frame_needed = 0, uses_anonymous_args = 0
 880              		@ link register save eliminated.
 881              	.LVL56:
 176:..\u8g2\csrc/u8g2_d_memory.c ****   static uint8_t buf[256];
 177:..\u8g2\csrc/u8g2_d_memory.c ****   *page_cnt = 2;
 882              		.loc 1 177 0
 883 0000 0223     		movs	r3, #2
 884 0002 0370     		strb	r3, [r0]
 178:..\u8g2\csrc/u8g2_d_memory.c ****   return buf;
 885              		.loc 1 178 0
 886 0004 0148     		ldr	r0, .L86
 887              	.LVL57:
 179:..\u8g2\csrc/u8g2_d_memory.c **** }
 888              		.loc 1 179 0
 889 0006 6030     		adds	r0, r0, #96
 890              		@ sp needed
 891 0008 7047     		bx	lr
 892              	.L87:
 893 000a C046     		.align	2
 894              	.L86:
 895 000c 80280000 		.word	.LANCHOR27
 896              		.cfi_endproc
 897              	.LFE28:
 898              		.size	u8g2_m_st7920_16_2, .-u8g2_m_st7920_16_2
 899              		.section	.text.u8g2_m_st7920_16_f,"ax",%progbits
 900              		.align	2
 901              		.global	u8g2_m_st7920_16_f
 902              		.code	16
 903              		.thumb_func
 904              		.type	u8g2_m_st7920_16_f, %function
ARM GAS  C:\Users\gjl\AppData\Local\Temp\ccNm9gHl.s 			page 20


 905              	u8g2_m_st7920_16_f:
 906              	.LFB29:
 180:..\u8g2\csrc/u8g2_d_memory.c **** uint8_t *u8g2_m_st7920_16_f(uint8_t *page_cnt)
 181:..\u8g2\csrc/u8g2_d_memory.c **** {
 907              		.loc 1 181 0
 908              		.cfi_startproc
 909              		@ args = 0, pretend = 0, frame = 0
 910              		@ frame_needed = 0, uses_anonymous_args = 0
 911              		@ link register save eliminated.
 912              	.LVL58:
 182:..\u8g2\csrc/u8g2_d_memory.c ****   static uint8_t buf[1024];
 183:..\u8g2\csrc/u8g2_d_memory.c ****   *page_cnt = 8;
 913              		.loc 1 183 0
 914 0000 0823     		movs	r3, #8
 915 0002 0370     		strb	r3, [r0]
 184:..\u8g2\csrc/u8g2_d_memory.c ****   return buf;
 916              		.loc 1 184 0
 917 0004 0148     		ldr	r0, .L89
 918              	.LVL59:
 185:..\u8g2\csrc/u8g2_d_memory.c **** }
 919              		.loc 1 185 0
 920 0006 6030     		adds	r0, r0, #96
 921              		@ sp needed
 922 0008 7047     		bx	lr
 923              	.L90:
 924 000a C046     		.align	2
 925              	.L89:
 926 000c 80290000 		.word	.LANCHOR28
 927              		.cfi_endproc
 928              	.LFE29:
 929              		.size	u8g2_m_st7920_16_f, .-u8g2_m_st7920_16_f
 930              		.section	.text.u8g2_m_ls013b7dh03_16_1,"ax",%progbits
 931              		.align	2
 932              		.global	u8g2_m_ls013b7dh03_16_1
 933              		.code	16
 934              		.thumb_func
 935              		.type	u8g2_m_ls013b7dh03_16_1, %function
 936              	u8g2_m_ls013b7dh03_16_1:
 937              	.LFB30:
 186:..\u8g2\csrc/u8g2_d_memory.c **** uint8_t *u8g2_m_ls013b7dh03_16_1(uint8_t *page_cnt)
 187:..\u8g2\csrc/u8g2_d_memory.c **** {
 938              		.loc 1 187 0
 939              		.cfi_startproc
 940              		@ args = 0, pretend = 0, frame = 0
 941              		@ frame_needed = 0, uses_anonymous_args = 0
 942              		@ link register save eliminated.
 943              	.LVL60:
 188:..\u8g2\csrc/u8g2_d_memory.c ****   static uint8_t buf[128];
 189:..\u8g2\csrc/u8g2_d_memory.c ****   *page_cnt = 1;
 944              		.loc 1 189 0
 945 0000 0123     		movs	r3, #1
 946 0002 0370     		strb	r3, [r0]
 190:..\u8g2\csrc/u8g2_d_memory.c ****   return buf;
 947              		.loc 1 190 0
 948 0004 0148     		ldr	r0, .L92
 949              	.LVL61:
 191:..\u8g2\csrc/u8g2_d_memory.c **** }
ARM GAS  C:\Users\gjl\AppData\Local\Temp\ccNm9gHl.s 			page 21


 950              		.loc 1 191 0
 951 0006 6030     		adds	r0, r0, #96
 952              		@ sp needed
 953 0008 7047     		bx	lr
 954              	.L93:
 955 000a C046     		.align	2
 956              	.L92:
 957 000c 802D0000 		.word	.LANCHOR29
 958              		.cfi_endproc
 959              	.LFE30:
 960              		.size	u8g2_m_ls013b7dh03_16_1, .-u8g2_m_ls013b7dh03_16_1
 961              		.section	.text.u8g2_m_ls013b7dh03_16_2,"ax",%progbits
 962              		.align	2
 963              		.global	u8g2_m_ls013b7dh03_16_2
 964              		.code	16
 965              		.thumb_func
 966              		.type	u8g2_m_ls013b7dh03_16_2, %function
 967              	u8g2_m_ls013b7dh03_16_2:
 968              	.LFB31:
 192:..\u8g2\csrc/u8g2_d_memory.c **** uint8_t *u8g2_m_ls013b7dh03_16_2(uint8_t *page_cnt)
 193:..\u8g2\csrc/u8g2_d_memory.c **** {
 969              		.loc 1 193 0
 970              		.cfi_startproc
 971              		@ args = 0, pretend = 0, frame = 0
 972              		@ frame_needed = 0, uses_anonymous_args = 0
 973              		@ link register save eliminated.
 974              	.LVL62:
 194:..\u8g2\csrc/u8g2_d_memory.c ****   static uint8_t buf[256];
 195:..\u8g2\csrc/u8g2_d_memory.c ****   *page_cnt = 2;
 975              		.loc 1 195 0
 976 0000 0223     		movs	r3, #2
 977 0002 0370     		strb	r3, [r0]
 196:..\u8g2\csrc/u8g2_d_memory.c ****   return buf;
 978              		.loc 1 196 0
 979 0004 0148     		ldr	r0, .L95
 980              	.LVL63:
 197:..\u8g2\csrc/u8g2_d_memory.c **** }
 981              		.loc 1 197 0
 982 0006 6030     		adds	r0, r0, #96
 983              		@ sp needed
 984 0008 7047     		bx	lr
 985              	.L96:
 986 000a C046     		.align	2
 987              	.L95:
 988 000c 002E0000 		.word	.LANCHOR30
 989              		.cfi_endproc
 990              	.LFE31:
 991              		.size	u8g2_m_ls013b7dh03_16_2, .-u8g2_m_ls013b7dh03_16_2
 992              		.section	.text.u8g2_m_ls013b7dh03_16_f,"ax",%progbits
 993              		.align	2
 994              		.global	u8g2_m_ls013b7dh03_16_f
 995              		.code	16
 996              		.thumb_func
 997              		.type	u8g2_m_ls013b7dh03_16_f, %function
 998              	u8g2_m_ls013b7dh03_16_f:
 999              	.LFB32:
 198:..\u8g2\csrc/u8g2_d_memory.c **** uint8_t *u8g2_m_ls013b7dh03_16_f(uint8_t *page_cnt)
ARM GAS  C:\Users\gjl\AppData\Local\Temp\ccNm9gHl.s 			page 22


 199:..\u8g2\csrc/u8g2_d_memory.c **** {
 1000              		.loc 1 199 0
 1001              		.cfi_startproc
 1002              		@ args = 0, pretend = 0, frame = 0
 1003              		@ frame_needed = 0, uses_anonymous_args = 0
 1004              		@ link register save eliminated.
 1005              	.LVL64:
 200:..\u8g2\csrc/u8g2_d_memory.c ****   static uint8_t buf[2048];
 201:..\u8g2\csrc/u8g2_d_memory.c ****   *page_cnt = 16;
 1006              		.loc 1 201 0
 1007 0000 1023     		movs	r3, #16
 1008 0002 0370     		strb	r3, [r0]
 202:..\u8g2\csrc/u8g2_d_memory.c ****   return buf;
 1009              		.loc 1 202 0
 1010 0004 0148     		ldr	r0, .L98
 1011              	.LVL65:
 203:..\u8g2\csrc/u8g2_d_memory.c **** }
 1012              		.loc 1 203 0
 1013 0006 6030     		adds	r0, r0, #96
 1014              		@ sp needed
 1015 0008 7047     		bx	lr
 1016              	.L99:
 1017 000a C046     		.align	2
 1018              	.L98:
 1019 000c 002F0000 		.word	.LANCHOR31
 1020              		.cfi_endproc
 1021              	.LFE32:
 1022              		.size	u8g2_m_ls013b7dh03_16_f, .-u8g2_m_ls013b7dh03_16_f
 1023              		.section	.text.u8g2_m_uc1701_13_1,"ax",%progbits
 1024              		.align	2
 1025              		.global	u8g2_m_uc1701_13_1
 1026              		.code	16
 1027              		.thumb_func
 1028              		.type	u8g2_m_uc1701_13_1, %function
 1029              	u8g2_m_uc1701_13_1:
 1030              	.LFB33:
 204:..\u8g2\csrc/u8g2_d_memory.c **** uint8_t *u8g2_m_uc1701_13_1(uint8_t *page_cnt)
 205:..\u8g2\csrc/u8g2_d_memory.c **** {
 1031              		.loc 1 205 0
 1032              		.cfi_startproc
 1033              		@ args = 0, pretend = 0, frame = 0
 1034              		@ frame_needed = 0, uses_anonymous_args = 0
 1035              		@ link register save eliminated.
 1036              	.LVL66:
 206:..\u8g2\csrc/u8g2_d_memory.c ****   static uint8_t buf[104];
 207:..\u8g2\csrc/u8g2_d_memory.c ****   *page_cnt = 1;
 1037              		.loc 1 207 0
 1038 0000 0123     		movs	r3, #1
 1039 0002 0370     		strb	r3, [r0]
 208:..\u8g2\csrc/u8g2_d_memory.c ****   return buf;
 1040              		.loc 1 208 0
 1041 0004 0148     		ldr	r0, .L101
 1042              	.LVL67:
 209:..\u8g2\csrc/u8g2_d_memory.c **** }
 1043              		.loc 1 209 0
 1044 0006 6030     		adds	r0, r0, #96
 1045              		@ sp needed
ARM GAS  C:\Users\gjl\AppData\Local\Temp\ccNm9gHl.s 			page 23


 1046 0008 7047     		bx	lr
 1047              	.L102:
 1048 000a C046     		.align	2
 1049              	.L101:
 1050 000c 00370000 		.word	.LANCHOR32
 1051              		.cfi_endproc
 1052              	.LFE33:
 1053              		.size	u8g2_m_uc1701_13_1, .-u8g2_m_uc1701_13_1
 1054              		.section	.text.u8g2_m_uc1701_13_2,"ax",%progbits
 1055              		.align	2
 1056              		.global	u8g2_m_uc1701_13_2
 1057              		.code	16
 1058              		.thumb_func
 1059              		.type	u8g2_m_uc1701_13_2, %function
 1060              	u8g2_m_uc1701_13_2:
 1061              	.LFB34:
 210:..\u8g2\csrc/u8g2_d_memory.c **** uint8_t *u8g2_m_uc1701_13_2(uint8_t *page_cnt)
 211:..\u8g2\csrc/u8g2_d_memory.c **** {
 1062              		.loc 1 211 0
 1063              		.cfi_startproc
 1064              		@ args = 0, pretend = 0, frame = 0
 1065              		@ frame_needed = 0, uses_anonymous_args = 0
 1066              		@ link register save eliminated.
 1067              	.LVL68:
 212:..\u8g2\csrc/u8g2_d_memory.c ****   static uint8_t buf[208];
 213:..\u8g2\csrc/u8g2_d_memory.c ****   *page_cnt = 2;
 1068              		.loc 1 213 0
 1069 0000 0223     		movs	r3, #2
 1070 0002 0370     		strb	r3, [r0]
 214:..\u8g2\csrc/u8g2_d_memory.c ****   return buf;
 1071              		.loc 1 214 0
 1072 0004 0148     		ldr	r0, .L104
 1073              	.LVL69:
 215:..\u8g2\csrc/u8g2_d_memory.c **** }
 1074              		.loc 1 215 0
 1075 0006 4830     		adds	r0, r0, #72
 1076              		@ sp needed
 1077 0008 7047     		bx	lr
 1078              	.L105:
 1079 000a C046     		.align	2
 1080              	.L104:
 1081 000c 80370000 		.word	.LANCHOR33
 1082              		.cfi_endproc
 1083              	.LFE34:
 1084              		.size	u8g2_m_uc1701_13_2, .-u8g2_m_uc1701_13_2
 1085              		.section	.text.u8g2_m_uc1701_13_f,"ax",%progbits
 1086              		.align	2
 1087              		.global	u8g2_m_uc1701_13_f
 1088              		.code	16
 1089              		.thumb_func
 1090              		.type	u8g2_m_uc1701_13_f, %function
 1091              	u8g2_m_uc1701_13_f:
 1092              	.LFB35:
 216:..\u8g2\csrc/u8g2_d_memory.c **** uint8_t *u8g2_m_uc1701_13_f(uint8_t *page_cnt)
 217:..\u8g2\csrc/u8g2_d_memory.c **** {
 1093              		.loc 1 217 0
 1094              		.cfi_startproc
ARM GAS  C:\Users\gjl\AppData\Local\Temp\ccNm9gHl.s 			page 24


 1095              		@ args = 0, pretend = 0, frame = 0
 1096              		@ frame_needed = 0, uses_anonymous_args = 0
 1097              		@ link register save eliminated.
 1098              	.LVL70:
 218:..\u8g2\csrc/u8g2_d_memory.c ****   static uint8_t buf[832];
 219:..\u8g2\csrc/u8g2_d_memory.c ****   *page_cnt = 8;
 1099              		.loc 1 219 0
 1100 0000 0823     		movs	r3, #8
 1101 0002 0370     		strb	r3, [r0]
 220:..\u8g2\csrc/u8g2_d_memory.c ****   return buf;
 1102              		.loc 1 220 0
 1103 0004 0148     		ldr	r0, .L107
 1104              	.LVL71:
 221:..\u8g2\csrc/u8g2_d_memory.c **** }
 1105              		.loc 1 221 0
 1106 0006 1830     		adds	r0, r0, #24
 1107              		@ sp needed
 1108 0008 7047     		bx	lr
 1109              	.L108:
 1110 000a C046     		.align	2
 1111              	.L107:
 1112 000c 80380000 		.word	.LANCHOR34
 1113              		.cfi_endproc
 1114              	.LFE35:
 1115              		.size	u8g2_m_uc1701_13_f, .-u8g2_m_uc1701_13_f
 1116              		.section	.text.u8g2_m_uc1701_16_1,"ax",%progbits
 1117              		.align	2
 1118              		.global	u8g2_m_uc1701_16_1
 1119              		.code	16
 1120              		.thumb_func
 1121              		.type	u8g2_m_uc1701_16_1, %function
 1122              	u8g2_m_uc1701_16_1:
 1123              	.LFB36:
 222:..\u8g2\csrc/u8g2_d_memory.c **** uint8_t *u8g2_m_uc1701_16_1(uint8_t *page_cnt)
 223:..\u8g2\csrc/u8g2_d_memory.c **** {
 1124              		.loc 1 223 0
 1125              		.cfi_startproc
 1126              		@ args = 0, pretend = 0, frame = 0
 1127              		@ frame_needed = 0, uses_anonymous_args = 0
 1128              		@ link register save eliminated.
 1129              	.LVL72:
 224:..\u8g2\csrc/u8g2_d_memory.c ****   static uint8_t buf[128];
 225:..\u8g2\csrc/u8g2_d_memory.c ****   *page_cnt = 1;
 1130              		.loc 1 225 0
 1131 0000 0123     		movs	r3, #1
 1132 0002 0370     		strb	r3, [r0]
 226:..\u8g2\csrc/u8g2_d_memory.c ****   return buf;
 1133              		.loc 1 226 0
 1134 0004 0148     		ldr	r0, .L110
 1135              	.LVL73:
 227:..\u8g2\csrc/u8g2_d_memory.c **** }
 1136              		.loc 1 227 0
 1137 0006 5830     		adds	r0, r0, #88
 1138              		@ sp needed
 1139 0008 7047     		bx	lr
 1140              	.L111:
 1141 000a C046     		.align	2
ARM GAS  C:\Users\gjl\AppData\Local\Temp\ccNm9gHl.s 			page 25


 1142              	.L110:
 1143 000c 803B0000 		.word	.LANCHOR35
 1144              		.cfi_endproc
 1145              	.LFE36:
 1146              		.size	u8g2_m_uc1701_16_1, .-u8g2_m_uc1701_16_1
 1147              		.section	.text.u8g2_m_uc1701_16_2,"ax",%progbits
 1148              		.align	2
 1149              		.global	u8g2_m_uc1701_16_2
 1150              		.code	16
 1151              		.thumb_func
 1152              		.type	u8g2_m_uc1701_16_2, %function
 1153              	u8g2_m_uc1701_16_2:
 1154              	.LFB37:
 228:..\u8g2\csrc/u8g2_d_memory.c **** uint8_t *u8g2_m_uc1701_16_2(uint8_t *page_cnt)
 229:..\u8g2\csrc/u8g2_d_memory.c **** {
 1155              		.loc 1 229 0
 1156              		.cfi_startproc
 1157              		@ args = 0, pretend = 0, frame = 0
 1158              		@ frame_needed = 0, uses_anonymous_args = 0
 1159              		@ link register save eliminated.
 1160              	.LVL74:
 230:..\u8g2\csrc/u8g2_d_memory.c ****   static uint8_t buf[256];
 231:..\u8g2\csrc/u8g2_d_memory.c ****   *page_cnt = 2;
 1161              		.loc 1 231 0
 1162 0000 0223     		movs	r3, #2
 1163 0002 0370     		strb	r3, [r0]
 232:..\u8g2\csrc/u8g2_d_memory.c ****   return buf;
 1164              		.loc 1 232 0
 1165 0004 0148     		ldr	r0, .L113
 1166              	.LVL75:
 233:..\u8g2\csrc/u8g2_d_memory.c **** }
 1167              		.loc 1 233 0
 1168 0006 5830     		adds	r0, r0, #88
 1169              		@ sp needed
 1170 0008 7047     		bx	lr
 1171              	.L114:
 1172 000a C046     		.align	2
 1173              	.L113:
 1174 000c 003C0000 		.word	.LANCHOR36
 1175              		.cfi_endproc
 1176              	.LFE37:
 1177              		.size	u8g2_m_uc1701_16_2, .-u8g2_m_uc1701_16_2
 1178              		.section	.text.u8g2_m_uc1701_16_f,"ax",%progbits
 1179              		.align	2
 1180              		.global	u8g2_m_uc1701_16_f
 1181              		.code	16
 1182              		.thumb_func
 1183              		.type	u8g2_m_uc1701_16_f, %function
 1184              	u8g2_m_uc1701_16_f:
 1185              	.LFB38:
 234:..\u8g2\csrc/u8g2_d_memory.c **** uint8_t *u8g2_m_uc1701_16_f(uint8_t *page_cnt)
 235:..\u8g2\csrc/u8g2_d_memory.c **** {
 1186              		.loc 1 235 0
 1187              		.cfi_startproc
 1188              		@ args = 0, pretend = 0, frame = 0
 1189              		@ frame_needed = 0, uses_anonymous_args = 0
 1190              		@ link register save eliminated.
ARM GAS  C:\Users\gjl\AppData\Local\Temp\ccNm9gHl.s 			page 26


 1191              	.LVL76:
 236:..\u8g2\csrc/u8g2_d_memory.c ****   static uint8_t buf[1024];
 237:..\u8g2\csrc/u8g2_d_memory.c ****   *page_cnt = 8;
 1192              		.loc 1 237 0
 1193 0000 0823     		movs	r3, #8
 1194 0002 0370     		strb	r3, [r0]
 238:..\u8g2\csrc/u8g2_d_memory.c ****   return buf;
 1195              		.loc 1 238 0
 1196 0004 0148     		ldr	r0, .L116
 1197              	.LVL77:
 239:..\u8g2\csrc/u8g2_d_memory.c **** }
 1198              		.loc 1 239 0
 1199 0006 5830     		adds	r0, r0, #88
 1200              		@ sp needed
 1201 0008 7047     		bx	lr
 1202              	.L117:
 1203 000a C046     		.align	2
 1204              	.L116:
 1205 000c 003D0000 		.word	.LANCHOR37
 1206              		.cfi_endproc
 1207              	.LFE38:
 1208              		.size	u8g2_m_uc1701_16_f, .-u8g2_m_uc1701_16_f
 1209              		.section	.text.u8g2_m_pcd8544_11_1,"ax",%progbits
 1210              		.align	2
 1211              		.global	u8g2_m_pcd8544_11_1
 1212              		.code	16
 1213              		.thumb_func
 1214              		.type	u8g2_m_pcd8544_11_1, %function
 1215              	u8g2_m_pcd8544_11_1:
 1216              	.LFB39:
 240:..\u8g2\csrc/u8g2_d_memory.c **** uint8_t *u8g2_m_pcd8544_11_1(uint8_t *page_cnt)
 241:..\u8g2\csrc/u8g2_d_memory.c **** {
 1217              		.loc 1 241 0
 1218              		.cfi_startproc
 1219              		@ args = 0, pretend = 0, frame = 0
 1220              		@ frame_needed = 0, uses_anonymous_args = 0
 1221              		@ link register save eliminated.
 1222              	.LVL78:
 242:..\u8g2\csrc/u8g2_d_memory.c ****   static uint8_t buf[88];
 243:..\u8g2\csrc/u8g2_d_memory.c ****   *page_cnt = 1;
 1223              		.loc 1 243 0
 1224 0000 0123     		movs	r3, #1
 1225 0002 0370     		strb	r3, [r0]
 244:..\u8g2\csrc/u8g2_d_memory.c ****   return buf;
 1226              		.loc 1 244 0
 1227 0004 0148     		ldr	r0, .L119
 1228              	.LVL79:
 245:..\u8g2\csrc/u8g2_d_memory.c **** }
 1229              		.loc 1 245 0
 1230 0006 5830     		adds	r0, r0, #88
 1231              		@ sp needed
 1232 0008 7047     		bx	lr
 1233              	.L120:
 1234 000a C046     		.align	2
 1235              	.L119:
 1236 000c 00410000 		.word	.LANCHOR38
 1237              		.cfi_endproc
ARM GAS  C:\Users\gjl\AppData\Local\Temp\ccNm9gHl.s 			page 27


 1238              	.LFE39:
 1239              		.size	u8g2_m_pcd8544_11_1, .-u8g2_m_pcd8544_11_1
 1240              		.section	.text.u8g2_m_pcd8544_11_2,"ax",%progbits
 1241              		.align	2
 1242              		.global	u8g2_m_pcd8544_11_2
 1243              		.code	16
 1244              		.thumb_func
 1245              		.type	u8g2_m_pcd8544_11_2, %function
 1246              	u8g2_m_pcd8544_11_2:
 1247              	.LFB40:
 246:..\u8g2\csrc/u8g2_d_memory.c **** uint8_t *u8g2_m_pcd8544_11_2(uint8_t *page_cnt)
 247:..\u8g2\csrc/u8g2_d_memory.c **** {
 1248              		.loc 1 247 0
 1249              		.cfi_startproc
 1250              		@ args = 0, pretend = 0, frame = 0
 1251              		@ frame_needed = 0, uses_anonymous_args = 0
 1252              		@ link register save eliminated.
 1253              	.LVL80:
 248:..\u8g2\csrc/u8g2_d_memory.c ****   static uint8_t buf[176];
 249:..\u8g2\csrc/u8g2_d_memory.c ****   *page_cnt = 2;
 1254              		.loc 1 249 0
 1255 0000 0223     		movs	r3, #2
 1256 0002 0370     		strb	r3, [r0]
 250:..\u8g2\csrc/u8g2_d_memory.c ****   return buf;
 1257              		.loc 1 250 0
 1258 0004 0148     		ldr	r0, .L122
 1259              	.LVL81:
 251:..\u8g2\csrc/u8g2_d_memory.c **** }
 1260              		.loc 1 251 0
 1261 0006 3030     		adds	r0, r0, #48
 1262              		@ sp needed
 1263 0008 7047     		bx	lr
 1264              	.L123:
 1265 000a C046     		.align	2
 1266              	.L122:
 1267 000c 80410000 		.word	.LANCHOR39
 1268              		.cfi_endproc
 1269              	.LFE40:
 1270              		.size	u8g2_m_pcd8544_11_2, .-u8g2_m_pcd8544_11_2
 1271              		.section	.text.u8g2_m_pcd8544_11_f,"ax",%progbits
 1272              		.align	2
 1273              		.global	u8g2_m_pcd8544_11_f
 1274              		.code	16
 1275              		.thumb_func
 1276              		.type	u8g2_m_pcd8544_11_f, %function
 1277              	u8g2_m_pcd8544_11_f:
 1278              	.LFB41:
 252:..\u8g2\csrc/u8g2_d_memory.c **** uint8_t *u8g2_m_pcd8544_11_f(uint8_t *page_cnt)
 253:..\u8g2\csrc/u8g2_d_memory.c **** {
 1279              		.loc 1 253 0
 1280              		.cfi_startproc
 1281              		@ args = 0, pretend = 0, frame = 0
 1282              		@ frame_needed = 0, uses_anonymous_args = 0
 1283              		@ link register save eliminated.
 1284              	.LVL82:
 254:..\u8g2\csrc/u8g2_d_memory.c ****   static uint8_t buf[528];
 255:..\u8g2\csrc/u8g2_d_memory.c ****   *page_cnt = 6;
ARM GAS  C:\Users\gjl\AppData\Local\Temp\ccNm9gHl.s 			page 28


 1285              		.loc 1 255 0
 1286 0000 0623     		movs	r3, #6
 1287 0002 0370     		strb	r3, [r0]
 256:..\u8g2\csrc/u8g2_d_memory.c ****   return buf;
 1288              		.loc 1 256 0
 1289 0004 0148     		ldr	r0, .L125
 1290              	.LVL83:
 257:..\u8g2\csrc/u8g2_d_memory.c **** }
 1291              		.loc 1 257 0
 1292 0006 6030     		adds	r0, r0, #96
 1293              		@ sp needed
 1294 0008 7047     		bx	lr
 1295              	.L126:
 1296 000a C046     		.align	2
 1297              	.L125:
 1298 000c 00420000 		.word	.LANCHOR40
 1299              		.cfi_endproc
 1300              	.LFE41:
 1301              		.size	u8g2_m_pcd8544_11_f, .-u8g2_m_pcd8544_11_f
 1302              		.section	.text.u8g2_m_pcf8812_12_1,"ax",%progbits
 1303              		.align	2
 1304              		.global	u8g2_m_pcf8812_12_1
 1305              		.code	16
 1306              		.thumb_func
 1307              		.type	u8g2_m_pcf8812_12_1, %function
 1308              	u8g2_m_pcf8812_12_1:
 1309              	.LFB42:
 258:..\u8g2\csrc/u8g2_d_memory.c **** uint8_t *u8g2_m_pcf8812_12_1(uint8_t *page_cnt)
 259:..\u8g2\csrc/u8g2_d_memory.c **** {
 1310              		.loc 1 259 0
 1311              		.cfi_startproc
 1312              		@ args = 0, pretend = 0, frame = 0
 1313              		@ frame_needed = 0, uses_anonymous_args = 0
 1314              		@ link register save eliminated.
 1315              	.LVL84:
 260:..\u8g2\csrc/u8g2_d_memory.c ****   static uint8_t buf[96];
 261:..\u8g2\csrc/u8g2_d_memory.c ****   *page_cnt = 1;
 1316              		.loc 1 261 0
 1317 0000 0123     		movs	r3, #1
 1318 0002 0370     		strb	r3, [r0]
 262:..\u8g2\csrc/u8g2_d_memory.c ****   return buf;
 1319              		.loc 1 262 0
 1320 0004 0148     		ldr	r0, .L128
 1321              	.LVL85:
 263:..\u8g2\csrc/u8g2_d_memory.c **** }
 1322              		.loc 1 263 0
 1323 0006 7030     		adds	r0, r0, #112
 1324              		@ sp needed
 1325 0008 7047     		bx	lr
 1326              	.L129:
 1327 000a C046     		.align	2
 1328              	.L128:
 1329 000c 00440000 		.word	.LANCHOR41
 1330              		.cfi_endproc
 1331              	.LFE42:
 1332              		.size	u8g2_m_pcf8812_12_1, .-u8g2_m_pcf8812_12_1
 1333              		.section	.text.u8g2_m_pcf8812_12_2,"ax",%progbits
ARM GAS  C:\Users\gjl\AppData\Local\Temp\ccNm9gHl.s 			page 29


 1334              		.align	2
 1335              		.global	u8g2_m_pcf8812_12_2
 1336              		.code	16
 1337              		.thumb_func
 1338              		.type	u8g2_m_pcf8812_12_2, %function
 1339              	u8g2_m_pcf8812_12_2:
 1340              	.LFB43:
 264:..\u8g2\csrc/u8g2_d_memory.c **** uint8_t *u8g2_m_pcf8812_12_2(uint8_t *page_cnt)
 265:..\u8g2\csrc/u8g2_d_memory.c **** {
 1341              		.loc 1 265 0
 1342              		.cfi_startproc
 1343              		@ args = 0, pretend = 0, frame = 0
 1344              		@ frame_needed = 0, uses_anonymous_args = 0
 1345              		@ link register save eliminated.
 1346              	.LVL86:
 266:..\u8g2\csrc/u8g2_d_memory.c ****   static uint8_t buf[192];
 267:..\u8g2\csrc/u8g2_d_memory.c ****   *page_cnt = 2;
 1347              		.loc 1 267 0
 1348 0000 0223     		movs	r3, #2
 1349 0002 0370     		strb	r3, [r0]
 268:..\u8g2\csrc/u8g2_d_memory.c ****   return buf;
 1350              		.loc 1 268 0
 1351 0004 0148     		ldr	r0, .L131
 1352              	.LVL87:
 269:..\u8g2\csrc/u8g2_d_memory.c **** }
 1353              		.loc 1 269 0
 1354 0006 5030     		adds	r0, r0, #80
 1355              		@ sp needed
 1356 0008 7047     		bx	lr
 1357              	.L132:
 1358 000a C046     		.align	2
 1359              	.L131:
 1360 000c 80440000 		.word	.LANCHOR42
 1361              		.cfi_endproc
 1362              	.LFE43:
 1363              		.size	u8g2_m_pcf8812_12_2, .-u8g2_m_pcf8812_12_2
 1364              		.section	.text.u8g2_m_pcf8812_12_f,"ax",%progbits
 1365              		.align	2
 1366              		.global	u8g2_m_pcf8812_12_f
 1367              		.code	16
 1368              		.thumb_func
 1369              		.type	u8g2_m_pcf8812_12_f, %function
 1370              	u8g2_m_pcf8812_12_f:
 1371              	.LFB44:
 270:..\u8g2\csrc/u8g2_d_memory.c **** uint8_t *u8g2_m_pcf8812_12_f(uint8_t *page_cnt)
 271:..\u8g2\csrc/u8g2_d_memory.c **** {
 1372              		.loc 1 271 0
 1373              		.cfi_startproc
 1374              		@ args = 0, pretend = 0, frame = 0
 1375              		@ frame_needed = 0, uses_anonymous_args = 0
 1376              		@ link register save eliminated.
 1377              	.LVL88:
 272:..\u8g2\csrc/u8g2_d_memory.c ****   static uint8_t buf[864];
 273:..\u8g2\csrc/u8g2_d_memory.c ****   *page_cnt = 9;
 1378              		.loc 1 273 0
 1379 0000 0923     		movs	r3, #9
 1380 0002 0370     		strb	r3, [r0]
ARM GAS  C:\Users\gjl\AppData\Local\Temp\ccNm9gHl.s 			page 30


 274:..\u8g2\csrc/u8g2_d_memory.c ****   return buf;
 1381              		.loc 1 274 0
 1382 0004 0148     		ldr	r0, .L134
 1383              	.LVL89:
 275:..\u8g2\csrc/u8g2_d_memory.c **** }
 1384              		.loc 1 275 0
 1385 0006 1030     		adds	r0, r0, #16
 1386              		@ sp needed
 1387 0008 7047     		bx	lr
 1388              	.L135:
 1389 000a C046     		.align	2
 1390              	.L134:
 1391 000c 80450000 		.word	.LANCHOR43
 1392              		.cfi_endproc
 1393              	.LFE44:
 1394              		.size	u8g2_m_pcf8812_12_f, .-u8g2_m_pcf8812_12_f
 1395              		.section	.text.u8g2_m_uc1604_24_1,"ax",%progbits
 1396              		.align	2
 1397              		.global	u8g2_m_uc1604_24_1
 1398              		.code	16
 1399              		.thumb_func
 1400              		.type	u8g2_m_uc1604_24_1, %function
 1401              	u8g2_m_uc1604_24_1:
 1402              	.LFB45:
 276:..\u8g2\csrc/u8g2_d_memory.c **** uint8_t *u8g2_m_uc1604_24_1(uint8_t *page_cnt)
 277:..\u8g2\csrc/u8g2_d_memory.c **** {
 1403              		.loc 1 277 0
 1404              		.cfi_startproc
 1405              		@ args = 0, pretend = 0, frame = 0
 1406              		@ frame_needed = 0, uses_anonymous_args = 0
 1407              		@ link register save eliminated.
 1408              	.LVL90:
 278:..\u8g2\csrc/u8g2_d_memory.c ****   static uint8_t buf[192];
 279:..\u8g2\csrc/u8g2_d_memory.c ****   *page_cnt = 1;
 1409              		.loc 1 279 0
 1410 0000 0123     		movs	r3, #1
 1411 0002 0370     		strb	r3, [r0]
 280:..\u8g2\csrc/u8g2_d_memory.c ****   return buf;
 1412              		.loc 1 280 0
 1413 0004 0148     		ldr	r0, .L137
 1414              	.LVL91:
 281:..\u8g2\csrc/u8g2_d_memory.c **** }
 1415              		.loc 1 281 0
 1416 0006 7030     		adds	r0, r0, #112
 1417              		@ sp needed
 1418 0008 7047     		bx	lr
 1419              	.L138:
 1420 000a C046     		.align	2
 1421              	.L137:
 1422 000c 80480000 		.word	.LANCHOR44
 1423              		.cfi_endproc
 1424              	.LFE45:
 1425              		.size	u8g2_m_uc1604_24_1, .-u8g2_m_uc1604_24_1
 1426              		.section	.text.u8g2_m_uc1604_24_2,"ax",%progbits
 1427              		.align	2
 1428              		.global	u8g2_m_uc1604_24_2
 1429              		.code	16
ARM GAS  C:\Users\gjl\AppData\Local\Temp\ccNm9gHl.s 			page 31


 1430              		.thumb_func
 1431              		.type	u8g2_m_uc1604_24_2, %function
 1432              	u8g2_m_uc1604_24_2:
 1433              	.LFB46:
 282:..\u8g2\csrc/u8g2_d_memory.c **** uint8_t *u8g2_m_uc1604_24_2(uint8_t *page_cnt)
 283:..\u8g2\csrc/u8g2_d_memory.c **** {
 1434              		.loc 1 283 0
 1435              		.cfi_startproc
 1436              		@ args = 0, pretend = 0, frame = 0
 1437              		@ frame_needed = 0, uses_anonymous_args = 0
 1438              		@ link register save eliminated.
 1439              	.LVL92:
 284:..\u8g2\csrc/u8g2_d_memory.c ****   static uint8_t buf[384];
 285:..\u8g2\csrc/u8g2_d_memory.c ****   *page_cnt = 2;
 1440              		.loc 1 285 0
 1441 0000 0223     		movs	r3, #2
 1442 0002 0370     		strb	r3, [r0]
 286:..\u8g2\csrc/u8g2_d_memory.c ****   return buf;
 1443              		.loc 1 286 0
 1444 0004 0148     		ldr	r0, .L140
 1445              	.LVL93:
 287:..\u8g2\csrc/u8g2_d_memory.c **** }
 1446              		.loc 1 287 0
 1447 0006 3030     		adds	r0, r0, #48
 1448              		@ sp needed
 1449 0008 7047     		bx	lr
 1450              	.L141:
 1451 000a C046     		.align	2
 1452              	.L140:
 1453 000c 80490000 		.word	.LANCHOR45
 1454              		.cfi_endproc
 1455              	.LFE46:
 1456              		.size	u8g2_m_uc1604_24_2, .-u8g2_m_uc1604_24_2
 1457              		.section	.text.u8g2_m_uc1604_24_f,"ax",%progbits
 1458              		.align	2
 1459              		.global	u8g2_m_uc1604_24_f
 1460              		.code	16
 1461              		.thumb_func
 1462              		.type	u8g2_m_uc1604_24_f, %function
 1463              	u8g2_m_uc1604_24_f:
 1464              	.LFB47:
 288:..\u8g2\csrc/u8g2_d_memory.c **** uint8_t *u8g2_m_uc1604_24_f(uint8_t *page_cnt)
 289:..\u8g2\csrc/u8g2_d_memory.c **** {
 1465              		.loc 1 289 0
 1466              		.cfi_startproc
 1467              		@ args = 0, pretend = 0, frame = 0
 1468              		@ frame_needed = 0, uses_anonymous_args = 0
 1469              		@ link register save eliminated.
 1470              	.LVL94:
 290:..\u8g2\csrc/u8g2_d_memory.c ****   static uint8_t buf[1536];
 291:..\u8g2\csrc/u8g2_d_memory.c ****   *page_cnt = 8;
 1471              		.loc 1 291 0
 1472 0000 0823     		movs	r3, #8
 1473 0002 0370     		strb	r3, [r0]
 292:..\u8g2\csrc/u8g2_d_memory.c ****   return buf;
 1474              		.loc 1 292 0
 1475 0004 0148     		ldr	r0, .L143
ARM GAS  C:\Users\gjl\AppData\Local\Temp\ccNm9gHl.s 			page 32


 1476              	.LVL95:
 293:..\u8g2\csrc/u8g2_d_memory.c **** }
 1477              		.loc 1 293 0
 1478 0006 3030     		adds	r0, r0, #48
 1479              		@ sp needed
 1480 0008 7047     		bx	lr
 1481              	.L144:
 1482 000a C046     		.align	2
 1483              	.L143:
 1484 000c 004B0000 		.word	.LANCHOR46
 1485              		.cfi_endproc
 1486              	.LFE47:
 1487              		.size	u8g2_m_uc1604_24_f, .-u8g2_m_uc1604_24_f
 1488              		.section	.text.u8g2_m_uc1608_30_1,"ax",%progbits
 1489              		.align	2
 1490              		.global	u8g2_m_uc1608_30_1
 1491              		.code	16
 1492              		.thumb_func
 1493              		.type	u8g2_m_uc1608_30_1, %function
 1494              	u8g2_m_uc1608_30_1:
 1495              	.LFB48:
 294:..\u8g2\csrc/u8g2_d_memory.c **** uint8_t *u8g2_m_uc1608_30_1(uint8_t *page_cnt)
 295:..\u8g2\csrc/u8g2_d_memory.c **** {
 1496              		.loc 1 295 0
 1497              		.cfi_startproc
 1498              		@ args = 0, pretend = 0, frame = 0
 1499              		@ frame_needed = 0, uses_anonymous_args = 0
 1500              		@ link register save eliminated.
 1501              	.LVL96:
 296:..\u8g2\csrc/u8g2_d_memory.c ****   static uint8_t buf[240];
 297:..\u8g2\csrc/u8g2_d_memory.c ****   *page_cnt = 1;
 1502              		.loc 1 297 0
 1503 0000 0123     		movs	r3, #1
 1504 0002 0370     		strb	r3, [r0]
 298:..\u8g2\csrc/u8g2_d_memory.c ****   return buf;
 1505              		.loc 1 298 0
 1506 0004 0148     		ldr	r0, .L146
 1507              	.LVL97:
 299:..\u8g2\csrc/u8g2_d_memory.c **** }
 1508              		.loc 1 299 0
 1509 0006 3030     		adds	r0, r0, #48
 1510              		@ sp needed
 1511 0008 7047     		bx	lr
 1512              	.L147:
 1513 000a C046     		.align	2
 1514              	.L146:
 1515 000c 00510000 		.word	.LANCHOR47
 1516              		.cfi_endproc
 1517              	.LFE48:
 1518              		.size	u8g2_m_uc1608_30_1, .-u8g2_m_uc1608_30_1
 1519              		.section	.text.u8g2_m_uc1608_30_2,"ax",%progbits
 1520              		.align	2
 1521              		.global	u8g2_m_uc1608_30_2
 1522              		.code	16
 1523              		.thumb_func
 1524              		.type	u8g2_m_uc1608_30_2, %function
 1525              	u8g2_m_uc1608_30_2:
ARM GAS  C:\Users\gjl\AppData\Local\Temp\ccNm9gHl.s 			page 33


 1526              	.LFB49:
 300:..\u8g2\csrc/u8g2_d_memory.c **** uint8_t *u8g2_m_uc1608_30_2(uint8_t *page_cnt)
 301:..\u8g2\csrc/u8g2_d_memory.c **** {
 1527              		.loc 1 301 0
 1528              		.cfi_startproc
 1529              		@ args = 0, pretend = 0, frame = 0
 1530              		@ frame_needed = 0, uses_anonymous_args = 0
 1531              		@ link register save eliminated.
 1532              	.LVL98:
 302:..\u8g2\csrc/u8g2_d_memory.c ****   static uint8_t buf[480];
 303:..\u8g2\csrc/u8g2_d_memory.c ****   *page_cnt = 2;
 1533              		.loc 1 303 0
 1534 0000 0223     		movs	r3, #2
 1535 0002 0370     		strb	r3, [r0]
 304:..\u8g2\csrc/u8g2_d_memory.c ****   return buf;
 1536              		.loc 1 304 0
 1537 0004 0148     		ldr	r0, .L149
 1538              	.LVL99:
 305:..\u8g2\csrc/u8g2_d_memory.c **** }
 1539              		.loc 1 305 0
 1540 0006 2030     		adds	r0, r0, #32
 1541              		@ sp needed
 1542 0008 7047     		bx	lr
 1543              	.L150:
 1544 000a C046     		.align	2
 1545              	.L149:
 1546 000c 00520000 		.word	.LANCHOR48
 1547              		.cfi_endproc
 1548              	.LFE49:
 1549              		.size	u8g2_m_uc1608_30_2, .-u8g2_m_uc1608_30_2
 1550              		.section	.text.u8g2_m_uc1608_30_f,"ax",%progbits
 1551              		.align	2
 1552              		.global	u8g2_m_uc1608_30_f
 1553              		.code	16
 1554              		.thumb_func
 1555              		.type	u8g2_m_uc1608_30_f, %function
 1556              	u8g2_m_uc1608_30_f:
 1557              	.LFB50:
 306:..\u8g2\csrc/u8g2_d_memory.c **** uint8_t *u8g2_m_uc1608_30_f(uint8_t *page_cnt)
 307:..\u8g2\csrc/u8g2_d_memory.c **** {
 1558              		.loc 1 307 0
 1559              		.cfi_startproc
 1560              		@ args = 0, pretend = 0, frame = 0
 1561              		@ frame_needed = 0, uses_anonymous_args = 0
 1562              		@ link register save eliminated.
 1563              	.LVL100:
 308:..\u8g2\csrc/u8g2_d_memory.c ****   static uint8_t buf[1920];
 309:..\u8g2\csrc/u8g2_d_memory.c ****   *page_cnt = 8;
 1564              		.loc 1 309 0
 1565 0000 0823     		movs	r3, #8
 1566 0002 0370     		strb	r3, [r0]
 310:..\u8g2\csrc/u8g2_d_memory.c ****   return buf;
 311:..\u8g2\csrc/u8g2_d_memory.c **** }
 1567              		.loc 1 311 0
 1568 0004 0048     		ldr	r0, .L152
 1569              	.LVL101:
 1570              		@ sp needed
ARM GAS  C:\Users\gjl\AppData\Local\Temp\ccNm9gHl.s 			page 34


 1571 0006 7047     		bx	lr
 1572              	.L153:
 1573              		.align	2
 1574              	.L152:
 1575 0008 00540000 		.word	.LANCHOR49
 1576              		.cfi_endproc
 1577              	.LFE50:
 1578              		.size	u8g2_m_uc1608_30_f, .-u8g2_m_uc1608_30_f
 1579              		.section	.text.u8g2_m_uc1610_20_1,"ax",%progbits
 1580              		.align	2
 1581              		.global	u8g2_m_uc1610_20_1
 1582              		.code	16
 1583              		.thumb_func
 1584              		.type	u8g2_m_uc1610_20_1, %function
 1585              	u8g2_m_uc1610_20_1:
 1586              	.LFB51:
 312:..\u8g2\csrc/u8g2_d_memory.c **** uint8_t *u8g2_m_uc1610_20_1(uint8_t *page_cnt)
 313:..\u8g2\csrc/u8g2_d_memory.c **** {
 1587              		.loc 1 313 0
 1588              		.cfi_startproc
 1589              		@ args = 0, pretend = 0, frame = 0
 1590              		@ frame_needed = 0, uses_anonymous_args = 0
 1591              		@ link register save eliminated.
 1592              	.LVL102:
 314:..\u8g2\csrc/u8g2_d_memory.c ****   static uint8_t buf[160];
 315:..\u8g2\csrc/u8g2_d_memory.c ****   *page_cnt = 1;
 1593              		.loc 1 315 0
 1594 0000 0123     		movs	r3, #1
 1595 0002 0370     		strb	r3, [r0]
 316:..\u8g2\csrc/u8g2_d_memory.c ****   return buf;
 317:..\u8g2\csrc/u8g2_d_memory.c **** }
 1596              		.loc 1 317 0
 1597 0004 0048     		ldr	r0, .L155
 1598              	.LVL103:
 1599              		@ sp needed
 1600 0006 7047     		bx	lr
 1601              	.L156:
 1602              		.align	2
 1603              	.L155:
 1604 0008 805B0000 		.word	.LANCHOR50
 1605              		.cfi_endproc
 1606              	.LFE51:
 1607              		.size	u8g2_m_uc1610_20_1, .-u8g2_m_uc1610_20_1
 1608              		.section	.text.u8g2_m_uc1610_20_2,"ax",%progbits
 1609              		.align	2
 1610              		.global	u8g2_m_uc1610_20_2
 1611              		.code	16
 1612              		.thumb_func
 1613              		.type	u8g2_m_uc1610_20_2, %function
 1614              	u8g2_m_uc1610_20_2:
 1615              	.LFB52:
 318:..\u8g2\csrc/u8g2_d_memory.c **** uint8_t *u8g2_m_uc1610_20_2(uint8_t *page_cnt)
 319:..\u8g2\csrc/u8g2_d_memory.c **** {
 1616              		.loc 1 319 0
 1617              		.cfi_startproc
 1618              		@ args = 0, pretend = 0, frame = 0
 1619              		@ frame_needed = 0, uses_anonymous_args = 0
ARM GAS  C:\Users\gjl\AppData\Local\Temp\ccNm9gHl.s 			page 35


 1620              		@ link register save eliminated.
 1621              	.LVL104:
 320:..\u8g2\csrc/u8g2_d_memory.c ****   static uint8_t buf[320];
 321:..\u8g2\csrc/u8g2_d_memory.c ****   *page_cnt = 2;
 1622              		.loc 1 321 0
 1623 0000 0223     		movs	r3, #2
 1624 0002 0370     		strb	r3, [r0]
 322:..\u8g2\csrc/u8g2_d_memory.c ****   return buf;
 1625              		.loc 1 322 0
 1626 0004 0148     		ldr	r0, .L158
 1627              	.LVL105:
 323:..\u8g2\csrc/u8g2_d_memory.c **** }
 1628              		.loc 1 323 0
 1629 0006 2030     		adds	r0, r0, #32
 1630              		@ sp needed
 1631 0008 7047     		bx	lr
 1632              	.L159:
 1633 000a C046     		.align	2
 1634              	.L158:
 1635 000c 005C0000 		.word	.LANCHOR51
 1636              		.cfi_endproc
 1637              	.LFE52:
 1638              		.size	u8g2_m_uc1610_20_2, .-u8g2_m_uc1610_20_2
 1639              		.section	.text.u8g2_m_uc1610_20_f,"ax",%progbits
 1640              		.align	2
 1641              		.global	u8g2_m_uc1610_20_f
 1642              		.code	16
 1643              		.thumb_func
 1644              		.type	u8g2_m_uc1610_20_f, %function
 1645              	u8g2_m_uc1610_20_f:
 1646              	.LFB53:
 324:..\u8g2\csrc/u8g2_d_memory.c **** uint8_t *u8g2_m_uc1610_20_f(uint8_t *page_cnt)
 325:..\u8g2\csrc/u8g2_d_memory.c **** {
 1647              		.loc 1 325 0
 1648              		.cfi_startproc
 1649              		@ args = 0, pretend = 0, frame = 0
 1650              		@ frame_needed = 0, uses_anonymous_args = 0
 1651              		@ link register save eliminated.
 1652              	.LVL106:
 326:..\u8g2\csrc/u8g2_d_memory.c ****   static uint8_t buf[2080];
 327:..\u8g2\csrc/u8g2_d_memory.c ****   *page_cnt = 13;
 1653              		.loc 1 327 0
 1654 0000 0D23     		movs	r3, #13
 1655 0002 0370     		strb	r3, [r0]
 328:..\u8g2\csrc/u8g2_d_memory.c ****   return buf;
 1656              		.loc 1 328 0
 1657 0004 0148     		ldr	r0, .L161
 1658              	.LVL107:
 329:..\u8g2\csrc/u8g2_d_memory.c **** }
 1659              		.loc 1 329 0
 1660 0006 6030     		adds	r0, r0, #96
 1661              		@ sp needed
 1662 0008 7047     		bx	lr
 1663              	.L162:
 1664 000a C046     		.align	2
 1665              	.L161:
 1666 000c 005D0000 		.word	.LANCHOR52
ARM GAS  C:\Users\gjl\AppData\Local\Temp\ccNm9gHl.s 			page 36


 1667              		.cfi_endproc
 1668              	.LFE53:
 1669              		.size	u8g2_m_uc1610_20_f, .-u8g2_m_uc1610_20_f
 1670              		.section	.text.u8g2_m_uc1611_30_1,"ax",%progbits
 1671              		.align	2
 1672              		.global	u8g2_m_uc1611_30_1
 1673              		.code	16
 1674              		.thumb_func
 1675              		.type	u8g2_m_uc1611_30_1, %function
 1676              	u8g2_m_uc1611_30_1:
 1677              	.LFB54:
 330:..\u8g2\csrc/u8g2_d_memory.c **** uint8_t *u8g2_m_uc1611_30_1(uint8_t *page_cnt)
 331:..\u8g2\csrc/u8g2_d_memory.c **** {
 1678              		.loc 1 331 0
 1679              		.cfi_startproc
 1680              		@ args = 0, pretend = 0, frame = 0
 1681              		@ frame_needed = 0, uses_anonymous_args = 0
 1682              		@ link register save eliminated.
 1683              	.LVL108:
 332:..\u8g2\csrc/u8g2_d_memory.c ****   static uint8_t buf[240];
 333:..\u8g2\csrc/u8g2_d_memory.c ****   *page_cnt = 1;
 1684              		.loc 1 333 0
 1685 0000 0123     		movs	r3, #1
 1686 0002 0370     		strb	r3, [r0]
 334:..\u8g2\csrc/u8g2_d_memory.c ****   return buf;
 335:..\u8g2\csrc/u8g2_d_memory.c **** }
 1687              		.loc 1 335 0
 1688 0004 0048     		ldr	r0, .L164
 1689              	.LVL109:
 1690              		@ sp needed
 1691 0006 7047     		bx	lr
 1692              	.L165:
 1693              		.align	2
 1694              	.L164:
 1695 0008 80650000 		.word	.LANCHOR53
 1696              		.cfi_endproc
 1697              	.LFE54:
 1698              		.size	u8g2_m_uc1611_30_1, .-u8g2_m_uc1611_30_1
 1699              		.section	.text.u8g2_m_uc1611_30_2,"ax",%progbits
 1700              		.align	2
 1701              		.global	u8g2_m_uc1611_30_2
 1702              		.code	16
 1703              		.thumb_func
 1704              		.type	u8g2_m_uc1611_30_2, %function
 1705              	u8g2_m_uc1611_30_2:
 1706              	.LFB55:
 336:..\u8g2\csrc/u8g2_d_memory.c **** uint8_t *u8g2_m_uc1611_30_2(uint8_t *page_cnt)
 337:..\u8g2\csrc/u8g2_d_memory.c **** {
 1707              		.loc 1 337 0
 1708              		.cfi_startproc
 1709              		@ args = 0, pretend = 0, frame = 0
 1710              		@ frame_needed = 0, uses_anonymous_args = 0
 1711              		@ link register save eliminated.
 1712              	.LVL110:
 338:..\u8g2\csrc/u8g2_d_memory.c ****   static uint8_t buf[480];
 339:..\u8g2\csrc/u8g2_d_memory.c ****   *page_cnt = 2;
 1713              		.loc 1 339 0
ARM GAS  C:\Users\gjl\AppData\Local\Temp\ccNm9gHl.s 			page 37


 1714 0000 0223     		movs	r3, #2
 1715 0002 0370     		strb	r3, [r0]
 340:..\u8g2\csrc/u8g2_d_memory.c ****   return buf;
 1716              		.loc 1 340 0
 1717 0004 0148     		ldr	r0, .L167
 1718              	.LVL111:
 341:..\u8g2\csrc/u8g2_d_memory.c **** }
 1719              		.loc 1 341 0
 1720 0006 7030     		adds	r0, r0, #112
 1721              		@ sp needed
 1722 0008 7047     		bx	lr
 1723              	.L168:
 1724 000a C046     		.align	2
 1725              	.L167:
 1726 000c 00660000 		.word	.LANCHOR54
 1727              		.cfi_endproc
 1728              	.LFE55:
 1729              		.size	u8g2_m_uc1611_30_2, .-u8g2_m_uc1611_30_2
 1730              		.section	.text.u8g2_m_uc1611_30_f,"ax",%progbits
 1731              		.align	2
 1732              		.global	u8g2_m_uc1611_30_f
 1733              		.code	16
 1734              		.thumb_func
 1735              		.type	u8g2_m_uc1611_30_f, %function
 1736              	u8g2_m_uc1611_30_f:
 1737              	.LFB56:
 342:..\u8g2\csrc/u8g2_d_memory.c **** uint8_t *u8g2_m_uc1611_30_f(uint8_t *page_cnt)
 343:..\u8g2\csrc/u8g2_d_memory.c **** {
 1738              		.loc 1 343 0
 1739              		.cfi_startproc
 1740              		@ args = 0, pretend = 0, frame = 0
 1741              		@ frame_needed = 0, uses_anonymous_args = 0
 1742              		@ link register save eliminated.
 1743              	.LVL112:
 344:..\u8g2\csrc/u8g2_d_memory.c ****   static uint8_t buf[1920];
 345:..\u8g2\csrc/u8g2_d_memory.c ****   *page_cnt = 8;
 1744              		.loc 1 345 0
 1745 0000 0823     		movs	r3, #8
 1746 0002 0370     		strb	r3, [r0]
 346:..\u8g2\csrc/u8g2_d_memory.c ****   return buf;
 1747              		.loc 1 346 0
 1748 0004 0148     		ldr	r0, .L170
 1749              	.LVL113:
 347:..\u8g2\csrc/u8g2_d_memory.c **** }
 1750              		.loc 1 347 0
 1751 0006 5030     		adds	r0, r0, #80
 1752              		@ sp needed
 1753 0008 7047     		bx	lr
 1754              	.L171:
 1755 000a C046     		.align	2
 1756              	.L170:
 1757 000c 00680000 		.word	.LANCHOR55
 1758              		.cfi_endproc
 1759              	.LFE56:
 1760              		.size	u8g2_m_uc1611_30_f, .-u8g2_m_uc1611_30_f
 1761              		.section	.text.u8g2_m_st7565_16_1,"ax",%progbits
 1762              		.align	2
ARM GAS  C:\Users\gjl\AppData\Local\Temp\ccNm9gHl.s 			page 38


 1763              		.global	u8g2_m_st7565_16_1
 1764              		.code	16
 1765              		.thumb_func
 1766              		.type	u8g2_m_st7565_16_1, %function
 1767              	u8g2_m_st7565_16_1:
 1768              	.LFB57:
 348:..\u8g2\csrc/u8g2_d_memory.c **** uint8_t *u8g2_m_st7565_16_1(uint8_t *page_cnt)
 349:..\u8g2\csrc/u8g2_d_memory.c **** {
 1769              		.loc 1 349 0
 1770              		.cfi_startproc
 1771              		@ args = 0, pretend = 0, frame = 0
 1772              		@ frame_needed = 0, uses_anonymous_args = 0
 1773              		@ link register save eliminated.
 1774              	.LVL114:
 350:..\u8g2\csrc/u8g2_d_memory.c ****   static uint8_t buf[128];
 351:..\u8g2\csrc/u8g2_d_memory.c ****   *page_cnt = 1;
 1775              		.loc 1 351 0
 1776 0000 0123     		movs	r3, #1
 1777 0002 0370     		strb	r3, [r0]
 352:..\u8g2\csrc/u8g2_d_memory.c ****   return buf;
 1778              		.loc 1 352 0
 1779 0004 0148     		ldr	r0, .L173
 1780              	.LVL115:
 353:..\u8g2\csrc/u8g2_d_memory.c **** }
 1781              		.loc 1 353 0
 1782 0006 5030     		adds	r0, r0, #80
 1783              		@ sp needed
 1784 0008 7047     		bx	lr
 1785              	.L174:
 1786 000a C046     		.align	2
 1787              	.L173:
 1788 000c 806F0000 		.word	.LANCHOR56
 1789              		.cfi_endproc
 1790              	.LFE57:
 1791              		.size	u8g2_m_st7565_16_1, .-u8g2_m_st7565_16_1
 1792              		.section	.text.u8g2_m_st7565_16_2,"ax",%progbits
 1793              		.align	2
 1794              		.global	u8g2_m_st7565_16_2
 1795              		.code	16
 1796              		.thumb_func
 1797              		.type	u8g2_m_st7565_16_2, %function
 1798              	u8g2_m_st7565_16_2:
 1799              	.LFB58:
 354:..\u8g2\csrc/u8g2_d_memory.c **** uint8_t *u8g2_m_st7565_16_2(uint8_t *page_cnt)
 355:..\u8g2\csrc/u8g2_d_memory.c **** {
 1800              		.loc 1 355 0
 1801              		.cfi_startproc
 1802              		@ args = 0, pretend = 0, frame = 0
 1803              		@ frame_needed = 0, uses_anonymous_args = 0
 1804              		@ link register save eliminated.
 1805              	.LVL116:
 356:..\u8g2\csrc/u8g2_d_memory.c ****   static uint8_t buf[256];
 357:..\u8g2\csrc/u8g2_d_memory.c ****   *page_cnt = 2;
 1806              		.loc 1 357 0
 1807 0000 0223     		movs	r3, #2
 1808 0002 0370     		strb	r3, [r0]
 358:..\u8g2\csrc/u8g2_d_memory.c ****   return buf;
ARM GAS  C:\Users\gjl\AppData\Local\Temp\ccNm9gHl.s 			page 39


 1809              		.loc 1 358 0
 1810 0004 0148     		ldr	r0, .L176
 1811              	.LVL117:
 359:..\u8g2\csrc/u8g2_d_memory.c **** }
 1812              		.loc 1 359 0
 1813 0006 5030     		adds	r0, r0, #80
 1814              		@ sp needed
 1815 0008 7047     		bx	lr
 1816              	.L177:
 1817 000a C046     		.align	2
 1818              	.L176:
 1819 000c 00700000 		.word	.LANCHOR57
 1820              		.cfi_endproc
 1821              	.LFE58:
 1822              		.size	u8g2_m_st7565_16_2, .-u8g2_m_st7565_16_2
 1823              		.section	.text.u8g2_m_st7565_16_f,"ax",%progbits
 1824              		.align	2
 1825              		.global	u8g2_m_st7565_16_f
 1826              		.code	16
 1827              		.thumb_func
 1828              		.type	u8g2_m_st7565_16_f, %function
 1829              	u8g2_m_st7565_16_f:
 1830              	.LFB59:
 360:..\u8g2\csrc/u8g2_d_memory.c **** uint8_t *u8g2_m_st7565_16_f(uint8_t *page_cnt)
 361:..\u8g2\csrc/u8g2_d_memory.c **** {
 1831              		.loc 1 361 0
 1832              		.cfi_startproc
 1833              		@ args = 0, pretend = 0, frame = 0
 1834              		@ frame_needed = 0, uses_anonymous_args = 0
 1835              		@ link register save eliminated.
 1836              	.LVL118:
 362:..\u8g2\csrc/u8g2_d_memory.c ****   static uint8_t buf[1024];
 363:..\u8g2\csrc/u8g2_d_memory.c ****   *page_cnt = 8;
 1837              		.loc 1 363 0
 1838 0000 0823     		movs	r3, #8
 1839 0002 0370     		strb	r3, [r0]
 364:..\u8g2\csrc/u8g2_d_memory.c ****   return buf;
 1840              		.loc 1 364 0
 1841 0004 0148     		ldr	r0, .L179
 1842              	.LVL119:
 365:..\u8g2\csrc/u8g2_d_memory.c **** }
 1843              		.loc 1 365 0
 1844 0006 5030     		adds	r0, r0, #80
 1845              		@ sp needed
 1846 0008 7047     		bx	lr
 1847              	.L180:
 1848 000a C046     		.align	2
 1849              	.L179:
 1850 000c 00710000 		.word	.LANCHOR58
 1851              		.cfi_endproc
 1852              	.LFE59:
 1853              		.size	u8g2_m_st7565_16_f, .-u8g2_m_st7565_16_f
 1854              		.section	.text.u8g2_m_st7565_17_1,"ax",%progbits
 1855              		.align	2
 1856              		.global	u8g2_m_st7565_17_1
 1857              		.code	16
 1858              		.thumb_func
ARM GAS  C:\Users\gjl\AppData\Local\Temp\ccNm9gHl.s 			page 40


 1859              		.type	u8g2_m_st7565_17_1, %function
 1860              	u8g2_m_st7565_17_1:
 1861              	.LFB60:
 366:..\u8g2\csrc/u8g2_d_memory.c **** uint8_t *u8g2_m_st7565_17_1(uint8_t *page_cnt)
 367:..\u8g2\csrc/u8g2_d_memory.c **** {
 1862              		.loc 1 367 0
 1863              		.cfi_startproc
 1864              		@ args = 0, pretend = 0, frame = 0
 1865              		@ frame_needed = 0, uses_anonymous_args = 0
 1866              		@ link register save eliminated.
 1867              	.LVL120:
 368:..\u8g2\csrc/u8g2_d_memory.c ****   static uint8_t buf[136];
 369:..\u8g2\csrc/u8g2_d_memory.c ****   *page_cnt = 1;
 1868              		.loc 1 369 0
 1869 0000 0123     		movs	r3, #1
 1870 0002 0370     		strb	r3, [r0]
 370:..\u8g2\csrc/u8g2_d_memory.c ****   return buf;
 1871              		.loc 1 370 0
 1872 0004 0148     		ldr	r0, .L182
 1873              	.LVL121:
 371:..\u8g2\csrc/u8g2_d_memory.c **** }
 1874              		.loc 1 371 0
 1875 0006 5030     		adds	r0, r0, #80
 1876              		@ sp needed
 1877 0008 7047     		bx	lr
 1878              	.L183:
 1879 000a C046     		.align	2
 1880              	.L182:
 1881 000c 00750000 		.word	.LANCHOR59
 1882              		.cfi_endproc
 1883              	.LFE60:
 1884              		.size	u8g2_m_st7565_17_1, .-u8g2_m_st7565_17_1
 1885              		.section	.text.u8g2_m_st7565_17_2,"ax",%progbits
 1886              		.align	2
 1887              		.global	u8g2_m_st7565_17_2
 1888              		.code	16
 1889              		.thumb_func
 1890              		.type	u8g2_m_st7565_17_2, %function
 1891              	u8g2_m_st7565_17_2:
 1892              	.LFB61:
 372:..\u8g2\csrc/u8g2_d_memory.c **** uint8_t *u8g2_m_st7565_17_2(uint8_t *page_cnt)
 373:..\u8g2\csrc/u8g2_d_memory.c **** {
 1893              		.loc 1 373 0
 1894              		.cfi_startproc
 1895              		@ args = 0, pretend = 0, frame = 0
 1896              		@ frame_needed = 0, uses_anonymous_args = 0
 1897              		@ link register save eliminated.
 1898              	.LVL122:
 374:..\u8g2\csrc/u8g2_d_memory.c ****   static uint8_t buf[272];
 375:..\u8g2\csrc/u8g2_d_memory.c ****   *page_cnt = 2;
 1899              		.loc 1 375 0
 1900 0000 0223     		movs	r3, #2
 1901 0002 0370     		strb	r3, [r0]
 376:..\u8g2\csrc/u8g2_d_memory.c ****   return buf;
 1902              		.loc 1 376 0
 1903 0004 0148     		ldr	r0, .L185
 1904              	.LVL123:
ARM GAS  C:\Users\gjl\AppData\Local\Temp\ccNm9gHl.s 			page 41


 377:..\u8g2\csrc/u8g2_d_memory.c **** }
 1905              		.loc 1 377 0
 1906 0006 5830     		adds	r0, r0, #88
 1907              		@ sp needed
 1908 0008 7047     		bx	lr
 1909              	.L186:
 1910 000a C046     		.align	2
 1911              	.L185:
 1912 000c 80750000 		.word	.LANCHOR60
 1913              		.cfi_endproc
 1914              	.LFE61:
 1915              		.size	u8g2_m_st7565_17_2, .-u8g2_m_st7565_17_2
 1916              		.section	.text.u8g2_m_st7565_17_f,"ax",%progbits
 1917              		.align	2
 1918              		.global	u8g2_m_st7565_17_f
 1919              		.code	16
 1920              		.thumb_func
 1921              		.type	u8g2_m_st7565_17_f, %function
 1922              	u8g2_m_st7565_17_f:
 1923              	.LFB62:
 378:..\u8g2\csrc/u8g2_d_memory.c **** uint8_t *u8g2_m_st7565_17_f(uint8_t *page_cnt)
 379:..\u8g2\csrc/u8g2_d_memory.c **** {
 1924              		.loc 1 379 0
 1925              		.cfi_startproc
 1926              		@ args = 0, pretend = 0, frame = 0
 1927              		@ frame_needed = 0, uses_anonymous_args = 0
 1928              		@ link register save eliminated.
 1929              	.LVL124:
 380:..\u8g2\csrc/u8g2_d_memory.c ****   static uint8_t buf[544];
 381:..\u8g2\csrc/u8g2_d_memory.c ****   *page_cnt = 4;
 1930              		.loc 1 381 0
 1931 0000 0423     		movs	r3, #4
 1932 0002 0370     		strb	r3, [r0]
 382:..\u8g2\csrc/u8g2_d_memory.c ****   return buf;
 1933              		.loc 1 382 0
 1934 0004 0148     		ldr	r0, .L188
 1935              	.LVL125:
 383:..\u8g2\csrc/u8g2_d_memory.c **** }
 1936              		.loc 1 383 0
 1937 0006 6830     		adds	r0, r0, #104
 1938              		@ sp needed
 1939 0008 7047     		bx	lr
 1940              	.L189:
 1941 000a C046     		.align	2
 1942              	.L188:
 1943 000c 80760000 		.word	.LANCHOR61
 1944              		.cfi_endproc
 1945              	.LFE62:
 1946              		.size	u8g2_m_st7565_17_f, .-u8g2_m_st7565_17_f
 1947              		.section	.text.u8g2_m_st7567_17_1,"ax",%progbits
 1948              		.align	2
 1949              		.global	u8g2_m_st7567_17_1
 1950              		.code	16
 1951              		.thumb_func
 1952              		.type	u8g2_m_st7567_17_1, %function
 1953              	u8g2_m_st7567_17_1:
 1954              	.LFB63:
ARM GAS  C:\Users\gjl\AppData\Local\Temp\ccNm9gHl.s 			page 42


 384:..\u8g2\csrc/u8g2_d_memory.c **** uint8_t *u8g2_m_st7567_17_1(uint8_t *page_cnt)
 385:..\u8g2\csrc/u8g2_d_memory.c **** {
 1955              		.loc 1 385 0
 1956              		.cfi_startproc
 1957              		@ args = 0, pretend = 0, frame = 0
 1958              		@ frame_needed = 0, uses_anonymous_args = 0
 1959              		@ link register save eliminated.
 1960              	.LVL126:
 386:..\u8g2\csrc/u8g2_d_memory.c ****   static uint8_t buf[136];
 387:..\u8g2\csrc/u8g2_d_memory.c ****   *page_cnt = 1;
 1961              		.loc 1 387 0
 1962 0000 0123     		movs	r3, #1
 1963 0002 0370     		strb	r3, [r0]
 388:..\u8g2\csrc/u8g2_d_memory.c ****   return buf;
 1964              		.loc 1 388 0
 1965 0004 0148     		ldr	r0, .L191
 1966              	.LVL127:
 389:..\u8g2\csrc/u8g2_d_memory.c **** }
 1967              		.loc 1 389 0
 1968 0006 0830     		adds	r0, r0, #8
 1969              		@ sp needed
 1970 0008 7047     		bx	lr
 1971              	.L192:
 1972 000a C046     		.align	2
 1973              	.L191:
 1974 000c 00790000 		.word	.LANCHOR62
 1975              		.cfi_endproc
 1976              	.LFE63:
 1977              		.size	u8g2_m_st7567_17_1, .-u8g2_m_st7567_17_1
 1978              		.section	.text.u8g2_m_st7567_17_2,"ax",%progbits
 1979              		.align	2
 1980              		.global	u8g2_m_st7567_17_2
 1981              		.code	16
 1982              		.thumb_func
 1983              		.type	u8g2_m_st7567_17_2, %function
 1984              	u8g2_m_st7567_17_2:
 1985              	.LFB64:
 390:..\u8g2\csrc/u8g2_d_memory.c **** uint8_t *u8g2_m_st7567_17_2(uint8_t *page_cnt)
 391:..\u8g2\csrc/u8g2_d_memory.c **** {
 1986              		.loc 1 391 0
 1987              		.cfi_startproc
 1988              		@ args = 0, pretend = 0, frame = 0
 1989              		@ frame_needed = 0, uses_anonymous_args = 0
 1990              		@ link register save eliminated.
 1991              	.LVL128:
 392:..\u8g2\csrc/u8g2_d_memory.c ****   static uint8_t buf[272];
 393:..\u8g2\csrc/u8g2_d_memory.c ****   *page_cnt = 2;
 1992              		.loc 1 393 0
 1993 0000 0223     		movs	r3, #2
 1994 0002 0370     		strb	r3, [r0]
 394:..\u8g2\csrc/u8g2_d_memory.c ****   return buf;
 1995              		.loc 1 394 0
 1996 0004 0148     		ldr	r0, .L194
 1997              	.LVL129:
 395:..\u8g2\csrc/u8g2_d_memory.c **** }
 1998              		.loc 1 395 0
 1999 0006 1030     		adds	r0, r0, #16
ARM GAS  C:\Users\gjl\AppData\Local\Temp\ccNm9gHl.s 			page 43


 2000              		@ sp needed
 2001 0008 7047     		bx	lr
 2002              	.L195:
 2003 000a C046     		.align	2
 2004              	.L194:
 2005 000c 80790000 		.word	.LANCHOR63
 2006              		.cfi_endproc
 2007              	.LFE64:
 2008              		.size	u8g2_m_st7567_17_2, .-u8g2_m_st7567_17_2
 2009              		.section	.text.u8g2_m_st7567_17_f,"ax",%progbits
 2010              		.align	2
 2011              		.global	u8g2_m_st7567_17_f
 2012              		.code	16
 2013              		.thumb_func
 2014              		.type	u8g2_m_st7567_17_f, %function
 2015              	u8g2_m_st7567_17_f:
 2016              	.LFB65:
 396:..\u8g2\csrc/u8g2_d_memory.c **** uint8_t *u8g2_m_st7567_17_f(uint8_t *page_cnt)
 397:..\u8g2\csrc/u8g2_d_memory.c **** {
 2017              		.loc 1 397 0
 2018              		.cfi_startproc
 2019              		@ args = 0, pretend = 0, frame = 0
 2020              		@ frame_needed = 0, uses_anonymous_args = 0
 2021              		@ link register save eliminated.
 2022              	.LVL130:
 398:..\u8g2\csrc/u8g2_d_memory.c ****   static uint8_t buf[1088];
 399:..\u8g2\csrc/u8g2_d_memory.c ****   *page_cnt = 8;
 2023              		.loc 1 399 0
 2024 0000 0823     		movs	r3, #8
 2025 0002 0370     		strb	r3, [r0]
 400:..\u8g2\csrc/u8g2_d_memory.c ****   return buf;
 2026              		.loc 1 400 0
 2027 0004 0148     		ldr	r0, .L197
 2028              	.LVL131:
 401:..\u8g2\csrc/u8g2_d_memory.c **** }
 2029              		.loc 1 401 0
 2030 0006 2030     		adds	r0, r0, #32
 2031              		@ sp needed
 2032 0008 7047     		bx	lr
 2033              	.L198:
 2034 000a C046     		.align	2
 2035              	.L197:
 2036 000c 807A0000 		.word	.LANCHOR64
 2037              		.cfi_endproc
 2038              	.LFE65:
 2039              		.size	u8g2_m_st7567_17_f, .-u8g2_m_st7567_17_f
 2040              		.section	.text.u8g2_m_st7588_16_1,"ax",%progbits
 2041              		.align	2
 2042              		.global	u8g2_m_st7588_16_1
 2043              		.code	16
 2044              		.thumb_func
 2045              		.type	u8g2_m_st7588_16_1, %function
 2046              	u8g2_m_st7588_16_1:
 2047              	.LFB66:
 402:..\u8g2\csrc/u8g2_d_memory.c **** uint8_t *u8g2_m_st7588_16_1(uint8_t *page_cnt)
 403:..\u8g2\csrc/u8g2_d_memory.c **** {
 2048              		.loc 1 403 0
ARM GAS  C:\Users\gjl\AppData\Local\Temp\ccNm9gHl.s 			page 44


 2049              		.cfi_startproc
 2050              		@ args = 0, pretend = 0, frame = 0
 2051              		@ frame_needed = 0, uses_anonymous_args = 0
 2052              		@ link register save eliminated.
 2053              	.LVL132:
 404:..\u8g2\csrc/u8g2_d_memory.c ****   static uint8_t buf[128];
 405:..\u8g2\csrc/u8g2_d_memory.c ****   *page_cnt = 1;
 2054              		.loc 1 405 0
 2055 0000 0123     		movs	r3, #1
 2056 0002 0370     		strb	r3, [r0]
 406:..\u8g2\csrc/u8g2_d_memory.c ****   return buf;
 2057              		.loc 1 406 0
 2058 0004 0148     		ldr	r0, .L200
 2059              	.LVL133:
 407:..\u8g2\csrc/u8g2_d_memory.c **** }
 2060              		.loc 1 407 0
 2061 0006 6030     		adds	r0, r0, #96
 2062              		@ sp needed
 2063 0008 7047     		bx	lr
 2064              	.L201:
 2065 000a C046     		.align	2
 2066              	.L200:
 2067 000c 807E0000 		.word	.LANCHOR65
 2068              		.cfi_endproc
 2069              	.LFE66:
 2070              		.size	u8g2_m_st7588_16_1, .-u8g2_m_st7588_16_1
 2071              		.section	.text.u8g2_m_st7588_16_2,"ax",%progbits
 2072              		.align	2
 2073              		.global	u8g2_m_st7588_16_2
 2074              		.code	16
 2075              		.thumb_func
 2076              		.type	u8g2_m_st7588_16_2, %function
 2077              	u8g2_m_st7588_16_2:
 2078              	.LFB67:
 408:..\u8g2\csrc/u8g2_d_memory.c **** uint8_t *u8g2_m_st7588_16_2(uint8_t *page_cnt)
 409:..\u8g2\csrc/u8g2_d_memory.c **** {
 2079              		.loc 1 409 0
 2080              		.cfi_startproc
 2081              		@ args = 0, pretend = 0, frame = 0
 2082              		@ frame_needed = 0, uses_anonymous_args = 0
 2083              		@ link register save eliminated.
 2084              	.LVL134:
 410:..\u8g2\csrc/u8g2_d_memory.c ****   static uint8_t buf[256];
 411:..\u8g2\csrc/u8g2_d_memory.c ****   *page_cnt = 2;
 2085              		.loc 1 411 0
 2086 0000 0223     		movs	r3, #2
 2087 0002 0370     		strb	r3, [r0]
 412:..\u8g2\csrc/u8g2_d_memory.c ****   return buf;
 2088              		.loc 1 412 0
 2089 0004 0148     		ldr	r0, .L203
 2090              	.LVL135:
 413:..\u8g2\csrc/u8g2_d_memory.c **** }
 2091              		.loc 1 413 0
 2092 0006 6030     		adds	r0, r0, #96
 2093              		@ sp needed
 2094 0008 7047     		bx	lr
 2095              	.L204:
ARM GAS  C:\Users\gjl\AppData\Local\Temp\ccNm9gHl.s 			page 45


 2096 000a C046     		.align	2
 2097              	.L203:
 2098 000c 007F0000 		.word	.LANCHOR66
 2099              		.cfi_endproc
 2100              	.LFE67:
 2101              		.size	u8g2_m_st7588_16_2, .-u8g2_m_st7588_16_2
 2102              		.section	.text.u8g2_m_st7588_16_f,"ax",%progbits
 2103              		.align	2
 2104              		.global	u8g2_m_st7588_16_f
 2105              		.code	16
 2106              		.thumb_func
 2107              		.type	u8g2_m_st7588_16_f, %function
 2108              	u8g2_m_st7588_16_f:
 2109              	.LFB68:
 414:..\u8g2\csrc/u8g2_d_memory.c **** uint8_t *u8g2_m_st7588_16_f(uint8_t *page_cnt)
 415:..\u8g2\csrc/u8g2_d_memory.c **** {
 2110              		.loc 1 415 0
 2111              		.cfi_startproc
 2112              		@ args = 0, pretend = 0, frame = 0
 2113              		@ frame_needed = 0, uses_anonymous_args = 0
 2114              		@ link register save eliminated.
 2115              	.LVL136:
 416:..\u8g2\csrc/u8g2_d_memory.c ****   static uint8_t buf[1024];
 417:..\u8g2\csrc/u8g2_d_memory.c ****   *page_cnt = 8;
 2116              		.loc 1 417 0
 2117 0000 0823     		movs	r3, #8
 2118 0002 0370     		strb	r3, [r0]
 418:..\u8g2\csrc/u8g2_d_memory.c ****   return buf;
 2119              		.loc 1 418 0
 2120 0004 0148     		ldr	r0, .L206
 2121              	.LVL137:
 419:..\u8g2\csrc/u8g2_d_memory.c **** }
 2122              		.loc 1 419 0
 2123 0006 6030     		adds	r0, r0, #96
 2124              		@ sp needed
 2125 0008 7047     		bx	lr
 2126              	.L207:
 2127 000a C046     		.align	2
 2128              	.L206:
 2129 000c 00800000 		.word	.LANCHOR67
 2130              		.cfi_endproc
 2131              	.LFE68:
 2132              		.size	u8g2_m_st7588_16_f, .-u8g2_m_st7588_16_f
 2133              		.section	.text.u8g2_m_nt7534_16_1,"ax",%progbits
 2134              		.align	2
 2135              		.global	u8g2_m_nt7534_16_1
 2136              		.code	16
 2137              		.thumb_func
 2138              		.type	u8g2_m_nt7534_16_1, %function
 2139              	u8g2_m_nt7534_16_1:
 2140              	.LFB69:
 420:..\u8g2\csrc/u8g2_d_memory.c **** uint8_t *u8g2_m_nt7534_16_1(uint8_t *page_cnt)
 421:..\u8g2\csrc/u8g2_d_memory.c **** {
 2141              		.loc 1 421 0
 2142              		.cfi_startproc
 2143              		@ args = 0, pretend = 0, frame = 0
 2144              		@ frame_needed = 0, uses_anonymous_args = 0
ARM GAS  C:\Users\gjl\AppData\Local\Temp\ccNm9gHl.s 			page 46


 2145              		@ link register save eliminated.
 2146              	.LVL138:
 422:..\u8g2\csrc/u8g2_d_memory.c ****   static uint8_t buf[128];
 423:..\u8g2\csrc/u8g2_d_memory.c ****   *page_cnt = 1;
 2147              		.loc 1 423 0
 2148 0000 0123     		movs	r3, #1
 2149 0002 0370     		strb	r3, [r0]
 424:..\u8g2\csrc/u8g2_d_memory.c ****   return buf;
 2150              		.loc 1 424 0
 2151 0004 0148     		ldr	r0, .L209
 2152              	.LVL139:
 425:..\u8g2\csrc/u8g2_d_memory.c **** }
 2153              		.loc 1 425 0
 2154 0006 6030     		adds	r0, r0, #96
 2155              		@ sp needed
 2156 0008 7047     		bx	lr
 2157              	.L210:
 2158 000a C046     		.align	2
 2159              	.L209:
 2160 000c 00840000 		.word	.LANCHOR68
 2161              		.cfi_endproc
 2162              	.LFE69:
 2163              		.size	u8g2_m_nt7534_16_1, .-u8g2_m_nt7534_16_1
 2164              		.section	.text.u8g2_m_nt7534_16_2,"ax",%progbits
 2165              		.align	2
 2166              		.global	u8g2_m_nt7534_16_2
 2167              		.code	16
 2168              		.thumb_func
 2169              		.type	u8g2_m_nt7534_16_2, %function
 2170              	u8g2_m_nt7534_16_2:
 2171              	.LFB70:
 426:..\u8g2\csrc/u8g2_d_memory.c **** uint8_t *u8g2_m_nt7534_16_2(uint8_t *page_cnt)
 427:..\u8g2\csrc/u8g2_d_memory.c **** {
 2172              		.loc 1 427 0
 2173              		.cfi_startproc
 2174              		@ args = 0, pretend = 0, frame = 0
 2175              		@ frame_needed = 0, uses_anonymous_args = 0
 2176              		@ link register save eliminated.
 2177              	.LVL140:
 428:..\u8g2\csrc/u8g2_d_memory.c ****   static uint8_t buf[256];
 429:..\u8g2\csrc/u8g2_d_memory.c ****   *page_cnt = 2;
 2178              		.loc 1 429 0
 2179 0000 0223     		movs	r3, #2
 2180 0002 0370     		strb	r3, [r0]
 430:..\u8g2\csrc/u8g2_d_memory.c ****   return buf;
 2181              		.loc 1 430 0
 2182 0004 0148     		ldr	r0, .L212
 2183              	.LVL141:
 431:..\u8g2\csrc/u8g2_d_memory.c **** }
 2184              		.loc 1 431 0
 2185 0006 6030     		adds	r0, r0, #96
 2186              		@ sp needed
 2187 0008 7047     		bx	lr
 2188              	.L213:
 2189 000a C046     		.align	2
 2190              	.L212:
 2191 000c 80840000 		.word	.LANCHOR69
ARM GAS  C:\Users\gjl\AppData\Local\Temp\ccNm9gHl.s 			page 47


 2192              		.cfi_endproc
 2193              	.LFE70:
 2194              		.size	u8g2_m_nt7534_16_2, .-u8g2_m_nt7534_16_2
 2195              		.section	.text.u8g2_m_nt7534_16_f,"ax",%progbits
 2196              		.align	2
 2197              		.global	u8g2_m_nt7534_16_f
 2198              		.code	16
 2199              		.thumb_func
 2200              		.type	u8g2_m_nt7534_16_f, %function
 2201              	u8g2_m_nt7534_16_f:
 2202              	.LFB71:
 432:..\u8g2\csrc/u8g2_d_memory.c **** uint8_t *u8g2_m_nt7534_16_f(uint8_t *page_cnt)
 433:..\u8g2\csrc/u8g2_d_memory.c **** {
 2203              		.loc 1 433 0
 2204              		.cfi_startproc
 2205              		@ args = 0, pretend = 0, frame = 0
 2206              		@ frame_needed = 0, uses_anonymous_args = 0
 2207              		@ link register save eliminated.
 2208              	.LVL142:
 434:..\u8g2\csrc/u8g2_d_memory.c ****   static uint8_t buf[1024];
 435:..\u8g2\csrc/u8g2_d_memory.c ****   *page_cnt = 8;
 2209              		.loc 1 435 0
 2210 0000 0823     		movs	r3, #8
 2211 0002 0370     		strb	r3, [r0]
 436:..\u8g2\csrc/u8g2_d_memory.c ****   return buf;
 2212              		.loc 1 436 0
 2213 0004 0148     		ldr	r0, .L215
 2214              	.LVL143:
 437:..\u8g2\csrc/u8g2_d_memory.c **** }
 2215              		.loc 1 437 0
 2216 0006 6030     		adds	r0, r0, #96
 2217              		@ sp needed
 2218 0008 7047     		bx	lr
 2219              	.L216:
 2220 000a C046     		.align	2
 2221              	.L215:
 2222 000c 80850000 		.word	.LANCHOR70
 2223              		.cfi_endproc
 2224              	.LFE71:
 2225              		.size	u8g2_m_nt7534_16_f, .-u8g2_m_nt7534_16_f
 2226              		.section	.text.u8g2_m_ist3020_24_1,"ax",%progbits
 2227              		.align	2
 2228              		.global	u8g2_m_ist3020_24_1
 2229              		.code	16
 2230              		.thumb_func
 2231              		.type	u8g2_m_ist3020_24_1, %function
 2232              	u8g2_m_ist3020_24_1:
 2233              	.LFB72:
 438:..\u8g2\csrc/u8g2_d_memory.c **** uint8_t *u8g2_m_ist3020_24_1(uint8_t *page_cnt)
 439:..\u8g2\csrc/u8g2_d_memory.c **** {
 2234              		.loc 1 439 0
 2235              		.cfi_startproc
 2236              		@ args = 0, pretend = 0, frame = 0
 2237              		@ frame_needed = 0, uses_anonymous_args = 0
 2238              		@ link register save eliminated.
 2239              	.LVL144:
 440:..\u8g2\csrc/u8g2_d_memory.c ****   static uint8_t buf[192];
ARM GAS  C:\Users\gjl\AppData\Local\Temp\ccNm9gHl.s 			page 48


 441:..\u8g2\csrc/u8g2_d_memory.c ****   *page_cnt = 1;
 2240              		.loc 1 441 0
 2241 0000 0123     		movs	r3, #1
 2242 0002 0370     		strb	r3, [r0]
 442:..\u8g2\csrc/u8g2_d_memory.c ****   return buf;
 2243              		.loc 1 442 0
 2244 0004 0148     		ldr	r0, .L218
 2245              	.LVL145:
 443:..\u8g2\csrc/u8g2_d_memory.c **** }
 2246              		.loc 1 443 0
 2247 0006 6030     		adds	r0, r0, #96
 2248              		@ sp needed
 2249 0008 7047     		bx	lr
 2250              	.L219:
 2251 000a C046     		.align	2
 2252              	.L218:
 2253 000c 80890000 		.word	.LANCHOR71
 2254              		.cfi_endproc
 2255              	.LFE72:
 2256              		.size	u8g2_m_ist3020_24_1, .-u8g2_m_ist3020_24_1
 2257              		.section	.text.u8g2_m_ist3020_24_2,"ax",%progbits
 2258              		.align	2
 2259              		.global	u8g2_m_ist3020_24_2
 2260              		.code	16
 2261              		.thumb_func
 2262              		.type	u8g2_m_ist3020_24_2, %function
 2263              	u8g2_m_ist3020_24_2:
 2264              	.LFB73:
 444:..\u8g2\csrc/u8g2_d_memory.c **** uint8_t *u8g2_m_ist3020_24_2(uint8_t *page_cnt)
 445:..\u8g2\csrc/u8g2_d_memory.c **** {
 2265              		.loc 1 445 0
 2266              		.cfi_startproc
 2267              		@ args = 0, pretend = 0, frame = 0
 2268              		@ frame_needed = 0, uses_anonymous_args = 0
 2269              		@ link register save eliminated.
 2270              	.LVL146:
 446:..\u8g2\csrc/u8g2_d_memory.c ****   static uint8_t buf[384];
 447:..\u8g2\csrc/u8g2_d_memory.c ****   *page_cnt = 2;
 2271              		.loc 1 447 0
 2272 0000 0223     		movs	r3, #2
 2273 0002 0370     		strb	r3, [r0]
 448:..\u8g2\csrc/u8g2_d_memory.c ****   return buf;
 2274              		.loc 1 448 0
 2275 0004 0148     		ldr	r0, .L221
 2276              	.LVL147:
 449:..\u8g2\csrc/u8g2_d_memory.c **** }
 2277              		.loc 1 449 0
 2278 0006 2030     		adds	r0, r0, #32
 2279              		@ sp needed
 2280 0008 7047     		bx	lr
 2281              	.L222:
 2282 000a C046     		.align	2
 2283              	.L221:
 2284 000c 808A0000 		.word	.LANCHOR72
 2285              		.cfi_endproc
 2286              	.LFE73:
 2287              		.size	u8g2_m_ist3020_24_2, .-u8g2_m_ist3020_24_2
ARM GAS  C:\Users\gjl\AppData\Local\Temp\ccNm9gHl.s 			page 49


 2288              		.section	.text.u8g2_m_ist3020_24_f,"ax",%progbits
 2289              		.align	2
 2290              		.global	u8g2_m_ist3020_24_f
 2291              		.code	16
 2292              		.thumb_func
 2293              		.type	u8g2_m_ist3020_24_f, %function
 2294              	u8g2_m_ist3020_24_f:
 2295              	.LFB74:
 450:..\u8g2\csrc/u8g2_d_memory.c **** uint8_t *u8g2_m_ist3020_24_f(uint8_t *page_cnt)
 451:..\u8g2\csrc/u8g2_d_memory.c **** {
 2296              		.loc 1 451 0
 2297              		.cfi_startproc
 2298              		@ args = 0, pretend = 0, frame = 0
 2299              		@ frame_needed = 0, uses_anonymous_args = 0
 2300              		@ link register save eliminated.
 2301              	.LVL148:
 452:..\u8g2\csrc/u8g2_d_memory.c ****   static uint8_t buf[1536];
 453:..\u8g2\csrc/u8g2_d_memory.c ****   *page_cnt = 8;
 2302              		.loc 1 453 0
 2303 0000 0823     		movs	r3, #8
 2304 0002 0370     		strb	r3, [r0]
 454:..\u8g2\csrc/u8g2_d_memory.c ****   return buf;
 2305              		.loc 1 454 0
 2306 0004 0148     		ldr	r0, .L224
 2307              	.LVL149:
 455:..\u8g2\csrc/u8g2_d_memory.c **** }
 2308              		.loc 1 455 0
 2309 0006 2030     		adds	r0, r0, #32
 2310              		@ sp needed
 2311 0008 7047     		bx	lr
 2312              	.L225:
 2313 000a C046     		.align	2
 2314              	.L224:
 2315 000c 008C0000 		.word	.LANCHOR73
 2316              		.cfi_endproc
 2317              	.LFE74:
 2318              		.size	u8g2_m_ist3020_24_f, .-u8g2_m_ist3020_24_f
 2319              		.section	.text.u8g2_m_ks0108_16_1,"ax",%progbits
 2320              		.align	2
 2321              		.global	u8g2_m_ks0108_16_1
 2322              		.code	16
 2323              		.thumb_func
 2324              		.type	u8g2_m_ks0108_16_1, %function
 2325              	u8g2_m_ks0108_16_1:
 2326              	.LFB75:
 456:..\u8g2\csrc/u8g2_d_memory.c **** uint8_t *u8g2_m_ks0108_16_1(uint8_t *page_cnt)
 457:..\u8g2\csrc/u8g2_d_memory.c **** {
 2327              		.loc 1 457 0
 2328              		.cfi_startproc
 2329              		@ args = 0, pretend = 0, frame = 0
 2330              		@ frame_needed = 0, uses_anonymous_args = 0
 2331              		@ link register save eliminated.
 2332              	.LVL150:
 458:..\u8g2\csrc/u8g2_d_memory.c ****   static uint8_t buf[128];
 459:..\u8g2\csrc/u8g2_d_memory.c ****   *page_cnt = 1;
 2333              		.loc 1 459 0
 2334 0000 0123     		movs	r3, #1
ARM GAS  C:\Users\gjl\AppData\Local\Temp\ccNm9gHl.s 			page 50


 2335 0002 0370     		strb	r3, [r0]
 460:..\u8g2\csrc/u8g2_d_memory.c ****   return buf;
 2336              		.loc 1 460 0
 2337 0004 0148     		ldr	r0, .L227
 2338              	.LVL151:
 461:..\u8g2\csrc/u8g2_d_memory.c **** }
 2339              		.loc 1 461 0
 2340 0006 2030     		adds	r0, r0, #32
 2341              		@ sp needed
 2342 0008 7047     		bx	lr
 2343              	.L228:
 2344 000a C046     		.align	2
 2345              	.L227:
 2346 000c 00920000 		.word	.LANCHOR74
 2347              		.cfi_endproc
 2348              	.LFE75:
 2349              		.size	u8g2_m_ks0108_16_1, .-u8g2_m_ks0108_16_1
 2350              		.section	.text.u8g2_m_ks0108_16_2,"ax",%progbits
 2351              		.align	2
 2352              		.global	u8g2_m_ks0108_16_2
 2353              		.code	16
 2354              		.thumb_func
 2355              		.type	u8g2_m_ks0108_16_2, %function
 2356              	u8g2_m_ks0108_16_2:
 2357              	.LFB76:
 462:..\u8g2\csrc/u8g2_d_memory.c **** uint8_t *u8g2_m_ks0108_16_2(uint8_t *page_cnt)
 463:..\u8g2\csrc/u8g2_d_memory.c **** {
 2358              		.loc 1 463 0
 2359              		.cfi_startproc
 2360              		@ args = 0, pretend = 0, frame = 0
 2361              		@ frame_needed = 0, uses_anonymous_args = 0
 2362              		@ link register save eliminated.
 2363              	.LVL152:
 464:..\u8g2\csrc/u8g2_d_memory.c ****   static uint8_t buf[256];
 465:..\u8g2\csrc/u8g2_d_memory.c ****   *page_cnt = 2;
 2364              		.loc 1 465 0
 2365 0000 0223     		movs	r3, #2
 2366 0002 0370     		strb	r3, [r0]
 466:..\u8g2\csrc/u8g2_d_memory.c ****   return buf;
 2367              		.loc 1 466 0
 2368 0004 0148     		ldr	r0, .L230
 2369              	.LVL153:
 467:..\u8g2\csrc/u8g2_d_memory.c **** }
 2370              		.loc 1 467 0
 2371 0006 2030     		adds	r0, r0, #32
 2372              		@ sp needed
 2373 0008 7047     		bx	lr
 2374              	.L231:
 2375 000a C046     		.align	2
 2376              	.L230:
 2377 000c 80920000 		.word	.LANCHOR75
 2378              		.cfi_endproc
 2379              	.LFE76:
 2380              		.size	u8g2_m_ks0108_16_2, .-u8g2_m_ks0108_16_2
 2381              		.section	.text.u8g2_m_ks0108_16_f,"ax",%progbits
 2382              		.align	2
 2383              		.global	u8g2_m_ks0108_16_f
ARM GAS  C:\Users\gjl\AppData\Local\Temp\ccNm9gHl.s 			page 51


 2384              		.code	16
 2385              		.thumb_func
 2386              		.type	u8g2_m_ks0108_16_f, %function
 2387              	u8g2_m_ks0108_16_f:
 2388              	.LFB77:
 468:..\u8g2\csrc/u8g2_d_memory.c **** uint8_t *u8g2_m_ks0108_16_f(uint8_t *page_cnt)
 469:..\u8g2\csrc/u8g2_d_memory.c **** {
 2389              		.loc 1 469 0
 2390              		.cfi_startproc
 2391              		@ args = 0, pretend = 0, frame = 0
 2392              		@ frame_needed = 0, uses_anonymous_args = 0
 2393              		@ link register save eliminated.
 2394              	.LVL154:
 470:..\u8g2\csrc/u8g2_d_memory.c ****   static uint8_t buf[1024];
 471:..\u8g2\csrc/u8g2_d_memory.c ****   *page_cnt = 8;
 2395              		.loc 1 471 0
 2396 0000 0823     		movs	r3, #8
 2397 0002 0370     		strb	r3, [r0]
 472:..\u8g2\csrc/u8g2_d_memory.c ****   return buf;
 2398              		.loc 1 472 0
 2399 0004 0148     		ldr	r0, .L233
 2400              	.LVL155:
 473:..\u8g2\csrc/u8g2_d_memory.c **** }
 2401              		.loc 1 473 0
 2402 0006 2030     		adds	r0, r0, #32
 2403              		@ sp needed
 2404 0008 7047     		bx	lr
 2405              	.L234:
 2406 000a C046     		.align	2
 2407              	.L233:
 2408 000c 80930000 		.word	.LANCHOR76
 2409              		.cfi_endproc
 2410              	.LFE77:
 2411              		.size	u8g2_m_ks0108_16_f, .-u8g2_m_ks0108_16_f
 2412              		.section	.text.u8g2_m_ks0108_24_1,"ax",%progbits
 2413              		.align	2
 2414              		.global	u8g2_m_ks0108_24_1
 2415              		.code	16
 2416              		.thumb_func
 2417              		.type	u8g2_m_ks0108_24_1, %function
 2418              	u8g2_m_ks0108_24_1:
 2419              	.LFB78:
 474:..\u8g2\csrc/u8g2_d_memory.c **** uint8_t *u8g2_m_ks0108_24_1(uint8_t *page_cnt)
 475:..\u8g2\csrc/u8g2_d_memory.c **** {
 2420              		.loc 1 475 0
 2421              		.cfi_startproc
 2422              		@ args = 0, pretend = 0, frame = 0
 2423              		@ frame_needed = 0, uses_anonymous_args = 0
 2424              		@ link register save eliminated.
 2425              	.LVL156:
 476:..\u8g2\csrc/u8g2_d_memory.c ****   static uint8_t buf[192];
 477:..\u8g2\csrc/u8g2_d_memory.c ****   *page_cnt = 1;
 2426              		.loc 1 477 0
 2427 0000 0123     		movs	r3, #1
 2428 0002 0370     		strb	r3, [r0]
 478:..\u8g2\csrc/u8g2_d_memory.c ****   return buf;
 2429              		.loc 1 478 0
ARM GAS  C:\Users\gjl\AppData\Local\Temp\ccNm9gHl.s 			page 52


 2430 0004 0148     		ldr	r0, .L236
 2431              	.LVL157:
 479:..\u8g2\csrc/u8g2_d_memory.c **** }
 2432              		.loc 1 479 0
 2433 0006 2030     		adds	r0, r0, #32
 2434              		@ sp needed
 2435 0008 7047     		bx	lr
 2436              	.L237:
 2437 000a C046     		.align	2
 2438              	.L236:
 2439 000c 80970000 		.word	.LANCHOR77
 2440              		.cfi_endproc
 2441              	.LFE78:
 2442              		.size	u8g2_m_ks0108_24_1, .-u8g2_m_ks0108_24_1
 2443              		.section	.text.u8g2_m_ks0108_24_2,"ax",%progbits
 2444              		.align	2
 2445              		.global	u8g2_m_ks0108_24_2
 2446              		.code	16
 2447              		.thumb_func
 2448              		.type	u8g2_m_ks0108_24_2, %function
 2449              	u8g2_m_ks0108_24_2:
 2450              	.LFB79:
 480:..\u8g2\csrc/u8g2_d_memory.c **** uint8_t *u8g2_m_ks0108_24_2(uint8_t *page_cnt)
 481:..\u8g2\csrc/u8g2_d_memory.c **** {
 2451              		.loc 1 481 0
 2452              		.cfi_startproc
 2453              		@ args = 0, pretend = 0, frame = 0
 2454              		@ frame_needed = 0, uses_anonymous_args = 0
 2455              		@ link register save eliminated.
 2456              	.LVL158:
 482:..\u8g2\csrc/u8g2_d_memory.c ****   static uint8_t buf[384];
 483:..\u8g2\csrc/u8g2_d_memory.c ****   *page_cnt = 2;
 2457              		.loc 1 483 0
 2458 0000 0223     		movs	r3, #2
 2459 0002 0370     		strb	r3, [r0]
 484:..\u8g2\csrc/u8g2_d_memory.c ****   return buf;
 2460              		.loc 1 484 0
 2461 0004 0148     		ldr	r0, .L239
 2462              	.LVL159:
 485:..\u8g2\csrc/u8g2_d_memory.c **** }
 2463              		.loc 1 485 0
 2464 0006 6030     		adds	r0, r0, #96
 2465              		@ sp needed
 2466 0008 7047     		bx	lr
 2467              	.L240:
 2468 000a C046     		.align	2
 2469              	.L239:
 2470 000c 00980000 		.word	.LANCHOR78
 2471              		.cfi_endproc
 2472              	.LFE79:
 2473              		.size	u8g2_m_ks0108_24_2, .-u8g2_m_ks0108_24_2
 2474              		.section	.text.u8g2_m_ks0108_24_f,"ax",%progbits
 2475              		.align	2
 2476              		.global	u8g2_m_ks0108_24_f
 2477              		.code	16
 2478              		.thumb_func
 2479              		.type	u8g2_m_ks0108_24_f, %function
ARM GAS  C:\Users\gjl\AppData\Local\Temp\ccNm9gHl.s 			page 53


 2480              	u8g2_m_ks0108_24_f:
 2481              	.LFB80:
 486:..\u8g2\csrc/u8g2_d_memory.c **** uint8_t *u8g2_m_ks0108_24_f(uint8_t *page_cnt)
 487:..\u8g2\csrc/u8g2_d_memory.c **** {
 2482              		.loc 1 487 0
 2483              		.cfi_startproc
 2484              		@ args = 0, pretend = 0, frame = 0
 2485              		@ frame_needed = 0, uses_anonymous_args = 0
 2486              		@ link register save eliminated.
 2487              	.LVL160:
 488:..\u8g2\csrc/u8g2_d_memory.c ****   static uint8_t buf[1536];
 489:..\u8g2\csrc/u8g2_d_memory.c ****   *page_cnt = 8;
 2488              		.loc 1 489 0
 2489 0000 0823     		movs	r3, #8
 2490 0002 0370     		strb	r3, [r0]
 490:..\u8g2\csrc/u8g2_d_memory.c ****   return buf;
 2491              		.loc 1 490 0
 2492 0004 0148     		ldr	r0, .L242
 2493              	.LVL161:
 491:..\u8g2\csrc/u8g2_d_memory.c **** }
 2494              		.loc 1 491 0
 2495 0006 6030     		adds	r0, r0, #96
 2496              		@ sp needed
 2497 0008 7047     		bx	lr
 2498              	.L243:
 2499 000a C046     		.align	2
 2500              	.L242:
 2501 000c 80990000 		.word	.LANCHOR79
 2502              		.cfi_endproc
 2503              	.LFE80:
 2504              		.size	u8g2_m_ks0108_24_f, .-u8g2_m_ks0108_24_f
 2505              		.section	.text.u8g2_m_lc7981_20_1,"ax",%progbits
 2506              		.align	2
 2507              		.global	u8g2_m_lc7981_20_1
 2508              		.code	16
 2509              		.thumb_func
 2510              		.type	u8g2_m_lc7981_20_1, %function
 2511              	u8g2_m_lc7981_20_1:
 2512              	.LFB81:
 492:..\u8g2\csrc/u8g2_d_memory.c **** uint8_t *u8g2_m_lc7981_20_1(uint8_t *page_cnt)
 493:..\u8g2\csrc/u8g2_d_memory.c **** {
 2513              		.loc 1 493 0
 2514              		.cfi_startproc
 2515              		@ args = 0, pretend = 0, frame = 0
 2516              		@ frame_needed = 0, uses_anonymous_args = 0
 2517              		@ link register save eliminated.
 2518              	.LVL162:
 494:..\u8g2\csrc/u8g2_d_memory.c ****   static uint8_t buf[160];
 495:..\u8g2\csrc/u8g2_d_memory.c ****   *page_cnt = 1;
 2519              		.loc 1 495 0
 2520 0000 0123     		movs	r3, #1
 2521 0002 0370     		strb	r3, [r0]
 496:..\u8g2\csrc/u8g2_d_memory.c ****   return buf;
 2522              		.loc 1 496 0
 2523 0004 0148     		ldr	r0, .L245
 2524              	.LVL163:
 497:..\u8g2\csrc/u8g2_d_memory.c **** }
ARM GAS  C:\Users\gjl\AppData\Local\Temp\ccNm9gHl.s 			page 54


 2525              		.loc 1 497 0
 2526 0006 6030     		adds	r0, r0, #96
 2527              		@ sp needed
 2528 0008 7047     		bx	lr
 2529              	.L246:
 2530 000a C046     		.align	2
 2531              	.L245:
 2532 000c 809F0000 		.word	.LANCHOR80
 2533              		.cfi_endproc
 2534              	.LFE81:
 2535              		.size	u8g2_m_lc7981_20_1, .-u8g2_m_lc7981_20_1
 2536              		.section	.text.u8g2_m_lc7981_20_2,"ax",%progbits
 2537              		.align	2
 2538              		.global	u8g2_m_lc7981_20_2
 2539              		.code	16
 2540              		.thumb_func
 2541              		.type	u8g2_m_lc7981_20_2, %function
 2542              	u8g2_m_lc7981_20_2:
 2543              	.LFB82:
 498:..\u8g2\csrc/u8g2_d_memory.c **** uint8_t *u8g2_m_lc7981_20_2(uint8_t *page_cnt)
 499:..\u8g2\csrc/u8g2_d_memory.c **** {
 2544              		.loc 1 499 0
 2545              		.cfi_startproc
 2546              		@ args = 0, pretend = 0, frame = 0
 2547              		@ frame_needed = 0, uses_anonymous_args = 0
 2548              		@ link register save eliminated.
 2549              	.LVL164:
 500:..\u8g2\csrc/u8g2_d_memory.c ****   static uint8_t buf[320];
 501:..\u8g2\csrc/u8g2_d_memory.c ****   *page_cnt = 2;
 2550              		.loc 1 501 0
 2551 0000 0223     		movs	r3, #2
 2552 0002 0370     		strb	r3, [r0]
 502:..\u8g2\csrc/u8g2_d_memory.c ****   return buf;
 503:..\u8g2\csrc/u8g2_d_memory.c **** }
 2553              		.loc 1 503 0
 2554 0004 0048     		ldr	r0, .L248
 2555              	.LVL165:
 2556              		@ sp needed
 2557 0006 7047     		bx	lr
 2558              	.L249:
 2559              		.align	2
 2560              	.L248:
 2561 0008 80A00000 		.word	.LANCHOR81
 2562              		.cfi_endproc
 2563              	.LFE82:
 2564              		.size	u8g2_m_lc7981_20_2, .-u8g2_m_lc7981_20_2
 2565              		.section	.text.u8g2_m_lc7981_20_f,"ax",%progbits
 2566              		.align	2
 2567              		.global	u8g2_m_lc7981_20_f
 2568              		.code	16
 2569              		.thumb_func
 2570              		.type	u8g2_m_lc7981_20_f, %function
 2571              	u8g2_m_lc7981_20_f:
 2572              	.LFB83:
 504:..\u8g2\csrc/u8g2_d_memory.c **** uint8_t *u8g2_m_lc7981_20_f(uint8_t *page_cnt)
 505:..\u8g2\csrc/u8g2_d_memory.c **** {
 2573              		.loc 1 505 0
ARM GAS  C:\Users\gjl\AppData\Local\Temp\ccNm9gHl.s 			page 55


 2574              		.cfi_startproc
 2575              		@ args = 0, pretend = 0, frame = 0
 2576              		@ frame_needed = 0, uses_anonymous_args = 0
 2577              		@ link register save eliminated.
 2578              	.LVL166:
 506:..\u8g2\csrc/u8g2_d_memory.c ****   static uint8_t buf[1600];
 507:..\u8g2\csrc/u8g2_d_memory.c ****   *page_cnt = 10;
 2579              		.loc 1 507 0
 2580 0000 0A23     		movs	r3, #10
 2581 0002 0370     		strb	r3, [r0]
 508:..\u8g2\csrc/u8g2_d_memory.c ****   return buf;
 2582              		.loc 1 508 0
 2583 0004 0148     		ldr	r0, .L251
 2584              	.LVL167:
 509:..\u8g2\csrc/u8g2_d_memory.c **** }
 2585              		.loc 1 509 0
 2586 0006 4030     		adds	r0, r0, #64
 2587              		@ sp needed
 2588 0008 7047     		bx	lr
 2589              	.L252:
 2590 000a C046     		.align	2
 2591              	.L251:
 2592 000c 80A10000 		.word	.LANCHOR82
 2593              		.cfi_endproc
 2594              	.LFE83:
 2595              		.size	u8g2_m_lc7981_20_f, .-u8g2_m_lc7981_20_f
 2596              		.section	.text.u8g2_m_lc7981_30_1,"ax",%progbits
 2597              		.align	2
 2598              		.global	u8g2_m_lc7981_30_1
 2599              		.code	16
 2600              		.thumb_func
 2601              		.type	u8g2_m_lc7981_30_1, %function
 2602              	u8g2_m_lc7981_30_1:
 2603              	.LFB84:
 510:..\u8g2\csrc/u8g2_d_memory.c **** uint8_t *u8g2_m_lc7981_30_1(uint8_t *page_cnt)
 511:..\u8g2\csrc/u8g2_d_memory.c **** {
 2604              		.loc 1 511 0
 2605              		.cfi_startproc
 2606              		@ args = 0, pretend = 0, frame = 0
 2607              		@ frame_needed = 0, uses_anonymous_args = 0
 2608              		@ link register save eliminated.
 2609              	.LVL168:
 512:..\u8g2\csrc/u8g2_d_memory.c ****   static uint8_t buf[240];
 513:..\u8g2\csrc/u8g2_d_memory.c ****   *page_cnt = 1;
 2610              		.loc 1 513 0
 2611 0000 0123     		movs	r3, #1
 2612 0002 0370     		strb	r3, [r0]
 514:..\u8g2\csrc/u8g2_d_memory.c ****   return buf;
 515:..\u8g2\csrc/u8g2_d_memory.c **** }
 2613              		.loc 1 515 0
 2614 0004 0048     		ldr	r0, .L254
 2615              	.LVL169:
 2616              		@ sp needed
 2617 0006 7047     		bx	lr
 2618              	.L255:
 2619              		.align	2
 2620              	.L254:
ARM GAS  C:\Users\gjl\AppData\Local\Temp\ccNm9gHl.s 			page 56


 2621 0008 00A80000 		.word	.LANCHOR83
 2622              		.cfi_endproc
 2623              	.LFE84:
 2624              		.size	u8g2_m_lc7981_30_1, .-u8g2_m_lc7981_30_1
 2625              		.section	.text.u8g2_m_lc7981_30_2,"ax",%progbits
 2626              		.align	2
 2627              		.global	u8g2_m_lc7981_30_2
 2628              		.code	16
 2629              		.thumb_func
 2630              		.type	u8g2_m_lc7981_30_2, %function
 2631              	u8g2_m_lc7981_30_2:
 2632              	.LFB85:
 516:..\u8g2\csrc/u8g2_d_memory.c **** uint8_t *u8g2_m_lc7981_30_2(uint8_t *page_cnt)
 517:..\u8g2\csrc/u8g2_d_memory.c **** {
 2633              		.loc 1 517 0
 2634              		.cfi_startproc
 2635              		@ args = 0, pretend = 0, frame = 0
 2636              		@ frame_needed = 0, uses_anonymous_args = 0
 2637              		@ link register save eliminated.
 2638              	.LVL170:
 518:..\u8g2\csrc/u8g2_d_memory.c ****   static uint8_t buf[480];
 519:..\u8g2\csrc/u8g2_d_memory.c ****   *page_cnt = 2;
 2639              		.loc 1 519 0
 2640 0000 0223     		movs	r3, #2
 2641 0002 0370     		strb	r3, [r0]
 520:..\u8g2\csrc/u8g2_d_memory.c ****   return buf;
 2642              		.loc 1 520 0
 2643 0004 0148     		ldr	r0, .L257
 2644              	.LVL171:
 521:..\u8g2\csrc/u8g2_d_memory.c **** }
 2645              		.loc 1 521 0
 2646 0006 7030     		adds	r0, r0, #112
 2647              		@ sp needed
 2648 0008 7047     		bx	lr
 2649              	.L258:
 2650 000a C046     		.align	2
 2651              	.L257:
 2652 000c 80A80000 		.word	.LANCHOR84
 2653              		.cfi_endproc
 2654              	.LFE85:
 2655              		.size	u8g2_m_lc7981_30_2, .-u8g2_m_lc7981_30_2
 2656              		.section	.text.u8g2_m_lc7981_30_f,"ax",%progbits
 2657              		.align	2
 2658              		.global	u8g2_m_lc7981_30_f
 2659              		.code	16
 2660              		.thumb_func
 2661              		.type	u8g2_m_lc7981_30_f, %function
 2662              	u8g2_m_lc7981_30_f:
 2663              	.LFB86:
 522:..\u8g2\csrc/u8g2_d_memory.c **** uint8_t *u8g2_m_lc7981_30_f(uint8_t *page_cnt)
 523:..\u8g2\csrc/u8g2_d_memory.c **** {
 2664              		.loc 1 523 0
 2665              		.cfi_startproc
 2666              		@ args = 0, pretend = 0, frame = 0
 2667              		@ frame_needed = 0, uses_anonymous_args = 0
 2668              		@ link register save eliminated.
 2669              	.LVL172:
ARM GAS  C:\Users\gjl\AppData\Local\Temp\ccNm9gHl.s 			page 57


 524:..\u8g2\csrc/u8g2_d_memory.c ****   static uint8_t buf[3840];
 525:..\u8g2\csrc/u8g2_d_memory.c ****   *page_cnt = 16;
 2670              		.loc 1 525 0
 2671 0000 1023     		movs	r3, #16
 2672 0002 0370     		strb	r3, [r0]
 526:..\u8g2\csrc/u8g2_d_memory.c ****   return buf;
 2673              		.loc 1 526 0
 2674 0004 0148     		ldr	r0, .L260
 2675              	.LVL173:
 527:..\u8g2\csrc/u8g2_d_memory.c **** }
 2676              		.loc 1 527 0
 2677 0006 5030     		adds	r0, r0, #80
 2678              		@ sp needed
 2679 0008 7047     		bx	lr
 2680              	.L261:
 2681 000a C046     		.align	2
 2682              	.L260:
 2683 000c 80AA0000 		.word	.LANCHOR85
 2684              		.cfi_endproc
 2685              	.LFE86:
 2686              		.size	u8g2_m_lc7981_30_f, .-u8g2_m_lc7981_30_f
 2687              		.section	.text.u8g2_m_t6963_30_1,"ax",%progbits
 2688              		.align	2
 2689              		.global	u8g2_m_t6963_30_1
 2690              		.code	16
 2691              		.thumb_func
 2692              		.type	u8g2_m_t6963_30_1, %function
 2693              	u8g2_m_t6963_30_1:
 2694              	.LFB87:
 528:..\u8g2\csrc/u8g2_d_memory.c **** uint8_t *u8g2_m_t6963_30_1(uint8_t *page_cnt)
 529:..\u8g2\csrc/u8g2_d_memory.c **** {
 2695              		.loc 1 529 0
 2696              		.cfi_startproc
 2697              		@ args = 0, pretend = 0, frame = 0
 2698              		@ frame_needed = 0, uses_anonymous_args = 0
 2699              		@ link register save eliminated.
 2700              	.LVL174:
 530:..\u8g2\csrc/u8g2_d_memory.c ****   static uint8_t buf[240];
 531:..\u8g2\csrc/u8g2_d_memory.c ****   *page_cnt = 1;
 2701              		.loc 1 531 0
 2702 0000 0123     		movs	r3, #1
 2703 0002 0370     		strb	r3, [r0]
 532:..\u8g2\csrc/u8g2_d_memory.c ****   return buf;
 2704              		.loc 1 532 0
 2705 0004 0148     		ldr	r0, .L263
 2706              	.LVL175:
 533:..\u8g2\csrc/u8g2_d_memory.c **** }
 2707              		.loc 1 533 0
 2708 0006 5030     		adds	r0, r0, #80
 2709              		@ sp needed
 2710 0008 7047     		bx	lr
 2711              	.L264:
 2712 000a C046     		.align	2
 2713              	.L263:
 2714 000c 80B90000 		.word	.LANCHOR86
 2715              		.cfi_endproc
 2716              	.LFE87:
ARM GAS  C:\Users\gjl\AppData\Local\Temp\ccNm9gHl.s 			page 58


 2717              		.size	u8g2_m_t6963_30_1, .-u8g2_m_t6963_30_1
 2718              		.section	.text.u8g2_m_t6963_30_2,"ax",%progbits
 2719              		.align	2
 2720              		.global	u8g2_m_t6963_30_2
 2721              		.code	16
 2722              		.thumb_func
 2723              		.type	u8g2_m_t6963_30_2, %function
 2724              	u8g2_m_t6963_30_2:
 2725              	.LFB88:
 534:..\u8g2\csrc/u8g2_d_memory.c **** uint8_t *u8g2_m_t6963_30_2(uint8_t *page_cnt)
 535:..\u8g2\csrc/u8g2_d_memory.c **** {
 2726              		.loc 1 535 0
 2727              		.cfi_startproc
 2728              		@ args = 0, pretend = 0, frame = 0
 2729              		@ frame_needed = 0, uses_anonymous_args = 0
 2730              		@ link register save eliminated.
 2731              	.LVL176:
 536:..\u8g2\csrc/u8g2_d_memory.c ****   static uint8_t buf[480];
 537:..\u8g2\csrc/u8g2_d_memory.c ****   *page_cnt = 2;
 2732              		.loc 1 537 0
 2733 0000 0223     		movs	r3, #2
 2734 0002 0370     		strb	r3, [r0]
 538:..\u8g2\csrc/u8g2_d_memory.c ****   return buf;
 2735              		.loc 1 538 0
 2736 0004 0148     		ldr	r0, .L266
 2737              	.LVL177:
 539:..\u8g2\csrc/u8g2_d_memory.c **** }
 2738              		.loc 1 539 0
 2739 0006 4030     		adds	r0, r0, #64
 2740              		@ sp needed
 2741 0008 7047     		bx	lr
 2742              	.L267:
 2743 000a C046     		.align	2
 2744              	.L266:
 2745 000c 80BA0000 		.word	.LANCHOR87
 2746              		.cfi_endproc
 2747              	.LFE88:
 2748              		.size	u8g2_m_t6963_30_2, .-u8g2_m_t6963_30_2
 2749              		.section	.text.u8g2_m_t6963_30_f,"ax",%progbits
 2750              		.align	2
 2751              		.global	u8g2_m_t6963_30_f
 2752              		.code	16
 2753              		.thumb_func
 2754              		.type	u8g2_m_t6963_30_f, %function
 2755              	u8g2_m_t6963_30_f:
 2756              	.LFB89:
 540:..\u8g2\csrc/u8g2_d_memory.c **** uint8_t *u8g2_m_t6963_30_f(uint8_t *page_cnt)
 541:..\u8g2\csrc/u8g2_d_memory.c **** {
 2757              		.loc 1 541 0
 2758              		.cfi_startproc
 2759              		@ args = 0, pretend = 0, frame = 0
 2760              		@ frame_needed = 0, uses_anonymous_args = 0
 2761              		@ link register save eliminated.
 2762              	.LVL178:
 542:..\u8g2\csrc/u8g2_d_memory.c ****   static uint8_t buf[3840];
 543:..\u8g2\csrc/u8g2_d_memory.c ****   *page_cnt = 16;
 2763              		.loc 1 543 0
ARM GAS  C:\Users\gjl\AppData\Local\Temp\ccNm9gHl.s 			page 59


 2764 0000 1023     		movs	r3, #16
 2765 0002 0370     		strb	r3, [r0]
 544:..\u8g2\csrc/u8g2_d_memory.c ****   return buf;
 2766              		.loc 1 544 0
 2767 0004 0148     		ldr	r0, .L269
 2768              	.LVL179:
 545:..\u8g2\csrc/u8g2_d_memory.c **** }
 2769              		.loc 1 545 0
 2770 0006 2030     		adds	r0, r0, #32
 2771              		@ sp needed
 2772 0008 7047     		bx	lr
 2773              	.L270:
 2774 000a C046     		.align	2
 2775              	.L269:
 2776 000c 80BC0000 		.word	.LANCHOR88
 2777              		.cfi_endproc
 2778              	.LFE89:
 2779              		.size	u8g2_m_t6963_30_f, .-u8g2_m_t6963_30_f
 2780              		.section	.text.u8g2_m_t6963_32_1,"ax",%progbits
 2781              		.align	2
 2782              		.global	u8g2_m_t6963_32_1
 2783              		.code	16
 2784              		.thumb_func
 2785              		.type	u8g2_m_t6963_32_1, %function
 2786              	u8g2_m_t6963_32_1:
 2787              	.LFB90:
 546:..\u8g2\csrc/u8g2_d_memory.c **** uint8_t *u8g2_m_t6963_32_1(uint8_t *page_cnt)
 547:..\u8g2\csrc/u8g2_d_memory.c **** {
 2788              		.loc 1 547 0
 2789              		.cfi_startproc
 2790              		@ args = 0, pretend = 0, frame = 0
 2791              		@ frame_needed = 0, uses_anonymous_args = 0
 2792              		@ link register save eliminated.
 2793              	.LVL180:
 548:..\u8g2\csrc/u8g2_d_memory.c ****   static uint8_t buf[256];
 549:..\u8g2\csrc/u8g2_d_memory.c ****   *page_cnt = 1;
 2794              		.loc 1 549 0
 2795 0000 0123     		movs	r3, #1
 2796 0002 0370     		strb	r3, [r0]
 550:..\u8g2\csrc/u8g2_d_memory.c ****   return buf;
 2797              		.loc 1 550 0
 2798 0004 0148     		ldr	r0, .L272
 2799              	.LVL181:
 551:..\u8g2\csrc/u8g2_d_memory.c **** }
 2800              		.loc 1 551 0
 2801 0006 2030     		adds	r0, r0, #32
 2802              		@ sp needed
 2803 0008 7047     		bx	lr
 2804              	.L273:
 2805 000a C046     		.align	2
 2806              	.L272:
 2807 000c 80CB0000 		.word	.LANCHOR89
 2808              		.cfi_endproc
 2809              	.LFE90:
 2810              		.size	u8g2_m_t6963_32_1, .-u8g2_m_t6963_32_1
 2811              		.section	.text.u8g2_m_t6963_32_2,"ax",%progbits
 2812              		.align	2
ARM GAS  C:\Users\gjl\AppData\Local\Temp\ccNm9gHl.s 			page 60


 2813              		.global	u8g2_m_t6963_32_2
 2814              		.code	16
 2815              		.thumb_func
 2816              		.type	u8g2_m_t6963_32_2, %function
 2817              	u8g2_m_t6963_32_2:
 2818              	.LFB91:
 552:..\u8g2\csrc/u8g2_d_memory.c **** uint8_t *u8g2_m_t6963_32_2(uint8_t *page_cnt)
 553:..\u8g2\csrc/u8g2_d_memory.c **** {
 2819              		.loc 1 553 0
 2820              		.cfi_startproc
 2821              		@ args = 0, pretend = 0, frame = 0
 2822              		@ frame_needed = 0, uses_anonymous_args = 0
 2823              		@ link register save eliminated.
 2824              	.LVL182:
 554:..\u8g2\csrc/u8g2_d_memory.c ****   static uint8_t buf[512];
 555:..\u8g2\csrc/u8g2_d_memory.c ****   *page_cnt = 2;
 2825              		.loc 1 555 0
 2826 0000 0223     		movs	r3, #2
 2827 0002 0370     		strb	r3, [r0]
 556:..\u8g2\csrc/u8g2_d_memory.c ****   return buf;
 2828              		.loc 1 556 0
 2829 0004 0148     		ldr	r0, .L275
 2830              	.LVL183:
 557:..\u8g2\csrc/u8g2_d_memory.c **** }
 2831              		.loc 1 557 0
 2832 0006 2030     		adds	r0, r0, #32
 2833              		@ sp needed
 2834 0008 7047     		bx	lr
 2835              	.L276:
 2836 000a C046     		.align	2
 2837              	.L275:
 2838 000c 80CC0000 		.word	.LANCHOR90
 2839              		.cfi_endproc
 2840              	.LFE91:
 2841              		.size	u8g2_m_t6963_32_2, .-u8g2_m_t6963_32_2
 2842              		.section	.text.u8g2_m_t6963_32_f,"ax",%progbits
 2843              		.align	2
 2844              		.global	u8g2_m_t6963_32_f
 2845              		.code	16
 2846              		.thumb_func
 2847              		.type	u8g2_m_t6963_32_f, %function
 2848              	u8g2_m_t6963_32_f:
 2849              	.LFB92:
 558:..\u8g2\csrc/u8g2_d_memory.c **** uint8_t *u8g2_m_t6963_32_f(uint8_t *page_cnt)
 559:..\u8g2\csrc/u8g2_d_memory.c **** {
 2850              		.loc 1 559 0
 2851              		.cfi_startproc
 2852              		@ args = 0, pretend = 0, frame = 0
 2853              		@ frame_needed = 0, uses_anonymous_args = 0
 2854              		@ link register save eliminated.
 2855              	.LVL184:
 560:..\u8g2\csrc/u8g2_d_memory.c ****   static uint8_t buf[2048];
 561:..\u8g2\csrc/u8g2_d_memory.c ****   *page_cnt = 8;
 2856              		.loc 1 561 0
 2857 0000 0823     		movs	r3, #8
 2858 0002 0370     		strb	r3, [r0]
 562:..\u8g2\csrc/u8g2_d_memory.c ****   return buf;
ARM GAS  C:\Users\gjl\AppData\Local\Temp\ccNm9gHl.s 			page 61


 2859              		.loc 1 562 0
 2860 0004 0148     		ldr	r0, .L278
 2861              	.LVL185:
 563:..\u8g2\csrc/u8g2_d_memory.c **** }
 2862              		.loc 1 563 0
 2863 0006 2030     		adds	r0, r0, #32
 2864              		@ sp needed
 2865 0008 7047     		bx	lr
 2866              	.L279:
 2867 000a C046     		.align	2
 2868              	.L278:
 2869 000c 80CE0000 		.word	.LANCHOR91
 2870              		.cfi_endproc
 2871              	.LFE92:
 2872              		.size	u8g2_m_t6963_32_f, .-u8g2_m_t6963_32_f
 2873              		.section	.text.u8g2_m_t6963_16_1,"ax",%progbits
 2874              		.align	2
 2875              		.global	u8g2_m_t6963_16_1
 2876              		.code	16
 2877              		.thumb_func
 2878              		.type	u8g2_m_t6963_16_1, %function
 2879              	u8g2_m_t6963_16_1:
 2880              	.LFB93:
 564:..\u8g2\csrc/u8g2_d_memory.c **** uint8_t *u8g2_m_t6963_16_1(uint8_t *page_cnt)
 565:..\u8g2\csrc/u8g2_d_memory.c **** {
 2881              		.loc 1 565 0
 2882              		.cfi_startproc
 2883              		@ args = 0, pretend = 0, frame = 0
 2884              		@ frame_needed = 0, uses_anonymous_args = 0
 2885              		@ link register save eliminated.
 2886              	.LVL186:
 566:..\u8g2\csrc/u8g2_d_memory.c ****   static uint8_t buf[128];
 567:..\u8g2\csrc/u8g2_d_memory.c ****   *page_cnt = 1;
 2887              		.loc 1 567 0
 2888 0000 0123     		movs	r3, #1
 2889 0002 0370     		strb	r3, [r0]
 568:..\u8g2\csrc/u8g2_d_memory.c ****   return buf;
 2890              		.loc 1 568 0
 2891 0004 0148     		ldr	r0, .L281
 2892              	.LVL187:
 569:..\u8g2\csrc/u8g2_d_memory.c **** }
 2893              		.loc 1 569 0
 2894 0006 2030     		adds	r0, r0, #32
 2895              		@ sp needed
 2896 0008 7047     		bx	lr
 2897              	.L282:
 2898 000a C046     		.align	2
 2899              	.L281:
 2900 000c 80D60000 		.word	.LANCHOR92
 2901              		.cfi_endproc
 2902              	.LFE93:
 2903              		.size	u8g2_m_t6963_16_1, .-u8g2_m_t6963_16_1
 2904              		.section	.text.u8g2_m_t6963_16_2,"ax",%progbits
 2905              		.align	2
 2906              		.global	u8g2_m_t6963_16_2
 2907              		.code	16
 2908              		.thumb_func
ARM GAS  C:\Users\gjl\AppData\Local\Temp\ccNm9gHl.s 			page 62


 2909              		.type	u8g2_m_t6963_16_2, %function
 2910              	u8g2_m_t6963_16_2:
 2911              	.LFB94:
 570:..\u8g2\csrc/u8g2_d_memory.c **** uint8_t *u8g2_m_t6963_16_2(uint8_t *page_cnt)
 571:..\u8g2\csrc/u8g2_d_memory.c **** {
 2912              		.loc 1 571 0
 2913              		.cfi_startproc
 2914              		@ args = 0, pretend = 0, frame = 0
 2915              		@ frame_needed = 0, uses_anonymous_args = 0
 2916              		@ link register save eliminated.
 2917              	.LVL188:
 572:..\u8g2\csrc/u8g2_d_memory.c ****   static uint8_t buf[256];
 573:..\u8g2\csrc/u8g2_d_memory.c ****   *page_cnt = 2;
 2918              		.loc 1 573 0
 2919 0000 0223     		movs	r3, #2
 2920 0002 0370     		strb	r3, [r0]
 574:..\u8g2\csrc/u8g2_d_memory.c ****   return buf;
 2921              		.loc 1 574 0
 2922 0004 0148     		ldr	r0, .L284
 2923              	.LVL189:
 575:..\u8g2\csrc/u8g2_d_memory.c **** }
 2924              		.loc 1 575 0
 2925 0006 2030     		adds	r0, r0, #32
 2926              		@ sp needed
 2927 0008 7047     		bx	lr
 2928              	.L285:
 2929 000a C046     		.align	2
 2930              	.L284:
 2931 000c 00D70000 		.word	.LANCHOR93
 2932              		.cfi_endproc
 2933              	.LFE94:
 2934              		.size	u8g2_m_t6963_16_2, .-u8g2_m_t6963_16_2
 2935              		.section	.text.u8g2_m_t6963_16_f,"ax",%progbits
 2936              		.align	2
 2937              		.global	u8g2_m_t6963_16_f
 2938              		.code	16
 2939              		.thumb_func
 2940              		.type	u8g2_m_t6963_16_f, %function
 2941              	u8g2_m_t6963_16_f:
 2942              	.LFB95:
 576:..\u8g2\csrc/u8g2_d_memory.c **** uint8_t *u8g2_m_t6963_16_f(uint8_t *page_cnt)
 577:..\u8g2\csrc/u8g2_d_memory.c **** {
 2943              		.loc 1 577 0
 2944              		.cfi_startproc
 2945              		@ args = 0, pretend = 0, frame = 0
 2946              		@ frame_needed = 0, uses_anonymous_args = 0
 2947              		@ link register save eliminated.
 2948              	.LVL190:
 578:..\u8g2\csrc/u8g2_d_memory.c ****   static uint8_t buf[1024];
 579:..\u8g2\csrc/u8g2_d_memory.c ****   *page_cnt = 8;
 2949              		.loc 1 579 0
 2950 0000 0823     		movs	r3, #8
 2951 0002 0370     		strb	r3, [r0]
 580:..\u8g2\csrc/u8g2_d_memory.c ****   return buf;
 2952              		.loc 1 580 0
 2953 0004 0148     		ldr	r0, .L287
 2954              	.LVL191:
ARM GAS  C:\Users\gjl\AppData\Local\Temp\ccNm9gHl.s 			page 63


 581:..\u8g2\csrc/u8g2_d_memory.c **** }
 2955              		.loc 1 581 0
 2956 0006 2030     		adds	r0, r0, #32
 2957              		@ sp needed
 2958 0008 7047     		bx	lr
 2959              	.L288:
 2960 000a C046     		.align	2
 2961              	.L287:
 2962 000c 00D80000 		.word	.LANCHOR94
 2963              		.cfi_endproc
 2964              	.LFE95:
 2965              		.size	u8g2_m_t6963_16_f, .-u8g2_m_t6963_16_f
 2966              		.section	.text.u8g2_m_ssd1322_32_1,"ax",%progbits
 2967              		.align	2
 2968              		.global	u8g2_m_ssd1322_32_1
 2969              		.code	16
 2970              		.thumb_func
 2971              		.type	u8g2_m_ssd1322_32_1, %function
 2972              	u8g2_m_ssd1322_32_1:
 2973              	.LFB96:
 582:..\u8g2\csrc/u8g2_d_memory.c **** uint8_t *u8g2_m_ssd1322_32_1(uint8_t *page_cnt)
 583:..\u8g2\csrc/u8g2_d_memory.c **** {
 2974              		.loc 1 583 0
 2975              		.cfi_startproc
 2976              		@ args = 0, pretend = 0, frame = 0
 2977              		@ frame_needed = 0, uses_anonymous_args = 0
 2978              		@ link register save eliminated.
 2979              	.LVL192:
 584:..\u8g2\csrc/u8g2_d_memory.c ****   static uint8_t buf[256];
 585:..\u8g2\csrc/u8g2_d_memory.c ****   *page_cnt = 1;
 2980              		.loc 1 585 0
 2981 0000 0123     		movs	r3, #1
 2982 0002 0370     		strb	r3, [r0]
 586:..\u8g2\csrc/u8g2_d_memory.c ****   return buf;
 2983              		.loc 1 586 0
 2984 0004 0148     		ldr	r0, .L290
 2985              	.LVL193:
 587:..\u8g2\csrc/u8g2_d_memory.c **** }
 2986              		.loc 1 587 0
 2987 0006 2030     		adds	r0, r0, #32
 2988              		@ sp needed
 2989 0008 7047     		bx	lr
 2990              	.L291:
 2991 000a C046     		.align	2
 2992              	.L290:
 2993 000c 00DC0000 		.word	.LANCHOR95
 2994              		.cfi_endproc
 2995              	.LFE96:
 2996              		.size	u8g2_m_ssd1322_32_1, .-u8g2_m_ssd1322_32_1
 2997              		.section	.text.u8g2_m_ssd1322_32_2,"ax",%progbits
 2998              		.align	2
 2999              		.global	u8g2_m_ssd1322_32_2
 3000              		.code	16
 3001              		.thumb_func
 3002              		.type	u8g2_m_ssd1322_32_2, %function
 3003              	u8g2_m_ssd1322_32_2:
 3004              	.LFB97:
ARM GAS  C:\Users\gjl\AppData\Local\Temp\ccNm9gHl.s 			page 64


 588:..\u8g2\csrc/u8g2_d_memory.c **** uint8_t *u8g2_m_ssd1322_32_2(uint8_t *page_cnt)
 589:..\u8g2\csrc/u8g2_d_memory.c **** {
 3005              		.loc 1 589 0
 3006              		.cfi_startproc
 3007              		@ args = 0, pretend = 0, frame = 0
 3008              		@ frame_needed = 0, uses_anonymous_args = 0
 3009              		@ link register save eliminated.
 3010              	.LVL194:
 590:..\u8g2\csrc/u8g2_d_memory.c ****   static uint8_t buf[512];
 591:..\u8g2\csrc/u8g2_d_memory.c ****   *page_cnt = 2;
 3011              		.loc 1 591 0
 3012 0000 0223     		movs	r3, #2
 3013 0002 0370     		strb	r3, [r0]
 592:..\u8g2\csrc/u8g2_d_memory.c ****   return buf;
 3014              		.loc 1 592 0
 3015 0004 0148     		ldr	r0, .L293
 3016              	.LVL195:
 593:..\u8g2\csrc/u8g2_d_memory.c **** }
 3017              		.loc 1 593 0
 3018 0006 2030     		adds	r0, r0, #32
 3019              		@ sp needed
 3020 0008 7047     		bx	lr
 3021              	.L294:
 3022 000a C046     		.align	2
 3023              	.L293:
 3024 000c 00DD0000 		.word	.LANCHOR96
 3025              		.cfi_endproc
 3026              	.LFE97:
 3027              		.size	u8g2_m_ssd1322_32_2, .-u8g2_m_ssd1322_32_2
 3028              		.section	.text.u8g2_m_ssd1322_32_f,"ax",%progbits
 3029              		.align	2
 3030              		.global	u8g2_m_ssd1322_32_f
 3031              		.code	16
 3032              		.thumb_func
 3033              		.type	u8g2_m_ssd1322_32_f, %function
 3034              	u8g2_m_ssd1322_32_f:
 3035              	.LFB98:
 594:..\u8g2\csrc/u8g2_d_memory.c **** uint8_t *u8g2_m_ssd1322_32_f(uint8_t *page_cnt)
 595:..\u8g2\csrc/u8g2_d_memory.c **** {
 3036              		.loc 1 595 0
 3037              		.cfi_startproc
 3038              		@ args = 0, pretend = 0, frame = 0
 3039              		@ frame_needed = 0, uses_anonymous_args = 0
 3040              		@ link register save eliminated.
 3041              	.LVL196:
 596:..\u8g2\csrc/u8g2_d_memory.c ****   static uint8_t buf[2048];
 597:..\u8g2\csrc/u8g2_d_memory.c ****   *page_cnt = 8;
 3042              		.loc 1 597 0
 3043 0000 0823     		movs	r3, #8
 3044 0002 0370     		strb	r3, [r0]
 598:..\u8g2\csrc/u8g2_d_memory.c ****   return buf;
 3045              		.loc 1 598 0
 3046 0004 0148     		ldr	r0, .L296
 3047              	.LVL197:
 599:..\u8g2\csrc/u8g2_d_memory.c **** }
 3048              		.loc 1 599 0
 3049 0006 2030     		adds	r0, r0, #32
ARM GAS  C:\Users\gjl\AppData\Local\Temp\ccNm9gHl.s 			page 65


 3050              		@ sp needed
 3051 0008 7047     		bx	lr
 3052              	.L297:
 3053 000a C046     		.align	2
 3054              	.L296:
 3055 000c 00DF0000 		.word	.LANCHOR97
 3056              		.cfi_endproc
 3057              	.LFE98:
 3058              		.size	u8g2_m_ssd1322_32_f, .-u8g2_m_ssd1322_32_f
 3059              		.section	.text.u8g2_m_ssd1606_22_1,"ax",%progbits
 3060              		.align	2
 3061              		.global	u8g2_m_ssd1606_22_1
 3062              		.code	16
 3063              		.thumb_func
 3064              		.type	u8g2_m_ssd1606_22_1, %function
 3065              	u8g2_m_ssd1606_22_1:
 3066              	.LFB99:
 600:..\u8g2\csrc/u8g2_d_memory.c **** uint8_t *u8g2_m_ssd1606_22_1(uint8_t *page_cnt)
 601:..\u8g2\csrc/u8g2_d_memory.c **** {
 3067              		.loc 1 601 0
 3068              		.cfi_startproc
 3069              		@ args = 0, pretend = 0, frame = 0
 3070              		@ frame_needed = 0, uses_anonymous_args = 0
 3071              		@ link register save eliminated.
 3072              	.LVL198:
 602:..\u8g2\csrc/u8g2_d_memory.c ****   static uint8_t buf[176];
 603:..\u8g2\csrc/u8g2_d_memory.c ****   *page_cnt = 1;
 3073              		.loc 1 603 0
 3074 0000 0123     		movs	r3, #1
 3075 0002 0370     		strb	r3, [r0]
 604:..\u8g2\csrc/u8g2_d_memory.c ****   return buf;
 3076              		.loc 1 604 0
 3077 0004 0148     		ldr	r0, .L299
 3078              	.LVL199:
 605:..\u8g2\csrc/u8g2_d_memory.c **** }
 3079              		.loc 1 605 0
 3080 0006 2030     		adds	r0, r0, #32
 3081              		@ sp needed
 3082 0008 7047     		bx	lr
 3083              	.L300:
 3084 000a C046     		.align	2
 3085              	.L299:
 3086 000c 00E70000 		.word	.LANCHOR98
 3087              		.cfi_endproc
 3088              	.LFE99:
 3089              		.size	u8g2_m_ssd1606_22_1, .-u8g2_m_ssd1606_22_1
 3090              		.section	.text.u8g2_m_ssd1606_22_2,"ax",%progbits
 3091              		.align	2
 3092              		.global	u8g2_m_ssd1606_22_2
 3093              		.code	16
 3094              		.thumb_func
 3095              		.type	u8g2_m_ssd1606_22_2, %function
 3096              	u8g2_m_ssd1606_22_2:
 3097              	.LFB100:
 606:..\u8g2\csrc/u8g2_d_memory.c **** uint8_t *u8g2_m_ssd1606_22_2(uint8_t *page_cnt)
 607:..\u8g2\csrc/u8g2_d_memory.c **** {
 3098              		.loc 1 607 0
ARM GAS  C:\Users\gjl\AppData\Local\Temp\ccNm9gHl.s 			page 66


 3099              		.cfi_startproc
 3100              		@ args = 0, pretend = 0, frame = 0
 3101              		@ frame_needed = 0, uses_anonymous_args = 0
 3102              		@ link register save eliminated.
 3103              	.LVL200:
 608:..\u8g2\csrc/u8g2_d_memory.c ****   static uint8_t buf[352];
 609:..\u8g2\csrc/u8g2_d_memory.c ****   *page_cnt = 2;
 3104              		.loc 1 609 0
 3105 0000 0223     		movs	r3, #2
 3106 0002 0370     		strb	r3, [r0]
 610:..\u8g2\csrc/u8g2_d_memory.c ****   return buf;
 3107              		.loc 1 610 0
 3108 0004 0148     		ldr	r0, .L302
 3109              	.LVL201:
 611:..\u8g2\csrc/u8g2_d_memory.c **** }
 3110              		.loc 1 611 0
 3111 0006 5030     		adds	r0, r0, #80
 3112              		@ sp needed
 3113 0008 7047     		bx	lr
 3114              	.L303:
 3115 000a C046     		.align	2
 3116              	.L302:
 3117 000c 80E70000 		.word	.LANCHOR99
 3118              		.cfi_endproc
 3119              	.LFE100:
 3120              		.size	u8g2_m_ssd1606_22_2, .-u8g2_m_ssd1606_22_2
 3121              		.section	.text.u8g2_m_ssd1606_22_f,"ax",%progbits
 3122              		.align	2
 3123              		.global	u8g2_m_ssd1606_22_f
 3124              		.code	16
 3125              		.thumb_func
 3126              		.type	u8g2_m_ssd1606_22_f, %function
 3127              	u8g2_m_ssd1606_22_f:
 3128              	.LFB101:
 612:..\u8g2\csrc/u8g2_d_memory.c **** uint8_t *u8g2_m_ssd1606_22_f(uint8_t *page_cnt)
 613:..\u8g2\csrc/u8g2_d_memory.c **** {
 3129              		.loc 1 613 0
 3130              		.cfi_startproc
 3131              		@ args = 0, pretend = 0, frame = 0
 3132              		@ frame_needed = 0, uses_anonymous_args = 0
 3133              		@ link register save eliminated.
 3134              	.LVL202:
 614:..\u8g2\csrc/u8g2_d_memory.c ****   static uint8_t buf[1584];
 615:..\u8g2\csrc/u8g2_d_memory.c ****   *page_cnt = 9;
 3135              		.loc 1 615 0
 3136 0000 0923     		movs	r3, #9
 3137 0002 0370     		strb	r3, [r0]
 616:..\u8g2\csrc/u8g2_d_memory.c ****   return buf;
 3138              		.loc 1 616 0
 3139 0004 0148     		ldr	r0, .L305
 3140              	.LVL203:
 617:..\u8g2\csrc/u8g2_d_memory.c **** }
 3141              		.loc 1 617 0
 3142 0006 3030     		adds	r0, r0, #48
 3143              		@ sp needed
 3144 0008 7047     		bx	lr
 3145              	.L306:
ARM GAS  C:\Users\gjl\AppData\Local\Temp\ccNm9gHl.s 			page 67


 3146 000a C046     		.align	2
 3147              	.L305:
 3148 000c 00E90000 		.word	.LANCHOR100
 3149              		.cfi_endproc
 3150              	.LFE101:
 3151              		.size	u8g2_m_ssd1606_22_f, .-u8g2_m_ssd1606_22_f
 3152              		.section	.text.u8g2_m_ssd1607_25_1,"ax",%progbits
 3153              		.align	2
 3154              		.global	u8g2_m_ssd1607_25_1
 3155              		.code	16
 3156              		.thumb_func
 3157              		.type	u8g2_m_ssd1607_25_1, %function
 3158              	u8g2_m_ssd1607_25_1:
 3159              	.LFB102:
 618:..\u8g2\csrc/u8g2_d_memory.c **** uint8_t *u8g2_m_ssd1607_25_1(uint8_t *page_cnt)
 619:..\u8g2\csrc/u8g2_d_memory.c **** {
 3160              		.loc 1 619 0
 3161              		.cfi_startproc
 3162              		@ args = 0, pretend = 0, frame = 0
 3163              		@ frame_needed = 0, uses_anonymous_args = 0
 3164              		@ link register save eliminated.
 3165              	.LVL204:
 620:..\u8g2\csrc/u8g2_d_memory.c ****   static uint8_t buf[200];
 621:..\u8g2\csrc/u8g2_d_memory.c ****   *page_cnt = 1;
 3166              		.loc 1 621 0
 3167 0000 0123     		movs	r3, #1
 3168 0002 0370     		strb	r3, [r0]
 622:..\u8g2\csrc/u8g2_d_memory.c ****   return buf;
 3169              		.loc 1 622 0
 3170 0004 0148     		ldr	r0, .L308
 3171              	.LVL205:
 623:..\u8g2\csrc/u8g2_d_memory.c **** }
 3172              		.loc 1 623 0
 3173 0006 6030     		adds	r0, r0, #96
 3174              		@ sp needed
 3175 0008 7047     		bx	lr
 3176              	.L309:
 3177 000a C046     		.align	2
 3178              	.L308:
 3179 000c 00EF0000 		.word	.LANCHOR101
 3180              		.cfi_endproc
 3181              	.LFE102:
 3182              		.size	u8g2_m_ssd1607_25_1, .-u8g2_m_ssd1607_25_1
 3183              		.section	.text.u8g2_m_ssd1607_25_2,"ax",%progbits
 3184              		.align	2
 3185              		.global	u8g2_m_ssd1607_25_2
 3186              		.code	16
 3187              		.thumb_func
 3188              		.type	u8g2_m_ssd1607_25_2, %function
 3189              	u8g2_m_ssd1607_25_2:
 3190              	.LFB103:
 624:..\u8g2\csrc/u8g2_d_memory.c **** uint8_t *u8g2_m_ssd1607_25_2(uint8_t *page_cnt)
 625:..\u8g2\csrc/u8g2_d_memory.c **** {
 3191              		.loc 1 625 0
 3192              		.cfi_startproc
 3193              		@ args = 0, pretend = 0, frame = 0
 3194              		@ frame_needed = 0, uses_anonymous_args = 0
ARM GAS  C:\Users\gjl\AppData\Local\Temp\ccNm9gHl.s 			page 68


 3195              		@ link register save eliminated.
 3196              	.LVL206:
 626:..\u8g2\csrc/u8g2_d_memory.c ****   static uint8_t buf[400];
 627:..\u8g2\csrc/u8g2_d_memory.c ****   *page_cnt = 2;
 3197              		.loc 1 627 0
 3198 0000 0223     		movs	r3, #2
 3199 0002 0370     		strb	r3, [r0]
 628:..\u8g2\csrc/u8g2_d_memory.c ****   return buf;
 3200              		.loc 1 628 0
 3201 0004 0148     		ldr	r0, .L311
 3202              	.LVL207:
 629:..\u8g2\csrc/u8g2_d_memory.c **** }
 3203              		.loc 1 629 0
 3204 0006 2830     		adds	r0, r0, #40
 3205              		@ sp needed
 3206 0008 7047     		bx	lr
 3207              	.L312:
 3208 000a C046     		.align	2
 3209              	.L311:
 3210 000c 00F00000 		.word	.LANCHOR102
 3211              		.cfi_endproc
 3212              	.LFE103:
 3213              		.size	u8g2_m_ssd1607_25_2, .-u8g2_m_ssd1607_25_2
 3214              		.section	.text.u8g2_m_ssd1607_25_f,"ax",%progbits
 3215              		.align	2
 3216              		.global	u8g2_m_ssd1607_25_f
 3217              		.code	16
 3218              		.thumb_func
 3219              		.type	u8g2_m_ssd1607_25_f, %function
 3220              	u8g2_m_ssd1607_25_f:
 3221              	.LFB104:
 630:..\u8g2\csrc/u8g2_d_memory.c **** uint8_t *u8g2_m_ssd1607_25_f(uint8_t *page_cnt)
 631:..\u8g2\csrc/u8g2_d_memory.c **** {
 3222              		.loc 1 631 0
 3223              		.cfi_startproc
 3224              		@ args = 0, pretend = 0, frame = 0
 3225              		@ frame_needed = 0, uses_anonymous_args = 0
 3226              		@ link register save eliminated.
 3227              	.LVL208:
 632:..\u8g2\csrc/u8g2_d_memory.c ****   static uint8_t buf[5000];
 633:..\u8g2\csrc/u8g2_d_memory.c ****   *page_cnt = 25;
 3228              		.loc 1 633 0
 3229 0000 1923     		movs	r3, #25
 3230 0002 0370     		strb	r3, [r0]
 634:..\u8g2\csrc/u8g2_d_memory.c ****   return buf;
 3231              		.loc 1 634 0
 3232 0004 0148     		ldr	r0, .L314
 3233              	.LVL209:
 635:..\u8g2\csrc/u8g2_d_memory.c **** }
 3234              		.loc 1 635 0
 3235 0006 3830     		adds	r0, r0, #56
 3236              		@ sp needed
 3237 0008 7047     		bx	lr
 3238              	.L315:
 3239 000a C046     		.align	2
 3240              	.L314:
 3241 000c 80F10000 		.word	.LANCHOR103
ARM GAS  C:\Users\gjl\AppData\Local\Temp\ccNm9gHl.s 			page 69


 3242              		.cfi_endproc
 3243              	.LFE104:
 3244              		.size	u8g2_m_ssd1607_25_f, .-u8g2_m_ssd1607_25_f
 3245              		.section	.text.u8g2_m_sed1330_30_1,"ax",%progbits
 3246              		.align	2
 3247              		.global	u8g2_m_sed1330_30_1
 3248              		.code	16
 3249              		.thumb_func
 3250              		.type	u8g2_m_sed1330_30_1, %function
 3251              	u8g2_m_sed1330_30_1:
 3252              	.LFB105:
 636:..\u8g2\csrc/u8g2_d_memory.c **** uint8_t *u8g2_m_sed1330_30_1(uint8_t *page_cnt)
 637:..\u8g2\csrc/u8g2_d_memory.c **** {
 3253              		.loc 1 637 0
 3254              		.cfi_startproc
 3255              		@ args = 0, pretend = 0, frame = 0
 3256              		@ frame_needed = 0, uses_anonymous_args = 0
 3257              		@ link register save eliminated.
 3258              	.LVL210:
 638:..\u8g2\csrc/u8g2_d_memory.c ****   static uint8_t buf[240];
 639:..\u8g2\csrc/u8g2_d_memory.c ****   *page_cnt = 1;
 3259              		.loc 1 639 0
 3260 0000 0123     		movs	r3, #1
 3261 0002 0370     		strb	r3, [r0]
 640:..\u8g2\csrc/u8g2_d_memory.c ****   return buf;
 3262              		.loc 1 640 0
 3263 0004 0148     		ldr	r0, .L317
 3264              	.LVL211:
 641:..\u8g2\csrc/u8g2_d_memory.c **** }
 3265              		.loc 1 641 0
 3266 0006 4030     		adds	r0, r0, #64
 3267              		@ sp needed
 3268 0008 7047     		bx	lr
 3269              	.L318:
 3270 000a C046     		.align	2
 3271              	.L317:
 3272 000c 00050100 		.word	.LANCHOR104
 3273              		.cfi_endproc
 3274              	.LFE105:
 3275              		.size	u8g2_m_sed1330_30_1, .-u8g2_m_sed1330_30_1
 3276              		.section	.text.u8g2_m_sed1330_30_2,"ax",%progbits
 3277              		.align	2
 3278              		.global	u8g2_m_sed1330_30_2
 3279              		.code	16
 3280              		.thumb_func
 3281              		.type	u8g2_m_sed1330_30_2, %function
 3282              	u8g2_m_sed1330_30_2:
 3283              	.LFB106:
 642:..\u8g2\csrc/u8g2_d_memory.c **** uint8_t *u8g2_m_sed1330_30_2(uint8_t *page_cnt)
 643:..\u8g2\csrc/u8g2_d_memory.c **** {
 3284              		.loc 1 643 0
 3285              		.cfi_startproc
 3286              		@ args = 0, pretend = 0, frame = 0
 3287              		@ frame_needed = 0, uses_anonymous_args = 0
 3288              		@ link register save eliminated.
 3289              	.LVL212:
 644:..\u8g2\csrc/u8g2_d_memory.c ****   static uint8_t buf[480];
ARM GAS  C:\Users\gjl\AppData\Local\Temp\ccNm9gHl.s 			page 70


 645:..\u8g2\csrc/u8g2_d_memory.c ****   *page_cnt = 2;
 3290              		.loc 1 645 0
 3291 0000 0223     		movs	r3, #2
 3292 0002 0370     		strb	r3, [r0]
 646:..\u8g2\csrc/u8g2_d_memory.c ****   return buf;
 3293              		.loc 1 646 0
 3294 0004 0148     		ldr	r0, .L320
 3295              	.LVL213:
 647:..\u8g2\csrc/u8g2_d_memory.c **** }
 3296              		.loc 1 647 0
 3297 0006 3030     		adds	r0, r0, #48
 3298              		@ sp needed
 3299 0008 7047     		bx	lr
 3300              	.L321:
 3301 000a C046     		.align	2
 3302              	.L320:
 3303 000c 00060100 		.word	.LANCHOR105
 3304              		.cfi_endproc
 3305              	.LFE106:
 3306              		.size	u8g2_m_sed1330_30_2, .-u8g2_m_sed1330_30_2
 3307              		.section	.text.u8g2_m_sed1330_30_f,"ax",%progbits
 3308              		.align	2
 3309              		.global	u8g2_m_sed1330_30_f
 3310              		.code	16
 3311              		.thumb_func
 3312              		.type	u8g2_m_sed1330_30_f, %function
 3313              	u8g2_m_sed1330_30_f:
 3314              	.LFB107:
 648:..\u8g2\csrc/u8g2_d_memory.c **** uint8_t *u8g2_m_sed1330_30_f(uint8_t *page_cnt)
 649:..\u8g2\csrc/u8g2_d_memory.c **** {
 3315              		.loc 1 649 0
 3316              		.cfi_startproc
 3317              		@ args = 0, pretend = 0, frame = 0
 3318              		@ frame_needed = 0, uses_anonymous_args = 0
 3319              		@ link register save eliminated.
 3320              	.LVL214:
 650:..\u8g2\csrc/u8g2_d_memory.c ****   static uint8_t buf[3840];
 651:..\u8g2\csrc/u8g2_d_memory.c ****   *page_cnt = 16;
 3321              		.loc 1 651 0
 3322 0000 1023     		movs	r3, #16
 3323 0002 0370     		strb	r3, [r0]
 652:..\u8g2\csrc/u8g2_d_memory.c ****   return buf;
 3324              		.loc 1 652 0
 3325 0004 0148     		ldr	r0, .L323
 3326              	.LVL215:
 653:..\u8g2\csrc/u8g2_d_memory.c **** }
 3327              		.loc 1 653 0
 3328 0006 1030     		adds	r0, r0, #16
 3329              		@ sp needed
 3330 0008 7047     		bx	lr
 3331              	.L324:
 3332 000a C046     		.align	2
 3333              	.L323:
 3334 000c 00080100 		.word	.LANCHOR106
 3335              		.cfi_endproc
 3336              	.LFE107:
 3337              		.size	u8g2_m_sed1330_30_f, .-u8g2_m_sed1330_30_f
ARM GAS  C:\Users\gjl\AppData\Local\Temp\ccNm9gHl.s 			page 71


 3338              		.section	.text.u8g2_m_ra8835_30_1,"ax",%progbits
 3339              		.align	2
 3340              		.global	u8g2_m_ra8835_30_1
 3341              		.code	16
 3342              		.thumb_func
 3343              		.type	u8g2_m_ra8835_30_1, %function
 3344              	u8g2_m_ra8835_30_1:
 3345              	.LFB108:
 654:..\u8g2\csrc/u8g2_d_memory.c **** uint8_t *u8g2_m_ra8835_30_1(uint8_t *page_cnt)
 655:..\u8g2\csrc/u8g2_d_memory.c **** {
 3346              		.loc 1 655 0
 3347              		.cfi_startproc
 3348              		@ args = 0, pretend = 0, frame = 0
 3349              		@ frame_needed = 0, uses_anonymous_args = 0
 3350              		@ link register save eliminated.
 3351              	.LVL216:
 656:..\u8g2\csrc/u8g2_d_memory.c ****   static uint8_t buf[240];
 657:..\u8g2\csrc/u8g2_d_memory.c ****   *page_cnt = 1;
 3352              		.loc 1 657 0
 3353 0000 0123     		movs	r3, #1
 3354 0002 0370     		strb	r3, [r0]
 658:..\u8g2\csrc/u8g2_d_memory.c ****   return buf;
 3355              		.loc 1 658 0
 3356 0004 0148     		ldr	r0, .L326
 3357              	.LVL217:
 659:..\u8g2\csrc/u8g2_d_memory.c **** }
 3358              		.loc 1 659 0
 3359 0006 1030     		adds	r0, r0, #16
 3360              		@ sp needed
 3361 0008 7047     		bx	lr
 3362              	.L327:
 3363 000a C046     		.align	2
 3364              	.L326:
 3365 000c 00170100 		.word	.LANCHOR107
 3366              		.cfi_endproc
 3367              	.LFE108:
 3368              		.size	u8g2_m_ra8835_30_1, .-u8g2_m_ra8835_30_1
 3369              		.section	.text.u8g2_m_ra8835_30_2,"ax",%progbits
 3370              		.align	2
 3371              		.global	u8g2_m_ra8835_30_2
 3372              		.code	16
 3373              		.thumb_func
 3374              		.type	u8g2_m_ra8835_30_2, %function
 3375              	u8g2_m_ra8835_30_2:
 3376              	.LFB109:
 660:..\u8g2\csrc/u8g2_d_memory.c **** uint8_t *u8g2_m_ra8835_30_2(uint8_t *page_cnt)
 661:..\u8g2\csrc/u8g2_d_memory.c **** {
 3377              		.loc 1 661 0
 3378              		.cfi_startproc
 3379              		@ args = 0, pretend = 0, frame = 0
 3380              		@ frame_needed = 0, uses_anonymous_args = 0
 3381              		@ link register save eliminated.
 3382              	.LVL218:
 662:..\u8g2\csrc/u8g2_d_memory.c ****   static uint8_t buf[480];
 663:..\u8g2\csrc/u8g2_d_memory.c ****   *page_cnt = 2;
 3383              		.loc 1 663 0
 3384 0000 0223     		movs	r3, #2
ARM GAS  C:\Users\gjl\AppData\Local\Temp\ccNm9gHl.s 			page 72


 3385 0002 0370     		strb	r3, [r0]
 664:..\u8g2\csrc/u8g2_d_memory.c ****   return buf;
 665:..\u8g2\csrc/u8g2_d_memory.c **** }
 3386              		.loc 1 665 0
 3387 0004 0048     		ldr	r0, .L329
 3388              	.LVL219:
 3389              		@ sp needed
 3390 0006 7047     		bx	lr
 3391              	.L330:
 3392              		.align	2
 3393              	.L329:
 3394 0008 00180100 		.word	.LANCHOR108
 3395              		.cfi_endproc
 3396              	.LFE109:
 3397              		.size	u8g2_m_ra8835_30_2, .-u8g2_m_ra8835_30_2
 3398              		.section	.text.u8g2_m_ra8835_30_f,"ax",%progbits
 3399              		.align	2
 3400              		.global	u8g2_m_ra8835_30_f
 3401              		.code	16
 3402              		.thumb_func
 3403              		.type	u8g2_m_ra8835_30_f, %function
 3404              	u8g2_m_ra8835_30_f:
 3405              	.LFB110:
 666:..\u8g2\csrc/u8g2_d_memory.c **** uint8_t *u8g2_m_ra8835_30_f(uint8_t *page_cnt)
 667:..\u8g2\csrc/u8g2_d_memory.c **** {
 3406              		.loc 1 667 0
 3407              		.cfi_startproc
 3408              		@ args = 0, pretend = 0, frame = 0
 3409              		@ frame_needed = 0, uses_anonymous_args = 0
 3410              		@ link register save eliminated.
 3411              	.LVL220:
 668:..\u8g2\csrc/u8g2_d_memory.c ****   static uint8_t buf[3840];
 669:..\u8g2\csrc/u8g2_d_memory.c ****   *page_cnt = 16;
 3412              		.loc 1 669 0
 3413 0000 1023     		movs	r3, #16
 3414 0002 0370     		strb	r3, [r0]
 670:..\u8g2\csrc/u8g2_d_memory.c ****   return buf;
 3415              		.loc 1 670 0
 3416 0004 0148     		ldr	r0, .L332
 3417              	.LVL221:
 671:..\u8g2\csrc/u8g2_d_memory.c **** }
 3418              		.loc 1 671 0
 3419 0006 6030     		adds	r0, r0, #96
 3420              		@ sp needed
 3421 0008 7047     		bx	lr
 3422              	.L333:
 3423 000a C046     		.align	2
 3424              	.L332:
 3425 000c 80190100 		.word	.LANCHOR109
 3426              		.cfi_endproc
 3427              	.LFE110:
 3428              		.size	u8g2_m_ra8835_30_f, .-u8g2_m_ra8835_30_f
 3429              		.section	.text.u8g2_m_a2printer_48_1,"ax",%progbits
 3430              		.align	2
 3431              		.global	u8g2_m_a2printer_48_1
 3432              		.code	16
 3433              		.thumb_func
ARM GAS  C:\Users\gjl\AppData\Local\Temp\ccNm9gHl.s 			page 73


 3434              		.type	u8g2_m_a2printer_48_1, %function
 3435              	u8g2_m_a2printer_48_1:
 3436              	.LFB111:
 672:..\u8g2\csrc/u8g2_d_memory.c **** uint8_t *u8g2_m_a2printer_48_1(uint8_t *page_cnt)
 673:..\u8g2\csrc/u8g2_d_memory.c **** {
 3437              		.loc 1 673 0
 3438              		.cfi_startproc
 3439              		@ args = 0, pretend = 0, frame = 0
 3440              		@ frame_needed = 0, uses_anonymous_args = 0
 3441              		@ link register save eliminated.
 3442              	.LVL222:
 674:..\u8g2\csrc/u8g2_d_memory.c ****   static uint8_t buf[384];
 675:..\u8g2\csrc/u8g2_d_memory.c ****   *page_cnt = 1;
 3443              		.loc 1 675 0
 3444 0000 0123     		movs	r3, #1
 3445 0002 0370     		strb	r3, [r0]
 676:..\u8g2\csrc/u8g2_d_memory.c ****   return buf;
 3446              		.loc 1 676 0
 3447 0004 0148     		ldr	r0, .L335
 3448              	.LVL223:
 677:..\u8g2\csrc/u8g2_d_memory.c **** }
 3449              		.loc 1 677 0
 3450 0006 6030     		adds	r0, r0, #96
 3451              		@ sp needed
 3452 0008 7047     		bx	lr
 3453              	.L336:
 3454 000a C046     		.align	2
 3455              	.L335:
 3456 000c 80280100 		.word	.LANCHOR110
 3457              		.cfi_endproc
 3458              	.LFE111:
 3459              		.size	u8g2_m_a2printer_48_1, .-u8g2_m_a2printer_48_1
 3460              		.section	.text.u8g2_m_a2printer_48_2,"ax",%progbits
 3461              		.align	2
 3462              		.global	u8g2_m_a2printer_48_2
 3463              		.code	16
 3464              		.thumb_func
 3465              		.type	u8g2_m_a2printer_48_2, %function
 3466              	u8g2_m_a2printer_48_2:
 3467              	.LFB112:
 678:..\u8g2\csrc/u8g2_d_memory.c **** uint8_t *u8g2_m_a2printer_48_2(uint8_t *page_cnt)
 679:..\u8g2\csrc/u8g2_d_memory.c **** {
 3468              		.loc 1 679 0
 3469              		.cfi_startproc
 3470              		@ args = 0, pretend = 0, frame = 0
 3471              		@ frame_needed = 0, uses_anonymous_args = 0
 3472              		@ link register save eliminated.
 3473              	.LVL224:
 680:..\u8g2\csrc/u8g2_d_memory.c ****   static uint8_t buf[768];
 681:..\u8g2\csrc/u8g2_d_memory.c ****   *page_cnt = 2;
 3474              		.loc 1 681 0
 3475 0000 0223     		movs	r3, #2
 3476 0002 0370     		strb	r3, [r0]
 682:..\u8g2\csrc/u8g2_d_memory.c ****   return buf;
 3477              		.loc 1 682 0
 3478 0004 0148     		ldr	r0, .L338
 3479              	.LVL225:
ARM GAS  C:\Users\gjl\AppData\Local\Temp\ccNm9gHl.s 			page 74


 683:..\u8g2\csrc/u8g2_d_memory.c **** }
 3480              		.loc 1 683 0
 3481 0006 6030     		adds	r0, r0, #96
 3482              		@ sp needed
 3483 0008 7047     		bx	lr
 3484              	.L339:
 3485 000a C046     		.align	2
 3486              	.L338:
 3487 000c 002A0100 		.word	.LANCHOR111
 3488              		.cfi_endproc
 3489              	.LFE112:
 3490              		.size	u8g2_m_a2printer_48_2, .-u8g2_m_a2printer_48_2
 3491              		.section	.text.u8g2_m_a2printer_48_f,"ax",%progbits
 3492              		.align	2
 3493              		.global	u8g2_m_a2printer_48_f
 3494              		.code	16
 3495              		.thumb_func
 3496              		.type	u8g2_m_a2printer_48_f, %function
 3497              	u8g2_m_a2printer_48_f:
 3498              	.LFB113:
 684:..\u8g2\csrc/u8g2_d_memory.c **** uint8_t *u8g2_m_a2printer_48_f(uint8_t *page_cnt)
 685:..\u8g2\csrc/u8g2_d_memory.c **** {
 3499              		.loc 1 685 0
 3500              		.cfi_startproc
 3501              		@ args = 0, pretend = 0, frame = 0
 3502              		@ frame_needed = 0, uses_anonymous_args = 0
 3503              		@ link register save eliminated.
 3504              	.LVL226:
 686:..\u8g2\csrc/u8g2_d_memory.c ****   static uint8_t buf[11520];
 687:..\u8g2\csrc/u8g2_d_memory.c ****   *page_cnt = 30;
 3505              		.loc 1 687 0
 3506 0000 1E23     		movs	r3, #30
 3507 0002 0370     		strb	r3, [r0]
 688:..\u8g2\csrc/u8g2_d_memory.c ****   return buf;
 3508              		.loc 1 688 0
 3509 0004 0148     		ldr	r0, .L341
 3510              	.LVL227:
 689:..\u8g2\csrc/u8g2_d_memory.c **** }
 3511              		.loc 1 689 0
 3512 0006 6030     		adds	r0, r0, #96
 3513              		@ sp needed
 3514 0008 7047     		bx	lr
 3515              	.L342:
 3516 000a C046     		.align	2
 3517              	.L341:
 3518 000c 002D0100 		.word	.LANCHOR112
 3519              		.cfi_endproc
 3520              	.LFE113:
 3521              		.size	u8g2_m_a2printer_48_f, .-u8g2_m_a2printer_48_f
 3522              		.bss
 3523              		.align	2
 3524              		.set	.LANCHOR0,. + 0
 3525              		.set	.LANCHOR1,. + 128
 3526              		.set	.LANCHOR2,. + 384
 3527              		.set	.LANCHOR3,. + 896
 3528              		.set	.LANCHOR4,. + 1024
 3529              		.set	.LANCHOR5,. + 1280
ARM GAS  C:\Users\gjl\AppData\Local\Temp\ccNm9gHl.s 			page 75


 3530              		.set	.LANCHOR6,. + 2304
 3531              		.set	.LANCHOR7,. + 2432
 3532              		.set	.LANCHOR8,. + 2688
 3533              		.set	.LANCHOR9,. + 3712
 3534              		.set	.LANCHOR10,. + 3840
 3535              		.set	.LANCHOR11,. + 4224
 3536              		.set	.LANCHOR12,. + 4352
 3537              		.set	.LANCHOR13,. + 4608
 3538              		.set	.LANCHOR14,. + 5632
 3539              		.set	.LANCHOR15,. + 5760
 3540              		.set	.LANCHOR16,. + 6016
 3541              		.set	.LANCHOR17,. + 7040
 3542              		.set	.LANCHOR18,. + 7168
 3543              		.set	.LANCHOR19,. + 7296
 3544              		.set	.LANCHOR20,. + 8448
 3545              		.set	.LANCHOR21,. + 8576
 3546              		.set	.LANCHOR22,. + 8704
 3547              		.set	.LANCHOR23,. + 8960
 3548              		.set	.LANCHOR24,. + 9088
 3549              		.set	.LANCHOR25,. + 9472
 3550              		.set	.LANCHOR26,. + 10240
 3551              		.set	.LANCHOR27,. + 10368
 3552              		.set	.LANCHOR28,. + 10624
 3553              		.set	.LANCHOR29,. + 11648
 3554              		.set	.LANCHOR30,. + 11776
 3555              		.set	.LANCHOR31,. + 12032
 3556              		.set	.LANCHOR32,. + 14080
 3557              		.set	.LANCHOR33,. + 14208
 3558              		.set	.LANCHOR34,. + 14464
 3559              		.set	.LANCHOR35,. + 15232
 3560              		.set	.LANCHOR36,. + 15360
 3561              		.set	.LANCHOR37,. + 15616
 3562              		.set	.LANCHOR38,. + 16640
 3563              		.set	.LANCHOR39,. + 16768
 3564              		.set	.LANCHOR40,. + 16896
 3565              		.set	.LANCHOR41,. + 17408
 3566              		.set	.LANCHOR42,. + 17536
 3567              		.set	.LANCHOR43,. + 17792
 3568              		.set	.LANCHOR44,. + 18560
 3569              		.set	.LANCHOR45,. + 18816
 3570              		.set	.LANCHOR46,. + 19200
 3571              		.set	.LANCHOR47,. + 20736
 3572              		.set	.LANCHOR48,. + 20992
 3573              		.set	.LANCHOR49,. + 21504
 3574              		.set	.LANCHOR50,. + 23424
 3575              		.set	.LANCHOR51,. + 23552
 3576              		.set	.LANCHOR52,. + 23808
 3577              		.set	.LANCHOR53,. + 25984
 3578              		.set	.LANCHOR54,. + 26112
 3579              		.set	.LANCHOR55,. + 26624
 3580              		.set	.LANCHOR56,. + 28544
 3581              		.set	.LANCHOR57,. + 28672
 3582              		.set	.LANCHOR58,. + 28928
 3583              		.set	.LANCHOR59,. + 29952
 3584              		.set	.LANCHOR60,. + 30080
 3585              		.set	.LANCHOR61,. + 30336
 3586              		.set	.LANCHOR62,. + 30976
ARM GAS  C:\Users\gjl\AppData\Local\Temp\ccNm9gHl.s 			page 76


 3587              		.set	.LANCHOR63,. + 31104
 3588              		.set	.LANCHOR64,. + 31360
 3589              		.set	.LANCHOR65,. + 32384
 3590              		.set	.LANCHOR66,. + 32512
 3591              		.set	.LANCHOR67,. + 32768
 3592              		.set	.LANCHOR68,. + 33792
 3593              		.set	.LANCHOR69,. + 33920
 3594              		.set	.LANCHOR70,. + 34176
 3595              		.set	.LANCHOR71,. + 35200
 3596              		.set	.LANCHOR72,. + 35456
 3597              		.set	.LANCHOR73,. + 35840
 3598              		.set	.LANCHOR74,. + 37376
 3599              		.set	.LANCHOR75,. + 37504
 3600              		.set	.LANCHOR76,. + 37760
 3601              		.set	.LANCHOR77,. + 38784
 3602              		.set	.LANCHOR78,. + 38912
 3603              		.set	.LANCHOR79,. + 39296
 3604              		.set	.LANCHOR80,. + 40832
 3605              		.set	.LANCHOR81,. + 41088
 3606              		.set	.LANCHOR82,. + 41344
 3607              		.set	.LANCHOR83,. + 43008
 3608              		.set	.LANCHOR84,. + 43136
 3609              		.set	.LANCHOR85,. + 43648
 3610              		.set	.LANCHOR86,. + 47488
 3611              		.set	.LANCHOR87,. + 47744
 3612              		.set	.LANCHOR88,. + 48256
 3613              		.set	.LANCHOR89,. + 52096
 3614              		.set	.LANCHOR90,. + 52352
 3615              		.set	.LANCHOR91,. + 52864
 3616              		.set	.LANCHOR92,. + 54912
 3617              		.set	.LANCHOR93,. + 55040
 3618              		.set	.LANCHOR94,. + 55296
 3619              		.set	.LANCHOR95,. + 56320
 3620              		.set	.LANCHOR96,. + 56576
 3621              		.set	.LANCHOR97,. + 57088
 3622              		.set	.LANCHOR98,. + 59136
 3623              		.set	.LANCHOR99,. + 59264
 3624              		.set	.LANCHOR100,. + 59648
 3625              		.set	.LANCHOR101,. + 61184
 3626              		.set	.LANCHOR102,. + 61440
 3627              		.set	.LANCHOR103,. + 61824
 3628              		.set	.LANCHOR104,. + 66816
 3629              		.set	.LANCHOR105,. + 67072
 3630              		.set	.LANCHOR106,. + 67584
 3631              		.set	.LANCHOR107,. + 71424
 3632              		.set	.LANCHOR108,. + 71680
 3633              		.set	.LANCHOR109,. + 72064
 3634              		.set	.LANCHOR110,. + 75904
 3635              		.set	.LANCHOR111,. + 76288
 3636              		.set	.LANCHOR112,. + 77056
 3637              		.type	buf.7414, %object
 3638              		.size	buf.7414, 128
 3639              	buf.7414:
 3640 0000 00000000 		.space	128
 3640      00000000 
 3640      00000000 
 3640      00000000 
ARM GAS  C:\Users\gjl\AppData\Local\Temp\ccNm9gHl.s 			page 77


 3640      00000000 
 3641              		.type	buf.7418, %object
 3642              		.size	buf.7418, 256
 3643              	buf.7418:
 3644 0080 00000000 		.space	256
 3644      00000000 
 3644      00000000 
 3644      00000000 
 3644      00000000 
 3645              		.type	buf.7422, %object
 3646              		.size	buf.7422, 512
 3647              	buf.7422:
 3648 0180 00000000 		.space	512
 3648      00000000 
 3648      00000000 
 3648      00000000 
 3648      00000000 
 3649              		.type	buf.7426, %object
 3650              		.size	buf.7426, 128
 3651              	buf.7426:
 3652 0380 00000000 		.space	128
 3652      00000000 
 3652      00000000 
 3652      00000000 
 3652      00000000 
 3653              		.type	buf.7430, %object
 3654              		.size	buf.7430, 256
 3655              	buf.7430:
 3656 0400 00000000 		.space	256
 3656      00000000 
 3656      00000000 
 3656      00000000 
 3656      00000000 
 3657              		.type	buf.7434, %object
 3658              		.size	buf.7434, 1024
 3659              	buf.7434:
 3660 0500 00000000 		.space	1024
 3660      00000000 
 3660      00000000 
 3660      00000000 
 3660      00000000 
 3661              		.type	buf.7438, %object
 3662              		.size	buf.7438, 128
 3663              	buf.7438:
 3664 0900 00000000 		.space	128
 3664      00000000 
 3664      00000000 
 3664      00000000 
 3664      00000000 
 3665              		.type	buf.7442, %object
 3666              		.size	buf.7442, 256
 3667              	buf.7442:
 3668 0980 00000000 		.space	256
 3668      00000000 
 3668      00000000 
 3668      00000000 
 3668      00000000 
ARM GAS  C:\Users\gjl\AppData\Local\Temp\ccNm9gHl.s 			page 78


 3669              		.type	buf.7446, %object
 3670              		.size	buf.7446, 1024
 3671              	buf.7446:
 3672 0a80 00000000 		.space	1024
 3672      00000000 
 3672      00000000 
 3672      00000000 
 3672      00000000 
 3673              		.type	buf.7450, %object
 3674              		.size	buf.7450, 64
 3675              	buf.7450:
 3676 0e80 00000000 		.space	64
 3676      00000000 
 3676      00000000 
 3676      00000000 
 3676      00000000 
 3677              		.type	buf.7454, %object
 3678              		.size	buf.7454, 128
 3679              	buf.7454:
 3680 0ec0 00000000 		.space	128
 3680      00000000 
 3680      00000000 
 3680      00000000 
 3680      00000000 
 3681              		.type	buf.7458, %object
 3682              		.size	buf.7458, 384
 3683              	buf.7458:
 3684 0f40 00000000 		.space	384
 3684      00000000 
 3684      00000000 
 3684      00000000 
 3684      00000000 
 3685              		.type	buf.7462, %object
 3686              		.size	buf.7462, 128
 3687              	buf.7462:
 3688 10c0 00000000 		.space	128
 3688      00000000 
 3688      00000000 
 3688      00000000 
 3688      00000000 
 3689              		.type	buf.7466, %object
 3690              		.size	buf.7466, 256
 3691              	buf.7466:
 3692 1140 00000000 		.space	256
 3692      00000000 
 3692      00000000 
 3692      00000000 
 3692      00000000 
 3693              		.type	buf.7470, %object
 3694              		.size	buf.7470, 1024
 3695              	buf.7470:
 3696 1240 00000000 		.space	1024
 3696      00000000 
 3696      00000000 
 3696      00000000 
 3696      00000000 
 3697              		.type	buf.7474, %object
ARM GAS  C:\Users\gjl\AppData\Local\Temp\ccNm9gHl.s 			page 79


 3698              		.size	buf.7474, 128
 3699              	buf.7474:
 3700 1640 00000000 		.space	128
 3700      00000000 
 3700      00000000 
 3700      00000000 
 3700      00000000 
 3701              		.type	buf.7478, %object
 3702              		.size	buf.7478, 256
 3703              	buf.7478:
 3704 16c0 00000000 		.space	256
 3704      00000000 
 3704      00000000 
 3704      00000000 
 3704      00000000 
 3705              		.type	buf.7482, %object
 3706              		.size	buf.7482, 1024
 3707              	buf.7482:
 3708 17c0 00000000 		.space	1024
 3708      00000000 
 3708      00000000 
 3708      00000000 
 3708      00000000 
 3709              		.type	buf.7486, %object
 3710              		.size	buf.7486, 96
 3711              	buf.7486:
 3712 1bc0 00000000 		.space	96
 3712      00000000 
 3712      00000000 
 3712      00000000 
 3712      00000000 
 3713              		.type	buf.7490, %object
 3714              		.size	buf.7490, 192
 3715              	buf.7490:
 3716 1c20 00000000 		.space	192
 3716      00000000 
 3716      00000000 
 3716      00000000 
 3716      00000000 
 3717              		.type	buf.7494, %object
 3718              		.size	buf.7494, 1152
 3719              	buf.7494:
 3720 1ce0 00000000 		.space	1152
 3720      00000000 
 3720      00000000 
 3720      00000000 
 3720      00000000 
 3721              		.type	buf.7498, %object
 3722              		.size	buf.7498, 64
 3723              	buf.7498:
 3724 2160 00000000 		.space	64
 3724      00000000 
 3724      00000000 
 3724      00000000 
 3724      00000000 
 3725              		.type	buf.7502, %object
 3726              		.size	buf.7502, 128
ARM GAS  C:\Users\gjl\AppData\Local\Temp\ccNm9gHl.s 			page 80


 3727              	buf.7502:
 3728 21a0 00000000 		.space	128
 3728      00000000 
 3728      00000000 
 3728      00000000 
 3728      00000000 
 3729              		.type	buf.7506, %object
 3730              		.size	buf.7506, 256
 3731              	buf.7506:
 3732 2220 00000000 		.space	256
 3732      00000000 
 3732      00000000 
 3732      00000000 
 3732      00000000 
 3733              		.type	buf.7510, %object
 3734              		.size	buf.7510, 192
 3735              	buf.7510:
 3736 2320 00000000 		.space	192
 3736      00000000 
 3736      00000000 
 3736      00000000 
 3736      00000000 
 3737              		.type	buf.7514, %object
 3738              		.size	buf.7514, 384
 3739              	buf.7514:
 3740 23e0 00000000 		.space	384
 3740      00000000 
 3740      00000000 
 3740      00000000 
 3740      00000000 
 3741              		.type	buf.7518, %object
 3742              		.size	buf.7518, 768
 3743              	buf.7518:
 3744 2560 00000000 		.space	768
 3744      00000000 
 3744      00000000 
 3744      00000000 
 3744      00000000 
 3745              		.type	buf.7522, %object
 3746              		.size	buf.7522, 128
 3747              	buf.7522:
 3748 2860 00000000 		.space	128
 3748      00000000 
 3748      00000000 
 3748      00000000 
 3748      00000000 
 3749              		.type	buf.7526, %object
 3750              		.size	buf.7526, 256
 3751              	buf.7526:
 3752 28e0 00000000 		.space	256
 3752      00000000 
 3752      00000000 
 3752      00000000 
 3752      00000000 
 3753              		.type	buf.7530, %object
 3754              		.size	buf.7530, 1024
 3755              	buf.7530:
ARM GAS  C:\Users\gjl\AppData\Local\Temp\ccNm9gHl.s 			page 81


 3756 29e0 00000000 		.space	1024
 3756      00000000 
 3756      00000000 
 3756      00000000 
 3756      00000000 
 3757              		.type	buf.7534, %object
 3758              		.size	buf.7534, 128
 3759              	buf.7534:
 3760 2de0 00000000 		.space	128
 3760      00000000 
 3760      00000000 
 3760      00000000 
 3760      00000000 
 3761              		.type	buf.7538, %object
 3762              		.size	buf.7538, 256
 3763              	buf.7538:
 3764 2e60 00000000 		.space	256
 3764      00000000 
 3764      00000000 
 3764      00000000 
 3764      00000000 
 3765              		.type	buf.7542, %object
 3766              		.size	buf.7542, 2048
 3767              	buf.7542:
 3768 2f60 00000000 		.space	2048
 3768      00000000 
 3768      00000000 
 3768      00000000 
 3768      00000000 
 3769              		.type	buf.7546, %object
 3770              		.size	buf.7546, 104
 3771              	buf.7546:
 3772 3760 00000000 		.space	104
 3772      00000000 
 3772      00000000 
 3772      00000000 
 3772      00000000 
 3773              		.type	buf.7550, %object
 3774              		.size	buf.7550, 208
 3775              	buf.7550:
 3776 37c8 00000000 		.space	208
 3776      00000000 
 3776      00000000 
 3776      00000000 
 3776      00000000 
 3777              		.type	buf.7554, %object
 3778              		.size	buf.7554, 832
 3779              	buf.7554:
 3780 3898 00000000 		.space	832
 3780      00000000 
 3780      00000000 
 3780      00000000 
 3780      00000000 
 3781              		.type	buf.7558, %object
 3782              		.size	buf.7558, 128
 3783              	buf.7558:
 3784 3bd8 00000000 		.space	128
ARM GAS  C:\Users\gjl\AppData\Local\Temp\ccNm9gHl.s 			page 82


 3784      00000000 
 3784      00000000 
 3784      00000000 
 3784      00000000 
 3785              		.type	buf.7562, %object
 3786              		.size	buf.7562, 256
 3787              	buf.7562:
 3788 3c58 00000000 		.space	256
 3788      00000000 
 3788      00000000 
 3788      00000000 
 3788      00000000 
 3789              		.type	buf.7566, %object
 3790              		.size	buf.7566, 1024
 3791              	buf.7566:
 3792 3d58 00000000 		.space	1024
 3792      00000000 
 3792      00000000 
 3792      00000000 
 3792      00000000 
 3793              		.type	buf.7570, %object
 3794              		.size	buf.7570, 88
 3795              	buf.7570:
 3796 4158 00000000 		.space	88
 3796      00000000 
 3796      00000000 
 3796      00000000 
 3796      00000000 
 3797              		.type	buf.7574, %object
 3798              		.size	buf.7574, 176
 3799              	buf.7574:
 3800 41b0 00000000 		.space	176
 3800      00000000 
 3800      00000000 
 3800      00000000 
 3800      00000000 
 3801              		.type	buf.7578, %object
 3802              		.size	buf.7578, 528
 3803              	buf.7578:
 3804 4260 00000000 		.space	528
 3804      00000000 
 3804      00000000 
 3804      00000000 
 3804      00000000 
 3805              		.type	buf.7582, %object
 3806              		.size	buf.7582, 96
 3807              	buf.7582:
 3808 4470 00000000 		.space	96
 3808      00000000 
 3808      00000000 
 3808      00000000 
 3808      00000000 
 3809              		.type	buf.7586, %object
 3810              		.size	buf.7586, 192
 3811              	buf.7586:
 3812 44d0 00000000 		.space	192
 3812      00000000 
ARM GAS  C:\Users\gjl\AppData\Local\Temp\ccNm9gHl.s 			page 83


 3812      00000000 
 3812      00000000 
 3812      00000000 
 3813              		.type	buf.7590, %object
 3814              		.size	buf.7590, 864
 3815              	buf.7590:
 3816 4590 00000000 		.space	864
 3816      00000000 
 3816      00000000 
 3816      00000000 
 3816      00000000 
 3817              		.type	buf.7594, %object
 3818              		.size	buf.7594, 192
 3819              	buf.7594:
 3820 48f0 00000000 		.space	192
 3820      00000000 
 3820      00000000 
 3820      00000000 
 3820      00000000 
 3821              		.type	buf.7598, %object
 3822              		.size	buf.7598, 384
 3823              	buf.7598:
 3824 49b0 00000000 		.space	384
 3824      00000000 
 3824      00000000 
 3824      00000000 
 3824      00000000 
 3825              		.type	buf.7602, %object
 3826              		.size	buf.7602, 1536
 3827              	buf.7602:
 3828 4b30 00000000 		.space	1536
 3828      00000000 
 3828      00000000 
 3828      00000000 
 3828      00000000 
 3829              		.type	buf.7606, %object
 3830              		.size	buf.7606, 240
 3831              	buf.7606:
 3832 5130 00000000 		.space	240
 3832      00000000 
 3832      00000000 
 3832      00000000 
 3832      00000000 
 3833              		.type	buf.7610, %object
 3834              		.size	buf.7610, 480
 3835              	buf.7610:
 3836 5220 00000000 		.space	480
 3836      00000000 
 3836      00000000 
 3836      00000000 
 3836      00000000 
 3837              		.type	buf.7614, %object
 3838              		.size	buf.7614, 1920
 3839              	buf.7614:
 3840 5400 00000000 		.space	1920
 3840      00000000 
 3840      00000000 
ARM GAS  C:\Users\gjl\AppData\Local\Temp\ccNm9gHl.s 			page 84


 3840      00000000 
 3840      00000000 
 3841              		.type	buf.7618, %object
 3842              		.size	buf.7618, 160
 3843              	buf.7618:
 3844 5b80 00000000 		.space	160
 3844      00000000 
 3844      00000000 
 3844      00000000 
 3844      00000000 
 3845              		.type	buf.7622, %object
 3846              		.size	buf.7622, 320
 3847              	buf.7622:
 3848 5c20 00000000 		.space	320
 3848      00000000 
 3848      00000000 
 3848      00000000 
 3848      00000000 
 3849              		.type	buf.7626, %object
 3850              		.size	buf.7626, 2080
 3851              	buf.7626:
 3852 5d60 00000000 		.space	2080
 3852      00000000 
 3852      00000000 
 3852      00000000 
 3852      00000000 
 3853              		.type	buf.7630, %object
 3854              		.size	buf.7630, 240
 3855              	buf.7630:
 3856 6580 00000000 		.space	240
 3856      00000000 
 3856      00000000 
 3856      00000000 
 3856      00000000 
 3857              		.type	buf.7634, %object
 3858              		.size	buf.7634, 480
 3859              	buf.7634:
 3860 6670 00000000 		.space	480
 3860      00000000 
 3860      00000000 
 3860      00000000 
 3860      00000000 
 3861              		.type	buf.7638, %object
 3862              		.size	buf.7638, 1920
 3863              	buf.7638:
 3864 6850 00000000 		.space	1920
 3864      00000000 
 3864      00000000 
 3864      00000000 
 3864      00000000 
 3865              		.type	buf.7642, %object
 3866              		.size	buf.7642, 128
 3867              	buf.7642:
 3868 6fd0 00000000 		.space	128
 3868      00000000 
 3868      00000000 
 3868      00000000 
ARM GAS  C:\Users\gjl\AppData\Local\Temp\ccNm9gHl.s 			page 85


 3868      00000000 
 3869              		.type	buf.7646, %object
 3870              		.size	buf.7646, 256
 3871              	buf.7646:
 3872 7050 00000000 		.space	256
 3872      00000000 
 3872      00000000 
 3872      00000000 
 3872      00000000 
 3873              		.type	buf.7650, %object
 3874              		.size	buf.7650, 1024
 3875              	buf.7650:
 3876 7150 00000000 		.space	1024
 3876      00000000 
 3876      00000000 
 3876      00000000 
 3876      00000000 
 3877              		.type	buf.7654, %object
 3878              		.size	buf.7654, 136
 3879              	buf.7654:
 3880 7550 00000000 		.space	136
 3880      00000000 
 3880      00000000 
 3880      00000000 
 3880      00000000 
 3881              		.type	buf.7658, %object
 3882              		.size	buf.7658, 272
 3883              	buf.7658:
 3884 75d8 00000000 		.space	272
 3884      00000000 
 3884      00000000 
 3884      00000000 
 3884      00000000 
 3885              		.type	buf.7662, %object
 3886              		.size	buf.7662, 544
 3887              	buf.7662:
 3888 76e8 00000000 		.space	544
 3888      00000000 
 3888      00000000 
 3888      00000000 
 3888      00000000 
 3889              		.type	buf.7666, %object
 3890              		.size	buf.7666, 136
 3891              	buf.7666:
 3892 7908 00000000 		.space	136
 3892      00000000 
 3892      00000000 
 3892      00000000 
 3892      00000000 
 3893              		.type	buf.7670, %object
 3894              		.size	buf.7670, 272
 3895              	buf.7670:
 3896 7990 00000000 		.space	272
 3896      00000000 
 3896      00000000 
 3896      00000000 
 3896      00000000 
ARM GAS  C:\Users\gjl\AppData\Local\Temp\ccNm9gHl.s 			page 86


 3897              		.type	buf.7674, %object
 3898              		.size	buf.7674, 1088
 3899              	buf.7674:
 3900 7aa0 00000000 		.space	1088
 3900      00000000 
 3900      00000000 
 3900      00000000 
 3900      00000000 
 3901              		.type	buf.7678, %object
 3902              		.size	buf.7678, 128
 3903              	buf.7678:
 3904 7ee0 00000000 		.space	128
 3904      00000000 
 3904      00000000 
 3904      00000000 
 3904      00000000 
 3905              		.type	buf.7682, %object
 3906              		.size	buf.7682, 256
 3907              	buf.7682:
 3908 7f60 00000000 		.space	256
 3908      00000000 
 3908      00000000 
 3908      00000000 
 3908      00000000 
 3909              		.type	buf.7686, %object
 3910              		.size	buf.7686, 1024
 3911              	buf.7686:
 3912 8060 00000000 		.space	1024
 3912      00000000 
 3912      00000000 
 3912      00000000 
 3912      00000000 
 3913              		.type	buf.7690, %object
 3914              		.size	buf.7690, 128
 3915              	buf.7690:
 3916 8460 00000000 		.space	128
 3916      00000000 
 3916      00000000 
 3916      00000000 
 3916      00000000 
 3917              		.type	buf.7694, %object
 3918              		.size	buf.7694, 256
 3919              	buf.7694:
 3920 84e0 00000000 		.space	256
 3920      00000000 
 3920      00000000 
 3920      00000000 
 3920      00000000 
 3921              		.type	buf.7698, %object
 3922              		.size	buf.7698, 1024
 3923              	buf.7698:
 3924 85e0 00000000 		.space	1024
 3924      00000000 
 3924      00000000 
 3924      00000000 
 3924      00000000 
 3925              		.type	buf.7702, %object
ARM GAS  C:\Users\gjl\AppData\Local\Temp\ccNm9gHl.s 			page 87


 3926              		.size	buf.7702, 192
 3927              	buf.7702:
 3928 89e0 00000000 		.space	192
 3928      00000000 
 3928      00000000 
 3928      00000000 
 3928      00000000 
 3929              		.type	buf.7706, %object
 3930              		.size	buf.7706, 384
 3931              	buf.7706:
 3932 8aa0 00000000 		.space	384
 3932      00000000 
 3932      00000000 
 3932      00000000 
 3932      00000000 
 3933              		.type	buf.7710, %object
 3934              		.size	buf.7710, 1536
 3935              	buf.7710:
 3936 8c20 00000000 		.space	1536
 3936      00000000 
 3936      00000000 
 3936      00000000 
 3936      00000000 
 3937              		.type	buf.7714, %object
 3938              		.size	buf.7714, 128
 3939              	buf.7714:
 3940 9220 00000000 		.space	128
 3940      00000000 
 3940      00000000 
 3940      00000000 
 3940      00000000 
 3941              		.type	buf.7718, %object
 3942              		.size	buf.7718, 256
 3943              	buf.7718:
 3944 92a0 00000000 		.space	256
 3944      00000000 
 3944      00000000 
 3944      00000000 
 3944      00000000 
 3945              		.type	buf.7722, %object
 3946              		.size	buf.7722, 1024
 3947              	buf.7722:
 3948 93a0 00000000 		.space	1024
 3948      00000000 
 3948      00000000 
 3948      00000000 
 3948      00000000 
 3949              		.type	buf.7726, %object
 3950              		.size	buf.7726, 192
 3951              	buf.7726:
 3952 97a0 00000000 		.space	192
 3952      00000000 
 3952      00000000 
 3952      00000000 
 3952      00000000 
 3953              		.type	buf.7730, %object
 3954              		.size	buf.7730, 384
ARM GAS  C:\Users\gjl\AppData\Local\Temp\ccNm9gHl.s 			page 88


 3955              	buf.7730:
 3956 9860 00000000 		.space	384
 3956      00000000 
 3956      00000000 
 3956      00000000 
 3956      00000000 
 3957              		.type	buf.7734, %object
 3958              		.size	buf.7734, 1536
 3959              	buf.7734:
 3960 99e0 00000000 		.space	1536
 3960      00000000 
 3960      00000000 
 3960      00000000 
 3960      00000000 
 3961              		.type	buf.7738, %object
 3962              		.size	buf.7738, 160
 3963              	buf.7738:
 3964 9fe0 00000000 		.space	160
 3964      00000000 
 3964      00000000 
 3964      00000000 
 3964      00000000 
 3965              		.type	buf.7742, %object
 3966              		.size	buf.7742, 320
 3967              	buf.7742:
 3968 a080 00000000 		.space	320
 3968      00000000 
 3968      00000000 
 3968      00000000 
 3968      00000000 
 3969              		.type	buf.7746, %object
 3970              		.size	buf.7746, 1600
 3971              	buf.7746:
 3972 a1c0 00000000 		.space	1600
 3972      00000000 
 3972      00000000 
 3972      00000000 
 3972      00000000 
 3973              		.type	buf.7750, %object
 3974              		.size	buf.7750, 240
 3975              	buf.7750:
 3976 a800 00000000 		.space	240
 3976      00000000 
 3976      00000000 
 3976      00000000 
 3976      00000000 
 3977              		.type	buf.7754, %object
 3978              		.size	buf.7754, 480
 3979              	buf.7754:
 3980 a8f0 00000000 		.space	480
 3980      00000000 
 3980      00000000 
 3980      00000000 
 3980      00000000 
 3981              		.type	buf.7758, %object
 3982              		.size	buf.7758, 3840
 3983              	buf.7758:
ARM GAS  C:\Users\gjl\AppData\Local\Temp\ccNm9gHl.s 			page 89


 3984 aad0 00000000 		.space	3840
 3984      00000000 
 3984      00000000 
 3984      00000000 
 3984      00000000 
 3985              		.type	buf.7762, %object
 3986              		.size	buf.7762, 240
 3987              	buf.7762:
 3988 b9d0 00000000 		.space	240
 3988      00000000 
 3988      00000000 
 3988      00000000 
 3988      00000000 
 3989              		.type	buf.7766, %object
 3990              		.size	buf.7766, 480
 3991              	buf.7766:
 3992 bac0 00000000 		.space	480
 3992      00000000 
 3992      00000000 
 3992      00000000 
 3992      00000000 
 3993              		.type	buf.7770, %object
 3994              		.size	buf.7770, 3840
 3995              	buf.7770:
 3996 bca0 00000000 		.space	3840
 3996      00000000 
 3996      00000000 
 3996      00000000 
 3996      00000000 
 3997              		.type	buf.7774, %object
 3998              		.size	buf.7774, 256
 3999              	buf.7774:
 4000 cba0 00000000 		.space	256
 4000      00000000 
 4000      00000000 
 4000      00000000 
 4000      00000000 
 4001              		.type	buf.7778, %object
 4002              		.size	buf.7778, 512
 4003              	buf.7778:
 4004 cca0 00000000 		.space	512
 4004      00000000 
 4004      00000000 
 4004      00000000 
 4004      00000000 
 4005              		.type	buf.7782, %object
 4006              		.size	buf.7782, 2048
 4007              	buf.7782:
 4008 cea0 00000000 		.space	2048
 4008      00000000 
 4008      00000000 
 4008      00000000 
 4008      00000000 
 4009              		.type	buf.7786, %object
 4010              		.size	buf.7786, 128
 4011              	buf.7786:
 4012 d6a0 00000000 		.space	128
ARM GAS  C:\Users\gjl\AppData\Local\Temp\ccNm9gHl.s 			page 90


 4012      00000000 
 4012      00000000 
 4012      00000000 
 4012      00000000 
 4013              		.type	buf.7790, %object
 4014              		.size	buf.7790, 256
 4015              	buf.7790:
 4016 d720 00000000 		.space	256
 4016      00000000 
 4016      00000000 
 4016      00000000 
 4016      00000000 
 4017              		.type	buf.7794, %object
 4018              		.size	buf.7794, 1024
 4019              	buf.7794:
 4020 d820 00000000 		.space	1024
 4020      00000000 
 4020      00000000 
 4020      00000000 
 4020      00000000 
 4021              		.type	buf.7798, %object
 4022              		.size	buf.7798, 256
 4023              	buf.7798:
 4024 dc20 00000000 		.space	256
 4024      00000000 
 4024      00000000 
 4024      00000000 
 4024      00000000 
 4025              		.type	buf.7802, %object
 4026              		.size	buf.7802, 512
 4027              	buf.7802:
 4028 dd20 00000000 		.space	512
 4028      00000000 
 4028      00000000 
 4028      00000000 
 4028      00000000 
 4029              		.type	buf.7806, %object
 4030              		.size	buf.7806, 2048
 4031              	buf.7806:
 4032 df20 00000000 		.space	2048
 4032      00000000 
 4032      00000000 
 4032      00000000 
 4032      00000000 
 4033              		.type	buf.7810, %object
 4034              		.size	buf.7810, 176
 4035              	buf.7810:
 4036 e720 00000000 		.space	176
 4036      00000000 
 4036      00000000 
 4036      00000000 
 4036      00000000 
 4037              		.type	buf.7814, %object
 4038              		.size	buf.7814, 352
 4039              	buf.7814:
 4040 e7d0 00000000 		.space	352
 4040      00000000 
ARM GAS  C:\Users\gjl\AppData\Local\Temp\ccNm9gHl.s 			page 91


 4040      00000000 
 4040      00000000 
 4040      00000000 
 4041              		.type	buf.7818, %object
 4042              		.size	buf.7818, 1584
 4043              	buf.7818:
 4044 e930 00000000 		.space	1584
 4044      00000000 
 4044      00000000 
 4044      00000000 
 4044      00000000 
 4045              		.type	buf.7822, %object
 4046              		.size	buf.7822, 200
 4047              	buf.7822:
 4048 ef60 00000000 		.space	200
 4048      00000000 
 4048      00000000 
 4048      00000000 
 4048      00000000 
 4049              		.type	buf.7826, %object
 4050              		.size	buf.7826, 400
 4051              	buf.7826:
 4052 f028 00000000 		.space	400
 4052      00000000 
 4052      00000000 
 4052      00000000 
 4052      00000000 
 4053              		.type	buf.7830, %object
 4054              		.size	buf.7830, 5000
 4055              	buf.7830:
 4056 f1b8 00000000 		.space	5000
 4056      00000000 
 4056      00000000 
 4056      00000000 
 4056      00000000 
 4057              		.type	buf.7834, %object
 4058              		.size	buf.7834, 240
 4059              	buf.7834:
 4060 10540 00000000 		.space	240
 4060      00000000 
 4060      00000000 
 4060      00000000 
 4060      00000000 
 4061              		.type	buf.7838, %object
 4062              		.size	buf.7838, 480
 4063              	buf.7838:
 4064 10630 00000000 		.space	480
 4064      00000000 
 4064      00000000 
 4064      00000000 
 4064      00000000 
 4065              		.type	buf.7842, %object
 4066              		.size	buf.7842, 3840
 4067              	buf.7842:
 4068 10810 00000000 		.space	3840
 4068      00000000 
 4068      00000000 
ARM GAS  C:\Users\gjl\AppData\Local\Temp\ccNm9gHl.s 			page 92


 4068      00000000 
 4068      00000000 
 4069              		.type	buf.7846, %object
 4070              		.size	buf.7846, 240
 4071              	buf.7846:
 4072 11710 00000000 		.space	240
 4072      00000000 
 4072      00000000 
 4072      00000000 
 4072      00000000 
 4073              		.type	buf.7850, %object
 4074              		.size	buf.7850, 480
 4075              	buf.7850:
 4076 11800 00000000 		.space	480
 4076      00000000 
 4076      00000000 
 4076      00000000 
 4076      00000000 
 4077              		.type	buf.7854, %object
 4078              		.size	buf.7854, 3840
 4079              	buf.7854:
 4080 119e0 00000000 		.space	3840
 4080      00000000 
 4080      00000000 
 4080      00000000 
 4080      00000000 
 4081              		.type	buf.7858, %object
 4082              		.size	buf.7858, 384
 4083              	buf.7858:
 4084 128e0 00000000 		.space	384
 4084      00000000 
 4084      00000000 
 4084      00000000 
 4084      00000000 
 4085              		.type	buf.7862, %object
 4086              		.size	buf.7862, 768
 4087              	buf.7862:
 4088 12a60 00000000 		.space	768
 4088      00000000 
 4088      00000000 
 4088      00000000 
 4088      00000000 
 4089              		.type	buf.7866, %object
 4090              		.size	buf.7866, 11520
 4091              	buf.7866:
 4092 12d60 00000000 		.space	11520
 4092      00000000 
 4092      00000000 
 4092      00000000 
 4092      00000000 
 4093              		.text
 4094              	.Letext0:
 4095              		.file 2 "c:\\program files (x86)\\cypress\\psoc creator\\4.1\\psoc creator\\import\\gnu\\arm\\5.4.
 4096              		.file 3 "c:\\program files (x86)\\cypress\\psoc creator\\4.1\\psoc creator\\import\\gnu\\arm\\5.4.
 4097              		.section	.debug_info,"",%progbits
 4098              	.Ldebug_info0:
 4099 0000 A21D0000 		.4byte	0x1da2
ARM GAS  C:\Users\gjl\AppData\Local\Temp\ccNm9gHl.s 			page 93


 4100 0004 0400     		.2byte	0x4
 4101 0006 00000000 		.4byte	.Ldebug_abbrev0
 4102 000a 04       		.byte	0x4
 4103 000b 01       		.uleb128 0x1
 4104 000c CA000000 		.4byte	.LASF128
 4105 0010 0C       		.byte	0xc
 4106 0011 60020000 		.4byte	.LASF129
 4107 0015 B3060000 		.4byte	.LASF130
 4108 0019 00000000 		.4byte	.Ldebug_ranges0+0
 4109 001d 00000000 		.4byte	0
 4110 0021 00000000 		.4byte	.Ldebug_line0
 4111 0025 02       		.uleb128 0x2
 4112 0026 01       		.byte	0x1
 4113 0027 06       		.byte	0x6
 4114 0028 54020000 		.4byte	.LASF0
 4115 002c 03       		.uleb128 0x3
 4116 002d 9B000000 		.4byte	.LASF9
 4117 0031 02       		.byte	0x2
 4118 0032 1D       		.byte	0x1d
 4119 0033 37000000 		.4byte	0x37
 4120 0037 02       		.uleb128 0x2
 4121 0038 01       		.byte	0x1
 4122 0039 08       		.byte	0x8
 4123 003a D1070000 		.4byte	.LASF1
 4124 003e 02       		.uleb128 0x2
 4125 003f 02       		.byte	0x2
 4126 0040 05       		.byte	0x5
 4127 0041 DF070000 		.4byte	.LASF2
 4128 0045 02       		.uleb128 0x2
 4129 0046 02       		.byte	0x2
 4130 0047 07       		.byte	0x7
 4131 0048 52050000 		.4byte	.LASF3
 4132 004c 02       		.uleb128 0x2
 4133 004d 04       		.byte	0x4
 4134 004e 05       		.byte	0x5
 4135 004f CC020000 		.4byte	.LASF4
 4136 0053 02       		.uleb128 0x2
 4137 0054 04       		.byte	0x4
 4138 0055 07       		.byte	0x7
 4139 0056 CC040000 		.4byte	.LASF5
 4140 005a 02       		.uleb128 0x2
 4141 005b 08       		.byte	0x8
 4142 005c 05       		.byte	0x5
 4143 005d 46020000 		.4byte	.LASF6
 4144 0061 02       		.uleb128 0x2
 4145 0062 08       		.byte	0x8
 4146 0063 07       		.byte	0x7
 4147 0064 A7010000 		.4byte	.LASF7
 4148 0068 04       		.uleb128 0x4
 4149 0069 04       		.byte	0x4
 4150 006a 05       		.byte	0x5
 4151 006b 696E7400 		.ascii	"int\000"
 4152 006f 02       		.uleb128 0x2
 4153 0070 04       		.byte	0x4
 4154 0071 07       		.byte	0x7
 4155 0072 AD040000 		.4byte	.LASF8
 4156 0076 03       		.uleb128 0x3
ARM GAS  C:\Users\gjl\AppData\Local\Temp\ccNm9gHl.s 			page 94


 4157 0077 53090000 		.4byte	.LASF10
 4158 007b 03       		.byte	0x3
 4159 007c 18       		.byte	0x18
 4160 007d 2C000000 		.4byte	0x2c
 4161 0081 02       		.uleb128 0x2
 4162 0082 08       		.byte	0x8
 4163 0083 04       		.byte	0x4
 4164 0084 06070000 		.4byte	.LASF11
 4165 0088 05       		.uleb128 0x5
 4166 0089 04       		.byte	0x4
 4167 008a 76000000 		.4byte	0x76
 4168 008e 06       		.uleb128 0x6
 4169 008f FE030000 		.4byte	.LASF13
 4170 0093 01       		.byte	0x1
 4171 0094 06       		.byte	0x6
 4172 0095 88000000 		.4byte	0x88
 4173 0099 00000000 		.4byte	.LFB0
 4174 009d 0C000000 		.4byte	.LFE0-.LFB0
 4175 00a1 01       		.uleb128 0x1
 4176 00a2 9C       		.byte	0x9c
 4177 00a3 C8000000 		.4byte	0xc8
 4178 00a7 07       		.uleb128 0x7
 4179 00a8 6F090000 		.4byte	.LASF15
 4180 00ac 01       		.byte	0x1
 4181 00ad 06       		.byte	0x6
 4182 00ae 88000000 		.4byte	0x88
 4183 00b2 00000000 		.4byte	.LLST0
 4184 00b6 08       		.uleb128 0x8
 4185 00b7 62756600 		.ascii	"buf\000"
 4186 00bb 01       		.byte	0x1
 4187 00bc 08       		.byte	0x8
 4188 00bd C8000000 		.4byte	0xc8
 4189 00c1 05       		.uleb128 0x5
 4190 00c2 03       		.byte	0x3
 4191 00c3 00000000 		.4byte	buf.7414
 4192 00c7 00       		.byte	0
 4193 00c8 09       		.uleb128 0x9
 4194 00c9 76000000 		.4byte	0x76
 4195 00cd D8000000 		.4byte	0xd8
 4196 00d1 0A       		.uleb128 0xa
 4197 00d2 D8000000 		.4byte	0xd8
 4198 00d6 7F       		.byte	0x7f
 4199 00d7 00       		.byte	0
 4200 00d8 02       		.uleb128 0x2
 4201 00d9 04       		.byte	0x4
 4202 00da 07       		.byte	0x7
 4203 00db EA060000 		.4byte	.LASF12
 4204 00df 06       		.uleb128 0x6
 4205 00e0 12040000 		.4byte	.LASF14
 4206 00e4 01       		.byte	0x1
 4207 00e5 0C       		.byte	0xc
 4208 00e6 88000000 		.4byte	0x88
 4209 00ea 00000000 		.4byte	.LFB1
 4210 00ee 0C000000 		.4byte	.LFE1-.LFB1
 4211 00f2 01       		.uleb128 0x1
 4212 00f3 9C       		.byte	0x9c
 4213 00f4 19010000 		.4byte	0x119
ARM GAS  C:\Users\gjl\AppData\Local\Temp\ccNm9gHl.s 			page 95


 4214 00f8 07       		.uleb128 0x7
 4215 00f9 6F090000 		.4byte	.LASF15
 4216 00fd 01       		.byte	0x1
 4217 00fe 0C       		.byte	0xc
 4218 00ff 88000000 		.4byte	0x88
 4219 0103 21000000 		.4byte	.LLST1
 4220 0107 08       		.uleb128 0x8
 4221 0108 62756600 		.ascii	"buf\000"
 4222 010c 01       		.byte	0x1
 4223 010d 0E       		.byte	0xe
 4224 010e 19010000 		.4byte	0x119
 4225 0112 05       		.uleb128 0x5
 4226 0113 03       		.byte	0x3
 4227 0114 80000000 		.4byte	buf.7418
 4228 0118 00       		.byte	0
 4229 0119 09       		.uleb128 0x9
 4230 011a 76000000 		.4byte	0x76
 4231 011e 29010000 		.4byte	0x129
 4232 0122 0A       		.uleb128 0xa
 4233 0123 D8000000 		.4byte	0xd8
 4234 0127 FF       		.byte	0xff
 4235 0128 00       		.byte	0
 4236 0129 06       		.uleb128 0x6
 4237 012a 8C050000 		.4byte	.LASF16
 4238 012e 01       		.byte	0x1
 4239 012f 12       		.byte	0x12
 4240 0130 88000000 		.4byte	0x88
 4241 0134 00000000 		.4byte	.LFB2
 4242 0138 0C000000 		.4byte	.LFE2-.LFB2
 4243 013c 01       		.uleb128 0x1
 4244 013d 9C       		.byte	0x9c
 4245 013e 63010000 		.4byte	0x163
 4246 0142 07       		.uleb128 0x7
 4247 0143 6F090000 		.4byte	.LASF15
 4248 0147 01       		.byte	0x1
 4249 0148 12       		.byte	0x12
 4250 0149 88000000 		.4byte	0x88
 4251 014d 42000000 		.4byte	.LLST2
 4252 0151 08       		.uleb128 0x8
 4253 0152 62756600 		.ascii	"buf\000"
 4254 0156 01       		.byte	0x1
 4255 0157 14       		.byte	0x14
 4256 0158 63010000 		.4byte	0x163
 4257 015c 05       		.uleb128 0x5
 4258 015d 03       		.byte	0x3
 4259 015e 80010000 		.4byte	buf.7422
 4260 0162 00       		.byte	0
 4261 0163 09       		.uleb128 0x9
 4262 0164 76000000 		.4byte	0x76
 4263 0168 74010000 		.4byte	0x174
 4264 016c 0B       		.uleb128 0xb
 4265 016d D8000000 		.4byte	0xd8
 4266 0171 FF01     		.2byte	0x1ff
 4267 0173 00       		.byte	0
 4268 0174 06       		.uleb128 0x6
 4269 0175 C6050000 		.4byte	.LASF17
 4270 0179 01       		.byte	0x1
ARM GAS  C:\Users\gjl\AppData\Local\Temp\ccNm9gHl.s 			page 96


 4271 017a 18       		.byte	0x18
 4272 017b 88000000 		.4byte	0x88
 4273 017f 00000000 		.4byte	.LFB3
 4274 0183 0C000000 		.4byte	.LFE3-.LFB3
 4275 0187 01       		.uleb128 0x1
 4276 0188 9C       		.byte	0x9c
 4277 0189 AE010000 		.4byte	0x1ae
 4278 018d 07       		.uleb128 0x7
 4279 018e 6F090000 		.4byte	.LASF15
 4280 0192 01       		.byte	0x1
 4281 0193 18       		.byte	0x18
 4282 0194 88000000 		.4byte	0x88
 4283 0198 63000000 		.4byte	.LLST3
 4284 019c 08       		.uleb128 0x8
 4285 019d 62756600 		.ascii	"buf\000"
 4286 01a1 01       		.byte	0x1
 4287 01a2 1A       		.byte	0x1a
 4288 01a3 C8000000 		.4byte	0xc8
 4289 01a7 05       		.uleb128 0x5
 4290 01a8 03       		.byte	0x3
 4291 01a9 80030000 		.4byte	buf.7426
 4292 01ad 00       		.byte	0
 4293 01ae 06       		.uleb128 0x6
 4294 01af DA050000 		.4byte	.LASF18
 4295 01b3 01       		.byte	0x1
 4296 01b4 1E       		.byte	0x1e
 4297 01b5 88000000 		.4byte	0x88
 4298 01b9 00000000 		.4byte	.LFB4
 4299 01bd 0C000000 		.4byte	.LFE4-.LFB4
 4300 01c1 01       		.uleb128 0x1
 4301 01c2 9C       		.byte	0x9c
 4302 01c3 E8010000 		.4byte	0x1e8
 4303 01c7 07       		.uleb128 0x7
 4304 01c8 6F090000 		.4byte	.LASF15
 4305 01cc 01       		.byte	0x1
 4306 01cd 1E       		.byte	0x1e
 4307 01ce 88000000 		.4byte	0x88
 4308 01d2 84000000 		.4byte	.LLST4
 4309 01d6 08       		.uleb128 0x8
 4310 01d7 62756600 		.ascii	"buf\000"
 4311 01db 01       		.byte	0x1
 4312 01dc 20       		.byte	0x20
 4313 01dd 19010000 		.4byte	0x119
 4314 01e1 05       		.uleb128 0x5
 4315 01e2 03       		.byte	0x3
 4316 01e3 00040000 		.4byte	buf.7430
 4317 01e7 00       		.byte	0
 4318 01e8 06       		.uleb128 0x6
 4319 01e9 25070000 		.4byte	.LASF19
 4320 01ed 01       		.byte	0x1
 4321 01ee 24       		.byte	0x24
 4322 01ef 88000000 		.4byte	0x88
 4323 01f3 00000000 		.4byte	.LFB5
 4324 01f7 0C000000 		.4byte	.LFE5-.LFB5
 4325 01fb 01       		.uleb128 0x1
 4326 01fc 9C       		.byte	0x9c
 4327 01fd 22020000 		.4byte	0x222
ARM GAS  C:\Users\gjl\AppData\Local\Temp\ccNm9gHl.s 			page 97


 4328 0201 07       		.uleb128 0x7
 4329 0202 6F090000 		.4byte	.LASF15
 4330 0206 01       		.byte	0x1
 4331 0207 24       		.byte	0x24
 4332 0208 88000000 		.4byte	0x88
 4333 020c A5000000 		.4byte	.LLST5
 4334 0210 08       		.uleb128 0x8
 4335 0211 62756600 		.ascii	"buf\000"
 4336 0215 01       		.byte	0x1
 4337 0216 26       		.byte	0x26
 4338 0217 22020000 		.4byte	0x222
 4339 021b 05       		.uleb128 0x5
 4340 021c 03       		.byte	0x3
 4341 021d 00050000 		.4byte	buf.7434
 4342 0221 00       		.byte	0
 4343 0222 09       		.uleb128 0x9
 4344 0223 76000000 		.4byte	0x76
 4345 0227 33020000 		.4byte	0x233
 4346 022b 0B       		.uleb128 0xb
 4347 022c D8000000 		.4byte	0xd8
 4348 0230 FF03     		.2byte	0x3ff
 4349 0232 00       		.byte	0
 4350 0233 06       		.uleb128 0x6
 4351 0234 5F040000 		.4byte	.LASF20
 4352 0238 01       		.byte	0x1
 4353 0239 2A       		.byte	0x2a
 4354 023a 88000000 		.4byte	0x88
 4355 023e 00000000 		.4byte	.LFB6
 4356 0242 0C000000 		.4byte	.LFE6-.LFB6
 4357 0246 01       		.uleb128 0x1
 4358 0247 9C       		.byte	0x9c
 4359 0248 6D020000 		.4byte	0x26d
 4360 024c 07       		.uleb128 0x7
 4361 024d 6F090000 		.4byte	.LASF15
 4362 0251 01       		.byte	0x1
 4363 0252 2A       		.byte	0x2a
 4364 0253 88000000 		.4byte	0x88
 4365 0257 C6000000 		.4byte	.LLST6
 4366 025b 08       		.uleb128 0x8
 4367 025c 62756600 		.ascii	"buf\000"
 4368 0260 01       		.byte	0x1
 4369 0261 2C       		.byte	0x2c
 4370 0262 C8000000 		.4byte	0xc8
 4371 0266 05       		.uleb128 0x5
 4372 0267 03       		.byte	0x3
 4373 0268 00090000 		.4byte	buf.7438
 4374 026c 00       		.byte	0
 4375 026d 06       		.uleb128 0x6
 4376 026e 72040000 		.4byte	.LASF21
 4377 0272 01       		.byte	0x1
 4378 0273 30       		.byte	0x30
 4379 0274 88000000 		.4byte	0x88
 4380 0278 00000000 		.4byte	.LFB7
 4381 027c 0C000000 		.4byte	.LFE7-.LFB7
 4382 0280 01       		.uleb128 0x1
 4383 0281 9C       		.byte	0x9c
 4384 0282 A7020000 		.4byte	0x2a7
ARM GAS  C:\Users\gjl\AppData\Local\Temp\ccNm9gHl.s 			page 98


 4385 0286 07       		.uleb128 0x7
 4386 0287 6F090000 		.4byte	.LASF15
 4387 028b 01       		.byte	0x1
 4388 028c 30       		.byte	0x30
 4389 028d 88000000 		.4byte	0x88
 4390 0291 E7000000 		.4byte	.LLST7
 4391 0295 08       		.uleb128 0x8
 4392 0296 62756600 		.ascii	"buf\000"
 4393 029a 01       		.byte	0x1
 4394 029b 32       		.byte	0x32
 4395 029c 19010000 		.4byte	0x119
 4396 02a0 05       		.uleb128 0x5
 4397 02a1 03       		.byte	0x3
 4398 02a2 80090000 		.4byte	buf.7442
 4399 02a6 00       		.byte	0
 4400 02a7 06       		.uleb128 0x6
 4401 02a8 01060000 		.4byte	.LASF22
 4402 02ac 01       		.byte	0x1
 4403 02ad 36       		.byte	0x36
 4404 02ae 88000000 		.4byte	0x88
 4405 02b2 00000000 		.4byte	.LFB8
 4406 02b6 0C000000 		.4byte	.LFE8-.LFB8
 4407 02ba 01       		.uleb128 0x1
 4408 02bb 9C       		.byte	0x9c
 4409 02bc E1020000 		.4byte	0x2e1
 4410 02c0 07       		.uleb128 0x7
 4411 02c1 6F090000 		.4byte	.LASF15
 4412 02c5 01       		.byte	0x1
 4413 02c6 36       		.byte	0x36
 4414 02c7 88000000 		.4byte	0x88
 4415 02cb 08010000 		.4byte	.LLST8
 4416 02cf 08       		.uleb128 0x8
 4417 02d0 62756600 		.ascii	"buf\000"
 4418 02d4 01       		.byte	0x1
 4419 02d5 38       		.byte	0x38
 4420 02d6 22020000 		.4byte	0x222
 4421 02da 05       		.uleb128 0x5
 4422 02db 03       		.byte	0x3
 4423 02dc 800A0000 		.4byte	buf.7446
 4424 02e0 00       		.byte	0
 4425 02e1 06       		.uleb128 0x6
 4426 02e2 E9070000 		.4byte	.LASF23
 4427 02e6 01       		.byte	0x1
 4428 02e7 3C       		.byte	0x3c
 4429 02e8 88000000 		.4byte	0x88
 4430 02ec 00000000 		.4byte	.LFB9
 4431 02f0 0C000000 		.4byte	.LFE9-.LFB9
 4432 02f4 01       		.uleb128 0x1
 4433 02f5 9C       		.byte	0x9c
 4434 02f6 1B030000 		.4byte	0x31b
 4435 02fa 07       		.uleb128 0x7
 4436 02fb 6F090000 		.4byte	.LASF15
 4437 02ff 01       		.byte	0x1
 4438 0300 3C       		.byte	0x3c
 4439 0301 88000000 		.4byte	0x88
 4440 0305 29010000 		.4byte	.LLST9
 4441 0309 08       		.uleb128 0x8
ARM GAS  C:\Users\gjl\AppData\Local\Temp\ccNm9gHl.s 			page 99


 4442 030a 62756600 		.ascii	"buf\000"
 4443 030e 01       		.byte	0x1
 4444 030f 3E       		.byte	0x3e
 4445 0310 1B030000 		.4byte	0x31b
 4446 0314 05       		.uleb128 0x5
 4447 0315 03       		.byte	0x3
 4448 0316 800E0000 		.4byte	buf.7450
 4449 031a 00       		.byte	0
 4450 031b 09       		.uleb128 0x9
 4451 031c 76000000 		.4byte	0x76
 4452 0320 2B030000 		.4byte	0x32b
 4453 0324 0A       		.uleb128 0xa
 4454 0325 D8000000 		.4byte	0xd8
 4455 0329 3F       		.byte	0x3f
 4456 032a 00       		.byte	0
 4457 032b 06       		.uleb128 0x6
 4458 032c FC070000 		.4byte	.LASF24
 4459 0330 01       		.byte	0x1
 4460 0331 42       		.byte	0x42
 4461 0332 88000000 		.4byte	0x88
 4462 0336 00000000 		.4byte	.LFB10
 4463 033a 10000000 		.4byte	.LFE10-.LFB10
 4464 033e 01       		.uleb128 0x1
 4465 033f 9C       		.byte	0x9c
 4466 0340 65030000 		.4byte	0x365
 4467 0344 07       		.uleb128 0x7
 4468 0345 6F090000 		.4byte	.LASF15
 4469 0349 01       		.byte	0x1
 4470 034a 42       		.byte	0x42
 4471 034b 88000000 		.4byte	0x88
 4472 034f 4A010000 		.4byte	.LLST10
 4473 0353 08       		.uleb128 0x8
 4474 0354 62756600 		.ascii	"buf\000"
 4475 0358 01       		.byte	0x1
 4476 0359 44       		.byte	0x44
 4477 035a C8000000 		.4byte	0xc8
 4478 035e 05       		.uleb128 0x5
 4479 035f 03       		.byte	0x3
 4480 0360 C00E0000 		.4byte	buf.7454
 4481 0364 00       		.byte	0
 4482 0365 06       		.uleb128 0x6
 4483 0366 94080000 		.4byte	.LASF25
 4484 036a 01       		.byte	0x1
 4485 036b 48       		.byte	0x48
 4486 036c 88000000 		.4byte	0x88
 4487 0370 00000000 		.4byte	.LFB11
 4488 0374 10000000 		.4byte	.LFE11-.LFB11
 4489 0378 01       		.uleb128 0x1
 4490 0379 9C       		.byte	0x9c
 4491 037a 9F030000 		.4byte	0x39f
 4492 037e 07       		.uleb128 0x7
 4493 037f 6F090000 		.4byte	.LASF15
 4494 0383 01       		.byte	0x1
 4495 0384 48       		.byte	0x48
 4496 0385 88000000 		.4byte	0x88
 4497 0389 6B010000 		.4byte	.LLST11
 4498 038d 08       		.uleb128 0x8
ARM GAS  C:\Users\gjl\AppData\Local\Temp\ccNm9gHl.s 			page 100


 4499 038e 62756600 		.ascii	"buf\000"
 4500 0392 01       		.byte	0x1
 4501 0393 4A       		.byte	0x4a
 4502 0394 9F030000 		.4byte	0x39f
 4503 0398 05       		.uleb128 0x5
 4504 0399 03       		.byte	0x3
 4505 039a 400F0000 		.4byte	buf.7458
 4506 039e 00       		.byte	0
 4507 039f 09       		.uleb128 0x9
 4508 03a0 76000000 		.4byte	0x76
 4509 03a4 B0030000 		.4byte	0x3b0
 4510 03a8 0B       		.uleb128 0xb
 4511 03a9 D8000000 		.4byte	0xd8
 4512 03ad 7F01     		.2byte	0x17f
 4513 03af 00       		.byte	0
 4514 03b0 06       		.uleb128 0x6
 4515 03b1 7F010000 		.4byte	.LASF26
 4516 03b5 01       		.byte	0x1
 4517 03b6 4E       		.byte	0x4e
 4518 03b7 88000000 		.4byte	0x88
 4519 03bb 00000000 		.4byte	.LFB12
 4520 03bf 10000000 		.4byte	.LFE12-.LFB12
 4521 03c3 01       		.uleb128 0x1
 4522 03c4 9C       		.byte	0x9c
 4523 03c5 EA030000 		.4byte	0x3ea
 4524 03c9 07       		.uleb128 0x7
 4525 03ca 6F090000 		.4byte	.LASF15
 4526 03ce 01       		.byte	0x1
 4527 03cf 4E       		.byte	0x4e
 4528 03d0 88000000 		.4byte	0x88
 4529 03d4 8C010000 		.4byte	.LLST12
 4530 03d8 08       		.uleb128 0x8
 4531 03d9 62756600 		.ascii	"buf\000"
 4532 03dd 01       		.byte	0x1
 4533 03de 50       		.byte	0x50
 4534 03df C8000000 		.4byte	0xc8
 4535 03e3 05       		.uleb128 0x5
 4536 03e4 03       		.byte	0x3
 4537 03e5 C0100000 		.4byte	buf.7462
 4538 03e9 00       		.byte	0
 4539 03ea 06       		.uleb128 0x6
 4540 03eb 93010000 		.4byte	.LASF27
 4541 03ef 01       		.byte	0x1
 4542 03f0 54       		.byte	0x54
 4543 03f1 88000000 		.4byte	0x88
 4544 03f5 00000000 		.4byte	.LFB13
 4545 03f9 10000000 		.4byte	.LFE13-.LFB13
 4546 03fd 01       		.uleb128 0x1
 4547 03fe 9C       		.byte	0x9c
 4548 03ff 24040000 		.4byte	0x424
 4549 0403 07       		.uleb128 0x7
 4550 0404 6F090000 		.4byte	.LASF15
 4551 0408 01       		.byte	0x1
 4552 0409 54       		.byte	0x54
 4553 040a 88000000 		.4byte	0x88
 4554 040e AD010000 		.4byte	.LLST13
 4555 0412 08       		.uleb128 0x8
ARM GAS  C:\Users\gjl\AppData\Local\Temp\ccNm9gHl.s 			page 101


 4556 0413 62756600 		.ascii	"buf\000"
 4557 0417 01       		.byte	0x1
 4558 0418 56       		.byte	0x56
 4559 0419 19010000 		.4byte	0x119
 4560 041d 05       		.uleb128 0x5
 4561 041e 03       		.byte	0x3
 4562 041f 40110000 		.4byte	buf.7466
 4563 0423 00       		.byte	0
 4564 0424 06       		.uleb128 0x6
 4565 0425 B8020000 		.4byte	.LASF28
 4566 0429 01       		.byte	0x1
 4567 042a 5A       		.byte	0x5a
 4568 042b 88000000 		.4byte	0x88
 4569 042f 00000000 		.4byte	.LFB14
 4570 0433 10000000 		.4byte	.LFE14-.LFB14
 4571 0437 01       		.uleb128 0x1
 4572 0438 9C       		.byte	0x9c
 4573 0439 5E040000 		.4byte	0x45e
 4574 043d 07       		.uleb128 0x7
 4575 043e 6F090000 		.4byte	.LASF15
 4576 0442 01       		.byte	0x1
 4577 0443 5A       		.byte	0x5a
 4578 0444 88000000 		.4byte	0x88
 4579 0448 CE010000 		.4byte	.LLST14
 4580 044c 08       		.uleb128 0x8
 4581 044d 62756600 		.ascii	"buf\000"
 4582 0451 01       		.byte	0x1
 4583 0452 5C       		.byte	0x5c
 4584 0453 22020000 		.4byte	0x222
 4585 0457 05       		.uleb128 0x5
 4586 0458 03       		.byte	0x3
 4587 0459 40120000 		.4byte	buf.7470
 4588 045d 00       		.byte	0
 4589 045e 06       		.uleb128 0x6
 4590 045f 85040000 		.4byte	.LASF29
 4591 0463 01       		.byte	0x1
 4592 0464 60       		.byte	0x60
 4593 0465 88000000 		.4byte	0x88
 4594 0469 00000000 		.4byte	.LFB15
 4595 046d 10000000 		.4byte	.LFE15-.LFB15
 4596 0471 01       		.uleb128 0x1
 4597 0472 9C       		.byte	0x9c
 4598 0473 98040000 		.4byte	0x498
 4599 0477 07       		.uleb128 0x7
 4600 0478 6F090000 		.4byte	.LASF15
 4601 047c 01       		.byte	0x1
 4602 047d 60       		.byte	0x60
 4603 047e 88000000 		.4byte	0x88
 4604 0482 EF010000 		.4byte	.LLST15
 4605 0486 08       		.uleb128 0x8
 4606 0487 62756600 		.ascii	"buf\000"
 4607 048b 01       		.byte	0x1
 4608 048c 62       		.byte	0x62
 4609 048d C8000000 		.4byte	0xc8
 4610 0491 05       		.uleb128 0x5
 4611 0492 03       		.byte	0x3
 4612 0493 40160000 		.4byte	buf.7474
ARM GAS  C:\Users\gjl\AppData\Local\Temp\ccNm9gHl.s 			page 102


 4613 0497 00       		.byte	0
 4614 0498 06       		.uleb128 0x6
 4615 0499 99040000 		.4byte	.LASF30
 4616 049d 01       		.byte	0x1
 4617 049e 66       		.byte	0x66
 4618 049f 88000000 		.4byte	0x88
 4619 04a3 00000000 		.4byte	.LFB16
 4620 04a7 10000000 		.4byte	.LFE16-.LFB16
 4621 04ab 01       		.uleb128 0x1
 4622 04ac 9C       		.byte	0x9c
 4623 04ad D2040000 		.4byte	0x4d2
 4624 04b1 07       		.uleb128 0x7
 4625 04b2 6F090000 		.4byte	.LASF15
 4626 04b6 01       		.byte	0x1
 4627 04b7 66       		.byte	0x66
 4628 04b8 88000000 		.4byte	0x88
 4629 04bc 10020000 		.4byte	.LLST16
 4630 04c0 08       		.uleb128 0x8
 4631 04c1 62756600 		.ascii	"buf\000"
 4632 04c5 01       		.byte	0x1
 4633 04c6 68       		.byte	0x68
 4634 04c7 19010000 		.4byte	0x119
 4635 04cb 05       		.uleb128 0x5
 4636 04cc 03       		.byte	0x3
 4637 04cd C0160000 		.4byte	buf.7478
 4638 04d1 00       		.byte	0
 4639 04d2 06       		.uleb128 0x6
 4640 04d3 14060000 		.4byte	.LASF31
 4641 04d7 01       		.byte	0x1
 4642 04d8 6C       		.byte	0x6c
 4643 04d9 88000000 		.4byte	0x88
 4644 04dd 00000000 		.4byte	.LFB17
 4645 04e1 10000000 		.4byte	.LFE17-.LFB17
 4646 04e5 01       		.uleb128 0x1
 4647 04e6 9C       		.byte	0x9c
 4648 04e7 0C050000 		.4byte	0x50c
 4649 04eb 07       		.uleb128 0x7
 4650 04ec 6F090000 		.4byte	.LASF15
 4651 04f0 01       		.byte	0x1
 4652 04f1 6C       		.byte	0x6c
 4653 04f2 88000000 		.4byte	0x88
 4654 04f6 31020000 		.4byte	.LLST17
 4655 04fa 08       		.uleb128 0x8
 4656 04fb 62756600 		.ascii	"buf\000"
 4657 04ff 01       		.byte	0x1
 4658 0500 6E       		.byte	0x6e
 4659 0501 22020000 		.4byte	0x222
 4660 0505 05       		.uleb128 0x5
 4661 0506 03       		.byte	0x3
 4662 0507 C0170000 		.4byte	buf.7482
 4663 050b 00       		.byte	0
 4664 050c 06       		.uleb128 0x6
 4665 050d D6030000 		.4byte	.LASF32
 4666 0511 01       		.byte	0x1
 4667 0512 72       		.byte	0x72
 4668 0513 88000000 		.4byte	0x88
 4669 0517 00000000 		.4byte	.LFB18
ARM GAS  C:\Users\gjl\AppData\Local\Temp\ccNm9gHl.s 			page 103


 4670 051b 10000000 		.4byte	.LFE18-.LFB18
 4671 051f 01       		.uleb128 0x1
 4672 0520 9C       		.byte	0x9c
 4673 0521 46050000 		.4byte	0x546
 4674 0525 07       		.uleb128 0x7
 4675 0526 6F090000 		.4byte	.LASF15
 4676 052a 01       		.byte	0x1
 4677 052b 72       		.byte	0x72
 4678 052c 88000000 		.4byte	0x88
 4679 0530 52020000 		.4byte	.LLST18
 4680 0534 08       		.uleb128 0x8
 4681 0535 62756600 		.ascii	"buf\000"
 4682 0539 01       		.byte	0x1
 4683 053a 74       		.byte	0x74
 4684 053b 46050000 		.4byte	0x546
 4685 053f 05       		.uleb128 0x5
 4686 0540 03       		.byte	0x3
 4687 0541 C01B0000 		.4byte	buf.7486
 4688 0545 00       		.byte	0
 4689 0546 09       		.uleb128 0x9
 4690 0547 76000000 		.4byte	0x76
 4691 054b 56050000 		.4byte	0x556
 4692 054f 0A       		.uleb128 0xa
 4693 0550 D8000000 		.4byte	0xd8
 4694 0554 5F       		.byte	0x5f
 4695 0555 00       		.byte	0
 4696 0556 06       		.uleb128 0x6
 4697 0557 EA030000 		.4byte	.LASF33
 4698 055b 01       		.byte	0x1
 4699 055c 78       		.byte	0x78
 4700 055d 88000000 		.4byte	0x88
 4701 0561 00000000 		.4byte	.LFB19
 4702 0565 10000000 		.4byte	.LFE19-.LFB19
 4703 0569 01       		.uleb128 0x1
 4704 056a 9C       		.byte	0x9c
 4705 056b 90050000 		.4byte	0x590
 4706 056f 07       		.uleb128 0x7
 4707 0570 6F090000 		.4byte	.LASF15
 4708 0574 01       		.byte	0x1
 4709 0575 78       		.byte	0x78
 4710 0576 88000000 		.4byte	0x88
 4711 057a 73020000 		.4byte	.LLST19
 4712 057e 08       		.uleb128 0x8
 4713 057f 62756600 		.ascii	"buf\000"
 4714 0583 01       		.byte	0x1
 4715 0584 7A       		.byte	0x7a
 4716 0585 90050000 		.4byte	0x590
 4717 0589 05       		.uleb128 0x5
 4718 058a 03       		.byte	0x3
 4719 058b 201C0000 		.4byte	buf.7490
 4720 058f 00       		.byte	0
 4721 0590 09       		.uleb128 0x9
 4722 0591 76000000 		.4byte	0x76
 4723 0595 A0050000 		.4byte	0x5a0
 4724 0599 0A       		.uleb128 0xa
 4725 059a D8000000 		.4byte	0xd8
 4726 059e BF       		.byte	0xbf
ARM GAS  C:\Users\gjl\AppData\Local\Temp\ccNm9gHl.s 			page 104


 4727 059f 00       		.byte	0
 4728 05a0 06       		.uleb128 0x6
 4729 05a1 65050000 		.4byte	.LASF34
 4730 05a5 01       		.byte	0x1
 4731 05a6 7E       		.byte	0x7e
 4732 05a7 88000000 		.4byte	0x88
 4733 05ab 00000000 		.4byte	.LFB20
 4734 05af 10000000 		.4byte	.LFE20-.LFB20
 4735 05b3 01       		.uleb128 0x1
 4736 05b4 9C       		.byte	0x9c
 4737 05b5 DA050000 		.4byte	0x5da
 4738 05b9 07       		.uleb128 0x7
 4739 05ba 6F090000 		.4byte	.LASF15
 4740 05be 01       		.byte	0x1
 4741 05bf 7E       		.byte	0x7e
 4742 05c0 88000000 		.4byte	0x88
 4743 05c4 94020000 		.4byte	.LLST20
 4744 05c8 08       		.uleb128 0x8
 4745 05c9 62756600 		.ascii	"buf\000"
 4746 05cd 01       		.byte	0x1
 4747 05ce 80       		.byte	0x80
 4748 05cf DA050000 		.4byte	0x5da
 4749 05d3 05       		.uleb128 0x5
 4750 05d4 03       		.byte	0x3
 4751 05d5 E01C0000 		.4byte	buf.7494
 4752 05d9 00       		.byte	0
 4753 05da 09       		.uleb128 0x9
 4754 05db 76000000 		.4byte	0x76
 4755 05df EB050000 		.4byte	0x5eb
 4756 05e3 0B       		.uleb128 0xb
 4757 05e4 D8000000 		.4byte	0xd8
 4758 05e8 7F04     		.2byte	0x47f
 4759 05ea 00       		.byte	0
 4760 05eb 06       		.uleb128 0x6
 4761 05ec 63000000 		.4byte	.LASF35
 4762 05f0 01       		.byte	0x1
 4763 05f1 84       		.byte	0x84
 4764 05f2 88000000 		.4byte	0x88
 4765 05f6 00000000 		.4byte	.LFB21
 4766 05fa 10000000 		.4byte	.LFE21-.LFB21
 4767 05fe 01       		.uleb128 0x1
 4768 05ff 9C       		.byte	0x9c
 4769 0600 25060000 		.4byte	0x625
 4770 0604 07       		.uleb128 0x7
 4771 0605 6F090000 		.4byte	.LASF15
 4772 0609 01       		.byte	0x1
 4773 060a 84       		.byte	0x84
 4774 060b 88000000 		.4byte	0x88
 4775 060f B5020000 		.4byte	.LLST21
 4776 0613 08       		.uleb128 0x8
 4777 0614 62756600 		.ascii	"buf\000"
 4778 0618 01       		.byte	0x1
 4779 0619 86       		.byte	0x86
 4780 061a 1B030000 		.4byte	0x31b
 4781 061e 05       		.uleb128 0x5
 4782 061f 03       		.byte	0x3
 4783 0620 60210000 		.4byte	buf.7498
ARM GAS  C:\Users\gjl\AppData\Local\Temp\ccNm9gHl.s 			page 105


 4784 0624 00       		.byte	0
 4785 0625 06       		.uleb128 0x6
 4786 0626 75000000 		.4byte	.LASF36
 4787 062a 01       		.byte	0x1
 4788 062b 8A       		.byte	0x8a
 4789 062c 88000000 		.4byte	0x88
 4790 0630 00000000 		.4byte	.LFB22
 4791 0634 10000000 		.4byte	.LFE22-.LFB22
 4792 0638 01       		.uleb128 0x1
 4793 0639 9C       		.byte	0x9c
 4794 063a 5F060000 		.4byte	0x65f
 4795 063e 07       		.uleb128 0x7
 4796 063f 6F090000 		.4byte	.LASF15
 4797 0643 01       		.byte	0x1
 4798 0644 8A       		.byte	0x8a
 4799 0645 88000000 		.4byte	0x88
 4800 0649 D6020000 		.4byte	.LLST22
 4801 064d 08       		.uleb128 0x8
 4802 064e 62756600 		.ascii	"buf\000"
 4803 0652 01       		.byte	0x1
 4804 0653 8C       		.byte	0x8c
 4805 0654 C8000000 		.4byte	0xc8
 4806 0658 05       		.uleb128 0x5
 4807 0659 03       		.byte	0x3
 4808 065a A0210000 		.4byte	buf.7502
 4809 065e 00       		.byte	0
 4810 065f 06       		.uleb128 0x6
 4811 0660 F9010000 		.4byte	.LASF37
 4812 0664 01       		.byte	0x1
 4813 0665 90       		.byte	0x90
 4814 0666 88000000 		.4byte	0x88
 4815 066a 00000000 		.4byte	.LFB23
 4816 066e 10000000 		.4byte	.LFE23-.LFB23
 4817 0672 01       		.uleb128 0x1
 4818 0673 9C       		.byte	0x9c
 4819 0674 99060000 		.4byte	0x699
 4820 0678 07       		.uleb128 0x7
 4821 0679 6F090000 		.4byte	.LASF15
 4822 067d 01       		.byte	0x1
 4823 067e 90       		.byte	0x90
 4824 067f 88000000 		.4byte	0x88
 4825 0683 F7020000 		.4byte	.LLST23
 4826 0687 08       		.uleb128 0x8
 4827 0688 62756600 		.ascii	"buf\000"
 4828 068c 01       		.byte	0x1
 4829 068d 92       		.byte	0x92
 4830 068e 19010000 		.4byte	0x119
 4831 0692 05       		.uleb128 0x5
 4832 0693 03       		.byte	0x3
 4833 0694 20220000 		.4byte	buf.7506
 4834 0698 00       		.byte	0
 4835 0699 06       		.uleb128 0x6
 4836 069a 81080000 		.4byte	.LASF38
 4837 069e 01       		.byte	0x1
 4838 069f 96       		.byte	0x96
 4839 06a0 88000000 		.4byte	0x88
 4840 06a4 00000000 		.4byte	.LFB24
ARM GAS  C:\Users\gjl\AppData\Local\Temp\ccNm9gHl.s 			page 106


 4841 06a8 10000000 		.4byte	.LFE24-.LFB24
 4842 06ac 01       		.uleb128 0x1
 4843 06ad 9C       		.byte	0x9c
 4844 06ae D3060000 		.4byte	0x6d3
 4845 06b2 07       		.uleb128 0x7
 4846 06b3 6F090000 		.4byte	.LASF15
 4847 06b7 01       		.byte	0x1
 4848 06b8 96       		.byte	0x96
 4849 06b9 88000000 		.4byte	0x88
 4850 06bd 18030000 		.4byte	.LLST24
 4851 06c1 08       		.uleb128 0x8
 4852 06c2 62756600 		.ascii	"buf\000"
 4853 06c6 01       		.byte	0x1
 4854 06c7 98       		.byte	0x98
 4855 06c8 90050000 		.4byte	0x590
 4856 06cc 05       		.uleb128 0x5
 4857 06cd 03       		.byte	0x3
 4858 06ce 20230000 		.4byte	buf.7510
 4859 06d2 00       		.byte	0
 4860 06d3 06       		.uleb128 0x6
 4861 06d4 59030000 		.4byte	.LASF39
 4862 06d8 01       		.byte	0x1
 4863 06d9 9C       		.byte	0x9c
 4864 06da 88000000 		.4byte	0x88
 4865 06de 00000000 		.4byte	.LFB25
 4866 06e2 10000000 		.4byte	.LFE25-.LFB25
 4867 06e6 01       		.uleb128 0x1
 4868 06e7 9C       		.byte	0x9c
 4869 06e8 0D070000 		.4byte	0x70d
 4870 06ec 07       		.uleb128 0x7
 4871 06ed 6F090000 		.4byte	.LASF15
 4872 06f1 01       		.byte	0x1
 4873 06f2 9C       		.byte	0x9c
 4874 06f3 88000000 		.4byte	0x88
 4875 06f7 39030000 		.4byte	.LLST25
 4876 06fb 08       		.uleb128 0x8
 4877 06fc 62756600 		.ascii	"buf\000"
 4878 0700 01       		.byte	0x1
 4879 0701 9E       		.byte	0x9e
 4880 0702 9F030000 		.4byte	0x39f
 4881 0706 05       		.uleb128 0x5
 4882 0707 03       		.byte	0x3
 4883 0708 E0230000 		.4byte	buf.7514
 4884 070c 00       		.byte	0
 4885 070d 06       		.uleb128 0x6
 4886 070e 40090000 		.4byte	.LASF40
 4887 0712 01       		.byte	0x1
 4888 0713 A2       		.byte	0xa2
 4889 0714 88000000 		.4byte	0x88
 4890 0718 00000000 		.4byte	.LFB26
 4891 071c 10000000 		.4byte	.LFE26-.LFB26
 4892 0720 01       		.uleb128 0x1
 4893 0721 9C       		.byte	0x9c
 4894 0722 47070000 		.4byte	0x747
 4895 0726 07       		.uleb128 0x7
 4896 0727 6F090000 		.4byte	.LASF15
 4897 072b 01       		.byte	0x1
ARM GAS  C:\Users\gjl\AppData\Local\Temp\ccNm9gHl.s 			page 107


 4898 072c A2       		.byte	0xa2
 4899 072d 88000000 		.4byte	0x88
 4900 0731 5A030000 		.4byte	.LLST26
 4901 0735 08       		.uleb128 0x8
 4902 0736 62756600 		.ascii	"buf\000"
 4903 073a 01       		.byte	0x1
 4904 073b A4       		.byte	0xa4
 4905 073c 47070000 		.4byte	0x747
 4906 0740 05       		.uleb128 0x5
 4907 0741 03       		.byte	0x3
 4908 0742 60250000 		.4byte	buf.7518
 4909 0746 00       		.byte	0
 4910 0747 09       		.uleb128 0x9
 4911 0748 76000000 		.4byte	0x76
 4912 074c 58070000 		.4byte	0x758
 4913 0750 0B       		.uleb128 0xb
 4914 0751 D8000000 		.4byte	0xd8
 4915 0755 FF02     		.2byte	0x2ff
 4916 0757 00       		.byte	0
 4917 0758 06       		.uleb128 0x6
 4918 0759 4C070000 		.4byte	.LASF41
 4919 075d 01       		.byte	0x1
 4920 075e A8       		.byte	0xa8
 4921 075f 88000000 		.4byte	0x88
 4922 0763 00000000 		.4byte	.LFB27
 4923 0767 10000000 		.4byte	.LFE27-.LFB27
 4924 076b 01       		.uleb128 0x1
 4925 076c 9C       		.byte	0x9c
 4926 076d 92070000 		.4byte	0x792
 4927 0771 07       		.uleb128 0x7
 4928 0772 6F090000 		.4byte	.LASF15
 4929 0776 01       		.byte	0x1
 4930 0777 A8       		.byte	0xa8
 4931 0778 88000000 		.4byte	0x88
 4932 077c 7B030000 		.4byte	.LLST27
 4933 0780 08       		.uleb128 0x8
 4934 0781 62756600 		.ascii	"buf\000"
 4935 0785 01       		.byte	0x1
 4936 0786 AA       		.byte	0xaa
 4937 0787 C8000000 		.4byte	0xc8
 4938 078b 05       		.uleb128 0x5
 4939 078c 03       		.byte	0x3
 4940 078d 60280000 		.4byte	buf.7522
 4941 0791 00       		.byte	0
 4942 0792 06       		.uleb128 0x6
 4943 0793 5F070000 		.4byte	.LASF42
 4944 0797 01       		.byte	0x1
 4945 0798 AE       		.byte	0xae
 4946 0799 88000000 		.4byte	0x88
 4947 079d 00000000 		.4byte	.LFB28
 4948 07a1 10000000 		.4byte	.LFE28-.LFB28
 4949 07a5 01       		.uleb128 0x1
 4950 07a6 9C       		.byte	0x9c
 4951 07a7 CC070000 		.4byte	0x7cc
 4952 07ab 07       		.uleb128 0x7
 4953 07ac 6F090000 		.4byte	.LASF15
 4954 07b0 01       		.byte	0x1
ARM GAS  C:\Users\gjl\AppData\Local\Temp\ccNm9gHl.s 			page 108


 4955 07b1 AE       		.byte	0xae
 4956 07b2 88000000 		.4byte	0x88
 4957 07b6 9C030000 		.4byte	.LLST28
 4958 07ba 08       		.uleb128 0x8
 4959 07bb 62756600 		.ascii	"buf\000"
 4960 07bf 01       		.byte	0x1
 4961 07c0 B0       		.byte	0xb0
 4962 07c1 19010000 		.4byte	0x119
 4963 07c5 05       		.uleb128 0x5
 4964 07c6 03       		.byte	0x3
 4965 07c7 E0280000 		.4byte	buf.7526
 4966 07cb 00       		.byte	0
 4967 07cc 06       		.uleb128 0x6
 4968 07cd BE070000 		.4byte	.LASF43
 4969 07d1 01       		.byte	0x1
 4970 07d2 B4       		.byte	0xb4
 4971 07d3 88000000 		.4byte	0x88
 4972 07d7 00000000 		.4byte	.LFB29
 4973 07db 10000000 		.4byte	.LFE29-.LFB29
 4974 07df 01       		.uleb128 0x1
 4975 07e0 9C       		.byte	0x9c
 4976 07e1 06080000 		.4byte	0x806
 4977 07e5 07       		.uleb128 0x7
 4978 07e6 6F090000 		.4byte	.LASF15
 4979 07ea 01       		.byte	0x1
 4980 07eb B4       		.byte	0xb4
 4981 07ec 88000000 		.4byte	0x88
 4982 07f0 BD030000 		.4byte	.LLST29
 4983 07f4 08       		.uleb128 0x8
 4984 07f5 62756600 		.ascii	"buf\000"
 4985 07f9 01       		.byte	0x1
 4986 07fa B6       		.byte	0xb6
 4987 07fb 22020000 		.4byte	0x222
 4988 07ff 05       		.uleb128 0x5
 4989 0800 03       		.byte	0x3
 4990 0801 E0290000 		.4byte	buf.7530
 4991 0805 00       		.byte	0
 4992 0806 06       		.uleb128 0x6
 4993 0807 A6030000 		.4byte	.LASF44
 4994 080b 01       		.byte	0x1
 4995 080c BA       		.byte	0xba
 4996 080d 88000000 		.4byte	0x88
 4997 0811 00000000 		.4byte	.LFB30
 4998 0815 10000000 		.4byte	.LFE30-.LFB30
 4999 0819 01       		.uleb128 0x1
 5000 081a 9C       		.byte	0x9c
 5001 081b 40080000 		.4byte	0x840
 5002 081f 07       		.uleb128 0x7
 5003 0820 6F090000 		.4byte	.LASF15
 5004 0824 01       		.byte	0x1
 5005 0825 BA       		.byte	0xba
 5006 0826 88000000 		.4byte	0x88
 5007 082a DE030000 		.4byte	.LLST30
 5008 082e 08       		.uleb128 0x8
 5009 082f 62756600 		.ascii	"buf\000"
 5010 0833 01       		.byte	0x1
 5011 0834 BC       		.byte	0xbc
ARM GAS  C:\Users\gjl\AppData\Local\Temp\ccNm9gHl.s 			page 109


 5012 0835 C8000000 		.4byte	0xc8
 5013 0839 05       		.uleb128 0x5
 5014 083a 03       		.byte	0x3
 5015 083b E02D0000 		.4byte	buf.7534
 5016 083f 00       		.byte	0
 5017 0840 06       		.uleb128 0x6
 5018 0841 BE030000 		.4byte	.LASF45
 5019 0845 01       		.byte	0x1
 5020 0846 C0       		.byte	0xc0
 5021 0847 88000000 		.4byte	0x88
 5022 084b 00000000 		.4byte	.LFB31
 5023 084f 10000000 		.4byte	.LFE31-.LFB31
 5024 0853 01       		.uleb128 0x1
 5025 0854 9C       		.byte	0x9c
 5026 0855 7A080000 		.4byte	0x87a
 5027 0859 07       		.uleb128 0x7
 5028 085a 6F090000 		.4byte	.LASF15
 5029 085e 01       		.byte	0x1
 5030 085f C0       		.byte	0xc0
 5031 0860 88000000 		.4byte	0x88
 5032 0864 FF030000 		.4byte	.LLST31
 5033 0868 08       		.uleb128 0x8
 5034 0869 62756600 		.ascii	"buf\000"
 5035 086d 01       		.byte	0x1
 5036 086e C2       		.byte	0xc2
 5037 086f 19010000 		.4byte	0x119
 5038 0873 05       		.uleb128 0x5
 5039 0874 03       		.byte	0x3
 5040 0875 602E0000 		.4byte	buf.7538
 5041 0879 00       		.byte	0
 5042 087a 06       		.uleb128 0x6
 5043 087b 3A050000 		.4byte	.LASF46
 5044 087f 01       		.byte	0x1
 5045 0880 C6       		.byte	0xc6
 5046 0881 88000000 		.4byte	0x88
 5047 0885 00000000 		.4byte	.LFB32
 5048 0889 10000000 		.4byte	.LFE32-.LFB32
 5049 088d 01       		.uleb128 0x1
 5050 088e 9C       		.byte	0x9c
 5051 088f B4080000 		.4byte	0x8b4
 5052 0893 07       		.uleb128 0x7
 5053 0894 6F090000 		.4byte	.LASF15
 5054 0898 01       		.byte	0x1
 5055 0899 C6       		.byte	0xc6
 5056 089a 88000000 		.4byte	0x88
 5057 089e 20040000 		.4byte	.LLST32
 5058 08a2 08       		.uleb128 0x8
 5059 08a3 62756600 		.ascii	"buf\000"
 5060 08a7 01       		.byte	0x1
 5061 08a8 C8       		.byte	0xc8
 5062 08a9 B4080000 		.4byte	0x8b4
 5063 08ad 05       		.uleb128 0x5
 5064 08ae 03       		.byte	0x3
 5065 08af 602F0000 		.4byte	buf.7542
 5066 08b3 00       		.byte	0
 5067 08b4 09       		.uleb128 0x9
 5068 08b5 76000000 		.4byte	0x76
ARM GAS  C:\Users\gjl\AppData\Local\Temp\ccNm9gHl.s 			page 110


 5069 08b9 C5080000 		.4byte	0x8c5
 5070 08bd 0B       		.uleb128 0xb
 5071 08be D8000000 		.4byte	0xd8
 5072 08c2 FF07     		.2byte	0x7ff
 5073 08c4 00       		.byte	0
 5074 08c5 06       		.uleb128 0x6
 5075 08c6 39040000 		.4byte	.LASF47
 5076 08ca 01       		.byte	0x1
 5077 08cb CC       		.byte	0xcc
 5078 08cc 88000000 		.4byte	0x88
 5079 08d0 00000000 		.4byte	.LFB33
 5080 08d4 10000000 		.4byte	.LFE33-.LFB33
 5081 08d8 01       		.uleb128 0x1
 5082 08d9 9C       		.byte	0x9c
 5083 08da FF080000 		.4byte	0x8ff
 5084 08de 07       		.uleb128 0x7
 5085 08df 6F090000 		.4byte	.LASF15
 5086 08e3 01       		.byte	0x1
 5087 08e4 CC       		.byte	0xcc
 5088 08e5 88000000 		.4byte	0x88
 5089 08e9 41040000 		.4byte	.LLST33
 5090 08ed 08       		.uleb128 0x8
 5091 08ee 62756600 		.ascii	"buf\000"
 5092 08f2 01       		.byte	0x1
 5093 08f3 CE       		.byte	0xce
 5094 08f4 FF080000 		.4byte	0x8ff
 5095 08f8 05       		.uleb128 0x5
 5096 08f9 03       		.byte	0x3
 5097 08fa 60370000 		.4byte	buf.7546
 5098 08fe 00       		.byte	0
 5099 08ff 09       		.uleb128 0x9
 5100 0900 76000000 		.4byte	0x76
 5101 0904 0F090000 		.4byte	0x90f
 5102 0908 0A       		.uleb128 0xa
 5103 0909 D8000000 		.4byte	0xd8
 5104 090d 67       		.byte	0x67
 5105 090e 00       		.byte	0
 5106 090f 06       		.uleb128 0x6
 5107 0910 4C040000 		.4byte	.LASF48
 5108 0914 01       		.byte	0x1
 5109 0915 D2       		.byte	0xd2
 5110 0916 88000000 		.4byte	0x88
 5111 091a 00000000 		.4byte	.LFB34
 5112 091e 10000000 		.4byte	.LFE34-.LFB34
 5113 0922 01       		.uleb128 0x1
 5114 0923 9C       		.byte	0x9c
 5115 0924 49090000 		.4byte	0x949
 5116 0928 07       		.uleb128 0x7
 5117 0929 6F090000 		.4byte	.LASF15
 5118 092d 01       		.byte	0x1
 5119 092e D2       		.byte	0xd2
 5120 092f 88000000 		.4byte	0x88
 5121 0933 62040000 		.4byte	.LLST34
 5122 0937 08       		.uleb128 0x8
 5123 0938 62756600 		.ascii	"buf\000"
 5124 093c 01       		.byte	0x1
 5125 093d D4       		.byte	0xd4
ARM GAS  C:\Users\gjl\AppData\Local\Temp\ccNm9gHl.s 			page 111


 5126 093e 49090000 		.4byte	0x949
 5127 0942 05       		.uleb128 0x5
 5128 0943 03       		.byte	0x3
 5129 0944 C8370000 		.4byte	buf.7550
 5130 0948 00       		.byte	0
 5131 0949 09       		.uleb128 0x9
 5132 094a 76000000 		.4byte	0x76
 5133 094e 59090000 		.4byte	0x959
 5134 0952 0A       		.uleb128 0xa
 5135 0953 D8000000 		.4byte	0xd8
 5136 0957 CF       		.byte	0xcf
 5137 0958 00       		.byte	0
 5138 0959 06       		.uleb128 0x6
 5139 095a 6C030000 		.4byte	.LASF49
 5140 095e 01       		.byte	0x1
 5141 095f D8       		.byte	0xd8
 5142 0960 88000000 		.4byte	0x88
 5143 0964 00000000 		.4byte	.LFB35
 5144 0968 10000000 		.4byte	.LFE35-.LFB35
 5145 096c 01       		.uleb128 0x1
 5146 096d 9C       		.byte	0x9c
 5147 096e 93090000 		.4byte	0x993
 5148 0972 07       		.uleb128 0x7
 5149 0973 6F090000 		.4byte	.LASF15
 5150 0977 01       		.byte	0x1
 5151 0978 D8       		.byte	0xd8
 5152 0979 88000000 		.4byte	0x88
 5153 097d 83040000 		.4byte	.LLST35
 5154 0981 08       		.uleb128 0x8
 5155 0982 62756600 		.ascii	"buf\000"
 5156 0986 01       		.byte	0x1
 5157 0987 DA       		.byte	0xda
 5158 0988 93090000 		.4byte	0x993
 5159 098c 05       		.uleb128 0x5
 5160 098d 03       		.byte	0x3
 5161 098e 98380000 		.4byte	buf.7554
 5162 0992 00       		.byte	0
 5163 0993 09       		.uleb128 0x9
 5164 0994 76000000 		.4byte	0x76
 5165 0998 A4090000 		.4byte	0x9a4
 5166 099c 0B       		.uleb128 0xb
 5167 099d D8000000 		.4byte	0xd8
 5168 09a1 3F03     		.2byte	0x33f
 5169 09a3 00       		.byte	0
 5170 09a4 06       		.uleb128 0x6
 5171 09a5 5B080000 		.4byte	.LASF50
 5172 09a9 01       		.byte	0x1
 5173 09aa DE       		.byte	0xde
 5174 09ab 88000000 		.4byte	0x88
 5175 09af 00000000 		.4byte	.LFB36
 5176 09b3 10000000 		.4byte	.LFE36-.LFB36
 5177 09b7 01       		.uleb128 0x1
 5178 09b8 9C       		.byte	0x9c
 5179 09b9 DE090000 		.4byte	0x9de
 5180 09bd 07       		.uleb128 0x7
 5181 09be 6F090000 		.4byte	.LASF15
 5182 09c2 01       		.byte	0x1
ARM GAS  C:\Users\gjl\AppData\Local\Temp\ccNm9gHl.s 			page 112


 5183 09c3 DE       		.byte	0xde
 5184 09c4 88000000 		.4byte	0x88
 5185 09c8 A4040000 		.4byte	.LLST36
 5186 09cc 08       		.uleb128 0x8
 5187 09cd 62756600 		.ascii	"buf\000"
 5188 09d1 01       		.byte	0x1
 5189 09d2 E0       		.byte	0xe0
 5190 09d3 C8000000 		.4byte	0xc8
 5191 09d7 05       		.uleb128 0x5
 5192 09d8 03       		.byte	0x3
 5193 09d9 D83B0000 		.4byte	buf.7558
 5194 09dd 00       		.byte	0
 5195 09de 06       		.uleb128 0x6
 5196 09df 6E080000 		.4byte	.LASF51
 5197 09e3 01       		.byte	0x1
 5198 09e4 E4       		.byte	0xe4
 5199 09e5 88000000 		.4byte	0x88
 5200 09e9 00000000 		.4byte	.LFB37
 5201 09ed 10000000 		.4byte	.LFE37-.LFB37
 5202 09f1 01       		.uleb128 0x1
 5203 09f2 9C       		.byte	0x9c
 5204 09f3 180A0000 		.4byte	0xa18
 5205 09f7 07       		.uleb128 0x7
 5206 09f8 6F090000 		.4byte	.LASF15
 5207 09fc 01       		.byte	0x1
 5208 09fd E4       		.byte	0xe4
 5209 09fe 88000000 		.4byte	0x88
 5210 0a02 C5040000 		.4byte	.LLST37
 5211 0a06 08       		.uleb128 0x8
 5212 0a07 62756600 		.ascii	"buf\000"
 5213 0a0b 01       		.byte	0x1
 5214 0a0c E6       		.byte	0xe6
 5215 0a0d 19010000 		.4byte	0x119
 5216 0a11 05       		.uleb128 0x5
 5217 0a12 03       		.byte	0x3
 5218 0a13 583C0000 		.4byte	buf.7562
 5219 0a17 00       		.byte	0
 5220 0a18 06       		.uleb128 0x6
 5221 0a19 1B090000 		.4byte	.LASF52
 5222 0a1d 01       		.byte	0x1
 5223 0a1e EA       		.byte	0xea
 5224 0a1f 88000000 		.4byte	0x88
 5225 0a23 00000000 		.4byte	.LFB38
 5226 0a27 10000000 		.4byte	.LFE38-.LFB38
 5227 0a2b 01       		.uleb128 0x1
 5228 0a2c 9C       		.byte	0x9c
 5229 0a2d 520A0000 		.4byte	0xa52
 5230 0a31 07       		.uleb128 0x7
 5231 0a32 6F090000 		.4byte	.LASF15
 5232 0a36 01       		.byte	0x1
 5233 0a37 EA       		.byte	0xea
 5234 0a38 88000000 		.4byte	0x88
 5235 0a3c E6040000 		.4byte	.LLST38
 5236 0a40 08       		.uleb128 0x8
 5237 0a41 62756600 		.ascii	"buf\000"
 5238 0a45 01       		.byte	0x1
 5239 0a46 EC       		.byte	0xec
ARM GAS  C:\Users\gjl\AppData\Local\Temp\ccNm9gHl.s 			page 113


 5240 0a47 22020000 		.4byte	0x222
 5241 0a4b 05       		.uleb128 0x5
 5242 0a4c 03       		.byte	0x3
 5243 0a4d 583D0000 		.4byte	buf.7566
 5244 0a51 00       		.byte	0
 5245 0a52 06       		.uleb128 0x6
 5246 0a53 CD080000 		.4byte	.LASF53
 5247 0a57 01       		.byte	0x1
 5248 0a58 F0       		.byte	0xf0
 5249 0a59 88000000 		.4byte	0x88
 5250 0a5d 00000000 		.4byte	.LFB39
 5251 0a61 10000000 		.4byte	.LFE39-.LFB39
 5252 0a65 01       		.uleb128 0x1
 5253 0a66 9C       		.byte	0x9c
 5254 0a67 8C0A0000 		.4byte	0xa8c
 5255 0a6b 07       		.uleb128 0x7
 5256 0a6c 6F090000 		.4byte	.LASF15
 5257 0a70 01       		.byte	0x1
 5258 0a71 F0       		.byte	0xf0
 5259 0a72 88000000 		.4byte	0x88
 5260 0a76 07050000 		.4byte	.LLST39
 5261 0a7a 08       		.uleb128 0x8
 5262 0a7b 62756600 		.ascii	"buf\000"
 5263 0a7f 01       		.byte	0x1
 5264 0a80 F2       		.byte	0xf2
 5265 0a81 8C0A0000 		.4byte	0xa8c
 5266 0a85 05       		.uleb128 0x5
 5267 0a86 03       		.byte	0x3
 5268 0a87 58410000 		.4byte	buf.7570
 5269 0a8b 00       		.byte	0
 5270 0a8c 09       		.uleb128 0x9
 5271 0a8d 76000000 		.4byte	0x76
 5272 0a91 9C0A0000 		.4byte	0xa9c
 5273 0a95 0A       		.uleb128 0xa
 5274 0a96 D8000000 		.4byte	0xd8
 5275 0a9a 57       		.byte	0x57
 5276 0a9b 00       		.byte	0
 5277 0a9c 06       		.uleb128 0x6
 5278 0a9d E1080000 		.4byte	.LASF54
 5279 0aa1 01       		.byte	0x1
 5280 0aa2 F6       		.byte	0xf6
 5281 0aa3 88000000 		.4byte	0x88
 5282 0aa7 00000000 		.4byte	.LFB40
 5283 0aab 10000000 		.4byte	.LFE40-.LFB40
 5284 0aaf 01       		.uleb128 0x1
 5285 0ab0 9C       		.byte	0x9c
 5286 0ab1 D60A0000 		.4byte	0xad6
 5287 0ab5 07       		.uleb128 0x7
 5288 0ab6 6F090000 		.4byte	.LASF15
 5289 0aba 01       		.byte	0x1
 5290 0abb F6       		.byte	0xf6
 5291 0abc 88000000 		.4byte	0x88
 5292 0ac0 28050000 		.4byte	.LLST40
 5293 0ac4 08       		.uleb128 0x8
 5294 0ac5 62756600 		.ascii	"buf\000"
 5295 0ac9 01       		.byte	0x1
 5296 0aca F8       		.byte	0xf8
ARM GAS  C:\Users\gjl\AppData\Local\Temp\ccNm9gHl.s 			page 114


 5297 0acb D60A0000 		.4byte	0xad6
 5298 0acf 05       		.uleb128 0x5
 5299 0ad0 03       		.byte	0x3
 5300 0ad1 B0410000 		.4byte	buf.7574
 5301 0ad5 00       		.byte	0
 5302 0ad6 09       		.uleb128 0x9
 5303 0ad7 76000000 		.4byte	0x76
 5304 0adb E60A0000 		.4byte	0xae6
 5305 0adf 0A       		.uleb128 0xa
 5306 0ae0 D8000000 		.4byte	0xd8
 5307 0ae4 AF       		.byte	0xaf
 5308 0ae5 00       		.byte	0
 5309 0ae6 06       		.uleb128 0x6
 5310 0ae7 5B090000 		.4byte	.LASF55
 5311 0aeb 01       		.byte	0x1
 5312 0aec FC       		.byte	0xfc
 5313 0aed 88000000 		.4byte	0x88
 5314 0af1 00000000 		.4byte	.LFB41
 5315 0af5 10000000 		.4byte	.LFE41-.LFB41
 5316 0af9 01       		.uleb128 0x1
 5317 0afa 9C       		.byte	0x9c
 5318 0afb 200B0000 		.4byte	0xb20
 5319 0aff 07       		.uleb128 0x7
 5320 0b00 6F090000 		.4byte	.LASF15
 5321 0b04 01       		.byte	0x1
 5322 0b05 FC       		.byte	0xfc
 5323 0b06 88000000 		.4byte	0x88
 5324 0b0a 49050000 		.4byte	.LLST41
 5325 0b0e 08       		.uleb128 0x8
 5326 0b0f 62756600 		.ascii	"buf\000"
 5327 0b13 01       		.byte	0x1
 5328 0b14 FE       		.byte	0xfe
 5329 0b15 200B0000 		.4byte	0xb20
 5330 0b19 05       		.uleb128 0x5
 5331 0b1a 03       		.byte	0x3
 5332 0b1b 60420000 		.4byte	buf.7578
 5333 0b1f 00       		.byte	0
 5334 0b20 09       		.uleb128 0x9
 5335 0b21 76000000 		.4byte	0x76
 5336 0b25 310B0000 		.4byte	0xb31
 5337 0b29 0B       		.uleb128 0xb
 5338 0b2a D8000000 		.4byte	0xd8
 5339 0b2e 0F02     		.2byte	0x20f
 5340 0b30 00       		.byte	0
 5341 0b31 0C       		.uleb128 0xc
 5342 0b32 8E090000 		.4byte	.LASF56
 5343 0b36 01       		.byte	0x1
 5344 0b37 0201     		.2byte	0x102
 5345 0b39 88000000 		.4byte	0x88
 5346 0b3d 00000000 		.4byte	.LFB42
 5347 0b41 10000000 		.4byte	.LFE42-.LFB42
 5348 0b45 01       		.uleb128 0x1
 5349 0b46 9C       		.byte	0x9c
 5350 0b47 6E0B0000 		.4byte	0xb6e
 5351 0b4b 0D       		.uleb128 0xd
 5352 0b4c 6F090000 		.4byte	.LASF15
 5353 0b50 01       		.byte	0x1
ARM GAS  C:\Users\gjl\AppData\Local\Temp\ccNm9gHl.s 			page 115


 5354 0b51 0201     		.2byte	0x102
 5355 0b53 88000000 		.4byte	0x88
 5356 0b57 6A050000 		.4byte	.LLST42
 5357 0b5b 0E       		.uleb128 0xe
 5358 0b5c 62756600 		.ascii	"buf\000"
 5359 0b60 01       		.byte	0x1
 5360 0b61 0401     		.2byte	0x104
 5361 0b63 46050000 		.4byte	0x546
 5362 0b67 05       		.uleb128 0x5
 5363 0b68 03       		.byte	0x3
 5364 0b69 70440000 		.4byte	buf.7582
 5365 0b6d 00       		.byte	0
 5366 0b6e 0C       		.uleb128 0xc
 5367 0b6f A2090000 		.4byte	.LASF57
 5368 0b73 01       		.byte	0x1
 5369 0b74 0801     		.2byte	0x108
 5370 0b76 88000000 		.4byte	0x88
 5371 0b7a 00000000 		.4byte	.LFB43
 5372 0b7e 10000000 		.4byte	.LFE43-.LFB43
 5373 0b82 01       		.uleb128 0x1
 5374 0b83 9C       		.byte	0x9c
 5375 0b84 AB0B0000 		.4byte	0xbab
 5376 0b88 0D       		.uleb128 0xd
 5377 0b89 6F090000 		.4byte	.LASF15
 5378 0b8d 01       		.byte	0x1
 5379 0b8e 0801     		.2byte	0x108
 5380 0b90 88000000 		.4byte	0x88
 5381 0b94 8B050000 		.4byte	.LLST43
 5382 0b98 0E       		.uleb128 0xe
 5383 0b99 62756600 		.ascii	"buf\000"
 5384 0b9d 01       		.byte	0x1
 5385 0b9e 0A01     		.2byte	0x10a
 5386 0ba0 90050000 		.4byte	0x590
 5387 0ba4 05       		.uleb128 0x5
 5388 0ba5 03       		.byte	0x3
 5389 0ba6 D0440000 		.4byte	buf.7586
 5390 0baa 00       		.byte	0
 5391 0bab 0C       		.uleb128 0xc
 5392 0bac 87000000 		.4byte	.LASF58
 5393 0bb0 01       		.byte	0x1
 5394 0bb1 0E01     		.2byte	0x10e
 5395 0bb3 88000000 		.4byte	0x88
 5396 0bb7 00000000 		.4byte	.LFB44
 5397 0bbb 10000000 		.4byte	.LFE44-.LFB44
 5398 0bbf 01       		.uleb128 0x1
 5399 0bc0 9C       		.byte	0x9c
 5400 0bc1 E80B0000 		.4byte	0xbe8
 5401 0bc5 0D       		.uleb128 0xd
 5402 0bc6 6F090000 		.4byte	.LASF15
 5403 0bca 01       		.byte	0x1
 5404 0bcb 0E01     		.2byte	0x10e
 5405 0bcd 88000000 		.4byte	0x88
 5406 0bd1 AC050000 		.4byte	.LLST44
 5407 0bd5 0E       		.uleb128 0xe
 5408 0bd6 62756600 		.ascii	"buf\000"
 5409 0bda 01       		.byte	0x1
 5410 0bdb 1001     		.2byte	0x110
ARM GAS  C:\Users\gjl\AppData\Local\Temp\ccNm9gHl.s 			page 116


 5411 0bdd E80B0000 		.4byte	0xbe8
 5412 0be1 05       		.uleb128 0x5
 5413 0be2 03       		.byte	0x3
 5414 0be3 90450000 		.4byte	buf.7590
 5415 0be7 00       		.byte	0
 5416 0be8 09       		.uleb128 0x9
 5417 0be9 76000000 		.4byte	0x76
 5418 0bed F90B0000 		.4byte	0xbf9
 5419 0bf1 0B       		.uleb128 0xb
 5420 0bf2 D8000000 		.4byte	0xd8
 5421 0bf6 5F03     		.2byte	0x35f
 5422 0bf8 00       		.byte	0
 5423 0bf9 0C       		.uleb128 0xc
 5424 0bfa 160A0000 		.4byte	.LASF59
 5425 0bfe 01       		.byte	0x1
 5426 0bff 1401     		.2byte	0x114
 5427 0c01 88000000 		.4byte	0x88
 5428 0c05 00000000 		.4byte	.LFB45
 5429 0c09 10000000 		.4byte	.LFE45-.LFB45
 5430 0c0d 01       		.uleb128 0x1
 5431 0c0e 9C       		.byte	0x9c
 5432 0c0f 360C0000 		.4byte	0xc36
 5433 0c13 0D       		.uleb128 0xd
 5434 0c14 6F090000 		.4byte	.LASF15
 5435 0c18 01       		.byte	0x1
 5436 0c19 1401     		.2byte	0x114
 5437 0c1b 88000000 		.4byte	0x88
 5438 0c1f CD050000 		.4byte	.LLST45
 5439 0c23 0E       		.uleb128 0xe
 5440 0c24 62756600 		.ascii	"buf\000"
 5441 0c28 01       		.byte	0x1
 5442 0c29 1601     		.2byte	0x116
 5443 0c2b 90050000 		.4byte	0x590
 5444 0c2f 05       		.uleb128 0x5
 5445 0c30 03       		.byte	0x3
 5446 0c31 F0480000 		.4byte	buf.7594
 5447 0c35 00       		.byte	0
 5448 0c36 0C       		.uleb128 0xc
 5449 0c37 290A0000 		.4byte	.LASF60
 5450 0c3b 01       		.byte	0x1
 5451 0c3c 1A01     		.2byte	0x11a
 5452 0c3e 88000000 		.4byte	0x88
 5453 0c42 00000000 		.4byte	.LFB46
 5454 0c46 10000000 		.4byte	.LFE46-.LFB46
 5455 0c4a 01       		.uleb128 0x1
 5456 0c4b 9C       		.byte	0x9c
 5457 0c4c 730C0000 		.4byte	0xc73
 5458 0c50 0D       		.uleb128 0xd
 5459 0c51 6F090000 		.4byte	.LASF15
 5460 0c55 01       		.byte	0x1
 5461 0c56 1A01     		.2byte	0x11a
 5462 0c58 88000000 		.4byte	0x88
 5463 0c5c EE050000 		.4byte	.LLST46
 5464 0c60 0E       		.uleb128 0xe
 5465 0c61 62756600 		.ascii	"buf\000"
 5466 0c65 01       		.byte	0x1
 5467 0c66 1C01     		.2byte	0x11c
ARM GAS  C:\Users\gjl\AppData\Local\Temp\ccNm9gHl.s 			page 117


 5468 0c68 9F030000 		.4byte	0x39f
 5469 0c6c 05       		.uleb128 0x5
 5470 0c6d 03       		.byte	0x3
 5471 0c6e B0490000 		.4byte	buf.7598
 5472 0c72 00       		.byte	0
 5473 0c73 0C       		.uleb128 0xc
 5474 0c74 BE010000 		.4byte	.LASF61
 5475 0c78 01       		.byte	0x1
 5476 0c79 2001     		.2byte	0x120
 5477 0c7b 88000000 		.4byte	0x88
 5478 0c7f 00000000 		.4byte	.LFB47
 5479 0c83 10000000 		.4byte	.LFE47-.LFB47
 5480 0c87 01       		.uleb128 0x1
 5481 0c88 9C       		.byte	0x9c
 5482 0c89 B00C0000 		.4byte	0xcb0
 5483 0c8d 0D       		.uleb128 0xd
 5484 0c8e 6F090000 		.4byte	.LASF15
 5485 0c92 01       		.byte	0x1
 5486 0c93 2001     		.2byte	0x120
 5487 0c95 88000000 		.4byte	0x88
 5488 0c99 0F060000 		.4byte	.LLST47
 5489 0c9d 0E       		.uleb128 0xe
 5490 0c9e 62756600 		.ascii	"buf\000"
 5491 0ca2 01       		.byte	0x1
 5492 0ca3 2201     		.2byte	0x122
 5493 0ca5 B00C0000 		.4byte	0xcb0
 5494 0ca9 05       		.uleb128 0x5
 5495 0caa 03       		.byte	0x3
 5496 0cab 304B0000 		.4byte	buf.7602
 5497 0caf 00       		.byte	0
 5498 0cb0 09       		.uleb128 0x9
 5499 0cb1 76000000 		.4byte	0x76
 5500 0cb5 C10C0000 		.4byte	0xcc1
 5501 0cb9 0B       		.uleb128 0xb
 5502 0cba D8000000 		.4byte	0xd8
 5503 0cbe FF05     		.2byte	0x5ff
 5504 0cc0 00       		.byte	0
 5505 0cc1 0C       		.uleb128 0xc
 5506 0cc2 79050000 		.4byte	.LASF62
 5507 0cc6 01       		.byte	0x1
 5508 0cc7 2601     		.2byte	0x126
 5509 0cc9 88000000 		.4byte	0x88
 5510 0ccd 00000000 		.4byte	.LFB48
 5511 0cd1 10000000 		.4byte	.LFE48-.LFB48
 5512 0cd5 01       		.uleb128 0x1
 5513 0cd6 9C       		.byte	0x9c
 5514 0cd7 FE0C0000 		.4byte	0xcfe
 5515 0cdb 0D       		.uleb128 0xd
 5516 0cdc 6F090000 		.4byte	.LASF15
 5517 0ce0 01       		.byte	0x1
 5518 0ce1 2601     		.2byte	0x126
 5519 0ce3 88000000 		.4byte	0x88
 5520 0ce7 30060000 		.4byte	.LLST48
 5521 0ceb 0E       		.uleb128 0xe
 5522 0cec 62756600 		.ascii	"buf\000"
 5523 0cf0 01       		.byte	0x1
 5524 0cf1 2801     		.2byte	0x128
ARM GAS  C:\Users\gjl\AppData\Local\Temp\ccNm9gHl.s 			page 118


 5525 0cf3 FE0C0000 		.4byte	0xcfe
 5526 0cf7 05       		.uleb128 0x5
 5527 0cf8 03       		.byte	0x3
 5528 0cf9 30510000 		.4byte	buf.7606
 5529 0cfd 00       		.byte	0
 5530 0cfe 09       		.uleb128 0x9
 5531 0cff 76000000 		.4byte	0x76
 5532 0d03 0E0D0000 		.4byte	0xd0e
 5533 0d07 0A       		.uleb128 0xa
 5534 0d08 D8000000 		.4byte	0xd8
 5535 0d0c EF       		.byte	0xef
 5536 0d0d 00       		.byte	0
 5537 0d0e 0C       		.uleb128 0xc
 5538 0d0f 7F030000 		.4byte	.LASF63
 5539 0d13 01       		.byte	0x1
 5540 0d14 2C01     		.2byte	0x12c
 5541 0d16 88000000 		.4byte	0x88
 5542 0d1a 00000000 		.4byte	.LFB49
 5543 0d1e 10000000 		.4byte	.LFE49-.LFB49
 5544 0d22 01       		.uleb128 0x1
 5545 0d23 9C       		.byte	0x9c
 5546 0d24 4B0D0000 		.4byte	0xd4b
 5547 0d28 0D       		.uleb128 0xd
 5548 0d29 6F090000 		.4byte	.LASF15
 5549 0d2d 01       		.byte	0x1
 5550 0d2e 2C01     		.2byte	0x12c
 5551 0d30 88000000 		.4byte	0x88
 5552 0d34 51060000 		.4byte	.LLST49
 5553 0d38 0E       		.uleb128 0xe
 5554 0d39 62756600 		.ascii	"buf\000"
 5555 0d3d 01       		.byte	0x1
 5556 0d3e 2E01     		.2byte	0x12e
 5557 0d40 4B0D0000 		.4byte	0xd4b
 5558 0d44 05       		.uleb128 0x5
 5559 0d45 03       		.byte	0x3
 5560 0d46 20520000 		.4byte	buf.7610
 5561 0d4a 00       		.byte	0
 5562 0d4b 09       		.uleb128 0x9
 5563 0d4c 76000000 		.4byte	0x76
 5564 0d50 5C0D0000 		.4byte	0xd5c
 5565 0d54 0B       		.uleb128 0xb
 5566 0d55 D8000000 		.4byte	0xd8
 5567 0d59 DF01     		.2byte	0x1df
 5568 0d5b 00       		.byte	0
 5569 0d5c 0C       		.uleb128 0xc
 5570 0d5d A0060000 		.4byte	.LASF64
 5571 0d61 01       		.byte	0x1
 5572 0d62 3201     		.2byte	0x132
 5573 0d64 88000000 		.4byte	0x88
 5574 0d68 00000000 		.4byte	.LFB50
 5575 0d6c 0C000000 		.4byte	.LFE50-.LFB50
 5576 0d70 01       		.uleb128 0x1
 5577 0d71 9C       		.byte	0x9c
 5578 0d72 990D0000 		.4byte	0xd99
 5579 0d76 0D       		.uleb128 0xd
 5580 0d77 6F090000 		.4byte	.LASF15
 5581 0d7b 01       		.byte	0x1
ARM GAS  C:\Users\gjl\AppData\Local\Temp\ccNm9gHl.s 			page 119


 5582 0d7c 3201     		.2byte	0x132
 5583 0d7e 88000000 		.4byte	0x88
 5584 0d82 72060000 		.4byte	.LLST50
 5585 0d86 0E       		.uleb128 0xe
 5586 0d87 62756600 		.ascii	"buf\000"
 5587 0d8b 01       		.byte	0x1
 5588 0d8c 3401     		.2byte	0x134
 5589 0d8e 990D0000 		.4byte	0xd99
 5590 0d92 05       		.uleb128 0x5
 5591 0d93 03       		.byte	0x3
 5592 0d94 00540000 		.4byte	buf.7614
 5593 0d98 00       		.byte	0
 5594 0d99 09       		.uleb128 0x9
 5595 0d9a 76000000 		.4byte	0x76
 5596 0d9e AA0D0000 		.4byte	0xdaa
 5597 0da2 0B       		.uleb128 0xb
 5598 0da3 D8000000 		.4byte	0xd8
 5599 0da7 7F07     		.2byte	0x77f
 5600 0da9 00       		.byte	0
 5601 0daa 0C       		.uleb128 0xc
 5602 0dab 54060000 		.4byte	.LASF65
 5603 0daf 01       		.byte	0x1
 5604 0db0 3801     		.2byte	0x138
 5605 0db2 88000000 		.4byte	0x88
 5606 0db6 00000000 		.4byte	.LFB51
 5607 0dba 0C000000 		.4byte	.LFE51-.LFB51
 5608 0dbe 01       		.uleb128 0x1
 5609 0dbf 9C       		.byte	0x9c
 5610 0dc0 E70D0000 		.4byte	0xde7
 5611 0dc4 0D       		.uleb128 0xd
 5612 0dc5 6F090000 		.4byte	.LASF15
 5613 0dc9 01       		.byte	0x1
 5614 0dca 3801     		.2byte	0x138
 5615 0dcc 88000000 		.4byte	0x88
 5616 0dd0 93060000 		.4byte	.LLST51
 5617 0dd4 0E       		.uleb128 0xe
 5618 0dd5 62756600 		.ascii	"buf\000"
 5619 0dd9 01       		.byte	0x1
 5620 0dda 3A01     		.2byte	0x13a
 5621 0ddc E70D0000 		.4byte	0xde7
 5622 0de0 05       		.uleb128 0x5
 5623 0de1 03       		.byte	0x3
 5624 0de2 805B0000 		.4byte	buf.7618
 5625 0de6 00       		.byte	0
 5626 0de7 09       		.uleb128 0x9
 5627 0de8 76000000 		.4byte	0x76
 5628 0dec F70D0000 		.4byte	0xdf7
 5629 0df0 0A       		.uleb128 0xa
 5630 0df1 D8000000 		.4byte	0xd8
 5631 0df5 9F       		.byte	0x9f
 5632 0df6 00       		.byte	0
 5633 0df7 0C       		.uleb128 0xc
 5634 0df8 67060000 		.4byte	.LASF66
 5635 0dfc 01       		.byte	0x1
 5636 0dfd 3E01     		.2byte	0x13e
 5637 0dff 88000000 		.4byte	0x88
 5638 0e03 00000000 		.4byte	.LFB52
ARM GAS  C:\Users\gjl\AppData\Local\Temp\ccNm9gHl.s 			page 120


 5639 0e07 10000000 		.4byte	.LFE52-.LFB52
 5640 0e0b 01       		.uleb128 0x1
 5641 0e0c 9C       		.byte	0x9c
 5642 0e0d 340E0000 		.4byte	0xe34
 5643 0e11 0D       		.uleb128 0xd
 5644 0e12 6F090000 		.4byte	.LASF15
 5645 0e16 01       		.byte	0x1
 5646 0e17 3E01     		.2byte	0x13e
 5647 0e19 88000000 		.4byte	0x88
 5648 0e1d B4060000 		.4byte	.LLST52
 5649 0e21 0E       		.uleb128 0xe
 5650 0e22 62756600 		.ascii	"buf\000"
 5651 0e26 01       		.byte	0x1
 5652 0e27 4001     		.2byte	0x140
 5653 0e29 340E0000 		.4byte	0xe34
 5654 0e2d 05       		.uleb128 0x5
 5655 0e2e 03       		.byte	0x3
 5656 0e2f 205C0000 		.4byte	buf.7622
 5657 0e33 00       		.byte	0
 5658 0e34 09       		.uleb128 0x9
 5659 0e35 76000000 		.4byte	0x76
 5660 0e39 450E0000 		.4byte	0xe45
 5661 0e3d 0B       		.uleb128 0xb
 5662 0e3e D8000000 		.4byte	0xd8
 5663 0e42 3F01     		.2byte	0x13f
 5664 0e44 00       		.byte	0
 5665 0e45 0C       		.uleb128 0xc
 5666 0e46 72070000 		.4byte	.LASF67
 5667 0e4a 01       		.byte	0x1
 5668 0e4b 4401     		.2byte	0x144
 5669 0e4d 88000000 		.4byte	0x88
 5670 0e51 00000000 		.4byte	.LFB53
 5671 0e55 10000000 		.4byte	.LFE53-.LFB53
 5672 0e59 01       		.uleb128 0x1
 5673 0e5a 9C       		.byte	0x9c
 5674 0e5b 820E0000 		.4byte	0xe82
 5675 0e5f 0D       		.uleb128 0xd
 5676 0e60 6F090000 		.4byte	.LASF15
 5677 0e64 01       		.byte	0x1
 5678 0e65 4401     		.2byte	0x144
 5679 0e67 88000000 		.4byte	0x88
 5680 0e6b D5060000 		.4byte	.LLST53
 5681 0e6f 0E       		.uleb128 0xe
 5682 0e70 62756600 		.ascii	"buf\000"
 5683 0e74 01       		.byte	0x1
 5684 0e75 4601     		.2byte	0x146
 5685 0e77 820E0000 		.4byte	0xe82
 5686 0e7b 05       		.uleb128 0x5
 5687 0e7c 03       		.byte	0x3
 5688 0e7d 605D0000 		.4byte	buf.7626
 5689 0e81 00       		.byte	0
 5690 0e82 09       		.uleb128 0x9
 5691 0e83 76000000 		.4byte	0x76
 5692 0e87 930E0000 		.4byte	0xe93
 5693 0e8b 0B       		.uleb128 0xb
 5694 0e8c D8000000 		.4byte	0xd8
 5695 0e90 1F08     		.2byte	0x81f
ARM GAS  C:\Users\gjl\AppData\Local\Temp\ccNm9gHl.s 			page 121


 5696 0e92 00       		.byte	0
 5697 0e93 0C       		.uleb128 0xc
 5698 0e94 7A060000 		.4byte	.LASF68
 5699 0e98 01       		.byte	0x1
 5700 0e99 4A01     		.2byte	0x14a
 5701 0e9b 88000000 		.4byte	0x88
 5702 0e9f 00000000 		.4byte	.LFB54
 5703 0ea3 0C000000 		.4byte	.LFE54-.LFB54
 5704 0ea7 01       		.uleb128 0x1
 5705 0ea8 9C       		.byte	0x9c
 5706 0ea9 D00E0000 		.4byte	0xed0
 5707 0ead 0D       		.uleb128 0xd
 5708 0eae 6F090000 		.4byte	.LASF15
 5709 0eb2 01       		.byte	0x1
 5710 0eb3 4A01     		.2byte	0x14a
 5711 0eb5 88000000 		.4byte	0x88
 5712 0eb9 F6060000 		.4byte	.LLST54
 5713 0ebd 0E       		.uleb128 0xe
 5714 0ebe 62756600 		.ascii	"buf\000"
 5715 0ec2 01       		.byte	0x1
 5716 0ec3 4C01     		.2byte	0x14c
 5717 0ec5 FE0C0000 		.4byte	0xcfe
 5718 0ec9 05       		.uleb128 0x5
 5719 0eca 03       		.byte	0x3
 5720 0ecb 80650000 		.4byte	buf.7630
 5721 0ecf 00       		.byte	0
 5722 0ed0 0C       		.uleb128 0xc
 5723 0ed1 8D060000 		.4byte	.LASF69
 5724 0ed5 01       		.byte	0x1
 5725 0ed6 5001     		.2byte	0x150
 5726 0ed8 88000000 		.4byte	0x88
 5727 0edc 00000000 		.4byte	.LFB55
 5728 0ee0 10000000 		.4byte	.LFE55-.LFB55
 5729 0ee4 01       		.uleb128 0x1
 5730 0ee5 9C       		.byte	0x9c
 5731 0ee6 0D0F0000 		.4byte	0xf0d
 5732 0eea 0D       		.uleb128 0xd
 5733 0eeb 6F090000 		.4byte	.LASF15
 5734 0eef 01       		.byte	0x1
 5735 0ef0 5001     		.2byte	0x150
 5736 0ef2 88000000 		.4byte	0x88
 5737 0ef6 17070000 		.4byte	.LLST55
 5738 0efa 0E       		.uleb128 0xe
 5739 0efb 62756600 		.ascii	"buf\000"
 5740 0eff 01       		.byte	0x1
 5741 0f00 5201     		.2byte	0x152
 5742 0f02 4B0D0000 		.4byte	0xd4b
 5743 0f06 05       		.uleb128 0x5
 5744 0f07 03       		.byte	0x3
 5745 0f08 70660000 		.4byte	buf.7634
 5746 0f0c 00       		.byte	0
 5747 0f0d 0C       		.uleb128 0xc
 5748 0f0e 85070000 		.4byte	.LASF70
 5749 0f12 01       		.byte	0x1
 5750 0f13 5601     		.2byte	0x156
 5751 0f15 88000000 		.4byte	0x88
 5752 0f19 00000000 		.4byte	.LFB56
ARM GAS  C:\Users\gjl\AppData\Local\Temp\ccNm9gHl.s 			page 122


 5753 0f1d 10000000 		.4byte	.LFE56-.LFB56
 5754 0f21 01       		.uleb128 0x1
 5755 0f22 9C       		.byte	0x9c
 5756 0f23 4A0F0000 		.4byte	0xf4a
 5757 0f27 0D       		.uleb128 0xd
 5758 0f28 6F090000 		.4byte	.LASF15
 5759 0f2c 01       		.byte	0x1
 5760 0f2d 5601     		.2byte	0x156
 5761 0f2f 88000000 		.4byte	0x88
 5762 0f33 38070000 		.4byte	.LLST56
 5763 0f37 0E       		.uleb128 0xe
 5764 0f38 62756600 		.ascii	"buf\000"
 5765 0f3c 01       		.byte	0x1
 5766 0f3d 5801     		.2byte	0x158
 5767 0f3f 990D0000 		.4byte	0xd99
 5768 0f43 05       		.uleb128 0x5
 5769 0f44 03       		.byte	0x3
 5770 0f45 50680000 		.4byte	buf.7638
 5771 0f49 00       		.byte	0
 5772 0f4a 0C       		.uleb128 0xc
 5773 0f4b 22080000 		.4byte	.LASF71
 5774 0f4f 01       		.byte	0x1
 5775 0f50 5C01     		.2byte	0x15c
 5776 0f52 88000000 		.4byte	0x88
 5777 0f56 00000000 		.4byte	.LFB57
 5778 0f5a 10000000 		.4byte	.LFE57-.LFB57
 5779 0f5e 01       		.uleb128 0x1
 5780 0f5f 9C       		.byte	0x9c
 5781 0f60 870F0000 		.4byte	0xf87
 5782 0f64 0D       		.uleb128 0xd
 5783 0f65 6F090000 		.4byte	.LASF15
 5784 0f69 01       		.byte	0x1
 5785 0f6a 5C01     		.2byte	0x15c
 5786 0f6c 88000000 		.4byte	0x88
 5787 0f70 59070000 		.4byte	.LLST57
 5788 0f74 0E       		.uleb128 0xe
 5789 0f75 62756600 		.ascii	"buf\000"
 5790 0f79 01       		.byte	0x1
 5791 0f7a 5E01     		.2byte	0x15e
 5792 0f7c C8000000 		.4byte	0xc8
 5793 0f80 05       		.uleb128 0x5
 5794 0f81 03       		.byte	0x3
 5795 0f82 D06F0000 		.4byte	buf.7642
 5796 0f86 00       		.byte	0
 5797 0f87 0C       		.uleb128 0xc
 5798 0f88 35080000 		.4byte	.LASF72
 5799 0f8c 01       		.byte	0x1
 5800 0f8d 6201     		.2byte	0x162
 5801 0f8f 88000000 		.4byte	0x88
 5802 0f93 00000000 		.4byte	.LFB58
 5803 0f97 10000000 		.4byte	.LFE58-.LFB58
 5804 0f9b 01       		.uleb128 0x1
 5805 0f9c 9C       		.byte	0x9c
 5806 0f9d C40F0000 		.4byte	0xfc4
 5807 0fa1 0D       		.uleb128 0xd
 5808 0fa2 6F090000 		.4byte	.LASF15
 5809 0fa6 01       		.byte	0x1
ARM GAS  C:\Users\gjl\AppData\Local\Temp\ccNm9gHl.s 			page 123


 5810 0fa7 6201     		.2byte	0x162
 5811 0fa9 88000000 		.4byte	0x88
 5812 0fad 7A070000 		.4byte	.LLST58
 5813 0fb1 0E       		.uleb128 0xe
 5814 0fb2 62756600 		.ascii	"buf\000"
 5815 0fb6 01       		.byte	0x1
 5816 0fb7 6401     		.2byte	0x164
 5817 0fb9 19010000 		.4byte	0x119
 5818 0fbd 05       		.uleb128 0x5
 5819 0fbe 03       		.byte	0x3
 5820 0fbf 50700000 		.4byte	buf.7646
 5821 0fc3 00       		.byte	0
 5822 0fc4 0C       		.uleb128 0xc
 5823 0fc5 F5080000 		.4byte	.LASF73
 5824 0fc9 01       		.byte	0x1
 5825 0fca 6801     		.2byte	0x168
 5826 0fcc 88000000 		.4byte	0x88
 5827 0fd0 00000000 		.4byte	.LFB59
 5828 0fd4 10000000 		.4byte	.LFE59-.LFB59
 5829 0fd8 01       		.uleb128 0x1
 5830 0fd9 9C       		.byte	0x9c
 5831 0fda 01100000 		.4byte	0x1001
 5832 0fde 0D       		.uleb128 0xd
 5833 0fdf 6F090000 		.4byte	.LASF15
 5834 0fe3 01       		.byte	0x1
 5835 0fe4 6801     		.2byte	0x168
 5836 0fe6 88000000 		.4byte	0x88
 5837 0fea 9B070000 		.4byte	.LLST59
 5838 0fee 0E       		.uleb128 0xe
 5839 0fef 62756600 		.ascii	"buf\000"
 5840 0ff3 01       		.byte	0x1
 5841 0ff4 6A01     		.2byte	0x16a
 5842 0ff6 22020000 		.4byte	0x222
 5843 0ffa 05       		.uleb128 0x5
 5844 0ffb 03       		.byte	0x3
 5845 0ffc 50710000 		.4byte	buf.7650
 5846 1000 00       		.byte	0
 5847 1001 0C       		.uleb128 0xc
 5848 1002 A7080000 		.4byte	.LASF74
 5849 1006 01       		.byte	0x1
 5850 1007 6E01     		.2byte	0x16e
 5851 1009 88000000 		.4byte	0x88
 5852 100d 00000000 		.4byte	.LFB60
 5853 1011 10000000 		.4byte	.LFE60-.LFB60
 5854 1015 01       		.uleb128 0x1
 5855 1016 9C       		.byte	0x9c
 5856 1017 3E100000 		.4byte	0x103e
 5857 101b 0D       		.uleb128 0xd
 5858 101c 6F090000 		.4byte	.LASF15
 5859 1020 01       		.byte	0x1
 5860 1021 6E01     		.2byte	0x16e
 5861 1023 88000000 		.4byte	0x88
 5862 1027 BC070000 		.4byte	.LLST60
 5863 102b 0E       		.uleb128 0xe
 5864 102c 62756600 		.ascii	"buf\000"
 5865 1030 01       		.byte	0x1
 5866 1031 7001     		.2byte	0x170
ARM GAS  C:\Users\gjl\AppData\Local\Temp\ccNm9gHl.s 			page 124


 5867 1033 3E100000 		.4byte	0x103e
 5868 1037 05       		.uleb128 0x5
 5869 1038 03       		.byte	0x3
 5870 1039 50750000 		.4byte	buf.7654
 5871 103d 00       		.byte	0
 5872 103e 09       		.uleb128 0x9
 5873 103f 76000000 		.4byte	0x76
 5874 1043 4E100000 		.4byte	0x104e
 5875 1047 0A       		.uleb128 0xa
 5876 1048 D8000000 		.4byte	0xd8
 5877 104c 87       		.byte	0x87
 5878 104d 00       		.byte	0
 5879 104e 0C       		.uleb128 0xc
 5880 104f BA080000 		.4byte	.LASF75
 5881 1053 01       		.byte	0x1
 5882 1054 7401     		.2byte	0x174
 5883 1056 88000000 		.4byte	0x88
 5884 105a 00000000 		.4byte	.LFB61
 5885 105e 10000000 		.4byte	.LFE61-.LFB61
 5886 1062 01       		.uleb128 0x1
 5887 1063 9C       		.byte	0x9c
 5888 1064 8B100000 		.4byte	0x108b
 5889 1068 0D       		.uleb128 0xd
 5890 1069 6F090000 		.4byte	.LASF15
 5891 106d 01       		.byte	0x1
 5892 106e 7401     		.2byte	0x174
 5893 1070 88000000 		.4byte	0x88
 5894 1074 DD070000 		.4byte	.LLST61
 5895 1078 0E       		.uleb128 0xe
 5896 1079 62756600 		.ascii	"buf\000"
 5897 107d 01       		.byte	0x1
 5898 107e 7601     		.2byte	0x176
 5899 1080 8B100000 		.4byte	0x108b
 5900 1084 05       		.uleb128 0x5
 5901 1085 03       		.byte	0x3
 5902 1086 D8750000 		.4byte	buf.7658
 5903 108a 00       		.byte	0
 5904 108b 09       		.uleb128 0x9
 5905 108c 76000000 		.4byte	0x76
 5906 1090 9C100000 		.4byte	0x109c
 5907 1094 0B       		.uleb128 0xb
 5908 1095 D8000000 		.4byte	0xd8
 5909 1099 0F01     		.2byte	0x10f
 5910 109b 00       		.byte	0
 5911 109c 0C       		.uleb128 0xc
 5912 109d 00000000 		.4byte	.LASF76
 5913 10a1 01       		.byte	0x1
 5914 10a2 7A01     		.2byte	0x17a
 5915 10a4 88000000 		.4byte	0x88
 5916 10a8 00000000 		.4byte	.LFB62
 5917 10ac 10000000 		.4byte	.LFE62-.LFB62
 5918 10b0 01       		.uleb128 0x1
 5919 10b1 9C       		.byte	0x9c
 5920 10b2 D9100000 		.4byte	0x10d9
 5921 10b6 0D       		.uleb128 0xd
 5922 10b7 6F090000 		.4byte	.LASF15
 5923 10bb 01       		.byte	0x1
ARM GAS  C:\Users\gjl\AppData\Local\Temp\ccNm9gHl.s 			page 125


 5924 10bc 7A01     		.2byte	0x17a
 5925 10be 88000000 		.4byte	0x88
 5926 10c2 FE070000 		.4byte	.LLST62
 5927 10c6 0E       		.uleb128 0xe
 5928 10c7 62756600 		.ascii	"buf\000"
 5929 10cb 01       		.byte	0x1
 5930 10cc 7C01     		.2byte	0x17c
 5931 10ce D9100000 		.4byte	0x10d9
 5932 10d2 05       		.uleb128 0x5
 5933 10d3 03       		.byte	0x3
 5934 10d4 E8760000 		.4byte	buf.7662
 5935 10d8 00       		.byte	0
 5936 10d9 09       		.uleb128 0x9
 5937 10da 76000000 		.4byte	0x76
 5938 10de EA100000 		.4byte	0x10ea
 5939 10e2 0B       		.uleb128 0xb
 5940 10e3 D8000000 		.4byte	0xd8
 5941 10e7 1F02     		.2byte	0x21f
 5942 10e9 00       		.byte	0
 5943 10ea 0C       		.uleb128 0xc
 5944 10eb 6C010000 		.4byte	.LASF77
 5945 10ef 01       		.byte	0x1
 5946 10f0 8001     		.2byte	0x180
 5947 10f2 88000000 		.4byte	0x88
 5948 10f6 00000000 		.4byte	.LFB63
 5949 10fa 10000000 		.4byte	.LFE63-.LFB63
 5950 10fe 01       		.uleb128 0x1
 5951 10ff 9C       		.byte	0x9c
 5952 1100 27110000 		.4byte	0x1127
 5953 1104 0D       		.uleb128 0xd
 5954 1105 6F090000 		.4byte	.LASF15
 5955 1109 01       		.byte	0x1
 5956 110a 8001     		.2byte	0x180
 5957 110c 88000000 		.4byte	0x88
 5958 1110 1F080000 		.4byte	.LLST63
 5959 1114 0E       		.uleb128 0xe
 5960 1115 62756600 		.ascii	"buf\000"
 5961 1119 01       		.byte	0x1
 5962 111a 8201     		.2byte	0x182
 5963 111c 3E100000 		.4byte	0x103e
 5964 1120 05       		.uleb128 0x5
 5965 1121 03       		.byte	0x3
 5966 1122 08790000 		.4byte	buf.7666
 5967 1126 00       		.byte	0
 5968 1127 0C       		.uleb128 0xc
 5969 1128 48080000 		.4byte	.LASF78
 5970 112c 01       		.byte	0x1
 5971 112d 8601     		.2byte	0x186
 5972 112f 88000000 		.4byte	0x88
 5973 1133 00000000 		.4byte	.LFB64
 5974 1137 10000000 		.4byte	.LFE64-.LFB64
 5975 113b 01       		.uleb128 0x1
 5976 113c 9C       		.byte	0x9c
 5977 113d 64110000 		.4byte	0x1164
 5978 1141 0D       		.uleb128 0xd
 5979 1142 6F090000 		.4byte	.LASF15
 5980 1146 01       		.byte	0x1
ARM GAS  C:\Users\gjl\AppData\Local\Temp\ccNm9gHl.s 			page 126


 5981 1147 8601     		.2byte	0x186
 5982 1149 88000000 		.4byte	0x88
 5983 114d 40080000 		.4byte	.LLST64
 5984 1151 0E       		.uleb128 0xe
 5985 1152 62756600 		.ascii	"buf\000"
 5986 1156 01       		.byte	0x1
 5987 1157 8801     		.2byte	0x188
 5988 1159 8B100000 		.4byte	0x108b
 5989 115d 05       		.uleb128 0x5
 5990 115e 03       		.byte	0x3
 5991 115f 90790000 		.4byte	buf.7670
 5992 1163 00       		.byte	0
 5993 1164 0C       		.uleb128 0xc
 5994 1165 A5020000 		.4byte	.LASF79
 5995 1169 01       		.byte	0x1
 5996 116a 8C01     		.2byte	0x18c
 5997 116c 88000000 		.4byte	0x88
 5998 1170 00000000 		.4byte	.LFB65
 5999 1174 10000000 		.4byte	.LFE65-.LFB65
 6000 1178 01       		.uleb128 0x1
 6001 1179 9C       		.byte	0x9c
 6002 117a A1110000 		.4byte	0x11a1
 6003 117e 0D       		.uleb128 0xd
 6004 117f 6F090000 		.4byte	.LASF15
 6005 1183 01       		.byte	0x1
 6006 1184 8C01     		.2byte	0x18c
 6007 1186 88000000 		.4byte	0x88
 6008 118a 61080000 		.4byte	.LLST65
 6009 118e 0E       		.uleb128 0xe
 6010 118f 62756600 		.ascii	"buf\000"
 6011 1193 01       		.byte	0x1
 6012 1194 8E01     		.2byte	0x18e
 6013 1196 A1110000 		.4byte	0x11a1
 6014 119a 05       		.uleb128 0x5
 6015 119b 03       		.byte	0x3
 6016 119c A07A0000 		.4byte	buf.7674
 6017 11a0 00       		.byte	0
 6018 11a1 09       		.uleb128 0x9
 6019 11a2 76000000 		.4byte	0x76
 6020 11a6 B2110000 		.4byte	0x11b2
 6021 11aa 0B       		.uleb128 0xb
 6022 11ab D8000000 		.4byte	0xd8
 6023 11af 3F04     		.2byte	0x43f
 6024 11b1 00       		.byte	0
 6025 11b2 0C       		.uleb128 0xc
 6026 11b3 EE050000 		.4byte	.LASF80
 6027 11b7 01       		.byte	0x1
 6028 11b8 9201     		.2byte	0x192
 6029 11ba 88000000 		.4byte	0x88
 6030 11be 00000000 		.4byte	.LFB66
 6031 11c2 10000000 		.4byte	.LFE66-.LFB66
 6032 11c6 01       		.uleb128 0x1
 6033 11c7 9C       		.byte	0x9c
 6034 11c8 EF110000 		.4byte	0x11ef
 6035 11cc 0D       		.uleb128 0xd
 6036 11cd 6F090000 		.4byte	.LASF15
 6037 11d1 01       		.byte	0x1
ARM GAS  C:\Users\gjl\AppData\Local\Temp\ccNm9gHl.s 			page 127


 6038 11d2 9201     		.2byte	0x192
 6039 11d4 88000000 		.4byte	0x88
 6040 11d8 82080000 		.4byte	.LLST66
 6041 11dc 0E       		.uleb128 0xe
 6042 11dd 62756600 		.ascii	"buf\000"
 6043 11e1 01       		.byte	0x1
 6044 11e2 9401     		.2byte	0x194
 6045 11e4 C8000000 		.4byte	0xc8
 6046 11e8 05       		.uleb128 0x5
 6047 11e9 03       		.byte	0x3
 6048 11ea E07E0000 		.4byte	buf.7678
 6049 11ee 00       		.byte	0
 6050 11ef 0C       		.uleb128 0xc
 6051 11f0 33020000 		.4byte	.LASF81
 6052 11f4 01       		.byte	0x1
 6053 11f5 9801     		.2byte	0x198
 6054 11f7 88000000 		.4byte	0x88
 6055 11fb 00000000 		.4byte	.LFB67
 6056 11ff 10000000 		.4byte	.LFE67-.LFB67
 6057 1203 01       		.uleb128 0x1
 6058 1204 9C       		.byte	0x9c
 6059 1205 2C120000 		.4byte	0x122c
 6060 1209 0D       		.uleb128 0xd
 6061 120a 6F090000 		.4byte	.LASF15
 6062 120e 01       		.byte	0x1
 6063 120f 9801     		.2byte	0x198
 6064 1211 88000000 		.4byte	0x88
 6065 1215 A3080000 		.4byte	.LLST67
 6066 1219 0E       		.uleb128 0xe
 6067 121a 62756600 		.ascii	"buf\000"
 6068 121e 01       		.byte	0x1
 6069 121f 9A01     		.2byte	0x19a
 6070 1221 19010000 		.4byte	0x119
 6071 1225 05       		.uleb128 0x5
 6072 1226 03       		.byte	0x3
 6073 1227 607F0000 		.4byte	buf.7682
 6074 122b 00       		.byte	0
 6075 122c 0C       		.uleb128 0xc
 6076 122d AB070000 		.4byte	.LASF82
 6077 1231 01       		.byte	0x1
 6078 1232 9E01     		.2byte	0x19e
 6079 1234 88000000 		.4byte	0x88
 6080 1238 00000000 		.4byte	.LFB68
 6081 123c 10000000 		.4byte	.LFE68-.LFB68
 6082 1240 01       		.uleb128 0x1
 6083 1241 9C       		.byte	0x9c
 6084 1242 69120000 		.4byte	0x1269
 6085 1246 0D       		.uleb128 0xd
 6086 1247 6F090000 		.4byte	.LASF15
 6087 124b 01       		.byte	0x1
 6088 124c 9E01     		.2byte	0x19e
 6089 124e 88000000 		.4byte	0x88
 6090 1252 C4080000 		.4byte	.LLST68
 6091 1256 0E       		.uleb128 0xe
 6092 1257 62756600 		.ascii	"buf\000"
 6093 125b 01       		.byte	0x1
 6094 125c A001     		.2byte	0x1a0
ARM GAS  C:\Users\gjl\AppData\Local\Temp\ccNm9gHl.s 			page 128


 6095 125e 22020000 		.4byte	0x222
 6096 1262 05       		.uleb128 0x5
 6097 1263 03       		.byte	0x3
 6098 1264 60800000 		.4byte	buf.7686
 6099 1268 00       		.byte	0
 6100 1269 0C       		.uleb128 0xc
 6101 126a D5020000 		.4byte	.LASF83
 6102 126e 01       		.byte	0x1
 6103 126f A401     		.2byte	0x1a4
 6104 1271 88000000 		.4byte	0x88
 6105 1275 00000000 		.4byte	.LFB69
 6106 1279 10000000 		.4byte	.LFE69-.LFB69
 6107 127d 01       		.uleb128 0x1
 6108 127e 9C       		.byte	0x9c
 6109 127f A6120000 		.4byte	0x12a6
 6110 1283 0D       		.uleb128 0xd
 6111 1284 6F090000 		.4byte	.LASF15
 6112 1288 01       		.byte	0x1
 6113 1289 A401     		.2byte	0x1a4
 6114 128b 88000000 		.4byte	0x88
 6115 128f E5080000 		.4byte	.LLST69
 6116 1293 0E       		.uleb128 0xe
 6117 1294 62756600 		.ascii	"buf\000"
 6118 1298 01       		.byte	0x1
 6119 1299 A601     		.2byte	0x1a6
 6120 129b C8000000 		.4byte	0xc8
 6121 129f 05       		.uleb128 0x5
 6122 12a0 03       		.byte	0x3
 6123 12a1 60840000 		.4byte	buf.7690
 6124 12a5 00       		.byte	0
 6125 12a6 0C       		.uleb128 0xc
 6126 12a7 E8020000 		.4byte	.LASF84
 6127 12ab 01       		.byte	0x1
 6128 12ac AA01     		.2byte	0x1aa
 6129 12ae 88000000 		.4byte	0x88
 6130 12b2 00000000 		.4byte	.LFB70
 6131 12b6 10000000 		.4byte	.LFE70-.LFB70
 6132 12ba 01       		.uleb128 0x1
 6133 12bb 9C       		.byte	0x9c
 6134 12bc E3120000 		.4byte	0x12e3
 6135 12c0 0D       		.uleb128 0xd
 6136 12c1 6F090000 		.4byte	.LASF15
 6137 12c5 01       		.byte	0x1
 6138 12c6 AA01     		.2byte	0x1aa
 6139 12c8 88000000 		.4byte	0x88
 6140 12cc 06090000 		.4byte	.LLST70
 6141 12d0 0E       		.uleb128 0xe
 6142 12d1 62756600 		.ascii	"buf\000"
 6143 12d5 01       		.byte	0x1
 6144 12d6 AC01     		.2byte	0x1ac
 6145 12d8 19010000 		.4byte	0x119
 6146 12dc 05       		.uleb128 0x5
 6147 12dd 03       		.byte	0x3
 6148 12de E0840000 		.4byte	buf.7694
 6149 12e2 00       		.byte	0
 6150 12e3 0C       		.uleb128 0xc
 6151 12e4 26040000 		.4byte	.LASF85
ARM GAS  C:\Users\gjl\AppData\Local\Temp\ccNm9gHl.s 			page 129


 6152 12e8 01       		.byte	0x1
 6153 12e9 B001     		.2byte	0x1b0
 6154 12eb 88000000 		.4byte	0x88
 6155 12ef 00000000 		.4byte	.LFB71
 6156 12f3 10000000 		.4byte	.LFE71-.LFB71
 6157 12f7 01       		.uleb128 0x1
 6158 12f8 9C       		.byte	0x9c
 6159 12f9 20130000 		.4byte	0x1320
 6160 12fd 0D       		.uleb128 0xd
 6161 12fe 6F090000 		.4byte	.LASF15
 6162 1302 01       		.byte	0x1
 6163 1303 B001     		.2byte	0x1b0
 6164 1305 88000000 		.4byte	0x88
 6165 1309 27090000 		.4byte	.LLST71
 6166 130d 0E       		.uleb128 0xe
 6167 130e 62756600 		.ascii	"buf\000"
 6168 1312 01       		.byte	0x1
 6169 1313 B201     		.2byte	0x1b2
 6170 1315 22020000 		.4byte	0x222
 6171 1319 05       		.uleb128 0x5
 6172 131a 03       		.byte	0x3
 6173 131b E0850000 		.4byte	buf.7698
 6174 131f 00       		.byte	0
 6175 1320 0C       		.uleb128 0xc
 6176 1321 DC090000 		.4byte	.LASF86
 6177 1325 01       		.byte	0x1
 6178 1326 B601     		.2byte	0x1b6
 6179 1328 88000000 		.4byte	0x88
 6180 132c 00000000 		.4byte	.LFB72
 6181 1330 10000000 		.4byte	.LFE72-.LFB72
 6182 1334 01       		.uleb128 0x1
 6183 1335 9C       		.byte	0x9c
 6184 1336 5D130000 		.4byte	0x135d
 6185 133a 0D       		.uleb128 0xd
 6186 133b 6F090000 		.4byte	.LASF15
 6187 133f 01       		.byte	0x1
 6188 1340 B601     		.2byte	0x1b6
 6189 1342 88000000 		.4byte	0x88
 6190 1346 48090000 		.4byte	.LLST72
 6191 134a 0E       		.uleb128 0xe
 6192 134b 62756600 		.ascii	"buf\000"
 6193 134f 01       		.byte	0x1
 6194 1350 B801     		.2byte	0x1b8
 6195 1352 90050000 		.4byte	0x590
 6196 1356 05       		.uleb128 0x5
 6197 1357 03       		.byte	0x3
 6198 1358 E0890000 		.4byte	buf.7702
 6199 135c 00       		.byte	0
 6200 135d 0C       		.uleb128 0xc
 6201 135e F0090000 		.4byte	.LASF87
 6202 1362 01       		.byte	0x1
 6203 1363 BC01     		.2byte	0x1bc
 6204 1365 88000000 		.4byte	0x88
 6205 1369 00000000 		.4byte	.LFB73
 6206 136d 10000000 		.4byte	.LFE73-.LFB73
 6207 1371 01       		.uleb128 0x1
 6208 1372 9C       		.byte	0x9c
ARM GAS  C:\Users\gjl\AppData\Local\Temp\ccNm9gHl.s 			page 130


 6209 1373 9A130000 		.4byte	0x139a
 6210 1377 0D       		.uleb128 0xd
 6211 1378 6F090000 		.4byte	.LASF15
 6212 137c 01       		.byte	0x1
 6213 137d BC01     		.2byte	0x1bc
 6214 137f 88000000 		.4byte	0x88
 6215 1383 69090000 		.4byte	.LLST73
 6216 1387 0E       		.uleb128 0xe
 6217 1388 62756600 		.ascii	"buf\000"
 6218 138c 01       		.byte	0x1
 6219 138d BE01     		.2byte	0x1be
 6220 138f 9F030000 		.4byte	0x39f
 6221 1393 05       		.uleb128 0x5
 6222 1394 03       		.byte	0x3
 6223 1395 A08A0000 		.4byte	buf.7706
 6224 1399 00       		.byte	0
 6225 139a 0C       		.uleb128 0xc
 6226 139b 58010000 		.4byte	.LASF88
 6227 139f 01       		.byte	0x1
 6228 13a0 C201     		.2byte	0x1c2
 6229 13a2 88000000 		.4byte	0x88
 6230 13a6 00000000 		.4byte	.LFB74
 6231 13aa 10000000 		.4byte	.LFE74-.LFB74
 6232 13ae 01       		.uleb128 0x1
 6233 13af 9C       		.byte	0x9c
 6234 13b0 D7130000 		.4byte	0x13d7
 6235 13b4 0D       		.uleb128 0xd
 6236 13b5 6F090000 		.4byte	.LASF15
 6237 13b9 01       		.byte	0x1
 6238 13ba C201     		.2byte	0x1c2
 6239 13bc 88000000 		.4byte	0x88
 6240 13c0 8A090000 		.4byte	.LLST74
 6241 13c4 0E       		.uleb128 0xe
 6242 13c5 62756600 		.ascii	"buf\000"
 6243 13c9 01       		.byte	0x1
 6244 13ca C401     		.2byte	0x1c4
 6245 13cc B00C0000 		.4byte	0xcb0
 6246 13d0 05       		.uleb128 0x5
 6247 13d1 03       		.byte	0x3
 6248 13d2 208C0000 		.4byte	buf.7710
 6249 13d6 00       		.byte	0
 6250 13d7 0C       		.uleb128 0xc
 6251 13d8 B6090000 		.4byte	.LASF89
 6252 13dc 01       		.byte	0x1
 6253 13dd C801     		.2byte	0x1c8
 6254 13df 88000000 		.4byte	0x88
 6255 13e3 00000000 		.4byte	.LFB75
 6256 13e7 10000000 		.4byte	.LFE75-.LFB75
 6257 13eb 01       		.uleb128 0x1
 6258 13ec 9C       		.byte	0x9c
 6259 13ed 14140000 		.4byte	0x1414
 6260 13f1 0D       		.uleb128 0xd
 6261 13f2 6F090000 		.4byte	.LASF15
 6262 13f6 01       		.byte	0x1
 6263 13f7 C801     		.2byte	0x1c8
 6264 13f9 88000000 		.4byte	0x88
 6265 13fd AB090000 		.4byte	.LLST75
ARM GAS  C:\Users\gjl\AppData\Local\Temp\ccNm9gHl.s 			page 131


 6266 1401 0E       		.uleb128 0xe
 6267 1402 62756600 		.ascii	"buf\000"
 6268 1406 01       		.byte	0x1
 6269 1407 CA01     		.2byte	0x1ca
 6270 1409 C8000000 		.4byte	0xc8
 6271 140d 05       		.uleb128 0x5
 6272 140e 03       		.byte	0x3
 6273 140f 20920000 		.4byte	buf.7714
 6274 1413 00       		.byte	0
 6275 1414 0C       		.uleb128 0xc
 6276 1415 C9090000 		.4byte	.LASF90
 6277 1419 01       		.byte	0x1
 6278 141a CE01     		.2byte	0x1ce
 6279 141c 88000000 		.4byte	0x88
 6280 1420 00000000 		.4byte	.LFB76
 6281 1424 10000000 		.4byte	.LFE76-.LFB76
 6282 1428 01       		.uleb128 0x1
 6283 1429 9C       		.byte	0x9c
 6284 142a 51140000 		.4byte	0x1451
 6285 142e 0D       		.uleb128 0xd
 6286 142f 6F090000 		.4byte	.LASF15
 6287 1433 01       		.byte	0x1
 6288 1434 CE01     		.2byte	0x1ce
 6289 1436 88000000 		.4byte	0x88
 6290 143a CC090000 		.4byte	.LLST76
 6291 143e 0E       		.uleb128 0xe
 6292 143f 62756600 		.ascii	"buf\000"
 6293 1443 01       		.byte	0x1
 6294 1444 D001     		.2byte	0x1d0
 6295 1446 19010000 		.4byte	0x119
 6296 144a 05       		.uleb128 0x5
 6297 144b 03       		.byte	0x3
 6298 144c A0920000 		.4byte	buf.7718
 6299 1450 00       		.byte	0
 6300 1451 0C       		.uleb128 0xc
 6301 1452 B7000000 		.4byte	.LASF91
 6302 1456 01       		.byte	0x1
 6303 1457 D401     		.2byte	0x1d4
 6304 1459 88000000 		.4byte	0x88
 6305 145d 00000000 		.4byte	.LFB77
 6306 1461 10000000 		.4byte	.LFE77-.LFB77
 6307 1465 01       		.uleb128 0x1
 6308 1466 9C       		.byte	0x9c
 6309 1467 8E140000 		.4byte	0x148e
 6310 146b 0D       		.uleb128 0xd
 6311 146c 6F090000 		.4byte	.LASF15
 6312 1470 01       		.byte	0x1
 6313 1471 D401     		.2byte	0x1d4
 6314 1473 88000000 		.4byte	0x88
 6315 1477 ED090000 		.4byte	.LLST77
 6316 147b 0E       		.uleb128 0xe
 6317 147c 62756600 		.ascii	"buf\000"
 6318 1480 01       		.byte	0x1
 6319 1481 D601     		.2byte	0x1d6
 6320 1483 22020000 		.4byte	0x222
 6321 1487 05       		.uleb128 0x5
 6322 1488 03       		.byte	0x3
ARM GAS  C:\Users\gjl\AppData\Local\Temp\ccNm9gHl.s 			page 132


 6323 1489 A0930000 		.4byte	buf.7722
 6324 148d 00       		.byte	0
 6325 148e 0C       		.uleb128 0xc
 6326 148f FB020000 		.4byte	.LASF92
 6327 1493 01       		.byte	0x1
 6328 1494 DA01     		.2byte	0x1da
 6329 1496 88000000 		.4byte	0x88
 6330 149a 00000000 		.4byte	.LFB78
 6331 149e 10000000 		.4byte	.LFE78-.LFB78
 6332 14a2 01       		.uleb128 0x1
 6333 14a3 9C       		.byte	0x9c
 6334 14a4 CB140000 		.4byte	0x14cb
 6335 14a8 0D       		.uleb128 0xd
 6336 14a9 6F090000 		.4byte	.LASF15
 6337 14ad 01       		.byte	0x1
 6338 14ae DA01     		.2byte	0x1da
 6339 14b0 88000000 		.4byte	0x88
 6340 14b4 0E0A0000 		.4byte	.LLST78
 6341 14b8 0E       		.uleb128 0xe
 6342 14b9 62756600 		.ascii	"buf\000"
 6343 14bd 01       		.byte	0x1
 6344 14be DC01     		.2byte	0x1dc
 6345 14c0 90050000 		.4byte	0x590
 6346 14c4 05       		.uleb128 0x5
 6347 14c5 03       		.byte	0x3
 6348 14c6 A0970000 		.4byte	buf.7726
 6349 14ca 00       		.byte	0
 6350 14cb 0C       		.uleb128 0xc
 6351 14cc 0E030000 		.4byte	.LASF93
 6352 14d0 01       		.byte	0x1
 6353 14d1 E001     		.2byte	0x1e0
 6354 14d3 88000000 		.4byte	0x88
 6355 14d7 00000000 		.4byte	.LFB79
 6356 14db 10000000 		.4byte	.LFE79-.LFB79
 6357 14df 01       		.uleb128 0x1
 6358 14e0 9C       		.byte	0x9c
 6359 14e1 08150000 		.4byte	0x1508
 6360 14e5 0D       		.uleb128 0xd
 6361 14e6 6F090000 		.4byte	.LASF15
 6362 14ea 01       		.byte	0x1
 6363 14eb E001     		.2byte	0x1e0
 6364 14ed 88000000 		.4byte	0x88
 6365 14f1 2F0A0000 		.4byte	.LLST79
 6366 14f5 0E       		.uleb128 0xe
 6367 14f6 62756600 		.ascii	"buf\000"
 6368 14fa 01       		.byte	0x1
 6369 14fb E201     		.2byte	0x1e2
 6370 14fd 9F030000 		.4byte	0x39f
 6371 1501 05       		.uleb128 0x5
 6372 1502 03       		.byte	0x3
 6373 1503 60980000 		.4byte	buf.7730
 6374 1507 00       		.byte	0
 6375 1508 0C       		.uleb128 0xc
 6376 1509 39070000 		.4byte	.LASF94
 6377 150d 01       		.byte	0x1
 6378 150e E601     		.2byte	0x1e6
 6379 1510 88000000 		.4byte	0x88
ARM GAS  C:\Users\gjl\AppData\Local\Temp\ccNm9gHl.s 			page 133


 6380 1514 00000000 		.4byte	.LFB80
 6381 1518 10000000 		.4byte	.LFE80-.LFB80
 6382 151c 01       		.uleb128 0x1
 6383 151d 9C       		.byte	0x9c
 6384 151e 45150000 		.4byte	0x1545
 6385 1522 0D       		.uleb128 0xd
 6386 1523 6F090000 		.4byte	.LASF15
 6387 1527 01       		.byte	0x1
 6388 1528 E601     		.2byte	0x1e6
 6389 152a 88000000 		.4byte	0x88
 6390 152e 500A0000 		.4byte	.LLST80
 6391 1532 0E       		.uleb128 0xe
 6392 1533 62756600 		.ascii	"buf\000"
 6393 1537 01       		.byte	0x1
 6394 1538 E801     		.2byte	0x1e8
 6395 153a B00C0000 		.4byte	0xcb0
 6396 153e 05       		.uleb128 0x5
 6397 153f 03       		.byte	0x3
 6398 1540 E0990000 		.4byte	buf.7734
 6399 1544 00       		.byte	0
 6400 1545 0C       		.uleb128 0xc
 6401 1546 12070000 		.4byte	.LASF95
 6402 154a 01       		.byte	0x1
 6403 154b EC01     		.2byte	0x1ec
 6404 154d 88000000 		.4byte	0x88
 6405 1551 00000000 		.4byte	.LFB81
 6406 1555 10000000 		.4byte	.LFE81-.LFB81
 6407 1559 01       		.uleb128 0x1
 6408 155a 9C       		.byte	0x9c
 6409 155b 82150000 		.4byte	0x1582
 6410 155f 0D       		.uleb128 0xd
 6411 1560 6F090000 		.4byte	.LASF15
 6412 1564 01       		.byte	0x1
 6413 1565 EC01     		.2byte	0x1ec
 6414 1567 88000000 		.4byte	0x88
 6415 156b 710A0000 		.4byte	.LLST81
 6416 156f 0E       		.uleb128 0xe
 6417 1570 62756600 		.ascii	"buf\000"
 6418 1574 01       		.byte	0x1
 6419 1575 EE01     		.2byte	0x1ee
 6420 1577 E70D0000 		.4byte	0xde7
 6421 157b 05       		.uleb128 0x5
 6422 157c 03       		.byte	0x3
 6423 157d E09F0000 		.4byte	buf.7738
 6424 1581 00       		.byte	0
 6425 1582 0C       		.uleb128 0xc
 6426 1583 0F080000 		.4byte	.LASF96
 6427 1587 01       		.byte	0x1
 6428 1588 F201     		.2byte	0x1f2
 6429 158a 88000000 		.4byte	0x88
 6430 158e 00000000 		.4byte	.LFB82
 6431 1592 0C000000 		.4byte	.LFE82-.LFB82
 6432 1596 01       		.uleb128 0x1
 6433 1597 9C       		.byte	0x9c
 6434 1598 BF150000 		.4byte	0x15bf
 6435 159c 0D       		.uleb128 0xd
 6436 159d 6F090000 		.4byte	.LASF15
ARM GAS  C:\Users\gjl\AppData\Local\Temp\ccNm9gHl.s 			page 134


 6437 15a1 01       		.byte	0x1
 6438 15a2 F201     		.2byte	0x1f2
 6439 15a4 88000000 		.4byte	0x88
 6440 15a8 920A0000 		.4byte	.LLST82
 6441 15ac 0E       		.uleb128 0xe
 6442 15ad 62756600 		.ascii	"buf\000"
 6443 15b1 01       		.byte	0x1
 6444 15b2 F401     		.2byte	0x1f4
 6445 15b4 340E0000 		.4byte	0xe34
 6446 15b8 05       		.uleb128 0x5
 6447 15b9 03       		.byte	0x3
 6448 15ba 80A00000 		.4byte	buf.7742
 6449 15be 00       		.byte	0
 6450 15bf 0C       		.uleb128 0xc
 6451 15c0 98070000 		.4byte	.LASF97
 6452 15c4 01       		.byte	0x1
 6453 15c5 F801     		.2byte	0x1f8
 6454 15c7 88000000 		.4byte	0x88
 6455 15cb 00000000 		.4byte	.LFB83
 6456 15cf 10000000 		.4byte	.LFE83-.LFB83
 6457 15d3 01       		.uleb128 0x1
 6458 15d4 9C       		.byte	0x9c
 6459 15d5 FC150000 		.4byte	0x15fc
 6460 15d9 0D       		.uleb128 0xd
 6461 15da 6F090000 		.4byte	.LASF15
 6462 15de 01       		.byte	0x1
 6463 15df F801     		.2byte	0x1f8
 6464 15e1 88000000 		.4byte	0x88
 6465 15e5 B30A0000 		.4byte	.LLST83
 6466 15e9 0E       		.uleb128 0xe
 6467 15ea 62756600 		.ascii	"buf\000"
 6468 15ee 01       		.byte	0x1
 6469 15ef FA01     		.2byte	0x1fa
 6470 15f1 FC150000 		.4byte	0x15fc
 6471 15f5 05       		.uleb128 0x5
 6472 15f6 03       		.byte	0x3
 6473 15f7 C0A10000 		.4byte	buf.7746
 6474 15fb 00       		.byte	0
 6475 15fc 09       		.uleb128 0x9
 6476 15fd 76000000 		.4byte	0x76
 6477 1601 0D160000 		.4byte	0x160d
 6478 1605 0B       		.uleb128 0xb
 6479 1606 D8000000 		.4byte	0xd8
 6480 160a 3F06     		.2byte	0x63f
 6481 160c 00       		.byte	0
 6482 160d 0C       		.uleb128 0xc
 6483 160e A0050000 		.4byte	.LASF98
 6484 1612 01       		.byte	0x1
 6485 1613 FE01     		.2byte	0x1fe
 6486 1615 88000000 		.4byte	0x88
 6487 1619 00000000 		.4byte	.LFB84
 6488 161d 0C000000 		.4byte	.LFE84-.LFB84
 6489 1621 01       		.uleb128 0x1
 6490 1622 9C       		.byte	0x9c
 6491 1623 4A160000 		.4byte	0x164a
 6492 1627 0D       		.uleb128 0xd
 6493 1628 6F090000 		.4byte	.LASF15
ARM GAS  C:\Users\gjl\AppData\Local\Temp\ccNm9gHl.s 			page 135


 6494 162c 01       		.byte	0x1
 6495 162d FE01     		.2byte	0x1fe
 6496 162f 88000000 		.4byte	0x88
 6497 1633 D40A0000 		.4byte	.LLST84
 6498 1637 0E       		.uleb128 0xe
 6499 1638 62756600 		.ascii	"buf\000"
 6500 163c 01       		.byte	0x1
 6501 163d 0002     		.2byte	0x200
 6502 163f FE0C0000 		.4byte	0xcfe
 6503 1643 05       		.uleb128 0x5
 6504 1644 03       		.byte	0x3
 6505 1645 00A80000 		.4byte	buf.7750
 6506 1649 00       		.byte	0
 6507 164a 0C       		.uleb128 0xc
 6508 164b B3050000 		.4byte	.LASF99
 6509 164f 01       		.byte	0x1
 6510 1650 0402     		.2byte	0x204
 6511 1652 88000000 		.4byte	0x88
 6512 1656 00000000 		.4byte	.LFB85
 6513 165a 10000000 		.4byte	.LFE85-.LFB85
 6514 165e 01       		.uleb128 0x1
 6515 165f 9C       		.byte	0x9c
 6516 1660 87160000 		.4byte	0x1687
 6517 1664 0D       		.uleb128 0xd
 6518 1665 6F090000 		.4byte	.LASF15
 6519 1669 01       		.byte	0x1
 6520 166a 0402     		.2byte	0x204
 6521 166c 88000000 		.4byte	0x88
 6522 1670 F50A0000 		.4byte	.LLST85
 6523 1674 0E       		.uleb128 0xe
 6524 1675 62756600 		.ascii	"buf\000"
 6525 1679 01       		.byte	0x1
 6526 167a 0602     		.2byte	0x206
 6527 167c 4B0D0000 		.4byte	0xd4b
 6528 1680 05       		.uleb128 0x5
 6529 1681 03       		.byte	0x3
 6530 1682 F0A80000 		.4byte	buf.7754
 6531 1686 00       		.byte	0
 6532 1687 0C       		.uleb128 0xc
 6533 1688 F3060000 		.4byte	.LASF100
 6534 168c 01       		.byte	0x1
 6535 168d 0A02     		.2byte	0x20a
 6536 168f 88000000 		.4byte	0x88
 6537 1693 00000000 		.4byte	.LFB86
 6538 1697 10000000 		.4byte	.LFE86-.LFB86
 6539 169b 01       		.uleb128 0x1
 6540 169c 9C       		.byte	0x9c
 6541 169d C4160000 		.4byte	0x16c4
 6542 16a1 0D       		.uleb128 0xd
 6543 16a2 6F090000 		.4byte	.LASF15
 6544 16a6 01       		.byte	0x1
 6545 16a7 0A02     		.2byte	0x20a
 6546 16a9 88000000 		.4byte	0x88
 6547 16ad 160B0000 		.4byte	.LLST86
 6548 16b1 0E       		.uleb128 0xe
 6549 16b2 62756600 		.ascii	"buf\000"
 6550 16b6 01       		.byte	0x1
ARM GAS  C:\Users\gjl\AppData\Local\Temp\ccNm9gHl.s 			page 136


 6551 16b7 0C02     		.2byte	0x20c
 6552 16b9 C4160000 		.4byte	0x16c4
 6553 16bd 05       		.uleb128 0x5
 6554 16be 03       		.byte	0x3
 6555 16bf D0AA0000 		.4byte	buf.7758
 6556 16c3 00       		.byte	0
 6557 16c4 09       		.uleb128 0x9
 6558 16c5 76000000 		.4byte	0x76
 6559 16c9 D5160000 		.4byte	0x16d5
 6560 16cd 0B       		.uleb128 0xb
 6561 16ce D8000000 		.4byte	0xd8
 6562 16d2 FF0E     		.2byte	0xeff
 6563 16d4 00       		.byte	0
 6564 16d5 0C       		.uleb128 0xc
 6565 16d6 35030000 		.4byte	.LASF101
 6566 16da 01       		.byte	0x1
 6567 16db 1002     		.2byte	0x210
 6568 16dd 88000000 		.4byte	0x88
 6569 16e1 00000000 		.4byte	.LFB87
 6570 16e5 10000000 		.4byte	.LFE87-.LFB87
 6571 16e9 01       		.uleb128 0x1
 6572 16ea 9C       		.byte	0x9c
 6573 16eb 12170000 		.4byte	0x1712
 6574 16ef 0D       		.uleb128 0xd
 6575 16f0 6F090000 		.4byte	.LASF15
 6576 16f4 01       		.byte	0x1
 6577 16f5 1002     		.2byte	0x210
 6578 16f7 88000000 		.4byte	0x88
 6579 16fb 370B0000 		.4byte	.LLST87
 6580 16ff 0E       		.uleb128 0xe
 6581 1700 62756600 		.ascii	"buf\000"
 6582 1704 01       		.byte	0x1
 6583 1705 1202     		.2byte	0x212
 6584 1707 FE0C0000 		.4byte	0xcfe
 6585 170b 05       		.uleb128 0x5
 6586 170c 03       		.byte	0x3
 6587 170d D0B90000 		.4byte	buf.7762
 6588 1711 00       		.byte	0
 6589 1712 0C       		.uleb128 0xc
 6590 1713 47030000 		.4byte	.LASF102
 6591 1717 01       		.byte	0x1
 6592 1718 1602     		.2byte	0x216
 6593 171a 88000000 		.4byte	0x88
 6594 171e 00000000 		.4byte	.LFB88
 6595 1722 10000000 		.4byte	.LFE88-.LFB88
 6596 1726 01       		.uleb128 0x1
 6597 1727 9C       		.byte	0x9c
 6598 1728 4F170000 		.4byte	0x174f
 6599 172c 0D       		.uleb128 0xd
 6600 172d 6F090000 		.4byte	.LASF15
 6601 1731 01       		.byte	0x1
 6602 1732 1602     		.2byte	0x216
 6603 1734 88000000 		.4byte	0x88
 6604 1738 580B0000 		.4byte	.LLST88
 6605 173c 0E       		.uleb128 0xe
 6606 173d 62756600 		.ascii	"buf\000"
 6607 1741 01       		.byte	0x1
ARM GAS  C:\Users\gjl\AppData\Local\Temp\ccNm9gHl.s 			page 137


 6608 1742 1802     		.2byte	0x218
 6609 1744 4B0D0000 		.4byte	0xd4b
 6610 1748 05       		.uleb128 0x5
 6611 1749 03       		.byte	0x3
 6612 174a C0BA0000 		.4byte	buf.7766
 6613 174e 00       		.byte	0
 6614 174f 0C       		.uleb128 0xc
 6615 1750 BA040000 		.4byte	.LASF103
 6616 1754 01       		.byte	0x1
 6617 1755 1C02     		.2byte	0x21c
 6618 1757 88000000 		.4byte	0x88
 6619 175b 00000000 		.4byte	.LFB89
 6620 175f 10000000 		.4byte	.LFE89-.LFB89
 6621 1763 01       		.uleb128 0x1
 6622 1764 9C       		.byte	0x9c
 6623 1765 8C170000 		.4byte	0x178c
 6624 1769 0D       		.uleb128 0xd
 6625 176a 6F090000 		.4byte	.LASF15
 6626 176e 01       		.byte	0x1
 6627 176f 1C02     		.2byte	0x21c
 6628 1771 88000000 		.4byte	0x88
 6629 1775 790B0000 		.4byte	.LLST89
 6630 1779 0E       		.uleb128 0xe
 6631 177a 62756600 		.ascii	"buf\000"
 6632 177e 01       		.byte	0x1
 6633 177f 1E02     		.2byte	0x21e
 6634 1781 C4160000 		.4byte	0x16c4
 6635 1785 05       		.uleb128 0x5
 6636 1786 03       		.byte	0x3
 6637 1787 A0BC0000 		.4byte	buf.7770
 6638 178b 00       		.byte	0
 6639 178c 0C       		.uleb128 0xc
 6640 178d 28050000 		.4byte	.LASF104
 6641 1791 01       		.byte	0x1
 6642 1792 2202     		.2byte	0x222
 6643 1794 88000000 		.4byte	0x88
 6644 1798 00000000 		.4byte	.LFB90
 6645 179c 10000000 		.4byte	.LFE90-.LFB90
 6646 17a0 01       		.uleb128 0x1
 6647 17a1 9C       		.byte	0x9c
 6648 17a2 C9170000 		.4byte	0x17c9
 6649 17a6 0D       		.uleb128 0xd
 6650 17a7 6F090000 		.4byte	.LASF15
 6651 17ab 01       		.byte	0x1
 6652 17ac 2202     		.2byte	0x222
 6653 17ae 88000000 		.4byte	0x88
 6654 17b2 9A0B0000 		.4byte	.LLST90
 6655 17b6 0E       		.uleb128 0xe
 6656 17b7 62756600 		.ascii	"buf\000"
 6657 17bb 01       		.byte	0x1
 6658 17bc 2402     		.2byte	0x224
 6659 17be 19010000 		.4byte	0x119
 6660 17c2 05       		.uleb128 0x5
 6661 17c3 03       		.byte	0x3
 6662 17c4 A0CB0000 		.4byte	buf.7774
 6663 17c8 00       		.byte	0
 6664 17c9 0C       		.uleb128 0xc
ARM GAS  C:\Users\gjl\AppData\Local\Temp\ccNm9gHl.s 			page 138


 6665 17ca 2E090000 		.4byte	.LASF105
 6666 17ce 01       		.byte	0x1
 6667 17cf 2802     		.2byte	0x228
 6668 17d1 88000000 		.4byte	0x88
 6669 17d5 00000000 		.4byte	.LFB91
 6670 17d9 10000000 		.4byte	.LFE91-.LFB91
 6671 17dd 01       		.uleb128 0x1
 6672 17de 9C       		.byte	0x9c
 6673 17df 06180000 		.4byte	0x1806
 6674 17e3 0D       		.uleb128 0xd
 6675 17e4 6F090000 		.4byte	.LASF15
 6676 17e8 01       		.byte	0x1
 6677 17e9 2802     		.2byte	0x228
 6678 17eb 88000000 		.4byte	0x88
 6679 17ef BB0B0000 		.4byte	.LLST91
 6680 17f3 0E       		.uleb128 0xe
 6681 17f4 62756600 		.ascii	"buf\000"
 6682 17f8 01       		.byte	0x1
 6683 17f9 2A02     		.2byte	0x22a
 6684 17fb 63010000 		.4byte	0x163
 6685 17ff 05       		.uleb128 0x5
 6686 1800 03       		.byte	0x3
 6687 1801 A0CC0000 		.4byte	buf.7778
 6688 1805 00       		.byte	0
 6689 1806 0C       		.uleb128 0xc
 6690 1807 040A0000 		.4byte	.LASF106
 6691 180b 01       		.byte	0x1
 6692 180c 2E02     		.2byte	0x22e
 6693 180e 88000000 		.4byte	0x88
 6694 1812 00000000 		.4byte	.LFB92
 6695 1816 10000000 		.4byte	.LFE92-.LFB92
 6696 181a 01       		.uleb128 0x1
 6697 181b 9C       		.byte	0x9c
 6698 181c 43180000 		.4byte	0x1843
 6699 1820 0D       		.uleb128 0xd
 6700 1821 6F090000 		.4byte	.LASF15
 6701 1825 01       		.byte	0x1
 6702 1826 2E02     		.2byte	0x22e
 6703 1828 88000000 		.4byte	0x88
 6704 182c DC0B0000 		.4byte	.LLST92
 6705 1830 0E       		.uleb128 0xe
 6706 1831 62756600 		.ascii	"buf\000"
 6707 1835 01       		.byte	0x1
 6708 1836 3002     		.2byte	0x230
 6709 1838 B4080000 		.4byte	0x8b4
 6710 183c 05       		.uleb128 0x5
 6711 183d 03       		.byte	0x3
 6712 183e A0CE0000 		.4byte	buf.7782
 6713 1842 00       		.byte	0
 6714 1843 0C       		.uleb128 0xc
 6715 1844 04050000 		.4byte	.LASF107
 6716 1848 01       		.byte	0x1
 6717 1849 3402     		.2byte	0x234
 6718 184b 88000000 		.4byte	0x88
 6719 184f 00000000 		.4byte	.LFB93
 6720 1853 10000000 		.4byte	.LFE93-.LFB93
 6721 1857 01       		.uleb128 0x1
ARM GAS  C:\Users\gjl\AppData\Local\Temp\ccNm9gHl.s 			page 139


 6722 1858 9C       		.byte	0x9c
 6723 1859 80180000 		.4byte	0x1880
 6724 185d 0D       		.uleb128 0xd
 6725 185e 6F090000 		.4byte	.LASF15
 6726 1862 01       		.byte	0x1
 6727 1863 3402     		.2byte	0x234
 6728 1865 88000000 		.4byte	0x88
 6729 1869 FD0B0000 		.4byte	.LLST93
 6730 186d 0E       		.uleb128 0xe
 6731 186e 62756600 		.ascii	"buf\000"
 6732 1872 01       		.byte	0x1
 6733 1873 3602     		.2byte	0x236
 6734 1875 C8000000 		.4byte	0xc8
 6735 1879 05       		.uleb128 0x5
 6736 187a 03       		.byte	0x3
 6737 187b A0D60000 		.4byte	buf.7786
 6738 187f 00       		.byte	0
 6739 1880 0C       		.uleb128 0xc
 6740 1881 16050000 		.4byte	.LASF108
 6741 1885 01       		.byte	0x1
 6742 1886 3A02     		.2byte	0x23a
 6743 1888 88000000 		.4byte	0x88
 6744 188c 00000000 		.4byte	.LFB94
 6745 1890 10000000 		.4byte	.LFE94-.LFB94
 6746 1894 01       		.uleb128 0x1
 6747 1895 9C       		.byte	0x9c
 6748 1896 BD180000 		.4byte	0x18bd
 6749 189a 0D       		.uleb128 0xd
 6750 189b 6F090000 		.4byte	.LASF15
 6751 189f 01       		.byte	0x1
 6752 18a0 3A02     		.2byte	0x23a
 6753 18a2 88000000 		.4byte	0x88
 6754 18a6 1E0C0000 		.4byte	.LLST94
 6755 18aa 0E       		.uleb128 0xe
 6756 18ab 62756600 		.ascii	"buf\000"
 6757 18af 01       		.byte	0x1
 6758 18b0 3C02     		.2byte	0x23c
 6759 18b2 19010000 		.4byte	0x119
 6760 18b6 05       		.uleb128 0x5
 6761 18b7 03       		.byte	0x3
 6762 18b8 20D70000 		.4byte	buf.7790
 6763 18bc 00       		.byte	0
 6764 18bd 0C       		.uleb128 0xc
 6765 18be A5000000 		.4byte	.LASF109
 6766 18c2 01       		.byte	0x1
 6767 18c3 4002     		.2byte	0x240
 6768 18c5 88000000 		.4byte	0x88
 6769 18c9 00000000 		.4byte	.LFB95
 6770 18cd 10000000 		.4byte	.LFE95-.LFB95
 6771 18d1 01       		.uleb128 0x1
 6772 18d2 9C       		.byte	0x9c
 6773 18d3 FA180000 		.4byte	0x18fa
 6774 18d7 0D       		.uleb128 0xd
 6775 18d8 6F090000 		.4byte	.LASF15
 6776 18dc 01       		.byte	0x1
 6777 18dd 4002     		.2byte	0x240
 6778 18df 88000000 		.4byte	0x88
ARM GAS  C:\Users\gjl\AppData\Local\Temp\ccNm9gHl.s 			page 140


 6779 18e3 3F0C0000 		.4byte	.LLST95
 6780 18e7 0E       		.uleb128 0xe
 6781 18e8 62756600 		.ascii	"buf\000"
 6782 18ec 01       		.byte	0x1
 6783 18ed 4202     		.2byte	0x242
 6784 18ef 22020000 		.4byte	0x222
 6785 18f3 05       		.uleb128 0x5
 6786 18f4 03       		.byte	0x3
 6787 18f5 20D80000 		.4byte	buf.7794
 6788 18f9 00       		.byte	0
 6789 18fa 0C       		.uleb128 0xc
 6790 18fb 7D020000 		.4byte	.LASF110
 6791 18ff 01       		.byte	0x1
 6792 1900 4602     		.2byte	0x246
 6793 1902 88000000 		.4byte	0x88
 6794 1906 00000000 		.4byte	.LFB96
 6795 190a 10000000 		.4byte	.LFE96-.LFB96
 6796 190e 01       		.uleb128 0x1
 6797 190f 9C       		.byte	0x9c
 6798 1910 37190000 		.4byte	0x1937
 6799 1914 0D       		.uleb128 0xd
 6800 1915 6F090000 		.4byte	.LASF15
 6801 1919 01       		.byte	0x1
 6802 191a 4602     		.2byte	0x246
 6803 191c 88000000 		.4byte	0x88
 6804 1920 600C0000 		.4byte	.LLST96
 6805 1924 0E       		.uleb128 0xe
 6806 1925 62756600 		.ascii	"buf\000"
 6807 1929 01       		.byte	0x1
 6808 192a 4802     		.2byte	0x248
 6809 192c 19010000 		.4byte	0x119
 6810 1930 05       		.uleb128 0x5
 6811 1931 03       		.byte	0x3
 6812 1932 20DC0000 		.4byte	buf.7798
 6813 1936 00       		.byte	0
 6814 1937 0C       		.uleb128 0xc
 6815 1938 91020000 		.4byte	.LASF111
 6816 193c 01       		.byte	0x1
 6817 193d 4C02     		.2byte	0x24c
 6818 193f 88000000 		.4byte	0x88
 6819 1943 00000000 		.4byte	.LFB97
 6820 1947 10000000 		.4byte	.LFE97-.LFB97
 6821 194b 01       		.uleb128 0x1
 6822 194c 9C       		.byte	0x9c
 6823 194d 74190000 		.4byte	0x1974
 6824 1951 0D       		.uleb128 0xd
 6825 1952 6F090000 		.4byte	.LASF15
 6826 1956 01       		.byte	0x1
 6827 1957 4C02     		.2byte	0x24c
 6828 1959 88000000 		.4byte	0x88
 6829 195d 810C0000 		.4byte	.LLST97
 6830 1961 0E       		.uleb128 0xe
 6831 1962 62756600 		.ascii	"buf\000"
 6832 1966 01       		.byte	0x1
 6833 1967 4E02     		.2byte	0x24e
 6834 1969 63010000 		.4byte	0x163
 6835 196d 05       		.uleb128 0x5
ARM GAS  C:\Users\gjl\AppData\Local\Temp\ccNm9gHl.s 			page 141


 6836 196e 03       		.byte	0x3
 6837 196f 20DD0000 		.4byte	buf.7802
 6838 1973 00       		.byte	0
 6839 1974 0C       		.uleb128 0xc
 6840 1975 92030000 		.4byte	.LASF112
 6841 1979 01       		.byte	0x1
 6842 197a 5202     		.2byte	0x252
 6843 197c 88000000 		.4byte	0x88
 6844 1980 00000000 		.4byte	.LFB98
 6845 1984 10000000 		.4byte	.LFE98-.LFB98
 6846 1988 01       		.uleb128 0x1
 6847 1989 9C       		.byte	0x9c
 6848 198a B1190000 		.4byte	0x19b1
 6849 198e 0D       		.uleb128 0xd
 6850 198f 6F090000 		.4byte	.LASF15
 6851 1993 01       		.byte	0x1
 6852 1994 5202     		.2byte	0x252
 6853 1996 88000000 		.4byte	0x88
 6854 199a A20C0000 		.4byte	.LLST98
 6855 199e 0E       		.uleb128 0xe
 6856 199f 62756600 		.ascii	"buf\000"
 6857 19a3 01       		.byte	0x1
 6858 19a4 5402     		.2byte	0x254
 6859 19a6 B4080000 		.4byte	0x8b4
 6860 19aa 05       		.uleb128 0x5
 6861 19ab 03       		.byte	0x3
 6862 19ac 20DF0000 		.4byte	buf.7806
 6863 19b0 00       		.byte	0
 6864 19b1 0C       		.uleb128 0xc
 6865 19b2 0B020000 		.4byte	.LASF113
 6866 19b6 01       		.byte	0x1
 6867 19b7 5802     		.2byte	0x258
 6868 19b9 88000000 		.4byte	0x88
 6869 19bd 00000000 		.4byte	.LFB99
 6870 19c1 10000000 		.4byte	.LFE99-.LFB99
 6871 19c5 01       		.uleb128 0x1
 6872 19c6 9C       		.byte	0x9c
 6873 19c7 EE190000 		.4byte	0x19ee
 6874 19cb 0D       		.uleb128 0xd
 6875 19cc 6F090000 		.4byte	.LASF15
 6876 19d0 01       		.byte	0x1
 6877 19d1 5802     		.2byte	0x258
 6878 19d3 88000000 		.4byte	0x88
 6879 19d7 C30C0000 		.4byte	.LLST99
 6880 19db 0E       		.uleb128 0xe
 6881 19dc 62756600 		.ascii	"buf\000"
 6882 19e0 01       		.byte	0x1
 6883 19e1 5A02     		.2byte	0x25a
 6884 19e3 D60A0000 		.4byte	0xad6
 6885 19e7 05       		.uleb128 0x5
 6886 19e8 03       		.byte	0x3
 6887 19e9 20E70000 		.4byte	buf.7810
 6888 19ed 00       		.byte	0
 6889 19ee 0C       		.uleb128 0xc
 6890 19ef 1F020000 		.4byte	.LASF114
 6891 19f3 01       		.byte	0x1
 6892 19f4 5E02     		.2byte	0x25e
ARM GAS  C:\Users\gjl\AppData\Local\Temp\ccNm9gHl.s 			page 142


 6893 19f6 88000000 		.4byte	0x88
 6894 19fa 00000000 		.4byte	.LFB100
 6895 19fe 10000000 		.4byte	.LFE100-.LFB100
 6896 1a02 01       		.uleb128 0x1
 6897 1a03 9C       		.byte	0x9c
 6898 1a04 2B1A0000 		.4byte	0x1a2b
 6899 1a08 0D       		.uleb128 0xd
 6900 1a09 6F090000 		.4byte	.LASF15
 6901 1a0d 01       		.byte	0x1
 6902 1a0e 5E02     		.2byte	0x25e
 6903 1a10 88000000 		.4byte	0x88
 6904 1a14 E40C0000 		.4byte	.LLST100
 6905 1a18 0E       		.uleb128 0xe
 6906 1a19 62756600 		.ascii	"buf\000"
 6907 1a1d 01       		.byte	0x1
 6908 1a1e 6002     		.2byte	0x260
 6909 1a20 2B1A0000 		.4byte	0x1a2b
 6910 1a24 05       		.uleb128 0x5
 6911 1a25 03       		.byte	0x3
 6912 1a26 D0E70000 		.4byte	buf.7814
 6913 1a2a 00       		.byte	0
 6914 1a2b 09       		.uleb128 0x9
 6915 1a2c 76000000 		.4byte	0x76
 6916 1a30 3C1A0000 		.4byte	0x1a3c
 6917 1a34 0B       		.uleb128 0xb
 6918 1a35 D8000000 		.4byte	0xd8
 6919 1a39 5F01     		.2byte	0x15f
 6920 1a3b 00       		.byte	0
 6921 1a3c 0C       		.uleb128 0xc
 6922 1a3d 21030000 		.4byte	.LASF115
 6923 1a41 01       		.byte	0x1
 6924 1a42 6402     		.2byte	0x264
 6925 1a44 88000000 		.4byte	0x88
 6926 1a48 00000000 		.4byte	.LFB101
 6927 1a4c 10000000 		.4byte	.LFE101-.LFB101
 6928 1a50 01       		.uleb128 0x1
 6929 1a51 9C       		.byte	0x9c
 6930 1a52 791A0000 		.4byte	0x1a79
 6931 1a56 0D       		.uleb128 0xd
 6932 1a57 6F090000 		.4byte	.LASF15
 6933 1a5b 01       		.byte	0x1
 6934 1a5c 6402     		.2byte	0x264
 6935 1a5e 88000000 		.4byte	0x88
 6936 1a62 050D0000 		.4byte	.LLST101
 6937 1a66 0E       		.uleb128 0xe
 6938 1a67 62756600 		.ascii	"buf\000"
 6939 1a6b 01       		.byte	0x1
 6940 1a6c 6602     		.2byte	0x266
 6941 1a6e 791A0000 		.4byte	0x1a79
 6942 1a72 05       		.uleb128 0x5
 6943 1a73 03       		.byte	0x3
 6944 1a74 30E90000 		.4byte	buf.7818
 6945 1a78 00       		.byte	0
 6946 1a79 09       		.uleb128 0x9
 6947 1a7a 76000000 		.4byte	0x76
 6948 1a7e 8A1A0000 		.4byte	0x1a8a
 6949 1a82 0B       		.uleb128 0xb
ARM GAS  C:\Users\gjl\AppData\Local\Temp\ccNm9gHl.s 			page 143


 6950 1a83 D8000000 		.4byte	0xd8
 6951 1a87 2F06     		.2byte	0x62f
 6952 1a89 00       		.byte	0
 6953 1a8a 0C       		.uleb128 0xc
 6954 1a8b 13000000 		.4byte	.LASF116
 6955 1a8f 01       		.byte	0x1
 6956 1a90 6A02     		.2byte	0x26a
 6957 1a92 88000000 		.4byte	0x88
 6958 1a96 00000000 		.4byte	.LFB102
 6959 1a9a 10000000 		.4byte	.LFE102-.LFB102
 6960 1a9e 01       		.uleb128 0x1
 6961 1a9f 9C       		.byte	0x9c
 6962 1aa0 C71A0000 		.4byte	0x1ac7
 6963 1aa4 0D       		.uleb128 0xd
 6964 1aa5 6F090000 		.4byte	.LASF15
 6965 1aa9 01       		.byte	0x1
 6966 1aaa 6A02     		.2byte	0x26a
 6967 1aac 88000000 		.4byte	0x88
 6968 1ab0 260D0000 		.4byte	.LLST102
 6969 1ab4 0E       		.uleb128 0xe
 6970 1ab5 62756600 		.ascii	"buf\000"
 6971 1ab9 01       		.byte	0x1
 6972 1aba 6C02     		.2byte	0x26c
 6973 1abc C71A0000 		.4byte	0x1ac7
 6974 1ac0 05       		.uleb128 0x5
 6975 1ac1 03       		.byte	0x3
 6976 1ac2 60EF0000 		.4byte	buf.7822
 6977 1ac6 00       		.byte	0
 6978 1ac7 09       		.uleb128 0x9
 6979 1ac8 76000000 		.4byte	0x76
 6980 1acc D71A0000 		.4byte	0x1ad7
 6981 1ad0 0A       		.uleb128 0xa
 6982 1ad1 D8000000 		.4byte	0xd8
 6983 1ad5 C7       		.byte	0xc7
 6984 1ad6 00       		.byte	0
 6985 1ad7 0C       		.uleb128 0xc
 6986 1ad8 27000000 		.4byte	.LASF117
 6987 1adc 01       		.byte	0x1
 6988 1add 7002     		.2byte	0x270
 6989 1adf 88000000 		.4byte	0x88
 6990 1ae3 00000000 		.4byte	.LFB103
 6991 1ae7 10000000 		.4byte	.LFE103-.LFB103
 6992 1aeb 01       		.uleb128 0x1
 6993 1aec 9C       		.byte	0x9c
 6994 1aed 141B0000 		.4byte	0x1b14
 6995 1af1 0D       		.uleb128 0xd
 6996 1af2 6F090000 		.4byte	.LASF15
 6997 1af6 01       		.byte	0x1
 6998 1af7 7002     		.2byte	0x270
 6999 1af9 88000000 		.4byte	0x88
 7000 1afd 470D0000 		.4byte	.LLST103
 7001 1b01 0E       		.uleb128 0xe
 7002 1b02 62756600 		.ascii	"buf\000"
 7003 1b06 01       		.byte	0x1
 7004 1b07 7202     		.2byte	0x272
 7005 1b09 141B0000 		.4byte	0x1b14
 7006 1b0d 05       		.uleb128 0x5
ARM GAS  C:\Users\gjl\AppData\Local\Temp\ccNm9gHl.s 			page 144


 7007 1b0e 03       		.byte	0x3
 7008 1b0f 28F00000 		.4byte	buf.7826
 7009 1b13 00       		.byte	0
 7010 1b14 09       		.uleb128 0x9
 7011 1b15 76000000 		.4byte	0x76
 7012 1b19 251B0000 		.4byte	0x1b25
 7013 1b1d 0B       		.uleb128 0xb
 7014 1b1e D8000000 		.4byte	0xd8
 7015 1b22 8F01     		.2byte	0x18f
 7016 1b24 00       		.byte	0
 7017 1b25 0C       		.uleb128 0xc
 7018 1b26 D1010000 		.4byte	.LASF118
 7019 1b2a 01       		.byte	0x1
 7020 1b2b 7602     		.2byte	0x276
 7021 1b2d 88000000 		.4byte	0x88
 7022 1b31 00000000 		.4byte	.LFB104
 7023 1b35 10000000 		.4byte	.LFE104-.LFB104
 7024 1b39 01       		.uleb128 0x1
 7025 1b3a 9C       		.byte	0x9c
 7026 1b3b 621B0000 		.4byte	0x1b62
 7027 1b3f 0D       		.uleb128 0xd
 7028 1b40 6F090000 		.4byte	.LASF15
 7029 1b44 01       		.byte	0x1
 7030 1b45 7602     		.2byte	0x276
 7031 1b47 88000000 		.4byte	0x88
 7032 1b4b 680D0000 		.4byte	.LLST104
 7033 1b4f 0E       		.uleb128 0xe
 7034 1b50 62756600 		.ascii	"buf\000"
 7035 1b54 01       		.byte	0x1
 7036 1b55 7802     		.2byte	0x278
 7037 1b57 621B0000 		.4byte	0x1b62
 7038 1b5b 05       		.uleb128 0x5
 7039 1b5c 03       		.byte	0x3
 7040 1b5d B8F10000 		.4byte	buf.7830
 7041 1b61 00       		.byte	0
 7042 1b62 09       		.uleb128 0x9
 7043 1b63 76000000 		.4byte	0x76
 7044 1b67 731B0000 		.4byte	0x1b73
 7045 1b6b 0B       		.uleb128 0xb
 7046 1b6c D8000000 		.4byte	0xd8
 7047 1b70 8713     		.2byte	0x1387
 7048 1b72 00       		.byte	0
 7049 1b73 0C       		.uleb128 0xc
 7050 1b74 3B000000 		.4byte	.LASF119
 7051 1b78 01       		.byte	0x1
 7052 1b79 7C02     		.2byte	0x27c
 7053 1b7b 88000000 		.4byte	0x88
 7054 1b7f 00000000 		.4byte	.LFB105
 7055 1b83 10000000 		.4byte	.LFE105-.LFB105
 7056 1b87 01       		.uleb128 0x1
 7057 1b88 9C       		.byte	0x9c
 7058 1b89 B01B0000 		.4byte	0x1bb0
 7059 1b8d 0D       		.uleb128 0xd
 7060 1b8e 6F090000 		.4byte	.LASF15
 7061 1b92 01       		.byte	0x1
 7062 1b93 7C02     		.2byte	0x27c
 7063 1b95 88000000 		.4byte	0x88
ARM GAS  C:\Users\gjl\AppData\Local\Temp\ccNm9gHl.s 			page 145


 7064 1b99 890D0000 		.4byte	.LLST105
 7065 1b9d 0E       		.uleb128 0xe
 7066 1b9e 62756600 		.ascii	"buf\000"
 7067 1ba2 01       		.byte	0x1
 7068 1ba3 7E02     		.2byte	0x27e
 7069 1ba5 FE0C0000 		.4byte	0xcfe
 7070 1ba9 05       		.uleb128 0x5
 7071 1baa 03       		.byte	0x3
 7072 1bab 40050100 		.4byte	buf.7834
 7073 1baf 00       		.byte	0
 7074 1bb0 0C       		.uleb128 0xc
 7075 1bb1 4F000000 		.4byte	.LASF120
 7076 1bb5 01       		.byte	0x1
 7077 1bb6 8202     		.2byte	0x282
 7078 1bb8 88000000 		.4byte	0x88
 7079 1bbc 00000000 		.4byte	.LFB106
 7080 1bc0 10000000 		.4byte	.LFE106-.LFB106
 7081 1bc4 01       		.uleb128 0x1
 7082 1bc5 9C       		.byte	0x9c
 7083 1bc6 ED1B0000 		.4byte	0x1bed
 7084 1bca 0D       		.uleb128 0xd
 7085 1bcb 6F090000 		.4byte	.LASF15
 7086 1bcf 01       		.byte	0x1
 7087 1bd0 8202     		.2byte	0x282
 7088 1bd2 88000000 		.4byte	0x88
 7089 1bd6 AA0D0000 		.4byte	.LLST106
 7090 1bda 0E       		.uleb128 0xe
 7091 1bdb 62756600 		.ascii	"buf\000"
 7092 1bdf 01       		.byte	0x1
 7093 1be0 8402     		.2byte	0x284
 7094 1be2 4B0D0000 		.4byte	0xd4b
 7095 1be6 05       		.uleb128 0x5
 7096 1be7 03       		.byte	0x3
 7097 1be8 30060100 		.4byte	buf.7838
 7098 1bec 00       		.byte	0
 7099 1bed 0C       		.uleb128 0xc
 7100 1bee E5010000 		.4byte	.LASF121
 7101 1bf2 01       		.byte	0x1
 7102 1bf3 8802     		.2byte	0x288
 7103 1bf5 88000000 		.4byte	0x88
 7104 1bf9 00000000 		.4byte	.LFB107
 7105 1bfd 10000000 		.4byte	.LFE107-.LFB107
 7106 1c01 01       		.uleb128 0x1
 7107 1c02 9C       		.byte	0x9c
 7108 1c03 2A1C0000 		.4byte	0x1c2a
 7109 1c07 0D       		.uleb128 0xd
 7110 1c08 6F090000 		.4byte	.LASF15
 7111 1c0c 01       		.byte	0x1
 7112 1c0d 8802     		.2byte	0x288
 7113 1c0f 88000000 		.4byte	0x88
 7114 1c13 CB0D0000 		.4byte	.LLST107
 7115 1c17 0E       		.uleb128 0xe
 7116 1c18 62756600 		.ascii	"buf\000"
 7117 1c1c 01       		.byte	0x1
 7118 1c1d 8A02     		.2byte	0x28a
 7119 1c1f C4160000 		.4byte	0x16c4
 7120 1c23 05       		.uleb128 0x5
ARM GAS  C:\Users\gjl\AppData\Local\Temp\ccNm9gHl.s 			page 146


 7121 1c24 03       		.byte	0x3
 7122 1c25 10080100 		.4byte	buf.7842
 7123 1c29 00       		.byte	0
 7124 1c2a 0C       		.uleb128 0xc
 7125 1c2b DE040000 		.4byte	.LASF122
 7126 1c2f 01       		.byte	0x1
 7127 1c30 8E02     		.2byte	0x28e
 7128 1c32 88000000 		.4byte	0x88
 7129 1c36 00000000 		.4byte	.LFB108
 7130 1c3a 10000000 		.4byte	.LFE108-.LFB108
 7131 1c3e 01       		.uleb128 0x1
 7132 1c3f 9C       		.byte	0x9c
 7133 1c40 671C0000 		.4byte	0x1c67
 7134 1c44 0D       		.uleb128 0xd
 7135 1c45 6F090000 		.4byte	.LASF15
 7136 1c49 01       		.byte	0x1
 7137 1c4a 8E02     		.2byte	0x28e
 7138 1c4c 88000000 		.4byte	0x88
 7139 1c50 EC0D0000 		.4byte	.LLST108
 7140 1c54 0E       		.uleb128 0xe
 7141 1c55 62756600 		.ascii	"buf\000"
 7142 1c59 01       		.byte	0x1
 7143 1c5a 9002     		.2byte	0x290
 7144 1c5c FE0C0000 		.4byte	0xcfe
 7145 1c60 05       		.uleb128 0x5
 7146 1c61 03       		.byte	0x3
 7147 1c62 10170100 		.4byte	buf.7846
 7148 1c66 00       		.byte	0
 7149 1c67 0C       		.uleb128 0xc
 7150 1c68 F1040000 		.4byte	.LASF123
 7151 1c6c 01       		.byte	0x1
 7152 1c6d 9402     		.2byte	0x294
 7153 1c6f 88000000 		.4byte	0x88
 7154 1c73 00000000 		.4byte	.LFB109
 7155 1c77 0C000000 		.4byte	.LFE109-.LFB109
 7156 1c7b 01       		.uleb128 0x1
 7157 1c7c 9C       		.byte	0x9c
 7158 1c7d A41C0000 		.4byte	0x1ca4
 7159 1c81 0D       		.uleb128 0xd
 7160 1c82 6F090000 		.4byte	.LASF15
 7161 1c86 01       		.byte	0x1
 7162 1c87 9402     		.2byte	0x294
 7163 1c89 88000000 		.4byte	0x88
 7164 1c8d 0D0E0000 		.4byte	.LLST109
 7165 1c91 0E       		.uleb128 0xe
 7166 1c92 62756600 		.ascii	"buf\000"
 7167 1c96 01       		.byte	0x1
 7168 1c97 9602     		.2byte	0x296
 7169 1c99 4B0D0000 		.4byte	0xd4b
 7170 1c9d 05       		.uleb128 0x5
 7171 1c9e 03       		.byte	0x3
 7172 1c9f 00180100 		.4byte	buf.7850
 7173 1ca3 00       		.byte	0
 7174 1ca4 0C       		.uleb128 0xc
 7175 1ca5 08090000 		.4byte	.LASF124
 7176 1ca9 01       		.byte	0x1
 7177 1caa 9A02     		.2byte	0x29a
ARM GAS  C:\Users\gjl\AppData\Local\Temp\ccNm9gHl.s 			page 147


 7178 1cac 88000000 		.4byte	0x88
 7179 1cb0 00000000 		.4byte	.LFB110
 7180 1cb4 10000000 		.4byte	.LFE110-.LFB110
 7181 1cb8 01       		.uleb128 0x1
 7182 1cb9 9C       		.byte	0x9c
 7183 1cba E11C0000 		.4byte	0x1ce1
 7184 1cbe 0D       		.uleb128 0xd
 7185 1cbf 6F090000 		.4byte	.LASF15
 7186 1cc3 01       		.byte	0x1
 7187 1cc4 9A02     		.2byte	0x29a
 7188 1cc6 88000000 		.4byte	0x88
 7189 1cca 2E0E0000 		.4byte	.LLST110
 7190 1cce 0E       		.uleb128 0xe
 7191 1ccf 62756600 		.ascii	"buf\000"
 7192 1cd3 01       		.byte	0x1
 7193 1cd4 9C02     		.2byte	0x29c
 7194 1cd6 C4160000 		.4byte	0x16c4
 7195 1cda 05       		.uleb128 0x5
 7196 1cdb 03       		.byte	0x3
 7197 1cdc E0190100 		.4byte	buf.7854
 7198 1ce0 00       		.byte	0
 7199 1ce1 0C       		.uleb128 0xc
 7200 1ce2 28060000 		.4byte	.LASF125
 7201 1ce6 01       		.byte	0x1
 7202 1ce7 A002     		.2byte	0x2a0
 7203 1ce9 88000000 		.4byte	0x88
 7204 1ced 00000000 		.4byte	.LFB111
 7205 1cf1 10000000 		.4byte	.LFE111-.LFB111
 7206 1cf5 01       		.uleb128 0x1
 7207 1cf6 9C       		.byte	0x9c
 7208 1cf7 1E1D0000 		.4byte	0x1d1e
 7209 1cfb 0D       		.uleb128 0xd
 7210 1cfc 6F090000 		.4byte	.LASF15
 7211 1d00 01       		.byte	0x1
 7212 1d01 A002     		.2byte	0x2a0
 7213 1d03 88000000 		.4byte	0x88
 7214 1d07 4F0E0000 		.4byte	.LLST111
 7215 1d0b 0E       		.uleb128 0xe
 7216 1d0c 62756600 		.ascii	"buf\000"
 7217 1d10 01       		.byte	0x1
 7218 1d11 A202     		.2byte	0x2a2
 7219 1d13 9F030000 		.4byte	0x39f
 7220 1d17 05       		.uleb128 0x5
 7221 1d18 03       		.byte	0x3
 7222 1d19 E0280100 		.4byte	buf.7858
 7223 1d1d 00       		.byte	0
 7224 1d1e 0C       		.uleb128 0xc
 7225 1d1f 3E060000 		.4byte	.LASF126
 7226 1d23 01       		.byte	0x1
 7227 1d24 A602     		.2byte	0x2a6
 7228 1d26 88000000 		.4byte	0x88
 7229 1d2a 00000000 		.4byte	.LFB112
 7230 1d2e 10000000 		.4byte	.LFE112-.LFB112
 7231 1d32 01       		.uleb128 0x1
 7232 1d33 9C       		.byte	0x9c
 7233 1d34 5B1D0000 		.4byte	0x1d5b
 7234 1d38 0D       		.uleb128 0xd
ARM GAS  C:\Users\gjl\AppData\Local\Temp\ccNm9gHl.s 			page 148


 7235 1d39 6F090000 		.4byte	.LASF15
 7236 1d3d 01       		.byte	0x1
 7237 1d3e A602     		.2byte	0x2a6
 7238 1d40 88000000 		.4byte	0x88
 7239 1d44 700E0000 		.4byte	.LLST112
 7240 1d48 0E       		.uleb128 0xe
 7241 1d49 62756600 		.ascii	"buf\000"
 7242 1d4d 01       		.byte	0x1
 7243 1d4e A802     		.2byte	0x2a8
 7244 1d50 47070000 		.4byte	0x747
 7245 1d54 05       		.uleb128 0x5
 7246 1d55 03       		.byte	0x3
 7247 1d56 602A0100 		.4byte	buf.7862
 7248 1d5a 00       		.byte	0
 7249 1d5b 0C       		.uleb128 0xc
 7250 1d5c 78090000 		.4byte	.LASF127
 7251 1d60 01       		.byte	0x1
 7252 1d61 AC02     		.2byte	0x2ac
 7253 1d63 88000000 		.4byte	0x88
 7254 1d67 00000000 		.4byte	.LFB113
 7255 1d6b 10000000 		.4byte	.LFE113-.LFB113
 7256 1d6f 01       		.uleb128 0x1
 7257 1d70 9C       		.byte	0x9c
 7258 1d71 981D0000 		.4byte	0x1d98
 7259 1d75 0D       		.uleb128 0xd
 7260 1d76 6F090000 		.4byte	.LASF15
 7261 1d7a 01       		.byte	0x1
 7262 1d7b AC02     		.2byte	0x2ac
 7263 1d7d 88000000 		.4byte	0x88
 7264 1d81 910E0000 		.4byte	.LLST113
 7265 1d85 0E       		.uleb128 0xe
 7266 1d86 62756600 		.ascii	"buf\000"
 7267 1d8a 01       		.byte	0x1
 7268 1d8b AE02     		.2byte	0x2ae
 7269 1d8d 981D0000 		.4byte	0x1d98
 7270 1d91 05       		.uleb128 0x5
 7271 1d92 03       		.byte	0x3
 7272 1d93 602D0100 		.4byte	buf.7866
 7273 1d97 00       		.byte	0
 7274 1d98 0F       		.uleb128 0xf
 7275 1d99 76000000 		.4byte	0x76
 7276 1d9d 0B       		.uleb128 0xb
 7277 1d9e D8000000 		.4byte	0xd8
 7278 1da2 FF2C     		.2byte	0x2cff
 7279 1da4 00       		.byte	0
 7280 1da5 00       		.byte	0
 7281              		.section	.debug_abbrev,"",%progbits
 7282              	.Ldebug_abbrev0:
 7283 0000 01       		.uleb128 0x1
 7284 0001 11       		.uleb128 0x11
 7285 0002 01       		.byte	0x1
 7286 0003 25       		.uleb128 0x25
 7287 0004 0E       		.uleb128 0xe
 7288 0005 13       		.uleb128 0x13
 7289 0006 0B       		.uleb128 0xb
 7290 0007 03       		.uleb128 0x3
 7291 0008 0E       		.uleb128 0xe
ARM GAS  C:\Users\gjl\AppData\Local\Temp\ccNm9gHl.s 			page 149


 7292 0009 1B       		.uleb128 0x1b
 7293 000a 0E       		.uleb128 0xe
 7294 000b 55       		.uleb128 0x55
 7295 000c 17       		.uleb128 0x17
 7296 000d 11       		.uleb128 0x11
 7297 000e 01       		.uleb128 0x1
 7298 000f 10       		.uleb128 0x10
 7299 0010 17       		.uleb128 0x17
 7300 0011 00       		.byte	0
 7301 0012 00       		.byte	0
 7302 0013 02       		.uleb128 0x2
 7303 0014 24       		.uleb128 0x24
 7304 0015 00       		.byte	0
 7305 0016 0B       		.uleb128 0xb
 7306 0017 0B       		.uleb128 0xb
 7307 0018 3E       		.uleb128 0x3e
 7308 0019 0B       		.uleb128 0xb
 7309 001a 03       		.uleb128 0x3
 7310 001b 0E       		.uleb128 0xe
 7311 001c 00       		.byte	0
 7312 001d 00       		.byte	0
 7313 001e 03       		.uleb128 0x3
 7314 001f 16       		.uleb128 0x16
 7315 0020 00       		.byte	0
 7316 0021 03       		.uleb128 0x3
 7317 0022 0E       		.uleb128 0xe
 7318 0023 3A       		.uleb128 0x3a
 7319 0024 0B       		.uleb128 0xb
 7320 0025 3B       		.uleb128 0x3b
 7321 0026 0B       		.uleb128 0xb
 7322 0027 49       		.uleb128 0x49
 7323 0028 13       		.uleb128 0x13
 7324 0029 00       		.byte	0
 7325 002a 00       		.byte	0
 7326 002b 04       		.uleb128 0x4
 7327 002c 24       		.uleb128 0x24
 7328 002d 00       		.byte	0
 7329 002e 0B       		.uleb128 0xb
 7330 002f 0B       		.uleb128 0xb
 7331 0030 3E       		.uleb128 0x3e
 7332 0031 0B       		.uleb128 0xb
 7333 0032 03       		.uleb128 0x3
 7334 0033 08       		.uleb128 0x8
 7335 0034 00       		.byte	0
 7336 0035 00       		.byte	0
 7337 0036 05       		.uleb128 0x5
 7338 0037 0F       		.uleb128 0xf
 7339 0038 00       		.byte	0
 7340 0039 0B       		.uleb128 0xb
 7341 003a 0B       		.uleb128 0xb
 7342 003b 49       		.uleb128 0x49
 7343 003c 13       		.uleb128 0x13
 7344 003d 00       		.byte	0
 7345 003e 00       		.byte	0
 7346 003f 06       		.uleb128 0x6
 7347 0040 2E       		.uleb128 0x2e
 7348 0041 01       		.byte	0x1
ARM GAS  C:\Users\gjl\AppData\Local\Temp\ccNm9gHl.s 			page 150


 7349 0042 3F       		.uleb128 0x3f
 7350 0043 19       		.uleb128 0x19
 7351 0044 03       		.uleb128 0x3
 7352 0045 0E       		.uleb128 0xe
 7353 0046 3A       		.uleb128 0x3a
 7354 0047 0B       		.uleb128 0xb
 7355 0048 3B       		.uleb128 0x3b
 7356 0049 0B       		.uleb128 0xb
 7357 004a 27       		.uleb128 0x27
 7358 004b 19       		.uleb128 0x19
 7359 004c 49       		.uleb128 0x49
 7360 004d 13       		.uleb128 0x13
 7361 004e 11       		.uleb128 0x11
 7362 004f 01       		.uleb128 0x1
 7363 0050 12       		.uleb128 0x12
 7364 0051 06       		.uleb128 0x6
 7365 0052 40       		.uleb128 0x40
 7366 0053 18       		.uleb128 0x18
 7367 0054 9742     		.uleb128 0x2117
 7368 0056 19       		.uleb128 0x19
 7369 0057 01       		.uleb128 0x1
 7370 0058 13       		.uleb128 0x13
 7371 0059 00       		.byte	0
 7372 005a 00       		.byte	0
 7373 005b 07       		.uleb128 0x7
 7374 005c 05       		.uleb128 0x5
 7375 005d 00       		.byte	0
 7376 005e 03       		.uleb128 0x3
 7377 005f 0E       		.uleb128 0xe
 7378 0060 3A       		.uleb128 0x3a
 7379 0061 0B       		.uleb128 0xb
 7380 0062 3B       		.uleb128 0x3b
 7381 0063 0B       		.uleb128 0xb
 7382 0064 49       		.uleb128 0x49
 7383 0065 13       		.uleb128 0x13
 7384 0066 02       		.uleb128 0x2
 7385 0067 17       		.uleb128 0x17
 7386 0068 00       		.byte	0
 7387 0069 00       		.byte	0
 7388 006a 08       		.uleb128 0x8
 7389 006b 34       		.uleb128 0x34
 7390 006c 00       		.byte	0
 7391 006d 03       		.uleb128 0x3
 7392 006e 08       		.uleb128 0x8
 7393 006f 3A       		.uleb128 0x3a
 7394 0070 0B       		.uleb128 0xb
 7395 0071 3B       		.uleb128 0x3b
 7396 0072 0B       		.uleb128 0xb
 7397 0073 49       		.uleb128 0x49
 7398 0074 13       		.uleb128 0x13
 7399 0075 02       		.uleb128 0x2
 7400 0076 18       		.uleb128 0x18
 7401 0077 00       		.byte	0
 7402 0078 00       		.byte	0
 7403 0079 09       		.uleb128 0x9
 7404 007a 01       		.uleb128 0x1
 7405 007b 01       		.byte	0x1
ARM GAS  C:\Users\gjl\AppData\Local\Temp\ccNm9gHl.s 			page 151


 7406 007c 49       		.uleb128 0x49
 7407 007d 13       		.uleb128 0x13
 7408 007e 01       		.uleb128 0x1
 7409 007f 13       		.uleb128 0x13
 7410 0080 00       		.byte	0
 7411 0081 00       		.byte	0
 7412 0082 0A       		.uleb128 0xa
 7413 0083 21       		.uleb128 0x21
 7414 0084 00       		.byte	0
 7415 0085 49       		.uleb128 0x49
 7416 0086 13       		.uleb128 0x13
 7417 0087 2F       		.uleb128 0x2f
 7418 0088 0B       		.uleb128 0xb
 7419 0089 00       		.byte	0
 7420 008a 00       		.byte	0
 7421 008b 0B       		.uleb128 0xb
 7422 008c 21       		.uleb128 0x21
 7423 008d 00       		.byte	0
 7424 008e 49       		.uleb128 0x49
 7425 008f 13       		.uleb128 0x13
 7426 0090 2F       		.uleb128 0x2f
 7427 0091 05       		.uleb128 0x5
 7428 0092 00       		.byte	0
 7429 0093 00       		.byte	0
 7430 0094 0C       		.uleb128 0xc
 7431 0095 2E       		.uleb128 0x2e
 7432 0096 01       		.byte	0x1
 7433 0097 3F       		.uleb128 0x3f
 7434 0098 19       		.uleb128 0x19
 7435 0099 03       		.uleb128 0x3
 7436 009a 0E       		.uleb128 0xe
 7437 009b 3A       		.uleb128 0x3a
 7438 009c 0B       		.uleb128 0xb
 7439 009d 3B       		.uleb128 0x3b
 7440 009e 05       		.uleb128 0x5
 7441 009f 27       		.uleb128 0x27
 7442 00a0 19       		.uleb128 0x19
 7443 00a1 49       		.uleb128 0x49
 7444 00a2 13       		.uleb128 0x13
 7445 00a3 11       		.uleb128 0x11
 7446 00a4 01       		.uleb128 0x1
 7447 00a5 12       		.uleb128 0x12
 7448 00a6 06       		.uleb128 0x6
 7449 00a7 40       		.uleb128 0x40
 7450 00a8 18       		.uleb128 0x18
 7451 00a9 9742     		.uleb128 0x2117
 7452 00ab 19       		.uleb128 0x19
 7453 00ac 01       		.uleb128 0x1
 7454 00ad 13       		.uleb128 0x13
 7455 00ae 00       		.byte	0
 7456 00af 00       		.byte	0
 7457 00b0 0D       		.uleb128 0xd
 7458 00b1 05       		.uleb128 0x5
 7459 00b2 00       		.byte	0
 7460 00b3 03       		.uleb128 0x3
 7461 00b4 0E       		.uleb128 0xe
 7462 00b5 3A       		.uleb128 0x3a
ARM GAS  C:\Users\gjl\AppData\Local\Temp\ccNm9gHl.s 			page 152


 7463 00b6 0B       		.uleb128 0xb
 7464 00b7 3B       		.uleb128 0x3b
 7465 00b8 05       		.uleb128 0x5
 7466 00b9 49       		.uleb128 0x49
 7467 00ba 13       		.uleb128 0x13
 7468 00bb 02       		.uleb128 0x2
 7469 00bc 17       		.uleb128 0x17
 7470 00bd 00       		.byte	0
 7471 00be 00       		.byte	0
 7472 00bf 0E       		.uleb128 0xe
 7473 00c0 34       		.uleb128 0x34
 7474 00c1 00       		.byte	0
 7475 00c2 03       		.uleb128 0x3
 7476 00c3 08       		.uleb128 0x8
 7477 00c4 3A       		.uleb128 0x3a
 7478 00c5 0B       		.uleb128 0xb
 7479 00c6 3B       		.uleb128 0x3b
 7480 00c7 05       		.uleb128 0x5
 7481 00c8 49       		.uleb128 0x49
 7482 00c9 13       		.uleb128 0x13
 7483 00ca 02       		.uleb128 0x2
 7484 00cb 18       		.uleb128 0x18
 7485 00cc 00       		.byte	0
 7486 00cd 00       		.byte	0
 7487 00ce 0F       		.uleb128 0xf
 7488 00cf 01       		.uleb128 0x1
 7489 00d0 01       		.byte	0x1
 7490 00d1 49       		.uleb128 0x49
 7491 00d2 13       		.uleb128 0x13
 7492 00d3 00       		.byte	0
 7493 00d4 00       		.byte	0
 7494 00d5 00       		.byte	0
 7495              		.section	.debug_loc,"",%progbits
 7496              	.Ldebug_loc0:
 7497              	.LLST0:
 7498 0000 00000000 		.4byte	.LVL0
 7499 0004 06000000 		.4byte	.LVL1
 7500 0008 0100     		.2byte	0x1
 7501 000a 50       		.byte	0x50
 7502 000b 06000000 		.4byte	.LVL1
 7503 000f 0C000000 		.4byte	.LFE0
 7504 0013 0400     		.2byte	0x4
 7505 0015 F3       		.byte	0xf3
 7506 0016 01       		.uleb128 0x1
 7507 0017 50       		.byte	0x50
 7508 0018 9F       		.byte	0x9f
 7509 0019 00000000 		.4byte	0
 7510 001d 00000000 		.4byte	0
 7511              	.LLST1:
 7512 0021 00000000 		.4byte	.LVL2
 7513 0025 06000000 		.4byte	.LVL3
 7514 0029 0100     		.2byte	0x1
 7515 002b 50       		.byte	0x50
 7516 002c 06000000 		.4byte	.LVL3
 7517 0030 0C000000 		.4byte	.LFE1
 7518 0034 0400     		.2byte	0x4
 7519 0036 F3       		.byte	0xf3
ARM GAS  C:\Users\gjl\AppData\Local\Temp\ccNm9gHl.s 			page 153


 7520 0037 01       		.uleb128 0x1
 7521 0038 50       		.byte	0x50
 7522 0039 9F       		.byte	0x9f
 7523 003a 00000000 		.4byte	0
 7524 003e 00000000 		.4byte	0
 7525              	.LLST2:
 7526 0042 00000000 		.4byte	.LVL4
 7527 0046 06000000 		.4byte	.LVL5
 7528 004a 0100     		.2byte	0x1
 7529 004c 50       		.byte	0x50
 7530 004d 06000000 		.4byte	.LVL5
 7531 0051 0C000000 		.4byte	.LFE2
 7532 0055 0400     		.2byte	0x4
 7533 0057 F3       		.byte	0xf3
 7534 0058 01       		.uleb128 0x1
 7535 0059 50       		.byte	0x50
 7536 005a 9F       		.byte	0x9f
 7537 005b 00000000 		.4byte	0
 7538 005f 00000000 		.4byte	0
 7539              	.LLST3:
 7540 0063 00000000 		.4byte	.LVL6
 7541 0067 06000000 		.4byte	.LVL7
 7542 006b 0100     		.2byte	0x1
 7543 006d 50       		.byte	0x50
 7544 006e 06000000 		.4byte	.LVL7
 7545 0072 0C000000 		.4byte	.LFE3
 7546 0076 0400     		.2byte	0x4
 7547 0078 F3       		.byte	0xf3
 7548 0079 01       		.uleb128 0x1
 7549 007a 50       		.byte	0x50
 7550 007b 9F       		.byte	0x9f
 7551 007c 00000000 		.4byte	0
 7552 0080 00000000 		.4byte	0
 7553              	.LLST4:
 7554 0084 00000000 		.4byte	.LVL8
 7555 0088 06000000 		.4byte	.LVL9
 7556 008c 0100     		.2byte	0x1
 7557 008e 50       		.byte	0x50
 7558 008f 06000000 		.4byte	.LVL9
 7559 0093 0C000000 		.4byte	.LFE4
 7560 0097 0400     		.2byte	0x4
 7561 0099 F3       		.byte	0xf3
 7562 009a 01       		.uleb128 0x1
 7563 009b 50       		.byte	0x50
 7564 009c 9F       		.byte	0x9f
 7565 009d 00000000 		.4byte	0
 7566 00a1 00000000 		.4byte	0
 7567              	.LLST5:
 7568 00a5 00000000 		.4byte	.LVL10
 7569 00a9 06000000 		.4byte	.LVL11
 7570 00ad 0100     		.2byte	0x1
 7571 00af 50       		.byte	0x50
 7572 00b0 06000000 		.4byte	.LVL11
 7573 00b4 0C000000 		.4byte	.LFE5
 7574 00b8 0400     		.2byte	0x4
 7575 00ba F3       		.byte	0xf3
 7576 00bb 01       		.uleb128 0x1
ARM GAS  C:\Users\gjl\AppData\Local\Temp\ccNm9gHl.s 			page 154


 7577 00bc 50       		.byte	0x50
 7578 00bd 9F       		.byte	0x9f
 7579 00be 00000000 		.4byte	0
 7580 00c2 00000000 		.4byte	0
 7581              	.LLST6:
 7582 00c6 00000000 		.4byte	.LVL12
 7583 00ca 06000000 		.4byte	.LVL13
 7584 00ce 0100     		.2byte	0x1
 7585 00d0 50       		.byte	0x50
 7586 00d1 06000000 		.4byte	.LVL13
 7587 00d5 0C000000 		.4byte	.LFE6
 7588 00d9 0400     		.2byte	0x4
 7589 00db F3       		.byte	0xf3
 7590 00dc 01       		.uleb128 0x1
 7591 00dd 50       		.byte	0x50
 7592 00de 9F       		.byte	0x9f
 7593 00df 00000000 		.4byte	0
 7594 00e3 00000000 		.4byte	0
 7595              	.LLST7:
 7596 00e7 00000000 		.4byte	.LVL14
 7597 00eb 06000000 		.4byte	.LVL15
 7598 00ef 0100     		.2byte	0x1
 7599 00f1 50       		.byte	0x50
 7600 00f2 06000000 		.4byte	.LVL15
 7601 00f6 0C000000 		.4byte	.LFE7
 7602 00fa 0400     		.2byte	0x4
 7603 00fc F3       		.byte	0xf3
 7604 00fd 01       		.uleb128 0x1
 7605 00fe 50       		.byte	0x50
 7606 00ff 9F       		.byte	0x9f
 7607 0100 00000000 		.4byte	0
 7608 0104 00000000 		.4byte	0
 7609              	.LLST8:
 7610 0108 00000000 		.4byte	.LVL16
 7611 010c 06000000 		.4byte	.LVL17
 7612 0110 0100     		.2byte	0x1
 7613 0112 50       		.byte	0x50
 7614 0113 06000000 		.4byte	.LVL17
 7615 0117 0C000000 		.4byte	.LFE8
 7616 011b 0400     		.2byte	0x4
 7617 011d F3       		.byte	0xf3
 7618 011e 01       		.uleb128 0x1
 7619 011f 50       		.byte	0x50
 7620 0120 9F       		.byte	0x9f
 7621 0121 00000000 		.4byte	0
 7622 0125 00000000 		.4byte	0
 7623              	.LLST9:
 7624 0129 00000000 		.4byte	.LVL18
 7625 012d 06000000 		.4byte	.LVL19
 7626 0131 0100     		.2byte	0x1
 7627 0133 50       		.byte	0x50
 7628 0134 06000000 		.4byte	.LVL19
 7629 0138 0C000000 		.4byte	.LFE9
 7630 013c 0400     		.2byte	0x4
 7631 013e F3       		.byte	0xf3
 7632 013f 01       		.uleb128 0x1
 7633 0140 50       		.byte	0x50
ARM GAS  C:\Users\gjl\AppData\Local\Temp\ccNm9gHl.s 			page 155


 7634 0141 9F       		.byte	0x9f
 7635 0142 00000000 		.4byte	0
 7636 0146 00000000 		.4byte	0
 7637              	.LLST10:
 7638 014a 00000000 		.4byte	.LVL20
 7639 014e 06000000 		.4byte	.LVL21
 7640 0152 0100     		.2byte	0x1
 7641 0154 50       		.byte	0x50
 7642 0155 06000000 		.4byte	.LVL21
 7643 0159 10000000 		.4byte	.LFE10
 7644 015d 0400     		.2byte	0x4
 7645 015f F3       		.byte	0xf3
 7646 0160 01       		.uleb128 0x1
 7647 0161 50       		.byte	0x50
 7648 0162 9F       		.byte	0x9f
 7649 0163 00000000 		.4byte	0
 7650 0167 00000000 		.4byte	0
 7651              	.LLST11:
 7652 016b 00000000 		.4byte	.LVL22
 7653 016f 06000000 		.4byte	.LVL23
 7654 0173 0100     		.2byte	0x1
 7655 0175 50       		.byte	0x50
 7656 0176 06000000 		.4byte	.LVL23
 7657 017a 10000000 		.4byte	.LFE11
 7658 017e 0400     		.2byte	0x4
 7659 0180 F3       		.byte	0xf3
 7660 0181 01       		.uleb128 0x1
 7661 0182 50       		.byte	0x50
 7662 0183 9F       		.byte	0x9f
 7663 0184 00000000 		.4byte	0
 7664 0188 00000000 		.4byte	0
 7665              	.LLST12:
 7666 018c 00000000 		.4byte	.LVL24
 7667 0190 06000000 		.4byte	.LVL25
 7668 0194 0100     		.2byte	0x1
 7669 0196 50       		.byte	0x50
 7670 0197 06000000 		.4byte	.LVL25
 7671 019b 10000000 		.4byte	.LFE12
 7672 019f 0400     		.2byte	0x4
 7673 01a1 F3       		.byte	0xf3
 7674 01a2 01       		.uleb128 0x1
 7675 01a3 50       		.byte	0x50
 7676 01a4 9F       		.byte	0x9f
 7677 01a5 00000000 		.4byte	0
 7678 01a9 00000000 		.4byte	0
 7679              	.LLST13:
 7680 01ad 00000000 		.4byte	.LVL26
 7681 01b1 06000000 		.4byte	.LVL27
 7682 01b5 0100     		.2byte	0x1
 7683 01b7 50       		.byte	0x50
 7684 01b8 06000000 		.4byte	.LVL27
 7685 01bc 10000000 		.4byte	.LFE13
 7686 01c0 0400     		.2byte	0x4
 7687 01c2 F3       		.byte	0xf3
 7688 01c3 01       		.uleb128 0x1
 7689 01c4 50       		.byte	0x50
 7690 01c5 9F       		.byte	0x9f
ARM GAS  C:\Users\gjl\AppData\Local\Temp\ccNm9gHl.s 			page 156


 7691 01c6 00000000 		.4byte	0
 7692 01ca 00000000 		.4byte	0
 7693              	.LLST14:
 7694 01ce 00000000 		.4byte	.LVL28
 7695 01d2 06000000 		.4byte	.LVL29
 7696 01d6 0100     		.2byte	0x1
 7697 01d8 50       		.byte	0x50
 7698 01d9 06000000 		.4byte	.LVL29
 7699 01dd 10000000 		.4byte	.LFE14
 7700 01e1 0400     		.2byte	0x4
 7701 01e3 F3       		.byte	0xf3
 7702 01e4 01       		.uleb128 0x1
 7703 01e5 50       		.byte	0x50
 7704 01e6 9F       		.byte	0x9f
 7705 01e7 00000000 		.4byte	0
 7706 01eb 00000000 		.4byte	0
 7707              	.LLST15:
 7708 01ef 00000000 		.4byte	.LVL30
 7709 01f3 06000000 		.4byte	.LVL31
 7710 01f7 0100     		.2byte	0x1
 7711 01f9 50       		.byte	0x50
 7712 01fa 06000000 		.4byte	.LVL31
 7713 01fe 10000000 		.4byte	.LFE15
 7714 0202 0400     		.2byte	0x4
 7715 0204 F3       		.byte	0xf3
 7716 0205 01       		.uleb128 0x1
 7717 0206 50       		.byte	0x50
 7718 0207 9F       		.byte	0x9f
 7719 0208 00000000 		.4byte	0
 7720 020c 00000000 		.4byte	0
 7721              	.LLST16:
 7722 0210 00000000 		.4byte	.LVL32
 7723 0214 06000000 		.4byte	.LVL33
 7724 0218 0100     		.2byte	0x1
 7725 021a 50       		.byte	0x50
 7726 021b 06000000 		.4byte	.LVL33
 7727 021f 10000000 		.4byte	.LFE16
 7728 0223 0400     		.2byte	0x4
 7729 0225 F3       		.byte	0xf3
 7730 0226 01       		.uleb128 0x1
 7731 0227 50       		.byte	0x50
 7732 0228 9F       		.byte	0x9f
 7733 0229 00000000 		.4byte	0
 7734 022d 00000000 		.4byte	0
 7735              	.LLST17:
 7736 0231 00000000 		.4byte	.LVL34
 7737 0235 06000000 		.4byte	.LVL35
 7738 0239 0100     		.2byte	0x1
 7739 023b 50       		.byte	0x50
 7740 023c 06000000 		.4byte	.LVL35
 7741 0240 10000000 		.4byte	.LFE17
 7742 0244 0400     		.2byte	0x4
 7743 0246 F3       		.byte	0xf3
 7744 0247 01       		.uleb128 0x1
 7745 0248 50       		.byte	0x50
 7746 0249 9F       		.byte	0x9f
 7747 024a 00000000 		.4byte	0
ARM GAS  C:\Users\gjl\AppData\Local\Temp\ccNm9gHl.s 			page 157


 7748 024e 00000000 		.4byte	0
 7749              	.LLST18:
 7750 0252 00000000 		.4byte	.LVL36
 7751 0256 06000000 		.4byte	.LVL37
 7752 025a 0100     		.2byte	0x1
 7753 025c 50       		.byte	0x50
 7754 025d 06000000 		.4byte	.LVL37
 7755 0261 10000000 		.4byte	.LFE18
 7756 0265 0400     		.2byte	0x4
 7757 0267 F3       		.byte	0xf3
 7758 0268 01       		.uleb128 0x1
 7759 0269 50       		.byte	0x50
 7760 026a 9F       		.byte	0x9f
 7761 026b 00000000 		.4byte	0
 7762 026f 00000000 		.4byte	0
 7763              	.LLST19:
 7764 0273 00000000 		.4byte	.LVL38
 7765 0277 06000000 		.4byte	.LVL39
 7766 027b 0100     		.2byte	0x1
 7767 027d 50       		.byte	0x50
 7768 027e 06000000 		.4byte	.LVL39
 7769 0282 10000000 		.4byte	.LFE19
 7770 0286 0400     		.2byte	0x4
 7771 0288 F3       		.byte	0xf3
 7772 0289 01       		.uleb128 0x1
 7773 028a 50       		.byte	0x50
 7774 028b 9F       		.byte	0x9f
 7775 028c 00000000 		.4byte	0
 7776 0290 00000000 		.4byte	0
 7777              	.LLST20:
 7778 0294 00000000 		.4byte	.LVL40
 7779 0298 06000000 		.4byte	.LVL41
 7780 029c 0100     		.2byte	0x1
 7781 029e 50       		.byte	0x50
 7782 029f 06000000 		.4byte	.LVL41
 7783 02a3 10000000 		.4byte	.LFE20
 7784 02a7 0400     		.2byte	0x4
 7785 02a9 F3       		.byte	0xf3
 7786 02aa 01       		.uleb128 0x1
 7787 02ab 50       		.byte	0x50
 7788 02ac 9F       		.byte	0x9f
 7789 02ad 00000000 		.4byte	0
 7790 02b1 00000000 		.4byte	0
 7791              	.LLST21:
 7792 02b5 00000000 		.4byte	.LVL42
 7793 02b9 06000000 		.4byte	.LVL43
 7794 02bd 0100     		.2byte	0x1
 7795 02bf 50       		.byte	0x50
 7796 02c0 06000000 		.4byte	.LVL43
 7797 02c4 10000000 		.4byte	.LFE21
 7798 02c8 0400     		.2byte	0x4
 7799 02ca F3       		.byte	0xf3
 7800 02cb 01       		.uleb128 0x1
 7801 02cc 50       		.byte	0x50
 7802 02cd 9F       		.byte	0x9f
 7803 02ce 00000000 		.4byte	0
 7804 02d2 00000000 		.4byte	0
ARM GAS  C:\Users\gjl\AppData\Local\Temp\ccNm9gHl.s 			page 158


 7805              	.LLST22:
 7806 02d6 00000000 		.4byte	.LVL44
 7807 02da 06000000 		.4byte	.LVL45
 7808 02de 0100     		.2byte	0x1
 7809 02e0 50       		.byte	0x50
 7810 02e1 06000000 		.4byte	.LVL45
 7811 02e5 10000000 		.4byte	.LFE22
 7812 02e9 0400     		.2byte	0x4
 7813 02eb F3       		.byte	0xf3
 7814 02ec 01       		.uleb128 0x1
 7815 02ed 50       		.byte	0x50
 7816 02ee 9F       		.byte	0x9f
 7817 02ef 00000000 		.4byte	0
 7818 02f3 00000000 		.4byte	0
 7819              	.LLST23:
 7820 02f7 00000000 		.4byte	.LVL46
 7821 02fb 06000000 		.4byte	.LVL47
 7822 02ff 0100     		.2byte	0x1
 7823 0301 50       		.byte	0x50
 7824 0302 06000000 		.4byte	.LVL47
 7825 0306 10000000 		.4byte	.LFE23
 7826 030a 0400     		.2byte	0x4
 7827 030c F3       		.byte	0xf3
 7828 030d 01       		.uleb128 0x1
 7829 030e 50       		.byte	0x50
 7830 030f 9F       		.byte	0x9f
 7831 0310 00000000 		.4byte	0
 7832 0314 00000000 		.4byte	0
 7833              	.LLST24:
 7834 0318 00000000 		.4byte	.LVL48
 7835 031c 06000000 		.4byte	.LVL49
 7836 0320 0100     		.2byte	0x1
 7837 0322 50       		.byte	0x50
 7838 0323 06000000 		.4byte	.LVL49
 7839 0327 10000000 		.4byte	.LFE24
 7840 032b 0400     		.2byte	0x4
 7841 032d F3       		.byte	0xf3
 7842 032e 01       		.uleb128 0x1
 7843 032f 50       		.byte	0x50
 7844 0330 9F       		.byte	0x9f
 7845 0331 00000000 		.4byte	0
 7846 0335 00000000 		.4byte	0
 7847              	.LLST25:
 7848 0339 00000000 		.4byte	.LVL50
 7849 033d 06000000 		.4byte	.LVL51
 7850 0341 0100     		.2byte	0x1
 7851 0343 50       		.byte	0x50
 7852 0344 06000000 		.4byte	.LVL51
 7853 0348 10000000 		.4byte	.LFE25
 7854 034c 0400     		.2byte	0x4
 7855 034e F3       		.byte	0xf3
 7856 034f 01       		.uleb128 0x1
 7857 0350 50       		.byte	0x50
 7858 0351 9F       		.byte	0x9f
 7859 0352 00000000 		.4byte	0
 7860 0356 00000000 		.4byte	0
 7861              	.LLST26:
ARM GAS  C:\Users\gjl\AppData\Local\Temp\ccNm9gHl.s 			page 159


 7862 035a 00000000 		.4byte	.LVL52
 7863 035e 06000000 		.4byte	.LVL53
 7864 0362 0100     		.2byte	0x1
 7865 0364 50       		.byte	0x50
 7866 0365 06000000 		.4byte	.LVL53
 7867 0369 10000000 		.4byte	.LFE26
 7868 036d 0400     		.2byte	0x4
 7869 036f F3       		.byte	0xf3
 7870 0370 01       		.uleb128 0x1
 7871 0371 50       		.byte	0x50
 7872 0372 9F       		.byte	0x9f
 7873 0373 00000000 		.4byte	0
 7874 0377 00000000 		.4byte	0
 7875              	.LLST27:
 7876 037b 00000000 		.4byte	.LVL54
 7877 037f 06000000 		.4byte	.LVL55
 7878 0383 0100     		.2byte	0x1
 7879 0385 50       		.byte	0x50
 7880 0386 06000000 		.4byte	.LVL55
 7881 038a 10000000 		.4byte	.LFE27
 7882 038e 0400     		.2byte	0x4
 7883 0390 F3       		.byte	0xf3
 7884 0391 01       		.uleb128 0x1
 7885 0392 50       		.byte	0x50
 7886 0393 9F       		.byte	0x9f
 7887 0394 00000000 		.4byte	0
 7888 0398 00000000 		.4byte	0
 7889              	.LLST28:
 7890 039c 00000000 		.4byte	.LVL56
 7891 03a0 06000000 		.4byte	.LVL57
 7892 03a4 0100     		.2byte	0x1
 7893 03a6 50       		.byte	0x50
 7894 03a7 06000000 		.4byte	.LVL57
 7895 03ab 10000000 		.4byte	.LFE28
 7896 03af 0400     		.2byte	0x4
 7897 03b1 F3       		.byte	0xf3
 7898 03b2 01       		.uleb128 0x1
 7899 03b3 50       		.byte	0x50
 7900 03b4 9F       		.byte	0x9f
 7901 03b5 00000000 		.4byte	0
 7902 03b9 00000000 		.4byte	0
 7903              	.LLST29:
 7904 03bd 00000000 		.4byte	.LVL58
 7905 03c1 06000000 		.4byte	.LVL59
 7906 03c5 0100     		.2byte	0x1
 7907 03c7 50       		.byte	0x50
 7908 03c8 06000000 		.4byte	.LVL59
 7909 03cc 10000000 		.4byte	.LFE29
 7910 03d0 0400     		.2byte	0x4
 7911 03d2 F3       		.byte	0xf3
 7912 03d3 01       		.uleb128 0x1
 7913 03d4 50       		.byte	0x50
 7914 03d5 9F       		.byte	0x9f
 7915 03d6 00000000 		.4byte	0
 7916 03da 00000000 		.4byte	0
 7917              	.LLST30:
 7918 03de 00000000 		.4byte	.LVL60
ARM GAS  C:\Users\gjl\AppData\Local\Temp\ccNm9gHl.s 			page 160


 7919 03e2 06000000 		.4byte	.LVL61
 7920 03e6 0100     		.2byte	0x1
 7921 03e8 50       		.byte	0x50
 7922 03e9 06000000 		.4byte	.LVL61
 7923 03ed 10000000 		.4byte	.LFE30
 7924 03f1 0400     		.2byte	0x4
 7925 03f3 F3       		.byte	0xf3
 7926 03f4 01       		.uleb128 0x1
 7927 03f5 50       		.byte	0x50
 7928 03f6 9F       		.byte	0x9f
 7929 03f7 00000000 		.4byte	0
 7930 03fb 00000000 		.4byte	0
 7931              	.LLST31:
 7932 03ff 00000000 		.4byte	.LVL62
 7933 0403 06000000 		.4byte	.LVL63
 7934 0407 0100     		.2byte	0x1
 7935 0409 50       		.byte	0x50
 7936 040a 06000000 		.4byte	.LVL63
 7937 040e 10000000 		.4byte	.LFE31
 7938 0412 0400     		.2byte	0x4
 7939 0414 F3       		.byte	0xf3
 7940 0415 01       		.uleb128 0x1
 7941 0416 50       		.byte	0x50
 7942 0417 9F       		.byte	0x9f
 7943 0418 00000000 		.4byte	0
 7944 041c 00000000 		.4byte	0
 7945              	.LLST32:
 7946 0420 00000000 		.4byte	.LVL64
 7947 0424 06000000 		.4byte	.LVL65
 7948 0428 0100     		.2byte	0x1
 7949 042a 50       		.byte	0x50
 7950 042b 06000000 		.4byte	.LVL65
 7951 042f 10000000 		.4byte	.LFE32
 7952 0433 0400     		.2byte	0x4
 7953 0435 F3       		.byte	0xf3
 7954 0436 01       		.uleb128 0x1
 7955 0437 50       		.byte	0x50
 7956 0438 9F       		.byte	0x9f
 7957 0439 00000000 		.4byte	0
 7958 043d 00000000 		.4byte	0
 7959              	.LLST33:
 7960 0441 00000000 		.4byte	.LVL66
 7961 0445 06000000 		.4byte	.LVL67
 7962 0449 0100     		.2byte	0x1
 7963 044b 50       		.byte	0x50
 7964 044c 06000000 		.4byte	.LVL67
 7965 0450 10000000 		.4byte	.LFE33
 7966 0454 0400     		.2byte	0x4
 7967 0456 F3       		.byte	0xf3
 7968 0457 01       		.uleb128 0x1
 7969 0458 50       		.byte	0x50
 7970 0459 9F       		.byte	0x9f
 7971 045a 00000000 		.4byte	0
 7972 045e 00000000 		.4byte	0
 7973              	.LLST34:
 7974 0462 00000000 		.4byte	.LVL68
 7975 0466 06000000 		.4byte	.LVL69
ARM GAS  C:\Users\gjl\AppData\Local\Temp\ccNm9gHl.s 			page 161


 7976 046a 0100     		.2byte	0x1
 7977 046c 50       		.byte	0x50
 7978 046d 06000000 		.4byte	.LVL69
 7979 0471 10000000 		.4byte	.LFE34
 7980 0475 0400     		.2byte	0x4
 7981 0477 F3       		.byte	0xf3
 7982 0478 01       		.uleb128 0x1
 7983 0479 50       		.byte	0x50
 7984 047a 9F       		.byte	0x9f
 7985 047b 00000000 		.4byte	0
 7986 047f 00000000 		.4byte	0
 7987              	.LLST35:
 7988 0483 00000000 		.4byte	.LVL70
 7989 0487 06000000 		.4byte	.LVL71
 7990 048b 0100     		.2byte	0x1
 7991 048d 50       		.byte	0x50
 7992 048e 06000000 		.4byte	.LVL71
 7993 0492 10000000 		.4byte	.LFE35
 7994 0496 0400     		.2byte	0x4
 7995 0498 F3       		.byte	0xf3
 7996 0499 01       		.uleb128 0x1
 7997 049a 50       		.byte	0x50
 7998 049b 9F       		.byte	0x9f
 7999 049c 00000000 		.4byte	0
 8000 04a0 00000000 		.4byte	0
 8001              	.LLST36:
 8002 04a4 00000000 		.4byte	.LVL72
 8003 04a8 06000000 		.4byte	.LVL73
 8004 04ac 0100     		.2byte	0x1
 8005 04ae 50       		.byte	0x50
 8006 04af 06000000 		.4byte	.LVL73
 8007 04b3 10000000 		.4byte	.LFE36
 8008 04b7 0400     		.2byte	0x4
 8009 04b9 F3       		.byte	0xf3
 8010 04ba 01       		.uleb128 0x1
 8011 04bb 50       		.byte	0x50
 8012 04bc 9F       		.byte	0x9f
 8013 04bd 00000000 		.4byte	0
 8014 04c1 00000000 		.4byte	0
 8015              	.LLST37:
 8016 04c5 00000000 		.4byte	.LVL74
 8017 04c9 06000000 		.4byte	.LVL75
 8018 04cd 0100     		.2byte	0x1
 8019 04cf 50       		.byte	0x50
 8020 04d0 06000000 		.4byte	.LVL75
 8021 04d4 10000000 		.4byte	.LFE37
 8022 04d8 0400     		.2byte	0x4
 8023 04da F3       		.byte	0xf3
 8024 04db 01       		.uleb128 0x1
 8025 04dc 50       		.byte	0x50
 8026 04dd 9F       		.byte	0x9f
 8027 04de 00000000 		.4byte	0
 8028 04e2 00000000 		.4byte	0
 8029              	.LLST38:
 8030 04e6 00000000 		.4byte	.LVL76
 8031 04ea 06000000 		.4byte	.LVL77
 8032 04ee 0100     		.2byte	0x1
ARM GAS  C:\Users\gjl\AppData\Local\Temp\ccNm9gHl.s 			page 162


 8033 04f0 50       		.byte	0x50
 8034 04f1 06000000 		.4byte	.LVL77
 8035 04f5 10000000 		.4byte	.LFE38
 8036 04f9 0400     		.2byte	0x4
 8037 04fb F3       		.byte	0xf3
 8038 04fc 01       		.uleb128 0x1
 8039 04fd 50       		.byte	0x50
 8040 04fe 9F       		.byte	0x9f
 8041 04ff 00000000 		.4byte	0
 8042 0503 00000000 		.4byte	0
 8043              	.LLST39:
 8044 0507 00000000 		.4byte	.LVL78
 8045 050b 06000000 		.4byte	.LVL79
 8046 050f 0100     		.2byte	0x1
 8047 0511 50       		.byte	0x50
 8048 0512 06000000 		.4byte	.LVL79
 8049 0516 10000000 		.4byte	.LFE39
 8050 051a 0400     		.2byte	0x4
 8051 051c F3       		.byte	0xf3
 8052 051d 01       		.uleb128 0x1
 8053 051e 50       		.byte	0x50
 8054 051f 9F       		.byte	0x9f
 8055 0520 00000000 		.4byte	0
 8056 0524 00000000 		.4byte	0
 8057              	.LLST40:
 8058 0528 00000000 		.4byte	.LVL80
 8059 052c 06000000 		.4byte	.LVL81
 8060 0530 0100     		.2byte	0x1
 8061 0532 50       		.byte	0x50
 8062 0533 06000000 		.4byte	.LVL81
 8063 0537 10000000 		.4byte	.LFE40
 8064 053b 0400     		.2byte	0x4
 8065 053d F3       		.byte	0xf3
 8066 053e 01       		.uleb128 0x1
 8067 053f 50       		.byte	0x50
 8068 0540 9F       		.byte	0x9f
 8069 0541 00000000 		.4byte	0
 8070 0545 00000000 		.4byte	0
 8071              	.LLST41:
 8072 0549 00000000 		.4byte	.LVL82
 8073 054d 06000000 		.4byte	.LVL83
 8074 0551 0100     		.2byte	0x1
 8075 0553 50       		.byte	0x50
 8076 0554 06000000 		.4byte	.LVL83
 8077 0558 10000000 		.4byte	.LFE41
 8078 055c 0400     		.2byte	0x4
 8079 055e F3       		.byte	0xf3
 8080 055f 01       		.uleb128 0x1
 8081 0560 50       		.byte	0x50
 8082 0561 9F       		.byte	0x9f
 8083 0562 00000000 		.4byte	0
 8084 0566 00000000 		.4byte	0
 8085              	.LLST42:
 8086 056a 00000000 		.4byte	.LVL84
 8087 056e 06000000 		.4byte	.LVL85
 8088 0572 0100     		.2byte	0x1
 8089 0574 50       		.byte	0x50
ARM GAS  C:\Users\gjl\AppData\Local\Temp\ccNm9gHl.s 			page 163


 8090 0575 06000000 		.4byte	.LVL85
 8091 0579 10000000 		.4byte	.LFE42
 8092 057d 0400     		.2byte	0x4
 8093 057f F3       		.byte	0xf3
 8094 0580 01       		.uleb128 0x1
 8095 0581 50       		.byte	0x50
 8096 0582 9F       		.byte	0x9f
 8097 0583 00000000 		.4byte	0
 8098 0587 00000000 		.4byte	0
 8099              	.LLST43:
 8100 058b 00000000 		.4byte	.LVL86
 8101 058f 06000000 		.4byte	.LVL87
 8102 0593 0100     		.2byte	0x1
 8103 0595 50       		.byte	0x50
 8104 0596 06000000 		.4byte	.LVL87
 8105 059a 10000000 		.4byte	.LFE43
 8106 059e 0400     		.2byte	0x4
 8107 05a0 F3       		.byte	0xf3
 8108 05a1 01       		.uleb128 0x1
 8109 05a2 50       		.byte	0x50
 8110 05a3 9F       		.byte	0x9f
 8111 05a4 00000000 		.4byte	0
 8112 05a8 00000000 		.4byte	0
 8113              	.LLST44:
 8114 05ac 00000000 		.4byte	.LVL88
 8115 05b0 06000000 		.4byte	.LVL89
 8116 05b4 0100     		.2byte	0x1
 8117 05b6 50       		.byte	0x50
 8118 05b7 06000000 		.4byte	.LVL89
 8119 05bb 10000000 		.4byte	.LFE44
 8120 05bf 0400     		.2byte	0x4
 8121 05c1 F3       		.byte	0xf3
 8122 05c2 01       		.uleb128 0x1
 8123 05c3 50       		.byte	0x50
 8124 05c4 9F       		.byte	0x9f
 8125 05c5 00000000 		.4byte	0
 8126 05c9 00000000 		.4byte	0
 8127              	.LLST45:
 8128 05cd 00000000 		.4byte	.LVL90
 8129 05d1 06000000 		.4byte	.LVL91
 8130 05d5 0100     		.2byte	0x1
 8131 05d7 50       		.byte	0x50
 8132 05d8 06000000 		.4byte	.LVL91
 8133 05dc 10000000 		.4byte	.LFE45
 8134 05e0 0400     		.2byte	0x4
 8135 05e2 F3       		.byte	0xf3
 8136 05e3 01       		.uleb128 0x1
 8137 05e4 50       		.byte	0x50
 8138 05e5 9F       		.byte	0x9f
 8139 05e6 00000000 		.4byte	0
 8140 05ea 00000000 		.4byte	0
 8141              	.LLST46:
 8142 05ee 00000000 		.4byte	.LVL92
 8143 05f2 06000000 		.4byte	.LVL93
 8144 05f6 0100     		.2byte	0x1
 8145 05f8 50       		.byte	0x50
 8146 05f9 06000000 		.4byte	.LVL93
ARM GAS  C:\Users\gjl\AppData\Local\Temp\ccNm9gHl.s 			page 164


 8147 05fd 10000000 		.4byte	.LFE46
 8148 0601 0400     		.2byte	0x4
 8149 0603 F3       		.byte	0xf3
 8150 0604 01       		.uleb128 0x1
 8151 0605 50       		.byte	0x50
 8152 0606 9F       		.byte	0x9f
 8153 0607 00000000 		.4byte	0
 8154 060b 00000000 		.4byte	0
 8155              	.LLST47:
 8156 060f 00000000 		.4byte	.LVL94
 8157 0613 06000000 		.4byte	.LVL95
 8158 0617 0100     		.2byte	0x1
 8159 0619 50       		.byte	0x50
 8160 061a 06000000 		.4byte	.LVL95
 8161 061e 10000000 		.4byte	.LFE47
 8162 0622 0400     		.2byte	0x4
 8163 0624 F3       		.byte	0xf3
 8164 0625 01       		.uleb128 0x1
 8165 0626 50       		.byte	0x50
 8166 0627 9F       		.byte	0x9f
 8167 0628 00000000 		.4byte	0
 8168 062c 00000000 		.4byte	0
 8169              	.LLST48:
 8170 0630 00000000 		.4byte	.LVL96
 8171 0634 06000000 		.4byte	.LVL97
 8172 0638 0100     		.2byte	0x1
 8173 063a 50       		.byte	0x50
 8174 063b 06000000 		.4byte	.LVL97
 8175 063f 10000000 		.4byte	.LFE48
 8176 0643 0400     		.2byte	0x4
 8177 0645 F3       		.byte	0xf3
 8178 0646 01       		.uleb128 0x1
 8179 0647 50       		.byte	0x50
 8180 0648 9F       		.byte	0x9f
 8181 0649 00000000 		.4byte	0
 8182 064d 00000000 		.4byte	0
 8183              	.LLST49:
 8184 0651 00000000 		.4byte	.LVL98
 8185 0655 06000000 		.4byte	.LVL99
 8186 0659 0100     		.2byte	0x1
 8187 065b 50       		.byte	0x50
 8188 065c 06000000 		.4byte	.LVL99
 8189 0660 10000000 		.4byte	.LFE49
 8190 0664 0400     		.2byte	0x4
 8191 0666 F3       		.byte	0xf3
 8192 0667 01       		.uleb128 0x1
 8193 0668 50       		.byte	0x50
 8194 0669 9F       		.byte	0x9f
 8195 066a 00000000 		.4byte	0
 8196 066e 00000000 		.4byte	0
 8197              	.LLST50:
 8198 0672 00000000 		.4byte	.LVL100
 8199 0676 06000000 		.4byte	.LVL101
 8200 067a 0100     		.2byte	0x1
 8201 067c 50       		.byte	0x50
 8202 067d 06000000 		.4byte	.LVL101
 8203 0681 0C000000 		.4byte	.LFE50
ARM GAS  C:\Users\gjl\AppData\Local\Temp\ccNm9gHl.s 			page 165


 8204 0685 0400     		.2byte	0x4
 8205 0687 F3       		.byte	0xf3
 8206 0688 01       		.uleb128 0x1
 8207 0689 50       		.byte	0x50
 8208 068a 9F       		.byte	0x9f
 8209 068b 00000000 		.4byte	0
 8210 068f 00000000 		.4byte	0
 8211              	.LLST51:
 8212 0693 00000000 		.4byte	.LVL102
 8213 0697 06000000 		.4byte	.LVL103
 8214 069b 0100     		.2byte	0x1
 8215 069d 50       		.byte	0x50
 8216 069e 06000000 		.4byte	.LVL103
 8217 06a2 0C000000 		.4byte	.LFE51
 8218 06a6 0400     		.2byte	0x4
 8219 06a8 F3       		.byte	0xf3
 8220 06a9 01       		.uleb128 0x1
 8221 06aa 50       		.byte	0x50
 8222 06ab 9F       		.byte	0x9f
 8223 06ac 00000000 		.4byte	0
 8224 06b0 00000000 		.4byte	0
 8225              	.LLST52:
 8226 06b4 00000000 		.4byte	.LVL104
 8227 06b8 06000000 		.4byte	.LVL105
 8228 06bc 0100     		.2byte	0x1
 8229 06be 50       		.byte	0x50
 8230 06bf 06000000 		.4byte	.LVL105
 8231 06c3 10000000 		.4byte	.LFE52
 8232 06c7 0400     		.2byte	0x4
 8233 06c9 F3       		.byte	0xf3
 8234 06ca 01       		.uleb128 0x1
 8235 06cb 50       		.byte	0x50
 8236 06cc 9F       		.byte	0x9f
 8237 06cd 00000000 		.4byte	0
 8238 06d1 00000000 		.4byte	0
 8239              	.LLST53:
 8240 06d5 00000000 		.4byte	.LVL106
 8241 06d9 06000000 		.4byte	.LVL107
 8242 06dd 0100     		.2byte	0x1
 8243 06df 50       		.byte	0x50
 8244 06e0 06000000 		.4byte	.LVL107
 8245 06e4 10000000 		.4byte	.LFE53
 8246 06e8 0400     		.2byte	0x4
 8247 06ea F3       		.byte	0xf3
 8248 06eb 01       		.uleb128 0x1
 8249 06ec 50       		.byte	0x50
 8250 06ed 9F       		.byte	0x9f
 8251 06ee 00000000 		.4byte	0
 8252 06f2 00000000 		.4byte	0
 8253              	.LLST54:
 8254 06f6 00000000 		.4byte	.LVL108
 8255 06fa 06000000 		.4byte	.LVL109
 8256 06fe 0100     		.2byte	0x1
 8257 0700 50       		.byte	0x50
 8258 0701 06000000 		.4byte	.LVL109
 8259 0705 0C000000 		.4byte	.LFE54
 8260 0709 0400     		.2byte	0x4
ARM GAS  C:\Users\gjl\AppData\Local\Temp\ccNm9gHl.s 			page 166


 8261 070b F3       		.byte	0xf3
 8262 070c 01       		.uleb128 0x1
 8263 070d 50       		.byte	0x50
 8264 070e 9F       		.byte	0x9f
 8265 070f 00000000 		.4byte	0
 8266 0713 00000000 		.4byte	0
 8267              	.LLST55:
 8268 0717 00000000 		.4byte	.LVL110
 8269 071b 06000000 		.4byte	.LVL111
 8270 071f 0100     		.2byte	0x1
 8271 0721 50       		.byte	0x50
 8272 0722 06000000 		.4byte	.LVL111
 8273 0726 10000000 		.4byte	.LFE55
 8274 072a 0400     		.2byte	0x4
 8275 072c F3       		.byte	0xf3
 8276 072d 01       		.uleb128 0x1
 8277 072e 50       		.byte	0x50
 8278 072f 9F       		.byte	0x9f
 8279 0730 00000000 		.4byte	0
 8280 0734 00000000 		.4byte	0
 8281              	.LLST56:
 8282 0738 00000000 		.4byte	.LVL112
 8283 073c 06000000 		.4byte	.LVL113
 8284 0740 0100     		.2byte	0x1
 8285 0742 50       		.byte	0x50
 8286 0743 06000000 		.4byte	.LVL113
 8287 0747 10000000 		.4byte	.LFE56
 8288 074b 0400     		.2byte	0x4
 8289 074d F3       		.byte	0xf3
 8290 074e 01       		.uleb128 0x1
 8291 074f 50       		.byte	0x50
 8292 0750 9F       		.byte	0x9f
 8293 0751 00000000 		.4byte	0
 8294 0755 00000000 		.4byte	0
 8295              	.LLST57:
 8296 0759 00000000 		.4byte	.LVL114
 8297 075d 06000000 		.4byte	.LVL115
 8298 0761 0100     		.2byte	0x1
 8299 0763 50       		.byte	0x50
 8300 0764 06000000 		.4byte	.LVL115
 8301 0768 10000000 		.4byte	.LFE57
 8302 076c 0400     		.2byte	0x4
 8303 076e F3       		.byte	0xf3
 8304 076f 01       		.uleb128 0x1
 8305 0770 50       		.byte	0x50
 8306 0771 9F       		.byte	0x9f
 8307 0772 00000000 		.4byte	0
 8308 0776 00000000 		.4byte	0
 8309              	.LLST58:
 8310 077a 00000000 		.4byte	.LVL116
 8311 077e 06000000 		.4byte	.LVL117
 8312 0782 0100     		.2byte	0x1
 8313 0784 50       		.byte	0x50
 8314 0785 06000000 		.4byte	.LVL117
 8315 0789 10000000 		.4byte	.LFE58
 8316 078d 0400     		.2byte	0x4
 8317 078f F3       		.byte	0xf3
ARM GAS  C:\Users\gjl\AppData\Local\Temp\ccNm9gHl.s 			page 167


 8318 0790 01       		.uleb128 0x1
 8319 0791 50       		.byte	0x50
 8320 0792 9F       		.byte	0x9f
 8321 0793 00000000 		.4byte	0
 8322 0797 00000000 		.4byte	0
 8323              	.LLST59:
 8324 079b 00000000 		.4byte	.LVL118
 8325 079f 06000000 		.4byte	.LVL119
 8326 07a3 0100     		.2byte	0x1
 8327 07a5 50       		.byte	0x50
 8328 07a6 06000000 		.4byte	.LVL119
 8329 07aa 10000000 		.4byte	.LFE59
 8330 07ae 0400     		.2byte	0x4
 8331 07b0 F3       		.byte	0xf3
 8332 07b1 01       		.uleb128 0x1
 8333 07b2 50       		.byte	0x50
 8334 07b3 9F       		.byte	0x9f
 8335 07b4 00000000 		.4byte	0
 8336 07b8 00000000 		.4byte	0
 8337              	.LLST60:
 8338 07bc 00000000 		.4byte	.LVL120
 8339 07c0 06000000 		.4byte	.LVL121
 8340 07c4 0100     		.2byte	0x1
 8341 07c6 50       		.byte	0x50
 8342 07c7 06000000 		.4byte	.LVL121
 8343 07cb 10000000 		.4byte	.LFE60
 8344 07cf 0400     		.2byte	0x4
 8345 07d1 F3       		.byte	0xf3
 8346 07d2 01       		.uleb128 0x1
 8347 07d3 50       		.byte	0x50
 8348 07d4 9F       		.byte	0x9f
 8349 07d5 00000000 		.4byte	0
 8350 07d9 00000000 		.4byte	0
 8351              	.LLST61:
 8352 07dd 00000000 		.4byte	.LVL122
 8353 07e1 06000000 		.4byte	.LVL123
 8354 07e5 0100     		.2byte	0x1
 8355 07e7 50       		.byte	0x50
 8356 07e8 06000000 		.4byte	.LVL123
 8357 07ec 10000000 		.4byte	.LFE61
 8358 07f0 0400     		.2byte	0x4
 8359 07f2 F3       		.byte	0xf3
 8360 07f3 01       		.uleb128 0x1
 8361 07f4 50       		.byte	0x50
 8362 07f5 9F       		.byte	0x9f
 8363 07f6 00000000 		.4byte	0
 8364 07fa 00000000 		.4byte	0
 8365              	.LLST62:
 8366 07fe 00000000 		.4byte	.LVL124
 8367 0802 06000000 		.4byte	.LVL125
 8368 0806 0100     		.2byte	0x1
 8369 0808 50       		.byte	0x50
 8370 0809 06000000 		.4byte	.LVL125
 8371 080d 10000000 		.4byte	.LFE62
 8372 0811 0400     		.2byte	0x4
 8373 0813 F3       		.byte	0xf3
 8374 0814 01       		.uleb128 0x1
ARM GAS  C:\Users\gjl\AppData\Local\Temp\ccNm9gHl.s 			page 168


 8375 0815 50       		.byte	0x50
 8376 0816 9F       		.byte	0x9f
 8377 0817 00000000 		.4byte	0
 8378 081b 00000000 		.4byte	0
 8379              	.LLST63:
 8380 081f 00000000 		.4byte	.LVL126
 8381 0823 06000000 		.4byte	.LVL127
 8382 0827 0100     		.2byte	0x1
 8383 0829 50       		.byte	0x50
 8384 082a 06000000 		.4byte	.LVL127
 8385 082e 10000000 		.4byte	.LFE63
 8386 0832 0400     		.2byte	0x4
 8387 0834 F3       		.byte	0xf3
 8388 0835 01       		.uleb128 0x1
 8389 0836 50       		.byte	0x50
 8390 0837 9F       		.byte	0x9f
 8391 0838 00000000 		.4byte	0
 8392 083c 00000000 		.4byte	0
 8393              	.LLST64:
 8394 0840 00000000 		.4byte	.LVL128
 8395 0844 06000000 		.4byte	.LVL129
 8396 0848 0100     		.2byte	0x1
 8397 084a 50       		.byte	0x50
 8398 084b 06000000 		.4byte	.LVL129
 8399 084f 10000000 		.4byte	.LFE64
 8400 0853 0400     		.2byte	0x4
 8401 0855 F3       		.byte	0xf3
 8402 0856 01       		.uleb128 0x1
 8403 0857 50       		.byte	0x50
 8404 0858 9F       		.byte	0x9f
 8405 0859 00000000 		.4byte	0
 8406 085d 00000000 		.4byte	0
 8407              	.LLST65:
 8408 0861 00000000 		.4byte	.LVL130
 8409 0865 06000000 		.4byte	.LVL131
 8410 0869 0100     		.2byte	0x1
 8411 086b 50       		.byte	0x50
 8412 086c 06000000 		.4byte	.LVL131
 8413 0870 10000000 		.4byte	.LFE65
 8414 0874 0400     		.2byte	0x4
 8415 0876 F3       		.byte	0xf3
 8416 0877 01       		.uleb128 0x1
 8417 0878 50       		.byte	0x50
 8418 0879 9F       		.byte	0x9f
 8419 087a 00000000 		.4byte	0
 8420 087e 00000000 		.4byte	0
 8421              	.LLST66:
 8422 0882 00000000 		.4byte	.LVL132
 8423 0886 06000000 		.4byte	.LVL133
 8424 088a 0100     		.2byte	0x1
 8425 088c 50       		.byte	0x50
 8426 088d 06000000 		.4byte	.LVL133
 8427 0891 10000000 		.4byte	.LFE66
 8428 0895 0400     		.2byte	0x4
 8429 0897 F3       		.byte	0xf3
 8430 0898 01       		.uleb128 0x1
 8431 0899 50       		.byte	0x50
ARM GAS  C:\Users\gjl\AppData\Local\Temp\ccNm9gHl.s 			page 169


 8432 089a 9F       		.byte	0x9f
 8433 089b 00000000 		.4byte	0
 8434 089f 00000000 		.4byte	0
 8435              	.LLST67:
 8436 08a3 00000000 		.4byte	.LVL134
 8437 08a7 06000000 		.4byte	.LVL135
 8438 08ab 0100     		.2byte	0x1
 8439 08ad 50       		.byte	0x50
 8440 08ae 06000000 		.4byte	.LVL135
 8441 08b2 10000000 		.4byte	.LFE67
 8442 08b6 0400     		.2byte	0x4
 8443 08b8 F3       		.byte	0xf3
 8444 08b9 01       		.uleb128 0x1
 8445 08ba 50       		.byte	0x50
 8446 08bb 9F       		.byte	0x9f
 8447 08bc 00000000 		.4byte	0
 8448 08c0 00000000 		.4byte	0
 8449              	.LLST68:
 8450 08c4 00000000 		.4byte	.LVL136
 8451 08c8 06000000 		.4byte	.LVL137
 8452 08cc 0100     		.2byte	0x1
 8453 08ce 50       		.byte	0x50
 8454 08cf 06000000 		.4byte	.LVL137
 8455 08d3 10000000 		.4byte	.LFE68
 8456 08d7 0400     		.2byte	0x4
 8457 08d9 F3       		.byte	0xf3
 8458 08da 01       		.uleb128 0x1
 8459 08db 50       		.byte	0x50
 8460 08dc 9F       		.byte	0x9f
 8461 08dd 00000000 		.4byte	0
 8462 08e1 00000000 		.4byte	0
 8463              	.LLST69:
 8464 08e5 00000000 		.4byte	.LVL138
 8465 08e9 06000000 		.4byte	.LVL139
 8466 08ed 0100     		.2byte	0x1
 8467 08ef 50       		.byte	0x50
 8468 08f0 06000000 		.4byte	.LVL139
 8469 08f4 10000000 		.4byte	.LFE69
 8470 08f8 0400     		.2byte	0x4
 8471 08fa F3       		.byte	0xf3
 8472 08fb 01       		.uleb128 0x1
 8473 08fc 50       		.byte	0x50
 8474 08fd 9F       		.byte	0x9f
 8475 08fe 00000000 		.4byte	0
 8476 0902 00000000 		.4byte	0
 8477              	.LLST70:
 8478 0906 00000000 		.4byte	.LVL140
 8479 090a 06000000 		.4byte	.LVL141
 8480 090e 0100     		.2byte	0x1
 8481 0910 50       		.byte	0x50
 8482 0911 06000000 		.4byte	.LVL141
 8483 0915 10000000 		.4byte	.LFE70
 8484 0919 0400     		.2byte	0x4
 8485 091b F3       		.byte	0xf3
 8486 091c 01       		.uleb128 0x1
 8487 091d 50       		.byte	0x50
 8488 091e 9F       		.byte	0x9f
ARM GAS  C:\Users\gjl\AppData\Local\Temp\ccNm9gHl.s 			page 170


 8489 091f 00000000 		.4byte	0
 8490 0923 00000000 		.4byte	0
 8491              	.LLST71:
 8492 0927 00000000 		.4byte	.LVL142
 8493 092b 06000000 		.4byte	.LVL143
 8494 092f 0100     		.2byte	0x1
 8495 0931 50       		.byte	0x50
 8496 0932 06000000 		.4byte	.LVL143
 8497 0936 10000000 		.4byte	.LFE71
 8498 093a 0400     		.2byte	0x4
 8499 093c F3       		.byte	0xf3
 8500 093d 01       		.uleb128 0x1
 8501 093e 50       		.byte	0x50
 8502 093f 9F       		.byte	0x9f
 8503 0940 00000000 		.4byte	0
 8504 0944 00000000 		.4byte	0
 8505              	.LLST72:
 8506 0948 00000000 		.4byte	.LVL144
 8507 094c 06000000 		.4byte	.LVL145
 8508 0950 0100     		.2byte	0x1
 8509 0952 50       		.byte	0x50
 8510 0953 06000000 		.4byte	.LVL145
 8511 0957 10000000 		.4byte	.LFE72
 8512 095b 0400     		.2byte	0x4
 8513 095d F3       		.byte	0xf3
 8514 095e 01       		.uleb128 0x1
 8515 095f 50       		.byte	0x50
 8516 0960 9F       		.byte	0x9f
 8517 0961 00000000 		.4byte	0
 8518 0965 00000000 		.4byte	0
 8519              	.LLST73:
 8520 0969 00000000 		.4byte	.LVL146
 8521 096d 06000000 		.4byte	.LVL147
 8522 0971 0100     		.2byte	0x1
 8523 0973 50       		.byte	0x50
 8524 0974 06000000 		.4byte	.LVL147
 8525 0978 10000000 		.4byte	.LFE73
 8526 097c 0400     		.2byte	0x4
 8527 097e F3       		.byte	0xf3
 8528 097f 01       		.uleb128 0x1
 8529 0980 50       		.byte	0x50
 8530 0981 9F       		.byte	0x9f
 8531 0982 00000000 		.4byte	0
 8532 0986 00000000 		.4byte	0
 8533              	.LLST74:
 8534 098a 00000000 		.4byte	.LVL148
 8535 098e 06000000 		.4byte	.LVL149
 8536 0992 0100     		.2byte	0x1
 8537 0994 50       		.byte	0x50
 8538 0995 06000000 		.4byte	.LVL149
 8539 0999 10000000 		.4byte	.LFE74
 8540 099d 0400     		.2byte	0x4
 8541 099f F3       		.byte	0xf3
 8542 09a0 01       		.uleb128 0x1
 8543 09a1 50       		.byte	0x50
 8544 09a2 9F       		.byte	0x9f
 8545 09a3 00000000 		.4byte	0
ARM GAS  C:\Users\gjl\AppData\Local\Temp\ccNm9gHl.s 			page 171


 8546 09a7 00000000 		.4byte	0
 8547              	.LLST75:
 8548 09ab 00000000 		.4byte	.LVL150
 8549 09af 06000000 		.4byte	.LVL151
 8550 09b3 0100     		.2byte	0x1
 8551 09b5 50       		.byte	0x50
 8552 09b6 06000000 		.4byte	.LVL151
 8553 09ba 10000000 		.4byte	.LFE75
 8554 09be 0400     		.2byte	0x4
 8555 09c0 F3       		.byte	0xf3
 8556 09c1 01       		.uleb128 0x1
 8557 09c2 50       		.byte	0x50
 8558 09c3 9F       		.byte	0x9f
 8559 09c4 00000000 		.4byte	0
 8560 09c8 00000000 		.4byte	0
 8561              	.LLST76:
 8562 09cc 00000000 		.4byte	.LVL152
 8563 09d0 06000000 		.4byte	.LVL153
 8564 09d4 0100     		.2byte	0x1
 8565 09d6 50       		.byte	0x50
 8566 09d7 06000000 		.4byte	.LVL153
 8567 09db 10000000 		.4byte	.LFE76
 8568 09df 0400     		.2byte	0x4
 8569 09e1 F3       		.byte	0xf3
 8570 09e2 01       		.uleb128 0x1
 8571 09e3 50       		.byte	0x50
 8572 09e4 9F       		.byte	0x9f
 8573 09e5 00000000 		.4byte	0
 8574 09e9 00000000 		.4byte	0
 8575              	.LLST77:
 8576 09ed 00000000 		.4byte	.LVL154
 8577 09f1 06000000 		.4byte	.LVL155
 8578 09f5 0100     		.2byte	0x1
 8579 09f7 50       		.byte	0x50
 8580 09f8 06000000 		.4byte	.LVL155
 8581 09fc 10000000 		.4byte	.LFE77
 8582 0a00 0400     		.2byte	0x4
 8583 0a02 F3       		.byte	0xf3
 8584 0a03 01       		.uleb128 0x1
 8585 0a04 50       		.byte	0x50
 8586 0a05 9F       		.byte	0x9f
 8587 0a06 00000000 		.4byte	0
 8588 0a0a 00000000 		.4byte	0
 8589              	.LLST78:
 8590 0a0e 00000000 		.4byte	.LVL156
 8591 0a12 06000000 		.4byte	.LVL157
 8592 0a16 0100     		.2byte	0x1
 8593 0a18 50       		.byte	0x50
 8594 0a19 06000000 		.4byte	.LVL157
 8595 0a1d 10000000 		.4byte	.LFE78
 8596 0a21 0400     		.2byte	0x4
 8597 0a23 F3       		.byte	0xf3
 8598 0a24 01       		.uleb128 0x1
 8599 0a25 50       		.byte	0x50
 8600 0a26 9F       		.byte	0x9f
 8601 0a27 00000000 		.4byte	0
 8602 0a2b 00000000 		.4byte	0
ARM GAS  C:\Users\gjl\AppData\Local\Temp\ccNm9gHl.s 			page 172


 8603              	.LLST79:
 8604 0a2f 00000000 		.4byte	.LVL158
 8605 0a33 06000000 		.4byte	.LVL159
 8606 0a37 0100     		.2byte	0x1
 8607 0a39 50       		.byte	0x50
 8608 0a3a 06000000 		.4byte	.LVL159
 8609 0a3e 10000000 		.4byte	.LFE79
 8610 0a42 0400     		.2byte	0x4
 8611 0a44 F3       		.byte	0xf3
 8612 0a45 01       		.uleb128 0x1
 8613 0a46 50       		.byte	0x50
 8614 0a47 9F       		.byte	0x9f
 8615 0a48 00000000 		.4byte	0
 8616 0a4c 00000000 		.4byte	0
 8617              	.LLST80:
 8618 0a50 00000000 		.4byte	.LVL160
 8619 0a54 06000000 		.4byte	.LVL161
 8620 0a58 0100     		.2byte	0x1
 8621 0a5a 50       		.byte	0x50
 8622 0a5b 06000000 		.4byte	.LVL161
 8623 0a5f 10000000 		.4byte	.LFE80
 8624 0a63 0400     		.2byte	0x4
 8625 0a65 F3       		.byte	0xf3
 8626 0a66 01       		.uleb128 0x1
 8627 0a67 50       		.byte	0x50
 8628 0a68 9F       		.byte	0x9f
 8629 0a69 00000000 		.4byte	0
 8630 0a6d 00000000 		.4byte	0
 8631              	.LLST81:
 8632 0a71 00000000 		.4byte	.LVL162
 8633 0a75 06000000 		.4byte	.LVL163
 8634 0a79 0100     		.2byte	0x1
 8635 0a7b 50       		.byte	0x50
 8636 0a7c 06000000 		.4byte	.LVL163
 8637 0a80 10000000 		.4byte	.LFE81
 8638 0a84 0400     		.2byte	0x4
 8639 0a86 F3       		.byte	0xf3
 8640 0a87 01       		.uleb128 0x1
 8641 0a88 50       		.byte	0x50
 8642 0a89 9F       		.byte	0x9f
 8643 0a8a 00000000 		.4byte	0
 8644 0a8e 00000000 		.4byte	0
 8645              	.LLST82:
 8646 0a92 00000000 		.4byte	.LVL164
 8647 0a96 06000000 		.4byte	.LVL165
 8648 0a9a 0100     		.2byte	0x1
 8649 0a9c 50       		.byte	0x50
 8650 0a9d 06000000 		.4byte	.LVL165
 8651 0aa1 0C000000 		.4byte	.LFE82
 8652 0aa5 0400     		.2byte	0x4
 8653 0aa7 F3       		.byte	0xf3
 8654 0aa8 01       		.uleb128 0x1
 8655 0aa9 50       		.byte	0x50
 8656 0aaa 9F       		.byte	0x9f
 8657 0aab 00000000 		.4byte	0
 8658 0aaf 00000000 		.4byte	0
 8659              	.LLST83:
ARM GAS  C:\Users\gjl\AppData\Local\Temp\ccNm9gHl.s 			page 173


 8660 0ab3 00000000 		.4byte	.LVL166
 8661 0ab7 06000000 		.4byte	.LVL167
 8662 0abb 0100     		.2byte	0x1
 8663 0abd 50       		.byte	0x50
 8664 0abe 06000000 		.4byte	.LVL167
 8665 0ac2 10000000 		.4byte	.LFE83
 8666 0ac6 0400     		.2byte	0x4
 8667 0ac8 F3       		.byte	0xf3
 8668 0ac9 01       		.uleb128 0x1
 8669 0aca 50       		.byte	0x50
 8670 0acb 9F       		.byte	0x9f
 8671 0acc 00000000 		.4byte	0
 8672 0ad0 00000000 		.4byte	0
 8673              	.LLST84:
 8674 0ad4 00000000 		.4byte	.LVL168
 8675 0ad8 06000000 		.4byte	.LVL169
 8676 0adc 0100     		.2byte	0x1
 8677 0ade 50       		.byte	0x50
 8678 0adf 06000000 		.4byte	.LVL169
 8679 0ae3 0C000000 		.4byte	.LFE84
 8680 0ae7 0400     		.2byte	0x4
 8681 0ae9 F3       		.byte	0xf3
 8682 0aea 01       		.uleb128 0x1
 8683 0aeb 50       		.byte	0x50
 8684 0aec 9F       		.byte	0x9f
 8685 0aed 00000000 		.4byte	0
 8686 0af1 00000000 		.4byte	0
 8687              	.LLST85:
 8688 0af5 00000000 		.4byte	.LVL170
 8689 0af9 06000000 		.4byte	.LVL171
 8690 0afd 0100     		.2byte	0x1
 8691 0aff 50       		.byte	0x50
 8692 0b00 06000000 		.4byte	.LVL171
 8693 0b04 10000000 		.4byte	.LFE85
 8694 0b08 0400     		.2byte	0x4
 8695 0b0a F3       		.byte	0xf3
 8696 0b0b 01       		.uleb128 0x1
 8697 0b0c 50       		.byte	0x50
 8698 0b0d 9F       		.byte	0x9f
 8699 0b0e 00000000 		.4byte	0
 8700 0b12 00000000 		.4byte	0
 8701              	.LLST86:
 8702 0b16 00000000 		.4byte	.LVL172
 8703 0b1a 06000000 		.4byte	.LVL173
 8704 0b1e 0100     		.2byte	0x1
 8705 0b20 50       		.byte	0x50
 8706 0b21 06000000 		.4byte	.LVL173
 8707 0b25 10000000 		.4byte	.LFE86
 8708 0b29 0400     		.2byte	0x4
 8709 0b2b F3       		.byte	0xf3
 8710 0b2c 01       		.uleb128 0x1
 8711 0b2d 50       		.byte	0x50
 8712 0b2e 9F       		.byte	0x9f
 8713 0b2f 00000000 		.4byte	0
 8714 0b33 00000000 		.4byte	0
 8715              	.LLST87:
 8716 0b37 00000000 		.4byte	.LVL174
ARM GAS  C:\Users\gjl\AppData\Local\Temp\ccNm9gHl.s 			page 174


 8717 0b3b 06000000 		.4byte	.LVL175
 8718 0b3f 0100     		.2byte	0x1
 8719 0b41 50       		.byte	0x50
 8720 0b42 06000000 		.4byte	.LVL175
 8721 0b46 10000000 		.4byte	.LFE87
 8722 0b4a 0400     		.2byte	0x4
 8723 0b4c F3       		.byte	0xf3
 8724 0b4d 01       		.uleb128 0x1
 8725 0b4e 50       		.byte	0x50
 8726 0b4f 9F       		.byte	0x9f
 8727 0b50 00000000 		.4byte	0
 8728 0b54 00000000 		.4byte	0
 8729              	.LLST88:
 8730 0b58 00000000 		.4byte	.LVL176
 8731 0b5c 06000000 		.4byte	.LVL177
 8732 0b60 0100     		.2byte	0x1
 8733 0b62 50       		.byte	0x50
 8734 0b63 06000000 		.4byte	.LVL177
 8735 0b67 10000000 		.4byte	.LFE88
 8736 0b6b 0400     		.2byte	0x4
 8737 0b6d F3       		.byte	0xf3
 8738 0b6e 01       		.uleb128 0x1
 8739 0b6f 50       		.byte	0x50
 8740 0b70 9F       		.byte	0x9f
 8741 0b71 00000000 		.4byte	0
 8742 0b75 00000000 		.4byte	0
 8743              	.LLST89:
 8744 0b79 00000000 		.4byte	.LVL178
 8745 0b7d 06000000 		.4byte	.LVL179
 8746 0b81 0100     		.2byte	0x1
 8747 0b83 50       		.byte	0x50
 8748 0b84 06000000 		.4byte	.LVL179
 8749 0b88 10000000 		.4byte	.LFE89
 8750 0b8c 0400     		.2byte	0x4
 8751 0b8e F3       		.byte	0xf3
 8752 0b8f 01       		.uleb128 0x1
 8753 0b90 50       		.byte	0x50
 8754 0b91 9F       		.byte	0x9f
 8755 0b92 00000000 		.4byte	0
 8756 0b96 00000000 		.4byte	0
 8757              	.LLST90:
 8758 0b9a 00000000 		.4byte	.LVL180
 8759 0b9e 06000000 		.4byte	.LVL181
 8760 0ba2 0100     		.2byte	0x1
 8761 0ba4 50       		.byte	0x50
 8762 0ba5 06000000 		.4byte	.LVL181
 8763 0ba9 10000000 		.4byte	.LFE90
 8764 0bad 0400     		.2byte	0x4
 8765 0baf F3       		.byte	0xf3
 8766 0bb0 01       		.uleb128 0x1
 8767 0bb1 50       		.byte	0x50
 8768 0bb2 9F       		.byte	0x9f
 8769 0bb3 00000000 		.4byte	0
 8770 0bb7 00000000 		.4byte	0
 8771              	.LLST91:
 8772 0bbb 00000000 		.4byte	.LVL182
 8773 0bbf 06000000 		.4byte	.LVL183
ARM GAS  C:\Users\gjl\AppData\Local\Temp\ccNm9gHl.s 			page 175


 8774 0bc3 0100     		.2byte	0x1
 8775 0bc5 50       		.byte	0x50
 8776 0bc6 06000000 		.4byte	.LVL183
 8777 0bca 10000000 		.4byte	.LFE91
 8778 0bce 0400     		.2byte	0x4
 8779 0bd0 F3       		.byte	0xf3
 8780 0bd1 01       		.uleb128 0x1
 8781 0bd2 50       		.byte	0x50
 8782 0bd3 9F       		.byte	0x9f
 8783 0bd4 00000000 		.4byte	0
 8784 0bd8 00000000 		.4byte	0
 8785              	.LLST92:
 8786 0bdc 00000000 		.4byte	.LVL184
 8787 0be0 06000000 		.4byte	.LVL185
 8788 0be4 0100     		.2byte	0x1
 8789 0be6 50       		.byte	0x50
 8790 0be7 06000000 		.4byte	.LVL185
 8791 0beb 10000000 		.4byte	.LFE92
 8792 0bef 0400     		.2byte	0x4
 8793 0bf1 F3       		.byte	0xf3
 8794 0bf2 01       		.uleb128 0x1
 8795 0bf3 50       		.byte	0x50
 8796 0bf4 9F       		.byte	0x9f
 8797 0bf5 00000000 		.4byte	0
 8798 0bf9 00000000 		.4byte	0
 8799              	.LLST93:
 8800 0bfd 00000000 		.4byte	.LVL186
 8801 0c01 06000000 		.4byte	.LVL187
 8802 0c05 0100     		.2byte	0x1
 8803 0c07 50       		.byte	0x50
 8804 0c08 06000000 		.4byte	.LVL187
 8805 0c0c 10000000 		.4byte	.LFE93
 8806 0c10 0400     		.2byte	0x4
 8807 0c12 F3       		.byte	0xf3
 8808 0c13 01       		.uleb128 0x1
 8809 0c14 50       		.byte	0x50
 8810 0c15 9F       		.byte	0x9f
 8811 0c16 00000000 		.4byte	0
 8812 0c1a 00000000 		.4byte	0
 8813              	.LLST94:
 8814 0c1e 00000000 		.4byte	.LVL188
 8815 0c22 06000000 		.4byte	.LVL189
 8816 0c26 0100     		.2byte	0x1
 8817 0c28 50       		.byte	0x50
 8818 0c29 06000000 		.4byte	.LVL189
 8819 0c2d 10000000 		.4byte	.LFE94
 8820 0c31 0400     		.2byte	0x4
 8821 0c33 F3       		.byte	0xf3
 8822 0c34 01       		.uleb128 0x1
 8823 0c35 50       		.byte	0x50
 8824 0c36 9F       		.byte	0x9f
 8825 0c37 00000000 		.4byte	0
 8826 0c3b 00000000 		.4byte	0
 8827              	.LLST95:
 8828 0c3f 00000000 		.4byte	.LVL190
 8829 0c43 06000000 		.4byte	.LVL191
 8830 0c47 0100     		.2byte	0x1
ARM GAS  C:\Users\gjl\AppData\Local\Temp\ccNm9gHl.s 			page 176


 8831 0c49 50       		.byte	0x50
 8832 0c4a 06000000 		.4byte	.LVL191
 8833 0c4e 10000000 		.4byte	.LFE95
 8834 0c52 0400     		.2byte	0x4
 8835 0c54 F3       		.byte	0xf3
 8836 0c55 01       		.uleb128 0x1
 8837 0c56 50       		.byte	0x50
 8838 0c57 9F       		.byte	0x9f
 8839 0c58 00000000 		.4byte	0
 8840 0c5c 00000000 		.4byte	0
 8841              	.LLST96:
 8842 0c60 00000000 		.4byte	.LVL192
 8843 0c64 06000000 		.4byte	.LVL193
 8844 0c68 0100     		.2byte	0x1
 8845 0c6a 50       		.byte	0x50
 8846 0c6b 06000000 		.4byte	.LVL193
 8847 0c6f 10000000 		.4byte	.LFE96
 8848 0c73 0400     		.2byte	0x4
 8849 0c75 F3       		.byte	0xf3
 8850 0c76 01       		.uleb128 0x1
 8851 0c77 50       		.byte	0x50
 8852 0c78 9F       		.byte	0x9f
 8853 0c79 00000000 		.4byte	0
 8854 0c7d 00000000 		.4byte	0
 8855              	.LLST97:
 8856 0c81 00000000 		.4byte	.LVL194
 8857 0c85 06000000 		.4byte	.LVL195
 8858 0c89 0100     		.2byte	0x1
 8859 0c8b 50       		.byte	0x50
 8860 0c8c 06000000 		.4byte	.LVL195
 8861 0c90 10000000 		.4byte	.LFE97
 8862 0c94 0400     		.2byte	0x4
 8863 0c96 F3       		.byte	0xf3
 8864 0c97 01       		.uleb128 0x1
 8865 0c98 50       		.byte	0x50
 8866 0c99 9F       		.byte	0x9f
 8867 0c9a 00000000 		.4byte	0
 8868 0c9e 00000000 		.4byte	0
 8869              	.LLST98:
 8870 0ca2 00000000 		.4byte	.LVL196
 8871 0ca6 06000000 		.4byte	.LVL197
 8872 0caa 0100     		.2byte	0x1
 8873 0cac 50       		.byte	0x50
 8874 0cad 06000000 		.4byte	.LVL197
 8875 0cb1 10000000 		.4byte	.LFE98
 8876 0cb5 0400     		.2byte	0x4
 8877 0cb7 F3       		.byte	0xf3
 8878 0cb8 01       		.uleb128 0x1
 8879 0cb9 50       		.byte	0x50
 8880 0cba 9F       		.byte	0x9f
 8881 0cbb 00000000 		.4byte	0
 8882 0cbf 00000000 		.4byte	0
 8883              	.LLST99:
 8884 0cc3 00000000 		.4byte	.LVL198
 8885 0cc7 06000000 		.4byte	.LVL199
 8886 0ccb 0100     		.2byte	0x1
 8887 0ccd 50       		.byte	0x50
ARM GAS  C:\Users\gjl\AppData\Local\Temp\ccNm9gHl.s 			page 177


 8888 0cce 06000000 		.4byte	.LVL199
 8889 0cd2 10000000 		.4byte	.LFE99
 8890 0cd6 0400     		.2byte	0x4
 8891 0cd8 F3       		.byte	0xf3
 8892 0cd9 01       		.uleb128 0x1
 8893 0cda 50       		.byte	0x50
 8894 0cdb 9F       		.byte	0x9f
 8895 0cdc 00000000 		.4byte	0
 8896 0ce0 00000000 		.4byte	0
 8897              	.LLST100:
 8898 0ce4 00000000 		.4byte	.LVL200
 8899 0ce8 06000000 		.4byte	.LVL201
 8900 0cec 0100     		.2byte	0x1
 8901 0cee 50       		.byte	0x50
 8902 0cef 06000000 		.4byte	.LVL201
 8903 0cf3 10000000 		.4byte	.LFE100
 8904 0cf7 0400     		.2byte	0x4
 8905 0cf9 F3       		.byte	0xf3
 8906 0cfa 01       		.uleb128 0x1
 8907 0cfb 50       		.byte	0x50
 8908 0cfc 9F       		.byte	0x9f
 8909 0cfd 00000000 		.4byte	0
 8910 0d01 00000000 		.4byte	0
 8911              	.LLST101:
 8912 0d05 00000000 		.4byte	.LVL202
 8913 0d09 06000000 		.4byte	.LVL203
 8914 0d0d 0100     		.2byte	0x1
 8915 0d0f 50       		.byte	0x50
 8916 0d10 06000000 		.4byte	.LVL203
 8917 0d14 10000000 		.4byte	.LFE101
 8918 0d18 0400     		.2byte	0x4
 8919 0d1a F3       		.byte	0xf3
 8920 0d1b 01       		.uleb128 0x1
 8921 0d1c 50       		.byte	0x50
 8922 0d1d 9F       		.byte	0x9f
 8923 0d1e 00000000 		.4byte	0
 8924 0d22 00000000 		.4byte	0
 8925              	.LLST102:
 8926 0d26 00000000 		.4byte	.LVL204
 8927 0d2a 06000000 		.4byte	.LVL205
 8928 0d2e 0100     		.2byte	0x1
 8929 0d30 50       		.byte	0x50
 8930 0d31 06000000 		.4byte	.LVL205
 8931 0d35 10000000 		.4byte	.LFE102
 8932 0d39 0400     		.2byte	0x4
 8933 0d3b F3       		.byte	0xf3
 8934 0d3c 01       		.uleb128 0x1
 8935 0d3d 50       		.byte	0x50
 8936 0d3e 9F       		.byte	0x9f
 8937 0d3f 00000000 		.4byte	0
 8938 0d43 00000000 		.4byte	0
 8939              	.LLST103:
 8940 0d47 00000000 		.4byte	.LVL206
 8941 0d4b 06000000 		.4byte	.LVL207
 8942 0d4f 0100     		.2byte	0x1
 8943 0d51 50       		.byte	0x50
 8944 0d52 06000000 		.4byte	.LVL207
ARM GAS  C:\Users\gjl\AppData\Local\Temp\ccNm9gHl.s 			page 178


 8945 0d56 10000000 		.4byte	.LFE103
 8946 0d5a 0400     		.2byte	0x4
 8947 0d5c F3       		.byte	0xf3
 8948 0d5d 01       		.uleb128 0x1
 8949 0d5e 50       		.byte	0x50
 8950 0d5f 9F       		.byte	0x9f
 8951 0d60 00000000 		.4byte	0
 8952 0d64 00000000 		.4byte	0
 8953              	.LLST104:
 8954 0d68 00000000 		.4byte	.LVL208
 8955 0d6c 06000000 		.4byte	.LVL209
 8956 0d70 0100     		.2byte	0x1
 8957 0d72 50       		.byte	0x50
 8958 0d73 06000000 		.4byte	.LVL209
 8959 0d77 10000000 		.4byte	.LFE104
 8960 0d7b 0400     		.2byte	0x4
 8961 0d7d F3       		.byte	0xf3
 8962 0d7e 01       		.uleb128 0x1
 8963 0d7f 50       		.byte	0x50
 8964 0d80 9F       		.byte	0x9f
 8965 0d81 00000000 		.4byte	0
 8966 0d85 00000000 		.4byte	0
 8967              	.LLST105:
 8968 0d89 00000000 		.4byte	.LVL210
 8969 0d8d 06000000 		.4byte	.LVL211
 8970 0d91 0100     		.2byte	0x1
 8971 0d93 50       		.byte	0x50
 8972 0d94 06000000 		.4byte	.LVL211
 8973 0d98 10000000 		.4byte	.LFE105
 8974 0d9c 0400     		.2byte	0x4
 8975 0d9e F3       		.byte	0xf3
 8976 0d9f 01       		.uleb128 0x1
 8977 0da0 50       		.byte	0x50
 8978 0da1 9F       		.byte	0x9f
 8979 0da2 00000000 		.4byte	0
 8980 0da6 00000000 		.4byte	0
 8981              	.LLST106:
 8982 0daa 00000000 		.4byte	.LVL212
 8983 0dae 06000000 		.4byte	.LVL213
 8984 0db2 0100     		.2byte	0x1
 8985 0db4 50       		.byte	0x50
 8986 0db5 06000000 		.4byte	.LVL213
 8987 0db9 10000000 		.4byte	.LFE106
 8988 0dbd 0400     		.2byte	0x4
 8989 0dbf F3       		.byte	0xf3
 8990 0dc0 01       		.uleb128 0x1
 8991 0dc1 50       		.byte	0x50
 8992 0dc2 9F       		.byte	0x9f
 8993 0dc3 00000000 		.4byte	0
 8994 0dc7 00000000 		.4byte	0
 8995              	.LLST107:
 8996 0dcb 00000000 		.4byte	.LVL214
 8997 0dcf 06000000 		.4byte	.LVL215
 8998 0dd3 0100     		.2byte	0x1
 8999 0dd5 50       		.byte	0x50
 9000 0dd6 06000000 		.4byte	.LVL215
 9001 0dda 10000000 		.4byte	.LFE107
ARM GAS  C:\Users\gjl\AppData\Local\Temp\ccNm9gHl.s 			page 179


 9002 0dde 0400     		.2byte	0x4
 9003 0de0 F3       		.byte	0xf3
 9004 0de1 01       		.uleb128 0x1
 9005 0de2 50       		.byte	0x50
 9006 0de3 9F       		.byte	0x9f
 9007 0de4 00000000 		.4byte	0
 9008 0de8 00000000 		.4byte	0
 9009              	.LLST108:
 9010 0dec 00000000 		.4byte	.LVL216
 9011 0df0 06000000 		.4byte	.LVL217
 9012 0df4 0100     		.2byte	0x1
 9013 0df6 50       		.byte	0x50
 9014 0df7 06000000 		.4byte	.LVL217
 9015 0dfb 10000000 		.4byte	.LFE108
 9016 0dff 0400     		.2byte	0x4
 9017 0e01 F3       		.byte	0xf3
 9018 0e02 01       		.uleb128 0x1
 9019 0e03 50       		.byte	0x50
 9020 0e04 9F       		.byte	0x9f
 9021 0e05 00000000 		.4byte	0
 9022 0e09 00000000 		.4byte	0
 9023              	.LLST109:
 9024 0e0d 00000000 		.4byte	.LVL218
 9025 0e11 06000000 		.4byte	.LVL219
 9026 0e15 0100     		.2byte	0x1
 9027 0e17 50       		.byte	0x50
 9028 0e18 06000000 		.4byte	.LVL219
 9029 0e1c 0C000000 		.4byte	.LFE109
 9030 0e20 0400     		.2byte	0x4
 9031 0e22 F3       		.byte	0xf3
 9032 0e23 01       		.uleb128 0x1
 9033 0e24 50       		.byte	0x50
 9034 0e25 9F       		.byte	0x9f
 9035 0e26 00000000 		.4byte	0
 9036 0e2a 00000000 		.4byte	0
 9037              	.LLST110:
 9038 0e2e 00000000 		.4byte	.LVL220
 9039 0e32 06000000 		.4byte	.LVL221
 9040 0e36 0100     		.2byte	0x1
 9041 0e38 50       		.byte	0x50
 9042 0e39 06000000 		.4byte	.LVL221
 9043 0e3d 10000000 		.4byte	.LFE110
 9044 0e41 0400     		.2byte	0x4
 9045 0e43 F3       		.byte	0xf3
 9046 0e44 01       		.uleb128 0x1
 9047 0e45 50       		.byte	0x50
 9048 0e46 9F       		.byte	0x9f
 9049 0e47 00000000 		.4byte	0
 9050 0e4b 00000000 		.4byte	0
 9051              	.LLST111:
 9052 0e4f 00000000 		.4byte	.LVL222
 9053 0e53 06000000 		.4byte	.LVL223
 9054 0e57 0100     		.2byte	0x1
 9055 0e59 50       		.byte	0x50
 9056 0e5a 06000000 		.4byte	.LVL223
 9057 0e5e 10000000 		.4byte	.LFE111
 9058 0e62 0400     		.2byte	0x4
ARM GAS  C:\Users\gjl\AppData\Local\Temp\ccNm9gHl.s 			page 180


 9059 0e64 F3       		.byte	0xf3
 9060 0e65 01       		.uleb128 0x1
 9061 0e66 50       		.byte	0x50
 9062 0e67 9F       		.byte	0x9f
 9063 0e68 00000000 		.4byte	0
 9064 0e6c 00000000 		.4byte	0
 9065              	.LLST112:
 9066 0e70 00000000 		.4byte	.LVL224
 9067 0e74 06000000 		.4byte	.LVL225
 9068 0e78 0100     		.2byte	0x1
 9069 0e7a 50       		.byte	0x50
 9070 0e7b 06000000 		.4byte	.LVL225
 9071 0e7f 10000000 		.4byte	.LFE112
 9072 0e83 0400     		.2byte	0x4
 9073 0e85 F3       		.byte	0xf3
 9074 0e86 01       		.uleb128 0x1
 9075 0e87 50       		.byte	0x50
 9076 0e88 9F       		.byte	0x9f
 9077 0e89 00000000 		.4byte	0
 9078 0e8d 00000000 		.4byte	0
 9079              	.LLST113:
 9080 0e91 00000000 		.4byte	.LVL226
 9081 0e95 06000000 		.4byte	.LVL227
 9082 0e99 0100     		.2byte	0x1
 9083 0e9b 50       		.byte	0x50
 9084 0e9c 06000000 		.4byte	.LVL227
 9085 0ea0 10000000 		.4byte	.LFE113
 9086 0ea4 0400     		.2byte	0x4
 9087 0ea6 F3       		.byte	0xf3
 9088 0ea7 01       		.uleb128 0x1
 9089 0ea8 50       		.byte	0x50
 9090 0ea9 9F       		.byte	0x9f
 9091 0eaa 00000000 		.4byte	0
 9092 0eae 00000000 		.4byte	0
 9093              		.section	.debug_aranges,"",%progbits
 9094 0000 A4030000 		.4byte	0x3a4
 9095 0004 0200     		.2byte	0x2
 9096 0006 00000000 		.4byte	.Ldebug_info0
 9097 000a 04       		.byte	0x4
 9098 000b 00       		.byte	0
 9099 000c 0000     		.2byte	0
 9100 000e 0000     		.2byte	0
 9101 0010 00000000 		.4byte	.LFB0
 9102 0014 0C000000 		.4byte	.LFE0-.LFB0
 9103 0018 00000000 		.4byte	.LFB1
 9104 001c 0C000000 		.4byte	.LFE1-.LFB1
 9105 0020 00000000 		.4byte	.LFB2
 9106 0024 0C000000 		.4byte	.LFE2-.LFB2
 9107 0028 00000000 		.4byte	.LFB3
 9108 002c 0C000000 		.4byte	.LFE3-.LFB3
 9109 0030 00000000 		.4byte	.LFB4
 9110 0034 0C000000 		.4byte	.LFE4-.LFB4
 9111 0038 00000000 		.4byte	.LFB5
 9112 003c 0C000000 		.4byte	.LFE5-.LFB5
 9113 0040 00000000 		.4byte	.LFB6
 9114 0044 0C000000 		.4byte	.LFE6-.LFB6
 9115 0048 00000000 		.4byte	.LFB7
ARM GAS  C:\Users\gjl\AppData\Local\Temp\ccNm9gHl.s 			page 181


 9116 004c 0C000000 		.4byte	.LFE7-.LFB7
 9117 0050 00000000 		.4byte	.LFB8
 9118 0054 0C000000 		.4byte	.LFE8-.LFB8
 9119 0058 00000000 		.4byte	.LFB9
 9120 005c 0C000000 		.4byte	.LFE9-.LFB9
 9121 0060 00000000 		.4byte	.LFB10
 9122 0064 10000000 		.4byte	.LFE10-.LFB10
 9123 0068 00000000 		.4byte	.LFB11
 9124 006c 10000000 		.4byte	.LFE11-.LFB11
 9125 0070 00000000 		.4byte	.LFB12
 9126 0074 10000000 		.4byte	.LFE12-.LFB12
 9127 0078 00000000 		.4byte	.LFB13
 9128 007c 10000000 		.4byte	.LFE13-.LFB13
 9129 0080 00000000 		.4byte	.LFB14
 9130 0084 10000000 		.4byte	.LFE14-.LFB14
 9131 0088 00000000 		.4byte	.LFB15
 9132 008c 10000000 		.4byte	.LFE15-.LFB15
 9133 0090 00000000 		.4byte	.LFB16
 9134 0094 10000000 		.4byte	.LFE16-.LFB16
 9135 0098 00000000 		.4byte	.LFB17
 9136 009c 10000000 		.4byte	.LFE17-.LFB17
 9137 00a0 00000000 		.4byte	.LFB18
 9138 00a4 10000000 		.4byte	.LFE18-.LFB18
 9139 00a8 00000000 		.4byte	.LFB19
 9140 00ac 10000000 		.4byte	.LFE19-.LFB19
 9141 00b0 00000000 		.4byte	.LFB20
 9142 00b4 10000000 		.4byte	.LFE20-.LFB20
 9143 00b8 00000000 		.4byte	.LFB21
 9144 00bc 10000000 		.4byte	.LFE21-.LFB21
 9145 00c0 00000000 		.4byte	.LFB22
 9146 00c4 10000000 		.4byte	.LFE22-.LFB22
 9147 00c8 00000000 		.4byte	.LFB23
 9148 00cc 10000000 		.4byte	.LFE23-.LFB23
 9149 00d0 00000000 		.4byte	.LFB24
 9150 00d4 10000000 		.4byte	.LFE24-.LFB24
 9151 00d8 00000000 		.4byte	.LFB25
 9152 00dc 10000000 		.4byte	.LFE25-.LFB25
 9153 00e0 00000000 		.4byte	.LFB26
 9154 00e4 10000000 		.4byte	.LFE26-.LFB26
 9155 00e8 00000000 		.4byte	.LFB27
 9156 00ec 10000000 		.4byte	.LFE27-.LFB27
 9157 00f0 00000000 		.4byte	.LFB28
 9158 00f4 10000000 		.4byte	.LFE28-.LFB28
 9159 00f8 00000000 		.4byte	.LFB29
 9160 00fc 10000000 		.4byte	.LFE29-.LFB29
 9161 0100 00000000 		.4byte	.LFB30
 9162 0104 10000000 		.4byte	.LFE30-.LFB30
 9163 0108 00000000 		.4byte	.LFB31
 9164 010c 10000000 		.4byte	.LFE31-.LFB31
 9165 0110 00000000 		.4byte	.LFB32
 9166 0114 10000000 		.4byte	.LFE32-.LFB32
 9167 0118 00000000 		.4byte	.LFB33
 9168 011c 10000000 		.4byte	.LFE33-.LFB33
 9169 0120 00000000 		.4byte	.LFB34
 9170 0124 10000000 		.4byte	.LFE34-.LFB34
 9171 0128 00000000 		.4byte	.LFB35
 9172 012c 10000000 		.4byte	.LFE35-.LFB35
ARM GAS  C:\Users\gjl\AppData\Local\Temp\ccNm9gHl.s 			page 182


 9173 0130 00000000 		.4byte	.LFB36
 9174 0134 10000000 		.4byte	.LFE36-.LFB36
 9175 0138 00000000 		.4byte	.LFB37
 9176 013c 10000000 		.4byte	.LFE37-.LFB37
 9177 0140 00000000 		.4byte	.LFB38
 9178 0144 10000000 		.4byte	.LFE38-.LFB38
 9179 0148 00000000 		.4byte	.LFB39
 9180 014c 10000000 		.4byte	.LFE39-.LFB39
 9181 0150 00000000 		.4byte	.LFB40
 9182 0154 10000000 		.4byte	.LFE40-.LFB40
 9183 0158 00000000 		.4byte	.LFB41
 9184 015c 10000000 		.4byte	.LFE41-.LFB41
 9185 0160 00000000 		.4byte	.LFB42
 9186 0164 10000000 		.4byte	.LFE42-.LFB42
 9187 0168 00000000 		.4byte	.LFB43
 9188 016c 10000000 		.4byte	.LFE43-.LFB43
 9189 0170 00000000 		.4byte	.LFB44
 9190 0174 10000000 		.4byte	.LFE44-.LFB44
 9191 0178 00000000 		.4byte	.LFB45
 9192 017c 10000000 		.4byte	.LFE45-.LFB45
 9193 0180 00000000 		.4byte	.LFB46
 9194 0184 10000000 		.4byte	.LFE46-.LFB46
 9195 0188 00000000 		.4byte	.LFB47
 9196 018c 10000000 		.4byte	.LFE47-.LFB47
 9197 0190 00000000 		.4byte	.LFB48
 9198 0194 10000000 		.4byte	.LFE48-.LFB48
 9199 0198 00000000 		.4byte	.LFB49
 9200 019c 10000000 		.4byte	.LFE49-.LFB49
 9201 01a0 00000000 		.4byte	.LFB50
 9202 01a4 0C000000 		.4byte	.LFE50-.LFB50
 9203 01a8 00000000 		.4byte	.LFB51
 9204 01ac 0C000000 		.4byte	.LFE51-.LFB51
 9205 01b0 00000000 		.4byte	.LFB52
 9206 01b4 10000000 		.4byte	.LFE52-.LFB52
 9207 01b8 00000000 		.4byte	.LFB53
 9208 01bc 10000000 		.4byte	.LFE53-.LFB53
 9209 01c0 00000000 		.4byte	.LFB54
 9210 01c4 0C000000 		.4byte	.LFE54-.LFB54
 9211 01c8 00000000 		.4byte	.LFB55
 9212 01cc 10000000 		.4byte	.LFE55-.LFB55
 9213 01d0 00000000 		.4byte	.LFB56
 9214 01d4 10000000 		.4byte	.LFE56-.LFB56
 9215 01d8 00000000 		.4byte	.LFB57
 9216 01dc 10000000 		.4byte	.LFE57-.LFB57
 9217 01e0 00000000 		.4byte	.LFB58
 9218 01e4 10000000 		.4byte	.LFE58-.LFB58
 9219 01e8 00000000 		.4byte	.LFB59
 9220 01ec 10000000 		.4byte	.LFE59-.LFB59
 9221 01f0 00000000 		.4byte	.LFB60
 9222 01f4 10000000 		.4byte	.LFE60-.LFB60
 9223 01f8 00000000 		.4byte	.LFB61
 9224 01fc 10000000 		.4byte	.LFE61-.LFB61
 9225 0200 00000000 		.4byte	.LFB62
 9226 0204 10000000 		.4byte	.LFE62-.LFB62
 9227 0208 00000000 		.4byte	.LFB63
 9228 020c 10000000 		.4byte	.LFE63-.LFB63
 9229 0210 00000000 		.4byte	.LFB64
ARM GAS  C:\Users\gjl\AppData\Local\Temp\ccNm9gHl.s 			page 183


 9230 0214 10000000 		.4byte	.LFE64-.LFB64
 9231 0218 00000000 		.4byte	.LFB65
 9232 021c 10000000 		.4byte	.LFE65-.LFB65
 9233 0220 00000000 		.4byte	.LFB66
 9234 0224 10000000 		.4byte	.LFE66-.LFB66
 9235 0228 00000000 		.4byte	.LFB67
 9236 022c 10000000 		.4byte	.LFE67-.LFB67
 9237 0230 00000000 		.4byte	.LFB68
 9238 0234 10000000 		.4byte	.LFE68-.LFB68
 9239 0238 00000000 		.4byte	.LFB69
 9240 023c 10000000 		.4byte	.LFE69-.LFB69
 9241 0240 00000000 		.4byte	.LFB70
 9242 0244 10000000 		.4byte	.LFE70-.LFB70
 9243 0248 00000000 		.4byte	.LFB71
 9244 024c 10000000 		.4byte	.LFE71-.LFB71
 9245 0250 00000000 		.4byte	.LFB72
 9246 0254 10000000 		.4byte	.LFE72-.LFB72
 9247 0258 00000000 		.4byte	.LFB73
 9248 025c 10000000 		.4byte	.LFE73-.LFB73
 9249 0260 00000000 		.4byte	.LFB74
 9250 0264 10000000 		.4byte	.LFE74-.LFB74
 9251 0268 00000000 		.4byte	.LFB75
 9252 026c 10000000 		.4byte	.LFE75-.LFB75
 9253 0270 00000000 		.4byte	.LFB76
 9254 0274 10000000 		.4byte	.LFE76-.LFB76
 9255 0278 00000000 		.4byte	.LFB77
 9256 027c 10000000 		.4byte	.LFE77-.LFB77
 9257 0280 00000000 		.4byte	.LFB78
 9258 0284 10000000 		.4byte	.LFE78-.LFB78
 9259 0288 00000000 		.4byte	.LFB79
 9260 028c 10000000 		.4byte	.LFE79-.LFB79
 9261 0290 00000000 		.4byte	.LFB80
 9262 0294 10000000 		.4byte	.LFE80-.LFB80
 9263 0298 00000000 		.4byte	.LFB81
 9264 029c 10000000 		.4byte	.LFE81-.LFB81
 9265 02a0 00000000 		.4byte	.LFB82
 9266 02a4 0C000000 		.4byte	.LFE82-.LFB82
 9267 02a8 00000000 		.4byte	.LFB83
 9268 02ac 10000000 		.4byte	.LFE83-.LFB83
 9269 02b0 00000000 		.4byte	.LFB84
 9270 02b4 0C000000 		.4byte	.LFE84-.LFB84
 9271 02b8 00000000 		.4byte	.LFB85
 9272 02bc 10000000 		.4byte	.LFE85-.LFB85
 9273 02c0 00000000 		.4byte	.LFB86
 9274 02c4 10000000 		.4byte	.LFE86-.LFB86
 9275 02c8 00000000 		.4byte	.LFB87
 9276 02cc 10000000 		.4byte	.LFE87-.LFB87
 9277 02d0 00000000 		.4byte	.LFB88
 9278 02d4 10000000 		.4byte	.LFE88-.LFB88
 9279 02d8 00000000 		.4byte	.LFB89
 9280 02dc 10000000 		.4byte	.LFE89-.LFB89
 9281 02e0 00000000 		.4byte	.LFB90
 9282 02e4 10000000 		.4byte	.LFE90-.LFB90
 9283 02e8 00000000 		.4byte	.LFB91
 9284 02ec 10000000 		.4byte	.LFE91-.LFB91
 9285 02f0 00000000 		.4byte	.LFB92
 9286 02f4 10000000 		.4byte	.LFE92-.LFB92
ARM GAS  C:\Users\gjl\AppData\Local\Temp\ccNm9gHl.s 			page 184


 9287 02f8 00000000 		.4byte	.LFB93
 9288 02fc 10000000 		.4byte	.LFE93-.LFB93
 9289 0300 00000000 		.4byte	.LFB94
 9290 0304 10000000 		.4byte	.LFE94-.LFB94
 9291 0308 00000000 		.4byte	.LFB95
 9292 030c 10000000 		.4byte	.LFE95-.LFB95
 9293 0310 00000000 		.4byte	.LFB96
 9294 0314 10000000 		.4byte	.LFE96-.LFB96
 9295 0318 00000000 		.4byte	.LFB97
 9296 031c 10000000 		.4byte	.LFE97-.LFB97
 9297 0320 00000000 		.4byte	.LFB98
 9298 0324 10000000 		.4byte	.LFE98-.LFB98
 9299 0328 00000000 		.4byte	.LFB99
 9300 032c 10000000 		.4byte	.LFE99-.LFB99
 9301 0330 00000000 		.4byte	.LFB100
 9302 0334 10000000 		.4byte	.LFE100-.LFB100
 9303 0338 00000000 		.4byte	.LFB101
 9304 033c 10000000 		.4byte	.LFE101-.LFB101
 9305 0340 00000000 		.4byte	.LFB102
 9306 0344 10000000 		.4byte	.LFE102-.LFB102
 9307 0348 00000000 		.4byte	.LFB103
 9308 034c 10000000 		.4byte	.LFE103-.LFB103
 9309 0350 00000000 		.4byte	.LFB104
 9310 0354 10000000 		.4byte	.LFE104-.LFB104
 9311 0358 00000000 		.4byte	.LFB105
 9312 035c 10000000 		.4byte	.LFE105-.LFB105
 9313 0360 00000000 		.4byte	.LFB106
 9314 0364 10000000 		.4byte	.LFE106-.LFB106
 9315 0368 00000000 		.4byte	.LFB107
 9316 036c 10000000 		.4byte	.LFE107-.LFB107
 9317 0370 00000000 		.4byte	.LFB108
 9318 0374 10000000 		.4byte	.LFE108-.LFB108
 9319 0378 00000000 		.4byte	.LFB109
 9320 037c 0C000000 		.4byte	.LFE109-.LFB109
 9321 0380 00000000 		.4byte	.LFB110
 9322 0384 10000000 		.4byte	.LFE110-.LFB110
 9323 0388 00000000 		.4byte	.LFB111
 9324 038c 10000000 		.4byte	.LFE111-.LFB111
 9325 0390 00000000 		.4byte	.LFB112
 9326 0394 10000000 		.4byte	.LFE112-.LFB112
 9327 0398 00000000 		.4byte	.LFB113
 9328 039c 10000000 		.4byte	.LFE113-.LFB113
 9329 03a0 00000000 		.4byte	0
 9330 03a4 00000000 		.4byte	0
 9331              		.section	.debug_ranges,"",%progbits
 9332              	.Ldebug_ranges0:
 9333 0000 00000000 		.4byte	.LFB0
 9334 0004 0C000000 		.4byte	.LFE0
 9335 0008 00000000 		.4byte	.LFB1
 9336 000c 0C000000 		.4byte	.LFE1
 9337 0010 00000000 		.4byte	.LFB2
 9338 0014 0C000000 		.4byte	.LFE2
 9339 0018 00000000 		.4byte	.LFB3
 9340 001c 0C000000 		.4byte	.LFE3
 9341 0020 00000000 		.4byte	.LFB4
 9342 0024 0C000000 		.4byte	.LFE4
 9343 0028 00000000 		.4byte	.LFB5
ARM GAS  C:\Users\gjl\AppData\Local\Temp\ccNm9gHl.s 			page 185


 9344 002c 0C000000 		.4byte	.LFE5
 9345 0030 00000000 		.4byte	.LFB6
 9346 0034 0C000000 		.4byte	.LFE6
 9347 0038 00000000 		.4byte	.LFB7
 9348 003c 0C000000 		.4byte	.LFE7
 9349 0040 00000000 		.4byte	.LFB8
 9350 0044 0C000000 		.4byte	.LFE8
 9351 0048 00000000 		.4byte	.LFB9
 9352 004c 0C000000 		.4byte	.LFE9
 9353 0050 00000000 		.4byte	.LFB10
 9354 0054 10000000 		.4byte	.LFE10
 9355 0058 00000000 		.4byte	.LFB11
 9356 005c 10000000 		.4byte	.LFE11
 9357 0060 00000000 		.4byte	.LFB12
 9358 0064 10000000 		.4byte	.LFE12
 9359 0068 00000000 		.4byte	.LFB13
 9360 006c 10000000 		.4byte	.LFE13
 9361 0070 00000000 		.4byte	.LFB14
 9362 0074 10000000 		.4byte	.LFE14
 9363 0078 00000000 		.4byte	.LFB15
 9364 007c 10000000 		.4byte	.LFE15
 9365 0080 00000000 		.4byte	.LFB16
 9366 0084 10000000 		.4byte	.LFE16
 9367 0088 00000000 		.4byte	.LFB17
 9368 008c 10000000 		.4byte	.LFE17
 9369 0090 00000000 		.4byte	.LFB18
 9370 0094 10000000 		.4byte	.LFE18
 9371 0098 00000000 		.4byte	.LFB19
 9372 009c 10000000 		.4byte	.LFE19
 9373 00a0 00000000 		.4byte	.LFB20
 9374 00a4 10000000 		.4byte	.LFE20
 9375 00a8 00000000 		.4byte	.LFB21
 9376 00ac 10000000 		.4byte	.LFE21
 9377 00b0 00000000 		.4byte	.LFB22
 9378 00b4 10000000 		.4byte	.LFE22
 9379 00b8 00000000 		.4byte	.LFB23
 9380 00bc 10000000 		.4byte	.LFE23
 9381 00c0 00000000 		.4byte	.LFB24
 9382 00c4 10000000 		.4byte	.LFE24
 9383 00c8 00000000 		.4byte	.LFB25
 9384 00cc 10000000 		.4byte	.LFE25
 9385 00d0 00000000 		.4byte	.LFB26
 9386 00d4 10000000 		.4byte	.LFE26
 9387 00d8 00000000 		.4byte	.LFB27
 9388 00dc 10000000 		.4byte	.LFE27
 9389 00e0 00000000 		.4byte	.LFB28
 9390 00e4 10000000 		.4byte	.LFE28
 9391 00e8 00000000 		.4byte	.LFB29
 9392 00ec 10000000 		.4byte	.LFE29
 9393 00f0 00000000 		.4byte	.LFB30
 9394 00f4 10000000 		.4byte	.LFE30
 9395 00f8 00000000 		.4byte	.LFB31
 9396 00fc 10000000 		.4byte	.LFE31
 9397 0100 00000000 		.4byte	.LFB32
 9398 0104 10000000 		.4byte	.LFE32
 9399 0108 00000000 		.4byte	.LFB33
 9400 010c 10000000 		.4byte	.LFE33
ARM GAS  C:\Users\gjl\AppData\Local\Temp\ccNm9gHl.s 			page 186


 9401 0110 00000000 		.4byte	.LFB34
 9402 0114 10000000 		.4byte	.LFE34
 9403 0118 00000000 		.4byte	.LFB35
 9404 011c 10000000 		.4byte	.LFE35
 9405 0120 00000000 		.4byte	.LFB36
 9406 0124 10000000 		.4byte	.LFE36
 9407 0128 00000000 		.4byte	.LFB37
 9408 012c 10000000 		.4byte	.LFE37
 9409 0130 00000000 		.4byte	.LFB38
 9410 0134 10000000 		.4byte	.LFE38
 9411 0138 00000000 		.4byte	.LFB39
 9412 013c 10000000 		.4byte	.LFE39
 9413 0140 00000000 		.4byte	.LFB40
 9414 0144 10000000 		.4byte	.LFE40
 9415 0148 00000000 		.4byte	.LFB41
 9416 014c 10000000 		.4byte	.LFE41
 9417 0150 00000000 		.4byte	.LFB42
 9418 0154 10000000 		.4byte	.LFE42
 9419 0158 00000000 		.4byte	.LFB43
 9420 015c 10000000 		.4byte	.LFE43
 9421 0160 00000000 		.4byte	.LFB44
 9422 0164 10000000 		.4byte	.LFE44
 9423 0168 00000000 		.4byte	.LFB45
 9424 016c 10000000 		.4byte	.LFE45
 9425 0170 00000000 		.4byte	.LFB46
 9426 0174 10000000 		.4byte	.LFE46
 9427 0178 00000000 		.4byte	.LFB47
 9428 017c 10000000 		.4byte	.LFE47
 9429 0180 00000000 		.4byte	.LFB48
 9430 0184 10000000 		.4byte	.LFE48
 9431 0188 00000000 		.4byte	.LFB49
 9432 018c 10000000 		.4byte	.LFE49
 9433 0190 00000000 		.4byte	.LFB50
 9434 0194 0C000000 		.4byte	.LFE50
 9435 0198 00000000 		.4byte	.LFB51
 9436 019c 0C000000 		.4byte	.LFE51
 9437 01a0 00000000 		.4byte	.LFB52
 9438 01a4 10000000 		.4byte	.LFE52
 9439 01a8 00000000 		.4byte	.LFB53
 9440 01ac 10000000 		.4byte	.LFE53
 9441 01b0 00000000 		.4byte	.LFB54
 9442 01b4 0C000000 		.4byte	.LFE54
 9443 01b8 00000000 		.4byte	.LFB55
 9444 01bc 10000000 		.4byte	.LFE55
 9445 01c0 00000000 		.4byte	.LFB56
 9446 01c4 10000000 		.4byte	.LFE56
 9447 01c8 00000000 		.4byte	.LFB57
 9448 01cc 10000000 		.4byte	.LFE57
 9449 01d0 00000000 		.4byte	.LFB58
 9450 01d4 10000000 		.4byte	.LFE58
 9451 01d8 00000000 		.4byte	.LFB59
 9452 01dc 10000000 		.4byte	.LFE59
 9453 01e0 00000000 		.4byte	.LFB60
 9454 01e4 10000000 		.4byte	.LFE60
 9455 01e8 00000000 		.4byte	.LFB61
 9456 01ec 10000000 		.4byte	.LFE61
 9457 01f0 00000000 		.4byte	.LFB62
ARM GAS  C:\Users\gjl\AppData\Local\Temp\ccNm9gHl.s 			page 187


 9458 01f4 10000000 		.4byte	.LFE62
 9459 01f8 00000000 		.4byte	.LFB63
 9460 01fc 10000000 		.4byte	.LFE63
 9461 0200 00000000 		.4byte	.LFB64
 9462 0204 10000000 		.4byte	.LFE64
 9463 0208 00000000 		.4byte	.LFB65
 9464 020c 10000000 		.4byte	.LFE65
 9465 0210 00000000 		.4byte	.LFB66
 9466 0214 10000000 		.4byte	.LFE66
 9467 0218 00000000 		.4byte	.LFB67
 9468 021c 10000000 		.4byte	.LFE67
 9469 0220 00000000 		.4byte	.LFB68
 9470 0224 10000000 		.4byte	.LFE68
 9471 0228 00000000 		.4byte	.LFB69
 9472 022c 10000000 		.4byte	.LFE69
 9473 0230 00000000 		.4byte	.LFB70
 9474 0234 10000000 		.4byte	.LFE70
 9475 0238 00000000 		.4byte	.LFB71
 9476 023c 10000000 		.4byte	.LFE71
 9477 0240 00000000 		.4byte	.LFB72
 9478 0244 10000000 		.4byte	.LFE72
 9479 0248 00000000 		.4byte	.LFB73
 9480 024c 10000000 		.4byte	.LFE73
 9481 0250 00000000 		.4byte	.LFB74
 9482 0254 10000000 		.4byte	.LFE74
 9483 0258 00000000 		.4byte	.LFB75
 9484 025c 10000000 		.4byte	.LFE75
 9485 0260 00000000 		.4byte	.LFB76
 9486 0264 10000000 		.4byte	.LFE76
 9487 0268 00000000 		.4byte	.LFB77
 9488 026c 10000000 		.4byte	.LFE77
 9489 0270 00000000 		.4byte	.LFB78
 9490 0274 10000000 		.4byte	.LFE78
 9491 0278 00000000 		.4byte	.LFB79
 9492 027c 10000000 		.4byte	.LFE79
 9493 0280 00000000 		.4byte	.LFB80
 9494 0284 10000000 		.4byte	.LFE80
 9495 0288 00000000 		.4byte	.LFB81
 9496 028c 10000000 		.4byte	.LFE81
 9497 0290 00000000 		.4byte	.LFB82
 9498 0294 0C000000 		.4byte	.LFE82
 9499 0298 00000000 		.4byte	.LFB83
 9500 029c 10000000 		.4byte	.LFE83
 9501 02a0 00000000 		.4byte	.LFB84
 9502 02a4 0C000000 		.4byte	.LFE84
 9503 02a8 00000000 		.4byte	.LFB85
 9504 02ac 10000000 		.4byte	.LFE85
 9505 02b0 00000000 		.4byte	.LFB86
 9506 02b4 10000000 		.4byte	.LFE86
 9507 02b8 00000000 		.4byte	.LFB87
 9508 02bc 10000000 		.4byte	.LFE87
 9509 02c0 00000000 		.4byte	.LFB88
 9510 02c4 10000000 		.4byte	.LFE88
 9511 02c8 00000000 		.4byte	.LFB89
 9512 02cc 10000000 		.4byte	.LFE89
 9513 02d0 00000000 		.4byte	.LFB90
 9514 02d4 10000000 		.4byte	.LFE90
ARM GAS  C:\Users\gjl\AppData\Local\Temp\ccNm9gHl.s 			page 188


 9515 02d8 00000000 		.4byte	.LFB91
 9516 02dc 10000000 		.4byte	.LFE91
 9517 02e0 00000000 		.4byte	.LFB92
 9518 02e4 10000000 		.4byte	.LFE92
 9519 02e8 00000000 		.4byte	.LFB93
 9520 02ec 10000000 		.4byte	.LFE93
 9521 02f0 00000000 		.4byte	.LFB94
 9522 02f4 10000000 		.4byte	.LFE94
 9523 02f8 00000000 		.4byte	.LFB95
 9524 02fc 10000000 		.4byte	.LFE95
 9525 0300 00000000 		.4byte	.LFB96
 9526 0304 10000000 		.4byte	.LFE96
 9527 0308 00000000 		.4byte	.LFB97
 9528 030c 10000000 		.4byte	.LFE97
 9529 0310 00000000 		.4byte	.LFB98
 9530 0314 10000000 		.4byte	.LFE98
 9531 0318 00000000 		.4byte	.LFB99
 9532 031c 10000000 		.4byte	.LFE99
 9533 0320 00000000 		.4byte	.LFB100
 9534 0324 10000000 		.4byte	.LFE100
 9535 0328 00000000 		.4byte	.LFB101
 9536 032c 10000000 		.4byte	.LFE101
 9537 0330 00000000 		.4byte	.LFB102
 9538 0334 10000000 		.4byte	.LFE102
 9539 0338 00000000 		.4byte	.LFB103
 9540 033c 10000000 		.4byte	.LFE103
 9541 0340 00000000 		.4byte	.LFB104
 9542 0344 10000000 		.4byte	.LFE104
 9543 0348 00000000 		.4byte	.LFB105
 9544 034c 10000000 		.4byte	.LFE105
 9545 0350 00000000 		.4byte	.LFB106
 9546 0354 10000000 		.4byte	.LFE106
 9547 0358 00000000 		.4byte	.LFB107
 9548 035c 10000000 		.4byte	.LFE107
 9549 0360 00000000 		.4byte	.LFB108
 9550 0364 10000000 		.4byte	.LFE108
 9551 0368 00000000 		.4byte	.LFB109
 9552 036c 0C000000 		.4byte	.LFE109
 9553 0370 00000000 		.4byte	.LFB110
 9554 0374 10000000 		.4byte	.LFE110
 9555 0378 00000000 		.4byte	.LFB111
 9556 037c 10000000 		.4byte	.LFE111
 9557 0380 00000000 		.4byte	.LFB112
 9558 0384 10000000 		.4byte	.LFE112
 9559 0388 00000000 		.4byte	.LFB113
 9560 038c 10000000 		.4byte	.LFE113
 9561 0390 00000000 		.4byte	0
 9562 0394 00000000 		.4byte	0
 9563              		.section	.debug_line,"",%progbits
 9564              	.Ldebug_line0:
 9565 0000 90090000 		.section	.debug_str,"MS",%progbits,1
 9565      02003001 
 9565      00000201 
 9565      FB0E0D00 
 9565      01010101 
 9566              	.LASF76:
 9567 0000 75386732 		.ascii	"u8g2_m_st7565_17_f\000"
ARM GAS  C:\Users\gjl\AppData\Local\Temp\ccNm9gHl.s 			page 189


 9567      5F6D5F73 
 9567      74373536 
 9567      355F3137 
 9567      5F6600
 9568              	.LASF116:
 9569 0013 75386732 		.ascii	"u8g2_m_ssd1607_25_1\000"
 9569      5F6D5F73 
 9569      73643136 
 9569      30375F32 
 9569      355F3100 
 9570              	.LASF117:
 9571 0027 75386732 		.ascii	"u8g2_m_ssd1607_25_2\000"
 9571      5F6D5F73 
 9571      73643136 
 9571      30375F32 
 9571      355F3200 
 9572              	.LASF119:
 9573 003b 75386732 		.ascii	"u8g2_m_sed1330_30_1\000"
 9573      5F6D5F73 
 9573      65643133 
 9573      33305F33 
 9573      305F3100 
 9574              	.LASF120:
 9575 004f 75386732 		.ascii	"u8g2_m_sed1330_30_2\000"
 9575      5F6D5F73 
 9575      65643133 
 9575      33305F33 
 9575      305F3200 
 9576              	.LASF35:
 9577 0063 75386732 		.ascii	"u8g2_m_ld7032_8_1\000"
 9577      5F6D5F6C 
 9577      64373033 
 9577      325F385F 
 9577      3100
 9578              	.LASF36:
 9579 0075 75386732 		.ascii	"u8g2_m_ld7032_8_2\000"
 9579      5F6D5F6C 
 9579      64373033 
 9579      325F385F 
 9579      3200
 9580              	.LASF58:
 9581 0087 75386732 		.ascii	"u8g2_m_pcf8812_12_f\000"
 9581      5F6D5F70 
 9581      63663838 
 9581      31325F31 
 9581      325F6600 
 9582              	.LASF9:
 9583 009b 5F5F7569 		.ascii	"__uint8_t\000"
 9583      6E74385F 
 9583      7400
 9584              	.LASF109:
 9585 00a5 75386732 		.ascii	"u8g2_m_t6963_16_f\000"
 9585      5F6D5F74 
 9585      36393633 
 9585      5F31365F 
 9585      6600
 9586              	.LASF91:
ARM GAS  C:\Users\gjl\AppData\Local\Temp\ccNm9gHl.s 			page 190


 9587 00b7 75386732 		.ascii	"u8g2_m_ks0108_16_f\000"
 9587      5F6D5F6B 
 9587      73303130 
 9587      385F3136 
 9587      5F6600
 9588              	.LASF128:
 9589 00ca 474E5520 		.ascii	"GNU C11 5.4.1 20160609 (release) [ARM/embedded-5-br"
 9589      43313120 
 9589      352E342E 
 9589      31203230 
 9589      31363036 
 9590 00fd 616E6368 		.ascii	"anch revision 237715] -mcpu=cortex-m0 -mthumb -g -O"
 9590      20726576 
 9590      6973696F 
 9590      6E203233 
 9590      37373135 
 9591 0130 67202D66 		.ascii	"g -ffunction-sections -ffat-lto-objects\000"
 9591      66756E63 
 9591      74696F6E 
 9591      2D736563 
 9591      74696F6E 
 9592              	.LASF88:
 9593 0158 75386732 		.ascii	"u8g2_m_ist3020_24_f\000"
 9593      5F6D5F69 
 9593      73743330 
 9593      32305F32 
 9593      345F6600 
 9594              	.LASF77:
 9595 016c 75386732 		.ascii	"u8g2_m_st7567_17_1\000"
 9595      5F6D5F73 
 9595      74373536 
 9595      375F3137 
 9595      5F3100
 9596              	.LASF26:
 9597 017f 75386732 		.ascii	"u8g2_m_ssd1309_16_1\000"
 9597      5F6D5F73 
 9597      73643133 
 9597      30395F31 
 9597      365F3100 
 9598              	.LASF27:
 9599 0193 75386732 		.ascii	"u8g2_m_ssd1309_16_2\000"
 9599      5F6D5F73 
 9599      73643133 
 9599      30395F31 
 9599      365F3200 
 9600              	.LASF7:
 9601 01a7 6C6F6E67 		.ascii	"long long unsigned int\000"
 9601      206C6F6E 
 9601      6720756E 
 9601      7369676E 
 9601      65642069 
 9602              	.LASF61:
 9603 01be 75386732 		.ascii	"u8g2_m_uc1604_24_f\000"
 9603      5F6D5F75 
 9603      63313630 
 9603      345F3234 
 9603      5F6600
ARM GAS  C:\Users\gjl\AppData\Local\Temp\ccNm9gHl.s 			page 191


 9604              	.LASF118:
 9605 01d1 75386732 		.ascii	"u8g2_m_ssd1607_25_f\000"
 9605      5F6D5F73 
 9605      73643136 
 9605      30375F32 
 9605      355F6600 
 9606              	.LASF121:
 9607 01e5 75386732 		.ascii	"u8g2_m_sed1330_30_f\000"
 9607      5F6D5F73 
 9607      65643133 
 9607      33305F33 
 9607      305F6600 
 9608              	.LASF37:
 9609 01f9 75386732 		.ascii	"u8g2_m_ld7032_8_f\000"
 9609      5F6D5F6C 
 9609      64373033 
 9609      325F385F 
 9609      6600
 9610              	.LASF113:
 9611 020b 75386732 		.ascii	"u8g2_m_ssd1606_22_1\000"
 9611      5F6D5F73 
 9611      73643136 
 9611      30365F32 
 9611      325F3100 
 9612              	.LASF114:
 9613 021f 75386732 		.ascii	"u8g2_m_ssd1606_22_2\000"
 9613      5F6D5F73 
 9613      73643136 
 9613      30365F32 
 9613      325F3200 
 9614              	.LASF81:
 9615 0233 75386732 		.ascii	"u8g2_m_st7588_16_2\000"
 9615      5F6D5F73 
 9615      74373538 
 9615      385F3136 
 9615      5F3200
 9616              	.LASF6:
 9617 0246 6C6F6E67 		.ascii	"long long int\000"
 9617      206C6F6E 
 9617      6720696E 
 9617      7400
 9618              	.LASF0:
 9619 0254 7369676E 		.ascii	"signed char\000"
 9619      65642063 
 9619      68617200 
 9620              	.LASF129:
 9621 0260 2E2E5C75 		.ascii	"..\\u8g2\\csrc\\u8g2_d_memory.c\000"
 9621      3867325C 
 9621      63737263 
 9621      5C753867 
 9621      325F645F 
 9622              	.LASF110:
 9623 027d 75386732 		.ascii	"u8g2_m_ssd1322_32_1\000"
 9623      5F6D5F73 
 9623      73643133 
 9623      32325F33 
 9623      325F3100 
ARM GAS  C:\Users\gjl\AppData\Local\Temp\ccNm9gHl.s 			page 192


 9624              	.LASF111:
 9625 0291 75386732 		.ascii	"u8g2_m_ssd1322_32_2\000"
 9625      5F6D5F73 
 9625      73643133 
 9625      32325F33 
 9625      325F3200 
 9626              	.LASF79:
 9627 02a5 75386732 		.ascii	"u8g2_m_st7567_17_f\000"
 9627      5F6D5F73 
 9627      74373536 
 9627      375F3137 
 9627      5F6600
 9628              	.LASF28:
 9629 02b8 75386732 		.ascii	"u8g2_m_ssd1309_16_f\000"
 9629      5F6D5F73 
 9629      73643133 
 9629      30395F31 
 9629      365F6600 
 9630              	.LASF4:
 9631 02cc 6C6F6E67 		.ascii	"long int\000"
 9631      20696E74 
 9631      00
 9632              	.LASF83:
 9633 02d5 75386732 		.ascii	"u8g2_m_nt7534_16_1\000"
 9633      5F6D5F6E 
 9633      74373533 
 9633      345F3136 
 9633      5F3100
 9634              	.LASF84:
 9635 02e8 75386732 		.ascii	"u8g2_m_nt7534_16_2\000"
 9635      5F6D5F6E 
 9635      74373533 
 9635      345F3136 
 9635      5F3200
 9636              	.LASF92:
 9637 02fb 75386732 		.ascii	"u8g2_m_ks0108_24_1\000"
 9637      5F6D5F6B 
 9637      73303130 
 9637      385F3234 
 9637      5F3100
 9638              	.LASF93:
 9639 030e 75386732 		.ascii	"u8g2_m_ks0108_24_2\000"
 9639      5F6D5F6B 
 9639      73303130 
 9639      385F3234 
 9639      5F3200
 9640              	.LASF115:
 9641 0321 75386732 		.ascii	"u8g2_m_ssd1606_22_f\000"
 9641      5F6D5F73 
 9641      73643136 
 9641      30365F32 
 9641      325F6600 
 9642              	.LASF101:
 9643 0335 75386732 		.ascii	"u8g2_m_t6963_30_1\000"
 9643      5F6D5F74 
 9643      36393633 
 9643      5F33305F 
ARM GAS  C:\Users\gjl\AppData\Local\Temp\ccNm9gHl.s 			page 193


 9643      3100
 9644              	.LASF102:
 9645 0347 75386732 		.ascii	"u8g2_m_t6963_30_2\000"
 9645      5F6D5F74 
 9645      36393633 
 9645      5F33305F 
 9645      3200
 9646              	.LASF39:
 9647 0359 75386732 		.ascii	"u8g2_m_st7920_24_2\000"
 9647      5F6D5F73 
 9647      74373932 
 9647      305F3234 
 9647      5F3200
 9648              	.LASF49:
 9649 036c 75386732 		.ascii	"u8g2_m_uc1701_13_f\000"
 9649      5F6D5F75 
 9649      63313730 
 9649      315F3133 
 9649      5F6600
 9650              	.LASF63:
 9651 037f 75386732 		.ascii	"u8g2_m_uc1608_30_2\000"
 9651      5F6D5F75 
 9651      63313630 
 9651      385F3330 
 9651      5F3200
 9652              	.LASF112:
 9653 0392 75386732 		.ascii	"u8g2_m_ssd1322_32_f\000"
 9653      5F6D5F73 
 9653      73643133 
 9653      32325F33 
 9653      325F6600 
 9654              	.LASF44:
 9655 03a6 75386732 		.ascii	"u8g2_m_ls013b7dh03_16_1\000"
 9655      5F6D5F6C 
 9655      73303133 
 9655      62376468 
 9655      30335F31 
 9656              	.LASF45:
 9657 03be 75386732 		.ascii	"u8g2_m_ls013b7dh03_16_2\000"
 9657      5F6D5F6C 
 9657      73303133 
 9657      62376468 
 9657      30335F31 
 9658              	.LASF32:
 9659 03d6 75386732 		.ascii	"u8g2_m_ssd1327_12_1\000"
 9659      5F6D5F73 
 9659      73643133 
 9659      32375F31 
 9659      325F3100 
 9660              	.LASF33:
 9661 03ea 75386732 		.ascii	"u8g2_m_ssd1327_12_2\000"
 9661      5F6D5F73 
 9661      73643133 
 9661      32375F31 
 9661      325F3200 
 9662              	.LASF13:
 9663 03fe 75386732 		.ascii	"u8g2_m_ssd1305_16_1\000"
ARM GAS  C:\Users\gjl\AppData\Local\Temp\ccNm9gHl.s 			page 194


 9663      5F6D5F73 
 9663      73643133 
 9663      30355F31 
 9663      365F3100 
 9664              	.LASF14:
 9665 0412 75386732 		.ascii	"u8g2_m_ssd1305_16_2\000"
 9665      5F6D5F73 
 9665      73643133 
 9665      30355F31 
 9665      365F3200 
 9666              	.LASF85:
 9667 0426 75386732 		.ascii	"u8g2_m_nt7534_16_f\000"
 9667      5F6D5F6E 
 9667      74373533 
 9667      345F3136 
 9667      5F6600
 9668              	.LASF47:
 9669 0439 75386732 		.ascii	"u8g2_m_uc1701_13_1\000"
 9669      5F6D5F75 
 9669      63313730 
 9669      315F3133 
 9669      5F3100
 9670              	.LASF48:
 9671 044c 75386732 		.ascii	"u8g2_m_uc1701_13_2\000"
 9671      5F6D5F75 
 9671      63313730 
 9671      315F3133 
 9671      5F3200
 9672              	.LASF20:
 9673 045f 75386732 		.ascii	"u8g2_m_sh1106_16_1\000"
 9673      5F6D5F73 
 9673      68313130 
 9673      365F3136 
 9673      5F3100
 9674              	.LASF21:
 9675 0472 75386732 		.ascii	"u8g2_m_sh1106_16_2\000"
 9675      5F6D5F73 
 9675      68313130 
 9675      365F3136 
 9675      5F3200
 9676              	.LASF29:
 9677 0485 75386732 		.ascii	"u8g2_m_ssd1325_16_1\000"
 9677      5F6D5F73 
 9677      73643133 
 9677      32355F31 
 9677      365F3100 
 9678              	.LASF30:
 9679 0499 75386732 		.ascii	"u8g2_m_ssd1325_16_2\000"
 9679      5F6D5F73 
 9679      73643133 
 9679      32355F31 
 9679      365F3200 
 9680              	.LASF8:
 9681 04ad 756E7369 		.ascii	"unsigned int\000"
 9681      676E6564 
 9681      20696E74 
 9681      00
ARM GAS  C:\Users\gjl\AppData\Local\Temp\ccNm9gHl.s 			page 195


 9682              	.LASF103:
 9683 04ba 75386732 		.ascii	"u8g2_m_t6963_30_f\000"
 9683      5F6D5F74 
 9683      36393633 
 9683      5F33305F 
 9683      6600
 9684              	.LASF5:
 9685 04cc 6C6F6E67 		.ascii	"long unsigned int\000"
 9685      20756E73 
 9685      69676E65 
 9685      6420696E 
 9685      7400
 9686              	.LASF122:
 9687 04de 75386732 		.ascii	"u8g2_m_ra8835_30_1\000"
 9687      5F6D5F72 
 9687      61383833 
 9687      355F3330 
 9687      5F3100
 9688              	.LASF123:
 9689 04f1 75386732 		.ascii	"u8g2_m_ra8835_30_2\000"
 9689      5F6D5F72 
 9689      61383833 
 9689      355F3330 
 9689      5F3200
 9690              	.LASF107:
 9691 0504 75386732 		.ascii	"u8g2_m_t6963_16_1\000"
 9691      5F6D5F74 
 9691      36393633 
 9691      5F31365F 
 9691      3100
 9692              	.LASF108:
 9693 0516 75386732 		.ascii	"u8g2_m_t6963_16_2\000"
 9693      5F6D5F74 
 9693      36393633 
 9693      5F31365F 
 9693      3200
 9694              	.LASF104:
 9695 0528 75386732 		.ascii	"u8g2_m_t6963_32_1\000"
 9695      5F6D5F74 
 9695      36393633 
 9695      5F33325F 
 9695      3100
 9696              	.LASF46:
 9697 053a 75386732 		.ascii	"u8g2_m_ls013b7dh03_16_f\000"
 9697      5F6D5F6C 
 9697      73303133 
 9697      62376468 
 9697      30335F31 
 9698              	.LASF3:
 9699 0552 73686F72 		.ascii	"short unsigned int\000"
 9699      7420756E 
 9699      7369676E 
 9699      65642069 
 9699      6E7400
 9700              	.LASF34:
 9701 0565 75386732 		.ascii	"u8g2_m_ssd1327_12_f\000"
 9701      5F6D5F73 
ARM GAS  C:\Users\gjl\AppData\Local\Temp\ccNm9gHl.s 			page 196


 9701      73643133 
 9701      32375F31 
 9701      325F6600 
 9702              	.LASF62:
 9703 0579 75386732 		.ascii	"u8g2_m_uc1608_30_1\000"
 9703      5F6D5F75 
 9703      63313630 
 9703      385F3330 
 9703      5F3100
 9704              	.LASF16:
 9705 058c 75386732 		.ascii	"u8g2_m_ssd1305_16_f\000"
 9705      5F6D5F73 
 9705      73643133 
 9705      30355F31 
 9705      365F6600 
 9706              	.LASF98:
 9707 05a0 75386732 		.ascii	"u8g2_m_lc7981_30_1\000"
 9707      5F6D5F6C 
 9707      63373938 
 9707      315F3330 
 9707      5F3100
 9708              	.LASF99:
 9709 05b3 75386732 		.ascii	"u8g2_m_lc7981_30_2\000"
 9709      5F6D5F6C 
 9709      63373938 
 9709      315F3330 
 9709      5F3200
 9710              	.LASF17:
 9711 05c6 75386732 		.ascii	"u8g2_m_ssd1306_16_1\000"
 9711      5F6D5F73 
 9711      73643133 
 9711      30365F31 
 9711      365F3100 
 9712              	.LASF18:
 9713 05da 75386732 		.ascii	"u8g2_m_ssd1306_16_2\000"
 9713      5F6D5F73 
 9713      73643133 
 9713      30365F31 
 9713      365F3200 
 9714              	.LASF80:
 9715 05ee 75386732 		.ascii	"u8g2_m_st7588_16_1\000"
 9715      5F6D5F73 
 9715      74373538 
 9715      385F3136 
 9715      5F3100
 9716              	.LASF22:
 9717 0601 75386732 		.ascii	"u8g2_m_sh1106_16_f\000"
 9717      5F6D5F73 
 9717      68313130 
 9717      365F3136 
 9717      5F6600
 9718              	.LASF31:
 9719 0614 75386732 		.ascii	"u8g2_m_ssd1325_16_f\000"
 9719      5F6D5F73 
 9719      73643133 
 9719      32355F31 
 9719      365F6600 
ARM GAS  C:\Users\gjl\AppData\Local\Temp\ccNm9gHl.s 			page 197


 9720              	.LASF125:
 9721 0628 75386732 		.ascii	"u8g2_m_a2printer_48_1\000"
 9721      5F6D5F61 
 9721      32707269 
 9721      6E746572 
 9721      5F34385F 
 9722              	.LASF126:
 9723 063e 75386732 		.ascii	"u8g2_m_a2printer_48_2\000"
 9723      5F6D5F61 
 9723      32707269 
 9723      6E746572 
 9723      5F34385F 
 9724              	.LASF65:
 9725 0654 75386732 		.ascii	"u8g2_m_uc1610_20_1\000"
 9725      5F6D5F75 
 9725      63313631 
 9725      305F3230 
 9725      5F3100
 9726              	.LASF66:
 9727 0667 75386732 		.ascii	"u8g2_m_uc1610_20_2\000"
 9727      5F6D5F75 
 9727      63313631 
 9727      305F3230 
 9727      5F3200
 9728              	.LASF68:
 9729 067a 75386732 		.ascii	"u8g2_m_uc1611_30_1\000"
 9729      5F6D5F75 
 9729      63313631 
 9729      315F3330 
 9729      5F3100
 9730              	.LASF69:
 9731 068d 75386732 		.ascii	"u8g2_m_uc1611_30_2\000"
 9731      5F6D5F75 
 9731      63313631 
 9731      315F3330 
 9731      5F3200
 9732              	.LASF64:
 9733 06a0 75386732 		.ascii	"u8g2_m_uc1608_30_f\000"
 9733      5F6D5F75 
 9733      63313630 
 9733      385F3330 
 9733      5F6600
 9734              	.LASF130:
 9735 06b3 433A5C47 		.ascii	"C:\\Git\\WW101\\ww101-shield\\firmware\\TestProgram"
 9735      69745C57 
 9735      57313031 
 9735      5C777731 
 9735      30312D73 
 9736 06e1 344D2E63 		.ascii	"4M.cydsn\000"
 9736      7964736E 
 9736      00
 9737              	.LASF12:
 9738 06ea 73697A65 		.ascii	"sizetype\000"
 9738      74797065 
 9738      00
 9739              	.LASF100:
 9740 06f3 75386732 		.ascii	"u8g2_m_lc7981_30_f\000"
ARM GAS  C:\Users\gjl\AppData\Local\Temp\ccNm9gHl.s 			page 198


 9740      5F6D5F6C 
 9740      63373938 
 9740      315F3330 
 9740      5F6600
 9741              	.LASF11:
 9742 0706 6C6F6E67 		.ascii	"long double\000"
 9742      20646F75 
 9742      626C6500 
 9743              	.LASF95:
 9744 0712 75386732 		.ascii	"u8g2_m_lc7981_20_1\000"
 9744      5F6D5F6C 
 9744      63373938 
 9744      315F3230 
 9744      5F3100
 9745              	.LASF19:
 9746 0725 75386732 		.ascii	"u8g2_m_ssd1306_16_f\000"
 9746      5F6D5F73 
 9746      73643133 
 9746      30365F31 
 9746      365F6600 
 9747              	.LASF94:
 9748 0739 75386732 		.ascii	"u8g2_m_ks0108_24_f\000"
 9748      5F6D5F6B 
 9748      73303130 
 9748      385F3234 
 9748      5F6600
 9749              	.LASF41:
 9750 074c 75386732 		.ascii	"u8g2_m_st7920_16_1\000"
 9750      5F6D5F73 
 9750      74373932 
 9750      305F3136 
 9750      5F3100
 9751              	.LASF42:
 9752 075f 75386732 		.ascii	"u8g2_m_st7920_16_2\000"
 9752      5F6D5F73 
 9752      74373932 
 9752      305F3136 
 9752      5F3200
 9753              	.LASF67:
 9754 0772 75386732 		.ascii	"u8g2_m_uc1610_20_f\000"
 9754      5F6D5F75 
 9754      63313631 
 9754      305F3230 
 9754      5F6600
 9755              	.LASF70:
 9756 0785 75386732 		.ascii	"u8g2_m_uc1611_30_f\000"
 9756      5F6D5F75 
 9756      63313631 
 9756      315F3330 
 9756      5F6600
 9757              	.LASF97:
 9758 0798 75386732 		.ascii	"u8g2_m_lc7981_20_f\000"
 9758      5F6D5F6C 
 9758      63373938 
 9758      315F3230 
 9758      5F6600
 9759              	.LASF82:
ARM GAS  C:\Users\gjl\AppData\Local\Temp\ccNm9gHl.s 			page 199


 9760 07ab 75386732 		.ascii	"u8g2_m_st7588_16_f\000"
 9760      5F6D5F73 
 9760      74373538 
 9760      385F3136 
 9760      5F6600
 9761              	.LASF43:
 9762 07be 75386732 		.ascii	"u8g2_m_st7920_16_f\000"
 9762      5F6D5F73 
 9762      74373932 
 9762      305F3136 
 9762      5F6600
 9763              	.LASF1:
 9764 07d1 756E7369 		.ascii	"unsigned char\000"
 9764      676E6564 
 9764      20636861 
 9764      7200
 9765              	.LASF2:
 9766 07df 73686F72 		.ascii	"short int\000"
 9766      7420696E 
 9766      7400
 9767              	.LASF23:
 9768 07e9 75386732 		.ascii	"u8g2_m_ssd1306_8_1\000"
 9768      5F6D5F73 
 9768      73643133 
 9768      30365F38 
 9768      5F3100
 9769              	.LASF24:
 9770 07fc 75386732 		.ascii	"u8g2_m_ssd1306_8_2\000"
 9770      5F6D5F73 
 9770      73643133 
 9770      30365F38 
 9770      5F3200
 9771              	.LASF96:
 9772 080f 75386732 		.ascii	"u8g2_m_lc7981_20_2\000"
 9772      5F6D5F6C 
 9772      63373938 
 9772      315F3230 
 9772      5F3200
 9773              	.LASF71:
 9774 0822 75386732 		.ascii	"u8g2_m_st7565_16_1\000"
 9774      5F6D5F73 
 9774      74373536 
 9774      355F3136 
 9774      5F3100
 9775              	.LASF72:
 9776 0835 75386732 		.ascii	"u8g2_m_st7565_16_2\000"
 9776      5F6D5F73 
 9776      74373536 
 9776      355F3136 
 9776      5F3200
 9777              	.LASF78:
 9778 0848 75386732 		.ascii	"u8g2_m_st7567_17_2\000"
 9778      5F6D5F73 
 9778      74373536 
 9778      375F3137 
 9778      5F3200
 9779              	.LASF50:
ARM GAS  C:\Users\gjl\AppData\Local\Temp\ccNm9gHl.s 			page 200


 9780 085b 75386732 		.ascii	"u8g2_m_uc1701_16_1\000"
 9780      5F6D5F75 
 9780      63313730 
 9780      315F3136 
 9780      5F3100
 9781              	.LASF51:
 9782 086e 75386732 		.ascii	"u8g2_m_uc1701_16_2\000"
 9782      5F6D5F75 
 9782      63313730 
 9782      315F3136 
 9782      5F3200
 9783              	.LASF38:
 9784 0881 75386732 		.ascii	"u8g2_m_st7920_24_1\000"
 9784      5F6D5F73 
 9784      74373932 
 9784      305F3234 
 9784      5F3100
 9785              	.LASF25:
 9786 0894 75386732 		.ascii	"u8g2_m_ssd1306_8_f\000"
 9786      5F6D5F73 
 9786      73643133 
 9786      30365F38 
 9786      5F6600
 9787              	.LASF74:
 9788 08a7 75386732 		.ascii	"u8g2_m_st7565_17_1\000"
 9788      5F6D5F73 
 9788      74373536 
 9788      355F3137 
 9788      5F3100
 9789              	.LASF75:
 9790 08ba 75386732 		.ascii	"u8g2_m_st7565_17_2\000"
 9790      5F6D5F73 
 9790      74373536 
 9790      355F3137 
 9790      5F3200
 9791              	.LASF53:
 9792 08cd 75386732 		.ascii	"u8g2_m_pcd8544_11_1\000"
 9792      5F6D5F70 
 9792      63643835 
 9792      34345F31 
 9792      315F3100 
 9793              	.LASF54:
 9794 08e1 75386732 		.ascii	"u8g2_m_pcd8544_11_2\000"
 9794      5F6D5F70 
 9794      63643835 
 9794      34345F31 
 9794      315F3200 
 9795              	.LASF73:
 9796 08f5 75386732 		.ascii	"u8g2_m_st7565_16_f\000"
 9796      5F6D5F73 
 9796      74373536 
 9796      355F3136 
 9796      5F6600
 9797              	.LASF124:
 9798 0908 75386732 		.ascii	"u8g2_m_ra8835_30_f\000"
 9798      5F6D5F72 
 9798      61383833 
ARM GAS  C:\Users\gjl\AppData\Local\Temp\ccNm9gHl.s 			page 201


 9798      355F3330 
 9798      5F6600
 9799              	.LASF52:
 9800 091b 75386732 		.ascii	"u8g2_m_uc1701_16_f\000"
 9800      5F6D5F75 
 9800      63313730 
 9800      315F3136 
 9800      5F6600
 9801              	.LASF105:
 9802 092e 75386732 		.ascii	"u8g2_m_t6963_32_2\000"
 9802      5F6D5F74 
 9802      36393633 
 9802      5F33325F 
 9802      3200
 9803              	.LASF40:
 9804 0940 75386732 		.ascii	"u8g2_m_st7920_24_f\000"
 9804      5F6D5F73 
 9804      74373932 
 9804      305F3234 
 9804      5F6600
 9805              	.LASF10:
 9806 0953 75696E74 		.ascii	"uint8_t\000"
 9806      385F7400 
 9807              	.LASF55:
 9808 095b 75386732 		.ascii	"u8g2_m_pcd8544_11_f\000"
 9808      5F6D5F70 
 9808      63643835 
 9808      34345F31 
 9808      315F6600 
 9809              	.LASF15:
 9810 096f 70616765 		.ascii	"page_cnt\000"
 9810      5F636E74 
 9810      00
 9811              	.LASF127:
 9812 0978 75386732 		.ascii	"u8g2_m_a2printer_48_f\000"
 9812      5F6D5F61 
 9812      32707269 
 9812      6E746572 
 9812      5F34385F 
 9813              	.LASF56:
 9814 098e 75386732 		.ascii	"u8g2_m_pcf8812_12_1\000"
 9814      5F6D5F70 
 9814      63663838 
 9814      31325F31 
 9814      325F3100 
 9815              	.LASF57:
 9816 09a2 75386732 		.ascii	"u8g2_m_pcf8812_12_2\000"
 9816      5F6D5F70 
 9816      63663838 
 9816      31325F31 
 9816      325F3200 
 9817              	.LASF89:
 9818 09b6 75386732 		.ascii	"u8g2_m_ks0108_16_1\000"
 9818      5F6D5F6B 
 9818      73303130 
 9818      385F3136 
 9818      5F3100
ARM GAS  C:\Users\gjl\AppData\Local\Temp\ccNm9gHl.s 			page 202


 9819              	.LASF90:
 9820 09c9 75386732 		.ascii	"u8g2_m_ks0108_16_2\000"
 9820      5F6D5F6B 
 9820      73303130 
 9820      385F3136 
 9820      5F3200
 9821              	.LASF86:
 9822 09dc 75386732 		.ascii	"u8g2_m_ist3020_24_1\000"
 9822      5F6D5F69 
 9822      73743330 
 9822      32305F32 
 9822      345F3100 
 9823              	.LASF87:
 9824 09f0 75386732 		.ascii	"u8g2_m_ist3020_24_2\000"
 9824      5F6D5F69 
 9824      73743330 
 9824      32305F32 
 9824      345F3200 
 9825              	.LASF106:
 9826 0a04 75386732 		.ascii	"u8g2_m_t6963_32_f\000"
 9826      5F6D5F74 
 9826      36393633 
 9826      5F33325F 
 9826      6600
 9827              	.LASF59:
 9828 0a16 75386732 		.ascii	"u8g2_m_uc1604_24_1\000"
 9828      5F6D5F75 
 9828      63313630 
 9828      345F3234 
 9828      5F3100
 9829              	.LASF60:
 9830 0a29 75386732 		.ascii	"u8g2_m_uc1604_24_2\000"
 9830      5F6D5F75 
 9830      63313630 
 9830      345F3234 
 9830      5F3200
 9831              		.ident	"GCC: (GNU Tools for ARM Embedded Processors) 5.4.1 20160609 (release) [ARM/embedded-5-bran
