ARM GAS  C:\Users\gjl\AppData\Local\Temp\ccv5AFT3.s 			page 1


   1              		.syntax unified
   2              		.cpu cortex-m0
   3              		.fpu softvfp
   4              		.eabi_attribute 20, 1
   5              		.eabi_attribute 21, 1
   6              		.eabi_attribute 23, 3
   7              		.eabi_attribute 24, 1
   8              		.eabi_attribute 25, 1
   9              		.eabi_attribute 26, 1
  10              		.eabi_attribute 30, 1
  11              		.eabi_attribute 34, 0
  12              		.eabi_attribute 18, 4
  13              		.thumb
  14              		.syntax unified
  15              		.file	"u8g2_buffer.c"
  16              		.text
  17              	.Ltext0:
  18              		.cfi_sections	.debug_frame
  19              		.section	.text.u8g2_send_tile_row,"ax",%progbits
  20              		.align	2
  21              		.code	16
  22              		.thumb_func
  23              		.type	u8g2_send_tile_row, %function
  24              	u8g2_send_tile_row:
  25              	.LFB1:
  26              		.file 1 "..\\u8g2\\csrc\\u8g2_buffer.c"
   1:..\u8g2\csrc/u8g2_buffer.c **** /* 
   2:..\u8g2\csrc/u8g2_buffer.c **** 
   3:..\u8g2\csrc/u8g2_buffer.c ****   u8g2_buffer.c 
   4:..\u8g2\csrc/u8g2_buffer.c **** 
   5:..\u8g2\csrc/u8g2_buffer.c ****   Universal 8bit Graphics Library (https://github.com/olikraus/u8g2/)
   6:..\u8g2\csrc/u8g2_buffer.c **** 
   7:..\u8g2\csrc/u8g2_buffer.c ****   Copyright (c) 2016, olikraus@gmail.com
   8:..\u8g2\csrc/u8g2_buffer.c ****   All rights reserved.
   9:..\u8g2\csrc/u8g2_buffer.c **** 
  10:..\u8g2\csrc/u8g2_buffer.c ****   Redistribution and use in source and binary forms, with or without modification, 
  11:..\u8g2\csrc/u8g2_buffer.c ****   are permitted provided that the following conditions are met:
  12:..\u8g2\csrc/u8g2_buffer.c **** 
  13:..\u8g2\csrc/u8g2_buffer.c ****   * Redistributions of source code must retain the above copyright notice, this list 
  14:..\u8g2\csrc/u8g2_buffer.c ****     of conditions and the following disclaimer.
  15:..\u8g2\csrc/u8g2_buffer.c ****     
  16:..\u8g2\csrc/u8g2_buffer.c ****   * Redistributions in binary form must reproduce the above copyright notice, this 
  17:..\u8g2\csrc/u8g2_buffer.c ****     list of conditions and the following disclaimer in the documentation and/or other 
  18:..\u8g2\csrc/u8g2_buffer.c ****     materials provided with the distribution.
  19:..\u8g2\csrc/u8g2_buffer.c **** 
  20:..\u8g2\csrc/u8g2_buffer.c ****   THIS SOFTWARE IS PROVIDED BY THE COPYRIGHT HOLDERS AND 
  21:..\u8g2\csrc/u8g2_buffer.c ****   CONTRIBUTORS "AS IS" AND ANY EXPRESS OR IMPLIED WARRANTIES, 
  22:..\u8g2\csrc/u8g2_buffer.c ****   INCLUDING, BUT NOT LIMITED TO, THE IMPLIED WARRANTIES OF 
  23:..\u8g2\csrc/u8g2_buffer.c ****   MERCHANTABILITY AND FITNESS FOR A PARTICULAR PURPOSE ARE 
  24:..\u8g2\csrc/u8g2_buffer.c ****   DISCLAIMED. IN NO EVENT SHALL THE COPYRIGHT HOLDER OR 
  25:..\u8g2\csrc/u8g2_buffer.c ****   CONTRIBUTORS BE LIABLE FOR ANY DIRECT, INDIRECT, INCIDENTAL, 
  26:..\u8g2\csrc/u8g2_buffer.c ****   SPECIAL, EXEMPLARY, OR CONSEQUENTIAL DAMAGES (INCLUDING, BUT 
  27:..\u8g2\csrc/u8g2_buffer.c ****   NOT LIMITED TO, PROCUREMENT OF SUBSTITUTE GOODS OR SERVICES; 
  28:..\u8g2\csrc/u8g2_buffer.c ****   LOSS OF USE, DATA, OR PROFITS; OR BUSINESS INTERRUPTION) HOWEVER 
  29:..\u8g2\csrc/u8g2_buffer.c ****   CAUSED AND ON ANY THEORY OF LIABILITY, WHETHER IN CONTRACT, 
  30:..\u8g2\csrc/u8g2_buffer.c ****   STRICT LIABILITY, OR TORT (INCLUDING NEGLIGENCE OR OTHERWISE) 
  31:..\u8g2\csrc/u8g2_buffer.c ****   ARISING IN ANY WAY OUT OF THE USE OF THIS SOFTWARE, EVEN IF 
ARM GAS  C:\Users\gjl\AppData\Local\Temp\ccv5AFT3.s 			page 2


  32:..\u8g2\csrc/u8g2_buffer.c ****   ADVISED OF THE POSSIBILITY OF SUCH DAMAGE.  
  33:..\u8g2\csrc/u8g2_buffer.c **** 
  34:..\u8g2\csrc/u8g2_buffer.c **** */
  35:..\u8g2\csrc/u8g2_buffer.c **** 
  36:..\u8g2\csrc/u8g2_buffer.c **** #include "u8g2.h"
  37:..\u8g2\csrc/u8g2_buffer.c **** #include <string.h>
  38:..\u8g2\csrc/u8g2_buffer.c **** 
  39:..\u8g2\csrc/u8g2_buffer.c **** /*============================================*/
  40:..\u8g2\csrc/u8g2_buffer.c **** void u8g2_ClearBuffer(u8g2_t *u8g2)
  41:..\u8g2\csrc/u8g2_buffer.c **** {
  42:..\u8g2\csrc/u8g2_buffer.c ****   size_t cnt;
  43:..\u8g2\csrc/u8g2_buffer.c ****   cnt = u8g2_GetU8x8(u8g2)->display_info->tile_width;
  44:..\u8g2\csrc/u8g2_buffer.c ****   cnt *= u8g2->tile_buf_height;
  45:..\u8g2\csrc/u8g2_buffer.c ****   cnt *= 8;
  46:..\u8g2\csrc/u8g2_buffer.c ****   memset(u8g2->tile_buf_ptr, 0, cnt);
  47:..\u8g2\csrc/u8g2_buffer.c **** }
  48:..\u8g2\csrc/u8g2_buffer.c **** 
  49:..\u8g2\csrc/u8g2_buffer.c **** /*============================================*/
  50:..\u8g2\csrc/u8g2_buffer.c **** 
  51:..\u8g2\csrc/u8g2_buffer.c **** static void u8g2_send_tile_row(u8g2_t *u8g2, uint8_t src_tile_row, uint8_t dest_tile_row)
  52:..\u8g2\csrc/u8g2_buffer.c **** {
  27              		.loc 1 52 0
  28              		.cfi_startproc
  29              		@ args = 0, pretend = 0, frame = 0
  30              		@ frame_needed = 0, uses_anonymous_args = 0
  31              	.LVL0:
  32 0000 10B5     		push	{r4, lr}
  33              		.cfi_def_cfa_offset 8
  34              		.cfi_offset 4, -8
  35              		.cfi_offset 14, -4
  36 0002 82B0     		sub	sp, sp, #8
  37              		.cfi_def_cfa_offset 16
  53:..\u8g2\csrc/u8g2_buffer.c ****   uint8_t *ptr;
  54:..\u8g2\csrc/u8g2_buffer.c ****   uint16_t offset;
  55:..\u8g2\csrc/u8g2_buffer.c ****   uint8_t w;
  56:..\u8g2\csrc/u8g2_buffer.c ****   
  57:..\u8g2\csrc/u8g2_buffer.c ****   w = u8g2_GetU8x8(u8g2)->display_info->tile_width;
  38              		.loc 1 57 0
  39 0004 0368     		ldr	r3, [r0]
  40 0006 1B7C     		ldrb	r3, [r3, #16]
  41              	.LVL1:
  58:..\u8g2\csrc/u8g2_buffer.c ****   offset = src_tile_row;
  59:..\u8g2\csrc/u8g2_buffer.c ****   ptr = u8g2->tile_buf_ptr;
  60:..\u8g2\csrc/u8g2_buffer.c ****   offset *= w;
  42              		.loc 1 60 0
  43 0008 5943     		muls	r1, r3
  44              	.LVL2:
  61:..\u8g2\csrc/u8g2_buffer.c ****   offset *= 8;
  45              		.loc 1 61 0
  46 000a C900     		lsls	r1, r1, #3
  47              	.LVL3:
  48 000c 89B2     		uxth	r1, r1
  49              	.LVL4:
  62:..\u8g2\csrc/u8g2_buffer.c ****   ptr += offset;
  50              		.loc 1 62 0
  51 000e 446B     		ldr	r4, [r0, #52]
  52 0010 A446     		mov	ip, r4
ARM GAS  C:\Users\gjl\AppData\Local\Temp\ccv5AFT3.s 			page 3


  53 0012 6144     		add	r1, r1, ip
  54              	.LVL5:
  63:..\u8g2\csrc/u8g2_buffer.c ****   u8x8_DrawTile(u8g2_GetU8x8(u8g2), 0, dest_tile_row, w, ptr);
  55              		.loc 1 63 0
  56 0014 0091     		str	r1, [sp]
  57 0016 0021     		movs	r1, #0
  58              	.LVL6:
  59 0018 FFF7FEFF 		bl	u8x8_DrawTile
  60              	.LVL7:
  64:..\u8g2\csrc/u8g2_buffer.c **** }
  61              		.loc 1 64 0
  62 001c 02B0     		add	sp, sp, #8
  63              		@ sp needed
  64 001e 10BD     		pop	{r4, pc}
  65              		.cfi_endproc
  66              	.LFE1:
  67              		.size	u8g2_send_tile_row, .-u8g2_send_tile_row
  68              		.section	.text.u8g2_send_buffer,"ax",%progbits
  69              		.align	2
  70              		.code	16
  71              		.thumb_func
  72              		.type	u8g2_send_buffer, %function
  73              	u8g2_send_buffer:
  74              	.LFB2:
  65:..\u8g2\csrc/u8g2_buffer.c **** 
  66:..\u8g2\csrc/u8g2_buffer.c **** /* 
  67:..\u8g2\csrc/u8g2_buffer.c ****   write the buffer to the display RAM. 
  68:..\u8g2\csrc/u8g2_buffer.c ****   For most displays, this will make the content visible to the user.
  69:..\u8g2\csrc/u8g2_buffer.c ****   Some displays (like the SSD1606) require a u8x8_RefreshDisplay()
  70:..\u8g2\csrc/u8g2_buffer.c **** */
  71:..\u8g2\csrc/u8g2_buffer.c **** static void u8g2_send_buffer(u8g2_t *u8g2) U8X8_NOINLINE;
  72:..\u8g2\csrc/u8g2_buffer.c **** static void u8g2_send_buffer(u8g2_t *u8g2)
  73:..\u8g2\csrc/u8g2_buffer.c **** {
  75              		.loc 1 73 0
  76              		.cfi_startproc
  77              		@ args = 0, pretend = 0, frame = 0
  78              		@ frame_needed = 0, uses_anonymous_args = 0
  79              	.LVL8:
  80 0000 F0B5     		push	{r4, r5, r6, r7, lr}
  81              		.cfi_def_cfa_offset 20
  82              		.cfi_offset 4, -20
  83              		.cfi_offset 5, -16
  84              		.cfi_offset 6, -12
  85              		.cfi_offset 7, -8
  86              		.cfi_offset 14, -4
  87 0002 4746     		mov	r7, r8
  88 0004 80B4     		push	{r7}
  89              		.cfi_def_cfa_offset 24
  90              		.cfi_offset 8, -24
  91 0006 0600     		movs	r6, r0
  92              	.LVL9:
  74:..\u8g2\csrc/u8g2_buffer.c ****   uint8_t src_row;
  75:..\u8g2\csrc/u8g2_buffer.c ****   uint8_t src_max;
  76:..\u8g2\csrc/u8g2_buffer.c ****   uint8_t dest_row;
  77:..\u8g2\csrc/u8g2_buffer.c ****   uint8_t dest_max;
  78:..\u8g2\csrc/u8g2_buffer.c **** 
  79:..\u8g2\csrc/u8g2_buffer.c ****   src_row = 0;
ARM GAS  C:\Users\gjl\AppData\Local\Temp\ccv5AFT3.s 			page 4


  80:..\u8g2\csrc/u8g2_buffer.c ****   src_max = u8g2->tile_buf_height;
  93              		.loc 1 80 0
  94 0008 3823     		movs	r3, #56
  95 000a C75C     		ldrb	r7, [r0, r3]
  96              	.LVL10:
  81:..\u8g2\csrc/u8g2_buffer.c ****   dest_row = u8g2->tile_curr_row;
  97              		.loc 1 81 0
  98 000c 0133     		adds	r3, r3, #1
  99 000e C55C     		ldrb	r5, [r0, r3]
 100              	.LVL11:
  82:..\u8g2\csrc/u8g2_buffer.c ****   dest_max = u8g2_GetU8x8(u8g2)->display_info->tile_height;
 101              		.loc 1 82 0
 102 0010 0368     		ldr	r3, [r0]
 103 0012 5B7C     		ldrb	r3, [r3, #17]
 104 0014 9846     		mov	r8, r3
 105              	.LVL12:
  79:..\u8g2\csrc/u8g2_buffer.c ****   src_max = u8g2->tile_buf_height;
 106              		.loc 1 79 0
 107 0016 0024     		movs	r4, #0
 108              	.LVL13:
 109              	.L4:
  83:..\u8g2\csrc/u8g2_buffer.c ****   
  84:..\u8g2\csrc/u8g2_buffer.c ****   do
  85:..\u8g2\csrc/u8g2_buffer.c ****   {
  86:..\u8g2\csrc/u8g2_buffer.c ****     u8g2_send_tile_row(u8g2, src_row, dest_row);
 110              		.loc 1 86 0 discriminator 2
 111 0018 2A00     		movs	r2, r5
 112 001a 2100     		movs	r1, r4
 113 001c 3000     		movs	r0, r6
 114 001e FFF7FEFF 		bl	u8g2_send_tile_row
 115              	.LVL14:
  87:..\u8g2\csrc/u8g2_buffer.c ****     src_row++;
 116              		.loc 1 87 0 discriminator 2
 117 0022 0134     		adds	r4, r4, #1
 118              	.LVL15:
 119 0024 E4B2     		uxtb	r4, r4
 120              	.LVL16:
  88:..\u8g2\csrc/u8g2_buffer.c ****     dest_row++;
 121              		.loc 1 88 0 discriminator 2
 122 0026 0135     		adds	r5, r5, #1
 123              	.LVL17:
 124 0028 EDB2     		uxtb	r5, r5
 125              	.LVL18:
  89:..\u8g2\csrc/u8g2_buffer.c ****   } while( src_row < src_max && dest_row < dest_max );
 126              		.loc 1 89 0 discriminator 2
 127 002a A742     		cmp	r7, r4
 128 002c 01D9     		bls	.L2
 129              		.loc 1 89 0 is_stmt 0 discriminator 1
 130 002e A845     		cmp	r8, r5
 131 0030 F2D8     		bhi	.L4
 132              	.L2:
  90:..\u8g2\csrc/u8g2_buffer.c **** }
 133              		.loc 1 90 0 is_stmt 1
 134              		@ sp needed
 135              	.LVL19:
 136              	.LVL20:
 137              	.LVL21:
ARM GAS  C:\Users\gjl\AppData\Local\Temp\ccv5AFT3.s 			page 5


 138              	.LVL22:
 139              	.LVL23:
 140 0032 04BC     		pop	{r2}
 141 0034 9046     		mov	r8, r2
 142 0036 F0BD     		pop	{r4, r5, r6, r7, pc}
 143              		.cfi_endproc
 144              	.LFE2:
 145              		.size	u8g2_send_buffer, .-u8g2_send_buffer
 146              		.section	.text.u8g2_ClearBuffer,"ax",%progbits
 147              		.align	2
 148              		.global	u8g2_ClearBuffer
 149              		.code	16
 150              		.thumb_func
 151              		.type	u8g2_ClearBuffer, %function
 152              	u8g2_ClearBuffer:
 153              	.LFB0:
  41:..\u8g2\csrc/u8g2_buffer.c ****   size_t cnt;
 154              		.loc 1 41 0
 155              		.cfi_startproc
 156              		@ args = 0, pretend = 0, frame = 0
 157              		@ frame_needed = 0, uses_anonymous_args = 0
 158              	.LVL24:
 159 0000 10B5     		push	{r4, lr}
 160              		.cfi_def_cfa_offset 8
 161              		.cfi_offset 4, -8
 162              		.cfi_offset 14, -4
  43:..\u8g2\csrc/u8g2_buffer.c ****   cnt *= u8g2->tile_buf_height;
 163              		.loc 1 43 0
 164 0002 0368     		ldr	r3, [r0]
 165 0004 1B7C     		ldrb	r3, [r3, #16]
 166              	.LVL25:
  44:..\u8g2\csrc/u8g2_buffer.c ****   cnt *= 8;
 167              		.loc 1 44 0
 168 0006 3822     		movs	r2, #56
 169 0008 825C     		ldrb	r2, [r0, r2]
 170 000a 5A43     		muls	r2, r3
 171              	.LVL26:
  45:..\u8g2\csrc/u8g2_buffer.c ****   memset(u8g2->tile_buf_ptr, 0, cnt);
 172              		.loc 1 45 0
 173 000c D200     		lsls	r2, r2, #3
 174              	.LVL27:
  46:..\u8g2\csrc/u8g2_buffer.c **** }
 175              		.loc 1 46 0
 176 000e 406B     		ldr	r0, [r0, #52]
 177              	.LVL28:
 178 0010 0021     		movs	r1, #0
 179 0012 FFF7FEFF 		bl	memset
 180              	.LVL29:
  47:..\u8g2\csrc/u8g2_buffer.c **** 
 181              		.loc 1 47 0
 182              		@ sp needed
 183 0016 10BD     		pop	{r4, pc}
 184              		.cfi_endproc
 185              	.LFE0:
 186              		.size	u8g2_ClearBuffer, .-u8g2_ClearBuffer
 187              		.section	.text.u8g2_SendBuffer,"ax",%progbits
 188              		.align	2
ARM GAS  C:\Users\gjl\AppData\Local\Temp\ccv5AFT3.s 			page 6


 189              		.global	u8g2_SendBuffer
 190              		.code	16
 191              		.thumb_func
 192              		.type	u8g2_SendBuffer, %function
 193              	u8g2_SendBuffer:
 194              	.LFB3:
  91:..\u8g2\csrc/u8g2_buffer.c **** 
  92:..\u8g2\csrc/u8g2_buffer.c **** /* same as u8g2_send_buffer but also send the DISPLAY_REFRESH message (used by SSD1606) */
  93:..\u8g2\csrc/u8g2_buffer.c **** void u8g2_SendBuffer(u8g2_t *u8g2)
  94:..\u8g2\csrc/u8g2_buffer.c **** {
 195              		.loc 1 94 0
 196              		.cfi_startproc
 197              		@ args = 0, pretend = 0, frame = 0
 198              		@ frame_needed = 0, uses_anonymous_args = 0
 199              	.LVL30:
 200 0000 10B5     		push	{r4, lr}
 201              		.cfi_def_cfa_offset 8
 202              		.cfi_offset 4, -8
 203              		.cfi_offset 14, -4
 204 0002 0400     		movs	r4, r0
  95:..\u8g2\csrc/u8g2_buffer.c ****   u8g2_send_buffer(u8g2);
 205              		.loc 1 95 0
 206 0004 FFF7FEFF 		bl	u8g2_send_buffer
 207              	.LVL31:
  96:..\u8g2\csrc/u8g2_buffer.c ****   u8x8_RefreshDisplay( u8g2_GetU8x8(u8g2) );  
 208              		.loc 1 96 0
 209 0008 2000     		movs	r0, r4
 210 000a FFF7FEFF 		bl	u8x8_RefreshDisplay
 211              	.LVL32:
  97:..\u8g2\csrc/u8g2_buffer.c **** }
 212              		.loc 1 97 0
 213              		@ sp needed
 214              	.LVL33:
 215 000e 10BD     		pop	{r4, pc}
 216              		.cfi_endproc
 217              	.LFE3:
 218              		.size	u8g2_SendBuffer, .-u8g2_SendBuffer
 219              		.section	.text.u8g2_SetBufferCurrTileRow,"ax",%progbits
 220              		.align	2
 221              		.global	u8g2_SetBufferCurrTileRow
 222              		.code	16
 223              		.thumb_func
 224              		.type	u8g2_SetBufferCurrTileRow, %function
 225              	u8g2_SetBufferCurrTileRow:
 226              	.LFB4:
  98:..\u8g2\csrc/u8g2_buffer.c **** 
  99:..\u8g2\csrc/u8g2_buffer.c **** /*============================================*/
 100:..\u8g2\csrc/u8g2_buffer.c **** void u8g2_SetBufferCurrTileRow(u8g2_t *u8g2, uint8_t row)
 101:..\u8g2\csrc/u8g2_buffer.c **** {
 227              		.loc 1 101 0
 228              		.cfi_startproc
 229              		@ args = 0, pretend = 0, frame = 0
 230              		@ frame_needed = 0, uses_anonymous_args = 0
 231              	.LVL34:
 232 0000 10B5     		push	{r4, lr}
 233              		.cfi_def_cfa_offset 8
 234              		.cfi_offset 4, -8
ARM GAS  C:\Users\gjl\AppData\Local\Temp\ccv5AFT3.s 			page 7


 235              		.cfi_offset 14, -4
 102:..\u8g2\csrc/u8g2_buffer.c ****   u8g2->tile_curr_row = row;
 236              		.loc 1 102 0
 237 0002 3923     		movs	r3, #57
 238 0004 C154     		strb	r1, [r0, r3]
 103:..\u8g2\csrc/u8g2_buffer.c ****   u8g2->cb->update(u8g2);
 239              		.loc 1 103 0
 240 0006 036B     		ldr	r3, [r0, #48]
 241 0008 1B68     		ldr	r3, [r3]
 242 000a 9847     		blx	r3
 243              	.LVL35:
 104:..\u8g2\csrc/u8g2_buffer.c **** }
 244              		.loc 1 104 0
 245              		@ sp needed
 246 000c 10BD     		pop	{r4, pc}
 247              		.cfi_endproc
 248              	.LFE4:
 249              		.size	u8g2_SetBufferCurrTileRow, .-u8g2_SetBufferCurrTileRow
 250 000e C046     		.section	.text.u8g2_FirstPage,"ax",%progbits
 251              		.align	2
 252              		.global	u8g2_FirstPage
 253              		.code	16
 254              		.thumb_func
 255              		.type	u8g2_FirstPage, %function
 256              	u8g2_FirstPage:
 257              	.LFB5:
 105:..\u8g2\csrc/u8g2_buffer.c **** 
 106:..\u8g2\csrc/u8g2_buffer.c **** void u8g2_FirstPage(u8g2_t *u8g2)
 107:..\u8g2\csrc/u8g2_buffer.c **** {
 258              		.loc 1 107 0
 259              		.cfi_startproc
 260              		@ args = 0, pretend = 0, frame = 0
 261              		@ frame_needed = 0, uses_anonymous_args = 0
 262              	.LVL36:
 263 0000 10B5     		push	{r4, lr}
 264              		.cfi_def_cfa_offset 8
 265              		.cfi_offset 4, -8
 266              		.cfi_offset 14, -4
 267 0002 0400     		movs	r4, r0
 108:..\u8g2\csrc/u8g2_buffer.c ****   if ( u8g2->is_auto_page_clear )
 268              		.loc 1 108 0
 269 0004 7D23     		movs	r3, #125
 270 0006 C35C     		ldrb	r3, [r0, r3]
 271 0008 002B     		cmp	r3, #0
 272 000a 01D0     		beq	.L9
 109:..\u8g2\csrc/u8g2_buffer.c ****   {
 110:..\u8g2\csrc/u8g2_buffer.c ****     u8g2_ClearBuffer(u8g2);
 273              		.loc 1 110 0
 274 000c FFF7FEFF 		bl	u8g2_ClearBuffer
 275              	.LVL37:
 276              	.L9:
 111:..\u8g2\csrc/u8g2_buffer.c ****   }
 112:..\u8g2\csrc/u8g2_buffer.c ****   u8g2_SetBufferCurrTileRow(u8g2, 0);
 277              		.loc 1 112 0
 278 0010 0021     		movs	r1, #0
 279 0012 2000     		movs	r0, r4
 280 0014 FFF7FEFF 		bl	u8g2_SetBufferCurrTileRow
ARM GAS  C:\Users\gjl\AppData\Local\Temp\ccv5AFT3.s 			page 8


 281              	.LVL38:
 113:..\u8g2\csrc/u8g2_buffer.c **** }
 282              		.loc 1 113 0
 283              		@ sp needed
 284              	.LVL39:
 285 0018 10BD     		pop	{r4, pc}
 286              		.cfi_endproc
 287              	.LFE5:
 288              		.size	u8g2_FirstPage, .-u8g2_FirstPage
 289 001a C046     		.section	.text.u8g2_NextPage,"ax",%progbits
 290              		.align	2
 291              		.global	u8g2_NextPage
 292              		.code	16
 293              		.thumb_func
 294              		.type	u8g2_NextPage, %function
 295              	u8g2_NextPage:
 296              	.LFB6:
 114:..\u8g2\csrc/u8g2_buffer.c **** 
 115:..\u8g2\csrc/u8g2_buffer.c **** uint8_t u8g2_NextPage(u8g2_t *u8g2)
 116:..\u8g2\csrc/u8g2_buffer.c **** {
 297              		.loc 1 116 0
 298              		.cfi_startproc
 299              		@ args = 0, pretend = 0, frame = 0
 300              		@ frame_needed = 0, uses_anonymous_args = 0
 301              	.LVL40:
 302 0000 70B5     		push	{r4, r5, r6, lr}
 303              		.cfi_def_cfa_offset 16
 304              		.cfi_offset 4, -16
 305              		.cfi_offset 5, -12
 306              		.cfi_offset 6, -8
 307              		.cfi_offset 14, -4
 308 0002 0400     		movs	r4, r0
 117:..\u8g2\csrc/u8g2_buffer.c ****   uint8_t row;
 118:..\u8g2\csrc/u8g2_buffer.c ****   u8g2_send_buffer(u8g2);
 309              		.loc 1 118 0
 310 0004 FFF7FEFF 		bl	u8g2_send_buffer
 311              	.LVL41:
 119:..\u8g2\csrc/u8g2_buffer.c ****   row = u8g2->tile_curr_row;
 312              		.loc 1 119 0
 313 0008 3923     		movs	r3, #57
 314 000a E55C     		ldrb	r5, [r4, r3]
 315              	.LVL42:
 120:..\u8g2\csrc/u8g2_buffer.c ****   row += u8g2->tile_buf_height;
 316              		.loc 1 120 0
 317 000c 013B     		subs	r3, r3, #1
 318 000e E35C     		ldrb	r3, [r4, r3]
 319 0010 ED18     		adds	r5, r5, r3
 320              	.LVL43:
 321 0012 EDB2     		uxtb	r5, r5
 322              	.LVL44:
 121:..\u8g2\csrc/u8g2_buffer.c ****   if ( row >= u8g2_GetU8x8(u8g2)->display_info->tile_height )
 323              		.loc 1 121 0
 324 0014 2368     		ldr	r3, [r4]
 325 0016 5B7C     		ldrb	r3, [r3, #17]
 326 0018 9D42     		cmp	r5, r3
 327 001a 04D3     		bcc	.L11
 122:..\u8g2\csrc/u8g2_buffer.c ****   {
ARM GAS  C:\Users\gjl\AppData\Local\Temp\ccv5AFT3.s 			page 9


 123:..\u8g2\csrc/u8g2_buffer.c ****     u8x8_RefreshDisplay( u8g2_GetU8x8(u8g2) );
 328              		.loc 1 123 0
 329 001c 2000     		movs	r0, r4
 330 001e FFF7FEFF 		bl	u8x8_RefreshDisplay
 331              	.LVL45:
 124:..\u8g2\csrc/u8g2_buffer.c ****     return 0;
 332              		.loc 1 124 0
 333 0022 0020     		movs	r0, #0
 334 0024 0BE0     		b	.L12
 335              	.L11:
 125:..\u8g2\csrc/u8g2_buffer.c ****   }
 126:..\u8g2\csrc/u8g2_buffer.c ****   if ( u8g2->is_auto_page_clear )
 336              		.loc 1 126 0
 337 0026 7D23     		movs	r3, #125
 338 0028 E35C     		ldrb	r3, [r4, r3]
 339 002a 002B     		cmp	r3, #0
 340 002c 02D0     		beq	.L13
 127:..\u8g2\csrc/u8g2_buffer.c ****   {
 128:..\u8g2\csrc/u8g2_buffer.c ****     u8g2_ClearBuffer(u8g2);
 341              		.loc 1 128 0
 342 002e 2000     		movs	r0, r4
 343 0030 FFF7FEFF 		bl	u8g2_ClearBuffer
 344              	.LVL46:
 345              	.L13:
 129:..\u8g2\csrc/u8g2_buffer.c ****   }
 130:..\u8g2\csrc/u8g2_buffer.c ****   u8g2_SetBufferCurrTileRow(u8g2, row);
 346              		.loc 1 130 0
 347 0034 2900     		movs	r1, r5
 348 0036 2000     		movs	r0, r4
 349 0038 FFF7FEFF 		bl	u8g2_SetBufferCurrTileRow
 350              	.LVL47:
 131:..\u8g2\csrc/u8g2_buffer.c ****   return 1;
 351              		.loc 1 131 0
 352 003c 0120     		movs	r0, #1
 353              	.L12:
 132:..\u8g2\csrc/u8g2_buffer.c **** }
 354              		.loc 1 132 0
 355              		@ sp needed
 356              	.LVL48:
 357              	.LVL49:
 358 003e 70BD     		pop	{r4, r5, r6, pc}
 359              		.cfi_endproc
 360              	.LFE6:
 361              		.size	u8g2_NextPage, .-u8g2_NextPage
 362              		.text
 363              	.Letext0:
 364              		.file 2 "c:\\program files (x86)\\cypress\\psoc creator\\4.1\\psoc creator\\import\\gnu\\arm\\5.4.
 365              		.file 3 "c:\\program files (x86)\\cypress\\psoc creator\\4.1\\psoc creator\\import\\gnu\\arm\\5.4.
 366              		.file 4 "c:\\program files (x86)\\cypress\\psoc creator\\4.1\\psoc creator\\import\\gnu\\arm\\5.4.
 367              		.file 5 "..\\u8g2\\csrc\\u8x8.h"
 368              		.file 6 "..\\u8g2\\csrc\\u8g2.h"