ARM GAS  C:\Users\arh\AppData\Local\Temp\ccbxunbd.s 			page 1


   1              		.syntax unified
   2              		.cpu cortex-m0
   3              		.fpu softvfp
   4              		.eabi_attribute 20, 1
   5              		.eabi_attribute 21, 1
   6              		.eabi_attribute 23, 3
   7              		.eabi_attribute 24, 1
   8              		.eabi_attribute 25, 1
   9              		.eabi_attribute 26, 1
  10              		.eabi_attribute 30, 1
  11              		.eabi_attribute 34, 0
  12              		.eabi_attribute 18, 4
  13              		.thumb
  14              		.syntax unified
  15              		.file	"u8g2_polygon.c"
  16              		.text
  17              	.Ltext0:
  18              		.cfi_sections	.debug_frame
  19              		.section	.text.pge_Next,"ax",%progbits
  20              		.align	2
  21              		.code	16
  22              		.thumb_func
  23              		.type	pge_Next, %function
  24              	pge_Next:
  25              	.LFB0:
  26              		.file 1 "..\\..\\u8g2\\csrc\\u8g2_polygon.c"
   1:..\..\u8g2\csrc/u8g2_polygon.c **** /*
   2:..\..\u8g2\csrc/u8g2_polygon.c **** 
   3:..\..\u8g2\csrc/u8g2_polygon.c ****   u8g22_polygon.c
   4:..\..\u8g2\csrc/u8g2_polygon.c **** 
   5:..\..\u8g2\csrc/u8g2_polygon.c **** */	
   6:..\..\u8g2\csrc/u8g2_polygon.c **** 
   7:..\..\u8g2\csrc/u8g2_polygon.c **** 
   8:..\..\u8g2\csrc/u8g2_polygon.c **** #include "u8g2.h"
   9:..\..\u8g2\csrc/u8g2_polygon.c **** 
  10:..\..\u8g2\csrc/u8g2_polygon.c **** 
  11:..\..\u8g2\csrc/u8g2_polygon.c **** 
  12:..\..\u8g2\csrc/u8g2_polygon.c **** 
  13:..\..\u8g2\csrc/u8g2_polygon.c **** /*===========================================*/
  14:..\..\u8g2\csrc/u8g2_polygon.c **** /* local definitions */
  15:..\..\u8g2\csrc/u8g2_polygon.c **** 
  16:..\..\u8g2\csrc/u8g2_polygon.c **** typedef int16_t pg_word_t;
  17:..\..\u8g2\csrc/u8g2_polygon.c **** 
  18:..\..\u8g2\csrc/u8g2_polygon.c **** 
  19:..\..\u8g2\csrc/u8g2_polygon.c **** struct pg_point_struct
  20:..\..\u8g2\csrc/u8g2_polygon.c **** {
  21:..\..\u8g2\csrc/u8g2_polygon.c ****   pg_word_t x;
  22:..\..\u8g2\csrc/u8g2_polygon.c ****   pg_word_t y;
  23:..\..\u8g2\csrc/u8g2_polygon.c **** };
  24:..\..\u8g2\csrc/u8g2_polygon.c **** 
  25:..\..\u8g2\csrc/u8g2_polygon.c **** typedef struct _pg_struct pg_struct;	/* forward declaration */
  26:..\..\u8g2\csrc/u8g2_polygon.c **** 
  27:..\..\u8g2\csrc/u8g2_polygon.c **** struct pg_edge_struct
  28:..\..\u8g2\csrc/u8g2_polygon.c **** {
  29:..\..\u8g2\csrc/u8g2_polygon.c ****   pg_word_t x_direction;	/* 1, if x2 is greater than x1, -1 otherwise */
  30:..\..\u8g2\csrc/u8g2_polygon.c ****   pg_word_t height;
  31:..\..\u8g2\csrc/u8g2_polygon.c ****   pg_word_t current_x_offset;
ARM GAS  C:\Users\arh\AppData\Local\Temp\ccbxunbd.s 			page 2


  32:..\..\u8g2\csrc/u8g2_polygon.c ****   pg_word_t error_offset;
  33:..\..\u8g2\csrc/u8g2_polygon.c ****   
  34:..\..\u8g2\csrc/u8g2_polygon.c ****   /* --- line loop --- */
  35:..\..\u8g2\csrc/u8g2_polygon.c ****   pg_word_t current_y;
  36:..\..\u8g2\csrc/u8g2_polygon.c ****   pg_word_t max_y;
  37:..\..\u8g2\csrc/u8g2_polygon.c ****   pg_word_t current_x;
  38:..\..\u8g2\csrc/u8g2_polygon.c ****   pg_word_t error;
  39:..\..\u8g2\csrc/u8g2_polygon.c **** 
  40:..\..\u8g2\csrc/u8g2_polygon.c ****   /* --- outer loop --- */
  41:..\..\u8g2\csrc/u8g2_polygon.c ****   uint8_t (*next_idx_fn)(pg_struct *pg, uint8_t i);
  42:..\..\u8g2\csrc/u8g2_polygon.c ****   uint8_t curr_idx;
  43:..\..\u8g2\csrc/u8g2_polygon.c **** };
  44:..\..\u8g2\csrc/u8g2_polygon.c **** 
  45:..\..\u8g2\csrc/u8g2_polygon.c **** /* maximum number of points in the polygon */
  46:..\..\u8g2\csrc/u8g2_polygon.c **** /* can be redefined, but highest possible value is 254 */
  47:..\..\u8g2\csrc/u8g2_polygon.c **** #define PG_MAX_POINTS 6
  48:..\..\u8g2\csrc/u8g2_polygon.c **** 
  49:..\..\u8g2\csrc/u8g2_polygon.c **** /* index numbers for the pge structures below */
  50:..\..\u8g2\csrc/u8g2_polygon.c **** #define PG_LEFT 0
  51:..\..\u8g2\csrc/u8g2_polygon.c **** #define PG_RIGHT 1
  52:..\..\u8g2\csrc/u8g2_polygon.c **** 
  53:..\..\u8g2\csrc/u8g2_polygon.c **** 
  54:..\..\u8g2\csrc/u8g2_polygon.c **** struct _pg_struct
  55:..\..\u8g2\csrc/u8g2_polygon.c **** {
  56:..\..\u8g2\csrc/u8g2_polygon.c ****   struct pg_point_struct list[PG_MAX_POINTS];
  57:..\..\u8g2\csrc/u8g2_polygon.c ****   uint8_t cnt;
  58:..\..\u8g2\csrc/u8g2_polygon.c ****   uint8_t is_min_y_not_flat;
  59:..\..\u8g2\csrc/u8g2_polygon.c ****   pg_word_t total_scan_line_cnt;
  60:..\..\u8g2\csrc/u8g2_polygon.c ****   struct pg_edge_struct pge[2];	/* left and right line draw structures */
  61:..\..\u8g2\csrc/u8g2_polygon.c **** };
  62:..\..\u8g2\csrc/u8g2_polygon.c **** 
  63:..\..\u8g2\csrc/u8g2_polygon.c **** 
  64:..\..\u8g2\csrc/u8g2_polygon.c **** /*===========================================*/
  65:..\..\u8g2\csrc/u8g2_polygon.c **** /* procedures, which should not be inlined (save as much flash ROM as possible */
  66:..\..\u8g2\csrc/u8g2_polygon.c **** 
  67:..\..\u8g2\csrc/u8g2_polygon.c **** #define PG_NOINLINE U8G2_NOINLINE
  68:..\..\u8g2\csrc/u8g2_polygon.c **** 
  69:..\..\u8g2\csrc/u8g2_polygon.c **** static uint8_t pge_Next(struct pg_edge_struct *pge) PG_NOINLINE;
  70:..\..\u8g2\csrc/u8g2_polygon.c **** static uint8_t pg_inc(pg_struct *pg, uint8_t i) PG_NOINLINE;
  71:..\..\u8g2\csrc/u8g2_polygon.c **** static uint8_t pg_dec(pg_struct *pg, uint8_t i) PG_NOINLINE;
  72:..\..\u8g2\csrc/u8g2_polygon.c **** static void pg_expand_min_y(pg_struct *pg, pg_word_t min_y, uint8_t pge_idx) PG_NOINLINE;
  73:..\..\u8g2\csrc/u8g2_polygon.c **** static void pg_line_init(pg_struct * const pg, uint8_t pge_index) PG_NOINLINE;
  74:..\..\u8g2\csrc/u8g2_polygon.c **** 
  75:..\..\u8g2\csrc/u8g2_polygon.c **** /*===========================================*/
  76:..\..\u8g2\csrc/u8g2_polygon.c **** /* line draw algorithm */
  77:..\..\u8g2\csrc/u8g2_polygon.c **** 
  78:..\..\u8g2\csrc/u8g2_polygon.c **** static uint8_t pge_Next(struct pg_edge_struct *pge)
  79:..\..\u8g2\csrc/u8g2_polygon.c **** {
  27              		.loc 1 79 0
  28              		.cfi_startproc
  29              		@ args = 0, pretend = 0, frame = 0
  30              		@ frame_needed = 0, uses_anonymous_args = 0
  31              	.LVL0:
  32 0000 30B5     		push	{r4, r5, lr}
  33              		.cfi_def_cfa_offset 12
  34              		.cfi_offset 4, -12
  35              		.cfi_offset 5, -8
ARM GAS  C:\Users\arh\AppData\Local\Temp\ccbxunbd.s 			page 3


  36              		.cfi_offset 14, -4
  80:..\..\u8g2\csrc/u8g2_polygon.c ****   if ( pge->current_y >= pge->max_y )
  37              		.loc 1 80 0
  38 0002 0823     		movs	r3, #8
  39 0004 C15E     		ldrsh	r1, [r0, r3]
  40 0006 0A22     		movs	r2, #10
  41 0008 835E     		ldrsh	r3, [r0, r2]
  42 000a 9942     		cmp	r1, r3
  43 000c 1ADA     		bge	.L4
  81:..\..\u8g2\csrc/u8g2_polygon.c ****     return 0;
  82:..\..\u8g2\csrc/u8g2_polygon.c ****   
  83:..\..\u8g2\csrc/u8g2_polygon.c ****   pge->current_x += pge->current_x_offset;
  44              		.loc 1 83 0
  45 000e 0422     		movs	r2, #4
  46 0010 835E     		ldrsh	r3, [r0, r2]
  47 0012 8289     		ldrh	r2, [r0, #12]
  48 0014 D218     		adds	r2, r2, r3
  49 0016 92B2     		uxth	r2, r2
  50 0018 8281     		strh	r2, [r0, #12]
  84:..\..\u8g2\csrc/u8g2_polygon.c ****   pge->error += pge->error_offset;
  51              		.loc 1 84 0
  52 001a 0624     		movs	r4, #6
  53 001c 035F     		ldrsh	r3, [r0, r4]
  54 001e C489     		ldrh	r4, [r0, #14]
  55 0020 E318     		adds	r3, r4, r3
  56 0022 9BB2     		uxth	r3, r3
  57 0024 1CB2     		sxth	r4, r3
  58 0026 C481     		strh	r4, [r0, #14]
  85:..\..\u8g2\csrc/u8g2_polygon.c ****   if ( pge->error > 0 )
  59              		.loc 1 85 0
  60 0028 002C     		cmp	r4, #0
  61 002a 07DD     		ble	.L3
  86:..\..\u8g2\csrc/u8g2_polygon.c ****   {
  87:..\..\u8g2\csrc/u8g2_polygon.c ****     pge->current_x += pge->x_direction;
  62              		.loc 1 87 0
  63 002c 0025     		movs	r5, #0
  64 002e 445F     		ldrsh	r4, [r0, r5]
  65 0030 1219     		adds	r2, r2, r4
  66 0032 8281     		strh	r2, [r0, #12]
  88:..\..\u8g2\csrc/u8g2_polygon.c ****     pge->error -= pge->height;
  67              		.loc 1 88 0
  68 0034 0224     		movs	r4, #2
  69 0036 025F     		ldrsh	r2, [r0, r4]
  70 0038 9B1A     		subs	r3, r3, r2
  71 003a C381     		strh	r3, [r0, #14]
  72              	.L3:
  89:..\..\u8g2\csrc/u8g2_polygon.c ****   }  
  90:..\..\u8g2\csrc/u8g2_polygon.c ****   
  91:..\..\u8g2\csrc/u8g2_polygon.c ****   pge->current_y++;
  73              		.loc 1 91 0
  74 003c 0131     		adds	r1, r1, #1
  75 003e 0181     		strh	r1, [r0, #8]
  92:..\..\u8g2\csrc/u8g2_polygon.c ****   return 1;
  76              		.loc 1 92 0
  77 0040 0120     		movs	r0, #1
  78              	.LVL1:
  79 0042 00E0     		b	.L2
ARM GAS  C:\Users\arh\AppData\Local\Temp\ccbxunbd.s 			page 4


  80              	.LVL2:
  81              	.L4:
  81:..\..\u8g2\csrc/u8g2_polygon.c ****   
  82              		.loc 1 81 0
  83 0044 0020     		movs	r0, #0
  84              	.LVL3:
  85              	.L2:
  93:..\..\u8g2\csrc/u8g2_polygon.c **** }
  86              		.loc 1 93 0
  87              		@ sp needed
  88 0046 30BD     		pop	{r4, r5, pc}
  89              		.cfi_endproc
  90              	.LFE0:
  91              		.size	pge_Next, .-pge_Next
  92              		.global	__aeabi_idiv
  93              		.global	__aeabi_idivmod
  94              		.section	.text.pge_Init,"ax",%progbits
  95              		.align	2
  96              		.code	16
  97              		.thumb_func
  98              		.type	pge_Init, %function
  99              	pge_Init:
 100              	.LFB1:
  94:..\..\u8g2\csrc/u8g2_polygon.c **** 
  95:..\..\u8g2\csrc/u8g2_polygon.c **** /* assumes y2 > y1 */
  96:..\..\u8g2\csrc/u8g2_polygon.c **** static void pge_Init(struct pg_edge_struct *pge, pg_word_t x1, pg_word_t y1, pg_word_t x2, pg_word_
  97:..\..\u8g2\csrc/u8g2_polygon.c **** {
 101              		.loc 1 97 0
 102              		.cfi_startproc
 103              		@ args = 4, pretend = 0, frame = 0
 104              		@ frame_needed = 0, uses_anonymous_args = 0
 105              	.LVL4:
 106 0000 70B5     		push	{r4, r5, r6, lr}
 107              		.cfi_def_cfa_offset 16
 108              		.cfi_offset 4, -16
 109              		.cfi_offset 5, -12
 110              		.cfi_offset 6, -8
 111              		.cfi_offset 14, -4
 112 0002 0400     		movs	r4, r0
 113 0004 04A8     		add	r0, sp, #16
 114              	.LVL5:
 115 0006 0025     		movs	r5, #0
 116 0008 455F     		ldrsh	r5, [r0, r5]
 117              	.LVL6:
  98:..\..\u8g2\csrc/u8g2_polygon.c ****   pg_word_t dx = x2 - x1;
 118              		.loc 1 98 0
 119 000a 5B1A     		subs	r3, r3, r1
 120              	.LVL7:
 121 000c 9BB2     		uxth	r3, r3
 122 000e 18B2     		sxth	r0, r3
 123              	.LVL8:
  99:..\..\u8g2\csrc/u8g2_polygon.c ****   pg_word_t width;
 100:..\..\u8g2\csrc/u8g2_polygon.c **** 
 101:..\..\u8g2\csrc/u8g2_polygon.c ****   pge->height = y2 - y1;
 124              		.loc 1 101 0
 125 0010 AE1A     		subs	r6, r5, r2
 126 0012 B6B2     		uxth	r6, r6
ARM GAS  C:\Users\arh\AppData\Local\Temp\ccbxunbd.s 			page 5


 127 0014 6680     		strh	r6, [r4, #2]
 102:..\..\u8g2\csrc/u8g2_polygon.c ****   pge->max_y = y2;
 128              		.loc 1 102 0
 129 0016 6581     		strh	r5, [r4, #10]
 103:..\..\u8g2\csrc/u8g2_polygon.c ****   pge->current_y = y1;
 130              		.loc 1 103 0
 131 0018 2281     		strh	r2, [r4, #8]
 104:..\..\u8g2\csrc/u8g2_polygon.c ****   pge->current_x = x1;
 132              		.loc 1 104 0
 133 001a A181     		strh	r1, [r4, #12]
 105:..\..\u8g2\csrc/u8g2_polygon.c **** 
 106:..\..\u8g2\csrc/u8g2_polygon.c ****   if ( dx >= 0 )
 134              		.loc 1 106 0
 135 001c 0028     		cmp	r0, #0
 136 001e 05DB     		blt	.L6
 107:..\..\u8g2\csrc/u8g2_polygon.c ****   {
 108:..\..\u8g2\csrc/u8g2_polygon.c ****     pge->x_direction = 1;
 137              		.loc 1 108 0
 138 0020 0123     		movs	r3, #1
 139 0022 2380     		strh	r3, [r4]
 140              	.LVL9:
 109:..\..\u8g2\csrc/u8g2_polygon.c ****     width = dx;
 110:..\..\u8g2\csrc/u8g2_polygon.c ****     pge->error = 0;
 141              		.loc 1 110 0
 142 0024 0023     		movs	r3, #0
 143 0026 E381     		strh	r3, [r4, #14]
 109:..\..\u8g2\csrc/u8g2_polygon.c ****     width = dx;
 144              		.loc 1 109 0
 145 0028 0500     		movs	r5, r0
 146 002a 07E0     		b	.L7
 147              	.LVL10:
 148              	.L6:
 111:..\..\u8g2\csrc/u8g2_polygon.c ****   }
 112:..\..\u8g2\csrc/u8g2_polygon.c ****   else
 113:..\..\u8g2\csrc/u8g2_polygon.c ****   {
 114:..\..\u8g2\csrc/u8g2_polygon.c ****     pge->x_direction = -1;
 149              		.loc 1 114 0
 150 002c 0122     		movs	r2, #1
 151              	.LVL11:
 152 002e 5242     		rsbs	r2, r2, #0
 153 0030 2280     		strh	r2, [r4]
 115:..\..\u8g2\csrc/u8g2_polygon.c ****     width = -dx;
 154              		.loc 1 115 0
 155 0032 5B42     		rsbs	r3, r3, #0
 156 0034 1DB2     		sxth	r5, r3
 157              	.LVL12:
 116:..\..\u8g2\csrc/u8g2_polygon.c ****     pge->error = 1 - pge->height;
 158              		.loc 1 116 0
 159 0036 0123     		movs	r3, #1
 160 0038 9E1B     		subs	r6, r3, r6
 161 003a E681     		strh	r6, [r4, #14]
 162              	.LVL13:
 163              	.L7:
 117:..\..\u8g2\csrc/u8g2_polygon.c ****   }
 118:..\..\u8g2\csrc/u8g2_polygon.c ****   
 119:..\..\u8g2\csrc/u8g2_polygon.c ****   pge->current_x_offset = dx / pge->height;
 164              		.loc 1 119 0
ARM GAS  C:\Users\arh\AppData\Local\Temp\ccbxunbd.s 			page 6


 165 003c 0223     		movs	r3, #2
 166 003e E65E     		ldrsh	r6, [r4, r3]
 167 0040 3100     		movs	r1, r6
 168              	.LVL14:
 169 0042 FFF7FEFF 		bl	__aeabi_idiv
 170              	.LVL15:
 171 0046 A080     		strh	r0, [r4, #4]
 120:..\..\u8g2\csrc/u8g2_polygon.c ****   pge->error_offset = width % pge->height;
 172              		.loc 1 120 0
 173 0048 3100     		movs	r1, r6
 174 004a 2800     		movs	r0, r5
 175 004c FFF7FEFF 		bl	__aeabi_idivmod
 176              	.LVL16:
 177 0050 E180     		strh	r1, [r4, #6]
 121:..\..\u8g2\csrc/u8g2_polygon.c **** }
 178              		.loc 1 121 0
 179              		@ sp needed
 180              	.LVL17:
 181              	.LVL18:
 182 0052 70BD     		pop	{r4, r5, r6, pc}
 183              		.cfi_endproc
 184              	.LFE1:
 185              		.size	pge_Init, .-pge_Init
 186              		.section	.text.pg_inc,"ax",%progbits
 187              		.align	2
 188              		.code	16
 189              		.thumb_func
 190              		.type	pg_inc, %function
 191              	pg_inc:
 192              	.LFB2:
 122:..\..\u8g2\csrc/u8g2_polygon.c **** 
 123:..\..\u8g2\csrc/u8g2_polygon.c **** /*===========================================*/
 124:..\..\u8g2\csrc/u8g2_polygon.c **** /* convex polygon algorithm */
 125:..\..\u8g2\csrc/u8g2_polygon.c **** 
 126:..\..\u8g2\csrc/u8g2_polygon.c **** static uint8_t pg_inc(pg_struct *pg, uint8_t i)
 127:..\..\u8g2\csrc/u8g2_polygon.c **** {
 193              		.loc 1 127 0
 194              		.cfi_startproc
 195              		@ args = 0, pretend = 0, frame = 0
 196              		@ frame_needed = 0, uses_anonymous_args = 0
 197              		@ link register save eliminated.
 198              	.LVL19:
 128:..\..\u8g2\csrc/u8g2_polygon.c ****     i++;
 199              		.loc 1 128 0
 200 0000 0131     		adds	r1, r1, #1
 201              	.LVL20:
 202 0002 C9B2     		uxtb	r1, r1
 203              	.LVL21:
 129:..\..\u8g2\csrc/u8g2_polygon.c ****     if ( i >= pg->cnt )
 204              		.loc 1 129 0
 205 0004 037E     		ldrb	r3, [r0, #24]
 206 0006 9942     		cmp	r1, r3
 207 0008 00D3     		bcc	.L9
 130:..\..\u8g2\csrc/u8g2_polygon.c ****       i = 0;
 208              		.loc 1 130 0
 209 000a 0021     		movs	r1, #0
 210              	.LVL22:
ARM GAS  C:\Users\arh\AppData\Local\Temp\ccbxunbd.s 			page 7


 211              	.L9:
 131:..\..\u8g2\csrc/u8g2_polygon.c ****     return i;
 132:..\..\u8g2\csrc/u8g2_polygon.c **** }
 212              		.loc 1 132 0
 213 000c 0800     		movs	r0, r1
 214              	.LVL23:
 215              		@ sp needed
 216 000e 7047     		bx	lr
 217              		.cfi_endproc
 218              	.LFE2:
 219              		.size	pg_inc, .-pg_inc
 220              		.section	.text.pg_dec,"ax",%progbits
 221              		.align	2
 222              		.code	16
 223              		.thumb_func
 224              		.type	pg_dec, %function
 225              	pg_dec:
 226              	.LFB3:
 133:..\..\u8g2\csrc/u8g2_polygon.c **** 
 134:..\..\u8g2\csrc/u8g2_polygon.c **** static uint8_t pg_dec(pg_struct *pg, uint8_t i)
 135:..\..\u8g2\csrc/u8g2_polygon.c **** {
 227              		.loc 1 135 0
 228              		.cfi_startproc
 229              		@ args = 0, pretend = 0, frame = 0
 230              		@ frame_needed = 0, uses_anonymous_args = 0
 231              		@ link register save eliminated.
 232              	.LVL24:
 136:..\..\u8g2\csrc/u8g2_polygon.c ****     i--;
 233              		.loc 1 136 0
 234 0000 0139     		subs	r1, r1, #1
 235              	.LVL25:
 236 0002 C9B2     		uxtb	r1, r1
 237              	.LVL26:
 137:..\..\u8g2\csrc/u8g2_polygon.c ****     if ( i >= pg->cnt )
 238              		.loc 1 137 0
 239 0004 007E     		ldrb	r0, [r0, #24]
 240              	.LVL27:
 241 0006 8142     		cmp	r1, r0
 242 0008 01D3     		bcc	.L12
 138:..\..\u8g2\csrc/u8g2_polygon.c ****       i = pg->cnt-1;
 243              		.loc 1 138 0
 244 000a 0138     		subs	r0, r0, #1
 245 000c C1B2     		uxtb	r1, r0
 246              	.LVL28:
 247              	.L12:
 139:..\..\u8g2\csrc/u8g2_polygon.c ****     return i;
 140:..\..\u8g2\csrc/u8g2_polygon.c **** }
 248              		.loc 1 140 0
 249 000e 0800     		movs	r0, r1
 250              		@ sp needed
 251 0010 7047     		bx	lr
 252              		.cfi_endproc
 253              	.LFE3:
 254              		.size	pg_dec, .-pg_dec
 255 0012 C046     		.section	.text.pg_expand_min_y,"ax",%progbits
 256              		.align	2
 257              		.code	16
ARM GAS  C:\Users\arh\AppData\Local\Temp\ccbxunbd.s 			page 8


 258              		.thumb_func
 259              		.type	pg_expand_min_y, %function
 260              	pg_expand_min_y:
 261              	.LFB4:
 141:..\..\u8g2\csrc/u8g2_polygon.c **** 
 142:..\..\u8g2\csrc/u8g2_polygon.c **** static void pg_expand_min_y(pg_struct *pg, pg_word_t min_y, uint8_t pge_idx)
 143:..\..\u8g2\csrc/u8g2_polygon.c **** {
 262              		.loc 1 143 0
 263              		.cfi_startproc
 264              		@ args = 0, pretend = 0, frame = 0
 265              		@ frame_needed = 0, uses_anonymous_args = 0
 266              	.LVL29:
 267 0000 70B5     		push	{r4, r5, r6, lr}
 268              		.cfi_def_cfa_offset 16
 269              		.cfi_offset 4, -16
 270              		.cfi_offset 5, -12
 271              		.cfi_offset 6, -8
 272              		.cfi_offset 14, -4
 273 0002 0400     		movs	r4, r0
 274 0004 0E00     		movs	r6, r1
 275 0006 1500     		movs	r5, r2
 144:..\..\u8g2\csrc/u8g2_polygon.c ****   uint8_t i = pg->pge[pge_idx].curr_idx;
 276              		.loc 1 144 0
 277 0008 5200     		lsls	r2, r2, #1
 278              	.LVL30:
 279 000a 5219     		adds	r2, r2, r5
 280 000c D300     		lsls	r3, r2, #3
 281 000e C318     		adds	r3, r0, r3
 282 0010 3033     		adds	r3, r3, #48
 283 0012 1978     		ldrb	r1, [r3]
 284              	.LVL31:
 285              	.L15:
 145:..\..\u8g2\csrc/u8g2_polygon.c ****   for(;;)
 146:..\..\u8g2\csrc/u8g2_polygon.c ****   {
 147:..\..\u8g2\csrc/u8g2_polygon.c ****     i = pg->pge[pge_idx].next_idx_fn(pg, i);
 286              		.loc 1 147 0
 287 0014 6A00     		lsls	r2, r5, #1
 288 0016 5219     		adds	r2, r2, r5
 289 0018 D300     		lsls	r3, r2, #3
 290 001a E318     		adds	r3, r4, r3
 291 001c DB6A     		ldr	r3, [r3, #44]
 292 001e 2000     		movs	r0, r4
 293 0020 9847     		blx	r3
 294              	.LVL32:
 295 0022 0100     		movs	r1, r0
 296              	.LVL33:
 148:..\..\u8g2\csrc/u8g2_polygon.c ****     if ( pg->list[i].y != min_y )
 297              		.loc 1 148 0
 298 0024 8300     		lsls	r3, r0, #2
 299 0026 E318     		adds	r3, r4, r3
 300 0028 0222     		movs	r2, #2
 301 002a 9B5E     		ldrsh	r3, [r3, r2]
 302 002c B342     		cmp	r3, r6
 303 002e 06D1     		bne	.L13
 149:..\..\u8g2\csrc/u8g2_polygon.c ****       break;	
 150:..\..\u8g2\csrc/u8g2_polygon.c ****     pg->pge[pge_idx].curr_idx = i;
 304              		.loc 1 150 0
ARM GAS  C:\Users\arh\AppData\Local\Temp\ccbxunbd.s 			page 9


 305 0030 6A00     		lsls	r2, r5, #1
 306 0032 5219     		adds	r2, r2, r5
 307 0034 D300     		lsls	r3, r2, #3
 308 0036 E318     		adds	r3, r4, r3
 309 0038 3033     		adds	r3, r3, #48
 310 003a 1870     		strb	r0, [r3]
 151:..\..\u8g2\csrc/u8g2_polygon.c ****   }
 311              		.loc 1 151 0
 312 003c EAE7     		b	.L15
 313              	.L13:
 152:..\..\u8g2\csrc/u8g2_polygon.c **** }
 314              		.loc 1 152 0
 315              		@ sp needed
 316              	.LVL34:
 317 003e 70BD     		pop	{r4, r5, r6, pc}
 318              		.cfi_endproc
 319              	.LFE4:
 320              		.size	pg_expand_min_y, .-pg_expand_min_y
 321              		.section	.text.pg_prepare,"ax",%progbits
 322              		.align	2
 323              		.code	16
 324              		.thumb_func
 325              		.type	pg_prepare, %function
 326              	pg_prepare:
 327              	.LFB5:
 153:..\..\u8g2\csrc/u8g2_polygon.c **** 
 154:..\..\u8g2\csrc/u8g2_polygon.c **** static uint8_t pg_prepare(pg_struct *pg)
 155:..\..\u8g2\csrc/u8g2_polygon.c **** {
 328              		.loc 1 155 0
 329              		.cfi_startproc
 330              		@ args = 0, pretend = 0, frame = 0
 331              		@ frame_needed = 0, uses_anonymous_args = 0
 332              	.LVL35:
 333 0000 F8B5     		push	{r3, r4, r5, r6, r7, lr}
 334              		.cfi_def_cfa_offset 24
 335              		.cfi_offset 3, -24
 336              		.cfi_offset 4, -20
 337              		.cfi_offset 5, -16
 338              		.cfi_offset 6, -12
 339              		.cfi_offset 7, -8
 340              		.cfi_offset 14, -4
 341 0002 0400     		movs	r4, r0
 156:..\..\u8g2\csrc/u8g2_polygon.c ****   pg_word_t max_y;
 157:..\..\u8g2\csrc/u8g2_polygon.c ****   pg_word_t min_y;
 158:..\..\u8g2\csrc/u8g2_polygon.c ****   uint8_t i;
 159:..\..\u8g2\csrc/u8g2_polygon.c **** 
 160:..\..\u8g2\csrc/u8g2_polygon.c ****   /* setup the next index procedures */
 161:..\..\u8g2\csrc/u8g2_polygon.c ****   pg->pge[PG_RIGHT].next_idx_fn = pg_inc;
 342              		.loc 1 161 0
 343 0004 274B     		ldr	r3, .L25
 344 0006 4364     		str	r3, [r0, #68]
 162:..\..\u8g2\csrc/u8g2_polygon.c ****   pg->pge[PG_LEFT].next_idx_fn = pg_dec;
 345              		.loc 1 162 0
 346 0008 274B     		ldr	r3, .L25+4
 347 000a C362     		str	r3, [r0, #44]
 163:..\..\u8g2\csrc/u8g2_polygon.c ****   
 164:..\..\u8g2\csrc/u8g2_polygon.c ****   /* search for highest and lowest point */
ARM GAS  C:\Users\arh\AppData\Local\Temp\ccbxunbd.s 			page 10


 165:..\..\u8g2\csrc/u8g2_polygon.c ****   max_y = pg->list[0].y;
 348              		.loc 1 165 0
 349 000c 0223     		movs	r3, #2
 350 000e C05E     		ldrsh	r0, [r0, r3]
 351              	.LVL36:
 166:..\..\u8g2\csrc/u8g2_polygon.c ****   min_y = pg->list[0].y;
 167:..\..\u8g2\csrc/u8g2_polygon.c ****   pg->pge[PG_LEFT].curr_idx = 0;
 352              		.loc 1 167 0
 353 0010 0022     		movs	r2, #0
 354 0012 3023     		movs	r3, #48
 355 0014 E254     		strb	r2, [r4, r3]
 356              	.LVL37:
 166:..\..\u8g2\csrc/u8g2_polygon.c ****   min_y = pg->list[0].y;
 357              		.loc 1 166 0
 358 0016 0500     		movs	r5, r0
 168:..\..\u8g2\csrc/u8g2_polygon.c ****   for( i = 1; i < pg->cnt; i++ )
 359              		.loc 1 168 0
 360 0018 2F3B     		subs	r3, r3, #47
 361 001a 11E0     		b	.L17
 362              	.LVL38:
 363              	.L20:
 169:..\..\u8g2\csrc/u8g2_polygon.c ****   {
 170:..\..\u8g2\csrc/u8g2_polygon.c ****     if ( max_y < pg->list[i].y )
 364              		.loc 1 170 0
 365 001c 1E00     		movs	r6, r3
 366 001e 9A00     		lsls	r2, r3, #2
 367 0020 A218     		adds	r2, r4, r2
 368 0022 0221     		movs	r1, #2
 369 0024 515E     		ldrsh	r1, [r2, r1]
 370 0026 8842     		cmp	r0, r1
 371 0028 00DA     		bge	.L18
 171:..\..\u8g2\csrc/u8g2_polygon.c ****     {
 172:..\..\u8g2\csrc/u8g2_polygon.c ****       max_y = pg->list[i].y;
 372              		.loc 1 172 0
 373 002a 0800     		movs	r0, r1
 374              	.LVL39:
 375              	.L18:
 173:..\..\u8g2\csrc/u8g2_polygon.c ****     }
 174:..\..\u8g2\csrc/u8g2_polygon.c ****     if ( min_y > pg->list[i].y )
 376              		.loc 1 174 0
 377 002c 8D42     		cmp	r5, r1
 378 002e 05DD     		ble	.L19
 175:..\..\u8g2\csrc/u8g2_polygon.c ****     {
 176:..\..\u8g2\csrc/u8g2_polygon.c ****       pg->pge[PG_LEFT].curr_idx = i;
 379              		.loc 1 176 0
 380 0030 3022     		movs	r2, #48
 381 0032 A354     		strb	r3, [r4, r2]
 177:..\..\u8g2\csrc/u8g2_polygon.c ****       min_y = pg->list[i].y;
 382              		.loc 1 177 0
 383 0034 B200     		lsls	r2, r6, #2
 384 0036 A218     		adds	r2, r4, r2
 385 0038 0225     		movs	r5, #2
 386 003a 555F     		ldrsh	r5, [r2, r5]
 387              	.LVL40:
 388              	.L19:
 168:..\..\u8g2\csrc/u8g2_polygon.c ****   {
 389              		.loc 1 168 0 discriminator 2
ARM GAS  C:\Users\arh\AppData\Local\Temp\ccbxunbd.s 			page 11


 390 003c 0133     		adds	r3, r3, #1
 391              	.LVL41:
 392 003e DBB2     		uxtb	r3, r3
 393              	.LVL42:
 394              	.L17:
 168:..\..\u8g2\csrc/u8g2_polygon.c ****   {
 395              		.loc 1 168 0 is_stmt 0 discriminator 1
 396 0040 227E     		ldrb	r2, [r4, #24]
 397 0042 9342     		cmp	r3, r2
 398 0044 EAD3     		bcc	.L20
 178:..\..\u8g2\csrc/u8g2_polygon.c ****     }
 179:..\..\u8g2\csrc/u8g2_polygon.c ****   }
 180:..\..\u8g2\csrc/u8g2_polygon.c **** 
 181:..\..\u8g2\csrc/u8g2_polygon.c ****   /* calculate total number of scan lines */
 182:..\..\u8g2\csrc/u8g2_polygon.c ****   pg->total_scan_line_cnt = max_y;
 183:..\..\u8g2\csrc/u8g2_polygon.c ****   pg->total_scan_line_cnt -= min_y;
 399              		.loc 1 183 0 is_stmt 1
 400 0046 401B     		subs	r0, r0, r5
 401              	.LVL43:
 402 0048 00B2     		sxth	r0, r0
 403 004a 6083     		strh	r0, [r4, #26]
 184:..\..\u8g2\csrc/u8g2_polygon.c ****   
 185:..\..\u8g2\csrc/u8g2_polygon.c ****   /* exit if polygon height is zero */
 186:..\..\u8g2\csrc/u8g2_polygon.c ****   if ( pg->total_scan_line_cnt == 0 )
 404              		.loc 1 186 0
 405 004c 0028     		cmp	r0, #0
 406 004e 24D0     		beq	.L23
 187:..\..\u8g2\csrc/u8g2_polygon.c ****     return 0;
 188:..\..\u8g2\csrc/u8g2_polygon.c ****   
 189:..\..\u8g2\csrc/u8g2_polygon.c ****   /* if the minimum y side is flat, try to find the lowest and highest x points */
 190:..\..\u8g2\csrc/u8g2_polygon.c ****   pg->pge[PG_RIGHT].curr_idx = pg->pge[PG_LEFT].curr_idx;  
 407              		.loc 1 190 0
 408 0050 3027     		movs	r7, #48
 409 0052 E35D     		ldrb	r3, [r4, r7]
 410              	.LVL44:
 411 0054 4826     		movs	r6, #72
 412 0056 A355     		strb	r3, [r4, r6]
 191:..\..\u8g2\csrc/u8g2_polygon.c ****   pg_expand_min_y(pg, min_y, PG_RIGHT);
 413              		.loc 1 191 0
 414 0058 0122     		movs	r2, #1
 415 005a 2900     		movs	r1, r5
 416 005c 2000     		movs	r0, r4
 417 005e FFF7FEFF 		bl	pg_expand_min_y
 418              	.LVL45:
 192:..\..\u8g2\csrc/u8g2_polygon.c ****   pg_expand_min_y(pg, min_y, PG_LEFT);
 419              		.loc 1 192 0
 420 0062 0022     		movs	r2, #0
 421 0064 2900     		movs	r1, r5
 422 0066 2000     		movs	r0, r4
 423 0068 FFF7FEFF 		bl	pg_expand_min_y
 424              	.LVL46:
 193:..\..\u8g2\csrc/u8g2_polygon.c ****   
 194:..\..\u8g2\csrc/u8g2_polygon.c ****   /* check if the min side is really flat (depends on the x values) */
 195:..\..\u8g2\csrc/u8g2_polygon.c ****   pg->is_min_y_not_flat = 1;
 425              		.loc 1 195 0
 426 006c 0123     		movs	r3, #1
 427 006e 6376     		strb	r3, [r4, #25]
ARM GAS  C:\Users\arh\AppData\Local\Temp\ccbxunbd.s 			page 12


 196:..\..\u8g2\csrc/u8g2_polygon.c ****   if ( pg->list[pg->pge[PG_LEFT].curr_idx].x != pg->list[pg->pge[PG_RIGHT].curr_idx].x )
 428              		.loc 1 196 0
 429 0070 E35D     		ldrb	r3, [r4, r7]
 430 0072 9B00     		lsls	r3, r3, #2
 431 0074 1A5F     		ldrsh	r2, [r3, r4]
 432 0076 A35D     		ldrb	r3, [r4, r6]
 433 0078 9B00     		lsls	r3, r3, #2
 434 007a 1B5F     		ldrsh	r3, [r3, r4]
 435 007c 9A42     		cmp	r2, r3
 436 007e 03D0     		beq	.L22
 197:..\..\u8g2\csrc/u8g2_polygon.c ****   {
 198:..\..\u8g2\csrc/u8g2_polygon.c ****     pg->is_min_y_not_flat = 0;
 437              		.loc 1 198 0
 438 0080 0023     		movs	r3, #0
 439 0082 6376     		strb	r3, [r4, #25]
 199:..\..\u8g2\csrc/u8g2_polygon.c ****   }
 200:..\..\u8g2\csrc/u8g2_polygon.c ****   else
 201:..\..\u8g2\csrc/u8g2_polygon.c ****   {
 202:..\..\u8g2\csrc/u8g2_polygon.c ****     pg->total_scan_line_cnt--;
 203:..\..\u8g2\csrc/u8g2_polygon.c ****     if ( pg->total_scan_line_cnt == 0 )
 204:..\..\u8g2\csrc/u8g2_polygon.c ****       return 0;
 205:..\..\u8g2\csrc/u8g2_polygon.c ****   }
 206:..\..\u8g2\csrc/u8g2_polygon.c **** 
 207:..\..\u8g2\csrc/u8g2_polygon.c ****   return 1;
 440              		.loc 1 207 0
 441 0084 0120     		movs	r0, #1
 442 0086 0BE0     		b	.L21
 443              	.L22:
 202:..\..\u8g2\csrc/u8g2_polygon.c ****     if ( pg->total_scan_line_cnt == 0 )
 444              		.loc 1 202 0
 445 0088 1A22     		movs	r2, #26
 446 008a A35E     		ldrsh	r3, [r4, r2]
 447 008c 013B     		subs	r3, r3, #1
 448 008e 1BB2     		sxth	r3, r3
 449 0090 6383     		strh	r3, [r4, #26]
 203:..\..\u8g2\csrc/u8g2_polygon.c ****       return 0;
 450              		.loc 1 203 0
 451 0092 002B     		cmp	r3, #0
 452 0094 03D1     		bne	.L24
 204:..\..\u8g2\csrc/u8g2_polygon.c ****   }
 453              		.loc 1 204 0
 454 0096 0020     		movs	r0, #0
 455 0098 02E0     		b	.L21
 456              	.LVL47:
 457              	.L23:
 187:..\..\u8g2\csrc/u8g2_polygon.c ****   
 458              		.loc 1 187 0
 459 009a 0020     		movs	r0, #0
 460 009c 00E0     		b	.L21
 461              	.LVL48:
 462              	.L24:
 463              		.loc 1 207 0
 464 009e 0120     		movs	r0, #1
 465              	.L21:
 208:..\..\u8g2\csrc/u8g2_polygon.c **** }
 466              		.loc 1 208 0
 467              		@ sp needed
ARM GAS  C:\Users\arh\AppData\Local\Temp\ccbxunbd.s 			page 13


 468              	.LVL49:
 469              	.LVL50:
 470 00a0 F8BD     		pop	{r3, r4, r5, r6, r7, pc}
 471              	.L26:
 472 00a2 C046     		.align	2
 473              	.L25:
 474 00a4 00000000 		.word	pg_inc
 475 00a8 00000000 		.word	pg_dec
 476              		.cfi_endproc
 477              	.LFE5:
 478              		.size	pg_prepare, .-pg_prepare
 479              		.section	.text.pg_line_init,"ax",%progbits
 480              		.align	2
 481              		.code	16
 482              		.thumb_func
 483              		.type	pg_line_init, %function
 484              	pg_line_init:
 485              	.LFB7:
 209:..\..\u8g2\csrc/u8g2_polygon.c **** 
 210:..\..\u8g2\csrc/u8g2_polygon.c **** static void pg_hline(pg_struct *pg, u8g2_t *u8g2)
 211:..\..\u8g2\csrc/u8g2_polygon.c **** {
 212:..\..\u8g2\csrc/u8g2_polygon.c ****   pg_word_t x1, x2, y;
 213:..\..\u8g2\csrc/u8g2_polygon.c ****   x1 = pg->pge[PG_LEFT].current_x;
 214:..\..\u8g2\csrc/u8g2_polygon.c ****   x2 = pg->pge[PG_RIGHT].current_x;
 215:..\..\u8g2\csrc/u8g2_polygon.c ****   y = pg->pge[PG_RIGHT].current_y;
 216:..\..\u8g2\csrc/u8g2_polygon.c ****   
 217:..\..\u8g2\csrc/u8g2_polygon.c ****   if ( y < 0 )
 218:..\..\u8g2\csrc/u8g2_polygon.c ****     return;
 219:..\..\u8g2\csrc/u8g2_polygon.c ****   if ( y >= u8g2_GetDisplayHeight(u8g2) )  // does not work for 256x64 display???
 220:..\..\u8g2\csrc/u8g2_polygon.c ****     return;
 221:..\..\u8g2\csrc/u8g2_polygon.c ****   if ( x1 < x2 )
 222:..\..\u8g2\csrc/u8g2_polygon.c ****   {
 223:..\..\u8g2\csrc/u8g2_polygon.c ****     if ( x2 < 0 )
 224:..\..\u8g2\csrc/u8g2_polygon.c ****       return;
 225:..\..\u8g2\csrc/u8g2_polygon.c ****     if ( x1 >= u8g2_GetDisplayWidth(u8g2) )
 226:..\..\u8g2\csrc/u8g2_polygon.c ****       return;
 227:..\..\u8g2\csrc/u8g2_polygon.c ****     if ( x1 < 0 )
 228:..\..\u8g2\csrc/u8g2_polygon.c ****       x1 = 0;
 229:..\..\u8g2\csrc/u8g2_polygon.c ****     if ( x2 >= u8g2_GetDisplayWidth(u8g2) )
 230:..\..\u8g2\csrc/u8g2_polygon.c ****       x2 = u8g2_GetDisplayWidth(u8g2);
 231:..\..\u8g2\csrc/u8g2_polygon.c ****     u8g2_DrawHLine(u8g2, x1, y, x2 - x1);
 232:..\..\u8g2\csrc/u8g2_polygon.c ****   }
 233:..\..\u8g2\csrc/u8g2_polygon.c ****   else
 234:..\..\u8g2\csrc/u8g2_polygon.c ****   {
 235:..\..\u8g2\csrc/u8g2_polygon.c ****     if ( x1 < 0 )
 236:..\..\u8g2\csrc/u8g2_polygon.c ****       return;
 237:..\..\u8g2\csrc/u8g2_polygon.c ****     if ( x2 >= u8g2_GetDisplayWidth(u8g2) )
 238:..\..\u8g2\csrc/u8g2_polygon.c ****       return;
 239:..\..\u8g2\csrc/u8g2_polygon.c ****     if ( x2 < 0 )
 240:..\..\u8g2\csrc/u8g2_polygon.c ****       x1 = 0;
 241:..\..\u8g2\csrc/u8g2_polygon.c ****     if ( x1 >= u8g2_GetDisplayWidth(u8g2) )
 242:..\..\u8g2\csrc/u8g2_polygon.c ****       x1 = u8g2_GetDisplayWidth(u8g2);
 243:..\..\u8g2\csrc/u8g2_polygon.c ****     u8g2_DrawHLine(u8g2, x2, y, x1 - x2);
 244:..\..\u8g2\csrc/u8g2_polygon.c ****   }
 245:..\..\u8g2\csrc/u8g2_polygon.c **** }
 246:..\..\u8g2\csrc/u8g2_polygon.c **** 
 247:..\..\u8g2\csrc/u8g2_polygon.c **** static void pg_line_init(pg_struct * const pg, uint8_t pge_index)
ARM GAS  C:\Users\arh\AppData\Local\Temp\ccbxunbd.s 			page 14


 248:..\..\u8g2\csrc/u8g2_polygon.c **** {
 486              		.loc 1 248 0
 487              		.cfi_startproc
 488              		@ args = 0, pretend = 0, frame = 0
 489              		@ frame_needed = 0, uses_anonymous_args = 0
 490              	.LVL51:
 491 0000 F0B5     		push	{r4, r5, r6, r7, lr}
 492              		.cfi_def_cfa_offset 20
 493              		.cfi_offset 4, -20
 494              		.cfi_offset 5, -16
 495              		.cfi_offset 6, -12
 496              		.cfi_offset 7, -8
 497              		.cfi_offset 14, -4
 498 0002 83B0     		sub	sp, sp, #12
 499              		.cfi_def_cfa_offset 32
 500 0004 0500     		movs	r5, r0
 249:..\..\u8g2\csrc/u8g2_polygon.c ****   struct pg_edge_struct  *pge = pg->pge+pge_index;
 501              		.loc 1 249 0
 502 0006 0400     		movs	r4, r0
 503 0008 1C34     		adds	r4, r4, #28
 504 000a 4B00     		lsls	r3, r1, #1
 505 000c 5918     		adds	r1, r3, r1
 506              	.LVL52:
 507 000e CB00     		lsls	r3, r1, #3
 508 0010 E418     		adds	r4, r4, r3
 509              	.LVL53:
 250:..\..\u8g2\csrc/u8g2_polygon.c ****   uint8_t idx;  
 251:..\..\u8g2\csrc/u8g2_polygon.c ****   pg_word_t x1;
 252:..\..\u8g2\csrc/u8g2_polygon.c ****   pg_word_t y1;
 253:..\..\u8g2\csrc/u8g2_polygon.c ****   pg_word_t x2;
 254:..\..\u8g2\csrc/u8g2_polygon.c ****   pg_word_t y2;
 255:..\..\u8g2\csrc/u8g2_polygon.c **** 
 256:..\..\u8g2\csrc/u8g2_polygon.c ****   idx = pge->curr_idx;  
 510              		.loc 1 256 0
 511 0012 217D     		ldrb	r1, [r4, #20]
 512              	.LVL54:
 257:..\..\u8g2\csrc/u8g2_polygon.c ****   y1 = pg->list[idx].y;
 513              		.loc 1 257 0
 514 0014 8B00     		lsls	r3, r1, #2
 515 0016 C218     		adds	r2, r0, r3
 516 0018 0227     		movs	r7, #2
 517 001a D75F     		ldrsh	r7, [r2, r7]
 518              	.LVL55:
 258:..\..\u8g2\csrc/u8g2_polygon.c ****   x1 = pg->list[idx].x;
 519              		.loc 1 258 0
 520 001c 1E5E     		ldrsh	r6, [r3, r0]
 521              	.LVL56:
 259:..\..\u8g2\csrc/u8g2_polygon.c ****   idx = pge->next_idx_fn(pg, idx);
 522              		.loc 1 259 0
 523 001e 2369     		ldr	r3, [r4, #16]
 524 0020 9847     		blx	r3
 525              	.LVL57:
 260:..\..\u8g2\csrc/u8g2_polygon.c ****   y2 = pg->list[idx].y;
 526              		.loc 1 260 0
 527 0022 8300     		lsls	r3, r0, #2
 528 0024 EA18     		adds	r2, r5, r3
 529 0026 0221     		movs	r1, #2
ARM GAS  C:\Users\arh\AppData\Local\Temp\ccbxunbd.s 			page 15


 530 0028 525E     		ldrsh	r2, [r2, r1]
 531              	.LVL58:
 261:..\..\u8g2\csrc/u8g2_polygon.c ****   x2 = pg->list[idx].x; 
 532              		.loc 1 261 0
 533 002a 5B5F     		ldrsh	r3, [r3, r5]
 534              	.LVL59:
 262:..\..\u8g2\csrc/u8g2_polygon.c ****   pge->curr_idx = idx;
 535              		.loc 1 262 0
 536 002c 2075     		strb	r0, [r4, #20]
 263:..\..\u8g2\csrc/u8g2_polygon.c ****   
 264:..\..\u8g2\csrc/u8g2_polygon.c ****   pge_Init(pge, x1, y1, x2, y2);
 537              		.loc 1 264 0
 538 002e 0092     		str	r2, [sp]
 539 0030 3A00     		movs	r2, r7
 540              	.LVL60:
 541 0032 3100     		movs	r1, r6
 542 0034 2000     		movs	r0, r4
 543              	.LVL61:
 544 0036 FFF7FEFF 		bl	pge_Init
 545              	.LVL62:
 265:..\..\u8g2\csrc/u8g2_polygon.c **** }
 546              		.loc 1 265 0
 547 003a 03B0     		add	sp, sp, #12
 548              		@ sp needed
 549              	.LVL63:
 550              	.LVL64:
 551              	.LVL65:
 552              	.LVL66:
 553 003c F0BD     		pop	{r4, r5, r6, r7, pc}
 554              		.cfi_endproc
 555              	.LFE7:
 556              		.size	pg_line_init, .-pg_line_init
 557 003e C046     		.section	.text.pg_hline,"ax",%progbits
 558              		.align	2
 559              		.code	16
 560              		.thumb_func
 561              		.type	pg_hline, %function
 562              	pg_hline:
 563              	.LFB6:
 211:..\..\u8g2\csrc/u8g2_polygon.c ****   pg_word_t x1, x2, y;
 564              		.loc 1 211 0
 565              		.cfi_startproc
 566              		@ args = 0, pretend = 0, frame = 0
 567              		@ frame_needed = 0, uses_anonymous_args = 0
 568              	.LVL67:
 569 0000 70B5     		push	{r4, r5, r6, lr}
 570              		.cfi_def_cfa_offset 16
 571              		.cfi_offset 4, -16
 572              		.cfi_offset 5, -12
 573              		.cfi_offset 6, -8
 574              		.cfi_offset 14, -4
 575 0002 0D00     		movs	r5, r1
 213:..\..\u8g2\csrc/u8g2_polygon.c ****   x2 = pg->pge[PG_RIGHT].current_x;
 576              		.loc 1 213 0
 577 0004 2822     		movs	r2, #40
 578 0006 835E     		ldrsh	r3, [r0, r2]
 579              	.LVL68:
ARM GAS  C:\Users\arh\AppData\Local\Temp\ccbxunbd.s 			page 16


 214:..\..\u8g2\csrc/u8g2_polygon.c ****   y = pg->pge[PG_RIGHT].current_y;
 580              		.loc 1 214 0
 581 0008 4022     		movs	r2, #64
 582 000a 845E     		ldrsh	r4, [r0, r2]
 583              	.LVL69:
 215:..\..\u8g2\csrc/u8g2_polygon.c ****   
 584              		.loc 1 215 0
 585 000c 3C21     		movs	r1, #60
 586 000e 425E     		ldrsh	r2, [r0, r1]
 587              	.LVL70:
 217:..\..\u8g2\csrc/u8g2_polygon.c ****     return;
 588              		.loc 1 217 0
 589 0010 002A     		cmp	r2, #0
 590 0012 2EDB     		blt	.L28
 219:..\..\u8g2\csrc/u8g2_polygon.c ****     return;
 591              		.loc 1 219 0
 592 0014 4021     		movs	r1, #64
 593 0016 695C     		ldrb	r1, [r5, r1]
 594 0018 8A42     		cmp	r2, r1
 595 001a 2ADA     		bge	.L28
 221:..\..\u8g2\csrc/u8g2_polygon.c ****   {
 596              		.loc 1 221 0
 597 001c A342     		cmp	r3, r4
 598 001e 14DA     		bge	.L30
 223:..\..\u8g2\csrc/u8g2_polygon.c ****       return;
 599              		.loc 1 223 0
 600 0020 002C     		cmp	r4, #0
 601 0022 26DB     		blt	.L28
 225:..\..\u8g2\csrc/u8g2_polygon.c ****       return;
 602              		.loc 1 225 0
 603 0024 3F21     		movs	r1, #63
 604 0026 695C     		ldrb	r1, [r5, r1]
 605 0028 0800     		movs	r0, r1
 606              	.LVL71:
 607 002a 8B42     		cmp	r3, r1
 608 002c 21DA     		bge	.L28
 227:..\..\u8g2\csrc/u8g2_polygon.c ****       x1 = 0;
 609              		.loc 1 227 0
 610 002e 002B     		cmp	r3, #0
 611 0030 00DA     		bge	.L31
 228:..\..\u8g2\csrc/u8g2_polygon.c ****     if ( x2 >= u8g2_GetDisplayWidth(u8g2) )
 612              		.loc 1 228 0
 613 0032 0023     		movs	r3, #0
 614              	.LVL72:
 615              	.L31:
 229:..\..\u8g2\csrc/u8g2_polygon.c ****       x2 = u8g2_GetDisplayWidth(u8g2);
 616              		.loc 1 229 0
 617 0034 A042     		cmp	r0, r4
 618 0036 00DC     		bgt	.L32
 230:..\..\u8g2\csrc/u8g2_polygon.c ****     u8g2_DrawHLine(u8g2, x1, y, x2 - x1);
 619              		.loc 1 230 0
 620 0038 0CB2     		sxth	r4, r1
 621              	.LVL73:
 622              	.L32:
 231:..\..\u8g2\csrc/u8g2_polygon.c ****   }
 623              		.loc 1 231 0
 624 003a D9B2     		uxtb	r1, r3
ARM GAS  C:\Users\arh\AppData\Local\Temp\ccbxunbd.s 			page 17


 625 003c 631A     		subs	r3, r4, r1
 626              	.LVL74:
 627 003e DBB2     		uxtb	r3, r3
 628 0040 D2B2     		uxtb	r2, r2
 629              	.LVL75:
 630 0042 2800     		movs	r0, r5
 631 0044 FFF7FEFF 		bl	u8g2_DrawHLine
 632              	.LVL76:
 633 0048 13E0     		b	.L28
 634              	.LVL77:
 635              	.L30:
 235:..\..\u8g2\csrc/u8g2_polygon.c ****       return;
 636              		.loc 1 235 0
 637 004a 002B     		cmp	r3, #0
 638 004c 11DB     		blt	.L28
 237:..\..\u8g2\csrc/u8g2_polygon.c ****       return;
 639              		.loc 1 237 0
 640 004e 3F21     		movs	r1, #63
 641 0050 695C     		ldrb	r1, [r5, r1]
 642 0052 0800     		movs	r0, r1
 643              	.LVL78:
 644 0054 8C42     		cmp	r4, r1
 645 0056 0CDA     		bge	.L28
 239:..\..\u8g2\csrc/u8g2_polygon.c ****       x1 = 0;
 646              		.loc 1 239 0
 647 0058 002C     		cmp	r4, #0
 648 005a 00DA     		bge	.L33
 240:..\..\u8g2\csrc/u8g2_polygon.c ****     if ( x1 >= u8g2_GetDisplayWidth(u8g2) )
 649              		.loc 1 240 0
 650 005c 0023     		movs	r3, #0
 651              	.LVL79:
 652              	.L33:
 241:..\..\u8g2\csrc/u8g2_polygon.c ****       x1 = u8g2_GetDisplayWidth(u8g2);
 653              		.loc 1 241 0
 654 005e 9842     		cmp	r0, r3
 655 0060 00DC     		bgt	.L34
 242:..\..\u8g2\csrc/u8g2_polygon.c ****     u8g2_DrawHLine(u8g2, x2, y, x1 - x2);
 656              		.loc 1 242 0
 657 0062 0BB2     		sxth	r3, r1
 658              	.LVL80:
 659              	.L34:
 243:..\..\u8g2\csrc/u8g2_polygon.c ****   }
 660              		.loc 1 243 0
 661 0064 E1B2     		uxtb	r1, r4
 662 0066 5B1A     		subs	r3, r3, r1
 663              	.LVL81:
 664 0068 DBB2     		uxtb	r3, r3
 665 006a D2B2     		uxtb	r2, r2
 666              	.LVL82:
 667 006c 2800     		movs	r0, r5
 668 006e FFF7FEFF 		bl	u8g2_DrawHLine
 669              	.LVL83:
 670              	.L28:
 245:..\..\u8g2\csrc/u8g2_polygon.c **** 
 671              		.loc 1 245 0
 672              		@ sp needed
 673              	.LVL84:
ARM GAS  C:\Users\arh\AppData\Local\Temp\ccbxunbd.s 			page 18


 674              	.LVL85:
 675 0072 70BD     		pop	{r4, r5, r6, pc}
 676              		.cfi_endproc
 677              	.LFE6:
 678              		.size	pg_hline, .-pg_hline
 679              		.section	.text.pg_exec,"ax",%progbits
 680              		.align	2
 681              		.code	16
 682              		.thumb_func
 683              		.type	pg_exec, %function
 684              	pg_exec:
 685              	.LFB8:
 266:..\..\u8g2\csrc/u8g2_polygon.c **** 
 267:..\..\u8g2\csrc/u8g2_polygon.c **** static void pg_exec(pg_struct *pg, u8g2_t *u8g2)
 268:..\..\u8g2\csrc/u8g2_polygon.c **** {
 686              		.loc 1 268 0
 687              		.cfi_startproc
 688              		@ args = 0, pretend = 0, frame = 0
 689              		@ frame_needed = 0, uses_anonymous_args = 0
 690              	.LVL86:
 691 0000 70B5     		push	{r4, r5, r6, lr}
 692              		.cfi_def_cfa_offset 16
 693              		.cfi_offset 4, -16
 694              		.cfi_offset 5, -12
 695              		.cfi_offset 6, -8
 696              		.cfi_offset 14, -4
 697 0002 0400     		movs	r4, r0
 698 0004 0D00     		movs	r5, r1
 269:..\..\u8g2\csrc/u8g2_polygon.c ****   pg_word_t i = pg->total_scan_line_cnt;
 699              		.loc 1 269 0
 700 0006 1A23     		movs	r3, #26
 701 0008 C65E     		ldrsh	r6, [r0, r3]
 702              	.LVL87:
 270:..\..\u8g2\csrc/u8g2_polygon.c **** 
 271:..\..\u8g2\csrc/u8g2_polygon.c ****   /* first line is skipped if the min y line is not flat */
 272:..\..\u8g2\csrc/u8g2_polygon.c ****   pg_line_init(pg, PG_LEFT);		
 703              		.loc 1 272 0
 704 000a 0021     		movs	r1, #0
 705              	.LVL88:
 706 000c FFF7FEFF 		bl	pg_line_init
 707              	.LVL89:
 273:..\..\u8g2\csrc/u8g2_polygon.c ****   pg_line_init(pg, PG_RIGHT);
 708              		.loc 1 273 0
 709 0010 0121     		movs	r1, #1
 710 0012 2000     		movs	r0, r4
 711 0014 FFF7FEFF 		bl	pg_line_init
 712              	.LVL90:
 274:..\..\u8g2\csrc/u8g2_polygon.c ****   
 275:..\..\u8g2\csrc/u8g2_polygon.c ****   if ( pg->is_min_y_not_flat != 0 )
 713              		.loc 1 275 0
 714 0018 637E     		ldrb	r3, [r4, #25]
 715 001a 002B     		cmp	r3, #0
 716 001c 07D0     		beq	.L43
 276:..\..\u8g2\csrc/u8g2_polygon.c ****   {
 277:..\..\u8g2\csrc/u8g2_polygon.c ****     pge_Next(&(pg->pge[PG_LEFT])); 
 717              		.loc 1 277 0
 718 001e 2000     		movs	r0, r4
ARM GAS  C:\Users\arh\AppData\Local\Temp\ccbxunbd.s 			page 19


 719 0020 1C30     		adds	r0, r0, #28
 720 0022 FFF7FEFF 		bl	pge_Next
 721              	.LVL91:
 278:..\..\u8g2\csrc/u8g2_polygon.c ****     pge_Next(&(pg->pge[PG_RIGHT]));
 722              		.loc 1 278 0
 723 0026 2000     		movs	r0, r4
 724 0028 3430     		adds	r0, r0, #52
 725 002a FFF7FEFF 		bl	pge_Next
 726              	.LVL92:
 727              	.L43:
 279:..\..\u8g2\csrc/u8g2_polygon.c ****   }
 280:..\..\u8g2\csrc/u8g2_polygon.c **** 
 281:..\..\u8g2\csrc/u8g2_polygon.c ****   do
 282:..\..\u8g2\csrc/u8g2_polygon.c ****   {
 283:..\..\u8g2\csrc/u8g2_polygon.c ****     pg_hline(pg, u8g2);
 728              		.loc 1 283 0
 729 002e 2900     		movs	r1, r5
 730 0030 2000     		movs	r0, r4
 731 0032 FFF7FEFF 		bl	pg_hline
 732              	.LVL93:
 284:..\..\u8g2\csrc/u8g2_polygon.c ****     while ( pge_Next(&(pg->pge[PG_LEFT])) == 0 )
 733              		.loc 1 284 0
 734 0036 03E0     		b	.L39
 735              	.L40:
 285:..\..\u8g2\csrc/u8g2_polygon.c ****     {
 286:..\..\u8g2\csrc/u8g2_polygon.c ****       pg_line_init(pg, PG_LEFT);
 736              		.loc 1 286 0
 737 0038 0021     		movs	r1, #0
 738 003a 2000     		movs	r0, r4
 739 003c FFF7FEFF 		bl	pg_line_init
 740              	.LVL94:
 741              	.L39:
 284:..\..\u8g2\csrc/u8g2_polygon.c ****     while ( pge_Next(&(pg->pge[PG_LEFT])) == 0 )
 742              		.loc 1 284 0
 743 0040 2000     		movs	r0, r4
 744 0042 1C30     		adds	r0, r0, #28
 745 0044 FFF7FEFF 		bl	pge_Next
 746              	.LVL95:
 747 0048 0028     		cmp	r0, #0
 748 004a F5D0     		beq	.L40
 749 004c 03E0     		b	.L41
 750              	.L42:
 287:..\..\u8g2\csrc/u8g2_polygon.c ****     }
 288:..\..\u8g2\csrc/u8g2_polygon.c ****     while ( pge_Next(&(pg->pge[PG_RIGHT])) == 0 )
 289:..\..\u8g2\csrc/u8g2_polygon.c ****     {
 290:..\..\u8g2\csrc/u8g2_polygon.c ****       pg_line_init(pg, PG_RIGHT);
 751              		.loc 1 290 0
 752 004e 0121     		movs	r1, #1
 753 0050 2000     		movs	r0, r4
 754 0052 FFF7FEFF 		bl	pg_line_init
 755              	.LVL96:
 756              	.L41:
 288:..\..\u8g2\csrc/u8g2_polygon.c ****     {
 757              		.loc 1 288 0
 758 0056 2000     		movs	r0, r4
 759 0058 3430     		adds	r0, r0, #52
 760 005a FFF7FEFF 		bl	pge_Next
ARM GAS  C:\Users\arh\AppData\Local\Temp\ccbxunbd.s 			page 20


 761              	.LVL97:
 762 005e 0028     		cmp	r0, #0
 763 0060 F5D0     		beq	.L42
 291:..\..\u8g2\csrc/u8g2_polygon.c ****     }
 292:..\..\u8g2\csrc/u8g2_polygon.c ****     i--;
 764              		.loc 1 292 0
 765 0062 013E     		subs	r6, r6, #1
 766              	.LVL98:
 767 0064 36B2     		sxth	r6, r6
 768              	.LVL99:
 293:..\..\u8g2\csrc/u8g2_polygon.c ****   } while( i > 0 );
 769              		.loc 1 293 0
 770 0066 002E     		cmp	r6, #0
 771 0068 E1DC     		bgt	.L43
 294:..\..\u8g2\csrc/u8g2_polygon.c **** }
 772              		.loc 1 294 0
 773              		@ sp needed
 774              	.LVL100:
 775              	.LVL101:
 776              	.LVL102:
 777 006a 70BD     		pop	{r4, r5, r6, pc}
 778              		.cfi_endproc
 779              	.LFE8:
 780              		.size	pg_exec, .-pg_exec
 781              		.section	.text.pg_ClearPolygonXY,"ax",%progbits
 782              		.align	2
 783              		.global	pg_ClearPolygonXY
 784              		.code	16
 785              		.thumb_func
 786              		.type	pg_ClearPolygonXY, %function
 787              	pg_ClearPolygonXY:
 788              	.LFB9:
 295:..\..\u8g2\csrc/u8g2_polygon.c **** 
 296:..\..\u8g2\csrc/u8g2_polygon.c **** /*===========================================*/
 297:..\..\u8g2\csrc/u8g2_polygon.c **** /* API procedures */
 298:..\..\u8g2\csrc/u8g2_polygon.c **** 
 299:..\..\u8g2\csrc/u8g2_polygon.c **** void pg_ClearPolygonXY(pg_struct *pg)
 300:..\..\u8g2\csrc/u8g2_polygon.c **** {
 789              		.loc 1 300 0
 790              		.cfi_startproc
 791              		@ args = 0, pretend = 0, frame = 0
 792              		@ frame_needed = 0, uses_anonymous_args = 0
 793              		@ link register save eliminated.
 794              	.LVL103:
 301:..\..\u8g2\csrc/u8g2_polygon.c ****   pg->cnt = 0;
 795              		.loc 1 301 0
 796 0000 0023     		movs	r3, #0
 797 0002 0376     		strb	r3, [r0, #24]
 302:..\..\u8g2\csrc/u8g2_polygon.c **** }
 798              		.loc 1 302 0
 799              		@ sp needed
 800 0004 7047     		bx	lr
 801              		.cfi_endproc
 802              	.LFE9:
 803              		.size	pg_ClearPolygonXY, .-pg_ClearPolygonXY
 804 0006 C046     		.section	.text.pg_AddPolygonXY,"ax",%progbits
 805              		.align	2
ARM GAS  C:\Users\arh\AppData\Local\Temp\ccbxunbd.s 			page 21


 806              		.global	pg_AddPolygonXY
 807              		.code	16
 808              		.thumb_func
 809              		.type	pg_AddPolygonXY, %function
 810              	pg_AddPolygonXY:
 811              	.LFB10:
 303:..\..\u8g2\csrc/u8g2_polygon.c **** 
 304:..\..\u8g2\csrc/u8g2_polygon.c **** void pg_AddPolygonXY(pg_struct *pg, int16_t x, int16_t y)
 305:..\..\u8g2\csrc/u8g2_polygon.c **** {
 812              		.loc 1 305 0
 813              		.cfi_startproc
 814              		@ args = 0, pretend = 0, frame = 0
 815              		@ frame_needed = 0, uses_anonymous_args = 0
 816              	.LVL104:
 817 0000 10B5     		push	{r4, lr}
 818              		.cfi_def_cfa_offset 8
 819              		.cfi_offset 4, -8
 820              		.cfi_offset 14, -4
 306:..\..\u8g2\csrc/u8g2_polygon.c ****   if ( pg->cnt < PG_MAX_POINTS )
 821              		.loc 1 306 0
 822 0002 037E     		ldrb	r3, [r0, #24]
 823 0004 052B     		cmp	r3, #5
 824 0006 05D8     		bhi	.L45
 307:..\..\u8g2\csrc/u8g2_polygon.c ****   {
 308:..\..\u8g2\csrc/u8g2_polygon.c ****     pg->list[pg->cnt].x = x;
 825              		.loc 1 308 0
 826 0008 9C00     		lsls	r4, r3, #2
 827 000a 2152     		strh	r1, [r4, r0]
 309:..\..\u8g2\csrc/u8g2_polygon.c ****     pg->list[pg->cnt].y = y;
 828              		.loc 1 309 0
 829 000c 0419     		adds	r4, r0, r4
 830 000e 6280     		strh	r2, [r4, #2]
 310:..\..\u8g2\csrc/u8g2_polygon.c ****     pg->cnt++;
 831              		.loc 1 310 0
 832 0010 0133     		adds	r3, r3, #1
 833 0012 0376     		strb	r3, [r0, #24]
 834              	.L45:
 311:..\..\u8g2\csrc/u8g2_polygon.c ****   }
 312:..\..\u8g2\csrc/u8g2_polygon.c **** }
 835              		.loc 1 312 0
 836              		@ sp needed
 837 0014 10BD     		pop	{r4, pc}
 838              		.cfi_endproc
 839              	.LFE10:
 840              		.size	pg_AddPolygonXY, .-pg_AddPolygonXY
 841 0016 C046     		.section	.text.pg_DrawPolygon,"ax",%progbits
 842              		.align	2
 843              		.global	pg_DrawPolygon
 844              		.code	16
 845              		.thumb_func
 846              		.type	pg_DrawPolygon, %function
 847              	pg_DrawPolygon:
 848              	.LFB11:
 313:..\..\u8g2\csrc/u8g2_polygon.c **** 
 314:..\..\u8g2\csrc/u8g2_polygon.c **** void pg_DrawPolygon(pg_struct *pg, u8g2_t *u8g2)
 315:..\..\u8g2\csrc/u8g2_polygon.c **** {
 849              		.loc 1 315 0
ARM GAS  C:\Users\arh\AppData\Local\Temp\ccbxunbd.s 			page 22


 850              		.cfi_startproc
 851              		@ args = 0, pretend = 0, frame = 0
 852              		@ frame_needed = 0, uses_anonymous_args = 0
 853              	.LVL105:
 854 0000 70B5     		push	{r4, r5, r6, lr}
 855              		.cfi_def_cfa_offset 16
 856              		.cfi_offset 4, -16
 857              		.cfi_offset 5, -12
 858              		.cfi_offset 6, -8
 859              		.cfi_offset 14, -4
 860 0002 0400     		movs	r4, r0
 861 0004 0D00     		movs	r5, r1
 316:..\..\u8g2\csrc/u8g2_polygon.c ****   if ( pg_prepare(pg) == 0 )
 862              		.loc 1 316 0
 863 0006 FFF7FEFF 		bl	pg_prepare
 864              	.LVL106:
 865 000a 0028     		cmp	r0, #0
 866 000c 03D0     		beq	.L47
 317:..\..\u8g2\csrc/u8g2_polygon.c ****     return;
 318:..\..\u8g2\csrc/u8g2_polygon.c ****   pg_exec(pg, u8g2);
 867              		.loc 1 318 0
 868 000e 2900     		movs	r1, r5
 869 0010 2000     		movs	r0, r4
 870 0012 FFF7FEFF 		bl	pg_exec
 871              	.LVL107:
 872              	.L47:
 319:..\..\u8g2\csrc/u8g2_polygon.c **** }
 873              		.loc 1 319 0
 874              		@ sp needed
 875              	.LVL108:
 876              	.LVL109:
 877 0016 70BD     		pop	{r4, r5, r6, pc}
 878              		.cfi_endproc
 879              	.LFE11:
 880              		.size	pg_DrawPolygon, .-pg_DrawPolygon
 881              		.section	.text.u8g2_ClearPolygonXY,"ax",%progbits
 882              		.align	2
 883              		.global	u8g2_ClearPolygonXY
 884              		.code	16
 885              		.thumb_func
 886              		.type	u8g2_ClearPolygonXY, %function
 887              	u8g2_ClearPolygonXY:
 888              	.LFB12:
 320:..\..\u8g2\csrc/u8g2_polygon.c **** 
 321:..\..\u8g2\csrc/u8g2_polygon.c **** pg_struct u8g2_pg;
 322:..\..\u8g2\csrc/u8g2_polygon.c **** 
 323:..\..\u8g2\csrc/u8g2_polygon.c **** void u8g2_ClearPolygonXY(void)
 324:..\..\u8g2\csrc/u8g2_polygon.c **** {
 889              		.loc 1 324 0
 890              		.cfi_startproc
 891              		@ args = 0, pretend = 0, frame = 0
 892              		@ frame_needed = 0, uses_anonymous_args = 0
 893 0000 10B5     		push	{r4, lr}
 894              		.cfi_def_cfa_offset 8
 895              		.cfi_offset 4, -8
 896              		.cfi_offset 14, -4
 325:..\..\u8g2\csrc/u8g2_polygon.c ****   pg_ClearPolygonXY(&u8g2_pg);
ARM GAS  C:\Users\arh\AppData\Local\Temp\ccbxunbd.s 			page 23


 897              		.loc 1 325 0
 898 0002 0248     		ldr	r0, .L50
 899 0004 FFF7FEFF 		bl	pg_ClearPolygonXY
 900              	.LVL110:
 326:..\..\u8g2\csrc/u8g2_polygon.c **** }
 901              		.loc 1 326 0
 902              		@ sp needed
 903 0008 10BD     		pop	{r4, pc}
 904              	.L51:
 905 000a C046     		.align	2
 906              	.L50:
 907 000c 00000000 		.word	u8g2_pg
 908              		.cfi_endproc
 909              	.LFE12:
 910              		.size	u8g2_ClearPolygonXY, .-u8g2_ClearPolygonXY
 911              		.section	.text.u8g2_AddPolygonXY,"ax",%progbits
 912              		.align	2
 913              		.global	u8g2_AddPolygonXY
 914              		.code	16
 915              		.thumb_func
 916              		.type	u8g2_AddPolygonXY, %function
 917              	u8g2_AddPolygonXY:
 918              	.LFB13:
 327:..\..\u8g2\csrc/u8g2_polygon.c **** 
 328:..\..\u8g2\csrc/u8g2_polygon.c **** void u8g2_AddPolygonXY(U8X8_UNUSED u8g2_t *u8g2, int16_t x, int16_t y)
 329:..\..\u8g2\csrc/u8g2_polygon.c **** {
 919              		.loc 1 329 0
 920              		.cfi_startproc
 921              		@ args = 0, pretend = 0, frame = 0
 922              		@ frame_needed = 0, uses_anonymous_args = 0
 923              	.LVL111:
 924 0000 10B5     		push	{r4, lr}
 925              		.cfi_def_cfa_offset 8
 926              		.cfi_offset 4, -8
 927              		.cfi_offset 14, -4
 330:..\..\u8g2\csrc/u8g2_polygon.c ****   pg_AddPolygonXY(&u8g2_pg, x, y);
 928              		.loc 1 330 0
 929 0002 0248     		ldr	r0, .L53
 930              	.LVL112:
 931 0004 FFF7FEFF 		bl	pg_AddPolygonXY
 932              	.LVL113:
 331:..\..\u8g2\csrc/u8g2_polygon.c **** }
 933              		.loc 1 331 0
 934              		@ sp needed
 935 0008 10BD     		pop	{r4, pc}
 936              	.L54:
 937 000a C046     		.align	2
 938              	.L53:
 939 000c 00000000 		.word	u8g2_pg
 940              		.cfi_endproc
 941              	.LFE13:
 942              		.size	u8g2_AddPolygonXY, .-u8g2_AddPolygonXY
 943              		.section	.text.u8g2_DrawPolygon,"ax",%progbits
 944              		.align	2
 945              		.global	u8g2_DrawPolygon
 946              		.code	16
 947              		.thumb_func
ARM GAS  C:\Users\arh\AppData\Local\Temp\ccbxunbd.s 			page 24


 948              		.type	u8g2_DrawPolygon, %function
 949              	u8g2_DrawPolygon:
 950              	.LFB14:
 332:..\..\u8g2\csrc/u8g2_polygon.c **** 
 333:..\..\u8g2\csrc/u8g2_polygon.c **** void u8g2_DrawPolygon(u8g2_t *u8g2)
 334:..\..\u8g2\csrc/u8g2_polygon.c **** {
 951              		.loc 1 334 0
 952              		.cfi_startproc
 953              		@ args = 0, pretend = 0, frame = 0
 954              		@ frame_needed = 0, uses_anonymous_args = 0
 955              	.LVL114:
 956 0000 10B5     		push	{r4, lr}
 957              		.cfi_def_cfa_offset 8
 958              		.cfi_offset 4, -8
 959              		.cfi_offset 14, -4
 960 0002 0100     		movs	r1, r0
 335:..\..\u8g2\csrc/u8g2_polygon.c ****   pg_DrawPolygon(&u8g2_pg, u8g2);
 961              		.loc 1 335 0
 962 0004 0148     		ldr	r0, .L56
 963              	.LVL115:
 964 0006 FFF7FEFF 		bl	pg_DrawPolygon
 965              	.LVL116:
 336:..\..\u8g2\csrc/u8g2_polygon.c **** }
 966              		.loc 1 336 0
 967              		@ sp needed
 968 000a 10BD     		pop	{r4, pc}
 969              	.L57:
 970              		.align	2
 971              	.L56:
 972 000c 00000000 		.word	u8g2_pg
 973              		.cfi_endproc
 974              	.LFE14:
 975              		.size	u8g2_DrawPolygon, .-u8g2_DrawPolygon
 976              		.section	.text.u8g2_DrawTriangle,"ax",%progbits
 977              		.align	2
 978              		.global	u8g2_DrawTriangle
 979              		.code	16
 980              		.thumb_func
 981              		.type	u8g2_DrawTriangle, %function
 982              	u8g2_DrawTriangle:
 983              	.LFB15:
 337:..\..\u8g2\csrc/u8g2_polygon.c **** 
 338:..\..\u8g2\csrc/u8g2_polygon.c **** void u8g2_DrawTriangle(u8g2_t *u8g2, int16_t x0, int16_t y0, int16_t x1, int16_t y1, int16_t x2, in
 339:..\..\u8g2\csrc/u8g2_polygon.c **** {
 984              		.loc 1 339 0
 985              		.cfi_startproc
 986              		@ args = 12, pretend = 0, frame = 16
 987              		@ frame_needed = 0, uses_anonymous_args = 0
 988              	.LVL117:
 989 0000 F0B5     		push	{r4, r5, r6, r7, lr}
 990              		.cfi_def_cfa_offset 20
 991              		.cfi_offset 4, -20
 992              		.cfi_offset 5, -16
 993              		.cfi_offset 6, -12
 994              		.cfi_offset 7, -8
 995              		.cfi_offset 14, -4
 996 0002 85B0     		sub	sp, sp, #20
ARM GAS  C:\Users\arh\AppData\Local\Temp\ccbxunbd.s 			page 25


 997              		.cfi_def_cfa_offset 40
 998 0004 0400     		movs	r4, r0
 999 0006 0191     		str	r1, [sp, #4]
 1000 0008 0292     		str	r2, [sp, #8]
 1001 000a 0393     		str	r3, [sp, #12]
 1002 000c 0AAB     		add	r3, sp, #40
 1003              	.LVL118:
 1004 000e 0020     		movs	r0, #0
 1005 0010 1F5E     		ldrsh	r7, [r3, r0]
 1006              	.LVL119:
 1007 0012 0BAB     		add	r3, sp, #44
 1008              	.LVL120:
 1009 0014 0020     		movs	r0, #0
 1010 0016 1D5E     		ldrsh	r5, [r3, r0]
 1011 0018 0CAB     		add	r3, sp, #48
 1012              	.LVL121:
 1013 001a 0020     		movs	r0, #0
 1014 001c 1E5E     		ldrsh	r6, [r3, r0]
 340:..\..\u8g2\csrc/u8g2_polygon.c ****   u8g2_ClearPolygonXY();
 1015              		.loc 1 340 0
 1016 001e FFF7FEFF 		bl	u8g2_ClearPolygonXY
 1017              	.LVL122:
 341:..\..\u8g2\csrc/u8g2_polygon.c ****   u8g2_AddPolygonXY(u8g2, x0, y0);
 1018              		.loc 1 341 0
 1019 0022 029A     		ldr	r2, [sp, #8]
 1020 0024 0199     		ldr	r1, [sp, #4]
 1021 0026 2000     		movs	r0, r4
 1022 0028 FFF7FEFF 		bl	u8g2_AddPolygonXY
 1023              	.LVL123:
 342:..\..\u8g2\csrc/u8g2_polygon.c ****   u8g2_AddPolygonXY(u8g2, x1, y1);
 1024              		.loc 1 342 0
 1025 002c 3A00     		movs	r2, r7
 1026 002e 0399     		ldr	r1, [sp, #12]
 1027 0030 2000     		movs	r0, r4
 1028 0032 FFF7FEFF 		bl	u8g2_AddPolygonXY
 1029              	.LVL124:
 343:..\..\u8g2\csrc/u8g2_polygon.c ****   u8g2_AddPolygonXY(u8g2, x2, y2);
 1030              		.loc 1 343 0
 1031 0036 3200     		movs	r2, r6
 1032 0038 2900     		movs	r1, r5
 1033 003a 2000     		movs	r0, r4
 1034 003c FFF7FEFF 		bl	u8g2_AddPolygonXY
 1035              	.LVL125:
 344:..\..\u8g2\csrc/u8g2_polygon.c ****   u8g2_DrawPolygon(u8g2);
 1036              		.loc 1 344 0
 1037 0040 2000     		movs	r0, r4
 1038 0042 FFF7FEFF 		bl	u8g2_DrawPolygon
 1039              	.LVL126:
 345:..\..\u8g2\csrc/u8g2_polygon.c **** }
 1040              		.loc 1 345 0
 1041 0046 05B0     		add	sp, sp, #20
 1042              		@ sp needed
 1043              	.LVL127:
 1044 0048 F0BD     		pop	{r4, r5, r6, r7, pc}
 1045              		.cfi_endproc
 1046              	.LFE15:
 1047              		.size	u8g2_DrawTriangle, .-u8g2_DrawTriangle
ARM GAS  C:\Users\arh\AppData\Local\Temp\ccbxunbd.s 			page 26


 1048              		.comm	u8g2_pg,76,4
 1049 004a C046     		.text
 1050              	.Letext0:
 1051              		.file 2 "c:\\program files (x86)\\cypress\\psoc creator\\4.1\\psoc creator\\import\\gnu\\arm\\5.4.
 1052              		.file 3 "c:\\program files (x86)\\cypress\\psoc creator\\4.1\\psoc creator\\import\\gnu\\arm\\5.4.
 1053              		.file 4 "..\\..\\u8g2\\csrc\\u8x8.h"
 1054              		.file 5 "..\\..\\u8g2\\csrc\\u8g2.h"