ARM GAS  C:\Users\gjl\AppData\Local\Temp\ccSZCYBF.s 			page 1


   1              		.syntax unified
   2              		.cpu cortex-m0
   3              		.fpu softvfp
   4              		.eabi_attribute 20, 1
   5              		.eabi_attribute 21, 1
   6              		.eabi_attribute 23, 3
   7              		.eabi_attribute 24, 1
   8              		.eabi_attribute 25, 1
   9              		.eabi_attribute 26, 1
  10              		.eabi_attribute 30, 1
  11              		.eabi_attribute 34, 0
  12              		.eabi_attribute 18, 4
  13              		.thumb
  14              		.syntax unified
  15              		.file	"u8g2_message.c"
  16              		.text
  17              	.Ltext0:
  18              		.cfi_sections	.debug_frame
  19              		.section	.text.u8g2_draw_button_line,"ax",%progbits
  20              		.align	2
  21              		.global	u8g2_draw_button_line
  22              		.code	16
  23              		.thumb_func
  24              		.type	u8g2_draw_button_line, %function
  25              	u8g2_draw_button_line:
  26              	.LFB0:
  27              		.file 1 "..\\u8g2\\csrc\\u8g2_message.c"
   1:..\u8g2\csrc/u8g2_message.c **** /*
   2:..\u8g2\csrc/u8g2_message.c **** 
   3:..\u8g2\csrc/u8g2_message.c ****   u8g2_message.c
   4:..\u8g2\csrc/u8g2_message.c ****   
   5:..\u8g2\csrc/u8g2_message.c ****   Universal 8bit Graphics Library (https://github.com/olikraus/u8g2/)
   6:..\u8g2\csrc/u8g2_message.c **** 
   7:..\u8g2\csrc/u8g2_message.c ****   Copyright (c) 2016, olikraus@gmail.com
   8:..\u8g2\csrc/u8g2_message.c ****   All rights reserved.
   9:..\u8g2\csrc/u8g2_message.c **** 
  10:..\u8g2\csrc/u8g2_message.c ****   Redistribution and use in source and binary forms, with or without modification, 
  11:..\u8g2\csrc/u8g2_message.c ****   are permitted provided that the following conditions are met:
  12:..\u8g2\csrc/u8g2_message.c **** 
  13:..\u8g2\csrc/u8g2_message.c ****   * Redistributions of source code must retain the above copyright notice, this list 
  14:..\u8g2\csrc/u8g2_message.c ****     of conditions and the following disclaimer.
  15:..\u8g2\csrc/u8g2_message.c ****     
  16:..\u8g2\csrc/u8g2_message.c ****   * Redistributions in binary form must reproduce the above copyright notice, this 
  17:..\u8g2\csrc/u8g2_message.c ****     list of conditions and the following disclaimer in the documentation and/or other 
  18:..\u8g2\csrc/u8g2_message.c ****     materials provided with the distribution.
  19:..\u8g2\csrc/u8g2_message.c **** 
  20:..\u8g2\csrc/u8g2_message.c ****   THIS SOFTWARE IS PROVIDED BY THE COPYRIGHT HOLDERS AND 
  21:..\u8g2\csrc/u8g2_message.c ****   CONTRIBUTORS "AS IS" AND ANY EXPRESS OR IMPLIED WARRANTIES, 
  22:..\u8g2\csrc/u8g2_message.c ****   INCLUDING, BUT NOT LIMITED TO, THE IMPLIED WARRANTIES OF 
  23:..\u8g2\csrc/u8g2_message.c ****   MERCHANTABILITY AND FITNESS FOR A PARTICULAR PURPOSE ARE 
  24:..\u8g2\csrc/u8g2_message.c ****   DISCLAIMED. IN NO EVENT SHALL THE COPYRIGHT HOLDER OR 
  25:..\u8g2\csrc/u8g2_message.c ****   CONTRIBUTORS BE LIABLE FOR ANY DIRECT, INDIRECT, INCIDENTAL, 
  26:..\u8g2\csrc/u8g2_message.c ****   SPECIAL, EXEMPLARY, OR CONSEQUENTIAL DAMAGES (INCLUDING, BUT 
  27:..\u8g2\csrc/u8g2_message.c ****   NOT LIMITED TO, PROCUREMENT OF SUBSTITUTE GOODS OR SERVICES; 
  28:..\u8g2\csrc/u8g2_message.c ****   LOSS OF USE, DATA, OR PROFITS; OR BUSINESS INTERRUPTION) HOWEVER 
  29:..\u8g2\csrc/u8g2_message.c ****   CAUSED AND ON ANY THEORY OF LIABILITY, WHETHER IN CONTRACT, 
  30:..\u8g2\csrc/u8g2_message.c ****   STRICT LIABILITY, OR TORT (INCLUDING NEGLIGENCE OR OTHERWISE) 
ARM GAS  C:\Users\gjl\AppData\Local\Temp\ccSZCYBF.s 			page 2


  31:..\u8g2\csrc/u8g2_message.c ****   ARISING IN ANY WAY OUT OF THE USE OF THIS SOFTWARE, EVEN IF 
  32:..\u8g2\csrc/u8g2_message.c ****   ADVISED OF THE POSSIBILITY OF SUCH DAMAGE.  
  33:..\u8g2\csrc/u8g2_message.c ****   
  34:..\u8g2\csrc/u8g2_message.c **** */
  35:..\u8g2\csrc/u8g2_message.c **** 
  36:..\u8g2\csrc/u8g2_message.c **** #include "u8g2.h"
  37:..\u8g2\csrc/u8g2_message.c **** 
  38:..\u8g2\csrc/u8g2_message.c **** #define SPACE_BETWEEN_BUTTONS_IN_PIXEL 6
  39:..\u8g2\csrc/u8g2_message.c **** #define SPACE_BETWEEN_TEXT_AND_BUTTONS_IN_PIXEL 3
  40:..\u8g2\csrc/u8g2_message.c **** 
  41:..\u8g2\csrc/u8g2_message.c **** uint8_t u8g2_draw_button_line(u8g2_t *u8g2, u8g2_uint_t y, u8g2_uint_t w, uint8_t cursor, const cha
  42:..\u8g2\csrc/u8g2_message.c **** {
  28              		.loc 1 42 0
  29              		.cfi_startproc
  30              		@ args = 4, pretend = 0, frame = 16
  31              		@ frame_needed = 0, uses_anonymous_args = 0
  32              	.LVL0:
  33 0000 F0B5     		push	{r4, r5, r6, r7, lr}
  34              		.cfi_def_cfa_offset 20
  35              		.cfi_offset 4, -20
  36              		.cfi_offset 5, -16
  37              		.cfi_offset 6, -12
  38              		.cfi_offset 7, -8
  39              		.cfi_offset 14, -4
  40 0002 5746     		mov	r7, r10
  41 0004 4646     		mov	r6, r8
  42 0006 C0B4     		push	{r6, r7}
  43              		.cfi_def_cfa_offset 28
  44              		.cfi_offset 8, -28
  45              		.cfi_offset 10, -24
  46 0008 89B0     		sub	sp, sp, #36
  47              		.cfi_def_cfa_offset 64
  48 000a 0590     		str	r0, [sp, #20]
  49 000c 0691     		str	r1, [sp, #24]
  50 000e 9046     		mov	r8, r2
  51 0010 1E00     		movs	r6, r3
  43:..\u8g2\csrc/u8g2_message.c ****   u8g2_uint_t button_line_width;
  44:..\u8g2\csrc/u8g2_message.c **** 	
  45:..\u8g2\csrc/u8g2_message.c ****   uint8_t i;
  46:..\u8g2\csrc/u8g2_message.c ****   uint8_t cnt;
  47:..\u8g2\csrc/u8g2_message.c ****   uint8_t is_invert;
  48:..\u8g2\csrc/u8g2_message.c **** 	
  49:..\u8g2\csrc/u8g2_message.c ****   u8g2_uint_t d;
  50:..\u8g2\csrc/u8g2_message.c ****   u8g2_uint_t x;
  51:..\u8g2\csrc/u8g2_message.c **** 	
  52:..\u8g2\csrc/u8g2_message.c ****   cnt = u8x8_GetStringLineCnt(s);
  52              		.loc 1 52 0
  53 0012 1098     		ldr	r0, [sp, #64]
  54              	.LVL1:
  55 0014 FFF7FEFF 		bl	u8x8_GetStringLineCnt
  56              	.LVL2:
  57 0018 0790     		str	r0, [sp, #28]
  58 001a 0500     		movs	r5, r0
  59              	.LVL3:
  53:..\u8g2\csrc/u8g2_message.c ****   
  54:..\u8g2\csrc/u8g2_message.c **** 	
  55:..\u8g2\csrc/u8g2_message.c ****   /* calculate the width of the button line */
ARM GAS  C:\Users\gjl\AppData\Local\Temp\ccSZCYBF.s 			page 3


  56:..\u8g2\csrc/u8g2_message.c ****   button_line_width = 0;
  57:..\u8g2\csrc/u8g2_message.c ****   for( i = 0; i < cnt; i++ )
  60              		.loc 1 57 0
  61 001c 0024     		movs	r4, #0
  56:..\u8g2\csrc/u8g2_message.c ****   for( i = 0; i < cnt; i++ )
  62              		.loc 1 56 0
  63 001e 0027     		movs	r7, #0
  64              		.loc 1 57 0
  65 0020 0BE0     		b	.L2
  66              	.LVL4:
  67              	.L3:
  58:..\u8g2\csrc/u8g2_message.c ****   {
  59:..\u8g2\csrc/u8g2_message.c ****     button_line_width += u8g2_GetUTF8Width(u8g2, u8x8_GetStringLineStart(i, s));
  68              		.loc 1 59 0 discriminator 3
  69 0022 1099     		ldr	r1, [sp, #64]
  70 0024 2000     		movs	r0, r4
  71 0026 FFF7FEFF 		bl	u8x8_GetStringLineStart
  72              	.LVL5:
  73 002a 0100     		movs	r1, r0
  74 002c 0598     		ldr	r0, [sp, #20]
  75 002e FFF7FEFF 		bl	u8g2_GetUTF8Width
  76              	.LVL6:
  77 0032 3818     		adds	r0, r7, r0
  78 0034 C7B2     		uxtb	r7, r0
  79              	.LVL7:
  57:..\u8g2\csrc/u8g2_message.c ****   {
  80              		.loc 1 57 0 discriminator 3
  81 0036 0134     		adds	r4, r4, #1
  82              	.LVL8:
  83 0038 E4B2     		uxtb	r4, r4
  84              	.LVL9:
  85              	.L2:
  57:..\u8g2\csrc/u8g2_message.c ****   {
  86              		.loc 1 57 0 is_stmt 0 discriminator 1
  87 003a AC42     		cmp	r4, r5
  88 003c F1D3     		bcc	.L3
  60:..\u8g2\csrc/u8g2_message.c ****   }
  61:..\u8g2\csrc/u8g2_message.c ****   button_line_width += (cnt-1)*SPACE_BETWEEN_BUTTONS_IN_PIXEL;	/* add some space between the button
  89              		.loc 1 61 0 is_stmt 1
  90 003e 079B     		ldr	r3, [sp, #28]
  91 0040 5A1E     		subs	r2, r3, #1
  92 0042 5300     		lsls	r3, r2, #1
  93 0044 D318     		adds	r3, r2, r3
  94 0046 5800     		lsls	r0, r3, #1
  95 0048 3818     		adds	r0, r7, r0
  96 004a C0B2     		uxtb	r0, r0
  97              	.LVL10:
  62:..\u8g2\csrc/u8g2_message.c ****   
  63:..\u8g2\csrc/u8g2_message.c ****   /* calculate the left offset */
  64:..\u8g2\csrc/u8g2_message.c ****   d = 0;
  65:..\u8g2\csrc/u8g2_message.c ****   if ( button_line_width < w )
  98              		.loc 1 65 0
  99 004c 4045     		cmp	r0, r8
 100 004e 04D2     		bcs	.L8
 101              	.LVL11:
  66:..\u8g2\csrc/u8g2_message.c ****   {
  67:..\u8g2\csrc/u8g2_message.c ****     d = w;
ARM GAS  C:\Users\gjl\AppData\Local\Temp\ccSZCYBF.s 			page 4


  68:..\u8g2\csrc/u8g2_message.c ****     d -= button_line_width;
 102              		.loc 1 68 0
 103 0050 4346     		mov	r3, r8
 104 0052 181A     		subs	r0, r3, r0
 105              	.LVL12:
 106 0054 C0B2     		uxtb	r0, r0
 107              	.LVL13:
  69:..\u8g2\csrc/u8g2_message.c ****     d /= 2;
 108              		.loc 1 69 0
 109 0056 4708     		lsrs	r7, r0, #1
 110              	.LVL14:
 111 0058 00E0     		b	.L4
 112              	.LVL15:
 113              	.L8:
  64:..\u8g2\csrc/u8g2_message.c ****   if ( button_line_width < w )
 114              		.loc 1 64 0
 115 005a 0027     		movs	r7, #0
 116              	.LVL16:
 117              	.L4:
  70:..\u8g2\csrc/u8g2_message.c ****   }
  71:..\u8g2\csrc/u8g2_message.c ****   
  72:..\u8g2\csrc/u8g2_message.c ****   /* draw the buttons */
  73:..\u8g2\csrc/u8g2_message.c ****   x = d;
  74:..\u8g2\csrc/u8g2_message.c ****   for( i = 0; i < cnt; i++ )
  75:..\u8g2\csrc/u8g2_message.c ****   {
  76:..\u8g2\csrc/u8g2_message.c ****     is_invert = 0;
  77:..\u8g2\csrc/u8g2_message.c ****     if ( i == cursor )
  78:..\u8g2\csrc/u8g2_message.c ****       is_invert = 1;
 118              		.loc 1 78 0 discriminator 1
 119 005c 0024     		movs	r4, #0
 120              	.LVL17:
 121 005e 23E0     		b	.L5
 122              	.LVL18:
 123              	.L7:
  77:..\u8g2\csrc/u8g2_message.c ****       is_invert = 1;
 124              		.loc 1 77 0
 125 0060 B442     		cmp	r4, r6
 126 0062 02D0     		beq	.L9
  76:..\u8g2\csrc/u8g2_message.c ****     if ( i == cursor )
 127              		.loc 1 76 0
 128 0064 0023     		movs	r3, #0
 129 0066 9A46     		mov	r10, r3
 130 0068 01E0     		b	.L6
 131              	.L9:
 132              		.loc 1 78 0
 133 006a 0123     		movs	r3, #1
 134 006c 9A46     		mov	r10, r3
 135              	.L6:
 136              	.LVL19:
  79:..\u8g2\csrc/u8g2_message.c **** 
  80:..\u8g2\csrc/u8g2_message.c ****     u8g2_DrawUTF8Line(u8g2, x, y, 0, u8x8_GetStringLineStart(i, s), 1, is_invert);
 137              		.loc 1 80 0 discriminator 2
 138 006e 1099     		ldr	r1, [sp, #64]
 139 0070 2000     		movs	r0, r4
 140 0072 FFF7FEFF 		bl	u8x8_GetStringLineStart
 141              	.LVL20:
 142 0076 5346     		mov	r3, r10
ARM GAS  C:\Users\gjl\AppData\Local\Temp\ccSZCYBF.s 			page 5


 143 0078 0293     		str	r3, [sp, #8]
 144 007a 0123     		movs	r3, #1
 145 007c 0193     		str	r3, [sp, #4]
 146 007e 0090     		str	r0, [sp]
 147 0080 0023     		movs	r3, #0
 148 0082 069A     		ldr	r2, [sp, #24]
 149 0084 3900     		movs	r1, r7
 150 0086 0598     		ldr	r0, [sp, #20]
 151 0088 FFF7FEFF 		bl	u8g2_DrawUTF8Line
 152              	.LVL21:
  81:..\u8g2\csrc/u8g2_message.c ****     x += u8g2_GetUTF8Width(u8g2, u8x8_GetStringLineStart(i, s));
 153              		.loc 1 81 0 discriminator 2
 154 008c 1099     		ldr	r1, [sp, #64]
 155 008e 2000     		movs	r0, r4
 156 0090 FFF7FEFF 		bl	u8x8_GetStringLineStart
 157              	.LVL22:
 158 0094 0100     		movs	r1, r0
 159 0096 0598     		ldr	r0, [sp, #20]
 160 0098 FFF7FEFF 		bl	u8g2_GetUTF8Width
 161              	.LVL23:
 162 009c 3818     		adds	r0, r7, r0
 163 009e C0B2     		uxtb	r0, r0
 164              	.LVL24:
  82:..\u8g2\csrc/u8g2_message.c ****     x += SPACE_BETWEEN_BUTTONS_IN_PIXEL;
 165              		.loc 1 82 0 discriminator 2
 166 00a0 0630     		adds	r0, r0, #6
 167              	.LVL25:
 168 00a2 C7B2     		uxtb	r7, r0
 169              	.LVL26:
  74:..\u8g2\csrc/u8g2_message.c ****   {
 170              		.loc 1 74 0 discriminator 2
 171 00a4 0134     		adds	r4, r4, #1
 172              	.LVL27:
 173 00a6 E4B2     		uxtb	r4, r4
 174              	.LVL28:
 175              	.L5:
  74:..\u8g2\csrc/u8g2_message.c ****   {
 176              		.loc 1 74 0 is_stmt 0 discriminator 1
 177 00a8 AC42     		cmp	r4, r5
 178 00aa D9D3     		bcc	.L7
  83:..\u8g2\csrc/u8g2_message.c ****   }
  84:..\u8g2\csrc/u8g2_message.c ****   
  85:..\u8g2\csrc/u8g2_message.c ****   /* return the number of buttons */
  86:..\u8g2\csrc/u8g2_message.c ****   return cnt;
  87:..\u8g2\csrc/u8g2_message.c **** }
 179              		.loc 1 87 0 is_stmt 1
 180 00ac 0798     		ldr	r0, [sp, #28]
 181 00ae 09B0     		add	sp, sp, #36
 182              		@ sp needed
 183              	.LVL29:
 184              	.LVL30:
 185 00b0 0CBC     		pop	{r2, r3}
 186 00b2 9046     		mov	r8, r2
 187 00b4 9A46     		mov	r10, r3
 188 00b6 F0BD     		pop	{r4, r5, r6, r7, pc}
 189              		.cfi_endproc
 190              	.LFE0:
ARM GAS  C:\Users\gjl\AppData\Local\Temp\ccSZCYBF.s 			page 6


 191              		.size	u8g2_draw_button_line, .-u8g2_draw_button_line
 192              		.section	.text.u8g2_UserInterfaceMessage,"ax",%progbits
 193              		.align	2
 194              		.global	u8g2_UserInterfaceMessage
 195              		.code	16
 196              		.thumb_func
 197              		.type	u8g2_UserInterfaceMessage, %function
 198              	u8g2_UserInterfaceMessage:
 199              	.LFB1:
  88:..\u8g2\csrc/u8g2_message.c **** 
  89:..\u8g2\csrc/u8g2_message.c **** /*
  90:..\u8g2\csrc/u8g2_message.c ****   title1:	Multiple lines,separated by '\n'
  91:..\u8g2\csrc/u8g2_message.c ****   title2:	A single line/string which is terminated by '\0' or '\n' . "title2" accepts the return va
  92:..\u8g2\csrc/u8g2_message.c ****   title3:	Multiple lines,separated by '\n'
  93:..\u8g2\csrc/u8g2_message.c ****   buttons:	one more more buttons separated by '\n' and terminated with '\0'
  94:..\u8g2\csrc/u8g2_message.c ****   side effects:
  95:..\u8g2\csrc/u8g2_message.c ****     u8g2_SetFontDirection(u8g2, 0);
  96:..\u8g2\csrc/u8g2_message.c ****     u8g2_SetFontPosBaseline(u8g2);
  97:..\u8g2\csrc/u8g2_message.c **** */
  98:..\u8g2\csrc/u8g2_message.c **** 
  99:..\u8g2\csrc/u8g2_message.c **** uint8_t u8g2_UserInterfaceMessage(u8g2_t *u8g2, const char *title1, const char *title2, const char 
 100:..\u8g2\csrc/u8g2_message.c **** {
 200              		.loc 1 100 0
 201              		.cfi_startproc
 202              		@ args = 4, pretend = 0, frame = 8
 203              		@ frame_needed = 0, uses_anonymous_args = 0
 204              	.LVL31:
 205 0000 F0B5     		push	{r4, r5, r6, r7, lr}
 206              		.cfi_def_cfa_offset 20
 207              		.cfi_offset 4, -20
 208              		.cfi_offset 5, -16
 209              		.cfi_offset 6, -12
 210              		.cfi_offset 7, -8
 211              		.cfi_offset 14, -4
 212 0002 5F46     		mov	r7, fp
 213 0004 5646     		mov	r6, r10
 214 0006 4D46     		mov	r5, r9
 215 0008 4446     		mov	r4, r8
 216 000a F0B4     		push	{r4, r5, r6, r7}
 217              		.cfi_def_cfa_offset 36
 218              		.cfi_offset 8, -36
 219              		.cfi_offset 9, -32
 220              		.cfi_offset 10, -28
 221              		.cfi_offset 11, -24
 222 000c 87B0     		sub	sp, sp, #28
 223              		.cfi_def_cfa_offset 64
 224 000e 0500     		movs	r5, r0
 225 0010 8A46     		mov	r10, r1
 226 0012 9146     		mov	r9, r2
 227 0014 9B46     		mov	fp, r3
 228 0016 109B     		ldr	r3, [sp, #64]
 229              	.LVL32:
 230 0018 9846     		mov	r8, r3
 231              	.LVL33:
 101:..\u8g2\csrc/u8g2_message.c ****   uint8_t height;
 102:..\u8g2\csrc/u8g2_message.c ****   uint8_t line_height;
 103:..\u8g2\csrc/u8g2_message.c ****   u8g2_uint_t pixel_height;
ARM GAS  C:\Users\gjl\AppData\Local\Temp\ccSZCYBF.s 			page 7


 104:..\u8g2\csrc/u8g2_message.c ****   u8g2_uint_t y, yy;
 105:..\u8g2\csrc/u8g2_message.c **** 	
 106:..\u8g2\csrc/u8g2_message.c ****   uint8_t cursor = 0;
 107:..\u8g2\csrc/u8g2_message.c ****   uint8_t button_cnt;
 108:..\u8g2\csrc/u8g2_message.c ****   uint8_t event;
 109:..\u8g2\csrc/u8g2_message.c **** 	
 110:..\u8g2\csrc/u8g2_message.c ****   /* only horizontal strings are supported, so force this here */
 111:..\u8g2\csrc/u8g2_message.c ****   u8g2_SetFontDirection(u8g2, 0);
 232              		.loc 1 111 0
 233 001a 0021     		movs	r1, #0
 234              	.LVL34:
 235 001c FFF7FEFF 		bl	u8g2_SetFontDirection
 236              	.LVL35:
 112:..\u8g2\csrc/u8g2_message.c **** 
 113:..\u8g2\csrc/u8g2_message.c ****   /* force baseline position */
 114:..\u8g2\csrc/u8g2_message.c ****   u8g2_SetFontPosBaseline(u8g2);
 237              		.loc 1 114 0
 238 0020 2800     		movs	r0, r5
 239 0022 FFF7FEFF 		bl	u8g2_SetFontPosBaseline
 240              	.LVL36:
 115:..\u8g2\csrc/u8g2_message.c **** 	
 116:..\u8g2\csrc/u8g2_message.c **** 	
 117:..\u8g2\csrc/u8g2_message.c ****   /* calculate line height */
 118:..\u8g2\csrc/u8g2_message.c ****   line_height = u8g2_GetAscent(u8g2);
 241              		.loc 1 118 0
 242 0026 7923     		movs	r3, #121
 243 0028 EB5C     		ldrb	r3, [r5, r3]
 244              	.LVL37:
 119:..\u8g2\csrc/u8g2_message.c ****   line_height -= u8g2_GetDescent(u8g2);
 245              		.loc 1 119 0
 246 002a 7A22     		movs	r2, #122
 247 002c AF56     		ldrsb	r7, [r5, r2]
 248 002e DF1B     		subs	r7, r3, r7
 249 0030 FFB2     		uxtb	r7, r7
 250              	.LVL38:
 120:..\u8g2\csrc/u8g2_message.c **** 
 121:..\u8g2\csrc/u8g2_message.c ****   /* calculate overall height of the message box in lines*/
 122:..\u8g2\csrc/u8g2_message.c ****   height = 1;	/* button line */
 123:..\u8g2\csrc/u8g2_message.c ****   height += u8x8_GetStringLineCnt(title1);
 251              		.loc 1 123 0
 252 0032 5046     		mov	r0, r10
 253 0034 FFF7FEFF 		bl	u8x8_GetStringLineCnt
 254              	.LVL39:
 255 0038 441C     		adds	r4, r0, #1
 256 003a E4B2     		uxtb	r4, r4
 257              	.LVL40:
 124:..\u8g2\csrc/u8g2_message.c ****   if ( title2 != NULL )
 258              		.loc 1 124 0
 259 003c 4B46     		mov	r3, r9
 260 003e 002B     		cmp	r3, #0
 261 0040 01D0     		beq	.L11
 125:..\u8g2\csrc/u8g2_message.c ****     height++;
 262              		.loc 1 125 0
 263 0042 0230     		adds	r0, r0, #2
 264 0044 C4B2     		uxtb	r4, r0
 265              	.LVL41:
 266              	.L11:
ARM GAS  C:\Users\gjl\AppData\Local\Temp\ccSZCYBF.s 			page 8


 126:..\u8g2\csrc/u8g2_message.c ****   height += u8x8_GetStringLineCnt(title3);
 267              		.loc 1 126 0
 268 0046 5846     		mov	r0, fp
 269 0048 FFF7FEFF 		bl	u8x8_GetStringLineCnt
 270              	.LVL42:
 271 004c 2018     		adds	r0, r4, r0
 272 004e C3B2     		uxtb	r3, r0
 273              	.LVL43:
 127:..\u8g2\csrc/u8g2_message.c ****   
 128:..\u8g2\csrc/u8g2_message.c ****   /* calculate the height in pixel */
 129:..\u8g2\csrc/u8g2_message.c ****   pixel_height = height;
 130:..\u8g2\csrc/u8g2_message.c ****   pixel_height *= line_height;
 274              		.loc 1 130 0
 275 0050 7B43     		muls	r3, r7
 276              	.LVL44:
 277 0052 DBB2     		uxtb	r3, r3
 278              	.LVL45:
 131:..\u8g2\csrc/u8g2_message.c ****   
 132:..\u8g2\csrc/u8g2_message.c ****   /* ... and add the space between the text and the buttons */
 133:..\u8g2\csrc/u8g2_message.c ****   pixel_height +=SPACE_BETWEEN_TEXT_AND_BUTTONS_IN_PIXEL;
 279              		.loc 1 133 0
 280 0054 0333     		adds	r3, r3, #3
 281              	.LVL46:
 282 0056 DBB2     		uxtb	r3, r3
 283              	.LVL47:
 134:..\u8g2\csrc/u8g2_message.c ****   
 135:..\u8g2\csrc/u8g2_message.c ****   /* calculate offset from top */
 136:..\u8g2\csrc/u8g2_message.c ****   y = 0;
 137:..\u8g2\csrc/u8g2_message.c ****   if ( pixel_height < u8g2_GetDisplayHeight(u8g2)   )
 284              		.loc 1 137 0
 285 0058 4022     		movs	r2, #64
 286 005a AA5C     		ldrb	r2, [r5, r2]
 287 005c 9342     		cmp	r3, r2
 288 005e 03D2     		bcs	.L25
 289              	.LVL48:
 138:..\u8g2\csrc/u8g2_message.c ****   {
 139:..\u8g2\csrc/u8g2_message.c ****     y = u8g2_GetDisplayHeight(u8g2);
 140:..\u8g2\csrc/u8g2_message.c ****     y -= pixel_height;
 290              		.loc 1 140 0
 291 0060 D31A     		subs	r3, r2, r3
 292              	.LVL49:
 293 0062 DBB2     		uxtb	r3, r3
 294              	.LVL50:
 141:..\u8g2\csrc/u8g2_message.c ****     y /= 2;
 295              		.loc 1 141 0
 296 0064 5B08     		lsrs	r3, r3, #1
 297              	.LVL51:
 298 0066 00E0     		b	.L12
 299              	.LVL52:
 300              	.L25:
 136:..\u8g2\csrc/u8g2_message.c ****   if ( pixel_height < u8g2_GetDisplayHeight(u8g2)   )
 301              		.loc 1 136 0
 302 0068 0023     		movs	r3, #0
 303              	.LVL53:
 304              	.L12:
 142:..\u8g2\csrc/u8g2_message.c ****   }
 143:..\u8g2\csrc/u8g2_message.c ****   y += u8g2_GetAscent(u8g2);
ARM GAS  C:\Users\gjl\AppData\Local\Temp\ccSZCYBF.s 			page 9


 305              		.loc 1 143 0
 306 006a 7922     		movs	r2, #121
 307 006c AA56     		ldrsb	r2, [r5, r2]
 308 006e 9B18     		adds	r3, r3, r2
 309              	.LVL54:
 310 0070 DBB2     		uxtb	r3, r3
 311 0072 0593     		str	r3, [sp, #20]
 312              	.LVL55:
 106:..\u8g2\csrc/u8g2_message.c ****   uint8_t button_cnt;
 313              		.loc 1 106 0
 314 0074 0023     		movs	r3, #0
 315 0076 0493     		str	r3, [sp, #16]
 316 0078 01E0     		b	.L13
 317              	.LVL56:
 318              	.L26:
 144:..\u8g2\csrc/u8g2_message.c **** 
 145:..\u8g2\csrc/u8g2_message.c ****   
 146:..\u8g2\csrc/u8g2_message.c ****   for(;;)
 147:..\u8g2\csrc/u8g2_message.c ****   {
 148:..\u8g2\csrc/u8g2_message.c ****       u8g2_FirstPage(u8g2);
 149:..\u8g2\csrc/u8g2_message.c ****       do
 150:..\u8g2\csrc/u8g2_message.c ****       {
 151:..\u8g2\csrc/u8g2_message.c **** 	  yy = y;
 152:..\u8g2\csrc/u8g2_message.c **** 	  /* draw message box */
 153:..\u8g2\csrc/u8g2_message.c **** 	  
 154:..\u8g2\csrc/u8g2_message.c **** 	  yy += u8g2_DrawUTF8Lines(u8g2, 0, yy, u8g2_GetDisplayWidth(u8g2), line_height, title1);
 155:..\u8g2\csrc/u8g2_message.c **** 	  if ( title2 != NULL )
 156:..\u8g2\csrc/u8g2_message.c **** 	  {
 157:..\u8g2\csrc/u8g2_message.c **** 	    u8g2_DrawUTF8Line(u8g2, 0, yy, u8g2_GetDisplayWidth(u8g2), title2, 0, 0);
 158:..\u8g2\csrc/u8g2_message.c **** 	    yy+=line_height;
 159:..\u8g2\csrc/u8g2_message.c **** 	  }
 160:..\u8g2\csrc/u8g2_message.c **** 	  yy += u8g2_DrawUTF8Lines(u8g2, 0, yy, u8g2_GetDisplayWidth(u8g2), line_height, title3);
 161:..\u8g2\csrc/u8g2_message.c **** 	  yy += SPACE_BETWEEN_TEXT_AND_BUTTONS_IN_PIXEL;
 162:..\u8g2\csrc/u8g2_message.c **** 
 163:..\u8g2\csrc/u8g2_message.c **** 	  button_cnt = u8g2_draw_button_line(u8g2, yy, u8g2_GetDisplayWidth(u8g2), cursor, buttons);
 164:..\u8g2\csrc/u8g2_message.c **** 	  
 165:..\u8g2\csrc/u8g2_message.c ****       } while( u8g2_NextPage(u8g2) );
 166:..\u8g2\csrc/u8g2_message.c **** 
 167:..\u8g2\csrc/u8g2_message.c **** #ifdef U8G2_REF_MAN_PIC
 168:..\u8g2\csrc/u8g2_message.c ****       return 0;
 169:..\u8g2\csrc/u8g2_message.c **** #endif
 170:..\u8g2\csrc/u8g2_message.c **** 	  
 171:..\u8g2\csrc/u8g2_message.c ****       for(;;)
 172:..\u8g2\csrc/u8g2_message.c ****       {
 173:..\u8g2\csrc/u8g2_message.c **** 	    event = u8x8_GetMenuEvent(u8g2_GetU8x8(u8g2));
 174:..\u8g2\csrc/u8g2_message.c **** 	    if ( event == U8X8_MSG_GPIO_MENU_SELECT )
 175:..\u8g2\csrc/u8g2_message.c **** 	      return cursor+1;
 176:..\u8g2\csrc/u8g2_message.c **** 	    else if ( event == U8X8_MSG_GPIO_MENU_HOME )
 177:..\u8g2\csrc/u8g2_message.c **** 	      return 0;
 178:..\u8g2\csrc/u8g2_message.c **** 	    else if ( event == U8X8_MSG_GPIO_MENU_NEXT || event == U8X8_MSG_GPIO_MENU_DOWN )
 179:..\u8g2\csrc/u8g2_message.c **** 	    {
 180:..\u8g2\csrc/u8g2_message.c **** 	      cursor++;
 181:..\u8g2\csrc/u8g2_message.c **** 	      if ( cursor >= button_cnt )
 182:..\u8g2\csrc/u8g2_message.c **** 		cursor = 0;
 319              		.loc 1 182 0
 320 007a 0023     		movs	r3, #0
 321              	.LVL57:
ARM GAS  C:\Users\gjl\AppData\Local\Temp\ccSZCYBF.s 			page 10


 322 007c 0493     		str	r3, [sp, #16]
 323              	.LVL58:
 324              	.L13:
 148:..\u8g2\csrc/u8g2_message.c ****       do
 325              		.loc 1 148 0
 326 007e 2800     		movs	r0, r5
 327 0080 FFF7FEFF 		bl	u8g2_FirstPage
 328              	.LVL59:
 329              	.L15:
 154:..\u8g2\csrc/u8g2_message.c **** 	  if ( title2 != NULL )
 330              		.loc 1 154 0
 331 0084 3F23     		movs	r3, #63
 332 0086 EB5C     		ldrb	r3, [r5, r3]
 333 0088 5246     		mov	r2, r10
 334 008a 0192     		str	r2, [sp, #4]
 335 008c 0097     		str	r7, [sp]
 336 008e 059C     		ldr	r4, [sp, #20]
 337 0090 2200     		movs	r2, r4
 338 0092 0021     		movs	r1, #0
 339 0094 2800     		movs	r0, r5
 340 0096 FFF7FEFF 		bl	u8g2_DrawUTF8Lines
 341              	.LVL60:
 342 009a A446     		mov	ip, r4
 343 009c 6044     		add	r0, r0, ip
 344 009e C4B2     		uxtb	r4, r0
 345              	.LVL61:
 155:..\u8g2\csrc/u8g2_message.c **** 	  {
 346              		.loc 1 155 0
 347 00a0 4B46     		mov	r3, r9
 348 00a2 002B     		cmp	r3, #0
 349 00a4 0DD0     		beq	.L14
 350              	.LVL62:
 157:..\u8g2\csrc/u8g2_message.c **** 	    yy+=line_height;
 351              		.loc 1 157 0
 352 00a6 3F23     		movs	r3, #63
 353              	.LVL63:
 354 00a8 EB5C     		ldrb	r3, [r5, r3]
 355 00aa 0022     		movs	r2, #0
 356 00ac 0292     		str	r2, [sp, #8]
 357 00ae 0192     		str	r2, [sp, #4]
 358 00b0 4A46     		mov	r2, r9
 359 00b2 0092     		str	r2, [sp]
 360 00b4 2200     		movs	r2, r4
 361 00b6 0021     		movs	r1, #0
 362 00b8 2800     		movs	r0, r5
 363 00ba FFF7FEFF 		bl	u8g2_DrawUTF8Line
 364              	.LVL64:
 158:..\u8g2\csrc/u8g2_message.c **** 	  }
 365              		.loc 1 158 0
 366 00be 3C19     		adds	r4, r7, r4
 367              	.LVL65:
 368 00c0 E4B2     		uxtb	r4, r4
 369              	.LVL66:
 370              	.L14:
 160:..\u8g2\csrc/u8g2_message.c **** 	  yy += SPACE_BETWEEN_TEXT_AND_BUTTONS_IN_PIXEL;
 371              		.loc 1 160 0
 372 00c2 3F26     		movs	r6, #63
ARM GAS  C:\Users\gjl\AppData\Local\Temp\ccSZCYBF.s 			page 11


 373 00c4 AB5D     		ldrb	r3, [r5, r6]
 374 00c6 5A46     		mov	r2, fp
 375 00c8 0192     		str	r2, [sp, #4]
 376 00ca 0097     		str	r7, [sp]
 377 00cc 2200     		movs	r2, r4
 378 00ce 0021     		movs	r1, #0
 379 00d0 2800     		movs	r0, r5
 380 00d2 FFF7FEFF 		bl	u8g2_DrawUTF8Lines
 381              	.LVL67:
 382 00d6 2418     		adds	r4, r4, r0
 383              	.LVL68:
 384 00d8 E1B2     		uxtb	r1, r4
 385              	.LVL69:
 161:..\u8g2\csrc/u8g2_message.c **** 
 386              		.loc 1 161 0
 387 00da 0331     		adds	r1, r1, #3
 388              	.LVL70:
 389 00dc C9B2     		uxtb	r1, r1
 390              	.LVL71:
 163:..\u8g2\csrc/u8g2_message.c **** 	  
 391              		.loc 1 163 0
 392 00de AA5D     		ldrb	r2, [r5, r6]
 393 00e0 4346     		mov	r3, r8
 394 00e2 0093     		str	r3, [sp]
 395 00e4 049B     		ldr	r3, [sp, #16]
 396 00e6 2800     		movs	r0, r5
 397 00e8 FFF7FEFF 		bl	u8g2_draw_button_line
 398              	.LVL72:
 399 00ec 0600     		movs	r6, r0
 400              	.LVL73:
 165:..\u8g2\csrc/u8g2_message.c **** 
 401              		.loc 1 165 0
 402 00ee 2800     		movs	r0, r5
 403              	.LVL74:
 404 00f0 FFF7FEFF 		bl	u8g2_NextPage
 405              	.LVL75:
 406 00f4 0028     		cmp	r0, #0
 407 00f6 C5D1     		bne	.L15
 408 00f8 0400     		movs	r4, r0
 409              	.LVL76:
 410              	.L23:
 173:..\u8g2\csrc/u8g2_message.c **** 	    if ( event == U8X8_MSG_GPIO_MENU_SELECT )
 411              		.loc 1 173 0
 412 00fa 2800     		movs	r0, r5
 413 00fc FFF7FEFF 		bl	u8x8_GetMenuEvent
 414              	.LVL77:
 174:..\u8g2\csrc/u8g2_message.c **** 	      return cursor+1;
 415              		.loc 1 174 0
 416 0100 5028     		cmp	r0, #80
 417 0102 03D1     		bne	.L16
 175:..\u8g2\csrc/u8g2_message.c **** 	    else if ( event == U8X8_MSG_GPIO_MENU_HOME )
 418              		.loc 1 175 0
 419 0104 049C     		ldr	r4, [sp, #16]
 420 0106 0134     		adds	r4, r4, #1
 421 0108 E4B2     		uxtb	r4, r4
 422 010a 18E0     		b	.L17
 423              	.L16:
ARM GAS  C:\Users\gjl\AppData\Local\Temp\ccSZCYBF.s 			page 12


 176:..\u8g2\csrc/u8g2_message.c **** 	      return 0;
 424              		.loc 1 176 0
 425 010c 5328     		cmp	r0, #83
 426 010e 16D0     		beq	.L17
 178:..\u8g2\csrc/u8g2_message.c **** 	    {
 427              		.loc 1 178 0
 428 0110 5128     		cmp	r0, #81
 429 0112 01D0     		beq	.L18
 178:..\u8g2\csrc/u8g2_message.c **** 	    {
 430              		.loc 1 178 0 is_stmt 0 discriminator 1
 431 0114 5528     		cmp	r0, #85
 432 0116 06D1     		bne	.L19
 433              	.L18:
 180:..\u8g2\csrc/u8g2_message.c **** 	      if ( cursor >= button_cnt )
 434              		.loc 1 180 0 is_stmt 1
 435 0118 049B     		ldr	r3, [sp, #16]
 436 011a 0133     		adds	r3, r3, #1
 437 011c DBB2     		uxtb	r3, r3
 438 011e 0493     		str	r3, [sp, #16]
 439              	.LVL78:
 181:..\u8g2\csrc/u8g2_message.c **** 		cursor = 0;
 440              		.loc 1 181 0
 441 0120 9E42     		cmp	r6, r3
 442 0122 AAD9     		bls	.L26
 443 0124 ABE7     		b	.L13
 444              	.LVL79:
 445              	.L19:
 183:..\u8g2\csrc/u8g2_message.c **** 	      break;
 184:..\u8g2\csrc/u8g2_message.c **** 	    }
 185:..\u8g2\csrc/u8g2_message.c **** 	    else if ( event == U8X8_MSG_GPIO_MENU_PREV || event == U8X8_MSG_GPIO_MENU_UP )
 446              		.loc 1 185 0
 447 0126 5228     		cmp	r0, #82
 448 0128 01D0     		beq	.L22
 449              		.loc 1 185 0 is_stmt 0 discriminator 1
 450 012a 5428     		cmp	r0, #84
 451 012c E5D1     		bne	.L23
 452              	.L22:
 186:..\u8g2\csrc/u8g2_message.c **** 	    {
 187:..\u8g2\csrc/u8g2_message.c **** 	      if ( cursor == 0 )
 453              		.loc 1 187 0 is_stmt 1
 454 012e 049B     		ldr	r3, [sp, #16]
 455 0130 002B     		cmp	r3, #0
 456 0132 00D0     		beq	.L24
 457 0134 1E00     		movs	r6, r3
 458              	.LVL80:
 459              	.L24:
 188:..\u8g2\csrc/u8g2_message.c **** 		cursor = button_cnt;
 189:..\u8g2\csrc/u8g2_message.c **** 	      cursor--;
 460              		.loc 1 189 0
 461 0136 013E     		subs	r6, r6, #1
 462              	.LVL81:
 463 0138 F3B2     		uxtb	r3, r6
 464 013a 0493     		str	r3, [sp, #16]
 465              	.LVL82:
 190:..\u8g2\csrc/u8g2_message.c **** 	      break;
 466              		.loc 1 190 0
 467 013c 9FE7     		b	.L13
ARM GAS  C:\Users\gjl\AppData\Local\Temp\ccSZCYBF.s 			page 13


 468              	.LVL83:
 469              	.L17:
 191:..\u8g2\csrc/u8g2_message.c **** 	    }    
 192:..\u8g2\csrc/u8g2_message.c ****       }
 193:..\u8g2\csrc/u8g2_message.c ****   }
 194:..\u8g2\csrc/u8g2_message.c ****   /* never reached */
 195:..\u8g2\csrc/u8g2_message.c ****   //return 0;
 196:..\u8g2\csrc/u8g2_message.c **** }
 470              		.loc 1 196 0
 471 013e 2000     		movs	r0, r4
 472              	.LVL84:
 473 0140 07B0     		add	sp, sp, #28
 474              		@ sp needed
 475              	.LVL85:
 476              	.LVL86:
 477              	.LVL87:
 478              	.LVL88:
 479              	.LVL89:
 480              	.LVL90:
 481 0142 3CBC     		pop	{r2, r3, r4, r5}
 482 0144 9046     		mov	r8, r2
 483 0146 9946     		mov	r9, r3
 484 0148 A246     		mov	r10, r4
 485 014a AB46     		mov	fp, r5
 486 014c F0BD     		pop	{r4, r5, r6, r7, pc}
 487              		.cfi_endproc
 488              	.LFE1:
 489              		.size	u8g2_UserInterfaceMessage, .-u8g2_UserInterfaceMessage
 490 014e C046     		.text
 491              	.Letext0:
 492              		.file 2 "c:\\program files (x86)\\cypress\\psoc creator\\4.1\\psoc creator\\import\\gnu\\arm\\5.4.
 493              		.file 3 "c:\\program files (x86)\\cypress\\psoc creator\\4.1\\psoc creator\\import\\gnu\\arm\\5.4.
 494              		.file 4 "..\\u8g2\\csrc\\u8x8.h"
 495              		.file 5 "..\\u8g2\\csrc\\u8g2.h"