ARM GAS  C:\Users\gjl\AppData\Local\Temp\ccBgUaIM.s 			page 1


   1              		.syntax unified
   2              		.cpu cortex-m0
   3              		.fpu softvfp
   4              		.eabi_attribute 20, 1
   5              		.eabi_attribute 21, 1
   6              		.eabi_attribute 23, 3
   7              		.eabi_attribute 24, 1
   8              		.eabi_attribute 25, 1
   9              		.eabi_attribute 26, 1
  10              		.eabi_attribute 30, 1
  11              		.eabi_attribute 34, 0
  12              		.eabi_attribute 18, 4
  13              		.thumb
  14              		.syntax unified
  15              		.file	"u8g2_circle.c"
  16              		.text
  17              	.Ltext0:
  18              		.cfi_sections	.debug_frame
  19              		.section	.text.u8g2_draw_circle_section,"ax",%progbits
  20              		.align	2
  21              		.code	16
  22              		.thumb_func
  23              		.type	u8g2_draw_circle_section, %function
  24              	u8g2_draw_circle_section:
  25              	.LFB0:
  26              		.file 1 "..\\u8g2\\csrc\\u8g2_circle.c"
   1:..\u8g2\csrc/u8g2_circle.c **** /*
   2:..\u8g2\csrc/u8g2_circle.c **** 
   3:..\u8g2\csrc/u8g2_circle.c ****   u8g2_box.c
   4:..\u8g2\csrc/u8g2_circle.c **** 
   5:..\u8g2\csrc/u8g2_circle.c ****   Universal 8bit Graphics Library (https://github.com/olikraus/u8g2/)
   6:..\u8g2\csrc/u8g2_circle.c **** 
   7:..\u8g2\csrc/u8g2_circle.c ****   Copyright (c) 2016, olikraus@gmail.com
   8:..\u8g2\csrc/u8g2_circle.c ****   All rights reserved.
   9:..\u8g2\csrc/u8g2_circle.c **** 
  10:..\u8g2\csrc/u8g2_circle.c ****   Redistribution and use in source and binary forms, with or without modification, 
  11:..\u8g2\csrc/u8g2_circle.c ****   are permitted provided that the following conditions are met:
  12:..\u8g2\csrc/u8g2_circle.c **** 
  13:..\u8g2\csrc/u8g2_circle.c ****   * Redistributions of source code must retain the above copyright notice, this list 
  14:..\u8g2\csrc/u8g2_circle.c ****     of conditions and the following disclaimer.
  15:..\u8g2\csrc/u8g2_circle.c ****     
  16:..\u8g2\csrc/u8g2_circle.c ****   * Redistributions in binary form must reproduce the above copyright notice, this 
  17:..\u8g2\csrc/u8g2_circle.c ****     list of conditions and the following disclaimer in the documentation and/or other 
  18:..\u8g2\csrc/u8g2_circle.c ****     materials provided with the distribution.
  19:..\u8g2\csrc/u8g2_circle.c **** 
  20:..\u8g2\csrc/u8g2_circle.c ****   THIS SOFTWARE IS PROVIDED BY THE COPYRIGHT HOLDERS AND 
  21:..\u8g2\csrc/u8g2_circle.c ****   CONTRIBUTORS "AS IS" AND ANY EXPRESS OR IMPLIED WARRANTIES, 
  22:..\u8g2\csrc/u8g2_circle.c ****   INCLUDING, BUT NOT LIMITED TO, THE IMPLIED WARRANTIES OF 
  23:..\u8g2\csrc/u8g2_circle.c ****   MERCHANTABILITY AND FITNESS FOR A PARTICULAR PURPOSE ARE 
  24:..\u8g2\csrc/u8g2_circle.c ****   DISCLAIMED. IN NO EVENT SHALL THE COPYRIGHT HOLDER OR 
  25:..\u8g2\csrc/u8g2_circle.c ****   CONTRIBUTORS BE LIABLE FOR ANY DIRECT, INDIRECT, INCIDENTAL, 
  26:..\u8g2\csrc/u8g2_circle.c ****   SPECIAL, EXEMPLARY, OR CONSEQUENTIAL DAMAGES (INCLUDING, BUT 
  27:..\u8g2\csrc/u8g2_circle.c ****   NOT LIMITED TO, PROCUREMENT OF SUBSTITUTE GOODS OR SERVICES; 
  28:..\u8g2\csrc/u8g2_circle.c ****   LOSS OF USE, DATA, OR PROFITS; OR BUSINESS INTERRUPTION) HOWEVER 
  29:..\u8g2\csrc/u8g2_circle.c ****   CAUSED AND ON ANY THEORY OF LIABILITY, WHETHER IN CONTRACT, 
  30:..\u8g2\csrc/u8g2_circle.c ****   STRICT LIABILITY, OR TORT (INCLUDING NEGLIGENCE OR OTHERWISE) 
  31:..\u8g2\csrc/u8g2_circle.c ****   ARISING IN ANY WAY OUT OF THE USE OF THIS SOFTWARE, EVEN IF 
ARM GAS  C:\Users\gjl\AppData\Local\Temp\ccBgUaIM.s 			page 2


  32:..\u8g2\csrc/u8g2_circle.c ****   ADVISED OF THE POSSIBILITY OF SUCH DAMAGE.  
  33:..\u8g2\csrc/u8g2_circle.c **** 
  34:..\u8g2\csrc/u8g2_circle.c **** */
  35:..\u8g2\csrc/u8g2_circle.c **** 
  36:..\u8g2\csrc/u8g2_circle.c **** #include "u8g2.h"
  37:..\u8g2\csrc/u8g2_circle.c **** 
  38:..\u8g2\csrc/u8g2_circle.c **** /*==============================================*/
  39:..\u8g2\csrc/u8g2_circle.c **** /* Circle */
  40:..\u8g2\csrc/u8g2_circle.c **** 
  41:..\u8g2\csrc/u8g2_circle.c **** static void u8g2_draw_circle_section(u8g2_t *u8g2, u8g2_uint_t x, u8g2_uint_t y, u8g2_uint_t x0, u8
  42:..\u8g2\csrc/u8g2_circle.c **** 
  43:..\u8g2\csrc/u8g2_circle.c **** static void u8g2_draw_circle_section(u8g2_t *u8g2, u8g2_uint_t x, u8g2_uint_t y, u8g2_uint_t x0, u8
  44:..\u8g2\csrc/u8g2_circle.c **** {
  27              		.loc 1 44 0
  28              		.cfi_startproc
  29              		@ args = 8, pretend = 0, frame = 8
  30              		@ frame_needed = 0, uses_anonymous_args = 0
  31              	.LVL0:
  32 0000 F0B5     		push	{r4, r5, r6, r7, lr}
  33              		.cfi_def_cfa_offset 20
  34              		.cfi_offset 4, -20
  35              		.cfi_offset 5, -16
  36              		.cfi_offset 6, -12
  37              		.cfi_offset 7, -8
  38              		.cfi_offset 14, -4
  39 0002 4F46     		mov	r7, r9
  40 0004 80B4     		push	{r7}
  41              		.cfi_def_cfa_offset 24
  42              		.cfi_offset 9, -24
  43 0006 82B0     		sub	sp, sp, #8
  44              		.cfi_def_cfa_offset 32
  45 0008 0190     		str	r0, [sp, #4]
  46 000a 8946     		mov	r9, r1
  47 000c 1500     		movs	r5, r2
  48 000e 1C00     		movs	r4, r3
  49 0010 08AB     		add	r3, sp, #32
  50              	.LVL1:
  51 0012 1E78     		ldrb	r6, [r3]
  52 0014 09AB     		add	r3, sp, #36
  53              	.LVL2:
  54 0016 1F78     		ldrb	r7, [r3]
  45:..\u8g2\csrc/u8g2_circle.c ****     /* upper right */
  46:..\u8g2\csrc/u8g2_circle.c ****     if ( option & U8G2_DRAW_UPPER_RIGHT )
  55              		.loc 1 46 0
  56 0018 FB07     		lsls	r3, r7, #31
  57 001a 0DD5     		bpl	.L2
  58              	.LVL3:
  47:..\u8g2\csrc/u8g2_circle.c ****     {
  48:..\u8g2\csrc/u8g2_circle.c ****       u8g2_DrawPixel(u8g2, x0 + x, y0 - y);
  59              		.loc 1 48 0
  60 001c B21A     		subs	r2, r6, r2
  61              	.LVL4:
  62 001e D2B2     		uxtb	r2, r2
  63 0020 6118     		adds	r1, r4, r1
  64              	.LVL5:
  65 0022 C9B2     		uxtb	r1, r1
  66 0024 FFF7FEFF 		bl	u8g2_DrawPixel
ARM GAS  C:\Users\gjl\AppData\Local\Temp\ccBgUaIM.s 			page 3


  67              	.LVL6:
  49:..\u8g2\csrc/u8g2_circle.c ****       u8g2_DrawPixel(u8g2, x0 + y, y0 - x);
  68              		.loc 1 49 0
  69 0028 4B46     		mov	r3, r9
  70 002a F21A     		subs	r2, r6, r3
  71 002c D2B2     		uxtb	r2, r2
  72 002e 6119     		adds	r1, r4, r5
  73 0030 C9B2     		uxtb	r1, r1
  74 0032 0198     		ldr	r0, [sp, #4]
  75 0034 FFF7FEFF 		bl	u8g2_DrawPixel
  76              	.LVL7:
  77              	.L2:
  50:..\u8g2\csrc/u8g2_circle.c ****     }
  51:..\u8g2\csrc/u8g2_circle.c ****     
  52:..\u8g2\csrc/u8g2_circle.c ****     /* upper left */
  53:..\u8g2\csrc/u8g2_circle.c ****     if ( option & U8G2_DRAW_UPPER_LEFT )
  78              		.loc 1 53 0
  79 0038 BB07     		lsls	r3, r7, #30
  80 003a 0FD5     		bpl	.L3
  54:..\u8g2\csrc/u8g2_circle.c ****     {
  55:..\u8g2\csrc/u8g2_circle.c ****       u8g2_DrawPixel(u8g2, x0 - x, y0 - y);
  81              		.loc 1 55 0
  82 003c 721B     		subs	r2, r6, r5
  83 003e D2B2     		uxtb	r2, r2
  84 0040 4B46     		mov	r3, r9
  85 0042 E11A     		subs	r1, r4, r3
  86 0044 C9B2     		uxtb	r1, r1
  87 0046 0198     		ldr	r0, [sp, #4]
  88 0048 FFF7FEFF 		bl	u8g2_DrawPixel
  89              	.LVL8:
  56:..\u8g2\csrc/u8g2_circle.c ****       u8g2_DrawPixel(u8g2, x0 - y, y0 - x);
  90              		.loc 1 56 0
  91 004c 4B46     		mov	r3, r9
  92 004e F21A     		subs	r2, r6, r3
  93 0050 D2B2     		uxtb	r2, r2
  94 0052 611B     		subs	r1, r4, r5
  95 0054 C9B2     		uxtb	r1, r1
  96 0056 0198     		ldr	r0, [sp, #4]
  97 0058 FFF7FEFF 		bl	u8g2_DrawPixel
  98              	.LVL9:
  99              	.L3:
  57:..\u8g2\csrc/u8g2_circle.c ****     }
  58:..\u8g2\csrc/u8g2_circle.c ****     
  59:..\u8g2\csrc/u8g2_circle.c ****     /* lower right */
  60:..\u8g2\csrc/u8g2_circle.c ****     if ( option & U8G2_DRAW_LOWER_RIGHT )
 100              		.loc 1 60 0
 101 005c 3B07     		lsls	r3, r7, #28
 102 005e 0FD5     		bpl	.L4
  61:..\u8g2\csrc/u8g2_circle.c ****     {
  62:..\u8g2\csrc/u8g2_circle.c ****       u8g2_DrawPixel(u8g2, x0 + x, y0 + y);
 103              		.loc 1 62 0
 104 0060 7219     		adds	r2, r6, r5
 105 0062 D2B2     		uxtb	r2, r2
 106 0064 4B46     		mov	r3, r9
 107 0066 E118     		adds	r1, r4, r3
 108 0068 C9B2     		uxtb	r1, r1
 109 006a 0198     		ldr	r0, [sp, #4]
ARM GAS  C:\Users\gjl\AppData\Local\Temp\ccBgUaIM.s 			page 4


 110 006c FFF7FEFF 		bl	u8g2_DrawPixel
 111              	.LVL10:
  63:..\u8g2\csrc/u8g2_circle.c ****       u8g2_DrawPixel(u8g2, x0 + y, y0 + x);
 112              		.loc 1 63 0
 113 0070 4B46     		mov	r3, r9
 114 0072 9A19     		adds	r2, r3, r6
 115 0074 D2B2     		uxtb	r2, r2
 116 0076 6119     		adds	r1, r4, r5
 117 0078 C9B2     		uxtb	r1, r1
 118 007a 0198     		ldr	r0, [sp, #4]
 119 007c FFF7FEFF 		bl	u8g2_DrawPixel
 120              	.LVL11:
 121              	.L4:
  64:..\u8g2\csrc/u8g2_circle.c ****     }
  65:..\u8g2\csrc/u8g2_circle.c ****     
  66:..\u8g2\csrc/u8g2_circle.c ****     /* lower left */
  67:..\u8g2\csrc/u8g2_circle.c ****     if ( option & U8G2_DRAW_LOWER_LEFT )
 122              		.loc 1 67 0
 123 0080 7B07     		lsls	r3, r7, #29
 124 0082 0FD5     		bpl	.L1
  68:..\u8g2\csrc/u8g2_circle.c ****     {
  69:..\u8g2\csrc/u8g2_circle.c ****       u8g2_DrawPixel(u8g2, x0 - x, y0 + y);
 125              		.loc 1 69 0
 126 0084 7219     		adds	r2, r6, r5
 127 0086 D2B2     		uxtb	r2, r2
 128 0088 4B46     		mov	r3, r9
 129 008a E11A     		subs	r1, r4, r3
 130 008c C9B2     		uxtb	r1, r1
 131 008e 019F     		ldr	r7, [sp, #4]
 132 0090 3800     		movs	r0, r7
 133 0092 FFF7FEFF 		bl	u8g2_DrawPixel
 134              	.LVL12:
  70:..\u8g2\csrc/u8g2_circle.c ****       u8g2_DrawPixel(u8g2, x0 - y, y0 + x);
 135              		.loc 1 70 0
 136 0096 4E44     		add	r6, r6, r9
 137 0098 F2B2     		uxtb	r2, r6
 138 009a 611B     		subs	r1, r4, r5
 139 009c C9B2     		uxtb	r1, r1
 140 009e 3800     		movs	r0, r7
 141 00a0 FFF7FEFF 		bl	u8g2_DrawPixel
 142              	.LVL13:
 143              	.L1:
  71:..\u8g2\csrc/u8g2_circle.c ****     }
  72:..\u8g2\csrc/u8g2_circle.c **** }
 144              		.loc 1 72 0
 145 00a4 02B0     		add	sp, sp, #8
 146              		@ sp needed
 147 00a6 04BC     		pop	{r2}
 148 00a8 9146     		mov	r9, r2
 149 00aa F0BD     		pop	{r4, r5, r6, r7, pc}
 150              		.cfi_endproc
 151              	.LFE0:
 152              		.size	u8g2_draw_circle_section, .-u8g2_draw_circle_section
 153              		.section	.text.u8g2_draw_circle,"ax",%progbits
 154              		.align	2
 155              		.code	16
 156              		.thumb_func
ARM GAS  C:\Users\gjl\AppData\Local\Temp\ccBgUaIM.s 			page 5


 157              		.type	u8g2_draw_circle, %function
 158              	u8g2_draw_circle:
 159              	.LFB1:
  73:..\u8g2\csrc/u8g2_circle.c **** 
  74:..\u8g2\csrc/u8g2_circle.c **** static void u8g2_draw_circle(u8g2_t *u8g2, u8g2_uint_t x0, u8g2_uint_t y0, u8g2_uint_t rad, uint8_t
  75:..\u8g2\csrc/u8g2_circle.c **** {
 160              		.loc 1 75 0
 161              		.cfi_startproc
 162              		@ args = 4, pretend = 0, frame = 8
 163              		@ frame_needed = 0, uses_anonymous_args = 0
 164              	.LVL14:
 165 0000 F0B5     		push	{r4, r5, r6, r7, lr}
 166              		.cfi_def_cfa_offset 20
 167              		.cfi_offset 4, -20
 168              		.cfi_offset 5, -16
 169              		.cfi_offset 6, -12
 170              		.cfi_offset 7, -8
 171              		.cfi_offset 14, -4
 172 0002 5F46     		mov	r7, fp
 173 0004 5646     		mov	r6, r10
 174 0006 4D46     		mov	r5, r9
 175 0008 4446     		mov	r4, r8
 176 000a F0B4     		push	{r4, r5, r6, r7}
 177              		.cfi_def_cfa_offset 36
 178              		.cfi_offset 8, -36
 179              		.cfi_offset 9, -32
 180              		.cfi_offset 10, -28
 181              		.cfi_offset 11, -24
 182 000c 85B0     		sub	sp, sp, #20
 183              		.cfi_def_cfa_offset 56
 184 000e 0290     		str	r0, [sp, #8]
 185 0010 0391     		str	r1, [sp, #12]
 186 0012 9246     		mov	r10, r2
 187 0014 1F00     		movs	r7, r3
 188 0016 0EAB     		add	r3, sp, #56
 189              	.LVL15:
 190 0018 1B78     		ldrb	r3, [r3]
 191              	.LVL16:
 192 001a 9B46     		mov	fp, r3
 193              	.LVL17:
  76:..\u8g2\csrc/u8g2_circle.c ****     u8g2_int_t f;
  77:..\u8g2\csrc/u8g2_circle.c ****     u8g2_int_t ddF_x;
  78:..\u8g2\csrc/u8g2_circle.c ****     u8g2_int_t ddF_y;
  79:..\u8g2\csrc/u8g2_circle.c ****     u8g2_uint_t x;
  80:..\u8g2\csrc/u8g2_circle.c ****     u8g2_uint_t y;
  81:..\u8g2\csrc/u8g2_circle.c **** 
  82:..\u8g2\csrc/u8g2_circle.c ****     f = 1;
  83:..\u8g2\csrc/u8g2_circle.c ****     f -= rad;
 194              		.loc 1 83 0
 195 001c 0123     		movs	r3, #1
 196 001e DB1B     		subs	r3, r3, r7
 197 0020 5BB2     		sxtb	r3, r3
 198 0022 9946     		mov	r9, r3
 199              	.LVL18:
  84:..\u8g2\csrc/u8g2_circle.c ****     ddF_x = 1;
  85:..\u8g2\csrc/u8g2_circle.c ****     ddF_y = 0;
  86:..\u8g2\csrc/u8g2_circle.c ****     ddF_y -= rad;
ARM GAS  C:\Users\gjl\AppData\Local\Temp\ccBgUaIM.s 			page 6


 200              		.loc 1 86 0
 201 0024 7D42     		rsbs	r5, r7, #0
 202 0026 EDB2     		uxtb	r5, r5
 203              	.LVL19:
  87:..\u8g2\csrc/u8g2_circle.c ****     ddF_y *= 2;
 204              		.loc 1 87 0
 205 0028 6D00     		lsls	r5, r5, #1
 206              	.LVL20:
 207 002a 6DB2     		sxtb	r5, r5
 208              	.LVL21:
  88:..\u8g2\csrc/u8g2_circle.c ****     x = 0;
  89:..\u8g2\csrc/u8g2_circle.c ****     y = rad;
  90:..\u8g2\csrc/u8g2_circle.c **** 
  91:..\u8g2\csrc/u8g2_circle.c ****     u8g2_draw_circle_section(u8g2, x, y, x0, y0, option);
 209              		.loc 1 91 0
 210 002c 5B46     		mov	r3, fp
 211 002e 0193     		str	r3, [sp, #4]
 212 0030 0092     		str	r2, [sp]
 213 0032 0B00     		movs	r3, r1
 214 0034 3A00     		movs	r2, r7
 215              	.LVL22:
 216 0036 0021     		movs	r1, #0
 217              	.LVL23:
 218 0038 FFF7FEFF 		bl	u8g2_draw_circle_section
 219              	.LVL24:
  88:..\u8g2\csrc/u8g2_circle.c ****     x = 0;
 220              		.loc 1 88 0
 221 003c 0026     		movs	r6, #0
  84:..\u8g2\csrc/u8g2_circle.c ****     ddF_y = 0;
 222              		.loc 1 84 0
 223 003e 0124     		movs	r4, #1
 224 0040 A846     		mov	r8, r5
 225 0042 2500     		movs	r5, r4
 226              	.LVL25:
 227 0044 4C46     		mov	r4, r9
  92:..\u8g2\csrc/u8g2_circle.c ****     
  93:..\u8g2\csrc/u8g2_circle.c ****     while ( x < y )
 228              		.loc 1 93 0
 229 0046 1BE0     		b	.L7
 230              	.LVL26:
 231              	.L9:
  94:..\u8g2\csrc/u8g2_circle.c ****     {
  95:..\u8g2\csrc/u8g2_circle.c ****       if (f >= 0) 
 232              		.loc 1 95 0
 233 0048 002C     		cmp	r4, #0
 234 004a 08DB     		blt	.L8
  96:..\u8g2\csrc/u8g2_circle.c ****       {
  97:..\u8g2\csrc/u8g2_circle.c ****         y--;
 235              		.loc 1 97 0
 236 004c 013F     		subs	r7, r7, #1
 237              	.LVL27:
 238 004e FFB2     		uxtb	r7, r7
 239              	.LVL28:
  98:..\u8g2\csrc/u8g2_circle.c ****         ddF_y += 2;
 240              		.loc 1 98 0
 241 0050 4346     		mov	r3, r8
 242 0052 0233     		adds	r3, r3, #2
ARM GAS  C:\Users\gjl\AppData\Local\Temp\ccBgUaIM.s 			page 7


 243 0054 DBB2     		uxtb	r3, r3
 244 0056 5AB2     		sxtb	r2, r3
 245 0058 9046     		mov	r8, r2
 246              	.LVL29:
  99:..\u8g2\csrc/u8g2_circle.c ****         f += ddF_y;
 247              		.loc 1 99 0
 248 005a 1C19     		adds	r4, r3, r4
 249              	.LVL30:
 250 005c 64B2     		sxtb	r4, r4
 251              	.LVL31:
 252              	.L8:
 100:..\u8g2\csrc/u8g2_circle.c ****       }
 101:..\u8g2\csrc/u8g2_circle.c ****       x++;
 253              		.loc 1 101 0
 254 005e 0136     		adds	r6, r6, #1
 255              	.LVL32:
 256 0060 F6B2     		uxtb	r6, r6
 257              	.LVL33:
 102:..\u8g2\csrc/u8g2_circle.c ****       ddF_x += 2;
 258              		.loc 1 102 0
 259 0062 0235     		adds	r5, r5, #2
 260              	.LVL34:
 261 0064 EBB2     		uxtb	r3, r5
 262 0066 5DB2     		sxtb	r5, r3
 263              	.LVL35:
 103:..\u8g2\csrc/u8g2_circle.c ****       f += ddF_x;
 264              		.loc 1 103 0
 265 0068 1C19     		adds	r4, r3, r4
 266              	.LVL36:
 267 006a 64B2     		sxtb	r4, r4
 268              	.LVL37:
 104:..\u8g2\csrc/u8g2_circle.c **** 
 105:..\u8g2\csrc/u8g2_circle.c ****       u8g2_draw_circle_section(u8g2, x, y, x0, y0, option);    
 269              		.loc 1 105 0
 270 006c 5B46     		mov	r3, fp
 271 006e 0193     		str	r3, [sp, #4]
 272 0070 5346     		mov	r3, r10
 273 0072 0093     		str	r3, [sp]
 274 0074 039B     		ldr	r3, [sp, #12]
 275 0076 3A00     		movs	r2, r7
 276 0078 3100     		movs	r1, r6
 277 007a 0298     		ldr	r0, [sp, #8]
 278 007c FFF7FEFF 		bl	u8g2_draw_circle_section
 279              	.LVL38:
 280              	.L7:
  93:..\u8g2\csrc/u8g2_circle.c ****     {
 281              		.loc 1 93 0
 282 0080 BE42     		cmp	r6, r7
 283 0082 E1D3     		bcc	.L9
 106:..\u8g2\csrc/u8g2_circle.c ****     }
 107:..\u8g2\csrc/u8g2_circle.c **** }
 284              		.loc 1 107 0
 285 0084 05B0     		add	sp, sp, #20
 286              		@ sp needed
 287              	.LVL39:
 288              	.LVL40:
 289              	.LVL41:
ARM GAS  C:\Users\gjl\AppData\Local\Temp\ccBgUaIM.s 			page 8


 290              	.LVL42:
 291              	.LVL43:
 292 0086 3CBC     		pop	{r2, r3, r4, r5}
 293 0088 9046     		mov	r8, r2
 294 008a 9946     		mov	r9, r3
 295 008c A246     		mov	r10, r4
 296 008e AB46     		mov	fp, r5
 297 0090 F0BD     		pop	{r4, r5, r6, r7, pc}
 298              		.cfi_endproc
 299              	.LFE1:
 300              		.size	u8g2_draw_circle, .-u8g2_draw_circle
 301 0092 C046     		.section	.text.u8g2_draw_ellipse_section,"ax",%progbits
 302              		.align	2
 303              		.code	16
 304              		.thumb_func
 305              		.type	u8g2_draw_ellipse_section, %function
 306              	u8g2_draw_ellipse_section:
 307              	.LFB6:
 108:..\u8g2\csrc/u8g2_circle.c **** 
 109:..\u8g2\csrc/u8g2_circle.c **** void u8g2_DrawCircle(u8g2_t *u8g2, u8g2_uint_t x0, u8g2_uint_t y0, u8g2_uint_t rad, uint8_t option)
 110:..\u8g2\csrc/u8g2_circle.c **** {
 111:..\u8g2\csrc/u8g2_circle.c ****   /* check for bounding box */
 112:..\u8g2\csrc/u8g2_circle.c **** #ifdef U8G2_WITH_INTERSECTION
 113:..\u8g2\csrc/u8g2_circle.c ****   {
 114:..\u8g2\csrc/u8g2_circle.c ****     if ( u8g2_IsIntersection(u8g2, x0-rad, y0-rad, x0+rad+1, y0+rad+1) == 0 ) 
 115:..\u8g2\csrc/u8g2_circle.c ****       return;
 116:..\u8g2\csrc/u8g2_circle.c ****   }
 117:..\u8g2\csrc/u8g2_circle.c **** #endif /* U8G2_WITH_INTERSECTION */
 118:..\u8g2\csrc/u8g2_circle.c ****   
 119:..\u8g2\csrc/u8g2_circle.c ****   
 120:..\u8g2\csrc/u8g2_circle.c ****   /* draw circle */
 121:..\u8g2\csrc/u8g2_circle.c ****   u8g2_draw_circle(u8g2, x0, y0, rad, option);
 122:..\u8g2\csrc/u8g2_circle.c **** }
 123:..\u8g2\csrc/u8g2_circle.c **** 
 124:..\u8g2\csrc/u8g2_circle.c **** /*==============================================*/
 125:..\u8g2\csrc/u8g2_circle.c **** /* Disk */
 126:..\u8g2\csrc/u8g2_circle.c **** 
 127:..\u8g2\csrc/u8g2_circle.c **** static void u8g2_draw_disc_section(u8g2_t *u8g2, u8g2_uint_t x, u8g2_uint_t y, u8g2_uint_t x0, u8g2
 128:..\u8g2\csrc/u8g2_circle.c **** 
 129:..\u8g2\csrc/u8g2_circle.c **** static void u8g2_draw_disc_section(u8g2_t *u8g2, u8g2_uint_t x, u8g2_uint_t y, u8g2_uint_t x0, u8g2
 130:..\u8g2\csrc/u8g2_circle.c **** {
 131:..\u8g2\csrc/u8g2_circle.c ****     /* upper right */
 132:..\u8g2\csrc/u8g2_circle.c ****     if ( option & U8G2_DRAW_UPPER_RIGHT )
 133:..\u8g2\csrc/u8g2_circle.c ****     {
 134:..\u8g2\csrc/u8g2_circle.c ****       u8g2_DrawVLine(u8g2, x0+x, y0-y, y+1);
 135:..\u8g2\csrc/u8g2_circle.c ****       u8g2_DrawVLine(u8g2, x0+y, y0-x, x+1);
 136:..\u8g2\csrc/u8g2_circle.c ****     }
 137:..\u8g2\csrc/u8g2_circle.c ****     
 138:..\u8g2\csrc/u8g2_circle.c ****     /* upper left */
 139:..\u8g2\csrc/u8g2_circle.c ****     if ( option & U8G2_DRAW_UPPER_LEFT )
 140:..\u8g2\csrc/u8g2_circle.c ****     {
 141:..\u8g2\csrc/u8g2_circle.c ****       u8g2_DrawVLine(u8g2, x0-x, y0-y, y+1);
 142:..\u8g2\csrc/u8g2_circle.c ****       u8g2_DrawVLine(u8g2, x0-y, y0-x, x+1);
 143:..\u8g2\csrc/u8g2_circle.c ****     }
 144:..\u8g2\csrc/u8g2_circle.c ****     
 145:..\u8g2\csrc/u8g2_circle.c ****     /* lower right */
 146:..\u8g2\csrc/u8g2_circle.c ****     if ( option & U8G2_DRAW_LOWER_RIGHT )
ARM GAS  C:\Users\gjl\AppData\Local\Temp\ccBgUaIM.s 			page 9


 147:..\u8g2\csrc/u8g2_circle.c ****     {
 148:..\u8g2\csrc/u8g2_circle.c ****       u8g2_DrawVLine(u8g2, x0+x, y0, y+1);
 149:..\u8g2\csrc/u8g2_circle.c ****       u8g2_DrawVLine(u8g2, x0+y, y0, x+1);
 150:..\u8g2\csrc/u8g2_circle.c ****     }
 151:..\u8g2\csrc/u8g2_circle.c ****     
 152:..\u8g2\csrc/u8g2_circle.c ****     /* lower left */
 153:..\u8g2\csrc/u8g2_circle.c ****     if ( option & U8G2_DRAW_LOWER_LEFT )
 154:..\u8g2\csrc/u8g2_circle.c ****     {
 155:..\u8g2\csrc/u8g2_circle.c ****       u8g2_DrawVLine(u8g2, x0-x, y0, y+1);
 156:..\u8g2\csrc/u8g2_circle.c ****       u8g2_DrawVLine(u8g2, x0-y, y0, x+1);
 157:..\u8g2\csrc/u8g2_circle.c ****     }
 158:..\u8g2\csrc/u8g2_circle.c **** }
 159:..\u8g2\csrc/u8g2_circle.c **** 
 160:..\u8g2\csrc/u8g2_circle.c **** static void u8g2_draw_disc(u8g2_t *u8g2, u8g2_uint_t x0, u8g2_uint_t y0, u8g2_uint_t rad, uint8_t o
 161:..\u8g2\csrc/u8g2_circle.c **** {
 162:..\u8g2\csrc/u8g2_circle.c ****   u8g2_int_t f;
 163:..\u8g2\csrc/u8g2_circle.c ****   u8g2_int_t ddF_x;
 164:..\u8g2\csrc/u8g2_circle.c ****   u8g2_int_t ddF_y;
 165:..\u8g2\csrc/u8g2_circle.c ****   u8g2_uint_t x;
 166:..\u8g2\csrc/u8g2_circle.c ****   u8g2_uint_t y;
 167:..\u8g2\csrc/u8g2_circle.c **** 
 168:..\u8g2\csrc/u8g2_circle.c ****   f = 1;
 169:..\u8g2\csrc/u8g2_circle.c ****   f -= rad;
 170:..\u8g2\csrc/u8g2_circle.c ****   ddF_x = 1;
 171:..\u8g2\csrc/u8g2_circle.c ****   ddF_y = 0;
 172:..\u8g2\csrc/u8g2_circle.c ****   ddF_y -= rad;
 173:..\u8g2\csrc/u8g2_circle.c ****   ddF_y *= 2;
 174:..\u8g2\csrc/u8g2_circle.c ****   x = 0;
 175:..\u8g2\csrc/u8g2_circle.c ****   y = rad;
 176:..\u8g2\csrc/u8g2_circle.c **** 
 177:..\u8g2\csrc/u8g2_circle.c ****   u8g2_draw_disc_section(u8g2, x, y, x0, y0, option);
 178:..\u8g2\csrc/u8g2_circle.c ****   
 179:..\u8g2\csrc/u8g2_circle.c ****   while ( x < y )
 180:..\u8g2\csrc/u8g2_circle.c ****   {
 181:..\u8g2\csrc/u8g2_circle.c ****     if (f >= 0) 
 182:..\u8g2\csrc/u8g2_circle.c ****     {
 183:..\u8g2\csrc/u8g2_circle.c ****       y--;
 184:..\u8g2\csrc/u8g2_circle.c ****       ddF_y += 2;
 185:..\u8g2\csrc/u8g2_circle.c ****       f += ddF_y;
 186:..\u8g2\csrc/u8g2_circle.c ****     }
 187:..\u8g2\csrc/u8g2_circle.c ****     x++;
 188:..\u8g2\csrc/u8g2_circle.c ****     ddF_x += 2;
 189:..\u8g2\csrc/u8g2_circle.c ****     f += ddF_x;
 190:..\u8g2\csrc/u8g2_circle.c **** 
 191:..\u8g2\csrc/u8g2_circle.c ****     u8g2_draw_disc_section(u8g2, x, y, x0, y0, option);    
 192:..\u8g2\csrc/u8g2_circle.c ****   }
 193:..\u8g2\csrc/u8g2_circle.c **** }
 194:..\u8g2\csrc/u8g2_circle.c **** 
 195:..\u8g2\csrc/u8g2_circle.c **** void u8g2_DrawDisc(u8g2_t *u8g2, u8g2_uint_t x0, u8g2_uint_t y0, u8g2_uint_t rad, uint8_t option)
 196:..\u8g2\csrc/u8g2_circle.c **** {
 197:..\u8g2\csrc/u8g2_circle.c ****   /* check for bounding box */
 198:..\u8g2\csrc/u8g2_circle.c **** #ifdef U8G2_WITH_INTERSECTION
 199:..\u8g2\csrc/u8g2_circle.c ****   {
 200:..\u8g2\csrc/u8g2_circle.c ****     if ( u8g2_IsIntersection(u8g2, x0-rad, y0-rad, x0+rad+1, y0+rad+1) == 0 ) 
 201:..\u8g2\csrc/u8g2_circle.c ****       return;
 202:..\u8g2\csrc/u8g2_circle.c ****   }
 203:..\u8g2\csrc/u8g2_circle.c **** #endif /* U8G2_WITH_INTERSECTION */
ARM GAS  C:\Users\gjl\AppData\Local\Temp\ccBgUaIM.s 			page 10


 204:..\u8g2\csrc/u8g2_circle.c ****   
 205:..\u8g2\csrc/u8g2_circle.c ****   /* draw disc */
 206:..\u8g2\csrc/u8g2_circle.c ****   u8g2_draw_disc(u8g2, x0, y0, rad, option);
 207:..\u8g2\csrc/u8g2_circle.c **** }
 208:..\u8g2\csrc/u8g2_circle.c **** 
 209:..\u8g2\csrc/u8g2_circle.c **** /*==============================================*/
 210:..\u8g2\csrc/u8g2_circle.c **** /* Ellipse */
 211:..\u8g2\csrc/u8g2_circle.c **** 
 212:..\u8g2\csrc/u8g2_circle.c **** /*
 213:..\u8g2\csrc/u8g2_circle.c ****   Source: 
 214:..\u8g2\csrc/u8g2_circle.c ****     Foley, Computer Graphics, p 90
 215:..\u8g2\csrc/u8g2_circle.c **** */
 216:..\u8g2\csrc/u8g2_circle.c **** static void u8g2_draw_ellipse_section(u8g2_t *u8g2, u8g2_uint_t x, u8g2_uint_t y, u8g2_uint_t x0, u
 217:..\u8g2\csrc/u8g2_circle.c **** static void u8g2_draw_ellipse_section(u8g2_t *u8g2, u8g2_uint_t x, u8g2_uint_t y, u8g2_uint_t x0, u
 218:..\u8g2\csrc/u8g2_circle.c **** {
 308              		.loc 1 218 0
 309              		.cfi_startproc
 310              		@ args = 8, pretend = 0, frame = 8
 311              		@ frame_needed = 0, uses_anonymous_args = 0
 312              	.LVL44:
 313 0000 F0B5     		push	{r4, r5, r6, r7, lr}
 314              		.cfi_def_cfa_offset 20
 315              		.cfi_offset 4, -20
 316              		.cfi_offset 5, -16
 317              		.cfi_offset 6, -12
 318              		.cfi_offset 7, -8
 319              		.cfi_offset 14, -4
 320 0002 4F46     		mov	r7, r9
 321 0004 80B4     		push	{r7}
 322              		.cfi_def_cfa_offset 24
 323              		.cfi_offset 9, -24
 324 0006 82B0     		sub	sp, sp, #8
 325              		.cfi_def_cfa_offset 32
 326 0008 0190     		str	r0, [sp, #4]
 327 000a 0E00     		movs	r6, r1
 328 000c 1700     		movs	r7, r2
 329 000e 1D00     		movs	r5, r3
 330 0010 08AB     		add	r3, sp, #32
 331              	.LVL45:
 332 0012 1B78     		ldrb	r3, [r3]
 333              	.LVL46:
 334 0014 9946     		mov	r9, r3
 335 0016 09AB     		add	r3, sp, #36
 336              	.LVL47:
 337 0018 1C78     		ldrb	r4, [r3]
 219:..\u8g2\csrc/u8g2_circle.c ****     /* upper right */
 220:..\u8g2\csrc/u8g2_circle.c ****     if ( option & U8G2_DRAW_UPPER_RIGHT )
 338              		.loc 1 220 0
 339 001a E307     		lsls	r3, r4, #31
 340 001c 06D5     		bpl	.L11
 341              	.LVL48:
 221:..\u8g2\csrc/u8g2_circle.c ****     {
 222:..\u8g2\csrc/u8g2_circle.c ****       u8g2_DrawPixel(u8g2, x0 + x, y0 - y);
 342              		.loc 1 222 0
 343 001e 4B46     		mov	r3, r9
 344 0020 9A1A     		subs	r2, r3, r2
 345              	.LVL49:
ARM GAS  C:\Users\gjl\AppData\Local\Temp\ccBgUaIM.s 			page 11


 346 0022 D2B2     		uxtb	r2, r2
 347 0024 6918     		adds	r1, r5, r1
 348              	.LVL50:
 349 0026 C9B2     		uxtb	r1, r1
 350 0028 FFF7FEFF 		bl	u8g2_DrawPixel
 351              	.LVL51:
 352              	.L11:
 223:..\u8g2\csrc/u8g2_circle.c ****     }
 224:..\u8g2\csrc/u8g2_circle.c ****     
 225:..\u8g2\csrc/u8g2_circle.c ****     /* upper left */
 226:..\u8g2\csrc/u8g2_circle.c ****     if ( option & U8G2_DRAW_UPPER_LEFT )
 353              		.loc 1 226 0
 354 002c A307     		lsls	r3, r4, #30
 355 002e 07D5     		bpl	.L12
 227:..\u8g2\csrc/u8g2_circle.c ****     {
 228:..\u8g2\csrc/u8g2_circle.c ****       u8g2_DrawPixel(u8g2, x0 - x, y0 - y);
 356              		.loc 1 228 0
 357 0030 4B46     		mov	r3, r9
 358 0032 DA1B     		subs	r2, r3, r7
 359 0034 D2B2     		uxtb	r2, r2
 360 0036 A91B     		subs	r1, r5, r6
 361 0038 C9B2     		uxtb	r1, r1
 362 003a 0198     		ldr	r0, [sp, #4]
 363 003c FFF7FEFF 		bl	u8g2_DrawPixel
 364              	.LVL52:
 365              	.L12:
 229:..\u8g2\csrc/u8g2_circle.c ****     }
 230:..\u8g2\csrc/u8g2_circle.c ****     
 231:..\u8g2\csrc/u8g2_circle.c ****     /* lower right */
 232:..\u8g2\csrc/u8g2_circle.c ****     if ( option & U8G2_DRAW_LOWER_RIGHT )
 366              		.loc 1 232 0
 367 0040 2307     		lsls	r3, r4, #28
 368 0042 07D5     		bpl	.L13
 233:..\u8g2\csrc/u8g2_circle.c ****     {
 234:..\u8g2\csrc/u8g2_circle.c ****       u8g2_DrawPixel(u8g2, x0 + x, y0 + y);
 369              		.loc 1 234 0
 370 0044 4B46     		mov	r3, r9
 371 0046 DA19     		adds	r2, r3, r7
 372 0048 D2B2     		uxtb	r2, r2
 373 004a A919     		adds	r1, r5, r6
 374 004c C9B2     		uxtb	r1, r1
 375 004e 0198     		ldr	r0, [sp, #4]
 376 0050 FFF7FEFF 		bl	u8g2_DrawPixel
 377              	.LVL53:
 378              	.L13:
 235:..\u8g2\csrc/u8g2_circle.c ****     }
 236:..\u8g2\csrc/u8g2_circle.c ****     
 237:..\u8g2\csrc/u8g2_circle.c ****     /* lower left */
 238:..\u8g2\csrc/u8g2_circle.c ****     if ( option & U8G2_DRAW_LOWER_LEFT )
 379              		.loc 1 238 0
 380 0054 6307     		lsls	r3, r4, #29
 381 0056 06D5     		bpl	.L10
 239:..\u8g2\csrc/u8g2_circle.c ****     {
 240:..\u8g2\csrc/u8g2_circle.c ****       u8g2_DrawPixel(u8g2, x0 - x, y0 + y);
 382              		.loc 1 240 0
 383 0058 4F44     		add	r7, r7, r9
 384 005a FAB2     		uxtb	r2, r7
ARM GAS  C:\Users\gjl\AppData\Local\Temp\ccBgUaIM.s 			page 12


 385 005c A91B     		subs	r1, r5, r6
 386 005e C9B2     		uxtb	r1, r1
 387 0060 0198     		ldr	r0, [sp, #4]
 388 0062 FFF7FEFF 		bl	u8g2_DrawPixel
 389              	.LVL54:
 390              	.L10:
 241:..\u8g2\csrc/u8g2_circle.c ****     }
 242:..\u8g2\csrc/u8g2_circle.c **** }
 391              		.loc 1 242 0
 392 0066 02B0     		add	sp, sp, #8
 393              		@ sp needed
 394 0068 04BC     		pop	{r2}
 395 006a 9146     		mov	r9, r2
 396 006c F0BD     		pop	{r4, r5, r6, r7, pc}
 397              		.cfi_endproc
 398              	.LFE6:
 399              		.size	u8g2_draw_ellipse_section, .-u8g2_draw_ellipse_section
 400 006e C046     		.section	.text.u8g2_draw_ellipse,"ax",%progbits
 401              		.align	2
 402              		.code	16
 403              		.thumb_func
 404              		.type	u8g2_draw_ellipse, %function
 405              	u8g2_draw_ellipse:
 406              	.LFB7:
 243:..\u8g2\csrc/u8g2_circle.c **** 
 244:..\u8g2\csrc/u8g2_circle.c **** static void u8g2_draw_ellipse(u8g2_t *u8g2, u8g2_uint_t x0, u8g2_uint_t y0, u8g2_uint_t rx, u8g2_ui
 245:..\u8g2\csrc/u8g2_circle.c **** {
 407              		.loc 1 245 0
 408              		.cfi_startproc
 409              		@ args = 8, pretend = 0, frame = 40
 410              		@ frame_needed = 0, uses_anonymous_args = 0
 411              	.LVL55:
 412 0000 F0B5     		push	{r4, r5, r6, r7, lr}
 413              		.cfi_def_cfa_offset 20
 414              		.cfi_offset 4, -20
 415              		.cfi_offset 5, -16
 416              		.cfi_offset 6, -12
 417              		.cfi_offset 7, -8
 418              		.cfi_offset 14, -4
 419 0002 5F46     		mov	r7, fp
 420 0004 5646     		mov	r6, r10
 421 0006 4D46     		mov	r5, r9
 422 0008 4446     		mov	r4, r8
 423 000a F0B4     		push	{r4, r5, r6, r7}
 424              		.cfi_def_cfa_offset 36
 425              		.cfi_offset 8, -36
 426              		.cfi_offset 9, -32
 427              		.cfi_offset 10, -28
 428              		.cfi_offset 11, -24
 429 000c 8DB0     		sub	sp, sp, #52
 430              		.cfi_def_cfa_offset 88
 431 000e 0690     		str	r0, [sp, #24]
 432 0010 0791     		str	r1, [sp, #28]
 433 0012 0892     		str	r2, [sp, #32]
 434 0014 1900     		movs	r1, r3
 435              	.LVL56:
 436 0016 0393     		str	r3, [sp, #12]
ARM GAS  C:\Users\gjl\AppData\Local\Temp\ccBgUaIM.s 			page 13


 437 0018 16AB     		add	r3, sp, #88
 438              	.LVL57:
 439 001a 1A78     		ldrb	r2, [r3]
 440              	.LVL58:
 441 001c 1000     		movs	r0, r2
 442              	.LVL59:
 443 001e 0492     		str	r2, [sp, #16]
 444 0020 17AB     		add	r3, sp, #92
 445              	.LVL60:
 446 0022 1A78     		ldrb	r2, [r3]
 447 0024 9146     		mov	r9, r2
 448              	.LVL61:
 246:..\u8g2\csrc/u8g2_circle.c ****   u8g2_uint_t x, y;
 247:..\u8g2\csrc/u8g2_circle.c ****   u8g2_long_t xchg, ychg;
 248:..\u8g2\csrc/u8g2_circle.c ****   u8g2_long_t err;
 249:..\u8g2\csrc/u8g2_circle.c ****   u8g2_long_t rxrx2;
 250:..\u8g2\csrc/u8g2_circle.c ****   u8g2_long_t ryry2;
 251:..\u8g2\csrc/u8g2_circle.c ****   u8g2_long_t stopx, stopy;
 252:..\u8g2\csrc/u8g2_circle.c ****   
 253:..\u8g2\csrc/u8g2_circle.c ****   rxrx2 = rx;
 254:..\u8g2\csrc/u8g2_circle.c ****   rxrx2 *= rx;
 449              		.loc 1 254 0
 450 0026 8BB2     		uxth	r3, r1
 451              	.LVL62:
 452 0028 1900     		movs	r1, r3
 453              	.LVL63:
 454 002a 0993     		str	r3, [sp, #36]
 455 002c 5B43     		muls	r3, r3
 456              	.LVL64:
 255:..\u8g2\csrc/u8g2_circle.c ****   rxrx2 *= 2;
 457              		.loc 1 255 0
 458 002e 5A00     		lsls	r2, r3, #1
 459 0030 92B2     		uxth	r2, r2
 460 0032 9246     		mov	r10, r2
 461              	.LVL65:
 256:..\u8g2\csrc/u8g2_circle.c ****   
 257:..\u8g2\csrc/u8g2_circle.c ****   ryry2 = ry;
 258:..\u8g2\csrc/u8g2_circle.c ****   ryry2 *= ry;
 462              		.loc 1 258 0
 463 0034 82B2     		uxth	r2, r0
 464 0036 1600     		movs	r6, r2
 465 0038 0A92     		str	r2, [sp, #40]
 466 003a 1000     		movs	r0, r2
 467              	.LVL66:
 468 003c 5043     		muls	r0, r2
 469 003e 0B90     		str	r0, [sp, #44]
 470              	.LVL67:
 259:..\u8g2\csrc/u8g2_circle.c ****   ryry2 *= 2;
 471              		.loc 1 259 0
 472 0040 4200     		lsls	r2, r0, #1
 473 0042 92B2     		uxth	r2, r2
 474 0044 9346     		mov	fp, r2
 475              	.LVL68:
 260:..\u8g2\csrc/u8g2_circle.c ****   
 261:..\u8g2\csrc/u8g2_circle.c ****   x = rx;
 262:..\u8g2\csrc/u8g2_circle.c ****   y = 0;
 263:..\u8g2\csrc/u8g2_circle.c ****   
ARM GAS  C:\Users\gjl\AppData\Local\Temp\ccBgUaIM.s 			page 14


 264:..\u8g2\csrc/u8g2_circle.c ****   xchg = 1;
 265:..\u8g2\csrc/u8g2_circle.c ****   xchg -= rx;
 476              		.loc 1 265 0
 477 0046 0125     		movs	r5, #1
 478 0048 6D1A     		subs	r5, r5, r1
 479 004a ADB2     		uxth	r5, r5
 480              	.LVL69:
 266:..\u8g2\csrc/u8g2_circle.c ****   xchg -= rx;
 481              		.loc 1 266 0
 482 004c 6D1A     		subs	r5, r5, r1
 483              	.LVL70:
 484 004e ADB2     		uxth	r5, r5
 485              	.LVL71:
 267:..\u8g2\csrc/u8g2_circle.c ****   xchg *= ry;
 486              		.loc 1 267 0
 487 0050 7543     		muls	r5, r6
 488              	.LVL72:
 489 0052 ADB2     		uxth	r5, r5
 490              	.LVL73:
 268:..\u8g2\csrc/u8g2_circle.c ****   xchg *= ry;
 491              		.loc 1 268 0
 492 0054 7543     		muls	r5, r6
 493              	.LVL74:
 494 0056 2DB2     		sxth	r5, r5
 495              	.LVL75:
 269:..\u8g2\csrc/u8g2_circle.c ****   
 270:..\u8g2\csrc/u8g2_circle.c ****   ychg = rx;
 271:..\u8g2\csrc/u8g2_circle.c ****   ychg *= rx;
 496              		.loc 1 271 0
 497 0058 1BB2     		sxth	r3, r3
 498 005a 0593     		str	r3, [sp, #20]
 499              	.LVL76:
 272:..\u8g2\csrc/u8g2_circle.c ****   
 273:..\u8g2\csrc/u8g2_circle.c ****   err = 0;
 274:..\u8g2\csrc/u8g2_circle.c ****   
 275:..\u8g2\csrc/u8g2_circle.c ****   stopx = ryry2;
 276:..\u8g2\csrc/u8g2_circle.c ****   stopx *= rx;
 500              		.loc 1 276 0
 501 005c 5B46     		mov	r3, fp
 502 005e 4B43     		muls	r3, r1
 503 0060 1BB2     		sxth	r3, r3
 504              	.LVL77:
 277:..\u8g2\csrc/u8g2_circle.c ****   stopy = 0;
 505              		.loc 1 277 0
 506 0062 0026     		movs	r6, #0
 273:..\u8g2\csrc/u8g2_circle.c ****   
 507              		.loc 1 273 0
 508 0064 0024     		movs	r4, #0
 262:..\u8g2\csrc/u8g2_circle.c ****   
 509              		.loc 1 262 0
 510 0066 0027     		movs	r7, #0
 511 0068 A046     		mov	r8, r4
 512 006a 1C00     		movs	r4, r3
 278:..\u8g2\csrc/u8g2_circle.c ****   
 279:..\u8g2\csrc/u8g2_circle.c ****   while( stopx >= stopy )
 513              		.loc 1 279 0
 514 006c 29E0     		b	.L16
ARM GAS  C:\Users\gjl\AppData\Local\Temp\ccBgUaIM.s 			page 15


 515              	.LVL78:
 516              	.L18:
 280:..\u8g2\csrc/u8g2_circle.c ****   {
 281:..\u8g2\csrc/u8g2_circle.c ****     u8g2_draw_ellipse_section(u8g2, x, y, x0, y0, option);
 517              		.loc 1 281 0
 518 006e 4B46     		mov	r3, r9
 519 0070 0193     		str	r3, [sp, #4]
 520 0072 089B     		ldr	r3, [sp, #32]
 521 0074 0093     		str	r3, [sp]
 522 0076 079B     		ldr	r3, [sp, #28]
 523 0078 3A00     		movs	r2, r7
 524 007a 0399     		ldr	r1, [sp, #12]
 525 007c 0698     		ldr	r0, [sp, #24]
 526 007e FFF7FEFF 		bl	u8g2_draw_ellipse_section
 527              	.LVL79:
 282:..\u8g2\csrc/u8g2_circle.c ****     y++;
 528              		.loc 1 282 0
 529 0082 0137     		adds	r7, r7, #1
 530              	.LVL80:
 531 0084 FFB2     		uxtb	r7, r7
 532              	.LVL81:
 283:..\u8g2\csrc/u8g2_circle.c ****     stopy += rxrx2;
 533              		.loc 1 283 0
 534 0086 5644     		add	r6, r6, r10
 535              	.LVL82:
 536 0088 36B2     		sxth	r6, r6
 537              	.LVL83:
 284:..\u8g2\csrc/u8g2_circle.c ****     err += ychg;
 538              		.loc 1 284 0
 539 008a 6B46     		mov	r3, sp
 540 008c 9A8A     		ldrh	r2, [r3, #20]
 541 008e 4346     		mov	r3, r8
 542 0090 D318     		adds	r3, r2, r3
 543 0092 9BB2     		uxth	r3, r3
 544 0094 19B2     		sxth	r1, r3
 545 0096 8846     		mov	r8, r1
 546              	.LVL84:
 285:..\u8g2\csrc/u8g2_circle.c ****     ychg += rxrx2;
 547              		.loc 1 285 0
 548 0098 5244     		add	r2, r2, r10
 549 009a 11B2     		sxth	r1, r2
 550 009c 0591     		str	r1, [sp, #20]
 551              	.LVL85:
 286:..\u8g2\csrc/u8g2_circle.c ****     if ( 2*err+xchg > 0 )
 552              		.loc 1 286 0
 553 009e 4146     		mov	r1, r8
 554 00a0 4A00     		lsls	r2, r1, #1
 555 00a2 AA18     		adds	r2, r5, r2
 556 00a4 002A     		cmp	r2, #0
 557 00a6 0CDD     		ble	.L16
 287:..\u8g2\csrc/u8g2_circle.c ****     {
 288:..\u8g2\csrc/u8g2_circle.c ****       x--;
 558              		.loc 1 288 0
 559 00a8 039A     		ldr	r2, [sp, #12]
 560 00aa 013A     		subs	r2, r2, #1
 561 00ac D2B2     		uxtb	r2, r2
 562 00ae 0392     		str	r2, [sp, #12]
ARM GAS  C:\Users\gjl\AppData\Local\Temp\ccBgUaIM.s 			page 16


 563              	.LVL86:
 289:..\u8g2\csrc/u8g2_circle.c ****       stopx -= ryry2;
 564              		.loc 1 289 0
 565 00b0 5A46     		mov	r2, fp
 566 00b2 A41A     		subs	r4, r4, r2
 567              	.LVL87:
 568 00b4 24B2     		sxth	r4, r4
 569              	.LVL88:
 290:..\u8g2\csrc/u8g2_circle.c ****       err += xchg;
 570              		.loc 1 290 0
 571 00b6 ADB2     		uxth	r5, r5
 572 00b8 5B19     		adds	r3, r3, r5
 573 00ba 1BB2     		sxth	r3, r3
 574 00bc 9846     		mov	r8, r3
 575              	.LVL89:
 291:..\u8g2\csrc/u8g2_circle.c ****       xchg += ryry2;      
 576              		.loc 1 291 0
 577 00be 5D44     		add	r5, r5, fp
 578              	.LVL90:
 579 00c0 2DB2     		sxth	r5, r5
 580              	.LVL91:
 581              	.L16:
 279:..\u8g2\csrc/u8g2_circle.c ****   {
 582              		.loc 1 279 0
 583 00c2 B442     		cmp	r4, r6
 584 00c4 D3DA     		bge	.L18
 585              	.LVL92:
 292:..\u8g2\csrc/u8g2_circle.c ****     }
 293:..\u8g2\csrc/u8g2_circle.c ****   }
 294:..\u8g2\csrc/u8g2_circle.c **** 
 295:..\u8g2\csrc/u8g2_circle.c ****   x = 0;
 296:..\u8g2\csrc/u8g2_circle.c ****   y = ry;
 297:..\u8g2\csrc/u8g2_circle.c ****   
 298:..\u8g2\csrc/u8g2_circle.c ****   xchg = ry;
 299:..\u8g2\csrc/u8g2_circle.c ****   xchg *= ry;
 586              		.loc 1 299 0
 587 00c6 6B46     		mov	r3, sp
 588 00c8 2C26     		movs	r6, #44
 589 00ca 9E5F     		ldrsh	r6, [r3, r6]
 590              	.LVL93:
 300:..\u8g2\csrc/u8g2_circle.c ****   
 301:..\u8g2\csrc/u8g2_circle.c ****   ychg = 1;
 302:..\u8g2\csrc/u8g2_circle.c ****   ychg -= ry;
 591              		.loc 1 302 0
 592 00cc 0125     		movs	r5, #1
 593 00ce 0A9B     		ldr	r3, [sp, #40]
 594 00d0 ED1A     		subs	r5, r5, r3
 595 00d2 ADB2     		uxth	r5, r5
 596              	.LVL94:
 303:..\u8g2\csrc/u8g2_circle.c ****   ychg -= ry;
 597              		.loc 1 303 0
 598 00d4 ED1A     		subs	r5, r5, r3
 599              	.LVL95:
 600 00d6 ADB2     		uxth	r5, r5
 601              	.LVL96:
 304:..\u8g2\csrc/u8g2_circle.c ****   ychg *= rx;
 602              		.loc 1 304 0
ARM GAS  C:\Users\gjl\AppData\Local\Temp\ccBgUaIM.s 			page 17


 603 00d8 099A     		ldr	r2, [sp, #36]
 604 00da 5543     		muls	r5, r2
 605              	.LVL97:
 606 00dc ADB2     		uxth	r5, r5
 607              	.LVL98:
 305:..\u8g2\csrc/u8g2_circle.c ****   ychg *= rx;
 608              		.loc 1 305 0
 609 00de 5543     		muls	r5, r2
 610              	.LVL99:
 611 00e0 2DB2     		sxth	r5, r5
 612              	.LVL100:
 306:..\u8g2\csrc/u8g2_circle.c ****   
 307:..\u8g2\csrc/u8g2_circle.c ****   err = 0;
 308:..\u8g2\csrc/u8g2_circle.c ****   
 309:..\u8g2\csrc/u8g2_circle.c ****   stopx = 0;
 310:..\u8g2\csrc/u8g2_circle.c **** 
 311:..\u8g2\csrc/u8g2_circle.c ****   stopy = rxrx2;
 312:..\u8g2\csrc/u8g2_circle.c ****   stopy *= ry;
 613              		.loc 1 312 0
 614 00e2 5246     		mov	r2, r10
 615 00e4 5343     		muls	r3, r2
 616 00e6 1BB2     		sxth	r3, r3
 617 00e8 9846     		mov	r8, r3
 618              	.LVL101:
 309:..\u8g2\csrc/u8g2_circle.c **** 
 619              		.loc 1 309 0
 620 00ea 0027     		movs	r7, #0
 307:..\u8g2\csrc/u8g2_circle.c ****   
 621              		.loc 1 307 0
 622 00ec 0024     		movs	r4, #0
 295:..\u8g2\csrc/u8g2_circle.c ****   y = ry;
 623              		.loc 1 295 0
 624 00ee 0023     		movs	r3, #0
 625 00f0 0393     		str	r3, [sp, #12]
 626 00f2 4346     		mov	r3, r8
 627 00f4 A046     		mov	r8, r4
 628              	.LVL102:
 629 00f6 1C00     		movs	r4, r3
 313:..\u8g2\csrc/u8g2_circle.c ****   
 314:..\u8g2\csrc/u8g2_circle.c **** 
 315:..\u8g2\csrc/u8g2_circle.c ****   while( stopx <= stopy )
 630              		.loc 1 315 0
 631 00f8 28E0     		b	.L19
 632              	.LVL103:
 633              	.L21:
 316:..\u8g2\csrc/u8g2_circle.c ****   {
 317:..\u8g2\csrc/u8g2_circle.c ****     u8g2_draw_ellipse_section(u8g2, x, y, x0, y0, option);
 634              		.loc 1 317 0
 635 00fa 4B46     		mov	r3, r9
 636 00fc 0193     		str	r3, [sp, #4]
 637 00fe 089B     		ldr	r3, [sp, #32]
 638 0100 0093     		str	r3, [sp]
 639 0102 079B     		ldr	r3, [sp, #28]
 640 0104 049A     		ldr	r2, [sp, #16]
 641 0106 0399     		ldr	r1, [sp, #12]
 642 0108 0698     		ldr	r0, [sp, #24]
 643 010a FFF7FEFF 		bl	u8g2_draw_ellipse_section
ARM GAS  C:\Users\gjl\AppData\Local\Temp\ccBgUaIM.s 			page 18


 644              	.LVL104:
 318:..\u8g2\csrc/u8g2_circle.c ****     x++;
 645              		.loc 1 318 0
 646 010e 039B     		ldr	r3, [sp, #12]
 647 0110 0133     		adds	r3, r3, #1
 648 0112 DBB2     		uxtb	r3, r3
 649 0114 0393     		str	r3, [sp, #12]
 650              	.LVL105:
 319:..\u8g2\csrc/u8g2_circle.c ****     stopx += ryry2;
 651              		.loc 1 319 0
 652 0116 5F44     		add	r7, r7, fp
 653              	.LVL106:
 654 0118 3FB2     		sxth	r7, r7
 655              	.LVL107:
 320:..\u8g2\csrc/u8g2_circle.c ****     err += xchg;
 656              		.loc 1 320 0
 657 011a B6B2     		uxth	r6, r6
 658 011c 4346     		mov	r3, r8
 659 011e F318     		adds	r3, r6, r3
 660 0120 9BB2     		uxth	r3, r3
 661 0122 19B2     		sxth	r1, r3
 662 0124 8846     		mov	r8, r1
 663              	.LVL108:
 321:..\u8g2\csrc/u8g2_circle.c ****     xchg += ryry2;
 664              		.loc 1 321 0
 665 0126 5E44     		add	r6, r6, fp
 666              	.LVL109:
 667 0128 36B2     		sxth	r6, r6
 668              	.LVL110:
 322:..\u8g2\csrc/u8g2_circle.c ****     if ( 2*err+ychg > 0 )
 669              		.loc 1 322 0
 670 012a 4A00     		lsls	r2, r1, #1
 671 012c AA18     		adds	r2, r5, r2
 672 012e 002A     		cmp	r2, #0
 673 0130 0CDD     		ble	.L19
 323:..\u8g2\csrc/u8g2_circle.c ****     {
 324:..\u8g2\csrc/u8g2_circle.c ****       y--;
 674              		.loc 1 324 0
 675 0132 049A     		ldr	r2, [sp, #16]
 676 0134 013A     		subs	r2, r2, #1
 677 0136 D2B2     		uxtb	r2, r2
 678 0138 0492     		str	r2, [sp, #16]
 679              	.LVL111:
 325:..\u8g2\csrc/u8g2_circle.c ****       stopy -= rxrx2;
 680              		.loc 1 325 0
 681 013a 5246     		mov	r2, r10
 682 013c A41A     		subs	r4, r4, r2
 683              	.LVL112:
 684 013e 24B2     		sxth	r4, r4
 685              	.LVL113:
 326:..\u8g2\csrc/u8g2_circle.c ****       err += ychg;
 686              		.loc 1 326 0
 687 0140 ADB2     		uxth	r5, r5
 688 0142 5B19     		adds	r3, r3, r5
 689 0144 1BB2     		sxth	r3, r3
 690 0146 9846     		mov	r8, r3
 691              	.LVL114:
ARM GAS  C:\Users\gjl\AppData\Local\Temp\ccBgUaIM.s 			page 19


 327:..\u8g2\csrc/u8g2_circle.c ****       ychg += rxrx2;
 692              		.loc 1 327 0
 693 0148 5544     		add	r5, r5, r10
 694              	.LVL115:
 695 014a 2DB2     		sxth	r5, r5
 696              	.LVL116:
 697              	.L19:
 315:..\u8g2\csrc/u8g2_circle.c ****   {
 698              		.loc 1 315 0
 699 014c A742     		cmp	r7, r4
 700 014e D4DD     		ble	.L21
 328:..\u8g2\csrc/u8g2_circle.c ****     }
 329:..\u8g2\csrc/u8g2_circle.c ****   }
 330:..\u8g2\csrc/u8g2_circle.c ****   
 331:..\u8g2\csrc/u8g2_circle.c **** }
 701              		.loc 1 331 0
 702 0150 0DB0     		add	sp, sp, #52
 703              		@ sp needed
 704              	.LVL117:
 705              	.LVL118:
 706              	.LVL119:
 707              	.LVL120:
 708              	.LVL121:
 709              	.LVL122:
 710              	.LVL123:
 711 0152 3CBC     		pop	{r2, r3, r4, r5}
 712 0154 9046     		mov	r8, r2
 713 0156 9946     		mov	r9, r3
 714 0158 A246     		mov	r10, r4
 715 015a AB46     		mov	fp, r5
 716 015c F0BD     		pop	{r4, r5, r6, r7, pc}
 717              		.cfi_endproc
 718              	.LFE7:
 719              		.size	u8g2_draw_ellipse, .-u8g2_draw_ellipse
 720 015e C046     		.section	.text.u8g2_draw_disc_section,"ax",%progbits
 721              		.align	2
 722              		.code	16
 723              		.thumb_func
 724              		.type	u8g2_draw_disc_section, %function
 725              	u8g2_draw_disc_section:
 726              	.LFB3:
 130:..\u8g2\csrc/u8g2_circle.c ****     /* upper right */
 727              		.loc 1 130 0
 728              		.cfi_startproc
 729              		@ args = 8, pretend = 0, frame = 8
 730              		@ frame_needed = 0, uses_anonymous_args = 0
 731              	.LVL124:
 732 0000 F0B5     		push	{r4, r5, r6, r7, lr}
 733              		.cfi_def_cfa_offset 20
 734              		.cfi_offset 4, -20
 735              		.cfi_offset 5, -16
 736              		.cfi_offset 6, -12
 737              		.cfi_offset 7, -8
 738              		.cfi_offset 14, -4
 739 0002 4746     		mov	r7, r8
 740 0004 80B4     		push	{r7}
 741              		.cfi_def_cfa_offset 24
ARM GAS  C:\Users\gjl\AppData\Local\Temp\ccBgUaIM.s 			page 20


 742              		.cfi_offset 8, -24
 743 0006 82B0     		sub	sp, sp, #8
 744              		.cfi_def_cfa_offset 32
 745 0008 0190     		str	r0, [sp, #4]
 746 000a 0C00     		movs	r4, r1
 747 000c 1500     		movs	r5, r2
 748 000e 1E00     		movs	r6, r3
 749 0010 08AB     		add	r3, sp, #32
 750              	.LVL125:
 751 0012 1B78     		ldrb	r3, [r3]
 752              	.LVL126:
 753 0014 9846     		mov	r8, r3
 754 0016 09AB     		add	r3, sp, #36
 755              	.LVL127:
 756 0018 1F78     		ldrb	r7, [r3]
 132:..\u8g2\csrc/u8g2_circle.c ****     {
 757              		.loc 1 132 0
 758 001a FB07     		lsls	r3, r7, #31
 759 001c 12D5     		bpl	.L23
 760              	.LVL128:
 134:..\u8g2\csrc/u8g2_circle.c ****       u8g2_DrawVLine(u8g2, x0+y, y0-x, x+1);
 761              		.loc 1 134 0
 762 001e 531C     		adds	r3, r2, #1
 763 0020 DBB2     		uxtb	r3, r3
 764 0022 4246     		mov	r2, r8
 765              	.LVL129:
 766 0024 521B     		subs	r2, r2, r5
 767 0026 D2B2     		uxtb	r2, r2
 768 0028 7118     		adds	r1, r6, r1
 769              	.LVL130:
 770 002a C9B2     		uxtb	r1, r1
 771 002c FFF7FEFF 		bl	u8g2_DrawVLine
 772              	.LVL131:
 135:..\u8g2\csrc/u8g2_circle.c ****     }
 773              		.loc 1 135 0
 774 0030 631C     		adds	r3, r4, #1
 775 0032 DBB2     		uxtb	r3, r3
 776 0034 4246     		mov	r2, r8
 777 0036 121B     		subs	r2, r2, r4
 778 0038 D2B2     		uxtb	r2, r2
 779 003a 7119     		adds	r1, r6, r5
 780 003c C9B2     		uxtb	r1, r1
 781 003e 0198     		ldr	r0, [sp, #4]
 782 0040 FFF7FEFF 		bl	u8g2_DrawVLine
 783              	.LVL132:
 784              	.L23:
 139:..\u8g2\csrc/u8g2_circle.c ****     {
 785              		.loc 1 139 0
 786 0044 BB07     		lsls	r3, r7, #30
 787 0046 13D5     		bpl	.L24
 141:..\u8g2\csrc/u8g2_circle.c ****       u8g2_DrawVLine(u8g2, x0-y, y0-x, x+1);
 788              		.loc 1 141 0
 789 0048 6B1C     		adds	r3, r5, #1
 790 004a DBB2     		uxtb	r3, r3
 791 004c 4246     		mov	r2, r8
 792 004e 521B     		subs	r2, r2, r5
 793 0050 D2B2     		uxtb	r2, r2
ARM GAS  C:\Users\gjl\AppData\Local\Temp\ccBgUaIM.s 			page 21


 794 0052 311B     		subs	r1, r6, r4
 795 0054 C9B2     		uxtb	r1, r1
 796 0056 0198     		ldr	r0, [sp, #4]
 797 0058 FFF7FEFF 		bl	u8g2_DrawVLine
 798              	.LVL133:
 142:..\u8g2\csrc/u8g2_circle.c ****     }
 799              		.loc 1 142 0
 800 005c 631C     		adds	r3, r4, #1
 801 005e DBB2     		uxtb	r3, r3
 802 0060 4246     		mov	r2, r8
 803 0062 121B     		subs	r2, r2, r4
 804 0064 D2B2     		uxtb	r2, r2
 805 0066 711B     		subs	r1, r6, r5
 806 0068 C9B2     		uxtb	r1, r1
 807 006a 0198     		ldr	r0, [sp, #4]
 808 006c FFF7FEFF 		bl	u8g2_DrawVLine
 809              	.LVL134:
 810              	.L24:
 146:..\u8g2\csrc/u8g2_circle.c ****     {
 811              		.loc 1 146 0
 812 0070 3B07     		lsls	r3, r7, #28
 813 0072 0FD5     		bpl	.L25
 148:..\u8g2\csrc/u8g2_circle.c ****       u8g2_DrawVLine(u8g2, x0+y, y0, x+1);
 814              		.loc 1 148 0
 815 0074 6B1C     		adds	r3, r5, #1
 816 0076 DBB2     		uxtb	r3, r3
 817 0078 3119     		adds	r1, r6, r4
 818 007a C9B2     		uxtb	r1, r1
 819 007c 4246     		mov	r2, r8
 820 007e 0198     		ldr	r0, [sp, #4]
 821 0080 FFF7FEFF 		bl	u8g2_DrawVLine
 822              	.LVL135:
 149:..\u8g2\csrc/u8g2_circle.c ****     }
 823              		.loc 1 149 0
 824 0084 631C     		adds	r3, r4, #1
 825 0086 DBB2     		uxtb	r3, r3
 826 0088 7119     		adds	r1, r6, r5
 827 008a C9B2     		uxtb	r1, r1
 828 008c 4246     		mov	r2, r8
 829 008e 0198     		ldr	r0, [sp, #4]
 830 0090 FFF7FEFF 		bl	u8g2_DrawVLine
 831              	.LVL136:
 832              	.L25:
 153:..\u8g2\csrc/u8g2_circle.c ****     {
 833              		.loc 1 153 0
 834 0094 7B07     		lsls	r3, r7, #29
 835 0096 10D5     		bpl	.L22
 155:..\u8g2\csrc/u8g2_circle.c ****       u8g2_DrawVLine(u8g2, x0-y, y0, x+1);
 836              		.loc 1 155 0
 837 0098 6B1C     		adds	r3, r5, #1
 838 009a DBB2     		uxtb	r3, r3
 839 009c 311B     		subs	r1, r6, r4
 840 009e C9B2     		uxtb	r1, r1
 841 00a0 4246     		mov	r2, r8
 842 00a2 019F     		ldr	r7, [sp, #4]
 843 00a4 3800     		movs	r0, r7
 844 00a6 FFF7FEFF 		bl	u8g2_DrawVLine
ARM GAS  C:\Users\gjl\AppData\Local\Temp\ccBgUaIM.s 			page 22


 845              	.LVL137:
 156:..\u8g2\csrc/u8g2_circle.c ****     }
 846              		.loc 1 156 0
 847 00aa 0134     		adds	r4, r4, #1
 848 00ac E3B2     		uxtb	r3, r4
 849 00ae 711B     		subs	r1, r6, r5
 850 00b0 C9B2     		uxtb	r1, r1
 851 00b2 4246     		mov	r2, r8
 852 00b4 3800     		movs	r0, r7
 853 00b6 FFF7FEFF 		bl	u8g2_DrawVLine
 854              	.LVL138:
 855              	.L22:
 158:..\u8g2\csrc/u8g2_circle.c **** 
 856              		.loc 1 158 0
 857 00ba 02B0     		add	sp, sp, #8
 858              		@ sp needed
 859 00bc 04BC     		pop	{r2}
 860 00be 9046     		mov	r8, r2
 861 00c0 F0BD     		pop	{r4, r5, r6, r7, pc}
 862              		.cfi_endproc
 863              	.LFE3:
 864              		.size	u8g2_draw_disc_section, .-u8g2_draw_disc_section
 865 00c2 C046     		.section	.text.u8g2_draw_disc,"ax",%progbits
 866              		.align	2
 867              		.code	16
 868              		.thumb_func
 869              		.type	u8g2_draw_disc, %function
 870              	u8g2_draw_disc:
 871              	.LFB4:
 161:..\u8g2\csrc/u8g2_circle.c ****   u8g2_int_t f;
 872              		.loc 1 161 0
 873              		.cfi_startproc
 874              		@ args = 4, pretend = 0, frame = 8
 875              		@ frame_needed = 0, uses_anonymous_args = 0
 876              	.LVL139:
 877 0000 F0B5     		push	{r4, r5, r6, r7, lr}
 878              		.cfi_def_cfa_offset 20
 879              		.cfi_offset 4, -20
 880              		.cfi_offset 5, -16
 881              		.cfi_offset 6, -12
 882              		.cfi_offset 7, -8
 883              		.cfi_offset 14, -4
 884 0002 5F46     		mov	r7, fp
 885 0004 5646     		mov	r6, r10
 886 0006 4D46     		mov	r5, r9
 887 0008 4446     		mov	r4, r8
 888 000a F0B4     		push	{r4, r5, r6, r7}
 889              		.cfi_def_cfa_offset 36
 890              		.cfi_offset 8, -36
 891              		.cfi_offset 9, -32
 892              		.cfi_offset 10, -28
 893              		.cfi_offset 11, -24
 894 000c 85B0     		sub	sp, sp, #20
 895              		.cfi_def_cfa_offset 56
 896 000e 0290     		str	r0, [sp, #8]
 897 0010 0391     		str	r1, [sp, #12]
 898 0012 9246     		mov	r10, r2
ARM GAS  C:\Users\gjl\AppData\Local\Temp\ccBgUaIM.s 			page 23


 899 0014 1F00     		movs	r7, r3
 900 0016 0EAB     		add	r3, sp, #56
 901              	.LVL140:
 902 0018 1B78     		ldrb	r3, [r3]
 903              	.LVL141:
 904 001a 9B46     		mov	fp, r3
 905              	.LVL142:
 169:..\u8g2\csrc/u8g2_circle.c ****   ddF_x = 1;
 906              		.loc 1 169 0
 907 001c 0123     		movs	r3, #1
 908 001e DB1B     		subs	r3, r3, r7
 909 0020 5BB2     		sxtb	r3, r3
 910 0022 9946     		mov	r9, r3
 911              	.LVL143:
 172:..\u8g2\csrc/u8g2_circle.c ****   ddF_y *= 2;
 912              		.loc 1 172 0
 913 0024 7D42     		rsbs	r5, r7, #0
 914 0026 EDB2     		uxtb	r5, r5
 915              	.LVL144:
 173:..\u8g2\csrc/u8g2_circle.c ****   x = 0;
 916              		.loc 1 173 0
 917 0028 6D00     		lsls	r5, r5, #1
 918              	.LVL145:
 919 002a 6DB2     		sxtb	r5, r5
 920              	.LVL146:
 177:..\u8g2\csrc/u8g2_circle.c ****   
 921              		.loc 1 177 0
 922 002c 5B46     		mov	r3, fp
 923 002e 0193     		str	r3, [sp, #4]
 924 0030 0092     		str	r2, [sp]
 925 0032 0B00     		movs	r3, r1
 926 0034 3A00     		movs	r2, r7
 927              	.LVL147:
 928 0036 0021     		movs	r1, #0
 929              	.LVL148:
 930 0038 FFF7FEFF 		bl	u8g2_draw_disc_section
 931              	.LVL149:
 174:..\u8g2\csrc/u8g2_circle.c ****   y = rad;
 932              		.loc 1 174 0
 933 003c 0026     		movs	r6, #0
 170:..\u8g2\csrc/u8g2_circle.c ****   ddF_y = 0;
 934              		.loc 1 170 0
 935 003e 0124     		movs	r4, #1
 936 0040 A846     		mov	r8, r5
 937 0042 2500     		movs	r5, r4
 938              	.LVL150:
 939 0044 4C46     		mov	r4, r9
 179:..\u8g2\csrc/u8g2_circle.c ****   {
 940              		.loc 1 179 0
 941 0046 1BE0     		b	.L28
 942              	.LVL151:
 943              	.L30:
 181:..\u8g2\csrc/u8g2_circle.c ****     {
 944              		.loc 1 181 0
 945 0048 002C     		cmp	r4, #0
 946 004a 08DB     		blt	.L29
 183:..\u8g2\csrc/u8g2_circle.c ****       ddF_y += 2;
ARM GAS  C:\Users\gjl\AppData\Local\Temp\ccBgUaIM.s 			page 24


 947              		.loc 1 183 0
 948 004c 013F     		subs	r7, r7, #1
 949              	.LVL152:
 950 004e FFB2     		uxtb	r7, r7
 951              	.LVL153:
 184:..\u8g2\csrc/u8g2_circle.c ****       f += ddF_y;
 952              		.loc 1 184 0
 953 0050 4346     		mov	r3, r8
 954 0052 0233     		adds	r3, r3, #2
 955 0054 DBB2     		uxtb	r3, r3
 956 0056 5AB2     		sxtb	r2, r3
 957 0058 9046     		mov	r8, r2
 958              	.LVL154:
 185:..\u8g2\csrc/u8g2_circle.c ****     }
 959              		.loc 1 185 0
 960 005a 1C19     		adds	r4, r3, r4
 961              	.LVL155:
 962 005c 64B2     		sxtb	r4, r4
 963              	.LVL156:
 964              	.L29:
 187:..\u8g2\csrc/u8g2_circle.c ****     ddF_x += 2;
 965              		.loc 1 187 0
 966 005e 0136     		adds	r6, r6, #1
 967              	.LVL157:
 968 0060 F6B2     		uxtb	r6, r6
 969              	.LVL158:
 188:..\u8g2\csrc/u8g2_circle.c ****     f += ddF_x;
 970              		.loc 1 188 0
 971 0062 0235     		adds	r5, r5, #2
 972              	.LVL159:
 973 0064 EBB2     		uxtb	r3, r5
 974 0066 5DB2     		sxtb	r5, r3
 975              	.LVL160:
 189:..\u8g2\csrc/u8g2_circle.c **** 
 976              		.loc 1 189 0
 977 0068 1C19     		adds	r4, r3, r4
 978              	.LVL161:
 979 006a 64B2     		sxtb	r4, r4
 980              	.LVL162:
 191:..\u8g2\csrc/u8g2_circle.c ****   }
 981              		.loc 1 191 0
 982 006c 5B46     		mov	r3, fp
 983 006e 0193     		str	r3, [sp, #4]
 984 0070 5346     		mov	r3, r10
 985 0072 0093     		str	r3, [sp]
 986 0074 039B     		ldr	r3, [sp, #12]
 987 0076 3A00     		movs	r2, r7
 988 0078 3100     		movs	r1, r6
 989 007a 0298     		ldr	r0, [sp, #8]
 990 007c FFF7FEFF 		bl	u8g2_draw_disc_section
 991              	.LVL163:
 992              	.L28:
 179:..\u8g2\csrc/u8g2_circle.c ****   {
 993              		.loc 1 179 0
 994 0080 BE42     		cmp	r6, r7
 995 0082 E1D3     		bcc	.L30
 193:..\u8g2\csrc/u8g2_circle.c **** 
ARM GAS  C:\Users\gjl\AppData\Local\Temp\ccBgUaIM.s 			page 25


 996              		.loc 1 193 0
 997 0084 05B0     		add	sp, sp, #20
 998              		@ sp needed
 999              	.LVL164:
 1000              	.LVL165:
 1001              	.LVL166:
 1002              	.LVL167:
 1003              	.LVL168:
 1004 0086 3CBC     		pop	{r2, r3, r4, r5}
 1005 0088 9046     		mov	r8, r2
 1006 008a 9946     		mov	r9, r3
 1007 008c A246     		mov	r10, r4
 1008 008e AB46     		mov	fp, r5
 1009 0090 F0BD     		pop	{r4, r5, r6, r7, pc}
 1010              		.cfi_endproc
 1011              	.LFE4:
 1012              		.size	u8g2_draw_disc, .-u8g2_draw_disc
 1013 0092 C046     		.section	.text.u8g2_draw_filled_ellipse_section,"ax",%progbits
 1014              		.align	2
 1015              		.code	16
 1016              		.thumb_func
 1017              		.type	u8g2_draw_filled_ellipse_section, %function
 1018              	u8g2_draw_filled_ellipse_section:
 1019              	.LFB9:
 332:..\u8g2\csrc/u8g2_circle.c **** 
 333:..\u8g2\csrc/u8g2_circle.c **** void u8g2_DrawEllipse(u8g2_t *u8g2, u8g2_uint_t x0, u8g2_uint_t y0, u8g2_uint_t rx, u8g2_uint_t ry,
 334:..\u8g2\csrc/u8g2_circle.c **** {
 335:..\u8g2\csrc/u8g2_circle.c ****   /* check for bounding box */
 336:..\u8g2\csrc/u8g2_circle.c **** #ifdef U8G2_WITH_INTERSECTION
 337:..\u8g2\csrc/u8g2_circle.c ****   {
 338:..\u8g2\csrc/u8g2_circle.c ****     if ( u8g2_IsIntersection(u8g2, x0-rx, y0-ry, x0+rx+1, y0+ry+1) == 0 ) 
 339:..\u8g2\csrc/u8g2_circle.c ****       return;
 340:..\u8g2\csrc/u8g2_circle.c ****   }
 341:..\u8g2\csrc/u8g2_circle.c **** #endif /* U8G2_WITH_INTERSECTION */
 342:..\u8g2\csrc/u8g2_circle.c ****   
 343:..\u8g2\csrc/u8g2_circle.c ****   u8g2_draw_ellipse(u8g2, x0, y0, rx, ry, option);
 344:..\u8g2\csrc/u8g2_circle.c **** }
 345:..\u8g2\csrc/u8g2_circle.c **** 
 346:..\u8g2\csrc/u8g2_circle.c **** /*==============================================*/
 347:..\u8g2\csrc/u8g2_circle.c **** /* Filled Ellipse */
 348:..\u8g2\csrc/u8g2_circle.c **** 
 349:..\u8g2\csrc/u8g2_circle.c **** static void u8g2_draw_filled_ellipse_section(u8g2_t *u8g2, u8g2_uint_t x, u8g2_uint_t y, u8g2_uint_
 350:..\u8g2\csrc/u8g2_circle.c **** static void u8g2_draw_filled_ellipse_section(u8g2_t *u8g2, u8g2_uint_t x, u8g2_uint_t y, u8g2_uint_
 351:..\u8g2\csrc/u8g2_circle.c **** {
 1020              		.loc 1 351 0
 1021              		.cfi_startproc
 1022              		@ args = 8, pretend = 0, frame = 8
 1023              		@ frame_needed = 0, uses_anonymous_args = 0
 1024              	.LVL169:
 1025 0000 F0B5     		push	{r4, r5, r6, r7, lr}
 1026              		.cfi_def_cfa_offset 20
 1027              		.cfi_offset 4, -20
 1028              		.cfi_offset 5, -16
 1029              		.cfi_offset 6, -12
 1030              		.cfi_offset 7, -8
 1031              		.cfi_offset 14, -4
 1032 0002 4F46     		mov	r7, r9
ARM GAS  C:\Users\gjl\AppData\Local\Temp\ccBgUaIM.s 			page 26


 1033 0004 80B4     		push	{r7}
 1034              		.cfi_def_cfa_offset 24
 1035              		.cfi_offset 9, -24
 1036 0006 82B0     		sub	sp, sp, #8
 1037              		.cfi_def_cfa_offset 32
 1038 0008 0190     		str	r0, [sp, #4]
 1039 000a 8946     		mov	r9, r1
 1040 000c 1500     		movs	r5, r2
 1041 000e 1F00     		movs	r7, r3
 1042 0010 08AB     		add	r3, sp, #32
 1043              	.LVL170:
 1044 0012 1E78     		ldrb	r6, [r3]
 1045 0014 09AB     		add	r3, sp, #36
 1046              	.LVL171:
 1047 0016 1C78     		ldrb	r4, [r3]
 352:..\u8g2\csrc/u8g2_circle.c ****     /* upper right */
 353:..\u8g2\csrc/u8g2_circle.c ****     if ( option & U8G2_DRAW_UPPER_RIGHT )
 1048              		.loc 1 353 0
 1049 0018 E307     		lsls	r3, r4, #31
 1050 001a 07D5     		bpl	.L32
 1051              	.LVL172:
 354:..\u8g2\csrc/u8g2_circle.c ****     {
 355:..\u8g2\csrc/u8g2_circle.c ****       u8g2_DrawVLine(u8g2, x0+x, y0-y, y+1);
 1052              		.loc 1 355 0
 1053 001c 531C     		adds	r3, r2, #1
 1054 001e DBB2     		uxtb	r3, r3
 1055 0020 B21A     		subs	r2, r6, r2
 1056              	.LVL173:
 1057 0022 D2B2     		uxtb	r2, r2
 1058 0024 7918     		adds	r1, r7, r1
 1059              	.LVL174:
 1060 0026 C9B2     		uxtb	r1, r1
 1061 0028 FFF7FEFF 		bl	u8g2_DrawVLine
 1062              	.LVL175:
 1063              	.L32:
 356:..\u8g2\csrc/u8g2_circle.c ****     }
 357:..\u8g2\csrc/u8g2_circle.c ****     
 358:..\u8g2\csrc/u8g2_circle.c ****     /* upper left */
 359:..\u8g2\csrc/u8g2_circle.c ****     if ( option & U8G2_DRAW_UPPER_LEFT )
 1064              		.loc 1 359 0
 1065 002c A307     		lsls	r3, r4, #30
 1066 002e 09D5     		bpl	.L33
 360:..\u8g2\csrc/u8g2_circle.c ****     {
 361:..\u8g2\csrc/u8g2_circle.c ****       u8g2_DrawVLine(u8g2, x0-x, y0-y, y+1);
 1067              		.loc 1 361 0
 1068 0030 6B1C     		adds	r3, r5, #1
 1069 0032 DBB2     		uxtb	r3, r3
 1070 0034 721B     		subs	r2, r6, r5
 1071 0036 D2B2     		uxtb	r2, r2
 1072 0038 4946     		mov	r1, r9
 1073 003a 791A     		subs	r1, r7, r1
 1074 003c C9B2     		uxtb	r1, r1
 1075 003e 0198     		ldr	r0, [sp, #4]
 1076 0040 FFF7FEFF 		bl	u8g2_DrawVLine
 1077              	.LVL176:
 1078              	.L33:
 362:..\u8g2\csrc/u8g2_circle.c ****     }
ARM GAS  C:\Users\gjl\AppData\Local\Temp\ccBgUaIM.s 			page 27


 363:..\u8g2\csrc/u8g2_circle.c ****     
 364:..\u8g2\csrc/u8g2_circle.c ****     /* lower right */
 365:..\u8g2\csrc/u8g2_circle.c ****     if ( option & U8G2_DRAW_LOWER_RIGHT )
 1079              		.loc 1 365 0
 1080 0044 2307     		lsls	r3, r4, #28
 1081 0046 08D5     		bpl	.L34
 366:..\u8g2\csrc/u8g2_circle.c ****     {
 367:..\u8g2\csrc/u8g2_circle.c ****       u8g2_DrawVLine(u8g2, x0+x, y0, y+1);
 1082              		.loc 1 367 0
 1083 0048 6B1C     		adds	r3, r5, #1
 1084 004a DBB2     		uxtb	r3, r3
 1085 004c 4A46     		mov	r2, r9
 1086 004e B918     		adds	r1, r7, r2
 1087 0050 C9B2     		uxtb	r1, r1
 1088 0052 3200     		movs	r2, r6
 1089 0054 0198     		ldr	r0, [sp, #4]
 1090 0056 FFF7FEFF 		bl	u8g2_DrawVLine
 1091              	.LVL177:
 1092              	.L34:
 368:..\u8g2\csrc/u8g2_circle.c ****     }
 369:..\u8g2\csrc/u8g2_circle.c ****     
 370:..\u8g2\csrc/u8g2_circle.c ****     /* lower left */
 371:..\u8g2\csrc/u8g2_circle.c ****     if ( option & U8G2_DRAW_LOWER_LEFT )
 1093              		.loc 1 371 0
 1094 005a 6307     		lsls	r3, r4, #29
 1095 005c 08D5     		bpl	.L31
 372:..\u8g2\csrc/u8g2_circle.c ****     {
 373:..\u8g2\csrc/u8g2_circle.c ****       u8g2_DrawVLine(u8g2, x0-x, y0, y+1);
 1096              		.loc 1 373 0
 1097 005e 0135     		adds	r5, r5, #1
 1098 0060 EBB2     		uxtb	r3, r5
 1099 0062 4A46     		mov	r2, r9
 1100 0064 B91A     		subs	r1, r7, r2
 1101 0066 C9B2     		uxtb	r1, r1
 1102 0068 3200     		movs	r2, r6
 1103 006a 0198     		ldr	r0, [sp, #4]
 1104 006c FFF7FEFF 		bl	u8g2_DrawVLine
 1105              	.LVL178:
 1106              	.L31:
 374:..\u8g2\csrc/u8g2_circle.c ****     }
 375:..\u8g2\csrc/u8g2_circle.c **** }
 1107              		.loc 1 375 0
 1108 0070 02B0     		add	sp, sp, #8
 1109              		@ sp needed
 1110 0072 04BC     		pop	{r2}
 1111 0074 9146     		mov	r9, r2
 1112 0076 F0BD     		pop	{r4, r5, r6, r7, pc}
 1113              		.cfi_endproc
 1114              	.LFE9:
 1115              		.size	u8g2_draw_filled_ellipse_section, .-u8g2_draw_filled_ellipse_section
 1116              		.section	.text.u8g2_draw_filled_ellipse,"ax",%progbits
 1117              		.align	2
 1118              		.code	16
 1119              		.thumb_func
 1120              		.type	u8g2_draw_filled_ellipse, %function
 1121              	u8g2_draw_filled_ellipse:
 1122              	.LFB10:
ARM GAS  C:\Users\gjl\AppData\Local\Temp\ccBgUaIM.s 			page 28


 376:..\u8g2\csrc/u8g2_circle.c **** 
 377:..\u8g2\csrc/u8g2_circle.c **** static void u8g2_draw_filled_ellipse(u8g2_t *u8g2, u8g2_uint_t x0, u8g2_uint_t y0, u8g2_uint_t rx, 
 378:..\u8g2\csrc/u8g2_circle.c **** {
 1123              		.loc 1 378 0
 1124              		.cfi_startproc
 1125              		@ args = 8, pretend = 0, frame = 40
 1126              		@ frame_needed = 0, uses_anonymous_args = 0
 1127              	.LVL179:
 1128 0000 F0B5     		push	{r4, r5, r6, r7, lr}
 1129              		.cfi_def_cfa_offset 20
 1130              		.cfi_offset 4, -20
 1131              		.cfi_offset 5, -16
 1132              		.cfi_offset 6, -12
 1133              		.cfi_offset 7, -8
 1134              		.cfi_offset 14, -4
 1135 0002 5F46     		mov	r7, fp
 1136 0004 5646     		mov	r6, r10
 1137 0006 4D46     		mov	r5, r9
 1138 0008 4446     		mov	r4, r8
 1139 000a F0B4     		push	{r4, r5, r6, r7}
 1140              		.cfi_def_cfa_offset 36
 1141              		.cfi_offset 8, -36
 1142              		.cfi_offset 9, -32
 1143              		.cfi_offset 10, -28
 1144              		.cfi_offset 11, -24
 1145 000c 8DB0     		sub	sp, sp, #52
 1146              		.cfi_def_cfa_offset 88
 1147 000e 0690     		str	r0, [sp, #24]
 1148 0010 0791     		str	r1, [sp, #28]
 1149 0012 0892     		str	r2, [sp, #32]
 1150 0014 1900     		movs	r1, r3
 1151              	.LVL180:
 1152 0016 0393     		str	r3, [sp, #12]
 1153 0018 16AB     		add	r3, sp, #88
 1154              	.LVL181:
 1155 001a 1A78     		ldrb	r2, [r3]
 1156              	.LVL182:
 1157 001c 1000     		movs	r0, r2
 1158              	.LVL183:
 1159 001e 0492     		str	r2, [sp, #16]
 1160 0020 17AB     		add	r3, sp, #92
 1161              	.LVL184:
 1162 0022 1A78     		ldrb	r2, [r3]
 1163 0024 9146     		mov	r9, r2
 1164              	.LVL185:
 379:..\u8g2\csrc/u8g2_circle.c ****   u8g2_uint_t x, y;
 380:..\u8g2\csrc/u8g2_circle.c ****   u8g2_long_t xchg, ychg;
 381:..\u8g2\csrc/u8g2_circle.c ****   u8g2_long_t err;
 382:..\u8g2\csrc/u8g2_circle.c ****   u8g2_long_t rxrx2;
 383:..\u8g2\csrc/u8g2_circle.c ****   u8g2_long_t ryry2;
 384:..\u8g2\csrc/u8g2_circle.c ****   u8g2_long_t stopx, stopy;
 385:..\u8g2\csrc/u8g2_circle.c ****   
 386:..\u8g2\csrc/u8g2_circle.c ****   rxrx2 = rx;
 387:..\u8g2\csrc/u8g2_circle.c ****   rxrx2 *= rx;
 1165              		.loc 1 387 0
 1166 0026 8BB2     		uxth	r3, r1
 1167              	.LVL186:
ARM GAS  C:\Users\gjl\AppData\Local\Temp\ccBgUaIM.s 			page 29


 1168 0028 1900     		movs	r1, r3
 1169              	.LVL187:
 1170 002a 0993     		str	r3, [sp, #36]
 1171 002c 5B43     		muls	r3, r3
 1172              	.LVL188:
 388:..\u8g2\csrc/u8g2_circle.c ****   rxrx2 *= 2;
 1173              		.loc 1 388 0
 1174 002e 5A00     		lsls	r2, r3, #1
 1175 0030 92B2     		uxth	r2, r2
 1176 0032 9246     		mov	r10, r2
 1177              	.LVL189:
 389:..\u8g2\csrc/u8g2_circle.c ****   
 390:..\u8g2\csrc/u8g2_circle.c ****   ryry2 = ry;
 391:..\u8g2\csrc/u8g2_circle.c ****   ryry2 *= ry;
 1178              		.loc 1 391 0
 1179 0034 82B2     		uxth	r2, r0
 1180 0036 1600     		movs	r6, r2
 1181 0038 0A92     		str	r2, [sp, #40]
 1182 003a 1000     		movs	r0, r2
 1183              	.LVL190:
 1184 003c 5043     		muls	r0, r2
 1185 003e 0B90     		str	r0, [sp, #44]
 1186              	.LVL191:
 392:..\u8g2\csrc/u8g2_circle.c ****   ryry2 *= 2;
 1187              		.loc 1 392 0
 1188 0040 4200     		lsls	r2, r0, #1
 1189 0042 92B2     		uxth	r2, r2
 1190 0044 9346     		mov	fp, r2
 1191              	.LVL192:
 393:..\u8g2\csrc/u8g2_circle.c ****   
 394:..\u8g2\csrc/u8g2_circle.c ****   x = rx;
 395:..\u8g2\csrc/u8g2_circle.c ****   y = 0;
 396:..\u8g2\csrc/u8g2_circle.c ****   
 397:..\u8g2\csrc/u8g2_circle.c ****   xchg = 1;
 398:..\u8g2\csrc/u8g2_circle.c ****   xchg -= rx;
 1192              		.loc 1 398 0
 1193 0046 0125     		movs	r5, #1
 1194 0048 6D1A     		subs	r5, r5, r1
 1195 004a ADB2     		uxth	r5, r5
 1196              	.LVL193:
 399:..\u8g2\csrc/u8g2_circle.c ****   xchg -= rx;
 1197              		.loc 1 399 0
 1198 004c 6D1A     		subs	r5, r5, r1
 1199              	.LVL194:
 1200 004e ADB2     		uxth	r5, r5
 1201              	.LVL195:
 400:..\u8g2\csrc/u8g2_circle.c ****   xchg *= ry;
 1202              		.loc 1 400 0
 1203 0050 7543     		muls	r5, r6
 1204              	.LVL196:
 1205 0052 ADB2     		uxth	r5, r5
 1206              	.LVL197:
 401:..\u8g2\csrc/u8g2_circle.c ****   xchg *= ry;
 1207              		.loc 1 401 0
 1208 0054 7543     		muls	r5, r6
 1209              	.LVL198:
 1210 0056 2DB2     		sxth	r5, r5
ARM GAS  C:\Users\gjl\AppData\Local\Temp\ccBgUaIM.s 			page 30


 1211              	.LVL199:
 402:..\u8g2\csrc/u8g2_circle.c ****   
 403:..\u8g2\csrc/u8g2_circle.c ****   ychg = rx;
 404:..\u8g2\csrc/u8g2_circle.c ****   ychg *= rx;
 1212              		.loc 1 404 0
 1213 0058 1BB2     		sxth	r3, r3
 1214 005a 0593     		str	r3, [sp, #20]
 1215              	.LVL200:
 405:..\u8g2\csrc/u8g2_circle.c ****   
 406:..\u8g2\csrc/u8g2_circle.c ****   err = 0;
 407:..\u8g2\csrc/u8g2_circle.c ****   
 408:..\u8g2\csrc/u8g2_circle.c ****   stopx = ryry2;
 409:..\u8g2\csrc/u8g2_circle.c ****   stopx *= rx;
 1216              		.loc 1 409 0
 1217 005c 5B46     		mov	r3, fp
 1218 005e 4B43     		muls	r3, r1
 1219 0060 1BB2     		sxth	r3, r3
 1220              	.LVL201:
 410:..\u8g2\csrc/u8g2_circle.c ****   stopy = 0;
 1221              		.loc 1 410 0
 1222 0062 0026     		movs	r6, #0
 406:..\u8g2\csrc/u8g2_circle.c ****   
 1223              		.loc 1 406 0
 1224 0064 0024     		movs	r4, #0
 395:..\u8g2\csrc/u8g2_circle.c ****   
 1225              		.loc 1 395 0
 1226 0066 0027     		movs	r7, #0
 1227 0068 A046     		mov	r8, r4
 1228 006a 1C00     		movs	r4, r3
 411:..\u8g2\csrc/u8g2_circle.c ****   
 412:..\u8g2\csrc/u8g2_circle.c ****   while( stopx >= stopy )
 1229              		.loc 1 412 0
 1230 006c 29E0     		b	.L37
 1231              	.LVL202:
 1232              	.L39:
 413:..\u8g2\csrc/u8g2_circle.c ****   {
 414:..\u8g2\csrc/u8g2_circle.c ****     u8g2_draw_filled_ellipse_section(u8g2, x, y, x0, y0, option);
 1233              		.loc 1 414 0
 1234 006e 4B46     		mov	r3, r9
 1235 0070 0193     		str	r3, [sp, #4]
 1236 0072 089B     		ldr	r3, [sp, #32]
 1237 0074 0093     		str	r3, [sp]
 1238 0076 079B     		ldr	r3, [sp, #28]
 1239 0078 3A00     		movs	r2, r7
 1240 007a 0399     		ldr	r1, [sp, #12]
 1241 007c 0698     		ldr	r0, [sp, #24]
 1242 007e FFF7FEFF 		bl	u8g2_draw_filled_ellipse_section
 1243              	.LVL203:
 415:..\u8g2\csrc/u8g2_circle.c ****     y++;
 1244              		.loc 1 415 0
 1245 0082 0137     		adds	r7, r7, #1
 1246              	.LVL204:
 1247 0084 FFB2     		uxtb	r7, r7
 1248              	.LVL205:
 416:..\u8g2\csrc/u8g2_circle.c ****     stopy += rxrx2;
 1249              		.loc 1 416 0
 1250 0086 5644     		add	r6, r6, r10
ARM GAS  C:\Users\gjl\AppData\Local\Temp\ccBgUaIM.s 			page 31


 1251              	.LVL206:
 1252 0088 36B2     		sxth	r6, r6
 1253              	.LVL207:
 417:..\u8g2\csrc/u8g2_circle.c ****     err += ychg;
 1254              		.loc 1 417 0
 1255 008a 6B46     		mov	r3, sp
 1256 008c 9A8A     		ldrh	r2, [r3, #20]
 1257 008e 4346     		mov	r3, r8
 1258 0090 D318     		adds	r3, r2, r3
 1259 0092 9BB2     		uxth	r3, r3
 1260 0094 19B2     		sxth	r1, r3
 1261 0096 8846     		mov	r8, r1
 1262              	.LVL208:
 418:..\u8g2\csrc/u8g2_circle.c ****     ychg += rxrx2;
 1263              		.loc 1 418 0
 1264 0098 5244     		add	r2, r2, r10
 1265 009a 11B2     		sxth	r1, r2
 1266 009c 0591     		str	r1, [sp, #20]
 1267              	.LVL209:
 419:..\u8g2\csrc/u8g2_circle.c ****     if ( 2*err+xchg > 0 )
 1268              		.loc 1 419 0
 1269 009e 4146     		mov	r1, r8
 1270 00a0 4A00     		lsls	r2, r1, #1
 1271 00a2 AA18     		adds	r2, r5, r2
 1272 00a4 002A     		cmp	r2, #0
 1273 00a6 0CDD     		ble	.L37
 420:..\u8g2\csrc/u8g2_circle.c ****     {
 421:..\u8g2\csrc/u8g2_circle.c ****       x--;
 1274              		.loc 1 421 0
 1275 00a8 039A     		ldr	r2, [sp, #12]
 1276 00aa 013A     		subs	r2, r2, #1
 1277 00ac D2B2     		uxtb	r2, r2
 1278 00ae 0392     		str	r2, [sp, #12]
 1279              	.LVL210:
 422:..\u8g2\csrc/u8g2_circle.c ****       stopx -= ryry2;
 1280              		.loc 1 422 0
 1281 00b0 5A46     		mov	r2, fp
 1282 00b2 A41A     		subs	r4, r4, r2
 1283              	.LVL211:
 1284 00b4 24B2     		sxth	r4, r4
 1285              	.LVL212:
 423:..\u8g2\csrc/u8g2_circle.c ****       err += xchg;
 1286              		.loc 1 423 0
 1287 00b6 ADB2     		uxth	r5, r5
 1288 00b8 5B19     		adds	r3, r3, r5
 1289 00ba 1BB2     		sxth	r3, r3
 1290 00bc 9846     		mov	r8, r3
 1291              	.LVL213:
 424:..\u8g2\csrc/u8g2_circle.c ****       xchg += ryry2;      
 1292              		.loc 1 424 0
 1293 00be 5D44     		add	r5, r5, fp
 1294              	.LVL214:
 1295 00c0 2DB2     		sxth	r5, r5
 1296              	.LVL215:
 1297              	.L37:
 412:..\u8g2\csrc/u8g2_circle.c ****   {
 1298              		.loc 1 412 0
ARM GAS  C:\Users\gjl\AppData\Local\Temp\ccBgUaIM.s 			page 32


 1299 00c2 B442     		cmp	r4, r6
 1300 00c4 D3DA     		bge	.L39
 1301              	.LVL216:
 425:..\u8g2\csrc/u8g2_circle.c ****     }
 426:..\u8g2\csrc/u8g2_circle.c ****   }
 427:..\u8g2\csrc/u8g2_circle.c **** 
 428:..\u8g2\csrc/u8g2_circle.c ****   x = 0;
 429:..\u8g2\csrc/u8g2_circle.c ****   y = ry;
 430:..\u8g2\csrc/u8g2_circle.c ****   
 431:..\u8g2\csrc/u8g2_circle.c ****   xchg = ry;
 432:..\u8g2\csrc/u8g2_circle.c ****   xchg *= ry;
 1302              		.loc 1 432 0
 1303 00c6 6B46     		mov	r3, sp
 1304 00c8 2C26     		movs	r6, #44
 1305 00ca 9E5F     		ldrsh	r6, [r3, r6]
 1306              	.LVL217:
 433:..\u8g2\csrc/u8g2_circle.c ****   
 434:..\u8g2\csrc/u8g2_circle.c ****   ychg = 1;
 435:..\u8g2\csrc/u8g2_circle.c ****   ychg -= ry;
 1307              		.loc 1 435 0
 1308 00cc 0125     		movs	r5, #1
 1309 00ce 0A9B     		ldr	r3, [sp, #40]
 1310 00d0 ED1A     		subs	r5, r5, r3
 1311 00d2 ADB2     		uxth	r5, r5
 1312              	.LVL218:
 436:..\u8g2\csrc/u8g2_circle.c ****   ychg -= ry;
 1313              		.loc 1 436 0
 1314 00d4 ED1A     		subs	r5, r5, r3
 1315              	.LVL219:
 1316 00d6 ADB2     		uxth	r5, r5
 1317              	.LVL220:
 437:..\u8g2\csrc/u8g2_circle.c ****   ychg *= rx;
 1318              		.loc 1 437 0
 1319 00d8 099A     		ldr	r2, [sp, #36]
 1320 00da 5543     		muls	r5, r2
 1321              	.LVL221:
 1322 00dc ADB2     		uxth	r5, r5
 1323              	.LVL222:
 438:..\u8g2\csrc/u8g2_circle.c ****   ychg *= rx;
 1324              		.loc 1 438 0
 1325 00de 5543     		muls	r5, r2
 1326              	.LVL223:
 1327 00e0 2DB2     		sxth	r5, r5
 1328              	.LVL224:
 439:..\u8g2\csrc/u8g2_circle.c ****   
 440:..\u8g2\csrc/u8g2_circle.c ****   err = 0;
 441:..\u8g2\csrc/u8g2_circle.c ****   
 442:..\u8g2\csrc/u8g2_circle.c ****   stopx = 0;
 443:..\u8g2\csrc/u8g2_circle.c **** 
 444:..\u8g2\csrc/u8g2_circle.c ****   stopy = rxrx2;
 445:..\u8g2\csrc/u8g2_circle.c ****   stopy *= ry;
 1329              		.loc 1 445 0
 1330 00e2 5246     		mov	r2, r10
 1331 00e4 5343     		muls	r3, r2
 1332 00e6 1BB2     		sxth	r3, r3
 1333 00e8 9846     		mov	r8, r3
 1334              	.LVL225:
ARM GAS  C:\Users\gjl\AppData\Local\Temp\ccBgUaIM.s 			page 33


 442:..\u8g2\csrc/u8g2_circle.c **** 
 1335              		.loc 1 442 0
 1336 00ea 0027     		movs	r7, #0
 440:..\u8g2\csrc/u8g2_circle.c ****   
 1337              		.loc 1 440 0
 1338 00ec 0024     		movs	r4, #0
 428:..\u8g2\csrc/u8g2_circle.c ****   y = ry;
 1339              		.loc 1 428 0
 1340 00ee 0023     		movs	r3, #0
 1341 00f0 0393     		str	r3, [sp, #12]
 1342 00f2 4346     		mov	r3, r8
 1343 00f4 A046     		mov	r8, r4
 1344              	.LVL226:
 1345 00f6 1C00     		movs	r4, r3
 446:..\u8g2\csrc/u8g2_circle.c ****   
 447:..\u8g2\csrc/u8g2_circle.c **** 
 448:..\u8g2\csrc/u8g2_circle.c ****   while( stopx <= stopy )
 1346              		.loc 1 448 0
 1347 00f8 28E0     		b	.L40
 1348              	.LVL227:
 1349              	.L42:
 449:..\u8g2\csrc/u8g2_circle.c ****   {
 450:..\u8g2\csrc/u8g2_circle.c ****     u8g2_draw_filled_ellipse_section(u8g2, x, y, x0, y0, option);
 1350              		.loc 1 450 0
 1351 00fa 4B46     		mov	r3, r9
 1352 00fc 0193     		str	r3, [sp, #4]
 1353 00fe 089B     		ldr	r3, [sp, #32]
 1354 0100 0093     		str	r3, [sp]
 1355 0102 079B     		ldr	r3, [sp, #28]
 1356 0104 049A     		ldr	r2, [sp, #16]
 1357 0106 0399     		ldr	r1, [sp, #12]
 1358 0108 0698     		ldr	r0, [sp, #24]
 1359 010a FFF7FEFF 		bl	u8g2_draw_filled_ellipse_section
 1360              	.LVL228:
 451:..\u8g2\csrc/u8g2_circle.c ****     x++;
 1361              		.loc 1 451 0
 1362 010e 039B     		ldr	r3, [sp, #12]
 1363 0110 0133     		adds	r3, r3, #1
 1364 0112 DBB2     		uxtb	r3, r3
 1365 0114 0393     		str	r3, [sp, #12]
 1366              	.LVL229:
 452:..\u8g2\csrc/u8g2_circle.c ****     stopx += ryry2;
 1367              		.loc 1 452 0
 1368 0116 5F44     		add	r7, r7, fp
 1369              	.LVL230:
 1370 0118 3FB2     		sxth	r7, r7
 1371              	.LVL231:
 453:..\u8g2\csrc/u8g2_circle.c ****     err += xchg;
 1372              		.loc 1 453 0
 1373 011a B6B2     		uxth	r6, r6
 1374 011c 4346     		mov	r3, r8
 1375 011e F318     		adds	r3, r6, r3
 1376 0120 9BB2     		uxth	r3, r3
 1377 0122 19B2     		sxth	r1, r3
 1378 0124 8846     		mov	r8, r1
 1379              	.LVL232:
 454:..\u8g2\csrc/u8g2_circle.c ****     xchg += ryry2;
ARM GAS  C:\Users\gjl\AppData\Local\Temp\ccBgUaIM.s 			page 34


 1380              		.loc 1 454 0
 1381 0126 5E44     		add	r6, r6, fp
 1382              	.LVL233:
 1383 0128 36B2     		sxth	r6, r6
 1384              	.LVL234:
 455:..\u8g2\csrc/u8g2_circle.c ****     if ( 2*err+ychg > 0 )
 1385              		.loc 1 455 0
 1386 012a 4A00     		lsls	r2, r1, #1
 1387 012c AA18     		adds	r2, r5, r2
 1388 012e 002A     		cmp	r2, #0
 1389 0130 0CDD     		ble	.L40
 456:..\u8g2\csrc/u8g2_circle.c ****     {
 457:..\u8g2\csrc/u8g2_circle.c ****       y--;
 1390              		.loc 1 457 0
 1391 0132 049A     		ldr	r2, [sp, #16]
 1392 0134 013A     		subs	r2, r2, #1
 1393 0136 D2B2     		uxtb	r2, r2
 1394 0138 0492     		str	r2, [sp, #16]
 1395              	.LVL235:
 458:..\u8g2\csrc/u8g2_circle.c ****       stopy -= rxrx2;
 1396              		.loc 1 458 0
 1397 013a 5246     		mov	r2, r10
 1398 013c A41A     		subs	r4, r4, r2
 1399              	.LVL236:
 1400 013e 24B2     		sxth	r4, r4
 1401              	.LVL237:
 459:..\u8g2\csrc/u8g2_circle.c ****       err += ychg;
 1402              		.loc 1 459 0
 1403 0140 ADB2     		uxth	r5, r5
 1404 0142 5B19     		adds	r3, r3, r5
 1405 0144 1BB2     		sxth	r3, r3
 1406 0146 9846     		mov	r8, r3
 1407              	.LVL238:
 460:..\u8g2\csrc/u8g2_circle.c ****       ychg += rxrx2;
 1408              		.loc 1 460 0
 1409 0148 5544     		add	r5, r5, r10
 1410              	.LVL239:
 1411 014a 2DB2     		sxth	r5, r5
 1412              	.LVL240:
 1413              	.L40:
 448:..\u8g2\csrc/u8g2_circle.c ****   {
 1414              		.loc 1 448 0
 1415 014c A742     		cmp	r7, r4
 1416 014e D4DD     		ble	.L42
 461:..\u8g2\csrc/u8g2_circle.c ****     }
 462:..\u8g2\csrc/u8g2_circle.c ****   }
 463:..\u8g2\csrc/u8g2_circle.c ****   
 464:..\u8g2\csrc/u8g2_circle.c **** }
 1417              		.loc 1 464 0
 1418 0150 0DB0     		add	sp, sp, #52
 1419              		@ sp needed
 1420              	.LVL241:
 1421              	.LVL242:
 1422              	.LVL243:
 1423              	.LVL244:
 1424              	.LVL245:
 1425              	.LVL246:
ARM GAS  C:\Users\gjl\AppData\Local\Temp\ccBgUaIM.s 			page 35


 1426              	.LVL247:
 1427 0152 3CBC     		pop	{r2, r3, r4, r5}
 1428 0154 9046     		mov	r8, r2
 1429 0156 9946     		mov	r9, r3
 1430 0158 A246     		mov	r10, r4
 1431 015a AB46     		mov	fp, r5
 1432 015c F0BD     		pop	{r4, r5, r6, r7, pc}
 1433              		.cfi_endproc
 1434              	.LFE10:
 1435              		.size	u8g2_draw_filled_ellipse, .-u8g2_draw_filled_ellipse
 1436 015e C046     		.section	.text.u8g2_DrawCircle,"ax",%progbits
 1437              		.align	2
 1438              		.global	u8g2_DrawCircle
 1439              		.code	16
 1440              		.thumb_func
 1441              		.type	u8g2_DrawCircle, %function
 1442              	u8g2_DrawCircle:
 1443              	.LFB2:
 110:..\u8g2\csrc/u8g2_circle.c ****   /* check for bounding box */
 1444              		.loc 1 110 0
 1445              		.cfi_startproc
 1446              		@ args = 4, pretend = 0, frame = 8
 1447              		@ frame_needed = 0, uses_anonymous_args = 0
 1448              	.LVL248:
 1449 0000 F0B5     		push	{r4, r5, r6, r7, lr}
 1450              		.cfi_def_cfa_offset 20
 1451              		.cfi_offset 4, -20
 1452              		.cfi_offset 5, -16
 1453              		.cfi_offset 6, -12
 1454              		.cfi_offset 7, -8
 1455              		.cfi_offset 14, -4
 1456 0002 85B0     		sub	sp, sp, #20
 1457              		.cfi_def_cfa_offset 40
 1458 0004 0390     		str	r0, [sp, #12]
 1459 0006 0E00     		movs	r6, r1
 1460 0008 1700     		movs	r7, r2
 1461 000a 1D00     		movs	r5, r3
 1462 000c 0AAB     		add	r3, sp, #40
 1463              	.LVL249:
 1464 000e 1C78     		ldrb	r4, [r3]
 114:..\u8g2\csrc/u8g2_circle.c ****       return;
 1465              		.loc 1 114 0
 1466 0010 4B19     		adds	r3, r1, r5
 1467              	.LVL250:
 1468 0012 0133     		adds	r3, r3, #1
 1469 0014 DBB2     		uxtb	r3, r3
 1470 0016 521B     		subs	r2, r2, r5
 1471              	.LVL251:
 1472 0018 D2B2     		uxtb	r2, r2
 1473 001a 491B     		subs	r1, r1, r5
 1474              	.LVL252:
 1475 001c C9B2     		uxtb	r1, r1
 1476 001e E819     		adds	r0, r5, r7
 1477              	.LVL253:
 1478 0020 0130     		adds	r0, r0, #1
 1479 0022 C0B2     		uxtb	r0, r0
 1480 0024 0090     		str	r0, [sp]
ARM GAS  C:\Users\gjl\AppData\Local\Temp\ccBgUaIM.s 			page 36


 1481 0026 0398     		ldr	r0, [sp, #12]
 1482 0028 FFF7FEFF 		bl	u8g2_IsIntersection
 1483              	.LVL254:
 1484 002c 0028     		cmp	r0, #0
 1485 002e 06D0     		beq	.L43
 121:..\u8g2\csrc/u8g2_circle.c **** }
 1486              		.loc 1 121 0
 1487 0030 0094     		str	r4, [sp]
 1488 0032 2B00     		movs	r3, r5
 1489 0034 3A00     		movs	r2, r7
 1490 0036 3100     		movs	r1, r6
 1491 0038 0398     		ldr	r0, [sp, #12]
 1492 003a FFF7FEFF 		bl	u8g2_draw_circle
 1493              	.LVL255:
 1494              	.L43:
 122:..\u8g2\csrc/u8g2_circle.c **** 
 1495              		.loc 1 122 0
 1496 003e 05B0     		add	sp, sp, #20
 1497              		@ sp needed
 1498 0040 F0BD     		pop	{r4, r5, r6, r7, pc}
 1499              		.cfi_endproc
 1500              	.LFE2:
 1501              		.size	u8g2_DrawCircle, .-u8g2_DrawCircle
 1502 0042 C046     		.section	.text.u8g2_DrawDisc,"ax",%progbits
 1503              		.align	2
 1504              		.global	u8g2_DrawDisc
 1505              		.code	16
 1506              		.thumb_func
 1507              		.type	u8g2_DrawDisc, %function
 1508              	u8g2_DrawDisc:
 1509              	.LFB5:
 196:..\u8g2\csrc/u8g2_circle.c ****   /* check for bounding box */
 1510              		.loc 1 196 0
 1511              		.cfi_startproc
 1512              		@ args = 4, pretend = 0, frame = 8
 1513              		@ frame_needed = 0, uses_anonymous_args = 0
 1514              	.LVL256:
 1515 0000 F0B5     		push	{r4, r5, r6, r7, lr}
 1516              		.cfi_def_cfa_offset 20
 1517              		.cfi_offset 4, -20
 1518              		.cfi_offset 5, -16
 1519              		.cfi_offset 6, -12
 1520              		.cfi_offset 7, -8
 1521              		.cfi_offset 14, -4
 1522 0002 85B0     		sub	sp, sp, #20
 1523              		.cfi_def_cfa_offset 40
 1524 0004 0390     		str	r0, [sp, #12]
 1525 0006 0E00     		movs	r6, r1
 1526 0008 1700     		movs	r7, r2
 1527 000a 1D00     		movs	r5, r3
 1528 000c 0AAB     		add	r3, sp, #40
 1529              	.LVL257:
 1530 000e 1C78     		ldrb	r4, [r3]
 200:..\u8g2\csrc/u8g2_circle.c ****       return;
 1531              		.loc 1 200 0
 1532 0010 4B19     		adds	r3, r1, r5
 1533              	.LVL258:
ARM GAS  C:\Users\gjl\AppData\Local\Temp\ccBgUaIM.s 			page 37


 1534 0012 0133     		adds	r3, r3, #1
 1535 0014 DBB2     		uxtb	r3, r3
 1536 0016 521B     		subs	r2, r2, r5
 1537              	.LVL259:
 1538 0018 D2B2     		uxtb	r2, r2
 1539 001a 491B     		subs	r1, r1, r5
 1540              	.LVL260:
 1541 001c C9B2     		uxtb	r1, r1
 1542 001e E819     		adds	r0, r5, r7
 1543              	.LVL261:
 1544 0020 0130     		adds	r0, r0, #1
 1545 0022 C0B2     		uxtb	r0, r0
 1546 0024 0090     		str	r0, [sp]
 1547 0026 0398     		ldr	r0, [sp, #12]
 1548 0028 FFF7FEFF 		bl	u8g2_IsIntersection
 1549              	.LVL262:
 1550 002c 0028     		cmp	r0, #0
 1551 002e 06D0     		beq	.L45
 206:..\u8g2\csrc/u8g2_circle.c **** }
 1552              		.loc 1 206 0
 1553 0030 0094     		str	r4, [sp]
 1554 0032 2B00     		movs	r3, r5
 1555 0034 3A00     		movs	r2, r7
 1556 0036 3100     		movs	r1, r6
 1557 0038 0398     		ldr	r0, [sp, #12]
 1558 003a FFF7FEFF 		bl	u8g2_draw_disc
 1559              	.LVL263:
 1560              	.L45:
 207:..\u8g2\csrc/u8g2_circle.c **** 
 1561              		.loc 1 207 0
 1562 003e 05B0     		add	sp, sp, #20
 1563              		@ sp needed
 1564 0040 F0BD     		pop	{r4, r5, r6, r7, pc}
 1565              		.cfi_endproc
 1566              	.LFE5:
 1567              		.size	u8g2_DrawDisc, .-u8g2_DrawDisc
 1568 0042 C046     		.section	.text.u8g2_DrawEllipse,"ax",%progbits
 1569              		.align	2
 1570              		.global	u8g2_DrawEllipse
 1571              		.code	16
 1572              		.thumb_func
 1573              		.type	u8g2_DrawEllipse, %function
 1574              	u8g2_DrawEllipse:
 1575              	.LFB8:
 334:..\u8g2\csrc/u8g2_circle.c ****   /* check for bounding box */
 1576              		.loc 1 334 0
 1577              		.cfi_startproc
 1578              		@ args = 8, pretend = 0, frame = 8
 1579              		@ frame_needed = 0, uses_anonymous_args = 0
 1580              	.LVL264:
 1581 0000 F0B5     		push	{r4, r5, r6, r7, lr}
 1582              		.cfi_def_cfa_offset 20
 1583              		.cfi_offset 4, -20
 1584              		.cfi_offset 5, -16
 1585              		.cfi_offset 6, -12
 1586              		.cfi_offset 7, -8
 1587              		.cfi_offset 14, -4
ARM GAS  C:\Users\gjl\AppData\Local\Temp\ccBgUaIM.s 			page 38


 1588 0002 4F46     		mov	r7, r9
 1589 0004 80B4     		push	{r7}
 1590              		.cfi_def_cfa_offset 24
 1591              		.cfi_offset 9, -24
 1592 0006 84B0     		sub	sp, sp, #16
 1593              		.cfi_def_cfa_offset 40
 1594 0008 0390     		str	r0, [sp, #12]
 1595 000a 0C00     		movs	r4, r1
 1596 000c 1600     		movs	r6, r2
 1597 000e 1F00     		movs	r7, r3
 1598 0010 0AAB     		add	r3, sp, #40
 1599              	.LVL265:
 1600 0012 1D78     		ldrb	r5, [r3]
 1601 0014 0BAB     		add	r3, sp, #44
 1602              	.LVL266:
 1603 0016 1B78     		ldrb	r3, [r3]
 1604              	.LVL267:
 1605 0018 9946     		mov	r9, r3
 338:..\u8g2\csrc/u8g2_circle.c ****       return;
 1606              		.loc 1 338 0
 1607 001a CB19     		adds	r3, r1, r7
 1608 001c 0133     		adds	r3, r3, #1
 1609 001e DBB2     		uxtb	r3, r3
 1610 0020 521B     		subs	r2, r2, r5
 1611              	.LVL268:
 1612 0022 D2B2     		uxtb	r2, r2
 1613 0024 C91B     		subs	r1, r1, r7
 1614              	.LVL269:
 1615 0026 C9B2     		uxtb	r1, r1
 1616 0028 7019     		adds	r0, r6, r5
 1617              	.LVL270:
 1618 002a 0130     		adds	r0, r0, #1
 1619 002c C0B2     		uxtb	r0, r0
 1620 002e 0090     		str	r0, [sp]
 1621 0030 0398     		ldr	r0, [sp, #12]
 1622 0032 FFF7FEFF 		bl	u8g2_IsIntersection
 1623              	.LVL271:
 1624 0036 0028     		cmp	r0, #0
 1625 0038 08D0     		beq	.L47
 343:..\u8g2\csrc/u8g2_circle.c **** }
 1626              		.loc 1 343 0
 1627 003a 4B46     		mov	r3, r9
 1628 003c 0193     		str	r3, [sp, #4]
 1629 003e 0095     		str	r5, [sp]
 1630 0040 3B00     		movs	r3, r7
 1631 0042 3200     		movs	r2, r6
 1632 0044 2100     		movs	r1, r4
 1633 0046 0398     		ldr	r0, [sp, #12]
 1634 0048 FFF7FEFF 		bl	u8g2_draw_ellipse
 1635              	.LVL272:
 1636              	.L47:
 344:..\u8g2\csrc/u8g2_circle.c **** 
 1637              		.loc 1 344 0
 1638 004c 04B0     		add	sp, sp, #16
 1639              		@ sp needed
 1640 004e 04BC     		pop	{r2}
 1641 0050 9146     		mov	r9, r2
ARM GAS  C:\Users\gjl\AppData\Local\Temp\ccBgUaIM.s 			page 39


 1642 0052 F0BD     		pop	{r4, r5, r6, r7, pc}
 1643              		.cfi_endproc
 1644              	.LFE8:
 1645              		.size	u8g2_DrawEllipse, .-u8g2_DrawEllipse
 1646              		.section	.text.u8g2_DrawFilledEllipse,"ax",%progbits
 1647              		.align	2
 1648              		.global	u8g2_DrawFilledEllipse
 1649              		.code	16
 1650              		.thumb_func
 1651              		.type	u8g2_DrawFilledEllipse, %function
 1652              	u8g2_DrawFilledEllipse:
 1653              	.LFB11:
 465:..\u8g2\csrc/u8g2_circle.c **** 
 466:..\u8g2\csrc/u8g2_circle.c **** void u8g2_DrawFilledEllipse(u8g2_t *u8g2, u8g2_uint_t x0, u8g2_uint_t y0, u8g2_uint_t rx, u8g2_uint
 467:..\u8g2\csrc/u8g2_circle.c **** {
 1654              		.loc 1 467 0
 1655              		.cfi_startproc
 1656              		@ args = 8, pretend = 0, frame = 8
 1657              		@ frame_needed = 0, uses_anonymous_args = 0
 1658              	.LVL273:
 1659 0000 F0B5     		push	{r4, r5, r6, r7, lr}
 1660              		.cfi_def_cfa_offset 20
 1661              		.cfi_offset 4, -20
 1662              		.cfi_offset 5, -16
 1663              		.cfi_offset 6, -12
 1664              		.cfi_offset 7, -8
 1665              		.cfi_offset 14, -4
 1666 0002 4F46     		mov	r7, r9
 1667 0004 80B4     		push	{r7}
 1668              		.cfi_def_cfa_offset 24
 1669              		.cfi_offset 9, -24
 1670 0006 84B0     		sub	sp, sp, #16
 1671              		.cfi_def_cfa_offset 40
 1672 0008 0390     		str	r0, [sp, #12]
 1673 000a 0C00     		movs	r4, r1
 1674 000c 1600     		movs	r6, r2
 1675 000e 1F00     		movs	r7, r3
 1676 0010 0AAB     		add	r3, sp, #40
 1677              	.LVL274:
 1678 0012 1D78     		ldrb	r5, [r3]
 1679 0014 0BAB     		add	r3, sp, #44
 1680              	.LVL275:
 1681 0016 1B78     		ldrb	r3, [r3]
 1682              	.LVL276:
 1683 0018 9946     		mov	r9, r3
 468:..\u8g2\csrc/u8g2_circle.c ****   /* check for bounding box */
 469:..\u8g2\csrc/u8g2_circle.c **** #ifdef U8G2_WITH_INTERSECTION
 470:..\u8g2\csrc/u8g2_circle.c ****   {
 471:..\u8g2\csrc/u8g2_circle.c ****     if ( u8g2_IsIntersection(u8g2, x0-rx, y0-ry, x0+rx+1, y0+ry+1) == 0 ) 
 1684              		.loc 1 471 0
 1685 001a CB19     		adds	r3, r1, r7
 1686 001c 0133     		adds	r3, r3, #1
 1687 001e DBB2     		uxtb	r3, r3
 1688 0020 521B     		subs	r2, r2, r5
 1689              	.LVL277:
 1690 0022 D2B2     		uxtb	r2, r2
 1691 0024 C91B     		subs	r1, r1, r7
ARM GAS  C:\Users\gjl\AppData\Local\Temp\ccBgUaIM.s 			page 40


 1692              	.LVL278:
 1693 0026 C9B2     		uxtb	r1, r1
 1694 0028 7019     		adds	r0, r6, r5
 1695              	.LVL279:
 1696 002a 0130     		adds	r0, r0, #1
 1697 002c C0B2     		uxtb	r0, r0
 1698 002e 0090     		str	r0, [sp]
 1699 0030 0398     		ldr	r0, [sp, #12]
 1700 0032 FFF7FEFF 		bl	u8g2_IsIntersection
 1701              	.LVL280:
 1702 0036 0028     		cmp	r0, #0
 1703 0038 08D0     		beq	.L49
 472:..\u8g2\csrc/u8g2_circle.c ****       return;
 473:..\u8g2\csrc/u8g2_circle.c ****   }
 474:..\u8g2\csrc/u8g2_circle.c **** #endif /* U8G2_WITH_INTERSECTION */
 475:..\u8g2\csrc/u8g2_circle.c ****   
 476:..\u8g2\csrc/u8g2_circle.c ****   u8g2_draw_filled_ellipse(u8g2, x0, y0, rx, ry, option);
 1704              		.loc 1 476 0
 1705 003a 4B46     		mov	r3, r9
 1706 003c 0193     		str	r3, [sp, #4]
 1707 003e 0095     		str	r5, [sp]
 1708 0040 3B00     		movs	r3, r7
 1709 0042 3200     		movs	r2, r6
 1710 0044 2100     		movs	r1, r4
 1711 0046 0398     		ldr	r0, [sp, #12]
 1712 0048 FFF7FEFF 		bl	u8g2_draw_filled_ellipse
 1713              	.LVL281:
 1714              	.L49:
 477:..\u8g2\csrc/u8g2_circle.c **** }
 1715              		.loc 1 477 0
 1716 004c 04B0     		add	sp, sp, #16
 1717              		@ sp needed
 1718 004e 04BC     		pop	{r2}
 1719 0050 9146     		mov	r9, r2
 1720 0052 F0BD     		pop	{r4, r5, r6, r7, pc}
 1721              		.cfi_endproc
 1722              	.LFE11:
 1723              		.size	u8g2_DrawFilledEllipse, .-u8g2_DrawFilledEllipse
 1724              		.text
 1725              	.Letext0:
 1726              		.file 2 "c:\\program files (x86)\\cypress\\psoc creator\\4.1\\psoc creator\\import\\gnu\\arm\\5.4.
 1727              		.file 3 "c:\\program files (x86)\\cypress\\psoc creator\\4.1\\psoc creator\\import\\gnu\\arm\\5.4.
 1728              		.file 4 "..\\u8g2\\csrc\\u8x8.h"
 1729              		.file 5 "..\\u8g2\\csrc\\u8g2.h"