ARM GAS  C:\Users\gjl\AppData\Local\Temp\ccNm9gHl.s 			page 1


   1              		.syntax unified
   2              		.cpu cortex-m0
   3              		.fpu softvfp
   4              		.eabi_attribute 20, 1
   5              		.eabi_attribute 21, 1
   6              		.eabi_attribute 23, 3
   7              		.eabi_attribute 24, 1
   8              		.eabi_attribute 25, 1
   9              		.eabi_attribute 26, 1
  10              		.eabi_attribute 30, 1
  11              		.eabi_attribute 34, 0
  12              		.eabi_attribute 18, 4
  13              		.thumb
  14              		.syntax unified
  15              		.file	"u8g2_d_memory.c"
  16              		.text
  17              	.Ltext0:
  18              		.cfi_sections	.debug_frame
  19              		.section	.text.u8g2_m_ssd1305_16_1,"ax",%progbits
  20              		.align	2
  21              		.global	u8g2_m_ssd1305_16_1
  22              		.code	16
  23              		.thumb_func
  24              		.type	u8g2_m_ssd1305_16_1, %function
  25              	u8g2_m_ssd1305_16_1:
  26              	.LFB0:
  27              		.file 1 "..\\u8g2\\csrc\\u8g2_d_memory.c"
   1:..\u8g2\csrc/u8g2_d_memory.c **** /* u8g2_d_memory.c */
   2:..\u8g2\csrc/u8g2_d_memory.c **** /* generated code, codebuild, u8g2 project */
   3:..\u8g2\csrc/u8g2_d_memory.c **** 
   4:..\u8g2\csrc/u8g2_d_memory.c **** #include "u8g2.h"
   5:..\u8g2\csrc/u8g2_d_memory.c **** 
   6:..\u8g2\csrc/u8g2_d_memory.c **** uint8_t *u8g2_m_ssd1305_16_1(uint8_t *page_cnt)
   7:..\u8g2\csrc/u8g2_d_memory.c **** {
  28              		.loc 1 7 0
  29              		.cfi_startproc
  30              		@ args = 0, pretend = 0, frame = 0
  31              		@ frame_needed = 0, uses_anonymous_args = 0
  32              		@ link register save eliminated.
  33              	.LVL0:
   8:..\u8g2\csrc/u8g2_d_memory.c ****   static uint8_t buf[128];
   9:..\u8g2\csrc/u8g2_d_memory.c ****   *page_cnt = 1;
  34              		.loc 1 9 0
  35 0000 0123     		movs	r3, #1
  36 0002 0370     		strb	r3, [r0]
  10:..\u8g2\csrc/u8g2_d_memory.c ****   return buf;
  11:..\u8g2\csrc/u8g2_d_memory.c **** }
  37              		.loc 1 11 0
  38 0004 0048     		ldr	r0, .L2
  39              	.LVL1:
  40              		@ sp needed
  41 0006 7047     		bx	lr
  42              	.L3:
  43              		.align	2
  44              	.L2:
  45 0008 00000000 		.word	.LANCHOR0
  46              		.cfi_endproc
ARM GAS  C:\Users\gjl\AppData\Local\Temp\ccNm9gHl.s 			page 2


  47              	.LFE0:
  48              		.size	u8g2_m_ssd1305_16_1, .-u8g2_m_ssd1305_16_1
  49              		.section	.text.u8g2_m_ssd1305_16_2,"ax",%progbits
  50              		.align	2
  51              		.global	u8g2_m_ssd1305_16_2
  52              		.code	16
  53              		.thumb_func
  54              		.type	u8g2_m_ssd1305_16_2, %function
  55              	u8g2_m_ssd1305_16_2:
  56              	.LFB1:
  12:..\u8g2\csrc/u8g2_d_memory.c **** uint8_t *u8g2_m_ssd1305_16_2(uint8_t *page_cnt)
  13:..\u8g2\csrc/u8g2_d_memory.c **** {
  57              		.loc 1 13 0
  58              		.cfi_startproc
  59              		@ args = 0, pretend = 0, frame = 0
  60              		@ frame_needed = 0, uses_anonymous_args = 0
  61              		@ link register save eliminated.
  62              	.LVL2:
  14:..\u8g2\csrc/u8g2_d_memory.c ****   static uint8_t buf[256];
  15:..\u8g2\csrc/u8g2_d_memory.c ****   *page_cnt = 2;
  63              		.loc 1 15 0
  64 0000 0223     		movs	r3, #2
  65 0002 0370     		strb	r3, [r0]
  16:..\u8g2\csrc/u8g2_d_memory.c ****   return buf;
  17:..\u8g2\csrc/u8g2_d_memory.c **** }
  66              		.loc 1 17 0
  67 0004 0048     		ldr	r0, .L5
  68              	.LVL3:
  69              		@ sp needed
  70 0006 7047     		bx	lr
  71              	.L6:
  72              		.align	2
  73              	.L5:
  74 0008 80000000 		.word	.LANCHOR1
  75              		.cfi_endproc
  76              	.LFE1:
  77              		.size	u8g2_m_ssd1305_16_2, .-u8g2_m_ssd1305_16_2
  78              		.section	.text.u8g2_m_ssd1305_16_f,"ax",%progbits
  79              		.align	2
  80              		.global	u8g2_m_ssd1305_16_f
  81              		.code	16
  82              		.thumb_func
  83              		.type	u8g2_m_ssd1305_16_f, %function
  84              	u8g2_m_ssd1305_16_f:
  85              	.LFB2:
  18:..\u8g2\csrc/u8g2_d_memory.c **** uint8_t *u8g2_m_ssd1305_16_f(uint8_t *page_cnt)
  19:..\u8g2\csrc/u8g2_d_memory.c **** {
  86              		.loc 1 19 0
  87              		.cfi_startproc
  88              		@ args = 0, pretend = 0, frame = 0
  89              		@ frame_needed = 0, uses_anonymous_args = 0
  90              		@ link register save eliminated.
  91              	.LVL4:
  20:..\u8g2\csrc/u8g2_d_memory.c ****   static uint8_t buf[512];
  21:..\u8g2\csrc/u8g2_d_memory.c ****   *page_cnt = 4;
  92              		.loc 1 21 0
  93 0000 0423     		movs	r3, #4
ARM GAS  C:\Users\gjl\AppData\Local\Temp\ccNm9gHl.s 			page 3


  94 0002 0370     		strb	r3, [r0]
  22:..\u8g2\csrc/u8g2_d_memory.c ****   return buf;
  23:..\u8g2\csrc/u8g2_d_memory.c **** }
  95              		.loc 1 23 0
  96 0004 0048     		ldr	r0, .L8
  97              	.LVL5:
  98              		@ sp needed
  99 0006 7047     		bx	lr
 100              	.L9:
 101              		.align	2
 102              	.L8:
 103 0008 80010000 		.word	.LANCHOR2
 104              		.cfi_endproc
 105              	.LFE2:
 106              		.size	u8g2_m_ssd1305_16_f, .-u8g2_m_ssd1305_16_f
 107              		.section	.text.u8g2_m_ssd1306_16_1,"ax",%progbits
 108              		.align	2
 109              		.global	u8g2_m_ssd1306_16_1
 110              		.code	16
 111              		.thumb_func
 112              		.type	u8g2_m_ssd1306_16_1, %function
 113              	u8g2_m_ssd1306_16_1:
 114              	.LFB3:
  24:..\u8g2\csrc/u8g2_d_memory.c **** uint8_t *u8g2_m_ssd1306_16_1(uint8_t *page_cnt)
  25:..\u8g2\csrc/u8g2_d_memory.c **** {
 115              		.loc 1 25 0
 116              		.cfi_startproc
 117              		@ args = 0, pretend = 0, frame = 0
 118              		@ frame_needed = 0, uses_anonymous_args = 0
 119              		@ link register save eliminated.
 120              	.LVL6:
  26:..\u8g2\csrc/u8g2_d_memory.c ****   static uint8_t buf[128];
  27:..\u8g2\csrc/u8g2_d_memory.c ****   *page_cnt = 1;
 121              		.loc 1 27 0
 122 0000 0123     		movs	r3, #1
 123 0002 0370     		strb	r3, [r0]
  28:..\u8g2\csrc/u8g2_d_memory.c ****   return buf;
  29:..\u8g2\csrc/u8g2_d_memory.c **** }
 124              		.loc 1 29 0
 125 0004 0048     		ldr	r0, .L11
 126              	.LVL7:
 127              		@ sp needed
 128 0006 7047     		bx	lr
 129              	.L12:
 130              		.align	2
 131              	.L11:
 132 0008 80030000 		.word	.LANCHOR3
 133              		.cfi_endproc
 134              	.LFE3:
 135              		.size	u8g2_m_ssd1306_16_1, .-u8g2_m_ssd1306_16_1
 136              		.section	.text.u8g2_m_ssd1306_16_2,"ax",%progbits
 137              		.align	2
 138              		.global	u8g2_m_ssd1306_16_2
 139              		.code	16
 140              		.thumb_func
 141              		.type	u8g2_m_ssd1306_16_2, %function
 142              	u8g2_m_ssd1306_16_2:
ARM GAS  C:\Users\gjl\AppData\Local\Temp\ccNm9gHl.s 			page 4


 143              	.LFB4:
  30:..\u8g2\csrc/u8g2_d_memory.c **** uint8_t *u8g2_m_ssd1306_16_2(uint8_t *page_cnt)
  31:..\u8g2\csrc/u8g2_d_memory.c **** {
 144              		.loc 1 31 0
 145              		.cfi_startproc
 146              		@ args = 0, pretend = 0, frame = 0
 147              		@ frame_needed = 0, uses_anonymous_args = 0
 148              		@ link register save eliminated.
 149              	.LVL8:
  32:..\u8g2\csrc/u8g2_d_memory.c ****   static uint8_t buf[256];
  33:..\u8g2\csrc/u8g2_d_memory.c ****   *page_cnt = 2;
 150              		.loc 1 33 0
 151 0000 0223     		movs	r3, #2
 152 0002 0370     		strb	r3, [r0]
  34:..\u8g2\csrc/u8g2_d_memory.c ****   return buf;
  35:..\u8g2\csrc/u8g2_d_memory.c **** }
 153              		.loc 1 35 0
 154 0004 0048     		ldr	r0, .L14
 155              	.LVL9:
 156              		@ sp needed
 157 0006 7047     		bx	lr
 158              	.L15:
 159              		.align	2
 160              	.L14:
 161 0008 00040000 		.word	.LANCHOR4
 162              		.cfi_endproc
 163              	.LFE4:
 164              		.size	u8g2_m_ssd1306_16_2, .-u8g2_m_ssd1306_16_2
 165              		.section	.text.u8g2_m_ssd1306_16_f,"ax",%progbits
 166              		.align	2
 167              		.global	u8g2_m_ssd1306_16_f
 168              		.code	16
 169              		.thumb_func
 170              		.type	u8g2_m_ssd1306_16_f, %function
 171              	u8g2_m_ssd1306_16_f:
 172              	.LFB5:
  36:..\u8g2\csrc/u8g2_d_memory.c **** uint8_t *u8g2_m_ssd1306_16_f(uint8_t *page_cnt)
  37:..\u8g2\csrc/u8g2_d_memory.c **** {
 173              		.loc 1 37 0
 174              		.cfi_startproc
 175              		@ args = 0, pretend = 0, frame = 0
 176              		@ frame_needed = 0, uses_anonymous_args = 0
 177              		@ link register save eliminated.
 178              	.LVL10:
  38:..\u8g2\csrc/u8g2_d_memory.c ****   static uint8_t buf[1024];
  39:..\u8g2\csrc/u8g2_d_memory.c ****   *page_cnt = 8;
 179              		.loc 1 39 0
 180 0000 0823     		movs	r3, #8
 181 0002 0370     		strb	r3, [r0]
  40:..\u8g2\csrc/u8g2_d_memory.c ****   return buf;
  41:..\u8g2\csrc/u8g2_d_memory.c **** }
 182              		.loc 1 41 0
 183 0004 0048     		ldr	r0, .L17
 184              	.LVL11:
 185              		@ sp needed
 186 0006 7047     		bx	lr
 187              	.L18:
ARM GAS  C:\Users\gjl\AppData\Local\Temp\ccNm9gHl.s 			page 5


 188              		.align	2
 189              	.L17:
 190 0008 00050000 		.word	.LANCHOR5
 191              		.cfi_endproc
 192              	.LFE5:
 193              		.size	u8g2_m_ssd1306_16_f, .-u8g2_m_ssd1306_16_f
 194              		.section	.text.u8g2_m_sh1106_16_1,"ax",%progbits
 195              		.align	2
 196              		.global	u8g2_m_sh1106_16_1
 197              		.code	16
 198              		.thumb_func
 199              		.type	u8g2_m_sh1106_16_1, %function
 200              	u8g2_m_sh1106_16_1:
 201              	.LFB6:
  42:..\u8g2\csrc/u8g2_d_memory.c **** uint8_t *u8g2_m_sh1106_16_1(uint8_t *page_cnt)
  43:..\u8g2\csrc/u8g2_d_memory.c **** {
 202              		.loc 1 43 0
 203              		.cfi_startproc
 204              		@ args = 0, pretend = 0, frame = 0
 205              		@ frame_needed = 0, uses_anonymous_args = 0
 206              		@ link register save eliminated.
 207              	.LVL12:
  44:..\u8g2\csrc/u8g2_d_memory.c ****   static uint8_t buf[128];
  45:..\u8g2\csrc/u8g2_d_memory.c ****   *page_cnt = 1;
 208              		.loc 1 45 0
 209 0000 0123     		movs	r3, #1
 210 0002 0370     		strb	r3, [r0]
  46:..\u8g2\csrc/u8g2_d_memory.c ****   return buf;
  47:..\u8g2\csrc/u8g2_d_memory.c **** }
 211              		.loc 1 47 0
 212 0004 0048     		ldr	r0, .L20
 213              	.LVL13:
 214              		@ sp needed
 215 0006 7047     		bx	lr
 216              	.L21:
 217              		.align	2
 218              	.L20:
 219 0008 00090000 		.word	.LANCHOR6
 220              		.cfi_endproc
 221              	.LFE6:
 222              		.size	u8g2_m_sh1106_16_1, .-u8g2_m_sh1106_16_1
 223              		.section	.text.u8g2_m_sh1106_16_2,"ax",%progbits
 224              		.align	2
 225              		.global	u8g2_m_sh1106_16_2
 226              		.code	16
 227              		.thumb_func
 228              		.type	u8g2_m_sh1106_16_2, %function
 229              	u8g2_m_sh1106_16_2:
 230              	.LFB7:
  48:..\u8g2\csrc/u8g2_d_memory.c **** uint8_t *u8g2_m_sh1106_16_2(uint8_t *page_cnt)
  49:..\u8g2\csrc/u8g2_d_memory.c **** {
 231              		.loc 1 49 0
 232              		.cfi_startproc
 233              		@ args = 0, pretend = 0, frame = 0
 234              		@ frame_needed = 0, uses_anonymous_args = 0
 235              		@ link register save eliminated.
 236              	.LVL14:
ARM GAS  C:\Users\gjl\AppData\Local\Temp\ccNm9gHl.s 			page 6


  50:..\u8g2\csrc/u8g2_d_memory.c ****   static uint8_t buf[256];
  51:..\u8g2\csrc/u8g2_d_memory.c ****   *page_cnt = 2;
 237              		.loc 1 51 0
 238 0000 0223     		movs	r3, #2
 239 0002 0370     		strb	r3, [r0]
  52:..\u8g2\csrc/u8g2_d_memory.c ****   return buf;
  53:..\u8g2\csrc/u8g2_d_memory.c **** }
 240              		.loc 1 53 0
 241 0004 0048     		ldr	r0, .L23
 242              	.LVL15:
 243              		@ sp needed
 244 0006 7047     		bx	lr
 245              	.L24:
 246              		.align	2
 247              	.L23:
 248 0008 80090000 		.word	.LANCHOR7
 249              		.cfi_endproc
 250              	.LFE7:
 251              		.size	u8g2_m_sh1106_16_2, .-u8g2_m_sh1106_16_2
 252              		.section	.text.u8g2_m_sh1106_16_f,"ax",%progbits
 253              		.align	2
 254              		.global	u8g2_m_sh1106_16_f
 255              		.code	16
 256              		.thumb_func
 257              		.type	u8g2_m_sh1106_16_f, %function
 258              	u8g2_m_sh1106_16_f:
 259              	.LFB8:
  54:..\u8g2\csrc/u8g2_d_memory.c **** uint8_t *u8g2_m_sh1106_16_f(uint8_t *page_cnt)
  55:..\u8g2\csrc/u8g2_d_memory.c **** {
 260              		.loc 1 55 0
 261              		.cfi_startproc
 262              		@ args = 0, pretend = 0, frame = 0
 263              		@ frame_needed = 0, uses_anonymous_args = 0
 264              		@ link register save eliminated.
 265              	.LVL16:
  56:..\u8g2\csrc/u8g2_d_memory.c ****   static uint8_t buf[1024];
  57:..\u8g2\csrc/u8g2_d_memory.c ****   *page_cnt = 8;
 266              		.loc 1 57 0
 267 0000 0823     		movs	r3, #8
 268 0002 0370     		strb	r3, [r0]
  58:..\u8g2\csrc/u8g2_d_memory.c ****   return buf;
  59:..\u8g2\csrc/u8g2_d_memory.c **** }
 269              		.loc 1 59 0
 270 0004 0048     		ldr	r0, .L26
 271              	.LVL17:
 272              		@ sp needed
 273 0006 7047     		bx	lr
 274              	.L27:
 275              		.align	2
 276              	.L26:
 277 0008 800A0000 		.word	.LANCHOR8
 278              		.cfi_endproc
 279              	.LFE8:
 280              		.size	u8g2_m_sh1106_16_f, .-u8g2_m_sh1106_16_f
 281              		.section	.text.u8g2_m_ssd1306_8_1,"ax",%progbits
 282              		.align	2
 283              		.global	u8g2_m_ssd1306_8_1
ARM GAS  C:\Users\gjl\AppData\Local\Temp\ccNm9gHl.s 			page 7


 284              		.code	16
 285              		.thumb_func
 286              		.type	u8g2_m_ssd1306_8_1, %function
 287              	u8g2_m_ssd1306_8_1:
 288              	.LFB9:
  60:..\u8g2\csrc/u8g2_d_memory.c **** uint8_t *u8g2_m_ssd1306_8_1(uint8_t *page_cnt)
  61:..\u8g2\csrc/u8g2_d_memory.c **** {
 289              		.loc 1 61 0
 290              		.cfi_startproc
 291              		@ args = 0, pretend = 0, frame = 0
 292              		@ frame_needed = 0, uses_anonymous_args = 0
 293              		@ link register save eliminated.
 294              	.LVL18:
  62:..\u8g2\csrc/u8g2_d_memory.c ****   static uint8_t buf[64];
  63:..\u8g2\csrc/u8g2_d_memory.c ****   *page_cnt = 1;
 295              		.loc 1 63 0
 296 0000 0123     		movs	r3, #1
 297 0002 0370     		strb	r3, [r0]
  64:..\u8g2\csrc/u8g2_d_memory.c ****   return buf;
  65:..\u8g2\csrc/u8g2_d_memory.c **** }
 298              		.loc 1 65 0
 299 0004 0048     		ldr	r0, .L29
 300              	.LVL19:
 301              		@ sp needed
 302 0006 7047     		bx	lr
 303              	.L30:
 304              		.align	2
 305              	.L29:
 306 0008 800E0000 		.word	.LANCHOR9
 307              		.cfi_endproc
 308              	.LFE9:
 309              		.size	u8g2_m_ssd1306_8_1, .-u8g2_m_ssd1306_8_1
 310              		.section	.text.u8g2_m_ssd1306_8_2,"ax",%progbits
 311              		.align	2
 312              		.global	u8g2_m_ssd1306_8_2
 313              		.code	16
 314              		.thumb_func
 315              		.type	u8g2_m_ssd1306_8_2, %function
 316              	u8g2_m_ssd1306_8_2:
 317              	.LFB10:
  66:..\u8g2\csrc/u8g2_d_memory.c **** uint8_t *u8g2_m_ssd1306_8_2(uint8_t *page_cnt)
  67:..\u8g2\csrc/u8g2_d_memory.c **** {
 318              		.loc 1 67 0
 319              		.cfi_startproc
 320              		@ args = 0, pretend = 0, frame = 0
 321              		@ frame_needed = 0, uses_anonymous_args = 0
 322              		@ link register save eliminated.
 323              	.LVL20:
  68:..\u8g2\csrc/u8g2_d_memory.c ****   static uint8_t buf[128];
  69:..\u8g2\csrc/u8g2_d_memory.c ****   *page_cnt = 2;
 324              		.loc 1 69 0
 325 0000 0223     		movs	r3, #2
 326 0002 0370     		strb	r3, [r0]
  70:..\u8g2\csrc/u8g2_d_memory.c ****   return buf;
 327              		.loc 1 70 0
 328 0004 0148     		ldr	r0, .L32
 329              	.LVL21:
ARM GAS  C:\Users\gjl\AppData\Local\Temp\ccNm9gHl.s 			page 8


  71:..\u8g2\csrc/u8g2_d_memory.c **** }
 330              		.loc 1 71 0
 331 0006 4030     		adds	r0, r0, #64
 332              		@ sp needed
 333 0008 7047     		bx	lr
 334              	.L33:
 335 000a C046     		.align	2
 336              	.L32:
 337 000c 800E0000 		.word	.LANCHOR9
 338              		.cfi_endproc
 339              	.LFE10:
 340              		.size	u8g2_m_ssd1306_8_2, .-u8g2_m_ssd1306_8_2
 341              		.section	.text.u8g2_m_ssd1306_8_f,"ax",%progbits
 342              		.align	2
 343              		.global	u8g2_m_ssd1306_8_f
 344              		.code	16
 345              		.thumb_func
 346              		.type	u8g2_m_ssd1306_8_f, %function
 347              	u8g2_m_ssd1306_8_f:
 348              	.LFB11:
  72:..\u8g2\csrc/u8g2_d_memory.c **** uint8_t *u8g2_m_ssd1306_8_f(uint8_t *page_cnt)
  73:..\u8g2\csrc/u8g2_d_memory.c **** {
 349              		.loc 1 73 0
 350              		.cfi_startproc
 351              		@ args = 0, pretend = 0, frame = 0
 352              		@ frame_needed = 0, uses_anonymous_args = 0
 353              		@ link register save eliminated.
 354              	.LVL22:
  74:..\u8g2\csrc/u8g2_d_memory.c ****   static uint8_t buf[384];
  75:..\u8g2\csrc/u8g2_d_memory.c ****   *page_cnt = 6;
 355              		.loc 1 75 0
 356 0000 0623     		movs	r3, #6
 357 0002 0370     		strb	r3, [r0]
  76:..\u8g2\csrc/u8g2_d_memory.c ****   return buf;
 358              		.loc 1 76 0
 359 0004 0148     		ldr	r0, .L35
 360              	.LVL23:
  77:..\u8g2\csrc/u8g2_d_memory.c **** }
 361              		.loc 1 77 0
 362 0006 4030     		adds	r0, r0, #64
 363              		@ sp needed
 364 0008 7047     		bx	lr
 365              	.L36:
 366 000a C046     		.align	2
 367              	.L35:
 368 000c 000F0000 		.word	.LANCHOR10
 369              		.cfi_endproc
 370              	.LFE11:
 371              		.size	u8g2_m_ssd1306_8_f, .-u8g2_m_ssd1306_8_f
 372              		.section	.text.u8g2_m_ssd1309_16_1,"ax",%progbits
 373              		.align	2
 374              		.global	u8g2_m_ssd1309_16_1
 375              		.code	16
 376              		.thumb_func
 377              		.type	u8g2_m_ssd1309_16_1, %function
 378              	u8g2_m_ssd1309_16_1:
 379              	.LFB12:
ARM GAS  C:\Users\gjl\AppData\Local\Temp\ccNm9gHl.s 			page 9


  78:..\u8g2\csrc/u8g2_d_memory.c **** uint8_t *u8g2_m_ssd1309_16_1(uint8_t *page_cnt)
  79:..\u8g2\csrc/u8g2_d_memory.c **** {
 380              		.loc 1 79 0
 381              		.cfi_startproc
 382              		@ args = 0, pretend = 0, frame = 0
 383              		@ frame_needed = 0, uses_anonymous_args = 0
 384              		@ link register save eliminated.
 385              	.LVL24:
  80:..\u8g2\csrc/u8g2_d_memory.c ****   static uint8_t buf[128];
  81:..\u8g2\csrc/u8g2_d_memory.c ****   *page_cnt = 1;
 386              		.loc 1 81 0
 387 0000 0123     		movs	r3, #1
 388 0002 0370     		strb	r3, [r0]
  82:..\u8g2\csrc/u8g2_d_memory.c ****   return buf;
 389              		.loc 1 82 0
 390 0004 0148     		ldr	r0, .L38
 391              	.LVL25:
  83:..\u8g2\csrc/u8g2_d_memory.c **** }
 392              		.loc 1 83 0
 393 0006 4030     		adds	r0, r0, #64
 394              		@ sp needed
 395 0008 7047     		bx	lr
 396              	.L39:
 397 000a C046     		.align	2
 398              	.L38:
 399 000c 80100000 		.word	.LANCHOR11
 400              		.cfi_endproc
 401              	.LFE12:
 402              		.size	u8g2_m_ssd1309_16_1, .-u8g2_m_ssd1309_16_1
 403              		.section	.text.u8g2_m_ssd1309_16_2,"ax",%progbits
 404              		.align	2
 405              		.global	u8g2_m_ssd1309_16_2
 406              		.code	16
 407              		.thumb_func
 408              		.type	u8g2_m_ssd1309_16_2, %function
 409              	u8g2_m_ssd1309_16_2:
 410              	.LFB13:
  84:..\u8g2\csrc/u8g2_d_memory.c **** uint8_t *u8g2_m_ssd1309_16_2(uint8_t *page_cnt)
  85:..\u8g2\csrc/u8g2_d_memory.c **** {
 411              		.loc 1 85 0
 412              		.cfi_startproc
 413              		@ args = 0, pretend = 0, frame = 0
 414              		@ frame_needed = 0, uses_anonymous_args = 0
 415              		@ link register save eliminated.
 416              	.LVL26:
  86:..\u8g2\csrc/u8g2_d_memory.c ****   static uint8_t buf[256];
  87:..\u8g2\csrc/u8g2_d_memory.c ****   *page_cnt = 2;
 417              		.loc 1 87 0
 418 0000 0223     		movs	r3, #2
 419 0002 0370     		strb	r3, [r0]
  88:..\u8g2\csrc/u8g2_d_memory.c ****   return buf;
 420              		.loc 1 88 0
 421 0004 0148     		ldr	r0, .L41
 422              	.LVL27:
  89:..\u8g2\csrc/u8g2_d_memory.c **** }
 423              		.loc 1 89 0
 424 0006 4030     		adds	r0, r0, #64
ARM GAS  C:\Users\gjl\AppData\Local\Temp\ccNm9gHl.s 			page 10


 425              		@ sp needed
 426 0008 7047     		bx	lr
 427              	.L42:
 428 000a C046     		.align	2
 429              	.L41:
 430 000c 00110000 		.word	.LANCHOR12
 431              		.cfi_endproc
 432              	.LFE13:
 433              		.size	u8g2_m_ssd1309_16_2, .-u8g2_m_ssd1309_16_2
 434              		.section	.text.u8g2_m_ssd1309_16_f,"ax",%progbits
 435              		.align	2
 436              		.global	u8g2_m_ssd1309_16_f
 437              		.code	16
 438              		.thumb_func
 439              		.type	u8g2_m_ssd1309_16_f, %function
 440              	u8g2_m_ssd1309_16_f:
 441              	.LFB14:
  90:..\u8g2\csrc/u8g2_d_memory.c **** uint8_t *u8g2_m_ssd1309_16_f(uint8_t *page_cnt)
  91:..\u8g2\csrc/u8g2_d_memory.c **** {
 442              		.loc 1 91 0
 443              		.cfi_startproc
 444              		@ args = 0, pretend = 0, frame = 0
 445              		@ frame_needed = 0, uses_anonymous_args = 0
 446              		@ link register save eliminated.
 447              	.LVL28:
  92:..\u8g2\csrc/u8g2_d_memory.c ****   static uint8_t buf[1024];
  93:..\u8g2\csrc/u8g2_d_memory.c ****   *page_cnt = 8;
 448              		.loc 1 93 0
 449 0000 0823     		movs	r3, #8
 450 0002 0370     		strb	r3, [r0]
  94:..\u8g2\csrc/u8g2_d_memory.c ****   return buf;
 451              		.loc 1 94 0
 452 0004 0148     		ldr	r0, .L44
 453              	.LVL29:
  95:..\u8g2\csrc/u8g2_d_memory.c **** }
 454              		.loc 1 95 0
 455 0006 4030     		adds	r0, r0, #64
 456              		@ sp needed
 457 0008 7047     		bx	lr
 458              	.L45:
 459 000a C046     		.align	2
 460              	.L44:
 461 000c 00120000 		.word	.LANCHOR13
 462              		.cfi_endproc
 463              	.LFE14:
 464              		.size	u8g2_m_ssd1309_16_f, .-u8g2_m_ssd1309_16_f
 465              		.section	.text.u8g2_m_ssd1325_16_1,"ax",%progbits
 466              		.align	2
 467              		.global	u8g2_m_ssd1325_16_1
 468              		.code	16
 469              		.thumb_func
 470              		.type	u8g2_m_ssd1325_16_1, %function
 471              	u8g2_m_ssd1325_16_1:
 472              	.LFB15:
  96:..\u8g2\csrc/u8g2_d_memory.c **** uint8_t *u8g2_m_ssd1325_16_1(uint8_t *page_cnt)
  97:..\u8g2\csrc/u8g2_d_memory.c **** {
 473              		.loc 1 97 0
ARM GAS  C:\Users\gjl\AppData\Local\Temp\ccNm9gHl.s 			page 11


 474              		.cfi_startproc
 475              		@ args = 0, pretend = 0, frame = 0
 476              		@ frame_needed = 0, uses_anonymous_args = 0
 477              		@ link register save eliminated.
 478              	.LVL30:
  98:..\u8g2\csrc/u8g2_d_memory.c ****   static uint8_t buf[128];
  99:..\u8g2\csrc/u8g2_d_memory.c ****   *page_cnt = 1;
 479              		.loc 1 99 0
 480 0000 0123     		movs	r3, #1
 481 0002 0370     		strb	r3, [r0]
 100:..\u8g2\csrc/u8g2_d_memory.c ****   return buf;
 482              		.loc 1 100 0
 483 0004 0148     		ldr	r0, .L47
 484              	.LVL31:
 101:..\u8g2\csrc/u8g2_d_memory.c **** }
 485              		.loc 1 101 0
 486 0006 4030     		adds	r0, r0, #64
 487              		@ sp needed
 488 0008 7047     		bx	lr
 489              	.L48:
 490 000a C046     		.align	2
 491              	.L47:
 492 000c 00160000 		.word	.LANCHOR14
 493              		.cfi_endproc
 494              	.LFE15:
 495              		.size	u8g2_m_ssd1325_16_1, .-u8g2_m_ssd1325_16_1
 496              		.section	.text.u8g2_m_ssd1325_16_2,"ax",%progbits
 497              		.align	2
 498              		.global	u8g2_m_ssd1325_16_2
 499              		.code	16
 500              		.thumb_func
 501              		.type	u8g2_m_ssd1325_16_2, %function
 502              	u8g2_m_ssd1325_16_2:
 503              	.LFB16:
 102:..\u8g2\csrc/u8g2_d_memory.c **** uint8_t *u8g2_m_ssd1325_16_2(uint8_t *page_cnt)
 103:..\u8g2\csrc/u8g2_d_memory.c **** {
 504              		.loc 1 103 0
 505              		.cfi_startproc
 506              		@ args = 0, pretend = 0, frame = 0
 507              		@ frame_needed = 0, uses_anonymous_args = 0
 508              		@ link register save eliminated.
 509              	.LVL32:
 104:..\u8g2\csrc/u8g2_d_memory.c ****   static uint8_t buf[256];
 105:..\u8g2\csrc/u8g2_d_memory.c ****   *page_cnt = 2;
 510              		.loc 1 105 0
 511 0000 0223     		movs	r3, #2
 512 0002 0370     		strb	r3, [r0]
 106:..\u8g2\csrc/u8g2_d_memory.c ****   return buf;
 513              		.loc 1 106 0
 514 0004 0148     		ldr	r0, .L50
 515              	.LVL33:
 107:..\u8g2\csrc/u8g2_d_memory.c **** }
 516              		.loc 1 107 0
 517 0006 4030     		adds	r0, r0, #64
 518              		@ sp needed
 519 0008 7047     		bx	lr
 520              	.L51:
ARM GAS  C:\Users\gjl\AppData\Local\Temp\ccNm9gHl.s 			page 12


 521 000a C046     		.align	2
 522              	.L50:
 523 000c 80160000 		.word	.LANCHOR15
 524              		.cfi_endproc
 525              	.LFE16:
 526              		.size	u8g2_m_ssd1325_16_2, .-u8g2_m_ssd1325_16_2
 527              		.section	.text.u8g2_m_ssd1325_16_f,"ax",%progbits
 528              		.align	2
 529              		.global	u8g2_m_ssd1325_16_f
 530              		.code	16
 531              		.thumb_func
 532              		.type	u8g2_m_ssd1325_16_f, %function
 533              	u8g2_m_ssd1325_16_f:
 534              	.LFB17:
 108:..\u8g2\csrc/u8g2_d_memory.c **** uint8_t *u8g2_m_ssd1325_16_f(uint8_t *page_cnt)
 109:..\u8g2\csrc/u8g2_d_memory.c **** {
 535              		.loc 1 109 0
 536              		.cfi_startproc
 537              		@ args = 0, pretend = 0, frame = 0
 538              		@ frame_needed = 0, uses_anonymous_args = 0
 539              		@ link register save eliminated.
 540              	.LVL34:
 110:..\u8g2\csrc/u8g2_d_memory.c ****   static uint8_t buf[1024];
 111:..\u8g2\csrc/u8g2_d_memory.c ****   *page_cnt = 8;
 541              		.loc 1 111 0
 542 0000 0823     		movs	r3, #8
 543 0002 0370     		strb	r3, [r0]
 112:..\u8g2\csrc/u8g2_d_memory.c ****   return buf;
 544              		.loc 1 112 0
 545 0004 0148     		ldr	r0, .L53
 546              	.LVL35:
 113:..\u8g2\csrc/u8g2_d_memory.c **** }
 547              		.loc 1 113 0
 548 0006 4030     		adds	r0, r0, #64
 549              		@ sp needed
 550 0008 7047     		bx	lr
 551              	.L54:
 552 000a C046     		.align	2
 553              	.L53:
 554 000c 80170000 		.word	.LANCHOR16
 555              		.cfi_endproc
 556              	.LFE17:
 557              		.size	u8g2_m_ssd1325_16_f, .-u8g2_m_ssd1325_16_f
 558              		.section	.text.u8g2_m_ssd1327_12_1,"ax",%progbits
 559              		.align	2
 560              		.global	u8g2_m_ssd1327_12_1
 561              		.code	16
 562              		.thumb_func
 563              		.type	u8g2_m_ssd1327_12_1, %function
 564              	u8g2_m_ssd1327_12_1:
 565              	.LFB18:
 114:..\u8g2\csrc/u8g2_d_memory.c **** uint8_t *u8g2_m_ssd1327_12_1(uint8_t *page_cnt)
 115:..\u8g2\csrc/u8g2_d_memory.c **** {
 566              		.loc 1 115 0
 567              		.cfi_startproc
 568              		@ args = 0, pretend = 0, frame = 0
 569              		@ frame_needed = 0, uses_anonymous_args = 0
ARM GAS  C:\Users\gjl\AppData\Local\Temp\ccNm9gHl.s 			page 13


 570              		@ link register save eliminated.
 571              	.LVL36:
 116:..\u8g2\csrc/u8g2_d_memory.c ****   static uint8_t buf[96];
 117:..\u8g2\csrc/u8g2_d_memory.c ****   *page_cnt = 1;
 572              		.loc 1 117 0
 573 0000 0123     		movs	r3, #1
 574 0002 0370     		strb	r3, [r0]
 118:..\u8g2\csrc/u8g2_d_memory.c ****   return buf;
 575              		.loc 1 118 0
 576 0004 0148     		ldr	r0, .L56
 577              	.LVL37:
 119:..\u8g2\csrc/u8g2_d_memory.c **** }
 578              		.loc 1 119 0
 579 0006 4030     		adds	r0, r0, #64
 580              		@ sp needed
 581 0008 7047     		bx	lr
 582              	.L57:
 583 000a C046     		.align	2
 584              	.L56:
 585 000c 801B0000 		.word	.LANCHOR17
 586              		.cfi_endproc
 587              	.LFE18:
 588              		.size	u8g2_m_ssd1327_12_1, .-u8g2_m_ssd1327_12_1
 589              		.section	.text.u8g2_m_ssd1327_12_2,"ax",%progbits
 590              		.align	2
 591              		.global	u8g2_m_ssd1327_12_2
 592              		.code	16
 593              		.thumb_func
 594              		.type	u8g2_m_ssd1327_12_2, %function
 595              	u8g2_m_ssd1327_12_2:
 596              	.LFB19:
 120:..\u8g2\csrc/u8g2_d_memory.c **** uint8_t *u8g2_m_ssd1327_12_2(uint8_t *page_cnt)
 121:..\u8g2\csrc/u8g2_d_memory.c **** {
 597              		.loc 1 121 0
 598              		.cfi_startproc
 599              		@ args = 0, pretend = 0, frame = 0
 600              		@ frame_needed = 0, uses_anonymous_args = 0
 601              		@ link register save eliminated.
 602              	.LVL38:
 122:..\u8g2\csrc/u8g2_d_memory.c ****   static uint8_t buf[192];
 123:..\u8g2\csrc/u8g2_d_memory.c ****   *page_cnt = 2;
 603              		.loc 1 123 0
 604 0000 0223     		movs	r3, #2
 605 0002 0370     		strb	r3, [r0]
 124:..\u8g2\csrc/u8g2_d_memory.c ****   return buf;
 606              		.loc 1 124 0
 607 0004 0148     		ldr	r0, .L59
 608              	.LVL39:
 125:..\u8g2\csrc/u8g2_d_memory.c **** }
 609              		.loc 1 125 0
 610 0006 2030     		adds	r0, r0, #32
 611              		@ sp needed
 612 0008 7047     		bx	lr
 613              	.L60:
 614 000a C046     		.align	2
 615              	.L59:
 616 000c 001C0000 		.word	.LANCHOR18
ARM GAS  C:\Users\gjl\AppData\Local\Temp\ccNm9gHl.s 			page 14


 617              		.cfi_endproc
 618              	.LFE19:
 619              		.size	u8g2_m_ssd1327_12_2, .-u8g2_m_ssd1327_12_2
 620              		.section	.text.u8g2_m_ssd1327_12_f,"ax",%progbits
 621              		.align	2
 622              		.global	u8g2_m_ssd1327_12_f
 623              		.code	16
 624              		.thumb_func
 625              		.type	u8g2_m_ssd1327_12_f, %function
 626              	u8g2_m_ssd1327_12_f:
 627              	.LFB20:
 126:..\u8g2\csrc/u8g2_d_memory.c **** uint8_t *u8g2_m_ssd1327_12_f(uint8_t *page_cnt)
 127:..\u8g2\csrc/u8g2_d_memory.c **** {
 628              		.loc 1 127 0
 629              		.cfi_startproc
 630              		@ args = 0, pretend = 0, frame = 0
 631              		@ frame_needed = 0, uses_anonymous_args = 0
 632              		@ link register save eliminated.
 633              	.LVL40:
 128:..\u8g2\csrc/u8g2_d_memory.c ****   static uint8_t buf[1152];
 129:..\u8g2\csrc/u8g2_d_memory.c ****   *page_cnt = 12;
 634              		.loc 1 129 0
 635 0000 0C23     		movs	r3, #12
 636 0002 0370     		strb	r3, [r0]
 130:..\u8g2\csrc/u8g2_d_memory.c ****   return buf;
 637              		.loc 1 130 0
 638 0004 0148     		ldr	r0, .L62
 639              	.LVL41:
 131:..\u8g2\csrc/u8g2_d_memory.c **** }
 640              		.loc 1 131 0
 641 0006 6030     		adds	r0, r0, #96
 642              		@ sp needed
 643 0008 7047     		bx	lr
 644              	.L63:
 645 000a C046     		.align	2
 646              	.L62:
 647 000c 801C0000 		.word	.LANCHOR19
 648              		.cfi_endproc
 649              	.LFE20:
 650              		.size	u8g2_m_ssd1327_12_f, .-u8g2_m_ssd1327_12_f
 651              		.section	.text.u8g2_m_ld7032_8_1,"ax",%progbits
 652              		.align	2
 653              		.global	u8g2_m_ld7032_8_1
 654              		.code	16
 655              		.thumb_func
 656              		.type	u8g2_m_ld7032_8_1, %function
 657              	u8g2_m_ld7032_8_1:
 658              	.LFB21:
 132:..\u8g2\csrc/u8g2_d_memory.c **** uint8_t *u8g2_m_ld7032_8_1(uint8_t *page_cnt)
 133:..\u8g2\csrc/u8g2_d_memory.c **** {
 659              		.loc 1 133 0
 660              		.cfi_startproc
 661              		@ args = 0, pretend = 0, frame = 0
 662              		@ frame_needed = 0, uses_anonymous_args = 0
 663              		@ link register save eliminated.
 664              	.LVL42:
 134:..\u8g2\csrc/u8g2_d_memory.c ****   static uint8_t buf[64];
ARM GAS  C:\Users\gjl\AppData\Local\Temp\ccNm9gHl.s 			page 15


 135:..\u8g2\csrc/u8g2_d_memory.c ****   *page_cnt = 1;
 665              		.loc 1 135 0
 666 0000 0123     		movs	r3, #1
 667 0002 0370     		strb	r3, [r0]
 136:..\u8g2\csrc/u8g2_d_memory.c ****   return buf;
 668              		.loc 1 136 0
 669 0004 0148     		ldr	r0, .L65
 670              	.LVL43:
 137:..\u8g2\csrc/u8g2_d_memory.c **** }
 671              		.loc 1 137 0
 672 0006 6030     		adds	r0, r0, #96
 673              		@ sp needed
 674 0008 7047     		bx	lr
 675              	.L66:
 676 000a C046     		.align	2
 677              	.L65:
 678 000c 00210000 		.word	.LANCHOR20
 679              		.cfi_endproc
 680              	.LFE21:
 681              		.size	u8g2_m_ld7032_8_1, .-u8g2_m_ld7032_8_1
 682              		.section	.text.u8g2_m_ld7032_8_2,"ax",%progbits
 683              		.align	2
 684              		.global	u8g2_m_ld7032_8_2
 685              		.code	16
 686              		.thumb_func
 687              		.type	u8g2_m_ld7032_8_2, %function
 688              	u8g2_m_ld7032_8_2:
 689              	.LFB22:
 138:..\u8g2\csrc/u8g2_d_memory.c **** uint8_t *u8g2_m_ld7032_8_2(uint8_t *page_cnt)
 139:..\u8g2\csrc/u8g2_d_memory.c **** {
 690              		.loc 1 139 0
 691              		.cfi_startproc
 692              		@ args = 0, pretend = 0, frame = 0
 693              		@ frame_needed = 0, uses_anonymous_args = 0
 694              		@ link register save eliminated.
 695              	.LVL44:
 140:..\u8g2\csrc/u8g2_d_memory.c ****   static uint8_t buf[128];
 141:..\u8g2\csrc/u8g2_d_memory.c ****   *page_cnt = 2;
 696              		.loc 1 141 0
 697 0000 0223     		movs	r3, #2
 698 0002 0370     		strb	r3, [r0]
 142:..\u8g2\csrc/u8g2_d_memory.c ****   return buf;
 699              		.loc 1 142 0
 700 0004 0148     		ldr	r0, .L68
 701              	.LVL45:
 143:..\u8g2\csrc/u8g2_d_memory.c **** }
 702              		.loc 1 143 0
 703 0006 2030     		adds	r0, r0, #32
 704              		@ sp needed
 705 0008 7047     		bx	lr
 706              	.L69:
 707 000a C046     		.align	2
 708              	.L68:
 709 000c 80210000 		.word	.LANCHOR21
 710              		.cfi_endproc
 711              	.LFE22:
 712              		.size	u8g2_m_ld7032_8_2, .-u8g2_m_ld7032_8_2
ARM GAS  C:\Users\gjl\AppData\Local\Temp\ccNm9gHl.s 			page 16


 713              		.section	.text.u8g2_m_ld7032_8_f,"ax",%progbits
 714              		.align	2
 715              		.global	u8g2_m_ld7032_8_f
 716              		.code	16
 717              		.thumb_func
 718              		.type	u8g2_m_ld7032_8_f, %function
 719              	u8g2_m_ld7032_8_f:
 720              	.LFB23:
 144:..\u8g2\csrc/u8g2_d_memory.c **** uint8_t *u8g2_m_ld7032_8_f(uint8_t *page_cnt)
 145:..\u8g2\csrc/u8g2_d_memory.c **** {
 721              		.loc 1 145 0
 722              		.cfi_startproc
 723              		@ args = 0, pretend = 0, frame = 0
 724              		@ frame_needed = 0, uses_anonymous_args = 0
 725              		@ link register save eliminated.
 726              	.LVL46:
 146:..\u8g2\csrc/u8g2_d_memory.c ****   static uint8_t buf[256];
 147:..\u8g2\csrc/u8g2_d_memory.c ****   *page_cnt = 4;
 727              		.loc 1 147 0
 728 0000 0423     		movs	r3, #4
 729 0002 0370     		strb	r3, [r0]
 148:..\u8g2\csrc/u8g2_d_memory.c ****   return buf;
 730              		.loc 1 148 0
 731 0004 0148     		ldr	r0, .L71
 732              	.LVL47:
 149:..\u8g2\csrc/u8g2_d_memory.c **** }
 733              		.loc 1 149 0
 734 0006 2030     		adds	r0, r0, #32
 735              		@ sp needed
 736 0008 7047     		bx	lr
 737              	.L72:
 738 000a C046     		.align	2
 739              	.L71:
 740 000c 00220000 		.word	.LANCHOR22
 741              		.cfi_endproc
 742              	.LFE23:
 743              		.size	u8g2_m_ld7032_8_f, .-u8g2_m_ld7032_8_f
 744              		.section	.text.u8g2_m_st7920_24_1,"ax",%progbits
 745              		.align	2
 746              		.global	u8g2_m_st7920_24_1
 747              		.code	16
 748              		.thumb_func
 749              		.type	u8g2_m_st7920_24_1, %function
 750              	u8g2_m_st7920_24_1:
 751              	.LFB24:
 150:..\u8g2\csrc/u8g2_d_memory.c **** uint8_t *u8g2_m_st7920_24_1(uint8_t *page_cnt)
 151:..\u8g2\csrc/u8g2_d_memory.c **** {
 752              		.loc 1 151 0
 753              		.cfi_startproc
 754              		@ args = 0, pretend = 0, frame = 0
 755              		@ frame_needed = 0, uses_anonymous_args = 0
 756              		@ link register save eliminated.
 757              	.LVL48:
 152:..\u8g2\csrc/u8g2_d_memory.c ****   static uint8_t buf[192];
 153:..\u8g2\csrc/u8g2_d_memory.c ****   *page_cnt = 1;
 758              		.loc 1 153 0
 759 0000 0123     		movs	r3, #1
ARM GAS  C:\Users\gjl\AppData\Local\Temp\ccNm9gHl.s 			page 17


 760 0002 0370     		strb	r3, [r0]
 154:..\u8g2\csrc/u8g2_d_memory.c ****   return buf;
 761              		.loc 1 154 0
 762 0004 0148     		ldr	r0, .L74
 763              	.LVL49:
 155:..\u8g2\csrc/u8g2_d_memory.c **** }
 764              		.loc 1 155 0
 765 0006 2030     		adds	r0, r0, #32
 766              		@ sp needed
 767 0008 7047     		bx	lr
 768              	.L75:
 769 000a C046     		.align	2
 770              	.L74:
 771 000c 00230000 		.word	.LANCHOR23
 772              		.cfi_endproc
 773              	.LFE24:
 774              		.size	u8g2_m_st7920_24_1, .-u8g2_m_st7920_24_1
 775              		.section	.text.u8g2_m_st7920_24_2,"ax",%progbits
 776              		.align	2
 777              		.global	u8g2_m_st7920_24_2
 778              		.code	16
 779              		.thumb_func
 780              		.type	u8g2_m_st7920_24_2, %function
 781              	u8g2_m_st7920_24_2:
 782              	.LFB25:
 156:..\u8g2\csrc/u8g2_d_memory.c **** uint8_t *u8g2_m_st7920_24_2(uint8_t *page_cnt)
 157:..\u8g2\csrc/u8g2_d_memory.c **** {
 783              		.loc 1 157 0
 784              		.cfi_startproc
 785              		@ args = 0, pretend = 0, frame = 0
 786              		@ frame_needed = 0, uses_anonymous_args = 0
 787              		@ link register save eliminated.
 788              	.LVL50:
 158:..\u8g2\csrc/u8g2_d_memory.c ****   static uint8_t buf[384];
 159:..\u8g2\csrc/u8g2_d_memory.c ****   *page_cnt = 2;
 789              		.loc 1 159 0
 790 0000 0223     		movs	r3, #2
 791 0002 0370     		strb	r3, [r0]
 160:..\u8g2\csrc/u8g2_d_memory.c ****   return buf;
 792              		.loc 1 160 0
 793 0004 0148     		ldr	r0, .L77
 794              	.LVL51:
 161:..\u8g2\csrc/u8g2_d_memory.c **** }
 795              		.loc 1 161 0
 796 0006 6030     		adds	r0, r0, #96
 797              		@ sp needed
 798 0008 7047     		bx	lr
 799              	.L78:
 800 000a C046     		.align	2
 801              	.L77:
 802 000c 80230000 		.word	.LANCHOR24
 803              		.cfi_endproc
 804              	.LFE25:
 805              		.size	u8g2_m_st7920_24_2, .-u8g2_m_st7920_24_2
 806              		.section	.text.u8g2_m_st7920_24_f,"ax",%progbits
 807              		.align	2
 808              		.global	u8g2_m_st7920_24_f
ARM GAS  C:\Users\gjl\AppData\Local\Temp\ccNm9gHl.s 			page 18


 809              		.code	16
 810              		.thumb_func
 811              		.type	u8g2_m_st7920_24_f, %function
 812              	u8g2_m_st7920_24_f:
 813              	.LFB26:
 162:..\u8g2\csrc/u8g2_d_memory.c **** uint8_t *u8g2_m_st7920_24_f(uint8_t *page_cnt)
 163:..\u8g2\csrc/u8g2_d_memory.c **** {
 814              		.loc 1 163 0
 815              		.cfi_startproc
 816              		@ args = 0, pretend = 0, frame = 0
 817              		@ frame_needed = 0, uses_anonymous_args = 0
 818              		@ link register save eliminated.
 819              	.LVL52:
 164:..\u8g2\csrc/u8g2_d_memory.c ****   static uint8_t buf[768];
 165:..\u8g2\csrc/u8g2_d_memory.c ****   *page_cnt = 4;
 820              		.loc 1 165 0
 821 0000 0423     		movs	r3, #4
 822 0002 0370     		strb	r3, [r0]
 166:..\u8g2\csrc/u8g2_d_memory.c ****   return buf;
 823              		.loc 1 166 0
 824 0004 0148     		ldr	r0, .L80
 825              	.LVL53:
 167:..\u8g2\csrc/u8g2_d_memory.c **** }
 826              		.loc 1 167 0
 827 0006 6030     		adds	r0, r0, #96
 828              		@ sp needed
 829 0008 7047     		bx	lr
 830              	.L81:
 831 000a C046     		.align	2
 832              	.L80:
 833 000c 00250000 		.word	.LANCHOR25
 834              		.cfi_endproc
 835              	.LFE26:
 836              		.size	u8g2_m_st7920_24_f, .-u8g2_m_st7920_24_f
 837              		.section	.text.u8g2_m_st7920_16_1,"ax",%progbits
 838              		.align	2
 839              		.global	u8g2_m_st7920_16_1
 840              		.code	16
 841              		.thumb_func
 842              		.type	u8g2_m_st7920_16_1, %function
 843              	u8g2_m_st7920_16_1:
 844              	.LFB27:
 168:..\u8g2\csrc/u8g2_d_memory.c **** uint8_t *u8g2_m_st7920_16_1(uint8_t *page_cnt)
 169:..\u8g2\csrc/u8g2_d_memory.c **** {
 845              		.loc 1 169 0
 846              		.cfi_startproc
 847              		@ args = 0, pretend = 0, frame = 0
 848              		@ frame_needed = 0, uses_anonymous_args = 0
 849              		@ link register save eliminated.
 850              	.LVL54:
 170:..\u8g2\csrc/u8g2_d_memory.c ****   static uint8_t buf[128];
 171:..\u8g2\csrc/u8g2_d_memory.c ****   *page_cnt = 1;
 851              		.loc 1 171 0
 852 0000 0123     		movs	r3, #1
 853 0002 0370     		strb	r3, [r0]
 172:..\u8g2\csrc/u8g2_d_memory.c ****   return buf;
 854              		.loc 1 172 0
ARM GAS  C:\Users\gjl\AppData\Local\Temp\ccNm9gHl.s 			page 19


 855 0004 0148     		ldr	r0, .L83
 856              	.LVL55:
 173:..\u8g2\csrc/u8g2_d_memory.c **** }
 857              		.loc 1 173 0
 858 0006 6030     		adds	r0, r0, #96
 859              		@ sp needed
 860 0008 7047     		bx	lr
 861              	.L84:
 862 000a C046     		.align	2
 863              	.L83:
 864 000c 00280000 		.word	.LANCHOR26
 865              		.cfi_endproc
 866              	.LFE27:
 867              		.size	u8g2_m_st7920_16_1, .-u8g2_m_st7920_16_1
 868              		.section	.text.u8g2_m_st7920_16_2,"ax",%progbits
 869              		.align	2
 870              		.global	u8g2_m_st7920_16_2
 871              		.code	16
 872              		.thumb_func
 873              		.type	u8g2_m_st7920_16_2, %function
 874              	u8g2_m_st7920_16_2:
 875              	.LFB28:
 174:..\u8g2\csrc/u8g2_d_memory.c **** uint8_t *u8g2_m_st7920_16_2(uint8_t *page_cnt)
 175:..\u8g2\csrc/u8g2_d_memory.c **** {
 876              		.loc 1 175 0
 877              		.cfi_startproc
 878              		@ args = 0, pretend = 0, frame = 0
 879              		@ frame_needed = 0, uses_anonymous_args = 0
 880              		@ link register save eliminated.
 881              	.LVL56:
 176:..\u8g2\csrc/u8g2_d_memory.c ****   static uint8_t buf[256];
 177:..\u8g2\csrc/u8g2_d_memory.c ****   *page_cnt = 2;
 882              		.loc 1 177 0
 883 0000 0223     		movs	r3, #2
 884 0002 0370     		strb	r3, [r0]
 178:..\u8g2\csrc/u8g2_d_memory.c ****   return buf;
 885              		.loc 1 178 0
 886 0004 0148     		ldr	r0, .L86
 887              	.LVL57:
 179:..\u8g2\csrc/u8g2_d_memory.c **** }
 888              		.loc 1 179 0
 889 0006 6030     		adds	r0, r0, #96
 890              		@ sp needed
 891 0008 7047     		bx	lr
 892              	.L87:
 893 000a C046     		.align	2
 894              	.L86:
 895 000c 80280000 		.word	.LANCHOR27
 896              		.cfi_endproc
 897              	.LFE28:
 898              		.size	u8g2_m_st7920_16_2, .-u8g2_m_st7920_16_2
 899              		.section	.text.u8g2_m_st7920_16_f,"ax",%progbits
 900              		.align	2
 901              		.global	u8g2_m_st7920_16_f
 902              		.code	16
 903              		.thumb_func
 904              		.type	u8g2_m_st7920_16_f, %function
ARM GAS  C:\Users\gjl\AppData\Local\Temp\ccNm9gHl.s 			page 20


 905              	u8g2_m_st7920_16_f:
 906              	.LFB29:
 180:..\u8g2\csrc/u8g2_d_memory.c **** uint8_t *u8g2_m_st7920_16_f(uint8_t *page_cnt)
 181:..\u8g2\csrc/u8g2_d_memory.c **** {
 907              		.loc 1 181 0
 908              		.cfi_startproc
 909              		@ args = 0, pretend = 0, frame = 0
 910              		@ frame_needed = 0, uses_anonymous_args = 0
 911              		@ link register save eliminated.
 912              	.LVL58:
 182:..\u8g2\csrc/u8g2_d_memory.c ****   static uint8_t buf[1024];
 183:..\u8g2\csrc/u8g2_d_memory.c ****   *page_cnt = 8;
 913              		.loc 1 183 0
 914 0000 0823     		movs	r3, #8
 915 0002 0370     		strb	r3, [r0]
 184:..\u8g2\csrc/u8g2_d_memory.c ****   return buf;
 916              		.loc 1 184 0
 917 0004 0148     		ldr	r0, .L89
 918              	.LVL59:
 185:..\u8g2\csrc/u8g2_d_memory.c **** }
 919              		.loc 1 185 0
 920 0006 6030     		adds	r0, r0, #96
 921              		@ sp needed
 922 0008 7047     		bx	lr
 923              	.L90:
 924 000a C046     		.align	2
 925              	.L89:
 926 000c 80290000 		.word	.LANCHOR28
 927              		.cfi_endproc
 928              	.LFE29:
 929              		.size	u8g2_m_st7920_16_f, .-u8g2_m_st7920_16_f
 930              		.section	.text.u8g2_m_ls013b7dh03_16_1,"ax",%progbits
 931              		.align	2
 932              		.global	u8g2_m_ls013b7dh03_16_1
 933              		.code	16
 934              		.thumb_func
 935              		.type	u8g2_m_ls013b7dh03_16_1, %function
 936              	u8g2_m_ls013b7dh03_16_1:
 937              	.LFB30:
 186:..\u8g2\csrc/u8g2_d_memory.c **** uint8_t *u8g2_m_ls013b7dh03_16_1(uint8_t *page_cnt)
 187:..\u8g2\csrc/u8g2_d_memory.c **** {
 938              		.loc 1 187 0
 939              		.cfi_startproc
 940              		@ args = 0, pretend = 0, frame = 0
 941              		@ frame_needed = 0, uses_anonymous_args = 0
 942              		@ link register save eliminated.
 943              	.LVL60:
 188:..\u8g2\csrc/u8g2_d_memory.c ****   static uint8_t buf[128];
 189:..\u8g2\csrc/u8g2_d_memory.c ****   *page_cnt = 1;
 944              		.loc 1 189 0
 945 0000 0123     		movs	r3, #1
 946 0002 0370     		strb	r3, [r0]
 190:..\u8g2\csrc/u8g2_d_memory.c ****   return buf;
 947              		.loc 1 190 0
 948 0004 0148     		ldr	r0, .L92
 949              	.LVL61:
 191:..\u8g2\csrc/u8g2_d_memory.c **** }
ARM GAS  C:\Users\gjl\AppData\Local\Temp\ccNm9gHl.s 			page 21


 950              		.loc 1 191 0
 951 0006 6030     		adds	r0, r0, #96
 952              		@ sp needed
 953 0008 7047     		bx	lr
 954              	.L93:
 955 000a C046     		.align	2
 956              	.L92:
 957 000c 802D0000 		.word	.LANCHOR29
 958              		.cfi_endproc
 959              	.LFE30:
 960              		.size	u8g2_m_ls013b7dh03_16_1, .-u8g2_m_ls013b7dh03_16_1
 961              		.section	.text.u8g2_m_ls013b7dh03_16_2,"ax",%progbits
 962              		.align	2
 963              		.global	u8g2_m_ls013b7dh03_16_2
 964              		.code	16
 965              		.thumb_func
 966              		.type	u8g2_m_ls013b7dh03_16_2, %function
 967              	u8g2_m_ls013b7dh03_16_2:
 968              	.LFB31:
 192:..\u8g2\csrc/u8g2_d_memory.c **** uint8_t *u8g2_m_ls013b7dh03_16_2(uint8_t *page_cnt)
 193:..\u8g2\csrc/u8g2_d_memory.c **** {
 969              		.loc 1 193 0
 970              		.cfi_startproc
 971              		@ args = 0, pretend = 0, frame = 0
 972              		@ frame_needed = 0, uses_anonymous_args = 0
 973              		@ link register save eliminated.
 974              	.LVL62:
 194:..\u8g2\csrc/u8g2_d_memory.c ****   static uint8_t buf[256];
 195:..\u8g2\csrc/u8g2_d_memory.c ****   *page_cnt = 2;
 975              		.loc 1 195 0
 976 0000 0223     		movs	r3, #2
 977 0002 0370     		strb	r3, [r0]
 196:..\u8g2\csrc/u8g2_d_memory.c ****   return buf;
 978              		.loc 1 196 0
 979 0004 0148     		ldr	r0, .L95
 980              	.LVL63:
 197:..\u8g2\csrc/u8g2_d_memory.c **** }
 981              		.loc 1 197 0
 982 0006 6030     		adds	r0, r0, #96
 983              		@ sp needed
 984 0008 7047     		bx	lr
 985              	.L96:
 986 000a C046     		.align	2
 987              	.L95:
 988 000c 002E0000 		.word	.LANCHOR30
 989              		.cfi_endproc
 990              	.LFE31:
 991              		.size	u8g2_m_ls013b7dh03_16_2, .-u8g2_m_ls013b7dh03_16_2
 992              		.section	.text.u8g2_m_ls013b7dh03_16_f,"ax",%progbits
 993              		.align	2
 994              		.global	u8g2_m_ls013b7dh03_16_f
 995              		.code	16
 996              		.thumb_func
 997              		.type	u8g2_m_ls013b7dh03_16_f, %function
 998              	u8g2_m_ls013b7dh03_16_f:
 999              	.LFB32:
 198:..\u8g2\csrc/u8g2_d_memory.c **** uint8_t *u8g2_m_ls013b7dh03_16_f(uint8_t *page_cnt)
ARM GAS  C:\Users\gjl\AppData\Local\Temp\ccNm9gHl.s 			page 22


 199:..\u8g2\csrc/u8g2_d_memory.c **** {
 1000              		.loc 1 199 0
 1001              		.cfi_startproc
 1002              		@ args = 0, pretend = 0, frame = 0
 1003              		@ frame_needed = 0, uses_anonymous_args = 0
 1004              		@ link register save eliminated.
 1005              	.LVL64:
 200:..\u8g2\csrc/u8g2_d_memory.c ****   static uint8_t buf[2048];
 201:..\u8g2\csrc/u8g2_d_memory.c ****   *page_cnt = 16;
 1006              		.loc 1 201 0
 1007 0000 1023     		movs	r3, #16
 1008 0002 0370     		strb	r3, [r0]
 202:..\u8g2\csrc/u8g2_d_memory.c ****   return buf;
 1009              		.loc 1 202 0
 1010 0004 0148     		ldr	r0, .L98
 1011              	.LVL65:
 203:..\u8g2\csrc/u8g2_d_memory.c **** }
 1012              		.loc 1 203 0
 1013 0006 6030     		adds	r0, r0, #96
 1014              		@ sp needed
 1015 0008 7047     		bx	lr
 1016              	.L99:
 1017 000a C046     		.align	2
 1018              	.L98:
 1019 000c 002F0000 		.word	.LANCHOR31
 1020              		.cfi_endproc
 1021              	.LFE32:
 1022              		.size	u8g2_m_ls013b7dh03_16_f, .-u8g2_m_ls013b7dh03_16_f
 1023              		.section	.text.u8g2_m_uc1701_13_1,"ax",%progbits
 1024              		.align	2
 1025              		.global	u8g2_m_uc1701_13_1
 1026              		.code	16
 1027              		.thumb_func
 1028              		.type	u8g2_m_uc1701_13_1, %function
 1029              	u8g2_m_uc1701_13_1:
 1030              	.LFB33:
 204:..\u8g2\csrc/u8g2_d_memory.c **** uint8_t *u8g2_m_uc1701_13_1(uint8_t *page_cnt)
 205:..\u8g2\csrc/u8g2_d_memory.c **** {
 1031              		.loc 1 205 0
 1032              		.cfi_startproc
 1033              		@ args = 0, pretend = 0, frame = 0
 1034              		@ frame_needed = 0, uses_anonymous_args = 0
 1035              		@ link register save eliminated.
 1036              	.LVL66:
 206:..\u8g2\csrc/u8g2_d_memory.c ****   static uint8_t buf[104];
 207:..\u8g2\csrc/u8g2_d_memory.c ****   *page_cnt = 1;
 1037              		.loc 1 207 0
 1038 0000 0123     		movs	r3, #1
 1039 0002 0370     		strb	r3, [r0]
 208:..\u8g2\csrc/u8g2_d_memory.c ****   return buf;
 1040              		.loc 1 208 0
 1041 0004 0148     		ldr	r0, .L101
 1042              	.LVL67:
 209:..\u8g2\csrc/u8g2_d_memory.c **** }
 1043              		.loc 1 209 0
 1044 0006 6030     		adds	r0, r0, #96
 1045              		@ sp needed
ARM GAS  C:\Users\gjl\AppData\Local\Temp\ccNm9gHl.s 			page 23


 1046 0008 7047     		bx	lr
 1047              	.L102:
 1048 000a C046     		.align	2
 1049              	.L101:
 1050 000c 00370000 		.word	.LANCHOR32
 1051              		.cfi_endproc
 1052              	.LFE33:
 1053              		.size	u8g2_m_uc1701_13_1, .-u8g2_m_uc1701_13_1
 1054              		.section	.text.u8g2_m_uc1701_13_2,"ax",%progbits
 1055              		.align	2
 1056              		.global	u8g2_m_uc1701_13_2
 1057              		.code	16
 1058              		.thumb_func
 1059              		.type	u8g2_m_uc1701_13_2, %function
 1060              	u8g2_m_uc1701_13_2:
 1061              	.LFB34:
 210:..\u8g2\csrc/u8g2_d_memory.c **** uint8_t *u8g2_m_uc1701_13_2(uint8_t *page_cnt)
 211:..\u8g2\csrc/u8g2_d_memory.c **** {
 1062              		.loc 1 211 0
 1063              		.cfi_startproc
 1064              		@ args = 0, pretend = 0, frame = 0
 1065              		@ frame_needed = 0, uses_anonymous_args = 0
 1066              		@ link register save eliminated.
 1067              	.LVL68:
 212:..\u8g2\csrc/u8g2_d_memory.c ****   static uint8_t buf[208];
 213:..\u8g2\csrc/u8g2_d_memory.c ****   *page_cnt = 2;
 1068              		.loc 1 213 0
 1069 0000 0223     		movs	r3, #2
 1070 0002 0370     		strb	r3, [r0]
 214:..\u8g2\csrc/u8g2_d_memory.c ****   return buf;
 1071              		.loc 1 214 0
 1072 0004 0148     		ldr	r0, .L104
 1073              	.LVL69:
 215:..\u8g2\csrc/u8g2_d_memory.c **** }
 1074              		.loc 1 215 0
 1075 0006 4830     		adds	r0, r0, #72
 1076              		@ sp needed
 1077 0008 7047     		bx	lr
 1078              	.L105:
 1079 000a C046     		.align	2
 1080              	.L104:
 1081 000c 80370000 		.word	.LANCHOR33
 1082              		.cfi_endproc
 1083              	.LFE34:
 1084              		.size	u8g2_m_uc1701_13_2, .-u8g2_m_uc1701_13_2
 1085              		.section	.text.u8g2_m_uc1701_13_f,"ax",%progbits
 1086              		.align	2
 1087              		.global	u8g2_m_uc1701_13_f
 1088              		.code	16
 1089              		.thumb_func
 1090              		.type	u8g2_m_uc1701_13_f, %function
 1091              	u8g2_m_uc1701_13_f:
 1092              	.LFB35:
 216:..\u8g2\csrc/u8g2_d_memory.c **** uint8_t *u8g2_m_uc1701_13_f(uint8_t *page_cnt)
 217:..\u8g2\csrc/u8g2_d_memory.c **** {
 1093              		.loc 1 217 0
 1094              		.cfi_startproc
ARM GAS  C:\Users\gjl\AppData\Local\Temp\ccNm9gHl.s 			page 24


 1095              		@ args = 0, pretend = 0, frame = 0
 1096              		@ frame_needed = 0, uses_anonymous_args = 0
 1097              		@ link register save eliminated.
 1098              	.LVL70:
 218:..\u8g2\csrc/u8g2_d_memory.c ****   static uint8_t buf[832];
 219:..\u8g2\csrc/u8g2_d_memory.c ****   *page_cnt = 8;
 1099              		.loc 1 219 0
 1100 0000 0823     		movs	r3, #8
 1101 0002 0370     		strb	r3, [r0]
 220:..\u8g2\csrc/u8g2_d_memory.c ****   return buf;
 1102              		.loc 1 220 0
 1103 0004 0148     		ldr	r0, .L107
 1104              	.LVL71:
 221:..\u8g2\csrc/u8g2_d_memory.c **** }
 1105              		.loc 1 221 0
 1106 0006 1830     		adds	r0, r0, #24
 1107              		@ sp needed
 1108 0008 7047     		bx	lr
 1109              	.L108:
 1110 000a C046     		.align	2
 1111              	.L107:
 1112 000c 80380000 		.word	.LANCHOR34
 1113              		.cfi_endproc
 1114              	.LFE35:
 1115              		.size	u8g2_m_uc1701_13_f, .-u8g2_m_uc1701_13_f
 1116              		.section	.text.u8g2_m_uc1701_16_1,"ax",%progbits
 1117              		.align	2
 1118              		.global	u8g2_m_uc1701_16_1
 1119              		.code	16
 1120              		.thumb_func
 1121              		.type	u8g2_m_uc1701_16_1, %function
 1122              	u8g2_m_uc1701_16_1:
 1123              	.LFB36:
 222:..\u8g2\csrc/u8g2_d_memory.c **** uint8_t *u8g2_m_uc1701_16_1(uint8_t *page_cnt)
 223:..\u8g2\csrc/u8g2_d_memory.c **** {
 1124              		.loc 1 223 0
 1125              		.cfi_startproc
 1126              		@ args = 0, pretend = 0, frame = 0
 1127              		@ frame_needed = 0, uses_anonymous_args = 0
 1128              		@ link register save eliminated.
 1129              	.LVL72:
 224:..\u8g2\csrc/u8g2_d_memory.c ****   static uint8_t buf[128];
 225:..\u8g2\csrc/u8g2_d_memory.c ****   *page_cnt = 1;
 1130              		.loc 1 225 0
 1131 0000 0123     		movs	r3, #1
 1132 0002 0370     		strb	r3, [r0]
 226:..\u8g2\csrc/u8g2_d_memory.c ****   return buf;
 1133              		.loc 1 226 0
 1134 0004 0148     		ldr	r0, .L110
 1135              	.LVL73:
 227:..\u8g2\csrc/u8g2_d_memory.c **** }
 1136              		.loc 1 227 0
 1137 0006 5830     		adds	r0, r0, #88
 1138              		@ sp needed
 1139 0008 7047     		bx	lr
 1140              	.L111:
 1141 000a C046     		.align	2
ARM GAS  C:\Users\gjl\AppData\Local\Temp\ccNm9gHl.s 			page 25


 1142              	.L110:
 1143 000c 803B0000 		.word	.LANCHOR35
 1144              		.cfi_endproc
 1145              	.LFE36:
 1146              		.size	u8g2_m_uc1701_16_1, .-u8g2_m_uc1701_16_1
 1147              		.section	.text.u8g2_m_uc1701_16_2,"ax",%progbits
 1148              		.align	2
 1149              		.global	u8g2_m_uc1701_16_2
 1150              		.code	16
 1151              		.thumb_func
 1152              		.type	u8g2_m_uc1701_16_2, %function
 1153              	u8g2_m_uc1701_16_2:
 1154              	.LFB37:
 228:..\u8g2\csrc/u8g2_d_memory.c **** uint8_t *u8g2_m_uc1701_16_2(uint8_t *page_cnt)
 229:..\u8g2\csrc/u8g2_d_memory.c **** {
 1155              		.loc 1 229 0
 1156              		.cfi_startproc
 1157              		@ args = 0, pretend = 0, frame = 0
 1158              		@ frame_needed = 0, uses_anonymous_args = 0
 1159              		@ link register save eliminated.
 1160              	.LVL74:
 230:..\u8g2\csrc/u8g2_d_memory.c ****   static uint8_t buf[256];
 231:..\u8g2\csrc/u8g2_d_memory.c ****   *page_cnt = 2;
 1161              		.loc 1 231 0
 1162 0000 0223     		movs	r3, #2
 1163 0002 0370     		strb	r3, [r0]
 232:..\u8g2\csrc/u8g2_d_memory.c ****   return buf;
 1164              		.loc 1 232 0
 1165 0004 0148     		ldr	r0, .L113
 1166              	.LVL75:
 233:..\u8g2\csrc/u8g2_d_memory.c **** }
 1167              		.loc 1 233 0
 1168 0006 5830     		adds	r0, r0, #88
 1169              		@ sp needed
 1170 0008 7047     		bx	lr
 1171              	.L114:
 1172 000a C046     		.align	2
 1173              	.L113:
 1174 000c 003C0000 		.word	.LANCHOR36
 1175              		.cfi_endproc
 1176              	.LFE37:
 1177              		.size	u8g2_m_uc1701_16_2, .-u8g2_m_uc1701_16_2
 1178              		.section	.text.u8g2_m_uc1701_16_f,"ax",%progbits
 1179              		.align	2
 1180              		.global	u8g2_m_uc1701_16_f
 1181              		.code	16
 1182              		.thumb_func
 1183              		.type	u8g2_m_uc1701_16_f, %function
 1184              	u8g2_m_uc1701_16_f:
 1185              	.LFB38:
 234:..\u8g2\csrc/u8g2_d_memory.c **** uint8_t *u8g2_m_uc1701_16_f(uint8_t *page_cnt)
 235:..\u8g2\csrc/u8g2_d_memory.c **** {
 1186              		.loc 1 235 0
 1187              		.cfi_startproc
 1188              		@ args = 0, pretend = 0, frame = 0
 1189              		@ frame_needed = 0, uses_anonymous_args = 0
 1190              		@ link register save eliminated.
ARM GAS  C:\Users\gjl\AppData\Local\Temp\ccNm9gHl.s 			page 26


 1191              	.LVL76:
 236:..\u8g2\csrc/u8g2_d_memory.c ****   static uint8_t buf[1024];
 237:..\u8g2\csrc/u8g2_d_memory.c ****   *page_cnt = 8;
 1192              		.loc 1 237 0
 1193 0000 0823     		movs	r3, #8
 1194 0002 0370     		strb	r3, [r0]
 238:..\u8g2\csrc/u8g2_d_memory.c ****   return buf;
 1195              		.loc 1 238 0
 1196 0004 0148     		ldr	r0, .L116
 1197              	.LVL77:
 239:..\u8g2\csrc/u8g2_d_memory.c **** }
 1198              		.loc 1 239 0
 1199 0006 5830     		adds	r0, r0, #88
 1200              		@ sp needed
 1201 0008 7047     		bx	lr
 1202              	.L117:
 1203 000a C046     		.align	2
 1204              	.L116:
 1205 000c 003D0000 		.word	.LANCHOR37
 1206              		.cfi_endproc
 1207              	.LFE38:
 1208              		.size	u8g2_m_uc1701_16_f, .-u8g2_m_uc1701_16_f
 1209              		.section	.text.u8g2_m_pcd8544_11_1,"ax",%progbits
 1210              		.align	2
 1211              		.global	u8g2_m_pcd8544_11_1
 1212              		.code	16
 1213              		.thumb_func
 1214              		.type	u8g2_m_pcd8544_11_1, %function
 1215              	u8g2_m_pcd8544_11_1:
 1216              	.LFB39:
 240:..\u8g2\csrc/u8g2_d_memory.c **** uint8_t *u8g2_m_pcd8544_11_1(uint8_t *page_cnt)
 241:..\u8g2\csrc/u8g2_d_memory.c **** {
 1217              		.loc 1 241 0
 1218              		.cfi_startproc
 1219              		@ args = 0, pretend = 0, frame = 0
 1220              		@ frame_needed = 0, uses_anonymous_args = 0
 1221              		@ link register save eliminated.
 1222              	.LVL78:
 242:..\u8g2\csrc/u8g2_d_memory.c ****   static uint8_t buf[88];
 243:..\u8g2\csrc/u8g2_d_memory.c ****   *page_cnt = 1;
 1223              		.loc 1 243 0
 1224 0000 0123     		movs	r3, #1
 1225 0002 0370     		strb	r3, [r0]
 244:..\u8g2\csrc/u8g2_d_memory.c ****   return buf;
 1226              		.loc 1 244 0
 1227 0004 0148     		ldr	r0, .L119
 1228              	.LVL79:
 245:..\u8g2\csrc/u8g2_d_memory.c **** }
 1229              		.loc 1 245 0
 1230 0006 5830     		adds	r0, r0, #88
 1231              		@ sp needed
 1232 0008 7047     		bx	lr
 1233              	.L120:
 1234 000a C046     		.align	2
 1235              	.L119:
 1236 000c 00410000 		.word	.LANCHOR38
 1237              		.cfi_endproc
ARM GAS  C:\Users\gjl\AppData\Local\Temp\ccNm9gHl.s 			page 27


 1238              	.LFE39:
 1239              		.size	u8g2_m_pcd8544_11_1, .-u8g2_m_pcd8544_11_1
 1240              		.section	.text.u8g2_m_pcd8544_11_2,"ax",%progbits
 1241              		.align	2
 1242              		.global	u8g2_m_pcd8544_11_2
 1243              		.code	16
 1244              		.thumb_func
 1245              		.type	u8g2_m_pcd8544_11_2, %function
 1246              	u8g2_m_pcd8544_11_2:
 1247              	.LFB40:
 246:..\u8g2\csrc/u8g2_d_memory.c **** uint8_t *u8g2_m_pcd8544_11_2(uint8_t *page_cnt)
 247:..\u8g2\csrc/u8g2_d_memory.c **** {
 1248              		.loc 1 247 0
 1249              		.cfi_startproc
 1250              		@ args = 0, pretend = 0, frame = 0
 1251              		@ frame_needed = 0, uses_anonymous_args = 0
 1252              		@ link register save eliminated.
 1253              	.LVL80:
 248:..\u8g2\csrc/u8g2_d_memory.c ****   static uint8_t buf[176];
 249:..\u8g2\csrc/u8g2_d_memory.c ****   *page_cnt = 2;
 1254              		.loc 1 249 0
 1255 0000 0223     		movs	r3, #2
 1256 0002 0370     		strb	r3, [r0]
 250:..\u8g2\csrc/u8g2_d_memory.c ****   return buf;
 1257              		.loc 1 250 0
 1258 0004 0148     		ldr	r0, .L122
 1259              	.LVL81:
 251:..\u8g2\csrc/u8g2_d_memory.c **** }
 1260              		.loc 1 251 0
 1261 0006 3030     		adds	r0, r0, #48
 1262              		@ sp needed
 1263 0008 7047     		bx	lr
 1264              	.L123:
 1265 000a C046     		.align	2
 1266              	.L122:
 1267 000c 80410000 		.word	.LANCHOR39
 1268              		.cfi_endproc
 1269              	.LFE40:
 1270              		.size	u8g2_m_pcd8544_11_2, .-u8g2_m_pcd8544_11_2
 1271              		.section	.text.u8g2_m_pcd8544_11_f,"ax",%progbits
 1272              		.align	2
 1273              		.global	u8g2_m_pcd8544_11_f
 1274              		.code	16
 1275              		.thumb_func
 1276              		.type	u8g2_m_pcd8544_11_f, %function
 1277              	u8g2_m_pcd8544_11_f:
 1278              	.LFB41:
 252:..\u8g2\csrc/u8g2_d_memory.c **** uint8_t *u8g2_m_pcd8544_11_f(uint8_t *page_cnt)
 253:..\u8g2\csrc/u8g2_d_memory.c **** {
 1279              		.loc 1 253 0
 1280              		.cfi_startproc
 1281              		@ args = 0, pretend = 0, frame = 0
 1282              		@ frame_needed = 0, uses_anonymous_args = 0
 1283              		@ link register save eliminated.
 1284              	.LVL82:
 254:..\u8g2\csrc/u8g2_d_memory.c ****   static uint8_t buf[528];
 255:..\u8g2\csrc/u8g2_d_memory.c ****   *page_cnt = 6;
ARM GAS  C:\Users\gjl\AppData\Local\Temp\ccNm9gHl.s 			page 28


 1285              		.loc 1 255 0
 1286 0000 0623     		movs	r3, #6
 1287 0002 0370     		strb	r3, [r0]
 256:..\u8g2\csrc/u8g2_d_memory.c ****   return buf;
 1288              		.loc 1 256 0
 1289 0004 0148     		ldr	r0, .L125
 1290              	.LVL83:
 257:..\u8g2\csrc/u8g2_d_memory.c **** }
 1291              		.loc 1 257 0
 1292 0006 6030     		adds	r0, r0, #96
 1293              		@ sp needed
 1294 0008 7047     		bx	lr
 1295              	.L126:
 1296 000a C046     		.align	2
 1297              	.L125:
 1298 000c 00420000 		.word	.LANCHOR40
 1299              		.cfi_endproc
 1300              	.LFE41:
 1301              		.size	u8g2_m_pcd8544_11_f, .-u8g2_m_pcd8544_11_f
 1302              		.section	.text.u8g2_m_pcf8812_12_1,"ax",%progbits
 1303              		.align	2
 1304              		.global	u8g2_m_pcf8812_12_1
 1305              		.code	16
 1306              		.thumb_func
 1307              		.type	u8g2_m_pcf8812_12_1, %function
 1308              	u8g2_m_pcf8812_12_1:
 1309              	.LFB42:
 258:..\u8g2\csrc/u8g2_d_memory.c **** uint8_t *u8g2_m_pcf8812_12_1(uint8_t *page_cnt)
 259:..\u8g2\csrc/u8g2_d_memory.c **** {
 1310              		.loc 1 259 0
 1311              		.cfi_startproc
 1312              		@ args = 0, pretend = 0, frame = 0
 1313              		@ frame_needed = 0, uses_anonymous_args = 0
 1314              		@ link register save eliminated.
 1315              	.LVL84:
 260:..\u8g2\csrc/u8g2_d_memory.c ****   static uint8_t buf[96];
 261:..\u8g2\csrc/u8g2_d_memory.c ****   *page_cnt = 1;
 1316              		.loc 1 261 0
 1317 0000 0123     		movs	r3, #1
 1318 0002 0370     		strb	r3, [r0]
 262:..\u8g2\csrc/u8g2_d_memory.c ****   return buf;
 1319              		.loc 1 262 0
 1320 0004 0148     		ldr	r0, .L128
 1321              	.LVL85:
 263:..\u8g2\csrc/u8g2_d_memory.c **** }
 1322              		.loc 1 263 0
 1323 0006 7030     		adds	r0, r0, #112
 1324              		@ sp needed
 1325 0008 7047     		bx	lr
 1326              	.L129:
 1327 000a C046     		.align	2
 1328              	.L128:
 1329 000c 00440000 		.word	.LANCHOR41
 1330              		.cfi_endproc
 1331              	.LFE42:
 1332              		.size	u8g2_m_pcf8812_12_1, .-u8g2_m_pcf8812_12_1
 1333              		.section	.text.u8g2_m_pcf8812_12_2,"ax",%progbits
ARM GAS  C:\Users\gjl\AppData\Local\Temp\ccNm9gHl.s 			page 29


 1334              		.align	2
 1335              		.global	u8g2_m_pcf8812_12_2
 1336              		.code	16
 1337              		.thumb_func
 1338              		.type	u8g2_m_pcf8812_12_2, %function
 1339              	u8g2_m_pcf8812_12_2:
 1340              	.LFB43:
 264:..\u8g2\csrc/u8g2_d_memory.c **** uint8_t *u8g2_m_pcf8812_12_2(uint8_t *page_cnt)
 265:..\u8g2\csrc/u8g2_d_memory.c **** {
 1341              		.loc 1 265 0
 1342              		.cfi_startproc
 1343              		@ args = 0, pretend = 0, frame = 0
 1344              		@ frame_needed = 0, uses_anonymous_args = 0
 1345              		@ link register save eliminated.
 1346              	.LVL86:
 266:..\u8g2\csrc/u8g2_d_memory.c ****   static uint8_t buf[192];
 267:..\u8g2\csrc/u8g2_d_memory.c ****   *page_cnt = 2;
 1347              		.loc 1 267 0
 1348 0000 0223     		movs	r3, #2
 1349 0002 0370     		strb	r3, [r0]
 268:..\u8g2\csrc/u8g2_d_memory.c ****   return buf;
 1350              		.loc 1 268 0
 1351 0004 0148     		ldr	r0, .L131
 1352              	.LVL87:
 269:..\u8g2\csrc/u8g2_d_memory.c **** }
 1353              		.loc 1 269 0
 1354 0006 5030     		adds	r0, r0, #80
 1355              		@ sp needed
 1356 0008 7047     		bx	lr
 1357              	.L132:
 1358 000a C046     		.align	2
 1359              	.L131:
 1360 000c 80440000 		.word	.LANCHOR42
 1361              		.cfi_endproc
 1362              	.LFE43:
 1363              		.size	u8g2_m_pcf8812_12_2, .-u8g2_m_pcf8812_12_2
 1364              		.section	.text.u8g2_m_pcf8812_12_f,"ax",%progbits
 1365              		.align	2
 1366              		.global	u8g2_m_pcf8812_12_f
 1367              		.code	16
 1368              		.thumb_func
 1369              		.type	u8g2_m_pcf8812_12_f, %function
 1370              	u8g2_m_pcf8812_12_f:
 1371              	.LFB44:
 270:..\u8g2\csrc/u8g2_d_memory.c **** uint8_t *u8g2_m_pcf8812_12_f(uint8_t *page_cnt)
 271:..\u8g2\csrc/u8g2_d_memory.c **** {
 1372              		.loc 1 271 0
 1373              		.cfi_startproc
 1374              		@ args = 0, pretend = 0, frame = 0
 1375              		@ frame_needed = 0, uses_anonymous_args = 0
 1376              		@ link register save eliminated.
 1377              	.LVL88:
 272:..\u8g2\csrc/u8g2_d_memory.c ****   static uint8_t buf[864];
 273:..\u8g2\csrc/u8g2_d_memory.c ****   *page_cnt = 9;
 1378              		.loc 1 273 0
 1379 0000 0923     		movs	r3, #9
 1380 0002 0370     		strb	r3, [r0]
ARM GAS  C:\Users\gjl\AppData\Local\Temp\ccNm9gHl.s 			page 30


 274:..\u8g2\csrc/u8g2_d_memory.c ****   return buf;
 1381              		.loc 1 274 0
 1382 0004 0148     		ldr	r0, .L134
 1383              	.LVL89:
 275:..\u8g2\csrc/u8g2_d_memory.c **** }
 1384              		.loc 1 275 0
 1385 0006 1030     		adds	r0, r0, #16
 1386              		@ sp needed
 1387 0008 7047     		bx	lr
 1388              	.L135:
 1389 000a C046     		.align	2
 1390              	.L134:
 1391 000c 80450000 		.word	.LANCHOR43
 1392              		.cfi_endproc
 1393              	.LFE44:
 1394              		.size	u8g2_m_pcf8812_12_f, .-u8g2_m_pcf8812_12_f
 1395              		.section	.text.u8g2_m_uc1604_24_1,"ax",%progbits
 1396              		.align	2
 1397              		.global	u8g2_m_uc1604_24_1
 1398              		.code	16
 1399              		.thumb_func
 1400              		.type	u8g2_m_uc1604_24_1, %function
 1401              	u8g2_m_uc1604_24_1:
 1402              	.LFB45:
 276:..\u8g2\csrc/u8g2_d_memory.c **** uint8_t *u8g2_m_uc1604_24_1(uint8_t *page_cnt)
 277:..\u8g2\csrc/u8g2_d_memory.c **** {
 1403              		.loc 1 277 0
 1404              		.cfi_startproc
 1405              		@ args = 0, pretend = 0, frame = 0
 1406              		@ frame_needed = 0, uses_anonymous_args = 0
 1407              		@ link register save eliminated.
 1408              	.LVL90:
 278:..\u8g2\csrc/u8g2_d_memory.c ****   static uint8_t buf[192];
 279:..\u8g2\csrc/u8g2_d_memory.c ****   *page_cnt = 1;
 1409              		.loc 1 279 0
 1410 0000 0123     		movs	r3, #1
 1411 0002 0370     		strb	r3, [r0]
 280:..\u8g2\csrc/u8g2_d_memory.c ****   return buf;
 1412              		.loc 1 280 0
 1413 0004 0148     		ldr	r0, .L137
 1414              	.LVL91:
 281:..\u8g2\csrc/u8g2_d_memory.c **** }
 1415              		.loc 1 281 0
 1416 0006 7030     		adds	r0, r0, #112
 1417              		@ sp needed
 1418 0008 7047     		bx	lr
 1419              	.L138:
 1420 000a C046     		.align	2
 1421              	.L137:
 1422 000c 80480000 		.word	.LANCHOR44
 1423              		.cfi_endproc
 1424              	.LFE45:
 1425              		.size	u8g2_m_uc1604_24_1, .-u8g2_m_uc1604_24_1
 1426              		.section	.text.u8g2_m_uc1604_24_2,"ax",%progbits
 1427              		.align	2
 1428              		.global	u8g2_m_uc1604_24_2
 1429              		.code	16
ARM GAS  C:\Users\gjl\AppData\Local\Temp\ccNm9gHl.s 			page 31


 1430              		.thumb_func
 1431              		.type	u8g2_m_uc1604_24_2, %function
 1432              	u8g2_m_uc1604_24_2:
 1433              	.LFB46:
 282:..\u8g2\csrc/u8g2_d_memory.c **** uint8_t *u8g2_m_uc1604_24_2(uint8_t *page_cnt)
 283:..\u8g2\csrc/u8g2_d_memory.c **** {
 1434              		.loc 1 283 0
 1435              		.cfi_startproc
 1436              		@ args = 0, pretend = 0, frame = 0
 1437              		@ frame_needed = 0, uses_anonymous_args = 0
 1438              		@ link register save eliminated.
 1439              	.LVL92:
 284:..\u8g2\csrc/u8g2_d_memory.c ****   static uint8_t buf[384];
 285:..\u8g2\csrc/u8g2_d_memory.c ****   *page_cnt = 2;
 1440              		.loc 1 285 0
 1441 0000 0223     		movs	r3, #2
 1442 0002 0370     		strb	r3, [r0]
 286:..\u8g2\csrc/u8g2_d_memory.c ****   return buf;
 1443              		.loc 1 286 0
 1444 0004 0148     		ldr	r0, .L140
 1445              	.LVL93:
 287:..\u8g2\csrc/u8g2_d_memory.c **** }
 1446              		.loc 1 287 0
 1447 0006 3030     		adds	r0, r0, #48
 1448              		@ sp needed
 1449 0008 7047     		bx	lr
 1450              	.L141:
 1451 000a C046     		.align	2
 1452              	.L140:
 1453 000c 80490000 		.word	.LANCHOR45
 1454              		.cfi_endproc
 1455              	.LFE46:
 1456              		.size	u8g2_m_uc1604_24_2, .-u8g2_m_uc1604_24_2
 1457              		.section	.text.u8g2_m_uc1604_24_f,"ax",%progbits
 1458              		.align	2
 1459              		.global	u8g2_m_uc1604_24_f
 1460              		.code	16
 1461              		.thumb_func
 1462              		.type	u8g2_m_uc1604_24_f, %function
 1463              	u8g2_m_uc1604_24_f:
 1464              	.LFB47:
 288:..\u8g2\csrc/u8g2_d_memory.c **** uint8_t *u8g2_m_uc1604_24_f(uint8_t *page_cnt)
 289:..\u8g2\csrc/u8g2_d_memory.c **** {
 1465              		.loc 1 289 0
 1466              		.cfi_startproc
 1467              		@ args = 0, pretend = 0, frame = 0
 1468              		@ frame_needed = 0, uses_anonymous_args = 0
 1469              		@ link register save eliminated.
 1470              	.LVL94:
 290:..\u8g2\csrc/u8g2_d_memory.c ****   static uint8_t buf[1536];
 291:..\u8g2\csrc/u8g2_d_memory.c ****   *page_cnt = 8;
 1471              		.loc 1 291 0
 1472 0000 0823     		movs	r3, #8
 1473 0002 0370     		strb	r3, [r0]
 292:..\u8g2\csrc/u8g2_d_memory.c ****   return buf;
 1474              		.loc 1 292 0
 1475 0004 0148     		ldr	r0, .L143
ARM GAS  C:\Users\gjl\AppData\Local\Temp\ccNm9gHl.s 			page 32


 1476              	.LVL95:
 293:..\u8g2\csrc/u8g2_d_memory.c **** }
 1477              		.loc 1 293 0
 1478 0006 3030     		adds	r0, r0, #48
 1479              		@ sp needed
 1480 0008 7047     		bx	lr
 1481              	.L144:
 1482 000a C046     		.align	2
 1483              	.L143:
 1484 000c 004B0000 		.word	.LANCHOR46
 1485              		.cfi_endproc
 1486              	.LFE47:
 1487              		.size	u8g2_m_uc1604_24_f, .-u8g2_m_uc1604_24_f
 1488              		.section	.text.u8g2_m_uc1608_30_1,"ax",%progbits
 1489              		.align	2
 1490              		.global	u8g2_m_uc1608_30_1
 1491              		.code	16
 1492              		.thumb_func
 1493              		.type	u8g2_m_uc1608_30_1, %function
 1494              	u8g2_m_uc1608_30_1:
 1495              	.LFB48:
 294:..\u8g2\csrc/u8g2_d_memory.c **** uint8_t *u8g2_m_uc1608_30_1(uint8_t *page_cnt)
 295:..\u8g2\csrc/u8g2_d_memory.c **** {
 1496              		.loc 1 295 0
 1497              		.cfi_startproc
 1498              		@ args = 0, pretend = 0, frame = 0
 1499              		@ frame_needed = 0, uses_anonymous_args = 0
 1500              		@ link register save eliminated.
 1501              	.LVL96:
 296:..\u8g2\csrc/u8g2_d_memory.c ****   static uint8_t buf[240];
 297:..\u8g2\csrc/u8g2_d_memory.c ****   *page_cnt = 1;
 1502              		.loc 1 297 0
 1503 0000 0123     		movs	r3, #1
 1504 0002 0370     		strb	r3, [r0]
 298:..\u8g2\csrc/u8g2_d_memory.c ****   return buf;
 1505              		.loc 1 298 0
 1506 0004 0148     		ldr	r0, .L146
 1507              	.LVL97:
 299:..\u8g2\csrc/u8g2_d_memory.c **** }
 1508              		.loc 1 299 0
 1509 0006 3030     		adds	r0, r0, #48
 1510              		@ sp needed
 1511 0008 7047     		bx	lr
 1512              	.L147:
 1513 000a C046     		.align	2
 1514              	.L146:
 1515 000c 00510000 		.word	.LANCHOR47
 1516              		.cfi_endproc
 1517              	.LFE48:
 1518              		.size	u8g2_m_uc1608_30_1, .-u8g2_m_uc1608_30_1
 1519              		.section	.text.u8g2_m_uc1608_30_2,"ax",%progbits
 1520              		.align	2
 1521              		.global	u8g2_m_uc1608_30_2
 1522              		.code	16
 1523              		.thumb_func
 1524              		.type	u8g2_m_uc1608_30_2, %function
 1525              	u8g2_m_uc1608_30_2:
ARM GAS  C:\Users\gjl\AppData\Local\Temp\ccNm9gHl.s 			page 33


 1526              	.LFB49:
 300:..\u8g2\csrc/u8g2_d_memory.c **** uint8_t *u8g2_m_uc1608_30_2(uint8_t *page_cnt)
 301:..\u8g2\csrc/u8g2_d_memory.c **** {
 1527              		.loc 1 301 0
 1528              		.cfi_startproc
 1529              		@ args = 0, pretend = 0, frame = 0
 1530              		@ frame_needed = 0, uses_anonymous_args = 0
 1531              		@ link register save eliminated.
 1532              	.LVL98:
 302:..\u8g2\csrc/u8g2_d_memory.c ****   static uint8_t buf[480];
 303:..\u8g2\csrc/u8g2_d_memory.c ****   *page_cnt = 2;
 1533              		.loc 1 303 0
 1534 0000 0223     		movs	r3, #2
 1535 0002 0370     		strb	r3, [r0]
 304:..\u8g2\csrc/u8g2_d_memory.c ****   return buf;
 1536              		.loc 1 304 0
 1537 0004 0148     		ldr	r0, .L149
 1538              	.LVL99:
 305:..\u8g2\csrc/u8g2_d_memory.c **** }
 1539              		.loc 1 305 0
 1540 0006 2030     		adds	r0, r0, #32
 1541              		@ sp needed
 1542 0008 7047     		bx	lr
 1543              	.L150:
 1544 000a C046     		.align	2
 1545              	.L149:
 1546 000c 00520000 		.word	.LANCHOR48
 1547              		.cfi_endproc
 1548              	.LFE49:
 1549              		.size	u8g2_m_uc1608_30_2, .-u8g2_m_uc1608_30_2
 1550              		.section	.text.u8g2_m_uc1608_30_f,"ax",%progbits
 1551              		.align	2
 1552              		.global	u8g2_m_uc1608_30_f
 1553              		.code	16
 1554              		.thumb_func
 1555              		.type	u8g2_m_uc1608_30_f, %function
 1556              	u8g2_m_uc1608_30_f:
 1557              	.LFB50:
 306:..\u8g2\csrc/u8g2_d_memory.c **** uint8_t *u8g2_m_uc1608_30_f(uint8_t *page_cnt)
 307:..\u8g2\csrc/u8g2_d_memory.c **** {
 1558              		.loc 1 307 0
 1559              		.cfi_startproc
 1560              		@ args = 0, pretend = 0, frame = 0
 1561              		@ frame_needed = 0, uses_anonymous_args = 0
 1562              		@ link register save eliminated.
 1563              	.LVL100:
 308:..\u8g2\csrc/u8g2_d_memory.c ****   static uint8_t buf[1920];
 309:..\u8g2\csrc/u8g2_d_memory.c ****   *page_cnt = 8;
 1564              		.loc 1 309 0
 1565 0000 0823     		movs	r3, #8
 1566 0002 0370     		strb	r3, [r0]
 310:..\u8g2\csrc/u8g2_d_memory.c ****   return buf;
 311:..\u8g2\csrc/u8g2_d_memory.c **** }
 1567              		.loc 1 311 0
 1568 0004 0048     		ldr	r0, .L152
 1569              	.LVL101:
 1570              		@ sp needed
ARM GAS  C:\Users\gjl\AppData\Local\Temp\ccNm9gHl.s 			page 34


 1571 0006 7047     		bx	lr
 1572              	.L153:
 1573              		.align	2
 1574              	.L152:
 1575 0008 00540000 		.word	.LANCHOR49
 1576              		.cfi_endproc
 1577              	.LFE50:
 1578              		.size	u8g2_m_uc1608_30_f, .-u8g2_m_uc1608_30_f
 1579              		.section	.text.u8g2_m_uc1610_20_1,"ax",%progbits
 1580              		.align	2
 1581              		.global	u8g2_m_uc1610_20_1
 1582              		.code	16
 1583              		.thumb_func
 1584              		.type	u8g2_m_uc1610_20_1, %function
 1585              	u8g2_m_uc1610_20_1:
 1586              	.LFB51:
 312:..\u8g2\csrc/u8g2_d_memory.c **** uint8_t *u8g2_m_uc1610_20_1(uint8_t *page_cnt)
 313:..\u8g2\csrc/u8g2_d_memory.c **** {
 1587              		.loc 1 313 0
 1588              		.cfi_startproc
 1589              		@ args = 0, pretend = 0, frame = 0
 1590              		@ frame_needed = 0, uses_anonymous_args = 0
 1591              		@ link register save eliminated.
 1592              	.LVL102:
 314:..\u8g2\csrc/u8g2_d_memory.c ****   static uint8_t buf[160];
 315:..\u8g2\csrc/u8g2_d_memory.c ****   *page_cnt = 1;
 1593              		.loc 1 315 0
 1594 0000 0123     		movs	r3, #1
 1595 0002 0370     		strb	r3, [r0]
 316:..\u8g2\csrc/u8g2_d_memory.c ****   return buf;
 317:..\u8g2\csrc/u8g2_d_memory.c **** }
 1596              		.loc 1 317 0
 1597 0004 0048     		ldr	r0, .L155
 1598              	.LVL103:
 1599              		@ sp needed
 1600 0006 7047     		bx	lr
 1601              	.L156:
 1602              		.align	2
 1603              	.L155:
 1604 0008 805B0000 		.word	.LANCHOR50
 1605              		.cfi_endproc
 1606              	.LFE51:
 1607              		.size	u8g2_m_uc1610_20_1, .-u8g2_m_uc1610_20_1
 1608              		.section	.text.u8g2_m_uc1610_20_2,"ax",%progbits
 1609              		.align	2
 1610              		.global	u8g2_m_uc1610_20_2
 1611              		.code	16
 1612              		.thumb_func
 1613              		.type	u8g2_m_uc1610_20_2, %function
 1614              	u8g2_m_uc1610_20_2:
 1615              	.LFB52:
 318:..\u8g2\csrc/u8g2_d_memory.c **** uint8_t *u8g2_m_uc1610_20_2(uint8_t *page_cnt)
 319:..\u8g2\csrc/u8g2_d_memory.c **** {
 1616              		.loc 1 319 0
 1617              		.cfi_startproc
 1618              		@ args = 0, pretend = 0, frame = 0
 1619              		@ frame_needed = 0, uses_anonymous_args = 0
ARM GAS  C:\Users\gjl\AppData\Local\Temp\ccNm9gHl.s 			page 35


 1620              		@ link register save eliminated.
 1621              	.LVL104:
 320:..\u8g2\csrc/u8g2_d_memory.c ****   static uint8_t buf[320];
 321:..\u8g2\csrc/u8g2_d_memory.c ****   *page_cnt = 2;
 1622              		.loc 1 321 0
 1623 0000 0223     		movs	r3, #2
 1624 0002 0370     		strb	r3, [r0]
 322:..\u8g2\csrc/u8g2_d_memory.c ****   return buf;
 1625              		.loc 1 322 0
 1626 0004 0148     		ldr	r0, .L158
 1627              	.LVL105:
 323:..\u8g2\csrc/u8g2_d_memory.c **** }
 1628              		.loc 1 323 0
 1629 0006 2030     		adds	r0, r0, #32
 1630              		@ sp needed
 1631 0008 7047     		bx	lr
 1632              	.L159:
 1633 000a C046     		.align	2
 1634              	.L158:
 1635 000c 005C0000 		.word	.LANCHOR51
 1636              		.cfi_endproc
 1637              	.LFE52:
 1638              		.size	u8g2_m_uc1610_20_2, .-u8g2_m_uc1610_20_2
 1639              		.section	.text.u8g2_m_uc1610_20_f,"ax",%progbits
 1640              		.align	2
 1641              		.global	u8g2_m_uc1610_20_f
 1642              		.code	16
 1643              		.thumb_func
 1644              		.type	u8g2_m_uc1610_20_f, %function
 1645              	u8g2_m_uc1610_20_f:
 1646              	.LFB53:
 324:..\u8g2\csrc/u8g2_d_memory.c **** uint8_t *u8g2_m_uc1610_20_f(uint8_t *page_cnt)
 325:..\u8g2\csrc/u8g2_d_memory.c **** {
 1647              		.loc 1 325 0
 1648              		.cfi_startproc
 1649              		@ args = 0, pretend = 0, frame = 0
 1650              		@ frame_needed = 0, uses_anonymous_args = 0
 1651              		@ link register save eliminated.
 1652              	.LVL106:
 326:..\u8g2\csrc/u8g2_d_memory.c ****   static uint8_t buf[2080];
 327:..\u8g2\csrc/u8g2_d_memory.c ****   *page_cnt = 13;
 1653              		.loc 1 327 0
 1654 0000 0D23     		movs	r3, #13
 1655 0002 0370     		strb	r3, [r0]
 328:..\u8g2\csrc/u8g2_d_memory.c ****   return buf;
 1656              		.loc 1 328 0
 1657 0004 0148     		ldr	r0, .L161
 1658              	.LVL107:
 329:..\u8g2\csrc/u8g2_d_memory.c **** }
 1659              		.loc 1 329 0
 1660 0006 6030     		adds	r0, r0, #96
 1661              		@ sp needed
 1662 0008 7047     		bx	lr
 1663              	.L162:
 1664 000a C046     		.align	2
 1665              	.L161:
 1666 000c 005D0000 		.word	.LANCHOR52
ARM GAS  C:\Users\gjl\AppData\Local\Temp\ccNm9gHl.s 			page 36


 1667              		.cfi_endproc
 1668              	.LFE53:
 1669              		.size	u8g2_m_uc1610_20_f, .-u8g2_m_uc1610_20_f
 1670              		.section	.text.u8g2_m_uc1611_30_1,"ax",%progbits
 1671              		.align	2
 1672              		.global	u8g2_m_uc1611_30_1
 1673              		.code	16
 1674              		.thumb_func
 1675              		.type	u8g2_m_uc1611_30_1, %function
 1676              	u8g2_m_uc1611_30_1:
 1677              	.LFB54:
 330:..\u8g2\csrc/u8g2_d_memory.c **** uint8_t *u8g2_m_uc1611_30_1(uint8_t *page_cnt)
 331:..\u8g2\csrc/u8g2_d_memory.c **** {
 1678              		.loc 1 331 0
 1679              		.cfi_startproc
 1680              		@ args = 0, pretend = 0, frame = 0
 1681              		@ frame_needed = 0, uses_anonymous_args = 0
 1682              		@ link register save eliminated.
 1683              	.LVL108:
 332:..\u8g2\csrc/u8g2_d_memory.c ****   static uint8_t buf[240];
 333:..\u8g2\csrc/u8g2_d_memory.c ****   *page_cnt = 1;
 1684              		.loc 1 333 0
 1685 0000 0123     		movs	r3, #1
 1686 0002 0370     		strb	r3, [r0]
 334:..\u8g2\csrc/u8g2_d_memory.c ****   return buf;
 335:..\u8g2\csrc/u8g2_d_memory.c **** }
 1687              		.loc 1 335 0
 1688 0004 0048     		ldr	r0, .L164
 1689              	.LVL109:
 1690              		@ sp needed
 1691 0006 7047     		bx	lr
 1692              	.L165:
 1693              		.align	2
 1694              	.L164:
 1695 0008 80650000 		.word	.LANCHOR53
 1696              		.cfi_endproc
 1697              	.LFE54:
 1698              		.size	u8g2_m_uc1611_30_1, .-u8g2_m_uc1611_30_1
 1699              		.section	.text.u8g2_m_uc1611_30_2,"ax",%progbits
 1700              		.align	2
 1701              		.global	u8g2_m_uc1611_30_2
 1702              		.code	16
 1703              		.thumb_func
 1704              		.type	u8g2_m_uc1611_30_2, %function
 1705              	u8g2_m_uc1611_30_2:
 1706              	.LFB55:
 336:..\u8g2\csrc/u8g2_d_memory.c **** uint8_t *u8g2_m_uc1611_30_2(uint8_t *page_cnt)
 337:..\u8g2\csrc/u8g2_d_memory.c **** {
 1707              		.loc 1 337 0
 1708              		.cfi_startproc
 1709              		@ args = 0, pretend = 0, frame = 0
 1710              		@ frame_needed = 0, uses_anonymous_args = 0
 1711              		@ link register save eliminated.
 1712              	.LVL110:
 338:..\u8g2\csrc/u8g2_d_memory.c ****   static uint8_t buf[480];
 339:..\u8g2\csrc/u8g2_d_memory.c ****   *page_cnt = 2;
 1713              		.loc 1 339 0
ARM GAS  C:\Users\gjl\AppData\Local\Temp\ccNm9gHl.s 			page 37


 1714 0000 0223     		movs	r3, #2
 1715 0002 0370     		strb	r3, [r0]
 340:..\u8g2\csrc/u8g2_d_memory.c ****   return buf;
 1716              		.loc 1 340 0
 1717 0004 0148     		ldr	r0, .L167
 1718              	.LVL111:
 341:..\u8g2\csrc/u8g2_d_memory.c **** }
 1719              		.loc 1 341 0
 1720 0006 7030     		adds	r0, r0, #112
 1721              		@ sp needed
 1722 0008 7047     		bx	lr
 1723              	.L168:
 1724 000a C046     		.align	2
 1725              	.L167:
 1726 000c 00660000 		.word	.LANCHOR54
 1727              		.cfi_endproc
 1728              	.LFE55:
 1729              		.size	u8g2_m_uc1611_30_2, .-u8g2_m_uc1611_30_2
 1730              		.section	.text.u8g2_m_uc1611_30_f,"ax",%progbits
 1731              		.align	2
 1732              		.global	u8g2_m_uc1611_30_f
 1733              		.code	16
 1734              		.thumb_func
 1735              		.type	u8g2_m_uc1611_30_f, %function
 1736              	u8g2_m_uc1611_30_f:
 1737              	.LFB56:
 342:..\u8g2\csrc/u8g2_d_memory.c **** uint8_t *u8g2_m_uc1611_30_f(uint8_t *page_cnt)
 343:..\u8g2\csrc/u8g2_d_memory.c **** {
 1738              		.loc 1 343 0
 1739              		.cfi_startproc
 1740              		@ args = 0, pretend = 0, frame = 0
 1741              		@ frame_needed = 0, uses_anonymous_args = 0
 1742              		@ link register save eliminated.
 1743              	.LVL112:
 344:..\u8g2\csrc/u8g2_d_memory.c ****   static uint8_t buf[1920];
 345:..\u8g2\csrc/u8g2_d_memory.c ****   *page_cnt = 8;
 1744              		.loc 1 345 0
 1745 0000 0823     		movs	r3, #8
 1746 0002 0370     		strb	r3, [r0]
 346:..\u8g2\csrc/u8g2_d_memory.c ****   return buf;
 1747              		.loc 1 346 0
 1748 0004 0148     		ldr	r0, .L170
 1749              	.LVL113:
 347:..\u8g2\csrc/u8g2_d_memory.c **** }
 1750              		.loc 1 347 0
 1751 0006 5030     		adds	r0, r0, #80
 1752              		@ sp needed
 1753 0008 7047     		bx	lr
 1754              	.L171:
 1755 000a C046     		.align	2
 1756              	.L170:
 1757 000c 00680000 		.word	.LANCHOR55
 1758              		.cfi_endproc
 1759              	.LFE56:
 1760              		.size	u8g2_m_uc1611_30_f, .-u8g2_m_uc1611_30_f
 1761              		.section	.text.u8g2_m_st7565_16_1,"ax",%progbits
 1762              		.align	2
ARM GAS  C:\Users\gjl\AppData\Local\Temp\ccNm9gHl.s 			page 38


 1763              		.global	u8g2_m_st7565_16_1
 1764              		.code	16
 1765              		.thumb_func
 1766              		.type	u8g2_m_st7565_16_1, %function
 1767              	u8g2_m_st7565_16_1:
 1768              	.LFB57:
 348:..\u8g2\csrc/u8g2_d_memory.c **** uint8_t *u8g2_m_st7565_16_1(uint8_t *page_cnt)
 349:..\u8g2\csrc/u8g2_d_memory.c **** {
 1769              		.loc 1 349 0
 1770              		.cfi_startproc
 1771              		@ args = 0, pretend = 0, frame = 0
 1772              		@ frame_needed = 0, uses_anonymous_args = 0
 1773              		@ link register save eliminated.
 1774              	.LVL114:
 350:..\u8g2\csrc/u8g2_d_memory.c ****   static uint8_t buf[128];
 351:..\u8g2\csrc/u8g2_d_memory.c ****   *page_cnt = 1;
 1775              		.loc 1 351 0
 1776 0000 0123     		movs	r3, #1
 1777 0002 0370     		strb	r3, [r0]
 352:..\u8g2\csrc/u8g2_d_memory.c ****   return buf;
 1778              		.loc 1 352 0
 1779 0004 0148     		ldr	r0, .L173
 1780              	.LVL115:
 353:..\u8g2\csrc/u8g2_d_memory.c **** }
 1781              		.loc 1 353 0
 1782 0006 5030     		adds	r0, r0, #80
 1783              		@ sp needed
 1784 0008 7047     		bx	lr
 1785              	.L174:
 1786 000a C046     		.align	2
 1787              	.L173:
 1788 000c 806F0000 		.word	.LANCHOR56
 1789              		.cfi_endproc
 1790              	.LFE57:
 1791              		.size	u8g2_m_st7565_16_1, .-u8g2_m_st7565_16_1
 1792              		.section	.text.u8g2_m_st7565_16_2,"ax",%progbits
 1793              		.align	2
 1794              		.global	u8g2_m_st7565_16_2
 1795              		.code	16
 1796              		.thumb_func
 1797              		.type	u8g2_m_st7565_16_2, %function
 1798              	u8g2_m_st7565_16_2:
 1799              	.LFB58:
 354:..\u8g2\csrc/u8g2_d_memory.c **** uint8_t *u8g2_m_st7565_16_2(uint8_t *page_cnt)
 355:..\u8g2\csrc/u8g2_d_memory.c **** {
 1800              		.loc 1 355 0
 1801              		.cfi_startproc
 1802              		@ args = 0, pretend = 0, frame = 0
 1803              		@ frame_needed = 0, uses_anonymous_args = 0
 1804              		@ link register save eliminated.
 1805              	.LVL116:
 356:..\u8g2\csrc/u8g2_d_memory.c ****   static uint8_t buf[256];
 357:..\u8g2\csrc/u8g2_d_memory.c ****   *page_cnt = 2;
 1806              		.loc 1 357 0
 1807 0000 0223     		movs	r3, #2
 1808 0002 0370     		strb	r3, [r0]
 358:..\u8g2\csrc/u8g2_d_memory.c ****   return buf;
ARM GAS  C:\Users\gjl\AppData\Local\Temp\ccNm9gHl.s 			page 39


 1809              		.loc 1 358 0
 1810 0004 0148     		ldr	r0, .L176
 1811              	.LVL117:
 359:..\u8g2\csrc/u8g2_d_memory.c **** }
 1812              		.loc 1 359 0
 1813 0006 5030     		adds	r0, r0, #80
 1814              		@ sp needed
 1815 0008 7047     		bx	lr
 1816              	.L177:
 1817 000a C046     		.align	2
 1818              	.L176:
 1819 000c 00700000 		.word	.LANCHOR57
 1820              		.cfi_endproc
 1821              	.LFE58:
 1822              		.size	u8g2_m_st7565_16_2, .-u8g2_m_st7565_16_2
 1823              		.section	.text.u8g2_m_st7565_16_f,"ax",%progbits
 1824              		.align	2
 1825              		.global	u8g2_m_st7565_16_f
 1826              		.code	16
 1827              		.thumb_func
 1828              		.type	u8g2_m_st7565_16_f, %function
 1829              	u8g2_m_st7565_16_f:
 1830              	.LFB59:
 360:..\u8g2\csrc/u8g2_d_memory.c **** uint8_t *u8g2_m_st7565_16_f(uint8_t *page_cnt)
 361:..\u8g2\csrc/u8g2_d_memory.c **** {
 1831              		.loc 1 361 0
 1832              		.cfi_startproc
 1833              		@ args = 0, pretend = 0, frame = 0
 1834              		@ frame_needed = 0, uses_anonymous_args = 0
 1835              		@ link register save eliminated.
 1836              	.LVL118:
 362:..\u8g2\csrc/u8g2_d_memory.c ****   static uint8_t buf[1024];
 363:..\u8g2\csrc/u8g2_d_memory.c ****   *page_cnt = 8;
 1837              		.loc 1 363 0
 1838 0000 0823     		movs	r3, #8
 1839 0002 0370     		strb	r3, [r0]
 364:..\u8g2\csrc/u8g2_d_memory.c ****   return buf;
 1840              		.loc 1 364 0
 1841 0004 0148     		ldr	r0, .L179
 1842              	.LVL119:
 365:..\u8g2\csrc/u8g2_d_memory.c **** }
 1843              		.loc 1 365 0
 1844 0006 5030     		adds	r0, r0, #80
 1845              		@ sp needed
 1846 0008 7047     		bx	lr
 1847              	.L180:
 1848 000a C046     		.align	2
 1849              	.L179:
 1850 000c 00710000 		.word	.LANCHOR58
 1851              		.cfi_endproc
 1852              	.LFE59:
 1853              		.size	u8g2_m_st7565_16_f, .-u8g2_m_st7565_16_f
 1854              		.section	.text.u8g2_m_st7565_17_1,"ax",%progbits
 1855              		.align	2
 1856              		.global	u8g2_m_st7565_17_1
 1857              		.code	16
 1858              		.thumb_func
ARM GAS  C:\Users\gjl\AppData\Local\Temp\ccNm9gHl.s 			page 40


 1859              		.type	u8g2_m_st7565_17_1, %function
 1860              	u8g2_m_st7565_17_1:
 1861              	.LFB60:
 366:..\u8g2\csrc/u8g2_d_memory.c **** uint8_t *u8g2_m_st7565_17_1(uint8_t *page_cnt)
 367:..\u8g2\csrc/u8g2_d_memory.c **** {
 1862              		.loc 1 367 0
 1863              		.cfi_startproc
 1864              		@ args = 0, pretend = 0, frame = 0
 1865              		@ frame_needed = 0, uses_anonymous_args = 0
 1866              		@ link register save eliminated.
 1867              	.LVL120:
 368:..\u8g2\csrc/u8g2_d_memory.c ****   static uint8_t buf[136];
 369:..\u8g2\csrc/u8g2_d_memory.c ****   *page_cnt = 1;
 1868              		.loc 1 369 0
 1869 0000 0123     		movs	r3, #1
 1870 0002 0370     		strb	r3, [r0]
 370:..\u8g2\csrc/u8g2_d_memory.c ****   return buf;
 1871              		.loc 1 370 0
 1872 0004 0148     		ldr	r0, .L182
 1873              	.LVL121:
 371:..\u8g2\csrc/u8g2_d_memory.c **** }
 1874              		.loc 1 371 0
 1875 0006 5030     		adds	r0, r0, #80
 1876              		@ sp needed
 1877 0008 7047     		bx	lr
 1878              	.L183:
 1879 000a C046     		.align	2
 1880              	.L182:
 1881 000c 00750000 		.word	.LANCHOR59
 1882              		.cfi_endproc
 1883              	.LFE60:
 1884              		.size	u8g2_m_st7565_17_1, .-u8g2_m_st7565_17_1
 1885              		.section	.text.u8g2_m_st7565_17_2,"ax",%progbits
 1886              		.align	2
 1887              		.global	u8g2_m_st7565_17_2
 1888              		.code	16
 1889              		.thumb_func
 1890              		.type	u8g2_m_st7565_17_2, %function
 1891              	u8g2_m_st7565_17_2:
 1892              	.LFB61:
 372:..\u8g2\csrc/u8g2_d_memory.c **** uint8_t *u8g2_m_st7565_17_2(uint8_t *page_cnt)
 373:..\u8g2\csrc/u8g2_d_memory.c **** {
 1893              		.loc 1 373 0
 1894              		.cfi_startproc
 1895              		@ args = 0, pretend = 0, frame = 0
 1896              		@ frame_needed = 0, uses_anonymous_args = 0
 1897              		@ link register save eliminated.
 1898              	.LVL122:
 374:..\u8g2\csrc/u8g2_d_memory.c ****   static uint8_t buf[272];
 375:..\u8g2\csrc/u8g2_d_memory.c ****   *page_cnt = 2;
 1899              		.loc 1 375 0
 1900 0000 0223     		movs	r3, #2
 1901 0002 0370     		strb	r3, [r0]
 376:..\u8g2\csrc/u8g2_d_memory.c ****   return buf;
 1902              		.loc 1 376 0
 1903 0004 0148     		ldr	r0, .L185
 1904              	.LVL123:
ARM GAS  C:\Users\gjl\AppData\Local\Temp\ccNm9gHl.s 			page 41


 377:..\u8g2\csrc/u8g2_d_memory.c **** }
 1905              		.loc 1 377 0
 1906 0006 5830     		adds	r0, r0, #88
 1907              		@ sp needed
 1908 0008 7047     		bx	lr
 1909              	.L186:
 1910 000a C046     		.align	2
 1911              	.L185:
 1912 000c 80750000 		.word	.LANCHOR60
 1913              		.cfi_endproc
 1914              	.LFE61:
 1915              		.size	u8g2_m_st7565_17_2, .-u8g2_m_st7565_17_2
 1916              		.section	.text.u8g2_m_st7565_17_f,"ax",%progbits
 1917              		.align	2
 1918              		.global	u8g2_m_st7565_17_f
 1919              		.code	16
 1920              		.thumb_func
 1921              		.type	u8g2_m_st7565_17_f, %function
 1922              	u8g2_m_st7565_17_f:
 1923              	.LFB62:
 378:..\u8g2\csrc/u8g2_d_memory.c **** uint8_t *u8g2_m_st7565_17_f(uint8_t *page_cnt)
 379:..\u8g2\csrc/u8g2_d_memory.c **** {
 1924              		.loc 1 379 0
 1925              		.cfi_startproc
 1926              		@ args = 0, pretend = 0, frame = 0
 1927              		@ frame_needed = 0, uses_anonymous_args = 0
 1928              		@ link register save eliminated.
 1929              	.LVL124:
 380:..\u8g2\csrc/u8g2_d_memory.c ****   static uint8_t buf[544];
 381:..\u8g2\csrc/u8g2_d_memory.c ****   *page_cnt = 4;
 1930              		.loc 1 381 0
 1931 0000 0423     		movs	r3, #4
 1932 0002 0370     		strb	r3, [r0]
 382:..\u8g2\csrc/u8g2_d_memory.c ****   return buf;
 1933              		.loc 1 382 0
 1934 0004 0148     		ldr	r0, .L188
 1935              	.LVL125:
 383:..\u8g2\csrc/u8g2_d_memory.c **** }
 1936              		.loc 1 383 0
 1937 0006 6830     		adds	r0, r0, #104
 1938              		@ sp needed
 1939 0008 7047     		bx	lr
 1940              	.L189:
 1941 000a C046     		.align	2
 1942              	.L188:
 1943 000c 80760000 		.word	.LANCHOR61
 1944              		.cfi_endproc
 1945              	.LFE62:
 1946              		.size	u8g2_m_st7565_17_f, .-u8g2_m_st7565_17_f
 1947              		.section	.text.u8g2_m_st7567_17_1,"ax",%progbits
 1948              		.align	2
 1949              		.global	u8g2_m_st7567_17_1
 1950              		.code	16
 1951              		.thumb_func
 1952              		.type	u8g2_m_st7567_17_1, %function
 1953              	u8g2_m_st7567_17_1:
 1954              	.LFB63:
ARM GAS  C:\Users\gjl\AppData\Local\Temp\ccNm9gHl.s 			page 42


 384:..\u8g2\csrc/u8g2_d_memory.c **** uint8_t *u8g2_m_st7567_17_1(uint8_t *page_cnt)
 385:..\u8g2\csrc/u8g2_d_memory.c **** {
 1955              		.loc 1 385 0
 1956              		.cfi_startproc
 1957              		@ args = 0, pretend = 0, frame = 0
 1958              		@ frame_needed = 0, uses_anonymous_args = 0
 1959              		@ link register save eliminated.
 1960              	.LVL126:
 386:..\u8g2\csrc/u8g2_d_memory.c ****   static uint8_t buf[136];
 387:..\u8g2\csrc/u8g2_d_memory.c ****   *page_cnt = 1;
 1961              		.loc 1 387 0
 1962 0000 0123     		movs	r3, #1
 1963 0002 0370     		strb	r3, [r0]
 388:..\u8g2\csrc/u8g2_d_memory.c ****   return buf;
 1964              		.loc 1 388 0
 1965 0004 0148     		ldr	r0, .L191
 1966              	.LVL127:
 389:..\u8g2\csrc/u8g2_d_memory.c **** }
 1967              		.loc 1 389 0
 1968 0006 0830     		adds	r0, r0, #8
 1969              		@ sp needed
 1970 0008 7047     		bx	lr
 1971              	.L192:
 1972 000a C046     		.align	2
 1973              	.L191:
 1974 000c 00790000 		.word	.LANCHOR62
 1975              		.cfi_endproc
 1976              	.LFE63:
 1977              		.size	u8g2_m_st7567_17_1, .-u8g2_m_st7567_17_1
 1978              		.section	.text.u8g2_m_st7567_17_2,"ax",%progbits
 1979              		.align	2
 1980              		.global	u8g2_m_st7567_17_2
 1981              		.code	16
 1982              		.thumb_func
 1983              		.type	u8g2_m_st7567_17_2, %function
 1984              	u8g2_m_st7567_17_2:
 1985              	.LFB64:
 390:..\u8g2\csrc/u8g2_d_memory.c **** uint8_t *u8g2_m_st7567_17_2(uint8_t *page_cnt)
 391:..\u8g2\csrc/u8g2_d_memory.c **** {
 1986              		.loc 1 391 0
 1987              		.cfi_startproc
 1988              		@ args = 0, pretend = 0, frame = 0
 1989              		@ frame_needed = 0, uses_anonymous_args = 0
 1990              		@ link register save eliminated.
 1991              	.LVL128:
 392:..\u8g2\csrc/u8g2_d_memory.c ****   static uint8_t buf[272];
 393:..\u8g2\csrc/u8g2_d_memory.c ****   *page_cnt = 2;
 1992              		.loc 1 393 0
 1993 0000 0223     		movs	r3, #2
 1994 0002 0370     		strb	r3, [r0]
 394:..\u8g2\csrc/u8g2_d_memory.c ****   return buf;
 1995              		.loc 1 394 0
 1996 0004 0148     		ldr	r0, .L194
 1997              	.LVL129:
 395:..\u8g2\csrc/u8g2_d_memory.c **** }
 1998              		.loc 1 395 0
 1999 0006 1030     		adds	r0, r0, #16
ARM GAS  C:\Users\gjl\AppData\Local\Temp\ccNm9gHl.s 			page 43


 2000              		@ sp needed
 2001 0008 7047     		bx	lr
 2002              	.L195:
 2003 000a C046     		.align	2
 2004              	.L194:
 2005 000c 80790000 		.word	.LANCHOR63
 2006              		.cfi_endproc
 2007              	.LFE64:
 2008              		.size	u8g2_m_st7567_17_2, .-u8g2_m_st7567_17_2
 2009              		.section	.text.u8g2_m_st7567_17_f,"ax",%progbits
 2010              		.align	2
 2011              		.global	u8g2_m_st7567_17_f
 2012              		.code	16
 2013              		.thumb_func
 2014              		.type	u8g2_m_st7567_17_f, %function
 2015              	u8g2_m_st7567_17_f:
 2016              	.LFB65:
 396:..\u8g2\csrc/u8g2_d_memory.c **** uint8_t *u8g2_m_st7567_17_f(uint8_t *page_cnt)
 397:..\u8g2\csrc/u8g2_d_memory.c **** {
 2017              		.loc 1 397 0
 2018              		.cfi_startproc
 2019              		@ args = 0, pretend = 0, frame = 0
 2020              		@ frame_needed = 0, uses_anonymous_args = 0
 2021              		@ link register save eliminated.
 2022              	.LVL130:
 398:..\u8g2\csrc/u8g2_d_memory.c ****   static uint8_t buf[1088];
 399:..\u8g2\csrc/u8g2_d_memory.c ****   *page_cnt = 8;
 2023              		.loc 1 399 0
 2024 0000 0823     		movs	r3, #8
 2025 0002 0370     		strb	r3, [r0]
 400:..\u8g2\csrc/u8g2_d_memory.c ****   return buf;
 2026              		.loc 1 400 0
 2027 0004 0148     		ldr	r0, .L197
 2028              	.LVL131:
 401:..\u8g2\csrc/u8g2_d_memory.c **** }
 2029              		.loc 1 401 0
 2030 0006 2030     		adds	r0, r0, #32
 2031              		@ sp needed
 2032 0008 7047     		bx	lr
 2033              	.L198:
 2034 000a C046     		.align	2
 2035              	.L197:
 2036 000c 807A0000 		.word	.LANCHOR64
 2037              		.cfi_endproc
 2038              	.LFE65:
 2039              		.size	u8g2_m_st7567_17_f, .-u8g2_m_st7567_17_f
 2040              		.section	.text.u8g2_m_st7588_16_1,"ax",%progbits
 2041              		.align	2
 2042              		.global	u8g2_m_st7588_16_1
 2043              		.code	16
 2044              		.thumb_func
 2045              		.type	u8g2_m_st7588_16_1, %function
 2046              	u8g2_m_st7588_16_1:
 2047              	.LFB66:
 402:..\u8g2\csrc/u8g2_d_memory.c **** uint8_t *u8g2_m_st7588_16_1(uint8_t *page_cnt)
 403:..\u8g2\csrc/u8g2_d_memory.c **** {
 2048              		.loc 1 403 0
ARM GAS  C:\Users\gjl\AppData\Local\Temp\ccNm9gHl.s 			page 44


 2049              		.cfi_startproc
 2050              		@ args = 0, pretend = 0, frame = 0
 2051              		@ frame_needed = 0, uses_anonymous_args = 0
 2052              		@ link register save eliminated.
 2053              	.LVL132:
 404:..\u8g2\csrc/u8g2_d_memory.c ****   static uint8_t buf[128];
 405:..\u8g2\csrc/u8g2_d_memory.c ****   *page_cnt = 1;
 2054              		.loc 1 405 0
 2055 0000 0123     		movs	r3, #1
 2056 0002 0370     		strb	r3, [r0]
 406:..\u8g2\csrc/u8g2_d_memory.c ****   return buf;
 2057              		.loc 1 406 0
 2058 0004 0148     		ldr	r0, .L200
 2059              	.LVL133:
 407:..\u8g2\csrc/u8g2_d_memory.c **** }
 2060              		.loc 1 407 0
 2061 0006 6030     		adds	r0, r0, #96
 2062              		@ sp needed
 2063 0008 7047     		bx	lr
 2064              	.L201:
 2065 000a C046     		.align	2
 2066              	.L200:
 2067 000c 807E0000 		.word	.LANCHOR65
 2068              		.cfi_endproc
 2069              	.LFE66:
 2070              		.size	u8g2_m_st7588_16_1, .-u8g2_m_st7588_16_1
 2071              		.section	.text.u8g2_m_st7588_16_2,"ax",%progbits
 2072              		.align	2
 2073              		.global	u8g2_m_st7588_16_2
 2074              		.code	16
 2075              		.thumb_func
 2076              		.type	u8g2_m_st7588_16_2, %function
 2077              	u8g2_m_st7588_16_2:
 2078              	.LFB67:
 408:..\u8g2\csrc/u8g2_d_memory.c **** uint8_t *u8g2_m_st7588_16_2(uint8_t *page_cnt)
 409:..\u8g2\csrc/u8g2_d_memory.c **** {
 2079              		.loc 1 409 0
 2080              		.cfi_startproc
 2081              		@ args = 0, pretend = 0, frame = 0
 2082              		@ frame_needed = 0, uses_anonymous_args = 0
 2083              		@ link register save eliminated.
 2084              	.LVL134:
 410:..\u8g2\csrc/u8g2_d_memory.c ****   static uint8_t buf[256];
 411:..\u8g2\csrc/u8g2_d_memory.c ****   *page_cnt = 2;
 2085              		.loc 1 411 0
 2086 0000 0223     		movs	r3, #2
 2087 0002 0370     		strb	r3, [r0]
 412:..\u8g2\csrc/u8g2_d_memory.c ****   return buf;
 2088              		.loc 1 412 0
 2089 0004 0148     		ldr	r0, .L203
 2090              	.LVL135:
 413:..\u8g2\csrc/u8g2_d_memory.c **** }
 2091              		.loc 1 413 0
 2092 0006 6030     		adds	r0, r0, #96
 2093              		@ sp needed
 2094 0008 7047     		bx	lr
 2095              	.L204:
ARM GAS  C:\Users\gjl\AppData\Local\Temp\ccNm9gHl.s 			page 45


 2096 000a C046     		.align	2
 2097              	.L203:
 2098 000c 007F0000 		.word	.LANCHOR66
 2099              		.cfi_endproc
 2100              	.LFE67:
 2101              		.size	u8g2_m_st7588_16_2, .-u8g2_m_st7588_16_2
 2102              		.section	.text.u8g2_m_st7588_16_f,"ax",%progbits
 2103              		.align	2
 2104              		.global	u8g2_m_st7588_16_f
 2105              		.code	16
 2106              		.thumb_func
 2107              		.type	u8g2_m_st7588_16_f, %function
 2108              	u8g2_m_st7588_16_f:
 2109              	.LFB68:
 414:..\u8g2\csrc/u8g2_d_memory.c **** uint8_t *u8g2_m_st7588_16_f(uint8_t *page_cnt)
 415:..\u8g2\csrc/u8g2_d_memory.c **** {
 2110              		.loc 1 415 0
 2111              		.cfi_startproc
 2112              		@ args = 0, pretend = 0, frame = 0
 2113              		@ frame_needed = 0, uses_anonymous_args = 0
 2114              		@ link register save eliminated.
 2115              	.LVL136:
 416:..\u8g2\csrc/u8g2_d_memory.c ****   static uint8_t buf[1024];
 417:..\u8g2\csrc/u8g2_d_memory.c ****   *page_cnt = 8;
 2116              		.loc 1 417 0
 2117 0000 0823     		movs	r3, #8
 2118 0002 0370     		strb	r3, [r0]
 418:..\u8g2\csrc/u8g2_d_memory.c ****   return buf;
 2119              		.loc 1 418 0
 2120 0004 0148     		ldr	r0, .L206
 2121              	.LVL137:
 419:..\u8g2\csrc/u8g2_d_memory.c **** }
 2122              		.loc 1 419 0
 2123 0006 6030     		adds	r0, r0, #96
 2124              		@ sp needed
 2125 0008 7047     		bx	lr
 2126              	.L207:
 2127 000a C046     		.align	2
 2128              	.L206:
 2129 000c 00800000 		.word	.LANCHOR67
 2130              		.cfi_endproc
 2131              	.LFE68:
 2132              		.size	u8g2_m_st7588_16_f, .-u8g2_m_st7588_16_f
 2133              		.section	.text.u8g2_m_nt7534_16_1,"ax",%progbits
 2134              		.align	2
 2135              		.global	u8g2_m_nt7534_16_1
 2136              		.code	16
 2137              		.thumb_func
 2138              		.type	u8g2_m_nt7534_16_1, %function
 2139              	u8g2_m_nt7534_16_1:
 2140              	.LFB69:
 420:..\u8g2\csrc/u8g2_d_memory.c **** uint8_t *u8g2_m_nt7534_16_1(uint8_t *page_cnt)
 421:..\u8g2\csrc/u8g2_d_memory.c **** {
 2141              		.loc 1 421 0
 2142              		.cfi_startproc
 2143              		@ args = 0, pretend = 0, frame = 0
 2144              		@ frame_needed = 0, uses_anonymous_args = 0
ARM GAS  C:\Users\gjl\AppData\Local\Temp\ccNm9gHl.s 			page 46


 2145              		@ link register save eliminated.
 2146              	.LVL138:
 422:..\u8g2\csrc/u8g2_d_memory.c ****   static uint8_t buf[128];
 423:..\u8g2\csrc/u8g2_d_memory.c ****   *page_cnt = 1;
 2147              		.loc 1 423 0
 2148 0000 0123     		movs	r3, #1
 2149 0002 0370     		strb	r3, [r0]
 424:..\u8g2\csrc/u8g2_d_memory.c ****   return buf;
 2150              		.loc 1 424 0
 2151 0004 0148     		ldr	r0, .L209
 2152              	.LVL139:
 425:..\u8g2\csrc/u8g2_d_memory.c **** }
 2153              		.loc 1 425 0
 2154 0006 6030     		adds	r0, r0, #96
 2155              		@ sp needed
 2156 0008 7047     		bx	lr
 2157              	.L210:
 2158 000a C046     		.align	2
 2159              	.L209:
 2160 000c 00840000 		.word	.LANCHOR68
 2161              		.cfi_endproc
 2162              	.LFE69:
 2163              		.size	u8g2_m_nt7534_16_1, .-u8g2_m_nt7534_16_1
 2164              		.section	.text.u8g2_m_nt7534_16_2,"ax",%progbits
 2165              		.align	2
 2166              		.global	u8g2_m_nt7534_16_2
 2167              		.code	16
 2168              		.thumb_func
 2169              		.type	u8g2_m_nt7534_16_2, %function
 2170              	u8g2_m_nt7534_16_2:
 2171              	.LFB70:
 426:..\u8g2\csrc/u8g2_d_memory.c **** uint8_t *u8g2_m_nt7534_16_2(uint8_t *page_cnt)
 427:..\u8g2\csrc/u8g2_d_memory.c **** {
 2172              		.loc 1 427 0
 2173              		.cfi_startproc
 2174              		@ args = 0, pretend = 0, frame = 0
 2175              		@ frame_needed = 0, uses_anonymous_args = 0
 2176              		@ link register save eliminated.
 2177              	.LVL140:
 428:..\u8g2\csrc/u8g2_d_memory.c ****   static uint8_t buf[256];
 429:..\u8g2\csrc/u8g2_d_memory.c ****   *page_cnt = 2;
 2178              		.loc 1 429 0
 2179 0000 0223     		movs	r3, #2
 2180 0002 0370     		strb	r3, [r0]
 430:..\u8g2\csrc/u8g2_d_memory.c ****   return buf;
 2181              		.loc 1 430 0
 2182 0004 0148     		ldr	r0, .L212
 2183              	.LVL141:
 431:..\u8g2\csrc/u8g2_d_memory.c **** }
 2184              		.loc 1 431 0
 2185 0006 6030     		adds	r0, r0, #96
 2186              		@ sp needed
 2187 0008 7047     		bx	lr
 2188              	.L213:
 2189 000a C046     		.align	2
 2190              	.L212:
 2191 000c 80840000 		.word	.LANCHOR69
ARM GAS  C:\Users\gjl\AppData\Local\Temp\ccNm9gHl.s 			page 47


 2192              		.cfi_endproc
 2193              	.LFE70:
 2194              		.size	u8g2_m_nt7534_16_2, .-u8g2_m_nt7534_16_2
 2195              		.section	.text.u8g2_m_nt7534_16_f,"ax",%progbits
 2196              		.align	2
 2197              		.global	u8g2_m_nt7534_16_f
 2198              		.code	16
 2199              		.thumb_func
 2200              		.type	u8g2_m_nt7534_16_f, %function
 2201              	u8g2_m_nt7534_16_f:
 2202              	.LFB71:
 432:..\u8g2\csrc/u8g2_d_memory.c **** uint8_t *u8g2_m_nt7534_16_f(uint8_t *page_cnt)
 433:..\u8g2\csrc/u8g2_d_memory.c **** {
 2203              		.loc 1 433 0
 2204              		.cfi_startproc
 2205              		@ args = 0, pretend = 0, frame = 0
 2206              		@ frame_needed = 0, uses_anonymous_args = 0
 2207              		@ link register save eliminated.
 2208              	.LVL142:
 434:..\u8g2\csrc/u8g2_d_memory.c ****   static uint8_t buf[1024];
 435:..\u8g2\csrc/u8g2_d_memory.c ****   *page_cnt = 8;
 2209              		.loc 1 435 0
 2210 0000 0823     		movs	r3, #8
 2211 0002 0370     		strb	r3, [r0]
 436:..\u8g2\csrc/u8g2_d_memory.c ****   return buf;
 2212              		.loc 1 436 0
 2213 0004 0148     		ldr	r0, .L215
 2214              	.LVL143:
 437:..\u8g2\csrc/u8g2_d_memory.c **** }
 2215              		.loc 1 437 0
 2216 0006 6030     		adds	r0, r0, #96
 2217              		@ sp needed
 2218 0008 7047     		bx	lr
 2219              	.L216:
 2220 000a C046     		.align	2
 2221              	.L215:
 2222 000c 80850000 		.word	.LANCHOR70
 2223              		.cfi_endproc
 2224              	.LFE71:
 2225              		.size	u8g2_m_nt7534_16_f, .-u8g2_m_nt7534_16_f
 2226              		.section	.text.u8g2_m_ist3020_24_1,"ax",%progbits
 2227              		.align	2
 2228              		.global	u8g2_m_ist3020_24_1
 2229              		.code	16
 2230              		.thumb_func
 2231              		.type	u8g2_m_ist3020_24_1, %function
 2232              	u8g2_m_ist3020_24_1:
 2233              	.LFB72:
 438:..\u8g2\csrc/u8g2_d_memory.c **** uint8_t *u8g2_m_ist3020_24_1(uint8_t *page_cnt)
 439:..\u8g2\csrc/u8g2_d_memory.c **** {
 2234              		.loc 1 439 0
 2235              		.cfi_startproc
 2236              		@ args = 0, pretend = 0, frame = 0
 2237              		@ frame_needed = 0, uses_anonymous_args = 0
 2238              		@ link register save eliminated.
 2239              	.LVL144:
 440:..\u8g2\csrc/u8g2_d_memory.c ****   static uint8_t buf[192];
ARM GAS  C:\Users\gjl\AppData\Local\Temp\ccNm9gHl.s 			page 48


 441:..\u8g2\csrc/u8g2_d_memory.c ****   *page_cnt = 1;
 2240              		.loc 1 441 0
 2241 0000 0123     		movs	r3, #1
 2242 0002 0370     		strb	r3, [r0]
 442:..\u8g2\csrc/u8g2_d_memory.c ****   return buf;
 2243              		.loc 1 442 0
 2244 0004 0148     		ldr	r0, .L218
 2245              	.LVL145:
 443:..\u8g2\csrc/u8g2_d_memory.c **** }
 2246              		.loc 1 443 0
 2247 0006 6030     		adds	r0, r0, #96
 2248              		@ sp needed
 2249 0008 7047     		bx	lr
 2250              	.L219:
 2251 000a C046     		.align	2
 2252              	.L218:
 2253 000c 80890000 		.word	.LANCHOR71
 2254              		.cfi_endproc
 2255              	.LFE72:
 2256              		.size	u8g2_m_ist3020_24_1, .-u8g2_m_ist3020_24_1
 2257              		.section	.text.u8g2_m_ist3020_24_2,"ax",%progbits
 2258              		.align	2
 2259              		.global	u8g2_m_ist3020_24_2
 2260              		.code	16
 2261              		.thumb_func
 2262              		.type	u8g2_m_ist3020_24_2, %function
 2263              	u8g2_m_ist3020_24_2:
 2264              	.LFB73:
 444:..\u8g2\csrc/u8g2_d_memory.c **** uint8_t *u8g2_m_ist3020_24_2(uint8_t *page_cnt)
 445:..\u8g2\csrc/u8g2_d_memory.c **** {
 2265              		.loc 1 445 0
 2266              		.cfi_startproc
 2267              		@ args = 0, pretend = 0, frame = 0
 2268              		@ frame_needed = 0, uses_anonymous_args = 0
 2269              		@ link register save eliminated.
 2270              	.LVL146:
 446:..\u8g2\csrc/u8g2_d_memory.c ****   static uint8_t buf[384];
 447:..\u8g2\csrc/u8g2_d_memory.c ****   *page_cnt = 2;
 2271              		.loc 1 447 0
 2272 0000 0223     		movs	r3, #2
 2273 0002 0370     		strb	r3, [r0]
 448:..\u8g2\csrc/u8g2_d_memory.c ****   return buf;
 2274              		.loc 1 448 0
 2275 0004 0148     		ldr	r0, .L221
 2276              	.LVL147:
 449:..\u8g2\csrc/u8g2_d_memory.c **** }
 2277              		.loc 1 449 0
 2278 0006 2030     		adds	r0, r0, #32
 2279              		@ sp needed
 2280 0008 7047     		bx	lr
 2281              	.L222:
 2282 000a C046     		.align	2
 2283              	.L221:
 2284 000c 808A0000 		.word	.LANCHOR72
 2285              		.cfi_endproc
 2286              	.LFE73:
 2287              		.size	u8g2_m_ist3020_24_2, .-u8g2_m_ist3020_24_2
ARM GAS  C:\Users\gjl\AppData\Local\Temp\ccNm9gHl.s 			page 49


 2288              		.section	.text.u8g2_m_ist3020_24_f,"ax",%progbits
 2289              		.align	2
 2290              		.global	u8g2_m_ist3020_24_f
 2291              		.code	16
 2292              		.thumb_func
 2293              		.type	u8g2_m_ist3020_24_f, %function
 2294              	u8g2_m_ist3020_24_f:
 2295              	.LFB74:
 450:..\u8g2\csrc/u8g2_d_memory.c **** uint8_t *u8g2_m_ist3020_24_f(uint8_t *page_cnt)
 451:..\u8g2\csrc/u8g2_d_memory.c **** {
 2296              		.loc 1 451 0
 2297              		.cfi_startproc
 2298              		@ args = 0, pretend = 0, frame = 0
 2299              		@ frame_needed = 0, uses_anonymous_args = 0
 2300              		@ link register save eliminated.
 2301              	.LVL148:
 452:..\u8g2\csrc/u8g2_d_memory.c ****   static uint8_t buf[1536];
 453:..\u8g2\csrc/u8g2_d_memory.c ****   *page_cnt = 8;
 2302              		.loc 1 453 0
 2303 0000 0823     		movs	r3, #8
 2304 0002 0370     		strb	r3, [r0]
 454:..\u8g2\csrc/u8g2_d_memory.c ****   return buf;
 2305              		.loc 1 454 0
 2306 0004 0148     		ldr	r0, .L224
 2307              	.LVL149:
 455:..\u8g2\csrc/u8g2_d_memory.c **** }
 2308              		.loc 1 455 0
 2309 0006 2030     		adds	r0, r0, #32
 2310              		@ sp needed
 2311 0008 7047     		bx	lr
 2312              	.L225:
 2313 000a C046     		.align	2
 2314              	.L224:
 2315 000c 008C0000 		.word	.LANCHOR73
 2316              		.cfi_endproc
 2317              	.LFE74:
 2318              		.size	u8g2_m_ist3020_24_f, .-u8g2_m_ist3020_24_f
 2319              		.section	.text.u8g2_m_ks0108_16_1,"ax",%progbits
 2320              		.align	2
 2321              		.global	u8g2_m_ks0108_16_1
 2322              		.code	16
 2323              		.thumb_func
 2324              		.type	u8g2_m_ks0108_16_1, %function
 2325              	u8g2_m_ks0108_16_1:
 2326              	.LFB75:
 456:..\u8g2\csrc/u8g2_d_memory.c **** uint8_t *u8g2_m_ks0108_16_1(uint8_t *page_cnt)
 457:..\u8g2\csrc/u8g2_d_memory.c **** {
 2327              		.loc 1 457 0
 2328              		.cfi_startproc
 2329              		@ args = 0, pretend = 0, frame = 0
 2330              		@ frame_needed = 0, uses_anonymous_args = 0
 2331              		@ link register save eliminated.
 2332              	.LVL150:
 458:..\u8g2\csrc/u8g2_d_memory.c ****   static uint8_t buf[128];
 459:..\u8g2\csrc/u8g2_d_memory.c ****   *page_cnt = 1;
 2333              		.loc 1 459 0
 2334 0000 0123     		movs	r3, #1
ARM GAS  C:\Users\gjl\AppData\Local\Temp\ccNm9gHl.s 			page 50


 2335 0002 0370     		strb	r3, [r0]
 460:..\u8g2\csrc/u8g2_d_memory.c ****   return buf;
 2336              		.loc 1 460 0
 2337 0004 0148     		ldr	r0, .L227
 2338              	.LVL151:
 461:..\u8g2\csrc/u8g2_d_memory.c **** }
 2339              		.loc 1 461 0
 2340 0006 2030     		adds	r0, r0, #32
 2341              		@ sp needed
 2342 0008 7047     		bx	lr
 2343              	.L228:
 2344 000a C046     		.align	2
 2345              	.L227:
 2346 000c 00920000 		.word	.LANCHOR74
 2347              		.cfi_endproc
 2348              	.LFE75:
 2349              		.size	u8g2_m_ks0108_16_1, .-u8g2_m_ks0108_16_1
 2350              		.section	.text.u8g2_m_ks0108_16_2,"ax",%progbits
 2351              		.align	2
 2352              		.global	u8g2_m_ks0108_16_2
 2353              		.code	16
 2354              		.thumb_func
 2355              		.type	u8g2_m_ks0108_16_2, %function
 2356              	u8g2_m_ks0108_16_2:
 2357              	.LFB76:
 462:..\u8g2\csrc/u8g2_d_memory.c **** uint8_t *u8g2_m_ks0108_16_2(uint8_t *page_cnt)
 463:..\u8g2\csrc/u8g2_d_memory.c **** {
 2358              		.loc 1 463 0
 2359              		.cfi_startproc
 2360              		@ args = 0, pretend = 0, frame = 0
 2361              		@ frame_needed = 0, uses_anonymous_args = 0
 2362              		@ link register save eliminated.
 2363              	.LVL152:
 464:..\u8g2\csrc/u8g2_d_memory.c ****   static uint8_t buf[256];
 465:..\u8g2\csrc/u8g2_d_memory.c ****   *page_cnt = 2;
 2364              		.loc 1 465 0
 2365 0000 0223     		movs	r3, #2
 2366 0002 0370     		strb	r3, [r0]
 466:..\u8g2\csrc/u8g2_d_memory.c ****   return buf;
 2367              		.loc 1 466 0
 2368 0004 0148     		ldr	r0, .L230
 2369              	.LVL153:
 467:..\u8g2\csrc/u8g2_d_memory.c **** }
 2370              		.loc 1 467 0
 2371 0006 2030     		adds	r0, r0, #32
 2372              		@ sp needed
 2373 0008 7047     		bx	lr
 2374              	.L231:
 2375 000a C046     		.align	2
 2376              	.L230:
 2377 000c 80920000 		.word	.LANCHOR75
 2378              		.cfi_endproc
 2379              	.LFE76:
 2380              		.size	u8g2_m_ks0108_16_2, .-u8g2_m_ks0108_16_2
 2381              		.section	.text.u8g2_m_ks0108_16_f,"ax",%progbits
 2382              		.align	2
 2383              		.global	u8g2_m_ks0108_16_f
ARM GAS  C:\Users\gjl\AppData\Local\Temp\ccNm9gHl.s 			page 51


 2384              		.code	16
 2385              		.thumb_func
 2386              		.type	u8g2_m_ks0108_16_f, %function
 2387              	u8g2_m_ks0108_16_f:
 2388              	.LFB77:
 468:..\u8g2\csrc/u8g2_d_memory.c **** uint8_t *u8g2_m_ks0108_16_f(uint8_t *page_cnt)
 469:..\u8g2\csrc/u8g2_d_memory.c **** {
 2389              		.loc 1 469 0
 2390              		.cfi_startproc
 2391              		@ args = 0, pretend = 0, frame = 0
 2392              		@ frame_needed = 0, uses_anonymous_args = 0
 2393              		@ link register save eliminated.
 2394              	.LVL154:
 470:..\u8g2\csrc/u8g2_d_memory.c ****   static uint8_t buf[1024];
 471:..\u8g2\csrc/u8g2_d_memory.c ****   *page_cnt = 8;
 2395              		.loc 1 471 0
 2396 0000 0823     		movs	r3, #8
 2397 0002 0370     		strb	r3, [r0]
 472:..\u8g2\csrc/u8g2_d_memory.c ****   return buf;
 2398              		.loc 1 472 0
 2399 0004 0148     		ldr	r0, .L233
 2400              	.LVL155:
 473:..\u8g2\csrc/u8g2_d_memory.c **** }
 2401              		.loc 1 473 0
 2402 0006 2030     		adds	r0, r0, #32
 2403              		@ sp needed
 2404 0008 7047     		bx	lr
 2405              	.L234:
 2406 000a C046     		.align	2
 2407              	.L233:
 2408 000c 80930000 		.word	.LANCHOR76
 2409              		.cfi_endproc
 2410              	.LFE77:
 2411              		.size	u8g2_m_ks0108_16_f, .-u8g2_m_ks0108_16_f
 2412              		.section	.text.u8g2_m_ks0108_24_1,"ax",%progbits
 2413              		.align	2
 2414              		.global	u8g2_m_ks0108_24_1
 2415              		.code	16
 2416              		.thumb_func
 2417              		.type	u8g2_m_ks0108_24_1, %function
 2418              	u8g2_m_ks0108_24_1:
 2419              	.LFB78:
 474:..\u8g2\csrc/u8g2_d_memory.c **** uint8_t *u8g2_m_ks0108_24_1(uint8_t *page_cnt)
 475:..\u8g2\csrc/u8g2_d_memory.c **** {
 2420              		.loc 1 475 0
 2421              		.cfi_startproc
 2422              		@ args = 0, pretend = 0, frame = 0
 2423              		@ frame_needed = 0, uses_anonymous_args = 0
 2424              		@ link register save eliminated.
 2425              	.LVL156:
 476:..\u8g2\csrc/u8g2_d_memory.c ****   static uint8_t buf[192];
 477:..\u8g2\csrc/u8g2_d_memory.c ****   *page_cnt = 1;
 2426              		.loc 1 477 0
 2427 0000 0123     		movs	r3, #1
 2428 0002 0370     		strb	r3, [r0]
 478:..\u8g2\csrc/u8g2_d_memory.c ****   return buf;
 2429              		.loc 1 478 0
ARM GAS  C:\Users\gjl\AppData\Local\Temp\ccNm9gHl.s 			page 52


 2430 0004 0148     		ldr	r0, .L236
 2431              	.LVL157:
 479:..\u8g2\csrc/u8g2_d_memory.c **** }
 2432              		.loc 1 479 0
 2433 0006 2030     		adds	r0, r0, #32
 2434              		@ sp needed
 2435 0008 7047     		bx	lr
 2436              	.L237:
 2437 000a C046     		.align	2
 2438              	.L236:
 2439 000c 80970000 		.word	.LANCHOR77
 2440              		.cfi_endproc
 2441              	.LFE78:
 2442              		.size	u8g2_m_ks0108_24_1, .-u8g2_m_ks0108_24_1
 2443              		.section	.text.u8g2_m_ks0108_24_2,"ax",%progbits
 2444              		.align	2
 2445              		.global	u8g2_m_ks0108_24_2
 2446              		.code	16
 2447              		.thumb_func
 2448              		.type	u8g2_m_ks0108_24_2, %function
 2449              	u8g2_m_ks0108_24_2:
 2450              	.LFB79:
 480:..\u8g2\csrc/u8g2_d_memory.c **** uint8_t *u8g2_m_ks0108_24_2(uint8_t *page_cnt)
 481:..\u8g2\csrc/u8g2_d_memory.c **** {
 2451              		.loc 1 481 0
 2452              		.cfi_startproc
 2453              		@ args = 0, pretend = 0, frame = 0
 2454              		@ frame_needed = 0, uses_anonymous_args = 0
 2455              		@ link register save eliminated.
 2456              	.LVL158:
 482:..\u8g2\csrc/u8g2_d_memory.c ****   static uint8_t buf[384];
 483:..\u8g2\csrc/u8g2_d_memory.c ****   *page_cnt = 2;
 2457              		.loc 1 483 0
 2458 0000 0223     		movs	r3, #2
 2459 0002 0370     		strb	r3, [r0]
 484:..\u8g2\csrc/u8g2_d_memory.c ****   return buf;
 2460              		.loc 1 484 0
 2461 0004 0148     		ldr	r0, .L239
 2462              	.LVL159:
 485:..\u8g2\csrc/u8g2_d_memory.c **** }
 2463              		.loc 1 485 0
 2464 0006 6030     		adds	r0, r0, #96
 2465              		@ sp needed
 2466 0008 7047     		bx	lr
 2467              	.L240:
 2468 000a C046     		.align	2
 2469              	.L239:
 2470 000c 00980000 		.word	.LANCHOR78
 2471              		.cfi_endproc
 2472              	.LFE79:
 2473              		.size	u8g2_m_ks0108_24_2, .-u8g2_m_ks0108_24_2
 2474              		.section	.text.u8g2_m_ks0108_24_f,"ax",%progbits
 2475              		.align	2
 2476              		.global	u8g2_m_ks0108_24_f
 2477              		.code	16
 2478              		.thumb_func
 2479              		.type	u8g2_m_ks0108_24_f, %function
ARM GAS  C:\Users\gjl\AppData\Local\Temp\ccNm9gHl.s 			page 53


 2480              	u8g2_m_ks0108_24_f:
 2481              	.LFB80:
 486:..\u8g2\csrc/u8g2_d_memory.c **** uint8_t *u8g2_m_ks0108_24_f(uint8_t *page_cnt)
 487:..\u8g2\csrc/u8g2_d_memory.c **** {
 2482              		.loc 1 487 0
 2483              		.cfi_startproc
 2484              		@ args = 0, pretend = 0, frame = 0
 2485              		@ frame_needed = 0, uses_anonymous_args = 0
 2486              		@ link register save eliminated.
 2487              	.LVL160:
 488:..\u8g2\csrc/u8g2_d_memory.c ****   static uint8_t buf[1536];
 489:..\u8g2\csrc/u8g2_d_memory.c ****   *page_cnt = 8;
 2488              		.loc 1 489 0
 2489 0000 0823     		movs	r3, #8
 2490 0002 0370     		strb	r3, [r0]
 490:..\u8g2\csrc/u8g2_d_memory.c ****   return buf;
 2491              		.loc 1 490 0
 2492 0004 0148     		ldr	r0, .L242
 2493              	.LVL161:
 491:..\u8g2\csrc/u8g2_d_memory.c **** }
 2494              		.loc 1 491 0
 2495 0006 6030     		adds	r0, r0, #96
 2496              		@ sp needed
 2497 0008 7047     		bx	lr
 2498              	.L243:
 2499 000a C046     		.align	2
 2500              	.L242:
 2501 000c 80990000 		.word	.LANCHOR79
 2502              		.cfi_endproc
 2503              	.LFE80:
 2504              		.size	u8g2_m_ks0108_24_f, .-u8g2_m_ks0108_24_f
 2505              		.section	.text.u8g2_m_lc7981_20_1,"ax",%progbits
 2506              		.align	2
 2507              		.global	u8g2_m_lc7981_20_1
 2508              		.code	16
 2509              		.thumb_func
 2510              		.type	u8g2_m_lc7981_20_1, %function
 2511              	u8g2_m_lc7981_20_1:
 2512              	.LFB81:
 492:..\u8g2\csrc/u8g2_d_memory.c **** uint8_t *u8g2_m_lc7981_20_1(uint8_t *page_cnt)
 493:..\u8g2\csrc/u8g2_d_memory.c **** {
 2513              		.loc 1 493 0
 2514              		.cfi_startproc
 2515              		@ args = 0, pretend = 0, frame = 0
 2516              		@ frame_needed = 0, uses_anonymous_args = 0
 2517              		@ link register save eliminated.
 2518              	.LVL162:
 494:..\u8g2\csrc/u8g2_d_memory.c ****   static uint8_t buf[160];
 495:..\u8g2\csrc/u8g2_d_memory.c ****   *page_cnt = 1;
 2519              		.loc 1 495 0
 2520 0000 0123     		movs	r3, #1
 2521 0002 0370     		strb	r3, [r0]
 496:..\u8g2\csrc/u8g2_d_memory.c ****   return buf;
 2522              		.loc 1 496 0
 2523 0004 0148     		ldr	r0, .L245
 2524              	.LVL163:
 497:..\u8g2\csrc/u8g2_d_memory.c **** }
ARM GAS  C:\Users\gjl\AppData\Local\Temp\ccNm9gHl.s 			page 54


 2525              		.loc 1 497 0
 2526 0006 6030     		adds	r0, r0, #96
 2527              		@ sp needed
 2528 0008 7047     		bx	lr
 2529              	.L246:
 2530 000a C046     		.align	2
 2531              	.L245:
 2532 000c 809F0000 		.word	.LANCHOR80
 2533              		.cfi_endproc
 2534              	.LFE81:
 2535              		.size	u8g2_m_lc7981_20_1, .-u8g2_m_lc7981_20_1
 2536              		.section	.text.u8g2_m_lc7981_20_2,"ax",%progbits
 2537              		.align	2
 2538              		.global	u8g2_m_lc7981_20_2
 2539              		.code	16
 2540              		.thumb_func
 2541              		.type	u8g2_m_lc7981_20_2, %function
 2542              	u8g2_m_lc7981_20_2:
 2543              	.LFB82:
 498:..\u8g2\csrc/u8g2_d_memory.c **** uint8_t *u8g2_m_lc7981_20_2(uint8_t *page_cnt)
 499:..\u8g2\csrc/u8g2_d_memory.c **** {
 2544              		.loc 1 499 0
 2545              		.cfi_startproc
 2546              		@ args = 0, pretend = 0, frame = 0
 2547              		@ frame_needed = 0, uses_anonymous_args = 0
 2548              		@ link register save eliminated.
 2549              	.LVL164:
 500:..\u8g2\csrc/u8g2_d_memory.c ****   static uint8_t buf[320];
 501:..\u8g2\csrc/u8g2_d_memory.c ****   *page_cnt = 2;
 2550              		.loc 1 501 0
 2551 0000 0223     		movs	r3, #2
 2552 0002 0370     		strb	r3, [r0]
 502:..\u8g2\csrc/u8g2_d_memory.c ****   return buf;
 503:..\u8g2\csrc/u8g2_d_memory.c **** }
 2553              		.loc 1 503 0
 2554 0004 0048     		ldr	r0, .L248
 2555              	.LVL165:
 2556              		@ sp needed
 2557 0006 7047     		bx	lr
 2558              	.L249:
 2559              		.align	2
 2560              	.L248:
 2561 0008 80A00000 		.word	.LANCHOR81
 2562              		.cfi_endproc
 2563              	.LFE82:
 2564              		.size	u8g2_m_lc7981_20_2, .-u8g2_m_lc7981_20_2
 2565              		.section	.text.u8g2_m_lc7981_20_f,"ax",%progbits
 2566              		.align	2
 2567              		.global	u8g2_m_lc7981_20_f
 2568              		.code	16
 2569              		.thumb_func
 2570              		.type	u8g2_m_lc7981_20_f, %function
 2571              	u8g2_m_lc7981_20_f:
 2572              	.LFB83:
 504:..\u8g2\csrc/u8g2_d_memory.c **** uint8_t *u8g2_m_lc7981_20_f(uint8_t *page_cnt)
 505:..\u8g2\csrc/u8g2_d_memory.c **** {
 2573              		.loc 1 505 0
ARM GAS  C:\Users\gjl\AppData\Local\Temp\ccNm9gHl.s 			page 55


 2574              		.cfi_startproc
 2575              		@ args = 0, pretend = 0, frame = 0
 2576              		@ frame_needed = 0, uses_anonymous_args = 0
 2577              		@ link register save eliminated.
 2578              	.LVL166:
 506:..\u8g2\csrc/u8g2_d_memory.c ****   static uint8_t buf[1600];
 507:..\u8g2\csrc/u8g2_d_memory.c ****   *page_cnt = 10;
 2579              		.loc 1 507 0
 2580 0000 0A23     		movs	r3, #10
 2581 0002 0370     		strb	r3, [r0]
 508:..\u8g2\csrc/u8g2_d_memory.c ****   return buf;
 2582              		.loc 1 508 0
 2583 0004 0148     		ldr	r0, .L251
 2584              	.LVL167:
 509:..\u8g2\csrc/u8g2_d_memory.c **** }
 2585              		.loc 1 509 0
 2586 0006 4030     		adds	r0, r0, #64
 2587              		@ sp needed
 2588 0008 7047     		bx	lr
 2589              	.L252:
 2590 000a C046     		.align	2
 2591              	.L251:
 2592 000c 80A10000 		.word	.LANCHOR82
 2593              		.cfi_endproc
 2594              	.LFE83:
 2595              		.size	u8g2_m_lc7981_20_f, .-u8g2_m_lc7981_20_f
 2596              		.section	.text.u8g2_m_lc7981_30_1,"ax",%progbits
 2597              		.align	2
 2598              		.global	u8g2_m_lc7981_30_1
 2599              		.code	16
 2600              		.thumb_func
 2601              		.type	u8g2_m_lc7981_30_1, %function
 2602              	u8g2_m_lc7981_30_1:
 2603              	.LFB84:
 510:..\u8g2\csrc/u8g2_d_memory.c **** uint8_t *u8g2_m_lc7981_30_1(uint8_t *page_cnt)
 511:..\u8g2\csrc/u8g2_d_memory.c **** {
 2604              		.loc 1 511 0
 2605              		.cfi_startproc
 2606              		@ args = 0, pretend = 0, frame = 0
 2607              		@ frame_needed = 0, uses_anonymous_args = 0
 2608              		@ link register save eliminated.
 2609              	.LVL168:
 512:..\u8g2\csrc/u8g2_d_memory.c ****   static uint8_t buf[240];
 513:..\u8g2\csrc/u8g2_d_memory.c ****   *page_cnt = 1;
 2610              		.loc 1 513 0
 2611 0000 0123     		movs	r3, #1
 2612 0002 0370     		strb	r3, [r0]
 514:..\u8g2\csrc/u8g2_d_memory.c ****   return buf;
 515:..\u8g2\csrc/u8g2_d_memory.c **** }
 2613              		.loc 1 515 0
 2614 0004 0048     		ldr	r0, .L254
 2615              	.LVL169:
 2616              		@ sp needed
 2617 0006 7047     		bx	lr
 2618              	.L255:
 2619              		.align	2
 2620              	.L254:
ARM GAS  C:\Users\gjl\AppData\Local\Temp\ccNm9gHl.s 			page 56


 2621 0008 00A80000 		.word	.LANCHOR83
 2622              		.cfi_endproc
 2623              	.LFE84:
 2624              		.size	u8g2_m_lc7981_30_1, .-u8g2_m_lc7981_30_1
 2625              		.section	.text.u8g2_m_lc7981_30_2,"ax",%progbits
 2626              		.align	2
 2627              		.global	u8g2_m_lc7981_30_2
 2628              		.code	16
 2629              		.thumb_func
 2630              		.type	u8g2_m_lc7981_30_2, %function
 2631              	u8g2_m_lc7981_30_2:
 2632              	.LFB85:
 516:..\u8g2\csrc/u8g2_d_memory.c **** uint8_t *u8g2_m_lc7981_30_2(uint8_t *page_cnt)
 517:..\u8g2\csrc/u8g2_d_memory.c **** {
 2633              		.loc 1 517 0
 2634              		.cfi_startproc
 2635              		@ args = 0, pretend = 0, frame = 0
 2636              		@ frame_needed = 0, uses_anonymous_args = 0
 2637              		@ link register save eliminated.
 2638              	.LVL170:
 518:..\u8g2\csrc/u8g2_d_memory.c ****   static uint8_t buf[480];
 519:..\u8g2\csrc/u8g2_d_memory.c ****   *page_cnt = 2;
 2639              		.loc 1 519 0
 2640 0000 0223     		movs	r3, #2
 2641 0002 0370     		strb	r3, [r0]
 520:..\u8g2\csrc/u8g2_d_memory.c ****   return buf;
 2642              		.loc 1 520 0
 2643 0004 0148     		ldr	r0, .L257
 2644              	.LVL171:
 521:..\u8g2\csrc/u8g2_d_memory.c **** }
 2645              		.loc 1 521 0
 2646 0006 7030     		adds	r0, r0, #112
 2647              		@ sp needed
 2648 0008 7047     		bx	lr
 2649              	.L258:
 2650 000a C046     		.align	2
 2651              	.L257:
 2652 000c 80A80000 		.word	.LANCHOR84
 2653              		.cfi_endproc
 2654              	.LFE85:
 2655              		.size	u8g2_m_lc7981_30_2, .-u8g2_m_lc7981_30_2
 2656              		.section	.text.u8g2_m_lc7981_30_f,"ax",%progbits
 2657              		.align	2
 2658              		.global	u8g2_m_lc7981_30_f
 2659              		.code	16
 2660              		.thumb_func
 2661              		.type	u8g2_m_lc7981_30_f, %function
 2662              	u8g2_m_lc7981_30_f:
 2663              	.LFB86:
 522:..\u8g2\csrc/u8g2_d_memory.c **** uint8_t *u8g2_m_lc7981_30_f(uint8_t *page_cnt)
 523:..\u8g2\csrc/u8g2_d_memory.c **** {
 2664              		.loc 1 523 0
 2665              		.cfi_startproc
 2666              		@ args = 0, pretend = 0, frame = 0
 2667              		@ frame_needed = 0, uses_anonymous_args = 0
 2668              		@ link register save eliminated.
 2669              	.LVL172:
ARM GAS  C:\Users\gjl\AppData\Local\Temp\ccNm9gHl.s 			page 57


 524:..\u8g2\csrc/u8g2_d_memory.c ****   static uint8_t buf[3840];
 525:..\u8g2\csrc/u8g2_d_memory.c ****   *page_cnt = 16;
 2670              		.loc 1 525 0
 2671 0000 1023     		movs	r3, #16
 2672 0002 0370     		strb	r3, [r0]
 526:..\u8g2\csrc/u8g2_d_memory.c ****   return buf;
 2673              		.loc 1 526 0
 2674 0004 0148     		ldr	r0, .L260
 2675              	.LVL173:
 527:..\u8g2\csrc/u8g2_d_memory.c **** }
 2676              		.loc 1 527 0
 2677 0006 5030     		adds	r0, r0, #80
 2678              		@ sp needed
 2679 0008 7047     		bx	lr
 2680              	.L261:
 2681 000a C046     		.align	2
 2682              	.L260:
 2683 000c 80AA0000 		.word	.LANCHOR85
 2684              		.cfi_endproc
 2685              	.LFE86:
 2686              		.size	u8g2_m_lc7981_30_f, .-u8g2_m_lc7981_30_f
 2687              		.section	.text.u8g2_m_t6963_30_1,"ax",%progbits
 2688              		.align	2
 2689              		.global	u8g2_m_t6963_30_1
 2690              		.code	16
 2691              		.thumb_func
 2692              		.type	u8g2_m_t6963_30_1, %function
 2693              	u8g2_m_t6963_30_1:
 2694              	.LFB87:
 528:..\u8g2\csrc/u8g2_d_memory.c **** uint8_t *u8g2_m_t6963_30_1(uint8_t *page_cnt)
 529:..\u8g2\csrc/u8g2_d_memory.c **** {
 2695              		.loc 1 529 0
 2696              		.cfi_startproc
 2697              		@ args = 0, pretend = 0, frame = 0
 2698              		@ frame_needed = 0, uses_anonymous_args = 0
 2699              		@ link register save eliminated.
 2700              	.LVL174:
 530:..\u8g2\csrc/u8g2_d_memory.c ****   static uint8_t buf[240];
 531:..\u8g2\csrc/u8g2_d_memory.c ****   *page_cnt = 1;
 2701              		.loc 1 531 0
 2702 0000 0123     		movs	r3, #1
 2703 0002 0370     		strb	r3, [r0]
 532:..\u8g2\csrc/u8g2_d_memory.c ****   return buf;
 2704              		.loc 1 532 0
 2705 0004 0148     		ldr	r0, .L263
 2706              	.LVL175:
 533:..\u8g2\csrc/u8g2_d_memory.c **** }
 2707              		.loc 1 533 0
 2708 0006 5030     		adds	r0, r0, #80
 2709              		@ sp needed
 2710 0008 7047     		bx	lr
 2711              	.L264:
 2712 000a C046     		.align	2
 2713              	.L263:
 2714 000c 80B90000 		.word	.LANCHOR86
 2715              		.cfi_endproc
 2716              	.LFE87:
ARM GAS  C:\Users\gjl\AppData\Local\Temp\ccNm9gHl.s 			page 58


 2717              		.size	u8g2_m_t6963_30_1, .-u8g2_m_t6963_30_1
 2718              		.section	.text.u8g2_m_t6963_30_2,"ax",%progbits
 2719              		.align	2
 2720              		.global	u8g2_m_t6963_30_2
 2721              		.code	16
 2722              		.thumb_func
 2723              		.type	u8g2_m_t6963_30_2, %function
 2724              	u8g2_m_t6963_30_2:
 2725              	.LFB88:
 534:..\u8g2\csrc/u8g2_d_memory.c **** uint8_t *u8g2_m_t6963_30_2(uint8_t *page_cnt)
 535:..\u8g2\csrc/u8g2_d_memory.c **** {
 2726              		.loc 1 535 0
 2727              		.cfi_startproc
 2728              		@ args = 0, pretend = 0, frame = 0
 2729              		@ frame_needed = 0, uses_anonymous_args = 0
 2730              		@ link register save eliminated.
 2731              	.LVL176:
 536:..\u8g2\csrc/u8g2_d_memory.c ****   static uint8_t buf[480];
 537:..\u8g2\csrc/u8g2_d_memory.c ****   *page_cnt = 2;
 2732              		.loc 1 537 0
 2733 0000 0223     		movs	r3, #2
 2734 0002 0370     		strb	r3, [r0]
 538:..\u8g2\csrc/u8g2_d_memory.c ****   return buf;
 2735              		.loc 1 538 0
 2736 0004 0148     		ldr	r0, .L266
 2737              	.LVL177:
 539:..\u8g2\csrc/u8g2_d_memory.c **** }
 2738              		.loc 1 539 0
 2739 0006 4030     		adds	r0, r0, #64
 2740              		@ sp needed
 2741 0008 7047     		bx	lr
 2742              	.L267:
 2743 000a C046     		.align	2
 2744              	.L266:
 2745 000c 80BA0000 		.word	.LANCHOR87
 2746              		.cfi_endproc
 2747              	.LFE88:
 2748              		.size	u8g2_m_t6963_30_2, .-u8g2_m_t6963_30_2
 2749              		.section	.text.u8g2_m_t6963_30_f,"ax",%progbits
 2750              		.align	2
 2751              		.global	u8g2_m_t6963_30_f
 2752              		.code	16
 2753              		.thumb_func
 2754              		.type	u8g2_m_t6963_30_f, %function
 2755              	u8g2_m_t6963_30_f:
 2756              	.LFB89:
 540:..\u8g2\csrc/u8g2_d_memory.c **** uint8_t *u8g2_m_t6963_30_f(uint8_t *page_cnt)
 541:..\u8g2\csrc/u8g2_d_memory.c **** {
 2757              		.loc 1 541 0
 2758              		.cfi_startproc
 2759              		@ args = 0, pretend = 0, frame = 0
 2760              		@ frame_needed = 0, uses_anonymous_args = 0
 2761              		@ link register save eliminated.
 2762              	.LVL178:
 542:..\u8g2\csrc/u8g2_d_memory.c ****   static uint8_t buf[3840];
 543:..\u8g2\csrc/u8g2_d_memory.c ****   *page_cnt = 16;
 2763              		.loc 1 543 0
ARM GAS  C:\Users\gjl\AppData\Local\Temp\ccNm9gHl.s 			page 59


 2764 0000 1023     		movs	r3, #16
 2765 0002 0370     		strb	r3, [r0]
 544:..\u8g2\csrc/u8g2_d_memory.c ****   return buf;
 2766              		.loc 1 544 0
 2767 0004 0148     		ldr	r0, .L269
 2768              	.LVL179:
 545:..\u8g2\csrc/u8g2_d_memory.c **** }
 2769              		.loc 1 545 0
 2770 0006 2030     		adds	r0, r0, #32
 2771              		@ sp needed
 2772 0008 7047     		bx	lr
 2773              	.L270:
 2774 000a C046     		.align	2
 2775              	.L269:
 2776 000c 80BC0000 		.word	.LANCHOR88
 2777              		.cfi_endproc
 2778              	.LFE89:
 2779              		.size	u8g2_m_t6963_30_f, .-u8g2_m_t6963_30_f
 2780              		.section	.text.u8g2_m_t6963_32_1,"ax",%progbits
 2781              		.align	2
 2782              		.global	u8g2_m_t6963_32_1
 2783              		.code	16
 2784              		.thumb_func
 2785              		.type	u8g2_m_t6963_32_1, %function
 2786              	u8g2_m_t6963_32_1:
 2787              	.LFB90:
 546:..\u8g2\csrc/u8g2_d_memory.c **** uint8_t *u8g2_m_t6963_32_1(uint8_t *page_cnt)
 547:..\u8g2\csrc/u8g2_d_memory.c **** {
 2788              		.loc 1 547 0
 2789              		.cfi_startproc
 2790              		@ args = 0, pretend = 0, frame = 0
 2791              		@ frame_needed = 0, uses_anonymous_args = 0
 2792              		@ link register save eliminated.
 2793              	.LVL180:
 548:..\u8g2\csrc/u8g2_d_memory.c ****   static uint8_t buf[256];
 549:..\u8g2\csrc/u8g2_d_memory.c ****   *page_cnt = 1;
 2794              		.loc 1 549 0
 2795 0000 0123     		movs	r3, #1
 2796 0002 0370     		strb	r3, [r0]
 550:..\u8g2\csrc/u8g2_d_memory.c ****   return buf;
 2797              		.loc 1 550 0
 2798 0004 0148     		ldr	r0, .L272
 2799              	.LVL181:
 551:..\u8g2\csrc/u8g2_d_memory.c **** }
 2800              		.loc 1 551 0
 2801 0006 2030     		adds	r0, r0, #32
 2802              		@ sp needed
 2803 0008 7047     		bx	lr
 2804              	.L273:
 2805 000a C046     		.align	2
 2806              	.L272:
 2807 000c 80CB0000 		.word	.LANCHOR89
 2808              		.cfi_endproc
 2809              	.LFE90:
 2810              		.size	u8g2_m_t6963_32_1, .-u8g2_m_t6963_32_1
 2811              		.section	.text.u8g2_m_t6963_32_2,"ax",%progbits
 2812              		.align	2
ARM GAS  C:\Users\gjl\AppData\Local\Temp\ccNm9gHl.s 			page 60


 2813              		.global	u8g2_m_t6963_32_2
 2814              		.code	16
 2815              		.thumb_func
 2816              		.type	u8g2_m_t6963_32_2, %function
 2817              	u8g2_m_t6963_32_2:
 2818              	.LFB91:
 552:..\u8g2\csrc/u8g2_d_memory.c **** uint8_t *u8g2_m_t6963_32_2(uint8_t *page_cnt)
 553:..\u8g2\csrc/u8g2_d_memory.c **** {
 2819              		.loc 1 553 0
 2820              		.cfi_startproc
 2821              		@ args = 0, pretend = 0, frame = 0
 2822              		@ frame_needed = 0, uses_anonymous_args = 0
 2823              		@ link register save eliminated.
 2824              	.LVL182:
 554:..\u8g2\csrc/u8g2_d_memory.c ****   static uint8_t buf[512];
 555:..\u8g2\csrc/u8g2_d_memory.c ****   *page_cnt = 2;
 2825              		.loc 1 555 0
 2826 0000 0223     		movs	r3, #2
 2827 0002 0370     		strb	r3, [r0]
 556:..\u8g2\csrc/u8g2_d_memory.c ****   return buf;
 2828              		.loc 1 556 0
 2829 0004 0148     		ldr	r0, .L275
 2830              	.LVL183:
 557:..\u8g2\csrc/u8g2_d_memory.c **** }
 2831              		.loc 1 557 0
 2832 0006 2030     		adds	r0, r0, #32
 2833              		@ sp needed
 2834 0008 7047     		bx	lr
 2835              	.L276:
 2836 000a C046     		.align	2
 2837              	.L275:
 2838 000c 80CC0000 		.word	.LANCHOR90
 2839              		.cfi_endproc
 2840              	.LFE91:
 2841              		.size	u8g2_m_t6963_32_2, .-u8g2_m_t6963_32_2
 2842              		.section	.text.u8g2_m_t6963_32_f,"ax",%progbits
 2843              		.align	2
 2844              		.global	u8g2_m_t6963_32_f
 2845              		.code	16
 2846              		.thumb_func
 2847              		.type	u8g2_m_t6963_32_f, %function
 2848              	u8g2_m_t6963_32_f:
 2849              	.LFB92:
 558:..\u8g2\csrc/u8g2_d_memory.c **** uint8_t *u8g2_m_t6963_32_f(uint8_t *page_cnt)
 559:..\u8g2\csrc/u8g2_d_memory.c **** {
 2850              		.loc 1 559 0
 2851              		.cfi_startproc
 2852              		@ args = 0, pretend = 0, frame = 0
 2853              		@ frame_needed = 0, uses_anonymous_args = 0
 2854              		@ link register save eliminated.
 2855              	.LVL184:
 560:..\u8g2\csrc/u8g2_d_memory.c ****   static uint8_t buf[2048];
 561:..\u8g2\csrc/u8g2_d_memory.c ****   *page_cnt = 8;
 2856              		.loc 1 561 0
 2857 0000 0823     		movs	r3, #8
 2858 0002 0370     		strb	r3, [r0]
 562:..\u8g2\csrc/u8g2_d_memory.c ****   return buf;
ARM GAS  C:\Users\gjl\AppData\Local\Temp\ccNm9gHl.s 			page 61


 2859              		.loc 1 562 0
 2860 0004 0148     		ldr	r0, .L278
 2861              	.LVL185:
 563:..\u8g2\csrc/u8g2_d_memory.c **** }
 2862              		.loc 1 563 0
 2863 0006 2030     		adds	r0, r0, #32
 2864              		@ sp needed
 2865 0008 7047     		bx	lr
 2866              	.L279:
 2867 000a C046     		.align	2
 2868              	.L278:
 2869 000c 80CE0000 		.word	.LANCHOR91
 2870              		.cfi_endproc
 2871              	.LFE92:
 2872              		.size	u8g2_m_t6963_32_f, .-u8g2_m_t6963_32_f
 2873              		.section	.text.u8g2_m_t6963_16_1,"ax",%progbits
 2874              		.align	2
 2875              		.global	u8g2_m_t6963_16_1
 2876              		.code	16
 2877              		.thumb_func
 2878              		.type	u8g2_m_t6963_16_1, %function
 2879              	u8g2_m_t6963_16_1:
 2880              	.LFB93:
 564:..\u8g2\csrc/u8g2_d_memory.c **** uint8_t *u8g2_m_t6963_16_1(uint8_t *page_cnt)
 565:..\u8g2\csrc/u8g2_d_memory.c **** {
 2881              		.loc 1 565 0
 2882              		.cfi_startproc
 2883              		@ args = 0, pretend = 0, frame = 0
 2884              		@ frame_needed = 0, uses_anonymous_args = 0
 2885              		@ link register save eliminated.
 2886              	.LVL186:
 566:..\u8g2\csrc/u8g2_d_memory.c ****   static uint8_t buf[128];
 567:..\u8g2\csrc/u8g2_d_memory.c ****   *page_cnt = 1;
 2887              		.loc 1 567 0
 2888 0000 0123     		movs	r3, #1
 2889 0002 0370     		strb	r3, [r0]
 568:..\u8g2\csrc/u8g2_d_memory.c ****   return buf;
 2890              		.loc 1 568 0
 2891 0004 0148     		ldr	r0, .L281
 2892              	.LVL187:
 569:..\u8g2\csrc/u8g2_d_memory.c **** }
 2893              		.loc 1 569 0
 2894 0006 2030     		adds	r0, r0, #32
 2895              		@ sp needed
 2896 0008 7047     		bx	lr
 2897              	.L282:
 2898 000a C046     		.align	2
 2899              	.L281:
 2900 000c 80D60000 		.word	.LANCHOR92
 2901              		.cfi_endproc
 2902              	.LFE93:
 2903              		.size	u8g2_m_t6963_16_1, .-u8g2_m_t6963_16_1
 2904              		.section	.text.u8g2_m_t6963_16_2,"ax",%progbits
 2905              		.align	2
 2906              		.global	u8g2_m_t6963_16_2
 2907              		.code	16
 2908              		.thumb_func
ARM GAS  C:\Users\gjl\AppData\Local\Temp\ccNm9gHl.s 			page 62


 2909              		.type	u8g2_m_t6963_16_2, %function
 2910              	u8g2_m_t6963_16_2:
 2911              	.LFB94:
 570:..\u8g2\csrc/u8g2_d_memory.c **** uint8_t *u8g2_m_t6963_16_2(uint8_t *page_cnt)
 571:..\u8g2\csrc/u8g2_d_memory.c **** {
 2912              		.loc 1 571 0
 2913              		.cfi_startproc
 2914              		@ args = 0, pretend = 0, frame = 0
 2915              		@ frame_needed = 0, uses_anonymous_args = 0
 2916              		@ link register save eliminated.
 2917              	.LVL188:
 572:..\u8g2\csrc/u8g2_d_memory.c ****   static uint8_t buf[256];
 573:..\u8g2\csrc/u8g2_d_memory.c ****   *page_cnt = 2;
 2918              		.loc 1 573 0
 2919 0000 0223     		movs	r3, #2
 2920 0002 0370     		strb	r3, [r0]
 574:..\u8g2\csrc/u8g2_d_memory.c ****   return buf;
 2921              		.loc 1 574 0
 2922 0004 0148     		ldr	r0, .L284
 2923              	.LVL189:
 575:..\u8g2\csrc/u8g2_d_memory.c **** }
 2924              		.loc 1 575 0
 2925 0006 2030     		adds	r0, r0, #32
 2926              		@ sp needed
 2927 0008 7047     		bx	lr
 2928              	.L285:
 2929 000a C046     		.align	2
 2930              	.L284:
 2931 000c 00D70000 		.word	.LANCHOR93
 2932              		.cfi_endproc
 2933              	.LFE94:
 2934              		.size	u8g2_m_t6963_16_2, .-u8g2_m_t6963_16_2
 2935              		.section	.text.u8g2_m_t6963_16_f,"ax",%progbits
 2936              		.align	2
 2937              		.global	u8g2_m_t6963_16_f
 2938              		.code	16
 2939              		.thumb_func
 2940              		.type	u8g2_m_t6963_16_f, %function
 2941              	u8g2_m_t6963_16_f:
 2942              	.LFB95:
 576:..\u8g2\csrc/u8g2_d_memory.c **** uint8_t *u8g2_m_t6963_16_f(uint8_t *page_cnt)
 577:..\u8g2\csrc/u8g2_d_memory.c **** {
 2943              		.loc 1 577 0
 2944              		.cfi_startproc
 2945              		@ args = 0, pretend = 0, frame = 0
 2946              		@ frame_needed = 0, uses_anonymous_args = 0
 2947              		@ link register save eliminated.
 2948              	.LVL190:
 578:..\u8g2\csrc/u8g2_d_memory.c ****   static uint8_t buf[1024];
 579:..\u8g2\csrc/u8g2_d_memory.c ****   *page_cnt = 8;
 2949              		.loc 1 579 0
 2950 0000 0823     		movs	r3, #8
 2951 0002 0370     		strb	r3, [r0]
 580:..\u8g2\csrc/u8g2_d_memory.c ****   return buf;
 2952              		.loc 1 580 0
 2953 0004 0148     		ldr	r0, .L287
 2954              	.LVL191:
ARM GAS  C:\Users\gjl\AppData\Local\Temp\ccNm9gHl.s 			page 63


 581:..\u8g2\csrc/u8g2_d_memory.c **** }
 2955              		.loc 1 581 0
 2956 0006 2030     		adds	r0, r0, #32
 2957              		@ sp needed
 2958 0008 7047     		bx	lr
 2959              	.L288:
 2960 000a C046     		.align	2
 2961              	.L287:
 2962 000c 00D80000 		.word	.LANCHOR94
 2963              		.cfi_endproc
 2964              	.LFE95:
 2965              		.size	u8g2_m_t6963_16_f, .-u8g2_m_t6963_16_f
 2966              		.section	.text.u8g2_m_ssd1322_32_1,"ax",%progbits
 2967              		.align	2
 2968              		.global	u8g2_m_ssd1322_32_1
 2969              		.code	16
 2970              		.thumb_func
 2971              		.type	u8g2_m_ssd1322_32_1, %function
 2972              	u8g2_m_ssd1322_32_1:
 2973              	.LFB96:
 582:..\u8g2\csrc/u8g2_d_memory.c **** uint8_t *u8g2_m_ssd1322_32_1(uint8_t *page_cnt)
 583:..\u8g2\csrc/u8g2_d_memory.c **** {
 2974              		.loc 1 583 0
 2975              		.cfi_startproc
 2976              		@ args = 0, pretend = 0, frame = 0
 2977              		@ frame_needed = 0, uses_anonymous_args = 0
 2978              		@ link register save eliminated.
 2979              	.LVL192:
 584:..\u8g2\csrc/u8g2_d_memory.c ****   static uint8_t buf[256];
 585:..\u8g2\csrc/u8g2_d_memory.c ****   *page_cnt = 1;
 2980              		.loc 1 585 0
 2981 0000 0123     		movs	r3, #1
 2982 0002 0370     		strb	r3, [r0]
 586:..\u8g2\csrc/u8g2_d_memory.c ****   return buf;
 2983              		.loc 1 586 0
 2984 0004 0148     		ldr	r0, .L290
 2985              	.LVL193:
 587:..\u8g2\csrc/u8g2_d_memory.c **** }
 2986              		.loc 1 587 0
 2987 0006 2030     		adds	r0, r0, #32
 2988              		@ sp needed
 2989 0008 7047     		bx	lr
 2990              	.L291:
 2991 000a C046     		.align	2
 2992              	.L290:
 2993 000c 00DC0000 		.word	.LANCHOR95
 2994              		.cfi_endproc
 2995              	.LFE96:
 2996              		.size	u8g2_m_ssd1322_32_1, .-u8g2_m_ssd1322_32_1
 2997              		.section	.text.u8g2_m_ssd1322_32_2,"ax",%progbits
 2998              		.align	2
 2999              		.global	u8g2_m_ssd1322_32_2
 3000              		.code	16
 3001              		.thumb_func
 3002              		.type	u8g2_m_ssd1322_32_2, %function
 3003              	u8g2_m_ssd1322_32_2:
 3004              	.LFB97:
ARM GAS  C:\Users\gjl\AppData\Local\Temp\ccNm9gHl.s 			page 64


 588:..\u8g2\csrc/u8g2_d_memory.c **** uint8_t *u8g2_m_ssd1322_32_2(uint8_t *page_cnt)
 589:..\u8g2\csrc/u8g2_d_memory.c **** {
 3005              		.loc 1 589 0
 3006              		.cfi_startproc
 3007              		@ args = 0, pretend = 0, frame = 0
 3008              		@ frame_needed = 0, uses_anonymous_args = 0
 3009              		@ link register save eliminated.
 3010              	.LVL194:
 590:..\u8g2\csrc/u8g2_d_memory.c ****   static uint8_t buf[512];
 591:..\u8g2\csrc/u8g2_d_memory.c ****   *page_cnt = 2;
 3011              		.loc 1 591 0
 3012 0000 0223     		movs	r3, #2
 3013 0002 0370     		strb	r3, [r0]
 592:..\u8g2\csrc/u8g2_d_memory.c ****   return buf;
 3014              		.loc 1 592 0
 3015 0004 0148     		ldr	r0, .L293
 3016              	.LVL195:
 593:..\u8g2\csrc/u8g2_d_memory.c **** }
 3017              		.loc 1 593 0
 3018 0006 2030     		adds	r0, r0, #32
 3019              		@ sp needed
 3020 0008 7047     		bx	lr
 3021              	.L294:
 3022 000a C046     		.align	2
 3023              	.L293:
 3024 000c 00DD0000 		.word	.LANCHOR96
 3025              		.cfi_endproc
 3026              	.LFE97:
 3027              		.size	u8g2_m_ssd1322_32_2, .-u8g2_m_ssd1322_32_2
 3028              		.section	.text.u8g2_m_ssd1322_32_f,"ax",%progbits
 3029              		.align	2
 3030              		.global	u8g2_m_ssd1322_32_f
 3031              		.code	16
 3032              		.thumb_func
 3033              		.type	u8g2_m_ssd1322_32_f, %function
 3034              	u8g2_m_ssd1322_32_f:
 3035              	.LFB98:
 594:..\u8g2\csrc/u8g2_d_memory.c **** uint8_t *u8g2_m_ssd1322_32_f(uint8_t *page_cnt)
 595:..\u8g2\csrc/u8g2_d_memory.c **** {
 3036              		.loc 1 595 0
 3037              		.cfi_startproc
 3038              		@ args = 0, pretend = 0, frame = 0
 3039              		@ frame_needed = 0, uses_anonymous_args = 0
 3040              		@ link register save eliminated.
 3041              	.LVL196:
 596:..\u8g2\csrc/u8g2_d_memory.c ****   static uint8_t buf[2048];
 597:..\u8g2\csrc/u8g2_d_memory.c ****   *page_cnt = 8;
 3042              		.loc 1 597 0
 3043 0000 0823     		movs	r3, #8
 3044 0002 0370     		strb	r3, [r0]
 598:..\u8g2\csrc/u8g2_d_memory.c ****   return buf;
 3045              		.loc 1 598 0
 3046 0004 0148     		ldr	r0, .L296
 3047              	.LVL197:
 599:..\u8g2\csrc/u8g2_d_memory.c **** }
 3048              		.loc 1 599 0
 3049 0006 2030     		adds	r0, r0, #32
ARM GAS  C:\Users\gjl\AppData\Local\Temp\ccNm9gHl.s 			page 65


 3050              		@ sp needed
 3051 0008 7047     		bx	lr
 3052              	.L297:
 3053 000a C046     		.align	2
 3054              	.L296:
 3055 000c 00DF0000 		.word	.LANCHOR97
 3056              		.cfi_endproc
 3057              	.LFE98:
 3058              		.size	u8g2_m_ssd1322_32_f, .-u8g2_m_ssd1322_32_f
 3059              		.section	.text.u8g2_m_ssd1606_22_1,"ax",%progbits
 3060              		.align	2
 3061              		.global	u8g2_m_ssd1606_22_1
 3062              		.code	16
 3063              		.thumb_func
 3064              		.type	u8g2_m_ssd1606_22_1, %function
 3065              	u8g2_m_ssd1606_22_1:
 3066              	.LFB99:
 600:..\u8g2\csrc/u8g2_d_memory.c **** uint8_t *u8g2_m_ssd1606_22_1(uint8_t *page_cnt)
 601:..\u8g2\csrc/u8g2_d_memory.c **** {
 3067              		.loc 1 601 0
 3068              		.cfi_startproc
 3069              		@ args = 0, pretend = 0, frame = 0
 3070              		@ frame_needed = 0, uses_anonymous_args = 0
 3071              		@ link register save eliminated.
 3072              	.LVL198:
 602:..\u8g2\csrc/u8g2_d_memory.c ****   static uint8_t buf[176];
 603:..\u8g2\csrc/u8g2_d_memory.c ****   *page_cnt = 1;
 3073              		.loc 1 603 0
 3074 0000 0123     		movs	r3, #1
 3075 0002 0370     		strb	r3, [r0]
 604:..\u8g2\csrc/u8g2_d_memory.c ****   return buf;
 3076              		.loc 1 604 0
 3077 0004 0148     		ldr	r0, .L299
 3078              	.LVL199:
 605:..\u8g2\csrc/u8g2_d_memory.c **** }
 3079              		.loc 1 605 0
 3080 0006 2030     		adds	r0, r0, #32
 3081              		@ sp needed
 3082 0008 7047     		bx	lr
 3083              	.L300:
 3084 000a C046     		.align	2
 3085              	.L299:
 3086 000c 00E70000 		.word	.LANCHOR98
 3087              		.cfi_endproc
 3088              	.LFE99:
 3089              		.size	u8g2_m_ssd1606_22_1, .-u8g2_m_ssd1606_22_1
 3090              		.section	.text.u8g2_m_ssd1606_22_2,"ax",%progbits
 3091              		.align	2
 3092              		.global	u8g2_m_ssd1606_22_2
 3093              		.code	16
 3094              		.thumb_func
 3095              		.type	u8g2_m_ssd1606_22_2, %function
 3096              	u8g2_m_ssd1606_22_2:
 3097              	.LFB100:
 606:..\u8g2\csrc/u8g2_d_memory.c **** uint8_t *u8g2_m_ssd1606_22_2(uint8_t *page_cnt)
 607:..\u8g2\csrc/u8g2_d_memory.c **** {
 3098              		.loc 1 607 0
ARM GAS  C:\Users\gjl\AppData\Local\Temp\ccNm9gHl.s 			page 66


 3099              		.cfi_startproc
 3100              		@ args = 0, pretend = 0, frame = 0
 3101              		@ frame_needed = 0, uses_anonymous_args = 0
 3102              		@ link register save eliminated.
 3103              	.LVL200:
 608:..\u8g2\csrc/u8g2_d_memory.c ****   static uint8_t buf[352];
 609:..\u8g2\csrc/u8g2_d_memory.c ****   *page_cnt = 2;
 3104              		.loc 1 609 0
 3105 0000 0223     		movs	r3, #2
 3106 0002 0370     		strb	r3, [r0]
 610:..\u8g2\csrc/u8g2_d_memory.c ****   return buf;
 3107              		.loc 1 610 0
 3108 0004 0148     		ldr	r0, .L302
 3109              	.LVL201:
 611:..\u8g2\csrc/u8g2_d_memory.c **** }
 3110              		.loc 1 611 0
 3111 0006 5030     		adds	r0, r0, #80
 3112              		@ sp needed
 3113 0008 7047     		bx	lr
 3114              	.L303:
 3115 000a C046     		.align	2
 3116              	.L302:
 3117 000c 80E70000 		.word	.LANCHOR99
 3118              		.cfi_endproc
 3119              	.LFE100:
 3120              		.size	u8g2_m_ssd1606_22_2, .-u8g2_m_ssd1606_22_2
 3121              		.section	.text.u8g2_m_ssd1606_22_f,"ax",%progbits
 3122              		.align	2
 3123              		.global	u8g2_m_ssd1606_22_f
 3124              		.code	16
 3125              		.thumb_func
 3126              		.type	u8g2_m_ssd1606_22_f, %function
 3127              	u8g2_m_ssd1606_22_f:
 3128              	.LFB101:
 612:..\u8g2\csrc/u8g2_d_memory.c **** uint8_t *u8g2_m_ssd1606_22_f(uint8_t *page_cnt)
 613:..\u8g2\csrc/u8g2_d_memory.c **** {
 3129              		.loc 1 613 0
 3130              		.cfi_startproc
 3131              		@ args = 0, pretend = 0, frame = 0
 3132              		@ frame_needed = 0, uses_anonymous_args = 0
 3133              		@ link register save eliminated.
 3134              	.LVL202:
 614:..\u8g2\csrc/u8g2_d_memory.c ****   static uint8_t buf[1584];
 615:..\u8g2\csrc/u8g2_d_memory.c ****   *page_cnt = 9;
 3135              		.loc 1 615 0
 3136 0000 0923     		movs	r3, #9
 3137 0002 0370     		strb	r3, [r0]
 616:..\u8g2\csrc/u8g2_d_memory.c ****   return buf;
 3138              		.loc 1 616 0
 3139 0004 0148     		ldr	r0, .L305
 3140              	.LVL203:
 617:..\u8g2\csrc/u8g2_d_memory.c **** }
 3141              		.loc 1 617 0
 3142 0006 3030     		adds	r0, r0, #48
 3143              		@ sp needed
 3144 0008 7047     		bx	lr
 3145              	.L306:
ARM GAS  C:\Users\gjl\AppData\Local\Temp\ccNm9gHl.s 			page 67


 3146 000a C046     		.align	2
 3147              	.L305:
 3148 000c 00E90000 		.word	.LANCHOR100
 3149              		.cfi_endproc
 3150              	.LFE101:
 3151              		.size	u8g2_m_ssd1606_22_f, .-u8g2_m_ssd1606_22_f
 3152              		.section	.text.u8g2_m_ssd1607_25_1,"ax",%progbits
 3153              		.align	2
 3154              		.global	u8g2_m_ssd1607_25_1
 3155              		.code	16
 3156              		.thumb_func
 3157              		.type	u8g2_m_ssd1607_25_1, %function
 3158              	u8g2_m_ssd1607_25_1:
 3159              	.LFB102:
 618:..\u8g2\csrc/u8g2_d_memory.c **** uint8_t *u8g2_m_ssd1607_25_1(uint8_t *page_cnt)
 619:..\u8g2\csrc/u8g2_d_memory.c **** {
 3160              		.loc 1 619 0
 3161              		.cfi_startproc
 3162              		@ args = 0, pretend = 0, frame = 0
 3163              		@ frame_needed = 0, uses_anonymous_args = 0
 3164              		@ link register save eliminated.
 3165              	.LVL204:
 620:..\u8g2\csrc/u8g2_d_memory.c ****   static uint8_t buf[200];
 621:..\u8g2\csrc/u8g2_d_memory.c ****   *page_cnt = 1;
 3166              		.loc 1 621 0
 3167 0000 0123     		movs	r3, #1
 3168 0002 0370     		strb	r3, [r0]
 622:..\u8g2\csrc/u8g2_d_memory.c ****   return buf;
 3169              		.loc 1 622 0
 3170 0004 0148     		ldr	r0, .L308
 3171              	.LVL205:
 623:..\u8g2\csrc/u8g2_d_memory.c **** }
 3172              		.loc 1 623 0
 3173 0006 6030     		adds	r0, r0, #96
 3174              		@ sp needed
 3175 0008 7047     		bx	lr
 3176              	.L309:
 3177 000a C046     		.align	2
 3178              	.L308:
 3179 000c 00EF0000 		.word	.LANCHOR101
 3180              		.cfi_endproc
 3181              	.LFE102:
 3182              		.size	u8g2_m_ssd1607_25_1, .-u8g2_m_ssd1607_25_1
 3183              		.section	.text.u8g2_m_ssd1607_25_2,"ax",%progbits
 3184              		.align	2
 3185              		.global	u8g2_m_ssd1607_25_2
 3186              		.code	16
 3187              		.thumb_func
 3188              		.type	u8g2_m_ssd1607_25_2, %function
 3189              	u8g2_m_ssd1607_25_2:
 3190              	.LFB103:
 624:..\u8g2\csrc/u8g2_d_memory.c **** uint8_t *u8g2_m_ssd1607_25_2(uint8_t *page_cnt)
 625:..\u8g2\csrc/u8g2_d_memory.c **** {
 3191              		.loc 1 625 0
 3192              		.cfi_startproc
 3193              		@ args = 0, pretend = 0, frame = 0
 3194              		@ frame_needed = 0, uses_anonymous_args = 0
ARM GAS  C:\Users\gjl\AppData\Local\Temp\ccNm9gHl.s 			page 68


 3195              		@ link register save eliminated.
 3196              	.LVL206:
 626:..\u8g2\csrc/u8g2_d_memory.c ****   static uint8_t buf[400];
 627:..\u8g2\csrc/u8g2_d_memory.c ****   *page_cnt = 2;
 3197              		.loc 1 627 0
 3198 0000 0223     		movs	r3, #2
 3199 0002 0370     		strb	r3, [r0]
 628:..\u8g2\csrc/u8g2_d_memory.c ****   return buf;
 3200              		.loc 1 628 0
 3201 0004 0148     		ldr	r0, .L311
 3202              	.LVL207:
 629:..\u8g2\csrc/u8g2_d_memory.c **** }
 3203              		.loc 1 629 0
 3204 0006 2830     		adds	r0, r0, #40
 3205              		@ sp needed
 3206 0008 7047     		bx	lr
 3207              	.L312:
 3208 000a C046     		.align	2
 3209              	.L311:
 3210 000c 00F00000 		.word	.LANCHOR102
 3211              		.cfi_endproc
 3212              	.LFE103:
 3213              		.size	u8g2_m_ssd1607_25_2, .-u8g2_m_ssd1607_25_2
 3214              		.section	.text.u8g2_m_ssd1607_25_f,"ax",%progbits
 3215              		.align	2
 3216              		.global	u8g2_m_ssd1607_25_f
 3217              		.code	16
 3218              		.thumb_func
 3219              		.type	u8g2_m_ssd1607_25_f, %function
 3220              	u8g2_m_ssd1607_25_f:
 3221              	.LFB104:
 630:..\u8g2\csrc/u8g2_d_memory.c **** uint8_t *u8g2_m_ssd1607_25_f(uint8_t *page_cnt)
 631:..\u8g2\csrc/u8g2_d_memory.c **** {
 3222              		.loc 1 631 0
 3223              		.cfi_startproc
 3224              		@ args = 0, pretend = 0, frame = 0
 3225              		@ frame_needed = 0, uses_anonymous_args = 0
 3226              		@ link register save eliminated.
 3227              	.LVL208:
 632:..\u8g2\csrc/u8g2_d_memory.c ****   static uint8_t buf[5000];
 633:..\u8g2\csrc/u8g2_d_memory.c ****   *page_cnt = 25;
 3228              		.loc 1 633 0
 3229 0000 1923     		movs	r3, #25
 3230 0002 0370     		strb	r3, [r0]
 634:..\u8g2\csrc/u8g2_d_memory.c ****   return buf;
 3231              		.loc 1 634 0
 3232 0004 0148     		ldr	r0, .L314
 3233              	.LVL209:
 635:..\u8g2\csrc/u8g2_d_memory.c **** }
 3234              		.loc 1 635 0
 3235 0006 3830     		adds	r0, r0, #56
 3236              		@ sp needed
 3237 0008 7047     		bx	lr
 3238              	.L315:
 3239 000a C046     		.align	2
 3240              	.L314:
 3241 000c 80F10000 		.word	.LANCHOR103
ARM GAS  C:\Users\gjl\AppData\Local\Temp\ccNm9gHl.s 			page 69


 3242              		.cfi_endproc
 3243              	.LFE104:
 3244              		.size	u8g2_m_ssd1607_25_f, .-u8g2_m_ssd1607_25_f
 3245              		.section	.text.u8g2_m_sed1330_30_1,"ax",%progbits
 3246              		.align	2
 3247              		.global	u8g2_m_sed1330_30_1
 3248              		.code	16
 3249              		.thumb_func
 3250              		.type	u8g2_m_sed1330_30_1, %function
 3251              	u8g2_m_sed1330_30_1:
 3252              	.LFB105:
 636:..\u8g2\csrc/u8g2_d_memory.c **** uint8_t *u8g2_m_sed1330_30_1(uint8_t *page_cnt)
 637:..\u8g2\csrc/u8g2_d_memory.c **** {
 3253              		.loc 1 637 0
 3254              		.cfi_startproc
 3255              		@ args = 0, pretend = 0, frame = 0
 3256              		@ frame_needed = 0, uses_anonymous_args = 0
 3257              		@ link register save eliminated.
 3258              	.LVL210:
 638:..\u8g2\csrc/u8g2_d_memory.c ****   static uint8_t buf[240];
 639:..\u8g2\csrc/u8g2_d_memory.c ****   *page_cnt = 1;
 3259              		.loc 1 639 0
 3260 0000 0123     		movs	r3, #1
 3261 0002 0370     		strb	r3, [r0]
 640:..\u8g2\csrc/u8g2_d_memory.c ****   return buf;
 3262              		.loc 1 640 0
 3263 0004 0148     		ldr	r0, .L317
 3264              	.LVL211:
 641:..\u8g2\csrc/u8g2_d_memory.c **** }
 3265              		.loc 1 641 0
 3266 0006 4030     		adds	r0, r0, #64
 3267              		@ sp needed
 3268 0008 7047     		bx	lr
 3269              	.L318:
 3270 000a C046     		.align	2
 3271              	.L317:
 3272 000c 00050100 		.word	.LANCHOR104
 3273              		.cfi_endproc
 3274              	.LFE105:
 3275              		.size	u8g2_m_sed1330_30_1, .-u8g2_m_sed1330_30_1
 3276              		.section	.text.u8g2_m_sed1330_30_2,"ax",%progbits
 3277              		.align	2
 3278              		.global	u8g2_m_sed1330_30_2
 3279              		.code	16
 3280              		.thumb_func
 3281              		.type	u8g2_m_sed1330_30_2, %function
 3282              	u8g2_m_sed1330_30_2:
 3283              	.LFB106:
 642:..\u8g2\csrc/u8g2_d_memory.c **** uint8_t *u8g2_m_sed1330_30_2(uint8_t *page_cnt)
 643:..\u8g2\csrc/u8g2_d_memory.c **** {
 3284              		.loc 1 643 0
 3285              		.cfi_startproc
 3286              		@ args = 0, pretend = 0, frame = 0
 3287              		@ frame_needed = 0, uses_anonymous_args = 0
 3288              		@ link register save eliminated.
 3289              	.LVL212:
 644:..\u8g2\csrc/u8g2_d_memory.c ****   static uint8_t buf[480];
ARM GAS  C:\Users\gjl\AppData\Local\Temp\ccNm9gHl.s 			page 70


 645:..\u8g2\csrc/u8g2_d_memory.c ****   *page_cnt = 2;
 3290              		.loc 1 645 0
 3291 0000 0223     		movs	r3, #2
 3292 0002 0370     		strb	r3, [r0]
 646:..\u8g2\csrc/u8g2_d_memory.c ****   return buf;
 3293              		.loc 1 646 0
 3294 0004 0148     		ldr	r0, .L320
 3295              	.LVL213:
 647:..\u8g2\csrc/u8g2_d_memory.c **** }
 3296              		.loc 1 647 0
 3297 0006 3030     		adds	r0, r0, #48
 3298              		@ sp needed
 3299 0008 7047     		bx	lr
 3300              	.L321:
 3301 000a C046     		.align	2
 3302              	.L320:
 3303 000c 00060100 		.word	.LANCHOR105
 3304              		.cfi_endproc
 3305              	.LFE106:
 3306              		.size	u8g2_m_sed1330_30_2, .-u8g2_m_sed1330_30_2
 3307              		.section	.text.u8g2_m_sed1330_30_f,"ax",%progbits
 3308              		.align	2
 3309              		.global	u8g2_m_sed1330_30_f
 3310              		.code	16
 3311              		.thumb_func
 3312              		.type	u8g2_m_sed1330_30_f, %function
 3313              	u8g2_m_sed1330_30_f:
 3314              	.LFB107:
 648:..\u8g2\csrc/u8g2_d_memory.c **** uint8_t *u8g2_m_sed1330_30_f(uint8_t *page_cnt)
 649:..\u8g2\csrc/u8g2_d_memory.c **** {
 3315              		.loc 1 649 0
 3316              		.cfi_startproc
 3317              		@ args = 0, pretend = 0, frame = 0
 3318              		@ frame_needed = 0, uses_anonymous_args = 0
 3319              		@ link register save eliminated.
 3320              	.LVL214:
 650:..\u8g2\csrc/u8g2_d_memory.c ****   static uint8_t buf[3840];
 651:..\u8g2\csrc/u8g2_d_memory.c ****   *page_cnt = 16;
 3321              		.loc 1 651 0
 3322 0000 1023     		movs	r3, #16
 3323 0002 0370     		strb	r3, [r0]
 652:..\u8g2\csrc/u8g2_d_memory.c ****   return buf;
 3324              		.loc 1 652 0
 3325 0004 0148     		ldr	r0, .L323
 3326              	.LVL215:
 653:..\u8g2\csrc/u8g2_d_memory.c **** }
 3327              		.loc 1 653 0
 3328 0006 1030     		adds	r0, r0, #16
 3329              		@ sp needed
 3330 0008 7047     		bx	lr
 3331              	.L324:
 3332 000a C046     		.align	2
 3333              	.L323:
 3334 000c 00080100 		.word	.LANCHOR106
 3335              		.cfi_endproc
 3336              	.LFE107:
 3337              		.size	u8g2_m_sed1330_30_f, .-u8g2_m_sed1330_30_f
ARM GAS  C:\Users\gjl\AppData\Local\Temp\ccNm9gHl.s 			page 71


 3338              		.section	.text.u8g2_m_ra8835_30_1,"ax",%progbits
 3339              		.align	2
 3340              		.global	u8g2_m_ra8835_30_1
 3341              		.code	16
 3342              		.thumb_func
 3343              		.type	u8g2_m_ra8835_30_1, %function
 3344              	u8g2_m_ra8835_30_1:
 3345              	.LFB108:
 654:..\u8g2\csrc/u8g2_d_memory.c **** uint8_t *u8g2_m_ra8835_30_1(uint8_t *page_cnt)
 655:..\u8g2\csrc/u8g2_d_memory.c **** {
 3346              		.loc 1 655 0
 3347              		.cfi_startproc
 3348              		@ args = 0, pretend = 0, frame = 0
 3349              		@ frame_needed = 0, uses_anonymous_args = 0
 3350              		@ link register save eliminated.
 3351              	.LVL216:
 656:..\u8g2\csrc/u8g2_d_memory.c ****   static uint8_t buf[240];
 657:..\u8g2\csrc/u8g2_d_memory.c ****   *page_cnt = 1;
 3352              		.loc 1 657 0
 3353 0000 0123     		movs	r3, #1
 3354 0002 0370     		strb	r3, [r0]
 658:..\u8g2\csrc/u8g2_d_memory.c ****   return buf;
 3355              		.loc 1 658 0
 3356 0004 0148     		ldr	r0, .L326
 3357              	.LVL217:
 659:..\u8g2\csrc/u8g2_d_memory.c **** }
 3358              		.loc 1 659 0
 3359 0006 1030     		adds	r0, r0, #16
 3360              		@ sp needed
 3361 0008 7047     		bx	lr
 3362              	.L327:
 3363 000a C046     		.align	2
 3364              	.L326:
 3365 000c 00170100 		.word	.LANCHOR107
 3366              		.cfi_endproc
 3367              	.LFE108:
 3368              		.size	u8g2_m_ra8835_30_1, .-u8g2_m_ra8835_30_1
 3369              		.section	.text.u8g2_m_ra8835_30_2,"ax",%progbits
 3370              		.align	2
 3371              		.global	u8g2_m_ra8835_30_2
 3372              		.code	16
 3373              		.thumb_func
 3374              		.type	u8g2_m_ra8835_30_2, %function
 3375              	u8g2_m_ra8835_30_2:
 3376              	.LFB109:
 660:..\u8g2\csrc/u8g2_d_memory.c **** uint8_t *u8g2_m_ra8835_30_2(uint8_t *page_cnt)
 661:..\u8g2\csrc/u8g2_d_memory.c **** {
 3377              		.loc 1 661 0
 3378              		.cfi_startproc
 3379              		@ args = 0, pretend = 0, frame = 0
 3380              		@ frame_needed = 0, uses_anonymous_args = 0
 3381              		@ link register save eliminated.
 3382              	.LVL218:
 662:..\u8g2\csrc/u8g2_d_memory.c ****   static uint8_t buf[480];
 663:..\u8g2\csrc/u8g2_d_memory.c ****   *page_cnt = 2;
 3383              		.loc 1 663 0
 3384 0000 0223     		movs	r3, #2
ARM GAS  C:\Users\gjl\AppData\Local\Temp\ccNm9gHl.s 			page 72


 3385 0002 0370     		strb	r3, [r0]
 664:..\u8g2\csrc/u8g2_d_memory.c ****   return buf;
 665:..\u8g2\csrc/u8g2_d_memory.c **** }
 3386              		.loc 1 665 0
 3387 0004 0048     		ldr	r0, .L329
 3388              	.LVL219:
 3389              		@ sp needed
 3390 0006 7047     		bx	lr
 3391              	.L330:
 3392              		.align	2
 3393              	.L329:
 3394 0008 00180100 		.word	.LANCHOR108
 3395              		.cfi_endproc
 3396              	.LFE109:
 3397              		.size	u8g2_m_ra8835_30_2, .-u8g2_m_ra8835_30_2
 3398              		.section	.text.u8g2_m_ra8835_30_f,"ax",%progbits
 3399              		.align	2
 3400              		.global	u8g2_m_ra8835_30_f
 3401              		.code	16
 3402              		.thumb_func
 3403              		.type	u8g2_m_ra8835_30_f, %function
 3404              	u8g2_m_ra8835_30_f:
 3405              	.LFB110:
 666:..\u8g2\csrc/u8g2_d_memory.c **** uint8_t *u8g2_m_ra8835_30_f(uint8_t *page_cnt)
 667:..\u8g2\csrc/u8g2_d_memory.c **** {
 3406              		.loc 1 667 0
 3407              		.cfi_startproc
 3408              		@ args = 0, pretend = 0, frame = 0
 3409              		@ frame_needed = 0, uses_anonymous_args = 0
 3410              		@ link register save eliminated.
 3411              	.LVL220:
 668:..\u8g2\csrc/u8g2_d_memory.c ****   static uint8_t buf[3840];
 669:..\u8g2\csrc/u8g2_d_memory.c ****   *page_cnt = 16;
 3412              		.loc 1 669 0
 3413 0000 1023     		movs	r3, #16
 3414 0002 0370     		strb	r3, [r0]
 670:..\u8g2\csrc/u8g2_d_memory.c ****   return buf;
 3415              		.loc 1 670 0
 3416 0004 0148     		ldr	r0, .L332
 3417              	.LVL221:
 671:..\u8g2\csrc/u8g2_d_memory.c **** }
 3418              		.loc 1 671 0
 3419 0006 6030     		adds	r0, r0, #96
 3420              		@ sp needed
 3421 0008 7047     		bx	lr
 3422              	.L333:
 3423 000a C046     		.align	2
 3424              	.L332:
 3425 000c 80190100 		.word	.LANCHOR109
 3426              		.cfi_endproc
 3427              	.LFE110:
 3428              		.size	u8g2_m_ra8835_30_f, .-u8g2_m_ra8835_30_f
 3429              		.section	.text.u8g2_m_a2printer_48_1,"ax",%progbits
 3430              		.align	2
 3431              		.global	u8g2_m_a2printer_48_1
 3432              		.code	16
 3433              		.thumb_func
ARM GAS  C:\Users\gjl\AppData\Local\Temp\ccNm9gHl.s 			page 73


 3434              		.type	u8g2_m_a2printer_48_1, %function
 3435              	u8g2_m_a2printer_48_1:
 3436              	.LFB111:
 672:..\u8g2\csrc/u8g2_d_memory.c **** uint8_t *u8g2_m_a2printer_48_1(uint8_t *page_cnt)
 673:..\u8g2\csrc/u8g2_d_memory.c **** {
 3437              		.loc 1 673 0
 3438              		.cfi_startproc
 3439              		@ args = 0, pretend = 0, frame = 0
 3440              		@ frame_needed = 0, uses_anonymous_args = 0
 3441              		@ link register save eliminated.
 3442              	.LVL222:
 674:..\u8g2\csrc/u8g2_d_memory.c ****   static uint8_t buf[384];
 675:..\u8g2\csrc/u8g2_d_memory.c ****   *page_cnt = 1;
 3443              		.loc 1 675 0
 3444 0000 0123     		movs	r3, #1
 3445 0002 0370     		strb	r3, [r0]
 676:..\u8g2\csrc/u8g2_d_memory.c ****   return buf;
 3446              		.loc 1 676 0
 3447 0004 0148     		ldr	r0, .L335
 3448              	.LVL223:
 677:..\u8g2\csrc/u8g2_d_memory.c **** }
 3449              		.loc 1 677 0
 3450 0006 6030     		adds	r0, r0, #96
 3451              		@ sp needed
 3452 0008 7047     		bx	lr
 3453              	.L336:
 3454 000a C046     		.align	2
 3455              	.L335:
 3456 000c 80280100 		.word	.LANCHOR110
 3457              		.cfi_endproc
 3458              	.LFE111:
 3459              		.size	u8g2_m_a2printer_48_1, .-u8g2_m_a2printer_48_1
 3460              		.section	.text.u8g2_m_a2printer_48_2,"ax",%progbits
 3461              		.align	2
 3462              		.global	u8g2_m_a2printer_48_2
 3463              		.code	16
 3464              		.thumb_func
 3465              		.type	u8g2_m_a2printer_48_2, %function
 3466              	u8g2_m_a2printer_48_2:
 3467              	.LFB112:
 678:..\u8g2\csrc/u8g2_d_memory.c **** uint8_t *u8g2_m_a2printer_48_2(uint8_t *page_cnt)
 679:..\u8g2\csrc/u8g2_d_memory.c **** {
 3468              		.loc 1 679 0
 3469              		.cfi_startproc
 3470              		@ args = 0, pretend = 0, frame = 0
 3471              		@ frame_needed = 0, uses_anonymous_args = 0
 3472              		@ link register save eliminated.
 3473              	.LVL224:
 680:..\u8g2\csrc/u8g2_d_memory.c ****   static uint8_t buf[768];
 681:..\u8g2\csrc/u8g2_d_memory.c ****   *page_cnt = 2;
 3474              		.loc 1 681 0
 3475 0000 0223     		movs	r3, #2
 3476 0002 0370     		strb	r3, [r0]
 682:..\u8g2\csrc/u8g2_d_memory.c ****   return buf;
 3477              		.loc 1 682 0
 3478 0004 0148     		ldr	r0, .L338
 3479              	.LVL225:
ARM GAS  C:\Users\gjl\AppData\Local\Temp\ccNm9gHl.s 			page 74


 683:..\u8g2\csrc/u8g2_d_memory.c **** }
 3480              		.loc 1 683 0
 3481 0006 6030     		adds	r0, r0, #96
 3482              		@ sp needed
 3483 0008 7047     		bx	lr
 3484              	.L339:
 3485 000a C046     		.align	2
 3486              	.L338:
 3487 000c 002A0100 		.word	.LANCHOR111
 3488              		.cfi_endproc
 3489              	.LFE112:
 3490              		.size	u8g2_m_a2printer_48_2, .-u8g2_m_a2printer_48_2
 3491              		.section	.text.u8g2_m_a2printer_48_f,"ax",%progbits
 3492              		.align	2
 3493              		.global	u8g2_m_a2printer_48_f
 3494              		.code	16
 3495              		.thumb_func
 3496              		.type	u8g2_m_a2printer_48_f, %function
 3497              	u8g2_m_a2printer_48_f:
 3498              	.LFB113:
 684:..\u8g2\csrc/u8g2_d_memory.c **** uint8_t *u8g2_m_a2printer_48_f(uint8_t *page_cnt)
 685:..\u8g2\csrc/u8g2_d_memory.c **** {
 3499              		.loc 1 685 0
 3500              		.cfi_startproc
 3501              		@ args = 0, pretend = 0, frame = 0
 3502              		@ frame_needed = 0, uses_anonymous_args = 0
 3503              		@ link register save eliminated.
 3504              	.LVL226:
 686:..\u8g2\csrc/u8g2_d_memory.c ****   static uint8_t buf[11520];
 687:..\u8g2\csrc/u8g2_d_memory.c ****   *page_cnt = 30;
 3505              		.loc 1 687 0
 3506 0000 1E23     		movs	r3, #30
 3507 0002 0370     		strb	r3, [r0]
 688:..\u8g2\csrc/u8g2_d_memory.c ****   return buf;
 3508              		.loc 1 688 0
 3509 0004 0148     		ldr	r0, .L341
 3510              	.LVL227:
 689:..\u8g2\csrc/u8g2_d_memory.c **** }
 3511              		.loc 1 689 0
 3512 0006 6030     		adds	r0, r0, #96
 3513              		@ sp needed
 3514 0008 7047     		bx	lr
 3515              	.L342:
 3516 000a C046     		.align	2
 3517              	.L341:
 3518 000c 002D0100 		.word	.LANCHOR112
 3519              		.cfi_endproc
 3520              	.LFE113:
 3521              		.size	u8g2_m_a2printer_48_f, .-u8g2_m_a2printer_48_f
 3522              		.bss
 3523              		.align	2
 3524              		.set	.LANCHOR0,. + 0
 3525              		.set	.LANCHOR1,. + 128
 3526              		.set	.LANCHOR2,. + 384
 3527              		.set	.LANCHOR3,. + 896
 3528              		.set	.LANCHOR4,. + 1024
 3529              		.set	.LANCHOR5,. + 1280
ARM GAS  C:\Users\gjl\AppData\Local\Temp\ccNm9gHl.s 			page 75


 3530              		.set	.LANCHOR6,. + 2304
 3531              		.set	.LANCHOR7,. + 2432
 3532              		.set	.LANCHOR8,. + 2688
 3533              		.set	.LANCHOR9,. + 3712
 3534              		.set	.LANCHOR10,. + 3840
 3535              		.set	.LANCHOR11,. + 4224
 3536              		.set	.LANCHOR12,. + 4352
 3537              		.set	.LANCHOR13,. + 4608
 3538              		.set	.LANCHOR14,. + 5632
 3539              		.set	.LANCHOR15,. + 5760
 3540              		.set	.LANCHOR16,. + 6016
 3541              		.set	.LANCHOR17,. + 7040
 3542              		.set	.LANCHOR18,. + 7168
 3543              		.set	.LANCHOR19,. + 7296
 3544              		.set	.LANCHOR20,. + 8448
 3545              		.set	.LANCHOR21,. + 8576
 3546              		.set	.LANCHOR22,. + 8704
 3547              		.set	.LANCHOR23,. + 8960
 3548              		.set	.LANCHOR24,. + 9088
 3549              		.set	.LANCHOR25,. + 9472
 3550              		.set	.LANCHOR26,. + 10240
 3551              		.set	.LANCHOR27,. + 10368
 3552              		.set	.LANCHOR28,. + 10624
 3553              		.set	.LANCHOR29,. + 11648
 3554              		.set	.LANCHOR30,. + 11776
 3555              		.set	.LANCHOR31,. + 12032
 3556              		.set	.LANCHOR32,. + 14080
 3557              		.set	.LANCHOR33,. + 14208
 3558              		.set	.LANCHOR34,. + 14464
 3559              		.set	.LANCHOR35,. + 15232
 3560              		.set	.LANCHOR36,. + 15360
 3561              		.set	.LANCHOR37,. + 15616
 3562              		.set	.LANCHOR38,. + 16640
 3563              		.set	.LANCHOR39,. + 16768
 3564              		.set	.LANCHOR40,. + 16896
 3565              		.set	.LANCHOR41,. + 17408
 3566              		.set	.LANCHOR42,. + 17536
 3567              		.set	.LANCHOR43,. + 17792
 3568              		.set	.LANCHOR44,. + 18560
 3569              		.set	.LANCHOR45,. + 18816
 3570              		.set	.LANCHOR46,. + 19200
 3571              		.set	.LANCHOR47,. + 20736
 3572              		.set	.LANCHOR48,. + 20992
 3573              		.set	.LANCHOR49,. + 21504
 3574              		.set	.LANCHOR50,. + 23424
 3575              		.set	.LANCHOR51,. + 23552
 3576              		.set	.LANCHOR52,. + 23808
 3577              		.set	.LANCHOR53,. + 25984
 3578              		.set	.LANCHOR54,. + 26112
 3579              		.set	.LANCHOR55,. + 26624
 3580              		.set	.LANCHOR56,. + 28544
 3581              		.set	.LANCHOR57,. + 28672
 3582              		.set	.LANCHOR58,. + 28928
 3583              		.set	.LANCHOR59,. + 29952
 3584              		.set	.LANCHOR60,. + 30080
 3585              		.set	.LANCHOR61,. + 30336
 3586              		.set	.LANCHOR62,. + 30976
ARM GAS  C:\Users\gjl\AppData\Local\Temp\ccNm9gHl.s 			page 76


 3587              		.set	.LANCHOR63,. + 31104
 3588              		.set	.LANCHOR64,. + 31360
 3589              		.set	.LANCHOR65,. + 32384
 3590              		.set	.LANCHOR66,. + 32512
 3591              		.set	.LANCHOR67,. + 32768
 3592              		.set	.LANCHOR68,. + 33792
 3593              		.set	.LANCHOR69,. + 33920
 3594              		.set	.LANCHOR70,. + 34176
 3595              		.set	.LANCHOR71,. + 35200
 3596              		.set	.LANCHOR72,. + 35456
 3597              		.set	.LANCHOR73,. + 35840
 3598              		.set	.LANCHOR74,. + 37376
 3599              		.set	.LANCHOR75,. + 37504
 3600              		.set	.LANCHOR76,. + 37760
 3601              		.set	.LANCHOR77,. + 38784
 3602              		.set	.LANCHOR78,. + 38912
 3603              		.set	.LANCHOR79,. + 39296
 3604              		.set	.LANCHOR80,. + 40832
 3605              		.set	.LANCHOR81,. + 41088
 3606              		.set	.LANCHOR82,. + 41344
 3607              		.set	.LANCHOR83,. + 43008
 3608              		.set	.LANCHOR84,. + 43136
 3609              		.set	.LANCHOR85,. + 43648
 3610              		.set	.LANCHOR86,. + 47488
 3611              		.set	.LANCHOR87,. + 47744
 3612              		.set	.LANCHOR88,. + 48256
 3613              		.set	.LANCHOR89,. + 52096
 3614              		.set	.LANCHOR90,. + 52352
 3615              		.set	.LANCHOR91,. + 52864
 3616              		.set	.LANCHOR92,. + 54912
 3617              		.set	.LANCHOR93,. + 55040
 3618              		.set	.LANCHOR94,. + 55296
 3619              		.set	.LANCHOR95,. + 56320
 3620              		.set	.LANCHOR96,. + 56576
 3621              		.set	.LANCHOR97,. + 57088
 3622              		.set	.LANCHOR98,. + 59136
 3623              		.set	.LANCHOR99,. + 59264
 3624              		.set	.LANCHOR100,. + 59648
 3625              		.set	.LANCHOR101,. + 61184
 3626              		.set	.LANCHOR102,. + 61440
 3627              		.set	.LANCHOR103,. + 61824
 3628              		.set	.LANCHOR104,. + 66816
 3629              		.set	.LANCHOR105,. + 67072
 3630              		.set	.LANCHOR106,. + 67584
 3631              		.set	.LANCHOR107,. + 71424
 3632              		.set	.LANCHOR108,. + 71680
 3633              		.set	.LANCHOR109,. + 72064
 3634              		.set	.LANCHOR110,. + 75904
 3635              		.set	.LANCHOR111,. + 76288
 3636              		.set	.LANCHOR112,. + 77056
 3637              		.type	buf.7414, %object
 3638              		.size	buf.7414, 128
 3639              	buf.7414:
 3640 0000 00000000 		.space	128
 3640      00000000 
 3640      00000000 
 3640      00000000 
ARM GAS  C:\Users\gjl\AppData\Local\Temp\ccNm9gHl.s 			page 77


 3640      00000000 
 3641              		.type	buf.7418, %object
 3642              		.size	buf.7418, 256
 3643              	buf.7418:
 3644 0080 00000000 		.space	256
 3644      00000000 
 3644      00000000 
 3644      00000000 
 3644      00000000 
 3645              		.type	buf.7422, %object
 3646              		.size	buf.7422, 512
 3647              	buf.7422:
 3648 0180 00000000 		.space	512
 3648      00000000 
 3648      00000000 
 3648      00000000 
 3648      00000000 
 3649              		.type	buf.7426, %object
 3650              		.size	buf.7426, 128
 3651              	buf.7426:
 3652 0380 00000000 		.space	128
 3652      00000000 
 3652      00000000 
 3652      00000000 
 3652      00000000 
 3653              		.type	buf.7430, %object
 3654              		.size	buf.7430, 256
 3655              	buf.7430:
 3656 0400 00000000 		.space	256
 3656      00000000 
 3656      00000000 
 3656      00000000 
 3656      00000000 
 3657              		.type	buf.7434, %object
 3658              		.size	buf.7434, 1024
 3659              	buf.7434:
 3660 0500 00000000 		.space	1024
 3660      00000000 
 3660      00000000 
 3660      00000000 
 3660      00000000 
 3661              		.type	buf.7438, %object
 3662              		.size	buf.7438, 128
 3663              	buf.7438:
 3664 0900 00000000 		.space	128
 3664      00000000 
 3664      00000000 
 3664      00000000 
 3664      00000000 
 3665              		.type	buf.7442, %object
 3666              		.size	buf.7442, 256
 3667              	buf.7442:
 3668 0980 00000000 		.space	256
 3668      00000000 
 3668      00000000 
 3668      00000000 
 3668      00000000 
ARM GAS  C:\Users\gjl\AppData\Local\Temp\ccNm9gHl.s 			page 78


 3669              		.type	buf.7446, %object
 3670              		.size	buf.7446, 1024
 3671              	buf.7446:
 3672 0a80 00000000 		.space	1024
 3672      00000000 
 3672      00000000 
 3672      00000000 
 3672      00000000 
 3673              		.type	buf.7450, %object
 3674              		.size	buf.7450, 64
 3675              	buf.7450:
 3676 0e80 00000000 		.space	64
 3676      00000000 
 3676      00000000 
 3676      00000000 
 3676      00000000 
 3677              		.type	buf.7454, %object
 3678              		.size	buf.7454, 128
 3679              	buf.7454:
 3680 0ec0 00000000 		.space	128
 3680      00000000 
 3680      00000000 
 3680      00000000 
 3680      00000000 
 3681              		.type	buf.7458, %object
 3682              		.size	buf.7458, 384
 3683              	buf.7458:
 3684 0f40 00000000 		.space	384
 3684      00000000 
 3684      00000000 
 3684      00000000 
 3684      00000000 
 3685              		.type	buf.7462, %object
 3686              		.size	buf.7462, 128
 3687              	buf.7462:
 3688 10c0 00000000 		.space	128
 3688      00000000 
 3688      00000000 
 3688      00000000 
 3688      00000000 
 3689              		.type	buf.7466, %object
 3690              		.size	buf.7466, 256
 3691              	buf.7466:
 3692 1140 00000000 		.space	256
 3692      00000000 
 3692      00000000 
 3692      00000000 
 3692      00000000 
 3693              		.type	buf.7470, %object
 3694              		.size	buf.7470, 1024
 3695              	buf.7470:
 3696 1240 00000000 		.space	1024
 3696      00000000 
 3696      00000000 
 3696      00000000 
 3696      00000000 
 3697              		.type	buf.7474, %object
ARM GAS  C:\Users\gjl\AppData\Local\Temp\ccNm9gHl.s 			page 79


 3698              		.size	buf.7474, 128
 3699              	buf.7474:
 3700 1640 00000000 		.space	128
 3700      00000000 
 3700      00000000 
 3700      00000000 
 3700      00000000 
 3701              		.type	buf.7478, %object
 3702              		.size	buf.7478, 256
 3703              	buf.7478:
 3704 16c0 00000000 		.space	256
 3704      00000000 
 3704      00000000 
 3704      00000000 
 3704      00000000 
 3705              		.type	buf.7482, %object
 3706              		.size	buf.7482, 1024
 3707              	buf.7482:
 3708 17c0 00000000 		.space	1024
 3708      00000000 
 3708      00000000 
 3708      00000000 
 3708      00000000 
 3709              		.type	buf.7486, %object
 3710              		.size	buf.7486, 96
 3711              	buf.7486:
 3712 1bc0 00000000 		.space	96
 3712      00000000 
 3712      00000000 
 3712      00000000 
 3712      00000000 
 3713              		.type	buf.7490, %object
 3714              		.size	buf.7490, 192
 3715              	buf.7490:
 3716 1c20 00000000 		.space	192
 3716      00000000 
 3716      00000000 
 3716      00000000 
 3716      00000000 
 3717              		.type	buf.7494, %object
 3718              		.size	buf.7494, 1152
 3719              	buf.7494:
 3720 1ce0 00000000 		.space	1152
 3720      00000000 
 3720      00000000 
 3720      00000000 
 3720      00000000 
 3721              		.type	buf.7498, %object
 3722              		.size	buf.7498, 64
 3723              	buf.7498:
 3724 2160 00000000 		.space	64
 3724      00000000 
 3724      00000000 
 3724      00000000 
 3724      00000000 
 3725              		.type	buf.7502, %object
 3726              		.size	buf.7502, 128
ARM GAS  C:\Users\gjl\AppData\Local\Temp\ccNm9gHl.s 			page 80


 3727              	buf.7502:
 3728 21a0 00000000 		.space	128
 3728      00000000 
 3728      00000000 
 3728      00000000 
 3728      00000000 
 3729              		.type	buf.7506, %object
 3730              		.size	buf.7506, 256
 3731              	buf.7506:
 3732 2220 00000000 		.space	256
 3732      00000000 
 3732      00000000 
 3732      00000000 
 3732      00000000 
 3733              		.type	buf.7510, %object
 3734              		.size	buf.7510, 192
 3735              	buf.7510:
 3736 2320 00000000 		.space	192
 3736      00000000 
 3736      00000000 
 3736      00000000 
 3736      00000000 
 3737              		.type	buf.7514, %object
 3738              		.size	buf.7514, 384
 3739              	buf.7514:
 3740 23e0 00000000 		.space	384
 3740      00000000 
 3740      00000000 
 3740      00000000 
 3740      00000000 
 3741              		.type	buf.7518, %object
 3742              		.size	buf.7518, 768
 3743              	buf.7518:
 3744 2560 00000000 		.space	768
 3744      00000000 
 3744      00000000 
 3744      00000000 
 3744      00000000 
 3745              		.type	buf.7522, %object
 3746              		.size	buf.7522, 128
 3747              	buf.7522:
 3748 2860 00000000 		.space	128
 3748      00000000 
 3748      00000000 
 3748      00000000 
 3748      00000000 
 3749              		.type	buf.7526, %object
 3750              		.size	buf.7526, 256
 3751              	buf.7526:
 3752 28e0 00000000 		.space	256
 3752      00000000 
 3752      00000000 
 3752      00000000 
 3752      00000000 
 3753              		.type	buf.7530, %object
 3754              		.size	buf.7530, 1024
 3755              	buf.7530:
ARM GAS  C:\Users\gjl\AppData\Local\Temp\ccNm9gHl.s 			page 81


 3756 29e0 00000000 		.space	1024
 3756      00000000 
 3756      00000000 
 3756      00000000 
 3756      00000000 
 3757              		.type	buf.7534, %object
 3758              		.size	buf.7534, 128
 3759              	buf.7534:
 3760 2de0 00000000 		.space	128
 3760      00000000 
 3760      00000000 
 3760      00000000 
 3760      00000000 
 3761              		.type	buf.7538, %object
 3762              		.size	buf.7538, 256
 3763              	buf.7538:
 3764 2e60 00000000 		.space	256
 3764      00000000 
 3764      00000000 
 3764      00000000 
 3764      00000000 
 3765              		.type	buf.7542, %object
 3766              		.size	buf.7542, 2048
 3767              	buf.7542:
 3768 2f60 00000000 		.space	2048
 3768      00000000 
 3768      00000000 
 3768      00000000 
 3768      00000000 
 3769              		.type	buf.7546, %object
 3770              		.size	buf.7546, 104
 3771              	buf.7546:
 3772 3760 00000000 		.space	104
 3772      00000000 
 3772      00000000 
 3772      00000000 
 3772      00000000 
 3773              		.type	buf.7550, %object
 3774              		.size	buf.7550, 208
 3775              	buf.7550:
 3776 37c8 00000000 		.space	208
 3776      00000000 
 3776      00000000 
 3776      00000000 
 3776      00000000 
 3777              		.type	buf.7554, %object
 3778              		.size	buf.7554, 832
 3779              	buf.7554:
 3780 3898 00000000 		.space	832
 3780      00000000 
 3780      00000000 
 3780      00000000 
 3780      00000000 
 3781              		.type	buf.7558, %object
 3782              		.size	buf.7558, 128
 3783              	buf.7558:
 3784 3bd8 00000000 		.space	128
ARM GAS  C:\Users\gjl\AppData\Local\Temp\ccNm9gHl.s 			page 82


 3784      00000000 
 3784      00000000 
 3784      00000000 
 3784      00000000 
 3785              		.type	buf.7562, %object
 3786              		.size	buf.7562, 256
 3787              	buf.7562:
 3788 3c58 00000000 		.space	256
 3788      00000000 
 3788      00000000 
 3788      00000000 
 3788      00000000 
 3789              		.type	buf.7566, %object
 3790              		.size	buf.7566, 1024
 3791              	buf.7566:
 3792 3d58 00000000 		.space	1024
 3792      00000000 
 3792      00000000 
 3792      00000000 
 3792      00000000 
 3793              		.type	buf.7570, %object
 3794              		.size	buf.7570, 88
 3795              	buf.7570:
 3796 4158 00000000 		.space	88
 3796      00000000 
 3796      00000000 
 3796      00000000 
 3796      00000000 
 3797              		.type	buf.7574, %object
 3798              		.size	buf.7574, 176
 3799              	buf.7574:
 3800 41b0 00000000 		.space	176
 3800      00000000 
 3800      00000000 
 3800      00000000 
 3800      00000000 
 3801              		.type	buf.7578, %object
 3802              		.size	buf.7578, 528
 3803              	buf.7578:
 3804 4260 00000000 		.space	528
 3804      00000000 
 3804      00000000 
 3804      00000000 
 3804      00000000 
 3805              		.type	buf.7582, %object
 3806              		.size	buf.7582, 96
 3807              	buf.7582:
 3808 4470 00000000 		.space	96
 3808      00000000 
 3808      00000000 
 3808      00000000 
 3808      00000000 
 3809              		.type	buf.7586, %object
 3810              		.size	buf.7586, 192
 3811              	buf.7586:
 3812 44d0 00000000 		.space	192
 3812      00000000 
ARM GAS  C:\Users\gjl\AppData\Local\Temp\ccNm9gHl.s 			page 83


 3812      00000000 
 3812      00000000 
 3812      00000000 
 3813              		.type	buf.7590, %object
 3814              		.size	buf.7590, 864
 3815              	buf.7590:
 3816 4590 00000000 		.space	864
 3816      00000000 
 3816      00000000 
 3816      00000000 
 3816      00000000 
 3817              		.type	buf.7594, %object
 3818              		.size	buf.7594, 192
 3819              	buf.7594:
 3820 48f0 00000000 		.space	192
 3820      00000000 
 3820      00000000 
 3820      00000000 
 3820      00000000 
 3821              		.type	buf.7598, %object
 3822              		.size	buf.7598, 384
 3823              	buf.7598:
 3824 49b0 00000000 		.space	384
 3824      00000000 
 3824      00000000 
 3824      00000000 
 3824      00000000 
 3825              		.type	buf.7602, %object
 3826              		.size	buf.7602, 1536
 3827              	buf.7602:
 3828 4b30 00000000 		.space	1536
 3828      00000000 
 3828      00000000 
 3828      00000000 
 3828      00000000 
 3829              		.type	buf.7606, %object
 3830              		.size	buf.7606, 240
 3831              	buf.7606:
 3832 5130 00000000 		.space	240
 3832      00000000 
 3832      00000000 
 3832      00000000 
 3832      00000000 
 3833              		.type	buf.7610, %object
 3834              		.size	buf.7610, 480
 3835              	buf.7610:
 3836 5220 00000000 		.space	480
 3836      00000000 
 3836      00000000 
 3836      00000000 
 3836      00000000 
 3837              		.type	buf.7614, %object
 3838              		.size	buf.7614, 1920
 3839              	buf.7614:
 3840 5400 00000000 		.space	1920
 3840      00000000 
 3840      00000000 
ARM GAS  C:\Users\gjl\AppData\Local\Temp\ccNm9gHl.s 			page 84


 3840      00000000 
 3840      00000000 
 3841              		.type	buf.7618, %object
 3842              		.size	buf.7618, 160
 3843              	buf.7618:
 3844 5b80 00000000 		.space	160
 3844      00000000 
 3844      00000000 
 3844      00000000 
 3844      00000000 
 3845              		.type	buf.7622, %object
 3846              		.size	buf.7622, 320
 3847              	buf.7622:
 3848 5c20 00000000 		.space	320
 3848      00000000 
 3848      00000000 
 3848      00000000 
 3848      00000000 
 3849              		.type	buf.7626, %object
 3850              		.size	buf.7626, 2080
 3851              	buf.7626:
 3852 5d60 00000000 		.space	2080
 3852      00000000 
 3852      00000000 
 3852      00000000 
 3852      00000000 
 3853              		.type	buf.7630, %object
 3854              		.size	buf.7630, 240
 3855              	buf.7630:
 3856 6580 00000000 		.space	240
 3856      00000000 
 3856      00000000 
 3856      00000000 
 3856      00000000 
 3857              		.type	buf.7634, %object
 3858              		.size	buf.7634, 480
 3859              	buf.7634:
 3860 6670 00000000 		.space	480
 3860      00000000 
 3860      00000000 
 3860      00000000 
 3860      00000000 
 3861              		.type	buf.7638, %object
 3862              		.size	buf.7638, 1920
 3863              	buf.7638:
 3864 6850 00000000 		.space	1920
 3864      00000000 
 3864      00000000 
 3864      00000000 
 3864      00000000 
 3865              		.type	buf.7642, %object
 3866              		.size	buf.7642, 128
 3867              	buf.7642:
 3868 6fd0 00000000 		.space	128
 3868      00000000 
 3868      00000000 
 3868      00000000 
ARM GAS  C:\Users\gjl\AppData\Local\Temp\ccNm9gHl.s 			page 85


 3868      00000000 
 3869              		.type	buf.7646, %object
 3870              		.size	buf.7646, 256
 3871              	buf.7646:
 3872 7050 00000000 		.space	256
 3872      00000000 
 3872      00000000 
 3872      00000000 
 3872      00000000 
 3873              		.type	buf.7650, %object
 3874              		.size	buf.7650, 1024
 3875              	buf.7650:
 3876 7150 00000000 		.space	1024
 3876      00000000 
 3876      00000000 
 3876      00000000 
 3876      00000000 
 3877              		.type	buf.7654, %object
 3878              		.size	buf.7654, 136
 3879              	buf.7654:
 3880 7550 00000000 		.space	136
 3880      00000000 
 3880      00000000 
 3880      00000000 
 3880      00000000 
 3881              		.type	buf.7658, %object
 3882              		.size	buf.7658, 272
 3883              	buf.7658:
 3884 75d8 00000000 		.space	272
 3884      00000000 
 3884      00000000 
 3884      00000000 
 3884      00000000 
 3885              		.type	buf.7662, %object
 3886              		.size	buf.7662, 544
 3887              	buf.7662:
 3888 76e8 00000000 		.space	544
 3888      00000000 
 3888      00000000 
 3888      00000000 
 3888      00000000 
 3889              		.type	buf.7666, %object
 3890              		.size	buf.7666, 136
 3891              	buf.7666:
 3892 7908 00000000 		.space	136
 3892      00000000 
 3892      00000000 
 3892      00000000 
 3892      00000000 
 3893              		.type	buf.7670, %object
 3894              		.size	buf.7670, 272
 3895              	buf.7670:
 3896 7990 00000000 		.space	272
 3896      00000000 
 3896      00000000 
 3896      00000000 
 3896      00000000 
ARM GAS  C:\Users\gjl\AppData\Local\Temp\ccNm9gHl.s 			page 86


 3897              		.type	buf.7674, %object
 3898              		.size	buf.7674, 1088
 3899              	buf.7674:
 3900 7aa0 00000000 		.space	1088
 3900      00000000 
 3900      00000000 
 3900      00000000 
 3900      00000000 
 3901              		.type	buf.7678, %object
 3902              		.size	buf.7678, 128
 3903              	buf.7678:
 3904 7ee0 00000000 		.space	128
 3904      00000000 
 3904      00000000 
 3904      00000000 
 3904      00000000 
 3905              		.type	buf.7682, %object
 3906              		.size	buf.7682, 256
 3907              	buf.7682:
 3908 7f60 00000000 		.space	256
 3908      00000000 
 3908      00000000 
 3908      00000000 
 3908      00000000 
 3909              		.type	buf.7686, %object
 3910              		.size	buf.7686, 1024
 3911              	buf.7686:
 3912 8060 00000000 		.space	1024
 3912      00000000 
 3912      00000000 
 3912      00000000 
 3912      00000000 
 3913              		.type	buf.7690, %object
 3914              		.size	buf.7690, 128
 3915              	buf.7690:
 3916 8460 00000000 		.space	128
 3916      00000000 
 3916      00000000 
 3916      00000000 
 3916      00000000 
 3917              		.type	buf.7694, %object
 3918              		.size	buf.7694, 256
 3919              	buf.7694:
 3920 84e0 00000000 		.space	256
 3920      00000000 
 3920      00000000 
 3920      00000000 
 3920      00000000 
 3921              		.type	buf.7698, %object
 3922              		.size	buf.7698, 1024
 3923              	buf.7698:
 3924 85e0 00000000 		.space	1024
 3924      00000000 
 3924      00000000 
 3924      00000000 
 3924      00000000 
 3925              		.type	buf.7702, %object
ARM GAS  C:\Users\gjl\AppData\Local\Temp\ccNm9gHl.s 			page 87


 3926              		.size	buf.7702, 192
 3927              	buf.7702:
 3928 89e0 00000000 		.space	192
 3928      00000000 
 3928      00000000 
 3928      00000000 
 3928      00000000 
 3929              		.type	buf.7706, %object
 3930              		.size	buf.7706, 384
 3931              	buf.7706:
 3932 8aa0 00000000 		.space	384
 3932      00000000 
 3932      00000000 
 3932      00000000 
 3932      00000000 
 3933              		.type	buf.7710, %object
 3934              		.size	buf.7710, 1536
 3935              	buf.7710:
 3936 8c20 00000000 		.space	1536
 3936      00000000 
 3936      00000000 
 3936      00000000 
 3936      00000000 
 3937              		.type	buf.7714, %object
 3938              		.size	buf.7714, 128
 3939              	buf.7714:
 3940 9220 00000000 		.space	128
 3940      00000000 
 3940      00000000 
 3940      00000000 
 3940      00000000 
 3941              		.type	buf.7718, %object
 3942              		.size	buf.7718, 256
 3943              	buf.7718:
 3944 92a0 00000000 		.space	256
 3944      00000000 
 3944      00000000 
 3944      00000000 
 3944      00000000 
 3945              		.type	buf.7722, %object
 3946              		.size	buf.7722, 1024
 3947              	buf.7722:
 3948 93a0 00000000 		.space	1024
 3948      00000000 
 3948      00000000 
 3948      00000000 
 3948      00000000 
 3949              		.type	buf.7726, %object
 3950              		.size	buf.7726, 192
 3951              	buf.7726:
 3952 97a0 00000000 		.space	192
 3952      00000000 
 3952      00000000 
 3952      00000000 
 3952      00000000 
 3953              		.type	buf.7730, %object
 3954              		.size	buf.7730, 384
ARM GAS  C:\Users\gjl\AppData\Local\Temp\ccNm9gHl.s 			page 88


 3955              	buf.7730:
 3956 9860 00000000 		.space	384
 3956      00000000 
 3956      00000000 
 3956      00000000 
 3956      00000000 
 3957              		.type	buf.7734, %object
 3958              		.size	buf.7734, 1536
 3959              	buf.7734:
 3960 99e0 00000000 		.space	1536
 3960      00000000 
 3960      00000000 
 3960      00000000 
 3960      00000000 
 3961              		.type	buf.7738, %object
 3962              		.size	buf.7738, 160
 3963              	buf.7738:
 3964 9fe0 00000000 		.space	160
 3964      00000000 
 3964      00000000 
 3964      00000000 
 3964      00000000 
 3965              		.type	buf.7742, %object
 3966              		.size	buf.7742, 320
 3967              	buf.7742:
 3968 a080 00000000 		.space	320
 3968      00000000 
 3968      00000000 
 3968      00000000 
 3968      00000000 
 3969              		.type	buf.7746, %object
 3970              		.size	buf.7746, 1600
 3971              	buf.7746:
 3972 a1c0 00000000 		.space	1600
 3972      00000000 
 3972      00000000 
 3972      00000000 
 3972      00000000 
 3973              		.type	buf.7750, %object
 3974              		.size	buf.7750, 240
 3975              	buf.7750:
 3976 a800 00000000 		.space	240
 3976      00000000 
 3976      00000000 
 3976      00000000 
 3976      00000000 
 3977              		.type	buf.7754, %object
 3978              		.size	buf.7754, 480
 3979              	buf.7754:
 3980 a8f0 00000000 		.space	480
 3980      00000000 
 3980      00000000 
 3980      00000000 
 3980      00000000 
 3981              		.type	buf.7758, %object
 3982              		.size	buf.7758, 3840
 3983              	buf.7758:
ARM GAS  C:\Users\gjl\AppData\Local\Temp\ccNm9gHl.s 			page 89


 3984 aad0 00000000 		.space	3840
 3984      00000000 
 3984      00000000 
 3984      00000000 
 3984      00000000 
 3985              		.type	buf.7762, %object
 3986              		.size	buf.7762, 240
 3987              	buf.7762:
 3988 b9d0 00000000 		.space	240
 3988      00000000 
 3988      00000000 
 3988      00000000 
 3988      00000000 
 3989              		.type	buf.7766, %object
 3990              		.size	buf.7766, 480
 3991              	buf.7766:
 3992 bac0 00000000 		.space	480
 3992      00000000 
 3992      00000000 
 3992      00000000 
 3992      00000000 
 3993              		.type	buf.7770, %object
 3994              		.size	buf.7770, 3840
 3995              	buf.7770:
 3996 bca0 00000000 		.space	3840
 3996      00000000 
 3996      00000000 
 3996      00000000 
 3996      00000000 
 3997              		.type	buf.7774, %object
 3998              		.size	buf.7774, 256
 3999              	buf.7774:
 4000 cba0 00000000 		.space	256
 4000      00000000 
 4000      00000000 
 4000      00000000 
 4000      00000000 
 4001              		.type	buf.7778, %object
 4002              		.size	buf.7778, 512
 4003              	buf.7778:
 4004 cca0 00000000 		.space	512
 4004      00000000 
 4004      00000000 
 4004      00000000 
 4004      00000000 
 4005              		.type	buf.7782, %object
 4006              		.size	buf.7782, 2048
 4007              	buf.7782:
 4008 cea0 00000000 		.space	2048
 4008      00000000 
 4008      00000000 
 4008      00000000 
 4008      00000000 
 4009              		.type	buf.7786, %object
 4010              		.size	buf.7786, 128
 4011              	buf.7786:
 4012 d6a0 00000000 		.space	128
ARM GAS  C:\Users\gjl\AppData\Local\Temp\ccNm9gHl.s 			page 90


 4012      00000000 
 4012      00000000 
 4012      00000000 
 4012      00000000 
 4013              		.type	buf.7790, %object
 4014              		.size	buf.7790, 256
 4015              	buf.7790:
 4016 d720 00000000 		.space	256
 4016      00000000 
 4016      00000000 
 4016      00000000 
 4016      00000000 
 4017              		.type	buf.7794, %object
 4018              		.size	buf.7794, 1024
 4019              	buf.7794:
 4020 d820 00000000 		.space	1024
 4020      00000000 
 4020      00000000 
 4020      00000000 
 4020      00000000 
 4021              		.type	buf.7798, %object
 4022              		.size	buf.7798, 256
 4023              	buf.7798:
 4024 dc20 00000000 		.space	256
 4024      00000000 
 4024      00000000 
 4024      00000000 
 4024      00000000 
 4025              		.type	buf.7802, %object
 4026              		.size	buf.7802, 512
 4027              	buf.7802:
 4028 dd20 00000000 		.space	512
 4028      00000000 
 4028      00000000 
 4028      00000000 
 4028      00000000 
 4029              		.type	buf.7806, %object
 4030              		.size	buf.7806, 2048
 4031              	buf.7806:
 4032 df20 00000000 		.space	2048
 4032      00000000 
 4032      00000000 
 4032      00000000 
 4032      00000000 
 4033              		.type	buf.7810, %object
 4034              		.size	buf.7810, 176
 4035              	buf.7810:
 4036 e720 00000000 		.space	176
 4036      00000000 
 4036      00000000 
 4036      00000000 
 4036      00000000 
 4037              		.type	buf.7814, %object
 4038              		.size	buf.7814, 352
 4039              	buf.7814:
 4040 e7d0 00000000 		.space	352
 4040      00000000 
ARM GAS  C:\Users\gjl\AppData\Local\Temp\ccNm9gHl.s 			page 91


 4040      00000000 
 4040      00000000 
 4040      00000000 
 4041              		.type	buf.7818, %object
 4042              		.size	buf.7818, 1584
 4043              	buf.7818:
 4044 e930 00000000 		.space	1584
 4044      00000000 
 4044      00000000 
 4044      00000000 
 4044      00000000 
 4045              		.type	buf.7822, %object
 4046              		.size	buf.7822, 200
 4047              	buf.7822:
 4048 ef60 00000000 		.space	200
 4048      00000000 
 4048      00000000 
 4048      00000000 
 4048      00000000 
 4049              		.type	buf.7826, %object
 4050              		.size	buf.7826, 400
 4051              	buf.7826:
 4052 f028 00000000 		.space	400
 4052      00000000 
 4052      00000000 
 4052      00000000 
 4052      00000000 
 4053              		.type	buf.7830, %object
 4054              		.size	buf.7830, 5000
 4055              	buf.7830:
 4056 f1b8 00000000 		.space	5000
 4056      00000000 
 4056      00000000 
 4056      00000000 
 4056      00000000 
 4057              		.type	buf.7834, %object
 4058              		.size	buf.7834, 240
 4059              	buf.7834:
 4060 10540 00000000 		.space	240
 4060      00000000 
 4060      00000000 
 4060      00000000 
 4060      00000000 
 4061              		.type	buf.7838, %object
 4062              		.size	buf.7838, 480
 4063              	buf.7838:
 4064 10630 00000000 		.space	480
 4064      00000000 
 4064      00000000 
 4064      00000000 
 4064      00000000 
 4065              		.type	buf.7842, %object
 4066              		.size	buf.7842, 3840
 4067              	buf.7842:
 4068 10810 00000000 		.space	3840
 4068      00000000 
 4068      00000000 
ARM GAS  C:\Users\gjl\AppData\Local\Temp\ccNm9gHl.s 			page 92


 4068      00000000 
 4068      00000000 
 4069              		.type	buf.7846, %object
 4070              		.size	buf.7846, 240
 4071              	buf.7846:
 4072 11710 00000000 		.space	240
 4072      00000000 
 4072      00000000 
 4072      00000000 
 4072      00000000 
 4073              		.type	buf.7850, %object
 4074              		.size	buf.7850, 480
 4075              	buf.7850:
 4076 11800 00000000 		.space	480
 4076      00000000 
 4076      00000000 
 4076      00000000 
 4076      00000000 
 4077              		.type	buf.7854, %object
 4078              		.size	buf.7854, 3840
 4079              	buf.7854:
 4080 119e0 00000000 		.space	3840
 4080      00000000 
 4080      00000000 
 4080      00000000 
 4080      00000000 
 4081              		.type	buf.7858, %object
 4082              		.size	buf.7858, 384
 4083              	buf.7858:
 4084 128e0 00000000 		.space	384
 4084      00000000 
 4084      00000000 
 4084      00000000 
 4084      00000000 
 4085              		.type	buf.7862, %object
 4086              		.size	buf.7862, 768
 4087              	buf.7862:
 4088 12a60 00000000 		.space	768
 4088      00000000 
 4088      00000000 
 4088      00000000 
 4088      00000000 
 4089              		.type	buf.7866, %object
 4090              		.size	buf.7866, 11520
 4091              	buf.7866:
 4092 12d60 00000000 		.space	11520
 4092      00000000 
 4092      00000000 
 4092      00000000 
 4092      00000000 
 4093              		.text
 4094              	.Letext0:
 4095              		.file 2 "c:\\program files (x86)\\cypress\\psoc creator\\4.1\\psoc creator\\import\\gnu\\arm\\5.4.
 4096              		.file 3 "c:\\program files (x86)\\cypress\\psoc creator\\4.1\\psoc creator\\import\\gnu\\arm\\5.4.