ARM GAS  C:\Users\Alan\AppData\Local\Temp\ccPiwin1.s 			page 1


   1              		.syntax unified
   2              		.cpu cortex-m0
   3              		.fpu softvfp
   4              		.eabi_attribute 20, 1
   5              		.eabi_attribute 21, 1
   6              		.eabi_attribute 23, 3
   7              		.eabi_attribute 24, 1
   8              		.eabi_attribute 25, 1
   9              		.eabi_attribute 26, 1
  10              		.eabi_attribute 30, 1
  11              		.eabi_attribute 34, 0
  12              		.eabi_attribute 18, 4
  13              		.thumb
  14              		.syntax unified
  15              		.file	"u8g2_selection_list.c"
  16              		.text
  17              	.Ltext0:
  18              		.cfi_sections	.debug_frame
  19              		.section	.text.u8g2_DrawUTF8Line,"ax",%progbits
  20              		.align	2
  21              		.global	u8g2_DrawUTF8Line
  22              		.code	16
  23              		.thumb_func
  24              		.type	u8g2_DrawUTF8Line, %function
  25              	u8g2_DrawUTF8Line:
  26              	.LFB0:
  27              		.file 1 "..\\..\\u8g2\\csrc\\u8g2_selection_list.c"
   1:..\..\u8g2\csrc/u8g2_selection_list.c **** /*
   2:..\..\u8g2\csrc/u8g2_selection_list.c **** 
   3:..\..\u8g2\csrc/u8g2_selection_list.c ****   u8g2_selection_list.c
   4:..\..\u8g2\csrc/u8g2_selection_list.c ****   
   5:..\..\u8g2\csrc/u8g2_selection_list.c ****   selection list with scroll option
   6:..\..\u8g2\csrc/u8g2_selection_list.c ****   
   7:..\..\u8g2\csrc/u8g2_selection_list.c ****   Universal 8bit Graphics Library (https://github.com/olikraus/u8g2/)
   8:..\..\u8g2\csrc/u8g2_selection_list.c **** 
   9:..\..\u8g2\csrc/u8g2_selection_list.c ****   Copyright (c) 2016, olikraus@gmail.com
  10:..\..\u8g2\csrc/u8g2_selection_list.c ****   All rights reserved.
  11:..\..\u8g2\csrc/u8g2_selection_list.c **** 
  12:..\..\u8g2\csrc/u8g2_selection_list.c ****   Redistribution and use in source and binary forms, with or without modification, 
  13:..\..\u8g2\csrc/u8g2_selection_list.c ****   are permitted provided that the following conditions are met:
  14:..\..\u8g2\csrc/u8g2_selection_list.c **** 
  15:..\..\u8g2\csrc/u8g2_selection_list.c ****   * Redistributions of source code must retain the above copyright notice, this list 
  16:..\..\u8g2\csrc/u8g2_selection_list.c ****     of conditions and the following disclaimer.
  17:..\..\u8g2\csrc/u8g2_selection_list.c ****     
  18:..\..\u8g2\csrc/u8g2_selection_list.c ****   * Redistributions in binary form must reproduce the above copyright notice, this 
  19:..\..\u8g2\csrc/u8g2_selection_list.c ****     list of conditions and the following disclaimer in the documentation and/or other 
  20:..\..\u8g2\csrc/u8g2_selection_list.c ****     materials provided with the distribution.
  21:..\..\u8g2\csrc/u8g2_selection_list.c **** 
  22:..\..\u8g2\csrc/u8g2_selection_list.c ****   THIS SOFTWARE IS PROVIDED BY THE COPYRIGHT HOLDERS AND 
  23:..\..\u8g2\csrc/u8g2_selection_list.c ****   CONTRIBUTORS "AS IS" AND ANY EXPRESS OR IMPLIED WARRANTIES, 
  24:..\..\u8g2\csrc/u8g2_selection_list.c ****   INCLUDING, BUT NOT LIMITED TO, THE IMPLIED WARRANTIES OF 
  25:..\..\u8g2\csrc/u8g2_selection_list.c ****   MERCHANTABILITY AND FITNESS FOR A PARTICULAR PURPOSE ARE 
  26:..\..\u8g2\csrc/u8g2_selection_list.c ****   DISCLAIMED. IN NO EVENT SHALL THE COPYRIGHT HOLDER OR 
  27:..\..\u8g2\csrc/u8g2_selection_list.c ****   CONTRIBUTORS BE LIABLE FOR ANY DIRECT, INDIRECT, INCIDENTAL, 
  28:..\..\u8g2\csrc/u8g2_selection_list.c ****   SPECIAL, EXEMPLARY, OR CONSEQUENTIAL DAMAGES (INCLUDING, BUT 
  29:..\..\u8g2\csrc/u8g2_selection_list.c ****   NOT LIMITED TO, PROCUREMENT OF SUBSTITUTE GOODS OR SERVICES; 
  30:..\..\u8g2\csrc/u8g2_selection_list.c ****   LOSS OF USE, DATA, OR PROFITS; OR BUSINESS INTERRUPTION) HOWEVER 
ARM GAS  C:\Users\Alan\AppData\Local\Temp\ccPiwin1.s 			page 2


  31:..\..\u8g2\csrc/u8g2_selection_list.c ****   CAUSED AND ON ANY THEORY OF LIABILITY, WHETHER IN CONTRACT, 
  32:..\..\u8g2\csrc/u8g2_selection_list.c ****   STRICT LIABILITY, OR TORT (INCLUDING NEGLIGENCE OR OTHERWISE) 
  33:..\..\u8g2\csrc/u8g2_selection_list.c ****   ARISING IN ANY WAY OUT OF THE USE OF THIS SOFTWARE, EVEN IF 
  34:..\..\u8g2\csrc/u8g2_selection_list.c ****   ADVISED OF THE POSSIBILITY OF SUCH DAMAGE.  
  35:..\..\u8g2\csrc/u8g2_selection_list.c ****   
  36:..\..\u8g2\csrc/u8g2_selection_list.c **** */
  37:..\..\u8g2\csrc/u8g2_selection_list.c **** 
  38:..\..\u8g2\csrc/u8g2_selection_list.c **** #include "u8g2.h"
  39:..\..\u8g2\csrc/u8g2_selection_list.c **** 
  40:..\..\u8g2\csrc/u8g2_selection_list.c **** #define MY_BORDER_SIZE 1
  41:..\..\u8g2\csrc/u8g2_selection_list.c **** 
  42:..\..\u8g2\csrc/u8g2_selection_list.c **** 
  43:..\..\u8g2\csrc/u8g2_selection_list.c **** /*
  44:..\..\u8g2\csrc/u8g2_selection_list.c ****   Draw a string at x,y
  45:..\..\u8g2\csrc/u8g2_selection_list.c ****   Center string within w (left adjust if w < pixel len of s)
  46:..\..\u8g2\csrc/u8g2_selection_list.c ****   
  47:..\..\u8g2\csrc/u8g2_selection_list.c ****   Side effects:
  48:..\..\u8g2\csrc/u8g2_selection_list.c ****     u8g2_SetFontDirection(u8g2, 0);
  49:..\..\u8g2\csrc/u8g2_selection_list.c ****     u8g2_SetFontPosBaseline(u8g2);
  50:..\..\u8g2\csrc/u8g2_selection_list.c **** 
  51:..\..\u8g2\csrc/u8g2_selection_list.c **** */
  52:..\..\u8g2\csrc/u8g2_selection_list.c **** void u8g2_DrawUTF8Line(u8g2_t *u8g2, u8g2_uint_t x, u8g2_uint_t y, u8g2_uint_t w, const char *s, ui
  53:..\..\u8g2\csrc/u8g2_selection_list.c **** {
  28              		.loc 1 53 0
  29              		.cfi_startproc
  30              		@ args = 12, pretend = 0, frame = 16
  31              		@ frame_needed = 0, uses_anonymous_args = 0
  32              	.LVL0:
  33 0000 F0B5     		push	{r4, r5, r6, r7, lr}
  34              		.cfi_def_cfa_offset 20
  35              		.cfi_offset 4, -20
  36              		.cfi_offset 5, -16
  37              		.cfi_offset 6, -12
  38              		.cfi_offset 7, -8
  39              		.cfi_offset 14, -4
  40 0002 5F46     		mov	r7, fp
  41 0004 5646     		mov	r6, r10
  42 0006 4D46     		mov	r5, r9
  43 0008 4446     		mov	r4, r8
  44 000a F0B4     		push	{r4, r5, r6, r7}
  45              		.cfi_def_cfa_offset 36
  46              		.cfi_offset 8, -36
  47              		.cfi_offset 9, -32
  48              		.cfi_offset 10, -28
  49              		.cfi_offset 11, -24
  50 000c 87B0     		sub	sp, sp, #28
  51              		.cfi_def_cfa_offset 64
  52 000e 0600     		movs	r6, r0
  53 0010 0290     		str	r0, [sp, #8]
  54 0012 0391     		str	r1, [sp, #12]
  55 0014 1500     		movs	r5, r2
  56 0016 1C00     		movs	r4, r3
  57 0018 10AB     		add	r3, sp, #64
  58              	.LVL1:
  59 001a 04CB     		ldmia	r3!, {r2}
  60              	.LVL2:
  61 001c 1700     		movs	r7, r2
ARM GAS  C:\Users\Alan\AppData\Local\Temp\ccPiwin1.s 			page 3


  62 001e 0592     		str	r2, [sp, #20]
  63 0020 1B78     		ldrb	r3, [r3]
  64              	.LVL3:
  65 0022 9846     		mov	r8, r3
  66 0024 12AB     		add	r3, sp, #72
  67              	.LVL4:
  68 0026 1B78     		ldrb	r3, [r3]
  69              	.LVL5:
  70 0028 9B46     		mov	fp, r3
  54:..\..\u8g2\csrc/u8g2_selection_list.c ****   u8g2_uint_t d, str_width;
  55:..\..\u8g2\csrc/u8g2_selection_list.c ****   u8g2_uint_t fx, fy, fw, fh;
  56:..\..\u8g2\csrc/u8g2_selection_list.c **** 
  57:..\..\u8g2\csrc/u8g2_selection_list.c ****   /* only horizontal strings are supported, so force this here */
  58:..\..\u8g2\csrc/u8g2_selection_list.c ****   u8g2_SetFontDirection(u8g2, 0);
  71              		.loc 1 58 0
  72 002a 0021     		movs	r1, #0
  73              	.LVL6:
  74 002c FFF7FEFF 		bl	u8g2_SetFontDirection
  75              	.LVL7:
  59:..\..\u8g2\csrc/u8g2_selection_list.c **** 
  60:..\..\u8g2\csrc/u8g2_selection_list.c ****   /* revert y position back to baseline ref */
  61:..\..\u8g2\csrc/u8g2_selection_list.c ****   y += u8g2->font_calc_vref(u8g2);   
  76              		.loc 1 61 0
  77 0030 F26C     		ldr	r2, [r6, #76]
  78 0032 0492     		str	r2, [sp, #16]
  79 0034 3000     		movs	r0, r6
  80 0036 9047     		blx	r2
  81              	.LVL8:
  82 0038 4519     		adds	r5, r0, r5
  83 003a EBB2     		uxtb	r3, r5
  84 003c 9946     		mov	r9, r3
  85              	.LVL9:
  62:..\..\u8g2\csrc/u8g2_selection_list.c **** 
  63:..\..\u8g2\csrc/u8g2_selection_list.c ****   /* calculate the width of the string in pixel */
  64:..\..\u8g2\csrc/u8g2_selection_list.c ****   str_width = u8g2_GetUTF8Width(u8g2, s);
  86              		.loc 1 64 0
  87 003e 3900     		movs	r1, r7
  88 0040 3000     		movs	r0, r6
  89 0042 FFF7FEFF 		bl	u8g2_GetUTF8Width
  90              	.LVL10:
  91 0046 0600     		movs	r6, r0
  92              	.LVL11:
  65:..\..\u8g2\csrc/u8g2_selection_list.c **** 
  66:..\..\u8g2\csrc/u8g2_selection_list.c ****   /* calculate delta d within the box */
  67:..\..\u8g2\csrc/u8g2_selection_list.c ****   d = 0;
  68:..\..\u8g2\csrc/u8g2_selection_list.c ****   if ( str_width < w )
  93              		.loc 1 68 0
  94 0048 A042     		cmp	r0, r4
  95 004a 05D2     		bcs	.L8
  96              	.LVL12:
  69:..\..\u8g2\csrc/u8g2_selection_list.c ****   {
  70:..\..\u8g2\csrc/u8g2_selection_list.c ****     d = w;
  71:..\..\u8g2\csrc/u8g2_selection_list.c ****     d -=str_width;
  97              		.loc 1 71 0
  98 004c 201A     		subs	r0, r4, r0
  99              	.LVL13:
 100 004e C1B2     		uxtb	r1, r0
ARM GAS  C:\Users\Alan\AppData\Local\Temp\ccPiwin1.s 			page 4


 101              	.LVL14:
  72:..\..\u8g2\csrc/u8g2_selection_list.c ****     d /= 2;
 102              		.loc 1 72 0
 103 0050 4B08     		lsrs	r3, r1, #1
 104 0052 9A46     		mov	r10, r3
 105              	.LVL15:
 106 0054 2600     		movs	r6, r4
 107 0056 01E0     		b	.L2
 108              	.LVL16:
 109              	.L8:
  67:..\..\u8g2\csrc/u8g2_selection_list.c ****   if ( str_width < w )
 110              		.loc 1 67 0
 111 0058 0023     		movs	r3, #0
 112 005a 9A46     		mov	r10, r3
 113              	.LVL17:
 114              	.L2:
  73:..\..\u8g2\csrc/u8g2_selection_list.c ****   }
  74:..\..\u8g2\csrc/u8g2_selection_list.c ****   else
  75:..\..\u8g2\csrc/u8g2_selection_list.c ****   {
  76:..\..\u8g2\csrc/u8g2_selection_list.c ****     w = str_width;
  77:..\..\u8g2\csrc/u8g2_selection_list.c ****   }
  78:..\..\u8g2\csrc/u8g2_selection_list.c **** 
  79:..\..\u8g2\csrc/u8g2_selection_list.c ****   /* caluclate text box */
  80:..\..\u8g2\csrc/u8g2_selection_list.c ****   fx = x;
  81:..\..\u8g2\csrc/u8g2_selection_list.c ****   fy = y - u8g2_GetAscent(u8g2) ;
 115              		.loc 1 81 0
 116 005c 7923     		movs	r3, #121
 117 005e 0298     		ldr	r0, [sp, #8]
 118 0060 C35C     		ldrb	r3, [r0, r3]
 119 0062 4A46     		mov	r2, r9
 120 0064 D51A     		subs	r5, r2, r3
 121 0066 EDB2     		uxtb	r5, r5
 122              	.LVL18:
  82:..\..\u8g2\csrc/u8g2_selection_list.c ****   fw = w;
  83:..\..\u8g2\csrc/u8g2_selection_list.c ****   fh = u8g2_GetAscent(u8g2) - u8g2_GetDescent(u8g2) ;
 123              		.loc 1 83 0
 124 0068 7A22     		movs	r2, #122
 125 006a 8456     		ldrsb	r4, [r0, r2]
 126 006c 1C1B     		subs	r4, r3, r4
 127 006e E4B2     		uxtb	r4, r4
 128              	.LVL19:
  84:..\..\u8g2\csrc/u8g2_selection_list.c **** 
  85:..\..\u8g2\csrc/u8g2_selection_list.c ****   /* draw the box, if inverted */
  86:..\..\u8g2\csrc/u8g2_selection_list.c ****   u8g2_SetDrawColor(u8g2, 1);
 129              		.loc 1 86 0
 130 0070 0121     		movs	r1, #1
 131 0072 FFF7FEFF 		bl	u8g2_SetDrawColor
 132              	.LVL20:
  87:..\..\u8g2\csrc/u8g2_selection_list.c ****   if ( is_invert )
 133              		.loc 1 87 0
 134 0076 5B46     		mov	r3, fp
 135 0078 002B     		cmp	r3, #0
 136 007a 06D0     		beq	.L3
  88:..\..\u8g2\csrc/u8g2_selection_list.c ****   {
  89:..\..\u8g2\csrc/u8g2_selection_list.c ****     u8g2_DrawBox(u8g2, fx, fy, fw, fh);
 137              		.loc 1 89 0
 138 007c 0094     		str	r4, [sp]
ARM GAS  C:\Users\Alan\AppData\Local\Temp\ccPiwin1.s 			page 5


 139 007e 3300     		movs	r3, r6
 140 0080 2A00     		movs	r2, r5
 141 0082 0399     		ldr	r1, [sp, #12]
 142 0084 0298     		ldr	r0, [sp, #8]
 143 0086 FFF7FEFF 		bl	u8g2_DrawBox
 144              	.LVL21:
 145              	.L3:
  67:..\..\u8g2\csrc/u8g2_selection_list.c ****   if ( str_width < w )
 146              		.loc 1 67 0
 147 008a 039F     		ldr	r7, [sp, #12]
 148 008c 4346     		mov	r3, r8
 149 008e A046     		mov	r8, r4
 150 0090 1C00     		movs	r4, r3
 151              	.LVL22:
 152 0092 12E0     		b	.L4
 153              	.LVL23:
 154              	.L5:
  90:..\..\u8g2\csrc/u8g2_selection_list.c ****   }
  91:..\..\u8g2\csrc/u8g2_selection_list.c **** 
  92:..\..\u8g2\csrc/u8g2_selection_list.c ****   /* draw the frame */
  93:..\..\u8g2\csrc/u8g2_selection_list.c ****   while( border_size > 0 )
  94:..\..\u8g2\csrc/u8g2_selection_list.c ****   {
  95:..\..\u8g2\csrc/u8g2_selection_list.c ****     fx--;
 155              		.loc 1 95 0
 156 0094 013F     		subs	r7, r7, #1
 157              	.LVL24:
 158 0096 FFB2     		uxtb	r7, r7
 159              	.LVL25:
  96:..\..\u8g2\csrc/u8g2_selection_list.c ****     fy--;
 160              		.loc 1 96 0
 161 0098 013D     		subs	r5, r5, #1
 162              	.LVL26:
 163 009a EDB2     		uxtb	r5, r5
 164              	.LVL27:
  97:..\..\u8g2\csrc/u8g2_selection_list.c ****     fw +=2;
 165              		.loc 1 97 0
 166 009c 0236     		adds	r6, r6, #2
 167              	.LVL28:
 168 009e F6B2     		uxtb	r6, r6
 169              	.LVL29:
  98:..\..\u8g2\csrc/u8g2_selection_list.c ****     fh +=2;
 170              		.loc 1 98 0
 171 00a0 4346     		mov	r3, r8
 172 00a2 0233     		adds	r3, r3, #2
 173 00a4 DBB2     		uxtb	r3, r3
 174 00a6 9846     		mov	r8, r3
 175              	.LVL30:
  99:..\..\u8g2\csrc/u8g2_selection_list.c ****     u8g2_DrawFrame(u8g2, fx, fy, fw, fh );
 176              		.loc 1 99 0
 177 00a8 0093     		str	r3, [sp]
 178 00aa 3300     		movs	r3, r6
 179              	.LVL31:
 180 00ac 2A00     		movs	r2, r5
 181 00ae 3900     		movs	r1, r7
 182 00b0 0298     		ldr	r0, [sp, #8]
 183 00b2 FFF7FEFF 		bl	u8g2_DrawFrame
 184              	.LVL32:
ARM GAS  C:\Users\Alan\AppData\Local\Temp\ccPiwin1.s 			page 6


 100:..\..\u8g2\csrc/u8g2_selection_list.c ****     border_size--;
 185              		.loc 1 100 0
 186 00b6 013C     		subs	r4, r4, #1
 187              	.LVL33:
 188 00b8 E4B2     		uxtb	r4, r4
 189              	.LVL34:
 190              	.L4:
  93:..\..\u8g2\csrc/u8g2_selection_list.c ****   {
 191              		.loc 1 93 0
 192 00ba 002C     		cmp	r4, #0
 193 00bc EAD1     		bne	.L5
 101:..\..\u8g2\csrc/u8g2_selection_list.c ****   }
 102:..\..\u8g2\csrc/u8g2_selection_list.c **** 
 103:..\..\u8g2\csrc/u8g2_selection_list.c ****   if ( is_invert )
 194              		.loc 1 103 0
 195 00be 5B46     		mov	r3, fp
 196 00c0 002B     		cmp	r3, #0
 197 00c2 04D0     		beq	.L6
 104:..\..\u8g2\csrc/u8g2_selection_list.c ****   {
 105:..\..\u8g2\csrc/u8g2_selection_list.c ****     u8g2_SetDrawColor(u8g2, 0);
 198              		.loc 1 105 0
 199 00c4 0021     		movs	r1, #0
 200 00c6 0298     		ldr	r0, [sp, #8]
 201 00c8 FFF7FEFF 		bl	u8g2_SetDrawColor
 202              	.LVL35:
 203 00cc 03E0     		b	.L7
 204              	.L6:
 106:..\..\u8g2\csrc/u8g2_selection_list.c ****   }
 107:..\..\u8g2\csrc/u8g2_selection_list.c ****   else
 108:..\..\u8g2\csrc/u8g2_selection_list.c ****   {
 109:..\..\u8g2\csrc/u8g2_selection_list.c ****     u8g2_SetDrawColor(u8g2, 1);
 205              		.loc 1 109 0
 206 00ce 0121     		movs	r1, #1
 207 00d0 0298     		ldr	r0, [sp, #8]
 208 00d2 FFF7FEFF 		bl	u8g2_SetDrawColor
 209              	.LVL36:
 210              	.L7:
 110:..\..\u8g2\csrc/u8g2_selection_list.c ****   }
 111:..\..\u8g2\csrc/u8g2_selection_list.c **** 
 112:..\..\u8g2\csrc/u8g2_selection_list.c ****   /* draw the text */
 113:..\..\u8g2\csrc/u8g2_selection_list.c ****   u8g2_DrawUTF8(u8g2, x+d, y, s);
 211              		.loc 1 113 0
 212 00d6 039B     		ldr	r3, [sp, #12]
 213 00d8 5344     		add	r3, r3, r10
 214 00da D9B2     		uxtb	r1, r3
 215 00dc 059B     		ldr	r3, [sp, #20]
 216 00de 4A46     		mov	r2, r9
 217 00e0 029C     		ldr	r4, [sp, #8]
 218              	.LVL37:
 219 00e2 2000     		movs	r0, r4
 220 00e4 FFF7FEFF 		bl	u8g2_DrawUTF8
 221              	.LVL38:
 114:..\..\u8g2\csrc/u8g2_selection_list.c **** 
 115:..\..\u8g2\csrc/u8g2_selection_list.c ****   /* revert draw color */
 116:..\..\u8g2\csrc/u8g2_selection_list.c ****   u8g2_SetDrawColor(u8g2, 1);
 222              		.loc 1 116 0
 223 00e8 0121     		movs	r1, #1
ARM GAS  C:\Users\Alan\AppData\Local\Temp\ccPiwin1.s 			page 7


 224 00ea 2000     		movs	r0, r4
 225 00ec FFF7FEFF 		bl	u8g2_SetDrawColor
 226              	.LVL39:
 117:..\..\u8g2\csrc/u8g2_selection_list.c **** 
 118:..\..\u8g2\csrc/u8g2_selection_list.c **** }
 227              		.loc 1 118 0
 228 00f0 07B0     		add	sp, sp, #28
 229              		@ sp needed
 230              	.LVL40:
 231              	.LVL41:
 232              	.LVL42:
 233              	.LVL43:
 234              	.LVL44:
 235              	.LVL45:
 236 00f2 3CBC     		pop	{r2, r3, r4, r5}
 237 00f4 9046     		mov	r8, r2
 238 00f6 9946     		mov	r9, r3
 239 00f8 A246     		mov	r10, r4
 240 00fa AB46     		mov	fp, r5
 241 00fc F0BD     		pop	{r4, r5, r6, r7, pc}
 242              		.cfi_endproc
 243              	.LFE0:
 244              		.size	u8g2_DrawUTF8Line, .-u8g2_DrawUTF8Line
 245 00fe C046     		.section	.text.u8g2_draw_selection_list_line,"ax",%progbits
 246              		.align	2
 247              		.code	16
 248              		.thumb_func
 249              		.type	u8g2_draw_selection_list_line, %function
 250              	u8g2_draw_selection_list_line:
 251              	.LFB2:
 119:..\..\u8g2\csrc/u8g2_selection_list.c **** 
 120:..\..\u8g2\csrc/u8g2_selection_list.c **** 
 121:..\..\u8g2\csrc/u8g2_selection_list.c **** /*
 122:..\..\u8g2\csrc/u8g2_selection_list.c ****   draw several lines at position x,y.
 123:..\..\u8g2\csrc/u8g2_selection_list.c ****   lines are stored in s and must be separated with '\n'.
 124:..\..\u8g2\csrc/u8g2_selection_list.c ****   lines can be centered with respect to "w"
 125:..\..\u8g2\csrc/u8g2_selection_list.c ****   if s == NULL nothing is drawn and 0 is returned
 126:..\..\u8g2\csrc/u8g2_selection_list.c ****   returns the number of lines in s multiplied with line_height
 127:..\..\u8g2\csrc/u8g2_selection_list.c **** */
 128:..\..\u8g2\csrc/u8g2_selection_list.c **** u8g2_uint_t u8g2_DrawUTF8Lines(u8g2_t *u8g2, u8g2_uint_t x, u8g2_uint_t y, u8g2_uint_t w, u8g2_uint
 129:..\..\u8g2\csrc/u8g2_selection_list.c **** {
 130:..\..\u8g2\csrc/u8g2_selection_list.c ****   uint8_t i;
 131:..\..\u8g2\csrc/u8g2_selection_list.c ****   uint8_t cnt;
 132:..\..\u8g2\csrc/u8g2_selection_list.c ****   u8g2_uint_t yy = 0;
 133:..\..\u8g2\csrc/u8g2_selection_list.c ****   cnt = u8x8_GetStringLineCnt(s);
 134:..\..\u8g2\csrc/u8g2_selection_list.c ****   //printf("str=%s\n", s);
 135:..\..\u8g2\csrc/u8g2_selection_list.c ****   //printf("cnt=%d, y=%d, line_height=%d\n", cnt, y, line_height);
 136:..\..\u8g2\csrc/u8g2_selection_list.c ****   for( i = 0; i < cnt; i++ )
 137:..\..\u8g2\csrc/u8g2_selection_list.c ****   {
 138:..\..\u8g2\csrc/u8g2_selection_list.c ****     //printf("  i=%d, y=%d, line_height=%d\n", i, y, line_height);
 139:..\..\u8g2\csrc/u8g2_selection_list.c ****     u8g2_DrawUTF8Line(u8g2, x, y, w, u8x8_GetStringLineStart(i, s), 0, 0);
 140:..\..\u8g2\csrc/u8g2_selection_list.c ****     y+=line_height;
 141:..\..\u8g2\csrc/u8g2_selection_list.c ****     yy+=line_height;
 142:..\..\u8g2\csrc/u8g2_selection_list.c ****   }
 143:..\..\u8g2\csrc/u8g2_selection_list.c ****   return yy;
 144:..\..\u8g2\csrc/u8g2_selection_list.c **** }
 145:..\..\u8g2\csrc/u8g2_selection_list.c **** 
ARM GAS  C:\Users\Alan\AppData\Local\Temp\ccPiwin1.s 			page 8


 146:..\..\u8g2\csrc/u8g2_selection_list.c **** /*
 147:..\..\u8g2\csrc/u8g2_selection_list.c ****   selection list with string line
 148:..\..\u8g2\csrc/u8g2_selection_list.c ****   returns line height
 149:..\..\u8g2\csrc/u8g2_selection_list.c **** */
 150:..\..\u8g2\csrc/u8g2_selection_list.c **** static u8g2_uint_t u8g2_draw_selection_list_line(u8g2_t *u8g2, u8sl_t *u8sl, u8g2_uint_t y, uint8_t
 151:..\..\u8g2\csrc/u8g2_selection_list.c **** static u8g2_uint_t u8g2_draw_selection_list_line(u8g2_t *u8g2, u8sl_t *u8sl, u8g2_uint_t y, uint8_t
 152:..\..\u8g2\csrc/u8g2_selection_list.c **** {
 252              		.loc 1 152 0
 253              		.cfi_startproc
 254              		@ args = 4, pretend = 0, frame = 0
 255              		@ frame_needed = 0, uses_anonymous_args = 0
 256              	.LVL46:
 257 0000 F0B5     		push	{r4, r5, r6, r7, lr}
 258              		.cfi_def_cfa_offset 20
 259              		.cfi_offset 4, -20
 260              		.cfi_offset 5, -16
 261              		.cfi_offset 6, -12
 262              		.cfi_offset 7, -8
 263              		.cfi_offset 14, -4
 264 0002 85B0     		sub	sp, sp, #20
 265              		.cfi_def_cfa_offset 40
 266 0004 0600     		movs	r6, r0
 267 0006 1500     		movs	r5, r2
 268              	.LVL47:
 153:..\..\u8g2\csrc/u8g2_selection_list.c ****   u8g2_uint_t yy;
 154:..\..\u8g2\csrc/u8g2_selection_list.c ****   uint8_t border_size = 0;
 155:..\..\u8g2\csrc/u8g2_selection_list.c ****   uint8_t is_invert = 0;
 156:..\..\u8g2\csrc/u8g2_selection_list.c **** 	
 157:..\..\u8g2\csrc/u8g2_selection_list.c ****   u8g2_uint_t line_height = u8g2_GetAscent(u8g2) - u8g2_GetDescent(u8g2)+MY_BORDER_SIZE;
 269              		.loc 1 157 0
 270 0008 7922     		movs	r2, #121
 271              	.LVL48:
 272 000a 8256     		ldrsb	r2, [r0, r2]
 273 000c 7A20     		movs	r0, #122
 274              	.LVL49:
 275 000e 3456     		ldrsb	r4, [r6, r0]
 276 0010 141B     		subs	r4, r2, r4
 277 0012 0134     		adds	r4, r4, #1
 278 0014 E4B2     		uxtb	r4, r4
 279              	.LVL50:
 158:..\..\u8g2\csrc/u8g2_selection_list.c **** 
 159:..\..\u8g2\csrc/u8g2_selection_list.c ****   /* calculate offset from display upper border */
 160:..\..\u8g2\csrc/u8g2_selection_list.c ****   yy = idx;
 161:..\..\u8g2\csrc/u8g2_selection_list.c ****   yy -= u8sl->first_pos;
 162:..\..\u8g2\csrc/u8g2_selection_list.c ****   yy *= line_height;
 163:..\..\u8g2\csrc/u8g2_selection_list.c ****   yy += y;
 164:..\..\u8g2\csrc/u8g2_selection_list.c **** 
 165:..\..\u8g2\csrc/u8g2_selection_list.c ****   /* check whether this is the current cursor line */
 166:..\..\u8g2\csrc/u8g2_selection_list.c ****   if ( idx == u8sl->current_pos )
 280              		.loc 1 166 0
 281 0016 CA78     		ldrb	r2, [r1, #3]
 282 0018 9342     		cmp	r3, r2
 283 001a 01D0     		beq	.L12
 154:..\..\u8g2\csrc/u8g2_selection_list.c ****   uint8_t is_invert = 0;
 284              		.loc 1 154 0
 285 001c 0027     		movs	r7, #0
 286 001e 00E0     		b	.L10
ARM GAS  C:\Users\Alan\AppData\Local\Temp\ccPiwin1.s 			page 9


 287              	.L12:
 167:..\..\u8g2\csrc/u8g2_selection_list.c ****   {
 168:..\..\u8g2\csrc/u8g2_selection_list.c ****     border_size = MY_BORDER_SIZE;
 288              		.loc 1 168 0
 289 0020 0127     		movs	r7, #1
 290              	.L10:
 291              	.LVL51:
 169:..\..\u8g2\csrc/u8g2_selection_list.c ****     is_invert = 1;
 170:..\..\u8g2\csrc/u8g2_selection_list.c ****   }
 171:..\..\u8g2\csrc/u8g2_selection_list.c **** 
 172:..\..\u8g2\csrc/u8g2_selection_list.c ****   /* get the line from the array */
 173:..\..\u8g2\csrc/u8g2_selection_list.c ****   s = u8x8_GetStringLineStart(idx, s);
 292              		.loc 1 173 0
 293 0022 0A99     		ldr	r1, [sp, #40]
 294              	.LVL52:
 295 0024 1800     		movs	r0, r3
 296 0026 FFF7FEFF 		bl	u8x8_GetStringLineStart
 297              	.LVL53:
 174:..\..\u8g2\csrc/u8g2_selection_list.c **** 
 175:..\..\u8g2\csrc/u8g2_selection_list.c ****   /* draw the line */
 176:..\..\u8g2\csrc/u8g2_selection_list.c ****   if ( s == NULL )
 298              		.loc 1 176 0
 299 002a 0028     		cmp	r0, #0
 300 002c 00D1     		bne	.L11
 177:..\..\u8g2\csrc/u8g2_selection_list.c ****     s = "";
 301              		.loc 1 177 0
 302 002e 0848     		ldr	r0, .L14
 303              	.LVL54:
 304              	.L11:
 178:..\..\u8g2\csrc/u8g2_selection_list.c ****   u8g2_DrawUTF8Line(u8g2, MY_BORDER_SIZE, y, u8g2_GetDisplayWidth(u8g2)-2*MY_BORDER_SIZE, s, border
 305              		.loc 1 178 0
 306 0030 3F23     		movs	r3, #63
 307 0032 F35C     		ldrb	r3, [r6, r3]
 308 0034 023B     		subs	r3, r3, #2
 309 0036 DBB2     		uxtb	r3, r3
 310 0038 0297     		str	r7, [sp, #8]
 311 003a 0197     		str	r7, [sp, #4]
 312 003c 0090     		str	r0, [sp]
 313 003e 2A00     		movs	r2, r5
 314 0040 0121     		movs	r1, #1
 315 0042 3000     		movs	r0, r6
 316              	.LVL55:
 317 0044 FFF7FEFF 		bl	u8g2_DrawUTF8Line
 318              	.LVL56:
 179:..\..\u8g2\csrc/u8g2_selection_list.c ****   return line_height;
 180:..\..\u8g2\csrc/u8g2_selection_list.c **** }
 319              		.loc 1 180 0
 320 0048 2000     		movs	r0, r4
 321 004a 05B0     		add	sp, sp, #20
 322              		@ sp needed
 323              	.LVL57:
 324              	.LVL58:
 325              	.LVL59:
 326 004c F0BD     		pop	{r4, r5, r6, r7, pc}
 327              	.L15:
 328 004e C046     		.align	2
 329              	.L14:
ARM GAS  C:\Users\Alan\AppData\Local\Temp\ccPiwin1.s 			page 10


 330 0050 00000000 		.word	.LC0
 331              		.cfi_endproc
 332              	.LFE2:
 333              		.size	u8g2_draw_selection_list_line, .-u8g2_draw_selection_list_line
 334              		.section	.text.u8g2_DrawUTF8Lines,"ax",%progbits
 335              		.align	2
 336              		.global	u8g2_DrawUTF8Lines
 337              		.code	16
 338              		.thumb_func
 339              		.type	u8g2_DrawUTF8Lines, %function
 340              	u8g2_DrawUTF8Lines:
 341              	.LFB1:
 129:..\..\u8g2\csrc/u8g2_selection_list.c ****   uint8_t i;
 342              		.loc 1 129 0
 343              		.cfi_startproc
 344              		@ args = 8, pretend = 0, frame = 16
 345              		@ frame_needed = 0, uses_anonymous_args = 0
 346              	.LVL60:
 347 0000 F0B5     		push	{r4, r5, r6, r7, lr}
 348              		.cfi_def_cfa_offset 20
 349              		.cfi_offset 4, -20
 350              		.cfi_offset 5, -16
 351              		.cfi_offset 6, -12
 352              		.cfi_offset 7, -8
 353              		.cfi_offset 14, -4
 354 0002 4746     		mov	r7, r8
 355 0004 80B4     		push	{r7}
 356              		.cfi_def_cfa_offset 24
 357              		.cfi_offset 8, -24
 358 0006 88B0     		sub	sp, sp, #32
 359              		.cfi_def_cfa_offset 56
 360 0008 0590     		str	r0, [sp, #20]
 361 000a 0691     		str	r1, [sp, #24]
 362 000c 1600     		movs	r6, r2
 363 000e 0793     		str	r3, [sp, #28]
 364 0010 0EAB     		add	r3, sp, #56
 365              	.LVL61:
 366 0012 1F78     		ldrb	r7, [r3]
 367              	.LVL62:
 133:..\..\u8g2\csrc/u8g2_selection_list.c ****   //printf("str=%s\n", s);
 368              		.loc 1 133 0
 369 0014 0F98     		ldr	r0, [sp, #60]
 370              	.LVL63:
 371 0016 FFF7FEFF 		bl	u8x8_GetStringLineCnt
 372              	.LVL64:
 373 001a 8046     		mov	r8, r0
 374              	.LVL65:
 132:..\..\u8g2\csrc/u8g2_selection_list.c ****   cnt = u8x8_GetStringLineCnt(s);
 375              		.loc 1 132 0
 376 001c 0025     		movs	r5, #0
 136:..\..\u8g2\csrc/u8g2_selection_list.c ****   {
 377              		.loc 1 136 0
 378 001e 0024     		movs	r4, #0
 379 0020 13E0     		b	.L17
 380              	.LVL66:
 381              	.L18:
 139:..\..\u8g2\csrc/u8g2_selection_list.c ****     y+=line_height;
ARM GAS  C:\Users\Alan\AppData\Local\Temp\ccPiwin1.s 			page 11


 382              		.loc 1 139 0 discriminator 3
 383 0022 0F99     		ldr	r1, [sp, #60]
 384 0024 2000     		movs	r0, r4
 385 0026 FFF7FEFF 		bl	u8x8_GetStringLineStart
 386              	.LVL67:
 387 002a 0023     		movs	r3, #0
 388 002c 0293     		str	r3, [sp, #8]
 389 002e 0193     		str	r3, [sp, #4]
 390 0030 0090     		str	r0, [sp]
 391 0032 079B     		ldr	r3, [sp, #28]
 392 0034 3200     		movs	r2, r6
 393 0036 0699     		ldr	r1, [sp, #24]
 394 0038 0598     		ldr	r0, [sp, #20]
 395 003a FFF7FEFF 		bl	u8g2_DrawUTF8Line
 396              	.LVL68:
 140:..\..\u8g2\csrc/u8g2_selection_list.c ****     yy+=line_height;
 397              		.loc 1 140 0 discriminator 3
 398 003e F319     		adds	r3, r6, r7
 399 0040 DEB2     		uxtb	r6, r3
 400              	.LVL69:
 141:..\..\u8g2\csrc/u8g2_selection_list.c ****   }
 401              		.loc 1 141 0 discriminator 3
 402 0042 EB19     		adds	r3, r5, r7
 403 0044 DDB2     		uxtb	r5, r3
 404              	.LVL70:
 136:..\..\u8g2\csrc/u8g2_selection_list.c ****   {
 405              		.loc 1 136 0 discriminator 3
 406 0046 0134     		adds	r4, r4, #1
 407              	.LVL71:
 408 0048 E4B2     		uxtb	r4, r4
 409              	.LVL72:
 410              	.L17:
 136:..\..\u8g2\csrc/u8g2_selection_list.c ****   {
 411              		.loc 1 136 0 is_stmt 0 discriminator 1
 412 004a 4445     		cmp	r4, r8
 413 004c E9D3     		bcc	.L18
 144:..\..\u8g2\csrc/u8g2_selection_list.c **** 
 414              		.loc 1 144 0 is_stmt 1
 415 004e 2800     		movs	r0, r5
 416 0050 08B0     		add	sp, sp, #32
 417              		@ sp needed
 418              	.LVL73:
 419              	.LVL74:
 420              	.LVL75:
 421              	.LVL76:
 422 0052 04BC     		pop	{r2}
 423 0054 9046     		mov	r8, r2
 424 0056 F0BD     		pop	{r4, r5, r6, r7, pc}
 425              		.cfi_endproc
 426              	.LFE1:
 427              		.size	u8g2_DrawUTF8Lines, .-u8g2_DrawUTF8Lines
 428              		.section	.text.u8g2_DrawSelectionList,"ax",%progbits
 429              		.align	2
 430              		.global	u8g2_DrawSelectionList
 431              		.code	16
 432              		.thumb_func
 433              		.type	u8g2_DrawSelectionList, %function
ARM GAS  C:\Users\Alan\AppData\Local\Temp\ccPiwin1.s 			page 12


 434              	u8g2_DrawSelectionList:
 435              	.LFB3:
 181:..\..\u8g2\csrc/u8g2_selection_list.c **** 
 182:..\..\u8g2\csrc/u8g2_selection_list.c **** void u8g2_DrawSelectionList(u8g2_t *u8g2, u8sl_t *u8sl, u8g2_uint_t y, const char *s)
 183:..\..\u8g2\csrc/u8g2_selection_list.c **** {
 436              		.loc 1 183 0
 437              		.cfi_startproc
 438              		@ args = 0, pretend = 0, frame = 8
 439              		@ frame_needed = 0, uses_anonymous_args = 0
 440              	.LVL77:
 441 0000 F0B5     		push	{r4, r5, r6, r7, lr}
 442              		.cfi_def_cfa_offset 20
 443              		.cfi_offset 4, -20
 444              		.cfi_offset 5, -16
 445              		.cfi_offset 6, -12
 446              		.cfi_offset 7, -8
 447              		.cfi_offset 14, -4
 448 0002 85B0     		sub	sp, sp, #20
 449              		.cfi_def_cfa_offset 40
 450 0004 0390     		str	r0, [sp, #12]
 451 0006 0E00     		movs	r6, r1
 452 0008 1500     		movs	r5, r2
 453 000a 1F00     		movs	r7, r3
 454              	.LVL78:
 184:..\..\u8g2\csrc/u8g2_selection_list.c ****   uint8_t i;
 185:..\..\u8g2\csrc/u8g2_selection_list.c ****   for( i = 0; i < u8sl->visible; i++ )
 455              		.loc 1 185 0
 456 000c 0024     		movs	r4, #0
 457 000e 0CE0     		b	.L20
 458              	.LVL79:
 459              	.L21:
 186:..\..\u8g2\csrc/u8g2_selection_list.c ****   {
 187:..\..\u8g2\csrc/u8g2_selection_list.c ****     y += u8g2_draw_selection_list_line(u8g2, u8sl, y, i+u8sl->first_pos, s);
 460              		.loc 1 187 0 discriminator 3
 461 0010 B378     		ldrb	r3, [r6, #2]
 462 0012 E318     		adds	r3, r4, r3
 463 0014 DBB2     		uxtb	r3, r3
 464 0016 0097     		str	r7, [sp]
 465 0018 2A00     		movs	r2, r5
 466 001a 3100     		movs	r1, r6
 467 001c 0398     		ldr	r0, [sp, #12]
 468 001e FFF7FEFF 		bl	u8g2_draw_selection_list_line
 469              	.LVL80:
 470 0022 2818     		adds	r0, r5, r0
 471 0024 C5B2     		uxtb	r5, r0
 472              	.LVL81:
 185:..\..\u8g2\csrc/u8g2_selection_list.c ****   {
 473              		.loc 1 185 0 discriminator 3
 474 0026 0134     		adds	r4, r4, #1
 475              	.LVL82:
 476 0028 E4B2     		uxtb	r4, r4
 477              	.LVL83:
 478              	.L20:
 185:..\..\u8g2\csrc/u8g2_selection_list.c ****   {
 479              		.loc 1 185 0 is_stmt 0 discriminator 1
 480 002a 3378     		ldrb	r3, [r6]
 481 002c 9C42     		cmp	r4, r3
ARM GAS  C:\Users\Alan\AppData\Local\Temp\ccPiwin1.s 			page 13


 482 002e EFD3     		bcc	.L21
 188:..\..\u8g2\csrc/u8g2_selection_list.c ****   }
 189:..\..\u8g2\csrc/u8g2_selection_list.c **** }
 483              		.loc 1 189 0 is_stmt 1
 484 0030 05B0     		add	sp, sp, #20
 485              		@ sp needed
 486              	.LVL84:
 487              	.LVL85:
 488              	.LVL86:
 489              	.LVL87:
 490 0032 F0BD     		pop	{r4, r5, r6, r7, pc}
 491              		.cfi_endproc
 492              	.LFE3:
 493              		.size	u8g2_DrawSelectionList, .-u8g2_DrawSelectionList
 494              		.global	__aeabi_idiv
 495              		.global	__aeabi_uidiv
 496              		.section	.text.u8g2_UserInterfaceSelectionList,"ax",%progbits
 497              		.align	2
 498              		.global	u8g2_UserInterfaceSelectionList
 499              		.code	16
 500              		.thumb_func
 501              		.type	u8g2_UserInterfaceSelectionList, %function
 502              	u8g2_UserInterfaceSelectionList:
 503              	.LFB4:
 190:..\..\u8g2\csrc/u8g2_selection_list.c **** 
 191:..\..\u8g2\csrc/u8g2_selection_list.c **** 
 192:..\..\u8g2\csrc/u8g2_selection_list.c **** /*
 193:..\..\u8g2\csrc/u8g2_selection_list.c ****   title: 		NULL for no title, valid str for title line. Can contain mutliple lines, separated by '\
 194:..\..\u8g2\csrc/u8g2_selection_list.c ****   start_pos: 	default position for the cursor, first line is 1.
 195:..\..\u8g2\csrc/u8g2_selection_list.c ****   sl:			string list (list of strings separated by \n)
 196:..\..\u8g2\csrc/u8g2_selection_list.c ****   returns 0 if user has pressed the home key
 197:..\..\u8g2\csrc/u8g2_selection_list.c ****   returns the selected line if user has pressed the select key
 198:..\..\u8g2\csrc/u8g2_selection_list.c ****   side effects:
 199:..\..\u8g2\csrc/u8g2_selection_list.c ****     u8g2_SetFontDirection(u8g2, 0);
 200:..\..\u8g2\csrc/u8g2_selection_list.c ****     u8g2_SetFontPosBaseline(u8g2);
 201:..\..\u8g2\csrc/u8g2_selection_list.c **** 	
 202:..\..\u8g2\csrc/u8g2_selection_list.c **** */
 203:..\..\u8g2\csrc/u8g2_selection_list.c **** uint8_t u8g2_UserInterfaceSelectionList(u8g2_t *u8g2, const char *title, uint8_t start_pos, const c
 204:..\..\u8g2\csrc/u8g2_selection_list.c **** {
 504              		.loc 1 204 0
 505              		.cfi_startproc
 506              		@ args = 0, pretend = 0, frame = 16
 507              		@ frame_needed = 0, uses_anonymous_args = 0
 508              	.LVL88:
 509 0000 F0B5     		push	{r4, r5, r6, r7, lr}
 510              		.cfi_def_cfa_offset 20
 511              		.cfi_offset 4, -20
 512              		.cfi_offset 5, -16
 513              		.cfi_offset 6, -12
 514              		.cfi_offset 7, -8
 515              		.cfi_offset 14, -4
 516 0002 5746     		mov	r7, r10
 517 0004 4E46     		mov	r6, r9
 518 0006 C0B4     		push	{r6, r7}
 519              		.cfi_def_cfa_offset 28
 520              		.cfi_offset 9, -28
 521              		.cfi_offset 10, -24
ARM GAS  C:\Users\Alan\AppData\Local\Temp\ccPiwin1.s 			page 14


 522 0008 87B0     		sub	sp, sp, #28
 523              		.cfi_def_cfa_offset 56
 524 000a 0400     		movs	r4, r0
 525 000c 8946     		mov	r9, r1
 526 000e 1700     		movs	r7, r2
 527 0010 0293     		str	r3, [sp, #8]
 205:..\..\u8g2\csrc/u8g2_selection_list.c ****   u8sl_t u8sl;
 206:..\..\u8g2\csrc/u8g2_selection_list.c ****   u8g2_uint_t yy;
 207:..\..\u8g2\csrc/u8g2_selection_list.c **** 
 208:..\..\u8g2\csrc/u8g2_selection_list.c ****   uint8_t event;
 209:..\..\u8g2\csrc/u8g2_selection_list.c **** 
 210:..\..\u8g2\csrc/u8g2_selection_list.c ****   u8g2_uint_t line_height = u8g2_GetAscent(u8g2) - u8g2_GetDescent(u8g2)+MY_BORDER_SIZE;
 528              		.loc 1 210 0
 529 0012 7923     		movs	r3, #121
 530              	.LVL89:
 531 0014 C356     		ldrsb	r3, [r0, r3]
 532 0016 7A22     		movs	r2, #122
 533              	.LVL90:
 534 0018 8256     		ldrsb	r2, [r0, r2]
 535 001a 9B1A     		subs	r3, r3, r2
 536 001c 0133     		adds	r3, r3, #1
 537 001e DDB2     		uxtb	r5, r3
 538              	.LVL91:
 211:..\..\u8g2\csrc/u8g2_selection_list.c **** 
 212:..\..\u8g2\csrc/u8g2_selection_list.c ****   uint8_t title_lines = u8x8_GetStringLineCnt(title);
 539              		.loc 1 212 0
 540 0020 0800     		movs	r0, r1
 541              	.LVL92:
 542 0022 FFF7FEFF 		bl	u8x8_GetStringLineCnt
 543              	.LVL93:
 544 0026 0390     		str	r0, [sp, #12]
 545 0028 0600     		movs	r6, r0
 546              	.LVL94:
 213:..\..\u8g2\csrc/u8g2_selection_list.c ****   uint8_t display_lines;
 214:..\..\u8g2\csrc/u8g2_selection_list.c **** 
 215:..\..\u8g2\csrc/u8g2_selection_list.c ****   
 216:..\..\u8g2\csrc/u8g2_selection_list.c ****   if ( start_pos > 0 )	/* issue 112 */
 547              		.loc 1 216 0
 548 002a 002F     		cmp	r7, #0
 549 002c 01D0     		beq	.L23
 217:..\..\u8g2\csrc/u8g2_selection_list.c ****     start_pos--;		/* issue 112 */
 550              		.loc 1 217 0
 551 002e 7B1E     		subs	r3, r7, #1
 552 0030 DFB2     		uxtb	r7, r3
 553              	.LVL95:
 554              	.L23:
 218:..\..\u8g2\csrc/u8g2_selection_list.c **** 
 219:..\..\u8g2\csrc/u8g2_selection_list.c **** 
 220:..\..\u8g2\csrc/u8g2_selection_list.c ****   if ( title_lines > 0 )
 555              		.loc 1 220 0
 556 0032 002E     		cmp	r6, #0
 557 0034 0BD0     		beq	.L24
 221:..\..\u8g2\csrc/u8g2_selection_list.c ****   {
 222:..\..\u8g2\csrc/u8g2_selection_list.c **** 	display_lines = (u8g2_GetDisplayHeight(u8g2)-3) / line_height;
 558              		.loc 1 222 0
 559 0036 4023     		movs	r3, #64
 560 0038 E05C     		ldrb	r0, [r4, r3]
ARM GAS  C:\Users\Alan\AppData\Local\Temp\ccPiwin1.s 			page 15


 561 003a 0338     		subs	r0, r0, #3
 562 003c 2900     		movs	r1, r5
 563 003e FFF7FEFF 		bl	__aeabi_idiv
 564              	.LVL96:
 565 0042 C0B2     		uxtb	r0, r0
 566              	.LVL97:
 223:..\..\u8g2\csrc/u8g2_selection_list.c **** 	u8sl.visible = display_lines;
 224:..\..\u8g2\csrc/u8g2_selection_list.c **** 	u8sl.visible -= title_lines;
 567              		.loc 1 224 0
 568 0044 039B     		ldr	r3, [sp, #12]
 569 0046 C21A     		subs	r2, r0, r3
 570 0048 04AB     		add	r3, sp, #16
 571 004a 1A70     		strb	r2, [r3]
 572 004c 06E0     		b	.L25
 573              	.LVL98:
 574              	.L24:
 225:..\..\u8g2\csrc/u8g2_selection_list.c ****   }
 226:..\..\u8g2\csrc/u8g2_selection_list.c ****   else
 227:..\..\u8g2\csrc/u8g2_selection_list.c ****   {
 228:..\..\u8g2\csrc/u8g2_selection_list.c **** 	display_lines = u8g2_GetDisplayHeight(u8g2) / line_height;
 575              		.loc 1 228 0
 576 004e 4023     		movs	r3, #64
 577 0050 E05C     		ldrb	r0, [r4, r3]
 578 0052 2900     		movs	r1, r5
 579 0054 FFF7FEFF 		bl	__aeabi_uidiv
 580              	.LVL99:
 229:..\..\u8g2\csrc/u8g2_selection_list.c **** 	u8sl.visible = display_lines;
 581              		.loc 1 229 0
 582 0058 04AB     		add	r3, sp, #16
 583 005a 1870     		strb	r0, [r3]
 584              	.L25:
 230:..\..\u8g2\csrc/u8g2_selection_list.c ****   }
 231:..\..\u8g2\csrc/u8g2_selection_list.c **** 
 232:..\..\u8g2\csrc/u8g2_selection_list.c ****   u8sl.total = u8x8_GetStringLineCnt(sl);
 585              		.loc 1 232 0
 586 005c 0298     		ldr	r0, [sp, #8]
 587              	.LVL100:
 588 005e FFF7FEFF 		bl	u8x8_GetStringLineCnt
 589              	.LVL101:
 590 0062 04AB     		add	r3, sp, #16
 591 0064 5870     		strb	r0, [r3, #1]
 233:..\..\u8g2\csrc/u8g2_selection_list.c ****   u8sl.first_pos = 0;
 592              		.loc 1 233 0
 593 0066 0022     		movs	r2, #0
 594 0068 9A70     		strb	r2, [r3, #2]
 234:..\..\u8g2\csrc/u8g2_selection_list.c ****   u8sl.current_pos = start_pos;
 595              		.loc 1 234 0
 596 006a DF70     		strb	r7, [r3, #3]
 235:..\..\u8g2\csrc/u8g2_selection_list.c **** 
 236:..\..\u8g2\csrc/u8g2_selection_list.c ****   if ( u8sl.current_pos >= u8sl.total )
 597              		.loc 1 236 0
 598 006c 8742     		cmp	r7, r0
 599 006e 01D3     		bcc	.L26
 237:..\..\u8g2\csrc/u8g2_selection_list.c ****     u8sl.current_pos = u8sl.total-1;
 600              		.loc 1 237 0
 601 0070 0138     		subs	r0, r0, #1
 602 0072 D870     		strb	r0, [r3, #3]
ARM GAS  C:\Users\Alan\AppData\Local\Temp\ccPiwin1.s 			page 16


 603              	.L26:
 238:..\..\u8g2\csrc/u8g2_selection_list.c ****   if ( u8sl.first_pos+u8sl.visible <= u8sl.current_pos )
 604              		.loc 1 238 0
 605 0074 04AA     		add	r2, sp, #16
 606 0076 1178     		ldrb	r1, [r2]
 607 0078 D378     		ldrb	r3, [r2, #3]
 608 007a 9942     		cmp	r1, r3
 609 007c 02DC     		bgt	.L27
 239:..\..\u8g2\csrc/u8g2_selection_list.c ****     u8sl.first_pos = u8sl.current_pos-u8sl.visible+1;
 610              		.loc 1 239 0
 611 007e 5B1A     		subs	r3, r3, r1
 612 0080 0133     		adds	r3, r3, #1
 613 0082 9370     		strb	r3, [r2, #2]
 614              	.L27:
 240:..\..\u8g2\csrc/u8g2_selection_list.c **** 
 241:..\..\u8g2\csrc/u8g2_selection_list.c ****   u8g2_SetFontPosBaseline(u8g2);
 615              		.loc 1 241 0
 616 0084 2000     		movs	r0, r4
 617 0086 FFF7FEFF 		bl	u8g2_SetFontPosBaseline
 618              	.LVL102:
 619              	.L28:
 242:..\..\u8g2\csrc/u8g2_selection_list.c ****   
 243:..\..\u8g2\csrc/u8g2_selection_list.c ****   for(;;)
 244:..\..\u8g2\csrc/u8g2_selection_list.c ****   {
 245:..\..\u8g2\csrc/u8g2_selection_list.c ****       u8g2_FirstPage(u8g2);
 620              		.loc 1 245 0
 621 008a 2000     		movs	r0, r4
 622 008c FFF7FEFF 		bl	u8g2_FirstPage
 623              	.LVL103:
 624              	.L30:
 246:..\..\u8g2\csrc/u8g2_selection_list.c ****       do
 247:..\..\u8g2\csrc/u8g2_selection_list.c ****       {
 248:..\..\u8g2\csrc/u8g2_selection_list.c ****         yy = u8g2_GetAscent(u8g2);
 625              		.loc 1 248 0
 626 0090 7923     		movs	r3, #121
 627 0092 E75C     		ldrb	r7, [r4, r3]
 628              	.LVL104:
 249:..\..\u8g2\csrc/u8g2_selection_list.c ****         if ( title_lines > 0 )
 629              		.loc 1 249 0
 630 0094 002E     		cmp	r6, #0
 631 0096 1AD0     		beq	.L29
 250:..\..\u8g2\csrc/u8g2_selection_list.c ****         {
 251:..\..\u8g2\csrc/u8g2_selection_list.c ****           yy += u8g2_DrawUTF8Lines(u8g2, 0, yy, u8g2_GetDisplayWidth(u8g2), line_height, title);
 632              		.loc 1 251 0
 633 0098 3A3B     		subs	r3, r3, #58
 634 009a 9A46     		mov	r10, r3
 635 009c E35C     		ldrb	r3, [r4, r3]
 636 009e 4A46     		mov	r2, r9
 637 00a0 0192     		str	r2, [sp, #4]
 638 00a2 0095     		str	r5, [sp]
 639 00a4 3A00     		movs	r2, r7
 640 00a6 0021     		movs	r1, #0
 641 00a8 2000     		movs	r0, r4
 642 00aa FFF7FEFF 		bl	u8g2_DrawUTF8Lines
 643              	.LVL105:
 644 00ae 3F18     		adds	r7, r7, r0
 645              	.LVL106:
ARM GAS  C:\Users\Alan\AppData\Local\Temp\ccPiwin1.s 			page 17


 646 00b0 FFB2     		uxtb	r7, r7
 647              	.LVL107:
 252:..\..\u8g2\csrc/u8g2_selection_list.c **** 		
 253:..\..\u8g2\csrc/u8g2_selection_list.c **** 	  u8g2_DrawHLine(u8g2, 0, yy-line_height- u8g2_GetDescent(u8g2) + 1, u8g2_GetDisplayWidth(u8g2));
 648              		.loc 1 253 0
 649 00b2 7A23     		movs	r3, #122
 650 00b4 E156     		ldrsb	r1, [r4, r3]
 651 00b6 5346     		mov	r3, r10
 652 00b8 E35C     		ldrb	r3, [r4, r3]
 653 00ba 7A1B     		subs	r2, r7, r5
 654 00bc 521A     		subs	r2, r2, r1
 655 00be 0132     		adds	r2, r2, #1
 656 00c0 D2B2     		uxtb	r2, r2
 657 00c2 0021     		movs	r1, #0
 658 00c4 2000     		movs	r0, r4
 659 00c6 FFF7FEFF 		bl	u8g2_DrawHLine
 660              	.LVL108:
 254:..\..\u8g2\csrc/u8g2_selection_list.c **** 		
 255:..\..\u8g2\csrc/u8g2_selection_list.c **** 	  yy += 3;
 661              		.loc 1 255 0
 662 00ca 0337     		adds	r7, r7, #3
 663              	.LVL109:
 664 00cc FFB2     		uxtb	r7, r7
 665              	.LVL110:
 666              	.L29:
 256:..\..\u8g2\csrc/u8g2_selection_list.c ****         }
 257:..\..\u8g2\csrc/u8g2_selection_list.c ****         u8g2_DrawSelectionList(u8g2, &u8sl, yy, sl);
 667              		.loc 1 257 0
 668 00ce 029B     		ldr	r3, [sp, #8]
 669 00d0 3A00     		movs	r2, r7
 670 00d2 04A9     		add	r1, sp, #16
 671 00d4 2000     		movs	r0, r4
 672 00d6 FFF7FEFF 		bl	u8g2_DrawSelectionList
 673              	.LVL111:
 258:..\..\u8g2\csrc/u8g2_selection_list.c ****       } while( u8g2_NextPage(u8g2) );
 674              		.loc 1 258 0
 675 00da 2000     		movs	r0, r4
 676 00dc FFF7FEFF 		bl	u8g2_NextPage
 677              	.LVL112:
 678 00e0 071E     		subs	r7, r0, #0
 679              	.LVL113:
 680 00e2 D5D1     		bne	.L30
 681              	.L37:
 259:..\..\u8g2\csrc/u8g2_selection_list.c ****       
 260:..\..\u8g2\csrc/u8g2_selection_list.c **** #ifdef U8G2_REF_MAN_PIC
 261:..\..\u8g2\csrc/u8g2_selection_list.c ****       return 0;
 262:..\..\u8g2\csrc/u8g2_selection_list.c **** #endif
 263:..\..\u8g2\csrc/u8g2_selection_list.c **** 
 264:..\..\u8g2\csrc/u8g2_selection_list.c **** 
 265:..\..\u8g2\csrc/u8g2_selection_list.c ****       for(;;)
 266:..\..\u8g2\csrc/u8g2_selection_list.c ****       {
 267:..\..\u8g2\csrc/u8g2_selection_list.c ****         event = u8x8_GetMenuEvent(u8g2_GetU8x8(u8g2));
 682              		.loc 1 267 0
 683 00e4 2000     		movs	r0, r4
 684 00e6 FFF7FEFF 		bl	u8x8_GetMenuEvent
 685              	.LVL114:
 268:..\..\u8g2\csrc/u8g2_selection_list.c ****         if ( event == U8X8_MSG_GPIO_MENU_SELECT )
ARM GAS  C:\Users\Alan\AppData\Local\Temp\ccPiwin1.s 			page 18


 686              		.loc 1 268 0
 687 00ea 5028     		cmp	r0, #80
 688 00ec 04D1     		bne	.L31
 269:..\..\u8g2\csrc/u8g2_selection_list.c ****           return u8sl.current_pos+1;		/* +1, issue 112 */
 689              		.loc 1 269 0
 690 00ee 04AB     		add	r3, sp, #16
 691 00f0 DF78     		ldrb	r7, [r3, #3]
 692 00f2 0137     		adds	r7, r7, #1
 693 00f4 FFB2     		uxtb	r7, r7
 694 00f6 11E0     		b	.L32
 695              	.L31:
 270:..\..\u8g2\csrc/u8g2_selection_list.c ****         else if ( event == U8X8_MSG_GPIO_MENU_HOME )
 696              		.loc 1 270 0
 697 00f8 5328     		cmp	r0, #83
 698 00fa 0FD0     		beq	.L32
 271:..\..\u8g2\csrc/u8g2_selection_list.c ****           return 0;				/* issue 112: return 0 instead of start_pos */
 272:..\..\u8g2\csrc/u8g2_selection_list.c ****         else if ( event == U8X8_MSG_GPIO_MENU_NEXT || event == U8X8_MSG_GPIO_MENU_DOWN )
 699              		.loc 1 272 0
 700 00fc 5128     		cmp	r0, #81
 701 00fe 01D0     		beq	.L33
 702              		.loc 1 272 0 is_stmt 0 discriminator 1
 703 0100 5528     		cmp	r0, #85
 704 0102 03D1     		bne	.L34
 705              	.L33:
 273:..\..\u8g2\csrc/u8g2_selection_list.c ****         {
 274:..\..\u8g2\csrc/u8g2_selection_list.c ****           u8sl_Next(&u8sl);
 706              		.loc 1 274 0 is_stmt 1
 707 0104 04A8     		add	r0, sp, #16
 708              	.LVL115:
 709 0106 FFF7FEFF 		bl	u8sl_Next
 710              	.LVL116:
 275:..\..\u8g2\csrc/u8g2_selection_list.c ****           break;
 711              		.loc 1 275 0
 712 010a BEE7     		b	.L28
 713              	.LVL117:
 714              	.L34:
 276:..\..\u8g2\csrc/u8g2_selection_list.c ****         }
 277:..\..\u8g2\csrc/u8g2_selection_list.c ****         else if ( event == U8X8_MSG_GPIO_MENU_PREV || event == U8X8_MSG_GPIO_MENU_UP )
 715              		.loc 1 277 0
 716 010c 5228     		cmp	r0, #82
 717 010e 01D0     		beq	.L36
 718              		.loc 1 277 0 is_stmt 0 discriminator 1
 719 0110 5428     		cmp	r0, #84
 720 0112 E7D1     		bne	.L37
 721              	.L36:
 278:..\..\u8g2\csrc/u8g2_selection_list.c ****         {
 279:..\..\u8g2\csrc/u8g2_selection_list.c ****           u8sl_Prev(&u8sl);
 722              		.loc 1 279 0 is_stmt 1
 723 0114 04A8     		add	r0, sp, #16
 724              	.LVL118:
 725 0116 FFF7FEFF 		bl	u8sl_Prev
 726              	.LVL119:
 280:..\..\u8g2\csrc/u8g2_selection_list.c ****           break;
 727              		.loc 1 280 0
 728 011a B6E7     		b	.L28
 729              	.LVL120:
 730              	.L32:
ARM GAS  C:\Users\Alan\AppData\Local\Temp\ccPiwin1.s 			page 19


 281:..\..\u8g2\csrc/u8g2_selection_list.c ****         }
 282:..\..\u8g2\csrc/u8g2_selection_list.c ****       }
 283:..\..\u8g2\csrc/u8g2_selection_list.c ****   }
 284:..\..\u8g2\csrc/u8g2_selection_list.c **** }
 731              		.loc 1 284 0
 732 011c 3800     		movs	r0, r7
 733              	.LVL121:
 734 011e 07B0     		add	sp, sp, #28
 735              		@ sp needed
 736              	.LVL122:
 737              	.LVL123:
 738              	.LVL124:
 739 0120 0CBC     		pop	{r2, r3}
 740 0122 9146     		mov	r9, r2
 741 0124 9A46     		mov	r10, r3
 742 0126 F0BD     		pop	{r4, r5, r6, r7, pc}
 743              		.cfi_endproc
 744              	.LFE4:
 745              		.size	u8g2_UserInterfaceSelectionList, .-u8g2_UserInterfaceSelectionList
 746              		.section	.rodata.str1.4,"aMS",%progbits,1
 747              		.align	2
 748              	.LC0:
 749 0000 00       		.ascii	"\000"
 750              		.text
 751              	.Letext0:
 752              		.file 2 "c:\\program files (x86)\\cypress\\psoc creator\\4.1\\psoc creator\\import\\gnu\\arm\\5.4.
 753              		.file 3 "c:\\program files (x86)\\cypress\\psoc creator\\4.1\\psoc creator\\import\\gnu\\arm\\5.4.
 754              		.file 4 "..\\..\\u8g2\\csrc\\u8x8.h"
 755              		.file 5 "..\\..\\u8g2\\csrc\\u8g2.h"