ARM GAS  C:\Users\gjl\AppData\Local\Temp\ccIyoAjb.s 			page 1


   1              		.syntax unified
   2              		.cpu cortex-m0
   3              		.fpu softvfp
   4              		.eabi_attribute 20, 1
   5              		.eabi_attribute 21, 1
   6              		.eabi_attribute 23, 3
   7              		.eabi_attribute 24, 1
   8              		.eabi_attribute 25, 1
   9              		.eabi_attribute 26, 1
  10              		.eabi_attribute 30, 1
  11              		.eabi_attribute 34, 0
  12              		.eabi_attribute 18, 4
  13              		.thumb
  14              		.syntax unified
  15              		.file	"u8g2_kerning.c"
  16              		.text
  17              	.Ltext0:
  18              		.cfi_sections	.debug_frame
  19              		.section	.text.u8g2_GetKerning,"ax",%progbits
  20              		.align	2
  21              		.global	u8g2_GetKerning
  22              		.code	16
  23              		.thumb_func
  24              		.type	u8g2_GetKerning, %function
  25              	u8g2_GetKerning:
  26              	.LFB0:
  27              		.file 1 "..\\u8g2\\csrc\\u8g2_kerning.c"
   1:..\u8g2\csrc/u8g2_kerning.c **** /*
   2:..\u8g2\csrc/u8g2_kerning.c **** 
   3:..\u8g2\csrc/u8g2_kerning.c ****   u8g2_kerning.c
   4:..\u8g2\csrc/u8g2_kerning.c **** 
   5:..\u8g2\csrc/u8g2_kerning.c ****   Universal 8bit Graphics Library (https://github.com/olikraus/u8g2/)
   6:..\u8g2\csrc/u8g2_kerning.c **** 
   7:..\u8g2\csrc/u8g2_kerning.c ****   Copyright (c) 2016, olikraus@gmail.com
   8:..\u8g2\csrc/u8g2_kerning.c ****   All rights reserved.
   9:..\u8g2\csrc/u8g2_kerning.c **** 
  10:..\u8g2\csrc/u8g2_kerning.c ****   Redistribution and use in source and binary forms, with or without modification, 
  11:..\u8g2\csrc/u8g2_kerning.c ****   are permitted provided that the following conditions are met:
  12:..\u8g2\csrc/u8g2_kerning.c **** 
  13:..\u8g2\csrc/u8g2_kerning.c ****   * Redistributions of source code must retain the above copyright notice, this list 
  14:..\u8g2\csrc/u8g2_kerning.c ****     of conditions and the following disclaimer.
  15:..\u8g2\csrc/u8g2_kerning.c ****     
  16:..\u8g2\csrc/u8g2_kerning.c ****   * Redistributions in binary form must reproduce the above copyright notice, this 
  17:..\u8g2\csrc/u8g2_kerning.c ****     list of conditions and the following disclaimer in the documentation and/or other 
  18:..\u8g2\csrc/u8g2_kerning.c ****     materials provided with the distribution.
  19:..\u8g2\csrc/u8g2_kerning.c **** 
  20:..\u8g2\csrc/u8g2_kerning.c ****   THIS SOFTWARE IS PROVIDED BY THE COPYRIGHT HOLDERS AND 
  21:..\u8g2\csrc/u8g2_kerning.c ****   CONTRIBUTORS "AS IS" AND ANY EXPRESS OR IMPLIED WARRANTIES, 
  22:..\u8g2\csrc/u8g2_kerning.c ****   INCLUDING, BUT NOT LIMITED TO, THE IMPLIED WARRANTIES OF 
  23:..\u8g2\csrc/u8g2_kerning.c ****   MERCHANTABILITY AND FITNESS FOR A PARTICULAR PURPOSE ARE 
  24:..\u8g2\csrc/u8g2_kerning.c ****   DISCLAIMED. IN NO EVENT SHALL THE COPYRIGHT HOLDER OR 
  25:..\u8g2\csrc/u8g2_kerning.c ****   CONTRIBUTORS BE LIABLE FOR ANY DIRECT, INDIRECT, INCIDENTAL, 
  26:..\u8g2\csrc/u8g2_kerning.c ****   SPECIAL, EXEMPLARY, OR CONSEQUENTIAL DAMAGES (INCLUDING, BUT 
  27:..\u8g2\csrc/u8g2_kerning.c ****   NOT LIMITED TO, PROCUREMENT OF SUBSTITUTE GOODS OR SERVICES; 
  28:..\u8g2\csrc/u8g2_kerning.c ****   LOSS OF USE, DATA, OR PROFITS; OR BUSINESS INTERRUPTION) HOWEVER 
  29:..\u8g2\csrc/u8g2_kerning.c ****   CAUSED AND ON ANY THEORY OF LIABILITY, WHETHER IN CONTRACT, 
  30:..\u8g2\csrc/u8g2_kerning.c ****   STRICT LIABILITY, OR TORT (INCLUDING NEGLIGENCE OR OTHERWISE) 
ARM GAS  C:\Users\gjl\AppData\Local\Temp\ccIyoAjb.s 			page 2


  31:..\u8g2\csrc/u8g2_kerning.c ****   ARISING IN ANY WAY OUT OF THE USE OF THIS SOFTWARE, EVEN IF 
  32:..\u8g2\csrc/u8g2_kerning.c ****   ADVISED OF THE POSSIBILITY OF SUCH DAMAGE.  
  33:..\u8g2\csrc/u8g2_kerning.c **** 
  34:..\u8g2\csrc/u8g2_kerning.c **** */
  35:..\u8g2\csrc/u8g2_kerning.c **** 
  36:..\u8g2\csrc/u8g2_kerning.c **** #include "u8g2.h"
  37:..\u8g2\csrc/u8g2_kerning.c **** 
  38:..\u8g2\csrc/u8g2_kerning.c **** /* this function is used as "u8g2_get_kerning_cb" */
  39:..\u8g2\csrc/u8g2_kerning.c **** /*
  40:..\u8g2\csrc/u8g2_kerning.c **** uint8_t u8g2_GetNullKerning(u8g2_t *u8g2, uint16_t e1, uint16_t e2)
  41:..\u8g2\csrc/u8g2_kerning.c **** {
  42:..\u8g2\csrc/u8g2_kerning.c ****   return 0;
  43:..\u8g2\csrc/u8g2_kerning.c **** }
  44:..\u8g2\csrc/u8g2_kerning.c **** */
  45:..\u8g2\csrc/u8g2_kerning.c **** 
  46:..\u8g2\csrc/u8g2_kerning.c **** /* this function is used as "u8g2_get_kerning_cb" */
  47:..\u8g2\csrc/u8g2_kerning.c **** uint8_t u8g2_GetKerning(U8X8_UNUSED u8g2_t *u8g2, u8g2_kerning_t *kerning, uint16_t e1, uint16_t e2
  48:..\u8g2\csrc/u8g2_kerning.c **** {
  28              		.loc 1 48 0
  29              		.cfi_startproc
  30              		@ args = 0, pretend = 0, frame = 0
  31              		@ frame_needed = 0, uses_anonymous_args = 0
  32              	.LVL0:
  33 0000 70B5     		push	{r4, r5, r6, lr}
  34              		.cfi_def_cfa_offset 16
  35              		.cfi_offset 4, -16
  36              		.cfi_offset 5, -12
  37              		.cfi_offset 6, -8
  38              		.cfi_offset 14, -4
  49:..\u8g2\csrc/u8g2_kerning.c ****   uint16_t i1, i2, cnt, end;
  50:..\u8g2\csrc/u8g2_kerning.c ****   if ( kerning == NULL )
  39              		.loc 1 50 0
  40 0002 0029     		cmp	r1, #0
  41 0004 24D0     		beq	.L9
  51:..\u8g2\csrc/u8g2_kerning.c ****     return 0;
  52:..\u8g2\csrc/u8g2_kerning.c ****   
  53:..\u8g2\csrc/u8g2_kerning.c ****   /* search for the encoding in the first table */
  54:..\u8g2\csrc/u8g2_kerning.c ****   cnt = kerning->first_table_cnt;
  42              		.loc 1 54 0
  43 0006 0D88     		ldrh	r5, [r1]
  44              	.LVL1:
  55:..\u8g2\csrc/u8g2_kerning.c ****   cnt--;	/* ignore the last element of the table, which is 0x0ffff */
  45              		.loc 1 55 0
  46 0008 013D     		subs	r5, r5, #1
  47              	.LVL2:
  48 000a ADB2     		uxth	r5, r5
  49              	.LVL3:
  56:..\u8g2\csrc/u8g2_kerning.c ****   for( i1 = 0; i1 < cnt; i1++ )
  50              		.loc 1 56 0
  51 000c 0020     		movs	r0, #0
  52              	.LVL4:
  53 000e 06E0     		b	.L3
  54              	.LVL5:
  55              	.L5:
  57:..\u8g2\csrc/u8g2_kerning.c ****   {
  58:..\u8g2\csrc/u8g2_kerning.c ****     if ( kerning->first_encoding_table[i1] == e1 )
  56              		.loc 1 58 0
ARM GAS  C:\Users\gjl\AppData\Local\Temp\ccIyoAjb.s 			page 3


  57 0010 4400     		lsls	r4, r0, #1
  58 0012 4E68     		ldr	r6, [r1, #4]
  59 0014 A45B     		ldrh	r4, [r4, r6]
  60 0016 9442     		cmp	r4, r2
  61 0018 03D0     		beq	.L4
  56:..\u8g2\csrc/u8g2_kerning.c ****   for( i1 = 0; i1 < cnt; i1++ )
  62              		.loc 1 56 0 discriminator 2
  63 001a 0130     		adds	r0, r0, #1
  64              	.LVL6:
  65 001c 80B2     		uxth	r0, r0
  66              	.LVL7:
  67              	.L3:
  56:..\u8g2\csrc/u8g2_kerning.c ****   for( i1 = 0; i1 < cnt; i1++ )
  68              		.loc 1 56 0 is_stmt 0 discriminator 1
  69 001e A842     		cmp	r0, r5
  70 0020 F6D3     		bcc	.L5
  71              	.L4:
  59:..\u8g2\csrc/u8g2_kerning.c ****       break;
  60:..\u8g2\csrc/u8g2_kerning.c ****   }
  61:..\u8g2\csrc/u8g2_kerning.c ****   if ( i1 >= cnt )
  72              		.loc 1 61 0 is_stmt 1
  73 0022 A842     		cmp	r0, r5
  74 0024 16D2     		bcs	.L10
  62:..\u8g2\csrc/u8g2_kerning.c ****     return 0;	/* e1 not part of the kerning table, return 0 */
  63:..\u8g2\csrc/u8g2_kerning.c **** 
  64:..\u8g2\csrc/u8g2_kerning.c ****   /* get the upper index for i2 */
  65:..\u8g2\csrc/u8g2_kerning.c ****   end = kerning->index_to_second_table[i1+1];
  75              		.loc 1 65 0
  76 0026 8D68     		ldr	r5, [r1, #8]
  77              	.LVL8:
  78 0028 421C     		adds	r2, r0, #1
  79              	.LVL9:
  80 002a 5200     		lsls	r2, r2, #1
  81 002c AC5A     		ldrh	r4, [r5, r2]
  82              	.LVL10:
  66:..\u8g2\csrc/u8g2_kerning.c ****   for( i2 = kerning->index_to_second_table[i1]; i2 < end; i2++ )
  83              		.loc 1 66 0
  84 002e 4000     		lsls	r0, r0, #1
  85              	.LVL11:
  86 0030 2A5A     		ldrh	r2, [r5, r0]
  87              	.LVL12:
  88 0032 06E0     		b	.L6
  89              	.L8:
  67:..\u8g2\csrc/u8g2_kerning.c ****   {
  68:..\u8g2\csrc/u8g2_kerning.c ****     if ( kerning->second_encoding_table[i2] == e2 )
  90              		.loc 1 68 0
  91 0034 5000     		lsls	r0, r2, #1
  92 0036 CD68     		ldr	r5, [r1, #12]
  93 0038 405B     		ldrh	r0, [r0, r5]
  94 003a 9842     		cmp	r0, r3
  95 003c 03D0     		beq	.L7
  66:..\u8g2\csrc/u8g2_kerning.c ****   for( i2 = kerning->index_to_second_table[i1]; i2 < end; i2++ )
  96              		.loc 1 66 0 discriminator 2
  97 003e 0132     		adds	r2, r2, #1
  98              	.LVL13:
  99 0040 92B2     		uxth	r2, r2
 100              	.LVL14:
ARM GAS  C:\Users\gjl\AppData\Local\Temp\ccIyoAjb.s 			page 4


 101              	.L6:
  66:..\u8g2\csrc/u8g2_kerning.c ****   for( i2 = kerning->index_to_second_table[i1]; i2 < end; i2++ )
 102              		.loc 1 66 0 is_stmt 0 discriminator 1
 103 0042 A242     		cmp	r2, r4
 104 0044 F6D3     		bcc	.L8
 105              	.L7:
  69:..\u8g2\csrc/u8g2_kerning.c ****       break;
  70:..\u8g2\csrc/u8g2_kerning.c ****   }
  71:..\u8g2\csrc/u8g2_kerning.c ****   
  72:..\u8g2\csrc/u8g2_kerning.c ****   if ( i2 >= end )
 106              		.loc 1 72 0 is_stmt 1
 107 0046 A242     		cmp	r2, r4
 108 0048 06D2     		bcs	.L11
  73:..\u8g2\csrc/u8g2_kerning.c ****     return 0;	/* e2 not part of any pair with e1, return 0 */
  74:..\u8g2\csrc/u8g2_kerning.c ****   
  75:..\u8g2\csrc/u8g2_kerning.c ****   return kerning->kerning_values[i2];
 109              		.loc 1 75 0
 110 004a 0B69     		ldr	r3, [r1, #16]
 111              	.LVL15:
 112 004c 985C     		ldrb	r0, [r3, r2]
 113 004e 04E0     		b	.L2
 114              	.LVL16:
 115              	.L9:
  51:..\u8g2\csrc/u8g2_kerning.c ****   
 116              		.loc 1 51 0
 117 0050 0020     		movs	r0, #0
 118              	.LVL17:
 119 0052 02E0     		b	.L2
 120              	.LVL18:
 121              	.L10:
  62:..\u8g2\csrc/u8g2_kerning.c **** 
 122              		.loc 1 62 0
 123 0054 0020     		movs	r0, #0
 124              	.LVL19:
 125 0056 00E0     		b	.L2
 126              	.LVL20:
 127              	.L11:
  73:..\u8g2\csrc/u8g2_kerning.c ****     return 0;	/* e2 not part of any pair with e1, return 0 */
 128              		.loc 1 73 0
 129 0058 0020     		movs	r0, #0
 130              	.LVL21:
 131              	.L2:
  76:..\u8g2\csrc/u8g2_kerning.c **** }
 132              		.loc 1 76 0
 133              		@ sp needed
 134 005a 70BD     		pop	{r4, r5, r6, pc}
 135              		.cfi_endproc
 136              	.LFE0:
 137              		.size	u8g2_GetKerning, .-u8g2_GetKerning
 138              		.section	.text.u8g2_GetKerningByTable,"ax",%progbits
 139              		.align	2
 140              		.global	u8g2_GetKerningByTable
 141              		.code	16
 142              		.thumb_func
 143              		.type	u8g2_GetKerningByTable, %function
 144              	u8g2_GetKerningByTable:
 145              	.LFB1:
ARM GAS  C:\Users\gjl\AppData\Local\Temp\ccIyoAjb.s 			page 5


  77:..\u8g2\csrc/u8g2_kerning.c **** 
  78:..\u8g2\csrc/u8g2_kerning.c **** uint8_t u8g2_GetKerningByTable(U8X8_UNUSED u8g2_t *u8g2, const uint16_t *kt, uint16_t e1, uint16_t 
  79:..\u8g2\csrc/u8g2_kerning.c **** {
 146              		.loc 1 79 0
 147              		.cfi_startproc
 148              		@ args = 0, pretend = 0, frame = 0
 149              		@ frame_needed = 0, uses_anonymous_args = 0
 150              	.LVL22:
 151 0000 70B5     		push	{r4, r5, r6, lr}
 152              		.cfi_def_cfa_offset 16
 153              		.cfi_offset 4, -16
 154              		.cfi_offset 5, -12
 155              		.cfi_offset 6, -8
 156              		.cfi_offset 14, -4
 157              	.LVL23:
  80:..\u8g2\csrc/u8g2_kerning.c ****   uint16_t i;
  81:..\u8g2\csrc/u8g2_kerning.c ****   i = 0;
  82:..\u8g2\csrc/u8g2_kerning.c ****   if ( kt == NULL )
 158              		.loc 1 82 0
 159 0002 0029     		cmp	r1, #0
 160 0004 14D0     		beq	.L16
 161 0006 0020     		movs	r0, #0
 162              	.LVL24:
 163              	.L15:
  83:..\u8g2\csrc/u8g2_kerning.c ****     return 0;
  84:..\u8g2\csrc/u8g2_kerning.c ****   for(;;)
  85:..\u8g2\csrc/u8g2_kerning.c ****   {
  86:..\u8g2\csrc/u8g2_kerning.c ****     if ( kt[i] == 0x0ffff )
 164              		.loc 1 86 0
 165 0008 0600     		movs	r6, r0
 166 000a 4400     		lsls	r4, r0, #1
 167 000c 645A     		ldrh	r4, [r4, r1]
 168 000e 0A4D     		ldr	r5, .L18
 169 0010 AC42     		cmp	r4, r5
 170 0012 0FD0     		beq	.L17
  87:..\u8g2\csrc/u8g2_kerning.c ****       break;
  88:..\u8g2\csrc/u8g2_kerning.c ****     if ( kt[i] == e1 && kt[i+1] == e2 )
 171              		.loc 1 88 0
 172 0014 9442     		cmp	r4, r2
 173 0016 08D1     		bne	.L14
 174              		.loc 1 88 0 is_stmt 0 discriminator 1
 175 0018 441C     		adds	r4, r0, #1
 176 001a 6400     		lsls	r4, r4, #1
 177 001c 645A     		ldrh	r4, [r4, r1]
 178 001e 9C42     		cmp	r4, r3
 179 0020 03D1     		bne	.L14
  89:..\u8g2\csrc/u8g2_kerning.c ****       return kt[i+2];
 180              		.loc 1 89 0 is_stmt 1
 181 0022 0236     		adds	r6, r6, #2
 182 0024 7600     		lsls	r6, r6, #1
 183 0026 885D     		ldrb	r0, [r1, r6]
 184              	.LVL25:
 185 0028 05E0     		b	.L13
 186              	.LVL26:
 187              	.L14:
  90:..\u8g2\csrc/u8g2_kerning.c ****     i+=3;
 188              		.loc 1 90 0
ARM GAS  C:\Users\gjl\AppData\Local\Temp\ccIyoAjb.s 			page 6


 189 002a 0330     		adds	r0, r0, #3
 190              	.LVL27:
 191 002c 80B2     		uxth	r0, r0
 192              	.LVL28:
  91:..\u8g2\csrc/u8g2_kerning.c ****   }
 193              		.loc 1 91 0
 194 002e EBE7     		b	.L15
 195              	.LVL29:
 196              	.L16:
  83:..\u8g2\csrc/u8g2_kerning.c ****   for(;;)
 197              		.loc 1 83 0
 198 0030 0020     		movs	r0, #0
 199              	.LVL30:
 200 0032 00E0     		b	.L13
 201              	.LVL31:
 202              	.L17:
  92:..\u8g2\csrc/u8g2_kerning.c ****   return 0;
 203              		.loc 1 92 0
 204 0034 0020     		movs	r0, #0
 205              	.LVL32:
 206              	.L13:
  93:..\u8g2\csrc/u8g2_kerning.c **** }
 207              		.loc 1 93 0
 208              		@ sp needed
 209 0036 70BD     		pop	{r4, r5, r6, pc}
 210              	.L19:
 211              		.align	2
 212              	.L18:
 213 0038 FFFF0000 		.word	65535
 214              		.cfi_endproc
 215              	.LFE1:
 216              		.size	u8g2_GetKerningByTable, .-u8g2_GetKerningByTable
 217              		.text
 218              	.Letext0:
 219              		.file 2 "c:\\program files (x86)\\cypress\\psoc creator\\4.1\\psoc creator\\import\\gnu\\arm\\5.4.
 220              		.file 3 "c:\\program files (x86)\\cypress\\psoc creator\\4.1\\psoc creator\\import\\gnu\\arm\\5.4.
 221              		.file 4 "..\\u8g2\\csrc\\u8x8.h"
 222              		.file 5 "..\\u8g2\\csrc\\u8g2.h"