ARM GAS  C:\Users\Alan\AppData\Local\Temp\cclIDSPh.s 			page 1


   1              		.syntax unified
   2              		.cpu cortex-m0
   3              		.fpu softvfp
   4              		.eabi_attribute 20, 1
   5              		.eabi_attribute 21, 1
   6              		.eabi_attribute 23, 3
   7              		.eabi_attribute 24, 1
   8              		.eabi_attribute 25, 1
   9              		.eabi_attribute 26, 1
  10              		.eabi_attribute 30, 1
  11              		.eabi_attribute 34, 0
  12              		.eabi_attribute 18, 4
  13              		.thumb
  14              		.syntax unified
  15              		.file	"u8g2_box.c"
  16              		.text
  17              	.Ltext0:
  18              		.cfi_sections	.debug_frame
  19              		.section	.text.u8g2_DrawBox,"ax",%progbits
  20              		.align	2
  21              		.global	u8g2_DrawBox
  22              		.code	16
  23              		.thumb_func
  24              		.type	u8g2_DrawBox, %function
  25              	u8g2_DrawBox:
  26              	.LFB0:
  27              		.file 1 "..\\..\\u8g2\\csrc\\u8g2_box.c"
   1:..\..\u8g2\csrc/u8g2_box.c **** /*
   2:..\..\u8g2\csrc/u8g2_box.c **** 
   3:..\..\u8g2\csrc/u8g2_box.c ****   u8g2_box.c
   4:..\..\u8g2\csrc/u8g2_box.c **** 
   5:..\..\u8g2\csrc/u8g2_box.c ****   Universal 8bit Graphics Library (https://github.com/olikraus/u8g2/)
   6:..\..\u8g2\csrc/u8g2_box.c **** 
   7:..\..\u8g2\csrc/u8g2_box.c ****   Copyright (c) 2016, olikraus@gmail.com
   8:..\..\u8g2\csrc/u8g2_box.c ****   All rights reserved.
   9:..\..\u8g2\csrc/u8g2_box.c **** 
  10:..\..\u8g2\csrc/u8g2_box.c ****   Redistribution and use in source and binary forms, with or without modification, 
  11:..\..\u8g2\csrc/u8g2_box.c ****   are permitted provided that the following conditions are met:
  12:..\..\u8g2\csrc/u8g2_box.c **** 
  13:..\..\u8g2\csrc/u8g2_box.c ****   * Redistributions of source code must retain the above copyright notice, this list 
  14:..\..\u8g2\csrc/u8g2_box.c ****     of conditions and the following disclaimer.
  15:..\..\u8g2\csrc/u8g2_box.c ****     
  16:..\..\u8g2\csrc/u8g2_box.c ****   * Redistributions in binary form must reproduce the above copyright notice, this 
  17:..\..\u8g2\csrc/u8g2_box.c ****     list of conditions and the following disclaimer in the documentation and/or other 
  18:..\..\u8g2\csrc/u8g2_box.c ****     materials provided with the distribution.
  19:..\..\u8g2\csrc/u8g2_box.c **** 
  20:..\..\u8g2\csrc/u8g2_box.c ****   THIS SOFTWARE IS PROVIDED BY THE COPYRIGHT HOLDERS AND 
  21:..\..\u8g2\csrc/u8g2_box.c ****   CONTRIBUTORS "AS IS" AND ANY EXPRESS OR IMPLIED WARRANTIES, 
  22:..\..\u8g2\csrc/u8g2_box.c ****   INCLUDING, BUT NOT LIMITED TO, THE IMPLIED WARRANTIES OF 
  23:..\..\u8g2\csrc/u8g2_box.c ****   MERCHANTABILITY AND FITNESS FOR A PARTICULAR PURPOSE ARE 
  24:..\..\u8g2\csrc/u8g2_box.c ****   DISCLAIMED. IN NO EVENT SHALL THE COPYRIGHT HOLDER OR 
  25:..\..\u8g2\csrc/u8g2_box.c ****   CONTRIBUTORS BE LIABLE FOR ANY DIRECT, INDIRECT, INCIDENTAL, 
  26:..\..\u8g2\csrc/u8g2_box.c ****   SPECIAL, EXEMPLARY, OR CONSEQUENTIAL DAMAGES (INCLUDING, BUT 
  27:..\..\u8g2\csrc/u8g2_box.c ****   NOT LIMITED TO, PROCUREMENT OF SUBSTITUTE GOODS OR SERVICES; 
  28:..\..\u8g2\csrc/u8g2_box.c ****   LOSS OF USE, DATA, OR PROFITS; OR BUSINESS INTERRUPTION) HOWEVER 
  29:..\..\u8g2\csrc/u8g2_box.c ****   CAUSED AND ON ANY THEORY OF LIABILITY, WHETHER IN CONTRACT, 
  30:..\..\u8g2\csrc/u8g2_box.c ****   STRICT LIABILITY, OR TORT (INCLUDING NEGLIGENCE OR OTHERWISE) 
ARM GAS  C:\Users\Alan\AppData\Local\Temp\cclIDSPh.s 			page 2


  31:..\..\u8g2\csrc/u8g2_box.c ****   ARISING IN ANY WAY OUT OF THE USE OF THIS SOFTWARE, EVEN IF 
  32:..\..\u8g2\csrc/u8g2_box.c ****   ADVISED OF THE POSSIBILITY OF SUCH DAMAGE.  
  33:..\..\u8g2\csrc/u8g2_box.c **** 
  34:..\..\u8g2\csrc/u8g2_box.c **** */
  35:..\..\u8g2\csrc/u8g2_box.c **** 
  36:..\..\u8g2\csrc/u8g2_box.c **** #include "u8g2.h"
  37:..\..\u8g2\csrc/u8g2_box.c **** 
  38:..\..\u8g2\csrc/u8g2_box.c **** /*
  39:..\..\u8g2\csrc/u8g2_box.c ****   draw a filled box
  40:..\..\u8g2\csrc/u8g2_box.c ****   restriction: does not work for w = 0 or h = 0
  41:..\..\u8g2\csrc/u8g2_box.c **** */
  42:..\..\u8g2\csrc/u8g2_box.c **** void u8g2_DrawBox(u8g2_t *u8g2, u8g2_uint_t x, u8g2_uint_t y, u8g2_uint_t w, u8g2_uint_t h)
  43:..\..\u8g2\csrc/u8g2_box.c **** {
  28              		.loc 1 43 0
  29              		.cfi_startproc
  30              		@ args = 4, pretend = 0, frame = 8
  31              		@ frame_needed = 0, uses_anonymous_args = 0
  32              	.LVL0:
  33 0000 F0B5     		push	{r4, r5, r6, r7, lr}
  34              		.cfi_def_cfa_offset 20
  35              		.cfi_offset 4, -20
  36              		.cfi_offset 5, -16
  37              		.cfi_offset 6, -12
  38              		.cfi_offset 7, -8
  39              		.cfi_offset 14, -4
  40 0002 85B0     		sub	sp, sp, #20
  41              		.cfi_def_cfa_offset 40
  42 0004 0390     		str	r0, [sp, #12]
  43 0006 0D00     		movs	r5, r1
  44 0008 1400     		movs	r4, r2
  45 000a 1F00     		movs	r7, r3
  46 000c 0AAB     		add	r3, sp, #40
  47              	.LVL1:
  48 000e 1E78     		ldrb	r6, [r3]
  44:..\..\u8g2\csrc/u8g2_box.c **** #ifdef U8G2_WITH_INTERSECTION
  45:..\..\u8g2\csrc/u8g2_box.c ****   if ( u8g2_IsIntersection(u8g2, x, y, x+w, y+h) == 0 ) 
  49              		.loc 1 45 0
  50 0010 CB19     		adds	r3, r1, r7
  51              	.LVL2:
  52 0012 DBB2     		uxtb	r3, r3
  53 0014 9219     		adds	r2, r2, r6
  54              	.LVL3:
  55 0016 D2B2     		uxtb	r2, r2
  56 0018 0092     		str	r2, [sp]
  57 001a 2200     		movs	r2, r4
  58 001c FFF7FEFF 		bl	u8g2_IsIntersection
  59              	.LVL4:
  60 0020 0028     		cmp	r0, #0
  61 0022 0DD0     		beq	.L1
  62              	.LVL5:
  63              	.L3:
  46:..\..\u8g2\csrc/u8g2_box.c ****     return;
  47:..\..\u8g2\csrc/u8g2_box.c **** #endif /* U8G2_WITH_INTERSECTION */
  48:..\..\u8g2\csrc/u8g2_box.c ****   do
  49:..\..\u8g2\csrc/u8g2_box.c ****   { 
  50:..\..\u8g2\csrc/u8g2_box.c ****     u8g2_DrawHVLine(u8g2, x, y, w, 0);
  64              		.loc 1 50 0 discriminator 1
ARM GAS  C:\Users\Alan\AppData\Local\Temp\cclIDSPh.s 			page 3


  65 0024 0023     		movs	r3, #0
  66 0026 0093     		str	r3, [sp]
  67 0028 3B00     		movs	r3, r7
  68 002a 2200     		movs	r2, r4
  69 002c 2900     		movs	r1, r5
  70 002e 0398     		ldr	r0, [sp, #12]
  71 0030 FFF7FEFF 		bl	u8g2_DrawHVLine
  72              	.LVL6:
  51:..\..\u8g2\csrc/u8g2_box.c ****     y++;    
  73              		.loc 1 51 0 discriminator 1
  74 0034 0134     		adds	r4, r4, #1
  75              	.LVL7:
  76 0036 E4B2     		uxtb	r4, r4
  77              	.LVL8:
  52:..\..\u8g2\csrc/u8g2_box.c ****     h--;
  78              		.loc 1 52 0 discriminator 1
  79 0038 731E     		subs	r3, r6, #1
  80 003a DEB2     		uxtb	r6, r3
  81              	.LVL9:
  53:..\..\u8g2\csrc/u8g2_box.c ****   } while( h != 0 );
  82              		.loc 1 53 0 discriminator 1
  83 003c 002E     		cmp	r6, #0
  84 003e F1D1     		bne	.L3
  85              	.LVL10:
  86              	.L1:
  54:..\..\u8g2\csrc/u8g2_box.c **** }
  87              		.loc 1 54 0
  88 0040 05B0     		add	sp, sp, #20
  89              		@ sp needed
  90 0042 F0BD     		pop	{r4, r5, r6, r7, pc}
  91              		.cfi_endproc
  92              	.LFE0:
  93              		.size	u8g2_DrawBox, .-u8g2_DrawBox
  94              		.section	.text.u8g2_DrawFrame,"ax",%progbits
  95              		.align	2
  96              		.global	u8g2_DrawFrame
  97              		.code	16
  98              		.thumb_func
  99              		.type	u8g2_DrawFrame, %function
 100              	u8g2_DrawFrame:
 101              	.LFB1:
  55:..\..\u8g2\csrc/u8g2_box.c **** 
  56:..\..\u8g2\csrc/u8g2_box.c **** 
  57:..\..\u8g2\csrc/u8g2_box.c **** /*
  58:..\..\u8g2\csrc/u8g2_box.c ****   draw a frame (empty box)
  59:..\..\u8g2\csrc/u8g2_box.c ****   restriction: does not work for w = 0 or h = 0
  60:..\..\u8g2\csrc/u8g2_box.c ****   ToDo:
  61:..\..\u8g2\csrc/u8g2_box.c ****     pixel in the corners are drawn twice. This could be optimized.
  62:..\..\u8g2\csrc/u8g2_box.c **** */
  63:..\..\u8g2\csrc/u8g2_box.c **** void u8g2_DrawFrame(u8g2_t *u8g2, u8g2_uint_t x, u8g2_uint_t y, u8g2_uint_t w, u8g2_uint_t h)
  64:..\..\u8g2\csrc/u8g2_box.c **** {
 102              		.loc 1 64 0
 103              		.cfi_startproc
 104              		@ args = 4, pretend = 0, frame = 8
 105              		@ frame_needed = 0, uses_anonymous_args = 0
 106              	.LVL11:
 107 0000 F0B5     		push	{r4, r5, r6, r7, lr}
ARM GAS  C:\Users\Alan\AppData\Local\Temp\cclIDSPh.s 			page 4


 108              		.cfi_def_cfa_offset 20
 109              		.cfi_offset 4, -20
 110              		.cfi_offset 5, -16
 111              		.cfi_offset 6, -12
 112              		.cfi_offset 7, -8
 113              		.cfi_offset 14, -4
 114 0002 5F46     		mov	r7, fp
 115 0004 4E46     		mov	r6, r9
 116 0006 4546     		mov	r5, r8
 117 0008 E0B4     		push	{r5, r6, r7}
 118              		.cfi_def_cfa_offset 32
 119              		.cfi_offset 8, -32
 120              		.cfi_offset 9, -28
 121              		.cfi_offset 11, -24
 122 000a 84B0     		sub	sp, sp, #16
 123              		.cfi_def_cfa_offset 48
 124 000c 0290     		str	r0, [sp, #8]
 125 000e 0C00     		movs	r4, r1
 126 0010 1500     		movs	r5, r2
 127 0012 1A00     		movs	r2, r3
 128              	.LVL12:
 129 0014 0393     		str	r3, [sp, #12]
 130 0016 0CAB     		add	r3, sp, #48
 131              	.LVL13:
 132 0018 1F78     		ldrb	r7, [r3]
 133              	.LVL14:
  65:..\..\u8g2\csrc/u8g2_box.c ****   u8g2_uint_t xtmp = x;
  66:..\..\u8g2\csrc/u8g2_box.c ****   
  67:..\..\u8g2\csrc/u8g2_box.c **** #ifdef U8G2_WITH_INTERSECTION
  68:..\..\u8g2\csrc/u8g2_box.c ****   if ( u8g2_IsIntersection(u8g2, x, y, x+w, y+h) == 0 ) 
 134              		.loc 1 68 0
 135 001a 8918     		adds	r1, r1, r2
 136              	.LVL15:
 137 001c CBB2     		uxtb	r3, r1
 138              	.LVL16:
 139 001e 9946     		mov	r9, r3
 140 0020 EA19     		adds	r2, r5, r7
 141 0022 D6B2     		uxtb	r6, r2
 142 0024 0096     		str	r6, [sp]
 143 0026 2A00     		movs	r2, r5
 144 0028 2100     		movs	r1, r4
 145 002a FFF7FEFF 		bl	u8g2_IsIntersection
 146              	.LVL17:
 147 002e 0028     		cmp	r0, #0
 148 0030 25D0     		beq	.L4
  69:..\..\u8g2\csrc/u8g2_box.c ****     return;
  70:..\..\u8g2\csrc/u8g2_box.c **** #endif /* U8G2_WITH_INTERSECTION */
  71:..\..\u8g2\csrc/u8g2_box.c ****   
  72:..\..\u8g2\csrc/u8g2_box.c ****   u8g2_DrawHVLine(u8g2, x, y, w, 0);
 149              		.loc 1 72 0
 150 0032 0023     		movs	r3, #0
 151 0034 9846     		mov	r8, r3
 152 0036 0093     		str	r3, [sp]
 153 0038 039B     		ldr	r3, [sp, #12]
 154 003a 2A00     		movs	r2, r5
 155 003c 2100     		movs	r1, r4
 156 003e 0298     		ldr	r0, [sp, #8]
ARM GAS  C:\Users\Alan\AppData\Local\Temp\cclIDSPh.s 			page 5


 157 0040 FFF7FEFF 		bl	u8g2_DrawHVLine
 158              	.LVL18:
  73:..\..\u8g2\csrc/u8g2_box.c ****   u8g2_DrawHVLine(u8g2, x, y, h, 1);
 159              		.loc 1 73 0
 160 0044 0122     		movs	r2, #1
 161 0046 9346     		mov	fp, r2
 162 0048 0092     		str	r2, [sp]
 163 004a 3B00     		movs	r3, r7
 164 004c 2A00     		movs	r2, r5
 165 004e 2100     		movs	r1, r4
 166 0050 0298     		ldr	r0, [sp, #8]
 167 0052 FFF7FEFF 		bl	u8g2_DrawHVLine
 168              	.LVL19:
  74:..\..\u8g2\csrc/u8g2_box.c ****   x+=w;
  75:..\..\u8g2\csrc/u8g2_box.c ****   x--;
 169              		.loc 1 75 0
 170 0056 4946     		mov	r1, r9
 171 0058 0139     		subs	r1, r1, #1
 172 005a C9B2     		uxtb	r1, r1
 173              	.LVL20:
  76:..\..\u8g2\csrc/u8g2_box.c ****   u8g2_DrawHVLine(u8g2, x, y, h, 1);
 174              		.loc 1 76 0
 175 005c 5A46     		mov	r2, fp
 176 005e 0092     		str	r2, [sp]
 177 0060 3B00     		movs	r3, r7
 178 0062 2A00     		movs	r2, r5
 179 0064 029D     		ldr	r5, [sp, #8]
 180 0066 2800     		movs	r0, r5
 181 0068 FFF7FEFF 		bl	u8g2_DrawHVLine
 182              	.LVL21:
  77:..\..\u8g2\csrc/u8g2_box.c ****   y+=h;
  78:..\..\u8g2\csrc/u8g2_box.c ****   y--;
 183              		.loc 1 78 0
 184 006c 721E     		subs	r2, r6, #1
 185 006e D2B2     		uxtb	r2, r2
 186              	.LVL22:
  79:..\..\u8g2\csrc/u8g2_box.c ****   u8g2_DrawHVLine(u8g2, xtmp, y, w, 0);
 187              		.loc 1 79 0
 188 0070 4146     		mov	r1, r8
 189 0072 0091     		str	r1, [sp]
 190 0074 039B     		ldr	r3, [sp, #12]
 191 0076 2100     		movs	r1, r4
 192 0078 2800     		movs	r0, r5
 193 007a FFF7FEFF 		bl	u8g2_DrawHVLine
 194              	.LVL23:
 195              	.L4:
  80:..\..\u8g2\csrc/u8g2_box.c **** }
 196              		.loc 1 80 0
 197 007e 04B0     		add	sp, sp, #16
 198              		@ sp needed
 199 0080 1CBC     		pop	{r2, r3, r4}
 200 0082 9046     		mov	r8, r2
 201 0084 9946     		mov	r9, r3
 202 0086 A346     		mov	fp, r4
 203 0088 F0BD     		pop	{r4, r5, r6, r7, pc}
 204              		.cfi_endproc
 205              	.LFE1:
ARM GAS  C:\Users\Alan\AppData\Local\Temp\cclIDSPh.s 			page 6


 206              		.size	u8g2_DrawFrame, .-u8g2_DrawFrame
 207 008a C046     		.section	.text.u8g2_DrawRBox,"ax",%progbits
 208              		.align	2
 209              		.global	u8g2_DrawRBox
 210              		.code	16
 211              		.thumb_func
 212              		.type	u8g2_DrawRBox, %function
 213              	u8g2_DrawRBox:
 214              	.LFB2:
  81:..\..\u8g2\csrc/u8g2_box.c **** 
  82:..\..\u8g2\csrc/u8g2_box.c **** 
  83:..\..\u8g2\csrc/u8g2_box.c **** 
  84:..\..\u8g2\csrc/u8g2_box.c **** 
  85:..\..\u8g2\csrc/u8g2_box.c **** void u8g2_DrawRBox(u8g2_t *u8g2, u8g2_uint_t x, u8g2_uint_t y, u8g2_uint_t w, u8g2_uint_t h, u8g2_u
  86:..\..\u8g2\csrc/u8g2_box.c **** {
 215              		.loc 1 86 0
 216              		.cfi_startproc
 217              		@ args = 8, pretend = 0, frame = 16
 218              		@ frame_needed = 0, uses_anonymous_args = 0
 219              	.LVL24:
 220 0000 F0B5     		push	{r4, r5, r6, r7, lr}
 221              		.cfi_def_cfa_offset 20
 222              		.cfi_offset 4, -20
 223              		.cfi_offset 5, -16
 224              		.cfi_offset 6, -12
 225              		.cfi_offset 7, -8
 226              		.cfi_offset 14, -4
 227 0002 5F46     		mov	r7, fp
 228 0004 5646     		mov	r6, r10
 229 0006 4D46     		mov	r5, r9
 230 0008 4446     		mov	r4, r8
 231 000a F0B4     		push	{r4, r5, r6, r7}
 232              		.cfi_def_cfa_offset 36
 233              		.cfi_offset 8, -36
 234              		.cfi_offset 9, -32
 235              		.cfi_offset 10, -28
 236              		.cfi_offset 11, -24
 237 000c 87B0     		sub	sp, sp, #28
 238              		.cfi_def_cfa_offset 64
 239 000e 0290     		str	r0, [sp, #8]
 240 0010 0E00     		movs	r6, r1
 241 0012 0392     		str	r2, [sp, #12]
 242 0014 9A46     		mov	r10, r3
 243 0016 10AB     		add	r3, sp, #64
 244              	.LVL25:
 245 0018 1C78     		ldrb	r4, [r3]
 246 001a 11AB     		add	r3, sp, #68
 247              	.LVL26:
 248 001c 1F78     		ldrb	r7, [r3]
  87:..\..\u8g2\csrc/u8g2_box.c ****   u8g2_uint_t xl, yu;
  88:..\..\u8g2\csrc/u8g2_box.c ****   u8g2_uint_t yl, xr;
  89:..\..\u8g2\csrc/u8g2_box.c **** 
  90:..\..\u8g2\csrc/u8g2_box.c **** #ifdef U8G2_WITH_INTERSECTION
  91:..\..\u8g2\csrc/u8g2_box.c ****   if ( u8g2_IsIntersection(u8g2, x, y, x+w, y+h) == 0 ) 
 249              		.loc 1 91 0
 250 001e 5346     		mov	r3, r10
 251              	.LVL27:
ARM GAS  C:\Users\Alan\AppData\Local\Temp\cclIDSPh.s 			page 7


 252 0020 CD18     		adds	r5, r1, r3
 253 0022 EDB2     		uxtb	r5, r5
 254 0024 1319     		adds	r3, r2, r4
 255 0026 DBB2     		uxtb	r3, r3
 256 0028 9B46     		mov	fp, r3
 257 002a 0093     		str	r3, [sp]
 258 002c 2B00     		movs	r3, r5
 259 002e FFF7FEFF 		bl	u8g2_IsIntersection
 260              	.LVL28:
 261 0032 0028     		cmp	r0, #0
 262 0034 61D0     		beq	.L6
 263              	.LVL29:
  92:..\..\u8g2\csrc/u8g2_box.c ****     return;
  93:..\..\u8g2\csrc/u8g2_box.c **** #endif /* U8G2_WITH_INTERSECTION */
  94:..\..\u8g2\csrc/u8g2_box.c **** 
  95:..\..\u8g2\csrc/u8g2_box.c ****   xl = x;
  96:..\..\u8g2\csrc/u8g2_box.c ****   xl += r;
 264              		.loc 1 96 0
 265 0036 F319     		adds	r3, r6, r7
 266 0038 DBB2     		uxtb	r3, r3
 267 003a 9946     		mov	r9, r3
 268              	.LVL30:
  97:..\..\u8g2\csrc/u8g2_box.c ****   yu = y;
  98:..\..\u8g2\csrc/u8g2_box.c ****   yu += r;
 269              		.loc 1 98 0
 270 003c 039B     		ldr	r3, [sp, #12]
 271 003e DB19     		adds	r3, r3, r7
 272 0040 DBB2     		uxtb	r3, r3
 273 0042 1A00     		movs	r2, r3
 274              	.LVL31:
  99:..\..\u8g2\csrc/u8g2_box.c ****  
 100:..\..\u8g2\csrc/u8g2_box.c ****   xr = x;
 101:..\..\u8g2\csrc/u8g2_box.c ****   xr += w;
 102:..\..\u8g2\csrc/u8g2_box.c ****   xr -= r;
 275              		.loc 1 102 0
 276 0044 ED1B     		subs	r5, r5, r7
 277              	.LVL32:
 278 0046 EDB2     		uxtb	r5, r5
 279              	.LVL33:
 103:..\..\u8g2\csrc/u8g2_box.c ****   xr -= 1;
 280              		.loc 1 103 0
 281 0048 013D     		subs	r5, r5, #1
 282              	.LVL34:
 283 004a EDB2     		uxtb	r5, r5
 284              	.LVL35:
 104:..\..\u8g2\csrc/u8g2_box.c ****   
 105:..\..\u8g2\csrc/u8g2_box.c ****   yl = y;
 106:..\..\u8g2\csrc/u8g2_box.c ****   yl += h;
 107:..\..\u8g2\csrc/u8g2_box.c ****   yl -= r; 
 285              		.loc 1 107 0
 286 004c 5B46     		mov	r3, fp
 287 004e DB1B     		subs	r3, r3, r7
 288 0050 DBB2     		uxtb	r3, r3
 289              	.LVL36:
 108:..\..\u8g2\csrc/u8g2_box.c ****   yl -= 1;
 290              		.loc 1 108 0
 291 0052 013B     		subs	r3, r3, #1
ARM GAS  C:\Users\Alan\AppData\Local\Temp\cclIDSPh.s 			page 8


 292              	.LVL37:
 293 0054 DBB2     		uxtb	r3, r3
 294              	.LVL38:
 295 0056 0493     		str	r3, [sp, #16]
 296              	.LVL39:
 109:..\..\u8g2\csrc/u8g2_box.c **** 
 110:..\..\u8g2\csrc/u8g2_box.c ****   u8g2_DrawDisc(u8g2, xl, yu, r, U8G2_DRAW_UPPER_LEFT);
 297              		.loc 1 110 0
 298 0058 0223     		movs	r3, #2
 299 005a 0093     		str	r3, [sp]
 300 005c 3B00     		movs	r3, r7
 301 005e 9346     		mov	fp, r2
 302 0060 4946     		mov	r1, r9
 303 0062 0298     		ldr	r0, [sp, #8]
 304 0064 FFF7FEFF 		bl	u8g2_DrawDisc
 305              	.LVL40:
 111:..\..\u8g2\csrc/u8g2_box.c ****   u8g2_DrawDisc(u8g2, xr, yu, r, U8G2_DRAW_UPPER_RIGHT);
 306              		.loc 1 111 0
 307 0068 0123     		movs	r3, #1
 308 006a 0093     		str	r3, [sp]
 309 006c 3B00     		movs	r3, r7
 310 006e 5A46     		mov	r2, fp
 311 0070 2900     		movs	r1, r5
 312 0072 0298     		ldr	r0, [sp, #8]
 313 0074 FFF7FEFF 		bl	u8g2_DrawDisc
 314              	.LVL41:
 112:..\..\u8g2\csrc/u8g2_box.c ****   u8g2_DrawDisc(u8g2, xl, yl, r, U8G2_DRAW_LOWER_LEFT);
 315              		.loc 1 112 0
 316 0078 0423     		movs	r3, #4
 317 007a 0093     		str	r3, [sp]
 318 007c 3B00     		movs	r3, r7
 319 007e 049A     		ldr	r2, [sp, #16]
 320 0080 4946     		mov	r1, r9
 321 0082 0298     		ldr	r0, [sp, #8]
 322 0084 FFF7FEFF 		bl	u8g2_DrawDisc
 323              	.LVL42:
 113:..\..\u8g2\csrc/u8g2_box.c ****   u8g2_DrawDisc(u8g2, xr, yl, r, U8G2_DRAW_LOWER_RIGHT);
 324              		.loc 1 113 0
 325 0088 0823     		movs	r3, #8
 326 008a 0093     		str	r3, [sp]
 327 008c 3B00     		movs	r3, r7
 328 008e 049A     		ldr	r2, [sp, #16]
 329 0090 2900     		movs	r1, r5
 330 0092 0298     		ldr	r0, [sp, #8]
 331 0094 FFF7FEFF 		bl	u8g2_DrawDisc
 332              	.LVL43:
 333              	.LBB2:
 114:..\..\u8g2\csrc/u8g2_box.c **** 
 115:..\..\u8g2\csrc/u8g2_box.c ****   {
 116:..\..\u8g2\csrc/u8g2_box.c ****     u8g2_uint_t ww, hh;
 117:..\..\u8g2\csrc/u8g2_box.c **** 
 118:..\..\u8g2\csrc/u8g2_box.c ****     ww = w;
 119:..\..\u8g2\csrc/u8g2_box.c ****     ww -= r;
 334              		.loc 1 119 0
 335 0098 5146     		mov	r1, r10
 336 009a CD1B     		subs	r5, r1, r7
 337              	.LVL44:
ARM GAS  C:\Users\Alan\AppData\Local\Temp\cclIDSPh.s 			page 9


 338 009c EDB2     		uxtb	r5, r5
 339              	.LVL45:
 120:..\..\u8g2\csrc/u8g2_box.c ****     ww -= r;
 340              		.loc 1 120 0
 341 009e ED1B     		subs	r5, r5, r7
 342              	.LVL46:
 343 00a0 EDB2     		uxtb	r5, r5
 344              	.LVL47:
 121:..\..\u8g2\csrc/u8g2_box.c ****     xl++;
 345              		.loc 1 121 0
 346 00a2 4946     		mov	r1, r9
 347 00a4 4B1C     		adds	r3, r1, #1
 348 00a6 D9B2     		uxtb	r1, r3
 349 00a8 8846     		mov	r8, r1
 350              	.LVL48:
 122:..\..\u8g2\csrc/u8g2_box.c ****     yu++;
 351              		.loc 1 122 0
 352 00aa 5A46     		mov	r2, fp
 353 00ac 531C     		adds	r3, r2, #1
 354 00ae DBB2     		uxtb	r3, r3
 355 00b0 9946     		mov	r9, r3
 356              	.LVL49:
 123:..\..\u8g2\csrc/u8g2_box.c ****     
 124:..\..\u8g2\csrc/u8g2_box.c ****     if ( ww >= 3 )
 357              		.loc 1 124 0
 358 00b2 022D     		cmp	r5, #2
 359 00b4 12D9     		bls	.L8
 125:..\..\u8g2\csrc/u8g2_box.c ****     {
 126:..\..\u8g2\csrc/u8g2_box.c ****       ww -= 2;
 360              		.loc 1 126 0
 361 00b6 023D     		subs	r5, r5, #2
 362              	.LVL50:
 363 00b8 EBB2     		uxtb	r3, r5
 364 00ba 1A00     		movs	r2, r3
 365              	.LVL51:
 127:..\..\u8g2\csrc/u8g2_box.c ****       u8g2_DrawBox(u8g2, xl, y, ww, r+1);
 366              		.loc 1 127 0
 367 00bc 7B1C     		adds	r3, r7, #1
 368 00be DDB2     		uxtb	r5, r3
 369 00c0 0095     		str	r5, [sp]
 370 00c2 0592     		str	r2, [sp, #20]
 371 00c4 1300     		movs	r3, r2
 372 00c6 039A     		ldr	r2, [sp, #12]
 373              	.LVL52:
 374 00c8 0298     		ldr	r0, [sp, #8]
 375 00ca FFF7FEFF 		bl	u8g2_DrawBox
 376              	.LVL53:
 128:..\..\u8g2\csrc/u8g2_box.c ****       u8g2_DrawBox(u8g2, xl, yl, ww, r+1);
 377              		.loc 1 128 0
 378 00ce 0095     		str	r5, [sp]
 379 00d0 059B     		ldr	r3, [sp, #20]
 380 00d2 049A     		ldr	r2, [sp, #16]
 381 00d4 4146     		mov	r1, r8
 382 00d6 0298     		ldr	r0, [sp, #8]
 383 00d8 FFF7FEFF 		bl	u8g2_DrawBox
 384              	.LVL54:
 385              	.L8:
ARM GAS  C:\Users\Alan\AppData\Local\Temp\cclIDSPh.s 			page 10


 129:..\..\u8g2\csrc/u8g2_box.c ****     }
 130:..\..\u8g2\csrc/u8g2_box.c ****     
 131:..\..\u8g2\csrc/u8g2_box.c ****     hh = h;
 132:..\..\u8g2\csrc/u8g2_box.c ****     hh -= r;
 386              		.loc 1 132 0
 387 00dc E41B     		subs	r4, r4, r7
 388              	.LVL55:
 389 00de E4B2     		uxtb	r4, r4
 390              	.LVL56:
 133:..\..\u8g2\csrc/u8g2_box.c ****     hh -= r;
 391              		.loc 1 133 0
 392 00e0 E41B     		subs	r4, r4, r7
 393              	.LVL57:
 394 00e2 E4B2     		uxtb	r4, r4
 395              	.LVL58:
 134:..\..\u8g2\csrc/u8g2_box.c ****     //h--;
 135:..\..\u8g2\csrc/u8g2_box.c ****     if ( hh >= 3 )
 396              		.loc 1 135 0
 397 00e4 022C     		cmp	r4, #2
 398 00e6 08D9     		bls	.L6
 136:..\..\u8g2\csrc/u8g2_box.c ****     {
 137:..\..\u8g2\csrc/u8g2_box.c ****       hh -= 2;
 399              		.loc 1 137 0
 400 00e8 023C     		subs	r4, r4, #2
 401              	.LVL59:
 402 00ea E4B2     		uxtb	r4, r4
 403              	.LVL60:
 138:..\..\u8g2\csrc/u8g2_box.c ****       u8g2_DrawBox(u8g2, x, yu, w, hh);
 404              		.loc 1 138 0
 405 00ec 0094     		str	r4, [sp]
 406 00ee 5346     		mov	r3, r10
 407 00f0 4A46     		mov	r2, r9
 408 00f2 3100     		movs	r1, r6
 409 00f4 0298     		ldr	r0, [sp, #8]
 410 00f6 FFF7FEFF 		bl	u8g2_DrawBox
 411              	.LVL61:
 412              	.L6:
 413              	.LBE2:
 139:..\..\u8g2\csrc/u8g2_box.c ****     }
 140:..\..\u8g2\csrc/u8g2_box.c ****   }
 141:..\..\u8g2\csrc/u8g2_box.c **** }
 414              		.loc 1 141 0
 415 00fa 07B0     		add	sp, sp, #28
 416              		@ sp needed
 417 00fc 3CBC     		pop	{r2, r3, r4, r5}
 418 00fe 9046     		mov	r8, r2
 419 0100 9946     		mov	r9, r3
 420 0102 A246     		mov	r10, r4
 421 0104 AB46     		mov	fp, r5
 422 0106 F0BD     		pop	{r4, r5, r6, r7, pc}
 423              		.cfi_endproc
 424              	.LFE2:
 425              		.size	u8g2_DrawRBox, .-u8g2_DrawRBox
 426              		.section	.text.u8g2_DrawRFrame,"ax",%progbits
 427              		.align	2
 428              		.global	u8g2_DrawRFrame
 429              		.code	16
ARM GAS  C:\Users\Alan\AppData\Local\Temp\cclIDSPh.s 			page 11


 430              		.thumb_func
 431              		.type	u8g2_DrawRFrame, %function
 432              	u8g2_DrawRFrame:
 433              	.LFB3:
 142:..\..\u8g2\csrc/u8g2_box.c **** 
 143:..\..\u8g2\csrc/u8g2_box.c **** 
 144:..\..\u8g2\csrc/u8g2_box.c **** void u8g2_DrawRFrame(u8g2_t *u8g2, u8g2_uint_t x, u8g2_uint_t y, u8g2_uint_t w, u8g2_uint_t h, u8g2
 145:..\..\u8g2\csrc/u8g2_box.c **** {
 434              		.loc 1 145 0
 435              		.cfi_startproc
 436              		@ args = 8, pretend = 0, frame = 16
 437              		@ frame_needed = 0, uses_anonymous_args = 0
 438              	.LVL62:
 439 0000 F0B5     		push	{r4, r5, r6, r7, lr}
 440              		.cfi_def_cfa_offset 20
 441              		.cfi_offset 4, -20
 442              		.cfi_offset 5, -16
 443              		.cfi_offset 6, -12
 444              		.cfi_offset 7, -8
 445              		.cfi_offset 14, -4
 446 0002 5F46     		mov	r7, fp
 447 0004 5646     		mov	r6, r10
 448 0006 4D46     		mov	r5, r9
 449 0008 4446     		mov	r4, r8
 450 000a F0B4     		push	{r4, r5, r6, r7}
 451              		.cfi_def_cfa_offset 36
 452              		.cfi_offset 8, -36
 453              		.cfi_offset 9, -32
 454              		.cfi_offset 10, -28
 455              		.cfi_offset 11, -24
 456 000c 87B0     		sub	sp, sp, #28
 457              		.cfi_def_cfa_offset 64
 458 000e 0390     		str	r0, [sp, #12]
 459 0010 0D00     		movs	r5, r1
 460 0012 0492     		str	r2, [sp, #16]
 461 0014 9846     		mov	r8, r3
 462 0016 10AB     		add	r3, sp, #64
 463              	.LVL63:
 464 0018 1B78     		ldrb	r3, [r3]
 465              	.LVL64:
 466 001a 9946     		mov	r9, r3
 467 001c 11AB     		add	r3, sp, #68
 468              	.LVL65:
 469 001e 1E78     		ldrb	r6, [r3]
 146:..\..\u8g2\csrc/u8g2_box.c ****   u8g2_uint_t xl, yu;
 147:..\..\u8g2\csrc/u8g2_box.c **** 
 148:..\..\u8g2\csrc/u8g2_box.c **** #ifdef U8G2_WITH_INTERSECTION
 149:..\..\u8g2\csrc/u8g2_box.c ****   if ( u8g2_IsIntersection(u8g2, x, y, x+w, y+h) == 0 ) 
 470              		.loc 1 149 0
 471 0020 4346     		mov	r3, r8
 472              	.LVL66:
 473 0022 CC18     		adds	r4, r1, r3
 474 0024 E4B2     		uxtb	r4, r4
 475 0026 1300     		movs	r3, r2
 476 0028 4B44     		add	r3, r3, r9
 477 002a DFB2     		uxtb	r7, r3
 478 002c 0097     		str	r7, [sp]
ARM GAS  C:\Users\Alan\AppData\Local\Temp\cclIDSPh.s 			page 12


 479 002e 2300     		movs	r3, r4
 480 0030 FFF7FEFF 		bl	u8g2_IsIntersection
 481              	.LVL67:
 482 0034 0028     		cmp	r0, #0
 483 0036 6DD0     		beq	.L9
 484              	.LVL68:
 150:..\..\u8g2\csrc/u8g2_box.c ****     return;
 151:..\..\u8g2\csrc/u8g2_box.c **** #endif /* U8G2_WITH_INTERSECTION */
 152:..\..\u8g2\csrc/u8g2_box.c **** 
 153:..\..\u8g2\csrc/u8g2_box.c ****   xl = x;
 154:..\..\u8g2\csrc/u8g2_box.c ****   xl += r;
 485              		.loc 1 154 0
 486 0038 AB19     		adds	r3, r5, r6
 487 003a DBB2     		uxtb	r3, r3
 488 003c 9B46     		mov	fp, r3
 489              	.LVL69:
 155:..\..\u8g2\csrc/u8g2_box.c ****   yu = y;
 156:..\..\u8g2\csrc/u8g2_box.c ****   yu += r;
 490              		.loc 1 156 0
 491 003e 049B     		ldr	r3, [sp, #16]
 492 0040 9B19     		adds	r3, r3, r6
 493 0042 DBB2     		uxtb	r3, r3
 494 0044 1A00     		movs	r2, r3
 495              	.LVL70:
 496              	.LBB3:
 157:..\..\u8g2\csrc/u8g2_box.c ****  
 158:..\..\u8g2\csrc/u8g2_box.c ****   {
 159:..\..\u8g2\csrc/u8g2_box.c ****     u8g2_uint_t yl, xr;
 160:..\..\u8g2\csrc/u8g2_box.c ****       
 161:..\..\u8g2\csrc/u8g2_box.c ****     xr = x;
 162:..\..\u8g2\csrc/u8g2_box.c ****     xr += w;
 163:..\..\u8g2\csrc/u8g2_box.c ****     xr -= r;
 497              		.loc 1 163 0
 498 0046 A41B     		subs	r4, r4, r6
 499              	.LVL71:
 500 0048 E4B2     		uxtb	r4, r4
 501              	.LVL72:
 164:..\..\u8g2\csrc/u8g2_box.c ****     xr -= 1;
 502              		.loc 1 164 0
 503 004a 013C     		subs	r4, r4, #1
 504              	.LVL73:
 505 004c E3B2     		uxtb	r3, r4
 506 004e 0593     		str	r3, [sp, #20]
 507              	.LVL74:
 165:..\..\u8g2\csrc/u8g2_box.c ****     
 166:..\..\u8g2\csrc/u8g2_box.c ****     yl = y;
 167:..\..\u8g2\csrc/u8g2_box.c ****     yl += h;
 168:..\..\u8g2\csrc/u8g2_box.c ****     yl -= r; 
 508              		.loc 1 168 0
 509 0050 BC1B     		subs	r4, r7, r6
 510 0052 E4B2     		uxtb	r4, r4
 511              	.LVL75:
 169:..\..\u8g2\csrc/u8g2_box.c ****     yl -= 1;
 512              		.loc 1 169 0
 513 0054 013C     		subs	r4, r4, #1
 514              	.LVL76:
 515 0056 E4B2     		uxtb	r4, r4
ARM GAS  C:\Users\Alan\AppData\Local\Temp\cclIDSPh.s 			page 13


 516              	.LVL77:
 170:..\..\u8g2\csrc/u8g2_box.c **** 
 171:..\..\u8g2\csrc/u8g2_box.c ****     u8g2_DrawCircle(u8g2, xl, yu, r, U8G2_DRAW_UPPER_LEFT);
 517              		.loc 1 171 0
 518 0058 0223     		movs	r3, #2
 519 005a 0093     		str	r3, [sp]
 520 005c 3300     		movs	r3, r6
 521 005e 9246     		mov	r10, r2
 522 0060 5946     		mov	r1, fp
 523 0062 039F     		ldr	r7, [sp, #12]
 524 0064 3800     		movs	r0, r7
 525 0066 FFF7FEFF 		bl	u8g2_DrawCircle
 526              	.LVL78:
 172:..\..\u8g2\csrc/u8g2_box.c ****     u8g2_DrawCircle(u8g2, xr, yu, r, U8G2_DRAW_UPPER_RIGHT);
 527              		.loc 1 172 0
 528 006a 0123     		movs	r3, #1
 529 006c 0093     		str	r3, [sp]
 530 006e 3300     		movs	r3, r6
 531 0070 5246     		mov	r2, r10
 532 0072 0599     		ldr	r1, [sp, #20]
 533 0074 3800     		movs	r0, r7
 534 0076 FFF7FEFF 		bl	u8g2_DrawCircle
 535              	.LVL79:
 173:..\..\u8g2\csrc/u8g2_box.c ****     u8g2_DrawCircle(u8g2, xl, yl, r, U8G2_DRAW_LOWER_LEFT);
 536              		.loc 1 173 0
 537 007a 0423     		movs	r3, #4
 538 007c 0093     		str	r3, [sp]
 539 007e 3300     		movs	r3, r6
 540 0080 2200     		movs	r2, r4
 541 0082 5946     		mov	r1, fp
 542 0084 3800     		movs	r0, r7
 543 0086 FFF7FEFF 		bl	u8g2_DrawCircle
 544              	.LVL80:
 174:..\..\u8g2\csrc/u8g2_box.c ****     u8g2_DrawCircle(u8g2, xr, yl, r, U8G2_DRAW_LOWER_RIGHT);
 545              		.loc 1 174 0
 546 008a 0823     		movs	r3, #8
 547 008c 0093     		str	r3, [sp]
 548 008e 3300     		movs	r3, r6
 549 0090 2200     		movs	r2, r4
 550 0092 0599     		ldr	r1, [sp, #20]
 551 0094 3800     		movs	r0, r7
 552 0096 FFF7FEFF 		bl	u8g2_DrawCircle
 553              	.LVL81:
 554              	.LBE3:
 555              	.LBB4:
 175:..\..\u8g2\csrc/u8g2_box.c ****   }
 176:..\..\u8g2\csrc/u8g2_box.c **** 
 177:..\..\u8g2\csrc/u8g2_box.c ****   {
 178:..\..\u8g2\csrc/u8g2_box.c ****     u8g2_uint_t ww, hh;
 179:..\..\u8g2\csrc/u8g2_box.c **** 
 180:..\..\u8g2\csrc/u8g2_box.c ****     ww = w;
 181:..\..\u8g2\csrc/u8g2_box.c ****     ww -= r;
 556              		.loc 1 181 0
 557 009a 4146     		mov	r1, r8
 558 009c 8F1B     		subs	r7, r1, r6
 559 009e FFB2     		uxtb	r7, r7
 560              	.LVL82:
ARM GAS  C:\Users\Alan\AppData\Local\Temp\cclIDSPh.s 			page 14


 182:..\..\u8g2\csrc/u8g2_box.c ****     ww -= r;
 561              		.loc 1 182 0
 562 00a0 BF1B     		subs	r7, r7, r6
 563              	.LVL83:
 564 00a2 FFB2     		uxtb	r7, r7
 565              	.LVL84:
 183:..\..\u8g2\csrc/u8g2_box.c ****     hh = h;
 184:..\..\u8g2\csrc/u8g2_box.c ****     hh -= r;
 566              		.loc 1 184 0
 567 00a4 4946     		mov	r1, r9
 568 00a6 8C1B     		subs	r4, r1, r6
 569              	.LVL85:
 570 00a8 E4B2     		uxtb	r4, r4
 571              	.LVL86:
 185:..\..\u8g2\csrc/u8g2_box.c ****     hh -= r;
 572              		.loc 1 185 0
 573 00aa A41B     		subs	r4, r4, r6
 574              	.LVL87:
 575 00ac E4B2     		uxtb	r4, r4
 576              	.LVL88:
 186:..\..\u8g2\csrc/u8g2_box.c ****     
 187:..\..\u8g2\csrc/u8g2_box.c ****     xl++;
 577              		.loc 1 187 0
 578 00ae 5946     		mov	r1, fp
 579              	.LVL89:
 580 00b0 4B1C     		adds	r3, r1, #1
 581 00b2 D9B2     		uxtb	r1, r3
 582 00b4 8B46     		mov	fp, r1
 583              	.LVL90:
 188:..\..\u8g2\csrc/u8g2_box.c ****     yu++;
 584              		.loc 1 188 0
 585 00b6 5246     		mov	r2, r10
 586 00b8 531C     		adds	r3, r2, #1
 587 00ba DBB2     		uxtb	r3, r3
 588 00bc 9A46     		mov	r10, r3
 589              	.LVL91:
 189:..\..\u8g2\csrc/u8g2_box.c ****     
 190:..\..\u8g2\csrc/u8g2_box.c ****     if ( ww >= 3 )
 590              		.loc 1 190 0
 591 00be 022F     		cmp	r7, #2
 592 00c0 13D9     		bls	.L11
 191:..\..\u8g2\csrc/u8g2_box.c ****     {
 192:..\..\u8g2\csrc/u8g2_box.c ****       ww -= 2;
 593              		.loc 1 192 0
 594 00c2 023F     		subs	r7, r7, #2
 595              	.LVL92:
 596 00c4 FFB2     		uxtb	r7, r7
 597              	.LVL93:
 193:..\..\u8g2\csrc/u8g2_box.c ****       h--;
 598              		.loc 1 193 0
 599 00c6 4A46     		mov	r2, r9
 600 00c8 013A     		subs	r2, r2, #1
 601 00ca D3B2     		uxtb	r3, r2
 602 00cc 9946     		mov	r9, r3
 603              	.LVL94:
 194:..\..\u8g2\csrc/u8g2_box.c ****       u8g2_DrawHLine(u8g2, xl, y, ww);
 604              		.loc 1 194 0
ARM GAS  C:\Users\Alan\AppData\Local\Temp\cclIDSPh.s 			page 15


 605 00ce 3B00     		movs	r3, r7
 606 00d0 049E     		ldr	r6, [sp, #16]
 607              	.LVL95:
 608 00d2 3200     		movs	r2, r6
 609              	.LVL96:
 610 00d4 0398     		ldr	r0, [sp, #12]
 611 00d6 FFF7FEFF 		bl	u8g2_DrawHLine
 612              	.LVL97:
 195:..\..\u8g2\csrc/u8g2_box.c ****       u8g2_DrawHLine(u8g2, xl, y+h, ww);
 613              		.loc 1 195 0
 614 00da 3300     		movs	r3, r6
 615 00dc 4B44     		add	r3, r3, r9
 616 00de DAB2     		uxtb	r2, r3
 617 00e0 3B00     		movs	r3, r7
 618 00e2 5946     		mov	r1, fp
 619 00e4 0398     		ldr	r0, [sp, #12]
 620 00e6 FFF7FEFF 		bl	u8g2_DrawHLine
 621              	.LVL98:
 622              	.L11:
 196:..\..\u8g2\csrc/u8g2_box.c ****     }
 197:..\..\u8g2\csrc/u8g2_box.c ****     
 198:..\..\u8g2\csrc/u8g2_box.c ****     if ( hh >= 3 )
 623              		.loc 1 198 0
 624 00ea 022C     		cmp	r4, #2
 625 00ec 12D9     		bls	.L9
 199:..\..\u8g2\csrc/u8g2_box.c ****     {
 200:..\..\u8g2\csrc/u8g2_box.c ****       hh -= 2;
 626              		.loc 1 200 0
 627 00ee 023C     		subs	r4, r4, #2
 628              	.LVL99:
 629 00f0 E4B2     		uxtb	r4, r4
 630              	.LVL100:
 201:..\..\u8g2\csrc/u8g2_box.c ****       w--;
 631              		.loc 1 201 0
 632 00f2 4646     		mov	r6, r8
 633 00f4 013E     		subs	r6, r6, #1
 634 00f6 F6B2     		uxtb	r6, r6
 635              	.LVL101:
 202:..\..\u8g2\csrc/u8g2_box.c ****       u8g2_DrawVLine(u8g2, x, yu, hh);
 636              		.loc 1 202 0
 637 00f8 2300     		movs	r3, r4
 638 00fa 5246     		mov	r2, r10
 639 00fc 2900     		movs	r1, r5
 640 00fe 039F     		ldr	r7, [sp, #12]
 641              	.LVL102:
 642 0100 3800     		movs	r0, r7
 643 0102 FFF7FEFF 		bl	u8g2_DrawVLine
 644              	.LVL103:
 203:..\..\u8g2\csrc/u8g2_box.c ****       u8g2_DrawVLine(u8g2, x+w, yu, hh);
 645              		.loc 1 203 0
 646 0106 AD19     		adds	r5, r5, r6
 647 0108 E9B2     		uxtb	r1, r5
 648 010a 2300     		movs	r3, r4
 649 010c 5246     		mov	r2, r10
 650 010e 3800     		movs	r0, r7
 651 0110 FFF7FEFF 		bl	u8g2_DrawVLine
 652              	.LVL104:
ARM GAS  C:\Users\Alan\AppData\Local\Temp\cclIDSPh.s 			page 16


 653              	.L9:
 654              	.LBE4:
 204:..\..\u8g2\csrc/u8g2_box.c ****     }
 205:..\..\u8g2\csrc/u8g2_box.c ****   }
 206:..\..\u8g2\csrc/u8g2_box.c **** }
 655              		.loc 1 206 0
 656 0114 07B0     		add	sp, sp, #28
 657              		@ sp needed
 658 0116 3CBC     		pop	{r2, r3, r4, r5}
 659 0118 9046     		mov	r8, r2
 660 011a 9946     		mov	r9, r3
 661 011c A246     		mov	r10, r4
 662 011e AB46     		mov	fp, r5
 663 0120 F0BD     		pop	{r4, r5, r6, r7, pc}
 664              		.cfi_endproc
 665              	.LFE3:
 666              		.size	u8g2_DrawRFrame, .-u8g2_DrawRFrame
 667 0122 C046     		.text
 668              	.Letext0:
 669              		.file 2 "c:\\program files (x86)\\cypress\\psoc creator\\4.1\\psoc creator\\import\\gnu\\arm\\5.4.
 670              		.file 3 "c:\\program files (x86)\\cypress\\psoc creator\\4.1\\psoc creator\\import\\gnu\\arm\\5.4.
 671              		.file 4 "..\\..\\u8g2\\csrc\\u8x8.h"
 672              		.file 5 "..\\..\\u8g2\\csrc\\u8g2.h"