ARM GAS  C:\Users\arh\AppData\Local\Temp\cc6sEv7h.s 			page 1


   1              		.syntax unified
   2              		.cpu cortex-m0
   3              		.fpu softvfp
   4              		.eabi_attribute 20, 1
   5              		.eabi_attribute 21, 1
   6              		.eabi_attribute 23, 3
   7              		.eabi_attribute 24, 1
   8              		.eabi_attribute 25, 1
   9              		.eabi_attribute 26, 1
  10              		.eabi_attribute 30, 1
  11              		.eabi_attribute 34, 0
  12              		.eabi_attribute 18, 4
  13              		.thumb
  14              		.syntax unified
  15              		.file	"u8g2_font.c"
  16              		.text
  17              	.Ltext0:
  18              		.cfi_sections	.debug_frame
  19              		.section	.text.u8g2_font_get_byte,"ax",%progbits
  20              		.align	2
  21              		.code	16
  22              		.thumb_func
  23              		.type	u8g2_font_get_byte, %function
  24              	u8g2_font_get_byte:
  25              	.LFB0:
  26              		.file 1 "..\\..\\u8g2\\csrc\\u8g2_font.c"
   1:..\..\u8g2\csrc/u8g2_font.c **** /*
   2:..\..\u8g2\csrc/u8g2_font.c **** 
   3:..\..\u8g2\csrc/u8g2_font.c ****   u8g2_font.c
   4:..\..\u8g2\csrc/u8g2_font.c **** 
   5:..\..\u8g2\csrc/u8g2_font.c ****   Universal 8bit Graphics Library (https://github.com/olikraus/u8g2/)
   6:..\..\u8g2\csrc/u8g2_font.c **** 
   7:..\..\u8g2\csrc/u8g2_font.c ****   Copyright (c) 2016, olikraus@gmail.com
   8:..\..\u8g2\csrc/u8g2_font.c ****   All rights reserved.
   9:..\..\u8g2\csrc/u8g2_font.c **** 
  10:..\..\u8g2\csrc/u8g2_font.c ****   Redistribution and use in source and binary forms, with or without modification, 
  11:..\..\u8g2\csrc/u8g2_font.c ****   are permitted provided that the following conditions are met:
  12:..\..\u8g2\csrc/u8g2_font.c **** 
  13:..\..\u8g2\csrc/u8g2_font.c ****   * Redistributions of source code must retain the above copyright notice, this list 
  14:..\..\u8g2\csrc/u8g2_font.c ****     of conditions and the following disclaimer.
  15:..\..\u8g2\csrc/u8g2_font.c ****     
  16:..\..\u8g2\csrc/u8g2_font.c ****   * Redistributions in binary form must reproduce the above copyright notice, this 
  17:..\..\u8g2\csrc/u8g2_font.c ****     list of conditions and the following disclaimer in the documentation and/or other 
  18:..\..\u8g2\csrc/u8g2_font.c ****     materials provided with the distribution.
  19:..\..\u8g2\csrc/u8g2_font.c **** 
  20:..\..\u8g2\csrc/u8g2_font.c ****   THIS SOFTWARE IS PROVIDED BY THE COPYRIGHT HOLDERS AND 
  21:..\..\u8g2\csrc/u8g2_font.c ****   CONTRIBUTORS "AS IS" AND ANY EXPRESS OR IMPLIED WARRANTIES, 
  22:..\..\u8g2\csrc/u8g2_font.c ****   INCLUDING, BUT NOT LIMITED TO, THE IMPLIED WARRANTIES OF 
  23:..\..\u8g2\csrc/u8g2_font.c ****   MERCHANTABILITY AND FITNESS FOR A PARTICULAR PURPOSE ARE 
  24:..\..\u8g2\csrc/u8g2_font.c ****   DISCLAIMED. IN NO EVENT SHALL THE COPYRIGHT HOLDER OR 
  25:..\..\u8g2\csrc/u8g2_font.c ****   CONTRIBUTORS BE LIABLE FOR ANY DIRECT, INDIRECT, INCIDENTAL, 
  26:..\..\u8g2\csrc/u8g2_font.c ****   SPECIAL, EXEMPLARY, OR CONSEQUENTIAL DAMAGES (INCLUDING, BUT 
  27:..\..\u8g2\csrc/u8g2_font.c ****   NOT LIMITED TO, PROCUREMENT OF SUBSTITUTE GOODS OR SERVICES; 
  28:..\..\u8g2\csrc/u8g2_font.c ****   LOSS OF USE, DATA, OR PROFITS; OR BUSINESS INTERRUPTION) HOWEVER 
  29:..\..\u8g2\csrc/u8g2_font.c ****   CAUSED AND ON ANY THEORY OF LIABILITY, WHETHER IN CONTRACT, 
  30:..\..\u8g2\csrc/u8g2_font.c ****   STRICT LIABILITY, OR TORT (INCLUDING NEGLIGENCE OR OTHERWISE) 
  31:..\..\u8g2\csrc/u8g2_font.c ****   ARISING IN ANY WAY OUT OF THE USE OF THIS SOFTWARE, EVEN IF 
ARM GAS  C:\Users\arh\AppData\Local\Temp\cc6sEv7h.s 			page 2


  32:..\..\u8g2\csrc/u8g2_font.c ****   ADVISED OF THE POSSIBILITY OF SUCH DAMAGE.  
  33:..\..\u8g2\csrc/u8g2_font.c **** 
  34:..\..\u8g2\csrc/u8g2_font.c **** */
  35:..\..\u8g2\csrc/u8g2_font.c **** 
  36:..\..\u8g2\csrc/u8g2_font.c **** #include "u8g2.h"
  37:..\..\u8g2\csrc/u8g2_font.c **** 
  38:..\..\u8g2\csrc/u8g2_font.c **** /* size of the font data structure, there is no struct or class... */
  39:..\..\u8g2\csrc/u8g2_font.c **** /* this is the size for the new font format */
  40:..\..\u8g2\csrc/u8g2_font.c **** #define U8G2_FONT_DATA_STRUCT_SIZE 23
  41:..\..\u8g2\csrc/u8g2_font.c **** 
  42:..\..\u8g2\csrc/u8g2_font.c **** /*
  43:..\..\u8g2\csrc/u8g2_font.c ****   font data:
  44:..\..\u8g2\csrc/u8g2_font.c **** 
  45:..\..\u8g2\csrc/u8g2_font.c ****   offset	bytes	description
  46:..\..\u8g2\csrc/u8g2_font.c ****   0		1		glyph_cnt		number of glyphs
  47:..\..\u8g2\csrc/u8g2_font.c ****   1		1		bbx_mode	0: proportional, 1: common height, 2: monospace, 3: multiple of 8
  48:..\..\u8g2\csrc/u8g2_font.c ****   2		1		bits_per_0	glyph rle parameter
  49:..\..\u8g2\csrc/u8g2_font.c ****   3		1		bits_per_1	glyph rle parameter
  50:..\..\u8g2\csrc/u8g2_font.c **** 
  51:..\..\u8g2\csrc/u8g2_font.c ****   4		1		bits_per_char_width		glyph rle parameter
  52:..\..\u8g2\csrc/u8g2_font.c ****   5		1		bits_per_char_height	glyph rle parameter
  53:..\..\u8g2\csrc/u8g2_font.c ****   6		1		bits_per_char_x		glyph rle parameter
  54:..\..\u8g2\csrc/u8g2_font.c ****   7		1		bits_per_char_y		glyph rle parameter
  55:..\..\u8g2\csrc/u8g2_font.c ****   8		1		bits_per_delta_x		glyph rle parameter
  56:..\..\u8g2\csrc/u8g2_font.c **** 
  57:..\..\u8g2\csrc/u8g2_font.c ****   9		1		max_char_width
  58:..\..\u8g2\csrc/u8g2_font.c ****   10		1		max_char_height
  59:..\..\u8g2\csrc/u8g2_font.c ****   11		1		x offset
  60:..\..\u8g2\csrc/u8g2_font.c ****   12		1		y offset (descent)
  61:..\..\u8g2\csrc/u8g2_font.c ****   
  62:..\..\u8g2\csrc/u8g2_font.c ****   13		1		ascent (capital A)
  63:..\..\u8g2\csrc/u8g2_font.c ****   14		1		descent (lower g)
  64:..\..\u8g2\csrc/u8g2_font.c ****   15		1		ascent '('
  65:..\..\u8g2\csrc/u8g2_font.c ****   16		1		descent ')'
  66:..\..\u8g2\csrc/u8g2_font.c ****   
  67:..\..\u8g2\csrc/u8g2_font.c ****   17		1		start pos 'A' high byte
  68:..\..\u8g2\csrc/u8g2_font.c ****   18		1		start pos 'A' low byte
  69:..\..\u8g2\csrc/u8g2_font.c **** 
  70:..\..\u8g2\csrc/u8g2_font.c ****   19		1		start pos 'a' high byte
  71:..\..\u8g2\csrc/u8g2_font.c ****   20		1		start pos 'a' low byte
  72:..\..\u8g2\csrc/u8g2_font.c **** 
  73:..\..\u8g2\csrc/u8g2_font.c ****   21		1		start pos unicode high byte
  74:..\..\u8g2\csrc/u8g2_font.c ****   22		1		start pos unicode low byte
  75:..\..\u8g2\csrc/u8g2_font.c **** 
  76:..\..\u8g2\csrc/u8g2_font.c ****   Font build mode, 0: proportional, 1: common height, 2: monospace, 3: multiple of 8
  77:..\..\u8g2\csrc/u8g2_font.c **** 
  78:..\..\u8g2\csrc/u8g2_font.c ****   Font build mode 0:		
  79:..\..\u8g2\csrc/u8g2_font.c ****     - "t"
  80:..\..\u8g2\csrc/u8g2_font.c ****     - Ref height mode: U8G2_FONT_HEIGHT_MODE_TEXT, U8G2_FONT_HEIGHT_MODE_XTEXT or U8G2_FONT_HEIGHT_
  81:..\..\u8g2\csrc/u8g2_font.c ****     - use in transparent mode only (does not look good in solid mode)
  82:..\..\u8g2\csrc/u8g2_font.c ****     - most compact format
  83:..\..\u8g2\csrc/u8g2_font.c ****     - different font heights possible
  84:..\..\u8g2\csrc/u8g2_font.c ****     
  85:..\..\u8g2\csrc/u8g2_font.c ****   Font build mode 1:		
  86:..\..\u8g2\csrc/u8g2_font.c ****     - "h"
  87:..\..\u8g2\csrc/u8g2_font.c ****     - Ref height mode: U8G2_FONT_HEIGHT_MODE_ALL
  88:..\..\u8g2\csrc/u8g2_font.c ****     - transparent or solid mode
ARM GAS  C:\Users\arh\AppData\Local\Temp\cc6sEv7h.s 			page 3


  89:..\..\u8g2\csrc/u8g2_font.c ****     - The height of the glyphs depend on the largest glyph in the font. This means font height depe
  90:..\..\u8g2\csrc/u8g2_font.c **** 
  91:..\..\u8g2\csrc/u8g2_font.c **** */
  92:..\..\u8g2\csrc/u8g2_font.c **** 
  93:..\..\u8g2\csrc/u8g2_font.c **** /* use case: What is the width and the height of the minimal box into which string s fints? */
  94:..\..\u8g2\csrc/u8g2_font.c **** void u8g2_font_GetStrSize(const void *font, const char *s, u8g2_uint_t *width, u8g2_uint_t *height)
  95:..\..\u8g2\csrc/u8g2_font.c **** void u8g2_font_GetStrSizeP(const void *font, const char *s, u8g2_uint_t *width, u8g2_uint_t *height
  96:..\..\u8g2\csrc/u8g2_font.c **** 
  97:..\..\u8g2\csrc/u8g2_font.c **** /* use case: lower left edge of a minimal box is known, what is the correct x, y position for the s
  98:..\..\u8g2\csrc/u8g2_font.c **** void u8g2_font_AdjustXYToDraw(const void *font, const char *s, u8g2_uint_t *x, u8g2_uint_t *y);
  99:..\..\u8g2\csrc/u8g2_font.c **** void u8g2_font_AdjustXYToDrawP(const void *font, const char *s, u8g2_uint_t *x, u8g2_uint_t *y);
 100:..\..\u8g2\csrc/u8g2_font.c **** 
 101:..\..\u8g2\csrc/u8g2_font.c **** /* use case: Baseline origin known, return minimal box */
 102:..\..\u8g2\csrc/u8g2_font.c **** void u8g2_font_GetStrMinBox(u8g2_t *u8g2, const void *font, const char *s, u8g2_uint_t *x, u8g2_uin
 103:..\..\u8g2\csrc/u8g2_font.c **** 
 104:..\..\u8g2\csrc/u8g2_font.c **** /* procedures */
 105:..\..\u8g2\csrc/u8g2_font.c **** 
 106:..\..\u8g2\csrc/u8g2_font.c **** /*========================================================================*/
 107:..\..\u8g2\csrc/u8g2_font.c **** /* low level byte and word access */
 108:..\..\u8g2\csrc/u8g2_font.c **** 
 109:..\..\u8g2\csrc/u8g2_font.c **** /* removed NOINLINE, because it leads to smaller code, might also be faster */
 110:..\..\u8g2\csrc/u8g2_font.c **** //static uint8_t u8g2_font_get_byte(const uint8_t *font, uint8_t offset) U8G2_NOINLINE;
 111:..\..\u8g2\csrc/u8g2_font.c **** static uint8_t u8g2_font_get_byte(const uint8_t *font, uint8_t offset)
 112:..\..\u8g2\csrc/u8g2_font.c **** {
  27              		.loc 1 112 0
  28              		.cfi_startproc
  29              		@ args = 0, pretend = 0, frame = 0
  30              		@ frame_needed = 0, uses_anonymous_args = 0
  31              		@ link register save eliminated.
  32              	.LVL0:
 113:..\..\u8g2\csrc/u8g2_font.c ****   font += offset;
 114:..\..\u8g2\csrc/u8g2_font.c ****   return u8x8_pgm_read( font );  
  33              		.loc 1 114 0
  34 0000 405C     		ldrb	r0, [r0, r1]
  35              	.LVL1:
 115:..\..\u8g2\csrc/u8g2_font.c **** }
  36              		.loc 1 115 0
  37              		@ sp needed
  38 0002 7047     		bx	lr
  39              		.cfi_endproc
  40              	.LFE0:
  41              		.size	u8g2_font_get_byte, .-u8g2_font_get_byte
  42              		.section	.text.u8g2_font_get_word,"ax",%progbits
  43              		.align	2
  44              		.code	16
  45              		.thumb_func
  46              		.type	u8g2_font_get_word, %function
  47              	u8g2_font_get_word:
  48              	.LFB1:
 116:..\..\u8g2\csrc/u8g2_font.c **** 
 117:..\..\u8g2\csrc/u8g2_font.c **** static uint16_t u8g2_font_get_word(const uint8_t *font, uint8_t offset) U8G2_NOINLINE; 
 118:..\..\u8g2\csrc/u8g2_font.c **** static uint16_t u8g2_font_get_word(const uint8_t *font, uint8_t offset)
 119:..\..\u8g2\csrc/u8g2_font.c **** {
  49              		.loc 1 119 0
  50              		.cfi_startproc
  51              		@ args = 0, pretend = 0, frame = 0
  52              		@ frame_needed = 0, uses_anonymous_args = 0
ARM GAS  C:\Users\arh\AppData\Local\Temp\cc6sEv7h.s 			page 4


  53              		@ link register save eliminated.
  54              	.LVL2:
 120:..\..\u8g2\csrc/u8g2_font.c ****     uint16_t pos;
 121:..\..\u8g2\csrc/u8g2_font.c ****     font += offset;
  55              		.loc 1 121 0
  56 0000 4118     		adds	r1, r0, r1
  57              	.LVL3:
 122:..\..\u8g2\csrc/u8g2_font.c ****     pos = u8x8_pgm_read( font );
  58              		.loc 1 122 0
  59 0002 0878     		ldrb	r0, [r1]
  60              	.LVL4:
 123:..\..\u8g2\csrc/u8g2_font.c ****     font++;
 124:..\..\u8g2\csrc/u8g2_font.c ****     pos <<= 8;
  61              		.loc 1 124 0
  62 0004 0002     		lsls	r0, r0, #8
  63              	.LVL5:
 125:..\..\u8g2\csrc/u8g2_font.c ****     pos += u8x8_pgm_read( font);
  64              		.loc 1 125 0
  65 0006 4B78     		ldrb	r3, [r1, #1]
  66 0008 C018     		adds	r0, r0, r3
  67              	.LVL6:
  68 000a 80B2     		uxth	r0, r0
  69              	.LVL7:
 126:..\..\u8g2\csrc/u8g2_font.c ****     return pos;
 127:..\..\u8g2\csrc/u8g2_font.c **** }
  70              		.loc 1 127 0
  71              		@ sp needed
  72 000c 7047     		bx	lr
  73              		.cfi_endproc
  74              	.LFE1:
  75              		.size	u8g2_font_get_word, .-u8g2_font_get_word
  76 000e C046     		.section	.text.u8g2_add_vector_y,"ax",%progbits
  77              		.align	2
  78              		.code	16
  79              		.thumb_func
  80              		.type	u8g2_add_vector_y, %function
  81              	u8g2_add_vector_y:
  82              	.LFB11:
 128:..\..\u8g2\csrc/u8g2_font.c **** 
 129:..\..\u8g2\csrc/u8g2_font.c **** /*========================================================================*/
 130:..\..\u8g2\csrc/u8g2_font.c **** /* new font format */
 131:..\..\u8g2\csrc/u8g2_font.c **** void u8g2_read_font_info(u8g2_font_info_t *font_info, const uint8_t *font)
 132:..\..\u8g2\csrc/u8g2_font.c **** {
 133:..\..\u8g2\csrc/u8g2_font.c ****   /* offset 0 */
 134:..\..\u8g2\csrc/u8g2_font.c ****   font_info->glyph_cnt = u8g2_font_get_byte(font, 0);
 135:..\..\u8g2\csrc/u8g2_font.c ****   font_info->bbx_mode = u8g2_font_get_byte(font, 1);
 136:..\..\u8g2\csrc/u8g2_font.c ****   font_info->bits_per_0 = u8g2_font_get_byte(font, 2);
 137:..\..\u8g2\csrc/u8g2_font.c ****   font_info->bits_per_1 = u8g2_font_get_byte(font, 3);
 138:..\..\u8g2\csrc/u8g2_font.c ****   
 139:..\..\u8g2\csrc/u8g2_font.c ****   /* offset 4 */
 140:..\..\u8g2\csrc/u8g2_font.c ****   font_info->bits_per_char_width = u8g2_font_get_byte(font, 4);
 141:..\..\u8g2\csrc/u8g2_font.c ****   font_info->bits_per_char_height = u8g2_font_get_byte(font, 5);
 142:..\..\u8g2\csrc/u8g2_font.c ****   font_info->bits_per_char_x = u8g2_font_get_byte(font, 6);
 143:..\..\u8g2\csrc/u8g2_font.c ****   font_info->bits_per_char_y = u8g2_font_get_byte(font, 7);
 144:..\..\u8g2\csrc/u8g2_font.c ****   font_info->bits_per_delta_x = u8g2_font_get_byte(font, 8);
 145:..\..\u8g2\csrc/u8g2_font.c ****   
 146:..\..\u8g2\csrc/u8g2_font.c ****   /* offset 9 */
ARM GAS  C:\Users\arh\AppData\Local\Temp\cc6sEv7h.s 			page 5


 147:..\..\u8g2\csrc/u8g2_font.c ****   font_info->max_char_width = u8g2_font_get_byte(font, 9);
 148:..\..\u8g2\csrc/u8g2_font.c ****   font_info->max_char_height = u8g2_font_get_byte(font, 10);
 149:..\..\u8g2\csrc/u8g2_font.c ****   font_info->x_offset = u8g2_font_get_byte(font, 11);
 150:..\..\u8g2\csrc/u8g2_font.c ****   font_info->y_offset = u8g2_font_get_byte(font, 12);
 151:..\..\u8g2\csrc/u8g2_font.c ****   
 152:..\..\u8g2\csrc/u8g2_font.c ****   /* offset 13 */
 153:..\..\u8g2\csrc/u8g2_font.c ****   font_info->ascent_A = u8g2_font_get_byte(font, 13);
 154:..\..\u8g2\csrc/u8g2_font.c ****   font_info->descent_g = u8g2_font_get_byte(font, 14);
 155:..\..\u8g2\csrc/u8g2_font.c ****   font_info->ascent_para = u8g2_font_get_byte(font, 15);
 156:..\..\u8g2\csrc/u8g2_font.c ****   font_info->descent_para = u8g2_font_get_byte(font, 16);
 157:..\..\u8g2\csrc/u8g2_font.c ****   
 158:..\..\u8g2\csrc/u8g2_font.c ****   /* offset 17 */
 159:..\..\u8g2\csrc/u8g2_font.c ****   font_info->start_pos_upper_A = u8g2_font_get_word(font, 17);
 160:..\..\u8g2\csrc/u8g2_font.c ****   font_info->start_pos_lower_a = u8g2_font_get_word(font, 19); 
 161:..\..\u8g2\csrc/u8g2_font.c ****   
 162:..\..\u8g2\csrc/u8g2_font.c ****   /* offset 21 */
 163:..\..\u8g2\csrc/u8g2_font.c **** #ifdef U8G2_WITH_UNICODE
 164:..\..\u8g2\csrc/u8g2_font.c ****   font_info->start_pos_unicode = u8g2_font_get_word(font, 21); 
 165:..\..\u8g2\csrc/u8g2_font.c **** #endif
 166:..\..\u8g2\csrc/u8g2_font.c **** }
 167:..\..\u8g2\csrc/u8g2_font.c **** 
 168:..\..\u8g2\csrc/u8g2_font.c **** 
 169:..\..\u8g2\csrc/u8g2_font.c **** /* calculate the overall length of the font, only used to create the picture for the google wiki */
 170:..\..\u8g2\csrc/u8g2_font.c **** size_t u8g2_GetFontSize(const uint8_t *font_arg)
 171:..\..\u8g2\csrc/u8g2_font.c **** {
 172:..\..\u8g2\csrc/u8g2_font.c ****   uint16_t e;
 173:..\..\u8g2\csrc/u8g2_font.c ****   const uint8_t *font = font_arg;
 174:..\..\u8g2\csrc/u8g2_font.c ****   font += U8G2_FONT_DATA_STRUCT_SIZE;
 175:..\..\u8g2\csrc/u8g2_font.c ****   
 176:..\..\u8g2\csrc/u8g2_font.c ****   for(;;)
 177:..\..\u8g2\csrc/u8g2_font.c ****   {
 178:..\..\u8g2\csrc/u8g2_font.c ****     if ( u8x8_pgm_read( font + 1 ) == 0 )
 179:..\..\u8g2\csrc/u8g2_font.c ****       break;
 180:..\..\u8g2\csrc/u8g2_font.c ****     font += u8x8_pgm_read( font + 1 );
 181:..\..\u8g2\csrc/u8g2_font.c ****   }
 182:..\..\u8g2\csrc/u8g2_font.c ****   
 183:..\..\u8g2\csrc/u8g2_font.c ****   /* continue with unicode section */
 184:..\..\u8g2\csrc/u8g2_font.c ****   font += 2;
 185:..\..\u8g2\csrc/u8g2_font.c ****   
 186:..\..\u8g2\csrc/u8g2_font.c ****   for(;;)
 187:..\..\u8g2\csrc/u8g2_font.c ****   {
 188:..\..\u8g2\csrc/u8g2_font.c ****     e = u8x8_pgm_read( font );
 189:..\..\u8g2\csrc/u8g2_font.c ****     e <<= 8;
 190:..\..\u8g2\csrc/u8g2_font.c ****     e |= u8x8_pgm_read( font + 1 );
 191:..\..\u8g2\csrc/u8g2_font.c ****     if ( e == 0 )
 192:..\..\u8g2\csrc/u8g2_font.c ****       break;
 193:..\..\u8g2\csrc/u8g2_font.c ****     font += u8x8_pgm_read( font + 2 );    
 194:..\..\u8g2\csrc/u8g2_font.c ****   }
 195:..\..\u8g2\csrc/u8g2_font.c ****   
 196:..\..\u8g2\csrc/u8g2_font.c ****   return (font - font_arg) + 2;
 197:..\..\u8g2\csrc/u8g2_font.c **** }
 198:..\..\u8g2\csrc/u8g2_font.c **** 
 199:..\..\u8g2\csrc/u8g2_font.c **** /*========================================================================*/
 200:..\..\u8g2\csrc/u8g2_font.c **** /* u8g2 interface, font access */
 201:..\..\u8g2\csrc/u8g2_font.c **** 
 202:..\..\u8g2\csrc/u8g2_font.c **** uint8_t u8g2_GetFontBBXWidth(u8g2_t *u8g2)
 203:..\..\u8g2\csrc/u8g2_font.c **** {
ARM GAS  C:\Users\arh\AppData\Local\Temp\cc6sEv7h.s 			page 6


 204:..\..\u8g2\csrc/u8g2_font.c ****   return u8g2->font_info.max_char_width;		/* new font info structure */
 205:..\..\u8g2\csrc/u8g2_font.c **** }
 206:..\..\u8g2\csrc/u8g2_font.c **** 
 207:..\..\u8g2\csrc/u8g2_font.c **** uint8_t u8g2_GetFontBBXHeight(u8g2_t *u8g2)
 208:..\..\u8g2\csrc/u8g2_font.c **** {
 209:..\..\u8g2\csrc/u8g2_font.c ****   return u8g2->font_info.max_char_height;		/* new font info structure */
 210:..\..\u8g2\csrc/u8g2_font.c **** }
 211:..\..\u8g2\csrc/u8g2_font.c **** 
 212:..\..\u8g2\csrc/u8g2_font.c **** int8_t u8g_GetFontBBXOffX(u8g2_t *u8g2) U8G2_NOINLINE;
 213:..\..\u8g2\csrc/u8g2_font.c **** int8_t u8g_GetFontBBXOffX(u8g2_t *u8g2)
 214:..\..\u8g2\csrc/u8g2_font.c **** {
 215:..\..\u8g2\csrc/u8g2_font.c ****   return u8g2->font_info.x_offset;		/* new font info structure */
 216:..\..\u8g2\csrc/u8g2_font.c **** }
 217:..\..\u8g2\csrc/u8g2_font.c **** 
 218:..\..\u8g2\csrc/u8g2_font.c **** int8_t u8g2_GetFontBBXOffY(u8g2_t *u8g2) U8G2_NOINLINE;
 219:..\..\u8g2\csrc/u8g2_font.c **** int8_t u8g2_GetFontBBXOffY(u8g2_t *u8g2)
 220:..\..\u8g2\csrc/u8g2_font.c **** {
 221:..\..\u8g2\csrc/u8g2_font.c ****   return u8g2->font_info.y_offset;		/* new font info structure */
 222:..\..\u8g2\csrc/u8g2_font.c **** }
 223:..\..\u8g2\csrc/u8g2_font.c **** 
 224:..\..\u8g2\csrc/u8g2_font.c **** uint8_t u8g2_GetFontCapitalAHeight(u8g2_t *u8g2) U8G2_NOINLINE; 
 225:..\..\u8g2\csrc/u8g2_font.c **** uint8_t u8g2_GetFontCapitalAHeight(u8g2_t *u8g2)
 226:..\..\u8g2\csrc/u8g2_font.c **** {
 227:..\..\u8g2\csrc/u8g2_font.c ****   return u8g2->font_info.ascent_A;		/* new font info structure */
 228:..\..\u8g2\csrc/u8g2_font.c **** }
 229:..\..\u8g2\csrc/u8g2_font.c **** 
 230:..\..\u8g2\csrc/u8g2_font.c **** /*========================================================================*/
 231:..\..\u8g2\csrc/u8g2_font.c **** /* glyph handling */
 232:..\..\u8g2\csrc/u8g2_font.c **** 
 233:..\..\u8g2\csrc/u8g2_font.c **** /* optimized */
 234:..\..\u8g2\csrc/u8g2_font.c **** uint8_t u8g2_font_decode_get_unsigned_bits(u8g2_font_decode_t *f, uint8_t cnt) 
 235:..\..\u8g2\csrc/u8g2_font.c **** {
 236:..\..\u8g2\csrc/u8g2_font.c ****   uint8_t val;
 237:..\..\u8g2\csrc/u8g2_font.c ****   uint8_t bit_pos = f->decode_bit_pos;
 238:..\..\u8g2\csrc/u8g2_font.c ****   uint8_t bit_pos_plus_cnt;
 239:..\..\u8g2\csrc/u8g2_font.c ****   
 240:..\..\u8g2\csrc/u8g2_font.c ****   //val = *(f->decode_ptr);
 241:..\..\u8g2\csrc/u8g2_font.c ****   val = u8x8_pgm_read( f->decode_ptr );  
 242:..\..\u8g2\csrc/u8g2_font.c ****   
 243:..\..\u8g2\csrc/u8g2_font.c ****   val >>= bit_pos;
 244:..\..\u8g2\csrc/u8g2_font.c ****   bit_pos_plus_cnt = bit_pos;
 245:..\..\u8g2\csrc/u8g2_font.c ****   bit_pos_plus_cnt += cnt;
 246:..\..\u8g2\csrc/u8g2_font.c ****   if ( bit_pos_plus_cnt >= 8 )
 247:..\..\u8g2\csrc/u8g2_font.c ****   {
 248:..\..\u8g2\csrc/u8g2_font.c ****     uint8_t s = 8;
 249:..\..\u8g2\csrc/u8g2_font.c ****     s -= bit_pos;
 250:..\..\u8g2\csrc/u8g2_font.c ****     f->decode_ptr++;
 251:..\..\u8g2\csrc/u8g2_font.c ****     //val |= *(f->decode_ptr) << (8-bit_pos);
 252:..\..\u8g2\csrc/u8g2_font.c ****     val |= u8x8_pgm_read( f->decode_ptr ) << (s);
 253:..\..\u8g2\csrc/u8g2_font.c ****     //bit_pos -= 8;
 254:..\..\u8g2\csrc/u8g2_font.c ****     bit_pos_plus_cnt -= 8;
 255:..\..\u8g2\csrc/u8g2_font.c ****   }
 256:..\..\u8g2\csrc/u8g2_font.c ****   val &= (1U<<cnt)-1;
 257:..\..\u8g2\csrc/u8g2_font.c ****   //bit_pos += cnt;
 258:..\..\u8g2\csrc/u8g2_font.c ****   
 259:..\..\u8g2\csrc/u8g2_font.c ****   f->decode_bit_pos = bit_pos_plus_cnt;
 260:..\..\u8g2\csrc/u8g2_font.c ****   return val;
ARM GAS  C:\Users\arh\AppData\Local\Temp\cc6sEv7h.s 			page 7


 261:..\..\u8g2\csrc/u8g2_font.c **** }
 262:..\..\u8g2\csrc/u8g2_font.c **** 
 263:..\..\u8g2\csrc/u8g2_font.c **** 
 264:..\..\u8g2\csrc/u8g2_font.c **** /*
 265:..\..\u8g2\csrc/u8g2_font.c ****     2 bit --> cnt = 2
 266:..\..\u8g2\csrc/u8g2_font.c ****       -2,-1,0. 1
 267:..\..\u8g2\csrc/u8g2_font.c **** 
 268:..\..\u8g2\csrc/u8g2_font.c ****     3 bit --> cnt = 3
 269:..\..\u8g2\csrc/u8g2_font.c ****       -2,-1,0. 1
 270:..\..\u8g2\csrc/u8g2_font.c ****       -4,-3,-2,-1,0,1,2,3
 271:..\..\u8g2\csrc/u8g2_font.c **** 
 272:..\..\u8g2\csrc/u8g2_font.c ****       if ( x < 0 )
 273:..\..\u8g2\csrc/u8g2_font.c **** 	r = bits(x-1)+1;
 274:..\..\u8g2\csrc/u8g2_font.c ****     else
 275:..\..\u8g2\csrc/u8g2_font.c **** 	r = bits(x)+1;
 276:..\..\u8g2\csrc/u8g2_font.c **** 
 277:..\..\u8g2\csrc/u8g2_font.c **** */
 278:..\..\u8g2\csrc/u8g2_font.c **** /* optimized */
 279:..\..\u8g2\csrc/u8g2_font.c **** int8_t u8g2_font_decode_get_signed_bits(u8g2_font_decode_t *f, uint8_t cnt)
 280:..\..\u8g2\csrc/u8g2_font.c **** {
 281:..\..\u8g2\csrc/u8g2_font.c ****   int8_t v, d;
 282:..\..\u8g2\csrc/u8g2_font.c ****   v = (int8_t)u8g2_font_decode_get_unsigned_bits(f, cnt);
 283:..\..\u8g2\csrc/u8g2_font.c ****   d = 1;
 284:..\..\u8g2\csrc/u8g2_font.c ****   cnt--;
 285:..\..\u8g2\csrc/u8g2_font.c ****   d <<= cnt;
 286:..\..\u8g2\csrc/u8g2_font.c ****   v -= d;
 287:..\..\u8g2\csrc/u8g2_font.c ****   return v;
 288:..\..\u8g2\csrc/u8g2_font.c ****   //return (int8_t)u8g2_font_decode_get_unsigned_bits(f, cnt) - ((1<<cnt)>>1);
 289:..\..\u8g2\csrc/u8g2_font.c **** }
 290:..\..\u8g2\csrc/u8g2_font.c **** 
 291:..\..\u8g2\csrc/u8g2_font.c **** 
 292:..\..\u8g2\csrc/u8g2_font.c **** #ifdef U8G2_WITH_FONT_ROTATION
 293:..\..\u8g2\csrc/u8g2_font.c **** static u8g2_uint_t u8g2_add_vector_y(u8g2_uint_t dy, int8_t x, int8_t y, uint8_t dir) U8G2_NOINLINE
 294:..\..\u8g2\csrc/u8g2_font.c **** static u8g2_uint_t u8g2_add_vector_y(u8g2_uint_t dy, int8_t x, int8_t y, uint8_t dir)
 295:..\..\u8g2\csrc/u8g2_font.c **** {
  83              		.loc 1 295 0
  84              		.cfi_startproc
  85              		@ args = 0, pretend = 0, frame = 0
  86              		@ frame_needed = 0, uses_anonymous_args = 0
  87              		@ link register save eliminated.
  88              	.LVL8:
 296:..\..\u8g2\csrc/u8g2_font.c ****   switch(dir)
  89              		.loc 1 296 0
  90 0000 012B     		cmp	r3, #1
  91 0002 07D0     		beq	.L5
  92 0004 002B     		cmp	r3, #0
  93 0006 02D0     		beq	.L6
  94 0008 022B     		cmp	r3, #2
  95 000a 06D0     		beq	.L7
  96 000c 08E0     		b	.L9
  97              	.L6:
 297:..\..\u8g2\csrc/u8g2_font.c ****   {
 298:..\..\u8g2\csrc/u8g2_font.c ****     case 0:
 299:..\..\u8g2\csrc/u8g2_font.c ****       dy += y;
  98              		.loc 1 299 0
  99 000e 8018     		adds	r0, r0, r2
 100              	.LVL9:
ARM GAS  C:\Users\arh\AppData\Local\Temp\cc6sEv7h.s 			page 8


 101 0010 C0B2     		uxtb	r0, r0
 102              	.LVL10:
 300:..\..\u8g2\csrc/u8g2_font.c ****       break;
 103              		.loc 1 300 0
 104 0012 07E0     		b	.L8
 105              	.L5:
 301:..\..\u8g2\csrc/u8g2_font.c ****     case 1:
 302:..\..\u8g2\csrc/u8g2_font.c ****       dy += x;
 106              		.loc 1 302 0
 107 0014 4018     		adds	r0, r0, r1
 108              	.LVL11:
 109 0016 C0B2     		uxtb	r0, r0
 110              	.LVL12:
 303:..\..\u8g2\csrc/u8g2_font.c ****       break;
 111              		.loc 1 303 0
 112 0018 04E0     		b	.L8
 113              	.L7:
 304:..\..\u8g2\csrc/u8g2_font.c ****     case 2:
 305:..\..\u8g2\csrc/u8g2_font.c ****       dy -= y;
 114              		.loc 1 305 0
 115 001a 801A     		subs	r0, r0, r2
 116              	.LVL13:
 117 001c C0B2     		uxtb	r0, r0
 118              	.LVL14:
 306:..\..\u8g2\csrc/u8g2_font.c ****       break;
 119              		.loc 1 306 0
 120 001e 01E0     		b	.L8
 121              	.L9:
 307:..\..\u8g2\csrc/u8g2_font.c ****     default:
 308:..\..\u8g2\csrc/u8g2_font.c ****       dy -= x;
 122              		.loc 1 308 0
 123 0020 401A     		subs	r0, r0, r1
 124              	.LVL15:
 125 0022 C0B2     		uxtb	r0, r0
 126              	.LVL16:
 127              	.L8:
 309:..\..\u8g2\csrc/u8g2_font.c ****       break;      
 310:..\..\u8g2\csrc/u8g2_font.c ****   }
 311:..\..\u8g2\csrc/u8g2_font.c ****   return dy;
 312:..\..\u8g2\csrc/u8g2_font.c **** }
 128              		.loc 1 312 0
 129              		@ sp needed
 130 0024 7047     		bx	lr
 131              		.cfi_endproc
 132              	.LFE11:
 133              		.size	u8g2_add_vector_y, .-u8g2_add_vector_y
 134 0026 C046     		.section	.text.u8g2_add_vector_x,"ax",%progbits
 135              		.align	2
 136              		.code	16
 137              		.thumb_func
 138              		.type	u8g2_add_vector_x, %function
 139              	u8g2_add_vector_x:
 140              	.LFB12:
 313:..\..\u8g2\csrc/u8g2_font.c **** 
 314:..\..\u8g2\csrc/u8g2_font.c **** static u8g2_uint_t u8g2_add_vector_x(u8g2_uint_t dx, int8_t x, int8_t y, uint8_t dir) U8G2_NOINLINE
 315:..\..\u8g2\csrc/u8g2_font.c **** static u8g2_uint_t u8g2_add_vector_x(u8g2_uint_t dx, int8_t x, int8_t y, uint8_t dir)
 316:..\..\u8g2\csrc/u8g2_font.c **** {
ARM GAS  C:\Users\arh\AppData\Local\Temp\cc6sEv7h.s 			page 9


 141              		.loc 1 316 0
 142              		.cfi_startproc
 143              		@ args = 0, pretend = 0, frame = 0
 144              		@ frame_needed = 0, uses_anonymous_args = 0
 145              		@ link register save eliminated.
 146              	.LVL17:
 317:..\..\u8g2\csrc/u8g2_font.c ****   switch(dir)
 147              		.loc 1 317 0
 148 0000 012B     		cmp	r3, #1
 149 0002 07D0     		beq	.L12
 150 0004 002B     		cmp	r3, #0
 151 0006 02D0     		beq	.L13
 152 0008 022B     		cmp	r3, #2
 153 000a 06D0     		beq	.L14
 154 000c 08E0     		b	.L16
 155              	.L13:
 318:..\..\u8g2\csrc/u8g2_font.c ****   {
 319:..\..\u8g2\csrc/u8g2_font.c ****     case 0:
 320:..\..\u8g2\csrc/u8g2_font.c ****       dx += x;
 156              		.loc 1 320 0
 157 000e 4018     		adds	r0, r0, r1
 158              	.LVL18:
 159 0010 C0B2     		uxtb	r0, r0
 160              	.LVL19:
 321:..\..\u8g2\csrc/u8g2_font.c ****       break;
 161              		.loc 1 321 0
 162 0012 07E0     		b	.L15
 163              	.L12:
 322:..\..\u8g2\csrc/u8g2_font.c ****     case 1:
 323:..\..\u8g2\csrc/u8g2_font.c ****       dx -= y;
 164              		.loc 1 323 0
 165 0014 801A     		subs	r0, r0, r2
 166              	.LVL20:
 167 0016 C0B2     		uxtb	r0, r0
 168              	.LVL21:
 324:..\..\u8g2\csrc/u8g2_font.c ****       break;
 169              		.loc 1 324 0
 170 0018 04E0     		b	.L15
 171              	.L14:
 325:..\..\u8g2\csrc/u8g2_font.c ****     case 2:
 326:..\..\u8g2\csrc/u8g2_font.c ****       dx -= x;
 172              		.loc 1 326 0
 173 001a 401A     		subs	r0, r0, r1
 174              	.LVL22:
 175 001c C0B2     		uxtb	r0, r0
 176              	.LVL23:
 327:..\..\u8g2\csrc/u8g2_font.c ****       break;
 177              		.loc 1 327 0
 178 001e 01E0     		b	.L15
 179              	.L16:
 328:..\..\u8g2\csrc/u8g2_font.c ****     default:
 329:..\..\u8g2\csrc/u8g2_font.c ****       dx += y;
 180              		.loc 1 329 0
 181 0020 8018     		adds	r0, r0, r2
 182              	.LVL24:
 183 0022 C0B2     		uxtb	r0, r0
 184              	.LVL25:
ARM GAS  C:\Users\arh\AppData\Local\Temp\cc6sEv7h.s 			page 10


 185              	.L15:
 330:..\..\u8g2\csrc/u8g2_font.c ****       break;      
 331:..\..\u8g2\csrc/u8g2_font.c ****   }
 332:..\..\u8g2\csrc/u8g2_font.c ****   return dx;
 333:..\..\u8g2\csrc/u8g2_font.c **** }
 186              		.loc 1 333 0
 187              		@ sp needed
 188 0024 7047     		bx	lr
 189              		.cfi_endproc
 190              	.LFE12:
 191              		.size	u8g2_add_vector_x, .-u8g2_add_vector_x
 192 0026 C046     		.section	.text.u8g2_font_calc_vref_font,"ax",%progbits
 193              		.align	2
 194              		.global	u8g2_font_calc_vref_font
 195              		.code	16
 196              		.thumb_func
 197              		.type	u8g2_font_calc_vref_font, %function
 198              	u8g2_font_calc_vref_font:
 199              	.LFB31:
 334:..\..\u8g2\csrc/u8g2_font.c **** #endif
 335:..\..\u8g2\csrc/u8g2_font.c **** 
 336:..\..\u8g2\csrc/u8g2_font.c **** 
 337:..\..\u8g2\csrc/u8g2_font.c **** 
 338:..\..\u8g2\csrc/u8g2_font.c **** /*
 339:..\..\u8g2\csrc/u8g2_font.c ****   Description:
 340:..\..\u8g2\csrc/u8g2_font.c ****     Draw a run-length area of the glyph. "len" can have any size and the line
 341:..\..\u8g2\csrc/u8g2_font.c ****     length has to be wrapped at the glyph border.
 342:..\..\u8g2\csrc/u8g2_font.c ****   Args:
 343:..\..\u8g2\csrc/u8g2_font.c ****     len: 					Length of the line
 344:..\..\u8g2\csrc/u8g2_font.c ****     is_foreground			foreground/background?
 345:..\..\u8g2\csrc/u8g2_font.c ****     u8g2->font_decode.target_x		X position
 346:..\..\u8g2\csrc/u8g2_font.c ****     u8g2->font_decode.target_y		Y position
 347:..\..\u8g2\csrc/u8g2_font.c ****     u8g2->font_decode.is_transparent	Transparent mode
 348:..\..\u8g2\csrc/u8g2_font.c ****   Return:
 349:..\..\u8g2\csrc/u8g2_font.c ****     -
 350:..\..\u8g2\csrc/u8g2_font.c ****   Calls:
 351:..\..\u8g2\csrc/u8g2_font.c ****     u8g2_Draw90Line()
 352:..\..\u8g2\csrc/u8g2_font.c ****   Called by:
 353:..\..\u8g2\csrc/u8g2_font.c ****     u8g2_font_decode_glyph()
 354:..\..\u8g2\csrc/u8g2_font.c **** */
 355:..\..\u8g2\csrc/u8g2_font.c **** /* optimized */
 356:..\..\u8g2\csrc/u8g2_font.c **** void u8g2_font_decode_len(u8g2_t *u8g2, uint8_t len, uint8_t is_foreground)
 357:..\..\u8g2\csrc/u8g2_font.c **** {
 358:..\..\u8g2\csrc/u8g2_font.c ****   uint8_t cnt;	/* total number of remaining pixels, which have to be drawn */
 359:..\..\u8g2\csrc/u8g2_font.c ****   uint8_t rem; 	/* remaining pixel to the right edge of the glyph */
 360:..\..\u8g2\csrc/u8g2_font.c ****   uint8_t current;	/* number of pixels, which need to be drawn for the draw procedure */
 361:..\..\u8g2\csrc/u8g2_font.c ****     /* current is either equal to cnt or equal to rem */
 362:..\..\u8g2\csrc/u8g2_font.c ****   
 363:..\..\u8g2\csrc/u8g2_font.c ****   /* local coordinates of the glyph */
 364:..\..\u8g2\csrc/u8g2_font.c ****   uint8_t lx,ly;
 365:..\..\u8g2\csrc/u8g2_font.c ****   
 366:..\..\u8g2\csrc/u8g2_font.c ****   /* target position on the screen */
 367:..\..\u8g2\csrc/u8g2_font.c ****   u8g2_uint_t x, y;
 368:..\..\u8g2\csrc/u8g2_font.c ****   
 369:..\..\u8g2\csrc/u8g2_font.c ****   u8g2_font_decode_t *decode = &(u8g2->font_decode);
 370:..\..\u8g2\csrc/u8g2_font.c ****   
 371:..\..\u8g2\csrc/u8g2_font.c ****   cnt = len;
ARM GAS  C:\Users\arh\AppData\Local\Temp\cc6sEv7h.s 			page 11


 372:..\..\u8g2\csrc/u8g2_font.c ****   
 373:..\..\u8g2\csrc/u8g2_font.c ****   /* get the local position */
 374:..\..\u8g2\csrc/u8g2_font.c ****   lx = decode->x;
 375:..\..\u8g2\csrc/u8g2_font.c ****   ly = decode->y;
 376:..\..\u8g2\csrc/u8g2_font.c ****   
 377:..\..\u8g2\csrc/u8g2_font.c ****   for(;;)
 378:..\..\u8g2\csrc/u8g2_font.c ****   {
 379:..\..\u8g2\csrc/u8g2_font.c ****     /* calculate the number of pixel to the right edge of the glyph */
 380:..\..\u8g2\csrc/u8g2_font.c ****     rem = decode->glyph_width;
 381:..\..\u8g2\csrc/u8g2_font.c ****     rem -= lx;
 382:..\..\u8g2\csrc/u8g2_font.c ****     
 383:..\..\u8g2\csrc/u8g2_font.c ****     /* calculate how many pixel to draw. This is either to the right edge */
 384:..\..\u8g2\csrc/u8g2_font.c ****     /* or lesser, if not enough pixel are left */
 385:..\..\u8g2\csrc/u8g2_font.c ****     current = rem;
 386:..\..\u8g2\csrc/u8g2_font.c ****     if ( cnt < rem )
 387:..\..\u8g2\csrc/u8g2_font.c ****       current = cnt;
 388:..\..\u8g2\csrc/u8g2_font.c ****     
 389:..\..\u8g2\csrc/u8g2_font.c ****     
 390:..\..\u8g2\csrc/u8g2_font.c ****     /* now draw the line, but apply the rotation around the glyph target position */
 391:..\..\u8g2\csrc/u8g2_font.c ****     //u8g2_font_decode_draw_pixel(u8g2, lx,ly,current, is_foreground);
 392:..\..\u8g2\csrc/u8g2_font.c **** 
 393:..\..\u8g2\csrc/u8g2_font.c ****     /* get target position */
 394:..\..\u8g2\csrc/u8g2_font.c ****     x = decode->target_x;
 395:..\..\u8g2\csrc/u8g2_font.c ****     y = decode->target_y;
 396:..\..\u8g2\csrc/u8g2_font.c **** 
 397:..\..\u8g2\csrc/u8g2_font.c ****     /* apply rotation */
 398:..\..\u8g2\csrc/u8g2_font.c **** #ifdef U8G2_WITH_FONT_ROTATION
 399:..\..\u8g2\csrc/u8g2_font.c ****     x = u8g2_add_vector_x(x, lx, ly, decode->dir);
 400:..\..\u8g2\csrc/u8g2_font.c ****     y = u8g2_add_vector_y(y, lx, ly, decode->dir);
 401:..\..\u8g2\csrc/u8g2_font.c **** #else
 402:..\..\u8g2\csrc/u8g2_font.c ****     x += lx;
 403:..\..\u8g2\csrc/u8g2_font.c ****     y += ly;
 404:..\..\u8g2\csrc/u8g2_font.c **** #endif
 405:..\..\u8g2\csrc/u8g2_font.c ****     
 406:..\..\u8g2\csrc/u8g2_font.c ****     /* draw foreground and background (if required) */
 407:..\..\u8g2\csrc/u8g2_font.c ****     if ( is_foreground )
 408:..\..\u8g2\csrc/u8g2_font.c ****     {
 409:..\..\u8g2\csrc/u8g2_font.c ****       u8g2->draw_color = decode->fg_color;			/* draw_color will be restored later */
 410:..\..\u8g2\csrc/u8g2_font.c ****       u8g2_DrawHVLine(u8g2, 
 411:..\..\u8g2\csrc/u8g2_font.c **** 	x, 
 412:..\..\u8g2\csrc/u8g2_font.c **** 	y, 
 413:..\..\u8g2\csrc/u8g2_font.c **** 	current, 
 414:..\..\u8g2\csrc/u8g2_font.c **** #ifdef U8G2_WITH_FONT_ROTATION
 415:..\..\u8g2\csrc/u8g2_font.c **** 	/* dir */ decode->dir
 416:..\..\u8g2\csrc/u8g2_font.c **** #else
 417:..\..\u8g2\csrc/u8g2_font.c **** 	0
 418:..\..\u8g2\csrc/u8g2_font.c **** #endif
 419:..\..\u8g2\csrc/u8g2_font.c ****       );
 420:..\..\u8g2\csrc/u8g2_font.c ****     }
 421:..\..\u8g2\csrc/u8g2_font.c ****     else if ( decode->is_transparent == 0 )    
 422:..\..\u8g2\csrc/u8g2_font.c ****     {
 423:..\..\u8g2\csrc/u8g2_font.c ****       u8g2->draw_color = decode->bg_color;			/* draw_color will be restored later */
 424:..\..\u8g2\csrc/u8g2_font.c ****       u8g2_DrawHVLine(u8g2, 
 425:..\..\u8g2\csrc/u8g2_font.c **** 	x, 
 426:..\..\u8g2\csrc/u8g2_font.c **** 	y, 
 427:..\..\u8g2\csrc/u8g2_font.c **** 	current, 
 428:..\..\u8g2\csrc/u8g2_font.c **** #ifdef U8G2_WITH_FONT_ROTATION
ARM GAS  C:\Users\arh\AppData\Local\Temp\cc6sEv7h.s 			page 12


 429:..\..\u8g2\csrc/u8g2_font.c **** 	/* dir */ decode->dir
 430:..\..\u8g2\csrc/u8g2_font.c **** #else
 431:..\..\u8g2\csrc/u8g2_font.c **** 	0
 432:..\..\u8g2\csrc/u8g2_font.c **** #endif
 433:..\..\u8g2\csrc/u8g2_font.c ****       );   
 434:..\..\u8g2\csrc/u8g2_font.c ****     }
 435:..\..\u8g2\csrc/u8g2_font.c ****     
 436:..\..\u8g2\csrc/u8g2_font.c ****     /* check, whether the end of the run length code has been reached */
 437:..\..\u8g2\csrc/u8g2_font.c ****     if ( cnt < rem )
 438:..\..\u8g2\csrc/u8g2_font.c ****       break;
 439:..\..\u8g2\csrc/u8g2_font.c ****     cnt -= rem;
 440:..\..\u8g2\csrc/u8g2_font.c ****     lx = 0;
 441:..\..\u8g2\csrc/u8g2_font.c ****     ly++;
 442:..\..\u8g2\csrc/u8g2_font.c ****   }
 443:..\..\u8g2\csrc/u8g2_font.c ****   lx += cnt;
 444:..\..\u8g2\csrc/u8g2_font.c ****   
 445:..\..\u8g2\csrc/u8g2_font.c ****   decode->x = lx;
 446:..\..\u8g2\csrc/u8g2_font.c ****   decode->y = ly;
 447:..\..\u8g2\csrc/u8g2_font.c ****   
 448:..\..\u8g2\csrc/u8g2_font.c **** }
 449:..\..\u8g2\csrc/u8g2_font.c **** 
 450:..\..\u8g2\csrc/u8g2_font.c **** static void u8g2_font_setup_decode(u8g2_t *u8g2, const uint8_t *glyph_data)
 451:..\..\u8g2\csrc/u8g2_font.c **** {
 452:..\..\u8g2\csrc/u8g2_font.c ****   u8g2_font_decode_t *decode = &(u8g2->font_decode);
 453:..\..\u8g2\csrc/u8g2_font.c ****   decode->decode_ptr = glyph_data;
 454:..\..\u8g2\csrc/u8g2_font.c ****   decode->decode_bit_pos = 0;
 455:..\..\u8g2\csrc/u8g2_font.c ****   
 456:..\..\u8g2\csrc/u8g2_font.c ****   /* 8 Nov 2015, this is already done in the glyph data search procedure */
 457:..\..\u8g2\csrc/u8g2_font.c ****   /*
 458:..\..\u8g2\csrc/u8g2_font.c ****   decode->decode_ptr += 1;
 459:..\..\u8g2\csrc/u8g2_font.c ****   decode->decode_ptr += 1;
 460:..\..\u8g2\csrc/u8g2_font.c ****   */
 461:..\..\u8g2\csrc/u8g2_font.c ****   
 462:..\..\u8g2\csrc/u8g2_font.c ****   decode->glyph_width = u8g2_font_decode_get_unsigned_bits(decode, u8g2->font_info.bits_per_char_wi
 463:..\..\u8g2\csrc/u8g2_font.c ****   decode->glyph_height = u8g2_font_decode_get_unsigned_bits(decode,u8g2->font_info.bits_per_char_he
 464:..\..\u8g2\csrc/u8g2_font.c ****   
 465:..\..\u8g2\csrc/u8g2_font.c ****   decode->fg_color = u8g2->draw_color;
 466:..\..\u8g2\csrc/u8g2_font.c ****   decode->bg_color = (decode->fg_color == 0 ? 1 : 0);
 467:..\..\u8g2\csrc/u8g2_font.c **** }
 468:..\..\u8g2\csrc/u8g2_font.c **** 
 469:..\..\u8g2\csrc/u8g2_font.c **** 
 470:..\..\u8g2\csrc/u8g2_font.c **** /*
 471:..\..\u8g2\csrc/u8g2_font.c ****   Description:
 472:..\..\u8g2\csrc/u8g2_font.c ****     Decode and draw a glyph.
 473:..\..\u8g2\csrc/u8g2_font.c ****   Args:
 474:..\..\u8g2\csrc/u8g2_font.c ****     glyph_data: 					Pointer to the compressed glyph data of the font
 475:..\..\u8g2\csrc/u8g2_font.c ****     u8g2->font_decode.target_x		X position
 476:..\..\u8g2\csrc/u8g2_font.c ****     u8g2->font_decode.target_y		Y position
 477:..\..\u8g2\csrc/u8g2_font.c ****     u8g2->font_decode.is_transparent	Transparent mode
 478:..\..\u8g2\csrc/u8g2_font.c ****   Return:
 479:..\..\u8g2\csrc/u8g2_font.c ****     Width (delta x advance) of the glyph.
 480:..\..\u8g2\csrc/u8g2_font.c ****   Calls:
 481:..\..\u8g2\csrc/u8g2_font.c ****     u8g2_font_decode_len()
 482:..\..\u8g2\csrc/u8g2_font.c **** */
 483:..\..\u8g2\csrc/u8g2_font.c **** /* optimized */
 484:..\..\u8g2\csrc/u8g2_font.c **** int8_t u8g2_font_decode_glyph(u8g2_t *u8g2, const uint8_t *glyph_data)
 485:..\..\u8g2\csrc/u8g2_font.c **** {
ARM GAS  C:\Users\arh\AppData\Local\Temp\cc6sEv7h.s 			page 13


 486:..\..\u8g2\csrc/u8g2_font.c ****   uint8_t a, b;
 487:..\..\u8g2\csrc/u8g2_font.c ****   int8_t x, y;
 488:..\..\u8g2\csrc/u8g2_font.c ****   int8_t d;
 489:..\..\u8g2\csrc/u8g2_font.c ****   int8_t h;
 490:..\..\u8g2\csrc/u8g2_font.c ****   u8g2_font_decode_t *decode = &(u8g2->font_decode);
 491:..\..\u8g2\csrc/u8g2_font.c ****     
 492:..\..\u8g2\csrc/u8g2_font.c ****   u8g2_font_setup_decode(u8g2, glyph_data);
 493:..\..\u8g2\csrc/u8g2_font.c ****   h = u8g2->font_decode.glyph_height;
 494:..\..\u8g2\csrc/u8g2_font.c ****   
 495:..\..\u8g2\csrc/u8g2_font.c ****   x = u8g2_font_decode_get_signed_bits(decode, u8g2->font_info.bits_per_char_x);
 496:..\..\u8g2\csrc/u8g2_font.c ****   y = u8g2_font_decode_get_signed_bits(decode, u8g2->font_info.bits_per_char_y);
 497:..\..\u8g2\csrc/u8g2_font.c ****   d = u8g2_font_decode_get_signed_bits(decode, u8g2->font_info.bits_per_delta_x);
 498:..\..\u8g2\csrc/u8g2_font.c ****   
 499:..\..\u8g2\csrc/u8g2_font.c ****   if ( decode->glyph_width > 0 )
 500:..\..\u8g2\csrc/u8g2_font.c ****   {
 501:..\..\u8g2\csrc/u8g2_font.c **** #ifdef U8G2_WITH_FONT_ROTATION
 502:..\..\u8g2\csrc/u8g2_font.c ****     decode->target_x = u8g2_add_vector_x(decode->target_x, x, -(h+y), decode->dir);
 503:..\..\u8g2\csrc/u8g2_font.c ****     decode->target_y = u8g2_add_vector_y(decode->target_y, x, -(h+y), decode->dir);
 504:..\..\u8g2\csrc/u8g2_font.c **** #else
 505:..\..\u8g2\csrc/u8g2_font.c ****     decode->target_x += x;
 506:..\..\u8g2\csrc/u8g2_font.c ****     decode->target_y -= h+y;
 507:..\..\u8g2\csrc/u8g2_font.c **** #endif
 508:..\..\u8g2\csrc/u8g2_font.c ****     //u8g2_add_vector(&(decode->target_x), &(decode->target_y), x, -(h+y), decode->dir);
 509:..\..\u8g2\csrc/u8g2_font.c **** 
 510:..\..\u8g2\csrc/u8g2_font.c **** #ifdef U8G2_WITH_INTERSECTION
 511:..\..\u8g2\csrc/u8g2_font.c ****     {
 512:..\..\u8g2\csrc/u8g2_font.c ****       u8g2_uint_t x0, x1, y0, y1;
 513:..\..\u8g2\csrc/u8g2_font.c ****       x0 = decode->target_x;
 514:..\..\u8g2\csrc/u8g2_font.c ****       y0 = decode->target_y;
 515:..\..\u8g2\csrc/u8g2_font.c ****       x1 = x0;
 516:..\..\u8g2\csrc/u8g2_font.c ****       y1 = y0;
 517:..\..\u8g2\csrc/u8g2_font.c ****       
 518:..\..\u8g2\csrc/u8g2_font.c **** #ifdef U8G2_WITH_FONT_ROTATION
 519:..\..\u8g2\csrc/u8g2_font.c ****       switch(decode->dir)
 520:..\..\u8g2\csrc/u8g2_font.c ****       {
 521:..\..\u8g2\csrc/u8g2_font.c **** 	case 0:
 522:..\..\u8g2\csrc/u8g2_font.c **** 	    x1 += decode->glyph_width;
 523:..\..\u8g2\csrc/u8g2_font.c **** 	    y1 += h;
 524:..\..\u8g2\csrc/u8g2_font.c **** 	    break;
 525:..\..\u8g2\csrc/u8g2_font.c **** 	case 1:
 526:..\..\u8g2\csrc/u8g2_font.c **** 	    x0 -= h;
 527:..\..\u8g2\csrc/u8g2_font.c **** 	    x0++;	/* shift down, because of assymetric boundaries for the interseciton test */
 528:..\..\u8g2\csrc/u8g2_font.c **** 	    x1++;
 529:..\..\u8g2\csrc/u8g2_font.c **** 	    y1 += decode->glyph_width;
 530:..\..\u8g2\csrc/u8g2_font.c **** 	    break;
 531:..\..\u8g2\csrc/u8g2_font.c **** 	case 2:
 532:..\..\u8g2\csrc/u8g2_font.c **** 	    x0 -= decode->glyph_width;
 533:..\..\u8g2\csrc/u8g2_font.c **** 	    x0++;	/* shift down, because of assymetric boundaries for the interseciton test */
 534:..\..\u8g2\csrc/u8g2_font.c **** 	    x1++;
 535:..\..\u8g2\csrc/u8g2_font.c **** 	    y0 -= h;
 536:..\..\u8g2\csrc/u8g2_font.c **** 	    y0++;	/* shift down, because of assymetric boundaries for the interseciton test */
 537:..\..\u8g2\csrc/u8g2_font.c **** 	    y1++;
 538:..\..\u8g2\csrc/u8g2_font.c **** 	    break;	  
 539:..\..\u8g2\csrc/u8g2_font.c **** 	case 3:
 540:..\..\u8g2\csrc/u8g2_font.c **** 	    x1 += h;
 541:..\..\u8g2\csrc/u8g2_font.c **** 	    y0 -= decode->glyph_width;
 542:..\..\u8g2\csrc/u8g2_font.c **** 	    y0++;	/* shift down, because of assymetric boundaries for the interseciton test */
ARM GAS  C:\Users\arh\AppData\Local\Temp\cc6sEv7h.s 			page 14


 543:..\..\u8g2\csrc/u8g2_font.c **** 	    y1++;
 544:..\..\u8g2\csrc/u8g2_font.c **** 	    break;	  
 545:..\..\u8g2\csrc/u8g2_font.c ****       }
 546:..\..\u8g2\csrc/u8g2_font.c **** #else /* U8G2_WITH_FONT_ROTATION */
 547:..\..\u8g2\csrc/u8g2_font.c ****       x1 += decode->glyph_width;
 548:..\..\u8g2\csrc/u8g2_font.c ****       y1 += h;      
 549:..\..\u8g2\csrc/u8g2_font.c **** #endif
 550:..\..\u8g2\csrc/u8g2_font.c ****       
 551:..\..\u8g2\csrc/u8g2_font.c ****       if ( u8g2_IsIntersection(u8g2, x0, y0, x1, y1) == 0 ) 
 552:..\..\u8g2\csrc/u8g2_font.c **** 	return d;
 553:..\..\u8g2\csrc/u8g2_font.c ****     }
 554:..\..\u8g2\csrc/u8g2_font.c **** #endif /* U8G2_WITH_INTERSECTION */
 555:..\..\u8g2\csrc/u8g2_font.c ****    
 556:..\..\u8g2\csrc/u8g2_font.c ****     /* reset local x/y position */
 557:..\..\u8g2\csrc/u8g2_font.c ****     decode->x = 0;
 558:..\..\u8g2\csrc/u8g2_font.c ****     decode->y = 0;
 559:..\..\u8g2\csrc/u8g2_font.c ****     
 560:..\..\u8g2\csrc/u8g2_font.c ****     /* decode glyph */
 561:..\..\u8g2\csrc/u8g2_font.c ****     for(;;)
 562:..\..\u8g2\csrc/u8g2_font.c ****     {
 563:..\..\u8g2\csrc/u8g2_font.c ****       a = u8g2_font_decode_get_unsigned_bits(decode, u8g2->font_info.bits_per_0);
 564:..\..\u8g2\csrc/u8g2_font.c ****       b = u8g2_font_decode_get_unsigned_bits(decode, u8g2->font_info.bits_per_1);
 565:..\..\u8g2\csrc/u8g2_font.c ****       do
 566:..\..\u8g2\csrc/u8g2_font.c ****       {
 567:..\..\u8g2\csrc/u8g2_font.c **** 	u8g2_font_decode_len(u8g2, a, 0);
 568:..\..\u8g2\csrc/u8g2_font.c **** 	u8g2_font_decode_len(u8g2, b, 1);
 569:..\..\u8g2\csrc/u8g2_font.c ****       } while( u8g2_font_decode_get_unsigned_bits(decode, 1) != 0 );
 570:..\..\u8g2\csrc/u8g2_font.c **** 
 571:..\..\u8g2\csrc/u8g2_font.c ****       if ( decode->y >= h )
 572:..\..\u8g2\csrc/u8g2_font.c **** 	break;
 573:..\..\u8g2\csrc/u8g2_font.c ****     }
 574:..\..\u8g2\csrc/u8g2_font.c ****     
 575:..\..\u8g2\csrc/u8g2_font.c ****     /* restore the u8g2 draw color, because this is modified by the decode algo */
 576:..\..\u8g2\csrc/u8g2_font.c ****     u8g2->draw_color = decode->fg_color;
 577:..\..\u8g2\csrc/u8g2_font.c ****   }
 578:..\..\u8g2\csrc/u8g2_font.c ****   return d;
 579:..\..\u8g2\csrc/u8g2_font.c **** }
 580:..\..\u8g2\csrc/u8g2_font.c **** 
 581:..\..\u8g2\csrc/u8g2_font.c **** /*
 582:..\..\u8g2\csrc/u8g2_font.c ****   Description:
 583:..\..\u8g2\csrc/u8g2_font.c ****     Find the starting point of the glyph data.
 584:..\..\u8g2\csrc/u8g2_font.c ****   Args:
 585:..\..\u8g2\csrc/u8g2_font.c ****     encoding: Encoding (ASCII or Unicode) of the glyph
 586:..\..\u8g2\csrc/u8g2_font.c ****   Return:
 587:..\..\u8g2\csrc/u8g2_font.c ****     Address of the glyph data or NULL, if the encoding is not avialable in the font.
 588:..\..\u8g2\csrc/u8g2_font.c **** */
 589:..\..\u8g2\csrc/u8g2_font.c **** const uint8_t *u8g2_font_get_glyph_data(u8g2_t *u8g2, uint16_t encoding)
 590:..\..\u8g2\csrc/u8g2_font.c **** {
 591:..\..\u8g2\csrc/u8g2_font.c ****   const uint8_t *font = u8g2->font;
 592:..\..\u8g2\csrc/u8g2_font.c ****   font += U8G2_FONT_DATA_STRUCT_SIZE;
 593:..\..\u8g2\csrc/u8g2_font.c **** 
 594:..\..\u8g2\csrc/u8g2_font.c ****   
 595:..\..\u8g2\csrc/u8g2_font.c ****   if ( encoding <= 255 )
 596:..\..\u8g2\csrc/u8g2_font.c ****   {
 597:..\..\u8g2\csrc/u8g2_font.c ****     if ( encoding >= 'a' )
 598:..\..\u8g2\csrc/u8g2_font.c ****     {
 599:..\..\u8g2\csrc/u8g2_font.c ****       font += u8g2->font_info.start_pos_lower_a;
ARM GAS  C:\Users\arh\AppData\Local\Temp\cc6sEv7h.s 			page 15


 600:..\..\u8g2\csrc/u8g2_font.c ****     }
 601:..\..\u8g2\csrc/u8g2_font.c ****     else if ( encoding >= 'A' )
 602:..\..\u8g2\csrc/u8g2_font.c ****     {
 603:..\..\u8g2\csrc/u8g2_font.c ****       font += u8g2->font_info.start_pos_upper_A;
 604:..\..\u8g2\csrc/u8g2_font.c ****     }
 605:..\..\u8g2\csrc/u8g2_font.c ****     
 606:..\..\u8g2\csrc/u8g2_font.c ****     for(;;)
 607:..\..\u8g2\csrc/u8g2_font.c ****     {
 608:..\..\u8g2\csrc/u8g2_font.c ****       if ( u8x8_pgm_read( font + 1 ) == 0 )
 609:..\..\u8g2\csrc/u8g2_font.c **** 	break;
 610:..\..\u8g2\csrc/u8g2_font.c ****       if ( u8x8_pgm_read( font ) == encoding )
 611:..\..\u8g2\csrc/u8g2_font.c ****       {
 612:..\..\u8g2\csrc/u8g2_font.c **** 	return font+2;	/* skip encoding and glyph size */
 613:..\..\u8g2\csrc/u8g2_font.c ****       }
 614:..\..\u8g2\csrc/u8g2_font.c ****       font += u8x8_pgm_read( font + 1 );
 615:..\..\u8g2\csrc/u8g2_font.c ****     }
 616:..\..\u8g2\csrc/u8g2_font.c ****   }
 617:..\..\u8g2\csrc/u8g2_font.c **** #ifdef U8G2_WITH_UNICODE
 618:..\..\u8g2\csrc/u8g2_font.c ****   else
 619:..\..\u8g2\csrc/u8g2_font.c ****   {
 620:..\..\u8g2\csrc/u8g2_font.c ****     uint16_t e;
 621:..\..\u8g2\csrc/u8g2_font.c ****     font += u8g2->font_info.start_pos_unicode;
 622:..\..\u8g2\csrc/u8g2_font.c ****     for(;;)
 623:..\..\u8g2\csrc/u8g2_font.c ****     {
 624:..\..\u8g2\csrc/u8g2_font.c ****       e = u8x8_pgm_read( font );
 625:..\..\u8g2\csrc/u8g2_font.c ****       e <<= 8;
 626:..\..\u8g2\csrc/u8g2_font.c ****       e |= u8x8_pgm_read( font + 1 );
 627:..\..\u8g2\csrc/u8g2_font.c ****   
 628:..\..\u8g2\csrc/u8g2_font.c ****       if ( e == 0 )
 629:..\..\u8g2\csrc/u8g2_font.c **** 	break;
 630:..\..\u8g2\csrc/u8g2_font.c ****   
 631:..\..\u8g2\csrc/u8g2_font.c ****       if ( e == encoding )
 632:..\..\u8g2\csrc/u8g2_font.c ****       {
 633:..\..\u8g2\csrc/u8g2_font.c **** 	return font+3;	/* skip encoding and glyph size */
 634:..\..\u8g2\csrc/u8g2_font.c ****       }
 635:..\..\u8g2\csrc/u8g2_font.c ****       font += u8x8_pgm_read( font + 2 );
 636:..\..\u8g2\csrc/u8g2_font.c ****     }  
 637:..\..\u8g2\csrc/u8g2_font.c ****   }
 638:..\..\u8g2\csrc/u8g2_font.c **** #endif
 639:..\..\u8g2\csrc/u8g2_font.c ****   
 640:..\..\u8g2\csrc/u8g2_font.c ****   return NULL;
 641:..\..\u8g2\csrc/u8g2_font.c **** }
 642:..\..\u8g2\csrc/u8g2_font.c **** 
 643:..\..\u8g2\csrc/u8g2_font.c **** static u8g2_uint_t u8g2_font_draw_glyph(u8g2_t *u8g2, u8g2_uint_t x, u8g2_uint_t y, uint16_t encodi
 644:..\..\u8g2\csrc/u8g2_font.c **** {
 645:..\..\u8g2\csrc/u8g2_font.c ****   u8g2_uint_t dx = 0;
 646:..\..\u8g2\csrc/u8g2_font.c ****   u8g2->font_decode.target_x = x;
 647:..\..\u8g2\csrc/u8g2_font.c ****   u8g2->font_decode.target_y = y;
 648:..\..\u8g2\csrc/u8g2_font.c ****   //u8g2->font_decode.is_transparent = is_transparent; this is already set
 649:..\..\u8g2\csrc/u8g2_font.c ****   //u8g2->font_decode.dir = dir;
 650:..\..\u8g2\csrc/u8g2_font.c ****   const uint8_t *glyph_data = u8g2_font_get_glyph_data(u8g2, encoding);
 651:..\..\u8g2\csrc/u8g2_font.c ****   if ( glyph_data != NULL )
 652:..\..\u8g2\csrc/u8g2_font.c ****   {
 653:..\..\u8g2\csrc/u8g2_font.c ****     dx = u8g2_font_decode_glyph(u8g2, glyph_data);
 654:..\..\u8g2\csrc/u8g2_font.c ****   }
 655:..\..\u8g2\csrc/u8g2_font.c ****   return dx;
 656:..\..\u8g2\csrc/u8g2_font.c **** }
ARM GAS  C:\Users\arh\AppData\Local\Temp\cc6sEv7h.s 			page 16


 657:..\..\u8g2\csrc/u8g2_font.c **** 
 658:..\..\u8g2\csrc/u8g2_font.c **** 
 659:..\..\u8g2\csrc/u8g2_font.c **** 
 660:..\..\u8g2\csrc/u8g2_font.c **** uint8_t u8g2_IsGlyph(u8g2_t *u8g2, uint16_t requested_encoding)
 661:..\..\u8g2\csrc/u8g2_font.c **** {
 662:..\..\u8g2\csrc/u8g2_font.c ****   /* updated to new code */
 663:..\..\u8g2\csrc/u8g2_font.c ****   if ( u8g2_font_get_glyph_data(u8g2, requested_encoding) != NULL )
 664:..\..\u8g2\csrc/u8g2_font.c ****     return 1;
 665:..\..\u8g2\csrc/u8g2_font.c ****   return 0;
 666:..\..\u8g2\csrc/u8g2_font.c **** }
 667:..\..\u8g2\csrc/u8g2_font.c **** 
 668:..\..\u8g2\csrc/u8g2_font.c **** /* side effect: updates u8g2->font_decode and u8g2->glyph_x_offset */
 669:..\..\u8g2\csrc/u8g2_font.c **** int8_t u8g2_GetGlyphWidth(u8g2_t *u8g2, uint16_t requested_encoding)
 670:..\..\u8g2\csrc/u8g2_font.c **** {
 671:..\..\u8g2\csrc/u8g2_font.c ****   const uint8_t *glyph_data = u8g2_font_get_glyph_data(u8g2, requested_encoding);
 672:..\..\u8g2\csrc/u8g2_font.c ****   if ( glyph_data == NULL )
 673:..\..\u8g2\csrc/u8g2_font.c ****     return 0; 
 674:..\..\u8g2\csrc/u8g2_font.c ****   
 675:..\..\u8g2\csrc/u8g2_font.c ****   u8g2_font_setup_decode(u8g2, glyph_data);
 676:..\..\u8g2\csrc/u8g2_font.c ****   u8g2->glyph_x_offset = u8g2_font_decode_get_signed_bits(&(u8g2->font_decode), u8g2->font_info.bit
 677:..\..\u8g2\csrc/u8g2_font.c ****   u8g2_font_decode_get_signed_bits(&(u8g2->font_decode), u8g2->font_info.bits_per_char_y);
 678:..\..\u8g2\csrc/u8g2_font.c ****   
 679:..\..\u8g2\csrc/u8g2_font.c ****   /* glyph width is here: u8g2->font_decode.glyph_width */
 680:..\..\u8g2\csrc/u8g2_font.c **** 
 681:..\..\u8g2\csrc/u8g2_font.c ****   return u8g2_font_decode_get_signed_bits(&(u8g2->font_decode), u8g2->font_info.bits_per_delta_x);
 682:..\..\u8g2\csrc/u8g2_font.c **** }
 683:..\..\u8g2\csrc/u8g2_font.c **** 
 684:..\..\u8g2\csrc/u8g2_font.c **** 
 685:..\..\u8g2\csrc/u8g2_font.c **** /*
 686:..\..\u8g2\csrc/u8g2_font.c ****   set one of:
 687:..\..\u8g2\csrc/u8g2_font.c ****     U8G2_FONT_MODE_TRANSPARENT
 688:..\..\u8g2\csrc/u8g2_font.c ****     U8G2_FONT_MODE_SOLID
 689:..\..\u8g2\csrc/u8g2_font.c ****     U8G2_FONT_MODE_NONE
 690:..\..\u8g2\csrc/u8g2_font.c ****   This has been changed for the new font procedures  
 691:..\..\u8g2\csrc/u8g2_font.c **** */
 692:..\..\u8g2\csrc/u8g2_font.c **** void u8g2_SetFontMode(u8g2_t *u8g2, uint8_t is_transparent)
 693:..\..\u8g2\csrc/u8g2_font.c **** {
 694:..\..\u8g2\csrc/u8g2_font.c ****   u8g2->font_decode.is_transparent = is_transparent;		// new font procedures
 695:..\..\u8g2\csrc/u8g2_font.c **** }
 696:..\..\u8g2\csrc/u8g2_font.c **** 
 697:..\..\u8g2\csrc/u8g2_font.c **** u8g2_uint_t u8g2_DrawGlyph(u8g2_t *u8g2, u8g2_uint_t x, u8g2_uint_t y, uint16_t encoding)
 698:..\..\u8g2\csrc/u8g2_font.c **** {
 699:..\..\u8g2\csrc/u8g2_font.c **** #ifdef U8G2_WITH_FONT_ROTATION
 700:..\..\u8g2\csrc/u8g2_font.c ****   switch(u8g2->font_decode.dir)
 701:..\..\u8g2\csrc/u8g2_font.c ****   {
 702:..\..\u8g2\csrc/u8g2_font.c ****     case 0:
 703:..\..\u8g2\csrc/u8g2_font.c ****       y += u8g2->font_calc_vref(u8g2);
 704:..\..\u8g2\csrc/u8g2_font.c ****       break;
 705:..\..\u8g2\csrc/u8g2_font.c ****     case 1:
 706:..\..\u8g2\csrc/u8g2_font.c ****       x -= u8g2->font_calc_vref(u8g2);
 707:..\..\u8g2\csrc/u8g2_font.c ****       break;
 708:..\..\u8g2\csrc/u8g2_font.c ****     case 2:
 709:..\..\u8g2\csrc/u8g2_font.c ****       y -= u8g2->font_calc_vref(u8g2);
 710:..\..\u8g2\csrc/u8g2_font.c ****       break;
 711:..\..\u8g2\csrc/u8g2_font.c ****     case 3:
 712:..\..\u8g2\csrc/u8g2_font.c ****       x += u8g2->font_calc_vref(u8g2);
 713:..\..\u8g2\csrc/u8g2_font.c ****       break;
ARM GAS  C:\Users\arh\AppData\Local\Temp\cc6sEv7h.s 			page 17


 714:..\..\u8g2\csrc/u8g2_font.c ****   }
 715:..\..\u8g2\csrc/u8g2_font.c **** #else
 716:..\..\u8g2\csrc/u8g2_font.c ****   y += u8g2->font_calc_vref(u8g2);
 717:..\..\u8g2\csrc/u8g2_font.c **** #endif
 718:..\..\u8g2\csrc/u8g2_font.c ****   return u8g2_font_draw_glyph(u8g2, x, y, encoding);
 719:..\..\u8g2\csrc/u8g2_font.c **** }
 720:..\..\u8g2\csrc/u8g2_font.c **** 
 721:..\..\u8g2\csrc/u8g2_font.c **** static u8g2_uint_t u8g2_draw_string(u8g2_t *u8g2, u8g2_uint_t x, u8g2_uint_t y, const char *str) U8
 722:..\..\u8g2\csrc/u8g2_font.c **** static u8g2_uint_t u8g2_draw_string(u8g2_t *u8g2, u8g2_uint_t x, u8g2_uint_t y, const char *str)
 723:..\..\u8g2\csrc/u8g2_font.c **** {
 724:..\..\u8g2\csrc/u8g2_font.c ****   uint16_t e;
 725:..\..\u8g2\csrc/u8g2_font.c ****   u8g2_uint_t delta, sum;
 726:..\..\u8g2\csrc/u8g2_font.c ****   u8x8_utf8_init(u8g2_GetU8x8(u8g2));
 727:..\..\u8g2\csrc/u8g2_font.c ****   sum = 0;
 728:..\..\u8g2\csrc/u8g2_font.c ****   for(;;)
 729:..\..\u8g2\csrc/u8g2_font.c ****   {
 730:..\..\u8g2\csrc/u8g2_font.c ****     e = u8g2->u8x8.next_cb(u8g2_GetU8x8(u8g2), (uint8_t)*str);
 731:..\..\u8g2\csrc/u8g2_font.c ****     if ( e == 0x0ffff )
 732:..\..\u8g2\csrc/u8g2_font.c ****       break;
 733:..\..\u8g2\csrc/u8g2_font.c ****     str++;
 734:..\..\u8g2\csrc/u8g2_font.c ****     if ( e != 0x0fffe )
 735:..\..\u8g2\csrc/u8g2_font.c ****     {
 736:..\..\u8g2\csrc/u8g2_font.c ****       delta = u8g2_DrawGlyph(u8g2, x, y, e);
 737:..\..\u8g2\csrc/u8g2_font.c ****     
 738:..\..\u8g2\csrc/u8g2_font.c **** #ifdef U8G2_WITH_FONT_ROTATION
 739:..\..\u8g2\csrc/u8g2_font.c ****       switch(u8g2->font_decode.dir)
 740:..\..\u8g2\csrc/u8g2_font.c ****       {
 741:..\..\u8g2\csrc/u8g2_font.c **** 	case 0:
 742:..\..\u8g2\csrc/u8g2_font.c **** 	  x += delta;
 743:..\..\u8g2\csrc/u8g2_font.c **** 	  break;
 744:..\..\u8g2\csrc/u8g2_font.c **** 	case 1:
 745:..\..\u8g2\csrc/u8g2_font.c **** 	  y += delta;
 746:..\..\u8g2\csrc/u8g2_font.c **** 	  break;
 747:..\..\u8g2\csrc/u8g2_font.c **** 	case 2:
 748:..\..\u8g2\csrc/u8g2_font.c **** 	  x -= delta;
 749:..\..\u8g2\csrc/u8g2_font.c **** 	  break;
 750:..\..\u8g2\csrc/u8g2_font.c **** 	case 3:
 751:..\..\u8g2\csrc/u8g2_font.c **** 	  y -= delta;
 752:..\..\u8g2\csrc/u8g2_font.c **** 	  break;
 753:..\..\u8g2\csrc/u8g2_font.c ****       }
 754:..\..\u8g2\csrc/u8g2_font.c **** #else
 755:..\..\u8g2\csrc/u8g2_font.c ****       x += delta;
 756:..\..\u8g2\csrc/u8g2_font.c **** #endif
 757:..\..\u8g2\csrc/u8g2_font.c **** 
 758:..\..\u8g2\csrc/u8g2_font.c ****       sum += delta;    
 759:..\..\u8g2\csrc/u8g2_font.c ****     }
 760:..\..\u8g2\csrc/u8g2_font.c ****   }
 761:..\..\u8g2\csrc/u8g2_font.c ****   return sum;
 762:..\..\u8g2\csrc/u8g2_font.c **** }
 763:..\..\u8g2\csrc/u8g2_font.c **** 
 764:..\..\u8g2\csrc/u8g2_font.c **** u8g2_uint_t u8g2_DrawStr(u8g2_t *u8g2, u8g2_uint_t x, u8g2_uint_t y, const char *str)
 765:..\..\u8g2\csrc/u8g2_font.c **** {
 766:..\..\u8g2\csrc/u8g2_font.c ****   u8g2->u8x8.next_cb = u8x8_ascii_next;
 767:..\..\u8g2\csrc/u8g2_font.c ****   return u8g2_draw_string(u8g2, x, y, str);
 768:..\..\u8g2\csrc/u8g2_font.c **** }
 769:..\..\u8g2\csrc/u8g2_font.c **** 
 770:..\..\u8g2\csrc/u8g2_font.c **** /*
ARM GAS  C:\Users\arh\AppData\Local\Temp\cc6sEv7h.s 			page 18


 771:..\..\u8g2\csrc/u8g2_font.c **** source: https://en.wikipedia.org/wiki/UTF-8
 772:..\..\u8g2\csrc/u8g2_font.c **** Bits	from 		to			bytes	Byte 1 		Byte 2 		Byte 3 		Byte 4 		Byte 5 		Byte 6
 773:..\..\u8g2\csrc/u8g2_font.c ****   7 	U+0000 		U+007F 		1 		0xxxxxxx
 774:..\..\u8g2\csrc/u8g2_font.c **** 11 	U+0080 		U+07FF 		2 		110xxxxx 	10xxxxxx
 775:..\..\u8g2\csrc/u8g2_font.c **** 16 	U+0800 		U+FFFF 		3 		1110xxxx 	10xxxxxx 	10xxxxxx
 776:..\..\u8g2\csrc/u8g2_font.c **** 21 	U+10000 	U+1FFFFF 	4 		11110xxx 	10xxxxxx 	10xxxxxx 	10xxxxxx
 777:..\..\u8g2\csrc/u8g2_font.c **** 26 	U+200000 	U+3FFFFFF 	5 		111110xx 	10xxxxxx 	10xxxxxx 	10xxxxxx 	10xxxxxx
 778:..\..\u8g2\csrc/u8g2_font.c **** 31 	U+4000000 	U+7FFFFFFF 	6 		1111110x 	10xxxxxx 	10xxxxxx 	10xxxxxx 	10xxxxxx 	10xxxxxx  
 779:..\..\u8g2\csrc/u8g2_font.c **** */
 780:..\..\u8g2\csrc/u8g2_font.c **** u8g2_uint_t u8g2_DrawUTF8(u8g2_t *u8g2, u8g2_uint_t x, u8g2_uint_t y, const char *str)
 781:..\..\u8g2\csrc/u8g2_font.c **** {
 782:..\..\u8g2\csrc/u8g2_font.c ****   u8g2->u8x8.next_cb = u8x8_utf8_next;
 783:..\..\u8g2\csrc/u8g2_font.c ****   return u8g2_draw_string(u8g2, x, y, str);
 784:..\..\u8g2\csrc/u8g2_font.c **** }
 785:..\..\u8g2\csrc/u8g2_font.c **** 
 786:..\..\u8g2\csrc/u8g2_font.c **** 
 787:..\..\u8g2\csrc/u8g2_font.c **** 
 788:..\..\u8g2\csrc/u8g2_font.c **** u8g2_uint_t u8g2_DrawExtendedUTF8(u8g2_t *u8g2, u8g2_uint_t x, u8g2_uint_t y, uint8_t to_left, u8g2
 789:..\..\u8g2\csrc/u8g2_font.c **** {
 790:..\..\u8g2\csrc/u8g2_font.c ****   u8g2->u8x8.next_cb = u8x8_utf8_next;
 791:..\..\u8g2\csrc/u8g2_font.c ****   uint16_t e_prev = 0x0ffff;
 792:..\..\u8g2\csrc/u8g2_font.c ****   uint16_t e;
 793:..\..\u8g2\csrc/u8g2_font.c ****   u8g2_uint_t delta, sum, k;
 794:..\..\u8g2\csrc/u8g2_font.c ****   u8x8_utf8_init(u8g2_GetU8x8(u8g2));
 795:..\..\u8g2\csrc/u8g2_font.c ****   sum = 0;
 796:..\..\u8g2\csrc/u8g2_font.c ****   for(;;)
 797:..\..\u8g2\csrc/u8g2_font.c ****   {
 798:..\..\u8g2\csrc/u8g2_font.c ****     e = u8g2->u8x8.next_cb(u8g2_GetU8x8(u8g2), (uint8_t)*str);
 799:..\..\u8g2\csrc/u8g2_font.c ****     if ( e == 0x0ffff )
 800:..\..\u8g2\csrc/u8g2_font.c ****       break;
 801:..\..\u8g2\csrc/u8g2_font.c ****     str++;
 802:..\..\u8g2\csrc/u8g2_font.c ****     if ( e != 0x0fffe )
 803:..\..\u8g2\csrc/u8g2_font.c ****     {
 804:..\..\u8g2\csrc/u8g2_font.c ****       delta = u8g2_GetGlyphWidth(u8g2, e);
 805:..\..\u8g2\csrc/u8g2_font.c **** 	    
 806:..\..\u8g2\csrc/u8g2_font.c ****       if ( to_left )
 807:..\..\u8g2\csrc/u8g2_font.c ****       {
 808:..\..\u8g2\csrc/u8g2_font.c ****         k = u8g2_GetKerning(u8g2, kerning, e, e_prev);
 809:..\..\u8g2\csrc/u8g2_font.c **** 	delta -= k;
 810:..\..\u8g2\csrc/u8g2_font.c **** 	x -= delta;
 811:..\..\u8g2\csrc/u8g2_font.c ****       }
 812:..\..\u8g2\csrc/u8g2_font.c ****       else
 813:..\..\u8g2\csrc/u8g2_font.c ****       {
 814:..\..\u8g2\csrc/u8g2_font.c ****         k = u8g2_GetKerning(u8g2, kerning, e_prev, e);
 815:..\..\u8g2\csrc/u8g2_font.c **** 	delta -= k;
 816:..\..\u8g2\csrc/u8g2_font.c ****       }
 817:..\..\u8g2\csrc/u8g2_font.c ****       e_prev = e;
 818:..\..\u8g2\csrc/u8g2_font.c **** 
 819:..\..\u8g2\csrc/u8g2_font.c ****       u8g2_DrawGlyph(u8g2, x, y, e);
 820:..\..\u8g2\csrc/u8g2_font.c ****       if ( to_left )
 821:..\..\u8g2\csrc/u8g2_font.c ****       {
 822:..\..\u8g2\csrc/u8g2_font.c ****       }
 823:..\..\u8g2\csrc/u8g2_font.c ****       else
 824:..\..\u8g2\csrc/u8g2_font.c ****       {
 825:..\..\u8g2\csrc/u8g2_font.c **** 	x += delta;
 826:..\..\u8g2\csrc/u8g2_font.c **** 	x -= k;
 827:..\..\u8g2\csrc/u8g2_font.c ****       }
ARM GAS  C:\Users\arh\AppData\Local\Temp\cc6sEv7h.s 			page 19


 828:..\..\u8g2\csrc/u8g2_font.c ****       
 829:..\..\u8g2\csrc/u8g2_font.c ****       sum += delta;    
 830:..\..\u8g2\csrc/u8g2_font.c ****     }
 831:..\..\u8g2\csrc/u8g2_font.c ****   }
 832:..\..\u8g2\csrc/u8g2_font.c ****   return sum;
 833:..\..\u8g2\csrc/u8g2_font.c **** }
 834:..\..\u8g2\csrc/u8g2_font.c **** 
 835:..\..\u8g2\csrc/u8g2_font.c **** u8g2_uint_t u8g2_DrawExtUTF8(u8g2_t *u8g2, u8g2_uint_t x, u8g2_uint_t y, uint8_t to_left, const uin
 836:..\..\u8g2\csrc/u8g2_font.c **** {
 837:..\..\u8g2\csrc/u8g2_font.c ****   u8g2->u8x8.next_cb = u8x8_utf8_next;
 838:..\..\u8g2\csrc/u8g2_font.c ****   uint16_t e_prev = 0x0ffff;
 839:..\..\u8g2\csrc/u8g2_font.c ****   uint16_t e;
 840:..\..\u8g2\csrc/u8g2_font.c ****   u8g2_uint_t delta, sum, k;
 841:..\..\u8g2\csrc/u8g2_font.c ****   u8x8_utf8_init(u8g2_GetU8x8(u8g2));
 842:..\..\u8g2\csrc/u8g2_font.c ****   sum = 0;
 843:..\..\u8g2\csrc/u8g2_font.c ****   for(;;)
 844:..\..\u8g2\csrc/u8g2_font.c ****   {
 845:..\..\u8g2\csrc/u8g2_font.c ****     e = u8g2->u8x8.next_cb(u8g2_GetU8x8(u8g2), (uint8_t)*str);
 846:..\..\u8g2\csrc/u8g2_font.c ****     if ( e == 0x0ffff )
 847:..\..\u8g2\csrc/u8g2_font.c ****       break;
 848:..\..\u8g2\csrc/u8g2_font.c ****     str++;
 849:..\..\u8g2\csrc/u8g2_font.c ****     if ( e != 0x0fffe )
 850:..\..\u8g2\csrc/u8g2_font.c ****     {
 851:..\..\u8g2\csrc/u8g2_font.c ****       delta = u8g2_GetGlyphWidth(u8g2, e);
 852:..\..\u8g2\csrc/u8g2_font.c **** 	    
 853:..\..\u8g2\csrc/u8g2_font.c ****       if ( to_left )
 854:..\..\u8g2\csrc/u8g2_font.c ****       {
 855:..\..\u8g2\csrc/u8g2_font.c ****         k = u8g2_GetKerningByTable(u8g2, kerning_table, e, e_prev);
 856:..\..\u8g2\csrc/u8g2_font.c **** 	delta -= k;
 857:..\..\u8g2\csrc/u8g2_font.c **** 	x -= delta;
 858:..\..\u8g2\csrc/u8g2_font.c ****       }
 859:..\..\u8g2\csrc/u8g2_font.c ****       else
 860:..\..\u8g2\csrc/u8g2_font.c ****       {
 861:..\..\u8g2\csrc/u8g2_font.c ****         k = u8g2_GetKerningByTable(u8g2, kerning_table, e_prev, e);
 862:..\..\u8g2\csrc/u8g2_font.c **** 	delta -= k;
 863:..\..\u8g2\csrc/u8g2_font.c ****       }
 864:..\..\u8g2\csrc/u8g2_font.c ****       e_prev = e;
 865:..\..\u8g2\csrc/u8g2_font.c **** 
 866:..\..\u8g2\csrc/u8g2_font.c ****       u8g2_DrawGlyph(u8g2, x, y, e);
 867:..\..\u8g2\csrc/u8g2_font.c ****       if ( to_left )
 868:..\..\u8g2\csrc/u8g2_font.c ****       {
 869:..\..\u8g2\csrc/u8g2_font.c ****       }
 870:..\..\u8g2\csrc/u8g2_font.c ****       else
 871:..\..\u8g2\csrc/u8g2_font.c ****       {
 872:..\..\u8g2\csrc/u8g2_font.c **** 	x += delta;
 873:..\..\u8g2\csrc/u8g2_font.c **** 	x -= k;
 874:..\..\u8g2\csrc/u8g2_font.c ****       }
 875:..\..\u8g2\csrc/u8g2_font.c ****       
 876:..\..\u8g2\csrc/u8g2_font.c ****       sum += delta;    
 877:..\..\u8g2\csrc/u8g2_font.c ****     }
 878:..\..\u8g2\csrc/u8g2_font.c ****   }
 879:..\..\u8g2\csrc/u8g2_font.c ****   return sum;
 880:..\..\u8g2\csrc/u8g2_font.c **** }
 881:..\..\u8g2\csrc/u8g2_font.c **** 
 882:..\..\u8g2\csrc/u8g2_font.c **** 
 883:..\..\u8g2\csrc/u8g2_font.c **** 
 884:..\..\u8g2\csrc/u8g2_font.c **** /*===============================================*/
ARM GAS  C:\Users\arh\AppData\Local\Temp\cc6sEv7h.s 			page 20


 885:..\..\u8g2\csrc/u8g2_font.c **** 
 886:..\..\u8g2\csrc/u8g2_font.c **** /* set ascent/descent for reference point calculation */
 887:..\..\u8g2\csrc/u8g2_font.c **** 
 888:..\..\u8g2\csrc/u8g2_font.c **** void u8g2_UpdateRefHeight(u8g2_t *u8g2)
 889:..\..\u8g2\csrc/u8g2_font.c **** {
 890:..\..\u8g2\csrc/u8g2_font.c ****   if ( u8g2->font == NULL )
 891:..\..\u8g2\csrc/u8g2_font.c ****     return;
 892:..\..\u8g2\csrc/u8g2_font.c ****   u8g2->font_ref_ascent = u8g2->font_info.ascent_A;
 893:..\..\u8g2\csrc/u8g2_font.c ****   u8g2->font_ref_descent = u8g2->font_info.descent_g;
 894:..\..\u8g2\csrc/u8g2_font.c ****   if ( u8g2->font_height_mode == U8G2_FONT_HEIGHT_MODE_TEXT )
 895:..\..\u8g2\csrc/u8g2_font.c ****   {
 896:..\..\u8g2\csrc/u8g2_font.c ****   }
 897:..\..\u8g2\csrc/u8g2_font.c ****   else if ( u8g2->font_height_mode == U8G2_FONT_HEIGHT_MODE_XTEXT )
 898:..\..\u8g2\csrc/u8g2_font.c ****   {
 899:..\..\u8g2\csrc/u8g2_font.c ****     if ( u8g2->font_ref_ascent < u8g2->font_info.ascent_para )
 900:..\..\u8g2\csrc/u8g2_font.c ****       u8g2->font_ref_ascent = u8g2->font_info.ascent_para;
 901:..\..\u8g2\csrc/u8g2_font.c ****     if ( u8g2->font_ref_descent > u8g2->font_info.descent_para )
 902:..\..\u8g2\csrc/u8g2_font.c ****       u8g2->font_ref_descent = u8g2->font_info.descent_para;
 903:..\..\u8g2\csrc/u8g2_font.c ****   }
 904:..\..\u8g2\csrc/u8g2_font.c ****   else
 905:..\..\u8g2\csrc/u8g2_font.c ****   {
 906:..\..\u8g2\csrc/u8g2_font.c ****     if ( u8g2->font_ref_ascent < u8g2->font_info.max_char_height+u8g2->font_info.y_offset )
 907:..\..\u8g2\csrc/u8g2_font.c ****       u8g2->font_ref_ascent = u8g2->font_info.max_char_height+u8g2->font_info.y_offset;
 908:..\..\u8g2\csrc/u8g2_font.c ****     if ( u8g2->font_ref_descent > u8g2->font_info.y_offset )
 909:..\..\u8g2\csrc/u8g2_font.c ****       u8g2->font_ref_descent = u8g2->font_info.y_offset;
 910:..\..\u8g2\csrc/u8g2_font.c ****   }  
 911:..\..\u8g2\csrc/u8g2_font.c **** }
 912:..\..\u8g2\csrc/u8g2_font.c **** 
 913:..\..\u8g2\csrc/u8g2_font.c **** void u8g2_SetFontRefHeightText(u8g2_t *u8g2)
 914:..\..\u8g2\csrc/u8g2_font.c **** {
 915:..\..\u8g2\csrc/u8g2_font.c ****   u8g2->font_height_mode = U8G2_FONT_HEIGHT_MODE_TEXT;
 916:..\..\u8g2\csrc/u8g2_font.c ****   u8g2_UpdateRefHeight(u8g2);
 917:..\..\u8g2\csrc/u8g2_font.c **** }
 918:..\..\u8g2\csrc/u8g2_font.c **** 
 919:..\..\u8g2\csrc/u8g2_font.c **** void u8g2_SetFontRefHeightExtendedText(u8g2_t *u8g2)
 920:..\..\u8g2\csrc/u8g2_font.c **** {
 921:..\..\u8g2\csrc/u8g2_font.c ****   u8g2->font_height_mode = U8G2_FONT_HEIGHT_MODE_XTEXT;
 922:..\..\u8g2\csrc/u8g2_font.c ****   u8g2_UpdateRefHeight(u8g2);
 923:..\..\u8g2\csrc/u8g2_font.c **** }
 924:..\..\u8g2\csrc/u8g2_font.c **** 
 925:..\..\u8g2\csrc/u8g2_font.c **** void u8g2_SetFontRefHeightAll(u8g2_t *u8g2)
 926:..\..\u8g2\csrc/u8g2_font.c **** {
 927:..\..\u8g2\csrc/u8g2_font.c ****   u8g2->font_height_mode = U8G2_FONT_HEIGHT_MODE_ALL;
 928:..\..\u8g2\csrc/u8g2_font.c ****   u8g2_UpdateRefHeight(u8g2);
 929:..\..\u8g2\csrc/u8g2_font.c **** }
 930:..\..\u8g2\csrc/u8g2_font.c **** 
 931:..\..\u8g2\csrc/u8g2_font.c **** /*===============================================*/
 932:..\..\u8g2\csrc/u8g2_font.c **** /* callback procedures to correct the y position */
 933:..\..\u8g2\csrc/u8g2_font.c **** 
 934:..\..\u8g2\csrc/u8g2_font.c **** u8g2_uint_t u8g2_font_calc_vref_font(U8X8_UNUSED u8g2_t *u8g2)
 935:..\..\u8g2\csrc/u8g2_font.c **** {
 200              		.loc 1 935 0
 201              		.cfi_startproc
 202              		@ args = 0, pretend = 0, frame = 0
 203              		@ frame_needed = 0, uses_anonymous_args = 0
 204              		@ link register save eliminated.
 205              	.LVL26:
ARM GAS  C:\Users\arh\AppData\Local\Temp\cc6sEv7h.s 			page 21


 936:..\..\u8g2\csrc/u8g2_font.c ****   return 0;
 937:..\..\u8g2\csrc/u8g2_font.c **** }
 206              		.loc 1 937 0
 207 0000 0020     		movs	r0, #0
 208              	.LVL27:
 209              		@ sp needed
 210 0002 7047     		bx	lr
 211              		.cfi_endproc
 212              	.LFE31:
 213              		.size	u8g2_font_calc_vref_font, .-u8g2_font_calc_vref_font
 214              		.section	.text.u8g2_font_calc_vref_bottom,"ax",%progbits
 215              		.align	2
 216              		.global	u8g2_font_calc_vref_bottom
 217              		.code	16
 218              		.thumb_func
 219              		.type	u8g2_font_calc_vref_bottom, %function
 220              	u8g2_font_calc_vref_bottom:
 221              	.LFB33:
 938:..\..\u8g2\csrc/u8g2_font.c **** 
 939:..\..\u8g2\csrc/u8g2_font.c **** void u8g2_SetFontPosBaseline(u8g2_t *u8g2)
 940:..\..\u8g2\csrc/u8g2_font.c **** {
 941:..\..\u8g2\csrc/u8g2_font.c ****   u8g2->font_calc_vref = u8g2_font_calc_vref_font;
 942:..\..\u8g2\csrc/u8g2_font.c **** }
 943:..\..\u8g2\csrc/u8g2_font.c **** 
 944:..\..\u8g2\csrc/u8g2_font.c **** 
 945:..\..\u8g2\csrc/u8g2_font.c **** u8g2_uint_t u8g2_font_calc_vref_bottom(u8g2_t *u8g2)
 946:..\..\u8g2\csrc/u8g2_font.c **** {
 222              		.loc 1 946 0
 223              		.cfi_startproc
 224              		@ args = 0, pretend = 0, frame = 0
 225              		@ frame_needed = 0, uses_anonymous_args = 0
 226              		@ link register save eliminated.
 227              	.LVL28:
 947:..\..\u8g2\csrc/u8g2_font.c ****   return (u8g2_uint_t)(u8g2->font_ref_descent);
 228              		.loc 1 947 0
 229 0000 7A23     		movs	r3, #122
 230 0002 C05C     		ldrb	r0, [r0, r3]
 231              	.LVL29:
 948:..\..\u8g2\csrc/u8g2_font.c **** }
 232              		.loc 1 948 0
 233              		@ sp needed
 234 0004 7047     		bx	lr
 235              		.cfi_endproc
 236              	.LFE33:
 237              		.size	u8g2_font_calc_vref_bottom, .-u8g2_font_calc_vref_bottom
 238 0006 C046     		.section	.text.u8g2_font_calc_vref_top,"ax",%progbits
 239              		.align	2
 240              		.global	u8g2_font_calc_vref_top
 241              		.code	16
 242              		.thumb_func
 243              		.type	u8g2_font_calc_vref_top, %function
 244              	u8g2_font_calc_vref_top:
 245              	.LFB35:
 949:..\..\u8g2\csrc/u8g2_font.c **** 
 950:..\..\u8g2\csrc/u8g2_font.c **** void u8g2_SetFontPosBottom(u8g2_t *u8g2)
 951:..\..\u8g2\csrc/u8g2_font.c **** {
 952:..\..\u8g2\csrc/u8g2_font.c ****   u8g2->font_calc_vref = u8g2_font_calc_vref_bottom;
ARM GAS  C:\Users\arh\AppData\Local\Temp\cc6sEv7h.s 			page 22


 953:..\..\u8g2\csrc/u8g2_font.c **** }
 954:..\..\u8g2\csrc/u8g2_font.c **** 
 955:..\..\u8g2\csrc/u8g2_font.c **** u8g2_uint_t u8g2_font_calc_vref_top(u8g2_t *u8g2)
 956:..\..\u8g2\csrc/u8g2_font.c **** {
 246              		.loc 1 956 0
 247              		.cfi_startproc
 248              		@ args = 0, pretend = 0, frame = 0
 249              		@ frame_needed = 0, uses_anonymous_args = 0
 250              		@ link register save eliminated.
 251              	.LVL30:
 957:..\..\u8g2\csrc/u8g2_font.c ****   u8g2_uint_t tmp;
 958:..\..\u8g2\csrc/u8g2_font.c ****   /* reference pos is one pixel above the upper edge of the reference glyph */
 959:..\..\u8g2\csrc/u8g2_font.c ****   tmp = (u8g2_uint_t)(u8g2->font_ref_ascent);
 252              		.loc 1 959 0
 253 0000 7923     		movs	r3, #121
 254 0002 C05C     		ldrb	r0, [r0, r3]
 255              	.LVL31:
 960:..\..\u8g2\csrc/u8g2_font.c ****   tmp++;
 256              		.loc 1 960 0
 257 0004 0130     		adds	r0, r0, #1
 258              	.LVL32:
 259 0006 C0B2     		uxtb	r0, r0
 260              	.LVL33:
 961:..\..\u8g2\csrc/u8g2_font.c ****   return tmp;
 962:..\..\u8g2\csrc/u8g2_font.c **** }
 261              		.loc 1 962 0
 262              		@ sp needed
 263 0008 7047     		bx	lr
 264              		.cfi_endproc
 265              	.LFE35:
 266              		.size	u8g2_font_calc_vref_top, .-u8g2_font_calc_vref_top
 267 000a C046     		.section	.text.u8g2_font_calc_vref_center,"ax",%progbits
 268              		.align	2
 269              		.global	u8g2_font_calc_vref_center
 270              		.code	16
 271              		.thumb_func
 272              		.type	u8g2_font_calc_vref_center, %function
 273              	u8g2_font_calc_vref_center:
 274              	.LFB37:
 963:..\..\u8g2\csrc/u8g2_font.c **** 
 964:..\..\u8g2\csrc/u8g2_font.c **** void u8g2_SetFontPosTop(u8g2_t *u8g2)
 965:..\..\u8g2\csrc/u8g2_font.c **** {
 966:..\..\u8g2\csrc/u8g2_font.c ****   u8g2->font_calc_vref = u8g2_font_calc_vref_top;
 967:..\..\u8g2\csrc/u8g2_font.c **** }
 968:..\..\u8g2\csrc/u8g2_font.c **** 
 969:..\..\u8g2\csrc/u8g2_font.c **** u8g2_uint_t u8g2_font_calc_vref_center(u8g2_t *u8g2)
 970:..\..\u8g2\csrc/u8g2_font.c **** {
 275              		.loc 1 970 0
 276              		.cfi_startproc
 277              		@ args = 0, pretend = 0, frame = 0
 278              		@ frame_needed = 0, uses_anonymous_args = 0
 279              		@ link register save eliminated.
 280              	.LVL34:
 971:..\..\u8g2\csrc/u8g2_font.c ****   int8_t tmp;
 972:..\..\u8g2\csrc/u8g2_font.c ****   tmp = u8g2->font_ref_ascent;
 281              		.loc 1 972 0
 282 0000 7923     		movs	r3, #121
ARM GAS  C:\Users\arh\AppData\Local\Temp\cc6sEv7h.s 			page 23


 283 0002 C356     		ldrsb	r3, [r0, r3]
 284              	.LVL35:
 973:..\..\u8g2\csrc/u8g2_font.c ****   tmp -= u8g2->font_ref_descent;
 285              		.loc 1 973 0
 286 0004 7A22     		movs	r2, #122
 287 0006 805C     		ldrb	r0, [r0, r2]
 288              	.LVL36:
 289 0008 1B1A     		subs	r3, r3, r0
 290              	.LVL37:
 291 000a 5BB2     		sxtb	r3, r3
 292              	.LVL38:
 974:..\..\u8g2\csrc/u8g2_font.c ****   tmp /= 2;
 293              		.loc 1 974 0
 294 000c DA0F     		lsrs	r2, r3, #31
 295 000e D318     		adds	r3, r2, r3
 296              	.LVL39:
 297 0010 5B10     		asrs	r3, r3, #1
 298              	.LVL40:
 975:..\..\u8g2\csrc/u8g2_font.c ****   tmp += u8g2->font_ref_descent;  
 299              		.loc 1 975 0
 300 0012 C018     		adds	r0, r0, r3
 301 0014 C0B2     		uxtb	r0, r0
 302              	.LVL41:
 976:..\..\u8g2\csrc/u8g2_font.c ****   return tmp;
 977:..\..\u8g2\csrc/u8g2_font.c **** }
 303              		.loc 1 977 0
 304              		@ sp needed
 305 0016 7047     		bx	lr
 306              		.cfi_endproc
 307              	.LFE37:
 308              		.size	u8g2_font_calc_vref_center, .-u8g2_font_calc_vref_center
 309              		.section	.text.u8g2_read_font_info,"ax",%progbits
 310              		.align	2
 311              		.global	u8g2_read_font_info
 312              		.code	16
 313              		.thumb_func
 314              		.type	u8g2_read_font_info, %function
 315              	u8g2_read_font_info:
 316              	.LFB2:
 132:..\..\u8g2\csrc/u8g2_font.c ****   /* offset 0 */
 317              		.loc 1 132 0
 318              		.cfi_startproc
 319              		@ args = 0, pretend = 0, frame = 0
 320              		@ frame_needed = 0, uses_anonymous_args = 0
 321              	.LVL42:
 322 0000 70B5     		push	{r4, r5, r6, lr}
 323              		.cfi_def_cfa_offset 16
 324              		.cfi_offset 4, -16
 325              		.cfi_offset 5, -12
 326              		.cfi_offset 6, -8
 327              		.cfi_offset 14, -4
 328 0002 0400     		movs	r4, r0
 329 0004 0D00     		movs	r5, r1
 134:..\..\u8g2\csrc/u8g2_font.c ****   font_info->bbx_mode = u8g2_font_get_byte(font, 1);
 330              		.loc 1 134 0
 331 0006 0021     		movs	r1, #0
 332              	.LVL43:
ARM GAS  C:\Users\arh\AppData\Local\Temp\cc6sEv7h.s 			page 24


 333 0008 2800     		movs	r0, r5
 334              	.LVL44:
 335 000a FFF7FEFF 		bl	u8g2_font_get_byte
 336              	.LVL45:
 337 000e 2070     		strb	r0, [r4]
 135:..\..\u8g2\csrc/u8g2_font.c ****   font_info->bits_per_0 = u8g2_font_get_byte(font, 2);
 338              		.loc 1 135 0
 339 0010 0121     		movs	r1, #1
 340 0012 2800     		movs	r0, r5
 341 0014 FFF7FEFF 		bl	u8g2_font_get_byte
 342              	.LVL46:
 343 0018 6070     		strb	r0, [r4, #1]
 136:..\..\u8g2\csrc/u8g2_font.c ****   font_info->bits_per_1 = u8g2_font_get_byte(font, 3);
 344              		.loc 1 136 0
 345 001a 0221     		movs	r1, #2
 346 001c 2800     		movs	r0, r5
 347 001e FFF7FEFF 		bl	u8g2_font_get_byte
 348              	.LVL47:
 349 0022 A070     		strb	r0, [r4, #2]
 137:..\..\u8g2\csrc/u8g2_font.c ****   
 350              		.loc 1 137 0
 351 0024 0321     		movs	r1, #3
 352 0026 2800     		movs	r0, r5
 353 0028 FFF7FEFF 		bl	u8g2_font_get_byte
 354              	.LVL48:
 355 002c E070     		strb	r0, [r4, #3]
 140:..\..\u8g2\csrc/u8g2_font.c ****   font_info->bits_per_char_height = u8g2_font_get_byte(font, 5);
 356              		.loc 1 140 0
 357 002e 0421     		movs	r1, #4
 358 0030 2800     		movs	r0, r5
 359 0032 FFF7FEFF 		bl	u8g2_font_get_byte
 360              	.LVL49:
 361 0036 2071     		strb	r0, [r4, #4]
 141:..\..\u8g2\csrc/u8g2_font.c ****   font_info->bits_per_char_x = u8g2_font_get_byte(font, 6);
 362              		.loc 1 141 0
 363 0038 0521     		movs	r1, #5
 364 003a 2800     		movs	r0, r5
 365 003c FFF7FEFF 		bl	u8g2_font_get_byte
 366              	.LVL50:
 367 0040 6071     		strb	r0, [r4, #5]
 142:..\..\u8g2\csrc/u8g2_font.c ****   font_info->bits_per_char_y = u8g2_font_get_byte(font, 7);
 368              		.loc 1 142 0
 369 0042 0621     		movs	r1, #6
 370 0044 2800     		movs	r0, r5
 371 0046 FFF7FEFF 		bl	u8g2_font_get_byte
 372              	.LVL51:
 373 004a A071     		strb	r0, [r4, #6]
 143:..\..\u8g2\csrc/u8g2_font.c ****   font_info->bits_per_delta_x = u8g2_font_get_byte(font, 8);
 374              		.loc 1 143 0
 375 004c 0721     		movs	r1, #7
 376 004e 2800     		movs	r0, r5
 377 0050 FFF7FEFF 		bl	u8g2_font_get_byte
 378              	.LVL52:
 379 0054 E071     		strb	r0, [r4, #7]
 144:..\..\u8g2\csrc/u8g2_font.c ****   
 380              		.loc 1 144 0
 381 0056 0821     		movs	r1, #8
ARM GAS  C:\Users\arh\AppData\Local\Temp\cc6sEv7h.s 			page 25


 382 0058 2800     		movs	r0, r5
 383 005a FFF7FEFF 		bl	u8g2_font_get_byte
 384              	.LVL53:
 385 005e 2072     		strb	r0, [r4, #8]
 147:..\..\u8g2\csrc/u8g2_font.c ****   font_info->max_char_height = u8g2_font_get_byte(font, 10);
 386              		.loc 1 147 0
 387 0060 0921     		movs	r1, #9
 388 0062 2800     		movs	r0, r5
 389 0064 FFF7FEFF 		bl	u8g2_font_get_byte
 390              	.LVL54:
 391 0068 6072     		strb	r0, [r4, #9]
 148:..\..\u8g2\csrc/u8g2_font.c ****   font_info->x_offset = u8g2_font_get_byte(font, 11);
 392              		.loc 1 148 0
 393 006a 0A21     		movs	r1, #10
 394 006c 2800     		movs	r0, r5
 395 006e FFF7FEFF 		bl	u8g2_font_get_byte
 396              	.LVL55:
 397 0072 A072     		strb	r0, [r4, #10]
 149:..\..\u8g2\csrc/u8g2_font.c ****   font_info->y_offset = u8g2_font_get_byte(font, 12);
 398              		.loc 1 149 0
 399 0074 0B21     		movs	r1, #11
 400 0076 2800     		movs	r0, r5
 401 0078 FFF7FEFF 		bl	u8g2_font_get_byte
 402              	.LVL56:
 403 007c E072     		strb	r0, [r4, #11]
 150:..\..\u8g2\csrc/u8g2_font.c ****   
 404              		.loc 1 150 0
 405 007e 0C21     		movs	r1, #12
 406 0080 2800     		movs	r0, r5
 407 0082 FFF7FEFF 		bl	u8g2_font_get_byte
 408              	.LVL57:
 409 0086 2073     		strb	r0, [r4, #12]
 153:..\..\u8g2\csrc/u8g2_font.c ****   font_info->descent_g = u8g2_font_get_byte(font, 14);
 410              		.loc 1 153 0
 411 0088 0D21     		movs	r1, #13
 412 008a 2800     		movs	r0, r5
 413 008c FFF7FEFF 		bl	u8g2_font_get_byte
 414              	.LVL58:
 415 0090 6073     		strb	r0, [r4, #13]
 154:..\..\u8g2\csrc/u8g2_font.c ****   font_info->ascent_para = u8g2_font_get_byte(font, 15);
 416              		.loc 1 154 0
 417 0092 0E21     		movs	r1, #14
 418 0094 2800     		movs	r0, r5
 419 0096 FFF7FEFF 		bl	u8g2_font_get_byte
 420              	.LVL59:
 421 009a A073     		strb	r0, [r4, #14]
 155:..\..\u8g2\csrc/u8g2_font.c ****   font_info->descent_para = u8g2_font_get_byte(font, 16);
 422              		.loc 1 155 0
 423 009c 0F21     		movs	r1, #15
 424 009e 2800     		movs	r0, r5
 425 00a0 FFF7FEFF 		bl	u8g2_font_get_byte
 426              	.LVL60:
 427 00a4 E073     		strb	r0, [r4, #15]
 156:..\..\u8g2\csrc/u8g2_font.c ****   
 428              		.loc 1 156 0
 429 00a6 1021     		movs	r1, #16
 430 00a8 2800     		movs	r0, r5
ARM GAS  C:\Users\arh\AppData\Local\Temp\cc6sEv7h.s 			page 26


 431 00aa FFF7FEFF 		bl	u8g2_font_get_byte
 432              	.LVL61:
 433 00ae 2074     		strb	r0, [r4, #16]
 159:..\..\u8g2\csrc/u8g2_font.c ****   font_info->start_pos_lower_a = u8g2_font_get_word(font, 19); 
 434              		.loc 1 159 0
 435 00b0 1121     		movs	r1, #17
 436 00b2 2800     		movs	r0, r5
 437 00b4 FFF7FEFF 		bl	u8g2_font_get_word
 438              	.LVL62:
 439 00b8 6082     		strh	r0, [r4, #18]
 160:..\..\u8g2\csrc/u8g2_font.c ****   
 440              		.loc 1 160 0
 441 00ba 1321     		movs	r1, #19
 442 00bc 2800     		movs	r0, r5
 443 00be FFF7FEFF 		bl	u8g2_font_get_word
 444              	.LVL63:
 445 00c2 A082     		strh	r0, [r4, #20]
 164:..\..\u8g2\csrc/u8g2_font.c **** #endif
 446              		.loc 1 164 0
 447 00c4 1521     		movs	r1, #21
 448 00c6 2800     		movs	r0, r5
 449 00c8 FFF7FEFF 		bl	u8g2_font_get_word
 450              	.LVL64:
 451 00cc E082     		strh	r0, [r4, #22]
 166:..\..\u8g2\csrc/u8g2_font.c **** 
 452              		.loc 1 166 0
 453              		@ sp needed
 454              	.LVL65:
 455              	.LVL66:
 456 00ce 70BD     		pop	{r4, r5, r6, pc}
 457              		.cfi_endproc
 458              	.LFE2:
 459              		.size	u8g2_read_font_info, .-u8g2_read_font_info
 460              		.section	.text.u8g2_GetFontSize,"ax",%progbits
 461              		.align	2
 462              		.global	u8g2_GetFontSize
 463              		.code	16
 464              		.thumb_func
 465              		.type	u8g2_GetFontSize, %function
 466              	u8g2_GetFontSize:
 467              	.LFB3:
 171:..\..\u8g2\csrc/u8g2_font.c ****   uint16_t e;
 468              		.loc 1 171 0
 469              		.cfi_startproc
 470              		@ args = 0, pretend = 0, frame = 0
 471              		@ frame_needed = 0, uses_anonymous_args = 0
 472              		@ link register save eliminated.
 473              	.LVL67:
 174:..\..\u8g2\csrc/u8g2_font.c ****   
 474              		.loc 1 174 0
 475 0000 0300     		movs	r3, r0
 476 0002 1733     		adds	r3, r3, #23
 477              	.LVL68:
 478              	.L24:
 178:..\..\u8g2\csrc/u8g2_font.c ****       break;
 479              		.loc 1 178 0
 480 0004 5A78     		ldrb	r2, [r3, #1]
ARM GAS  C:\Users\arh\AppData\Local\Temp\cc6sEv7h.s 			page 27


 481 0006 002A     		cmp	r2, #0
 482 0008 01D0     		beq	.L23
 180:..\..\u8g2\csrc/u8g2_font.c ****   }
 483              		.loc 1 180 0
 484 000a 9B18     		adds	r3, r3, r2
 485              	.LVL69:
 181:..\..\u8g2\csrc/u8g2_font.c ****   
 486              		.loc 1 181 0
 487 000c FAE7     		b	.L24
 488              	.L23:
 184:..\..\u8g2\csrc/u8g2_font.c ****   
 489              		.loc 1 184 0
 490 000e 0233     		adds	r3, r3, #2
 491              	.LVL70:
 492              	.L26:
 188:..\..\u8g2\csrc/u8g2_font.c ****     e <<= 8;
 493              		.loc 1 188 0
 494 0010 1A78     		ldrb	r2, [r3]
 495              	.LVL71:
 189:..\..\u8g2\csrc/u8g2_font.c ****     e |= u8x8_pgm_read( font + 1 );
 496              		.loc 1 189 0
 497 0012 1202     		lsls	r2, r2, #8
 498              	.LVL72:
 190:..\..\u8g2\csrc/u8g2_font.c ****     if ( e == 0 )
 499              		.loc 1 190 0
 500 0014 5978     		ldrb	r1, [r3, #1]
 501 0016 0A43     		orrs	r2, r1
 502              	.LVL73:
 191:..\..\u8g2\csrc/u8g2_font.c ****       break;
 503              		.loc 1 191 0
 504 0018 02D0     		beq	.L25
 193:..\..\u8g2\csrc/u8g2_font.c ****   }
 505              		.loc 1 193 0
 506 001a 9A78     		ldrb	r2, [r3, #2]
 507              	.LVL74:
 508 001c 9B18     		adds	r3, r3, r2
 509              	.LVL75:
 194:..\..\u8g2\csrc/u8g2_font.c ****   
 510              		.loc 1 194 0
 511 001e F7E7     		b	.L26
 512              	.LVL76:
 513              	.L25:
 196:..\..\u8g2\csrc/u8g2_font.c **** }
 514              		.loc 1 196 0
 515 0020 181A     		subs	r0, r3, r0
 516              	.LVL77:
 517 0022 0230     		adds	r0, r0, #2
 197:..\..\u8g2\csrc/u8g2_font.c **** 
 518              		.loc 1 197 0
 519              		@ sp needed
 520 0024 7047     		bx	lr
 521              		.cfi_endproc
 522              	.LFE3:
 523              		.size	u8g2_GetFontSize, .-u8g2_GetFontSize
 524 0026 C046     		.section	.text.u8g2_GetFontBBXWidth,"ax",%progbits
 525              		.align	2
 526              		.global	u8g2_GetFontBBXWidth
ARM GAS  C:\Users\arh\AppData\Local\Temp\cc6sEv7h.s 			page 28


 527              		.code	16
 528              		.thumb_func
 529              		.type	u8g2_GetFontBBXWidth, %function
 530              	u8g2_GetFontBBXWidth:
 531              	.LFB4:
 203:..\..\u8g2\csrc/u8g2_font.c ****   return u8g2->font_info.max_char_width;		/* new font info structure */
 532              		.loc 1 203 0
 533              		.cfi_startproc
 534              		@ args = 0, pretend = 0, frame = 0
 535              		@ frame_needed = 0, uses_anonymous_args = 0
 536              		@ link register save eliminated.
 537              	.LVL78:
 204:..\..\u8g2\csrc/u8g2_font.c **** }
 538              		.loc 1 204 0
 539 0000 6923     		movs	r3, #105
 540 0002 C05C     		ldrb	r0, [r0, r3]
 541              	.LVL79:
 205:..\..\u8g2\csrc/u8g2_font.c **** 
 542              		.loc 1 205 0
 543              		@ sp needed
 544 0004 7047     		bx	lr
 545              		.cfi_endproc
 546              	.LFE4:
 547              		.size	u8g2_GetFontBBXWidth, .-u8g2_GetFontBBXWidth
 548 0006 C046     		.section	.text.u8g2_GetFontBBXHeight,"ax",%progbits
 549              		.align	2
 550              		.global	u8g2_GetFontBBXHeight
 551              		.code	16
 552              		.thumb_func
 553              		.type	u8g2_GetFontBBXHeight, %function
 554              	u8g2_GetFontBBXHeight:
 555              	.LFB5:
 208:..\..\u8g2\csrc/u8g2_font.c ****   return u8g2->font_info.max_char_height;		/* new font info structure */
 556              		.loc 1 208 0
 557              		.cfi_startproc
 558              		@ args = 0, pretend = 0, frame = 0
 559              		@ frame_needed = 0, uses_anonymous_args = 0
 560              		@ link register save eliminated.
 561              	.LVL80:
 209:..\..\u8g2\csrc/u8g2_font.c **** }
 562              		.loc 1 209 0
 563 0000 6A23     		movs	r3, #106
 564 0002 C05C     		ldrb	r0, [r0, r3]
 565              	.LVL81:
 210:..\..\u8g2\csrc/u8g2_font.c **** 
 566              		.loc 1 210 0
 567              		@ sp needed
 568 0004 7047     		bx	lr
 569              		.cfi_endproc
 570              	.LFE5:
 571              		.size	u8g2_GetFontBBXHeight, .-u8g2_GetFontBBXHeight
 572 0006 C046     		.section	.text.u8g_GetFontBBXOffX,"ax",%progbits
 573              		.align	2
 574              		.global	u8g_GetFontBBXOffX
 575              		.code	16
 576              		.thumb_func
 577              		.type	u8g_GetFontBBXOffX, %function
ARM GAS  C:\Users\arh\AppData\Local\Temp\cc6sEv7h.s 			page 29


 578              	u8g_GetFontBBXOffX:
 579              	.LFB6:
 214:..\..\u8g2\csrc/u8g2_font.c ****   return u8g2->font_info.x_offset;		/* new font info structure */
 580              		.loc 1 214 0
 581              		.cfi_startproc
 582              		@ args = 0, pretend = 0, frame = 0
 583              		@ frame_needed = 0, uses_anonymous_args = 0
 584              		@ link register save eliminated.
 585              	.LVL82:
 215:..\..\u8g2\csrc/u8g2_font.c **** }
 586              		.loc 1 215 0
 587 0000 6B23     		movs	r3, #107
 588 0002 C056     		ldrsb	r0, [r0, r3]
 589              	.LVL83:
 216:..\..\u8g2\csrc/u8g2_font.c **** 
 590              		.loc 1 216 0
 591              		@ sp needed
 592 0004 7047     		bx	lr
 593              		.cfi_endproc
 594              	.LFE6:
 595              		.size	u8g_GetFontBBXOffX, .-u8g_GetFontBBXOffX
 596 0006 C046     		.section	.text.u8g2_GetFontBBXOffY,"ax",%progbits
 597              		.align	2
 598              		.global	u8g2_GetFontBBXOffY
 599              		.code	16
 600              		.thumb_func
 601              		.type	u8g2_GetFontBBXOffY, %function
 602              	u8g2_GetFontBBXOffY:
 603              	.LFB7:
 220:..\..\u8g2\csrc/u8g2_font.c ****   return u8g2->font_info.y_offset;		/* new font info structure */
 604              		.loc 1 220 0
 605              		.cfi_startproc
 606              		@ args = 0, pretend = 0, frame = 0
 607              		@ frame_needed = 0, uses_anonymous_args = 0
 608              		@ link register save eliminated.
 609              	.LVL84:
 221:..\..\u8g2\csrc/u8g2_font.c **** }
 610              		.loc 1 221 0
 611 0000 6C23     		movs	r3, #108
 612 0002 C056     		ldrsb	r0, [r0, r3]
 613              	.LVL85:
 222:..\..\u8g2\csrc/u8g2_font.c **** 
 614              		.loc 1 222 0
 615              		@ sp needed
 616 0004 7047     		bx	lr
 617              		.cfi_endproc
 618              	.LFE7:
 619              		.size	u8g2_GetFontBBXOffY, .-u8g2_GetFontBBXOffY
 620 0006 C046     		.section	.text.u8g2_GetFontCapitalAHeight,"ax",%progbits
 621              		.align	2
 622              		.global	u8g2_GetFontCapitalAHeight
 623              		.code	16
 624              		.thumb_func
 625              		.type	u8g2_GetFontCapitalAHeight, %function
 626              	u8g2_GetFontCapitalAHeight:
 627              	.LFB8:
 226:..\..\u8g2\csrc/u8g2_font.c ****   return u8g2->font_info.ascent_A;		/* new font info structure */
ARM GAS  C:\Users\arh\AppData\Local\Temp\cc6sEv7h.s 			page 30


 628              		.loc 1 226 0
 629              		.cfi_startproc
 630              		@ args = 0, pretend = 0, frame = 0
 631              		@ frame_needed = 0, uses_anonymous_args = 0
 632              		@ link register save eliminated.
 633              	.LVL86:
 227:..\..\u8g2\csrc/u8g2_font.c **** }
 634              		.loc 1 227 0
 635 0000 6D23     		movs	r3, #109
 636 0002 C05C     		ldrb	r0, [r0, r3]
 637              	.LVL87:
 228:..\..\u8g2\csrc/u8g2_font.c **** 
 638              		.loc 1 228 0
 639              		@ sp needed
 640 0004 7047     		bx	lr
 641              		.cfi_endproc
 642              	.LFE8:
 643              		.size	u8g2_GetFontCapitalAHeight, .-u8g2_GetFontCapitalAHeight
 644 0006 C046     		.section	.text.u8g2_font_decode_get_unsigned_bits,"ax",%progbits
 645              		.align	2
 646              		.global	u8g2_font_decode_get_unsigned_bits
 647              		.code	16
 648              		.thumb_func
 649              		.type	u8g2_font_decode_get_unsigned_bits, %function
 650              	u8g2_font_decode_get_unsigned_bits:
 651              	.LFB9:
 235:..\..\u8g2\csrc/u8g2_font.c ****   uint8_t val;
 652              		.loc 1 235 0
 653              		.cfi_startproc
 654              		@ args = 0, pretend = 0, frame = 0
 655              		@ frame_needed = 0, uses_anonymous_args = 0
 656              	.LVL88:
 657 0000 F0B5     		push	{r4, r5, r6, r7, lr}
 658              		.cfi_def_cfa_offset 20
 659              		.cfi_offset 4, -20
 660              		.cfi_offset 5, -16
 661              		.cfi_offset 6, -12
 662              		.cfi_offset 7, -8
 663              		.cfi_offset 14, -4
 237:..\..\u8g2\csrc/u8g2_font.c ****   uint8_t bit_pos_plus_cnt;
 664              		.loc 1 237 0
 665 0002 867A     		ldrb	r6, [r0, #10]
 666              	.LVL89:
 241:..\..\u8g2\csrc/u8g2_font.c ****   
 667              		.loc 1 241 0
 668 0004 0768     		ldr	r7, [r0]
 669 0006 3C78     		ldrb	r4, [r7]
 670              	.LVL90:
 243:..\..\u8g2\csrc/u8g2_font.c ****   bit_pos_plus_cnt = bit_pos;
 671              		.loc 1 243 0
 672 0008 3441     		asrs	r4, r4, r6
 673              	.LVL91:
 674 000a E5B2     		uxtb	r5, r4
 675              	.LVL92:
 245:..\..\u8g2\csrc/u8g2_font.c ****   if ( bit_pos_plus_cnt >= 8 )
 676              		.loc 1 245 0
 677 000c 7318     		adds	r3, r6, r1
ARM GAS  C:\Users\arh\AppData\Local\Temp\cc6sEv7h.s 			page 31


 678 000e DBB2     		uxtb	r3, r3
 679              	.LVL93:
 246:..\..\u8g2\csrc/u8g2_font.c ****   {
 680              		.loc 1 246 0
 681 0010 072B     		cmp	r3, #7
 682 0012 0AD9     		bls	.L33
 683              	.LVL94:
 684              	.LBB2:
 249:..\..\u8g2\csrc/u8g2_font.c ****     f->decode_ptr++;
 685              		.loc 1 249 0
 686 0014 0822     		movs	r2, #8
 687 0016 961B     		subs	r6, r2, r6
 688              	.LVL95:
 689 0018 F6B2     		uxtb	r6, r6
 690              	.LVL96:
 250:..\..\u8g2\csrc/u8g2_font.c ****     //val |= *(f->decode_ptr) << (8-bit_pos);
 691              		.loc 1 250 0
 692 001a 7A1C     		adds	r2, r7, #1
 693 001c 0260     		str	r2, [r0]
 252:..\..\u8g2\csrc/u8g2_font.c ****     //bit_pos -= 8;
 694              		.loc 1 252 0
 695 001e 7D78     		ldrb	r5, [r7, #1]
 696              	.LVL97:
 697 0020 B540     		lsls	r5, r5, r6
 698 0022 2C43     		orrs	r4, r5
 699              	.LVL98:
 700 0024 E5B2     		uxtb	r5, r4
 701              	.LVL99:
 254:..\..\u8g2\csrc/u8g2_font.c ****   }
 702              		.loc 1 254 0
 703 0026 083B     		subs	r3, r3, #8
 704              	.LVL100:
 705 0028 DBB2     		uxtb	r3, r3
 706              	.LVL101:
 707              	.L33:
 708              	.LBE2:
 256:..\..\u8g2\csrc/u8g2_font.c ****   //bit_pos += cnt;
 709              		.loc 1 256 0
 710 002a 0122     		movs	r2, #1
 711 002c 8A40     		lsls	r2, r2, r1
 712 002e 013A     		subs	r2, r2, #1
 713 0030 2A40     		ands	r2, r5
 714              	.LVL102:
 259:..\..\u8g2\csrc/u8g2_font.c ****   return val;
 715              		.loc 1 259 0
 716 0032 8372     		strb	r3, [r0, #10]
 717              	.LVL103:
 261:..\..\u8g2\csrc/u8g2_font.c **** 
 718              		.loc 1 261 0
 719 0034 1000     		movs	r0, r2
 720              	.LVL104:
 721              		@ sp needed
 722 0036 F0BD     		pop	{r4, r5, r6, r7, pc}
 723              		.cfi_endproc
 724              	.LFE9:
 725              		.size	u8g2_font_decode_get_unsigned_bits, .-u8g2_font_decode_get_unsigned_bits
 726              		.section	.text.u8g2_font_setup_decode,"ax",%progbits
ARM GAS  C:\Users\arh\AppData\Local\Temp\cc6sEv7h.s 			page 32


 727              		.align	2
 728              		.code	16
 729              		.thumb_func
 730              		.type	u8g2_font_setup_decode, %function
 731              	u8g2_font_setup_decode:
 732              	.LFB14:
 451:..\..\u8g2\csrc/u8g2_font.c ****   u8g2_font_decode_t *decode = &(u8g2->font_decode);
 733              		.loc 1 451 0
 734              		.cfi_startproc
 735              		@ args = 0, pretend = 0, frame = 0
 736              		@ frame_needed = 0, uses_anonymous_args = 0
 737              	.LVL105:
 738 0000 70B5     		push	{r4, r5, r6, lr}
 739              		.cfi_def_cfa_offset 16
 740              		.cfi_offset 4, -16
 741              		.cfi_offset 5, -12
 742              		.cfi_offset 6, -8
 743              		.cfi_offset 14, -4
 744 0002 0500     		movs	r5, r0
 452:..\..\u8g2\csrc/u8g2_font.c ****   decode->decode_ptr = glyph_data;
 745              		.loc 1 452 0
 746 0004 0400     		movs	r4, r0
 747 0006 5034     		adds	r4, r4, #80
 748              	.LVL106:
 453:..\..\u8g2\csrc/u8g2_font.c ****   decode->decode_bit_pos = 0;
 749              		.loc 1 453 0
 750 0008 0165     		str	r1, [r0, #80]
 454:..\..\u8g2\csrc/u8g2_font.c ****   
 751              		.loc 1 454 0
 752 000a 0023     		movs	r3, #0
 753 000c A372     		strb	r3, [r4, #10]
 462:..\..\u8g2\csrc/u8g2_font.c ****   decode->glyph_height = u8g2_font_decode_get_unsigned_bits(decode,u8g2->font_info.bits_per_char_he
 754              		.loc 1 462 0
 755 000e 6433     		adds	r3, r3, #100
 756 0010 C15C     		ldrb	r1, [r0, r3]
 757              	.LVL107:
 758 0012 2000     		movs	r0, r4
 759              	.LVL108:
 760 0014 FFF7FEFF 		bl	u8g2_font_decode_get_unsigned_bits
 761              	.LVL109:
 762 0018 2072     		strb	r0, [r4, #8]
 463:..\..\u8g2\csrc/u8g2_font.c ****   
 763              		.loc 1 463 0
 764 001a 6523     		movs	r3, #101
 765 001c E95C     		ldrb	r1, [r5, r3]
 766 001e 2000     		movs	r0, r4
 767 0020 FFF7FEFF 		bl	u8g2_font_decode_get_unsigned_bits
 768              	.LVL110:
 769 0024 6072     		strb	r0, [r4, #9]
 465:..\..\u8g2\csrc/u8g2_font.c ****   decode->bg_color = (decode->fg_color == 0 ? 1 : 0);
 770              		.loc 1 465 0
 771 0026 7C23     		movs	r3, #124
 772 0028 EB5C     		ldrb	r3, [r5, r3]
 773 002a 2373     		strb	r3, [r4, #12]
 466:..\..\u8g2\csrc/u8g2_font.c **** }
 774              		.loc 1 466 0
 775 002c 5A42     		rsbs	r2, r3, #0
ARM GAS  C:\Users\arh\AppData\Local\Temp\cc6sEv7h.s 			page 33


 776 002e 5341     		adcs	r3, r3, r2
 777 0030 6373     		strb	r3, [r4, #13]
 467:..\..\u8g2\csrc/u8g2_font.c **** 
 778              		.loc 1 467 0
 779              		@ sp needed
 780              	.LVL111:
 781              	.LVL112:
 782 0032 70BD     		pop	{r4, r5, r6, pc}
 783              		.cfi_endproc
 784              	.LFE14:
 785              		.size	u8g2_font_setup_decode, .-u8g2_font_setup_decode
 786              		.section	.text.u8g2_font_decode_get_signed_bits,"ax",%progbits
 787              		.align	2
 788              		.global	u8g2_font_decode_get_signed_bits
 789              		.code	16
 790              		.thumb_func
 791              		.type	u8g2_font_decode_get_signed_bits, %function
 792              	u8g2_font_decode_get_signed_bits:
 793              	.LFB10:
 280:..\..\u8g2\csrc/u8g2_font.c ****   int8_t v, d;
 794              		.loc 1 280 0
 795              		.cfi_startproc
 796              		@ args = 0, pretend = 0, frame = 0
 797              		@ frame_needed = 0, uses_anonymous_args = 0
 798              	.LVL113:
 799 0000 10B5     		push	{r4, lr}
 800              		.cfi_def_cfa_offset 8
 801              		.cfi_offset 4, -8
 802              		.cfi_offset 14, -4
 803 0002 0C00     		movs	r4, r1
 282:..\..\u8g2\csrc/u8g2_font.c ****   d = 1;
 804              		.loc 1 282 0
 805 0004 FFF7FEFF 		bl	u8g2_font_decode_get_unsigned_bits
 806              	.LVL114:
 284:..\..\u8g2\csrc/u8g2_font.c ****   d <<= cnt;
 807              		.loc 1 284 0
 808 0008 013C     		subs	r4, r4, #1
 809 000a E4B2     		uxtb	r4, r4
 810              	.LVL115:
 285:..\..\u8g2\csrc/u8g2_font.c ****   v -= d;
 811              		.loc 1 285 0
 812 000c 0123     		movs	r3, #1
 813 000e A340     		lsls	r3, r3, r4
 814              	.LVL116:
 286:..\..\u8g2\csrc/u8g2_font.c ****   return v;
 815              		.loc 1 286 0
 816 0010 C01A     		subs	r0, r0, r3
 817              	.LVL117:
 818 0012 40B2     		sxtb	r0, r0
 819              	.LVL118:
 289:..\..\u8g2\csrc/u8g2_font.c **** 
 820              		.loc 1 289 0
 821              		@ sp needed
 822              	.LVL119:
 823 0014 10BD     		pop	{r4, pc}
 824              		.cfi_endproc
 825              	.LFE10:
ARM GAS  C:\Users\arh\AppData\Local\Temp\cc6sEv7h.s 			page 34


 826              		.size	u8g2_font_decode_get_signed_bits, .-u8g2_font_decode_get_signed_bits
 827 0016 C046     		.section	.text.u8g2_font_decode_len,"ax",%progbits
 828              		.align	2
 829              		.global	u8g2_font_decode_len
 830              		.code	16
 831              		.thumb_func
 832              		.type	u8g2_font_decode_len, %function
 833              	u8g2_font_decode_len:
 834              	.LFB13:
 357:..\..\u8g2\csrc/u8g2_font.c ****   uint8_t cnt;	/* total number of remaining pixels, which have to be drawn */
 835              		.loc 1 357 0
 836              		.cfi_startproc
 837              		@ args = 0, pretend = 0, frame = 24
 838              		@ frame_needed = 0, uses_anonymous_args = 0
 839              	.LVL120:
 840 0000 F0B5     		push	{r4, r5, r6, r7, lr}
 841              		.cfi_def_cfa_offset 20
 842              		.cfi_offset 4, -20
 843              		.cfi_offset 5, -16
 844              		.cfi_offset 6, -12
 845              		.cfi_offset 7, -8
 846              		.cfi_offset 14, -4
 847 0002 5F46     		mov	r7, fp
 848 0004 5646     		mov	r6, r10
 849 0006 4546     		mov	r5, r8
 850 0008 E0B4     		push	{r5, r6, r7}
 851              		.cfi_def_cfa_offset 32
 852              		.cfi_offset 8, -32
 853              		.cfi_offset 10, -28
 854              		.cfi_offset 11, -24
 855 000a 88B0     		sub	sp, sp, #32
 856              		.cfi_def_cfa_offset 64
 857 000c 9246     		mov	r10, r2
 858              	.LVL121:
 374:..\..\u8g2\csrc/u8g2_font.c ****   ly = decode->y;
 859              		.loc 1 374 0
 860 000e 0300     		movs	r3, r0
 861 0010 5033     		adds	r3, r3, #80
 862              	.LVL122:
 863 0012 9E79     		ldrb	r6, [r3, #6]
 864              	.LVL123:
 375:..\..\u8g2\csrc/u8g2_font.c ****   
 865              		.loc 1 375 0
 866 0014 DB79     		ldrb	r3, [r3, #7]
 867              	.LVL124:
 868 0016 9846     		mov	r8, r3
 869              	.LVL125:
 870 0018 0400     		movs	r4, r0
 871 001a 5346     		mov	r3, r10
 872 001c B246     		mov	r10, r6
 873 001e 4646     		mov	r6, r8
 874              	.LVL126:
 875 0020 9846     		mov	r8, r3
 876              	.LVL127:
 877 0022 0F00     		movs	r7, r1
 878              	.LVL128:
 879              	.L41:
ARM GAS  C:\Users\arh\AppData\Local\Temp\cc6sEv7h.s 			page 35


 380:..\..\u8g2\csrc/u8g2_font.c ****     rem -= lx;
 880              		.loc 1 380 0
 881 0024 2300     		movs	r3, r4
 882 0026 5033     		adds	r3, r3, #80
 883 0028 1D7A     		ldrb	r5, [r3, #8]
 884              	.LVL129:
 381:..\..\u8g2\csrc/u8g2_font.c ****     
 885              		.loc 1 381 0
 886 002a 5346     		mov	r3, r10
 887 002c ED1A     		subs	r5, r5, r3
 888              	.LVL130:
 889 002e EDB2     		uxtb	r5, r5
 890              	.LVL131:
 386:..\..\u8g2\csrc/u8g2_font.c ****       current = cnt;
 891              		.loc 1 386 0
 892 0030 AF42     		cmp	r7, r5
 893 0032 01D3     		bcc	.L42
 385:..\..\u8g2\csrc/u8g2_font.c ****     if ( cnt < rem )
 894              		.loc 1 385 0
 895 0034 0695     		str	r5, [sp, #24]
 896 0036 00E0     		b	.L37
 897              	.L42:
 387:..\..\u8g2\csrc/u8g2_font.c ****     
 898              		.loc 1 387 0
 899 0038 0697     		str	r7, [sp, #24]
 900              	.L37:
 901              	.LVL132:
 394:..\..\u8g2\csrc/u8g2_font.c ****     y = decode->target_y;
 902              		.loc 1 394 0
 903 003a 2300     		movs	r3, r4
 904 003c 5033     		adds	r3, r3, #80
 905 003e 1879     		ldrb	r0, [r3, #4]
 906              	.LVL133:
 395:..\..\u8g2\csrc/u8g2_font.c **** 
 907              		.loc 1 395 0
 908 0040 5A79     		ldrb	r2, [r3, #5]
 909 0042 9346     		mov	fp, r2
 910              	.LVL134:
 399:..\..\u8g2\csrc/u8g2_font.c ****     y = u8g2_add_vector_y(y, lx, ly, decode->dir);
 911              		.loc 1 399 0
 912 0044 5246     		mov	r2, r10
 913 0046 6946     		mov	r1, sp
 914 0048 0A73     		strb	r2, [r1, #12]
 915 004a 6A46     		mov	r2, sp
 916 004c 0C21     		movs	r1, #12
 917 004e 5156     		ldrsb	r1, [r2, r1]
 918 0050 72B2     		sxtb	r2, r6
 919 0052 9B7B     		ldrb	r3, [r3, #14]
 920 0054 0393     		str	r3, [sp, #12]
 921 0056 0492     		str	r2, [sp, #16]
 922 0058 0591     		str	r1, [sp, #20]
 923 005a FFF7FEFF 		bl	u8g2_add_vector_x
 924              	.LVL135:
 925 005e 0790     		str	r0, [sp, #28]
 926              	.LVL136:
 400:..\..\u8g2\csrc/u8g2_font.c **** #else
 927              		.loc 1 400 0
ARM GAS  C:\Users\arh\AppData\Local\Temp\cc6sEv7h.s 			page 36


 928 0060 039B     		ldr	r3, [sp, #12]
 929 0062 049A     		ldr	r2, [sp, #16]
 930 0064 0599     		ldr	r1, [sp, #20]
 931 0066 5846     		mov	r0, fp
 932 0068 FFF7FEFF 		bl	u8g2_add_vector_y
 933              	.LVL137:
 407:..\..\u8g2\csrc/u8g2_font.c ****     {
 934              		.loc 1 407 0
 935 006c 4346     		mov	r3, r8
 936 006e 002B     		cmp	r3, #0
 937 0070 0DD0     		beq	.L38
 409:..\..\u8g2\csrc/u8g2_font.c ****       u8g2_DrawHVLine(u8g2, 
 938              		.loc 1 409 0
 939 0072 2300     		movs	r3, r4
 940 0074 5033     		adds	r3, r3, #80
 941 0076 1A7B     		ldrb	r2, [r3, #12]
 942 0078 7C23     		movs	r3, #124
 943 007a E254     		strb	r2, [r4, r3]
 410:..\..\u8g2\csrc/u8g2_font.c **** 	x, 
 944              		.loc 1 410 0
 945 007c 039B     		ldr	r3, [sp, #12]
 946 007e 0093     		str	r3, [sp]
 947 0080 069B     		ldr	r3, [sp, #24]
 948 0082 0200     		movs	r2, r0
 949 0084 0799     		ldr	r1, [sp, #28]
 950 0086 2000     		movs	r0, r4
 951              	.LVL138:
 952 0088 FFF7FEFF 		bl	u8g2_DrawHVLine
 953              	.LVL139:
 954 008c 11E0     		b	.L39
 955              	.LVL140:
 956              	.L38:
 421:..\..\u8g2\csrc/u8g2_font.c ****     {
 957              		.loc 1 421 0
 958 008e 2300     		movs	r3, r4
 959 0090 5033     		adds	r3, r3, #80
 960 0092 DB7A     		ldrb	r3, [r3, #11]
 961 0094 002B     		cmp	r3, #0
 962 0096 0CD1     		bne	.L39
 423:..\..\u8g2\csrc/u8g2_font.c ****       u8g2_DrawHVLine(u8g2, 
 963              		.loc 1 423 0
 964 0098 2300     		movs	r3, r4
 965 009a 5033     		adds	r3, r3, #80
 966 009c 5A7B     		ldrb	r2, [r3, #13]
 967 009e 7C23     		movs	r3, #124
 968 00a0 E254     		strb	r2, [r4, r3]
 424:..\..\u8g2\csrc/u8g2_font.c **** 	x, 
 969              		.loc 1 424 0
 970 00a2 039B     		ldr	r3, [sp, #12]
 971 00a4 0093     		str	r3, [sp]
 972 00a6 069B     		ldr	r3, [sp, #24]
 973 00a8 0200     		movs	r2, r0
 974 00aa 0799     		ldr	r1, [sp, #28]
 975 00ac 2000     		movs	r0, r4
 976              	.LVL141:
 977 00ae FFF7FEFF 		bl	u8g2_DrawHVLine
 978              	.LVL142:
ARM GAS  C:\Users\arh\AppData\Local\Temp\cc6sEv7h.s 			page 37


 979              	.L39:
 437:..\..\u8g2\csrc/u8g2_font.c ****       break;
 980              		.loc 1 437 0
 981 00b2 AF42     		cmp	r7, r5
 982 00b4 06D3     		bcc	.L40
 439:..\..\u8g2\csrc/u8g2_font.c ****     lx = 0;
 983              		.loc 1 439 0
 984 00b6 7D1B     		subs	r5, r7, r5
 985              	.LVL143:
 986 00b8 EFB2     		uxtb	r7, r5
 987              	.LVL144:
 441:..\..\u8g2\csrc/u8g2_font.c ****   }
 988              		.loc 1 441 0
 989 00ba 0136     		adds	r6, r6, #1
 990              	.LVL145:
 991 00bc F6B2     		uxtb	r6, r6
 992              	.LVL146:
 440:..\..\u8g2\csrc/u8g2_font.c ****     ly++;
 993              		.loc 1 440 0
 994 00be 0023     		movs	r3, #0
 995 00c0 9A46     		mov	r10, r3
 442:..\..\u8g2\csrc/u8g2_font.c ****   lx += cnt;
 996              		.loc 1 442 0
 997 00c2 AFE7     		b	.L41
 998              	.LVL147:
 999              	.L40:
 1000 00c4 5646     		mov	r6, r10
 1001              	.LVL148:
 1002 00c6 3B00     		movs	r3, r7
 1003 00c8 2700     		movs	r7, r4
 1004              	.LVL149:
 443:..\..\u8g2\csrc/u8g2_font.c ****   
 1005              		.loc 1 443 0
 1006 00ca 9A19     		adds	r2, r3, r6
 1007              	.LVL150:
 445:..\..\u8g2\csrc/u8g2_font.c ****   decode->y = ly;
 1008              		.loc 1 445 0
 1009 00cc 3B00     		movs	r3, r7
 1010 00ce 5033     		adds	r3, r3, #80
 1011 00d0 9A71     		strb	r2, [r3, #6]
 446:..\..\u8g2\csrc/u8g2_font.c ****   
 1012              		.loc 1 446 0
 1013 00d2 6A46     		mov	r2, sp
 1014              	.LVL151:
 1015 00d4 127C     		ldrb	r2, [r2, #16]
 1016 00d6 DA71     		strb	r2, [r3, #7]
 448:..\..\u8g2\csrc/u8g2_font.c **** 
 1017              		.loc 1 448 0
 1018 00d8 08B0     		add	sp, sp, #32
 1019              		@ sp needed
 1020              	.LVL152:
 1021              	.LVL153:
 1022              	.LVL154:
 1023 00da 1CBC     		pop	{r2, r3, r4}
 1024 00dc 9046     		mov	r8, r2
 1025 00de 9A46     		mov	r10, r3
 1026 00e0 A346     		mov	fp, r4
ARM GAS  C:\Users\arh\AppData\Local\Temp\cc6sEv7h.s 			page 38


 1027 00e2 F0BD     		pop	{r4, r5, r6, r7, pc}
 1028              		.cfi_endproc
 1029              	.LFE13:
 1030              		.size	u8g2_font_decode_len, .-u8g2_font_decode_len
 1031              		.section	.text.u8g2_font_decode_glyph,"ax",%progbits
 1032              		.align	2
 1033              		.global	u8g2_font_decode_glyph
 1034              		.code	16
 1035              		.thumb_func
 1036              		.type	u8g2_font_decode_glyph, %function
 1037              	u8g2_font_decode_glyph:
 1038              	.LFB15:
 485:..\..\u8g2\csrc/u8g2_font.c ****   uint8_t a, b;
 1039              		.loc 1 485 0
 1040              		.cfi_startproc
 1041              		@ args = 0, pretend = 0, frame = 16
 1042              		@ frame_needed = 0, uses_anonymous_args = 0
 1043              	.LVL155:
 1044 0000 F0B5     		push	{r4, r5, r6, r7, lr}
 1045              		.cfi_def_cfa_offset 20
 1046              		.cfi_offset 4, -20
 1047              		.cfi_offset 5, -16
 1048              		.cfi_offset 6, -12
 1049              		.cfi_offset 7, -8
 1050              		.cfi_offset 14, -4
 1051 0002 5F46     		mov	r7, fp
 1052 0004 5646     		mov	r6, r10
 1053 0006 4D46     		mov	r5, r9
 1054 0008 4446     		mov	r4, r8
 1055 000a F0B4     		push	{r4, r5, r6, r7}
 1056              		.cfi_def_cfa_offset 36
 1057              		.cfi_offset 8, -36
 1058              		.cfi_offset 9, -32
 1059              		.cfi_offset 10, -28
 1060              		.cfi_offset 11, -24
 1061 000c 87B0     		sub	sp, sp, #28
 1062              		.cfi_def_cfa_offset 64
 1063 000e 0400     		movs	r4, r0
 490:..\..\u8g2\csrc/u8g2_font.c ****     
 1064              		.loc 1 490 0
 1065 0010 0700     		movs	r7, r0
 1066 0012 5037     		adds	r7, r7, #80
 1067              	.LVL156:
 492:..\..\u8g2\csrc/u8g2_font.c ****   h = u8g2->font_decode.glyph_height;
 1068              		.loc 1 492 0
 1069 0014 FFF7FEFF 		bl	u8g2_font_setup_decode
 1070              	.LVL157:
 493:..\..\u8g2\csrc/u8g2_font.c ****   
 1071              		.loc 1 493 0
 1072 0018 5923     		movs	r3, #89
 1073 001a E356     		ldrsb	r3, [r4, r3]
 1074 001c 9846     		mov	r8, r3
 1075              	.LVL158:
 495:..\..\u8g2\csrc/u8g2_font.c ****   y = u8g2_font_decode_get_signed_bits(decode, u8g2->font_info.bits_per_char_y);
 1076              		.loc 1 495 0
 1077 001e 6623     		movs	r3, #102
 1078 0020 E15C     		ldrb	r1, [r4, r3]
ARM GAS  C:\Users\arh\AppData\Local\Temp\cc6sEv7h.s 			page 39


 1079 0022 3800     		movs	r0, r7
 1080 0024 FFF7FEFF 		bl	u8g2_font_decode_get_signed_bits
 1081              	.LVL159:
 1082 0028 0290     		str	r0, [sp, #8]
 1083              	.LVL160:
 496:..\..\u8g2\csrc/u8g2_font.c ****   d = u8g2_font_decode_get_signed_bits(decode, u8g2->font_info.bits_per_delta_x);
 1084              		.loc 1 496 0
 1085 002a 6723     		movs	r3, #103
 1086 002c E15C     		ldrb	r1, [r4, r3]
 1087 002e 3800     		movs	r0, r7
 1088 0030 FFF7FEFF 		bl	u8g2_font_decode_get_signed_bits
 1089              	.LVL161:
 1090 0034 0500     		movs	r5, r0
 1091              	.LVL162:
 497:..\..\u8g2\csrc/u8g2_font.c ****   
 1092              		.loc 1 497 0
 1093 0036 6823     		movs	r3, #104
 1094 0038 E15C     		ldrb	r1, [r4, r3]
 1095 003a 3800     		movs	r0, r7
 1096 003c FFF7FEFF 		bl	u8g2_font_decode_get_signed_bits
 1097              	.LVL163:
 1098 0040 0390     		str	r0, [sp, #12]
 1099              	.LVL164:
 499:..\..\u8g2\csrc/u8g2_font.c ****   {
 1100              		.loc 1 499 0
 1101 0042 0823     		movs	r3, #8
 1102 0044 FB56     		ldrsb	r3, [r7, r3]
 1103 0046 9B46     		mov	fp, r3
 1104 0048 002B     		cmp	r3, #0
 1105 004a 00DC     		bgt	.LCB969
 1106 004c 85E0     		b	.L44	@long jump
 1107              	.LCB969:
 502:..\..\u8g2\csrc/u8g2_font.c ****     decode->target_y = u8g2_add_vector_y(decode->target_y, x, -(h+y), decode->dir);
 1108              		.loc 1 502 0
 1109 004e 4346     		mov	r3, r8
 1110 0050 6A46     		mov	r2, sp
 1111 0052 1374     		strb	r3, [r2, #16]
 1112 0054 137C     		ldrb	r3, [r2, #16]
 1113 0056 9A46     		mov	r10, r3
 1114 0058 5544     		add	r5, r5, r10
 1115              	.LVL165:
 1116 005a 6D42     		rsbs	r5, r5, #0
 1117 005c 6BB2     		sxtb	r3, r5
 1118 005e 1A00     		movs	r2, r3
 1119 0060 BD7B     		ldrb	r5, [r7, #14]
 1120 0062 3879     		ldrb	r0, [r7, #4]
 1121 0064 2B00     		movs	r3, r5
 1122 0066 0592     		str	r2, [sp, #20]
 1123 0068 0299     		ldr	r1, [sp, #8]
 1124 006a FFF7FEFF 		bl	u8g2_add_vector_x
 1125              	.LVL166:
 1126 006e 8146     		mov	r9, r0
 1127 0070 0490     		str	r0, [sp, #16]
 1128 0072 3871     		strb	r0, [r7, #4]
 503:..\..\u8g2\csrc/u8g2_font.c **** #else
 1129              		.loc 1 503 0
 1130 0074 7879     		ldrb	r0, [r7, #5]
ARM GAS  C:\Users\arh\AppData\Local\Temp\cc6sEv7h.s 			page 40


 1131 0076 2B00     		movs	r3, r5
 1132 0078 059A     		ldr	r2, [sp, #20]
 1133 007a 0299     		ldr	r1, [sp, #8]
 1134 007c FFF7FEFF 		bl	u8g2_add_vector_y
 1135              	.LVL167:
 1136 0080 0200     		movs	r2, r0
 1137 0082 7871     		strb	r0, [r7, #5]
 1138              	.LVL168:
 1139              	.LBB3:
 519:..\..\u8g2\csrc/u8g2_font.c ****       {
 1140              		.loc 1 519 0
 1141 0084 012D     		cmp	r5, #1
 1142 0086 0CD0     		beq	.L46
 1143 0088 002D     		cmp	r5, #0
 1144 008a 04D0     		beq	.L47
 1145 008c 022D     		cmp	r5, #2
 1146 008e 14D0     		beq	.L48
 1147 0090 032D     		cmp	r5, #3
 1148 0092 23D0     		beq	.L49
 1149 0094 2DE0     		b	.L53
 1150              	.L47:
 522:..\..\u8g2\csrc/u8g2_font.c **** 	    y1 += h;
 1151              		.loc 1 522 0
 1152 0096 4E46     		mov	r6, r9
 1153 0098 5E44     		add	r6, r6, fp
 1154 009a F3B2     		uxtb	r3, r6
 1155              	.LVL169:
 523:..\..\u8g2\csrc/u8g2_font.c **** 	    break;
 1156              		.loc 1 523 0
 1157 009c 5044     		add	r0, r0, r10
 1158              	.LVL170:
 1159 009e C0B2     		uxtb	r0, r0
 1160              	.LVL171:
 524:..\..\u8g2\csrc/u8g2_font.c **** 	case 1:
 1161              		.loc 1 524 0
 1162 00a0 28E0     		b	.L45
 1163              	.LVL172:
 1164              	.L46:
 526:..\..\u8g2\csrc/u8g2_font.c **** 	    x0++;	/* shift down, because of assymetric boundaries for the interseciton test */
 1165              		.loc 1 526 0
 1166 00a2 4B46     		mov	r3, r9
 1167 00a4 5146     		mov	r1, r10
 1168 00a6 591A     		subs	r1, r3, r1
 1169 00a8 C9B2     		uxtb	r1, r1
 1170              	.LVL173:
 527:..\..\u8g2\csrc/u8g2_font.c **** 	    x1++;
 1171              		.loc 1 527 0
 1172 00aa 0131     		adds	r1, r1, #1
 1173              	.LVL174:
 528:..\..\u8g2\csrc/u8g2_font.c **** 	    y1 += decode->glyph_width;
 1174              		.loc 1 528 0
 1175 00ac 5E1C     		adds	r6, r3, #1
 1176 00ae F3B2     		uxtb	r3, r6
 1177              	.LVL175:
 529:..\..\u8g2\csrc/u8g2_font.c **** 	    break;
 1178              		.loc 1 529 0
 1179 00b0 5844     		add	r0, r0, fp
ARM GAS  C:\Users\arh\AppData\Local\Temp\cc6sEv7h.s 			page 41


 1180              	.LVL176:
 1181 00b2 C0B2     		uxtb	r0, r0
 1182              	.LVL177:
 527:..\..\u8g2\csrc/u8g2_font.c **** 	    x1++;
 1183              		.loc 1 527 0
 1184 00b4 C9B2     		uxtb	r1, r1
 1185 00b6 0491     		str	r1, [sp, #16]
 530:..\..\u8g2\csrc/u8g2_font.c **** 	case 2:
 1186              		.loc 1 530 0
 1187 00b8 1CE0     		b	.L45
 1188              	.LVL178:
 1189              	.L48:
 532:..\..\u8g2\csrc/u8g2_font.c **** 	    x0++;	/* shift down, because of assymetric boundaries for the interseciton test */
 1190              		.loc 1 532 0
 1191 00ba 4B46     		mov	r3, r9
 1192 00bc 5A46     		mov	r2, fp
 1193 00be 991A     		subs	r1, r3, r2
 1194 00c0 C9B2     		uxtb	r1, r1
 1195              	.LVL179:
 533:..\..\u8g2\csrc/u8g2_font.c **** 	    x1++;
 1196              		.loc 1 533 0
 1197 00c2 0131     		adds	r1, r1, #1
 1198              	.LVL180:
 534:..\..\u8g2\csrc/u8g2_font.c **** 	    y0 -= h;
 1199              		.loc 1 534 0
 1200 00c4 5E1C     		adds	r6, r3, #1
 1201 00c6 F3B2     		uxtb	r3, r6
 1202              	.LVL181:
 535:..\..\u8g2\csrc/u8g2_font.c **** 	    y0++;	/* shift down, because of assymetric boundaries for the interseciton test */
 1203              		.loc 1 535 0
 1204 00c8 5246     		mov	r2, r10
 1205 00ca 821A     		subs	r2, r0, r2
 1206 00cc D2B2     		uxtb	r2, r2
 1207              	.LVL182:
 536:..\..\u8g2\csrc/u8g2_font.c **** 	    y1++;
 1208              		.loc 1 536 0
 1209 00ce 0132     		adds	r2, r2, #1
 1210              	.LVL183:
 537:..\..\u8g2\csrc/u8g2_font.c **** 	    break;	  
 1211              		.loc 1 537 0
 1212 00d0 0130     		adds	r0, r0, #1
 1213              	.LVL184:
 1214 00d2 C0B2     		uxtb	r0, r0
 1215              	.LVL185:
 536:..\..\u8g2\csrc/u8g2_font.c **** 	    y1++;
 1216              		.loc 1 536 0
 1217 00d4 D2B2     		uxtb	r2, r2
 533:..\..\u8g2\csrc/u8g2_font.c **** 	    x1++;
 1218              		.loc 1 533 0
 1219 00d6 C9B2     		uxtb	r1, r1
 1220 00d8 0491     		str	r1, [sp, #16]
 538:..\..\u8g2\csrc/u8g2_font.c **** 	case 3:
 1221              		.loc 1 538 0
 1222 00da 0BE0     		b	.L45
 1223              	.LVL186:
 1224              	.L49:
 540:..\..\u8g2\csrc/u8g2_font.c **** 	    y0 -= decode->glyph_width;
ARM GAS  C:\Users\arh\AppData\Local\Temp\cc6sEv7h.s 			page 42


 1225              		.loc 1 540 0
 1226 00dc 5646     		mov	r6, r10
 1227 00de 4E44     		add	r6, r6, r9
 1228 00e0 F3B2     		uxtb	r3, r6
 1229              	.LVL187:
 541:..\..\u8g2\csrc/u8g2_font.c **** 	    y0++;	/* shift down, because of assymetric boundaries for the interseciton test */
 1230              		.loc 1 541 0
 1231 00e2 5A46     		mov	r2, fp
 1232 00e4 821A     		subs	r2, r0, r2
 1233 00e6 D2B2     		uxtb	r2, r2
 1234              	.LVL188:
 542:..\..\u8g2\csrc/u8g2_font.c **** 	    y1++;
 1235              		.loc 1 542 0
 1236 00e8 0132     		adds	r2, r2, #1
 1237              	.LVL189:
 543:..\..\u8g2\csrc/u8g2_font.c **** 	    break;	  
 1238              		.loc 1 543 0
 1239 00ea 0130     		adds	r0, r0, #1
 1240              	.LVL190:
 1241 00ec C0B2     		uxtb	r0, r0
 1242              	.LVL191:
 542:..\..\u8g2\csrc/u8g2_font.c **** 	    y1++;
 1243              		.loc 1 542 0
 1244 00ee D2B2     		uxtb	r2, r2
 544:..\..\u8g2\csrc/u8g2_font.c ****       }
 1245              		.loc 1 544 0
 1246 00f0 00E0     		b	.L45
 1247              	.LVL192:
 1248              	.L53:
 515:..\..\u8g2\csrc/u8g2_font.c ****       y1 = y0;
 1249              		.loc 1 515 0
 1250 00f2 4B46     		mov	r3, r9
 1251              	.LVL193:
 1252              	.L45:
 551:..\..\u8g2\csrc/u8g2_font.c **** 	return d;
 1253              		.loc 1 551 0
 1254 00f4 0090     		str	r0, [sp]
 1255 00f6 0499     		ldr	r1, [sp, #16]
 1256 00f8 2000     		movs	r0, r4
 1257              	.LVL194:
 1258 00fa FFF7FEFF 		bl	u8g2_IsIntersection
 1259              	.LVL195:
 1260 00fe 0028     		cmp	r0, #0
 1261 0100 2BD0     		beq	.L44
 1262              	.LBE3:
 557:..\..\u8g2\csrc/u8g2_font.c ****     decode->y = 0;
 1263              		.loc 1 557 0
 1264 0102 2300     		movs	r3, r4
 1265 0104 5033     		adds	r3, r3, #80
 1266 0106 0022     		movs	r2, #0
 1267 0108 9A71     		strb	r2, [r3, #6]
 558:..\..\u8g2\csrc/u8g2_font.c ****     
 1268              		.loc 1 558 0
 1269 010a DA71     		strb	r2, [r3, #7]
 1270              	.L51:
 563:..\..\u8g2\csrc/u8g2_font.c ****       b = u8g2_font_decode_get_unsigned_bits(decode, u8g2->font_info.bits_per_1);
 1271              		.loc 1 563 0
ARM GAS  C:\Users\arh\AppData\Local\Temp\cc6sEv7h.s 			page 43


 1272 010c 6223     		movs	r3, #98
 1273 010e E15C     		ldrb	r1, [r4, r3]
 1274 0110 3800     		movs	r0, r7
 1275 0112 FFF7FEFF 		bl	u8g2_font_decode_get_unsigned_bits
 1276              	.LVL196:
 1277 0116 0600     		movs	r6, r0
 1278              	.LVL197:
 564:..\..\u8g2\csrc/u8g2_font.c ****       do
 1279              		.loc 1 564 0
 1280 0118 6323     		movs	r3, #99
 1281 011a E15C     		ldrb	r1, [r4, r3]
 1282 011c 3800     		movs	r0, r7
 1283              	.LVL198:
 1284 011e FFF7FEFF 		bl	u8g2_font_decode_get_unsigned_bits
 1285              	.LVL199:
 1286 0122 0500     		movs	r5, r0
 1287              	.LVL200:
 1288              	.L50:
 567:..\..\u8g2\csrc/u8g2_font.c **** 	u8g2_font_decode_len(u8g2, b, 1);
 1289              		.loc 1 567 0 discriminator 1
 1290 0124 0022     		movs	r2, #0
 1291 0126 3100     		movs	r1, r6
 1292 0128 2000     		movs	r0, r4
 1293 012a FFF7FEFF 		bl	u8g2_font_decode_len
 1294              	.LVL201:
 568:..\..\u8g2\csrc/u8g2_font.c ****       } while( u8g2_font_decode_get_unsigned_bits(decode, 1) != 0 );
 1295              		.loc 1 568 0 discriminator 1
 1296 012e 0122     		movs	r2, #1
 1297 0130 2900     		movs	r1, r5
 1298 0132 2000     		movs	r0, r4
 1299 0134 FFF7FEFF 		bl	u8g2_font_decode_len
 1300              	.LVL202:
 569:..\..\u8g2\csrc/u8g2_font.c **** 
 1301              		.loc 1 569 0 discriminator 1
 1302 0138 0121     		movs	r1, #1
 1303 013a 3800     		movs	r0, r7
 1304 013c FFF7FEFF 		bl	u8g2_font_decode_get_unsigned_bits
 1305              	.LVL203:
 1306 0140 0028     		cmp	r0, #0
 1307 0142 EFD1     		bne	.L50
 571:..\..\u8g2\csrc/u8g2_font.c **** 	break;
 1308              		.loc 1 571 0
 1309 0144 2300     		movs	r3, r4
 1310 0146 5033     		adds	r3, r3, #80
 1311 0148 DB79     		ldrb	r3, [r3, #7]
 1312 014a 5BB2     		sxtb	r3, r3
 1313 014c 9845     		cmp	r8, r3
 1314 014e DDDC     		bgt	.L51
 576:..\..\u8g2\csrc/u8g2_font.c ****   }
 1315              		.loc 1 576 0
 1316 0150 2300     		movs	r3, r4
 1317 0152 5033     		adds	r3, r3, #80
 1318 0154 1A7B     		ldrb	r2, [r3, #12]
 1319 0156 7C23     		movs	r3, #124
 1320 0158 E254     		strb	r2, [r4, r3]
 1321              	.LVL204:
 1322              	.L44:
ARM GAS  C:\Users\arh\AppData\Local\Temp\cc6sEv7h.s 			page 44


 579:..\..\u8g2\csrc/u8g2_font.c **** 
 1323              		.loc 1 579 0
 1324 015a 0398     		ldr	r0, [sp, #12]
 1325 015c 07B0     		add	sp, sp, #28
 1326              		@ sp needed
 1327              	.LVL205:
 1328              	.LVL206:
 1329              	.LVL207:
 1330 015e 3CBC     		pop	{r2, r3, r4, r5}
 1331 0160 9046     		mov	r8, r2
 1332 0162 9946     		mov	r9, r3
 1333 0164 A246     		mov	r10, r4
 1334 0166 AB46     		mov	fp, r5
 1335 0168 F0BD     		pop	{r4, r5, r6, r7, pc}
 1336              		.cfi_endproc
 1337              	.LFE15:
 1338              		.size	u8g2_font_decode_glyph, .-u8g2_font_decode_glyph
 1339 016a C046     		.section	.text.u8g2_font_get_glyph_data,"ax",%progbits
 1340              		.align	2
 1341              		.global	u8g2_font_get_glyph_data
 1342              		.code	16
 1343              		.thumb_func
 1344              		.type	u8g2_font_get_glyph_data, %function
 1345              	u8g2_font_get_glyph_data:
 1346              	.LFB16:
 590:..\..\u8g2\csrc/u8g2_font.c ****   const uint8_t *font = u8g2->font;
 1347              		.loc 1 590 0
 1348              		.cfi_startproc
 1349              		@ args = 0, pretend = 0, frame = 0
 1350              		@ frame_needed = 0, uses_anonymous_args = 0
 1351              		@ link register save eliminated.
 1352              	.LVL208:
 592:..\..\u8g2\csrc/u8g2_font.c **** 
 1353              		.loc 1 592 0
 1354 0000 826C     		ldr	r2, [r0, #72]
 1355 0002 1732     		adds	r2, r2, #23
 1356              	.LVL209:
 595:..\..\u8g2\csrc/u8g2_font.c ****   {
 1357              		.loc 1 595 0
 1358 0004 FF29     		cmp	r1, #255
 1359 0006 14D8     		bhi	.L55
 597:..\..\u8g2\csrc/u8g2_font.c ****     {
 1360              		.loc 1 597 0
 1361 0008 6029     		cmp	r1, #96
 1362 000a 03D9     		bls	.L56
 599:..\..\u8g2\csrc/u8g2_font.c ****     }
 1363              		.loc 1 599 0
 1364 000c 7423     		movs	r3, #116
 1365 000e C35A     		ldrh	r3, [r0, r3]
 1366 0010 D218     		adds	r2, r2, r3
 1367              	.LVL210:
 1368 0012 04E0     		b	.L60
 1369              	.L56:
 601:..\..\u8g2\csrc/u8g2_font.c ****     {
 1370              		.loc 1 601 0
 1371 0014 4029     		cmp	r1, #64
 1372 0016 02D9     		bls	.L60
ARM GAS  C:\Users\arh\AppData\Local\Temp\cc6sEv7h.s 			page 45


 603:..\..\u8g2\csrc/u8g2_font.c ****     }
 1373              		.loc 1 603 0
 1374 0018 7223     		movs	r3, #114
 1375 001a C35A     		ldrh	r3, [r0, r3]
 1376 001c D218     		adds	r2, r2, r3
 1377              	.LVL211:
 1378              	.L60:
 608:..\..\u8g2\csrc/u8g2_font.c **** 	break;
 1379              		.loc 1 608 0
 1380 001e 5378     		ldrb	r3, [r2, #1]
 1381 0020 002B     		cmp	r3, #0
 1382 0022 15D0     		beq	.L63
 610:..\..\u8g2\csrc/u8g2_font.c ****       {
 1383              		.loc 1 610 0
 1384 0024 1078     		ldrb	r0, [r2]
 1385 0026 8142     		cmp	r1, r0
 1386 0028 01D1     		bne	.L59
 612:..\..\u8g2\csrc/u8g2_font.c ****       }
 1387              		.loc 1 612 0
 1388 002a 901C     		adds	r0, r2, #2
 1389 002c 13E0     		b	.L58
 1390              	.L59:
 614:..\..\u8g2\csrc/u8g2_font.c ****     }
 1391              		.loc 1 614 0
 1392 002e D218     		adds	r2, r2, r3
 1393              	.LVL212:
 615:..\..\u8g2\csrc/u8g2_font.c ****   }
 1394              		.loc 1 615 0
 1395 0030 F5E7     		b	.L60
 1396              	.LVL213:
 1397              	.L55:
 1398              	.LBB4:
 621:..\..\u8g2\csrc/u8g2_font.c ****     for(;;)
 1399              		.loc 1 621 0
 1400 0032 7623     		movs	r3, #118
 1401 0034 C35A     		ldrh	r3, [r0, r3]
 1402 0036 D018     		adds	r0, r2, r3
 1403              	.LVL214:
 1404              	.L62:
 624:..\..\u8g2\csrc/u8g2_font.c ****       e <<= 8;
 1405              		.loc 1 624 0
 1406 0038 0378     		ldrb	r3, [r0]
 1407              	.LVL215:
 625:..\..\u8g2\csrc/u8g2_font.c ****       e |= u8x8_pgm_read( font + 1 );
 1408              		.loc 1 625 0
 1409 003a 1B02     		lsls	r3, r3, #8
 1410              	.LVL216:
 626:..\..\u8g2\csrc/u8g2_font.c ****   
 1411              		.loc 1 626 0
 1412 003c 4278     		ldrb	r2, [r0, #1]
 1413 003e 1343     		orrs	r3, r2
 1414              	.LVL217:
 628:..\..\u8g2\csrc/u8g2_font.c **** 	break;
 1415              		.loc 1 628 0
 1416 0040 08D0     		beq	.L64
 631:..\..\u8g2\csrc/u8g2_font.c ****       {
 1417              		.loc 1 631 0
ARM GAS  C:\Users\arh\AppData\Local\Temp\cc6sEv7h.s 			page 46


 1418 0042 9942     		cmp	r1, r3
 1419 0044 01D1     		bne	.L61
 633:..\..\u8g2\csrc/u8g2_font.c ****       }
 1420              		.loc 1 633 0
 1421 0046 0330     		adds	r0, r0, #3
 1422              	.LVL218:
 1423 0048 05E0     		b	.L58
 1424              	.LVL219:
 1425              	.L61:
 635:..\..\u8g2\csrc/u8g2_font.c ****     }  
 1426              		.loc 1 635 0
 1427 004a 8378     		ldrb	r3, [r0, #2]
 1428              	.LVL220:
 1429 004c C018     		adds	r0, r0, r3
 1430              	.LVL221:
 636:..\..\u8g2\csrc/u8g2_font.c ****   }
 1431              		.loc 1 636 0
 1432 004e F3E7     		b	.L62
 1433              	.LVL222:
 1434              	.L63:
 1435              	.LBE4:
 640:..\..\u8g2\csrc/u8g2_font.c **** }
 1436              		.loc 1 640 0
 1437 0050 0020     		movs	r0, #0
 1438 0052 00E0     		b	.L58
 1439              	.LVL223:
 1440              	.L64:
 1441 0054 0020     		movs	r0, #0
 1442              	.LVL224:
 1443              	.L58:
 641:..\..\u8g2\csrc/u8g2_font.c **** 
 1444              		.loc 1 641 0
 1445              		@ sp needed
 1446 0056 7047     		bx	lr
 1447              		.cfi_endproc
 1448              	.LFE16:
 1449              		.size	u8g2_font_get_glyph_data, .-u8g2_font_get_glyph_data
 1450              		.section	.text.u8g2_font_draw_glyph,"ax",%progbits
 1451              		.align	2
 1452              		.code	16
 1453              		.thumb_func
 1454              		.type	u8g2_font_draw_glyph, %function
 1455              	u8g2_font_draw_glyph:
 1456              	.LFB17:
 644:..\..\u8g2\csrc/u8g2_font.c ****   u8g2_uint_t dx = 0;
 1457              		.loc 1 644 0
 1458              		.cfi_startproc
 1459              		@ args = 0, pretend = 0, frame = 0
 1460              		@ frame_needed = 0, uses_anonymous_args = 0
 1461              	.LVL225:
 1462 0000 10B5     		push	{r4, lr}
 1463              		.cfi_def_cfa_offset 8
 1464              		.cfi_offset 4, -8
 1465              		.cfi_offset 14, -4
 1466 0002 0400     		movs	r4, r0
 1467              	.LVL226:
 646:..\..\u8g2\csrc/u8g2_font.c ****   u8g2->font_decode.target_y = y;
ARM GAS  C:\Users\arh\AppData\Local\Temp\cc6sEv7h.s 			page 47


 1468              		.loc 1 646 0
 1469 0004 5420     		movs	r0, #84
 1470              	.LVL227:
 1471 0006 2154     		strb	r1, [r4, r0]
 647:..\..\u8g2\csrc/u8g2_font.c ****   //u8g2->font_decode.is_transparent = is_transparent; this is already set
 1472              		.loc 1 647 0
 1473 0008 5521     		movs	r1, #85
 1474              	.LVL228:
 1475 000a 6254     		strb	r2, [r4, r1]
 650:..\..\u8g2\csrc/u8g2_font.c ****   if ( glyph_data != NULL )
 1476              		.loc 1 650 0
 1477 000c 1900     		movs	r1, r3
 1478 000e 2000     		movs	r0, r4
 1479              	.LVL229:
 1480 0010 FFF7FEFF 		bl	u8g2_font_get_glyph_data
 1481              	.LVL230:
 651:..\..\u8g2\csrc/u8g2_font.c ****   {
 1482              		.loc 1 651 0
 1483 0014 0028     		cmp	r0, #0
 1484 0016 05D0     		beq	.L67
 653:..\..\u8g2\csrc/u8g2_font.c ****   }
 1485              		.loc 1 653 0
 1486 0018 0100     		movs	r1, r0
 1487 001a 2000     		movs	r0, r4
 1488              	.LVL231:
 1489 001c FFF7FEFF 		bl	u8g2_font_decode_glyph
 1490              	.LVL232:
 1491 0020 C0B2     		uxtb	r0, r0
 1492              	.LVL233:
 1493 0022 00E0     		b	.L66
 1494              	.LVL234:
 1495              	.L67:
 645:..\..\u8g2\csrc/u8g2_font.c ****   u8g2->font_decode.target_x = x;
 1496              		.loc 1 645 0
 1497 0024 0020     		movs	r0, #0
 1498              	.LVL235:
 1499              	.L66:
 656:..\..\u8g2\csrc/u8g2_font.c **** 
 1500              		.loc 1 656 0
 1501              		@ sp needed
 1502              	.LVL236:
 1503 0026 10BD     		pop	{r4, pc}
 1504              		.cfi_endproc
 1505              	.LFE17:
 1506              		.size	u8g2_font_draw_glyph, .-u8g2_font_draw_glyph
 1507              		.section	.text.u8g2_GetGlyphHorizontalProperties,"ax",%progbits
 1508              		.align	2
 1509              		.code	16
 1510              		.thumb_func
 1511              		.type	u8g2_GetGlyphHorizontalProperties, %function
 1512              	u8g2_GetGlyphHorizontalProperties:
 1513              	.LFB41:
 978:..\..\u8g2\csrc/u8g2_font.c **** 
 979:..\..\u8g2\csrc/u8g2_font.c **** void u8g2_SetFontPosCenter(u8g2_t *u8g2)
 980:..\..\u8g2\csrc/u8g2_font.c **** {
 981:..\..\u8g2\csrc/u8g2_font.c ****   u8g2->font_calc_vref = u8g2_font_calc_vref_center;
 982:..\..\u8g2\csrc/u8g2_font.c **** }
ARM GAS  C:\Users\arh\AppData\Local\Temp\cc6sEv7h.s 			page 48


 983:..\..\u8g2\csrc/u8g2_font.c **** 
 984:..\..\u8g2\csrc/u8g2_font.c **** /*===============================================*/
 985:..\..\u8g2\csrc/u8g2_font.c **** 
 986:..\..\u8g2\csrc/u8g2_font.c **** void u8g2_SetFont(u8g2_t *u8g2, const uint8_t  *font)
 987:..\..\u8g2\csrc/u8g2_font.c **** {
 988:..\..\u8g2\csrc/u8g2_font.c ****   if ( u8g2->font != font )
 989:..\..\u8g2\csrc/u8g2_font.c ****   {
 990:..\..\u8g2\csrc/u8g2_font.c ****     u8g2->font = font;
 991:..\..\u8g2\csrc/u8g2_font.c ****     u8g2_read_font_info(&(u8g2->font_info), font);
 992:..\..\u8g2\csrc/u8g2_font.c ****     u8g2_UpdateRefHeight(u8g2);
 993:..\..\u8g2\csrc/u8g2_font.c ****     /* u8g2_SetFontPosBaseline(u8g2); */ /* removed with issue 195 */
 994:..\..\u8g2\csrc/u8g2_font.c ****   }
 995:..\..\u8g2\csrc/u8g2_font.c **** }
 996:..\..\u8g2\csrc/u8g2_font.c **** 
 997:..\..\u8g2\csrc/u8g2_font.c **** /*===============================================*/
 998:..\..\u8g2\csrc/u8g2_font.c **** 
 999:..\..\u8g2\csrc/u8g2_font.c **** /* string calculation is stilll not 100% perfect as it addes the initial string offset to the overa
1000:..\..\u8g2\csrc/u8g2_font.c **** static u8g2_uint_t u8g2_string_width(u8g2_t *u8g2, const char *str) U8G2_NOINLINE;
1001:..\..\u8g2\csrc/u8g2_font.c **** static u8g2_uint_t u8g2_string_width(u8g2_t *u8g2, const char *str)
1002:..\..\u8g2\csrc/u8g2_font.c **** {
1003:..\..\u8g2\csrc/u8g2_font.c ****   uint16_t e;
1004:..\..\u8g2\csrc/u8g2_font.c ****   u8g2_uint_t  w, dx;
1005:..\..\u8g2\csrc/u8g2_font.c ****   
1006:..\..\u8g2\csrc/u8g2_font.c ****   u8g2->font_decode.glyph_width = 0;
1007:..\..\u8g2\csrc/u8g2_font.c ****   u8x8_utf8_init(u8g2_GetU8x8(u8g2));
1008:..\..\u8g2\csrc/u8g2_font.c ****   
1009:..\..\u8g2\csrc/u8g2_font.c ****   /* reset the total width to zero, this will be expanded during calculation */
1010:..\..\u8g2\csrc/u8g2_font.c ****   w = 0;
1011:..\..\u8g2\csrc/u8g2_font.c ****   dx = 0;
1012:..\..\u8g2\csrc/u8g2_font.c **** 
1013:..\..\u8g2\csrc/u8g2_font.c ****   // printf("str=<%s>\n", str);
1014:..\..\u8g2\csrc/u8g2_font.c **** 	
1015:..\..\u8g2\csrc/u8g2_font.c ****   for(;;)
1016:..\..\u8g2\csrc/u8g2_font.c ****   {
1017:..\..\u8g2\csrc/u8g2_font.c ****     e = u8g2->u8x8.next_cb(u8g2_GetU8x8(u8g2), (uint8_t)*str);
1018:..\..\u8g2\csrc/u8g2_font.c ****     if ( e == 0x0ffff )
1019:..\..\u8g2\csrc/u8g2_font.c ****       break;
1020:..\..\u8g2\csrc/u8g2_font.c ****     str++;
1021:..\..\u8g2\csrc/u8g2_font.c ****     if ( e != 0x0fffe )
1022:..\..\u8g2\csrc/u8g2_font.c ****     {
1023:..\..\u8g2\csrc/u8g2_font.c ****       dx = u8g2_GetGlyphWidth(u8g2, e);		/* delta x value of the glyph */
1024:..\..\u8g2\csrc/u8g2_font.c ****       w += dx;
1025:..\..\u8g2\csrc/u8g2_font.c ****     }
1026:..\..\u8g2\csrc/u8g2_font.c ****   }
1027:..\..\u8g2\csrc/u8g2_font.c ****   
1028:..\..\u8g2\csrc/u8g2_font.c ****   /* adjust the last glyph, check for issue #16: do not adjust if width is 0 */
1029:..\..\u8g2\csrc/u8g2_font.c ****   if ( u8g2->font_decode.glyph_width != 0 )
1030:..\..\u8g2\csrc/u8g2_font.c ****   {
1031:..\..\u8g2\csrc/u8g2_font.c ****     w -= dx;
1032:..\..\u8g2\csrc/u8g2_font.c ****     w += u8g2->font_decode.glyph_width;  /* the real pixel width of the glyph, sideeffect of GetGly
1033:..\..\u8g2\csrc/u8g2_font.c ****     /* issue #46: we have to add the x offset also */
1034:..\..\u8g2\csrc/u8g2_font.c ****     w += u8g2->glyph_x_offset;	/* this value is set as a side effect of u8g2_GetGlyphWidth() */
1035:..\..\u8g2\csrc/u8g2_font.c ****   }
1036:..\..\u8g2\csrc/u8g2_font.c ****   // printf("w=%d \n", w);
1037:..\..\u8g2\csrc/u8g2_font.c ****   
1038:..\..\u8g2\csrc/u8g2_font.c ****   return w;  
1039:..\..\u8g2\csrc/u8g2_font.c **** }
ARM GAS  C:\Users\arh\AppData\Local\Temp\cc6sEv7h.s 			page 49


1040:..\..\u8g2\csrc/u8g2_font.c **** 
1041:..\..\u8g2\csrc/u8g2_font.c **** static void u8g2_GetGlyphHorizontalProperties(u8g2_t *u8g2, uint16_t requested_encoding, uint8_t *w
1042:..\..\u8g2\csrc/u8g2_font.c **** {
 1514              		.loc 1 1042 0
 1515              		.cfi_startproc
 1516              		@ args = 4, pretend = 0, frame = 0
 1517              		@ frame_needed = 0, uses_anonymous_args = 0
 1518              	.LVL237:
 1519 0000 70B5     		push	{r4, r5, r6, lr}
 1520              		.cfi_def_cfa_offset 16
 1521              		.cfi_offset 4, -16
 1522              		.cfi_offset 5, -12
 1523              		.cfi_offset 6, -8
 1524              		.cfi_offset 14, -4
 1525 0002 0400     		movs	r4, r0
 1526 0004 1500     		movs	r5, r2
 1527 0006 1E00     		movs	r6, r3
1043:..\..\u8g2\csrc/u8g2_font.c ****   const uint8_t *glyph_data = u8g2_font_get_glyph_data(u8g2, requested_encoding);
 1528              		.loc 1 1043 0
 1529 0008 FFF7FEFF 		bl	u8g2_font_get_glyph_data
 1530              	.LVL238:
1044:..\..\u8g2\csrc/u8g2_font.c ****   if ( glyph_data == NULL )
 1531              		.loc 1 1044 0
 1532 000c 0028     		cmp	r0, #0
 1533 000e 1AD0     		beq	.L68
1045:..\..\u8g2\csrc/u8g2_font.c ****     return; 
1046:..\..\u8g2\csrc/u8g2_font.c ****   
1047:..\..\u8g2\csrc/u8g2_font.c ****   u8g2_font_setup_decode(u8g2, glyph_data);
 1534              		.loc 1 1047 0
 1535 0010 0100     		movs	r1, r0
 1536 0012 2000     		movs	r0, r4
 1537              	.LVL239:
 1538 0014 FFF7FEFF 		bl	u8g2_font_setup_decode
 1539              	.LVL240:
1048:..\..\u8g2\csrc/u8g2_font.c ****   *w = u8g2->font_decode.glyph_width;
 1540              		.loc 1 1048 0
 1541 0018 5823     		movs	r3, #88
 1542 001a E356     		ldrsb	r3, [r4, r3]
 1543 001c 2B70     		strb	r3, [r5]
1049:..\..\u8g2\csrc/u8g2_font.c ****   *ox =  u8g2_font_decode_get_signed_bits(&(u8g2->font_decode), u8g2->font_info.bits_per_char_x);
 1544              		.loc 1 1049 0
 1545 001e 2500     		movs	r5, r4
 1546              	.LVL241:
 1547 0020 5035     		adds	r5, r5, #80
 1548 0022 6623     		movs	r3, #102
 1549 0024 E15C     		ldrb	r1, [r4, r3]
 1550 0026 2800     		movs	r0, r5
 1551 0028 FFF7FEFF 		bl	u8g2_font_decode_get_signed_bits
 1552              	.LVL242:
 1553 002c 3070     		strb	r0, [r6]
1050:..\..\u8g2\csrc/u8g2_font.c ****   u8g2_font_decode_get_signed_bits(&(u8g2->font_decode), u8g2->font_info.bits_per_char_y);
 1554              		.loc 1 1050 0
 1555 002e 6723     		movs	r3, #103
 1556 0030 E15C     		ldrb	r1, [r4, r3]
 1557 0032 2800     		movs	r0, r5
 1558 0034 FFF7FEFF 		bl	u8g2_font_decode_get_signed_bits
 1559              	.LVL243:
ARM GAS  C:\Users\arh\AppData\Local\Temp\cc6sEv7h.s 			page 50


1051:..\..\u8g2\csrc/u8g2_font.c ****   *dx = u8g2_font_decode_get_signed_bits(&(u8g2->font_decode), u8g2->font_info.bits_per_delta_x);
 1560              		.loc 1 1051 0
 1561 0038 6823     		movs	r3, #104
 1562 003a E15C     		ldrb	r1, [r4, r3]
 1563 003c 2800     		movs	r0, r5
 1564 003e FFF7FEFF 		bl	u8g2_font_decode_get_signed_bits
 1565              	.LVL244:
 1566 0042 049B     		ldr	r3, [sp, #16]
 1567 0044 1870     		strb	r0, [r3]
 1568              	.L68:
1052:..\..\u8g2\csrc/u8g2_font.c **** }
 1569              		.loc 1 1052 0
 1570              		@ sp needed
 1571              	.LVL245:
 1572              	.LVL246:
 1573 0046 70BD     		pop	{r4, r5, r6, pc}
 1574              		.cfi_endproc
 1575              	.LFE41:
 1576              		.size	u8g2_GetGlyphHorizontalProperties, .-u8g2_GetGlyphHorizontalProperties
 1577              		.section	.text.u8g2_calculate_exact_string_width,"ax",%progbits
 1578              		.align	2
 1579              		.code	16
 1580              		.thumb_func
 1581              		.type	u8g2_calculate_exact_string_width, %function
 1582              	u8g2_calculate_exact_string_width:
 1583              	.LFB43:
1053:..\..\u8g2\csrc/u8g2_font.c **** 
1054:..\..\u8g2\csrc/u8g2_font.c **** /* u8g compatible GetStrX function */
1055:..\..\u8g2\csrc/u8g2_font.c **** int8_t u8g2_GetStrX(u8g2_t *u8g2, const char *s)
1056:..\..\u8g2\csrc/u8g2_font.c **** {
1057:..\..\u8g2\csrc/u8g2_font.c ****   uint8_t w;
1058:..\..\u8g2\csrc/u8g2_font.c ****   int8_t ox, dx;
1059:..\..\u8g2\csrc/u8g2_font.c ****   u8g2_GetGlyphHorizontalProperties(u8g2, *s, &w, &ox, &dx);
1060:..\..\u8g2\csrc/u8g2_font.c ****   return ox;
1061:..\..\u8g2\csrc/u8g2_font.c **** }
1062:..\..\u8g2\csrc/u8g2_font.c **** 
1063:..\..\u8g2\csrc/u8g2_font.c **** 
1064:..\..\u8g2\csrc/u8g2_font.c **** 
1065:..\..\u8g2\csrc/u8g2_font.c **** static u8g2_uint_t u8g2_calculate_exact_string_width(u8g2_t *u8g2, const char *str)
1066:..\..\u8g2\csrc/u8g2_font.c **** {
 1584              		.loc 1 1066 0
 1585              		.cfi_startproc
 1586              		@ args = 0, pretend = 0, frame = 8
 1587              		@ frame_needed = 0, uses_anonymous_args = 0
 1588              	.LVL247:
 1589 0000 F0B5     		push	{r4, r5, r6, r7, lr}
 1590              		.cfi_def_cfa_offset 20
 1591              		.cfi_offset 4, -20
 1592              		.cfi_offset 5, -16
 1593              		.cfi_offset 6, -12
 1594              		.cfi_offset 7, -8
 1595              		.cfi_offset 14, -4
 1596 0002 85B0     		sub	sp, sp, #20
 1597              		.cfi_def_cfa_offset 40
 1598 0004 0500     		movs	r5, r0
 1599 0006 0C00     		movs	r4, r1
 1600              	.LVL248:
ARM GAS  C:\Users\arh\AppData\Local\Temp\cc6sEv7h.s 			page 51


 1601              	.L71:
1067:..\..\u8g2\csrc/u8g2_font.c **** 
1068:..\..\u8g2\csrc/u8g2_font.c ****   u8g2_uint_t  w;
1069:..\..\u8g2\csrc/u8g2_font.c ****   uint16_t enc;
1070:..\..\u8g2\csrc/u8g2_font.c ****   uint8_t gw; 
1071:..\..\u8g2\csrc/u8g2_font.c ****   int8_t ox, dx;
1072:..\..\u8g2\csrc/u8g2_font.c ****   
1073:..\..\u8g2\csrc/u8g2_font.c ****   /* reset the total minimal width to zero, this will be expanded during calculation */
1074:..\..\u8g2\csrc/u8g2_font.c ****   w = 0;
1075:..\..\u8g2\csrc/u8g2_font.c ****     
1076:..\..\u8g2\csrc/u8g2_font.c ****   
1077:..\..\u8g2\csrc/u8g2_font.c ****   /* check for empty string, width is already 0 */
1078:..\..\u8g2\csrc/u8g2_font.c ****   do
1079:..\..\u8g2\csrc/u8g2_font.c ****   {
1080:..\..\u8g2\csrc/u8g2_font.c ****     enc = u8g2->u8x8.next_cb(u8g2_GetU8x8(u8g2), (uint8_t)*str);
 1602              		.loc 1 1080 0 discriminator 1
 1603 0008 2178     		ldrb	r1, [r4]
 1604 000a 2800     		movs	r0, r5
 1605 000c 6B68     		ldr	r3, [r5, #4]
 1606 000e 9847     		blx	r3
 1607              	.LVL249:
 1608 0010 0100     		movs	r1, r0
 1609              	.LVL250:
1081:..\..\u8g2\csrc/u8g2_font.c ****     str++;
 1610              		.loc 1 1081 0 discriminator 1
 1611 0012 0134     		adds	r4, r4, #1
 1612              	.LVL251:
1082:..\..\u8g2\csrc/u8g2_font.c ****   } while( enc == 0x0fffe );
 1613              		.loc 1 1082 0 discriminator 1
 1614 0014 214B     		ldr	r3, .L78
 1615 0016 9842     		cmp	r0, r3
 1616 0018 F6D0     		beq	.L71
1083:..\..\u8g2\csrc/u8g2_font.c ****   
1084:..\..\u8g2\csrc/u8g2_font.c ****   if ( enc== 0x0ffff )
 1617              		.loc 1 1084 0
 1618 001a 214B     		ldr	r3, .L78+4
 1619 001c 9842     		cmp	r0, r3
 1620 001e 3AD0     		beq	.L77
1085:..\..\u8g2\csrc/u8g2_font.c ****      return w;
1086:..\..\u8g2\csrc/u8g2_font.c ****   
1087:..\..\u8g2\csrc/u8g2_font.c ****   /* get the glyph information of the first char. This must be valid, because we already checked fo
1088:..\..\u8g2\csrc/u8g2_font.c ****   /* if *s is not inside the font, then the cached parameters of the glyph are all zero */
1089:..\..\u8g2\csrc/u8g2_font.c ****   u8g2_GetGlyphHorizontalProperties(u8g2, enc, &gw, &ox, &dx);  
 1621              		.loc 1 1089 0
 1622 0020 0E26     		movs	r6, #14
 1623 0022 6E44     		add	r6, r6, sp
 1624 0024 0D23     		movs	r3, #13
 1625 0026 6B44     		add	r3, r3, sp
 1626 0028 0093     		str	r3, [sp]
 1627 002a 3300     		movs	r3, r6
 1628 002c 0F22     		movs	r2, #15
 1629 002e 6A44     		add	r2, r2, sp
 1630 0030 2800     		movs	r0, r5
 1631              	.LVL252:
 1632 0032 FFF7FEFF 		bl	u8g2_GetGlyphHorizontalProperties
 1633              	.LVL253:
1090:..\..\u8g2\csrc/u8g2_font.c **** 
ARM GAS  C:\Users\arh\AppData\Local\Temp\cc6sEv7h.s 			page 52


1091:..\..\u8g2\csrc/u8g2_font.c ****   /* strlen(s) == 1:       width = width(s[0]) */
1092:..\..\u8g2\csrc/u8g2_font.c ****   /* strlen(s) == 2:       width = - offx(s[0]) + deltax(s[0]) + offx(s[1]) + width(s[1]) */
1093:..\..\u8g2\csrc/u8g2_font.c ****   /* strlen(s) == 3:       width = - offx(s[0]) + deltax(s[0]) + deltax(s[1]) + offx(s[2]) + width(
1094:..\..\u8g2\csrc/u8g2_font.c ****   
1095:..\..\u8g2\csrc/u8g2_font.c ****   /* assume that the string has size 2 or more, than start with negative offset-x */
1096:..\..\u8g2\csrc/u8g2_font.c ****   /* for string with size 1, this will be nullified after the loop */
1097:..\..\u8g2\csrc/u8g2_font.c ****   w = -ox;  
 1634              		.loc 1 1097 0
 1635 0036 3078     		ldrb	r0, [r6]
 1636 0038 4042     		rsbs	r0, r0, #0
 1637 003a C7B2     		uxtb	r7, r0
 1638              	.LVL254:
 1639              	.L73:
1098:..\..\u8g2\csrc/u8g2_font.c ****   for(;;)
1099:..\..\u8g2\csrc/u8g2_font.c ****   {
1100:..\..\u8g2\csrc/u8g2_font.c ****     
1101:..\..\u8g2\csrc/u8g2_font.c ****     /* check and stop if the end of the string is reached */
1102:..\..\u8g2\csrc/u8g2_font.c ****     do
1103:..\..\u8g2\csrc/u8g2_font.c ****     {
1104:..\..\u8g2\csrc/u8g2_font.c ****       enc = u8g2->u8x8.next_cb(u8g2_GetU8x8(u8g2), (uint8_t)*str);
 1640              		.loc 1 1104 0 discriminator 1
 1641 003c 2178     		ldrb	r1, [r4]
 1642 003e 2800     		movs	r0, r5
 1643 0040 6B68     		ldr	r3, [r5, #4]
 1644 0042 9847     		blx	r3
 1645              	.LVL255:
1105:..\..\u8g2\csrc/u8g2_font.c ****       str++;
 1646              		.loc 1 1105 0 discriminator 1
 1647 0044 0134     		adds	r4, r4, #1
 1648              	.LVL256:
1106:..\..\u8g2\csrc/u8g2_font.c ****     } while( enc == 0x0fffe );
 1649              		.loc 1 1106 0 discriminator 1
 1650 0046 154A     		ldr	r2, .L78
 1651 0048 9042     		cmp	r0, r2
 1652 004a F7D0     		beq	.L73
1107:..\..\u8g2\csrc/u8g2_font.c ****     if ( enc== 0x0ffff )
 1653              		.loc 1 1107 0
 1654 004c 144A     		ldr	r2, .L78+4
 1655 004e 9042     		cmp	r0, r2
 1656 0050 0ED0     		beq	.L75
1108:..\..\u8g2\csrc/u8g2_font.c ****       break;
1109:..\..\u8g2\csrc/u8g2_font.c **** 
1110:..\..\u8g2\csrc/u8g2_font.c ****     u8g2_GetGlyphHorizontalProperties(u8g2, enc, &gw, &ox, &dx);  
 1657              		.loc 1 1110 0
 1658 0052 0D26     		movs	r6, #13
 1659 0054 6E44     		add	r6, r6, sp
 1660 0056 0096     		str	r6, [sp]
 1661 0058 0E23     		movs	r3, #14
 1662 005a 6B44     		add	r3, r3, sp
 1663 005c 0F22     		movs	r2, #15
 1664 005e 6A44     		add	r2, r2, sp
 1665 0060 0100     		movs	r1, r0
 1666 0062 2800     		movs	r0, r5
 1667              	.LVL257:
 1668 0064 FFF7FEFF 		bl	u8g2_GetGlyphHorizontalProperties
 1669              	.LVL258:
1111:..\..\u8g2\csrc/u8g2_font.c ****     
ARM GAS  C:\Users\arh\AppData\Local\Temp\cc6sEv7h.s 			page 53


1112:..\..\u8g2\csrc/u8g2_font.c ****     /* if there are still more characters, add the delta to the next glyph */
1113:..\..\u8g2\csrc/u8g2_font.c ****     w += dx;    
 1670              		.loc 1 1113 0
 1671 0068 3078     		ldrb	r0, [r6]
 1672 006a 3818     		adds	r0, r7, r0
 1673 006c C7B2     		uxtb	r7, r0
 1674              	.LVL259:
1114:..\..\u8g2\csrc/u8g2_font.c ****   }
 1675              		.loc 1 1114 0
 1676 006e E5E7     		b	.L73
 1677              	.LVL260:
 1678              	.L75:
1115:..\..\u8g2\csrc/u8g2_font.c ****   
1116:..\..\u8g2\csrc/u8g2_font.c ****   /* finally calculate the width of the last char */
1117:..\..\u8g2\csrc/u8g2_font.c ****   /* here is another exception, if the last char is a black, use the dx value instead */
1118:..\..\u8g2\csrc/u8g2_font.c ****   if ( enc != ' ' )
 1679              		.loc 1 1118 0
 1680 0070 2028     		cmp	r0, #32
 1681 0072 0AD0     		beq	.L76
1119:..\..\u8g2\csrc/u8g2_font.c ****   {
1120:..\..\u8g2\csrc/u8g2_font.c ****     /* if g was not updated in the for loop (strlen() == 1), then the initial offset x gets removed
1121:..\..\u8g2\csrc/u8g2_font.c ****     w += gw;
 1682              		.loc 1 1121 0
 1683 0074 0F23     		movs	r3, #15
 1684 0076 6B44     		add	r3, r3, sp
 1685 0078 1878     		ldrb	r0, [r3]
 1686              	.LVL261:
 1687 007a 3818     		adds	r0, r7, r0
 1688 007c C0B2     		uxtb	r0, r0
 1689              	.LVL262:
1122:..\..\u8g2\csrc/u8g2_font.c ****     w += ox;
 1690              		.loc 1 1122 0
 1691 007e 0E23     		movs	r3, #14
 1692 0080 6B44     		add	r3, r3, sp
 1693 0082 1B78     		ldrb	r3, [r3]
 1694 0084 C018     		adds	r0, r0, r3
 1695              	.LVL263:
 1696 0086 C0B2     		uxtb	r0, r0
 1697              	.LVL264:
 1698 0088 06E0     		b	.L72
 1699              	.LVL265:
 1700              	.L76:
1123:..\..\u8g2\csrc/u8g2_font.c ****   }
1124:..\..\u8g2\csrc/u8g2_font.c ****   else
1125:..\..\u8g2\csrc/u8g2_font.c ****   {
1126:..\..\u8g2\csrc/u8g2_font.c ****     w += dx;
 1701              		.loc 1 1126 0
 1702 008a 0D23     		movs	r3, #13
 1703 008c 6B44     		add	r3, r3, sp
 1704 008e 1878     		ldrb	r0, [r3]
 1705              	.LVL266:
 1706 0090 3818     		adds	r0, r7, r0
 1707 0092 C0B2     		uxtb	r0, r0
 1708              	.LVL267:
 1709 0094 00E0     		b	.L72
 1710              	.LVL268:
 1711              	.L77:
ARM GAS  C:\Users\arh\AppData\Local\Temp\cc6sEv7h.s 			page 54


1085:..\..\u8g2\csrc/u8g2_font.c ****   
 1712              		.loc 1 1085 0
 1713 0096 0020     		movs	r0, #0
 1714              	.LVL269:
 1715              	.L72:
1127:..\..\u8g2\csrc/u8g2_font.c ****   }
1128:..\..\u8g2\csrc/u8g2_font.c ****   
1129:..\..\u8g2\csrc/u8g2_font.c ****   
1130:..\..\u8g2\csrc/u8g2_font.c ****   return w;
1131:..\..\u8g2\csrc/u8g2_font.c **** 	
1132:..\..\u8g2\csrc/u8g2_font.c **** }
 1716              		.loc 1 1132 0
 1717 0098 05B0     		add	sp, sp, #20
 1718              		@ sp needed
 1719              	.LVL270:
 1720              	.LVL271:
 1721 009a F0BD     		pop	{r4, r5, r6, r7, pc}
 1722              	.L79:
 1723              		.align	2
 1724              	.L78:
 1725 009c FEFF0000 		.word	65534
 1726 00a0 FFFF0000 		.word	65535
 1727              		.cfi_endproc
 1728              	.LFE43:
 1729              		.size	u8g2_calculate_exact_string_width, .-u8g2_calculate_exact_string_width
 1730              		.section	.text.u8g2_IsGlyph,"ax",%progbits
 1731              		.align	2
 1732              		.global	u8g2_IsGlyph
 1733              		.code	16
 1734              		.thumb_func
 1735              		.type	u8g2_IsGlyph, %function
 1736              	u8g2_IsGlyph:
 1737              	.LFB18:
 661:..\..\u8g2\csrc/u8g2_font.c ****   /* updated to new code */
 1738              		.loc 1 661 0
 1739              		.cfi_startproc
 1740              		@ args = 0, pretend = 0, frame = 0
 1741              		@ frame_needed = 0, uses_anonymous_args = 0
 1742              	.LVL272:
 1743 0000 10B5     		push	{r4, lr}
 1744              		.cfi_def_cfa_offset 8
 1745              		.cfi_offset 4, -8
 1746              		.cfi_offset 14, -4
 663:..\..\u8g2\csrc/u8g2_font.c ****     return 1;
 1747              		.loc 1 663 0
 1748 0002 FFF7FEFF 		bl	u8g2_font_get_glyph_data
 1749              	.LVL273:
 1750 0006 0028     		cmp	r0, #0
 1751 0008 01D0     		beq	.L82
 664:..\..\u8g2\csrc/u8g2_font.c ****   return 0;
 1752              		.loc 1 664 0
 1753 000a 0120     		movs	r0, #1
 1754 000c 00E0     		b	.L81
 1755              	.L82:
 665:..\..\u8g2\csrc/u8g2_font.c **** }
 1756              		.loc 1 665 0
 1757 000e 0020     		movs	r0, #0
ARM GAS  C:\Users\arh\AppData\Local\Temp\cc6sEv7h.s 			page 55


 1758              	.L81:
 666:..\..\u8g2\csrc/u8g2_font.c **** 
 1759              		.loc 1 666 0
 1760              		@ sp needed
 1761 0010 10BD     		pop	{r4, pc}
 1762              		.cfi_endproc
 1763              	.LFE18:
 1764              		.size	u8g2_IsGlyph, .-u8g2_IsGlyph
 1765 0012 C046     		.section	.text.u8g2_GetGlyphWidth,"ax",%progbits
 1766              		.align	2
 1767              		.global	u8g2_GetGlyphWidth
 1768              		.code	16
 1769              		.thumb_func
 1770              		.type	u8g2_GetGlyphWidth, %function
 1771              	u8g2_GetGlyphWidth:
 1772              	.LFB19:
 670:..\..\u8g2\csrc/u8g2_font.c ****   const uint8_t *glyph_data = u8g2_font_get_glyph_data(u8g2, requested_encoding);
 1773              		.loc 1 670 0
 1774              		.cfi_startproc
 1775              		@ args = 0, pretend = 0, frame = 0
 1776              		@ frame_needed = 0, uses_anonymous_args = 0
 1777              	.LVL274:
 1778 0000 70B5     		push	{r4, r5, r6, lr}
 1779              		.cfi_def_cfa_offset 16
 1780              		.cfi_offset 4, -16
 1781              		.cfi_offset 5, -12
 1782              		.cfi_offset 6, -8
 1783              		.cfi_offset 14, -4
 1784 0002 0400     		movs	r4, r0
 671:..\..\u8g2\csrc/u8g2_font.c ****   if ( glyph_data == NULL )
 1785              		.loc 1 671 0
 1786 0004 FFF7FEFF 		bl	u8g2_font_get_glyph_data
 1787              	.LVL275:
 672:..\..\u8g2\csrc/u8g2_font.c ****     return 0; 
 1788              		.loc 1 672 0
 1789 0008 0028     		cmp	r0, #0
 1790 000a 17D0     		beq	.L85
 675:..\..\u8g2\csrc/u8g2_font.c ****   u8g2->glyph_x_offset = u8g2_font_decode_get_signed_bits(&(u8g2->font_decode), u8g2->font_info.bit
 1791              		.loc 1 675 0
 1792 000c 0100     		movs	r1, r0
 1793 000e 2000     		movs	r0, r4
 1794              	.LVL276:
 1795 0010 FFF7FEFF 		bl	u8g2_font_setup_decode
 1796              	.LVL277:
 676:..\..\u8g2\csrc/u8g2_font.c ****   u8g2_font_decode_get_signed_bits(&(u8g2->font_decode), u8g2->font_info.bits_per_char_y);
 1797              		.loc 1 676 0
 1798 0014 2500     		movs	r5, r4
 1799 0016 5035     		adds	r5, r5, #80
 1800 0018 6623     		movs	r3, #102
 1801 001a E15C     		ldrb	r1, [r4, r3]
 1802 001c 2800     		movs	r0, r5
 1803 001e FFF7FEFF 		bl	u8g2_font_decode_get_signed_bits
 1804              	.LVL278:
 1805 0022 7B23     		movs	r3, #123
 1806 0024 E054     		strb	r0, [r4, r3]
 677:..\..\u8g2\csrc/u8g2_font.c ****   
 1807              		.loc 1 677 0
ARM GAS  C:\Users\arh\AppData\Local\Temp\cc6sEv7h.s 			page 56


 1808 0026 143B     		subs	r3, r3, #20
 1809 0028 E15C     		ldrb	r1, [r4, r3]
 1810 002a 2800     		movs	r0, r5
 1811 002c FFF7FEFF 		bl	u8g2_font_decode_get_signed_bits
 1812              	.LVL279:
 681:..\..\u8g2\csrc/u8g2_font.c **** }
 1813              		.loc 1 681 0
 1814 0030 6823     		movs	r3, #104
 1815 0032 E15C     		ldrb	r1, [r4, r3]
 1816 0034 2800     		movs	r0, r5
 1817 0036 FFF7FEFF 		bl	u8g2_font_decode_get_signed_bits
 1818              	.LVL280:
 1819 003a 00E0     		b	.L84
 1820              	.LVL281:
 1821              	.L85:
 673:..\..\u8g2\csrc/u8g2_font.c ****   
 1822              		.loc 1 673 0
 1823 003c 0020     		movs	r0, #0
 1824              	.LVL282:
 1825              	.L84:
 682:..\..\u8g2\csrc/u8g2_font.c **** 
 1826              		.loc 1 682 0
 1827              		@ sp needed
 1828              	.LVL283:
 1829 003e 70BD     		pop	{r4, r5, r6, pc}
 1830              		.cfi_endproc
 1831              	.LFE19:
 1832              		.size	u8g2_GetGlyphWidth, .-u8g2_GetGlyphWidth
 1833              		.section	.text.u8g2_string_width,"ax",%progbits
 1834              		.align	2
 1835              		.code	16
 1836              		.thumb_func
 1837              		.type	u8g2_string_width, %function
 1838              	u8g2_string_width:
 1839              	.LFB40:
1002:..\..\u8g2\csrc/u8g2_font.c ****   uint16_t e;
 1840              		.loc 1 1002 0
 1841              		.cfi_startproc
 1842              		@ args = 0, pretend = 0, frame = 0
 1843              		@ frame_needed = 0, uses_anonymous_args = 0
 1844              	.LVL284:
 1845 0000 F8B5     		push	{r3, r4, r5, r6, r7, lr}
 1846              		.cfi_def_cfa_offset 24
 1847              		.cfi_offset 3, -24
 1848              		.cfi_offset 4, -20
 1849              		.cfi_offset 5, -16
 1850              		.cfi_offset 6, -12
 1851              		.cfi_offset 7, -8
 1852              		.cfi_offset 14, -4
 1853 0002 0500     		movs	r5, r0
 1854 0004 0C00     		movs	r4, r1
1006:..\..\u8g2\csrc/u8g2_font.c ****   u8x8_utf8_init(u8g2_GetU8x8(u8g2));
 1855              		.loc 1 1006 0
 1856 0006 0022     		movs	r2, #0
 1857 0008 5823     		movs	r3, #88
 1858 000a C254     		strb	r2, [r0, r3]
1007:..\..\u8g2\csrc/u8g2_font.c ****   
ARM GAS  C:\Users\arh\AppData\Local\Temp\cc6sEv7h.s 			page 57


 1859              		.loc 1 1007 0
 1860 000c FFF7FEFF 		bl	u8x8_utf8_init
 1861              	.LVL285:
1011:..\..\u8g2\csrc/u8g2_font.c **** 
 1862              		.loc 1 1011 0
 1863 0010 0027     		movs	r7, #0
1010:..\..\u8g2\csrc/u8g2_font.c ****   dx = 0;
 1864              		.loc 1 1010 0
 1865 0012 0026     		movs	r6, #0
 1866              	.LVL286:
 1867              	.L87:
1017:..\..\u8g2\csrc/u8g2_font.c ****     if ( e == 0x0ffff )
 1868              		.loc 1 1017 0
 1869 0014 2178     		ldrb	r1, [r4]
 1870 0016 2800     		movs	r0, r5
 1871 0018 6B68     		ldr	r3, [r5, #4]
 1872 001a 9847     		blx	r3
 1873              	.LVL287:
1018:..\..\u8g2\csrc/u8g2_font.c ****       break;
 1874              		.loc 1 1018 0
 1875 001c 0E4A     		ldr	r2, .L91
 1876 001e 9042     		cmp	r0, r2
 1877 0020 0BD0     		beq	.L88
1020:..\..\u8g2\csrc/u8g2_font.c ****     if ( e != 0x0fffe )
 1878              		.loc 1 1020 0
 1879 0022 0134     		adds	r4, r4, #1
 1880              	.LVL288:
1021:..\..\u8g2\csrc/u8g2_font.c ****     {
 1881              		.loc 1 1021 0
 1882 0024 0D4A     		ldr	r2, .L91+4
 1883 0026 9042     		cmp	r0, r2
 1884 0028 F4D0     		beq	.L87
1023:..\..\u8g2\csrc/u8g2_font.c ****       w += dx;
 1885              		.loc 1 1023 0
 1886 002a 0100     		movs	r1, r0
 1887 002c 2800     		movs	r0, r5
 1888              	.LVL289:
 1889 002e FFF7FEFF 		bl	u8g2_GetGlyphWidth
 1890              	.LVL290:
 1891 0032 C7B2     		uxtb	r7, r0
 1892              	.LVL291:
1024:..\..\u8g2\csrc/u8g2_font.c ****     }
 1893              		.loc 1 1024 0
 1894 0034 F619     		adds	r6, r6, r7
 1895              	.LVL292:
 1896 0036 F6B2     		uxtb	r6, r6
 1897              	.LVL293:
 1898 0038 ECE7     		b	.L87
 1899              	.LVL294:
 1900              	.L88:
1029:..\..\u8g2\csrc/u8g2_font.c ****   {
 1901              		.loc 1 1029 0
 1902 003a 5823     		movs	r3, #88
 1903 003c EB56     		ldrsb	r3, [r5, r3]
 1904 003e 002B     		cmp	r3, #0
 1905 0040 07D0     		beq	.L90
1031:..\..\u8g2\csrc/u8g2_font.c ****     w += u8g2->font_decode.glyph_width;  /* the real pixel width of the glyph, sideeffect of GetGly
ARM GAS  C:\Users\arh\AppData\Local\Temp\cc6sEv7h.s 			page 58


 1906              		.loc 1 1031 0
 1907 0042 F01B     		subs	r0, r6, r7
 1908              	.LVL295:
 1909 0044 C6B2     		uxtb	r6, r0
 1910              	.LVL296:
1032:..\..\u8g2\csrc/u8g2_font.c ****     /* issue #46: we have to add the x offset also */
 1911              		.loc 1 1032 0
 1912 0046 F618     		adds	r6, r6, r3
 1913              	.LVL297:
 1914 0048 F6B2     		uxtb	r6, r6
 1915              	.LVL298:
1034:..\..\u8g2\csrc/u8g2_font.c ****   }
 1916              		.loc 1 1034 0
 1917 004a 7B23     		movs	r3, #123
 1918 004c EB56     		ldrsb	r3, [r5, r3]
 1919 004e F618     		adds	r6, r6, r3
 1920              	.LVL299:
 1921 0050 F6B2     		uxtb	r6, r6
 1922              	.LVL300:
 1923              	.L90:
1039:..\..\u8g2\csrc/u8g2_font.c **** 
 1924              		.loc 1 1039 0
 1925 0052 3000     		movs	r0, r6
 1926              		@ sp needed
 1927              	.LVL301:
 1928              	.LVL302:
 1929              	.LVL303:
 1930              	.LVL304:
 1931 0054 F8BD     		pop	{r3, r4, r5, r6, r7, pc}
 1932              	.L92:
 1933 0056 C046     		.align	2
 1934              	.L91:
 1935 0058 FFFF0000 		.word	65535
 1936 005c FEFF0000 		.word	65534
 1937              		.cfi_endproc
 1938              	.LFE40:
 1939              		.size	u8g2_string_width, .-u8g2_string_width
 1940              		.section	.text.u8g2_SetFontMode,"ax",%progbits
 1941              		.align	2
 1942              		.global	u8g2_SetFontMode
 1943              		.code	16
 1944              		.thumb_func
 1945              		.type	u8g2_SetFontMode, %function
 1946              	u8g2_SetFontMode:
 1947              	.LFB20:
 693:..\..\u8g2\csrc/u8g2_font.c ****   u8g2->font_decode.is_transparent = is_transparent;		// new font procedures
 1948              		.loc 1 693 0
 1949              		.cfi_startproc
 1950              		@ args = 0, pretend = 0, frame = 0
 1951              		@ frame_needed = 0, uses_anonymous_args = 0
 1952              		@ link register save eliminated.
 1953              	.LVL305:
 694:..\..\u8g2\csrc/u8g2_font.c **** }
 1954              		.loc 1 694 0
 1955 0000 5B23     		movs	r3, #91
 1956 0002 C154     		strb	r1, [r0, r3]
 695:..\..\u8g2\csrc/u8g2_font.c **** 
ARM GAS  C:\Users\arh\AppData\Local\Temp\cc6sEv7h.s 			page 59


 1957              		.loc 1 695 0
 1958              		@ sp needed
 1959 0004 7047     		bx	lr
 1960              		.cfi_endproc
 1961              	.LFE20:
 1962              		.size	u8g2_SetFontMode, .-u8g2_SetFontMode
 1963 0006 C046     		.section	.text.u8g2_DrawGlyph,"ax",%progbits
 1964              		.align	2
 1965              		.global	u8g2_DrawGlyph
 1966              		.code	16
 1967              		.thumb_func
 1968              		.type	u8g2_DrawGlyph, %function
 1969              	u8g2_DrawGlyph:
 1970              	.LFB21:
 698:..\..\u8g2\csrc/u8g2_font.c **** #ifdef U8G2_WITH_FONT_ROTATION
 1971              		.loc 1 698 0
 1972              		.cfi_startproc
 1973              		@ args = 0, pretend = 0, frame = 0
 1974              		@ frame_needed = 0, uses_anonymous_args = 0
 1975              	.LVL306:
 1976 0000 F8B5     		push	{r3, r4, r5, r6, r7, lr}
 1977              		.cfi_def_cfa_offset 24
 1978              		.cfi_offset 3, -24
 1979              		.cfi_offset 4, -20
 1980              		.cfi_offset 5, -16
 1981              		.cfi_offset 6, -12
 1982              		.cfi_offset 7, -8
 1983              		.cfi_offset 14, -4
 1984 0002 0400     		movs	r4, r0
 1985 0004 0D00     		movs	r5, r1
 1986 0006 1600     		movs	r6, r2
 1987 0008 1F00     		movs	r7, r3
 700:..\..\u8g2\csrc/u8g2_font.c ****   {
 1988              		.loc 1 700 0
 1989 000a 5E23     		movs	r3, #94
 1990              	.LVL307:
 1991 000c C35C     		ldrb	r3, [r0, r3]
 1992 000e 012B     		cmp	r3, #1
 1993 0010 0BD0     		beq	.L96
 1994 0012 002B     		cmp	r3, #0
 1995 0014 04D0     		beq	.L97
 1996 0016 022B     		cmp	r3, #2
 1997 0018 0CD0     		beq	.L98
 1998 001a 032B     		cmp	r3, #3
 1999 001c 0FD0     		beq	.L99
 2000 001e 12E0     		b	.L95
 2001              	.L97:
 703:..\..\u8g2\csrc/u8g2_font.c ****       break;
 2002              		.loc 1 703 0
 2003 0020 C36C     		ldr	r3, [r0, #76]
 2004 0022 9847     		blx	r3
 2005              	.LVL308:
 2006 0024 3618     		adds	r6, r6, r0
 2007 0026 F6B2     		uxtb	r6, r6
 2008              	.LVL309:
 704:..\..\u8g2\csrc/u8g2_font.c ****     case 1:
 2009              		.loc 1 704 0
ARM GAS  C:\Users\arh\AppData\Local\Temp\cc6sEv7h.s 			page 60


 2010 0028 0DE0     		b	.L95
 2011              	.LVL310:
 2012              	.L96:
 706:..\..\u8g2\csrc/u8g2_font.c ****       break;
 2013              		.loc 1 706 0
 2014 002a C36C     		ldr	r3, [r0, #76]
 2015 002c 9847     		blx	r3
 2016              	.LVL311:
 2017 002e 2D1A     		subs	r5, r5, r0
 2018 0030 EDB2     		uxtb	r5, r5
 2019              	.LVL312:
 707:..\..\u8g2\csrc/u8g2_font.c ****     case 2:
 2020              		.loc 1 707 0
 2021 0032 08E0     		b	.L95
 2022              	.LVL313:
 2023              	.L98:
 709:..\..\u8g2\csrc/u8g2_font.c ****       break;
 2024              		.loc 1 709 0
 2025 0034 C36C     		ldr	r3, [r0, #76]
 2026 0036 9847     		blx	r3
 2027              	.LVL314:
 2028 0038 361A     		subs	r6, r6, r0
 2029 003a F6B2     		uxtb	r6, r6
 2030              	.LVL315:
 710:..\..\u8g2\csrc/u8g2_font.c ****     case 3:
 2031              		.loc 1 710 0
 2032 003c 03E0     		b	.L95
 2033              	.LVL316:
 2034              	.L99:
 712:..\..\u8g2\csrc/u8g2_font.c ****       break;
 2035              		.loc 1 712 0
 2036 003e C36C     		ldr	r3, [r0, #76]
 2037 0040 9847     		blx	r3
 2038              	.LVL317:
 2039 0042 2D18     		adds	r5, r5, r0
 2040 0044 EDB2     		uxtb	r5, r5
 2041              	.LVL318:
 2042              	.L95:
 718:..\..\u8g2\csrc/u8g2_font.c **** }
 2043              		.loc 1 718 0
 2044 0046 3B00     		movs	r3, r7
 2045 0048 3200     		movs	r2, r6
 2046 004a 2900     		movs	r1, r5
 2047 004c 2000     		movs	r0, r4
 2048 004e FFF7FEFF 		bl	u8g2_font_draw_glyph
 2049              	.LVL319:
 719:..\..\u8g2\csrc/u8g2_font.c **** 
 2050              		.loc 1 719 0
 2051              		@ sp needed
 2052              	.LVL320:
 2053              	.LVL321:
 2054              	.LVL322:
 2055 0052 F8BD     		pop	{r3, r4, r5, r6, r7, pc}
 2056              		.cfi_endproc
 2057              	.LFE21:
 2058              		.size	u8g2_DrawGlyph, .-u8g2_DrawGlyph
 2059              		.section	.text.u8g2_draw_string,"ax",%progbits
ARM GAS  C:\Users\arh\AppData\Local\Temp\cc6sEv7h.s 			page 61


 2060              		.align	2
 2061              		.code	16
 2062              		.thumb_func
 2063              		.type	u8g2_draw_string, %function
 2064              	u8g2_draw_string:
 2065              	.LFB22:
 723:..\..\u8g2\csrc/u8g2_font.c ****   uint16_t e;
 2066              		.loc 1 723 0
 2067              		.cfi_startproc
 2068              		@ args = 0, pretend = 0, frame = 0
 2069              		@ frame_needed = 0, uses_anonymous_args = 0
 2070              	.LVL323:
 2071 0000 F0B5     		push	{r4, r5, r6, r7, lr}
 2072              		.cfi_def_cfa_offset 20
 2073              		.cfi_offset 4, -20
 2074              		.cfi_offset 5, -16
 2075              		.cfi_offset 6, -12
 2076              		.cfi_offset 7, -8
 2077              		.cfi_offset 14, -4
 2078 0002 4746     		mov	r7, r8
 2079 0004 80B4     		push	{r7}
 2080              		.cfi_def_cfa_offset 24
 2081              		.cfi_offset 8, -24
 2082 0006 0400     		movs	r4, r0
 2083 0008 0F00     		movs	r7, r1
 2084 000a 1600     		movs	r6, r2
 2085 000c 1D00     		movs	r5, r3
 726:..\..\u8g2\csrc/u8g2_font.c ****   sum = 0;
 2086              		.loc 1 726 0
 2087 000e FFF7FEFF 		bl	u8x8_utf8_init
 2088              	.LVL324:
 727:..\..\u8g2\csrc/u8g2_font.c ****   for(;;)
 2089              		.loc 1 727 0
 2090 0012 0023     		movs	r3, #0
 2091 0014 9846     		mov	r8, r3
 2092              	.LVL325:
 2093              	.L101:
 730:..\..\u8g2\csrc/u8g2_font.c ****     if ( e == 0x0ffff )
 2094              		.loc 1 730 0
 2095 0016 2978     		ldrb	r1, [r5]
 2096 0018 2000     		movs	r0, r4
 2097 001a 6368     		ldr	r3, [r4, #4]
 2098 001c 9847     		blx	r3
 2099              	.LVL326:
 731:..\..\u8g2\csrc/u8g2_font.c ****       break;
 2100              		.loc 1 731 0
 2101 001e 154B     		ldr	r3, .L109
 2102 0020 9842     		cmp	r0, r3
 2103 0022 23D0     		beq	.L102
 733:..\..\u8g2\csrc/u8g2_font.c ****     if ( e != 0x0fffe )
 2104              		.loc 1 733 0
 2105 0024 0135     		adds	r5, r5, #1
 2106              	.LVL327:
 734:..\..\u8g2\csrc/u8g2_font.c ****     {
 2107              		.loc 1 734 0
 2108 0026 144B     		ldr	r3, .L109+4
 2109 0028 9842     		cmp	r0, r3
ARM GAS  C:\Users\arh\AppData\Local\Temp\cc6sEv7h.s 			page 62


 2110 002a F4D0     		beq	.L101
 736:..\..\u8g2\csrc/u8g2_font.c ****     
 2111              		.loc 1 736 0
 2112 002c 0300     		movs	r3, r0
 2113 002e 3200     		movs	r2, r6
 2114 0030 3900     		movs	r1, r7
 2115 0032 2000     		movs	r0, r4
 2116              	.LVL328:
 2117 0034 FFF7FEFF 		bl	u8g2_DrawGlyph
 2118              	.LVL329:
 739:..\..\u8g2\csrc/u8g2_font.c ****       {
 2119              		.loc 1 739 0
 2120 0038 5E23     		movs	r3, #94
 2121 003a E35C     		ldrb	r3, [r4, r3]
 2122 003c 012B     		cmp	r3, #1
 2123 003e 09D0     		beq	.L105
 2124 0040 002B     		cmp	r3, #0
 2125 0042 04D0     		beq	.L106
 2126 0044 022B     		cmp	r3, #2
 2127 0046 08D0     		beq	.L107
 2128 0048 032B     		cmp	r3, #3
 2129 004a 09D0     		beq	.L108
 2130 004c 0AE0     		b	.L104
 2131              	.L106:
 742:..\..\u8g2\csrc/u8g2_font.c **** 	  break;
 2132              		.loc 1 742 0
 2133 004e 3F18     		adds	r7, r7, r0
 2134              	.LVL330:
 2135 0050 FFB2     		uxtb	r7, r7
 2136              	.LVL331:
 743:..\..\u8g2\csrc/u8g2_font.c **** 	case 1:
 2137              		.loc 1 743 0
 2138 0052 07E0     		b	.L104
 2139              	.L105:
 745:..\..\u8g2\csrc/u8g2_font.c **** 	  break;
 2140              		.loc 1 745 0
 2141 0054 3618     		adds	r6, r6, r0
 2142              	.LVL332:
 2143 0056 F6B2     		uxtb	r6, r6
 2144              	.LVL333:
 746:..\..\u8g2\csrc/u8g2_font.c **** 	case 2:
 2145              		.loc 1 746 0
 2146 0058 04E0     		b	.L104
 2147              	.L107:
 748:..\..\u8g2\csrc/u8g2_font.c **** 	  break;
 2148              		.loc 1 748 0
 2149 005a 3F1A     		subs	r7, r7, r0
 2150              	.LVL334:
 2151 005c FFB2     		uxtb	r7, r7
 2152              	.LVL335:
 749:..\..\u8g2\csrc/u8g2_font.c **** 	case 3:
 2153              		.loc 1 749 0
 2154 005e 01E0     		b	.L104
 2155              	.L108:
 751:..\..\u8g2\csrc/u8g2_font.c **** 	  break;
 2156              		.loc 1 751 0
 2157 0060 361A     		subs	r6, r6, r0
ARM GAS  C:\Users\arh\AppData\Local\Temp\cc6sEv7h.s 			page 63


 2158              	.LVL336:
 2159 0062 F6B2     		uxtb	r6, r6
 2160              	.LVL337:
 2161              	.L104:
 758:..\..\u8g2\csrc/u8g2_font.c ****     }
 2162              		.loc 1 758 0
 2163 0064 4044     		add	r0, r0, r8
 2164              	.LVL338:
 2165 0066 C3B2     		uxtb	r3, r0
 2166 0068 9846     		mov	r8, r3
 2167              	.LVL339:
 2168 006a D4E7     		b	.L101
 2169              	.LVL340:
 2170              	.L102:
 762:..\..\u8g2\csrc/u8g2_font.c **** 
 2171              		.loc 1 762 0
 2172 006c 4046     		mov	r0, r8
 2173              	.LVL341:
 2174              		@ sp needed
 2175              	.LVL342:
 2176              	.LVL343:
 2177              	.LVL344:
 2178              	.LVL345:
 2179              	.LVL346:
 2180 006e 04BC     		pop	{r2}
 2181 0070 9046     		mov	r8, r2
 2182 0072 F0BD     		pop	{r4, r5, r6, r7, pc}
 2183              	.L110:
 2184              		.align	2
 2185              	.L109:
 2186 0074 FFFF0000 		.word	65535
 2187 0078 FEFF0000 		.word	65534
 2188              		.cfi_endproc
 2189              	.LFE22:
 2190              		.size	u8g2_draw_string, .-u8g2_draw_string
 2191              		.section	.text.u8g2_DrawStr,"ax",%progbits
 2192              		.align	2
 2193              		.global	u8g2_DrawStr
 2194              		.code	16
 2195              		.thumb_func
 2196              		.type	u8g2_DrawStr, %function
 2197              	u8g2_DrawStr:
 2198              	.LFB23:
 765:..\..\u8g2\csrc/u8g2_font.c ****   u8g2->u8x8.next_cb = u8x8_ascii_next;
 2199              		.loc 1 765 0
 2200              		.cfi_startproc
 2201              		@ args = 0, pretend = 0, frame = 0
 2202              		@ frame_needed = 0, uses_anonymous_args = 0
 2203              	.LVL347:
 2204 0000 10B5     		push	{r4, lr}
 2205              		.cfi_def_cfa_offset 8
 2206              		.cfi_offset 4, -8
 2207              		.cfi_offset 14, -4
 766:..\..\u8g2\csrc/u8g2_font.c ****   return u8g2_draw_string(u8g2, x, y, str);
 2208              		.loc 1 766 0
 2209 0002 024C     		ldr	r4, .L112
 2210 0004 4460     		str	r4, [r0, #4]
ARM GAS  C:\Users\arh\AppData\Local\Temp\cc6sEv7h.s 			page 64


 767:..\..\u8g2\csrc/u8g2_font.c **** }
 2211              		.loc 1 767 0
 2212 0006 FFF7FEFF 		bl	u8g2_draw_string
 2213              	.LVL348:
 768:..\..\u8g2\csrc/u8g2_font.c **** 
 2214              		.loc 1 768 0
 2215              		@ sp needed
 2216 000a 10BD     		pop	{r4, pc}
 2217              	.L113:
 2218              		.align	2
 2219              	.L112:
 2220 000c 00000000 		.word	u8x8_ascii_next
 2221              		.cfi_endproc
 2222              	.LFE23:
 2223              		.size	u8g2_DrawStr, .-u8g2_DrawStr
 2224              		.section	.text.u8g2_DrawUTF8,"ax",%progbits
 2225              		.align	2
 2226              		.global	u8g2_DrawUTF8
 2227              		.code	16
 2228              		.thumb_func
 2229              		.type	u8g2_DrawUTF8, %function
 2230              	u8g2_DrawUTF8:
 2231              	.LFB24:
 781:..\..\u8g2\csrc/u8g2_font.c ****   u8g2->u8x8.next_cb = u8x8_utf8_next;
 2232              		.loc 1 781 0
 2233              		.cfi_startproc
 2234              		@ args = 0, pretend = 0, frame = 0
 2235              		@ frame_needed = 0, uses_anonymous_args = 0
 2236              	.LVL349:
 2237 0000 10B5     		push	{r4, lr}
 2238              		.cfi_def_cfa_offset 8
 2239              		.cfi_offset 4, -8
 2240              		.cfi_offset 14, -4
 782:..\..\u8g2\csrc/u8g2_font.c ****   return u8g2_draw_string(u8g2, x, y, str);
 2241              		.loc 1 782 0
 2242 0002 024C     		ldr	r4, .L115
 2243 0004 4460     		str	r4, [r0, #4]
 783:..\..\u8g2\csrc/u8g2_font.c **** }
 2244              		.loc 1 783 0
 2245 0006 FFF7FEFF 		bl	u8g2_draw_string
 2246              	.LVL350:
 784:..\..\u8g2\csrc/u8g2_font.c **** 
 2247              		.loc 1 784 0
 2248              		@ sp needed
 2249 000a 10BD     		pop	{r4, pc}
 2250              	.L116:
 2251              		.align	2
 2252              	.L115:
 2253 000c 00000000 		.word	u8x8_utf8_next
 2254              		.cfi_endproc
 2255              	.LFE24:
 2256              		.size	u8g2_DrawUTF8, .-u8g2_DrawUTF8
 2257              		.section	.text.u8g2_DrawExtendedUTF8,"ax",%progbits
 2258              		.align	2
 2259              		.global	u8g2_DrawExtendedUTF8
 2260              		.code	16
 2261              		.thumb_func
ARM GAS  C:\Users\arh\AppData\Local\Temp\cc6sEv7h.s 			page 65


 2262              		.type	u8g2_DrawExtendedUTF8, %function
 2263              	u8g2_DrawExtendedUTF8:
 2264              	.LFB25:
 789:..\..\u8g2\csrc/u8g2_font.c ****   u8g2->u8x8.next_cb = u8x8_utf8_next;
 2265              		.loc 1 789 0
 2266              		.cfi_startproc
 2267              		@ args = 8, pretend = 0, frame = 16
 2268              		@ frame_needed = 0, uses_anonymous_args = 0
 2269              	.LVL351:
 2270 0000 F0B5     		push	{r4, r5, r6, r7, lr}
 2271              		.cfi_def_cfa_offset 20
 2272              		.cfi_offset 4, -20
 2273              		.cfi_offset 5, -16
 2274              		.cfi_offset 6, -12
 2275              		.cfi_offset 7, -8
 2276              		.cfi_offset 14, -4
 2277 0002 5F46     		mov	r7, fp
 2278 0004 4646     		mov	r6, r8
 2279 0006 C0B4     		push	{r6, r7}
 2280              		.cfi_def_cfa_offset 28
 2281              		.cfi_offset 8, -28
 2282              		.cfi_offset 11, -24
 2283 0008 85B0     		sub	sp, sp, #20
 2284              		.cfi_def_cfa_offset 48
 2285 000a 0700     		movs	r7, r0
 2286 000c 8846     		mov	r8, r1
 2287 000e 0392     		str	r2, [sp, #12]
 2288 0010 9B46     		mov	fp, r3
 2289 0012 0D9E     		ldr	r6, [sp, #52]
 790:..\..\u8g2\csrc/u8g2_font.c ****   uint16_t e_prev = 0x0ffff;
 2290              		.loc 1 790 0
 2291 0014 264B     		ldr	r3, .L124
 2292              	.LVL352:
 2293 0016 4360     		str	r3, [r0, #4]
 2294              	.LVL353:
 794:..\..\u8g2\csrc/u8g2_font.c ****   sum = 0;
 2295              		.loc 1 794 0
 2296 0018 FFF7FEFF 		bl	u8x8_utf8_init
 2297              	.LVL354:
 795:..\..\u8g2\csrc/u8g2_font.c ****   for(;;)
 2298              		.loc 1 795 0
 2299 001c 0024     		movs	r4, #0
 791:..\..\u8g2\csrc/u8g2_font.c ****   uint16_t e;
 2300              		.loc 1 791 0
 2301 001e 254B     		ldr	r3, .L124+4
 2302 0020 0293     		str	r3, [sp, #8]
 2303              	.LVL355:
 2304              	.L118:
 798:..\..\u8g2\csrc/u8g2_font.c ****     if ( e == 0x0ffff )
 2305              		.loc 1 798 0
 2306 0022 3178     		ldrb	r1, [r6]
 2307 0024 3800     		movs	r0, r7
 2308 0026 7B68     		ldr	r3, [r7, #4]
 2309 0028 9847     		blx	r3
 2310              	.LVL356:
 2311 002a 0100     		movs	r1, r0
 2312 002c 0190     		str	r0, [sp, #4]
ARM GAS  C:\Users\arh\AppData\Local\Temp\cc6sEv7h.s 			page 66


 2313              	.LVL357:
 799:..\..\u8g2\csrc/u8g2_font.c ****       break;
 2314              		.loc 1 799 0
 2315 002e 214A     		ldr	r2, .L124+4
 2316 0030 9042     		cmp	r0, r2
 2317 0032 36D0     		beq	.L119
 801:..\..\u8g2\csrc/u8g2_font.c ****     if ( e != 0x0fffe )
 2318              		.loc 1 801 0
 2319 0034 0136     		adds	r6, r6, #1
 2320              	.LVL358:
 802:..\..\u8g2\csrc/u8g2_font.c ****     {
 2321              		.loc 1 802 0
 2322 0036 204A     		ldr	r2, .L124+8
 2323 0038 9042     		cmp	r0, r2
 2324 003a F2D0     		beq	.L118
 804:..\..\u8g2\csrc/u8g2_font.c **** 	    
 2325              		.loc 1 804 0
 2326 003c 3800     		movs	r0, r7
 2327              	.LVL359:
 2328 003e FFF7FEFF 		bl	u8g2_GetGlyphWidth
 2329              	.LVL360:
 2330 0042 C5B2     		uxtb	r5, r0
 2331              	.LVL361:
 806:..\..\u8g2\csrc/u8g2_font.c ****       {
 2332              		.loc 1 806 0
 2333 0044 5B46     		mov	r3, fp
 2334 0046 002B     		cmp	r3, #0
 2335 0048 0DD0     		beq	.L121
 808:..\..\u8g2\csrc/u8g2_font.c **** 	delta -= k;
 2336              		.loc 1 808 0
 2337 004a 029B     		ldr	r3, [sp, #8]
 2338 004c 019A     		ldr	r2, [sp, #4]
 2339 004e 0C99     		ldr	r1, [sp, #48]
 2340 0050 3800     		movs	r0, r7
 2341 0052 FFF7FEFF 		bl	u8g2_GetKerning
 2342              	.LVL362:
 2343 0056 0290     		str	r0, [sp, #8]
 2344              	.LVL363:
 809:..\..\u8g2\csrc/u8g2_font.c **** 	x -= delta;
 2345              		.loc 1 809 0
 2346 0058 2D1A     		subs	r5, r5, r0
 2347              	.LVL364:
 2348 005a EDB2     		uxtb	r5, r5
 2349              	.LVL365:
 810:..\..\u8g2\csrc/u8g2_font.c ****       }
 2350              		.loc 1 810 0
 2351 005c 4346     		mov	r3, r8
 2352 005e 5B1B     		subs	r3, r3, r5
 2353 0060 DBB2     		uxtb	r3, r3
 2354 0062 9846     		mov	r8, r3
 2355              	.LVL366:
 2356 0064 08E0     		b	.L122
 2357              	.LVL367:
 2358              	.L121:
 814:..\..\u8g2\csrc/u8g2_font.c **** 	delta -= k;
 2359              		.loc 1 814 0
 2360 0066 019B     		ldr	r3, [sp, #4]
ARM GAS  C:\Users\arh\AppData\Local\Temp\cc6sEv7h.s 			page 67


 2361 0068 029A     		ldr	r2, [sp, #8]
 2362 006a 0C99     		ldr	r1, [sp, #48]
 2363 006c 3800     		movs	r0, r7
 2364 006e FFF7FEFF 		bl	u8g2_GetKerning
 2365              	.LVL368:
 2366 0072 0290     		str	r0, [sp, #8]
 2367              	.LVL369:
 815:..\..\u8g2\csrc/u8g2_font.c ****       }
 2368              		.loc 1 815 0
 2369 0074 2D1A     		subs	r5, r5, r0
 2370              	.LVL370:
 2371 0076 EDB2     		uxtb	r5, r5
 2372              	.LVL371:
 2373              	.L122:
 819:..\..\u8g2\csrc/u8g2_font.c ****       if ( to_left )
 2374              		.loc 1 819 0
 2375 0078 019B     		ldr	r3, [sp, #4]
 2376 007a 039A     		ldr	r2, [sp, #12]
 2377 007c 4146     		mov	r1, r8
 2378 007e 3800     		movs	r0, r7
 2379 0080 FFF7FEFF 		bl	u8g2_DrawGlyph
 2380              	.LVL372:
 820:..\..\u8g2\csrc/u8g2_font.c ****       {
 2381              		.loc 1 820 0
 2382 0084 5B46     		mov	r3, fp
 2383 0086 002B     		cmp	r3, #0
 2384 0088 06D1     		bne	.L123
 825:..\..\u8g2\csrc/u8g2_font.c **** 	x -= k;
 2385              		.loc 1 825 0
 2386 008a 4346     		mov	r3, r8
 2387 008c 5B19     		adds	r3, r3, r5
 2388 008e DBB2     		uxtb	r3, r3
 2389              	.LVL373:
 826:..\..\u8g2\csrc/u8g2_font.c ****       }
 2390              		.loc 1 826 0
 2391 0090 029A     		ldr	r2, [sp, #8]
 2392 0092 9B1A     		subs	r3, r3, r2
 2393              	.LVL374:
 2394 0094 DBB2     		uxtb	r3, r3
 2395 0096 9846     		mov	r8, r3
 2396              	.LVL375:
 2397              	.L123:
 829:..\..\u8g2\csrc/u8g2_font.c ****     }
 2398              		.loc 1 829 0
 2399 0098 2D19     		adds	r5, r5, r4
 2400              	.LVL376:
 2401 009a ECB2     		uxtb	r4, r5
 2402              	.LVL377:
 817:..\..\u8g2\csrc/u8g2_font.c **** 
 2403              		.loc 1 817 0
 2404 009c 019B     		ldr	r3, [sp, #4]
 2405 009e 0293     		str	r3, [sp, #8]
 2406              	.LVL378:
 2407 00a0 BFE7     		b	.L118
 2408              	.LVL379:
 2409              	.L119:
 833:..\..\u8g2\csrc/u8g2_font.c **** 
ARM GAS  C:\Users\arh\AppData\Local\Temp\cc6sEv7h.s 			page 68


 2410              		.loc 1 833 0
 2411 00a2 2000     		movs	r0, r4
 2412              	.LVL380:
 2413 00a4 05B0     		add	sp, sp, #20
 2414              		@ sp needed
 2415              	.LVL381:
 2416              	.LVL382:
 2417              	.LVL383:
 2418              	.LVL384:
 2419 00a6 0CBC     		pop	{r2, r3}
 2420 00a8 9046     		mov	r8, r2
 2421 00aa 9B46     		mov	fp, r3
 2422 00ac F0BD     		pop	{r4, r5, r6, r7, pc}
 2423              	.L125:
 2424 00ae C046     		.align	2
 2425              	.L124:
 2426 00b0 00000000 		.word	u8x8_utf8_next
 2427 00b4 FFFF0000 		.word	65535
 2428 00b8 FEFF0000 		.word	65534
 2429              		.cfi_endproc
 2430              	.LFE25:
 2431              		.size	u8g2_DrawExtendedUTF8, .-u8g2_DrawExtendedUTF8
 2432              		.section	.text.u8g2_DrawExtUTF8,"ax",%progbits
 2433              		.align	2
 2434              		.global	u8g2_DrawExtUTF8
 2435              		.code	16
 2436              		.thumb_func
 2437              		.type	u8g2_DrawExtUTF8, %function
 2438              	u8g2_DrawExtUTF8:
 2439              	.LFB26:
 836:..\..\u8g2\csrc/u8g2_font.c ****   u8g2->u8x8.next_cb = u8x8_utf8_next;
 2440              		.loc 1 836 0
 2441              		.cfi_startproc
 2442              		@ args = 8, pretend = 0, frame = 16
 2443              		@ frame_needed = 0, uses_anonymous_args = 0
 2444              	.LVL385:
 2445 0000 F0B5     		push	{r4, r5, r6, r7, lr}
 2446              		.cfi_def_cfa_offset 20
 2447              		.cfi_offset 4, -20
 2448              		.cfi_offset 5, -16
 2449              		.cfi_offset 6, -12
 2450              		.cfi_offset 7, -8
 2451              		.cfi_offset 14, -4
 2452 0002 5F46     		mov	r7, fp
 2453 0004 4646     		mov	r6, r8
 2454 0006 C0B4     		push	{r6, r7}
 2455              		.cfi_def_cfa_offset 28
 2456              		.cfi_offset 8, -28
 2457              		.cfi_offset 11, -24
 2458 0008 85B0     		sub	sp, sp, #20
 2459              		.cfi_def_cfa_offset 48
 2460 000a 0700     		movs	r7, r0
 2461 000c 8846     		mov	r8, r1
 2462 000e 0392     		str	r2, [sp, #12]
 2463 0010 9B46     		mov	fp, r3
 2464 0012 0D9E     		ldr	r6, [sp, #52]
 837:..\..\u8g2\csrc/u8g2_font.c ****   uint16_t e_prev = 0x0ffff;
ARM GAS  C:\Users\arh\AppData\Local\Temp\cc6sEv7h.s 			page 69


 2465              		.loc 1 837 0
 2466 0014 264B     		ldr	r3, .L133
 2467              	.LVL386:
 2468 0016 4360     		str	r3, [r0, #4]
 2469              	.LVL387:
 841:..\..\u8g2\csrc/u8g2_font.c ****   sum = 0;
 2470              		.loc 1 841 0
 2471 0018 FFF7FEFF 		bl	u8x8_utf8_init
 2472              	.LVL388:
 842:..\..\u8g2\csrc/u8g2_font.c ****   for(;;)
 2473              		.loc 1 842 0
 2474 001c 0024     		movs	r4, #0
 838:..\..\u8g2\csrc/u8g2_font.c ****   uint16_t e;
 2475              		.loc 1 838 0
 2476 001e 254B     		ldr	r3, .L133+4
 2477 0020 0293     		str	r3, [sp, #8]
 2478              	.LVL389:
 2479              	.L127:
 845:..\..\u8g2\csrc/u8g2_font.c ****     if ( e == 0x0ffff )
 2480              		.loc 1 845 0
 2481 0022 3178     		ldrb	r1, [r6]
 2482 0024 3800     		movs	r0, r7
 2483 0026 7B68     		ldr	r3, [r7, #4]
 2484 0028 9847     		blx	r3
 2485              	.LVL390:
 2486 002a 0100     		movs	r1, r0
 2487 002c 0190     		str	r0, [sp, #4]
 2488              	.LVL391:
 846:..\..\u8g2\csrc/u8g2_font.c ****       break;
 2489              		.loc 1 846 0
 2490 002e 214A     		ldr	r2, .L133+4
 2491 0030 9042     		cmp	r0, r2
 2492 0032 36D0     		beq	.L128
 848:..\..\u8g2\csrc/u8g2_font.c ****     if ( e != 0x0fffe )
 2493              		.loc 1 848 0
 2494 0034 0136     		adds	r6, r6, #1
 2495              	.LVL392:
 849:..\..\u8g2\csrc/u8g2_font.c ****     {
 2496              		.loc 1 849 0
 2497 0036 204A     		ldr	r2, .L133+8
 2498 0038 9042     		cmp	r0, r2
 2499 003a F2D0     		beq	.L127
 851:..\..\u8g2\csrc/u8g2_font.c **** 	    
 2500              		.loc 1 851 0
 2501 003c 3800     		movs	r0, r7
 2502              	.LVL393:
 2503 003e FFF7FEFF 		bl	u8g2_GetGlyphWidth
 2504              	.LVL394:
 2505 0042 C5B2     		uxtb	r5, r0
 2506              	.LVL395:
 853:..\..\u8g2\csrc/u8g2_font.c ****       {
 2507              		.loc 1 853 0
 2508 0044 5B46     		mov	r3, fp
 2509 0046 002B     		cmp	r3, #0
 2510 0048 0DD0     		beq	.L130
 855:..\..\u8g2\csrc/u8g2_font.c **** 	delta -= k;
 2511              		.loc 1 855 0
ARM GAS  C:\Users\arh\AppData\Local\Temp\cc6sEv7h.s 			page 70


 2512 004a 029B     		ldr	r3, [sp, #8]
 2513 004c 019A     		ldr	r2, [sp, #4]
 2514 004e 0C99     		ldr	r1, [sp, #48]
 2515 0050 3800     		movs	r0, r7
 2516 0052 FFF7FEFF 		bl	u8g2_GetKerningByTable
 2517              	.LVL396:
 2518 0056 0290     		str	r0, [sp, #8]
 2519              	.LVL397:
 856:..\..\u8g2\csrc/u8g2_font.c **** 	x -= delta;
 2520              		.loc 1 856 0
 2521 0058 2D1A     		subs	r5, r5, r0
 2522              	.LVL398:
 2523 005a EDB2     		uxtb	r5, r5
 2524              	.LVL399:
 857:..\..\u8g2\csrc/u8g2_font.c ****       }
 2525              		.loc 1 857 0
 2526 005c 4346     		mov	r3, r8
 2527 005e 5B1B     		subs	r3, r3, r5
 2528 0060 DBB2     		uxtb	r3, r3
 2529 0062 9846     		mov	r8, r3
 2530              	.LVL400:
 2531 0064 08E0     		b	.L131
 2532              	.LVL401:
 2533              	.L130:
 861:..\..\u8g2\csrc/u8g2_font.c **** 	delta -= k;
 2534              		.loc 1 861 0
 2535 0066 019B     		ldr	r3, [sp, #4]
 2536 0068 029A     		ldr	r2, [sp, #8]
 2537 006a 0C99     		ldr	r1, [sp, #48]
 2538 006c 3800     		movs	r0, r7
 2539 006e FFF7FEFF 		bl	u8g2_GetKerningByTable
 2540              	.LVL402:
 2541 0072 0290     		str	r0, [sp, #8]
 2542              	.LVL403:
 862:..\..\u8g2\csrc/u8g2_font.c ****       }
 2543              		.loc 1 862 0
 2544 0074 2D1A     		subs	r5, r5, r0
 2545              	.LVL404:
 2546 0076 EDB2     		uxtb	r5, r5
 2547              	.LVL405:
 2548              	.L131:
 866:..\..\u8g2\csrc/u8g2_font.c ****       if ( to_left )
 2549              		.loc 1 866 0
 2550 0078 019B     		ldr	r3, [sp, #4]
 2551 007a 039A     		ldr	r2, [sp, #12]
 2552 007c 4146     		mov	r1, r8
 2553 007e 3800     		movs	r0, r7
 2554 0080 FFF7FEFF 		bl	u8g2_DrawGlyph
 2555              	.LVL406:
 867:..\..\u8g2\csrc/u8g2_font.c ****       {
 2556              		.loc 1 867 0
 2557 0084 5B46     		mov	r3, fp
 2558 0086 002B     		cmp	r3, #0
 2559 0088 06D1     		bne	.L132
 872:..\..\u8g2\csrc/u8g2_font.c **** 	x -= k;
 2560              		.loc 1 872 0
 2561 008a 4346     		mov	r3, r8
ARM GAS  C:\Users\arh\AppData\Local\Temp\cc6sEv7h.s 			page 71


 2562 008c 5B19     		adds	r3, r3, r5
 2563 008e DBB2     		uxtb	r3, r3
 2564              	.LVL407:
 873:..\..\u8g2\csrc/u8g2_font.c ****       }
 2565              		.loc 1 873 0
 2566 0090 029A     		ldr	r2, [sp, #8]
 2567 0092 9B1A     		subs	r3, r3, r2
 2568              	.LVL408:
 2569 0094 DBB2     		uxtb	r3, r3
 2570 0096 9846     		mov	r8, r3
 2571              	.LVL409:
 2572              	.L132:
 876:..\..\u8g2\csrc/u8g2_font.c ****     }
 2573              		.loc 1 876 0
 2574 0098 2D19     		adds	r5, r5, r4
 2575              	.LVL410:
 2576 009a ECB2     		uxtb	r4, r5
 2577              	.LVL411:
 864:..\..\u8g2\csrc/u8g2_font.c **** 
 2578              		.loc 1 864 0
 2579 009c 019B     		ldr	r3, [sp, #4]
 2580 009e 0293     		str	r3, [sp, #8]
 2581              	.LVL412:
 2582 00a0 BFE7     		b	.L127
 2583              	.LVL413:
 2584              	.L128:
 880:..\..\u8g2\csrc/u8g2_font.c **** 
 2585              		.loc 1 880 0
 2586 00a2 2000     		movs	r0, r4
 2587              	.LVL414:
 2588 00a4 05B0     		add	sp, sp, #20
 2589              		@ sp needed
 2590              	.LVL415:
 2591              	.LVL416:
 2592              	.LVL417:
 2593              	.LVL418:
 2594 00a6 0CBC     		pop	{r2, r3}
 2595 00a8 9046     		mov	r8, r2
 2596 00aa 9B46     		mov	fp, r3
 2597 00ac F0BD     		pop	{r4, r5, r6, r7, pc}
 2598              	.L134:
 2599 00ae C046     		.align	2
 2600              	.L133:
 2601 00b0 00000000 		.word	u8x8_utf8_next
 2602 00b4 FFFF0000 		.word	65535
 2603 00b8 FEFF0000 		.word	65534
 2604              		.cfi_endproc
 2605              	.LFE26:
 2606              		.size	u8g2_DrawExtUTF8, .-u8g2_DrawExtUTF8
 2607              		.section	.text.u8g2_UpdateRefHeight,"ax",%progbits
 2608              		.align	2
 2609              		.global	u8g2_UpdateRefHeight
 2610              		.code	16
 2611              		.thumb_func
 2612              		.type	u8g2_UpdateRefHeight, %function
 2613              	u8g2_UpdateRefHeight:
 2614              	.LFB27:
ARM GAS  C:\Users\arh\AppData\Local\Temp\cc6sEv7h.s 			page 72


 889:..\..\u8g2\csrc/u8g2_font.c ****   if ( u8g2->font == NULL )
 2615              		.loc 1 889 0
 2616              		.cfi_startproc
 2617              		@ args = 0, pretend = 0, frame = 0
 2618              		@ frame_needed = 0, uses_anonymous_args = 0
 2619              	.LVL419:
 2620 0000 30B5     		push	{r4, r5, lr}
 2621              		.cfi_def_cfa_offset 12
 2622              		.cfi_offset 4, -12
 2623              		.cfi_offset 5, -8
 2624              		.cfi_offset 14, -4
 890:..\..\u8g2\csrc/u8g2_font.c ****     return;
 2625              		.loc 1 890 0
 2626 0002 836C     		ldr	r3, [r0, #72]
 2627 0004 002B     		cmp	r3, #0
 2628 0006 27D0     		beq	.L135
 892:..\..\u8g2\csrc/u8g2_font.c ****   u8g2->font_ref_descent = u8g2->font_info.descent_g;
 2629              		.loc 1 892 0
 2630 0008 6D23     		movs	r3, #109
 2631 000a C156     		ldrsb	r1, [r0, r3]
 2632 000c 0C33     		adds	r3, r3, #12
 2633 000e C154     		strb	r1, [r0, r3]
 893:..\..\u8g2\csrc/u8g2_font.c ****   if ( u8g2->font_height_mode == U8G2_FONT_HEIGHT_MODE_TEXT )
 2634              		.loc 1 893 0
 2635 0010 0B3B     		subs	r3, r3, #11
 2636 0012 C256     		ldrsb	r2, [r0, r3]
 2637 0014 0C33     		adds	r3, r3, #12
 2638 0016 C254     		strb	r2, [r0, r3]
 894:..\..\u8g2\csrc/u8g2_font.c ****   {
 2639              		.loc 1 894 0
 2640 0018 023B     		subs	r3, r3, #2
 2641 001a C35C     		ldrb	r3, [r0, r3]
 2642 001c 002B     		cmp	r3, #0
 2643 001e 1BD0     		beq	.L135
 897:..\..\u8g2\csrc/u8g2_font.c ****   {
 2644              		.loc 1 897 0
 2645 0020 012B     		cmp	r3, #1
 2646 0022 0CD1     		bne	.L137
 899:..\..\u8g2\csrc/u8g2_font.c ****       u8g2->font_ref_ascent = u8g2->font_info.ascent_para;
 2647              		.loc 1 899 0
 2648 0024 6E33     		adds	r3, r3, #110
 2649 0026 C356     		ldrsb	r3, [r0, r3]
 2650 0028 9942     		cmp	r1, r3
 2651 002a 01DA     		bge	.L138
 900:..\..\u8g2\csrc/u8g2_font.c ****     if ( u8g2->font_ref_descent > u8g2->font_info.descent_para )
 2652              		.loc 1 900 0
 2653 002c 7921     		movs	r1, #121
 2654 002e 4354     		strb	r3, [r0, r1]
 2655              	.L138:
 901:..\..\u8g2\csrc/u8g2_font.c ****       u8g2->font_ref_descent = u8g2->font_info.descent_para;
 2656              		.loc 1 901 0
 2657 0030 7023     		movs	r3, #112
 2658 0032 C356     		ldrsb	r3, [r0, r3]
 2659 0034 9A42     		cmp	r2, r3
 2660 0036 0FDD     		ble	.L135
 902:..\..\u8g2\csrc/u8g2_font.c ****   }
 2661              		.loc 1 902 0
ARM GAS  C:\Users\arh\AppData\Local\Temp\cc6sEv7h.s 			page 73


 2662 0038 7A22     		movs	r2, #122
 2663 003a 8354     		strb	r3, [r0, r2]
 2664 003c 0CE0     		b	.L135
 2665              	.L137:
 906:..\..\u8g2\csrc/u8g2_font.c ****       u8g2->font_ref_ascent = u8g2->font_info.max_char_height+u8g2->font_info.y_offset;
 2666              		.loc 1 906 0
 2667 003e 6A23     		movs	r3, #106
 2668 0040 C456     		ldrsb	r4, [r0, r3]
 2669 0042 0233     		adds	r3, r3, #2
 2670 0044 C356     		ldrsb	r3, [r0, r3]
 2671 0046 E518     		adds	r5, r4, r3
 2672 0048 A942     		cmp	r1, r5
 2673 004a 01DA     		bge	.L139
 907:..\..\u8g2\csrc/u8g2_font.c ****     if ( u8g2->font_ref_descent > u8g2->font_info.y_offset )
 2674              		.loc 1 907 0
 2675 004c 7921     		movs	r1, #121
 2676 004e 4554     		strb	r5, [r0, r1]
 2677              	.L139:
 908:..\..\u8g2\csrc/u8g2_font.c ****       u8g2->font_ref_descent = u8g2->font_info.y_offset;
 2678              		.loc 1 908 0
 2679 0050 9A42     		cmp	r2, r3
 2680 0052 01DD     		ble	.L135
 909:..\..\u8g2\csrc/u8g2_font.c ****   }  
 2681              		.loc 1 909 0
 2682 0054 7A22     		movs	r2, #122
 2683 0056 8354     		strb	r3, [r0, r2]
 2684              	.L135:
 911:..\..\u8g2\csrc/u8g2_font.c **** 
 2685              		.loc 1 911 0
 2686              		@ sp needed
 2687 0058 30BD     		pop	{r4, r5, pc}
 2688              		.cfi_endproc
 2689              	.LFE27:
 2690              		.size	u8g2_UpdateRefHeight, .-u8g2_UpdateRefHeight
 2691 005a C046     		.section	.text.u8g2_SetFontRefHeightText,"ax",%progbits
 2692              		.align	2
 2693              		.global	u8g2_SetFontRefHeightText
 2694              		.code	16
 2695              		.thumb_func
 2696              		.type	u8g2_SetFontRefHeightText, %function
 2697              	u8g2_SetFontRefHeightText:
 2698              	.LFB28:
 914:..\..\u8g2\csrc/u8g2_font.c ****   u8g2->font_height_mode = U8G2_FONT_HEIGHT_MODE_TEXT;
 2699              		.loc 1 914 0
 2700              		.cfi_startproc
 2701              		@ args = 0, pretend = 0, frame = 0
 2702              		@ frame_needed = 0, uses_anonymous_args = 0
 2703              	.LVL420:
 2704 0000 10B5     		push	{r4, lr}
 2705              		.cfi_def_cfa_offset 8
 2706              		.cfi_offset 4, -8
 2707              		.cfi_offset 14, -4
 915:..\..\u8g2\csrc/u8g2_font.c ****   u8g2_UpdateRefHeight(u8g2);
 2708              		.loc 1 915 0
 2709 0002 0022     		movs	r2, #0
 2710 0004 7823     		movs	r3, #120
 2711 0006 C254     		strb	r2, [r0, r3]
ARM GAS  C:\Users\arh\AppData\Local\Temp\cc6sEv7h.s 			page 74


 916:..\..\u8g2\csrc/u8g2_font.c **** }
 2712              		.loc 1 916 0
 2713 0008 FFF7FEFF 		bl	u8g2_UpdateRefHeight
 2714              	.LVL421:
 917:..\..\u8g2\csrc/u8g2_font.c **** 
 2715              		.loc 1 917 0
 2716              		@ sp needed
 2717 000c 10BD     		pop	{r4, pc}
 2718              		.cfi_endproc
 2719              	.LFE28:
 2720              		.size	u8g2_SetFontRefHeightText, .-u8g2_SetFontRefHeightText
 2721 000e C046     		.section	.text.u8g2_SetFontRefHeightExtendedText,"ax",%progbits
 2722              		.align	2
 2723              		.global	u8g2_SetFontRefHeightExtendedText
 2724              		.code	16
 2725              		.thumb_func
 2726              		.type	u8g2_SetFontRefHeightExtendedText, %function
 2727              	u8g2_SetFontRefHeightExtendedText:
 2728              	.LFB29:
 920:..\..\u8g2\csrc/u8g2_font.c ****   u8g2->font_height_mode = U8G2_FONT_HEIGHT_MODE_XTEXT;
 2729              		.loc 1 920 0
 2730              		.cfi_startproc
 2731              		@ args = 0, pretend = 0, frame = 0
 2732              		@ frame_needed = 0, uses_anonymous_args = 0
 2733              	.LVL422:
 2734 0000 10B5     		push	{r4, lr}
 2735              		.cfi_def_cfa_offset 8
 2736              		.cfi_offset 4, -8
 2737              		.cfi_offset 14, -4
 921:..\..\u8g2\csrc/u8g2_font.c ****   u8g2_UpdateRefHeight(u8g2);
 2738              		.loc 1 921 0
 2739 0002 0122     		movs	r2, #1
 2740 0004 7823     		movs	r3, #120
 2741 0006 C254     		strb	r2, [r0, r3]
 922:..\..\u8g2\csrc/u8g2_font.c **** }
 2742              		.loc 1 922 0
 2743 0008 FFF7FEFF 		bl	u8g2_UpdateRefHeight
 2744              	.LVL423:
 923:..\..\u8g2\csrc/u8g2_font.c **** 
 2745              		.loc 1 923 0
 2746              		@ sp needed
 2747 000c 10BD     		pop	{r4, pc}
 2748              		.cfi_endproc
 2749              	.LFE29:
 2750              		.size	u8g2_SetFontRefHeightExtendedText, .-u8g2_SetFontRefHeightExtendedText
 2751 000e C046     		.section	.text.u8g2_SetFontRefHeightAll,"ax",%progbits
 2752              		.align	2
 2753              		.global	u8g2_SetFontRefHeightAll
 2754              		.code	16
 2755              		.thumb_func
 2756              		.type	u8g2_SetFontRefHeightAll, %function
 2757              	u8g2_SetFontRefHeightAll:
 2758              	.LFB30:
 926:..\..\u8g2\csrc/u8g2_font.c ****   u8g2->font_height_mode = U8G2_FONT_HEIGHT_MODE_ALL;
 2759              		.loc 1 926 0
 2760              		.cfi_startproc
 2761              		@ args = 0, pretend = 0, frame = 0
ARM GAS  C:\Users\arh\AppData\Local\Temp\cc6sEv7h.s 			page 75


 2762              		@ frame_needed = 0, uses_anonymous_args = 0
 2763              	.LVL424:
 2764 0000 10B5     		push	{r4, lr}
 2765              		.cfi_def_cfa_offset 8
 2766              		.cfi_offset 4, -8
 2767              		.cfi_offset 14, -4
 927:..\..\u8g2\csrc/u8g2_font.c ****   u8g2_UpdateRefHeight(u8g2);
 2768              		.loc 1 927 0
 2769 0002 0222     		movs	r2, #2
 2770 0004 7823     		movs	r3, #120
 2771 0006 C254     		strb	r2, [r0, r3]
 928:..\..\u8g2\csrc/u8g2_font.c **** }
 2772              		.loc 1 928 0
 2773 0008 FFF7FEFF 		bl	u8g2_UpdateRefHeight
 2774              	.LVL425:
 929:..\..\u8g2\csrc/u8g2_font.c **** 
 2775              		.loc 1 929 0
 2776              		@ sp needed
 2777 000c 10BD     		pop	{r4, pc}
 2778              		.cfi_endproc
 2779              	.LFE30:
 2780              		.size	u8g2_SetFontRefHeightAll, .-u8g2_SetFontRefHeightAll
 2781 000e C046     		.section	.text.u8g2_SetFontPosBaseline,"ax",%progbits
 2782              		.align	2
 2783              		.global	u8g2_SetFontPosBaseline
 2784              		.code	16
 2785              		.thumb_func
 2786              		.type	u8g2_SetFontPosBaseline, %function
 2787              	u8g2_SetFontPosBaseline:
 2788              	.LFB32:
 940:..\..\u8g2\csrc/u8g2_font.c ****   u8g2->font_calc_vref = u8g2_font_calc_vref_font;
 2789              		.loc 1 940 0
 2790              		.cfi_startproc
 2791              		@ args = 0, pretend = 0, frame = 0
 2792              		@ frame_needed = 0, uses_anonymous_args = 0
 2793              		@ link register save eliminated.
 2794              	.LVL426:
 941:..\..\u8g2\csrc/u8g2_font.c **** }
 2795              		.loc 1 941 0
 2796 0000 014B     		ldr	r3, .L144
 2797 0002 C364     		str	r3, [r0, #76]
 942:..\..\u8g2\csrc/u8g2_font.c **** 
 2798              		.loc 1 942 0
 2799              		@ sp needed
 2800 0004 7047     		bx	lr
 2801              	.L145:
 2802 0006 C046     		.align	2
 2803              	.L144:
 2804 0008 00000000 		.word	u8g2_font_calc_vref_font
 2805              		.cfi_endproc
 2806              	.LFE32:
 2807              		.size	u8g2_SetFontPosBaseline, .-u8g2_SetFontPosBaseline
 2808              		.section	.text.u8g2_SetFontPosBottom,"ax",%progbits
 2809              		.align	2
 2810              		.global	u8g2_SetFontPosBottom
 2811              		.code	16
 2812              		.thumb_func
ARM GAS  C:\Users\arh\AppData\Local\Temp\cc6sEv7h.s 			page 76


 2813              		.type	u8g2_SetFontPosBottom, %function
 2814              	u8g2_SetFontPosBottom:
 2815              	.LFB34:
 951:..\..\u8g2\csrc/u8g2_font.c ****   u8g2->font_calc_vref = u8g2_font_calc_vref_bottom;
 2816              		.loc 1 951 0
 2817              		.cfi_startproc
 2818              		@ args = 0, pretend = 0, frame = 0
 2819              		@ frame_needed = 0, uses_anonymous_args = 0
 2820              		@ link register save eliminated.
 2821              	.LVL427:
 952:..\..\u8g2\csrc/u8g2_font.c **** }
 2822              		.loc 1 952 0
 2823 0000 014B     		ldr	r3, .L147
 2824 0002 C364     		str	r3, [r0, #76]
 953:..\..\u8g2\csrc/u8g2_font.c **** 
 2825              		.loc 1 953 0
 2826              		@ sp needed
 2827 0004 7047     		bx	lr
 2828              	.L148:
 2829 0006 C046     		.align	2
 2830              	.L147:
 2831 0008 00000000 		.word	u8g2_font_calc_vref_bottom
 2832              		.cfi_endproc
 2833              	.LFE34:
 2834              		.size	u8g2_SetFontPosBottom, .-u8g2_SetFontPosBottom
 2835              		.section	.text.u8g2_SetFontPosTop,"ax",%progbits
 2836              		.align	2
 2837              		.global	u8g2_SetFontPosTop
 2838              		.code	16
 2839              		.thumb_func
 2840              		.type	u8g2_SetFontPosTop, %function
 2841              	u8g2_SetFontPosTop:
 2842              	.LFB36:
 965:..\..\u8g2\csrc/u8g2_font.c ****   u8g2->font_calc_vref = u8g2_font_calc_vref_top;
 2843              		.loc 1 965 0
 2844              		.cfi_startproc
 2845              		@ args = 0, pretend = 0, frame = 0
 2846              		@ frame_needed = 0, uses_anonymous_args = 0
 2847              		@ link register save eliminated.
 2848              	.LVL428:
 966:..\..\u8g2\csrc/u8g2_font.c **** }
 2849              		.loc 1 966 0
 2850 0000 014B     		ldr	r3, .L150
 2851 0002 C364     		str	r3, [r0, #76]
 967:..\..\u8g2\csrc/u8g2_font.c **** 
 2852              		.loc 1 967 0
 2853              		@ sp needed
 2854 0004 7047     		bx	lr
 2855              	.L151:
 2856 0006 C046     		.align	2
 2857              	.L150:
 2858 0008 00000000 		.word	u8g2_font_calc_vref_top
 2859              		.cfi_endproc
 2860              	.LFE36:
 2861              		.size	u8g2_SetFontPosTop, .-u8g2_SetFontPosTop
 2862              		.section	.text.u8g2_SetFontPosCenter,"ax",%progbits
 2863              		.align	2
ARM GAS  C:\Users\arh\AppData\Local\Temp\cc6sEv7h.s 			page 77


 2864              		.global	u8g2_SetFontPosCenter
 2865              		.code	16
 2866              		.thumb_func
 2867              		.type	u8g2_SetFontPosCenter, %function
 2868              	u8g2_SetFontPosCenter:
 2869              	.LFB38:
 980:..\..\u8g2\csrc/u8g2_font.c ****   u8g2->font_calc_vref = u8g2_font_calc_vref_center;
 2870              		.loc 1 980 0
 2871              		.cfi_startproc
 2872              		@ args = 0, pretend = 0, frame = 0
 2873              		@ frame_needed = 0, uses_anonymous_args = 0
 2874              		@ link register save eliminated.
 2875              	.LVL429:
 981:..\..\u8g2\csrc/u8g2_font.c **** }
 2876              		.loc 1 981 0
 2877 0000 014B     		ldr	r3, .L153
 2878 0002 C364     		str	r3, [r0, #76]
 982:..\..\u8g2\csrc/u8g2_font.c **** 
 2879              		.loc 1 982 0
 2880              		@ sp needed
 2881 0004 7047     		bx	lr
 2882              	.L154:
 2883 0006 C046     		.align	2
 2884              	.L153:
 2885 0008 00000000 		.word	u8g2_font_calc_vref_center
 2886              		.cfi_endproc
 2887              	.LFE38:
 2888              		.size	u8g2_SetFontPosCenter, .-u8g2_SetFontPosCenter
 2889              		.section	.text.u8g2_SetFont,"ax",%progbits
 2890              		.align	2
 2891              		.global	u8g2_SetFont
 2892              		.code	16
 2893              		.thumb_func
 2894              		.type	u8g2_SetFont, %function
 2895              	u8g2_SetFont:
 2896              	.LFB39:
 987:..\..\u8g2\csrc/u8g2_font.c ****   if ( u8g2->font != font )
 2897              		.loc 1 987 0
 2898              		.cfi_startproc
 2899              		@ args = 0, pretend = 0, frame = 0
 2900              		@ frame_needed = 0, uses_anonymous_args = 0
 2901              	.LVL430:
 2902 0000 10B5     		push	{r4, lr}
 2903              		.cfi_def_cfa_offset 8
 2904              		.cfi_offset 4, -8
 2905              		.cfi_offset 14, -4
 2906 0002 0400     		movs	r4, r0
 988:..\..\u8g2\csrc/u8g2_font.c ****   {
 2907              		.loc 1 988 0
 2908 0004 836C     		ldr	r3, [r0, #72]
 2909 0006 8B42     		cmp	r3, r1
 2910 0008 06D0     		beq	.L155
 990:..\..\u8g2\csrc/u8g2_font.c ****     u8g2_read_font_info(&(u8g2->font_info), font);
 2911              		.loc 1 990 0
 2912 000a 8164     		str	r1, [r0, #72]
 991:..\..\u8g2\csrc/u8g2_font.c ****     u8g2_UpdateRefHeight(u8g2);
 2913              		.loc 1 991 0
ARM GAS  C:\Users\arh\AppData\Local\Temp\cc6sEv7h.s 			page 78


 2914 000c 6030     		adds	r0, r0, #96
 2915              	.LVL431:
 2916 000e FFF7FEFF 		bl	u8g2_read_font_info
 2917              	.LVL432:
 992:..\..\u8g2\csrc/u8g2_font.c ****     /* u8g2_SetFontPosBaseline(u8g2); */ /* removed with issue 195 */
 2918              		.loc 1 992 0
 2919 0012 2000     		movs	r0, r4
 2920 0014 FFF7FEFF 		bl	u8g2_UpdateRefHeight
 2921              	.LVL433:
 2922              	.L155:
 995:..\..\u8g2\csrc/u8g2_font.c **** 
 2923              		.loc 1 995 0
 2924              		@ sp needed
 2925              	.LVL434:
 2926 0018 10BD     		pop	{r4, pc}
 2927              		.cfi_endproc
 2928              	.LFE39:
 2929              		.size	u8g2_SetFont, .-u8g2_SetFont
 2930 001a C046     		.section	.text.u8g2_GetStrX,"ax",%progbits
 2931              		.align	2
 2932              		.global	u8g2_GetStrX
 2933              		.code	16
 2934              		.thumb_func
 2935              		.type	u8g2_GetStrX, %function
 2936              	u8g2_GetStrX:
 2937              	.LFB42:
1056:..\..\u8g2\csrc/u8g2_font.c ****   uint8_t w;
 2938              		.loc 1 1056 0
 2939              		.cfi_startproc
 2940              		@ args = 0, pretend = 0, frame = 8
 2941              		@ frame_needed = 0, uses_anonymous_args = 0
 2942              	.LVL435:
 2943 0000 10B5     		push	{r4, lr}
 2944              		.cfi_def_cfa_offset 8
 2945              		.cfi_offset 4, -8
 2946              		.cfi_offset 14, -4
 2947 0002 84B0     		sub	sp, sp, #16
 2948              		.cfi_def_cfa_offset 24
1059:..\..\u8g2\csrc/u8g2_font.c ****   return ox;
 2949              		.loc 1 1059 0
 2950 0004 0E24     		movs	r4, #14
 2951 0006 6C44     		add	r4, r4, sp
 2952 0008 0978     		ldrb	r1, [r1]
 2953              	.LVL436:
 2954 000a 0D23     		movs	r3, #13
 2955 000c 6B44     		add	r3, r3, sp
 2956 000e 0093     		str	r3, [sp]
 2957 0010 2300     		movs	r3, r4
 2958 0012 0F22     		movs	r2, #15
 2959 0014 6A44     		add	r2, r2, sp
 2960 0016 FFF7FEFF 		bl	u8g2_GetGlyphHorizontalProperties
 2961              	.LVL437:
1060:..\..\u8g2\csrc/u8g2_font.c **** }
 2962              		.loc 1 1060 0
 2963 001a 0020     		movs	r0, #0
 2964 001c 2056     		ldrsb	r0, [r4, r0]
1061:..\..\u8g2\csrc/u8g2_font.c **** 
ARM GAS  C:\Users\arh\AppData\Local\Temp\cc6sEv7h.s 			page 79


 2965              		.loc 1 1061 0
 2966 001e 04B0     		add	sp, sp, #16
 2967              		@ sp needed
 2968 0020 10BD     		pop	{r4, pc}
 2969              		.cfi_endproc
 2970              	.LFE42:
 2971              		.size	u8g2_GetStrX, .-u8g2_GetStrX
 2972 0022 C046     		.section	.text.u8g2_GetStrWidth,"ax",%progbits
 2973              		.align	2
 2974              		.global	u8g2_GetStrWidth
 2975              		.code	16
 2976              		.thumb_func
 2977              		.type	u8g2_GetStrWidth, %function
 2978              	u8g2_GetStrWidth:
 2979              	.LFB44:
1133:..\..\u8g2\csrc/u8g2_font.c **** 
1134:..\..\u8g2\csrc/u8g2_font.c **** 
1135:..\..\u8g2\csrc/u8g2_font.c **** 
1136:..\..\u8g2\csrc/u8g2_font.c **** 
1137:..\..\u8g2\csrc/u8g2_font.c **** 
1138:..\..\u8g2\csrc/u8g2_font.c **** u8g2_uint_t u8g2_GetStrWidth(u8g2_t *u8g2, const char *s)
1139:..\..\u8g2\csrc/u8g2_font.c **** {
 2980              		.loc 1 1139 0
 2981              		.cfi_startproc
 2982              		@ args = 0, pretend = 0, frame = 0
 2983              		@ frame_needed = 0, uses_anonymous_args = 0
 2984              	.LVL438:
 2985 0000 10B5     		push	{r4, lr}
 2986              		.cfi_def_cfa_offset 8
 2987              		.cfi_offset 4, -8
 2988              		.cfi_offset 14, -4
1140:..\..\u8g2\csrc/u8g2_font.c ****   u8g2->u8x8.next_cb = u8x8_ascii_next;
 2989              		.loc 1 1140 0
 2990 0002 024B     		ldr	r3, .L159
 2991 0004 4360     		str	r3, [r0, #4]
1141:..\..\u8g2\csrc/u8g2_font.c ****   return u8g2_string_width(u8g2, s);
 2992              		.loc 1 1141 0
 2993 0006 FFF7FEFF 		bl	u8g2_string_width
 2994              	.LVL439:
1142:..\..\u8g2\csrc/u8g2_font.c **** }
 2995              		.loc 1 1142 0
 2996              		@ sp needed
 2997 000a 10BD     		pop	{r4, pc}
 2998              	.L160:
 2999              		.align	2
 3000              	.L159:
 3001 000c 00000000 		.word	u8x8_ascii_next
 3002              		.cfi_endproc
 3003              	.LFE44:
 3004              		.size	u8g2_GetStrWidth, .-u8g2_GetStrWidth
 3005              		.section	.text.u8g2_GetExactStrWidth,"ax",%progbits
 3006              		.align	2
 3007              		.global	u8g2_GetExactStrWidth
 3008              		.code	16
 3009              		.thumb_func
 3010              		.type	u8g2_GetExactStrWidth, %function
 3011              	u8g2_GetExactStrWidth:
ARM GAS  C:\Users\arh\AppData\Local\Temp\cc6sEv7h.s 			page 80


 3012              	.LFB45:
1143:..\..\u8g2\csrc/u8g2_font.c **** 
1144:..\..\u8g2\csrc/u8g2_font.c **** u8g2_uint_t u8g2_GetExactStrWidth(u8g2_t *u8g2, const char *s)
1145:..\..\u8g2\csrc/u8g2_font.c **** {
 3013              		.loc 1 1145 0
 3014              		.cfi_startproc
 3015              		@ args = 0, pretend = 0, frame = 0
 3016              		@ frame_needed = 0, uses_anonymous_args = 0
 3017              	.LVL440:
 3018 0000 10B5     		push	{r4, lr}
 3019              		.cfi_def_cfa_offset 8
 3020              		.cfi_offset 4, -8
 3021              		.cfi_offset 14, -4
1146:..\..\u8g2\csrc/u8g2_font.c ****   u8g2->u8x8.next_cb = u8x8_ascii_next;
 3022              		.loc 1 1146 0
 3023 0002 024B     		ldr	r3, .L162
 3024 0004 4360     		str	r3, [r0, #4]
1147:..\..\u8g2\csrc/u8g2_font.c ****   return u8g2_calculate_exact_string_width(u8g2, s);
 3025              		.loc 1 1147 0
 3026 0006 FFF7FEFF 		bl	u8g2_calculate_exact_string_width
 3027              	.LVL441:
1148:..\..\u8g2\csrc/u8g2_font.c **** }
 3028              		.loc 1 1148 0
 3029              		@ sp needed
 3030 000a 10BD     		pop	{r4, pc}
 3031              	.L163:
 3032              		.align	2
 3033              	.L162:
 3034 000c 00000000 		.word	u8x8_ascii_next
 3035              		.cfi_endproc
 3036              	.LFE45:
 3037              		.size	u8g2_GetExactStrWidth, .-u8g2_GetExactStrWidth
 3038              		.section	.text.u8g2_GetUTF8Width,"ax",%progbits
 3039              		.align	2
 3040              		.global	u8g2_GetUTF8Width
 3041              		.code	16
 3042              		.thumb_func
 3043              		.type	u8g2_GetUTF8Width, %function
 3044              	u8g2_GetUTF8Width:
 3045              	.LFB46:
1149:..\..\u8g2\csrc/u8g2_font.c **** 
1150:..\..\u8g2\csrc/u8g2_font.c **** /*
1151:..\..\u8g2\csrc/u8g2_font.c **** source: https://en.wikipedia.org/wiki/UTF-8
1152:..\..\u8g2\csrc/u8g2_font.c **** Bits	from 		to			bytes	Byte 1 		Byte 2 		Byte 3 		Byte 4 		Byte 5 		Byte 6
1153:..\..\u8g2\csrc/u8g2_font.c ****   7 	U+0000 		U+007F 		1 		0xxxxxxx
1154:..\..\u8g2\csrc/u8g2_font.c **** 11 	U+0080 		U+07FF 		2 		110xxxxx 	10xxxxxx
1155:..\..\u8g2\csrc/u8g2_font.c **** 16 	U+0800 		U+FFFF 		3 		1110xxxx 	10xxxxxx 	10xxxxxx
1156:..\..\u8g2\csrc/u8g2_font.c **** 21 	U+10000 	U+1FFFFF 	4 		11110xxx 	10xxxxxx 	10xxxxxx 	10xxxxxx
1157:..\..\u8g2\csrc/u8g2_font.c **** 26 	U+200000 	U+3FFFFFF 	5 		111110xx 	10xxxxxx 	10xxxxxx 	10xxxxxx 	10xxxxxx
1158:..\..\u8g2\csrc/u8g2_font.c **** 31 	U+4000000 	U+7FFFFFFF 	6 		1111110x 	10xxxxxx 	10xxxxxx 	10xxxxxx 	10xxxxxx 	10xxxxxx  
1159:..\..\u8g2\csrc/u8g2_font.c **** */
1160:..\..\u8g2\csrc/u8g2_font.c **** u8g2_uint_t u8g2_GetUTF8Width(u8g2_t *u8g2, const char *str)
1161:..\..\u8g2\csrc/u8g2_font.c **** {
 3046              		.loc 1 1161 0
 3047              		.cfi_startproc
 3048              		@ args = 0, pretend = 0, frame = 0
 3049              		@ frame_needed = 0, uses_anonymous_args = 0
ARM GAS  C:\Users\arh\AppData\Local\Temp\cc6sEv7h.s 			page 81


 3050              	.LVL442:
 3051 0000 10B5     		push	{r4, lr}
 3052              		.cfi_def_cfa_offset 8
 3053              		.cfi_offset 4, -8
 3054              		.cfi_offset 14, -4
1162:..\..\u8g2\csrc/u8g2_font.c ****   u8g2->u8x8.next_cb = u8x8_utf8_next;
 3055              		.loc 1 1162 0
 3056 0002 024B     		ldr	r3, .L165
 3057 0004 4360     		str	r3, [r0, #4]
1163:..\..\u8g2\csrc/u8g2_font.c ****   return u8g2_string_width(u8g2, str);
 3058              		.loc 1 1163 0
 3059 0006 FFF7FEFF 		bl	u8g2_string_width
 3060              	.LVL443:
1164:..\..\u8g2\csrc/u8g2_font.c **** }
 3061              		.loc 1 1164 0
 3062              		@ sp needed
 3063 000a 10BD     		pop	{r4, pc}
 3064              	.L166:
 3065              		.align	2
 3066              	.L165:
 3067 000c 00000000 		.word	u8x8_utf8_next
 3068              		.cfi_endproc
 3069              	.LFE46:
 3070              		.size	u8g2_GetUTF8Width, .-u8g2_GetUTF8Width
 3071              		.section	.text.u8g2_SetFontDirection,"ax",%progbits
 3072              		.align	2
 3073              		.global	u8g2_SetFontDirection
 3074              		.code	16
 3075              		.thumb_func
 3076              		.type	u8g2_SetFontDirection, %function
 3077              	u8g2_SetFontDirection:
 3078              	.LFB47:
1165:..\..\u8g2\csrc/u8g2_font.c **** 
1166:..\..\u8g2\csrc/u8g2_font.c **** 
1167:..\..\u8g2\csrc/u8g2_font.c **** 
1168:..\..\u8g2\csrc/u8g2_font.c **** void u8g2_SetFontDirection(u8g2_t *u8g2, uint8_t dir)
1169:..\..\u8g2\csrc/u8g2_font.c **** {
 3079              		.loc 1 1169 0
 3080              		.cfi_startproc
 3081              		@ args = 0, pretend = 0, frame = 0
 3082              		@ frame_needed = 0, uses_anonymous_args = 0
 3083              		@ link register save eliminated.
 3084              	.LVL444:
1170:..\..\u8g2\csrc/u8g2_font.c **** #ifdef U8G2_WITH_FONT_ROTATION  
1171:..\..\u8g2\csrc/u8g2_font.c ****   u8g2->font_decode.dir = dir;
 3085              		.loc 1 1171 0
 3086 0000 5E23     		movs	r3, #94
 3087 0002 C154     		strb	r1, [r0, r3]
1172:..\..\u8g2\csrc/u8g2_font.c **** #endif
1173:..\..\u8g2\csrc/u8g2_font.c **** }
 3088              		.loc 1 1173 0
 3089              		@ sp needed
 3090 0004 7047     		bx	lr
 3091              		.cfi_endproc
 3092              	.LFE47:
 3093              		.size	u8g2_SetFontDirection, .-u8g2_SetFontDirection
 3094 0006 C046     		.text
ARM GAS  C:\Users\arh\AppData\Local\Temp\cc6sEv7h.s 			page 82


 3095              	.Letext0:
 3096              		.file 2 "c:\\program files (x86)\\cypress\\psoc creator\\4.1\\psoc creator\\import\\gnu\\arm\\5.4.
 3097              		.file 3 "c:\\program files (x86)\\cypress\\psoc creator\\4.1\\psoc creator\\import\\gnu\\arm\\5.4.
 3098              		.file 4 "c:\\program files (x86)\\cypress\\psoc creator\\4.1\\psoc creator\\import\\gnu\\arm\\5.4.
 3099              		.file 5 "..\\..\\u8g2\\csrc\\u8x8.h"
 3100              		.file 6 "..\\..\\u8g2\\csrc\\u8g2.h"
 3101              		.section	.debug_info,"",%progbits
 3102              	.Ldebug_info0:
 3103 0000 591F0000 		.4byte	0x1f59
 3104 0004 0400     		.2byte	0x4
 3105 0006 00000000 		.4byte	.Ldebug_abbrev0
 3106 000a 04       		.byte	0x4
 3107 000b 01       		.uleb128 0x1
 3108 000c CF000000 		.4byte	.LASF208
 3109 0010 0C       		.byte	0xc
 3110 0011 34060000 		.4byte	.LASF209
 3111 0015 64040000 		.4byte	.LASF210
 3112 0019 00000000 		.4byte	.Ldebug_ranges0+0
 3113 001d 00000000 		.4byte	0
 3114 0021 00000000 		.4byte	.Ldebug_line0
 3115 0025 02       		.uleb128 0x2
 3116 0026 8B010000 		.4byte	.LASF0
 3117 002a 02       		.byte	0x2
 3118 002b 1B       		.byte	0x1b
 3119 002c 30000000 		.4byte	0x30
 3120 0030 03       		.uleb128 0x3
 3121 0031 01       		.byte	0x1
 3122 0032 06       		.byte	0x6
 3123 0033 1C020000 		.4byte	.LASF2
 3124 0037 02       		.uleb128 0x2
 3125 0038 83000000 		.4byte	.LASF1
 3126 003c 02       		.byte	0x2
 3127 003d 1D       		.byte	0x1d
 3128 003e 42000000 		.4byte	0x42
 3129 0042 03       		.uleb128 0x3
 3130 0043 01       		.byte	0x1
 3131 0044 08       		.byte	0x8
 3132 0045 C6080000 		.4byte	.LASF3
 3133 0049 03       		.uleb128 0x3
 3134 004a 02       		.byte	0x2
 3135 004b 05       		.byte	0x5
 3136 004c 27090000 		.4byte	.LASF4
 3137 0050 02       		.uleb128 0x2
 3138 0051 A00A0000 		.4byte	.LASF5
 3139 0055 02       		.byte	0x2
 3140 0056 2B       		.byte	0x2b
 3141 0057 5B000000 		.4byte	0x5b
 3142 005b 03       		.uleb128 0x3
 3143 005c 02       		.byte	0x2
 3144 005d 07       		.byte	0x7
 3145 005e 44050000 		.4byte	.LASF6
 3146 0062 03       		.uleb128 0x3
 3147 0063 04       		.byte	0x4
 3148 0064 05       		.byte	0x5
 3149 0065 BC020000 		.4byte	.LASF7
 3150 0069 02       		.uleb128 0x2
 3151 006a 7B030000 		.4byte	.LASF8
ARM GAS  C:\Users\arh\AppData\Local\Temp\cc6sEv7h.s 			page 83


 3152 006e 02       		.byte	0x2
 3153 006f 41       		.byte	0x41
 3154 0070 74000000 		.4byte	0x74
 3155 0074 03       		.uleb128 0x3
 3156 0075 04       		.byte	0x4
 3157 0076 07       		.byte	0x7
 3158 0077 DA040000 		.4byte	.LASF9
 3159 007b 03       		.uleb128 0x3
 3160 007c 08       		.byte	0x8
 3161 007d 05       		.byte	0x5
 3162 007e 0E020000 		.4byte	.LASF10
 3163 0082 03       		.uleb128 0x3
 3164 0083 08       		.byte	0x8
 3165 0084 07       		.byte	0x7
 3166 0085 5D010000 		.4byte	.LASF11
 3167 0089 04       		.uleb128 0x4
 3168 008a 04       		.byte	0x4
 3169 008b 05       		.byte	0x5
 3170 008c 696E7400 		.ascii	"int\000"
 3171 0090 03       		.uleb128 0x3
 3172 0091 04       		.byte	0x4
 3173 0092 07       		.byte	0x7
 3174 0093 12040000 		.4byte	.LASF12
 3175 0097 02       		.uleb128 0x2
 3176 0098 950B0000 		.4byte	.LASF13
 3177 009c 03       		.byte	0x3
 3178 009d 14       		.byte	0x14
 3179 009e 25000000 		.4byte	0x25
 3180 00a2 02       		.uleb128 0x2
 3181 00a3 7B0C0000 		.4byte	.LASF14
 3182 00a7 03       		.byte	0x3
 3183 00a8 18       		.byte	0x18
 3184 00a9 37000000 		.4byte	0x37
 3185 00ad 02       		.uleb128 0x2
 3186 00ae FC020000 		.4byte	.LASF15
 3187 00b2 03       		.byte	0x3
 3188 00b3 24       		.byte	0x24
 3189 00b4 50000000 		.4byte	0x50
 3190 00b8 02       		.uleb128 0x2
 3191 00b9 FE090000 		.4byte	.LASF16
 3192 00bd 03       		.byte	0x3
 3193 00be 30       		.byte	0x30
 3194 00bf 69000000 		.4byte	0x69
 3195 00c3 02       		.uleb128 0x2
 3196 00c4 52000000 		.4byte	.LASF17
 3197 00c8 04       		.byte	0x4
 3198 00c9 D8       		.byte	0xd8
 3199 00ca 90000000 		.4byte	0x90
 3200 00ce 03       		.uleb128 0x3
 3201 00cf 08       		.byte	0x8
 3202 00d0 04       		.byte	0x4
 3203 00d1 0E070000 		.4byte	.LASF18
 3204 00d5 02       		.uleb128 0x2
 3205 00d6 4F0B0000 		.4byte	.LASF19
 3206 00da 05       		.byte	0x5
 3207 00db B5       		.byte	0xb5
 3208 00dc E0000000 		.4byte	0xe0
ARM GAS  C:\Users\arh\AppData\Local\Temp\cc6sEv7h.s 			page 84


 3209 00e0 05       		.uleb128 0x5
 3210 00e1 E0050000 		.4byte	.LASF40
 3211 00e5 2C       		.byte	0x2c
 3212 00e6 05       		.byte	0x5
 3213 00e7 3801     		.2byte	0x138
 3214 00e9 E5010000 		.4byte	0x1e5
 3215 00ed 06       		.uleb128 0x6
 3216 00ee A1050000 		.4byte	.LASF20
 3217 00f2 05       		.byte	0x5
 3218 00f3 3A01     		.2byte	0x13a
 3219 00f5 48030000 		.4byte	0x348
 3220 00f9 00       		.byte	0
 3221 00fa 06       		.uleb128 0x6
 3222 00fb 05030000 		.4byte	.LASF21
 3223 00ff 05       		.byte	0x5
 3224 0100 3B01     		.2byte	0x13b
 3225 0102 1D030000 		.4byte	0x31d
 3226 0106 04       		.byte	0x4
 3227 0107 06       		.uleb128 0x6
 3228 0108 58020000 		.4byte	.LASF22
 3229 010c 05       		.byte	0x5
 3230 010d 3C01     		.2byte	0x13c
 3231 010f E6020000 		.4byte	0x2e6
 3232 0113 08       		.byte	0x8
 3233 0114 06       		.uleb128 0x6
 3234 0115 70070000 		.4byte	.LASF23
 3235 0119 05       		.byte	0x5
 3236 011a 3D01     		.2byte	0x13d
 3237 011c E6020000 		.4byte	0x2e6
 3238 0120 0C       		.byte	0xc
 3239 0121 06       		.uleb128 0x6
 3240 0122 8D000000 		.4byte	.LASF24
 3241 0126 05       		.byte	0x5
 3242 0127 3E01     		.2byte	0x13e
 3243 0129 E6020000 		.4byte	0x2e6
 3244 012d 10       		.byte	0x10
 3245 012e 06       		.uleb128 0x6
 3246 012f 1A030000 		.4byte	.LASF25
 3247 0133 05       		.byte	0x5
 3248 0134 3F01     		.2byte	0x13f
 3249 0136 E6020000 		.4byte	0x2e6
 3250 013a 14       		.byte	0x14
 3251 013b 06       		.uleb128 0x6
 3252 013c 530C0000 		.4byte	.LASF26
 3253 0140 05       		.byte	0x5
 3254 0141 4001     		.2byte	0x140
 3255 0143 53030000 		.4byte	0x353
 3256 0147 18       		.byte	0x18
 3257 0148 06       		.uleb128 0x6
 3258 0149 6F060000 		.4byte	.LASF27
 3259 014d 05       		.byte	0x5
 3260 014e 4101     		.2byte	0x141
 3261 0150 AD000000 		.4byte	0xad
 3262 0154 1C       		.byte	0x1c
 3263 0155 06       		.uleb128 0x6
 3264 0156 FC070000 		.4byte	.LASF28
 3265 015a 05       		.byte	0x5
ARM GAS  C:\Users\arh\AppData\Local\Temp\cc6sEv7h.s 			page 85


 3266 015b 4201     		.2byte	0x142
 3267 015d A2000000 		.4byte	0xa2
 3268 0161 1E       		.byte	0x1e
 3269 0162 06       		.uleb128 0x6
 3270 0163 34020000 		.4byte	.LASF29
 3271 0167 05       		.byte	0x5
 3272 0168 4301     		.2byte	0x143
 3273 016a A2000000 		.4byte	0xa2
 3274 016e 1F       		.byte	0x1f
 3275 016f 06       		.uleb128 0x6
 3276 0170 BB040000 		.4byte	.LASF30
 3277 0174 05       		.byte	0x5
 3278 0175 4401     		.2byte	0x144
 3279 0177 A2000000 		.4byte	0xa2
 3280 017b 20       		.byte	0x20
 3281 017c 06       		.uleb128 0x6
 3282 017d 9D0C0000 		.4byte	.LASF31
 3283 0181 05       		.byte	0x5
 3284 0182 4701     		.2byte	0x147
 3285 0184 A2000000 		.4byte	0xa2
 3286 0188 21       		.byte	0x21
 3287 0189 06       		.uleb128 0x6
 3288 018a DB070000 		.4byte	.LASF32
 3289 018e 05       		.byte	0x5
 3290 018f 4801     		.2byte	0x148
 3291 0191 A2000000 		.4byte	0xa2
 3292 0195 22       		.byte	0x22
 3293 0196 06       		.uleb128 0x6
 3294 0197 BF010000 		.4byte	.LASF33
 3295 019b 05       		.byte	0x5
 3296 019c 4901     		.2byte	0x149
 3297 019e A2000000 		.4byte	0xa2
 3298 01a2 23       		.byte	0x23
 3299 01a3 06       		.uleb128 0x6
 3300 01a4 E2010000 		.4byte	.LASF34
 3301 01a8 05       		.byte	0x5
 3302 01a9 4A01     		.2byte	0x14a
 3303 01ab A2000000 		.4byte	0xa2
 3304 01af 24       		.byte	0x24
 3305 01b0 06       		.uleb128 0x6
 3306 01b1 FB0C0000 		.4byte	.LASF35
 3307 01b5 05       		.byte	0x5
 3308 01b6 4B01     		.2byte	0x14b
 3309 01b8 A2000000 		.4byte	0xa2
 3310 01bc 25       		.byte	0x25
 3311 01bd 06       		.uleb128 0x6
 3312 01be 77050000 		.4byte	.LASF36
 3313 01c2 05       		.byte	0x5
 3314 01c3 4C01     		.2byte	0x14c
 3315 01c5 A2000000 		.4byte	0xa2
 3316 01c9 26       		.byte	0x26
 3317 01ca 06       		.uleb128 0x6
 3318 01cb B10B0000 		.4byte	.LASF37
 3319 01cf 05       		.byte	0x5
 3320 01d0 4D01     		.2byte	0x14d
 3321 01d2 A2000000 		.4byte	0xa2
 3322 01d6 27       		.byte	0x27
ARM GAS  C:\Users\arh\AppData\Local\Temp\cc6sEv7h.s 			page 86


 3323 01d7 06       		.uleb128 0x6
 3324 01d8 FE030000 		.4byte	.LASF38
 3325 01dc 05       		.byte	0x5
 3326 01dd 4E01     		.2byte	0x14e
 3327 01df A2000000 		.4byte	0xa2
 3328 01e3 28       		.byte	0x28
 3329 01e4 00       		.byte	0
 3330 01e5 02       		.uleb128 0x2
 3331 01e6 67030000 		.4byte	.LASF39
 3332 01ea 05       		.byte	0x5
 3333 01eb B6       		.byte	0xb6
 3334 01ec F0010000 		.4byte	0x1f0
 3335 01f0 07       		.uleb128 0x7
 3336 01f1 210D0000 		.4byte	.LASF41
 3337 01f5 18       		.byte	0x18
 3338 01f6 05       		.byte	0x5
 3339 01f7 CF       		.byte	0xcf
 3340 01f8 E6020000 		.4byte	0x2e6
 3341 01fc 08       		.uleb128 0x8
 3342 01fd 3F0A0000 		.4byte	.LASF42
 3343 0201 05       		.byte	0x5
 3344 0202 D3       		.byte	0xd3
 3345 0203 A2000000 		.4byte	0xa2
 3346 0207 00       		.byte	0
 3347 0208 08       		.uleb128 0x8
 3348 0209 100C0000 		.4byte	.LASF43
 3349 020d 05       		.byte	0x5
 3350 020e D4       		.byte	0xd4
 3351 020f A2000000 		.4byte	0xa2
 3352 0213 01       		.byte	0x1
 3353 0214 08       		.uleb128 0x8
 3354 0215 D80A0000 		.4byte	.LASF44
 3355 0219 05       		.byte	0x5
 3356 021a D6       		.byte	0xd6
 3357 021b A2000000 		.4byte	0xa2
 3358 021f 02       		.byte	0x2
 3359 0220 08       		.uleb128 0x8
 3360 0221 8F020000 		.4byte	.LASF45
 3361 0225 05       		.byte	0x5
 3362 0226 D7       		.byte	0xd7
 3363 0227 A2000000 		.4byte	0xa2
 3364 022b 03       		.byte	0x3
 3365 022c 08       		.uleb128 0x8
 3366 022d 3D000000 		.4byte	.LASF46
 3367 0231 05       		.byte	0x5
 3368 0232 D8       		.byte	0xd8
 3369 0233 A2000000 		.4byte	0xa2
 3370 0237 04       		.byte	0x4
 3371 0238 08       		.uleb128 0x8
 3372 0239 94010000 		.4byte	.LASF47
 3373 023d 05       		.byte	0x5
 3374 023e D9       		.byte	0xd9
 3375 023f A2000000 		.4byte	0xa2
 3376 0243 05       		.byte	0x5
 3377 0244 08       		.uleb128 0x8
 3378 0245 B7030000 		.4byte	.LASF48
 3379 0249 05       		.byte	0x5
ARM GAS  C:\Users\arh\AppData\Local\Temp\cc6sEv7h.s 			page 87


 3380 024a E0       		.byte	0xe0
 3381 024b A2000000 		.4byte	0xa2
 3382 024f 06       		.byte	0x6
 3383 0250 08       		.uleb128 0x8
 3384 0251 B8050000 		.4byte	.LASF49
 3385 0255 05       		.byte	0x5
 3386 0256 E4       		.byte	0xe4
 3387 0257 A2000000 		.4byte	0xa2
 3388 025b 07       		.byte	0x7
 3389 025c 08       		.uleb128 0x8
 3390 025d 900D0000 		.4byte	.LASF50
 3391 0261 05       		.byte	0x5
 3392 0262 E7       		.byte	0xe7
 3393 0263 B8000000 		.4byte	0xb8
 3394 0267 08       		.byte	0x8
 3395 0268 08       		.uleb128 0x8
 3396 0269 360A0000 		.4byte	.LASF51
 3397 026d 05       		.byte	0x5
 3398 026e F1       		.byte	0xf1
 3399 026f A2000000 		.4byte	0xa2
 3400 0273 0C       		.byte	0xc
 3401 0274 08       		.uleb128 0x8
 3402 0275 E9090000 		.4byte	.LASF52
 3403 0279 05       		.byte	0x5
 3404 027a F4       		.byte	0xf4
 3405 027b A2000000 		.4byte	0xa2
 3406 027f 0D       		.byte	0xd
 3407 0280 08       		.uleb128 0x8
 3408 0281 AB090000 		.4byte	.LASF53
 3409 0285 05       		.byte	0x5
 3410 0286 FA       		.byte	0xfa
 3411 0287 A2000000 		.4byte	0xa2
 3412 028b 0E       		.byte	0xe
 3413 028c 08       		.uleb128 0x8
 3414 028d B8070000 		.4byte	.LASF54
 3415 0291 05       		.byte	0x5
 3416 0292 FC       		.byte	0xfc
 3417 0293 A2000000 		.4byte	0xa2
 3418 0297 0F       		.byte	0xf
 3419 0298 08       		.uleb128 0x8
 3420 0299 DE0C0000 		.4byte	.LASF55
 3421 029d 05       		.byte	0x5
 3422 029e FF       		.byte	0xff
 3423 029f A2000000 		.4byte	0xa2
 3424 02a3 10       		.byte	0x10
 3425 02a4 06       		.uleb128 0x6
 3426 02a5 2F080000 		.4byte	.LASF56
 3427 02a9 05       		.byte	0x5
 3428 02aa 0001     		.2byte	0x100
 3429 02ac A2000000 		.4byte	0xa2
 3430 02b0 11       		.byte	0x11
 3431 02b1 06       		.uleb128 0x6
 3432 02b2 5E060000 		.4byte	.LASF57
 3433 02b6 05       		.byte	0x5
 3434 02b7 0201     		.2byte	0x102
 3435 02b9 A2000000 		.4byte	0xa2
 3436 02bd 12       		.byte	0x12
ARM GAS  C:\Users\arh\AppData\Local\Temp\cc6sEv7h.s 			page 88


 3437 02be 06       		.uleb128 0x6
 3438 02bf B4060000 		.4byte	.LASF58
 3439 02c3 05       		.byte	0x5
 3440 02c4 0301     		.2byte	0x103
 3441 02c6 A2000000 		.4byte	0xa2
 3442 02ca 13       		.byte	0x13
 3443 02cb 06       		.uleb128 0x6
 3444 02cc BF0C0000 		.4byte	.LASF59
 3445 02d0 05       		.byte	0x5
 3446 02d1 0B01     		.2byte	0x10b
 3447 02d3 AD000000 		.4byte	0xad
 3448 02d7 14       		.byte	0x14
 3449 02d8 06       		.uleb128 0x6
 3450 02d9 830D0000 		.4byte	.LASF60
 3451 02dd 05       		.byte	0x5
 3452 02de 0C01     		.2byte	0x10c
 3453 02e0 AD000000 		.4byte	0xad
 3454 02e4 16       		.byte	0x16
 3455 02e5 00       		.byte	0
 3456 02e6 02       		.uleb128 0x2
 3457 02e7 9F080000 		.4byte	.LASF61
 3458 02eb 05       		.byte	0x5
 3459 02ec B9       		.byte	0xb9
 3460 02ed F1020000 		.4byte	0x2f1
 3461 02f1 09       		.uleb128 0x9
 3462 02f2 04       		.byte	0x4
 3463 02f3 F7020000 		.4byte	0x2f7
 3464 02f7 0A       		.uleb128 0xa
 3465 02f8 A2000000 		.4byte	0xa2
 3466 02fc 15030000 		.4byte	0x315
 3467 0300 0B       		.uleb128 0xb
 3468 0301 15030000 		.4byte	0x315
 3469 0305 0B       		.uleb128 0xb
 3470 0306 A2000000 		.4byte	0xa2
 3471 030a 0B       		.uleb128 0xb
 3472 030b A2000000 		.4byte	0xa2
 3473 030f 0B       		.uleb128 0xb
 3474 0310 1B030000 		.4byte	0x31b
 3475 0314 00       		.byte	0
 3476 0315 09       		.uleb128 0x9
 3477 0316 04       		.byte	0x4
 3478 0317 D5000000 		.4byte	0xd5
 3479 031b 0C       		.uleb128 0xc
 3480 031c 04       		.byte	0x4
 3481 031d 02       		.uleb128 0x2
 3482 031e 0D030000 		.4byte	.LASF62
 3483 0322 05       		.byte	0x5
 3484 0323 BA       		.byte	0xba
 3485 0324 28030000 		.4byte	0x328
 3486 0328 09       		.uleb128 0x9
 3487 0329 04       		.byte	0x4
 3488 032a 2E030000 		.4byte	0x32e
 3489 032e 0A       		.uleb128 0xa
 3490 032f AD000000 		.4byte	0xad
 3491 0333 42030000 		.4byte	0x342
 3492 0337 0B       		.uleb128 0xb
 3493 0338 15030000 		.4byte	0x315
ARM GAS  C:\Users\arh\AppData\Local\Temp\cc6sEv7h.s 			page 89


 3494 033c 0B       		.uleb128 0xb
 3495 033d A2000000 		.4byte	0xa2
 3496 0341 00       		.byte	0
 3497 0342 09       		.uleb128 0x9
 3498 0343 04       		.byte	0x4
 3499 0344 A2000000 		.4byte	0xa2
 3500 0348 09       		.uleb128 0x9
 3501 0349 04       		.byte	0x4
 3502 034a 4E030000 		.4byte	0x34e
 3503 034e 0D       		.uleb128 0xd
 3504 034f E5010000 		.4byte	0x1e5
 3505 0353 09       		.uleb128 0x9
 3506 0354 04       		.byte	0x4
 3507 0355 59030000 		.4byte	0x359
 3508 0359 0D       		.uleb128 0xd
 3509 035a A2000000 		.4byte	0xa2
 3510 035e 02       		.uleb128 0x2
 3511 035f 28020000 		.4byte	.LASF63
 3512 0363 06       		.byte	0x6
 3513 0364 B9       		.byte	0xb9
 3514 0365 A2000000 		.4byte	0xa2
 3515 0369 02       		.uleb128 0x2
 3516 036a EC040000 		.4byte	.LASF64
 3517 036e 06       		.byte	0x6
 3518 036f BF       		.byte	0xbf
 3519 0370 74030000 		.4byte	0x374
 3520 0374 05       		.uleb128 0x5
 3521 0375 CC090000 		.4byte	.LASF65
 3522 0379 80       		.byte	0x80
 3523 037a 06       		.byte	0x6
 3524 037b 1C01     		.2byte	0x11c
 3525 037d E0040000 		.4byte	0x4e0
 3526 0381 06       		.uleb128 0x6
 3527 0382 62090000 		.4byte	.LASF66
 3528 0386 06       		.byte	0x6
 3529 0387 1E01     		.2byte	0x11e
 3530 0389 D5000000 		.4byte	0xd5
 3531 038d 00       		.byte	0
 3532 038e 06       		.uleb128 0x6
 3533 038f 69080000 		.4byte	.LASF67
 3534 0393 06       		.byte	0x6
 3535 0394 1F01     		.2byte	0x11f
 3536 0396 65050000 		.4byte	0x565
 3537 039a 2C       		.byte	0x2c
 3538 039b 0E       		.uleb128 0xe
 3539 039c 636200   		.ascii	"cb\000"
 3540 039f 06       		.byte	0x6
 3541 03a0 2001     		.2byte	0x120
 3542 03a2 B3070000 		.4byte	0x7b3
 3543 03a6 30       		.byte	0x30
 3544 03a7 06       		.uleb128 0x6
 3545 03a8 69000000 		.4byte	.LASF68
 3546 03ac 06       		.byte	0x6
 3547 03ad 2301     		.2byte	0x123
 3548 03af 42030000 		.4byte	0x342
 3549 03b3 34       		.byte	0x34
 3550 03b4 06       		.uleb128 0x6
ARM GAS  C:\Users\arh\AppData\Local\Temp\cc6sEv7h.s 			page 90


 3551 03b5 34050000 		.4byte	.LASF69
 3552 03b9 06       		.byte	0x6
 3553 03ba 2401     		.2byte	0x124
 3554 03bc A2000000 		.4byte	0xa2
 3555 03c0 38       		.byte	0x38
 3556 03c1 06       		.uleb128 0x6
 3557 03c2 190A0000 		.4byte	.LASF70
 3558 03c6 06       		.byte	0x6
 3559 03c7 2501     		.2byte	0x125
 3560 03c9 A2000000 		.4byte	0xa2
 3561 03cd 39       		.byte	0x39
 3562 03ce 06       		.uleb128 0x6
 3563 03cf 06090000 		.4byte	.LASF71
 3564 03d3 06       		.byte	0x6
 3565 03d4 2801     		.2byte	0x128
 3566 03d6 5E030000 		.4byte	0x35e
 3567 03da 3A       		.byte	0x3a
 3568 03db 06       		.uleb128 0x6
 3569 03dc 30040000 		.4byte	.LASF72
 3570 03e0 06       		.byte	0x6
 3571 03e1 2901     		.2byte	0x129
 3572 03e3 5E030000 		.4byte	0x35e
 3573 03e7 3B       		.byte	0x3b
 3574 03e8 06       		.uleb128 0x6
 3575 03e9 44070000 		.4byte	.LASF73
 3576 03ed 06       		.byte	0x6
 3577 03ee 2A01     		.2byte	0x12a
 3578 03f0 5E030000 		.4byte	0x35e
 3579 03f4 3C       		.byte	0x3c
 3580 03f5 06       		.uleb128 0x6
 3581 03f6 CD070000 		.4byte	.LASF74
 3582 03fa 06       		.byte	0x6
 3583 03fb 3001     		.2byte	0x130
 3584 03fd 5E030000 		.4byte	0x35e
 3585 0401 3D       		.byte	0x3d
 3586 0402 06       		.uleb128 0x6
 3587 0403 D4070000 		.4byte	.LASF75
 3588 0407 06       		.byte	0x6
 3589 0408 3101     		.2byte	0x131
 3590 040a 5E030000 		.4byte	0x35e
 3591 040e 3E       		.byte	0x3e
 3592 040f 06       		.uleb128 0x6
 3593 0410 2E050000 		.4byte	.LASF76
 3594 0414 06       		.byte	0x6
 3595 0415 3401     		.2byte	0x134
 3596 0417 5E030000 		.4byte	0x35e
 3597 041b 3F       		.byte	0x3f
 3598 041c 06       		.uleb128 0x6
 3599 041d 420D0000 		.4byte	.LASF77
 3600 0421 06       		.byte	0x6
 3601 0422 3501     		.2byte	0x135
 3602 0424 5E030000 		.4byte	0x35e
 3603 0428 40       		.byte	0x40
 3604 0429 06       		.uleb128 0x6
 3605 042a 7A090000 		.4byte	.LASF78
 3606 042e 06       		.byte	0x6
 3607 042f 3A01     		.2byte	0x13a
ARM GAS  C:\Users\arh\AppData\Local\Temp\cc6sEv7h.s 			page 91


 3608 0431 5E030000 		.4byte	0x35e
 3609 0435 41       		.byte	0x41
 3610 0436 06       		.uleb128 0x6
 3611 0437 82090000 		.4byte	.LASF79
 3612 043b 06       		.byte	0x6
 3613 043c 3B01     		.2byte	0x13b
 3614 043e 5E030000 		.4byte	0x35e
 3615 0442 42       		.byte	0x42
 3616 0443 06       		.uleb128 0x6
 3617 0444 710B0000 		.4byte	.LASF80
 3618 0448 06       		.byte	0x6
 3619 0449 3C01     		.2byte	0x13c
 3620 044b 5E030000 		.4byte	0x35e
 3621 044f 43       		.byte	0x43
 3622 0450 06       		.uleb128 0x6
 3623 0451 790B0000 		.4byte	.LASF81
 3624 0455 06       		.byte	0x6
 3625 0456 3D01     		.2byte	0x13d
 3626 0458 5E030000 		.4byte	0x35e
 3627 045c 44       		.byte	0x44
 3628 045d 06       		.uleb128 0x6
 3629 045e 530C0000 		.4byte	.LASF26
 3630 0462 06       		.byte	0x6
 3631 0463 4001     		.2byte	0x140
 3632 0465 53030000 		.4byte	0x353
 3633 0469 48       		.byte	0x48
 3634 046a 06       		.uleb128 0x6
 3635 046b 91030000 		.4byte	.LASF82
 3636 046f 06       		.byte	0x6
 3637 0470 4401     		.2byte	0x144
 3638 0472 92070000 		.4byte	0x792
 3639 0476 4C       		.byte	0x4c
 3640 0477 06       		.uleb128 0x6
 3641 0478 680A0000 		.4byte	.LASF83
 3642 047c 06       		.byte	0x6
 3643 047d 4501     		.2byte	0x145
 3644 047f 13070000 		.4byte	0x713
 3645 0483 50       		.byte	0x50
 3646 0484 06       		.uleb128 0x6
 3647 0485 AE050000 		.4byte	.LASF84
 3648 0489 06       		.byte	0x6
 3649 048a 4601     		.2byte	0x146
 3650 048c 6D060000 		.4byte	0x66d
 3651 0490 60       		.byte	0x60
 3652 0491 06       		.uleb128 0x6
 3653 0492 78060000 		.4byte	.LASF85
 3654 0496 06       		.byte	0x6
 3655 0497 4801     		.2byte	0x148
 3656 0499 A2000000 		.4byte	0xa2
 3657 049d 78       		.byte	0x78
 3658 049e 06       		.uleb128 0x6
 3659 049f A0030000 		.4byte	.LASF86
 3660 04a3 06       		.byte	0x6
 3661 04a4 4901     		.2byte	0x149
 3662 04a6 97000000 		.4byte	0x97
 3663 04aa 79       		.byte	0x79
 3664 04ab 06       		.uleb128 0x6
ARM GAS  C:\Users\arh\AppData\Local\Temp\cc6sEv7h.s 			page 92


 3665 04ac 56030000 		.4byte	.LASF87
 3666 04b0 06       		.byte	0x6
 3667 04b1 4A01     		.2byte	0x14a
 3668 04b3 97000000 		.4byte	0x97
 3669 04b7 7A       		.byte	0x7a
 3670 04b8 06       		.uleb128 0x6
 3671 04b9 80020000 		.4byte	.LASF88
 3672 04bd 06       		.byte	0x6
 3673 04be 4C01     		.2byte	0x14c
 3674 04c0 97000000 		.4byte	0x97
 3675 04c4 7B       		.byte	0x7b
 3676 04c5 06       		.uleb128 0x6
 3677 04c6 AB0A0000 		.4byte	.LASF89
 3678 04ca 06       		.byte	0x6
 3679 04cb 4F01     		.2byte	0x14f
 3680 04cd A2000000 		.4byte	0xa2
 3681 04d1 7C       		.byte	0x7c
 3682 04d2 06       		.uleb128 0x6
 3683 04d3 F3080000 		.4byte	.LASF90
 3684 04d7 06       		.byte	0x6
 3685 04d8 5201     		.2byte	0x152
 3686 04da A2000000 		.4byte	0xa2
 3687 04de 7D       		.byte	0x7d
 3688 04df 00       		.byte	0
 3689 04e0 02       		.uleb128 0x2
 3690 04e1 2C0A0000 		.4byte	.LASF91
 3691 04e5 06       		.byte	0x6
 3692 04e6 C0       		.byte	0xc0
 3693 04e7 EB040000 		.4byte	0x4eb
 3694 04eb 05       		.uleb128 0x5
 3695 04ec AB080000 		.4byte	.LASF92
 3696 04f0 08       		.byte	0x8
 3697 04f1 06       		.byte	0x6
 3698 04f2 1301     		.2byte	0x113
 3699 04f4 13050000 		.4byte	0x513
 3700 04f8 06       		.uleb128 0x6
 3701 04f9 FA0B0000 		.4byte	.LASF93
 3702 04fd 06       		.byte	0x6
 3703 04fe 1501     		.2byte	0x115
 3704 0500 13050000 		.4byte	0x513
 3705 0504 00       		.byte	0
 3706 0505 06       		.uleb128 0x6
 3707 0506 80070000 		.4byte	.LASF94
 3708 050a 06       		.byte	0x6
 3709 050b 1601     		.2byte	0x116
 3710 050d 35050000 		.4byte	0x535
 3711 0511 04       		.byte	0x4
 3712 0512 00       		.byte	0
 3713 0513 02       		.uleb128 0x2
 3714 0514 0F0B0000 		.4byte	.LASF95
 3715 0518 06       		.byte	0x6
 3716 0519 C2       		.byte	0xc2
 3717 051a 1E050000 		.4byte	0x51e
 3718 051e 09       		.uleb128 0x9
 3719 051f 04       		.byte	0x4
 3720 0520 24050000 		.4byte	0x524
 3721 0524 0F       		.uleb128 0xf
ARM GAS  C:\Users\arh\AppData\Local\Temp\cc6sEv7h.s 			page 93


 3722 0525 2F050000 		.4byte	0x52f
 3723 0529 0B       		.uleb128 0xb
 3724 052a 2F050000 		.4byte	0x52f
 3725 052e 00       		.byte	0
 3726 052f 09       		.uleb128 0x9
 3727 0530 04       		.byte	0x4
 3728 0531 69030000 		.4byte	0x369
 3729 0535 02       		.uleb128 0x2
 3730 0536 D8090000 		.4byte	.LASF96
 3731 053a 06       		.byte	0x6
 3732 053b C3       		.byte	0xc3
 3733 053c 40050000 		.4byte	0x540
 3734 0540 09       		.uleb128 0x9
 3735 0541 04       		.byte	0x4
 3736 0542 46050000 		.4byte	0x546
 3737 0546 0F       		.uleb128 0xf
 3738 0547 65050000 		.4byte	0x565
 3739 054b 0B       		.uleb128 0xb
 3740 054c 2F050000 		.4byte	0x52f
 3741 0550 0B       		.uleb128 0xb
 3742 0551 5E030000 		.4byte	0x35e
 3743 0555 0B       		.uleb128 0xb
 3744 0556 5E030000 		.4byte	0x35e
 3745 055a 0B       		.uleb128 0xb
 3746 055b 5E030000 		.4byte	0x35e
 3747 055f 0B       		.uleb128 0xb
 3748 0560 A2000000 		.4byte	0xa2
 3749 0564 00       		.byte	0
 3750 0565 02       		.uleb128 0x2
 3751 0566 C9030000 		.4byte	.LASF97
 3752 056a 06       		.byte	0x6
 3753 056b C4       		.byte	0xc4
 3754 056c 40050000 		.4byte	0x540
 3755 0570 07       		.uleb128 0x7
 3756 0571 070A0000 		.4byte	.LASF98
 3757 0575 18       		.byte	0x18
 3758 0576 06       		.byte	0x6
 3759 0577 CA       		.byte	0xca
 3760 0578 6D060000 		.4byte	0x66d
 3761 057c 08       		.uleb128 0x8
 3762 057d C5000000 		.4byte	.LASF99
 3763 0581 06       		.byte	0x6
 3764 0582 CD       		.byte	0xcd
 3765 0583 A2000000 		.4byte	0xa2
 3766 0587 00       		.byte	0
 3767 0588 08       		.uleb128 0x8
 3768 0589 A7010000 		.4byte	.LASF100
 3769 058d 06       		.byte	0x6
 3770 058e CE       		.byte	0xce
 3771 058f A2000000 		.4byte	0xa2
 3772 0593 01       		.byte	0x1
 3773 0594 08       		.uleb128 0x8
 3774 0595 86030000 		.4byte	.LASF101
 3775 0599 06       		.byte	0x6
 3776 059a CF       		.byte	0xcf
 3777 059b A2000000 		.4byte	0xa2
 3778 059f 02       		.byte	0x2
ARM GAS  C:\Users\arh\AppData\Local\Temp\cc6sEv7h.s 			page 94


 3779 05a0 08       		.uleb128 0x8
 3780 05a1 C6060000 		.4byte	.LASF102
 3781 05a5 06       		.byte	0x6
 3782 05a6 D0       		.byte	0xd0
 3783 05a7 A2000000 		.4byte	0xa2
 3784 05ab 03       		.byte	0x3
 3785 05ac 08       		.uleb128 0x8
 3786 05ad EA030000 		.4byte	.LASF103
 3787 05b1 06       		.byte	0x6
 3788 05b2 D3       		.byte	0xd3
 3789 05b3 A2000000 		.4byte	0xa2
 3790 05b7 04       		.byte	0x4
 3791 05b8 08       		.uleb128 0x8
 3792 05b9 8B0A0000 		.4byte	.LASF104
 3793 05bd 06       		.byte	0x6
 3794 05be D4       		.byte	0xd4
 3795 05bf A2000000 		.4byte	0xa2
 3796 05c3 05       		.byte	0x5
 3797 05c4 08       		.uleb128 0x8
 3798 05c5 EE010000 		.4byte	.LASF105
 3799 05c9 06       		.byte	0x6
 3800 05ca D5       		.byte	0xd5
 3801 05cb A2000000 		.4byte	0xa2
 3802 05cf 06       		.byte	0x6
 3803 05d0 08       		.uleb128 0x8
 3804 05d1 FE010000 		.4byte	.LASF106
 3805 05d5 06       		.byte	0x6
 3806 05d6 D6       		.byte	0xd6
 3807 05d7 A2000000 		.4byte	0xa2
 3808 05db 07       		.byte	0x7
 3809 05dc 08       		.uleb128 0x8
 3810 05dd D1060000 		.4byte	.LASF107
 3811 05e1 06       		.byte	0x6
 3812 05e2 D7       		.byte	0xd7
 3813 05e3 A2000000 		.4byte	0xa2
 3814 05e7 08       		.byte	0x8
 3815 05e8 08       		.uleb128 0x8
 3816 05e9 98070000 		.4byte	.LASF108
 3817 05ed 06       		.byte	0x6
 3818 05ee DA       		.byte	0xda
 3819 05ef 97000000 		.4byte	0x97
 3820 05f3 09       		.byte	0x9
 3821 05f4 08       		.uleb128 0x8
 3822 05f5 EC020000 		.4byte	.LASF109
 3823 05f9 06       		.byte	0x6
 3824 05fa DB       		.byte	0xdb
 3825 05fb 97000000 		.4byte	0x97
 3826 05ff 0A       		.byte	0xa
 3827 0600 08       		.uleb128 0x8
 3828 0601 FC070000 		.4byte	.LASF28
 3829 0605 06       		.byte	0x6
 3830 0606 DC       		.byte	0xdc
 3831 0607 97000000 		.4byte	0x97
 3832 060b 0B       		.byte	0xb
 3833 060c 08       		.uleb128 0x8
 3834 060d CA010000 		.4byte	.LASF110
 3835 0611 06       		.byte	0x6
ARM GAS  C:\Users\arh\AppData\Local\Temp\cc6sEv7h.s 			page 95


 3836 0612 DD       		.byte	0xdd
 3837 0613 97000000 		.4byte	0x97
 3838 0617 0C       		.byte	0xc
 3839 0618 08       		.uleb128 0x8
 3840 0619 EA080000 		.4byte	.LASF111
 3841 061d 06       		.byte	0x6
 3842 061e E0       		.byte	0xe0
 3843 061f 97000000 		.4byte	0x97
 3844 0623 0D       		.byte	0xd
 3845 0624 08       		.uleb128 0x8
 3846 0625 E0030000 		.4byte	.LASF112
 3847 0629 06       		.byte	0x6
 3848 062a E1       		.byte	0xe1
 3849 062b 97000000 		.4byte	0x97
 3850 062f 0E       		.byte	0xe
 3851 0630 08       		.uleb128 0x8
 3852 0631 74020000 		.4byte	.LASF113
 3853 0635 06       		.byte	0x6
 3854 0636 E2       		.byte	0xe2
 3855 0637 97000000 		.4byte	0x97
 3856 063b 0F       		.byte	0xf
 3857 063c 08       		.uleb128 0x8
 3858 063d 94050000 		.4byte	.LASF114
 3859 0641 06       		.byte	0x6
 3860 0642 E3       		.byte	0xe3
 3861 0643 97000000 		.4byte	0x97
 3862 0647 10       		.byte	0x10
 3863 0648 08       		.uleb128 0x8
 3864 0649 A2060000 		.4byte	.LASF115
 3865 064d 06       		.byte	0x6
 3866 064e E6       		.byte	0xe6
 3867 064f AD000000 		.4byte	0xad
 3868 0653 12       		.byte	0x12
 3869 0654 08       		.uleb128 0x8
 3870 0655 600C0000 		.4byte	.LASF116
 3871 0659 06       		.byte	0x6
 3872 065a E7       		.byte	0xe7
 3873 065b AD000000 		.4byte	0xad
 3874 065f 14       		.byte	0x14
 3875 0660 08       		.uleb128 0x8
 3876 0661 2B000000 		.4byte	.LASF117
 3877 0665 06       		.byte	0x6
 3878 0666 EB       		.byte	0xeb
 3879 0667 AD000000 		.4byte	0xad
 3880 066b 16       		.byte	0x16
 3881 066c 00       		.byte	0
 3882 066d 02       		.uleb128 0x2
 3883 066e 2C030000 		.4byte	.LASF118
 3884 0672 06       		.byte	0x6
 3885 0673 EE       		.byte	0xee
 3886 0674 70050000 		.4byte	0x570
 3887 0678 07       		.uleb128 0x7
 3888 0679 810B0000 		.4byte	.LASF119
 3889 067d 10       		.byte	0x10
 3890 067e 06       		.byte	0x6
 3891 067f F1       		.byte	0xf1
 3892 0680 13070000 		.4byte	0x713
ARM GAS  C:\Users\arh\AppData\Local\Temp\cc6sEv7h.s 			page 96


 3893 0684 08       		.uleb128 0x8
 3894 0685 23050000 		.4byte	.LASF120
 3895 0689 06       		.byte	0x6
 3896 068a F3       		.byte	0xf3
 3897 068b 53030000 		.4byte	0x353
 3898 068f 00       		.byte	0
 3899 0690 08       		.uleb128 0x8
 3900 0691 280B0000 		.4byte	.LASF121
 3901 0695 06       		.byte	0x6
 3902 0696 F5       		.byte	0xf5
 3903 0697 5E030000 		.4byte	0x35e
 3904 069b 04       		.byte	0x4
 3905 069c 08       		.uleb128 0x8
 3906 069d 310B0000 		.4byte	.LASF122
 3907 06a1 06       		.byte	0x6
 3908 06a2 F6       		.byte	0xf6
 3909 06a3 5E030000 		.4byte	0x35e
 3910 06a7 05       		.byte	0x5
 3911 06a8 10       		.uleb128 0x10
 3912 06a9 7800     		.ascii	"x\000"
 3913 06ab 06       		.byte	0x6
 3914 06ac F8       		.byte	0xf8
 3915 06ad 97000000 		.4byte	0x97
 3916 06b1 06       		.byte	0x6
 3917 06b2 10       		.uleb128 0x10
 3918 06b3 7900     		.ascii	"y\000"
 3919 06b5 06       		.byte	0x6
 3920 06b6 F9       		.byte	0xf9
 3921 06b7 97000000 		.4byte	0x97
 3922 06bb 07       		.byte	0x7
 3923 06bc 08       		.uleb128 0x8
 3924 06bd BA080000 		.4byte	.LASF123
 3925 06c1 06       		.byte	0x6
 3926 06c2 FA       		.byte	0xfa
 3927 06c3 97000000 		.4byte	0x97
 3928 06c7 08       		.byte	0x8
 3929 06c8 08       		.uleb128 0x8
 3930 06c9 F1060000 		.4byte	.LASF124
 3931 06cd 06       		.byte	0x6
 3932 06ce FB       		.byte	0xfb
 3933 06cf 97000000 		.4byte	0x97
 3934 06d3 09       		.byte	0x9
 3935 06d4 08       		.uleb128 0x8
 3936 06d5 E2060000 		.4byte	.LASF125
 3937 06d9 06       		.byte	0x6
 3938 06da FD       		.byte	0xfd
 3939 06db A2000000 		.4byte	0xa2
 3940 06df 0A       		.byte	0xa
 3941 06e0 08       		.uleb128 0x8
 3942 06e1 B0010000 		.4byte	.LASF126
 3943 06e5 06       		.byte	0x6
 3944 06e6 FE       		.byte	0xfe
 3945 06e7 A2000000 		.4byte	0xa2
 3946 06eb 0B       		.byte	0xb
 3947 06ec 08       		.uleb128 0x8
 3948 06ed 80080000 		.4byte	.LASF127
 3949 06f1 06       		.byte	0x6
ARM GAS  C:\Users\arh\AppData\Local\Temp\cc6sEv7h.s 			page 97


 3950 06f2 FF       		.byte	0xff
 3951 06f3 A2000000 		.4byte	0xa2
 3952 06f7 0C       		.byte	0xc
 3953 06f8 06       		.uleb128 0x6
 3954 06f9 77070000 		.4byte	.LASF128
 3955 06fd 06       		.byte	0x6
 3956 06fe 0001     		.2byte	0x100
 3957 0700 A2000000 		.4byte	0xa2
 3958 0704 0D       		.byte	0xd
 3959 0705 0E       		.uleb128 0xe
 3960 0706 64697200 		.ascii	"dir\000"
 3961 070a 06       		.byte	0x6
 3962 070b 0201     		.2byte	0x102
 3963 070d A2000000 		.4byte	0xa2
 3964 0711 0E       		.byte	0xe
 3965 0712 00       		.byte	0
 3966 0713 11       		.uleb128 0x11
 3967 0714 AA000000 		.4byte	.LASF129
 3968 0718 06       		.byte	0x6
 3969 0719 0501     		.2byte	0x105
 3970 071b 78060000 		.4byte	0x678
 3971 071f 05       		.uleb128 0x5
 3972 0720 F10A0000 		.4byte	.LASF130
 3973 0724 14       		.byte	0x14
 3974 0725 06       		.byte	0x6
 3975 0726 0701     		.2byte	0x107
 3976 0728 7B070000 		.4byte	0x77b
 3977 072c 06       		.uleb128 0x6
 3978 072d 59000000 		.4byte	.LASF131
 3979 0731 06       		.byte	0x6
 3980 0732 0901     		.2byte	0x109
 3981 0734 AD000000 		.4byte	0xad
 3982 0738 00       		.byte	0
 3983 0739 06       		.uleb128 0x6
 3984 073a 04060000 		.4byte	.LASF132
 3985 073e 06       		.byte	0x6
 3986 073f 0A01     		.2byte	0x10a
 3987 0741 AD000000 		.4byte	0xad
 3988 0745 02       		.byte	0x2
 3989 0746 06       		.uleb128 0x6
 3990 0747 D7020000 		.4byte	.LASF133
 3991 074b 06       		.byte	0x6
 3992 074c 0B01     		.2byte	0x10b
 3993 074e 7B070000 		.4byte	0x77b
 3994 0752 04       		.byte	0x4
 3995 0753 06       		.uleb128 0x6
 3996 0754 1A070000 		.4byte	.LASF134
 3997 0758 06       		.byte	0x6
 3998 0759 0C01     		.2byte	0x10c
 3999 075b 7B070000 		.4byte	0x77b
 4000 075f 08       		.byte	0x8
 4001 0760 06       		.uleb128 0x6
 4002 0761 89080000 		.4byte	.LASF135
 4003 0765 06       		.byte	0x6
 4004 0766 0D01     		.2byte	0x10d
 4005 0768 7B070000 		.4byte	0x77b
 4006 076c 0C       		.byte	0xc
ARM GAS  C:\Users\arh\AppData\Local\Temp\cc6sEv7h.s 			page 98


 4007 076d 06       		.uleb128 0x6
 4008 076e 89070000 		.4byte	.LASF136
 4009 0772 06       		.byte	0x6
 4010 0773 0E01     		.2byte	0x10e
 4011 0775 53030000 		.4byte	0x353
 4012 0779 10       		.byte	0x10
 4013 077a 00       		.byte	0
 4014 077b 09       		.uleb128 0x9
 4015 077c 04       		.byte	0x4
 4016 077d 81070000 		.4byte	0x781
 4017 0781 0D       		.uleb128 0xd
 4018 0782 AD000000 		.4byte	0xad
 4019 0786 11       		.uleb128 0x11
 4020 0787 010C0000 		.4byte	.LASF137
 4021 078b 06       		.byte	0x6
 4022 078c 1001     		.2byte	0x110
 4023 078e 1F070000 		.4byte	0x71f
 4024 0792 11       		.uleb128 0x11
 4025 0793 830C0000 		.4byte	.LASF138
 4026 0797 06       		.byte	0x6
 4027 0798 1901     		.2byte	0x119
 4028 079a 9E070000 		.4byte	0x79e
 4029 079e 09       		.uleb128 0x9
 4030 079f 04       		.byte	0x4
 4031 07a0 A4070000 		.4byte	0x7a4
 4032 07a4 0A       		.uleb128 0xa
 4033 07a5 5E030000 		.4byte	0x35e
 4034 07a9 B3070000 		.4byte	0x7b3
 4035 07ad 0B       		.uleb128 0xb
 4036 07ae 2F050000 		.4byte	0x52f
 4037 07b2 00       		.byte	0
 4038 07b3 09       		.uleb128 0x9
 4039 07b4 04       		.byte	0x4
 4040 07b5 B9070000 		.4byte	0x7b9
 4041 07b9 0D       		.uleb128 0xd
 4042 07ba E0040000 		.4byte	0x4e0
 4043 07be 12       		.uleb128 0x12
 4044 07bf CB0C0000 		.4byte	.LASF140
 4045 07c3 01       		.byte	0x1
 4046 07c4 6F       		.byte	0x6f
 4047 07c5 A2000000 		.4byte	0xa2
 4048 07c9 00000000 		.4byte	.LFB0
 4049 07cd 04000000 		.4byte	.LFE0-.LFB0
 4050 07d1 01       		.uleb128 0x1
 4051 07d2 9C       		.byte	0x9c
 4052 07d3 F4070000 		.4byte	0x7f4
 4053 07d7 13       		.uleb128 0x13
 4054 07d8 530C0000 		.4byte	.LASF26
 4055 07dc 01       		.byte	0x1
 4056 07dd 6F       		.byte	0x6f
 4057 07de 53030000 		.4byte	0x353
 4058 07e2 00000000 		.4byte	.LLST0
 4059 07e6 14       		.uleb128 0x14
 4060 07e7 B0030000 		.4byte	.LASF139
 4061 07eb 01       		.byte	0x1
 4062 07ec 6F       		.byte	0x6f
 4063 07ed A2000000 		.4byte	0xa2
ARM GAS  C:\Users\arh\AppData\Local\Temp\cc6sEv7h.s 			page 99


 4064 07f1 01       		.uleb128 0x1
 4065 07f2 51       		.byte	0x51
 4066 07f3 00       		.byte	0
 4067 07f4 12       		.uleb128 0x12
 4068 07f5 700D0000 		.4byte	.LASF141
 4069 07f9 01       		.byte	0x1
 4070 07fa 76       		.byte	0x76
 4071 07fb AD000000 		.4byte	0xad
 4072 07ff 00000000 		.4byte	.LFB1
 4073 0803 0E000000 		.4byte	.LFE1-.LFB1
 4074 0807 01       		.uleb128 0x1
 4075 0808 9C       		.byte	0x9c
 4076 0809 3B080000 		.4byte	0x83b
 4077 080d 13       		.uleb128 0x13
 4078 080e 530C0000 		.4byte	.LASF26
 4079 0812 01       		.byte	0x1
 4080 0813 76       		.byte	0x76
 4081 0814 53030000 		.4byte	0x353
 4082 0818 34000000 		.4byte	.LLST1
 4083 081c 13       		.uleb128 0x13
 4084 081d B0030000 		.4byte	.LASF139
 4085 0821 01       		.byte	0x1
 4086 0822 76       		.byte	0x76
 4087 0823 A2000000 		.4byte	0xa2
 4088 0827 5F000000 		.4byte	.LLST2
 4089 082b 15       		.uleb128 0x15
 4090 082c 706F7300 		.ascii	"pos\000"
 4091 0830 01       		.byte	0x1
 4092 0831 78       		.byte	0x78
 4093 0832 AD000000 		.4byte	0xad
 4094 0836 80000000 		.4byte	.LLST3
 4095 083a 00       		.byte	0
 4096 083b 16       		.uleb128 0x16
 4097 083c EA070000 		.4byte	.LASF142
 4098 0840 01       		.byte	0x1
 4099 0841 2601     		.2byte	0x126
 4100 0843 5E030000 		.4byte	0x35e
 4101 0847 00000000 		.4byte	.LFB11
 4102 084b 26000000 		.4byte	.LFE11-.LFB11
 4103 084f 01       		.uleb128 0x1
 4104 0850 9C       		.byte	0x9c
 4105 0851 8B080000 		.4byte	0x88b
 4106 0855 17       		.uleb128 0x17
 4107 0856 647900   		.ascii	"dy\000"
 4108 0859 01       		.byte	0x1
 4109 085a 2601     		.2byte	0x126
 4110 085c 5E030000 		.4byte	0x35e
 4111 0860 B2000000 		.4byte	.LLST4
 4112 0864 18       		.uleb128 0x18
 4113 0865 7800     		.ascii	"x\000"
 4114 0867 01       		.byte	0x1
 4115 0868 2601     		.2byte	0x126
 4116 086a 97000000 		.4byte	0x97
 4117 086e 01       		.uleb128 0x1
 4118 086f 51       		.byte	0x51
 4119 0870 18       		.uleb128 0x18
 4120 0871 7900     		.ascii	"y\000"
ARM GAS  C:\Users\arh\AppData\Local\Temp\cc6sEv7h.s 			page 100


 4121 0873 01       		.byte	0x1
 4122 0874 2601     		.2byte	0x126
 4123 0876 97000000 		.4byte	0x97
 4124 087a 01       		.uleb128 0x1
 4125 087b 52       		.byte	0x52
 4126 087c 18       		.uleb128 0x18
 4127 087d 64697200 		.ascii	"dir\000"
 4128 0881 01       		.byte	0x1
 4129 0882 2601     		.2byte	0x126
 4130 0884 A2000000 		.4byte	0xa2
 4131 0888 01       		.uleb128 0x1
 4132 0889 53       		.byte	0x53
 4133 088a 00       		.byte	0
 4134 088b 16       		.uleb128 0x16
 4135 088c E90C0000 		.4byte	.LASF143
 4136 0890 01       		.byte	0x1
 4137 0891 3B01     		.2byte	0x13b
 4138 0893 5E030000 		.4byte	0x35e
 4139 0897 00000000 		.4byte	.LFB12
 4140 089b 26000000 		.4byte	.LFE12-.LFB12
 4141 089f 01       		.uleb128 0x1
 4142 08a0 9C       		.byte	0x9c
 4143 08a1 DB080000 		.4byte	0x8db
 4144 08a5 17       		.uleb128 0x17
 4145 08a6 647800   		.ascii	"dx\000"
 4146 08a9 01       		.byte	0x1
 4147 08aa 3B01     		.2byte	0x13b
 4148 08ac 5E030000 		.4byte	0x35e
 4149 08b0 29010000 		.4byte	.LLST5
 4150 08b4 18       		.uleb128 0x18
 4151 08b5 7800     		.ascii	"x\000"
 4152 08b7 01       		.byte	0x1
 4153 08b8 3B01     		.2byte	0x13b
 4154 08ba 97000000 		.4byte	0x97
 4155 08be 01       		.uleb128 0x1
 4156 08bf 51       		.byte	0x51
 4157 08c0 18       		.uleb128 0x18
 4158 08c1 7900     		.ascii	"y\000"
 4159 08c3 01       		.byte	0x1
 4160 08c4 3B01     		.2byte	0x13b
 4161 08c6 97000000 		.4byte	0x97
 4162 08ca 01       		.uleb128 0x1
 4163 08cb 52       		.byte	0x52
 4164 08cc 18       		.uleb128 0x18
 4165 08cd 64697200 		.ascii	"dir\000"
 4166 08d1 01       		.byte	0x1
 4167 08d2 3B01     		.2byte	0x13b
 4168 08d4 A2000000 		.4byte	0xa2
 4169 08d8 01       		.uleb128 0x1
 4170 08d9 53       		.byte	0x53
 4171 08da 00       		.byte	0
 4172 08db 19       		.uleb128 0x19
 4173 08dc 3D030000 		.4byte	.LASF145
 4174 08e0 01       		.byte	0x1
 4175 08e1 A603     		.2byte	0x3a6
 4176 08e3 5E030000 		.4byte	0x35e
 4177 08e7 00000000 		.4byte	.LFB31
ARM GAS  C:\Users\arh\AppData\Local\Temp\cc6sEv7h.s 			page 101


 4178 08eb 04000000 		.4byte	.LFE31-.LFB31
 4179 08ef 01       		.uleb128 0x1
 4180 08f0 9C       		.byte	0x9c
 4181 08f1 06090000 		.4byte	0x906
 4182 08f5 1A       		.uleb128 0x1a
 4183 08f6 8F050000 		.4byte	.LASF144
 4184 08fa 01       		.byte	0x1
 4185 08fb A603     		.2byte	0x3a6
 4186 08fd 2F050000 		.4byte	0x52f
 4187 0901 A0010000 		.4byte	.LLST6
 4188 0905 00       		.byte	0
 4189 0906 19       		.uleb128 0x19
 4190 0907 4E080000 		.4byte	.LASF146
 4191 090b 01       		.byte	0x1
 4192 090c B103     		.2byte	0x3b1
 4193 090e 5E030000 		.4byte	0x35e
 4194 0912 00000000 		.4byte	.LFB33
 4195 0916 06000000 		.4byte	.LFE33-.LFB33
 4196 091a 01       		.uleb128 0x1
 4197 091b 9C       		.byte	0x9c
 4198 091c 31090000 		.4byte	0x931
 4199 0920 1A       		.uleb128 0x1a
 4200 0921 8F050000 		.4byte	.LASF144
 4201 0925 01       		.byte	0x1
 4202 0926 B103     		.2byte	0x3b1
 4203 0928 2F050000 		.4byte	0x52f
 4204 092c C1010000 		.4byte	.LLST7
 4205 0930 00       		.byte	0
 4206 0931 19       		.uleb128 0x19
 4207 0932 E20B0000 		.4byte	.LASF147
 4208 0936 01       		.byte	0x1
 4209 0937 BB03     		.2byte	0x3bb
 4210 0939 5E030000 		.4byte	0x35e
 4211 093d 00000000 		.4byte	.LFB35
 4212 0941 0A000000 		.4byte	.LFE35-.LFB35
 4213 0945 01       		.uleb128 0x1
 4214 0946 9C       		.byte	0x9c
 4215 0947 6C090000 		.4byte	0x96c
 4216 094b 1A       		.uleb128 0x1a
 4217 094c 8F050000 		.4byte	.LASF144
 4218 0950 01       		.byte	0x1
 4219 0951 BB03     		.2byte	0x3bb
 4220 0953 2F050000 		.4byte	0x52f
 4221 0957 E2010000 		.4byte	.LLST8
 4222 095b 1B       		.uleb128 0x1b
 4223 095c 746D7000 		.ascii	"tmp\000"
 4224 0960 01       		.byte	0x1
 4225 0961 BD03     		.2byte	0x3bd
 4226 0963 5E030000 		.4byte	0x35e
 4227 0967 03020000 		.4byte	.LLST9
 4228 096b 00       		.byte	0
 4229 096c 19       		.uleb128 0x19
 4230 096d 31090000 		.4byte	.LASF148
 4231 0971 01       		.byte	0x1
 4232 0972 C903     		.2byte	0x3c9
 4233 0974 5E030000 		.4byte	0x35e
 4234 0978 00000000 		.4byte	.LFB37
ARM GAS  C:\Users\arh\AppData\Local\Temp\cc6sEv7h.s 			page 102


 4235 097c 18000000 		.4byte	.LFE37-.LFB37
 4236 0980 01       		.uleb128 0x1
 4237 0981 9C       		.byte	0x9c
 4238 0982 A7090000 		.4byte	0x9a7
 4239 0986 1A       		.uleb128 0x1a
 4240 0987 8F050000 		.4byte	.LASF144
 4241 098b 01       		.byte	0x1
 4242 098c C903     		.2byte	0x3c9
 4243 098e 2F050000 		.4byte	0x52f
 4244 0992 2E020000 		.4byte	.LLST10
 4245 0996 1B       		.uleb128 0x1b
 4246 0997 746D7000 		.ascii	"tmp\000"
 4247 099b 01       		.byte	0x1
 4248 099c CB03     		.2byte	0x3cb
 4249 099e 97000000 		.4byte	0x97
 4250 09a2 4F020000 		.4byte	.LLST11
 4251 09a6 00       		.byte	0
 4252 09a7 1C       		.uleb128 0x1c
 4253 09a8 A8020000 		.4byte	.LASF162
 4254 09ac 01       		.byte	0x1
 4255 09ad 83       		.byte	0x83
 4256 09ae 00000000 		.4byte	.LFB2
 4257 09b2 D0000000 		.4byte	.LFE2-.LFB2
 4258 09b6 01       		.uleb128 0x1
 4259 09b7 9C       		.byte	0x9c
 4260 09b8 CB0B0000 		.4byte	0xbcb
 4261 09bc 13       		.uleb128 0x13
 4262 09bd AE050000 		.4byte	.LASF84
 4263 09c1 01       		.byte	0x1
 4264 09c2 83       		.byte	0x83
 4265 09c3 CB0B0000 		.4byte	0xbcb
 4266 09c7 AB020000 		.4byte	.LLST12
 4267 09cb 13       		.uleb128 0x13
 4268 09cc 530C0000 		.4byte	.LASF26
 4269 09d0 01       		.byte	0x1
 4270 09d1 83       		.byte	0x83
 4271 09d2 53030000 		.4byte	0x353
 4272 09d6 D7020000 		.4byte	.LLST13
 4273 09da 1D       		.uleb128 0x1d
 4274 09db 0E000000 		.4byte	.LVL45
 4275 09df BE070000 		.4byte	0x7be
 4276 09e3 F3090000 		.4byte	0x9f3
 4277 09e7 1E       		.uleb128 0x1e
 4278 09e8 01       		.uleb128 0x1
 4279 09e9 50       		.byte	0x50
 4280 09ea 02       		.uleb128 0x2
 4281 09eb 75       		.byte	0x75
 4282 09ec 00       		.sleb128 0
 4283 09ed 1E       		.uleb128 0x1e
 4284 09ee 01       		.uleb128 0x1
 4285 09ef 51       		.byte	0x51
 4286 09f0 01       		.uleb128 0x1
 4287 09f1 30       		.byte	0x30
 4288 09f2 00       		.byte	0
 4289 09f3 1D       		.uleb128 0x1d
 4290 09f4 18000000 		.4byte	.LVL46
 4291 09f8 BE070000 		.4byte	0x7be
ARM GAS  C:\Users\arh\AppData\Local\Temp\cc6sEv7h.s 			page 103


 4292 09fc 0C0A0000 		.4byte	0xa0c
 4293 0a00 1E       		.uleb128 0x1e
 4294 0a01 01       		.uleb128 0x1
 4295 0a02 50       		.byte	0x50
 4296 0a03 02       		.uleb128 0x2
 4297 0a04 75       		.byte	0x75
 4298 0a05 00       		.sleb128 0
 4299 0a06 1E       		.uleb128 0x1e
 4300 0a07 01       		.uleb128 0x1
 4301 0a08 51       		.byte	0x51
 4302 0a09 01       		.uleb128 0x1
 4303 0a0a 31       		.byte	0x31
 4304 0a0b 00       		.byte	0
 4305 0a0c 1D       		.uleb128 0x1d
 4306 0a0d 22000000 		.4byte	.LVL47
 4307 0a11 BE070000 		.4byte	0x7be
 4308 0a15 250A0000 		.4byte	0xa25
 4309 0a19 1E       		.uleb128 0x1e
 4310 0a1a 01       		.uleb128 0x1
 4311 0a1b 50       		.byte	0x50
 4312 0a1c 02       		.uleb128 0x2
 4313 0a1d 75       		.byte	0x75
 4314 0a1e 00       		.sleb128 0
 4315 0a1f 1E       		.uleb128 0x1e
 4316 0a20 01       		.uleb128 0x1
 4317 0a21 51       		.byte	0x51
 4318 0a22 01       		.uleb128 0x1
 4319 0a23 32       		.byte	0x32
 4320 0a24 00       		.byte	0
 4321 0a25 1D       		.uleb128 0x1d
 4322 0a26 2C000000 		.4byte	.LVL48
 4323 0a2a BE070000 		.4byte	0x7be
 4324 0a2e 3E0A0000 		.4byte	0xa3e
 4325 0a32 1E       		.uleb128 0x1e
 4326 0a33 01       		.uleb128 0x1
 4327 0a34 50       		.byte	0x50
 4328 0a35 02       		.uleb128 0x2
 4329 0a36 75       		.byte	0x75
 4330 0a37 00       		.sleb128 0
 4331 0a38 1E       		.uleb128 0x1e
 4332 0a39 01       		.uleb128 0x1
 4333 0a3a 51       		.byte	0x51
 4334 0a3b 01       		.uleb128 0x1
 4335 0a3c 33       		.byte	0x33
 4336 0a3d 00       		.byte	0
 4337 0a3e 1D       		.uleb128 0x1d
 4338 0a3f 36000000 		.4byte	.LVL49
 4339 0a43 BE070000 		.4byte	0x7be
 4340 0a47 570A0000 		.4byte	0xa57
 4341 0a4b 1E       		.uleb128 0x1e
 4342 0a4c 01       		.uleb128 0x1
 4343 0a4d 50       		.byte	0x50
 4344 0a4e 02       		.uleb128 0x2
 4345 0a4f 75       		.byte	0x75
 4346 0a50 00       		.sleb128 0
 4347 0a51 1E       		.uleb128 0x1e
 4348 0a52 01       		.uleb128 0x1
ARM GAS  C:\Users\arh\AppData\Local\Temp\cc6sEv7h.s 			page 104


 4349 0a53 51       		.byte	0x51
 4350 0a54 01       		.uleb128 0x1
 4351 0a55 34       		.byte	0x34
 4352 0a56 00       		.byte	0
 4353 0a57 1D       		.uleb128 0x1d
 4354 0a58 40000000 		.4byte	.LVL50
 4355 0a5c BE070000 		.4byte	0x7be
 4356 0a60 700A0000 		.4byte	0xa70
 4357 0a64 1E       		.uleb128 0x1e
 4358 0a65 01       		.uleb128 0x1
 4359 0a66 50       		.byte	0x50
 4360 0a67 02       		.uleb128 0x2
 4361 0a68 75       		.byte	0x75
 4362 0a69 00       		.sleb128 0
 4363 0a6a 1E       		.uleb128 0x1e
 4364 0a6b 01       		.uleb128 0x1
 4365 0a6c 51       		.byte	0x51
 4366 0a6d 01       		.uleb128 0x1
 4367 0a6e 35       		.byte	0x35
 4368 0a6f 00       		.byte	0
 4369 0a70 1D       		.uleb128 0x1d
 4370 0a71 4A000000 		.4byte	.LVL51
 4371 0a75 BE070000 		.4byte	0x7be
 4372 0a79 890A0000 		.4byte	0xa89
 4373 0a7d 1E       		.uleb128 0x1e
 4374 0a7e 01       		.uleb128 0x1
 4375 0a7f 50       		.byte	0x50
 4376 0a80 02       		.uleb128 0x2
 4377 0a81 75       		.byte	0x75
 4378 0a82 00       		.sleb128 0
 4379 0a83 1E       		.uleb128 0x1e
 4380 0a84 01       		.uleb128 0x1
 4381 0a85 51       		.byte	0x51
 4382 0a86 01       		.uleb128 0x1
 4383 0a87 36       		.byte	0x36
 4384 0a88 00       		.byte	0
 4385 0a89 1D       		.uleb128 0x1d
 4386 0a8a 54000000 		.4byte	.LVL52
 4387 0a8e BE070000 		.4byte	0x7be
 4388 0a92 A20A0000 		.4byte	0xaa2
 4389 0a96 1E       		.uleb128 0x1e
 4390 0a97 01       		.uleb128 0x1
 4391 0a98 50       		.byte	0x50
 4392 0a99 02       		.uleb128 0x2
 4393 0a9a 75       		.byte	0x75
 4394 0a9b 00       		.sleb128 0
 4395 0a9c 1E       		.uleb128 0x1e
 4396 0a9d 01       		.uleb128 0x1
 4397 0a9e 51       		.byte	0x51
 4398 0a9f 01       		.uleb128 0x1
 4399 0aa0 37       		.byte	0x37
 4400 0aa1 00       		.byte	0
 4401 0aa2 1D       		.uleb128 0x1d
 4402 0aa3 5E000000 		.4byte	.LVL53
 4403 0aa7 BE070000 		.4byte	0x7be
 4404 0aab BB0A0000 		.4byte	0xabb
 4405 0aaf 1E       		.uleb128 0x1e
ARM GAS  C:\Users\arh\AppData\Local\Temp\cc6sEv7h.s 			page 105


 4406 0ab0 01       		.uleb128 0x1
 4407 0ab1 50       		.byte	0x50
 4408 0ab2 02       		.uleb128 0x2
 4409 0ab3 75       		.byte	0x75
 4410 0ab4 00       		.sleb128 0
 4411 0ab5 1E       		.uleb128 0x1e
 4412 0ab6 01       		.uleb128 0x1
 4413 0ab7 51       		.byte	0x51
 4414 0ab8 01       		.uleb128 0x1
 4415 0ab9 38       		.byte	0x38
 4416 0aba 00       		.byte	0
 4417 0abb 1D       		.uleb128 0x1d
 4418 0abc 68000000 		.4byte	.LVL54
 4419 0ac0 BE070000 		.4byte	0x7be
 4420 0ac4 D40A0000 		.4byte	0xad4
 4421 0ac8 1E       		.uleb128 0x1e
 4422 0ac9 01       		.uleb128 0x1
 4423 0aca 50       		.byte	0x50
 4424 0acb 02       		.uleb128 0x2
 4425 0acc 75       		.byte	0x75
 4426 0acd 00       		.sleb128 0
 4427 0ace 1E       		.uleb128 0x1e
 4428 0acf 01       		.uleb128 0x1
 4429 0ad0 51       		.byte	0x51
 4430 0ad1 01       		.uleb128 0x1
 4431 0ad2 39       		.byte	0x39
 4432 0ad3 00       		.byte	0
 4433 0ad4 1D       		.uleb128 0x1d
 4434 0ad5 72000000 		.4byte	.LVL55
 4435 0ad9 BE070000 		.4byte	0x7be
 4436 0add ED0A0000 		.4byte	0xaed
 4437 0ae1 1E       		.uleb128 0x1e
 4438 0ae2 01       		.uleb128 0x1
 4439 0ae3 50       		.byte	0x50
 4440 0ae4 02       		.uleb128 0x2
 4441 0ae5 75       		.byte	0x75
 4442 0ae6 00       		.sleb128 0
 4443 0ae7 1E       		.uleb128 0x1e
 4444 0ae8 01       		.uleb128 0x1
 4445 0ae9 51       		.byte	0x51
 4446 0aea 01       		.uleb128 0x1
 4447 0aeb 3A       		.byte	0x3a
 4448 0aec 00       		.byte	0
 4449 0aed 1D       		.uleb128 0x1d
 4450 0aee 7C000000 		.4byte	.LVL56
 4451 0af2 BE070000 		.4byte	0x7be
 4452 0af6 060B0000 		.4byte	0xb06
 4453 0afa 1E       		.uleb128 0x1e
 4454 0afb 01       		.uleb128 0x1
 4455 0afc 50       		.byte	0x50
 4456 0afd 02       		.uleb128 0x2
 4457 0afe 75       		.byte	0x75
 4458 0aff 00       		.sleb128 0
 4459 0b00 1E       		.uleb128 0x1e
 4460 0b01 01       		.uleb128 0x1
 4461 0b02 51       		.byte	0x51
 4462 0b03 01       		.uleb128 0x1
ARM GAS  C:\Users\arh\AppData\Local\Temp\cc6sEv7h.s 			page 106


 4463 0b04 3B       		.byte	0x3b
 4464 0b05 00       		.byte	0
 4465 0b06 1D       		.uleb128 0x1d
 4466 0b07 86000000 		.4byte	.LVL57
 4467 0b0b BE070000 		.4byte	0x7be
 4468 0b0f 1F0B0000 		.4byte	0xb1f
 4469 0b13 1E       		.uleb128 0x1e
 4470 0b14 01       		.uleb128 0x1
 4471 0b15 50       		.byte	0x50
 4472 0b16 02       		.uleb128 0x2
 4473 0b17 75       		.byte	0x75
 4474 0b18 00       		.sleb128 0
 4475 0b19 1E       		.uleb128 0x1e
 4476 0b1a 01       		.uleb128 0x1
 4477 0b1b 51       		.byte	0x51
 4478 0b1c 01       		.uleb128 0x1
 4479 0b1d 3C       		.byte	0x3c
 4480 0b1e 00       		.byte	0
 4481 0b1f 1D       		.uleb128 0x1d
 4482 0b20 90000000 		.4byte	.LVL58
 4483 0b24 BE070000 		.4byte	0x7be
 4484 0b28 380B0000 		.4byte	0xb38
 4485 0b2c 1E       		.uleb128 0x1e
 4486 0b2d 01       		.uleb128 0x1
 4487 0b2e 50       		.byte	0x50
 4488 0b2f 02       		.uleb128 0x2
 4489 0b30 75       		.byte	0x75
 4490 0b31 00       		.sleb128 0
 4491 0b32 1E       		.uleb128 0x1e
 4492 0b33 01       		.uleb128 0x1
 4493 0b34 51       		.byte	0x51
 4494 0b35 01       		.uleb128 0x1
 4495 0b36 3D       		.byte	0x3d
 4496 0b37 00       		.byte	0
 4497 0b38 1D       		.uleb128 0x1d
 4498 0b39 9A000000 		.4byte	.LVL59
 4499 0b3d BE070000 		.4byte	0x7be
 4500 0b41 510B0000 		.4byte	0xb51
 4501 0b45 1E       		.uleb128 0x1e
 4502 0b46 01       		.uleb128 0x1
 4503 0b47 50       		.byte	0x50
 4504 0b48 02       		.uleb128 0x2
 4505 0b49 75       		.byte	0x75
 4506 0b4a 00       		.sleb128 0
 4507 0b4b 1E       		.uleb128 0x1e
 4508 0b4c 01       		.uleb128 0x1
 4509 0b4d 51       		.byte	0x51
 4510 0b4e 01       		.uleb128 0x1
 4511 0b4f 3E       		.byte	0x3e
 4512 0b50 00       		.byte	0
 4513 0b51 1D       		.uleb128 0x1d
 4514 0b52 A4000000 		.4byte	.LVL60
 4515 0b56 BE070000 		.4byte	0x7be
 4516 0b5a 6A0B0000 		.4byte	0xb6a
 4517 0b5e 1E       		.uleb128 0x1e
 4518 0b5f 01       		.uleb128 0x1
 4519 0b60 50       		.byte	0x50
ARM GAS  C:\Users\arh\AppData\Local\Temp\cc6sEv7h.s 			page 107


 4520 0b61 02       		.uleb128 0x2
 4521 0b62 75       		.byte	0x75
 4522 0b63 00       		.sleb128 0
 4523 0b64 1E       		.uleb128 0x1e
 4524 0b65 01       		.uleb128 0x1
 4525 0b66 51       		.byte	0x51
 4526 0b67 01       		.uleb128 0x1
 4527 0b68 3F       		.byte	0x3f
 4528 0b69 00       		.byte	0
 4529 0b6a 1D       		.uleb128 0x1d
 4530 0b6b AE000000 		.4byte	.LVL61
 4531 0b6f BE070000 		.4byte	0x7be
 4532 0b73 830B0000 		.4byte	0xb83
 4533 0b77 1E       		.uleb128 0x1e
 4534 0b78 01       		.uleb128 0x1
 4535 0b79 50       		.byte	0x50
 4536 0b7a 02       		.uleb128 0x2
 4537 0b7b 75       		.byte	0x75
 4538 0b7c 00       		.sleb128 0
 4539 0b7d 1E       		.uleb128 0x1e
 4540 0b7e 01       		.uleb128 0x1
 4541 0b7f 51       		.byte	0x51
 4542 0b80 01       		.uleb128 0x1
 4543 0b81 40       		.byte	0x40
 4544 0b82 00       		.byte	0
 4545 0b83 1D       		.uleb128 0x1d
 4546 0b84 B8000000 		.4byte	.LVL62
 4547 0b88 F4070000 		.4byte	0x7f4
 4548 0b8c 9C0B0000 		.4byte	0xb9c
 4549 0b90 1E       		.uleb128 0x1e
 4550 0b91 01       		.uleb128 0x1
 4551 0b92 50       		.byte	0x50
 4552 0b93 02       		.uleb128 0x2
 4553 0b94 75       		.byte	0x75
 4554 0b95 00       		.sleb128 0
 4555 0b96 1E       		.uleb128 0x1e
 4556 0b97 01       		.uleb128 0x1
 4557 0b98 51       		.byte	0x51
 4558 0b99 01       		.uleb128 0x1
 4559 0b9a 41       		.byte	0x41
 4560 0b9b 00       		.byte	0
 4561 0b9c 1D       		.uleb128 0x1d
 4562 0b9d C2000000 		.4byte	.LVL63
 4563 0ba1 F4070000 		.4byte	0x7f4
 4564 0ba5 B50B0000 		.4byte	0xbb5
 4565 0ba9 1E       		.uleb128 0x1e
 4566 0baa 01       		.uleb128 0x1
 4567 0bab 50       		.byte	0x50
 4568 0bac 02       		.uleb128 0x2
 4569 0bad 75       		.byte	0x75
 4570 0bae 00       		.sleb128 0
 4571 0baf 1E       		.uleb128 0x1e
 4572 0bb0 01       		.uleb128 0x1
 4573 0bb1 51       		.byte	0x51
 4574 0bb2 01       		.uleb128 0x1
 4575 0bb3 43       		.byte	0x43
 4576 0bb4 00       		.byte	0
ARM GAS  C:\Users\arh\AppData\Local\Temp\cc6sEv7h.s 			page 108


 4577 0bb5 1F       		.uleb128 0x1f
 4578 0bb6 CC000000 		.4byte	.LVL64
 4579 0bba F4070000 		.4byte	0x7f4
 4580 0bbe 1E       		.uleb128 0x1e
 4581 0bbf 01       		.uleb128 0x1
 4582 0bc0 50       		.byte	0x50
 4583 0bc1 02       		.uleb128 0x2
 4584 0bc2 75       		.byte	0x75
 4585 0bc3 00       		.sleb128 0
 4586 0bc4 1E       		.uleb128 0x1e
 4587 0bc5 01       		.uleb128 0x1
 4588 0bc6 51       		.byte	0x51
 4589 0bc7 01       		.uleb128 0x1
 4590 0bc8 45       		.byte	0x45
 4591 0bc9 00       		.byte	0
 4592 0bca 00       		.byte	0
 4593 0bcb 09       		.uleb128 0x9
 4594 0bcc 04       		.byte	0x4
 4595 0bcd 6D060000 		.4byte	0x66d
 4596 0bd1 20       		.uleb128 0x20
 4597 0bd2 16090000 		.4byte	.LASF149
 4598 0bd6 01       		.byte	0x1
 4599 0bd7 AA       		.byte	0xaa
 4600 0bd8 C3000000 		.4byte	0xc3
 4601 0bdc 00000000 		.4byte	.LFB3
 4602 0be0 26000000 		.4byte	.LFE3-.LFB3
 4603 0be4 01       		.uleb128 0x1
 4604 0be5 9C       		.byte	0x9c
 4605 0be6 160C0000 		.4byte	0xc16
 4606 0bea 13       		.uleb128 0x13
 4607 0beb 720C0000 		.4byte	.LASF150
 4608 0bef 01       		.byte	0x1
 4609 0bf0 AA       		.byte	0xaa
 4610 0bf1 53030000 		.4byte	0x353
 4611 0bf5 03030000 		.4byte	.LLST14
 4612 0bf9 15       		.uleb128 0x15
 4613 0bfa 6500     		.ascii	"e\000"
 4614 0bfc 01       		.byte	0x1
 4615 0bfd AC       		.byte	0xac
 4616 0bfe AD000000 		.4byte	0xad
 4617 0c02 24030000 		.4byte	.LLST15
 4618 0c06 21       		.uleb128 0x21
 4619 0c07 530C0000 		.4byte	.LASF26
 4620 0c0b 01       		.byte	0x1
 4621 0c0c AD       		.byte	0xad
 4622 0c0d 53030000 		.4byte	0x353
 4623 0c11 59030000 		.4byte	.LLST16
 4624 0c15 00       		.byte	0
 4625 0c16 20       		.uleb128 0x20
 4626 0c17 CB050000 		.4byte	.LASF151
 4627 0c1b 01       		.byte	0x1
 4628 0c1c CA       		.byte	0xca
 4629 0c1d A2000000 		.4byte	0xa2
 4630 0c21 00000000 		.4byte	.LFB4
 4631 0c25 06000000 		.4byte	.LFE4-.LFB4
 4632 0c29 01       		.uleb128 0x1
 4633 0c2a 9C       		.byte	0x9c
ARM GAS  C:\Users\arh\AppData\Local\Temp\cc6sEv7h.s 			page 109


 4634 0c2b 3F0C0000 		.4byte	0xc3f
 4635 0c2f 13       		.uleb128 0x13
 4636 0c30 8F050000 		.4byte	.LASF144
 4637 0c34 01       		.byte	0x1
 4638 0c35 CA       		.byte	0xca
 4639 0c36 2F050000 		.4byte	0x52f
 4640 0c3a 77030000 		.4byte	.LLST17
 4641 0c3e 00       		.byte	0
 4642 0c3f 20       		.uleb128 0x20
 4643 0c40 D4080000 		.4byte	.LASF152
 4644 0c44 01       		.byte	0x1
 4645 0c45 CF       		.byte	0xcf
 4646 0c46 A2000000 		.4byte	0xa2
 4647 0c4a 00000000 		.4byte	.LFB5
 4648 0c4e 06000000 		.4byte	.LFE5-.LFB5
 4649 0c52 01       		.uleb128 0x1
 4650 0c53 9C       		.byte	0x9c
 4651 0c54 680C0000 		.4byte	0xc68
 4652 0c58 13       		.uleb128 0x13
 4653 0c59 8F050000 		.4byte	.LASF144
 4654 0c5d 01       		.byte	0x1
 4655 0c5e CF       		.byte	0xcf
 4656 0c5f 2F050000 		.4byte	0x52f
 4657 0c63 98030000 		.4byte	.LLST18
 4658 0c67 00       		.byte	0
 4659 0c68 20       		.uleb128 0x20
 4660 0c69 C7040000 		.4byte	.LASF153
 4661 0c6d 01       		.byte	0x1
 4662 0c6e D5       		.byte	0xd5
 4663 0c6f 97000000 		.4byte	0x97
 4664 0c73 00000000 		.4byte	.LFB6
 4665 0c77 06000000 		.4byte	.LFE6-.LFB6
 4666 0c7b 01       		.uleb128 0x1
 4667 0c7c 9C       		.byte	0x9c
 4668 0c7d 910C0000 		.4byte	0xc91
 4669 0c81 13       		.uleb128 0x13
 4670 0c82 8F050000 		.4byte	.LASF144
 4671 0c86 01       		.byte	0x1
 4672 0c87 D5       		.byte	0xd5
 4673 0c88 2F050000 		.4byte	0x52f
 4674 0c8c B9030000 		.4byte	.LLST19
 4675 0c90 00       		.byte	0
 4676 0c91 20       		.uleb128 0x20
 4677 0c92 17000000 		.4byte	.LASF154
 4678 0c96 01       		.byte	0x1
 4679 0c97 DB       		.byte	0xdb
 4680 0c98 97000000 		.4byte	0x97
 4681 0c9c 00000000 		.4byte	.LFB7
 4682 0ca0 06000000 		.4byte	.LFE7-.LFB7
 4683 0ca4 01       		.uleb128 0x1
 4684 0ca5 9C       		.byte	0x9c
 4685 0ca6 BA0C0000 		.4byte	0xcba
 4686 0caa 13       		.uleb128 0x13
 4687 0cab 8F050000 		.4byte	.LASF144
 4688 0caf 01       		.byte	0x1
 4689 0cb0 DB       		.byte	0xdb
 4690 0cb1 2F050000 		.4byte	0x52f
ARM GAS  C:\Users\arh\AppData\Local\Temp\cc6sEv7h.s 			page 110


 4691 0cb5 DA030000 		.4byte	.LLST20
 4692 0cb9 00       		.byte	0
 4693 0cba 20       		.uleb128 0x20
 4694 0cbb 560B0000 		.4byte	.LASF155
 4695 0cbf 01       		.byte	0x1
 4696 0cc0 E1       		.byte	0xe1
 4697 0cc1 A2000000 		.4byte	0xa2
 4698 0cc5 00000000 		.4byte	.LFB8
 4699 0cc9 06000000 		.4byte	.LFE8-.LFB8
 4700 0ccd 01       		.uleb128 0x1
 4701 0cce 9C       		.byte	0x9c
 4702 0ccf E30C0000 		.4byte	0xce3
 4703 0cd3 13       		.uleb128 0x13
 4704 0cd4 8F050000 		.4byte	.LASF144
 4705 0cd8 01       		.byte	0x1
 4706 0cd9 E1       		.byte	0xe1
 4707 0cda 2F050000 		.4byte	0x52f
 4708 0cde FB030000 		.4byte	.LLST21
 4709 0ce2 00       		.byte	0
 4710 0ce3 20       		.uleb128 0x20
 4711 0ce4 41040000 		.4byte	.LASF156
 4712 0ce8 01       		.byte	0x1
 4713 0ce9 EA       		.byte	0xea
 4714 0cea A2000000 		.4byte	0xa2
 4715 0cee 00000000 		.4byte	.LFB9
 4716 0cf2 38000000 		.4byte	.LFE9-.LFB9
 4717 0cf6 01       		.uleb128 0x1
 4718 0cf7 9C       		.byte	0x9c
 4719 0cf8 5B0D0000 		.4byte	0xd5b
 4720 0cfc 22       		.uleb128 0x22
 4721 0cfd 6600     		.ascii	"f\000"
 4722 0cff 01       		.byte	0x1
 4723 0d00 EA       		.byte	0xea
 4724 0d01 5B0D0000 		.4byte	0xd5b
 4725 0d05 1C040000 		.4byte	.LLST22
 4726 0d09 23       		.uleb128 0x23
 4727 0d0a 636E7400 		.ascii	"cnt\000"
 4728 0d0e 01       		.byte	0x1
 4729 0d0f EA       		.byte	0xea
 4730 0d10 A2000000 		.4byte	0xa2
 4731 0d14 01       		.uleb128 0x1
 4732 0d15 51       		.byte	0x51
 4733 0d16 15       		.uleb128 0x15
 4734 0d17 76616C00 		.ascii	"val\000"
 4735 0d1b 01       		.byte	0x1
 4736 0d1c EC       		.byte	0xec
 4737 0d1d A2000000 		.4byte	0xa2
 4738 0d21 3D040000 		.4byte	.LLST23
 4739 0d25 21       		.uleb128 0x21
 4740 0d26 580C0000 		.4byte	.LASF157
 4741 0d2a 01       		.byte	0x1
 4742 0d2b ED       		.byte	0xed
 4743 0d2c A2000000 		.4byte	0xa2
 4744 0d30 88040000 		.4byte	.LLST24
 4745 0d34 21       		.uleb128 0x21
 4746 0d35 A7070000 		.4byte	.LASF158
 4747 0d39 01       		.byte	0x1
ARM GAS  C:\Users\arh\AppData\Local\Temp\cc6sEv7h.s 			page 111


 4748 0d3a EE       		.byte	0xee
 4749 0d3b A2000000 		.4byte	0xa2
 4750 0d3f A7040000 		.4byte	.LLST25
 4751 0d43 24       		.uleb128 0x24
 4752 0d44 14000000 		.4byte	.LBB2
 4753 0d48 16000000 		.4byte	.LBE2-.LBB2
 4754 0d4c 15       		.uleb128 0x15
 4755 0d4d 7300     		.ascii	"s\000"
 4756 0d4f 01       		.byte	0x1
 4757 0d50 F8       		.byte	0xf8
 4758 0d51 A2000000 		.4byte	0xa2
 4759 0d55 DD040000 		.4byte	.LLST26
 4760 0d59 00       		.byte	0
 4761 0d5a 00       		.byte	0
 4762 0d5b 09       		.uleb128 0x9
 4763 0d5c 04       		.byte	0x4
 4764 0d5d 13070000 		.4byte	0x713
 4765 0d61 25       		.uleb128 0x25
 4766 0d62 00000000 		.4byte	.LASF169
 4767 0d66 01       		.byte	0x1
 4768 0d67 C201     		.2byte	0x1c2
 4769 0d69 00000000 		.4byte	.LFB14
 4770 0d6d 34000000 		.4byte	.LFE14-.LFB14
 4771 0d71 01       		.uleb128 0x1
 4772 0d72 9C       		.byte	0x9c
 4773 0d73 CC0D0000 		.4byte	0xdcc
 4774 0d77 1A       		.uleb128 0x1a
 4775 0d78 8F050000 		.4byte	.LASF144
 4776 0d7c 01       		.byte	0x1
 4777 0d7d C201     		.2byte	0x1c2
 4778 0d7f 2F050000 		.4byte	0x52f
 4779 0d83 FC040000 		.4byte	.LLST27
 4780 0d87 1A       		.uleb128 0x1a
 4781 0d88 160D0000 		.4byte	.LASF159
 4782 0d8c 01       		.byte	0x1
 4783 0d8d C201     		.2byte	0x1c2
 4784 0d8f 53030000 		.4byte	0x353
 4785 0d93 28050000 		.4byte	.LLST28
 4786 0d97 26       		.uleb128 0x26
 4787 0d98 53070000 		.4byte	.LASF160
 4788 0d9c 01       		.byte	0x1
 4789 0d9d C401     		.2byte	0x1c4
 4790 0d9f 5B0D0000 		.4byte	0xd5b
 4791 0da3 55050000 		.4byte	.LLST29
 4792 0da7 1D       		.uleb128 0x1d
 4793 0da8 18000000 		.4byte	.LVL109
 4794 0dac E30C0000 		.4byte	0xce3
 4795 0db0 BB0D0000 		.4byte	0xdbb
 4796 0db4 1E       		.uleb128 0x1e
 4797 0db5 01       		.uleb128 0x1
 4798 0db6 50       		.byte	0x50
 4799 0db7 02       		.uleb128 0x2
 4800 0db8 74       		.byte	0x74
 4801 0db9 00       		.sleb128 0
 4802 0dba 00       		.byte	0
 4803 0dbb 1F       		.uleb128 0x1f
 4804 0dbc 24000000 		.4byte	.LVL110
ARM GAS  C:\Users\arh\AppData\Local\Temp\cc6sEv7h.s 			page 112


 4805 0dc0 E30C0000 		.4byte	0xce3
 4806 0dc4 1E       		.uleb128 0x1e
 4807 0dc5 01       		.uleb128 0x1
 4808 0dc6 50       		.byte	0x50
 4809 0dc7 02       		.uleb128 0x2
 4810 0dc8 74       		.byte	0x74
 4811 0dc9 00       		.sleb128 0
 4812 0dca 00       		.byte	0
 4813 0dcb 00       		.byte	0
 4814 0dcc 19       		.uleb128 0x19
 4815 0dcd 8A090000 		.4byte	.LASF161
 4816 0dd1 01       		.byte	0x1
 4817 0dd2 1701     		.2byte	0x117
 4818 0dd4 97000000 		.4byte	0x97
 4819 0dd8 00000000 		.4byte	.LFB10
 4820 0ddc 16000000 		.4byte	.LFE10-.LFB10
 4821 0de0 01       		.uleb128 0x1
 4822 0de1 9C       		.byte	0x9c
 4823 0de2 380E0000 		.4byte	0xe38
 4824 0de6 17       		.uleb128 0x17
 4825 0de7 6600     		.ascii	"f\000"
 4826 0de9 01       		.byte	0x1
 4827 0dea 1701     		.2byte	0x117
 4828 0dec 5B0D0000 		.4byte	0xd5b
 4829 0df0 86050000 		.4byte	.LLST30
 4830 0df4 17       		.uleb128 0x17
 4831 0df5 636E7400 		.ascii	"cnt\000"
 4832 0df9 01       		.byte	0x1
 4833 0dfa 1701     		.2byte	0x117
 4834 0dfc A2000000 		.4byte	0xa2
 4835 0e00 A7050000 		.4byte	.LLST31
 4836 0e04 1B       		.uleb128 0x1b
 4837 0e05 7600     		.ascii	"v\000"
 4838 0e07 01       		.byte	0x1
 4839 0e08 1901     		.2byte	0x119
 4840 0e0a 97000000 		.4byte	0x97
 4841 0e0e D3050000 		.4byte	.LLST32
 4842 0e12 1B       		.uleb128 0x1b
 4843 0e13 6400     		.ascii	"d\000"
 4844 0e15 01       		.byte	0x1
 4845 0e16 1901     		.2byte	0x119
 4846 0e18 97000000 		.4byte	0x97
 4847 0e1c F1050000 		.4byte	.LLST33
 4848 0e20 1F       		.uleb128 0x1f
 4849 0e21 08000000 		.4byte	.LVL114
 4850 0e25 E30C0000 		.4byte	0xce3
 4851 0e29 1E       		.uleb128 0x1e
 4852 0e2a 01       		.uleb128 0x1
 4853 0e2b 50       		.byte	0x50
 4854 0e2c 03       		.uleb128 0x3
 4855 0e2d F3       		.byte	0xf3
 4856 0e2e 01       		.uleb128 0x1
 4857 0e2f 50       		.byte	0x50
 4858 0e30 1E       		.uleb128 0x1e
 4859 0e31 01       		.uleb128 0x1
 4860 0e32 51       		.byte	0x51
 4861 0e33 02       		.uleb128 0x2
ARM GAS  C:\Users\arh\AppData\Local\Temp\cc6sEv7h.s 			page 113


 4862 0e34 74       		.byte	0x74
 4863 0e35 00       		.sleb128 0
 4864 0e36 00       		.byte	0
 4865 0e37 00       		.byte	0
 4866 0e38 27       		.uleb128 0x27
 4867 0e39 9C0B0000 		.4byte	.LASF163
 4868 0e3d 01       		.byte	0x1
 4869 0e3e 6401     		.2byte	0x164
 4870 0e40 00000000 		.4byte	.LFB13
 4871 0e44 E4000000 		.4byte	.LFE13-.LFB13
 4872 0e48 01       		.uleb128 0x1
 4873 0e49 9C       		.byte	0x9c
 4874 0e4a A10F0000 		.4byte	0xfa1
 4875 0e4e 1A       		.uleb128 0x1a
 4876 0e4f 8F050000 		.4byte	.LASF144
 4877 0e53 01       		.byte	0x1
 4878 0e54 6401     		.2byte	0x164
 4879 0e56 2F050000 		.4byte	0x52f
 4880 0e5a 10060000 		.4byte	.LLST34
 4881 0e5e 17       		.uleb128 0x17
 4882 0e5f 6C656E00 		.ascii	"len\000"
 4883 0e63 01       		.byte	0x1
 4884 0e64 6401     		.2byte	0x164
 4885 0e66 A2000000 		.4byte	0xa2
 4886 0e6a 47060000 		.4byte	.LLST35
 4887 0e6e 1A       		.uleb128 0x1a
 4888 0e6f BE090000 		.4byte	.LASF164
 4889 0e73 01       		.byte	0x1
 4890 0e74 6401     		.2byte	0x164
 4891 0e76 A2000000 		.4byte	0xa2
 4892 0e7a 68060000 		.4byte	.LLST36
 4893 0e7e 1B       		.uleb128 0x1b
 4894 0e7f 636E7400 		.ascii	"cnt\000"
 4895 0e83 01       		.byte	0x1
 4896 0e84 6601     		.2byte	0x166
 4897 0e86 A2000000 		.4byte	0xa2
 4898 0e8a 89060000 		.4byte	.LLST37
 4899 0e8e 1B       		.uleb128 0x1b
 4900 0e8f 72656D00 		.ascii	"rem\000"
 4901 0e93 01       		.byte	0x1
 4902 0e94 6701     		.2byte	0x167
 4903 0e96 A2000000 		.4byte	0xa2
 4904 0e9a A7060000 		.4byte	.LLST38
 4905 0e9e 26       		.uleb128 0x26
 4906 0e9f 05080000 		.4byte	.LASF165
 4907 0ea3 01       		.byte	0x1
 4908 0ea4 6801     		.2byte	0x168
 4909 0ea6 A2000000 		.4byte	0xa2
 4910 0eaa DD060000 		.4byte	.LLST39
 4911 0eae 1B       		.uleb128 0x1b
 4912 0eaf 6C7800   		.ascii	"lx\000"
 4913 0eb2 01       		.byte	0x1
 4914 0eb3 6C01     		.2byte	0x16c
 4915 0eb5 A2000000 		.4byte	0xa2
 4916 0eb9 FC060000 		.4byte	.LLST40
 4917 0ebd 1B       		.uleb128 0x1b
 4918 0ebe 6C7900   		.ascii	"ly\000"
ARM GAS  C:\Users\arh\AppData\Local\Temp\cc6sEv7h.s 			page 114


 4919 0ec1 01       		.byte	0x1
 4920 0ec2 6C01     		.2byte	0x16c
 4921 0ec4 A2000000 		.4byte	0xa2
 4922 0ec8 48070000 		.4byte	.LLST41
 4923 0ecc 1B       		.uleb128 0x1b
 4924 0ecd 7800     		.ascii	"x\000"
 4925 0ecf 01       		.byte	0x1
 4926 0ed0 6F01     		.2byte	0x16f
 4927 0ed2 5E030000 		.4byte	0x35e
 4928 0ed6 89070000 		.4byte	.LLST42
 4929 0eda 1B       		.uleb128 0x1b
 4930 0edb 7900     		.ascii	"y\000"
 4931 0edd 01       		.byte	0x1
 4932 0ede 6F01     		.2byte	0x16f
 4933 0ee0 5E030000 		.4byte	0x35e
 4934 0ee4 A8070000 		.4byte	.LLST43
 4935 0ee8 26       		.uleb128 0x26
 4936 0ee9 53070000 		.4byte	.LASF160
 4937 0eed 01       		.byte	0x1
 4938 0eee 7101     		.2byte	0x171
 4939 0ef0 5B0D0000 		.4byte	0xd5b
 4940 0ef4 D1070000 		.4byte	.LLST44
 4941 0ef8 1D       		.uleb128 0x1d
 4942 0ef9 5E000000 		.4byte	.LVL135
 4943 0efd 8B080000 		.4byte	0x88b
 4944 0f01 1E0F0000 		.4byte	0xf1e
 4945 0f05 1E       		.uleb128 0x1e
 4946 0f06 01       		.uleb128 0x1
 4947 0f07 51       		.byte	0x51
 4948 0f08 04       		.uleb128 0x4
 4949 0f09 91       		.byte	0x91
 4950 0f0a 54       		.sleb128 -44
 4951 0f0b 94       		.byte	0x94
 4952 0f0c 01       		.byte	0x1
 4953 0f0d 1E       		.uleb128 0x1e
 4954 0f0e 01       		.uleb128 0x1
 4955 0f0f 52       		.byte	0x52
 4956 0f10 04       		.uleb128 0x4
 4957 0f11 91       		.byte	0x91
 4958 0f12 50       		.sleb128 -48
 4959 0f13 94       		.byte	0x94
 4960 0f14 01       		.byte	0x1
 4961 0f15 1E       		.uleb128 0x1e
 4962 0f16 01       		.uleb128 0x1
 4963 0f17 53       		.byte	0x53
 4964 0f18 04       		.uleb128 0x4
 4965 0f19 91       		.byte	0x91
 4966 0f1a 4C       		.sleb128 -52
 4967 0f1b 94       		.byte	0x94
 4968 0f1c 01       		.byte	0x1
 4969 0f1d 00       		.byte	0
 4970 0f1e 1D       		.uleb128 0x1d
 4971 0f1f 6C000000 		.4byte	.LVL137
 4972 0f23 3B080000 		.4byte	0x83b
 4973 0f27 4A0F0000 		.4byte	0xf4a
 4974 0f2b 1E       		.uleb128 0x1e
 4975 0f2c 01       		.uleb128 0x1
ARM GAS  C:\Users\arh\AppData\Local\Temp\cc6sEv7h.s 			page 115


 4976 0f2d 50       		.byte	0x50
 4977 0f2e 02       		.uleb128 0x2
 4978 0f2f 7B       		.byte	0x7b
 4979 0f30 00       		.sleb128 0
 4980 0f31 1E       		.uleb128 0x1e
 4981 0f32 01       		.uleb128 0x1
 4982 0f33 51       		.byte	0x51
 4983 0f34 04       		.uleb128 0x4
 4984 0f35 91       		.byte	0x91
 4985 0f36 54       		.sleb128 -44
 4986 0f37 94       		.byte	0x94
 4987 0f38 01       		.byte	0x1
 4988 0f39 1E       		.uleb128 0x1e
 4989 0f3a 01       		.uleb128 0x1
 4990 0f3b 52       		.byte	0x52
 4991 0f3c 04       		.uleb128 0x4
 4992 0f3d 91       		.byte	0x91
 4993 0f3e 50       		.sleb128 -48
 4994 0f3f 94       		.byte	0x94
 4995 0f40 01       		.byte	0x1
 4996 0f41 1E       		.uleb128 0x1e
 4997 0f42 01       		.uleb128 0x1
 4998 0f43 53       		.byte	0x53
 4999 0f44 04       		.uleb128 0x4
 5000 0f45 91       		.byte	0x91
 5001 0f46 4C       		.sleb128 -52
 5002 0f47 94       		.byte	0x94
 5003 0f48 01       		.byte	0x1
 5004 0f49 00       		.byte	0
 5005 0f4a 1D       		.uleb128 0x1d
 5006 0f4b 8C000000 		.4byte	.LVL139
 5007 0f4f 201F0000 		.4byte	0x1f20
 5008 0f53 770F0000 		.4byte	0xf77
 5009 0f57 1E       		.uleb128 0x1e
 5010 0f58 01       		.uleb128 0x1
 5011 0f59 50       		.byte	0x50
 5012 0f5a 02       		.uleb128 0x2
 5013 0f5b 74       		.byte	0x74
 5014 0f5c 00       		.sleb128 0
 5015 0f5d 1E       		.uleb128 0x1e
 5016 0f5e 01       		.uleb128 0x1
 5017 0f5f 51       		.byte	0x51
 5018 0f60 04       		.uleb128 0x4
 5019 0f61 91       		.byte	0x91
 5020 0f62 5C       		.sleb128 -36
 5021 0f63 94       		.byte	0x94
 5022 0f64 01       		.byte	0x1
 5023 0f65 1E       		.uleb128 0x1e
 5024 0f66 01       		.uleb128 0x1
 5025 0f67 53       		.byte	0x53
 5026 0f68 04       		.uleb128 0x4
 5027 0f69 91       		.byte	0x91
 5028 0f6a 58       		.sleb128 -40
 5029 0f6b 94       		.byte	0x94
 5030 0f6c 01       		.byte	0x1
 5031 0f6d 1E       		.uleb128 0x1e
 5032 0f6e 02       		.uleb128 0x2
ARM GAS  C:\Users\arh\AppData\Local\Temp\cc6sEv7h.s 			page 116


 5033 0f6f 7D       		.byte	0x7d
 5034 0f70 00       		.sleb128 0
 5035 0f71 04       		.uleb128 0x4
 5036 0f72 91       		.byte	0x91
 5037 0f73 4C       		.sleb128 -52
 5038 0f74 94       		.byte	0x94
 5039 0f75 01       		.byte	0x1
 5040 0f76 00       		.byte	0
 5041 0f77 1F       		.uleb128 0x1f
 5042 0f78 B2000000 		.4byte	.LVL142
 5043 0f7c 201F0000 		.4byte	0x1f20
 5044 0f80 1E       		.uleb128 0x1e
 5045 0f81 01       		.uleb128 0x1
 5046 0f82 50       		.byte	0x50
 5047 0f83 02       		.uleb128 0x2
 5048 0f84 74       		.byte	0x74
 5049 0f85 00       		.sleb128 0
 5050 0f86 1E       		.uleb128 0x1e
 5051 0f87 01       		.uleb128 0x1
 5052 0f88 51       		.byte	0x51
 5053 0f89 04       		.uleb128 0x4
 5054 0f8a 91       		.byte	0x91
 5055 0f8b 5C       		.sleb128 -36
 5056 0f8c 94       		.byte	0x94
 5057 0f8d 01       		.byte	0x1
 5058 0f8e 1E       		.uleb128 0x1e
 5059 0f8f 01       		.uleb128 0x1
 5060 0f90 53       		.byte	0x53
 5061 0f91 04       		.uleb128 0x4
 5062 0f92 91       		.byte	0x91
 5063 0f93 58       		.sleb128 -40
 5064 0f94 94       		.byte	0x94
 5065 0f95 01       		.byte	0x1
 5066 0f96 1E       		.uleb128 0x1e
 5067 0f97 02       		.uleb128 0x2
 5068 0f98 7D       		.byte	0x7d
 5069 0f99 00       		.sleb128 0
 5070 0f9a 04       		.uleb128 0x4
 5071 0f9b 91       		.byte	0x91
 5072 0f9c 4C       		.sleb128 -52
 5073 0f9d 94       		.byte	0x94
 5074 0f9e 01       		.byte	0x1
 5075 0f9f 00       		.byte	0
 5076 0fa0 00       		.byte	0
 5077 0fa1 19       		.uleb128 0x19
 5078 0fa2 510A0000 		.4byte	.LASF166
 5079 0fa6 01       		.byte	0x1
 5080 0fa7 E401     		.2byte	0x1e4
 5081 0fa9 97000000 		.4byte	0x97
 5082 0fad 00000000 		.4byte	.LFB15
 5083 0fb1 6A010000 		.4byte	.LFE15-.LFB15
 5084 0fb5 01       		.uleb128 0x1
 5085 0fb6 9C       		.byte	0x9c
 5086 0fb7 BA110000 		.4byte	0x11ba
 5087 0fbb 1A       		.uleb128 0x1a
 5088 0fbc 8F050000 		.4byte	.LASF144
 5089 0fc0 01       		.byte	0x1
ARM GAS  C:\Users\arh\AppData\Local\Temp\cc6sEv7h.s 			page 117


 5090 0fc1 E401     		.2byte	0x1e4
 5091 0fc3 2F050000 		.4byte	0x52f
 5092 0fc7 27080000 		.4byte	.LLST45
 5093 0fcb 1A       		.uleb128 0x1a
 5094 0fcc 160D0000 		.4byte	.LASF159
 5095 0fd0 01       		.byte	0x1
 5096 0fd1 E401     		.2byte	0x1e4
 5097 0fd3 53030000 		.4byte	0x353
 5098 0fd7 61080000 		.4byte	.LLST46
 5099 0fdb 1B       		.uleb128 0x1b
 5100 0fdc 6100     		.ascii	"a\000"
 5101 0fde 01       		.byte	0x1
 5102 0fdf E601     		.2byte	0x1e6
 5103 0fe1 A2000000 		.4byte	0xa2
 5104 0fe5 82080000 		.4byte	.LLST47
 5105 0fe9 1B       		.uleb128 0x1b
 5106 0fea 6200     		.ascii	"b\000"
 5107 0fec 01       		.byte	0x1
 5108 0fed E601     		.2byte	0x1e6
 5109 0fef A2000000 		.4byte	0xa2
 5110 0ff3 A0080000 		.4byte	.LLST48
 5111 0ff7 28       		.uleb128 0x28
 5112 0ff8 7800     		.ascii	"x\000"
 5113 0ffa 01       		.byte	0x1
 5114 0ffb E701     		.2byte	0x1e7
 5115 0ffd 97000000 		.4byte	0x97
 5116 1001 02       		.uleb128 0x2
 5117 1002 91       		.byte	0x91
 5118 1003 48       		.sleb128 -56
 5119 1004 1B       		.uleb128 0x1b
 5120 1005 7900     		.ascii	"y\000"
 5121 1007 01       		.byte	0x1
 5122 1008 E701     		.2byte	0x1e7
 5123 100a 97000000 		.4byte	0x97
 5124 100e B3080000 		.4byte	.LLST49
 5125 1012 28       		.uleb128 0x28
 5126 1013 6400     		.ascii	"d\000"
 5127 1015 01       		.byte	0x1
 5128 1016 E801     		.2byte	0x1e8
 5129 1018 97000000 		.4byte	0x97
 5130 101c 02       		.uleb128 0x2
 5131 101d 91       		.byte	0x91
 5132 101e 4C       		.sleb128 -52
 5133 101f 1B       		.uleb128 0x1b
 5134 1020 6800     		.ascii	"h\000"
 5135 1022 01       		.byte	0x1
 5136 1023 E901     		.2byte	0x1e9
 5137 1025 97000000 		.4byte	0x97
 5138 1029 C6080000 		.4byte	.LLST50
 5139 102d 26       		.uleb128 0x26
 5140 102e 53070000 		.4byte	.LASF160
 5141 1032 01       		.byte	0x1
 5142 1033 EA01     		.2byte	0x1ea
 5143 1035 5B0D0000 		.4byte	0xd5b
 5144 1039 D9080000 		.4byte	.LLST51
 5145 103d 29       		.uleb128 0x29
 5146 103e 84000000 		.4byte	.LBB3
ARM GAS  C:\Users\arh\AppData\Local\Temp\cc6sEv7h.s 			page 118


 5147 1042 7E000000 		.4byte	.LBE3-.LBB3
 5148 1046 9F100000 		.4byte	0x109f
 5149 104a 1B       		.uleb128 0x1b
 5150 104b 783000   		.ascii	"x0\000"
 5151 104e 01       		.byte	0x1
 5152 104f 0002     		.2byte	0x200
 5153 1051 5E030000 		.4byte	0x35e
 5154 1055 FC080000 		.4byte	.LLST52
 5155 1059 1B       		.uleb128 0x1b
 5156 105a 783100   		.ascii	"x1\000"
 5157 105d 01       		.byte	0x1
 5158 105e 0002     		.2byte	0x200
 5159 1060 5E030000 		.4byte	0x35e
 5160 1064 47090000 		.4byte	.LLST53
 5161 1068 1B       		.uleb128 0x1b
 5162 1069 793000   		.ascii	"y0\000"
 5163 106c 01       		.byte	0x1
 5164 106d 0002     		.2byte	0x200
 5165 106f 5E030000 		.4byte	0x35e
 5166 1073 BD090000 		.4byte	.LLST54
 5167 1077 1B       		.uleb128 0x1b
 5168 1078 793100   		.ascii	"y1\000"
 5169 107b 01       		.byte	0x1
 5170 107c 0002     		.2byte	0x200
 5171 107e 5E030000 		.4byte	0x35e
 5172 1082 350A0000 		.4byte	.LLST55
 5173 1086 1F       		.uleb128 0x1f
 5174 1087 FE000000 		.4byte	.LVL195
 5175 108b 2C1F0000 		.4byte	0x1f2c
 5176 108f 1E       		.uleb128 0x1e
 5177 1090 01       		.uleb128 0x1
 5178 1091 50       		.byte	0x50
 5179 1092 02       		.uleb128 0x2
 5180 1093 74       		.byte	0x74
 5181 1094 00       		.sleb128 0
 5182 1095 1E       		.uleb128 0x1e
 5183 1096 01       		.uleb128 0x1
 5184 1097 51       		.byte	0x51
 5185 1098 04       		.uleb128 0x4
 5186 1099 91       		.byte	0x91
 5187 109a 50       		.sleb128 -48
 5188 109b 94       		.byte	0x94
 5189 109c 01       		.byte	0x1
 5190 109d 00       		.byte	0
 5191 109e 00       		.byte	0
 5192 109f 1D       		.uleb128 0x1d
 5193 10a0 18000000 		.4byte	.LVL157
 5194 10a4 610D0000 		.4byte	0xd61
 5195 10a8 BA100000 		.4byte	0x10ba
 5196 10ac 1E       		.uleb128 0x1e
 5197 10ad 01       		.uleb128 0x1
 5198 10ae 50       		.byte	0x50
 5199 10af 02       		.uleb128 0x2
 5200 10b0 74       		.byte	0x74
 5201 10b1 00       		.sleb128 0
 5202 10b2 1E       		.uleb128 0x1e
 5203 10b3 01       		.uleb128 0x1
ARM GAS  C:\Users\arh\AppData\Local\Temp\cc6sEv7h.s 			page 119


 5204 10b4 51       		.byte	0x51
 5205 10b5 03       		.uleb128 0x3
 5206 10b6 F3       		.byte	0xf3
 5207 10b7 01       		.uleb128 0x1
 5208 10b8 51       		.byte	0x51
 5209 10b9 00       		.byte	0
 5210 10ba 1D       		.uleb128 0x1d
 5211 10bb 28000000 		.4byte	.LVL159
 5212 10bf CC0D0000 		.4byte	0xdcc
 5213 10c3 CE100000 		.4byte	0x10ce
 5214 10c7 1E       		.uleb128 0x1e
 5215 10c8 01       		.uleb128 0x1
 5216 10c9 50       		.byte	0x50
 5217 10ca 02       		.uleb128 0x2
 5218 10cb 77       		.byte	0x77
 5219 10cc 00       		.sleb128 0
 5220 10cd 00       		.byte	0
 5221 10ce 1D       		.uleb128 0x1d
 5222 10cf 34000000 		.4byte	.LVL161
 5223 10d3 CC0D0000 		.4byte	0xdcc
 5224 10d7 E2100000 		.4byte	0x10e2
 5225 10db 1E       		.uleb128 0x1e
 5226 10dc 01       		.uleb128 0x1
 5227 10dd 50       		.byte	0x50
 5228 10de 02       		.uleb128 0x2
 5229 10df 77       		.byte	0x77
 5230 10e0 00       		.sleb128 0
 5231 10e1 00       		.byte	0
 5232 10e2 1D       		.uleb128 0x1d
 5233 10e3 40000000 		.4byte	.LVL163
 5234 10e7 CC0D0000 		.4byte	0xdcc
 5235 10eb F6100000 		.4byte	0x10f6
 5236 10ef 1E       		.uleb128 0x1e
 5237 10f0 01       		.uleb128 0x1
 5238 10f1 50       		.byte	0x50
 5239 10f2 02       		.uleb128 0x2
 5240 10f3 77       		.byte	0x77
 5241 10f4 00       		.sleb128 0
 5242 10f5 00       		.byte	0
 5243 10f6 1D       		.uleb128 0x1d
 5244 10f7 6E000000 		.4byte	.LVL166
 5245 10fb 8B080000 		.4byte	0x88b
 5246 10ff 1A110000 		.4byte	0x111a
 5247 1103 1E       		.uleb128 0x1e
 5248 1104 01       		.uleb128 0x1
 5249 1105 51       		.byte	0x51
 5250 1106 04       		.uleb128 0x4
 5251 1107 91       		.byte	0x91
 5252 1108 48       		.sleb128 -56
 5253 1109 94       		.byte	0x94
 5254 110a 01       		.byte	0x1
 5255 110b 1E       		.uleb128 0x1e
 5256 110c 01       		.uleb128 0x1
 5257 110d 52       		.byte	0x52
 5258 110e 04       		.uleb128 0x4
 5259 110f 91       		.byte	0x91
 5260 1110 54       		.sleb128 -44
ARM GAS  C:\Users\arh\AppData\Local\Temp\cc6sEv7h.s 			page 120


 5261 1111 94       		.byte	0x94
 5262 1112 01       		.byte	0x1
 5263 1113 1E       		.uleb128 0x1e
 5264 1114 01       		.uleb128 0x1
 5265 1115 53       		.byte	0x53
 5266 1116 02       		.uleb128 0x2
 5267 1117 75       		.byte	0x75
 5268 1118 00       		.sleb128 0
 5269 1119 00       		.byte	0
 5270 111a 1D       		.uleb128 0x1d
 5271 111b 80000000 		.4byte	.LVL167
 5272 111f 3B080000 		.4byte	0x83b
 5273 1123 3E110000 		.4byte	0x113e
 5274 1127 1E       		.uleb128 0x1e
 5275 1128 01       		.uleb128 0x1
 5276 1129 51       		.byte	0x51
 5277 112a 04       		.uleb128 0x4
 5278 112b 91       		.byte	0x91
 5279 112c 48       		.sleb128 -56
 5280 112d 94       		.byte	0x94
 5281 112e 01       		.byte	0x1
 5282 112f 1E       		.uleb128 0x1e
 5283 1130 01       		.uleb128 0x1
 5284 1131 52       		.byte	0x52
 5285 1132 04       		.uleb128 0x4
 5286 1133 91       		.byte	0x91
 5287 1134 54       		.sleb128 -44
 5288 1135 94       		.byte	0x94
 5289 1136 01       		.byte	0x1
 5290 1137 1E       		.uleb128 0x1e
 5291 1138 01       		.uleb128 0x1
 5292 1139 53       		.byte	0x53
 5293 113a 02       		.uleb128 0x2
 5294 113b 75       		.byte	0x75
 5295 113c 00       		.sleb128 0
 5296 113d 00       		.byte	0
 5297 113e 1D       		.uleb128 0x1d
 5298 113f 16010000 		.4byte	.LVL196
 5299 1143 E30C0000 		.4byte	0xce3
 5300 1147 52110000 		.4byte	0x1152
 5301 114b 1E       		.uleb128 0x1e
 5302 114c 01       		.uleb128 0x1
 5303 114d 50       		.byte	0x50
 5304 114e 02       		.uleb128 0x2
 5305 114f 77       		.byte	0x77
 5306 1150 00       		.sleb128 0
 5307 1151 00       		.byte	0
 5308 1152 1D       		.uleb128 0x1d
 5309 1153 22010000 		.4byte	.LVL199
 5310 1157 E30C0000 		.4byte	0xce3
 5311 115b 66110000 		.4byte	0x1166
 5312 115f 1E       		.uleb128 0x1e
 5313 1160 01       		.uleb128 0x1
 5314 1161 50       		.byte	0x50
 5315 1162 02       		.uleb128 0x2
 5316 1163 77       		.byte	0x77
 5317 1164 00       		.sleb128 0
ARM GAS  C:\Users\arh\AppData\Local\Temp\cc6sEv7h.s 			page 121


 5318 1165 00       		.byte	0
 5319 1166 1D       		.uleb128 0x1d
 5320 1167 2E010000 		.4byte	.LVL201
 5321 116b 380E0000 		.4byte	0xe38
 5322 116f 85110000 		.4byte	0x1185
 5323 1173 1E       		.uleb128 0x1e
 5324 1174 01       		.uleb128 0x1
 5325 1175 50       		.byte	0x50
 5326 1176 02       		.uleb128 0x2
 5327 1177 74       		.byte	0x74
 5328 1178 00       		.sleb128 0
 5329 1179 1E       		.uleb128 0x1e
 5330 117a 01       		.uleb128 0x1
 5331 117b 51       		.byte	0x51
 5332 117c 02       		.uleb128 0x2
 5333 117d 76       		.byte	0x76
 5334 117e 00       		.sleb128 0
 5335 117f 1E       		.uleb128 0x1e
 5336 1180 01       		.uleb128 0x1
 5337 1181 52       		.byte	0x52
 5338 1182 01       		.uleb128 0x1
 5339 1183 30       		.byte	0x30
 5340 1184 00       		.byte	0
 5341 1185 1D       		.uleb128 0x1d
 5342 1186 38010000 		.4byte	.LVL202
 5343 118a 380E0000 		.4byte	0xe38
 5344 118e A4110000 		.4byte	0x11a4
 5345 1192 1E       		.uleb128 0x1e
 5346 1193 01       		.uleb128 0x1
 5347 1194 50       		.byte	0x50
 5348 1195 02       		.uleb128 0x2
 5349 1196 74       		.byte	0x74
 5350 1197 00       		.sleb128 0
 5351 1198 1E       		.uleb128 0x1e
 5352 1199 01       		.uleb128 0x1
 5353 119a 51       		.byte	0x51
 5354 119b 02       		.uleb128 0x2
 5355 119c 75       		.byte	0x75
 5356 119d 00       		.sleb128 0
 5357 119e 1E       		.uleb128 0x1e
 5358 119f 01       		.uleb128 0x1
 5359 11a0 52       		.byte	0x52
 5360 11a1 01       		.uleb128 0x1
 5361 11a2 31       		.byte	0x31
 5362 11a3 00       		.byte	0
 5363 11a4 1F       		.uleb128 0x1f
 5364 11a5 40010000 		.4byte	.LVL203
 5365 11a9 E30C0000 		.4byte	0xce3
 5366 11ad 1E       		.uleb128 0x1e
 5367 11ae 01       		.uleb128 0x1
 5368 11af 50       		.byte	0x50
 5369 11b0 02       		.uleb128 0x2
 5370 11b1 77       		.byte	0x77
 5371 11b2 00       		.sleb128 0
 5372 11b3 1E       		.uleb128 0x1e
 5373 11b4 01       		.uleb128 0x1
 5374 11b5 51       		.byte	0x51
ARM GAS  C:\Users\arh\AppData\Local\Temp\cc6sEv7h.s 			page 122


 5375 11b6 01       		.uleb128 0x1
 5376 11b7 31       		.byte	0x31
 5377 11b8 00       		.byte	0
 5378 11b9 00       		.byte	0
 5379 11ba 19       		.uleb128 0x19
 5380 11bb 89060000 		.4byte	.LASF167
 5381 11bf 01       		.byte	0x1
 5382 11c0 4D02     		.2byte	0x24d
 5383 11c2 53030000 		.4byte	0x353
 5384 11c6 00000000 		.4byte	.LFB16
 5385 11ca 58000000 		.4byte	.LFE16-.LFB16
 5386 11ce 01       		.uleb128 0x1
 5387 11cf 9C       		.byte	0x9c
 5388 11d0 1B120000 		.4byte	0x121b
 5389 11d4 1A       		.uleb128 0x1a
 5390 11d5 8F050000 		.4byte	.LASF144
 5391 11d9 01       		.byte	0x1
 5392 11da 4D02     		.2byte	0x24d
 5393 11dc 2F050000 		.4byte	0x52f
 5394 11e0 A40A0000 		.4byte	.LLST56
 5395 11e4 2A       		.uleb128 0x2a
 5396 11e5 6F060000 		.4byte	.LASF27
 5397 11e9 01       		.byte	0x1
 5398 11ea 4D02     		.2byte	0x24d
 5399 11ec AD000000 		.4byte	0xad
 5400 11f0 01       		.uleb128 0x1
 5401 11f1 51       		.byte	0x51
 5402 11f2 26       		.uleb128 0x26
 5403 11f3 530C0000 		.4byte	.LASF26
 5404 11f7 01       		.byte	0x1
 5405 11f8 4F02     		.2byte	0x24f
 5406 11fa 53030000 		.4byte	0x353
 5407 11fe DE0A0000 		.4byte	.LLST57
 5408 1202 24       		.uleb128 0x24
 5409 1203 32000000 		.4byte	.LBB4
 5410 1207 1E000000 		.4byte	.LBE4-.LBB4
 5411 120b 1B       		.uleb128 0x1b
 5412 120c 6500     		.ascii	"e\000"
 5413 120e 01       		.byte	0x1
 5414 120f 6C02     		.2byte	0x26c
 5415 1211 AD000000 		.4byte	0xad
 5416 1215 370B0000 		.4byte	.LLST58
 5417 1219 00       		.byte	0
 5418 121a 00       		.byte	0
 5419 121b 16       		.uleb128 0x16
 5420 121c 95000000 		.4byte	.LASF168
 5421 1220 01       		.byte	0x1
 5422 1221 8302     		.2byte	0x283
 5423 1223 5E030000 		.4byte	0x35e
 5424 1227 00000000 		.4byte	.LFB17
 5425 122b 28000000 		.4byte	.LFE17-.LFB17
 5426 122f 01       		.uleb128 0x1
 5427 1230 9C       		.byte	0x9c
 5428 1231 B5120000 		.4byte	0x12b5
 5429 1235 1A       		.uleb128 0x1a
 5430 1236 8F050000 		.4byte	.LASF144
 5431 123a 01       		.byte	0x1
ARM GAS  C:\Users\arh\AppData\Local\Temp\cc6sEv7h.s 			page 123


 5432 123b 8302     		.2byte	0x283
 5433 123d 2F050000 		.4byte	0x52f
 5434 1241 6C0B0000 		.4byte	.LLST59
 5435 1245 17       		.uleb128 0x17
 5436 1246 7800     		.ascii	"x\000"
 5437 1248 01       		.byte	0x1
 5438 1249 8302     		.2byte	0x283
 5439 124b 5E030000 		.4byte	0x35e
 5440 124f 980B0000 		.4byte	.LLST60
 5441 1253 17       		.uleb128 0x17
 5442 1254 7900     		.ascii	"y\000"
 5443 1256 01       		.byte	0x1
 5444 1257 8302     		.2byte	0x283
 5445 1259 5E030000 		.4byte	0x35e
 5446 125d D50B0000 		.4byte	.LLST61
 5447 1261 1A       		.uleb128 0x1a
 5448 1262 6F060000 		.4byte	.LASF27
 5449 1266 01       		.byte	0x1
 5450 1267 8302     		.2byte	0x283
 5451 1269 AD000000 		.4byte	0xad
 5452 126d F60B0000 		.4byte	.LLST62
 5453 1271 1B       		.uleb128 0x1b
 5454 1272 647800   		.ascii	"dx\000"
 5455 1275 01       		.byte	0x1
 5456 1276 8502     		.2byte	0x285
 5457 1278 5E030000 		.4byte	0x35e
 5458 127c 170C0000 		.4byte	.LLST63
 5459 1280 26       		.uleb128 0x26
 5460 1281 160D0000 		.4byte	.LASF159
 5461 1285 01       		.byte	0x1
 5462 1286 8A02     		.2byte	0x28a
 5463 1288 53030000 		.4byte	0x353
 5464 128c 4D0C0000 		.4byte	.LLST64
 5465 1290 1D       		.uleb128 0x1d
 5466 1291 14000000 		.4byte	.LVL230
 5467 1295 BA110000 		.4byte	0x11ba
 5468 1299 A4120000 		.4byte	0x12a4
 5469 129d 1E       		.uleb128 0x1e
 5470 129e 01       		.uleb128 0x1
 5471 129f 50       		.byte	0x50
 5472 12a0 02       		.uleb128 0x2
 5473 12a1 74       		.byte	0x74
 5474 12a2 00       		.sleb128 0
 5475 12a3 00       		.byte	0
 5476 12a4 1F       		.uleb128 0x1f
 5477 12a5 20000000 		.4byte	.LVL232
 5478 12a9 A10F0000 		.4byte	0xfa1
 5479 12ad 1E       		.uleb128 0x1e
 5480 12ae 01       		.uleb128 0x1
 5481 12af 50       		.byte	0x50
 5482 12b0 02       		.uleb128 0x2
 5483 12b1 74       		.byte	0x74
 5484 12b2 00       		.sleb128 0
 5485 12b3 00       		.byte	0
 5486 12b4 00       		.byte	0
 5487 12b5 25       		.uleb128 0x25
 5488 12b6 C00B0000 		.4byte	.LASF170
ARM GAS  C:\Users\arh\AppData\Local\Temp\cc6sEv7h.s 			page 124


 5489 12ba 01       		.byte	0x1
 5490 12bb 1104     		.2byte	0x411
 5491 12bd 00000000 		.4byte	.LFB41
 5492 12c1 48000000 		.4byte	.LFE41-.LFB41
 5493 12c5 01       		.uleb128 0x1
 5494 12c6 9C       		.byte	0x9c
 5495 12c7 87130000 		.4byte	0x1387
 5496 12cb 1A       		.uleb128 0x1a
 5497 12cc 8F050000 		.4byte	.LASF144
 5498 12d0 01       		.byte	0x1
 5499 12d1 1104     		.2byte	0x411
 5500 12d3 2F050000 		.4byte	0x52f
 5501 12d7 760C0000 		.4byte	.LLST65
 5502 12db 1A       		.uleb128 0x1a
 5503 12dc 57050000 		.4byte	.LASF171
 5504 12e0 01       		.byte	0x1
 5505 12e1 1104     		.2byte	0x411
 5506 12e3 AD000000 		.4byte	0xad
 5507 12e7 A20C0000 		.4byte	.LLST66
 5508 12eb 17       		.uleb128 0x17
 5509 12ec 7700     		.ascii	"w\000"
 5510 12ee 01       		.byte	0x1
 5511 12ef 1104     		.2byte	0x411
 5512 12f1 42030000 		.4byte	0x342
 5513 12f5 C30C0000 		.4byte	.LLST67
 5514 12f9 17       		.uleb128 0x17
 5515 12fa 6F7800   		.ascii	"ox\000"
 5516 12fd 01       		.byte	0x1
 5517 12fe 1104     		.2byte	0x411
 5518 1300 87130000 		.4byte	0x1387
 5519 1304 EF0C0000 		.4byte	.LLST68
 5520 1308 18       		.uleb128 0x18
 5521 1309 647800   		.ascii	"dx\000"
 5522 130c 01       		.byte	0x1
 5523 130d 1104     		.2byte	0x411
 5524 130f 87130000 		.4byte	0x1387
 5525 1313 02       		.uleb128 0x2
 5526 1314 91       		.byte	0x91
 5527 1315 00       		.sleb128 0
 5528 1316 26       		.uleb128 0x26
 5529 1317 160D0000 		.4byte	.LASF159
 5530 131b 01       		.byte	0x1
 5531 131c 1304     		.2byte	0x413
 5532 131e 53030000 		.4byte	0x353
 5533 1322 1B0D0000 		.4byte	.LLST69
 5534 1326 1D       		.uleb128 0x1d
 5535 1327 0C000000 		.4byte	.LVL238
 5536 132b BA110000 		.4byte	0x11ba
 5537 132f 3A130000 		.4byte	0x133a
 5538 1333 1E       		.uleb128 0x1e
 5539 1334 01       		.uleb128 0x1
 5540 1335 50       		.byte	0x50
 5541 1336 02       		.uleb128 0x2
 5542 1337 74       		.byte	0x74
 5543 1338 00       		.sleb128 0
 5544 1339 00       		.byte	0
 5545 133a 1D       		.uleb128 0x1d
ARM GAS  C:\Users\arh\AppData\Local\Temp\cc6sEv7h.s 			page 125


 5546 133b 18000000 		.4byte	.LVL240
 5547 133f 610D0000 		.4byte	0xd61
 5548 1343 4E130000 		.4byte	0x134e
 5549 1347 1E       		.uleb128 0x1e
 5550 1348 01       		.uleb128 0x1
 5551 1349 50       		.byte	0x50
 5552 134a 02       		.uleb128 0x2
 5553 134b 74       		.byte	0x74
 5554 134c 00       		.sleb128 0
 5555 134d 00       		.byte	0
 5556 134e 1D       		.uleb128 0x1d
 5557 134f 2C000000 		.4byte	.LVL242
 5558 1353 CC0D0000 		.4byte	0xdcc
 5559 1357 62130000 		.4byte	0x1362
 5560 135b 1E       		.uleb128 0x1e
 5561 135c 01       		.uleb128 0x1
 5562 135d 50       		.byte	0x50
 5563 135e 02       		.uleb128 0x2
 5564 135f 75       		.byte	0x75
 5565 1360 00       		.sleb128 0
 5566 1361 00       		.byte	0
 5567 1362 1D       		.uleb128 0x1d
 5568 1363 38000000 		.4byte	.LVL243
 5569 1367 CC0D0000 		.4byte	0xdcc
 5570 136b 76130000 		.4byte	0x1376
 5571 136f 1E       		.uleb128 0x1e
 5572 1370 01       		.uleb128 0x1
 5573 1371 50       		.byte	0x50
 5574 1372 02       		.uleb128 0x2
 5575 1373 75       		.byte	0x75
 5576 1374 00       		.sleb128 0
 5577 1375 00       		.byte	0
 5578 1376 1F       		.uleb128 0x1f
 5579 1377 42000000 		.4byte	.LVL244
 5580 137b CC0D0000 		.4byte	0xdcc
 5581 137f 1E       		.uleb128 0x1e
 5582 1380 01       		.uleb128 0x1
 5583 1381 50       		.byte	0x50
 5584 1382 02       		.uleb128 0x2
 5585 1383 75       		.byte	0x75
 5586 1384 00       		.sleb128 0
 5587 1385 00       		.byte	0
 5588 1386 00       		.byte	0
 5589 1387 09       		.uleb128 0x9
 5590 1388 04       		.byte	0x4
 5591 1389 97000000 		.4byte	0x97
 5592 138d 16       		.uleb128 0x16
 5593 138e 0D080000 		.4byte	.LASF172
 5594 1392 01       		.byte	0x1
 5595 1393 2904     		.2byte	0x429
 5596 1395 5E030000 		.4byte	0x35e
 5597 1399 00000000 		.4byte	.LFB43
 5598 139d A4000000 		.4byte	.LFE43-.LFB43
 5599 13a1 01       		.uleb128 0x1
 5600 13a2 9C       		.byte	0x9c
 5601 13a3 7A140000 		.4byte	0x147a
 5602 13a7 1A       		.uleb128 0x1a
ARM GAS  C:\Users\arh\AppData\Local\Temp\cc6sEv7h.s 			page 126


 5603 13a8 8F050000 		.4byte	.LASF144
 5604 13ac 01       		.byte	0x1
 5605 13ad 2904     		.2byte	0x429
 5606 13af 2F050000 		.4byte	0x52f
 5607 13b3 390D0000 		.4byte	.LLST70
 5608 13b7 17       		.uleb128 0x17
 5609 13b8 73747200 		.ascii	"str\000"
 5610 13bc 01       		.byte	0x1
 5611 13bd 2904     		.2byte	0x429
 5612 13bf 7A140000 		.4byte	0x147a
 5613 13c3 650D0000 		.4byte	.LLST71
 5614 13c7 1B       		.uleb128 0x1b
 5615 13c8 7700     		.ascii	"w\000"
 5616 13ca 01       		.byte	0x1
 5617 13cb 2C04     		.2byte	0x42c
 5618 13cd 5E030000 		.4byte	0x35e
 5619 13d1 830D0000 		.4byte	.LLST72
 5620 13d5 1B       		.uleb128 0x1b
 5621 13d6 656E6300 		.ascii	"enc\000"
 5622 13da 01       		.byte	0x1
 5623 13db 2D04     		.2byte	0x42d
 5624 13dd AD000000 		.4byte	0xad
 5625 13e1 D90D0000 		.4byte	.LLST73
 5626 13e5 28       		.uleb128 0x28
 5627 13e6 677700   		.ascii	"gw\000"
 5628 13e9 01       		.byte	0x1
 5629 13ea 2E04     		.2byte	0x42e
 5630 13ec A2000000 		.4byte	0xa2
 5631 13f0 02       		.uleb128 0x2
 5632 13f1 91       		.byte	0x91
 5633 13f2 67       		.sleb128 -25
 5634 13f3 28       		.uleb128 0x28
 5635 13f4 6F7800   		.ascii	"ox\000"
 5636 13f7 01       		.byte	0x1
 5637 13f8 2F04     		.2byte	0x42f
 5638 13fa 97000000 		.4byte	0x97
 5639 13fe 02       		.uleb128 0x2
 5640 13ff 91       		.byte	0x91
 5641 1400 66       		.sleb128 -26
 5642 1401 28       		.uleb128 0x28
 5643 1402 647800   		.ascii	"dx\000"
 5644 1405 01       		.byte	0x1
 5645 1406 2F04     		.2byte	0x42f
 5646 1408 97000000 		.4byte	0x97
 5647 140c 02       		.uleb128 0x2
 5648 140d 91       		.byte	0x91
 5649 140e 65       		.sleb128 -27
 5650 140f 2B       		.uleb128 0x2b
 5651 1410 10000000 		.4byte	.LVL249
 5652 1414 1F140000 		.4byte	0x141f
 5653 1418 1E       		.uleb128 0x1e
 5654 1419 01       		.uleb128 0x1
 5655 141a 50       		.byte	0x50
 5656 141b 02       		.uleb128 0x2
 5657 141c 75       		.byte	0x75
 5658 141d 00       		.sleb128 0
 5659 141e 00       		.byte	0
ARM GAS  C:\Users\arh\AppData\Local\Temp\cc6sEv7h.s 			page 127


 5660 141f 1D       		.uleb128 0x1d
 5661 1420 36000000 		.4byte	.LVL253
 5662 1424 B5120000 		.4byte	0x12b5
 5663 1428 46140000 		.4byte	0x1446
 5664 142c 1E       		.uleb128 0x1e
 5665 142d 01       		.uleb128 0x1
 5666 142e 50       		.byte	0x50
 5667 142f 02       		.uleb128 0x2
 5668 1430 75       		.byte	0x75
 5669 1431 00       		.sleb128 0
 5670 1432 1E       		.uleb128 0x1e
 5671 1433 01       		.uleb128 0x1
 5672 1434 52       		.byte	0x52
 5673 1435 02       		.uleb128 0x2
 5674 1436 91       		.byte	0x91
 5675 1437 67       		.sleb128 -25
 5676 1438 1E       		.uleb128 0x1e
 5677 1439 01       		.uleb128 0x1
 5678 143a 53       		.byte	0x53
 5679 143b 02       		.uleb128 0x2
 5680 143c 76       		.byte	0x76
 5681 143d 00       		.sleb128 0
 5682 143e 1E       		.uleb128 0x1e
 5683 143f 02       		.uleb128 0x2
 5684 1440 7D       		.byte	0x7d
 5685 1441 00       		.sleb128 0
 5686 1442 02       		.uleb128 0x2
 5687 1443 91       		.byte	0x91
 5688 1444 65       		.sleb128 -27
 5689 1445 00       		.byte	0
 5690 1446 2B       		.uleb128 0x2b
 5691 1447 44000000 		.4byte	.LVL255
 5692 144b 56140000 		.4byte	0x1456
 5693 144f 1E       		.uleb128 0x1e
 5694 1450 01       		.uleb128 0x1
 5695 1451 50       		.byte	0x50
 5696 1452 02       		.uleb128 0x2
 5697 1453 75       		.byte	0x75
 5698 1454 00       		.sleb128 0
 5699 1455 00       		.byte	0
 5700 1456 1F       		.uleb128 0x1f
 5701 1457 68000000 		.4byte	.LVL258
 5702 145b B5120000 		.4byte	0x12b5
 5703 145f 1E       		.uleb128 0x1e
 5704 1460 01       		.uleb128 0x1
 5705 1461 50       		.byte	0x50
 5706 1462 02       		.uleb128 0x2
 5707 1463 75       		.byte	0x75
 5708 1464 00       		.sleb128 0
 5709 1465 1E       		.uleb128 0x1e
 5710 1466 01       		.uleb128 0x1
 5711 1467 52       		.byte	0x52
 5712 1468 02       		.uleb128 0x2
 5713 1469 91       		.byte	0x91
 5714 146a 67       		.sleb128 -25
 5715 146b 1E       		.uleb128 0x1e
 5716 146c 01       		.uleb128 0x1
ARM GAS  C:\Users\arh\AppData\Local\Temp\cc6sEv7h.s 			page 128


 5717 146d 53       		.byte	0x53
 5718 146e 02       		.uleb128 0x2
 5719 146f 91       		.byte	0x91
 5720 1470 66       		.sleb128 -26
 5721 1471 1E       		.uleb128 0x1e
 5722 1472 02       		.uleb128 0x2
 5723 1473 7D       		.byte	0x7d
 5724 1474 00       		.sleb128 0
 5725 1475 02       		.uleb128 0x2
 5726 1476 76       		.byte	0x76
 5727 1477 00       		.sleb128 0
 5728 1478 00       		.byte	0
 5729 1479 00       		.byte	0
 5730 147a 09       		.uleb128 0x9
 5731 147b 04       		.byte	0x4
 5732 147c 87140000 		.4byte	0x1487
 5733 1480 03       		.uleb128 0x3
 5734 1481 01       		.byte	0x1
 5735 1482 08       		.byte	0x8
 5736 1483 270A0000 		.4byte	.LASF173
 5737 1487 0D       		.uleb128 0xd
 5738 1488 80140000 		.4byte	0x1480
 5739 148c 19       		.uleb128 0x19
 5740 148d 15060000 		.4byte	.LASF174
 5741 1491 01       		.byte	0x1
 5742 1492 9402     		.2byte	0x294
 5743 1494 A2000000 		.4byte	0xa2
 5744 1498 00000000 		.4byte	.LFB18
 5745 149c 12000000 		.4byte	.LFE18-.LFB18
 5746 14a0 01       		.uleb128 0x1
 5747 14a1 9C       		.byte	0x9c
 5748 14a2 D8140000 		.4byte	0x14d8
 5749 14a6 1A       		.uleb128 0x1a
 5750 14a7 8F050000 		.4byte	.LASF144
 5751 14ab 01       		.byte	0x1
 5752 14ac 9402     		.2byte	0x294
 5753 14ae 2F050000 		.4byte	0x52f
 5754 14b2 230E0000 		.4byte	.LLST74
 5755 14b6 1A       		.uleb128 0x1a
 5756 14b7 57050000 		.4byte	.LASF171
 5757 14bb 01       		.byte	0x1
 5758 14bc 9402     		.2byte	0x294
 5759 14be AD000000 		.4byte	0xad
 5760 14c2 440E0000 		.4byte	.LLST75
 5761 14c6 1F       		.uleb128 0x1f
 5762 14c7 06000000 		.4byte	.LVL273
 5763 14cb BA110000 		.4byte	0x11ba
 5764 14cf 1E       		.uleb128 0x1e
 5765 14d0 01       		.uleb128 0x1
 5766 14d1 50       		.byte	0x50
 5767 14d2 03       		.uleb128 0x3
 5768 14d3 F3       		.byte	0xf3
 5769 14d4 01       		.uleb128 0x1
 5770 14d5 50       		.byte	0x50
 5771 14d6 00       		.byte	0
 5772 14d7 00       		.byte	0
 5773 14d8 19       		.uleb128 0x19
ARM GAS  C:\Users\arh\AppData\Local\Temp\cc6sEv7h.s 			page 129


 5774 14d9 67090000 		.4byte	.LASF175
 5775 14dd 01       		.byte	0x1
 5776 14de 9D02     		.2byte	0x29d
 5777 14e0 97000000 		.4byte	0x97
 5778 14e4 00000000 		.4byte	.LFB19
 5779 14e8 40000000 		.4byte	.LFE19-.LFB19
 5780 14ec 01       		.uleb128 0x1
 5781 14ed 9C       		.byte	0x9c
 5782 14ee 83150000 		.4byte	0x1583
 5783 14f2 1A       		.uleb128 0x1a
 5784 14f3 8F050000 		.4byte	.LASF144
 5785 14f7 01       		.byte	0x1
 5786 14f8 9D02     		.2byte	0x29d
 5787 14fa 2F050000 		.4byte	0x52f
 5788 14fe 650E0000 		.4byte	.LLST76
 5789 1502 1A       		.uleb128 0x1a
 5790 1503 57050000 		.4byte	.LASF171
 5791 1507 01       		.byte	0x1
 5792 1508 9D02     		.2byte	0x29d
 5793 150a AD000000 		.4byte	0xad
 5794 150e 910E0000 		.4byte	.LLST77
 5795 1512 26       		.uleb128 0x26
 5796 1513 160D0000 		.4byte	.LASF159
 5797 1517 01       		.byte	0x1
 5798 1518 9F02     		.2byte	0x29f
 5799 151a 53030000 		.4byte	0x353
 5800 151e B20E0000 		.4byte	.LLST78
 5801 1522 1D       		.uleb128 0x1d
 5802 1523 08000000 		.4byte	.LVL275
 5803 1527 BA110000 		.4byte	0x11ba
 5804 152b 36150000 		.4byte	0x1536
 5805 152f 1E       		.uleb128 0x1e
 5806 1530 01       		.uleb128 0x1
 5807 1531 50       		.byte	0x50
 5808 1532 02       		.uleb128 0x2
 5809 1533 74       		.byte	0x74
 5810 1534 00       		.sleb128 0
 5811 1535 00       		.byte	0
 5812 1536 1D       		.uleb128 0x1d
 5813 1537 14000000 		.4byte	.LVL277
 5814 153b 610D0000 		.4byte	0xd61
 5815 153f 4A150000 		.4byte	0x154a
 5816 1543 1E       		.uleb128 0x1e
 5817 1544 01       		.uleb128 0x1
 5818 1545 50       		.byte	0x50
 5819 1546 02       		.uleb128 0x2
 5820 1547 74       		.byte	0x74
 5821 1548 00       		.sleb128 0
 5822 1549 00       		.byte	0
 5823 154a 1D       		.uleb128 0x1d
 5824 154b 22000000 		.4byte	.LVL278
 5825 154f CC0D0000 		.4byte	0xdcc
 5826 1553 5E150000 		.4byte	0x155e
 5827 1557 1E       		.uleb128 0x1e
 5828 1558 01       		.uleb128 0x1
 5829 1559 50       		.byte	0x50
 5830 155a 02       		.uleb128 0x2
ARM GAS  C:\Users\arh\AppData\Local\Temp\cc6sEv7h.s 			page 130


 5831 155b 75       		.byte	0x75
 5832 155c 00       		.sleb128 0
 5833 155d 00       		.byte	0
 5834 155e 1D       		.uleb128 0x1d
 5835 155f 30000000 		.4byte	.LVL279
 5836 1563 CC0D0000 		.4byte	0xdcc
 5837 1567 72150000 		.4byte	0x1572
 5838 156b 1E       		.uleb128 0x1e
 5839 156c 01       		.uleb128 0x1
 5840 156d 50       		.byte	0x50
 5841 156e 02       		.uleb128 0x2
 5842 156f 75       		.byte	0x75
 5843 1570 00       		.sleb128 0
 5844 1571 00       		.byte	0
 5845 1572 1F       		.uleb128 0x1f
 5846 1573 3A000000 		.4byte	.LVL280
 5847 1577 CC0D0000 		.4byte	0xdcc
 5848 157b 1E       		.uleb128 0x1e
 5849 157c 01       		.uleb128 0x1
 5850 157d 50       		.byte	0x50
 5851 157e 02       		.uleb128 0x2
 5852 157f 75       		.byte	0x75
 5853 1580 00       		.sleb128 0
 5854 1581 00       		.byte	0
 5855 1582 00       		.byte	0
 5856 1583 16       		.uleb128 0x16
 5857 1584 22060000 		.4byte	.LASF176
 5858 1588 01       		.byte	0x1
 5859 1589 E903     		.2byte	0x3e9
 5860 158b 5E030000 		.4byte	0x35e
 5861 158f 00000000 		.4byte	.LFB40
 5862 1593 60000000 		.4byte	.LFE40-.LFB40
 5863 1597 01       		.uleb128 0x1
 5864 1598 9C       		.byte	0x9c
 5865 1599 1D160000 		.4byte	0x161d
 5866 159d 1A       		.uleb128 0x1a
 5867 159e 8F050000 		.4byte	.LASF144
 5868 15a2 01       		.byte	0x1
 5869 15a3 E903     		.2byte	0x3e9
 5870 15a5 2F050000 		.4byte	0x52f
 5871 15a9 DB0E0000 		.4byte	.LLST79
 5872 15ad 17       		.uleb128 0x17
 5873 15ae 73747200 		.ascii	"str\000"
 5874 15b2 01       		.byte	0x1
 5875 15b3 E903     		.2byte	0x3e9
 5876 15b5 7A140000 		.4byte	0x147a
 5877 15b9 070F0000 		.4byte	.LLST80
 5878 15bd 1B       		.uleb128 0x1b
 5879 15be 6500     		.ascii	"e\000"
 5880 15c0 01       		.byte	0x1
 5881 15c1 EB03     		.2byte	0x3eb
 5882 15c3 AD000000 		.4byte	0xad
 5883 15c7 250F0000 		.4byte	.LLST81
 5884 15cb 1B       		.uleb128 0x1b
 5885 15cc 7700     		.ascii	"w\000"
 5886 15ce 01       		.byte	0x1
 5887 15cf EC03     		.2byte	0x3ec
ARM GAS  C:\Users\arh\AppData\Local\Temp\cc6sEv7h.s 			page 131


 5888 15d1 5E030000 		.4byte	0x35e
 5889 15d5 430F0000 		.4byte	.LLST82
 5890 15d9 1B       		.uleb128 0x1b
 5891 15da 647800   		.ascii	"dx\000"
 5892 15dd 01       		.byte	0x1
 5893 15de EC03     		.2byte	0x3ec
 5894 15e0 5E030000 		.4byte	0x35e
 5895 15e4 A80F0000 		.4byte	.LLST83
 5896 15e8 1D       		.uleb128 0x1d
 5897 15e9 10000000 		.4byte	.LVL285
 5898 15ed 381F0000 		.4byte	0x1f38
 5899 15f1 FC150000 		.4byte	0x15fc
 5900 15f5 1E       		.uleb128 0x1e
 5901 15f6 01       		.uleb128 0x1
 5902 15f7 50       		.byte	0x50
 5903 15f8 02       		.uleb128 0x2
 5904 15f9 75       		.byte	0x75
 5905 15fa 00       		.sleb128 0
 5906 15fb 00       		.byte	0
 5907 15fc 2B       		.uleb128 0x2b
 5908 15fd 1C000000 		.4byte	.LVL287
 5909 1601 0C160000 		.4byte	0x160c
 5910 1605 1E       		.uleb128 0x1e
 5911 1606 01       		.uleb128 0x1
 5912 1607 50       		.byte	0x50
 5913 1608 02       		.uleb128 0x2
 5914 1609 75       		.byte	0x75
 5915 160a 00       		.sleb128 0
 5916 160b 00       		.byte	0
 5917 160c 1F       		.uleb128 0x1f
 5918 160d 32000000 		.4byte	.LVL290
 5919 1611 D8140000 		.4byte	0x14d8
 5920 1615 1E       		.uleb128 0x1e
 5921 1616 01       		.uleb128 0x1
 5922 1617 50       		.byte	0x50
 5923 1618 02       		.uleb128 0x2
 5924 1619 75       		.byte	0x75
 5925 161a 00       		.sleb128 0
 5926 161b 00       		.byte	0
 5927 161c 00       		.byte	0
 5928 161d 27       		.uleb128 0x27
 5929 161e 1F040000 		.4byte	.LASF177
 5930 1622 01       		.byte	0x1
 5931 1623 B402     		.2byte	0x2b4
 5932 1625 00000000 		.4byte	.LFB20
 5933 1629 06000000 		.4byte	.LFE20-.LFB20
 5934 162d 01       		.uleb128 0x1
 5935 162e 9C       		.byte	0x9c
 5936 162f 50160000 		.4byte	0x1650
 5937 1633 2A       		.uleb128 0x2a
 5938 1634 8F050000 		.4byte	.LASF144
 5939 1638 01       		.byte	0x1
 5940 1639 B402     		.2byte	0x2b4
 5941 163b 2F050000 		.4byte	0x52f
 5942 163f 01       		.uleb128 0x1
 5943 1640 50       		.byte	0x50
 5944 1641 2A       		.uleb128 0x2a
ARM GAS  C:\Users\arh\AppData\Local\Temp\cc6sEv7h.s 			page 132


 5945 1642 B0010000 		.4byte	.LASF126
 5946 1646 01       		.byte	0x1
 5947 1647 B402     		.2byte	0x2b4
 5948 1649 A2000000 		.4byte	0xa2
 5949 164d 01       		.uleb128 0x1
 5950 164e 51       		.byte	0x51
 5951 164f 00       		.byte	0
 5952 1650 19       		.uleb128 0x19
 5953 1651 49020000 		.4byte	.LASF178
 5954 1655 01       		.byte	0x1
 5955 1656 B902     		.2byte	0x2b9
 5956 1658 5E030000 		.4byte	0x35e
 5957 165c 00000000 		.4byte	.LFB21
 5958 1660 54000000 		.4byte	.LFE21-.LFB21
 5959 1664 01       		.uleb128 0x1
 5960 1665 9C       		.byte	0x9c
 5961 1666 09170000 		.4byte	0x1709
 5962 166a 1A       		.uleb128 0x1a
 5963 166b 8F050000 		.4byte	.LASF144
 5964 166f 01       		.byte	0x1
 5965 1670 B902     		.2byte	0x2b9
 5966 1672 2F050000 		.4byte	0x52f
 5967 1676 C70F0000 		.4byte	.LLST84
 5968 167a 17       		.uleb128 0x17
 5969 167b 7800     		.ascii	"x\000"
 5970 167d 01       		.byte	0x1
 5971 167e B902     		.2byte	0x2b9
 5972 1680 5E030000 		.4byte	0x35e
 5973 1684 35100000 		.4byte	.LLST85
 5974 1688 17       		.uleb128 0x17
 5975 1689 7900     		.ascii	"y\000"
 5976 168b 01       		.byte	0x1
 5977 168c B902     		.2byte	0x2b9
 5978 168e 5E030000 		.4byte	0x35e
 5979 1692 B7100000 		.4byte	.LLST86
 5980 1696 1A       		.uleb128 0x1a
 5981 1697 6F060000 		.4byte	.LASF27
 5982 169b 01       		.byte	0x1
 5983 169c B902     		.2byte	0x2b9
 5984 169e AD000000 		.4byte	0xad
 5985 16a2 44110000 		.4byte	.LLST87
 5986 16a6 2B       		.uleb128 0x2b
 5987 16a7 24000000 		.4byte	.LVL308
 5988 16ab B6160000 		.4byte	0x16b6
 5989 16af 1E       		.uleb128 0x1e
 5990 16b0 01       		.uleb128 0x1
 5991 16b1 50       		.byte	0x50
 5992 16b2 02       		.uleb128 0x2
 5993 16b3 74       		.byte	0x74
 5994 16b4 00       		.sleb128 0
 5995 16b5 00       		.byte	0
 5996 16b6 2B       		.uleb128 0x2b
 5997 16b7 2E000000 		.4byte	.LVL311
 5998 16bb C6160000 		.4byte	0x16c6
 5999 16bf 1E       		.uleb128 0x1e
 6000 16c0 01       		.uleb128 0x1
 6001 16c1 50       		.byte	0x50
ARM GAS  C:\Users\arh\AppData\Local\Temp\cc6sEv7h.s 			page 133


 6002 16c2 02       		.uleb128 0x2
 6003 16c3 74       		.byte	0x74
 6004 16c4 00       		.sleb128 0
 6005 16c5 00       		.byte	0
 6006 16c6 2B       		.uleb128 0x2b
 6007 16c7 38000000 		.4byte	.LVL314
 6008 16cb D6160000 		.4byte	0x16d6
 6009 16cf 1E       		.uleb128 0x1e
 6010 16d0 01       		.uleb128 0x1
 6011 16d1 50       		.byte	0x50
 6012 16d2 02       		.uleb128 0x2
 6013 16d3 74       		.byte	0x74
 6014 16d4 00       		.sleb128 0
 6015 16d5 00       		.byte	0
 6016 16d6 2B       		.uleb128 0x2b
 6017 16d7 42000000 		.4byte	.LVL317
 6018 16db E6160000 		.4byte	0x16e6
 6019 16df 1E       		.uleb128 0x1e
 6020 16e0 01       		.uleb128 0x1
 6021 16e1 50       		.byte	0x50
 6022 16e2 02       		.uleb128 0x2
 6023 16e3 74       		.byte	0x74
 6024 16e4 00       		.sleb128 0
 6025 16e5 00       		.byte	0
 6026 16e6 1F       		.uleb128 0x1f
 6027 16e7 52000000 		.4byte	.LVL319
 6028 16eb 1B120000 		.4byte	0x121b
 6029 16ef 1E       		.uleb128 0x1e
 6030 16f0 01       		.uleb128 0x1
 6031 16f1 50       		.byte	0x50
 6032 16f2 02       		.uleb128 0x2
 6033 16f3 74       		.byte	0x74
 6034 16f4 00       		.sleb128 0
 6035 16f5 1E       		.uleb128 0x1e
 6036 16f6 01       		.uleb128 0x1
 6037 16f7 51       		.byte	0x51
 6038 16f8 02       		.uleb128 0x2
 6039 16f9 75       		.byte	0x75
 6040 16fa 00       		.sleb128 0
 6041 16fb 1E       		.uleb128 0x1e
 6042 16fc 01       		.uleb128 0x1
 6043 16fd 52       		.byte	0x52
 6044 16fe 02       		.uleb128 0x2
 6045 16ff 76       		.byte	0x76
 6046 1700 00       		.sleb128 0
 6047 1701 1E       		.uleb128 0x1e
 6048 1702 01       		.uleb128 0x1
 6049 1703 53       		.byte	0x53
 6050 1704 02       		.uleb128 0x2
 6051 1705 77       		.byte	0x77
 6052 1706 00       		.sleb128 0
 6053 1707 00       		.byte	0
 6054 1708 00       		.byte	0
 6055 1709 16       		.uleb128 0x16
 6056 170a 490D0000 		.4byte	.LASF179
 6057 170e 01       		.byte	0x1
 6058 170f D202     		.2byte	0x2d2
ARM GAS  C:\Users\arh\AppData\Local\Temp\cc6sEv7h.s 			page 134


 6059 1711 5E030000 		.4byte	0x35e
 6060 1715 00000000 		.4byte	.LFB22
 6061 1719 7C000000 		.4byte	.LFE22-.LFB22
 6062 171d 01       		.uleb128 0x1
 6063 171e 9C       		.byte	0x9c
 6064 171f CE170000 		.4byte	0x17ce
 6065 1723 1A       		.uleb128 0x1a
 6066 1724 8F050000 		.4byte	.LASF144
 6067 1728 01       		.byte	0x1
 6068 1729 D202     		.2byte	0x2d2
 6069 172b 2F050000 		.4byte	0x52f
 6070 172f 65110000 		.4byte	.LLST88
 6071 1733 17       		.uleb128 0x17
 6072 1734 7800     		.ascii	"x\000"
 6073 1736 01       		.byte	0x1
 6074 1737 D202     		.2byte	0x2d2
 6075 1739 5E030000 		.4byte	0x35e
 6076 173d 91110000 		.4byte	.LLST89
 6077 1741 17       		.uleb128 0x17
 6078 1742 7900     		.ascii	"y\000"
 6079 1744 01       		.byte	0x1
 6080 1745 D202     		.2byte	0x2d2
 6081 1747 5E030000 		.4byte	0x35e
 6082 174b D3110000 		.4byte	.LLST90
 6083 174f 17       		.uleb128 0x17
 6084 1750 73747200 		.ascii	"str\000"
 6085 1754 01       		.byte	0x1
 6086 1755 D202     		.2byte	0x2d2
 6087 1757 7A140000 		.4byte	0x147a
 6088 175b 15120000 		.4byte	.LLST91
 6089 175f 1B       		.uleb128 0x1b
 6090 1760 6500     		.ascii	"e\000"
 6091 1762 01       		.byte	0x1
 6092 1763 D402     		.2byte	0x2d4
 6093 1765 AD000000 		.4byte	0xad
 6094 1769 33120000 		.4byte	.LLST92
 6095 176d 26       		.uleb128 0x26
 6096 176e 85010000 		.4byte	.LASF180
 6097 1772 01       		.byte	0x1
 6098 1773 D502     		.2byte	0x2d5
 6099 1775 5E030000 		.4byte	0x35e
 6100 1779 51120000 		.4byte	.LLST93
 6101 177d 1B       		.uleb128 0x1b
 6102 177e 73756D00 		.ascii	"sum\000"
 6103 1782 01       		.byte	0x1
 6104 1783 D502     		.2byte	0x2d5
 6105 1785 5E030000 		.4byte	0x35e
 6106 1789 64120000 		.4byte	.LLST94
 6107 178d 1D       		.uleb128 0x1d
 6108 178e 12000000 		.4byte	.LVL324
 6109 1792 381F0000 		.4byte	0x1f38
 6110 1796 A1170000 		.4byte	0x17a1
 6111 179a 1E       		.uleb128 0x1e
 6112 179b 01       		.uleb128 0x1
 6113 179c 50       		.byte	0x50
 6114 179d 02       		.uleb128 0x2
 6115 179e 74       		.byte	0x74
ARM GAS  C:\Users\arh\AppData\Local\Temp\cc6sEv7h.s 			page 135


 6116 179f 00       		.sleb128 0
 6117 17a0 00       		.byte	0
 6118 17a1 2B       		.uleb128 0x2b
 6119 17a2 1E000000 		.4byte	.LVL326
 6120 17a6 B1170000 		.4byte	0x17b1
 6121 17aa 1E       		.uleb128 0x1e
 6122 17ab 01       		.uleb128 0x1
 6123 17ac 50       		.byte	0x50
 6124 17ad 02       		.uleb128 0x2
 6125 17ae 74       		.byte	0x74
 6126 17af 00       		.sleb128 0
 6127 17b0 00       		.byte	0
 6128 17b1 1F       		.uleb128 0x1f
 6129 17b2 38000000 		.4byte	.LVL329
 6130 17b6 50160000 		.4byte	0x1650
 6131 17ba 1E       		.uleb128 0x1e
 6132 17bb 01       		.uleb128 0x1
 6133 17bc 50       		.byte	0x50
 6134 17bd 02       		.uleb128 0x2
 6135 17be 74       		.byte	0x74
 6136 17bf 00       		.sleb128 0
 6137 17c0 1E       		.uleb128 0x1e
 6138 17c1 01       		.uleb128 0x1
 6139 17c2 51       		.byte	0x51
 6140 17c3 02       		.uleb128 0x2
 6141 17c4 77       		.byte	0x77
 6142 17c5 00       		.sleb128 0
 6143 17c6 1E       		.uleb128 0x1e
 6144 17c7 01       		.uleb128 0x1
 6145 17c8 52       		.byte	0x52
 6146 17c9 02       		.uleb128 0x2
 6147 17ca 76       		.byte	0x76
 6148 17cb 00       		.sleb128 0
 6149 17cc 00       		.byte	0
 6150 17cd 00       		.byte	0
 6151 17ce 19       		.uleb128 0x19
 6152 17cf 76000000 		.4byte	.LASF181
 6153 17d3 01       		.byte	0x1
 6154 17d4 FC02     		.2byte	0x2fc
 6155 17d6 5E030000 		.4byte	0x35e
 6156 17da 00000000 		.4byte	.LFB23
 6157 17de 10000000 		.4byte	.LFE23-.LFB23
 6158 17e2 01       		.uleb128 0x1
 6159 17e3 9C       		.byte	0x9c
 6160 17e4 3D180000 		.4byte	0x183d
 6161 17e8 1A       		.uleb128 0x1a
 6162 17e9 8F050000 		.4byte	.LASF144
 6163 17ed 01       		.byte	0x1
 6164 17ee FC02     		.2byte	0x2fc
 6165 17f0 2F050000 		.4byte	0x52f
 6166 17f4 83120000 		.4byte	.LLST95
 6167 17f8 17       		.uleb128 0x17
 6168 17f9 7800     		.ascii	"x\000"
 6169 17fb 01       		.byte	0x1
 6170 17fc FC02     		.2byte	0x2fc
 6171 17fe 5E030000 		.4byte	0x35e
 6172 1802 A4120000 		.4byte	.LLST96
ARM GAS  C:\Users\arh\AppData\Local\Temp\cc6sEv7h.s 			page 136


 6173 1806 17       		.uleb128 0x17
 6174 1807 7900     		.ascii	"y\000"
 6175 1809 01       		.byte	0x1
 6176 180a FC02     		.2byte	0x2fc
 6177 180c 5E030000 		.4byte	0x35e
 6178 1810 C5120000 		.4byte	.LLST97
 6179 1814 17       		.uleb128 0x17
 6180 1815 73747200 		.ascii	"str\000"
 6181 1819 01       		.byte	0x1
 6182 181a FC02     		.2byte	0x2fc
 6183 181c 7A140000 		.4byte	0x147a
 6184 1820 E6120000 		.4byte	.LLST98
 6185 1824 1F       		.uleb128 0x1f
 6186 1825 0A000000 		.4byte	.LVL348
 6187 1829 09170000 		.4byte	0x1709
 6188 182d 1E       		.uleb128 0x1e
 6189 182e 01       		.uleb128 0x1
 6190 182f 50       		.byte	0x50
 6191 1830 03       		.uleb128 0x3
 6192 1831 F3       		.byte	0xf3
 6193 1832 01       		.uleb128 0x1
 6194 1833 50       		.byte	0x50
 6195 1834 1E       		.uleb128 0x1e
 6196 1835 01       		.uleb128 0x1
 6197 1836 53       		.byte	0x53
 6198 1837 03       		.uleb128 0x3
 6199 1838 F3       		.byte	0xf3
 6200 1839 01       		.uleb128 0x1
 6201 183a 53       		.byte	0x53
 6202 183b 00       		.byte	0
 6203 183c 00       		.byte	0
 6204 183d 19       		.uleb128 0x19
 6205 183e 50060000 		.4byte	.LASF182
 6206 1842 01       		.byte	0x1
 6207 1843 0C03     		.2byte	0x30c
 6208 1845 5E030000 		.4byte	0x35e
 6209 1849 00000000 		.4byte	.LFB24
 6210 184d 10000000 		.4byte	.LFE24-.LFB24
 6211 1851 01       		.uleb128 0x1
 6212 1852 9C       		.byte	0x9c
 6213 1853 AC180000 		.4byte	0x18ac
 6214 1857 1A       		.uleb128 0x1a
 6215 1858 8F050000 		.4byte	.LASF144
 6216 185c 01       		.byte	0x1
 6217 185d 0C03     		.2byte	0x30c
 6218 185f 2F050000 		.4byte	0x52f
 6219 1863 07130000 		.4byte	.LLST99
 6220 1867 17       		.uleb128 0x17
 6221 1868 7800     		.ascii	"x\000"
 6222 186a 01       		.byte	0x1
 6223 186b 0C03     		.2byte	0x30c
 6224 186d 5E030000 		.4byte	0x35e
 6225 1871 28130000 		.4byte	.LLST100
 6226 1875 17       		.uleb128 0x17
 6227 1876 7900     		.ascii	"y\000"
 6228 1878 01       		.byte	0x1
 6229 1879 0C03     		.2byte	0x30c
ARM GAS  C:\Users\arh\AppData\Local\Temp\cc6sEv7h.s 			page 137


 6230 187b 5E030000 		.4byte	0x35e
 6231 187f 49130000 		.4byte	.LLST101
 6232 1883 17       		.uleb128 0x17
 6233 1884 73747200 		.ascii	"str\000"
 6234 1888 01       		.byte	0x1
 6235 1889 0C03     		.2byte	0x30c
 6236 188b 7A140000 		.4byte	0x147a
 6237 188f 6A130000 		.4byte	.LLST102
 6238 1893 1F       		.uleb128 0x1f
 6239 1894 0A000000 		.4byte	.LVL350
 6240 1898 09170000 		.4byte	0x1709
 6241 189c 1E       		.uleb128 0x1e
 6242 189d 01       		.uleb128 0x1
 6243 189e 50       		.byte	0x50
 6244 189f 03       		.uleb128 0x3
 6245 18a0 F3       		.byte	0xf3
 6246 18a1 01       		.uleb128 0x1
 6247 18a2 50       		.byte	0x50
 6248 18a3 1E       		.uleb128 0x1e
 6249 18a4 01       		.uleb128 0x1
 6250 18a5 53       		.byte	0x53
 6251 18a6 03       		.uleb128 0x3
 6252 18a7 F3       		.byte	0xf3
 6253 18a8 01       		.uleb128 0x1
 6254 18a9 53       		.byte	0x53
 6255 18aa 00       		.byte	0
 6256 18ab 00       		.byte	0
 6257 18ac 19       		.uleb128 0x19
 6258 18ad 5A070000 		.4byte	.LASF183
 6259 18b1 01       		.byte	0x1
 6260 18b2 1403     		.2byte	0x314
 6261 18b4 5E030000 		.4byte	0x35e
 6262 18b8 00000000 		.4byte	.LFB25
 6263 18bc BC000000 		.4byte	.LFE25-.LFB25
 6264 18c0 01       		.uleb128 0x1
 6265 18c1 9C       		.byte	0x9c
 6266 18c2 2A1A0000 		.4byte	0x1a2a
 6267 18c6 1A       		.uleb128 0x1a
 6268 18c7 8F050000 		.4byte	.LASF144
 6269 18cb 01       		.byte	0x1
 6270 18cc 1403     		.2byte	0x314
 6271 18ce 2F050000 		.4byte	0x52f
 6272 18d2 8B130000 		.4byte	.LLST103
 6273 18d6 17       		.uleb128 0x17
 6274 18d7 7800     		.ascii	"x\000"
 6275 18d9 01       		.byte	0x1
 6276 18da 1403     		.2byte	0x314
 6277 18dc 5E030000 		.4byte	0x35e
 6278 18e0 B7130000 		.4byte	.LLST104
 6279 18e4 17       		.uleb128 0x17
 6280 18e5 7900     		.ascii	"y\000"
 6281 18e7 01       		.byte	0x1
 6282 18e8 1403     		.2byte	0x314
 6283 18ea 5E030000 		.4byte	0x35e
 6284 18ee 09140000 		.4byte	.LLST105
 6285 18f2 1A       		.uleb128 0x1a
 6286 18f3 3A0D0000 		.4byte	.LASF184
ARM GAS  C:\Users\arh\AppData\Local\Temp\cc6sEv7h.s 			page 138


 6287 18f7 01       		.byte	0x1
 6288 18f8 1403     		.2byte	0x314
 6289 18fa A2000000 		.4byte	0xa2
 6290 18fe 2A140000 		.4byte	.LLST106
 6291 1902 2A       		.uleb128 0x2a
 6292 1903 BD000000 		.4byte	.LASF185
 6293 1907 01       		.byte	0x1
 6294 1908 1403     		.2byte	0x314
 6295 190a 2A1A0000 		.4byte	0x1a2a
 6296 190e 02       		.uleb128 0x2
 6297 190f 91       		.byte	0x91
 6298 1910 00       		.sleb128 0
 6299 1911 17       		.uleb128 0x17
 6300 1912 73747200 		.ascii	"str\000"
 6301 1916 01       		.byte	0x1
 6302 1917 1403     		.2byte	0x314
 6303 1919 7A140000 		.4byte	0x147a
 6304 191d 4B140000 		.4byte	.LLST107
 6305 1921 26       		.uleb128 0x26
 6306 1922 1C050000 		.4byte	.LASF186
 6307 1926 01       		.byte	0x1
 6308 1927 1703     		.2byte	0x317
 6309 1929 AD000000 		.4byte	0xad
 6310 192d 6A140000 		.4byte	.LLST108
 6311 1931 1B       		.uleb128 0x1b
 6312 1932 6500     		.ascii	"e\000"
 6313 1934 01       		.byte	0x1
 6314 1935 1803     		.2byte	0x318
 6315 1937 AD000000 		.4byte	0xad
 6316 193b AF140000 		.4byte	.LLST109
 6317 193f 26       		.uleb128 0x26
 6318 1940 85010000 		.4byte	.LASF180
 6319 1944 01       		.byte	0x1
 6320 1945 1903     		.2byte	0x319
 6321 1947 5E030000 		.4byte	0x35e
 6322 194b EF140000 		.4byte	.LLST110
 6323 194f 1B       		.uleb128 0x1b
 6324 1950 73756D00 		.ascii	"sum\000"
 6325 1954 01       		.byte	0x1
 6326 1955 1903     		.2byte	0x319
 6327 1957 5E030000 		.4byte	0x35e
 6328 195b 18150000 		.4byte	.LLST111
 6329 195f 1B       		.uleb128 0x1b
 6330 1960 6B00     		.ascii	"k\000"
 6331 1962 01       		.byte	0x1
 6332 1963 1903     		.2byte	0x319
 6333 1965 5E030000 		.4byte	0x35e
 6334 1969 37150000 		.4byte	.LLST112
 6335 196d 1D       		.uleb128 0x1d
 6336 196e 1C000000 		.4byte	.LVL354
 6337 1972 381F0000 		.4byte	0x1f38
 6338 1976 81190000 		.4byte	0x1981
 6339 197a 1E       		.uleb128 0x1e
 6340 197b 01       		.uleb128 0x1
 6341 197c 50       		.byte	0x50
 6342 197d 02       		.uleb128 0x2
 6343 197e 77       		.byte	0x77
ARM GAS  C:\Users\arh\AppData\Local\Temp\cc6sEv7h.s 			page 139


 6344 197f 00       		.sleb128 0
 6345 1980 00       		.byte	0
 6346 1981 2B       		.uleb128 0x2b
 6347 1982 2A000000 		.4byte	.LVL356
 6348 1986 91190000 		.4byte	0x1991
 6349 198a 1E       		.uleb128 0x1e
 6350 198b 01       		.uleb128 0x1
 6351 198c 50       		.byte	0x50
 6352 198d 02       		.uleb128 0x2
 6353 198e 77       		.byte	0x77
 6354 198f 00       		.sleb128 0
 6355 1990 00       		.byte	0
 6356 1991 1D       		.uleb128 0x1d
 6357 1992 42000000 		.4byte	.LVL360
 6358 1996 D8140000 		.4byte	0x14d8
 6359 199a AD190000 		.4byte	0x19ad
 6360 199e 1E       		.uleb128 0x1e
 6361 199f 01       		.uleb128 0x1
 6362 19a0 50       		.byte	0x50
 6363 19a1 02       		.uleb128 0x2
 6364 19a2 77       		.byte	0x77
 6365 19a3 00       		.sleb128 0
 6366 19a4 1E       		.uleb128 0x1e
 6367 19a5 01       		.uleb128 0x1
 6368 19a6 51       		.byte	0x51
 6369 19a7 04       		.uleb128 0x4
 6370 19a8 91       		.byte	0x91
 6371 19a9 54       		.sleb128 -44
 6372 19aa 94       		.byte	0x94
 6373 19ab 02       		.byte	0x2
 6374 19ac 00       		.byte	0
 6375 19ad 1D       		.uleb128 0x1d
 6376 19ae 56000000 		.4byte	.LVL362
 6377 19b2 441F0000 		.4byte	0x1f44
 6378 19b6 D8190000 		.4byte	0x19d8
 6379 19ba 1E       		.uleb128 0x1e
 6380 19bb 01       		.uleb128 0x1
 6381 19bc 50       		.byte	0x50
 6382 19bd 02       		.uleb128 0x2
 6383 19be 77       		.byte	0x77
 6384 19bf 00       		.sleb128 0
 6385 19c0 1E       		.uleb128 0x1e
 6386 19c1 01       		.uleb128 0x1
 6387 19c2 51       		.byte	0x51
 6388 19c3 03       		.uleb128 0x3
 6389 19c4 91       		.byte	0x91
 6390 19c5 00       		.sleb128 0
 6391 19c6 06       		.byte	0x6
 6392 19c7 1E       		.uleb128 0x1e
 6393 19c8 01       		.uleb128 0x1
 6394 19c9 52       		.byte	0x52
 6395 19ca 04       		.uleb128 0x4
 6396 19cb 91       		.byte	0x91
 6397 19cc 54       		.sleb128 -44
 6398 19cd 94       		.byte	0x94
 6399 19ce 02       		.byte	0x2
 6400 19cf 1E       		.uleb128 0x1e
ARM GAS  C:\Users\arh\AppData\Local\Temp\cc6sEv7h.s 			page 140


 6401 19d0 01       		.uleb128 0x1
 6402 19d1 53       		.byte	0x53
 6403 19d2 04       		.uleb128 0x4
 6404 19d3 91       		.byte	0x91
 6405 19d4 58       		.sleb128 -40
 6406 19d5 94       		.byte	0x94
 6407 19d6 02       		.byte	0x2
 6408 19d7 00       		.byte	0
 6409 19d8 1D       		.uleb128 0x1d
 6410 19d9 72000000 		.4byte	.LVL368
 6411 19dd 441F0000 		.4byte	0x1f44
 6412 19e1 031A0000 		.4byte	0x1a03
 6413 19e5 1E       		.uleb128 0x1e
 6414 19e6 01       		.uleb128 0x1
 6415 19e7 50       		.byte	0x50
 6416 19e8 02       		.uleb128 0x2
 6417 19e9 77       		.byte	0x77
 6418 19ea 00       		.sleb128 0
 6419 19eb 1E       		.uleb128 0x1e
 6420 19ec 01       		.uleb128 0x1
 6421 19ed 51       		.byte	0x51
 6422 19ee 03       		.uleb128 0x3
 6423 19ef 91       		.byte	0x91
 6424 19f0 00       		.sleb128 0
 6425 19f1 06       		.byte	0x6
 6426 19f2 1E       		.uleb128 0x1e
 6427 19f3 01       		.uleb128 0x1
 6428 19f4 52       		.byte	0x52
 6429 19f5 04       		.uleb128 0x4
 6430 19f6 91       		.byte	0x91
 6431 19f7 58       		.sleb128 -40
 6432 19f8 94       		.byte	0x94
 6433 19f9 02       		.byte	0x2
 6434 19fa 1E       		.uleb128 0x1e
 6435 19fb 01       		.uleb128 0x1
 6436 19fc 53       		.byte	0x53
 6437 19fd 04       		.uleb128 0x4
 6438 19fe 91       		.byte	0x91
 6439 19ff 54       		.sleb128 -44
 6440 1a00 94       		.byte	0x94
 6441 1a01 02       		.byte	0x2
 6442 1a02 00       		.byte	0
 6443 1a03 1F       		.uleb128 0x1f
 6444 1a04 84000000 		.4byte	.LVL372
 6445 1a08 50160000 		.4byte	0x1650
 6446 1a0c 1E       		.uleb128 0x1e
 6447 1a0d 01       		.uleb128 0x1
 6448 1a0e 50       		.byte	0x50
 6449 1a0f 02       		.uleb128 0x2
 6450 1a10 77       		.byte	0x77
 6451 1a11 00       		.sleb128 0
 6452 1a12 1E       		.uleb128 0x1e
 6453 1a13 01       		.uleb128 0x1
 6454 1a14 51       		.byte	0x51
 6455 1a15 02       		.uleb128 0x2
 6456 1a16 78       		.byte	0x78
 6457 1a17 00       		.sleb128 0
ARM GAS  C:\Users\arh\AppData\Local\Temp\cc6sEv7h.s 			page 141


 6458 1a18 1E       		.uleb128 0x1e
 6459 1a19 01       		.uleb128 0x1
 6460 1a1a 52       		.byte	0x52
 6461 1a1b 04       		.uleb128 0x4
 6462 1a1c 91       		.byte	0x91
 6463 1a1d 5C       		.sleb128 -36
 6464 1a1e 94       		.byte	0x94
 6465 1a1f 01       		.byte	0x1
 6466 1a20 1E       		.uleb128 0x1e
 6467 1a21 01       		.uleb128 0x1
 6468 1a22 53       		.byte	0x53
 6469 1a23 04       		.uleb128 0x4
 6470 1a24 91       		.byte	0x91
 6471 1a25 54       		.sleb128 -44
 6472 1a26 94       		.byte	0x94
 6473 1a27 02       		.byte	0x2
 6474 1a28 00       		.byte	0
 6475 1a29 00       		.byte	0
 6476 1a2a 09       		.uleb128 0x9
 6477 1a2b 04       		.byte	0x4
 6478 1a2c 86070000 		.4byte	0x786
 6479 1a30 19       		.uleb128 0x19
 6480 1a31 74010000 		.4byte	.LASF187
 6481 1a35 01       		.byte	0x1
 6482 1a36 4303     		.2byte	0x343
 6483 1a38 5E030000 		.4byte	0x35e
 6484 1a3c 00000000 		.4byte	.LFB26
 6485 1a40 BC000000 		.4byte	.LFE26-.LFB26
 6486 1a44 01       		.uleb128 0x1
 6487 1a45 9C       		.byte	0x9c
 6488 1a46 AE1B0000 		.4byte	0x1bae
 6489 1a4a 1A       		.uleb128 0x1a
 6490 1a4b 8F050000 		.4byte	.LASF144
 6491 1a4f 01       		.byte	0x1
 6492 1a50 4303     		.2byte	0x343
 6493 1a52 2F050000 		.4byte	0x52f
 6494 1a56 61150000 		.4byte	.LLST113
 6495 1a5a 17       		.uleb128 0x17
 6496 1a5b 7800     		.ascii	"x\000"
 6497 1a5d 01       		.byte	0x1
 6498 1a5e 4303     		.2byte	0x343
 6499 1a60 5E030000 		.4byte	0x35e
 6500 1a64 8D150000 		.4byte	.LLST114
 6501 1a68 17       		.uleb128 0x17
 6502 1a69 7900     		.ascii	"y\000"
 6503 1a6b 01       		.byte	0x1
 6504 1a6c 4303     		.2byte	0x343
 6505 1a6e 5E030000 		.4byte	0x35e
 6506 1a72 DF150000 		.4byte	.LLST115
 6507 1a76 1A       		.uleb128 0x1a
 6508 1a77 3A0D0000 		.4byte	.LASF184
 6509 1a7b 01       		.byte	0x1
 6510 1a7c 4303     		.2byte	0x343
 6511 1a7e A2000000 		.4byte	0xa2
 6512 1a82 00160000 		.4byte	.LLST116
 6513 1a86 2A       		.uleb128 0x2a
 6514 1a87 010B0000 		.4byte	.LASF188
ARM GAS  C:\Users\arh\AppData\Local\Temp\cc6sEv7h.s 			page 142


 6515 1a8b 01       		.byte	0x1
 6516 1a8c 4303     		.2byte	0x343
 6517 1a8e 7B070000 		.4byte	0x77b
 6518 1a92 02       		.uleb128 0x2
 6519 1a93 91       		.byte	0x91
 6520 1a94 00       		.sleb128 0
 6521 1a95 17       		.uleb128 0x17
 6522 1a96 73747200 		.ascii	"str\000"
 6523 1a9a 01       		.byte	0x1
 6524 1a9b 4303     		.2byte	0x343
 6525 1a9d 7A140000 		.4byte	0x147a
 6526 1aa1 21160000 		.4byte	.LLST117
 6527 1aa5 26       		.uleb128 0x26
 6528 1aa6 1C050000 		.4byte	.LASF186
 6529 1aaa 01       		.byte	0x1
 6530 1aab 4603     		.2byte	0x346
 6531 1aad AD000000 		.4byte	0xad
 6532 1ab1 40160000 		.4byte	.LLST118
 6533 1ab5 1B       		.uleb128 0x1b
 6534 1ab6 6500     		.ascii	"e\000"
 6535 1ab8 01       		.byte	0x1
 6536 1ab9 4703     		.2byte	0x347
 6537 1abb AD000000 		.4byte	0xad
 6538 1abf 85160000 		.4byte	.LLST119
 6539 1ac3 26       		.uleb128 0x26
 6540 1ac4 85010000 		.4byte	.LASF180
 6541 1ac8 01       		.byte	0x1
 6542 1ac9 4803     		.2byte	0x348
 6543 1acb 5E030000 		.4byte	0x35e
 6544 1acf C5160000 		.4byte	.LLST120
 6545 1ad3 1B       		.uleb128 0x1b
 6546 1ad4 73756D00 		.ascii	"sum\000"
 6547 1ad8 01       		.byte	0x1
 6548 1ad9 4803     		.2byte	0x348
 6549 1adb 5E030000 		.4byte	0x35e
 6550 1adf EE160000 		.4byte	.LLST121
 6551 1ae3 1B       		.uleb128 0x1b
 6552 1ae4 6B00     		.ascii	"k\000"
 6553 1ae6 01       		.byte	0x1
 6554 1ae7 4803     		.2byte	0x348
 6555 1ae9 5E030000 		.4byte	0x35e
 6556 1aed 0D170000 		.4byte	.LLST122
 6557 1af1 1D       		.uleb128 0x1d
 6558 1af2 1C000000 		.4byte	.LVL388
 6559 1af6 381F0000 		.4byte	0x1f38
 6560 1afa 051B0000 		.4byte	0x1b05
 6561 1afe 1E       		.uleb128 0x1e
 6562 1aff 01       		.uleb128 0x1
 6563 1b00 50       		.byte	0x50
 6564 1b01 02       		.uleb128 0x2
 6565 1b02 77       		.byte	0x77
 6566 1b03 00       		.sleb128 0
 6567 1b04 00       		.byte	0
 6568 1b05 2B       		.uleb128 0x2b
 6569 1b06 2A000000 		.4byte	.LVL390
 6570 1b0a 151B0000 		.4byte	0x1b15
 6571 1b0e 1E       		.uleb128 0x1e
ARM GAS  C:\Users\arh\AppData\Local\Temp\cc6sEv7h.s 			page 143


 6572 1b0f 01       		.uleb128 0x1
 6573 1b10 50       		.byte	0x50
 6574 1b11 02       		.uleb128 0x2
 6575 1b12 77       		.byte	0x77
 6576 1b13 00       		.sleb128 0
 6577 1b14 00       		.byte	0
 6578 1b15 1D       		.uleb128 0x1d
 6579 1b16 42000000 		.4byte	.LVL394
 6580 1b1a D8140000 		.4byte	0x14d8
 6581 1b1e 311B0000 		.4byte	0x1b31
 6582 1b22 1E       		.uleb128 0x1e
 6583 1b23 01       		.uleb128 0x1
 6584 1b24 50       		.byte	0x50
 6585 1b25 02       		.uleb128 0x2
 6586 1b26 77       		.byte	0x77
 6587 1b27 00       		.sleb128 0
 6588 1b28 1E       		.uleb128 0x1e
 6589 1b29 01       		.uleb128 0x1
 6590 1b2a 51       		.byte	0x51
 6591 1b2b 04       		.uleb128 0x4
 6592 1b2c 91       		.byte	0x91
 6593 1b2d 54       		.sleb128 -44
 6594 1b2e 94       		.byte	0x94
 6595 1b2f 02       		.byte	0x2
 6596 1b30 00       		.byte	0
 6597 1b31 1D       		.uleb128 0x1d
 6598 1b32 56000000 		.4byte	.LVL396
 6599 1b36 501F0000 		.4byte	0x1f50
 6600 1b3a 5C1B0000 		.4byte	0x1b5c
 6601 1b3e 1E       		.uleb128 0x1e
 6602 1b3f 01       		.uleb128 0x1
 6603 1b40 50       		.byte	0x50
 6604 1b41 02       		.uleb128 0x2
 6605 1b42 77       		.byte	0x77
 6606 1b43 00       		.sleb128 0
 6607 1b44 1E       		.uleb128 0x1e
 6608 1b45 01       		.uleb128 0x1
 6609 1b46 51       		.byte	0x51
 6610 1b47 03       		.uleb128 0x3
 6611 1b48 91       		.byte	0x91
 6612 1b49 00       		.sleb128 0
 6613 1b4a 06       		.byte	0x6
 6614 1b4b 1E       		.uleb128 0x1e
 6615 1b4c 01       		.uleb128 0x1
 6616 1b4d 52       		.byte	0x52
 6617 1b4e 04       		.uleb128 0x4
 6618 1b4f 91       		.byte	0x91
 6619 1b50 54       		.sleb128 -44
 6620 1b51 94       		.byte	0x94
 6621 1b52 02       		.byte	0x2
 6622 1b53 1E       		.uleb128 0x1e
 6623 1b54 01       		.uleb128 0x1
 6624 1b55 53       		.byte	0x53
 6625 1b56 04       		.uleb128 0x4
 6626 1b57 91       		.byte	0x91
 6627 1b58 58       		.sleb128 -40
 6628 1b59 94       		.byte	0x94
ARM GAS  C:\Users\arh\AppData\Local\Temp\cc6sEv7h.s 			page 144


 6629 1b5a 02       		.byte	0x2
 6630 1b5b 00       		.byte	0
 6631 1b5c 1D       		.uleb128 0x1d
 6632 1b5d 72000000 		.4byte	.LVL402
 6633 1b61 501F0000 		.4byte	0x1f50
 6634 1b65 871B0000 		.4byte	0x1b87
 6635 1b69 1E       		.uleb128 0x1e
 6636 1b6a 01       		.uleb128 0x1
 6637 1b6b 50       		.byte	0x50
 6638 1b6c 02       		.uleb128 0x2
 6639 1b6d 77       		.byte	0x77
 6640 1b6e 00       		.sleb128 0
 6641 1b6f 1E       		.uleb128 0x1e
 6642 1b70 01       		.uleb128 0x1
 6643 1b71 51       		.byte	0x51
 6644 1b72 03       		.uleb128 0x3
 6645 1b73 91       		.byte	0x91
 6646 1b74 00       		.sleb128 0
 6647 1b75 06       		.byte	0x6
 6648 1b76 1E       		.uleb128 0x1e
 6649 1b77 01       		.uleb128 0x1
 6650 1b78 52       		.byte	0x52
 6651 1b79 04       		.uleb128 0x4
 6652 1b7a 91       		.byte	0x91
 6653 1b7b 58       		.sleb128 -40
 6654 1b7c 94       		.byte	0x94
 6655 1b7d 02       		.byte	0x2
 6656 1b7e 1E       		.uleb128 0x1e
 6657 1b7f 01       		.uleb128 0x1
 6658 1b80 53       		.byte	0x53
 6659 1b81 04       		.uleb128 0x4
 6660 1b82 91       		.byte	0x91
 6661 1b83 54       		.sleb128 -44
 6662 1b84 94       		.byte	0x94
 6663 1b85 02       		.byte	0x2
 6664 1b86 00       		.byte	0
 6665 1b87 1F       		.uleb128 0x1f
 6666 1b88 84000000 		.4byte	.LVL406
 6667 1b8c 50160000 		.4byte	0x1650
 6668 1b90 1E       		.uleb128 0x1e
 6669 1b91 01       		.uleb128 0x1
 6670 1b92 50       		.byte	0x50
 6671 1b93 02       		.uleb128 0x2
 6672 1b94 77       		.byte	0x77
 6673 1b95 00       		.sleb128 0
 6674 1b96 1E       		.uleb128 0x1e
 6675 1b97 01       		.uleb128 0x1
 6676 1b98 51       		.byte	0x51
 6677 1b99 02       		.uleb128 0x2
 6678 1b9a 78       		.byte	0x78
 6679 1b9b 00       		.sleb128 0
 6680 1b9c 1E       		.uleb128 0x1e
 6681 1b9d 01       		.uleb128 0x1
 6682 1b9e 52       		.byte	0x52
 6683 1b9f 04       		.uleb128 0x4
 6684 1ba0 91       		.byte	0x91
 6685 1ba1 5C       		.sleb128 -36
ARM GAS  C:\Users\arh\AppData\Local\Temp\cc6sEv7h.s 			page 145


 6686 1ba2 94       		.byte	0x94
 6687 1ba3 01       		.byte	0x1
 6688 1ba4 1E       		.uleb128 0x1e
 6689 1ba5 01       		.uleb128 0x1
 6690 1ba6 53       		.byte	0x53
 6691 1ba7 04       		.uleb128 0x4
 6692 1ba8 91       		.byte	0x91
 6693 1ba9 54       		.sleb128 -44
 6694 1baa 94       		.byte	0x94
 6695 1bab 02       		.byte	0x2
 6696 1bac 00       		.byte	0
 6697 1bad 00       		.byte	0
 6698 1bae 27       		.uleb128 0x27
 6699 1baf 3A0B0000 		.4byte	.LASF189
 6700 1bb3 01       		.byte	0x1
 6701 1bb4 7803     		.2byte	0x378
 6702 1bb6 00000000 		.4byte	.LFB27
 6703 1bba 5A000000 		.4byte	.LFE27-.LFB27
 6704 1bbe 01       		.uleb128 0x1
 6705 1bbf 9C       		.byte	0x9c
 6706 1bc0 D31B0000 		.4byte	0x1bd3
 6707 1bc4 2A       		.uleb128 0x2a
 6708 1bc5 8F050000 		.4byte	.LASF144
 6709 1bc9 01       		.byte	0x1
 6710 1bca 7803     		.2byte	0x378
 6711 1bcc 2F050000 		.4byte	0x52f
 6712 1bd0 01       		.uleb128 0x1
 6713 1bd1 50       		.byte	0x50
 6714 1bd2 00       		.byte	0
 6715 1bd3 27       		.uleb128 0x27
 6716 1bd4 230C0000 		.4byte	.LASF190
 6717 1bd8 01       		.byte	0x1
 6718 1bd9 9103     		.2byte	0x391
 6719 1bdb 00000000 		.4byte	.LFB28
 6720 1bdf 0E000000 		.4byte	.LFE28-.LFB28
 6721 1be3 01       		.uleb128 0x1
 6722 1be4 9C       		.byte	0x9c
 6723 1be5 0B1C0000 		.4byte	0x1c0b
 6724 1be9 1A       		.uleb128 0x1a
 6725 1bea 8F050000 		.4byte	.LASF144
 6726 1bee 01       		.byte	0x1
 6727 1bef 9103     		.2byte	0x391
 6728 1bf1 2F050000 		.4byte	0x52f
 6729 1bf5 37170000 		.4byte	.LLST123
 6730 1bf9 1F       		.uleb128 0x1f
 6731 1bfa 0C000000 		.4byte	.LVL421
 6732 1bfe AE1B0000 		.4byte	0x1bae
 6733 1c02 1E       		.uleb128 0x1e
 6734 1c03 01       		.uleb128 0x1
 6735 1c04 50       		.byte	0x50
 6736 1c05 03       		.uleb128 0x3
 6737 1c06 F3       		.byte	0xf3
 6738 1c07 01       		.uleb128 0x1
 6739 1c08 50       		.byte	0x50
 6740 1c09 00       		.byte	0
 6741 1c0a 00       		.byte	0
 6742 1c0b 27       		.uleb128 0x27
ARM GAS  C:\Users\arh\AppData\Local\Temp\cc6sEv7h.s 			page 146


 6743 1c0c B60A0000 		.4byte	.LASF191
 6744 1c10 01       		.byte	0x1
 6745 1c11 9703     		.2byte	0x397
 6746 1c13 00000000 		.4byte	.LFB29
 6747 1c17 0E000000 		.4byte	.LFE29-.LFB29
 6748 1c1b 01       		.uleb128 0x1
 6749 1c1c 9C       		.byte	0x9c
 6750 1c1d 431C0000 		.4byte	0x1c43
 6751 1c21 1A       		.uleb128 0x1a
 6752 1c22 8F050000 		.4byte	.LASF144
 6753 1c26 01       		.byte	0x1
 6754 1c27 9703     		.2byte	0x397
 6755 1c29 2F050000 		.4byte	0x52f
 6756 1c2d 58170000 		.4byte	.LLST124
 6757 1c31 1F       		.uleb128 0x1f
 6758 1c32 0C000000 		.4byte	.LVL423
 6759 1c36 AE1B0000 		.4byte	0x1bae
 6760 1c3a 1E       		.uleb128 0x1e
 6761 1c3b 01       		.uleb128 0x1
 6762 1c3c 50       		.byte	0x50
 6763 1c3d 03       		.uleb128 0x3
 6764 1c3e F3       		.byte	0xf3
 6765 1c3f 01       		.uleb128 0x1
 6766 1c40 50       		.byte	0x50
 6767 1c41 00       		.byte	0
 6768 1c42 00       		.byte	0
 6769 1c43 27       		.uleb128 0x27
 6770 1c44 03050000 		.4byte	.LASF192
 6771 1c48 01       		.byte	0x1
 6772 1c49 9D03     		.2byte	0x39d
 6773 1c4b 00000000 		.4byte	.LFB30
 6774 1c4f 0E000000 		.4byte	.LFE30-.LFB30
 6775 1c53 01       		.uleb128 0x1
 6776 1c54 9C       		.byte	0x9c
 6777 1c55 7B1C0000 		.4byte	0x1c7b
 6778 1c59 1A       		.uleb128 0x1a
 6779 1c5a 8F050000 		.4byte	.LASF144
 6780 1c5e 01       		.byte	0x1
 6781 1c5f 9D03     		.2byte	0x39d
 6782 1c61 2F050000 		.4byte	0x52f
 6783 1c65 79170000 		.4byte	.LLST125
 6784 1c69 1F       		.uleb128 0x1f
 6785 1c6a 0C000000 		.4byte	.LVL425
 6786 1c6e AE1B0000 		.4byte	0x1bae
 6787 1c72 1E       		.uleb128 0x1e
 6788 1c73 01       		.uleb128 0x1
 6789 1c74 50       		.byte	0x50
 6790 1c75 03       		.uleb128 0x3
 6791 1c76 F3       		.byte	0xf3
 6792 1c77 01       		.uleb128 0x1
 6793 1c78 50       		.byte	0x50
 6794 1c79 00       		.byte	0
 6795 1c7a 00       		.byte	0
 6796 1c7b 27       		.uleb128 0x27
 6797 1c7c EC050000 		.4byte	.LASF193
 6798 1c80 01       		.byte	0x1
 6799 1c81 AB03     		.2byte	0x3ab
ARM GAS  C:\Users\arh\AppData\Local\Temp\cc6sEv7h.s 			page 147


 6800 1c83 00000000 		.4byte	.LFB32
 6801 1c87 0C000000 		.4byte	.LFE32-.LFB32
 6802 1c8b 01       		.uleb128 0x1
 6803 1c8c 9C       		.byte	0x9c
 6804 1c8d A01C0000 		.4byte	0x1ca0
 6805 1c91 2A       		.uleb128 0x2a
 6806 1c92 8F050000 		.4byte	.LASF144
 6807 1c96 01       		.byte	0x1
 6808 1c97 AB03     		.2byte	0x3ab
 6809 1c99 2F050000 		.4byte	0x52f
 6810 1c9d 01       		.uleb128 0x1
 6811 1c9e 50       		.byte	0x50
 6812 1c9f 00       		.byte	0
 6813 1ca0 27       		.uleb128 0x27
 6814 1ca1 A90C0000 		.4byte	.LASF194
 6815 1ca5 01       		.byte	0x1
 6816 1ca6 B603     		.2byte	0x3b6
 6817 1ca8 00000000 		.4byte	.LFB34
 6818 1cac 0C000000 		.4byte	.LFE34-.LFB34
 6819 1cb0 01       		.uleb128 0x1
 6820 1cb1 9C       		.byte	0x9c
 6821 1cb2 C51C0000 		.4byte	0x1cc5
 6822 1cb6 2A       		.uleb128 0x2a
 6823 1cb7 8F050000 		.4byte	.LASF144
 6824 1cbb 01       		.byte	0x1
 6825 1cbc B603     		.2byte	0x3b6
 6826 1cbe 2F050000 		.4byte	0x52f
 6827 1cc2 01       		.uleb128 0x1
 6828 1cc3 50       		.byte	0x50
 6829 1cc4 00       		.byte	0
 6830 1cc5 27       		.uleb128 0x27
 6831 1cc6 3B080000 		.4byte	.LASF195
 6832 1cca 01       		.byte	0x1
 6833 1ccb C403     		.2byte	0x3c4
 6834 1ccd 00000000 		.4byte	.LFB36
 6835 1cd1 0C000000 		.4byte	.LFE36-.LFB36
 6836 1cd5 01       		.uleb128 0x1
 6837 1cd6 9C       		.byte	0x9c
 6838 1cd7 EA1C0000 		.4byte	0x1cea
 6839 1cdb 2A       		.uleb128 0x2a
 6840 1cdc 8F050000 		.4byte	.LASF144
 6841 1ce0 01       		.byte	0x1
 6842 1ce1 C403     		.2byte	0x3c4
 6843 1ce3 2F050000 		.4byte	0x52f
 6844 1ce7 01       		.uleb128 0x1
 6845 1ce8 50       		.byte	0x50
 6846 1ce9 00       		.byte	0
 6847 1cea 27       		.uleb128 0x27
 6848 1ceb 4C090000 		.4byte	.LASF196
 6849 1cef 01       		.byte	0x1
 6850 1cf0 D303     		.2byte	0x3d3
 6851 1cf2 00000000 		.4byte	.LFB38
 6852 1cf6 0C000000 		.4byte	.LFE38-.LFB38
 6853 1cfa 01       		.uleb128 0x1
 6854 1cfb 9C       		.byte	0x9c
 6855 1cfc 0F1D0000 		.4byte	0x1d0f
 6856 1d00 2A       		.uleb128 0x2a
ARM GAS  C:\Users\arh\AppData\Local\Temp\cc6sEv7h.s 			page 148


 6857 1d01 8F050000 		.4byte	.LASF144
 6858 1d05 01       		.byte	0x1
 6859 1d06 D303     		.2byte	0x3d3
 6860 1d08 2F050000 		.4byte	0x52f
 6861 1d0c 01       		.uleb128 0x1
 6862 1d0d 50       		.byte	0x50
 6863 1d0e 00       		.byte	0
 6864 1d0f 27       		.uleb128 0x27
 6865 1d10 73080000 		.4byte	.LASF197
 6866 1d14 01       		.byte	0x1
 6867 1d15 DA03     		.2byte	0x3da
 6868 1d17 00000000 		.4byte	.LFB39
 6869 1d1b 1A000000 		.4byte	.LFE39-.LFB39
 6870 1d1f 01       		.uleb128 0x1
 6871 1d20 9C       		.byte	0x9c
 6872 1d21 721D0000 		.4byte	0x1d72
 6873 1d25 1A       		.uleb128 0x1a
 6874 1d26 8F050000 		.4byte	.LASF144
 6875 1d2a 01       		.byte	0x1
 6876 1d2b DA03     		.2byte	0x3da
 6877 1d2d 2F050000 		.4byte	0x52f
 6878 1d31 9A170000 		.4byte	.LLST126
 6879 1d35 1A       		.uleb128 0x1a
 6880 1d36 530C0000 		.4byte	.LASF26
 6881 1d3a 01       		.byte	0x1
 6882 1d3b DA03     		.2byte	0x3da
 6883 1d3d 53030000 		.4byte	0x353
 6884 1d41 C6170000 		.4byte	.LLST127
 6885 1d45 1D       		.uleb128 0x1d
 6886 1d46 12000000 		.4byte	.LVL432
 6887 1d4a A7090000 		.4byte	0x9a7
 6888 1d4e 611D0000 		.4byte	0x1d61
 6889 1d52 1E       		.uleb128 0x1e
 6890 1d53 01       		.uleb128 0x1
 6891 1d54 50       		.byte	0x50
 6892 1d55 03       		.uleb128 0x3
 6893 1d56 74       		.byte	0x74
 6894 1d57 E000     		.sleb128 96
 6895 1d59 1E       		.uleb128 0x1e
 6896 1d5a 01       		.uleb128 0x1
 6897 1d5b 51       		.byte	0x51
 6898 1d5c 03       		.uleb128 0x3
 6899 1d5d F3       		.byte	0xf3
 6900 1d5e 01       		.uleb128 0x1
 6901 1d5f 51       		.byte	0x51
 6902 1d60 00       		.byte	0
 6903 1d61 1F       		.uleb128 0x1f
 6904 1d62 18000000 		.4byte	.LVL433
 6905 1d66 AE1B0000 		.4byte	0x1bae
 6906 1d6a 1E       		.uleb128 0x1e
 6907 1d6b 01       		.uleb128 0x1
 6908 1d6c 50       		.byte	0x50
 6909 1d6d 02       		.uleb128 0x2
 6910 1d6e 74       		.byte	0x74
 6911 1d6f 00       		.sleb128 0
 6912 1d70 00       		.byte	0
 6913 1d71 00       		.byte	0
ARM GAS  C:\Users\arh\AppData\Local\Temp\cc6sEv7h.s 			page 149


 6914 1d72 19       		.uleb128 0x19
 6915 1d73 6A050000 		.4byte	.LASF198
 6916 1d77 01       		.byte	0x1
 6917 1d78 1F04     		.2byte	0x41f
 6918 1d7a 97000000 		.4byte	0x97
 6919 1d7e 00000000 		.4byte	.LFB42
 6920 1d82 22000000 		.4byte	.LFE42-.LFB42
 6921 1d86 01       		.uleb128 0x1
 6922 1d87 9C       		.byte	0x9c
 6923 1d88 F81D0000 		.4byte	0x1df8
 6924 1d8c 1A       		.uleb128 0x1a
 6925 1d8d 8F050000 		.4byte	.LASF144
 6926 1d91 01       		.byte	0x1
 6927 1d92 1F04     		.2byte	0x41f
 6928 1d94 2F050000 		.4byte	0x52f
 6929 1d98 E7170000 		.4byte	.LLST128
 6930 1d9c 17       		.uleb128 0x17
 6931 1d9d 7300     		.ascii	"s\000"
 6932 1d9f 01       		.byte	0x1
 6933 1da0 1F04     		.2byte	0x41f
 6934 1da2 7A140000 		.4byte	0x147a
 6935 1da6 08180000 		.4byte	.LLST129
 6936 1daa 28       		.uleb128 0x28
 6937 1dab 7700     		.ascii	"w\000"
 6938 1dad 01       		.byte	0x1
 6939 1dae 2104     		.2byte	0x421
 6940 1db0 A2000000 		.4byte	0xa2
 6941 1db4 02       		.uleb128 0x2
 6942 1db5 91       		.byte	0x91
 6943 1db6 77       		.sleb128 -9
 6944 1db7 28       		.uleb128 0x28
 6945 1db8 6F7800   		.ascii	"ox\000"
 6946 1dbb 01       		.byte	0x1
 6947 1dbc 2204     		.2byte	0x422
 6948 1dbe 97000000 		.4byte	0x97
 6949 1dc2 02       		.uleb128 0x2
 6950 1dc3 91       		.byte	0x91
 6951 1dc4 76       		.sleb128 -10
 6952 1dc5 28       		.uleb128 0x28
 6953 1dc6 647800   		.ascii	"dx\000"
 6954 1dc9 01       		.byte	0x1
 6955 1dca 2204     		.2byte	0x422
 6956 1dcc 97000000 		.4byte	0x97
 6957 1dd0 02       		.uleb128 0x2
 6958 1dd1 91       		.byte	0x91
 6959 1dd2 75       		.sleb128 -11
 6960 1dd3 1F       		.uleb128 0x1f
 6961 1dd4 1A000000 		.4byte	.LVL437
 6962 1dd8 B5120000 		.4byte	0x12b5
 6963 1ddc 1E       		.uleb128 0x1e
 6964 1ddd 01       		.uleb128 0x1
 6965 1dde 50       		.byte	0x50
 6966 1ddf 03       		.uleb128 0x3
 6967 1de0 F3       		.byte	0xf3
 6968 1de1 01       		.uleb128 0x1
 6969 1de2 50       		.byte	0x50
 6970 1de3 1E       		.uleb128 0x1e
ARM GAS  C:\Users\arh\AppData\Local\Temp\cc6sEv7h.s 			page 150


 6971 1de4 01       		.uleb128 0x1
 6972 1de5 52       		.byte	0x52
 6973 1de6 02       		.uleb128 0x2
 6974 1de7 91       		.byte	0x91
 6975 1de8 77       		.sleb128 -9
 6976 1de9 1E       		.uleb128 0x1e
 6977 1dea 01       		.uleb128 0x1
 6978 1deb 53       		.byte	0x53
 6979 1dec 02       		.uleb128 0x2
 6980 1ded 74       		.byte	0x74
 6981 1dee 00       		.sleb128 0
 6982 1def 1E       		.uleb128 0x1e
 6983 1df0 02       		.uleb128 0x2
 6984 1df1 7D       		.byte	0x7d
 6985 1df2 00       		.sleb128 0
 6986 1df3 02       		.uleb128 0x2
 6987 1df4 91       		.byte	0x91
 6988 1df5 75       		.sleb128 -11
 6989 1df6 00       		.byte	0
 6990 1df7 00       		.byte	0
 6991 1df8 19       		.uleb128 0x19
 6992 1df9 63020000 		.4byte	.LASF199
 6993 1dfd 01       		.byte	0x1
 6994 1dfe 7204     		.2byte	0x472
 6995 1e00 5E030000 		.4byte	0x35e
 6996 1e04 00000000 		.4byte	.LFB44
 6997 1e08 10000000 		.4byte	.LFE44-.LFB44
 6998 1e0c 01       		.uleb128 0x1
 6999 1e0d 9C       		.byte	0x9c
 7000 1e0e 491E0000 		.4byte	0x1e49
 7001 1e12 1A       		.uleb128 0x1a
 7002 1e13 8F050000 		.4byte	.LASF144
 7003 1e17 01       		.byte	0x1
 7004 1e18 7204     		.2byte	0x472
 7005 1e1a 2F050000 		.4byte	0x52f
 7006 1e1e 29180000 		.4byte	.LLST130
 7007 1e22 17       		.uleb128 0x17
 7008 1e23 7300     		.ascii	"s\000"
 7009 1e25 01       		.byte	0x1
 7010 1e26 7204     		.2byte	0x472
 7011 1e28 7A140000 		.4byte	0x147a
 7012 1e2c 4A180000 		.4byte	.LLST131
 7013 1e30 1F       		.uleb128 0x1f
 7014 1e31 0A000000 		.4byte	.LVL439
 7015 1e35 83150000 		.4byte	0x1583
 7016 1e39 1E       		.uleb128 0x1e
 7017 1e3a 01       		.uleb128 0x1
 7018 1e3b 50       		.byte	0x50
 7019 1e3c 03       		.uleb128 0x3
 7020 1e3d F3       		.byte	0xf3
 7021 1e3e 01       		.uleb128 0x1
 7022 1e3f 50       		.byte	0x50
 7023 1e40 1E       		.uleb128 0x1e
 7024 1e41 01       		.uleb128 0x1
 7025 1e42 51       		.byte	0x51
 7026 1e43 03       		.uleb128 0x3
 7027 1e44 F3       		.byte	0xf3
ARM GAS  C:\Users\arh\AppData\Local\Temp\cc6sEv7h.s 			page 151


 7028 1e45 01       		.uleb128 0x1
 7029 1e46 51       		.byte	0x51
 7030 1e47 00       		.byte	0
 7031 1e48 00       		.byte	0
 7032 1e49 19       		.uleb128 0x19
 7033 1e4a 3D0C0000 		.4byte	.LASF200
 7034 1e4e 01       		.byte	0x1
 7035 1e4f 7804     		.2byte	0x478
 7036 1e51 5E030000 		.4byte	0x35e
 7037 1e55 00000000 		.4byte	.LFB45
 7038 1e59 10000000 		.4byte	.LFE45-.LFB45
 7039 1e5d 01       		.uleb128 0x1
 7040 1e5e 9C       		.byte	0x9c
 7041 1e5f 9A1E0000 		.4byte	0x1e9a
 7042 1e63 1A       		.uleb128 0x1a
 7043 1e64 8F050000 		.4byte	.LASF144
 7044 1e68 01       		.byte	0x1
 7045 1e69 7804     		.2byte	0x478
 7046 1e6b 2F050000 		.4byte	0x52f
 7047 1e6f 6B180000 		.4byte	.LLST132
 7048 1e73 17       		.uleb128 0x17
 7049 1e74 7300     		.ascii	"s\000"
 7050 1e76 01       		.byte	0x1
 7051 1e77 7804     		.2byte	0x478
 7052 1e79 7A140000 		.4byte	0x147a
 7053 1e7d 8C180000 		.4byte	.LLST133
 7054 1e81 1F       		.uleb128 0x1f
 7055 1e82 0A000000 		.4byte	.LVL441
 7056 1e86 8D130000 		.4byte	0x138d
 7057 1e8a 1E       		.uleb128 0x1e
 7058 1e8b 01       		.uleb128 0x1
 7059 1e8c 50       		.byte	0x50
 7060 1e8d 03       		.uleb128 0x3
 7061 1e8e F3       		.byte	0xf3
 7062 1e8f 01       		.uleb128 0x1
 7063 1e90 50       		.byte	0x50
 7064 1e91 1E       		.uleb128 0x1e
 7065 1e92 01       		.uleb128 0x1
 7066 1e93 51       		.byte	0x51
 7067 1e94 03       		.uleb128 0x3
 7068 1e95 F3       		.byte	0xf3
 7069 1e96 01       		.uleb128 0x1
 7070 1e97 51       		.byte	0x51
 7071 1e98 00       		.byte	0
 7072 1e99 00       		.byte	0
 7073 1e9a 19       		.uleb128 0x19
 7074 1e9b C5020000 		.4byte	.LASF201
 7075 1e9f 01       		.byte	0x1
 7076 1ea0 8804     		.2byte	0x488
 7077 1ea2 5E030000 		.4byte	0x35e
 7078 1ea6 00000000 		.4byte	.LFB46
 7079 1eaa 10000000 		.4byte	.LFE46-.LFB46
 7080 1eae 01       		.uleb128 0x1
 7081 1eaf 9C       		.byte	0x9c
 7082 1eb0 ED1E0000 		.4byte	0x1eed
 7083 1eb4 1A       		.uleb128 0x1a
 7084 1eb5 8F050000 		.4byte	.LASF144
ARM GAS  C:\Users\arh\AppData\Local\Temp\cc6sEv7h.s 			page 152


 7085 1eb9 01       		.byte	0x1
 7086 1eba 8804     		.2byte	0x488
 7087 1ebc 2F050000 		.4byte	0x52f
 7088 1ec0 AD180000 		.4byte	.LLST134
 7089 1ec4 17       		.uleb128 0x17
 7090 1ec5 73747200 		.ascii	"str\000"
 7091 1ec9 01       		.byte	0x1
 7092 1eca 8804     		.2byte	0x488
 7093 1ecc 7A140000 		.4byte	0x147a
 7094 1ed0 CE180000 		.4byte	.LLST135
 7095 1ed4 1F       		.uleb128 0x1f
 7096 1ed5 0A000000 		.4byte	.LVL443
 7097 1ed9 83150000 		.4byte	0x1583
 7098 1edd 1E       		.uleb128 0x1e
 7099 1ede 01       		.uleb128 0x1
 7100 1edf 50       		.byte	0x50
 7101 1ee0 03       		.uleb128 0x3
 7102 1ee1 F3       		.byte	0xf3
 7103 1ee2 01       		.uleb128 0x1
 7104 1ee3 50       		.byte	0x50
 7105 1ee4 1E       		.uleb128 0x1e
 7106 1ee5 01       		.uleb128 0x1
 7107 1ee6 51       		.byte	0x51
 7108 1ee7 03       		.uleb128 0x3
 7109 1ee8 F3       		.byte	0xf3
 7110 1ee9 01       		.uleb128 0x1
 7111 1eea 51       		.byte	0x51
 7112 1eeb 00       		.byte	0
 7113 1eec 00       		.byte	0
 7114 1eed 27       		.uleb128 0x27
 7115 1eee 5A0D0000 		.4byte	.LASF202
 7116 1ef2 01       		.byte	0x1
 7117 1ef3 9004     		.2byte	0x490
 7118 1ef5 00000000 		.4byte	.LFB47
 7119 1ef9 06000000 		.4byte	.LFE47-.LFB47
 7120 1efd 01       		.uleb128 0x1
 7121 1efe 9C       		.byte	0x9c
 7122 1eff 201F0000 		.4byte	0x1f20
 7123 1f03 2A       		.uleb128 0x2a
 7124 1f04 8F050000 		.4byte	.LASF144
 7125 1f08 01       		.byte	0x1
 7126 1f09 9004     		.2byte	0x490
 7127 1f0b 2F050000 		.4byte	0x52f
 7128 1f0f 01       		.uleb128 0x1
 7129 1f10 50       		.byte	0x50
 7130 1f11 18       		.uleb128 0x18
 7131 1f12 64697200 		.ascii	"dir\000"
 7132 1f16 01       		.byte	0x1
 7133 1f17 9004     		.2byte	0x490
 7134 1f19 A2000000 		.4byte	0xa2
 7135 1f1d 01       		.uleb128 0x1
 7136 1f1e 51       		.byte	0x51
 7137 1f1f 00       		.byte	0
 7138 1f20 2C       		.uleb128 0x2c
 7139 1f21 F3040000 		.4byte	.LASF203
 7140 1f25 F3040000 		.4byte	.LASF203
 7141 1f29 06       		.byte	0x6
ARM GAS  C:\Users\arh\AppData\Local\Temp\cc6sEv7h.s 			page 153


 7142 1f2a 0C03     		.2byte	0x30c
 7143 1f2c 2C       		.uleb128 0x2c
 7144 1f2d 30070000 		.4byte	.LASF204
 7145 1f31 30070000 		.4byte	.LASF204
 7146 1f35 06       		.byte	0x6
 7147 1f36 2003     		.2byte	0x320
 7148 1f38 2C       		.uleb128 0x2c
 7149 1f39 D3010000 		.4byte	.LASF205
 7150 1f3d D3010000 		.4byte	.LASF205
 7151 1f41 05       		.byte	0x5
 7152 1f42 1003     		.2byte	0x310
 7153 1f44 2C       		.uleb128 0x2c
 7154 1f45 FE060000 		.4byte	.LASF206
 7155 1f49 FE060000 		.4byte	.LASF206
 7156 1f4d 06       		.byte	0x6
 7157 1f4e 4A03     		.2byte	0x34a
 7158 1f50 2C       		.uleb128 0x2c
 7159 1f51 740A0000 		.4byte	.LASF207
 7160 1f55 740A0000 		.4byte	.LASF207
 7161 1f59 06       		.byte	0x6
 7162 1f5a 4B03     		.2byte	0x34b
 7163 1f5c 00       		.byte	0
 7164              		.section	.debug_abbrev,"",%progbits
 7165              	.Ldebug_abbrev0:
 7166 0000 01       		.uleb128 0x1
 7167 0001 11       		.uleb128 0x11
 7168 0002 01       		.byte	0x1
 7169 0003 25       		.uleb128 0x25
 7170 0004 0E       		.uleb128 0xe
 7171 0005 13       		.uleb128 0x13
 7172 0006 0B       		.uleb128 0xb
 7173 0007 03       		.uleb128 0x3
 7174 0008 0E       		.uleb128 0xe
 7175 0009 1B       		.uleb128 0x1b
 7176 000a 0E       		.uleb128 0xe
 7177 000b 55       		.uleb128 0x55
 7178 000c 17       		.uleb128 0x17
 7179 000d 11       		.uleb128 0x11
 7180 000e 01       		.uleb128 0x1
 7181 000f 10       		.uleb128 0x10
 7182 0010 17       		.uleb128 0x17
 7183 0011 00       		.byte	0
 7184 0012 00       		.byte	0
 7185 0013 02       		.uleb128 0x2
 7186 0014 16       		.uleb128 0x16
 7187 0015 00       		.byte	0
 7188 0016 03       		.uleb128 0x3
 7189 0017 0E       		.uleb128 0xe
 7190 0018 3A       		.uleb128 0x3a
 7191 0019 0B       		.uleb128 0xb
 7192 001a 3B       		.uleb128 0x3b
 7193 001b 0B       		.uleb128 0xb
 7194 001c 49       		.uleb128 0x49
 7195 001d 13       		.uleb128 0x13
 7196 001e 00       		.byte	0
 7197 001f 00       		.byte	0
 7198 0020 03       		.uleb128 0x3
ARM GAS  C:\Users\arh\AppData\Local\Temp\cc6sEv7h.s 			page 154


 7199 0021 24       		.uleb128 0x24
 7200 0022 00       		.byte	0
 7201 0023 0B       		.uleb128 0xb
 7202 0024 0B       		.uleb128 0xb
 7203 0025 3E       		.uleb128 0x3e
 7204 0026 0B       		.uleb128 0xb
 7205 0027 03       		.uleb128 0x3
 7206 0028 0E       		.uleb128 0xe
 7207 0029 00       		.byte	0
 7208 002a 00       		.byte	0
 7209 002b 04       		.uleb128 0x4
 7210 002c 24       		.uleb128 0x24
 7211 002d 00       		.byte	0
 7212 002e 0B       		.uleb128 0xb
 7213 002f 0B       		.uleb128 0xb
 7214 0030 3E       		.uleb128 0x3e
 7215 0031 0B       		.uleb128 0xb
 7216 0032 03       		.uleb128 0x3
 7217 0033 08       		.uleb128 0x8
 7218 0034 00       		.byte	0
 7219 0035 00       		.byte	0
 7220 0036 05       		.uleb128 0x5
 7221 0037 13       		.uleb128 0x13
 7222 0038 01       		.byte	0x1
 7223 0039 03       		.uleb128 0x3
 7224 003a 0E       		.uleb128 0xe
 7225 003b 0B       		.uleb128 0xb
 7226 003c 0B       		.uleb128 0xb
 7227 003d 3A       		.uleb128 0x3a
 7228 003e 0B       		.uleb128 0xb
 7229 003f 3B       		.uleb128 0x3b
 7230 0040 05       		.uleb128 0x5
 7231 0041 01       		.uleb128 0x1
 7232 0042 13       		.uleb128 0x13
 7233 0043 00       		.byte	0
 7234 0044 00       		.byte	0
 7235 0045 06       		.uleb128 0x6
 7236 0046 0D       		.uleb128 0xd
 7237 0047 00       		.byte	0
 7238 0048 03       		.uleb128 0x3
 7239 0049 0E       		.uleb128 0xe
 7240 004a 3A       		.uleb128 0x3a
 7241 004b 0B       		.uleb128 0xb
 7242 004c 3B       		.uleb128 0x3b
 7243 004d 05       		.uleb128 0x5
 7244 004e 49       		.uleb128 0x49
 7245 004f 13       		.uleb128 0x13
 7246 0050 38       		.uleb128 0x38
 7247 0051 0B       		.uleb128 0xb
 7248 0052 00       		.byte	0
 7249 0053 00       		.byte	0
 7250 0054 07       		.uleb128 0x7
 7251 0055 13       		.uleb128 0x13
 7252 0056 01       		.byte	0x1
 7253 0057 03       		.uleb128 0x3
 7254 0058 0E       		.uleb128 0xe
 7255 0059 0B       		.uleb128 0xb
ARM GAS  C:\Users\arh\AppData\Local\Temp\cc6sEv7h.s 			page 155


 7256 005a 0B       		.uleb128 0xb
 7257 005b 3A       		.uleb128 0x3a
 7258 005c 0B       		.uleb128 0xb
 7259 005d 3B       		.uleb128 0x3b
 7260 005e 0B       		.uleb128 0xb
 7261 005f 01       		.uleb128 0x1
 7262 0060 13       		.uleb128 0x13
 7263 0061 00       		.byte	0
 7264 0062 00       		.byte	0
 7265 0063 08       		.uleb128 0x8
 7266 0064 0D       		.uleb128 0xd
 7267 0065 00       		.byte	0
 7268 0066 03       		.uleb128 0x3
 7269 0067 0E       		.uleb128 0xe
 7270 0068 3A       		.uleb128 0x3a
 7271 0069 0B       		.uleb128 0xb
 7272 006a 3B       		.uleb128 0x3b
 7273 006b 0B       		.uleb128 0xb
 7274 006c 49       		.uleb128 0x49
 7275 006d 13       		.uleb128 0x13
 7276 006e 38       		.uleb128 0x38
 7277 006f 0B       		.uleb128 0xb
 7278 0070 00       		.byte	0
 7279 0071 00       		.byte	0
 7280 0072 09       		.uleb128 0x9
 7281 0073 0F       		.uleb128 0xf
 7282 0074 00       		.byte	0
 7283 0075 0B       		.uleb128 0xb
 7284 0076 0B       		.uleb128 0xb
 7285 0077 49       		.uleb128 0x49
 7286 0078 13       		.uleb128 0x13
 7287 0079 00       		.byte	0
 7288 007a 00       		.byte	0
 7289 007b 0A       		.uleb128 0xa
 7290 007c 15       		.uleb128 0x15
 7291 007d 01       		.byte	0x1
 7292 007e 27       		.uleb128 0x27
 7293 007f 19       		.uleb128 0x19
 7294 0080 49       		.uleb128 0x49
 7295 0081 13       		.uleb128 0x13
 7296 0082 01       		.uleb128 0x1
 7297 0083 13       		.uleb128 0x13
 7298 0084 00       		.byte	0
 7299 0085 00       		.byte	0
 7300 0086 0B       		.uleb128 0xb
 7301 0087 05       		.uleb128 0x5
 7302 0088 00       		.byte	0
 7303 0089 49       		.uleb128 0x49
 7304 008a 13       		.uleb128 0x13
 7305 008b 00       		.byte	0
 7306 008c 00       		.byte	0
 7307 008d 0C       		.uleb128 0xc
 7308 008e 0F       		.uleb128 0xf
 7309 008f 00       		.byte	0
 7310 0090 0B       		.uleb128 0xb
 7311 0091 0B       		.uleb128 0xb
 7312 0092 00       		.byte	0
ARM GAS  C:\Users\arh\AppData\Local\Temp\cc6sEv7h.s 			page 156


 7313 0093 00       		.byte	0
 7314 0094 0D       		.uleb128 0xd
 7315 0095 26       		.uleb128 0x26
 7316 0096 00       		.byte	0
 7317 0097 49       		.uleb128 0x49
 7318 0098 13       		.uleb128 0x13
 7319 0099 00       		.byte	0
 7320 009a 00       		.byte	0
 7321 009b 0E       		.uleb128 0xe
 7322 009c 0D       		.uleb128 0xd
 7323 009d 00       		.byte	0
 7324 009e 03       		.uleb128 0x3
 7325 009f 08       		.uleb128 0x8
 7326 00a0 3A       		.uleb128 0x3a
 7327 00a1 0B       		.uleb128 0xb
 7328 00a2 3B       		.uleb128 0x3b
 7329 00a3 05       		.uleb128 0x5
 7330 00a4 49       		.uleb128 0x49
 7331 00a5 13       		.uleb128 0x13
 7332 00a6 38       		.uleb128 0x38
 7333 00a7 0B       		.uleb128 0xb
 7334 00a8 00       		.byte	0
 7335 00a9 00       		.byte	0
 7336 00aa 0F       		.uleb128 0xf
 7337 00ab 15       		.uleb128 0x15
 7338 00ac 01       		.byte	0x1
 7339 00ad 27       		.uleb128 0x27
 7340 00ae 19       		.uleb128 0x19
 7341 00af 01       		.uleb128 0x1
 7342 00b0 13       		.uleb128 0x13
 7343 00b1 00       		.byte	0
 7344 00b2 00       		.byte	0
 7345 00b3 10       		.uleb128 0x10
 7346 00b4 0D       		.uleb128 0xd
 7347 00b5 00       		.byte	0
 7348 00b6 03       		.uleb128 0x3
 7349 00b7 08       		.uleb128 0x8
 7350 00b8 3A       		.uleb128 0x3a
 7351 00b9 0B       		.uleb128 0xb
 7352 00ba 3B       		.uleb128 0x3b
 7353 00bb 0B       		.uleb128 0xb
 7354 00bc 49       		.uleb128 0x49
 7355 00bd 13       		.uleb128 0x13
 7356 00be 38       		.uleb128 0x38
 7357 00bf 0B       		.uleb128 0xb
 7358 00c0 00       		.byte	0
 7359 00c1 00       		.byte	0
 7360 00c2 11       		.uleb128 0x11
 7361 00c3 16       		.uleb128 0x16
 7362 00c4 00       		.byte	0
 7363 00c5 03       		.uleb128 0x3
 7364 00c6 0E       		.uleb128 0xe
 7365 00c7 3A       		.uleb128 0x3a
 7366 00c8 0B       		.uleb128 0xb
 7367 00c9 3B       		.uleb128 0x3b
 7368 00ca 05       		.uleb128 0x5
 7369 00cb 49       		.uleb128 0x49
ARM GAS  C:\Users\arh\AppData\Local\Temp\cc6sEv7h.s 			page 157


 7370 00cc 13       		.uleb128 0x13
 7371 00cd 00       		.byte	0
 7372 00ce 00       		.byte	0
 7373 00cf 12       		.uleb128 0x12
 7374 00d0 2E       		.uleb128 0x2e
 7375 00d1 01       		.byte	0x1
 7376 00d2 03       		.uleb128 0x3
 7377 00d3 0E       		.uleb128 0xe
 7378 00d4 3A       		.uleb128 0x3a
 7379 00d5 0B       		.uleb128 0xb
 7380 00d6 3B       		.uleb128 0x3b
 7381 00d7 0B       		.uleb128 0xb
 7382 00d8 27       		.uleb128 0x27
 7383 00d9 19       		.uleb128 0x19
 7384 00da 49       		.uleb128 0x49
 7385 00db 13       		.uleb128 0x13
 7386 00dc 11       		.uleb128 0x11
 7387 00dd 01       		.uleb128 0x1
 7388 00de 12       		.uleb128 0x12
 7389 00df 06       		.uleb128 0x6
 7390 00e0 40       		.uleb128 0x40
 7391 00e1 18       		.uleb128 0x18
 7392 00e2 9742     		.uleb128 0x2117
 7393 00e4 19       		.uleb128 0x19
 7394 00e5 01       		.uleb128 0x1
 7395 00e6 13       		.uleb128 0x13
 7396 00e7 00       		.byte	0
 7397 00e8 00       		.byte	0
 7398 00e9 13       		.uleb128 0x13
 7399 00ea 05       		.uleb128 0x5
 7400 00eb 00       		.byte	0
 7401 00ec 03       		.uleb128 0x3
 7402 00ed 0E       		.uleb128 0xe
 7403 00ee 3A       		.uleb128 0x3a
 7404 00ef 0B       		.uleb128 0xb
 7405 00f0 3B       		.uleb128 0x3b
 7406 00f1 0B       		.uleb128 0xb
 7407 00f2 49       		.uleb128 0x49
 7408 00f3 13       		.uleb128 0x13
 7409 00f4 02       		.uleb128 0x2
 7410 00f5 17       		.uleb128 0x17
 7411 00f6 00       		.byte	0
 7412 00f7 00       		.byte	0
 7413 00f8 14       		.uleb128 0x14
 7414 00f9 05       		.uleb128 0x5
 7415 00fa 00       		.byte	0
 7416 00fb 03       		.uleb128 0x3
 7417 00fc 0E       		.uleb128 0xe
 7418 00fd 3A       		.uleb128 0x3a
 7419 00fe 0B       		.uleb128 0xb
 7420 00ff 3B       		.uleb128 0x3b
 7421 0100 0B       		.uleb128 0xb
 7422 0101 49       		.uleb128 0x49
 7423 0102 13       		.uleb128 0x13
 7424 0103 02       		.uleb128 0x2
 7425 0104 18       		.uleb128 0x18
 7426 0105 00       		.byte	0
ARM GAS  C:\Users\arh\AppData\Local\Temp\cc6sEv7h.s 			page 158


 7427 0106 00       		.byte	0
 7428 0107 15       		.uleb128 0x15
 7429 0108 34       		.uleb128 0x34
 7430 0109 00       		.byte	0
 7431 010a 03       		.uleb128 0x3
 7432 010b 08       		.uleb128 0x8
 7433 010c 3A       		.uleb128 0x3a
 7434 010d 0B       		.uleb128 0xb
 7435 010e 3B       		.uleb128 0x3b
 7436 010f 0B       		.uleb128 0xb
 7437 0110 49       		.uleb128 0x49
 7438 0111 13       		.uleb128 0x13
 7439 0112 02       		.uleb128 0x2
 7440 0113 17       		.uleb128 0x17
 7441 0114 00       		.byte	0
 7442 0115 00       		.byte	0
 7443 0116 16       		.uleb128 0x16
 7444 0117 2E       		.uleb128 0x2e
 7445 0118 01       		.byte	0x1
 7446 0119 03       		.uleb128 0x3
 7447 011a 0E       		.uleb128 0xe
 7448 011b 3A       		.uleb128 0x3a
 7449 011c 0B       		.uleb128 0xb
 7450 011d 3B       		.uleb128 0x3b
 7451 011e 05       		.uleb128 0x5
 7452 011f 27       		.uleb128 0x27
 7453 0120 19       		.uleb128 0x19
 7454 0121 49       		.uleb128 0x49
 7455 0122 13       		.uleb128 0x13
 7456 0123 11       		.uleb128 0x11
 7457 0124 01       		.uleb128 0x1
 7458 0125 12       		.uleb128 0x12
 7459 0126 06       		.uleb128 0x6
 7460 0127 40       		.uleb128 0x40
 7461 0128 18       		.uleb128 0x18
 7462 0129 9742     		.uleb128 0x2117
 7463 012b 19       		.uleb128 0x19
 7464 012c 01       		.uleb128 0x1
 7465 012d 13       		.uleb128 0x13
 7466 012e 00       		.byte	0
 7467 012f 00       		.byte	0
 7468 0130 17       		.uleb128 0x17
 7469 0131 05       		.uleb128 0x5
 7470 0132 00       		.byte	0
 7471 0133 03       		.uleb128 0x3
 7472 0134 08       		.uleb128 0x8
 7473 0135 3A       		.uleb128 0x3a
 7474 0136 0B       		.uleb128 0xb
 7475 0137 3B       		.uleb128 0x3b
 7476 0138 05       		.uleb128 0x5
 7477 0139 49       		.uleb128 0x49
 7478 013a 13       		.uleb128 0x13
 7479 013b 02       		.uleb128 0x2
 7480 013c 17       		.uleb128 0x17
 7481 013d 00       		.byte	0
 7482 013e 00       		.byte	0
 7483 013f 18       		.uleb128 0x18
ARM GAS  C:\Users\arh\AppData\Local\Temp\cc6sEv7h.s 			page 159


 7484 0140 05       		.uleb128 0x5
 7485 0141 00       		.byte	0
 7486 0142 03       		.uleb128 0x3
 7487 0143 08       		.uleb128 0x8
 7488 0144 3A       		.uleb128 0x3a
 7489 0145 0B       		.uleb128 0xb
 7490 0146 3B       		.uleb128 0x3b
 7491 0147 05       		.uleb128 0x5
 7492 0148 49       		.uleb128 0x49
 7493 0149 13       		.uleb128 0x13
 7494 014a 02       		.uleb128 0x2
 7495 014b 18       		.uleb128 0x18
 7496 014c 00       		.byte	0
 7497 014d 00       		.byte	0
 7498 014e 19       		.uleb128 0x19
 7499 014f 2E       		.uleb128 0x2e
 7500 0150 01       		.byte	0x1
 7501 0151 3F       		.uleb128 0x3f
 7502 0152 19       		.uleb128 0x19
 7503 0153 03       		.uleb128 0x3
 7504 0154 0E       		.uleb128 0xe
 7505 0155 3A       		.uleb128 0x3a
 7506 0156 0B       		.uleb128 0xb
 7507 0157 3B       		.uleb128 0x3b
 7508 0158 05       		.uleb128 0x5
 7509 0159 27       		.uleb128 0x27
 7510 015a 19       		.uleb128 0x19
 7511 015b 49       		.uleb128 0x49
 7512 015c 13       		.uleb128 0x13
 7513 015d 11       		.uleb128 0x11
 7514 015e 01       		.uleb128 0x1
 7515 015f 12       		.uleb128 0x12
 7516 0160 06       		.uleb128 0x6
 7517 0161 40       		.uleb128 0x40
 7518 0162 18       		.uleb128 0x18
 7519 0163 9742     		.uleb128 0x2117
 7520 0165 19       		.uleb128 0x19
 7521 0166 01       		.uleb128 0x1
 7522 0167 13       		.uleb128 0x13
 7523 0168 00       		.byte	0
 7524 0169 00       		.byte	0
 7525 016a 1A       		.uleb128 0x1a
 7526 016b 05       		.uleb128 0x5
 7527 016c 00       		.byte	0
 7528 016d 03       		.uleb128 0x3
 7529 016e 0E       		.uleb128 0xe
 7530 016f 3A       		.uleb128 0x3a
 7531 0170 0B       		.uleb128 0xb
 7532 0171 3B       		.uleb128 0x3b
 7533 0172 05       		.uleb128 0x5
 7534 0173 49       		.uleb128 0x49
 7535 0174 13       		.uleb128 0x13
 7536 0175 02       		.uleb128 0x2
 7537 0176 17       		.uleb128 0x17
 7538 0177 00       		.byte	0
 7539 0178 00       		.byte	0
 7540 0179 1B       		.uleb128 0x1b
ARM GAS  C:\Users\arh\AppData\Local\Temp\cc6sEv7h.s 			page 160


 7541 017a 34       		.uleb128 0x34
 7542 017b 00       		.byte	0
 7543 017c 03       		.uleb128 0x3
 7544 017d 08       		.uleb128 0x8
 7545 017e 3A       		.uleb128 0x3a
 7546 017f 0B       		.uleb128 0xb
 7547 0180 3B       		.uleb128 0x3b
 7548 0181 05       		.uleb128 0x5
 7549 0182 49       		.uleb128 0x49
 7550 0183 13       		.uleb128 0x13
 7551 0184 02       		.uleb128 0x2
 7552 0185 17       		.uleb128 0x17
 7553 0186 00       		.byte	0
 7554 0187 00       		.byte	0
 7555 0188 1C       		.uleb128 0x1c
 7556 0189 2E       		.uleb128 0x2e
 7557 018a 01       		.byte	0x1
 7558 018b 3F       		.uleb128 0x3f
 7559 018c 19       		.uleb128 0x19
 7560 018d 03       		.uleb128 0x3
 7561 018e 0E       		.uleb128 0xe
 7562 018f 3A       		.uleb128 0x3a
 7563 0190 0B       		.uleb128 0xb
 7564 0191 3B       		.uleb128 0x3b
 7565 0192 0B       		.uleb128 0xb
 7566 0193 27       		.uleb128 0x27
 7567 0194 19       		.uleb128 0x19
 7568 0195 11       		.uleb128 0x11
 7569 0196 01       		.uleb128 0x1
 7570 0197 12       		.uleb128 0x12
 7571 0198 06       		.uleb128 0x6
 7572 0199 40       		.uleb128 0x40
 7573 019a 18       		.uleb128 0x18
 7574 019b 9742     		.uleb128 0x2117
 7575 019d 19       		.uleb128 0x19
 7576 019e 01       		.uleb128 0x1
 7577 019f 13       		.uleb128 0x13
 7578 01a0 00       		.byte	0
 7579 01a1 00       		.byte	0
 7580 01a2 1D       		.uleb128 0x1d
 7581 01a3 898201   		.uleb128 0x4109
 7582 01a6 01       		.byte	0x1
 7583 01a7 11       		.uleb128 0x11
 7584 01a8 01       		.uleb128 0x1
 7585 01a9 31       		.uleb128 0x31
 7586 01aa 13       		.uleb128 0x13
 7587 01ab 01       		.uleb128 0x1
 7588 01ac 13       		.uleb128 0x13
 7589 01ad 00       		.byte	0
 7590 01ae 00       		.byte	0
 7591 01af 1E       		.uleb128 0x1e
 7592 01b0 8A8201   		.uleb128 0x410a
 7593 01b3 00       		.byte	0
 7594 01b4 02       		.uleb128 0x2
 7595 01b5 18       		.uleb128 0x18
 7596 01b6 9142     		.uleb128 0x2111
 7597 01b8 18       		.uleb128 0x18
ARM GAS  C:\Users\arh\AppData\Local\Temp\cc6sEv7h.s 			page 161


 7598 01b9 00       		.byte	0
 7599 01ba 00       		.byte	0
 7600 01bb 1F       		.uleb128 0x1f
 7601 01bc 898201   		.uleb128 0x4109
 7602 01bf 01       		.byte	0x1
 7603 01c0 11       		.uleb128 0x11
 7604 01c1 01       		.uleb128 0x1
 7605 01c2 31       		.uleb128 0x31
 7606 01c3 13       		.uleb128 0x13
 7607 01c4 00       		.byte	0
 7608 01c5 00       		.byte	0
 7609 01c6 20       		.uleb128 0x20
 7610 01c7 2E       		.uleb128 0x2e
 7611 01c8 01       		.byte	0x1
 7612 01c9 3F       		.uleb128 0x3f
 7613 01ca 19       		.uleb128 0x19
 7614 01cb 03       		.uleb128 0x3
 7615 01cc 0E       		.uleb128 0xe
 7616 01cd 3A       		.uleb128 0x3a
 7617 01ce 0B       		.uleb128 0xb
 7618 01cf 3B       		.uleb128 0x3b
 7619 01d0 0B       		.uleb128 0xb
 7620 01d1 27       		.uleb128 0x27
 7621 01d2 19       		.uleb128 0x19
 7622 01d3 49       		.uleb128 0x49
 7623 01d4 13       		.uleb128 0x13
 7624 01d5 11       		.uleb128 0x11
 7625 01d6 01       		.uleb128 0x1
 7626 01d7 12       		.uleb128 0x12
 7627 01d8 06       		.uleb128 0x6
 7628 01d9 40       		.uleb128 0x40
 7629 01da 18       		.uleb128 0x18
 7630 01db 9742     		.uleb128 0x2117
 7631 01dd 19       		.uleb128 0x19
 7632 01de 01       		.uleb128 0x1
 7633 01df 13       		.uleb128 0x13
 7634 01e0 00       		.byte	0
 7635 01e1 00       		.byte	0
 7636 01e2 21       		.uleb128 0x21
 7637 01e3 34       		.uleb128 0x34
 7638 01e4 00       		.byte	0
 7639 01e5 03       		.uleb128 0x3
 7640 01e6 0E       		.uleb128 0xe
 7641 01e7 3A       		.uleb128 0x3a
 7642 01e8 0B       		.uleb128 0xb
 7643 01e9 3B       		.uleb128 0x3b
 7644 01ea 0B       		.uleb128 0xb
 7645 01eb 49       		.uleb128 0x49
 7646 01ec 13       		.uleb128 0x13
 7647 01ed 02       		.uleb128 0x2
 7648 01ee 17       		.uleb128 0x17
 7649 01ef 00       		.byte	0
 7650 01f0 00       		.byte	0
 7651 01f1 22       		.uleb128 0x22
 7652 01f2 05       		.uleb128 0x5
 7653 01f3 00       		.byte	0
 7654 01f4 03       		.uleb128 0x3
ARM GAS  C:\Users\arh\AppData\Local\Temp\cc6sEv7h.s 			page 162


 7655 01f5 08       		.uleb128 0x8
 7656 01f6 3A       		.uleb128 0x3a
 7657 01f7 0B       		.uleb128 0xb
 7658 01f8 3B       		.uleb128 0x3b
 7659 01f9 0B       		.uleb128 0xb
 7660 01fa 49       		.uleb128 0x49
 7661 01fb 13       		.uleb128 0x13
 7662 01fc 02       		.uleb128 0x2
 7663 01fd 17       		.uleb128 0x17
 7664 01fe 00       		.byte	0
 7665 01ff 00       		.byte	0
 7666 0200 23       		.uleb128 0x23
 7667 0201 05       		.uleb128 0x5
 7668 0202 00       		.byte	0
 7669 0203 03       		.uleb128 0x3
 7670 0204 08       		.uleb128 0x8
 7671 0205 3A       		.uleb128 0x3a
 7672 0206 0B       		.uleb128 0xb
 7673 0207 3B       		.uleb128 0x3b
 7674 0208 0B       		.uleb128 0xb
 7675 0209 49       		.uleb128 0x49
 7676 020a 13       		.uleb128 0x13
 7677 020b 02       		.uleb128 0x2
 7678 020c 18       		.uleb128 0x18
 7679 020d 00       		.byte	0
 7680 020e 00       		.byte	0
 7681 020f 24       		.uleb128 0x24
 7682 0210 0B       		.uleb128 0xb
 7683 0211 01       		.byte	0x1
 7684 0212 11       		.uleb128 0x11
 7685 0213 01       		.uleb128 0x1
 7686 0214 12       		.uleb128 0x12
 7687 0215 06       		.uleb128 0x6
 7688 0216 00       		.byte	0
 7689 0217 00       		.byte	0
 7690 0218 25       		.uleb128 0x25
 7691 0219 2E       		.uleb128 0x2e
 7692 021a 01       		.byte	0x1
 7693 021b 03       		.uleb128 0x3
 7694 021c 0E       		.uleb128 0xe
 7695 021d 3A       		.uleb128 0x3a
 7696 021e 0B       		.uleb128 0xb
 7697 021f 3B       		.uleb128 0x3b
 7698 0220 05       		.uleb128 0x5
 7699 0221 27       		.uleb128 0x27
 7700 0222 19       		.uleb128 0x19
 7701 0223 11       		.uleb128 0x11
 7702 0224 01       		.uleb128 0x1
 7703 0225 12       		.uleb128 0x12
 7704 0226 06       		.uleb128 0x6
 7705 0227 40       		.uleb128 0x40
 7706 0228 18       		.uleb128 0x18
 7707 0229 9742     		.uleb128 0x2117
 7708 022b 19       		.uleb128 0x19
 7709 022c 01       		.uleb128 0x1
 7710 022d 13       		.uleb128 0x13
 7711 022e 00       		.byte	0
ARM GAS  C:\Users\arh\AppData\Local\Temp\cc6sEv7h.s 			page 163


 7712 022f 00       		.byte	0
 7713 0230 26       		.uleb128 0x26
 7714 0231 34       		.uleb128 0x34
 7715 0232 00       		.byte	0
 7716 0233 03       		.uleb128 0x3
 7717 0234 0E       		.uleb128 0xe
 7718 0235 3A       		.uleb128 0x3a
 7719 0236 0B       		.uleb128 0xb
 7720 0237 3B       		.uleb128 0x3b
 7721 0238 05       		.uleb128 0x5
 7722 0239 49       		.uleb128 0x49
 7723 023a 13       		.uleb128 0x13
 7724 023b 02       		.uleb128 0x2
 7725 023c 17       		.uleb128 0x17
 7726 023d 00       		.byte	0
 7727 023e 00       		.byte	0
 7728 023f 27       		.uleb128 0x27
 7729 0240 2E       		.uleb128 0x2e
 7730 0241 01       		.byte	0x1
 7731 0242 3F       		.uleb128 0x3f
 7732 0243 19       		.uleb128 0x19
 7733 0244 03       		.uleb128 0x3
 7734 0245 0E       		.uleb128 0xe
 7735 0246 3A       		.uleb128 0x3a
 7736 0247 0B       		.uleb128 0xb
 7737 0248 3B       		.uleb128 0x3b
 7738 0249 05       		.uleb128 0x5
 7739 024a 27       		.uleb128 0x27
 7740 024b 19       		.uleb128 0x19
 7741 024c 11       		.uleb128 0x11
 7742 024d 01       		.uleb128 0x1
 7743 024e 12       		.uleb128 0x12
 7744 024f 06       		.uleb128 0x6
 7745 0250 40       		.uleb128 0x40
 7746 0251 18       		.uleb128 0x18
 7747 0252 9742     		.uleb128 0x2117
 7748 0254 19       		.uleb128 0x19
 7749 0255 01       		.uleb128 0x1
 7750 0256 13       		.uleb128 0x13
 7751 0257 00       		.byte	0
 7752 0258 00       		.byte	0
 7753 0259 28       		.uleb128 0x28
 7754 025a 34       		.uleb128 0x34
 7755 025b 00       		.byte	0
 7756 025c 03       		.uleb128 0x3
 7757 025d 08       		.uleb128 0x8
 7758 025e 3A       		.uleb128 0x3a
 7759 025f 0B       		.uleb128 0xb
 7760 0260 3B       		.uleb128 0x3b
 7761 0261 05       		.uleb128 0x5
 7762 0262 49       		.uleb128 0x49
 7763 0263 13       		.uleb128 0x13
 7764 0264 02       		.uleb128 0x2
 7765 0265 18       		.uleb128 0x18
 7766 0266 00       		.byte	0
 7767 0267 00       		.byte	0
 7768 0268 29       		.uleb128 0x29
ARM GAS  C:\Users\arh\AppData\Local\Temp\cc6sEv7h.s 			page 164


 7769 0269 0B       		.uleb128 0xb
 7770 026a 01       		.byte	0x1
 7771 026b 11       		.uleb128 0x11
 7772 026c 01       		.uleb128 0x1
 7773 026d 12       		.uleb128 0x12
 7774 026e 06       		.uleb128 0x6
 7775 026f 01       		.uleb128 0x1
 7776 0270 13       		.uleb128 0x13
 7777 0271 00       		.byte	0
 7778 0272 00       		.byte	0
 7779 0273 2A       		.uleb128 0x2a
 7780 0274 05       		.uleb128 0x5
 7781 0275 00       		.byte	0
 7782 0276 03       		.uleb128 0x3
 7783 0277 0E       		.uleb128 0xe
 7784 0278 3A       		.uleb128 0x3a
 7785 0279 0B       		.uleb128 0xb
 7786 027a 3B       		.uleb128 0x3b
 7787 027b 05       		.uleb128 0x5
 7788 027c 49       		.uleb128 0x49
 7789 027d 13       		.uleb128 0x13
 7790 027e 02       		.uleb128 0x2
 7791 027f 18       		.uleb128 0x18
 7792 0280 00       		.byte	0
 7793 0281 00       		.byte	0
 7794 0282 2B       		.uleb128 0x2b
 7795 0283 898201   		.uleb128 0x4109
 7796 0286 01       		.byte	0x1
 7797 0287 11       		.uleb128 0x11
 7798 0288 01       		.uleb128 0x1
 7799 0289 01       		.uleb128 0x1
 7800 028a 13       		.uleb128 0x13
 7801 028b 00       		.byte	0
 7802 028c 00       		.byte	0
 7803 028d 2C       		.uleb128 0x2c
 7804 028e 2E       		.uleb128 0x2e
 7805 028f 00       		.byte	0
 7806 0290 3F       		.uleb128 0x3f
 7807 0291 19       		.uleb128 0x19
 7808 0292 3C       		.uleb128 0x3c
 7809 0293 19       		.uleb128 0x19
 7810 0294 6E       		.uleb128 0x6e
 7811 0295 0E       		.uleb128 0xe
 7812 0296 03       		.uleb128 0x3
 7813 0297 0E       		.uleb128 0xe
 7814 0298 3A       		.uleb128 0x3a
 7815 0299 0B       		.uleb128 0xb
 7816 029a 3B       		.uleb128 0x3b
 7817 029b 05       		.uleb128 0x5
 7818 029c 00       		.byte	0
 7819 029d 00       		.byte	0
 7820 029e 00       		.byte	0
 7821              		.section	.debug_loc,"",%progbits
 7822              	.Ldebug_loc0:
 7823              	.LLST0:
 7824 0000 00000000 		.4byte	.LVL0
 7825 0004 00000000 		.4byte	.LVL0
ARM GAS  C:\Users\arh\AppData\Local\Temp\cc6sEv7h.s 			page 165


 7826 0008 0100     		.2byte	0x1
 7827 000a 50       		.byte	0x50
 7828 000b 00000000 		.4byte	.LVL0
 7829 000f 02000000 		.4byte	.LVL1
 7830 0013 0600     		.2byte	0x6
 7831 0015 70       		.byte	0x70
 7832 0016 00       		.sleb128 0
 7833 0017 71       		.byte	0x71
 7834 0018 00       		.sleb128 0
 7835 0019 22       		.byte	0x22
 7836 001a 9F       		.byte	0x9f
 7837 001b 02000000 		.4byte	.LVL1
 7838 001f 04000000 		.4byte	.LFE0
 7839 0023 0700     		.2byte	0x7
 7840 0025 F3       		.byte	0xf3
 7841 0026 01       		.uleb128 0x1
 7842 0027 50       		.byte	0x50
 7843 0028 71       		.byte	0x71
 7844 0029 00       		.sleb128 0
 7845 002a 22       		.byte	0x22
 7846 002b 9F       		.byte	0x9f
 7847 002c 00000000 		.4byte	0
 7848 0030 00000000 		.4byte	0
 7849              	.LLST1:
 7850 0034 00000000 		.4byte	.LVL2
 7851 0038 02000000 		.4byte	.LVL3
 7852 003c 0100     		.2byte	0x1
 7853 003e 50       		.byte	0x50
 7854 003f 02000000 		.4byte	.LVL3
 7855 0043 04000000 		.4byte	.LVL4
 7856 0047 0100     		.2byte	0x1
 7857 0049 51       		.byte	0x51
 7858 004a 04000000 		.4byte	.LVL4
 7859 004e 0E000000 		.4byte	.LFE1
 7860 0052 0300     		.2byte	0x3
 7861 0054 71       		.byte	0x71
 7862 0055 01       		.sleb128 1
 7863 0056 9F       		.byte	0x9f
 7864 0057 00000000 		.4byte	0
 7865 005b 00000000 		.4byte	0
 7866              	.LLST2:
 7867 005f 00000000 		.4byte	.LVL2
 7868 0063 02000000 		.4byte	.LVL3
 7869 0067 0100     		.2byte	0x1
 7870 0069 51       		.byte	0x51
 7871 006a 02000000 		.4byte	.LVL3
 7872 006e 0E000000 		.4byte	.LFE1
 7873 0072 0400     		.2byte	0x4
 7874 0074 F3       		.byte	0xf3
 7875 0075 01       		.uleb128 0x1
 7876 0076 51       		.byte	0x51
 7877 0077 9F       		.byte	0x9f
 7878 0078 00000000 		.4byte	0
 7879 007c 00000000 		.4byte	0
 7880              	.LLST3:
 7881 0080 04000000 		.4byte	.LVL4
 7882 0084 0A000000 		.4byte	.LVL6
ARM GAS  C:\Users\arh\AppData\Local\Temp\cc6sEv7h.s 			page 166


 7883 0088 0100     		.2byte	0x1
 7884 008a 50       		.byte	0x50
 7885 008b 0A000000 		.4byte	.LVL6
 7886 008f 0C000000 		.4byte	.LVL7
 7887 0093 0A00     		.2byte	0xa
 7888 0095 71       		.byte	0x71
 7889 0096 00       		.sleb128 0
 7890 0097 94       		.byte	0x94
 7891 0098 01       		.byte	0x1
 7892 0099 08       		.byte	0x8
 7893 009a FF       		.byte	0xff
 7894 009b 1A       		.byte	0x1a
 7895 009c 38       		.byte	0x38
 7896 009d 24       		.byte	0x24
 7897 009e 9F       		.byte	0x9f
 7898 009f 0C000000 		.4byte	.LVL7
 7899 00a3 0E000000 		.4byte	.LFE1
 7900 00a7 0100     		.2byte	0x1
 7901 00a9 50       		.byte	0x50
 7902 00aa 00000000 		.4byte	0
 7903 00ae 00000000 		.4byte	0
 7904              	.LLST4:
 7905 00b2 00000000 		.4byte	.LVL8
 7906 00b6 10000000 		.4byte	.LVL9
 7907 00ba 0100     		.2byte	0x1
 7908 00bc 50       		.byte	0x50
 7909 00bd 10000000 		.4byte	.LVL9
 7910 00c1 12000000 		.4byte	.LVL10
 7911 00c5 0400     		.2byte	0x4
 7912 00c7 F3       		.byte	0xf3
 7913 00c8 01       		.uleb128 0x1
 7914 00c9 50       		.byte	0x50
 7915 00ca 9F       		.byte	0x9f
 7916 00cb 12000000 		.4byte	.LVL10
 7917 00cf 16000000 		.4byte	.LVL11
 7918 00d3 0100     		.2byte	0x1
 7919 00d5 50       		.byte	0x50
 7920 00d6 16000000 		.4byte	.LVL11
 7921 00da 18000000 		.4byte	.LVL12
 7922 00de 0400     		.2byte	0x4
 7923 00e0 F3       		.byte	0xf3
 7924 00e1 01       		.uleb128 0x1
 7925 00e2 50       		.byte	0x50
 7926 00e3 9F       		.byte	0x9f
 7927 00e4 18000000 		.4byte	.LVL12
 7928 00e8 1C000000 		.4byte	.LVL13
 7929 00ec 0100     		.2byte	0x1
 7930 00ee 50       		.byte	0x50
 7931 00ef 1C000000 		.4byte	.LVL13
 7932 00f3 1E000000 		.4byte	.LVL14
 7933 00f7 0400     		.2byte	0x4
 7934 00f9 F3       		.byte	0xf3
 7935 00fa 01       		.uleb128 0x1
 7936 00fb 50       		.byte	0x50
 7937 00fc 9F       		.byte	0x9f
 7938 00fd 1E000000 		.4byte	.LVL14
 7939 0101 22000000 		.4byte	.LVL15
ARM GAS  C:\Users\arh\AppData\Local\Temp\cc6sEv7h.s 			page 167


 7940 0105 0100     		.2byte	0x1
 7941 0107 50       		.byte	0x50
 7942 0108 22000000 		.4byte	.LVL15
 7943 010c 24000000 		.4byte	.LVL16
 7944 0110 0400     		.2byte	0x4
 7945 0112 F3       		.byte	0xf3
 7946 0113 01       		.uleb128 0x1
 7947 0114 50       		.byte	0x50
 7948 0115 9F       		.byte	0x9f
 7949 0116 24000000 		.4byte	.LVL16
 7950 011a 26000000 		.4byte	.LFE11
 7951 011e 0100     		.2byte	0x1
 7952 0120 50       		.byte	0x50
 7953 0121 00000000 		.4byte	0
 7954 0125 00000000 		.4byte	0
 7955              	.LLST5:
 7956 0129 00000000 		.4byte	.LVL17
 7957 012d 10000000 		.4byte	.LVL18
 7958 0131 0100     		.2byte	0x1
 7959 0133 50       		.byte	0x50
 7960 0134 10000000 		.4byte	.LVL18
 7961 0138 12000000 		.4byte	.LVL19
 7962 013c 0400     		.2byte	0x4
 7963 013e F3       		.byte	0xf3
 7964 013f 01       		.uleb128 0x1
 7965 0140 50       		.byte	0x50
 7966 0141 9F       		.byte	0x9f
 7967 0142 12000000 		.4byte	.LVL19
 7968 0146 16000000 		.4byte	.LVL20
 7969 014a 0100     		.2byte	0x1
 7970 014c 50       		.byte	0x50
 7971 014d 16000000 		.4byte	.LVL20
 7972 0151 18000000 		.4byte	.LVL21
 7973 0155 0400     		.2byte	0x4
 7974 0157 F3       		.byte	0xf3
 7975 0158 01       		.uleb128 0x1
 7976 0159 50       		.byte	0x50
 7977 015a 9F       		.byte	0x9f
 7978 015b 18000000 		.4byte	.LVL21
 7979 015f 1C000000 		.4byte	.LVL22
 7980 0163 0100     		.2byte	0x1
 7981 0165 50       		.byte	0x50
 7982 0166 1C000000 		.4byte	.LVL22
 7983 016a 1E000000 		.4byte	.LVL23
 7984 016e 0400     		.2byte	0x4
 7985 0170 F3       		.byte	0xf3
 7986 0171 01       		.uleb128 0x1
 7987 0172 50       		.byte	0x50
 7988 0173 9F       		.byte	0x9f
 7989 0174 1E000000 		.4byte	.LVL23
 7990 0178 22000000 		.4byte	.LVL24
 7991 017c 0100     		.2byte	0x1
 7992 017e 50       		.byte	0x50
 7993 017f 22000000 		.4byte	.LVL24
 7994 0183 24000000 		.4byte	.LVL25
 7995 0187 0400     		.2byte	0x4
 7996 0189 F3       		.byte	0xf3
ARM GAS  C:\Users\arh\AppData\Local\Temp\cc6sEv7h.s 			page 168


 7997 018a 01       		.uleb128 0x1
 7998 018b 50       		.byte	0x50
 7999 018c 9F       		.byte	0x9f
 8000 018d 24000000 		.4byte	.LVL25
 8001 0191 26000000 		.4byte	.LFE12
 8002 0195 0100     		.2byte	0x1
 8003 0197 50       		.byte	0x50
 8004 0198 00000000 		.4byte	0
 8005 019c 00000000 		.4byte	0
 8006              	.LLST6:
 8007 01a0 00000000 		.4byte	.LVL26
 8008 01a4 02000000 		.4byte	.LVL27
 8009 01a8 0100     		.2byte	0x1
 8010 01aa 50       		.byte	0x50
 8011 01ab 02000000 		.4byte	.LVL27
 8012 01af 04000000 		.4byte	.LFE31
 8013 01b3 0400     		.2byte	0x4
 8014 01b5 F3       		.byte	0xf3
 8015 01b6 01       		.uleb128 0x1
 8016 01b7 50       		.byte	0x50
 8017 01b8 9F       		.byte	0x9f
 8018 01b9 00000000 		.4byte	0
 8019 01bd 00000000 		.4byte	0
 8020              	.LLST7:
 8021 01c1 00000000 		.4byte	.LVL28
 8022 01c5 04000000 		.4byte	.LVL29
 8023 01c9 0100     		.2byte	0x1
 8024 01cb 50       		.byte	0x50
 8025 01cc 04000000 		.4byte	.LVL29
 8026 01d0 06000000 		.4byte	.LFE33
 8027 01d4 0400     		.2byte	0x4
 8028 01d6 F3       		.byte	0xf3
 8029 01d7 01       		.uleb128 0x1
 8030 01d8 50       		.byte	0x50
 8031 01d9 9F       		.byte	0x9f
 8032 01da 00000000 		.4byte	0
 8033 01de 00000000 		.4byte	0
 8034              	.LLST8:
 8035 01e2 00000000 		.4byte	.LVL30
 8036 01e6 04000000 		.4byte	.LVL31
 8037 01ea 0100     		.2byte	0x1
 8038 01ec 50       		.byte	0x50
 8039 01ed 04000000 		.4byte	.LVL31
 8040 01f1 0A000000 		.4byte	.LFE35
 8041 01f5 0400     		.2byte	0x4
 8042 01f7 F3       		.byte	0xf3
 8043 01f8 01       		.uleb128 0x1
 8044 01f9 50       		.byte	0x50
 8045 01fa 9F       		.byte	0x9f
 8046 01fb 00000000 		.4byte	0
 8047 01ff 00000000 		.4byte	0
 8048              	.LLST9:
 8049 0203 04000000 		.4byte	.LVL31
 8050 0207 06000000 		.4byte	.LVL32
 8051 020b 0100     		.2byte	0x1
 8052 020d 50       		.byte	0x50
 8053 020e 06000000 		.4byte	.LVL32
ARM GAS  C:\Users\arh\AppData\Local\Temp\cc6sEv7h.s 			page 169


 8054 0212 08000000 		.4byte	.LVL33
 8055 0216 0300     		.2byte	0x3
 8056 0218 70       		.byte	0x70
 8057 0219 7F       		.sleb128 -1
 8058 021a 9F       		.byte	0x9f
 8059 021b 08000000 		.4byte	.LVL33
 8060 021f 0A000000 		.4byte	.LFE35
 8061 0223 0100     		.2byte	0x1
 8062 0225 50       		.byte	0x50
 8063 0226 00000000 		.4byte	0
 8064 022a 00000000 		.4byte	0
 8065              	.LLST10:
 8066 022e 00000000 		.4byte	.LVL34
 8067 0232 08000000 		.4byte	.LVL36
 8068 0236 0100     		.2byte	0x1
 8069 0238 50       		.byte	0x50
 8070 0239 08000000 		.4byte	.LVL36
 8071 023d 18000000 		.4byte	.LFE37
 8072 0241 0400     		.2byte	0x4
 8073 0243 F3       		.byte	0xf3
 8074 0244 01       		.uleb128 0x1
 8075 0245 50       		.byte	0x50
 8076 0246 9F       		.byte	0x9f
 8077 0247 00000000 		.4byte	0
 8078 024b 00000000 		.4byte	0
 8079              	.LLST11:
 8080 024f 04000000 		.4byte	.LVL35
 8081 0253 0A000000 		.4byte	.LVL37
 8082 0257 0100     		.2byte	0x1
 8083 0259 53       		.byte	0x53
 8084 025a 0A000000 		.4byte	.LVL37
 8085 025e 0C000000 		.4byte	.LVL38
 8086 0262 0500     		.2byte	0x5
 8087 0264 F3       		.byte	0xf3
 8088 0265 01       		.uleb128 0x1
 8089 0266 50       		.byte	0x50
 8090 0267 23       		.byte	0x23
 8091 0268 79       		.uleb128 0x79
 8092 0269 0C000000 		.4byte	.LVL38
 8093 026d 10000000 		.4byte	.LVL39
 8094 0271 0100     		.2byte	0x1
 8095 0273 53       		.byte	0x53
 8096 0274 10000000 		.4byte	.LVL39
 8097 0278 12000000 		.4byte	.LVL40
 8098 027c 0F00     		.2byte	0xf
 8099 027e F3       		.byte	0xf3
 8100 027f 01       		.uleb128 0x1
 8101 0280 50       		.byte	0x50
 8102 0281 23       		.byte	0x23
 8103 0282 79       		.uleb128 0x79
 8104 0283 94       		.byte	0x94
 8105 0284 01       		.byte	0x1
 8106 0285 48       		.byte	0x48
 8107 0286 24       		.byte	0x24
 8108 0287 48       		.byte	0x48
 8109 0288 26       		.byte	0x26
 8110 0289 70       		.byte	0x70
ARM GAS  C:\Users\arh\AppData\Local\Temp\cc6sEv7h.s 			page 170


 8111 028a 00       		.sleb128 0
 8112 028b 1C       		.byte	0x1c
 8113 028c 9F       		.byte	0x9f
 8114 028d 12000000 		.4byte	.LVL40
 8115 0291 16000000 		.4byte	.LVL41
 8116 0295 0100     		.2byte	0x1
 8117 0297 53       		.byte	0x53
 8118 0298 16000000 		.4byte	.LVL41
 8119 029c 18000000 		.4byte	.LFE37
 8120 02a0 0100     		.2byte	0x1
 8121 02a2 50       		.byte	0x50
 8122 02a3 00000000 		.4byte	0
 8123 02a7 00000000 		.4byte	0
 8124              	.LLST12:
 8125 02ab 00000000 		.4byte	.LVL42
 8126 02af 0A000000 		.4byte	.LVL44
 8127 02b3 0100     		.2byte	0x1
 8128 02b5 50       		.byte	0x50
 8129 02b6 0A000000 		.4byte	.LVL44
 8130 02ba CE000000 		.4byte	.LVL65
 8131 02be 0100     		.2byte	0x1
 8132 02c0 54       		.byte	0x54
 8133 02c1 CE000000 		.4byte	.LVL65
 8134 02c5 D0000000 		.4byte	.LFE2
 8135 02c9 0400     		.2byte	0x4
 8136 02cb F3       		.byte	0xf3
 8137 02cc 01       		.uleb128 0x1
 8138 02cd 50       		.byte	0x50
 8139 02ce 9F       		.byte	0x9f
 8140 02cf 00000000 		.4byte	0
 8141 02d3 00000000 		.4byte	0
 8142              	.LLST13:
 8143 02d7 00000000 		.4byte	.LVL42
 8144 02db 08000000 		.4byte	.LVL43
 8145 02df 0100     		.2byte	0x1
 8146 02e1 51       		.byte	0x51
 8147 02e2 08000000 		.4byte	.LVL43
 8148 02e6 CE000000 		.4byte	.LVL66
 8149 02ea 0100     		.2byte	0x1
 8150 02ec 55       		.byte	0x55
 8151 02ed CE000000 		.4byte	.LVL66
 8152 02f1 D0000000 		.4byte	.LFE2
 8153 02f5 0400     		.2byte	0x4
 8154 02f7 F3       		.byte	0xf3
 8155 02f8 01       		.uleb128 0x1
 8156 02f9 51       		.byte	0x51
 8157 02fa 9F       		.byte	0x9f
 8158 02fb 00000000 		.4byte	0
 8159 02ff 00000000 		.4byte	0
 8160              	.LLST14:
 8161 0303 00000000 		.4byte	.LVL67
 8162 0307 22000000 		.4byte	.LVL77
 8163 030b 0100     		.2byte	0x1
 8164 030d 50       		.byte	0x50
 8165 030e 22000000 		.4byte	.LVL77
 8166 0312 26000000 		.4byte	.LFE3
 8167 0316 0400     		.2byte	0x4
ARM GAS  C:\Users\arh\AppData\Local\Temp\cc6sEv7h.s 			page 171


 8168 0318 F3       		.byte	0xf3
 8169 0319 01       		.uleb128 0x1
 8170 031a 50       		.byte	0x50
 8171 031b 9F       		.byte	0x9f
 8172 031c 00000000 		.4byte	0
 8173 0320 00000000 		.4byte	0
 8174              	.LLST15:
 8175 0324 12000000 		.4byte	.LVL71
 8176 0328 1C000000 		.4byte	.LVL74
 8177 032c 0100     		.2byte	0x1
 8178 032e 52       		.byte	0x52
 8179 032f 1C000000 		.4byte	.LVL74
 8180 0333 1E000000 		.4byte	.LVL75
 8181 0337 0D00     		.2byte	0xd
 8182 0339 73       		.byte	0x73
 8183 033a 00       		.sleb128 0
 8184 033b 94       		.byte	0x94
 8185 033c 01       		.byte	0x1
 8186 033d 08       		.byte	0x8
 8187 033e FF       		.byte	0xff
 8188 033f 1A       		.byte	0x1a
 8189 0340 38       		.byte	0x38
 8190 0341 24       		.byte	0x24
 8191 0342 71       		.byte	0x71
 8192 0343 00       		.sleb128 0
 8193 0344 21       		.byte	0x21
 8194 0345 9F       		.byte	0x9f
 8195 0346 20000000 		.4byte	.LVL76
 8196 034a 26000000 		.4byte	.LFE3
 8197 034e 0100     		.2byte	0x1
 8198 0350 52       		.byte	0x52
 8199 0351 00000000 		.4byte	0
 8200 0355 00000000 		.4byte	0
 8201              	.LLST16:
 8202 0359 00000000 		.4byte	.LVL67
 8203 035d 04000000 		.4byte	.LVL68
 8204 0361 0100     		.2byte	0x1
 8205 0363 50       		.byte	0x50
 8206 0364 04000000 		.4byte	.LVL68
 8207 0368 26000000 		.4byte	.LFE3
 8208 036c 0100     		.2byte	0x1
 8209 036e 53       		.byte	0x53
 8210 036f 00000000 		.4byte	0
 8211 0373 00000000 		.4byte	0
 8212              	.LLST17:
 8213 0377 00000000 		.4byte	.LVL78
 8214 037b 04000000 		.4byte	.LVL79
 8215 037f 0100     		.2byte	0x1
 8216 0381 50       		.byte	0x50
 8217 0382 04000000 		.4byte	.LVL79
 8218 0386 06000000 		.4byte	.LFE4
 8219 038a 0400     		.2byte	0x4
 8220 038c F3       		.byte	0xf3
 8221 038d 01       		.uleb128 0x1
 8222 038e 50       		.byte	0x50
 8223 038f 9F       		.byte	0x9f
 8224 0390 00000000 		.4byte	0
ARM GAS  C:\Users\arh\AppData\Local\Temp\cc6sEv7h.s 			page 172


 8225 0394 00000000 		.4byte	0
 8226              	.LLST18:
 8227 0398 00000000 		.4byte	.LVL80
 8228 039c 04000000 		.4byte	.LVL81
 8229 03a0 0100     		.2byte	0x1
 8230 03a2 50       		.byte	0x50
 8231 03a3 04000000 		.4byte	.LVL81
 8232 03a7 06000000 		.4byte	.LFE5
 8233 03ab 0400     		.2byte	0x4
 8234 03ad F3       		.byte	0xf3
 8235 03ae 01       		.uleb128 0x1
 8236 03af 50       		.byte	0x50
 8237 03b0 9F       		.byte	0x9f
 8238 03b1 00000000 		.4byte	0
 8239 03b5 00000000 		.4byte	0
 8240              	.LLST19:
 8241 03b9 00000000 		.4byte	.LVL82
 8242 03bd 04000000 		.4byte	.LVL83
 8243 03c1 0100     		.2byte	0x1
 8244 03c3 50       		.byte	0x50
 8245 03c4 04000000 		.4byte	.LVL83
 8246 03c8 06000000 		.4byte	.LFE6
 8247 03cc 0400     		.2byte	0x4
 8248 03ce F3       		.byte	0xf3
 8249 03cf 01       		.uleb128 0x1
 8250 03d0 50       		.byte	0x50
 8251 03d1 9F       		.byte	0x9f
 8252 03d2 00000000 		.4byte	0
 8253 03d6 00000000 		.4byte	0
 8254              	.LLST20:
 8255 03da 00000000 		.4byte	.LVL84
 8256 03de 04000000 		.4byte	.LVL85
 8257 03e2 0100     		.2byte	0x1
 8258 03e4 50       		.byte	0x50
 8259 03e5 04000000 		.4byte	.LVL85
 8260 03e9 06000000 		.4byte	.LFE7
 8261 03ed 0400     		.2byte	0x4
 8262 03ef F3       		.byte	0xf3
 8263 03f0 01       		.uleb128 0x1
 8264 03f1 50       		.byte	0x50
 8265 03f2 9F       		.byte	0x9f
 8266 03f3 00000000 		.4byte	0
 8267 03f7 00000000 		.4byte	0
 8268              	.LLST21:
 8269 03fb 00000000 		.4byte	.LVL86
 8270 03ff 04000000 		.4byte	.LVL87
 8271 0403 0100     		.2byte	0x1
 8272 0405 50       		.byte	0x50
 8273 0406 04000000 		.4byte	.LVL87
 8274 040a 06000000 		.4byte	.LFE8
 8275 040e 0400     		.2byte	0x4
 8276 0410 F3       		.byte	0xf3
 8277 0411 01       		.uleb128 0x1
 8278 0412 50       		.byte	0x50
 8279 0413 9F       		.byte	0x9f
 8280 0414 00000000 		.4byte	0
 8281 0418 00000000 		.4byte	0
ARM GAS  C:\Users\arh\AppData\Local\Temp\cc6sEv7h.s 			page 173


 8282              	.LLST22:
 8283 041c 00000000 		.4byte	.LVL88
 8284 0420 36000000 		.4byte	.LVL104
 8285 0424 0100     		.2byte	0x1
 8286 0426 50       		.byte	0x50
 8287 0427 36000000 		.4byte	.LVL104
 8288 042b 38000000 		.4byte	.LFE9
 8289 042f 0400     		.2byte	0x4
 8290 0431 F3       		.byte	0xf3
 8291 0432 01       		.uleb128 0x1
 8292 0433 50       		.byte	0x50
 8293 0434 9F       		.byte	0x9f
 8294 0435 00000000 		.4byte	0
 8295 0439 00000000 		.4byte	0
 8296              	.LLST23:
 8297 043d 08000000 		.4byte	.LVL90
 8298 0441 0A000000 		.4byte	.LVL91
 8299 0445 0100     		.2byte	0x1
 8300 0447 54       		.byte	0x54
 8301 0448 0A000000 		.4byte	.LVL91
 8302 044c 0C000000 		.4byte	.LVL92
 8303 0450 0200     		.2byte	0x2
 8304 0452 77       		.byte	0x77
 8305 0453 00       		.sleb128 0
 8306 0454 0C000000 		.4byte	.LVL92
 8307 0458 20000000 		.4byte	.LVL97
 8308 045c 0100     		.2byte	0x1
 8309 045e 55       		.byte	0x55
 8310 045f 20000000 		.4byte	.LVL97
 8311 0463 24000000 		.4byte	.LVL98
 8312 0467 0100     		.2byte	0x1
 8313 0469 54       		.byte	0x54
 8314 046a 26000000 		.4byte	.LVL99
 8315 046e 32000000 		.4byte	.LVL102
 8316 0472 0100     		.2byte	0x1
 8317 0474 55       		.byte	0x55
 8318 0475 32000000 		.4byte	.LVL102
 8319 0479 38000000 		.4byte	.LFE9
 8320 047d 0100     		.2byte	0x1
 8321 047f 52       		.byte	0x52
 8322 0480 00000000 		.4byte	0
 8323 0484 00000000 		.4byte	0
 8324              	.LLST24:
 8325 0488 04000000 		.4byte	.LVL89
 8326 048c 18000000 		.4byte	.LVL95
 8327 0490 0100     		.2byte	0x1
 8328 0492 56       		.byte	0x56
 8329 0493 18000000 		.4byte	.LVL95
 8330 0497 34000000 		.4byte	.LVL103
 8331 049b 0200     		.2byte	0x2
 8332 049d 70       		.byte	0x70
 8333 049e 0A       		.sleb128 10
 8334 049f 00000000 		.4byte	0
 8335 04a3 00000000 		.4byte	0
 8336              	.LLST25:
 8337 04a7 0C000000 		.4byte	.LVL92
 8338 04ab 10000000 		.4byte	.LVL93
ARM GAS  C:\Users\arh\AppData\Local\Temp\cc6sEv7h.s 			page 174


 8339 04af 0100     		.2byte	0x1
 8340 04b1 56       		.byte	0x56
 8341 04b2 10000000 		.4byte	.LVL93
 8342 04b6 28000000 		.4byte	.LVL100
 8343 04ba 0100     		.2byte	0x1
 8344 04bc 53       		.byte	0x53
 8345 04bd 28000000 		.4byte	.LVL100
 8346 04c1 2A000000 		.4byte	.LVL101
 8347 04c5 0300     		.2byte	0x3
 8348 04c7 73       		.byte	0x73
 8349 04c8 08       		.sleb128 8
 8350 04c9 9F       		.byte	0x9f
 8351 04ca 2A000000 		.4byte	.LVL101
 8352 04ce 38000000 		.4byte	.LFE9
 8353 04d2 0100     		.2byte	0x1
 8354 04d4 53       		.byte	0x53
 8355 04d5 00000000 		.4byte	0
 8356 04d9 00000000 		.4byte	0
 8357              	.LLST26:
 8358 04dd 14000000 		.4byte	.LVL94
 8359 04e1 1A000000 		.4byte	.LVL96
 8360 04e5 0200     		.2byte	0x2
 8361 04e7 38       		.byte	0x38
 8362 04e8 9F       		.byte	0x9f
 8363 04e9 1A000000 		.4byte	.LVL96
 8364 04ed 2A000000 		.4byte	.LVL101
 8365 04f1 0100     		.2byte	0x1
 8366 04f3 56       		.byte	0x56
 8367 04f4 00000000 		.4byte	0
 8368 04f8 00000000 		.4byte	0
 8369              	.LLST27:
 8370 04fc 00000000 		.4byte	.LVL105
 8371 0500 14000000 		.4byte	.LVL108
 8372 0504 0100     		.2byte	0x1
 8373 0506 50       		.byte	0x50
 8374 0507 14000000 		.4byte	.LVL108
 8375 050b 32000000 		.4byte	.LVL112
 8376 050f 0100     		.2byte	0x1
 8377 0511 55       		.byte	0x55
 8378 0512 32000000 		.4byte	.LVL112
 8379 0516 34000000 		.4byte	.LFE14
 8380 051a 0400     		.2byte	0x4
 8381 051c F3       		.byte	0xf3
 8382 051d 01       		.uleb128 0x1
 8383 051e 50       		.byte	0x50
 8384 051f 9F       		.byte	0x9f
 8385 0520 00000000 		.4byte	0
 8386 0524 00000000 		.4byte	0
 8387              	.LLST28:
 8388 0528 00000000 		.4byte	.LVL105
 8389 052c 12000000 		.4byte	.LVL107
 8390 0530 0100     		.2byte	0x1
 8391 0532 51       		.byte	0x51
 8392 0533 12000000 		.4byte	.LVL107
 8393 0537 17000000 		.4byte	.LVL109-1
 8394 053b 0200     		.2byte	0x2
 8395 053d 74       		.byte	0x74
ARM GAS  C:\Users\arh\AppData\Local\Temp\cc6sEv7h.s 			page 175


 8396 053e 00       		.sleb128 0
 8397 053f 17000000 		.4byte	.LVL109-1
 8398 0543 34000000 		.4byte	.LFE14
 8399 0547 0400     		.2byte	0x4
 8400 0549 F3       		.byte	0xf3
 8401 054a 01       		.uleb128 0x1
 8402 054b 51       		.byte	0x51
 8403 054c 9F       		.byte	0x9f
 8404 054d 00000000 		.4byte	0
 8405 0551 00000000 		.4byte	0
 8406              	.LLST29:
 8407 0555 08000000 		.4byte	.LVL106
 8408 0559 32000000 		.4byte	.LVL111
 8409 055d 0100     		.2byte	0x1
 8410 055f 54       		.byte	0x54
 8411 0560 32000000 		.4byte	.LVL111
 8412 0564 32000000 		.4byte	.LVL112
 8413 0568 0400     		.2byte	0x4
 8414 056a 75       		.byte	0x75
 8415 056b D000     		.sleb128 80
 8416 056d 9F       		.byte	0x9f
 8417 056e 32000000 		.4byte	.LVL112
 8418 0572 34000000 		.4byte	.LFE14
 8419 0576 0600     		.2byte	0x6
 8420 0578 F3       		.byte	0xf3
 8421 0579 01       		.uleb128 0x1
 8422 057a 50       		.byte	0x50
 8423 057b 23       		.byte	0x23
 8424 057c 50       		.uleb128 0x50
 8425 057d 9F       		.byte	0x9f
 8426 057e 00000000 		.4byte	0
 8427 0582 00000000 		.4byte	0
 8428              	.LLST30:
 8429 0586 00000000 		.4byte	.LVL113
 8430 058a 07000000 		.4byte	.LVL114-1
 8431 058e 0100     		.2byte	0x1
 8432 0590 50       		.byte	0x50
 8433 0591 07000000 		.4byte	.LVL114-1
 8434 0595 16000000 		.4byte	.LFE10
 8435 0599 0400     		.2byte	0x4
 8436 059b F3       		.byte	0xf3
 8437 059c 01       		.uleb128 0x1
 8438 059d 50       		.byte	0x50
 8439 059e 9F       		.byte	0x9f
 8440 059f 00000000 		.4byte	0
 8441 05a3 00000000 		.4byte	0
 8442              	.LLST31:
 8443 05a7 00000000 		.4byte	.LVL113
 8444 05ab 07000000 		.4byte	.LVL114-1
 8445 05af 0100     		.2byte	0x1
 8446 05b1 51       		.byte	0x51
 8447 05b2 07000000 		.4byte	.LVL114-1
 8448 05b6 0C000000 		.4byte	.LVL115
 8449 05ba 0400     		.2byte	0x4
 8450 05bc F3       		.byte	0xf3
 8451 05bd 01       		.uleb128 0x1
 8452 05be 51       		.byte	0x51
ARM GAS  C:\Users\arh\AppData\Local\Temp\cc6sEv7h.s 			page 176


 8453 05bf 9F       		.byte	0x9f
 8454 05c0 0C000000 		.4byte	.LVL115
 8455 05c4 14000000 		.4byte	.LVL119
 8456 05c8 0100     		.2byte	0x1
 8457 05ca 54       		.byte	0x54
 8458 05cb 00000000 		.4byte	0
 8459 05cf 00000000 		.4byte	0
 8460              	.LLST32:
 8461 05d3 08000000 		.4byte	.LVL114
 8462 05d7 12000000 		.4byte	.LVL117
 8463 05db 0100     		.2byte	0x1
 8464 05dd 50       		.byte	0x50
 8465 05de 14000000 		.4byte	.LVL118
 8466 05e2 16000000 		.4byte	.LFE10
 8467 05e6 0100     		.2byte	0x1
 8468 05e8 50       		.byte	0x50
 8469 05e9 00000000 		.4byte	0
 8470 05ed 00000000 		.4byte	0
 8471              	.LLST33:
 8472 05f1 08000000 		.4byte	.LVL114
 8473 05f5 10000000 		.4byte	.LVL116
 8474 05f9 0200     		.2byte	0x2
 8475 05fb 31       		.byte	0x31
 8476 05fc 9F       		.byte	0x9f
 8477 05fd 10000000 		.4byte	.LVL116
 8478 0601 16000000 		.4byte	.LFE10
 8479 0605 0100     		.2byte	0x1
 8480 0607 53       		.byte	0x53
 8481 0608 00000000 		.4byte	0
 8482 060c 00000000 		.4byte	0
 8483              	.LLST34:
 8484 0610 00000000 		.4byte	.LVL120
 8485 0614 24000000 		.4byte	.LVL128
 8486 0618 0100     		.2byte	0x1
 8487 061a 50       		.byte	0x50
 8488 061b 24000000 		.4byte	.LVL128
 8489 061f DA000000 		.4byte	.LVL152
 8490 0623 0100     		.2byte	0x1
 8491 0625 54       		.byte	0x54
 8492 0626 DA000000 		.4byte	.LVL152
 8493 062a DA000000 		.4byte	.LVL154
 8494 062e 0100     		.2byte	0x1
 8495 0630 57       		.byte	0x57
 8496 0631 DA000000 		.4byte	.LVL154
 8497 0635 E4000000 		.4byte	.LFE13
 8498 0639 0400     		.2byte	0x4
 8499 063b 73       		.byte	0x73
 8500 063c B07F     		.sleb128 -80
 8501 063e 9F       		.byte	0x9f
 8502 063f 00000000 		.4byte	0
 8503 0643 00000000 		.4byte	0
 8504              	.LLST35:
 8505 0647 00000000 		.4byte	.LVL120
 8506 064b 24000000 		.4byte	.LVL128
 8507 064f 0100     		.2byte	0x1
 8508 0651 51       		.byte	0x51
 8509 0652 24000000 		.4byte	.LVL128
ARM GAS  C:\Users\arh\AppData\Local\Temp\cc6sEv7h.s 			page 177


 8510 0656 E4000000 		.4byte	.LFE13
 8511 065a 0400     		.2byte	0x4
 8512 065c F3       		.byte	0xf3
 8513 065d 01       		.uleb128 0x1
 8514 065e 51       		.byte	0x51
 8515 065f 9F       		.byte	0x9f
 8516 0660 00000000 		.4byte	0
 8517 0664 00000000 		.4byte	0
 8518              	.LLST36:
 8519 0668 00000000 		.4byte	.LVL120
 8520 066c 24000000 		.4byte	.LVL128
 8521 0670 0100     		.2byte	0x1
 8522 0672 52       		.byte	0x52
 8523 0673 24000000 		.4byte	.LVL128
 8524 0677 E4000000 		.4byte	.LFE13
 8525 067b 0400     		.2byte	0x4
 8526 067d F3       		.byte	0xf3
 8527 067e 01       		.uleb128 0x1
 8528 067f 52       		.byte	0x52
 8529 0680 9F       		.byte	0x9f
 8530 0681 00000000 		.4byte	0
 8531 0685 00000000 		.4byte	0
 8532              	.LLST37:
 8533 0689 0E000000 		.4byte	.LVL121
 8534 068d 24000000 		.4byte	.LVL128
 8535 0691 0100     		.2byte	0x1
 8536 0693 51       		.byte	0x51
 8537 0694 24000000 		.4byte	.LVL128
 8538 0698 CA000000 		.4byte	.LVL149
 8539 069c 0100     		.2byte	0x1
 8540 069e 57       		.byte	0x57
 8541 069f 00000000 		.4byte	0
 8542 06a3 00000000 		.4byte	0
 8543              	.LLST38:
 8544 06a7 2A000000 		.4byte	.LVL129
 8545 06ab 2E000000 		.4byte	.LVL130
 8546 06af 0100     		.2byte	0x1
 8547 06b1 55       		.byte	0x55
 8548 06b2 2E000000 		.4byte	.LVL130
 8549 06b6 30000000 		.4byte	.LVL131
 8550 06ba 0300     		.2byte	0x3
 8551 06bc 74       		.byte	0x74
 8552 06bd D800     		.sleb128 88
 8553 06bf 30000000 		.4byte	.LVL131
 8554 06c3 B8000000 		.4byte	.LVL143
 8555 06c7 0100     		.2byte	0x1
 8556 06c9 55       		.byte	0x55
 8557 06ca C4000000 		.4byte	.LVL147
 8558 06ce DA000000 		.4byte	.LVL153
 8559 06d2 0100     		.2byte	0x1
 8560 06d4 55       		.byte	0x55
 8561 06d5 00000000 		.4byte	0
 8562 06d9 00000000 		.4byte	0
 8563              	.LLST39:
 8564 06dd 30000000 		.4byte	.LVL131
 8565 06e1 3A000000 		.4byte	.LVL132
 8566 06e5 0100     		.2byte	0x1
ARM GAS  C:\Users\arh\AppData\Local\Temp\cc6sEv7h.s 			page 178


 8567 06e7 55       		.byte	0x55
 8568 06e8 3A000000 		.4byte	.LVL132
 8569 06ec E4000000 		.4byte	.LFE13
 8570 06f0 0200     		.2byte	0x2
 8571 06f2 91       		.byte	0x91
 8572 06f3 58       		.sleb128 -40
 8573 06f4 00000000 		.4byte	0
 8574 06f8 00000000 		.4byte	0
 8575              	.LLST40:
 8576 06fc 14000000 		.4byte	.LVL123
 8577 0700 20000000 		.4byte	.LVL126
 8578 0704 0100     		.2byte	0x1
 8579 0706 56       		.byte	0x56
 8580 0707 20000000 		.4byte	.LVL126
 8581 070b BA000000 		.4byte	.LVL144
 8582 070f 0100     		.2byte	0x1
 8583 0711 5A       		.byte	0x5a
 8584 0712 BA000000 		.4byte	.LVL144
 8585 0716 C4000000 		.4byte	.LVL147
 8586 071a 0200     		.2byte	0x2
 8587 071c 30       		.byte	0x30
 8588 071d 9F       		.byte	0x9f
 8589 071e C4000000 		.4byte	.LVL147
 8590 0722 CC000000 		.4byte	.LVL150
 8591 0726 0100     		.2byte	0x1
 8592 0728 5A       		.byte	0x5a
 8593 0729 CC000000 		.4byte	.LVL150
 8594 072d D4000000 		.4byte	.LVL151
 8595 0731 0100     		.2byte	0x1
 8596 0733 52       		.byte	0x52
 8597 0734 D4000000 		.4byte	.LVL151
 8598 0738 E4000000 		.4byte	.LFE13
 8599 073c 0200     		.2byte	0x2
 8600 073e 73       		.byte	0x73
 8601 073f 06       		.sleb128 6
 8602 0740 00000000 		.4byte	0
 8603 0744 00000000 		.4byte	0
 8604              	.LLST41:
 8605 0748 18000000 		.4byte	.LVL125
 8606 074c 22000000 		.4byte	.LVL127
 8607 0750 0100     		.2byte	0x1
 8608 0752 58       		.byte	0x58
 8609 0753 22000000 		.4byte	.LVL127
 8610 0757 BC000000 		.4byte	.LVL145
 8611 075b 0100     		.2byte	0x1
 8612 075d 56       		.byte	0x56
 8613 075e BC000000 		.4byte	.LVL145
 8614 0762 BE000000 		.4byte	.LVL146
 8615 0766 0200     		.2byte	0x2
 8616 0768 91       		.byte	0x91
 8617 0769 50       		.sleb128 -48
 8618 076a BE000000 		.4byte	.LVL146
 8619 076e C6000000 		.4byte	.LVL148
 8620 0772 0100     		.2byte	0x1
 8621 0774 56       		.byte	0x56
 8622 0775 C6000000 		.4byte	.LVL148
 8623 0779 E4000000 		.4byte	.LFE13
ARM GAS  C:\Users\arh\AppData\Local\Temp\cc6sEv7h.s 			page 179


 8624 077d 0200     		.2byte	0x2
 8625 077f 91       		.byte	0x91
 8626 0780 50       		.sleb128 -48
 8627 0781 00000000 		.4byte	0
 8628 0785 00000000 		.4byte	0
 8629              	.LLST42:
 8630 0789 40000000 		.4byte	.LVL133
 8631 078d 5D000000 		.4byte	.LVL135-1
 8632 0791 0100     		.2byte	0x1
 8633 0793 50       		.byte	0x50
 8634 0794 60000000 		.4byte	.LVL136
 8635 0798 E4000000 		.4byte	.LFE13
 8636 079c 0200     		.2byte	0x2
 8637 079e 91       		.byte	0x91
 8638 079f 5C       		.sleb128 -36
 8639 07a0 00000000 		.4byte	0
 8640 07a4 00000000 		.4byte	0
 8641              	.LLST43:
 8642 07a8 44000000 		.4byte	.LVL134
 8643 07ac 6C000000 		.4byte	.LVL137
 8644 07b0 0100     		.2byte	0x1
 8645 07b2 5B       		.byte	0x5b
 8646 07b3 6C000000 		.4byte	.LVL137
 8647 07b7 88000000 		.4byte	.LVL138
 8648 07bb 0100     		.2byte	0x1
 8649 07bd 50       		.byte	0x50
 8650 07be 8E000000 		.4byte	.LVL140
 8651 07c2 AE000000 		.4byte	.LVL141
 8652 07c6 0100     		.2byte	0x1
 8653 07c8 50       		.byte	0x50
 8654 07c9 00000000 		.4byte	0
 8655 07cd 00000000 		.4byte	0
 8656              	.LLST44:
 8657 07d1 0E000000 		.4byte	.LVL121
 8658 07d5 12000000 		.4byte	.LVL122
 8659 07d9 0400     		.2byte	0x4
 8660 07db 70       		.byte	0x70
 8661 07dc D000     		.sleb128 80
 8662 07de 9F       		.byte	0x9f
 8663 07df 12000000 		.4byte	.LVL122
 8664 07e3 16000000 		.4byte	.LVL124
 8665 07e7 0100     		.2byte	0x1
 8666 07e9 53       		.byte	0x53
 8667 07ea 16000000 		.4byte	.LVL124
 8668 07ee 24000000 		.4byte	.LVL128
 8669 07f2 0400     		.2byte	0x4
 8670 07f4 70       		.byte	0x70
 8671 07f5 D000     		.sleb128 80
 8672 07f7 9F       		.byte	0x9f
 8673 07f8 24000000 		.4byte	.LVL128
 8674 07fc DA000000 		.4byte	.LVL152
 8675 0800 0400     		.2byte	0x4
 8676 0802 74       		.byte	0x74
 8677 0803 D000     		.sleb128 80
 8678 0805 9F       		.byte	0x9f
 8679 0806 DA000000 		.4byte	.LVL152
 8680 080a DA000000 		.4byte	.LVL154
ARM GAS  C:\Users\arh\AppData\Local\Temp\cc6sEv7h.s 			page 180


 8681 080e 0400     		.2byte	0x4
 8682 0810 77       		.byte	0x77
 8683 0811 D000     		.sleb128 80
 8684 0813 9F       		.byte	0x9f
 8685 0814 DA000000 		.4byte	.LVL154
 8686 0818 E4000000 		.4byte	.LFE13
 8687 081c 0100     		.2byte	0x1
 8688 081e 53       		.byte	0x53
 8689 081f 00000000 		.4byte	0
 8690 0823 00000000 		.4byte	0
 8691              	.LLST45:
 8692 0827 00000000 		.4byte	.LVL155
 8693 082b 17000000 		.4byte	.LVL157-1
 8694 082f 0100     		.2byte	0x1
 8695 0831 50       		.byte	0x50
 8696 0832 17000000 		.4byte	.LVL157-1
 8697 0836 5E010000 		.4byte	.LVL205
 8698 083a 0100     		.2byte	0x1
 8699 083c 54       		.byte	0x54
 8700 083d 5E010000 		.4byte	.LVL205
 8701 0841 5E010000 		.4byte	.LVL206
 8702 0845 0400     		.2byte	0x4
 8703 0847 77       		.byte	0x77
 8704 0848 B07F     		.sleb128 -80
 8705 084a 9F       		.byte	0x9f
 8706 084b 5E010000 		.4byte	.LVL206
 8707 084f 6A010000 		.4byte	.LFE15
 8708 0853 0400     		.2byte	0x4
 8709 0855 F3       		.byte	0xf3
 8710 0856 01       		.uleb128 0x1
 8711 0857 50       		.byte	0x50
 8712 0858 9F       		.byte	0x9f
 8713 0859 00000000 		.4byte	0
 8714 085d 00000000 		.4byte	0
 8715              	.LLST46:
 8716 0861 00000000 		.4byte	.LVL155
 8717 0865 17000000 		.4byte	.LVL157-1
 8718 0869 0100     		.2byte	0x1
 8719 086b 51       		.byte	0x51
 8720 086c 17000000 		.4byte	.LVL157-1
 8721 0870 6A010000 		.4byte	.LFE15
 8722 0874 0400     		.2byte	0x4
 8723 0876 F3       		.byte	0xf3
 8724 0877 01       		.uleb128 0x1
 8725 0878 51       		.byte	0x51
 8726 0879 9F       		.byte	0x9f
 8727 087a 00000000 		.4byte	0
 8728 087e 00000000 		.4byte	0
 8729              	.LLST47:
 8730 0882 18010000 		.4byte	.LVL197
 8731 0886 1E010000 		.4byte	.LVL198
 8732 088a 0100     		.2byte	0x1
 8733 088c 50       		.byte	0x50
 8734 088d 1E010000 		.4byte	.LVL198
 8735 0891 5A010000 		.4byte	.LVL204
 8736 0895 0100     		.2byte	0x1
 8737 0897 56       		.byte	0x56
ARM GAS  C:\Users\arh\AppData\Local\Temp\cc6sEv7h.s 			page 181


 8738 0898 00000000 		.4byte	0
 8739 089c 00000000 		.4byte	0
 8740              	.LLST48:
 8741 08a0 24010000 		.4byte	.LVL200
 8742 08a4 5A010000 		.4byte	.LVL204
 8743 08a8 0100     		.2byte	0x1
 8744 08aa 55       		.byte	0x55
 8745 08ab 00000000 		.4byte	0
 8746 08af 00000000 		.4byte	0
 8747              	.LLST49:
 8748 08b3 36000000 		.4byte	.LVL162
 8749 08b7 5A000000 		.4byte	.LVL165
 8750 08bb 0100     		.2byte	0x1
 8751 08bd 55       		.byte	0x55
 8752 08be 00000000 		.4byte	0
 8753 08c2 00000000 		.4byte	0
 8754              	.LLST50:
 8755 08c6 1E000000 		.4byte	.LVL158
 8756 08ca 5E010000 		.4byte	.LVL207
 8757 08ce 0100     		.2byte	0x1
 8758 08d0 58       		.byte	0x58
 8759 08d1 00000000 		.4byte	0
 8760 08d5 00000000 		.4byte	0
 8761              	.LLST51:
 8762 08d9 14000000 		.4byte	.LVL156
 8763 08dd 5E010000 		.4byte	.LVL206
 8764 08e1 0100     		.2byte	0x1
 8765 08e3 57       		.byte	0x57
 8766 08e4 5E010000 		.4byte	.LVL206
 8767 08e8 6A010000 		.4byte	.LFE15
 8768 08ec 0600     		.2byte	0x6
 8769 08ee F3       		.byte	0xf3
 8770 08ef 01       		.uleb128 0x1
 8771 08f0 50       		.byte	0x50
 8772 08f1 23       		.byte	0x23
 8773 08f2 50       		.uleb128 0x50
 8774 08f3 9F       		.byte	0x9f
 8775 08f4 00000000 		.4byte	0
 8776 08f8 00000000 		.4byte	0
 8777              	.LLST52:
 8778 08fc 84000000 		.4byte	.LVL168
 8779 0900 AA000000 		.4byte	.LVL173
 8780 0904 0100     		.2byte	0x1
 8781 0906 59       		.byte	0x59
 8782 0907 AA000000 		.4byte	.LVL173
 8783 090b BA000000 		.4byte	.LVL178
 8784 090f 0100     		.2byte	0x1
 8785 0911 51       		.byte	0x51
 8786 0912 BA000000 		.4byte	.LVL178
 8787 0916 C2000000 		.4byte	.LVL179
 8788 091a 0100     		.2byte	0x1
 8789 091c 59       		.byte	0x59
 8790 091d C2000000 		.4byte	.LVL179
 8791 0921 DC000000 		.4byte	.LVL186
 8792 0925 0100     		.2byte	0x1
 8793 0927 51       		.byte	0x51
 8794 0928 DC000000 		.4byte	.LVL186
ARM GAS  C:\Users\arh\AppData\Local\Temp\cc6sEv7h.s 			page 182


 8795 092c F4000000 		.4byte	.LVL193
 8796 0930 0100     		.2byte	0x1
 8797 0932 59       		.byte	0x59
 8798 0933 F4000000 		.4byte	.LVL193
 8799 0937 5A010000 		.4byte	.LVL204
 8800 093b 0200     		.2byte	0x2
 8801 093d 91       		.byte	0x91
 8802 093e 50       		.sleb128 -48
 8803 093f 00000000 		.4byte	0
 8804 0943 00000000 		.4byte	0
 8805              	.LLST53:
 8806 0947 84000000 		.4byte	.LVL168
 8807 094b 9C000000 		.4byte	.LVL169
 8808 094f 0100     		.2byte	0x1
 8809 0951 59       		.byte	0x59
 8810 0952 9C000000 		.4byte	.LVL169
 8811 0956 A2000000 		.4byte	.LVL172
 8812 095a 0100     		.2byte	0x1
 8813 095c 53       		.byte	0x53
 8814 095d A2000000 		.4byte	.LVL172
 8815 0961 B0000000 		.4byte	.LVL175
 8816 0965 0100     		.2byte	0x1
 8817 0967 59       		.byte	0x59
 8818 0968 B0000000 		.4byte	.LVL175
 8819 096c BA000000 		.4byte	.LVL178
 8820 0970 0100     		.2byte	0x1
 8821 0972 53       		.byte	0x53
 8822 0973 BA000000 		.4byte	.LVL178
 8823 0977 C8000000 		.4byte	.LVL181
 8824 097b 0100     		.2byte	0x1
 8825 097d 59       		.byte	0x59
 8826 097e C8000000 		.4byte	.LVL181
 8827 0982 DC000000 		.4byte	.LVL186
 8828 0986 0100     		.2byte	0x1
 8829 0988 53       		.byte	0x53
 8830 0989 DC000000 		.4byte	.LVL186
 8831 098d E2000000 		.4byte	.LVL187
 8832 0991 0100     		.2byte	0x1
 8833 0993 59       		.byte	0x59
 8834 0994 E2000000 		.4byte	.LVL187
 8835 0998 F2000000 		.4byte	.LVL192
 8836 099c 0100     		.2byte	0x1
 8837 099e 53       		.byte	0x53
 8838 099f F2000000 		.4byte	.LVL192
 8839 09a3 F4000000 		.4byte	.LVL193
 8840 09a7 0100     		.2byte	0x1
 8841 09a9 59       		.byte	0x59
 8842 09aa F4000000 		.4byte	.LVL193
 8843 09ae FD000000 		.4byte	.LVL195-1
 8844 09b2 0100     		.2byte	0x1
 8845 09b4 53       		.byte	0x53
 8846 09b5 00000000 		.4byte	0
 8847 09b9 00000000 		.4byte	0
 8848              	.LLST54:
 8849 09bd 84000000 		.4byte	.LVL168
 8850 09c1 9E000000 		.4byte	.LVL170
 8851 09c5 0100     		.2byte	0x1
ARM GAS  C:\Users\arh\AppData\Local\Temp\cc6sEv7h.s 			page 183


 8852 09c7 50       		.byte	0x50
 8853 09c8 9E000000 		.4byte	.LVL170
 8854 09cc A2000000 		.4byte	.LVL172
 8855 09d0 0200     		.2byte	0x2
 8856 09d2 77       		.byte	0x77
 8857 09d3 05       		.sleb128 5
 8858 09d4 A2000000 		.4byte	.LVL172
 8859 09d8 B2000000 		.4byte	.LVL176
 8860 09dc 0100     		.2byte	0x1
 8861 09de 50       		.byte	0x50
 8862 09df B2000000 		.4byte	.LVL176
 8863 09e3 BA000000 		.4byte	.LVL178
 8864 09e7 0200     		.2byte	0x2
 8865 09e9 77       		.byte	0x77
 8866 09ea 05       		.sleb128 5
 8867 09eb BA000000 		.4byte	.LVL178
 8868 09ef CE000000 		.4byte	.LVL182
 8869 09f3 0100     		.2byte	0x1
 8870 09f5 50       		.byte	0x50
 8871 09f6 CE000000 		.4byte	.LVL182
 8872 09fa DC000000 		.4byte	.LVL186
 8873 09fe 0100     		.2byte	0x1
 8874 0a00 52       		.byte	0x52
 8875 0a01 DC000000 		.4byte	.LVL186
 8876 0a05 E8000000 		.4byte	.LVL188
 8877 0a09 0100     		.2byte	0x1
 8878 0a0b 50       		.byte	0x50
 8879 0a0c E8000000 		.4byte	.LVL188
 8880 0a10 F2000000 		.4byte	.LVL192
 8881 0a14 0100     		.2byte	0x1
 8882 0a16 52       		.byte	0x52
 8883 0a17 F2000000 		.4byte	.LVL192
 8884 0a1b F4000000 		.4byte	.LVL193
 8885 0a1f 0100     		.2byte	0x1
 8886 0a21 50       		.byte	0x50
 8887 0a22 F4000000 		.4byte	.LVL193
 8888 0a26 FD000000 		.4byte	.LVL195-1
 8889 0a2a 0100     		.2byte	0x1
 8890 0a2c 52       		.byte	0x52
 8891 0a2d 00000000 		.4byte	0
 8892 0a31 00000000 		.4byte	0
 8893              	.LLST55:
 8894 0a35 84000000 		.4byte	.LVL168
 8895 0a39 9E000000 		.4byte	.LVL170
 8896 0a3d 0100     		.2byte	0x1
 8897 0a3f 50       		.byte	0x50
 8898 0a40 9E000000 		.4byte	.LVL170
 8899 0a44 A0000000 		.4byte	.LVL171
 8900 0a48 0200     		.2byte	0x2
 8901 0a4a 77       		.byte	0x77
 8902 0a4b 05       		.sleb128 5
 8903 0a4c A0000000 		.4byte	.LVL171
 8904 0a50 B2000000 		.4byte	.LVL176
 8905 0a54 0100     		.2byte	0x1
 8906 0a56 50       		.byte	0x50
 8907 0a57 B2000000 		.4byte	.LVL176
 8908 0a5b B4000000 		.4byte	.LVL177
ARM GAS  C:\Users\arh\AppData\Local\Temp\cc6sEv7h.s 			page 184


 8909 0a5f 0200     		.2byte	0x2
 8910 0a61 77       		.byte	0x77
 8911 0a62 05       		.sleb128 5
 8912 0a63 B4000000 		.4byte	.LVL177
 8913 0a67 D2000000 		.4byte	.LVL184
 8914 0a6b 0100     		.2byte	0x1
 8915 0a6d 50       		.byte	0x50
 8916 0a6e D2000000 		.4byte	.LVL184
 8917 0a72 D4000000 		.4byte	.LVL185
 8918 0a76 0200     		.2byte	0x2
 8919 0a78 77       		.byte	0x77
 8920 0a79 05       		.sleb128 5
 8921 0a7a D4000000 		.4byte	.LVL185
 8922 0a7e EC000000 		.4byte	.LVL190
 8923 0a82 0100     		.2byte	0x1
 8924 0a84 50       		.byte	0x50
 8925 0a85 EC000000 		.4byte	.LVL190
 8926 0a89 EE000000 		.4byte	.LVL191
 8927 0a8d 0200     		.2byte	0x2
 8928 0a8f 77       		.byte	0x77
 8929 0a90 05       		.sleb128 5
 8930 0a91 EE000000 		.4byte	.LVL191
 8931 0a95 FA000000 		.4byte	.LVL194
 8932 0a99 0100     		.2byte	0x1
 8933 0a9b 50       		.byte	0x50
 8934 0a9c 00000000 		.4byte	0
 8935 0aa0 00000000 		.4byte	0
 8936              	.LLST56:
 8937 0aa4 00000000 		.4byte	.LVL208
 8938 0aa8 1E000000 		.4byte	.LVL211
 8939 0aac 0100     		.2byte	0x1
 8940 0aae 50       		.byte	0x50
 8941 0aaf 1E000000 		.4byte	.LVL211
 8942 0ab3 32000000 		.4byte	.LVL213
 8943 0ab7 0400     		.2byte	0x4
 8944 0ab9 F3       		.byte	0xf3
 8945 0aba 01       		.uleb128 0x1
 8946 0abb 50       		.byte	0x50
 8947 0abc 9F       		.byte	0x9f
 8948 0abd 32000000 		.4byte	.LVL213
 8949 0ac1 38000000 		.4byte	.LVL214
 8950 0ac5 0100     		.2byte	0x1
 8951 0ac7 50       		.byte	0x50
 8952 0ac8 38000000 		.4byte	.LVL214
 8953 0acc 58000000 		.4byte	.LFE16
 8954 0ad0 0400     		.2byte	0x4
 8955 0ad2 F3       		.byte	0xf3
 8956 0ad3 01       		.uleb128 0x1
 8957 0ad4 50       		.byte	0x50
 8958 0ad5 9F       		.byte	0x9f
 8959 0ad6 00000000 		.4byte	0
 8960 0ada 00000000 		.4byte	0
 8961              	.LLST57:
 8962 0ade 00000000 		.4byte	.LVL208
 8963 0ae2 04000000 		.4byte	.LVL209
 8964 0ae6 0300     		.2byte	0x3
 8965 0ae8 70       		.byte	0x70
ARM GAS  C:\Users\arh\AppData\Local\Temp\cc6sEv7h.s 			page 185


 8966 0ae9 C800     		.sleb128 72
 8967 0aeb 04000000 		.4byte	.LVL209
 8968 0aef 38000000 		.4byte	.LVL214
 8969 0af3 0100     		.2byte	0x1
 8970 0af5 52       		.byte	0x52
 8971 0af6 38000000 		.4byte	.LVL214
 8972 0afa 48000000 		.4byte	.LVL218
 8973 0afe 0100     		.2byte	0x1
 8974 0b00 50       		.byte	0x50
 8975 0b01 48000000 		.4byte	.LVL218
 8976 0b05 4A000000 		.4byte	.LVL219
 8977 0b09 0300     		.2byte	0x3
 8978 0b0b 70       		.byte	0x70
 8979 0b0c 7D       		.sleb128 -3
 8980 0b0d 9F       		.byte	0x9f
 8981 0b0e 4A000000 		.4byte	.LVL219
 8982 0b12 50000000 		.4byte	.LVL222
 8983 0b16 0100     		.2byte	0x1
 8984 0b18 50       		.byte	0x50
 8985 0b19 50000000 		.4byte	.LVL222
 8986 0b1d 54000000 		.4byte	.LVL223
 8987 0b21 0100     		.2byte	0x1
 8988 0b23 52       		.byte	0x52
 8989 0b24 54000000 		.4byte	.LVL223
 8990 0b28 56000000 		.4byte	.LVL224
 8991 0b2c 0100     		.2byte	0x1
 8992 0b2e 50       		.byte	0x50
 8993 0b2f 00000000 		.4byte	0
 8994 0b33 00000000 		.4byte	0
 8995              	.LLST58:
 8996 0b37 3A000000 		.4byte	.LVL215
 8997 0b3b 4C000000 		.4byte	.LVL220
 8998 0b3f 0100     		.2byte	0x1
 8999 0b41 53       		.byte	0x53
 9000 0b42 4C000000 		.4byte	.LVL220
 9001 0b46 4E000000 		.4byte	.LVL221
 9002 0b4a 0D00     		.2byte	0xd
 9003 0b4c 70       		.byte	0x70
 9004 0b4d 00       		.sleb128 0
 9005 0b4e 94       		.byte	0x94
 9006 0b4f 01       		.byte	0x1
 9007 0b50 08       		.byte	0x8
 9008 0b51 FF       		.byte	0xff
 9009 0b52 1A       		.byte	0x1a
 9010 0b53 38       		.byte	0x38
 9011 0b54 24       		.byte	0x24
 9012 0b55 72       		.byte	0x72
 9013 0b56 00       		.sleb128 0
 9014 0b57 21       		.byte	0x21
 9015 0b58 9F       		.byte	0x9f
 9016 0b59 54000000 		.4byte	.LVL223
 9017 0b5d 56000000 		.4byte	.LVL224
 9018 0b61 0100     		.2byte	0x1
 9019 0b63 53       		.byte	0x53
 9020 0b64 00000000 		.4byte	0
 9021 0b68 00000000 		.4byte	0
 9022              	.LLST59:
ARM GAS  C:\Users\arh\AppData\Local\Temp\cc6sEv7h.s 			page 186


 9023 0b6c 00000000 		.4byte	.LVL225
 9024 0b70 06000000 		.4byte	.LVL227
 9025 0b74 0100     		.2byte	0x1
 9026 0b76 50       		.byte	0x50
 9027 0b77 06000000 		.4byte	.LVL227
 9028 0b7b 26000000 		.4byte	.LVL236
 9029 0b7f 0100     		.2byte	0x1
 9030 0b81 54       		.byte	0x54
 9031 0b82 26000000 		.4byte	.LVL236
 9032 0b86 28000000 		.4byte	.LFE17
 9033 0b8a 0400     		.2byte	0x4
 9034 0b8c F3       		.byte	0xf3
 9035 0b8d 01       		.uleb128 0x1
 9036 0b8e 50       		.byte	0x50
 9037 0b8f 9F       		.byte	0x9f
 9038 0b90 00000000 		.4byte	0
 9039 0b94 00000000 		.4byte	0
 9040              	.LLST60:
 9041 0b98 00000000 		.4byte	.LVL225
 9042 0b9c 0A000000 		.4byte	.LVL228
 9043 0ba0 0100     		.2byte	0x1
 9044 0ba2 51       		.byte	0x51
 9045 0ba3 0A000000 		.4byte	.LVL228
 9046 0ba7 10000000 		.4byte	.LVL229
 9047 0bab 0500     		.2byte	0x5
 9048 0bad 74       		.byte	0x74
 9049 0bae 00       		.sleb128 0
 9050 0baf 70       		.byte	0x70
 9051 0bb0 00       		.sleb128 0
 9052 0bb1 22       		.byte	0x22
 9053 0bb2 10000000 		.4byte	.LVL229
 9054 0bb6 13000000 		.4byte	.LVL230-1
 9055 0bba 0300     		.2byte	0x3
 9056 0bbc 74       		.byte	0x74
 9057 0bbd D400     		.sleb128 84
 9058 0bbf 13000000 		.4byte	.LVL230-1
 9059 0bc3 28000000 		.4byte	.LFE17
 9060 0bc7 0400     		.2byte	0x4
 9061 0bc9 F3       		.byte	0xf3
 9062 0bca 01       		.uleb128 0x1
 9063 0bcb 51       		.byte	0x51
 9064 0bcc 9F       		.byte	0x9f
 9065 0bcd 00000000 		.4byte	0
 9066 0bd1 00000000 		.4byte	0
 9067              	.LLST61:
 9068 0bd5 00000000 		.4byte	.LVL225
 9069 0bd9 13000000 		.4byte	.LVL230-1
 9070 0bdd 0100     		.2byte	0x1
 9071 0bdf 52       		.byte	0x52
 9072 0be0 13000000 		.4byte	.LVL230-1
 9073 0be4 28000000 		.4byte	.LFE17
 9074 0be8 0400     		.2byte	0x4
 9075 0bea F3       		.byte	0xf3
 9076 0beb 01       		.uleb128 0x1
 9077 0bec 52       		.byte	0x52
 9078 0bed 9F       		.byte	0x9f
 9079 0bee 00000000 		.4byte	0
ARM GAS  C:\Users\arh\AppData\Local\Temp\cc6sEv7h.s 			page 187


 9080 0bf2 00000000 		.4byte	0
 9081              	.LLST62:
 9082 0bf6 00000000 		.4byte	.LVL225
 9083 0bfa 13000000 		.4byte	.LVL230-1
 9084 0bfe 0100     		.2byte	0x1
 9085 0c00 53       		.byte	0x53
 9086 0c01 13000000 		.4byte	.LVL230-1
 9087 0c05 28000000 		.4byte	.LFE17
 9088 0c09 0400     		.2byte	0x4
 9089 0c0b F3       		.byte	0xf3
 9090 0c0c 01       		.uleb128 0x1
 9091 0c0d 53       		.byte	0x53
 9092 0c0e 9F       		.byte	0x9f
 9093 0c0f 00000000 		.4byte	0
 9094 0c13 00000000 		.4byte	0
 9095              	.LLST63:
 9096 0c17 04000000 		.4byte	.LVL226
 9097 0c1b 22000000 		.4byte	.LVL233
 9098 0c1f 0200     		.2byte	0x2
 9099 0c21 30       		.byte	0x30
 9100 0c22 9F       		.byte	0x9f
 9101 0c23 22000000 		.4byte	.LVL233
 9102 0c27 24000000 		.4byte	.LVL234
 9103 0c2b 0100     		.2byte	0x1
 9104 0c2d 50       		.byte	0x50
 9105 0c2e 24000000 		.4byte	.LVL234
 9106 0c32 26000000 		.4byte	.LVL235
 9107 0c36 0200     		.2byte	0x2
 9108 0c38 30       		.byte	0x30
 9109 0c39 9F       		.byte	0x9f
 9110 0c3a 26000000 		.4byte	.LVL235
 9111 0c3e 28000000 		.4byte	.LFE17
 9112 0c42 0100     		.2byte	0x1
 9113 0c44 50       		.byte	0x50
 9114 0c45 00000000 		.4byte	0
 9115 0c49 00000000 		.4byte	0
 9116              	.LLST64:
 9117 0c4d 14000000 		.4byte	.LVL230
 9118 0c51 1C000000 		.4byte	.LVL231
 9119 0c55 0100     		.2byte	0x1
 9120 0c57 50       		.byte	0x50
 9121 0c58 1C000000 		.4byte	.LVL231
 9122 0c5c 1F000000 		.4byte	.LVL232-1
 9123 0c60 0100     		.2byte	0x1
 9124 0c62 51       		.byte	0x51
 9125 0c63 24000000 		.4byte	.LVL234
 9126 0c67 26000000 		.4byte	.LVL235
 9127 0c6b 0100     		.2byte	0x1
 9128 0c6d 50       		.byte	0x50
 9129 0c6e 00000000 		.4byte	0
 9130 0c72 00000000 		.4byte	0
 9131              	.LLST65:
 9132 0c76 00000000 		.4byte	.LVL237
 9133 0c7a 0B000000 		.4byte	.LVL238-1
 9134 0c7e 0100     		.2byte	0x1
 9135 0c80 50       		.byte	0x50
 9136 0c81 0B000000 		.4byte	.LVL238-1
ARM GAS  C:\Users\arh\AppData\Local\Temp\cc6sEv7h.s 			page 188


 9137 0c85 46000000 		.4byte	.LVL245
 9138 0c89 0100     		.2byte	0x1
 9139 0c8b 54       		.byte	0x54
 9140 0c8c 46000000 		.4byte	.LVL245
 9141 0c90 48000000 		.4byte	.LFE41
 9142 0c94 0400     		.2byte	0x4
 9143 0c96 F3       		.byte	0xf3
 9144 0c97 01       		.uleb128 0x1
 9145 0c98 50       		.byte	0x50
 9146 0c99 9F       		.byte	0x9f
 9147 0c9a 00000000 		.4byte	0
 9148 0c9e 00000000 		.4byte	0
 9149              	.LLST66:
 9150 0ca2 00000000 		.4byte	.LVL237
 9151 0ca6 0B000000 		.4byte	.LVL238-1
 9152 0caa 0100     		.2byte	0x1
 9153 0cac 51       		.byte	0x51
 9154 0cad 0B000000 		.4byte	.LVL238-1
 9155 0cb1 48000000 		.4byte	.LFE41
 9156 0cb5 0400     		.2byte	0x4
 9157 0cb7 F3       		.byte	0xf3
 9158 0cb8 01       		.uleb128 0x1
 9159 0cb9 51       		.byte	0x51
 9160 0cba 9F       		.byte	0x9f
 9161 0cbb 00000000 		.4byte	0
 9162 0cbf 00000000 		.4byte	0
 9163              	.LLST67:
 9164 0cc3 00000000 		.4byte	.LVL237
 9165 0cc7 0B000000 		.4byte	.LVL238-1
 9166 0ccb 0100     		.2byte	0x1
 9167 0ccd 52       		.byte	0x52
 9168 0cce 0B000000 		.4byte	.LVL238-1
 9169 0cd2 20000000 		.4byte	.LVL241
 9170 0cd6 0100     		.2byte	0x1
 9171 0cd8 55       		.byte	0x55
 9172 0cd9 20000000 		.4byte	.LVL241
 9173 0cdd 48000000 		.4byte	.LFE41
 9174 0ce1 0400     		.2byte	0x4
 9175 0ce3 F3       		.byte	0xf3
 9176 0ce4 01       		.uleb128 0x1
 9177 0ce5 52       		.byte	0x52
 9178 0ce6 9F       		.byte	0x9f
 9179 0ce7 00000000 		.4byte	0
 9180 0ceb 00000000 		.4byte	0
 9181              	.LLST68:
 9182 0cef 00000000 		.4byte	.LVL237
 9183 0cf3 0B000000 		.4byte	.LVL238-1
 9184 0cf7 0100     		.2byte	0x1
 9185 0cf9 53       		.byte	0x53
 9186 0cfa 0B000000 		.4byte	.LVL238-1
 9187 0cfe 46000000 		.4byte	.LVL246
 9188 0d02 0100     		.2byte	0x1
 9189 0d04 56       		.byte	0x56
 9190 0d05 46000000 		.4byte	.LVL246
 9191 0d09 48000000 		.4byte	.LFE41
 9192 0d0d 0400     		.2byte	0x4
 9193 0d0f F3       		.byte	0xf3
ARM GAS  C:\Users\arh\AppData\Local\Temp\cc6sEv7h.s 			page 189


 9194 0d10 01       		.uleb128 0x1
 9195 0d11 53       		.byte	0x53
 9196 0d12 9F       		.byte	0x9f
 9197 0d13 00000000 		.4byte	0
 9198 0d17 00000000 		.4byte	0
 9199              	.LLST69:
 9200 0d1b 0C000000 		.4byte	.LVL238
 9201 0d1f 14000000 		.4byte	.LVL239
 9202 0d23 0100     		.2byte	0x1
 9203 0d25 50       		.byte	0x50
 9204 0d26 14000000 		.4byte	.LVL239
 9205 0d2a 17000000 		.4byte	.LVL240-1
 9206 0d2e 0100     		.2byte	0x1
 9207 0d30 51       		.byte	0x51
 9208 0d31 00000000 		.4byte	0
 9209 0d35 00000000 		.4byte	0
 9210              	.LLST70:
 9211 0d39 00000000 		.4byte	.LVL247
 9212 0d3d 08000000 		.4byte	.LVL248
 9213 0d41 0100     		.2byte	0x1
 9214 0d43 50       		.byte	0x50
 9215 0d44 08000000 		.4byte	.LVL248
 9216 0d48 9A000000 		.4byte	.LVL271
 9217 0d4c 0100     		.2byte	0x1
 9218 0d4e 55       		.byte	0x55
 9219 0d4f 9A000000 		.4byte	.LVL271
 9220 0d53 A4000000 		.4byte	.LFE43
 9221 0d57 0400     		.2byte	0x4
 9222 0d59 F3       		.byte	0xf3
 9223 0d5a 01       		.uleb128 0x1
 9224 0d5b 50       		.byte	0x50
 9225 0d5c 9F       		.byte	0x9f
 9226 0d5d 00000000 		.4byte	0
 9227 0d61 00000000 		.4byte	0
 9228              	.LLST71:
 9229 0d65 00000000 		.4byte	.LVL247
 9230 0d69 08000000 		.4byte	.LVL248
 9231 0d6d 0100     		.2byte	0x1
 9232 0d6f 51       		.byte	0x51
 9233 0d70 08000000 		.4byte	.LVL248
 9234 0d74 9A000000 		.4byte	.LVL270
 9235 0d78 0100     		.2byte	0x1
 9236 0d7a 54       		.byte	0x54
 9237 0d7b 00000000 		.4byte	0
 9238 0d7f 00000000 		.4byte	0
 9239              	.LLST72:
 9240 0d83 08000000 		.4byte	.LVL248
 9241 0d87 3C000000 		.4byte	.LVL254
 9242 0d8b 0200     		.2byte	0x2
 9243 0d8d 30       		.byte	0x30
 9244 0d8e 9F       		.byte	0x9f
 9245 0d8f 3C000000 		.4byte	.LVL254
 9246 0d93 7E000000 		.4byte	.LVL262
 9247 0d97 0100     		.2byte	0x1
 9248 0d99 57       		.byte	0x57
 9249 0d9a 7E000000 		.4byte	.LVL262
 9250 0d9e 86000000 		.4byte	.LVL263
ARM GAS  C:\Users\arh\AppData\Local\Temp\cc6sEv7h.s 			page 190


 9251 0da2 0100     		.2byte	0x1
 9252 0da4 50       		.byte	0x50
 9253 0da5 86000000 		.4byte	.LVL263
 9254 0da9 88000000 		.4byte	.LVL264
 9255 0dad 0B00     		.2byte	0xb
 9256 0daf 91       		.byte	0x91
 9257 0db0 67       		.sleb128 -25
 9258 0db1 94       		.byte	0x94
 9259 0db2 01       		.byte	0x1
 9260 0db3 08       		.byte	0x8
 9261 0db4 FF       		.byte	0xff
 9262 0db5 1A       		.byte	0x1a
 9263 0db6 77       		.byte	0x77
 9264 0db7 00       		.sleb128 0
 9265 0db8 22       		.byte	0x22
 9266 0db9 9F       		.byte	0x9f
 9267 0dba 8A000000 		.4byte	.LVL265
 9268 0dbe 94000000 		.4byte	.LVL267
 9269 0dc2 0100     		.2byte	0x1
 9270 0dc4 57       		.byte	0x57
 9271 0dc5 96000000 		.4byte	.LVL268
 9272 0dc9 98000000 		.4byte	.LVL269
 9273 0dcd 0200     		.2byte	0x2
 9274 0dcf 30       		.byte	0x30
 9275 0dd0 9F       		.byte	0x9f
 9276 0dd1 00000000 		.4byte	0
 9277 0dd5 00000000 		.4byte	0
 9278              	.LLST73:
 9279 0dd9 12000000 		.4byte	.LVL250
 9280 0ddd 32000000 		.4byte	.LVL252
 9281 0de1 0100     		.2byte	0x1
 9282 0de3 50       		.byte	0x50
 9283 0de4 32000000 		.4byte	.LVL252
 9284 0de8 35000000 		.4byte	.LVL253-1
 9285 0dec 0100     		.2byte	0x1
 9286 0dee 51       		.byte	0x51
 9287 0def 44000000 		.4byte	.LVL255
 9288 0df3 64000000 		.4byte	.LVL257
 9289 0df7 0100     		.2byte	0x1
 9290 0df9 50       		.byte	0x50
 9291 0dfa 70000000 		.4byte	.LVL260
 9292 0dfe 7A000000 		.4byte	.LVL261
 9293 0e02 0100     		.2byte	0x1
 9294 0e04 50       		.byte	0x50
 9295 0e05 8A000000 		.4byte	.LVL265
 9296 0e09 90000000 		.4byte	.LVL266
 9297 0e0d 0100     		.2byte	0x1
 9298 0e0f 50       		.byte	0x50
 9299 0e10 96000000 		.4byte	.LVL268
 9300 0e14 98000000 		.4byte	.LVL269
 9301 0e18 0100     		.2byte	0x1
 9302 0e1a 50       		.byte	0x50
 9303 0e1b 00000000 		.4byte	0
 9304 0e1f 00000000 		.4byte	0
 9305              	.LLST74:
 9306 0e23 00000000 		.4byte	.LVL272
 9307 0e27 05000000 		.4byte	.LVL273-1
ARM GAS  C:\Users\arh\AppData\Local\Temp\cc6sEv7h.s 			page 191


 9308 0e2b 0100     		.2byte	0x1
 9309 0e2d 50       		.byte	0x50
 9310 0e2e 05000000 		.4byte	.LVL273-1
 9311 0e32 12000000 		.4byte	.LFE18
 9312 0e36 0400     		.2byte	0x4
 9313 0e38 F3       		.byte	0xf3
 9314 0e39 01       		.uleb128 0x1
 9315 0e3a 50       		.byte	0x50
 9316 0e3b 9F       		.byte	0x9f
 9317 0e3c 00000000 		.4byte	0
 9318 0e40 00000000 		.4byte	0
 9319              	.LLST75:
 9320 0e44 00000000 		.4byte	.LVL272
 9321 0e48 05000000 		.4byte	.LVL273-1
 9322 0e4c 0100     		.2byte	0x1
 9323 0e4e 51       		.byte	0x51
 9324 0e4f 05000000 		.4byte	.LVL273-1
 9325 0e53 12000000 		.4byte	.LFE18
 9326 0e57 0400     		.2byte	0x4
 9327 0e59 F3       		.byte	0xf3
 9328 0e5a 01       		.uleb128 0x1
 9329 0e5b 51       		.byte	0x51
 9330 0e5c 9F       		.byte	0x9f
 9331 0e5d 00000000 		.4byte	0
 9332 0e61 00000000 		.4byte	0
 9333              	.LLST76:
 9334 0e65 00000000 		.4byte	.LVL274
 9335 0e69 07000000 		.4byte	.LVL275-1
 9336 0e6d 0100     		.2byte	0x1
 9337 0e6f 50       		.byte	0x50
 9338 0e70 07000000 		.4byte	.LVL275-1
 9339 0e74 3E000000 		.4byte	.LVL283
 9340 0e78 0100     		.2byte	0x1
 9341 0e7a 54       		.byte	0x54
 9342 0e7b 3E000000 		.4byte	.LVL283
 9343 0e7f 40000000 		.4byte	.LFE19
 9344 0e83 0400     		.2byte	0x4
 9345 0e85 F3       		.byte	0xf3
 9346 0e86 01       		.uleb128 0x1
 9347 0e87 50       		.byte	0x50
 9348 0e88 9F       		.byte	0x9f
 9349 0e89 00000000 		.4byte	0
 9350 0e8d 00000000 		.4byte	0
 9351              	.LLST77:
 9352 0e91 00000000 		.4byte	.LVL274
 9353 0e95 07000000 		.4byte	.LVL275-1
 9354 0e99 0100     		.2byte	0x1
 9355 0e9b 51       		.byte	0x51
 9356 0e9c 07000000 		.4byte	.LVL275-1
 9357 0ea0 40000000 		.4byte	.LFE19
 9358 0ea4 0400     		.2byte	0x4
 9359 0ea6 F3       		.byte	0xf3
 9360 0ea7 01       		.uleb128 0x1
 9361 0ea8 51       		.byte	0x51
 9362 0ea9 9F       		.byte	0x9f
 9363 0eaa 00000000 		.4byte	0
 9364 0eae 00000000 		.4byte	0
ARM GAS  C:\Users\arh\AppData\Local\Temp\cc6sEv7h.s 			page 192


 9365              	.LLST78:
 9366 0eb2 08000000 		.4byte	.LVL275
 9367 0eb6 10000000 		.4byte	.LVL276
 9368 0eba 0100     		.2byte	0x1
 9369 0ebc 50       		.byte	0x50
 9370 0ebd 10000000 		.4byte	.LVL276
 9371 0ec1 13000000 		.4byte	.LVL277-1
 9372 0ec5 0100     		.2byte	0x1
 9373 0ec7 51       		.byte	0x51
 9374 0ec8 3C000000 		.4byte	.LVL281
 9375 0ecc 3E000000 		.4byte	.LVL282
 9376 0ed0 0100     		.2byte	0x1
 9377 0ed2 50       		.byte	0x50
 9378 0ed3 00000000 		.4byte	0
 9379 0ed7 00000000 		.4byte	0
 9380              	.LLST79:
 9381 0edb 00000000 		.4byte	.LVL284
 9382 0edf 0F000000 		.4byte	.LVL285-1
 9383 0ee3 0100     		.2byte	0x1
 9384 0ee5 50       		.byte	0x50
 9385 0ee6 0F000000 		.4byte	.LVL285-1
 9386 0eea 54000000 		.4byte	.LVL302
 9387 0eee 0100     		.2byte	0x1
 9388 0ef0 55       		.byte	0x55
 9389 0ef1 54000000 		.4byte	.LVL302
 9390 0ef5 60000000 		.4byte	.LFE40
 9391 0ef9 0400     		.2byte	0x4
 9392 0efb F3       		.byte	0xf3
 9393 0efc 01       		.uleb128 0x1
 9394 0efd 50       		.byte	0x50
 9395 0efe 9F       		.byte	0x9f
 9396 0eff 00000000 		.4byte	0
 9397 0f03 00000000 		.4byte	0
 9398              	.LLST80:
 9399 0f07 00000000 		.4byte	.LVL284
 9400 0f0b 0F000000 		.4byte	.LVL285-1
 9401 0f0f 0100     		.2byte	0x1
 9402 0f11 51       		.byte	0x51
 9403 0f12 0F000000 		.4byte	.LVL285-1
 9404 0f16 54000000 		.4byte	.LVL301
 9405 0f1a 0100     		.2byte	0x1
 9406 0f1c 54       		.byte	0x54
 9407 0f1d 00000000 		.4byte	0
 9408 0f21 00000000 		.4byte	0
 9409              	.LLST81:
 9410 0f25 1C000000 		.4byte	.LVL287
 9411 0f29 2E000000 		.4byte	.LVL289
 9412 0f2d 0100     		.2byte	0x1
 9413 0f2f 50       		.byte	0x50
 9414 0f30 3A000000 		.4byte	.LVL294
 9415 0f34 44000000 		.4byte	.LVL295
 9416 0f38 0100     		.2byte	0x1
 9417 0f3a 50       		.byte	0x50
 9418 0f3b 00000000 		.4byte	0
 9419 0f3f 00000000 		.4byte	0
 9420              	.LLST82:
 9421 0f43 10000000 		.4byte	.LVL285
ARM GAS  C:\Users\arh\AppData\Local\Temp\cc6sEv7h.s 			page 193


 9422 0f47 14000000 		.4byte	.LVL286
 9423 0f4b 0200     		.2byte	0x2
 9424 0f4d 30       		.byte	0x30
 9425 0f4e 9F       		.byte	0x9f
 9426 0f4f 14000000 		.4byte	.LVL286
 9427 0f53 36000000 		.4byte	.LVL292
 9428 0f57 0100     		.2byte	0x1
 9429 0f59 56       		.byte	0x56
 9430 0f5a 38000000 		.4byte	.LVL293
 9431 0f5e 48000000 		.4byte	.LVL297
 9432 0f62 0100     		.2byte	0x1
 9433 0f64 56       		.byte	0x56
 9434 0f65 48000000 		.4byte	.LVL297
 9435 0f69 4A000000 		.4byte	.LVL298
 9436 0f6d 0100     		.2byte	0x1
 9437 0f6f 50       		.byte	0x50
 9438 0f70 4A000000 		.4byte	.LVL298
 9439 0f74 50000000 		.4byte	.LVL299
 9440 0f78 0100     		.2byte	0x1
 9441 0f7a 56       		.byte	0x56
 9442 0f7b 50000000 		.4byte	.LVL299
 9443 0f7f 52000000 		.4byte	.LVL300
 9444 0f83 1000     		.2byte	0x10
 9445 0f85 70       		.byte	0x70
 9446 0f86 00       		.sleb128 0
 9447 0f87 08       		.byte	0x8
 9448 0f88 FF       		.byte	0xff
 9449 0f89 1A       		.byte	0x1a
 9450 0f8a 75       		.byte	0x75
 9451 0f8b D800     		.sleb128 88
 9452 0f8d 94       		.byte	0x94
 9453 0f8e 01       		.byte	0x1
 9454 0f8f 48       		.byte	0x48
 9455 0f90 24       		.byte	0x24
 9456 0f91 48       		.byte	0x48
 9457 0f92 26       		.byte	0x26
 9458 0f93 22       		.byte	0x22
 9459 0f94 9F       		.byte	0x9f
 9460 0f95 52000000 		.4byte	.LVL300
 9461 0f99 54000000 		.4byte	.LVL303
 9462 0f9d 0100     		.2byte	0x1
 9463 0f9f 56       		.byte	0x56
 9464 0fa0 00000000 		.4byte	0
 9465 0fa4 00000000 		.4byte	0
 9466              	.LLST83:
 9467 0fa8 10000000 		.4byte	.LVL285
 9468 0fac 14000000 		.4byte	.LVL286
 9469 0fb0 0200     		.2byte	0x2
 9470 0fb2 30       		.byte	0x30
 9471 0fb3 9F       		.byte	0x9f
 9472 0fb4 14000000 		.4byte	.LVL286
 9473 0fb8 54000000 		.4byte	.LVL304
 9474 0fbc 0100     		.2byte	0x1
 9475 0fbe 57       		.byte	0x57
 9476 0fbf 00000000 		.4byte	0
 9477 0fc3 00000000 		.4byte	0
 9478              	.LLST84:
ARM GAS  C:\Users\arh\AppData\Local\Temp\cc6sEv7h.s 			page 194


 9479 0fc7 00000000 		.4byte	.LVL306
 9480 0fcb 23000000 		.4byte	.LVL308-1
 9481 0fcf 0100     		.2byte	0x1
 9482 0fd1 50       		.byte	0x50
 9483 0fd2 23000000 		.4byte	.LVL308-1
 9484 0fd6 2A000000 		.4byte	.LVL310
 9485 0fda 0100     		.2byte	0x1
 9486 0fdc 54       		.byte	0x54
 9487 0fdd 2A000000 		.4byte	.LVL310
 9488 0fe1 2D000000 		.4byte	.LVL311-1
 9489 0fe5 0100     		.2byte	0x1
 9490 0fe7 50       		.byte	0x50
 9491 0fe8 2D000000 		.4byte	.LVL311-1
 9492 0fec 34000000 		.4byte	.LVL313
 9493 0ff0 0100     		.2byte	0x1
 9494 0ff2 54       		.byte	0x54
 9495 0ff3 34000000 		.4byte	.LVL313
 9496 0ff7 37000000 		.4byte	.LVL314-1
 9497 0ffb 0100     		.2byte	0x1
 9498 0ffd 50       		.byte	0x50
 9499 0ffe 37000000 		.4byte	.LVL314-1
 9500 1002 3E000000 		.4byte	.LVL316
 9501 1006 0100     		.2byte	0x1
 9502 1008 54       		.byte	0x54
 9503 1009 3E000000 		.4byte	.LVL316
 9504 100d 41000000 		.4byte	.LVL317-1
 9505 1011 0100     		.2byte	0x1
 9506 1013 50       		.byte	0x50
 9507 1014 41000000 		.4byte	.LVL317-1
 9508 1018 52000000 		.4byte	.LVL320
 9509 101c 0100     		.2byte	0x1
 9510 101e 54       		.byte	0x54
 9511 101f 52000000 		.4byte	.LVL320
 9512 1023 54000000 		.4byte	.LFE21
 9513 1027 0400     		.2byte	0x4
 9514 1029 F3       		.byte	0xf3
 9515 102a 01       		.uleb128 0x1
 9516 102b 50       		.byte	0x50
 9517 102c 9F       		.byte	0x9f
 9518 102d 00000000 		.4byte	0
 9519 1031 00000000 		.4byte	0
 9520              	.LLST85:
 9521 1035 00000000 		.4byte	.LVL306
 9522 1039 23000000 		.4byte	.LVL308-1
 9523 103d 0100     		.2byte	0x1
 9524 103f 51       		.byte	0x51
 9525 1040 23000000 		.4byte	.LVL308-1
 9526 1044 2A000000 		.4byte	.LVL310
 9527 1048 0400     		.2byte	0x4
 9528 104a F3       		.byte	0xf3
 9529 104b 01       		.uleb128 0x1
 9530 104c 51       		.byte	0x51
 9531 104d 9F       		.byte	0x9f
 9532 104e 2A000000 		.4byte	.LVL310
 9533 1052 2D000000 		.4byte	.LVL311-1
 9534 1056 0100     		.2byte	0x1
 9535 1058 51       		.byte	0x51
ARM GAS  C:\Users\arh\AppData\Local\Temp\cc6sEv7h.s 			page 195


 9536 1059 2D000000 		.4byte	.LVL311-1
 9537 105d 32000000 		.4byte	.LVL312
 9538 1061 0400     		.2byte	0x4
 9539 1063 F3       		.byte	0xf3
 9540 1064 01       		.uleb128 0x1
 9541 1065 51       		.byte	0x51
 9542 1066 9F       		.byte	0x9f
 9543 1067 32000000 		.4byte	.LVL312
 9544 106b 34000000 		.4byte	.LVL313
 9545 106f 0100     		.2byte	0x1
 9546 1071 55       		.byte	0x55
 9547 1072 34000000 		.4byte	.LVL313
 9548 1076 37000000 		.4byte	.LVL314-1
 9549 107a 0100     		.2byte	0x1
 9550 107c 51       		.byte	0x51
 9551 107d 37000000 		.4byte	.LVL314-1
 9552 1081 3E000000 		.4byte	.LVL316
 9553 1085 0400     		.2byte	0x4
 9554 1087 F3       		.byte	0xf3
 9555 1088 01       		.uleb128 0x1
 9556 1089 51       		.byte	0x51
 9557 108a 9F       		.byte	0x9f
 9558 108b 3E000000 		.4byte	.LVL316
 9559 108f 41000000 		.4byte	.LVL317-1
 9560 1093 0100     		.2byte	0x1
 9561 1095 51       		.byte	0x51
 9562 1096 41000000 		.4byte	.LVL317-1
 9563 109a 46000000 		.4byte	.LVL318
 9564 109e 0400     		.2byte	0x4
 9565 10a0 F3       		.byte	0xf3
 9566 10a1 01       		.uleb128 0x1
 9567 10a2 51       		.byte	0x51
 9568 10a3 9F       		.byte	0x9f
 9569 10a4 46000000 		.4byte	.LVL318
 9570 10a8 52000000 		.4byte	.LVL321
 9571 10ac 0100     		.2byte	0x1
 9572 10ae 55       		.byte	0x55
 9573 10af 00000000 		.4byte	0
 9574 10b3 00000000 		.4byte	0
 9575              	.LLST86:
 9576 10b7 00000000 		.4byte	.LVL306
 9577 10bb 23000000 		.4byte	.LVL308-1
 9578 10bf 0100     		.2byte	0x1
 9579 10c1 52       		.byte	0x52
 9580 10c2 23000000 		.4byte	.LVL308-1
 9581 10c6 28000000 		.4byte	.LVL309
 9582 10ca 0400     		.2byte	0x4
 9583 10cc F3       		.byte	0xf3
 9584 10cd 01       		.uleb128 0x1
 9585 10ce 52       		.byte	0x52
 9586 10cf 9F       		.byte	0x9f
 9587 10d0 28000000 		.4byte	.LVL309
 9588 10d4 2A000000 		.4byte	.LVL310
 9589 10d8 0100     		.2byte	0x1
 9590 10da 56       		.byte	0x56
 9591 10db 2A000000 		.4byte	.LVL310
 9592 10df 2D000000 		.4byte	.LVL311-1
ARM GAS  C:\Users\arh\AppData\Local\Temp\cc6sEv7h.s 			page 196


 9593 10e3 0100     		.2byte	0x1
 9594 10e5 52       		.byte	0x52
 9595 10e6 2D000000 		.4byte	.LVL311-1
 9596 10ea 34000000 		.4byte	.LVL313
 9597 10ee 0400     		.2byte	0x4
 9598 10f0 F3       		.byte	0xf3
 9599 10f1 01       		.uleb128 0x1
 9600 10f2 52       		.byte	0x52
 9601 10f3 9F       		.byte	0x9f
 9602 10f4 34000000 		.4byte	.LVL313
 9603 10f8 37000000 		.4byte	.LVL314-1
 9604 10fc 0100     		.2byte	0x1
 9605 10fe 52       		.byte	0x52
 9606 10ff 37000000 		.4byte	.LVL314-1
 9607 1103 3C000000 		.4byte	.LVL315
 9608 1107 0400     		.2byte	0x4
 9609 1109 F3       		.byte	0xf3
 9610 110a 01       		.uleb128 0x1
 9611 110b 52       		.byte	0x52
 9612 110c 9F       		.byte	0x9f
 9613 110d 3C000000 		.4byte	.LVL315
 9614 1111 3E000000 		.4byte	.LVL316
 9615 1115 0100     		.2byte	0x1
 9616 1117 56       		.byte	0x56
 9617 1118 3E000000 		.4byte	.LVL316
 9618 111c 41000000 		.4byte	.LVL317-1
 9619 1120 0100     		.2byte	0x1
 9620 1122 52       		.byte	0x52
 9621 1123 41000000 		.4byte	.LVL317-1
 9622 1127 46000000 		.4byte	.LVL318
 9623 112b 0400     		.2byte	0x4
 9624 112d F3       		.byte	0xf3
 9625 112e 01       		.uleb128 0x1
 9626 112f 52       		.byte	0x52
 9627 1130 9F       		.byte	0x9f
 9628 1131 46000000 		.4byte	.LVL318
 9629 1135 52000000 		.4byte	.LVL322
 9630 1139 0100     		.2byte	0x1
 9631 113b 56       		.byte	0x56
 9632 113c 00000000 		.4byte	0
 9633 1140 00000000 		.4byte	0
 9634              	.LLST87:
 9635 1144 00000000 		.4byte	.LVL306
 9636 1148 0C000000 		.4byte	.LVL307
 9637 114c 0100     		.2byte	0x1
 9638 114e 53       		.byte	0x53
 9639 114f 0C000000 		.4byte	.LVL307
 9640 1153 54000000 		.4byte	.LFE21
 9641 1157 0400     		.2byte	0x4
 9642 1159 F3       		.byte	0xf3
 9643 115a 01       		.uleb128 0x1
 9644 115b 53       		.byte	0x53
 9645 115c 9F       		.byte	0x9f
 9646 115d 00000000 		.4byte	0
 9647 1161 00000000 		.4byte	0
 9648              	.LLST88:
 9649 1165 00000000 		.4byte	.LVL323
ARM GAS  C:\Users\arh\AppData\Local\Temp\cc6sEv7h.s 			page 197


 9650 1169 11000000 		.4byte	.LVL324-1
 9651 116d 0100     		.2byte	0x1
 9652 116f 50       		.byte	0x50
 9653 1170 11000000 		.4byte	.LVL324-1
 9654 1174 6E000000 		.4byte	.LVL342
 9655 1178 0100     		.2byte	0x1
 9656 117a 54       		.byte	0x54
 9657 117b 6E000000 		.4byte	.LVL342
 9658 117f 7C000000 		.4byte	.LFE22
 9659 1183 0400     		.2byte	0x4
 9660 1185 F3       		.byte	0xf3
 9661 1186 01       		.uleb128 0x1
 9662 1187 50       		.byte	0x50
 9663 1188 9F       		.byte	0x9f
 9664 1189 00000000 		.4byte	0
 9665 118d 00000000 		.4byte	0
 9666              	.LLST89:
 9667 1191 00000000 		.4byte	.LVL323
 9668 1195 11000000 		.4byte	.LVL324-1
 9669 1199 0100     		.2byte	0x1
 9670 119b 51       		.byte	0x51
 9671 119c 11000000 		.4byte	.LVL324-1
 9672 11a0 16000000 		.4byte	.LVL325
 9673 11a4 0400     		.2byte	0x4
 9674 11a6 F3       		.byte	0xf3
 9675 11a7 01       		.uleb128 0x1
 9676 11a8 51       		.byte	0x51
 9677 11a9 9F       		.byte	0x9f
 9678 11aa 16000000 		.4byte	.LVL325
 9679 11ae 50000000 		.4byte	.LVL330
 9680 11b2 0100     		.2byte	0x1
 9681 11b4 57       		.byte	0x57
 9682 11b5 52000000 		.4byte	.LVL331
 9683 11b9 5C000000 		.4byte	.LVL334
 9684 11bd 0100     		.2byte	0x1
 9685 11bf 57       		.byte	0x57
 9686 11c0 5E000000 		.4byte	.LVL335
 9687 11c4 6E000000 		.4byte	.LVL345
 9688 11c8 0100     		.2byte	0x1
 9689 11ca 57       		.byte	0x57
 9690 11cb 00000000 		.4byte	0
 9691 11cf 00000000 		.4byte	0
 9692              	.LLST90:
 9693 11d3 00000000 		.4byte	.LVL323
 9694 11d7 11000000 		.4byte	.LVL324-1
 9695 11db 0100     		.2byte	0x1
 9696 11dd 52       		.byte	0x52
 9697 11de 11000000 		.4byte	.LVL324-1
 9698 11e2 16000000 		.4byte	.LVL325
 9699 11e6 0400     		.2byte	0x4
 9700 11e8 F3       		.byte	0xf3
 9701 11e9 01       		.uleb128 0x1
 9702 11ea 52       		.byte	0x52
 9703 11eb 9F       		.byte	0x9f
 9704 11ec 16000000 		.4byte	.LVL325
 9705 11f0 56000000 		.4byte	.LVL332
 9706 11f4 0100     		.2byte	0x1
ARM GAS  C:\Users\arh\AppData\Local\Temp\cc6sEv7h.s 			page 198


 9707 11f6 56       		.byte	0x56
 9708 11f7 58000000 		.4byte	.LVL333
 9709 11fb 62000000 		.4byte	.LVL336
 9710 11ff 0100     		.2byte	0x1
 9711 1201 56       		.byte	0x56
 9712 1202 64000000 		.4byte	.LVL337
 9713 1206 6E000000 		.4byte	.LVL344
 9714 120a 0100     		.2byte	0x1
 9715 120c 56       		.byte	0x56
 9716 120d 00000000 		.4byte	0
 9717 1211 00000000 		.4byte	0
 9718              	.LLST91:
 9719 1215 00000000 		.4byte	.LVL323
 9720 1219 11000000 		.4byte	.LVL324-1
 9721 121d 0100     		.2byte	0x1
 9722 121f 53       		.byte	0x53
 9723 1220 11000000 		.4byte	.LVL324-1
 9724 1224 6E000000 		.4byte	.LVL343
 9725 1228 0100     		.2byte	0x1
 9726 122a 55       		.byte	0x55
 9727 122b 00000000 		.4byte	0
 9728 122f 00000000 		.4byte	0
 9729              	.LLST92:
 9730 1233 1E000000 		.4byte	.LVL326
 9731 1237 34000000 		.4byte	.LVL328
 9732 123b 0100     		.2byte	0x1
 9733 123d 50       		.byte	0x50
 9734 123e 6C000000 		.4byte	.LVL340
 9735 1242 6E000000 		.4byte	.LVL341
 9736 1246 0100     		.2byte	0x1
 9737 1248 50       		.byte	0x50
 9738 1249 00000000 		.4byte	0
 9739 124d 00000000 		.4byte	0
 9740              	.LLST93:
 9741 1251 38000000 		.4byte	.LVL329
 9742 1255 66000000 		.4byte	.LVL338
 9743 1259 0100     		.2byte	0x1
 9744 125b 50       		.byte	0x50
 9745 125c 00000000 		.4byte	0
 9746 1260 00000000 		.4byte	0
 9747              	.LLST94:
 9748 1264 12000000 		.4byte	.LVL324
 9749 1268 16000000 		.4byte	.LVL325
 9750 126c 0200     		.2byte	0x2
 9751 126e 30       		.byte	0x30
 9752 126f 9F       		.byte	0x9f
 9753 1270 16000000 		.4byte	.LVL325
 9754 1274 6E000000 		.4byte	.LVL346
 9755 1278 0100     		.2byte	0x1
 9756 127a 58       		.byte	0x58
 9757 127b 00000000 		.4byte	0
 9758 127f 00000000 		.4byte	0
 9759              	.LLST95:
 9760 1283 00000000 		.4byte	.LVL347
 9761 1287 09000000 		.4byte	.LVL348-1
 9762 128b 0100     		.2byte	0x1
 9763 128d 50       		.byte	0x50
ARM GAS  C:\Users\arh\AppData\Local\Temp\cc6sEv7h.s 			page 199


 9764 128e 09000000 		.4byte	.LVL348-1
 9765 1292 10000000 		.4byte	.LFE23
 9766 1296 0400     		.2byte	0x4
 9767 1298 F3       		.byte	0xf3
 9768 1299 01       		.uleb128 0x1
 9769 129a 50       		.byte	0x50
 9770 129b 9F       		.byte	0x9f
 9771 129c 00000000 		.4byte	0
 9772 12a0 00000000 		.4byte	0
 9773              	.LLST96:
 9774 12a4 00000000 		.4byte	.LVL347
 9775 12a8 09000000 		.4byte	.LVL348-1
 9776 12ac 0100     		.2byte	0x1
 9777 12ae 51       		.byte	0x51
 9778 12af 09000000 		.4byte	.LVL348-1
 9779 12b3 10000000 		.4byte	.LFE23
 9780 12b7 0400     		.2byte	0x4
 9781 12b9 F3       		.byte	0xf3
 9782 12ba 01       		.uleb128 0x1
 9783 12bb 51       		.byte	0x51
 9784 12bc 9F       		.byte	0x9f
 9785 12bd 00000000 		.4byte	0
 9786 12c1 00000000 		.4byte	0
 9787              	.LLST97:
 9788 12c5 00000000 		.4byte	.LVL347
 9789 12c9 09000000 		.4byte	.LVL348-1
 9790 12cd 0100     		.2byte	0x1
 9791 12cf 52       		.byte	0x52
 9792 12d0 09000000 		.4byte	.LVL348-1
 9793 12d4 10000000 		.4byte	.LFE23
 9794 12d8 0400     		.2byte	0x4
 9795 12da F3       		.byte	0xf3
 9796 12db 01       		.uleb128 0x1
 9797 12dc 52       		.byte	0x52
 9798 12dd 9F       		.byte	0x9f
 9799 12de 00000000 		.4byte	0
 9800 12e2 00000000 		.4byte	0
 9801              	.LLST98:
 9802 12e6 00000000 		.4byte	.LVL347
 9803 12ea 09000000 		.4byte	.LVL348-1
 9804 12ee 0100     		.2byte	0x1
 9805 12f0 53       		.byte	0x53
 9806 12f1 09000000 		.4byte	.LVL348-1
 9807 12f5 10000000 		.4byte	.LFE23
 9808 12f9 0400     		.2byte	0x4
 9809 12fb F3       		.byte	0xf3
 9810 12fc 01       		.uleb128 0x1
 9811 12fd 53       		.byte	0x53
 9812 12fe 9F       		.byte	0x9f
 9813 12ff 00000000 		.4byte	0
 9814 1303 00000000 		.4byte	0
 9815              	.LLST99:
 9816 1307 00000000 		.4byte	.LVL349
 9817 130b 09000000 		.4byte	.LVL350-1
 9818 130f 0100     		.2byte	0x1
 9819 1311 50       		.byte	0x50
 9820 1312 09000000 		.4byte	.LVL350-1
ARM GAS  C:\Users\arh\AppData\Local\Temp\cc6sEv7h.s 			page 200


 9821 1316 10000000 		.4byte	.LFE24
 9822 131a 0400     		.2byte	0x4
 9823 131c F3       		.byte	0xf3
 9824 131d 01       		.uleb128 0x1
 9825 131e 50       		.byte	0x50
 9826 131f 9F       		.byte	0x9f
 9827 1320 00000000 		.4byte	0
 9828 1324 00000000 		.4byte	0
 9829              	.LLST100:
 9830 1328 00000000 		.4byte	.LVL349
 9831 132c 09000000 		.4byte	.LVL350-1
 9832 1330 0100     		.2byte	0x1
 9833 1332 51       		.byte	0x51
 9834 1333 09000000 		.4byte	.LVL350-1
 9835 1337 10000000 		.4byte	.LFE24
 9836 133b 0400     		.2byte	0x4
 9837 133d F3       		.byte	0xf3
 9838 133e 01       		.uleb128 0x1
 9839 133f 51       		.byte	0x51
 9840 1340 9F       		.byte	0x9f
 9841 1341 00000000 		.4byte	0
 9842 1345 00000000 		.4byte	0
 9843              	.LLST101:
 9844 1349 00000000 		.4byte	.LVL349
 9845 134d 09000000 		.4byte	.LVL350-1
 9846 1351 0100     		.2byte	0x1
 9847 1353 52       		.byte	0x52
 9848 1354 09000000 		.4byte	.LVL350-1
 9849 1358 10000000 		.4byte	.LFE24
 9850 135c 0400     		.2byte	0x4
 9851 135e F3       		.byte	0xf3
 9852 135f 01       		.uleb128 0x1
 9853 1360 52       		.byte	0x52
 9854 1361 9F       		.byte	0x9f
 9855 1362 00000000 		.4byte	0
 9856 1366 00000000 		.4byte	0
 9857              	.LLST102:
 9858 136a 00000000 		.4byte	.LVL349
 9859 136e 09000000 		.4byte	.LVL350-1
 9860 1372 0100     		.2byte	0x1
 9861 1374 53       		.byte	0x53
 9862 1375 09000000 		.4byte	.LVL350-1
 9863 1379 10000000 		.4byte	.LFE24
 9864 137d 0400     		.2byte	0x4
 9865 137f F3       		.byte	0xf3
 9866 1380 01       		.uleb128 0x1
 9867 1381 53       		.byte	0x53
 9868 1382 9F       		.byte	0x9f
 9869 1383 00000000 		.4byte	0
 9870 1387 00000000 		.4byte	0
 9871              	.LLST103:
 9872 138b 00000000 		.4byte	.LVL351
 9873 138f 1B000000 		.4byte	.LVL354-1
 9874 1393 0100     		.2byte	0x1
 9875 1395 50       		.byte	0x50
 9876 1396 1B000000 		.4byte	.LVL354-1
 9877 139a A6000000 		.4byte	.LVL383
ARM GAS  C:\Users\arh\AppData\Local\Temp\cc6sEv7h.s 			page 201


 9878 139e 0100     		.2byte	0x1
 9879 13a0 57       		.byte	0x57
 9880 13a1 A6000000 		.4byte	.LVL383
 9881 13a5 BC000000 		.4byte	.LFE25
 9882 13a9 0400     		.2byte	0x4
 9883 13ab F3       		.byte	0xf3
 9884 13ac 01       		.uleb128 0x1
 9885 13ad 50       		.byte	0x50
 9886 13ae 9F       		.byte	0x9f
 9887 13af 00000000 		.4byte	0
 9888 13b3 00000000 		.4byte	0
 9889              	.LLST104:
 9890 13b7 00000000 		.4byte	.LVL351
 9891 13bb 1B000000 		.4byte	.LVL354-1
 9892 13bf 0100     		.2byte	0x1
 9893 13c1 51       		.byte	0x51
 9894 13c2 1B000000 		.4byte	.LVL354-1
 9895 13c6 22000000 		.4byte	.LVL355
 9896 13ca 0400     		.2byte	0x4
 9897 13cc F3       		.byte	0xf3
 9898 13cd 01       		.uleb128 0x1
 9899 13ce 51       		.byte	0x51
 9900 13cf 9F       		.byte	0x9f
 9901 13d0 22000000 		.4byte	.LVL355
 9902 13d4 90000000 		.4byte	.LVL373
 9903 13d8 0100     		.2byte	0x1
 9904 13da 58       		.byte	0x58
 9905 13db 90000000 		.4byte	.LVL373
 9906 13df 94000000 		.4byte	.LVL374
 9907 13e3 0100     		.2byte	0x1
 9908 13e5 53       		.byte	0x53
 9909 13e6 94000000 		.4byte	.LVL374
 9910 13ea 98000000 		.4byte	.LVL375
 9911 13ee 0600     		.2byte	0x6
 9912 13f0 78       		.byte	0x78
 9913 13f1 00       		.sleb128 0
 9914 13f2 75       		.byte	0x75
 9915 13f3 00       		.sleb128 0
 9916 13f4 22       		.byte	0x22
 9917 13f5 9F       		.byte	0x9f
 9918 13f6 98000000 		.4byte	.LVL375
 9919 13fa A6000000 		.4byte	.LVL384
 9920 13fe 0100     		.2byte	0x1
 9921 1400 58       		.byte	0x58
 9922 1401 00000000 		.4byte	0
 9923 1405 00000000 		.4byte	0
 9924              	.LLST105:
 9925 1409 00000000 		.4byte	.LVL351
 9926 140d 1B000000 		.4byte	.LVL354-1
 9927 1411 0100     		.2byte	0x1
 9928 1413 52       		.byte	0x52
 9929 1414 1B000000 		.4byte	.LVL354-1
 9930 1418 BC000000 		.4byte	.LFE25
 9931 141c 0400     		.2byte	0x4
 9932 141e F3       		.byte	0xf3
 9933 141f 01       		.uleb128 0x1
 9934 1420 52       		.byte	0x52
ARM GAS  C:\Users\arh\AppData\Local\Temp\cc6sEv7h.s 			page 202


 9935 1421 9F       		.byte	0x9f
 9936 1422 00000000 		.4byte	0
 9937 1426 00000000 		.4byte	0
 9938              	.LLST106:
 9939 142a 00000000 		.4byte	.LVL351
 9940 142e 16000000 		.4byte	.LVL352
 9941 1432 0100     		.2byte	0x1
 9942 1434 53       		.byte	0x53
 9943 1435 16000000 		.4byte	.LVL352
 9944 1439 BC000000 		.4byte	.LFE25
 9945 143d 0400     		.2byte	0x4
 9946 143f F3       		.byte	0xf3
 9947 1440 01       		.uleb128 0x1
 9948 1441 53       		.byte	0x53
 9949 1442 9F       		.byte	0x9f
 9950 1443 00000000 		.4byte	0
 9951 1447 00000000 		.4byte	0
 9952              	.LLST107:
 9953 144b 00000000 		.4byte	.LVL351
 9954 144f 22000000 		.4byte	.LVL355
 9955 1453 0200     		.2byte	0x2
 9956 1455 91       		.byte	0x91
 9957 1456 04       		.sleb128 4
 9958 1457 22000000 		.4byte	.LVL355
 9959 145b A6000000 		.4byte	.LVL382
 9960 145f 0100     		.2byte	0x1
 9961 1461 56       		.byte	0x56
 9962 1462 00000000 		.4byte	0
 9963 1466 00000000 		.4byte	0
 9964              	.LLST108:
 9965 146a 18000000 		.4byte	.LVL353
 9966 146e 22000000 		.4byte	.LVL355
 9967 1472 0300     		.2byte	0x3
 9968 1474 09       		.byte	0x9
 9969 1475 FF       		.byte	0xff
 9970 1476 9F       		.byte	0x9f
 9971 1477 22000000 		.4byte	.LVL355
 9972 147b 58000000 		.4byte	.LVL363
 9973 147f 0200     		.2byte	0x2
 9974 1481 91       		.byte	0x91
 9975 1482 58       		.sleb128 -40
 9976 1483 66000000 		.4byte	.LVL367
 9977 1487 74000000 		.4byte	.LVL369
 9978 148b 0200     		.2byte	0x2
 9979 148d 91       		.byte	0x91
 9980 148e 58       		.sleb128 -40
 9981 148f 78000000 		.4byte	.LVL371
 9982 1493 A2000000 		.4byte	.LVL379
 9983 1497 0200     		.2byte	0x2
 9984 1499 91       		.byte	0x91
 9985 149a 54       		.sleb128 -44
 9986 149b A2000000 		.4byte	.LVL379
 9987 149f BC000000 		.4byte	.LFE25
 9988 14a3 0200     		.2byte	0x2
 9989 14a5 91       		.byte	0x91
 9990 14a6 58       		.sleb128 -40
 9991 14a7 00000000 		.4byte	0
ARM GAS  C:\Users\arh\AppData\Local\Temp\cc6sEv7h.s 			page 203


 9992 14ab 00000000 		.4byte	0
 9993              	.LLST109:
 9994 14af 2E000000 		.4byte	.LVL357
 9995 14b3 3E000000 		.4byte	.LVL359
 9996 14b7 0100     		.2byte	0x1
 9997 14b9 50       		.byte	0x50
 9998 14ba 3E000000 		.4byte	.LVL359
 9999 14be 41000000 		.4byte	.LVL360-1
 10000 14c2 0100     		.2byte	0x1
 10001 14c4 51       		.byte	0x51
 10002 14c5 41000000 		.4byte	.LVL360-1
 10003 14c9 A2000000 		.4byte	.LVL379
 10004 14cd 0200     		.2byte	0x2
 10005 14cf 91       		.byte	0x91
 10006 14d0 54       		.sleb128 -44
 10007 14d1 A2000000 		.4byte	.LVL379
 10008 14d5 A4000000 		.4byte	.LVL380
 10009 14d9 0100     		.2byte	0x1
 10010 14db 50       		.byte	0x50
 10011 14dc A4000000 		.4byte	.LVL380
 10012 14e0 BC000000 		.4byte	.LFE25
 10013 14e4 0100     		.2byte	0x1
 10014 14e6 51       		.byte	0x51
 10015 14e7 00000000 		.4byte	0
 10016 14eb 00000000 		.4byte	0
 10017              	.LLST110:
 10018 14ef 44000000 		.4byte	.LVL361
 10019 14f3 5A000000 		.4byte	.LVL364
 10020 14f7 0100     		.2byte	0x1
 10021 14f9 55       		.byte	0x55
 10022 14fa 5C000000 		.4byte	.LVL365
 10023 14fe 76000000 		.4byte	.LVL370
 10024 1502 0100     		.2byte	0x1
 10025 1504 55       		.byte	0x55
 10026 1505 78000000 		.4byte	.LVL371
 10027 1509 9A000000 		.4byte	.LVL376
 10028 150d 0100     		.2byte	0x1
 10029 150f 55       		.byte	0x55
 10030 1510 00000000 		.4byte	0
 10031 1514 00000000 		.4byte	0
 10032              	.LLST111:
 10033 1518 1C000000 		.4byte	.LVL354
 10034 151c 22000000 		.4byte	.LVL355
 10035 1520 0200     		.2byte	0x2
 10036 1522 30       		.byte	0x30
 10037 1523 9F       		.byte	0x9f
 10038 1524 22000000 		.4byte	.LVL355
 10039 1528 A6000000 		.4byte	.LVL381
 10040 152c 0100     		.2byte	0x1
 10041 152e 54       		.byte	0x54
 10042 152f 00000000 		.4byte	0
 10043 1533 00000000 		.4byte	0
 10044              	.LLST112:
 10045 1537 58000000 		.4byte	.LVL363
 10046 153b 66000000 		.4byte	.LVL367
 10047 153f 0100     		.2byte	0x1
 10048 1541 50       		.byte	0x50
ARM GAS  C:\Users\arh\AppData\Local\Temp\cc6sEv7h.s 			page 204


 10049 1542 74000000 		.4byte	.LVL369
 10050 1546 78000000 		.4byte	.LVL371
 10051 154a 0100     		.2byte	0x1
 10052 154c 50       		.byte	0x50
 10053 154d 78000000 		.4byte	.LVL371
 10054 1551 A0000000 		.4byte	.LVL378
 10055 1555 0200     		.2byte	0x2
 10056 1557 91       		.byte	0x91
 10057 1558 58       		.sleb128 -40
 10058 1559 00000000 		.4byte	0
 10059 155d 00000000 		.4byte	0
 10060              	.LLST113:
 10061 1561 00000000 		.4byte	.LVL385
 10062 1565 1B000000 		.4byte	.LVL388-1
 10063 1569 0100     		.2byte	0x1
 10064 156b 50       		.byte	0x50
 10065 156c 1B000000 		.4byte	.LVL388-1
 10066 1570 A6000000 		.4byte	.LVL417
 10067 1574 0100     		.2byte	0x1
 10068 1576 57       		.byte	0x57
 10069 1577 A6000000 		.4byte	.LVL417
 10070 157b BC000000 		.4byte	.LFE26
 10071 157f 0400     		.2byte	0x4
 10072 1581 F3       		.byte	0xf3
 10073 1582 01       		.uleb128 0x1
 10074 1583 50       		.byte	0x50
 10075 1584 9F       		.byte	0x9f
 10076 1585 00000000 		.4byte	0
 10077 1589 00000000 		.4byte	0
 10078              	.LLST114:
 10079 158d 00000000 		.4byte	.LVL385
 10080 1591 1B000000 		.4byte	.LVL388-1
 10081 1595 0100     		.2byte	0x1
 10082 1597 51       		.byte	0x51
 10083 1598 1B000000 		.4byte	.LVL388-1
 10084 159c 22000000 		.4byte	.LVL389
 10085 15a0 0400     		.2byte	0x4
 10086 15a2 F3       		.byte	0xf3
 10087 15a3 01       		.uleb128 0x1
 10088 15a4 51       		.byte	0x51
 10089 15a5 9F       		.byte	0x9f
 10090 15a6 22000000 		.4byte	.LVL389
 10091 15aa 90000000 		.4byte	.LVL407
 10092 15ae 0100     		.2byte	0x1
 10093 15b0 58       		.byte	0x58
 10094 15b1 90000000 		.4byte	.LVL407
 10095 15b5 94000000 		.4byte	.LVL408
 10096 15b9 0100     		.2byte	0x1
 10097 15bb 53       		.byte	0x53
 10098 15bc 94000000 		.4byte	.LVL408
 10099 15c0 98000000 		.4byte	.LVL409
 10100 15c4 0600     		.2byte	0x6
 10101 15c6 78       		.byte	0x78
 10102 15c7 00       		.sleb128 0
 10103 15c8 75       		.byte	0x75
 10104 15c9 00       		.sleb128 0
 10105 15ca 22       		.byte	0x22
ARM GAS  C:\Users\arh\AppData\Local\Temp\cc6sEv7h.s 			page 205


 10106 15cb 9F       		.byte	0x9f
 10107 15cc 98000000 		.4byte	.LVL409
 10108 15d0 A6000000 		.4byte	.LVL418
 10109 15d4 0100     		.2byte	0x1
 10110 15d6 58       		.byte	0x58
 10111 15d7 00000000 		.4byte	0
 10112 15db 00000000 		.4byte	0
 10113              	.LLST115:
 10114 15df 00000000 		.4byte	.LVL385
 10115 15e3 1B000000 		.4byte	.LVL388-1
 10116 15e7 0100     		.2byte	0x1
 10117 15e9 52       		.byte	0x52
 10118 15ea 1B000000 		.4byte	.LVL388-1
 10119 15ee BC000000 		.4byte	.LFE26
 10120 15f2 0400     		.2byte	0x4
 10121 15f4 F3       		.byte	0xf3
 10122 15f5 01       		.uleb128 0x1
 10123 15f6 52       		.byte	0x52
 10124 15f7 9F       		.byte	0x9f
 10125 15f8 00000000 		.4byte	0
 10126 15fc 00000000 		.4byte	0
 10127              	.LLST116:
 10128 1600 00000000 		.4byte	.LVL385
 10129 1604 16000000 		.4byte	.LVL386
 10130 1608 0100     		.2byte	0x1
 10131 160a 53       		.byte	0x53
 10132 160b 16000000 		.4byte	.LVL386
 10133 160f BC000000 		.4byte	.LFE26
 10134 1613 0400     		.2byte	0x4
 10135 1615 F3       		.byte	0xf3
 10136 1616 01       		.uleb128 0x1
 10137 1617 53       		.byte	0x53
 10138 1618 9F       		.byte	0x9f
 10139 1619 00000000 		.4byte	0
 10140 161d 00000000 		.4byte	0
 10141              	.LLST117:
 10142 1621 00000000 		.4byte	.LVL385
 10143 1625 22000000 		.4byte	.LVL389
 10144 1629 0200     		.2byte	0x2
 10145 162b 91       		.byte	0x91
 10146 162c 04       		.sleb128 4
 10147 162d 22000000 		.4byte	.LVL389
 10148 1631 A6000000 		.4byte	.LVL416
 10149 1635 0100     		.2byte	0x1
 10150 1637 56       		.byte	0x56
 10151 1638 00000000 		.4byte	0
 10152 163c 00000000 		.4byte	0
 10153              	.LLST118:
 10154 1640 18000000 		.4byte	.LVL387
 10155 1644 22000000 		.4byte	.LVL389
 10156 1648 0300     		.2byte	0x3
 10157 164a 09       		.byte	0x9
 10158 164b FF       		.byte	0xff
 10159 164c 9F       		.byte	0x9f
 10160 164d 22000000 		.4byte	.LVL389
 10161 1651 58000000 		.4byte	.LVL397
 10162 1655 0200     		.2byte	0x2
ARM GAS  C:\Users\arh\AppData\Local\Temp\cc6sEv7h.s 			page 206


 10163 1657 91       		.byte	0x91
 10164 1658 58       		.sleb128 -40
 10165 1659 66000000 		.4byte	.LVL401
 10166 165d 74000000 		.4byte	.LVL403
 10167 1661 0200     		.2byte	0x2
 10168 1663 91       		.byte	0x91
 10169 1664 58       		.sleb128 -40
 10170 1665 78000000 		.4byte	.LVL405
 10171 1669 A2000000 		.4byte	.LVL413
 10172 166d 0200     		.2byte	0x2
 10173 166f 91       		.byte	0x91
 10174 1670 54       		.sleb128 -44
 10175 1671 A2000000 		.4byte	.LVL413
 10176 1675 BC000000 		.4byte	.LFE26
 10177 1679 0200     		.2byte	0x2
 10178 167b 91       		.byte	0x91
 10179 167c 58       		.sleb128 -40
 10180 167d 00000000 		.4byte	0
 10181 1681 00000000 		.4byte	0
 10182              	.LLST119:
 10183 1685 2E000000 		.4byte	.LVL391
 10184 1689 3E000000 		.4byte	.LVL393
 10185 168d 0100     		.2byte	0x1
 10186 168f 50       		.byte	0x50
 10187 1690 3E000000 		.4byte	.LVL393
 10188 1694 41000000 		.4byte	.LVL394-1
 10189 1698 0100     		.2byte	0x1
 10190 169a 51       		.byte	0x51
 10191 169b 41000000 		.4byte	.LVL394-1
 10192 169f A2000000 		.4byte	.LVL413
 10193 16a3 0200     		.2byte	0x2
 10194 16a5 91       		.byte	0x91
 10195 16a6 54       		.sleb128 -44
 10196 16a7 A2000000 		.4byte	.LVL413
 10197 16ab A4000000 		.4byte	.LVL414
 10198 16af 0100     		.2byte	0x1
 10199 16b1 50       		.byte	0x50
 10200 16b2 A4000000 		.4byte	.LVL414
 10201 16b6 BC000000 		.4byte	.LFE26
 10202 16ba 0100     		.2byte	0x1
 10203 16bc 51       		.byte	0x51
 10204 16bd 00000000 		.4byte	0
 10205 16c1 00000000 		.4byte	0
 10206              	.LLST120:
 10207 16c5 44000000 		.4byte	.LVL395
 10208 16c9 5A000000 		.4byte	.LVL398
 10209 16cd 0100     		.2byte	0x1
 10210 16cf 55       		.byte	0x55
 10211 16d0 5C000000 		.4byte	.LVL399
 10212 16d4 76000000 		.4byte	.LVL404
 10213 16d8 0100     		.2byte	0x1
 10214 16da 55       		.byte	0x55
 10215 16db 78000000 		.4byte	.LVL405
 10216 16df 9A000000 		.4byte	.LVL410
 10217 16e3 0100     		.2byte	0x1
 10218 16e5 55       		.byte	0x55
 10219 16e6 00000000 		.4byte	0
ARM GAS  C:\Users\arh\AppData\Local\Temp\cc6sEv7h.s 			page 207


 10220 16ea 00000000 		.4byte	0
 10221              	.LLST121:
 10222 16ee 1C000000 		.4byte	.LVL388
 10223 16f2 22000000 		.4byte	.LVL389
 10224 16f6 0200     		.2byte	0x2
 10225 16f8 30       		.byte	0x30
 10226 16f9 9F       		.byte	0x9f
 10227 16fa 22000000 		.4byte	.LVL389
 10228 16fe A6000000 		.4byte	.LVL415
 10229 1702 0100     		.2byte	0x1
 10230 1704 54       		.byte	0x54
 10231 1705 00000000 		.4byte	0
 10232 1709 00000000 		.4byte	0
 10233              	.LLST122:
 10234 170d 58000000 		.4byte	.LVL397
 10235 1711 66000000 		.4byte	.LVL401
 10236 1715 0100     		.2byte	0x1
 10237 1717 50       		.byte	0x50
 10238 1718 74000000 		.4byte	.LVL403
 10239 171c 78000000 		.4byte	.LVL405
 10240 1720 0100     		.2byte	0x1
 10241 1722 50       		.byte	0x50
 10242 1723 78000000 		.4byte	.LVL405
 10243 1727 A0000000 		.4byte	.LVL412
 10244 172b 0200     		.2byte	0x2
 10245 172d 91       		.byte	0x91
 10246 172e 58       		.sleb128 -40
 10247 172f 00000000 		.4byte	0
 10248 1733 00000000 		.4byte	0
 10249              	.LLST123:
 10250 1737 00000000 		.4byte	.LVL420
 10251 173b 0B000000 		.4byte	.LVL421-1
 10252 173f 0100     		.2byte	0x1
 10253 1741 50       		.byte	0x50
 10254 1742 0B000000 		.4byte	.LVL421-1
 10255 1746 0E000000 		.4byte	.LFE28
 10256 174a 0400     		.2byte	0x4
 10257 174c F3       		.byte	0xf3
 10258 174d 01       		.uleb128 0x1
 10259 174e 50       		.byte	0x50
 10260 174f 9F       		.byte	0x9f
 10261 1750 00000000 		.4byte	0
 10262 1754 00000000 		.4byte	0
 10263              	.LLST124:
 10264 1758 00000000 		.4byte	.LVL422
 10265 175c 0B000000 		.4byte	.LVL423-1
 10266 1760 0100     		.2byte	0x1
 10267 1762 50       		.byte	0x50
 10268 1763 0B000000 		.4byte	.LVL423-1
 10269 1767 0E000000 		.4byte	.LFE29
 10270 176b 0400     		.2byte	0x4
 10271 176d F3       		.byte	0xf3
 10272 176e 01       		.uleb128 0x1
 10273 176f 50       		.byte	0x50
 10274 1770 9F       		.byte	0x9f
 10275 1771 00000000 		.4byte	0
 10276 1775 00000000 		.4byte	0
ARM GAS  C:\Users\arh\AppData\Local\Temp\cc6sEv7h.s 			page 208


 10277              	.LLST125:
 10278 1779 00000000 		.4byte	.LVL424
 10279 177d 0B000000 		.4byte	.LVL425-1
 10280 1781 0100     		.2byte	0x1
 10281 1783 50       		.byte	0x50
 10282 1784 0B000000 		.4byte	.LVL425-1
 10283 1788 0E000000 		.4byte	.LFE30
 10284 178c 0400     		.2byte	0x4
 10285 178e F3       		.byte	0xf3
 10286 178f 01       		.uleb128 0x1
 10287 1790 50       		.byte	0x50
 10288 1791 9F       		.byte	0x9f
 10289 1792 00000000 		.4byte	0
 10290 1796 00000000 		.4byte	0
 10291              	.LLST126:
 10292 179a 00000000 		.4byte	.LVL430
 10293 179e 0E000000 		.4byte	.LVL431
 10294 17a2 0100     		.2byte	0x1
 10295 17a4 50       		.byte	0x50
 10296 17a5 0E000000 		.4byte	.LVL431
 10297 17a9 18000000 		.4byte	.LVL434
 10298 17ad 0100     		.2byte	0x1
 10299 17af 54       		.byte	0x54
 10300 17b0 18000000 		.4byte	.LVL434
 10301 17b4 1A000000 		.4byte	.LFE39
 10302 17b8 0400     		.2byte	0x4
 10303 17ba F3       		.byte	0xf3
 10304 17bb 01       		.uleb128 0x1
 10305 17bc 50       		.byte	0x50
 10306 17bd 9F       		.byte	0x9f
 10307 17be 00000000 		.4byte	0
 10308 17c2 00000000 		.4byte	0
 10309              	.LLST127:
 10310 17c6 00000000 		.4byte	.LVL430
 10311 17ca 11000000 		.4byte	.LVL432-1
 10312 17ce 0100     		.2byte	0x1
 10313 17d0 51       		.byte	0x51
 10314 17d1 11000000 		.4byte	.LVL432-1
 10315 17d5 1A000000 		.4byte	.LFE39
 10316 17d9 0400     		.2byte	0x4
 10317 17db F3       		.byte	0xf3
 10318 17dc 01       		.uleb128 0x1
 10319 17dd 51       		.byte	0x51
 10320 17de 9F       		.byte	0x9f
 10321 17df 00000000 		.4byte	0
 10322 17e3 00000000 		.4byte	0
 10323              	.LLST128:
 10324 17e7 00000000 		.4byte	.LVL435
 10325 17eb 19000000 		.4byte	.LVL437-1
 10326 17ef 0100     		.2byte	0x1
 10327 17f1 50       		.byte	0x50
 10328 17f2 19000000 		.4byte	.LVL437-1
 10329 17f6 22000000 		.4byte	.LFE42
 10330 17fa 0400     		.2byte	0x4
 10331 17fc F3       		.byte	0xf3
 10332 17fd 01       		.uleb128 0x1
 10333 17fe 50       		.byte	0x50
ARM GAS  C:\Users\arh\AppData\Local\Temp\cc6sEv7h.s 			page 209


 10334 17ff 9F       		.byte	0x9f
 10335 1800 00000000 		.4byte	0
 10336 1804 00000000 		.4byte	0
 10337              	.LLST129:
 10338 1808 00000000 		.4byte	.LVL435
 10339 180c 0A000000 		.4byte	.LVL436
 10340 1810 0100     		.2byte	0x1
 10341 1812 51       		.byte	0x51
 10342 1813 0A000000 		.4byte	.LVL436
 10343 1817 22000000 		.4byte	.LFE42
 10344 181b 0400     		.2byte	0x4
 10345 181d F3       		.byte	0xf3
 10346 181e 01       		.uleb128 0x1
 10347 181f 51       		.byte	0x51
 10348 1820 9F       		.byte	0x9f
 10349 1821 00000000 		.4byte	0
 10350 1825 00000000 		.4byte	0
 10351              	.LLST130:
 10352 1829 00000000 		.4byte	.LVL438
 10353 182d 09000000 		.4byte	.LVL439-1
 10354 1831 0100     		.2byte	0x1
 10355 1833 50       		.byte	0x50
 10356 1834 09000000 		.4byte	.LVL439-1
 10357 1838 10000000 		.4byte	.LFE44
 10358 183c 0400     		.2byte	0x4
 10359 183e F3       		.byte	0xf3
 10360 183f 01       		.uleb128 0x1
 10361 1840 50       		.byte	0x50
 10362 1841 9F       		.byte	0x9f
 10363 1842 00000000 		.4byte	0
 10364 1846 00000000 		.4byte	0
 10365              	.LLST131:
 10366 184a 00000000 		.4byte	.LVL438
 10367 184e 09000000 		.4byte	.LVL439-1
 10368 1852 0100     		.2byte	0x1
 10369 1854 51       		.byte	0x51
 10370 1855 09000000 		.4byte	.LVL439-1
 10371 1859 10000000 		.4byte	.LFE44
 10372 185d 0400     		.2byte	0x4
 10373 185f F3       		.byte	0xf3
 10374 1860 01       		.uleb128 0x1
 10375 1861 51       		.byte	0x51
 10376 1862 9F       		.byte	0x9f
 10377 1863 00000000 		.4byte	0
 10378 1867 00000000 		.4byte	0
 10379              	.LLST132:
 10380 186b 00000000 		.4byte	.LVL440
 10381 186f 09000000 		.4byte	.LVL441-1
 10382 1873 0100     		.2byte	0x1
 10383 1875 50       		.byte	0x50
 10384 1876 09000000 		.4byte	.LVL441-1
 10385 187a 10000000 		.4byte	.LFE45
 10386 187e 0400     		.2byte	0x4
 10387 1880 F3       		.byte	0xf3
 10388 1881 01       		.uleb128 0x1
 10389 1882 50       		.byte	0x50
 10390 1883 9F       		.byte	0x9f
ARM GAS  C:\Users\arh\AppData\Local\Temp\cc6sEv7h.s 			page 210


 10391 1884 00000000 		.4byte	0
 10392 1888 00000000 		.4byte	0
 10393              	.LLST133:
 10394 188c 00000000 		.4byte	.LVL440
 10395 1890 09000000 		.4byte	.LVL441-1
 10396 1894 0100     		.2byte	0x1
 10397 1896 51       		.byte	0x51
 10398 1897 09000000 		.4byte	.LVL441-1
 10399 189b 10000000 		.4byte	.LFE45
 10400 189f 0400     		.2byte	0x4
 10401 18a1 F3       		.byte	0xf3
 10402 18a2 01       		.uleb128 0x1
 10403 18a3 51       		.byte	0x51
 10404 18a4 9F       		.byte	0x9f
 10405 18a5 00000000 		.4byte	0
 10406 18a9 00000000 		.4byte	0
 10407              	.LLST134:
 10408 18ad 00000000 		.4byte	.LVL442
 10409 18b1 09000000 		.4byte	.LVL443-1
 10410 18b5 0100     		.2byte	0x1
 10411 18b7 50       		.byte	0x50
 10412 18b8 09000000 		.4byte	.LVL443-1
 10413 18bc 10000000 		.4byte	.LFE46
 10414 18c0 0400     		.2byte	0x4
 10415 18c2 F3       		.byte	0xf3
 10416 18c3 01       		.uleb128 0x1
 10417 18c4 50       		.byte	0x50
 10418 18c5 9F       		.byte	0x9f
 10419 18c6 00000000 		.4byte	0
 10420 18ca 00000000 		.4byte	0
 10421              	.LLST135:
 10422 18ce 00000000 		.4byte	.LVL442
 10423 18d2 09000000 		.4byte	.LVL443-1
 10424 18d6 0100     		.2byte	0x1
 10425 18d8 51       		.byte	0x51
 10426 18d9 09000000 		.4byte	.LVL443-1
 10427 18dd 10000000 		.4byte	.LFE46
 10428 18e1 0400     		.2byte	0x4
 10429 18e3 F3       		.byte	0xf3
 10430 18e4 01       		.uleb128 0x1
 10431 18e5 51       		.byte	0x51
 10432 18e6 9F       		.byte	0x9f
 10433 18e7 00000000 		.4byte	0
 10434 18eb 00000000 		.4byte	0
 10435              		.section	.debug_aranges,"",%progbits
 10436 0000 94010000 		.4byte	0x194
 10437 0004 0200     		.2byte	0x2
 10438 0006 00000000 		.4byte	.Ldebug_info0
 10439 000a 04       		.byte	0x4
 10440 000b 00       		.byte	0
 10441 000c 0000     		.2byte	0
 10442 000e 0000     		.2byte	0
 10443 0010 00000000 		.4byte	.LFB0
 10444 0014 04000000 		.4byte	.LFE0-.LFB0
 10445 0018 00000000 		.4byte	.LFB1
 10446 001c 0E000000 		.4byte	.LFE1-.LFB1
 10447 0020 00000000 		.4byte	.LFB11
ARM GAS  C:\Users\arh\AppData\Local\Temp\cc6sEv7h.s 			page 211


 10448 0024 26000000 		.4byte	.LFE11-.LFB11
 10449 0028 00000000 		.4byte	.LFB12
 10450 002c 26000000 		.4byte	.LFE12-.LFB12
 10451 0030 00000000 		.4byte	.LFB31
 10452 0034 04000000 		.4byte	.LFE31-.LFB31
 10453 0038 00000000 		.4byte	.LFB33
 10454 003c 06000000 		.4byte	.LFE33-.LFB33
 10455 0040 00000000 		.4byte	.LFB35
 10456 0044 0A000000 		.4byte	.LFE35-.LFB35
 10457 0048 00000000 		.4byte	.LFB37
 10458 004c 18000000 		.4byte	.LFE37-.LFB37
 10459 0050 00000000 		.4byte	.LFB2
 10460 0054 D0000000 		.4byte	.LFE2-.LFB2
 10461 0058 00000000 		.4byte	.LFB3
 10462 005c 26000000 		.4byte	.LFE3-.LFB3
 10463 0060 00000000 		.4byte	.LFB4
 10464 0064 06000000 		.4byte	.LFE4-.LFB4
 10465 0068 00000000 		.4byte	.LFB5
 10466 006c 06000000 		.4byte	.LFE5-.LFB5
 10467 0070 00000000 		.4byte	.LFB6
 10468 0074 06000000 		.4byte	.LFE6-.LFB6
 10469 0078 00000000 		.4byte	.LFB7
 10470 007c 06000000 		.4byte	.LFE7-.LFB7
 10471 0080 00000000 		.4byte	.LFB8
 10472 0084 06000000 		.4byte	.LFE8-.LFB8
 10473 0088 00000000 		.4byte	.LFB9
 10474 008c 38000000 		.4byte	.LFE9-.LFB9
 10475 0090 00000000 		.4byte	.LFB14
 10476 0094 34000000 		.4byte	.LFE14-.LFB14
 10477 0098 00000000 		.4byte	.LFB10
 10478 009c 16000000 		.4byte	.LFE10-.LFB10
 10479 00a0 00000000 		.4byte	.LFB13
 10480 00a4 E4000000 		.4byte	.LFE13-.LFB13
 10481 00a8 00000000 		.4byte	.LFB15
 10482 00ac 6A010000 		.4byte	.LFE15-.LFB15
 10483 00b0 00000000 		.4byte	.LFB16
 10484 00b4 58000000 		.4byte	.LFE16-.LFB16
 10485 00b8 00000000 		.4byte	.LFB17
 10486 00bc 28000000 		.4byte	.LFE17-.LFB17
 10487 00c0 00000000 		.4byte	.LFB41
 10488 00c4 48000000 		.4byte	.LFE41-.LFB41
 10489 00c8 00000000 		.4byte	.LFB43
 10490 00cc A4000000 		.4byte	.LFE43-.LFB43
 10491 00d0 00000000 		.4byte	.LFB18
 10492 00d4 12000000 		.4byte	.LFE18-.LFB18
 10493 00d8 00000000 		.4byte	.LFB19
 10494 00dc 40000000 		.4byte	.LFE19-.LFB19
 10495 00e0 00000000 		.4byte	.LFB40
 10496 00e4 60000000 		.4byte	.LFE40-.LFB40
 10497 00e8 00000000 		.4byte	.LFB20
 10498 00ec 06000000 		.4byte	.LFE20-.LFB20
 10499 00f0 00000000 		.4byte	.LFB21
 10500 00f4 54000000 		.4byte	.LFE21-.LFB21
 10501 00f8 00000000 		.4byte	.LFB22
 10502 00fc 7C000000 		.4byte	.LFE22-.LFB22
 10503 0100 00000000 		.4byte	.LFB23
 10504 0104 10000000 		.4byte	.LFE23-.LFB23
ARM GAS  C:\Users\arh\AppData\Local\Temp\cc6sEv7h.s 			page 212


 10505 0108 00000000 		.4byte	.LFB24
 10506 010c 10000000 		.4byte	.LFE24-.LFB24
 10507 0110 00000000 		.4byte	.LFB25
 10508 0114 BC000000 		.4byte	.LFE25-.LFB25
 10509 0118 00000000 		.4byte	.LFB26
 10510 011c BC000000 		.4byte	.LFE26-.LFB26
 10511 0120 00000000 		.4byte	.LFB27
 10512 0124 5A000000 		.4byte	.LFE27-.LFB27
 10513 0128 00000000 		.4byte	.LFB28
 10514 012c 0E000000 		.4byte	.LFE28-.LFB28
 10515 0130 00000000 		.4byte	.LFB29
 10516 0134 0E000000 		.4byte	.LFE29-.LFB29
 10517 0138 00000000 		.4byte	.LFB30
 10518 013c 0E000000 		.4byte	.LFE30-.LFB30
 10519 0140 00000000 		.4byte	.LFB32
 10520 0144 0C000000 		.4byte	.LFE32-.LFB32
 10521 0148 00000000 		.4byte	.LFB34
 10522 014c 0C000000 		.4byte	.LFE34-.LFB34
 10523 0150 00000000 		.4byte	.LFB36
 10524 0154 0C000000 		.4byte	.LFE36-.LFB36
 10525 0158 00000000 		.4byte	.LFB38
 10526 015c 0C000000 		.4byte	.LFE38-.LFB38
 10527 0160 00000000 		.4byte	.LFB39
 10528 0164 1A000000 		.4byte	.LFE39-.LFB39
 10529 0168 00000000 		.4byte	.LFB42
 10530 016c 22000000 		.4byte	.LFE42-.LFB42
 10531 0170 00000000 		.4byte	.LFB44
 10532 0174 10000000 		.4byte	.LFE44-.LFB44
 10533 0178 00000000 		.4byte	.LFB45
 10534 017c 10000000 		.4byte	.LFE45-.LFB45
 10535 0180 00000000 		.4byte	.LFB46
 10536 0184 10000000 		.4byte	.LFE46-.LFB46
 10537 0188 00000000 		.4byte	.LFB47
 10538 018c 06000000 		.4byte	.LFE47-.LFB47
 10539 0190 00000000 		.4byte	0
 10540 0194 00000000 		.4byte	0
 10541              		.section	.debug_ranges,"",%progbits
 10542              	.Ldebug_ranges0:
 10543 0000 00000000 		.4byte	.LFB0
 10544 0004 04000000 		.4byte	.LFE0
 10545 0008 00000000 		.4byte	.LFB1
 10546 000c 0E000000 		.4byte	.LFE1
 10547 0010 00000000 		.4byte	.LFB11
 10548 0014 26000000 		.4byte	.LFE11
 10549 0018 00000000 		.4byte	.LFB12
 10550 001c 26000000 		.4byte	.LFE12
 10551 0020 00000000 		.4byte	.LFB31
 10552 0024 04000000 		.4byte	.LFE31
 10553 0028 00000000 		.4byte	.LFB33
 10554 002c 06000000 		.4byte	.LFE33
 10555 0030 00000000 		.4byte	.LFB35
 10556 0034 0A000000 		.4byte	.LFE35
 10557 0038 00000000 		.4byte	.LFB37
 10558 003c 18000000 		.4byte	.LFE37
 10559 0040 00000000 		.4byte	.LFB2
 10560 0044 D0000000 		.4byte	.LFE2
 10561 0048 00000000 		.4byte	.LFB3
ARM GAS  C:\Users\arh\AppData\Local\Temp\cc6sEv7h.s 			page 213


 10562 004c 26000000 		.4byte	.LFE3
 10563 0050 00000000 		.4byte	.LFB4
 10564 0054 06000000 		.4byte	.LFE4
 10565 0058 00000000 		.4byte	.LFB5
 10566 005c 06000000 		.4byte	.LFE5
 10567 0060 00000000 		.4byte	.LFB6
 10568 0064 06000000 		.4byte	.LFE6
 10569 0068 00000000 		.4byte	.LFB7
 10570 006c 06000000 		.4byte	.LFE7
 10571 0070 00000000 		.4byte	.LFB8
 10572 0074 06000000 		.4byte	.LFE8
 10573 0078 00000000 		.4byte	.LFB9
 10574 007c 38000000 		.4byte	.LFE9
 10575 0080 00000000 		.4byte	.LFB14
 10576 0084 34000000 		.4byte	.LFE14
 10577 0088 00000000 		.4byte	.LFB10
 10578 008c 16000000 		.4byte	.LFE10
 10579 0090 00000000 		.4byte	.LFB13
 10580 0094 E4000000 		.4byte	.LFE13
 10581 0098 00000000 		.4byte	.LFB15
 10582 009c 6A010000 		.4byte	.LFE15
 10583 00a0 00000000 		.4byte	.LFB16
 10584 00a4 58000000 		.4byte	.LFE16
 10585 00a8 00000000 		.4byte	.LFB17
 10586 00ac 28000000 		.4byte	.LFE17
 10587 00b0 00000000 		.4byte	.LFB41
 10588 00b4 48000000 		.4byte	.LFE41
 10589 00b8 00000000 		.4byte	.LFB43
 10590 00bc A4000000 		.4byte	.LFE43
 10591 00c0 00000000 		.4byte	.LFB18
 10592 00c4 12000000 		.4byte	.LFE18
 10593 00c8 00000000 		.4byte	.LFB19
 10594 00cc 40000000 		.4byte	.LFE19
 10595 00d0 00000000 		.4byte	.LFB40
 10596 00d4 60000000 		.4byte	.LFE40
 10597 00d8 00000000 		.4byte	.LFB20
 10598 00dc 06000000 		.4byte	.LFE20
 10599 00e0 00000000 		.4byte	.LFB21
 10600 00e4 54000000 		.4byte	.LFE21
 10601 00e8 00000000 		.4byte	.LFB22
 10602 00ec 7C000000 		.4byte	.LFE22
 10603 00f0 00000000 		.4byte	.LFB23
 10604 00f4 10000000 		.4byte	.LFE23
 10605 00f8 00000000 		.4byte	.LFB24
 10606 00fc 10000000 		.4byte	.LFE24
 10607 0100 00000000 		.4byte	.LFB25
 10608 0104 BC000000 		.4byte	.LFE25
 10609 0108 00000000 		.4byte	.LFB26
 10610 010c BC000000 		.4byte	.LFE26
 10611 0110 00000000 		.4byte	.LFB27
 10612 0114 5A000000 		.4byte	.LFE27
 10613 0118 00000000 		.4byte	.LFB28
 10614 011c 0E000000 		.4byte	.LFE28
 10615 0120 00000000 		.4byte	.LFB29
 10616 0124 0E000000 		.4byte	.LFE29
 10617 0128 00000000 		.4byte	.LFB30
 10618 012c 0E000000 		.4byte	.LFE30
ARM GAS  C:\Users\arh\AppData\Local\Temp\cc6sEv7h.s 			page 214


 10619 0130 00000000 		.4byte	.LFB32
 10620 0134 0C000000 		.4byte	.LFE32
 10621 0138 00000000 		.4byte	.LFB34
 10622 013c 0C000000 		.4byte	.LFE34
 10623 0140 00000000 		.4byte	.LFB36
 10624 0144 0C000000 		.4byte	.LFE36
 10625 0148 00000000 		.4byte	.LFB38
 10626 014c 0C000000 		.4byte	.LFE38
 10627 0150 00000000 		.4byte	.LFB39
 10628 0154 1A000000 		.4byte	.LFE39
 10629 0158 00000000 		.4byte	.LFB42
 10630 015c 22000000 		.4byte	.LFE42
 10631 0160 00000000 		.4byte	.LFB44
 10632 0164 10000000 		.4byte	.LFE44
 10633 0168 00000000 		.4byte	.LFB45
 10634 016c 10000000 		.4byte	.LFE45
 10635 0170 00000000 		.4byte	.LFB46
 10636 0174 10000000 		.4byte	.LFE46
 10637 0178 00000000 		.4byte	.LFB47
 10638 017c 06000000 		.4byte	.LFE47
 10639 0180 00000000 		.4byte	0
 10640 0184 00000000 		.4byte	0
 10641              		.section	.debug_line,"",%progbits
 10642              	.Ldebug_line0:
 10643 0000 97060000 		.section	.debug_str,"MS",%progbits,1
 10643      0200C501 
 10643      00000201 
 10643      FB0E0D00 
 10643      01010101 
 10644              	.LASF169:
 10645 0000 75386732 		.ascii	"u8g2_font_setup_decode\000"
 10645      5F666F6E 
 10645      745F7365 
 10645      7475705F 
 10645      6465636F 
 10646              	.LASF154:
 10647 0017 75386732 		.ascii	"u8g2_GetFontBBXOffY\000"
 10647      5F476574 
 10647      466F6E74 
 10647      4242584F 
 10647      66665900 
 10648              	.LASF117:
 10649 002b 73746172 		.ascii	"start_pos_unicode\000"
 10649      745F706F 
 10649      735F756E 
 10649      69636F64 
 10649      6500
 10650              	.LASF46:
 10651 003d 72657365 		.ascii	"reset_pulse_width_ms\000"
 10651      745F7075 
 10651      6C73655F 
 10651      77696474 
 10651      685F6D73 
 10652              	.LASF17:
 10653 0052 73697A65 		.ascii	"size_t\000"
 10653      5F7400
 10654              	.LASF131:
ARM GAS  C:\Users\arh\AppData\Local\Temp\cc6sEv7h.s 			page 215


 10655 0059 66697273 		.ascii	"first_table_cnt\000"
 10655      745F7461 
 10655      626C655F 
 10655      636E7400 
 10656              	.LASF68:
 10657 0069 74696C65 		.ascii	"tile_buf_ptr\000"
 10657      5F627566 
 10657      5F707472 
 10657      00
 10658              	.LASF181:
 10659 0076 75386732 		.ascii	"u8g2_DrawStr\000"
 10659      5F447261 
 10659      77537472 
 10659      00
 10660              	.LASF1:
 10661 0083 5F5F7569 		.ascii	"__uint8_t\000"
 10661      6E74385F 
 10661      7400
 10662              	.LASF24:
 10663 008d 62797465 		.ascii	"byte_cb\000"
 10663      5F636200 
 10664              	.LASF168:
 10665 0095 75386732 		.ascii	"u8g2_font_draw_glyph\000"
 10665      5F666F6E 
 10665      745F6472 
 10665      61775F67 
 10665      6C797068 
 10666              	.LASF129:
 10667 00aa 75386732 		.ascii	"u8g2_font_decode_t\000"
 10667      5F666F6E 
 10667      745F6465 
 10667      636F6465 
 10667      5F7400
 10668              	.LASF185:
 10669 00bd 6B65726E 		.ascii	"kerning\000"
 10669      696E6700 
 10670              	.LASF99:
 10671 00c5 676C7970 		.ascii	"glyph_cnt\000"
 10671      685F636E 
 10671      7400
 10672              	.LASF208:
 10673 00cf 474E5520 		.ascii	"GNU C11 5.4.1 20160609 (release) [ARM/embedded-5-br"
 10673      43313120 
 10673      352E342E 
 10673      31203230 
 10673      31363036 
 10674 0102 616E6368 		.ascii	"anch revision 237715] -mcpu=cortex-m0 -mthumb -g -O"
 10674      20726576 
 10674      6973696F 
 10674      6E203233 
 10674      37373135 
 10675 0135 67202D66 		.ascii	"g -ffunction-sections -ffat-lto-objects\000"
 10675      66756E63 
 10675      74696F6E 
 10675      2D736563 
 10675      74696F6E 
 10676              	.LASF11:
ARM GAS  C:\Users\arh\AppData\Local\Temp\cc6sEv7h.s 			page 216


 10677 015d 6C6F6E67 		.ascii	"long long unsigned int\000"
 10677      206C6F6E 
 10677      6720756E 
 10677      7369676E 
 10677      65642069 
 10678              	.LASF187:
 10679 0174 75386732 		.ascii	"u8g2_DrawExtUTF8\000"
 10679      5F447261 
 10679      77457874 
 10679      55544638 
 10679      00
 10680              	.LASF180:
 10681 0185 64656C74 		.ascii	"delta\000"
 10681      6100
 10682              	.LASF0:
 10683 018b 5F5F696E 		.ascii	"__int8_t\000"
 10683      74385F74 
 10683      00
 10684              	.LASF47:
 10685 0194 706F7374 		.ascii	"post_reset_wait_ms\000"
 10685      5F726573 
 10685      65745F77 
 10685      6169745F 
 10685      6D7300
 10686              	.LASF100:
 10687 01a7 6262785F 		.ascii	"bbx_mode\000"
 10687      6D6F6465 
 10687      00
 10688              	.LASF126:
 10689 01b0 69735F74 		.ascii	"is_transparent\000"
 10689      72616E73 
 10689      70617265 
 10689      6E7400
 10690              	.LASF33:
 10691 01bf 75746638 		.ascii	"utf8_state\000"
 10691      5F737461 
 10691      746500
 10692              	.LASF110:
 10693 01ca 795F6F66 		.ascii	"y_offset\000"
 10693      66736574 
 10693      00
 10694              	.LASF205:
 10695 01d3 75387838 		.ascii	"u8x8_utf8_init\000"
 10695      5F757466 
 10695      385F696E 
 10695      697400
 10696              	.LASF34:
 10697 01e2 6770696F 		.ascii	"gpio_result\000"
 10697      5F726573 
 10697      756C7400 
 10698              	.LASF105:
 10699 01ee 62697473 		.ascii	"bits_per_char_x\000"
 10699      5F706572 
 10699      5F636861 
 10699      725F7800 
 10700              	.LASF106:
 10701 01fe 62697473 		.ascii	"bits_per_char_y\000"
ARM GAS  C:\Users\arh\AppData\Local\Temp\cc6sEv7h.s 			page 217


 10701      5F706572 
 10701      5F636861 
 10701      725F7900 
 10702              	.LASF10:
 10703 020e 6C6F6E67 		.ascii	"long long int\000"
 10703      206C6F6E 
 10703      6720696E 
 10703      7400
 10704              	.LASF2:
 10705 021c 7369676E 		.ascii	"signed char\000"
 10705      65642063 
 10705      68617200 
 10706              	.LASF63:
 10707 0228 75386732 		.ascii	"u8g2_uint_t\000"
 10707      5F75696E 
 10707      745F7400 
 10708              	.LASF29:
 10709 0234 69735F66 		.ascii	"is_font_inverse_mode\000"
 10709      6F6E745F 
 10709      696E7665 
 10709      7273655F 
 10709      6D6F6465 
 10710              	.LASF178:
 10711 0249 75386732 		.ascii	"u8g2_DrawGlyph\000"
 10711      5F447261 
 10711      77476C79 
 10711      706800
 10712              	.LASF22:
 10713 0258 64697370 		.ascii	"display_cb\000"
 10713      6C61795F 
 10713      636200
 10714              	.LASF199:
 10715 0263 75386732 		.ascii	"u8g2_GetStrWidth\000"
 10715      5F476574 
 10715      53747257 
 10715      69647468 
 10715      00
 10716              	.LASF113:
 10717 0274 61736365 		.ascii	"ascent_para\000"
 10717      6E745F70 
 10717      61726100 
 10718              	.LASF88:
 10719 0280 676C7970 		.ascii	"glyph_x_offset\000"
 10719      685F785F 
 10719      6F666673 
 10719      657400
 10720              	.LASF45:
 10721 028f 7072655F 		.ascii	"pre_chip_disable_wait_ns\000"
 10721      63686970 
 10721      5F646973 
 10721      61626C65 
 10721      5F776169 
 10722              	.LASF162:
 10723 02a8 75386732 		.ascii	"u8g2_read_font_info\000"
 10723      5F726561 
 10723      645F666F 
 10723      6E745F69 
ARM GAS  C:\Users\arh\AppData\Local\Temp\cc6sEv7h.s 			page 218


 10723      6E666F00 
 10724              	.LASF7:
 10725 02bc 6C6F6E67 		.ascii	"long int\000"
 10725      20696E74 
 10725      00
 10726              	.LASF201:
 10727 02c5 75386732 		.ascii	"u8g2_GetUTF8Width\000"
 10727      5F476574 
 10727      55544638 
 10727      57696474 
 10727      6800
 10728              	.LASF133:
 10729 02d7 66697273 		.ascii	"first_encoding_table\000"
 10729      745F656E 
 10729      636F6469 
 10729      6E675F74 
 10729      61626C65 
 10730              	.LASF109:
 10731 02ec 6D61785F 		.ascii	"max_char_height\000"
 10731      63686172 
 10731      5F686569 
 10731      67687400 
 10732              	.LASF15:
 10733 02fc 75696E74 		.ascii	"uint16_t\000"
 10733      31365F74 
 10733      00
 10734              	.LASF21:
 10735 0305 6E657874 		.ascii	"next_cb\000"
 10735      5F636200 
 10736              	.LASF62:
 10737 030d 75387838 		.ascii	"u8x8_char_cb\000"
 10737      5F636861 
 10737      725F6362 
 10737      00
 10738              	.LASF25:
 10739 031a 6770696F 		.ascii	"gpio_and_delay_cb\000"
 10739      5F616E64 
 10739      5F64656C 
 10739      61795F63 
 10739      6200
 10740              	.LASF118:
 10741 032c 75386732 		.ascii	"u8g2_font_info_t\000"
 10741      5F666F6E 
 10741      745F696E 
 10741      666F5F74 
 10741      00
 10742              	.LASF145:
 10743 033d 75386732 		.ascii	"u8g2_font_calc_vref_font\000"
 10743      5F666F6E 
 10743      745F6361 
 10743      6C635F76 
 10743      7265665F 
 10744              	.LASF87:
 10745 0356 666F6E74 		.ascii	"font_ref_descent\000"
 10745      5F726566 
 10745      5F646573 
 10745      63656E74 
ARM GAS  C:\Users\arh\AppData\Local\Temp\cc6sEv7h.s 			page 219


 10745      00
 10746              	.LASF39:
 10747 0367 75387838 		.ascii	"u8x8_display_info_t\000"
 10747      5F646973 
 10747      706C6179 
 10747      5F696E66 
 10747      6F5F7400 
 10748              	.LASF8:
 10749 037b 5F5F7569 		.ascii	"__uint32_t\000"
 10749      6E743332 
 10749      5F7400
 10750              	.LASF101:
 10751 0386 62697473 		.ascii	"bits_per_0\000"
 10751      5F706572 
 10751      5F3000
 10752              	.LASF82:
 10753 0391 666F6E74 		.ascii	"font_calc_vref\000"
 10753      5F63616C 
 10753      635F7672 
 10753      656600
 10754              	.LASF86:
 10755 03a0 666F6E74 		.ascii	"font_ref_ascent\000"
 10755      5F726566 
 10755      5F617363 
 10755      656E7400 
 10756              	.LASF139:
 10757 03b0 6F666673 		.ascii	"offset\000"
 10757      657400
 10758              	.LASF48:
 10759 03b7 7364615F 		.ascii	"sda_setup_time_ns\000"
 10759      73657475 
 10759      705F7469 
 10759      6D655F6E 
 10759      7300
 10760              	.LASF97:
 10761 03c9 75386732 		.ascii	"u8g2_draw_ll_hvline_cb\000"
 10761      5F647261 
 10761      775F6C6C 
 10761      5F68766C 
 10761      696E655F 
 10762              	.LASF112:
 10763 03e0 64657363 		.ascii	"descent_g\000"
 10763      656E745F 
 10763      6700
 10764              	.LASF103:
 10765 03ea 62697473 		.ascii	"bits_per_char_width\000"
 10765      5F706572 
 10765      5F636861 
 10765      725F7769 
 10765      64746800 
 10766              	.LASF38:
 10767 03fe 6465626F 		.ascii	"debounce_result_msg\000"
 10767      756E6365 
 10767      5F726573 
 10767      756C745F 
 10767      6D736700 
 10768              	.LASF12:
ARM GAS  C:\Users\arh\AppData\Local\Temp\cc6sEv7h.s 			page 220


 10769 0412 756E7369 		.ascii	"unsigned int\000"
 10769      676E6564 
 10769      20696E74 
 10769      00
 10770              	.LASF177:
 10771 041f 75386732 		.ascii	"u8g2_SetFontMode\000"
 10771      5F536574 
 10771      466F6E74 
 10771      4D6F6465 
 10771      00
 10772              	.LASF72:
 10773 0430 70697865 		.ascii	"pixel_buf_height\000"
 10773      6C5F6275 
 10773      665F6865 
 10773      69676874 
 10773      00
 10774              	.LASF156:
 10775 0441 75386732 		.ascii	"u8g2_font_decode_get_unsigned_bits\000"
 10775      5F666F6E 
 10775      745F6465 
 10775      636F6465 
 10775      5F676574 
 10776              	.LASF210:
 10777 0464 5C5C766D 		.ascii	"\\\\vmware-host\\Shared Folders\\Documents\\WA101\\"
 10777      77617265 
 10777      2D686F73 
 10777      745C5368 
 10777      61726564 
 10778 0491 77773130 		.ascii	"ww101-shield\\firmware\\TestProgram4M.cydsn\000"
 10778      312D7368 
 10778      69656C64 
 10778      5C666972 
 10778      6D776172 
 10779              	.LASF30:
 10780 04bb 6932635F 		.ascii	"i2c_address\000"
 10780      61646472 
 10780      65737300 
 10781              	.LASF153:
 10782 04c7 7538675F 		.ascii	"u8g_GetFontBBXOffX\000"
 10782      47657446 
 10782      6F6E7442 
 10782      42584F66 
 10782      665800
 10783              	.LASF9:
 10784 04da 6C6F6E67 		.ascii	"long unsigned int\000"
 10784      20756E73 
 10784      69676E65 
 10784      6420696E 
 10784      7400
 10785              	.LASF64:
 10786 04ec 75386732 		.ascii	"u8g2_t\000"
 10786      5F7400
 10787              	.LASF203:
 10788 04f3 75386732 		.ascii	"u8g2_DrawHVLine\000"
 10788      5F447261 
 10788      7748564C 
 10788      696E6500 
ARM GAS  C:\Users\arh\AppData\Local\Temp\cc6sEv7h.s 			page 221


 10789              	.LASF192:
 10790 0503 75386732 		.ascii	"u8g2_SetFontRefHeightAll\000"
 10790      5F536574 
 10790      466F6E74 
 10790      52656648 
 10790      65696768 
 10791              	.LASF186:
 10792 051c 655F7072 		.ascii	"e_prev\000"
 10792      657600
 10793              	.LASF120:
 10794 0523 6465636F 		.ascii	"decode_ptr\000"
 10794      64655F70 
 10794      747200
 10795              	.LASF76:
 10796 052e 77696474 		.ascii	"width\000"
 10796      6800
 10797              	.LASF69:
 10798 0534 74696C65 		.ascii	"tile_buf_height\000"
 10798      5F627566 
 10798      5F686569 
 10798      67687400 
 10799              	.LASF6:
 10800 0544 73686F72 		.ascii	"short unsigned int\000"
 10800      7420756E 
 10800      7369676E 
 10800      65642069 
 10800      6E7400
 10801              	.LASF171:
 10802 0557 72657175 		.ascii	"requested_encoding\000"
 10802      65737465 
 10802      645F656E 
 10802      636F6469 
 10802      6E6700
 10803              	.LASF198:
 10804 056a 75386732 		.ascii	"u8g2_GetStrX\000"
 10804      5F476574 
 10804      53747258 
 10804      00
 10805              	.LASF36:
 10806 0577 6465626F 		.ascii	"debounce_last_pin_state\000"
 10806      756E6365 
 10806      5F6C6173 
 10806      745F7069 
 10806      6E5F7374 
 10807              	.LASF144:
 10808 058f 75386732 		.ascii	"u8g2\000"
 10808      00
 10809              	.LASF114:
 10810 0594 64657363 		.ascii	"descent_para\000"
 10810      656E745F 
 10810      70617261 
 10810      00
 10811              	.LASF20:
 10812 05a1 64697370 		.ascii	"display_info\000"
 10812      6C61795F 
 10812      696E666F 
 10812      00
ARM GAS  C:\Users\arh\AppData\Local\Temp\cc6sEv7h.s 			page 222


 10813              	.LASF84:
 10814 05ae 666F6E74 		.ascii	"font_info\000"
 10814      5F696E66 
 10814      6F00
 10815              	.LASF49:
 10816 05b8 73636B5F 		.ascii	"sck_pulse_width_ns\000"
 10816      70756C73 
 10816      655F7769 
 10816      6474685F 
 10816      6E7300
 10817              	.LASF151:
 10818 05cb 75386732 		.ascii	"u8g2_GetFontBBXWidth\000"
 10818      5F476574 
 10818      466F6E74 
 10818      42425857 
 10818      69647468 
 10819              	.LASF40:
 10820 05e0 75387838 		.ascii	"u8x8_struct\000"
 10820      5F737472 
 10820      75637400 
 10821              	.LASF193:
 10822 05ec 75386732 		.ascii	"u8g2_SetFontPosBaseline\000"
 10822      5F536574 
 10822      466F6E74 
 10822      506F7342 
 10822      6173656C 
 10823              	.LASF132:
 10824 0604 7365636F 		.ascii	"second_table_cnt\000"
 10824      6E645F74 
 10824      61626C65 
 10824      5F636E74 
 10824      00
 10825              	.LASF174:
 10826 0615 75386732 		.ascii	"u8g2_IsGlyph\000"
 10826      5F497347 
 10826      6C797068 
 10826      00
 10827              	.LASF176:
 10828 0622 75386732 		.ascii	"u8g2_string_width\000"
 10828      5F737472 
 10828      696E675F 
 10828      77696474 
 10828      6800
 10829              	.LASF209:
 10830 0634 2E2E5C2E 		.ascii	"..\\..\\u8g2\\csrc\\u8g2_font.c\000"
 10830      2E5C7538 
 10830      67325C63 
 10830      7372635C 
 10830      75386732 
 10831              	.LASF182:
 10832 0650 75386732 		.ascii	"u8g2_DrawUTF8\000"
 10832      5F447261 
 10832      77555446 
 10832      3800
 10833              	.LASF57:
 10834 065e 64656661 		.ascii	"default_x_offset\000"
 10834      756C745F 
ARM GAS  C:\Users\arh\AppData\Local\Temp\cc6sEv7h.s 			page 223


 10834      785F6F66 
 10834      66736574 
 10834      00
 10835              	.LASF27:
 10836 066f 656E636F 		.ascii	"encoding\000"
 10836      64696E67 
 10836      00
 10837              	.LASF85:
 10838 0678 666F6E74 		.ascii	"font_height_mode\000"
 10838      5F686569 
 10838      6768745F 
 10838      6D6F6465 
 10838      00
 10839              	.LASF167:
 10840 0689 75386732 		.ascii	"u8g2_font_get_glyph_data\000"
 10840      5F666F6E 
 10840      745F6765 
 10840      745F676C 
 10840      7970685F 
 10841              	.LASF115:
 10842 06a2 73746172 		.ascii	"start_pos_upper_A\000"
 10842      745F706F 
 10842      735F7570 
 10842      7065725F 
 10842      4100
 10843              	.LASF58:
 10844 06b4 666C6970 		.ascii	"flipmode_x_offset\000"
 10844      6D6F6465 
 10844      5F785F6F 
 10844      66667365 
 10844      7400
 10845              	.LASF102:
 10846 06c6 62697473 		.ascii	"bits_per_1\000"
 10846      5F706572 
 10846      5F3100
 10847              	.LASF107:
 10848 06d1 62697473 		.ascii	"bits_per_delta_x\000"
 10848      5F706572 
 10848      5F64656C 
 10848      74615F78 
 10848      00
 10849              	.LASF125:
 10850 06e2 6465636F 		.ascii	"decode_bit_pos\000"
 10850      64655F62 
 10850      69745F70 
 10850      6F7300
 10851              	.LASF124:
 10852 06f1 676C7970 		.ascii	"glyph_height\000"
 10852      685F6865 
 10852      69676874 
 10852      00
 10853              	.LASF206:
 10854 06fe 75386732 		.ascii	"u8g2_GetKerning\000"
 10854      5F476574 
 10854      4B65726E 
 10854      696E6700 
 10855              	.LASF18:
ARM GAS  C:\Users\arh\AppData\Local\Temp\cc6sEv7h.s 			page 224


 10856 070e 6C6F6E67 		.ascii	"long double\000"
 10856      20646F75 
 10856      626C6500 
 10857              	.LASF134:
 10858 071a 696E6465 		.ascii	"index_to_second_table\000"
 10858      785F746F 
 10858      5F736563 
 10858      6F6E645F 
 10858      7461626C 
 10859              	.LASF204:
 10860 0730 75386732 		.ascii	"u8g2_IsIntersection\000"
 10860      5F497349 
 10860      6E746572 
 10860      73656374 
 10860      696F6E00 
 10861              	.LASF73:
 10862 0744 70697865 		.ascii	"pixel_curr_row\000"
 10862      6C5F6375 
 10862      72725F72 
 10862      6F7700
 10863              	.LASF160:
 10864 0753 6465636F 		.ascii	"decode\000"
 10864      646500
 10865              	.LASF183:
 10866 075a 75386732 		.ascii	"u8g2_DrawExtendedUTF8\000"
 10866      5F447261 
 10866      77457874 
 10866      656E6465 
 10866      64555446 
 10867              	.LASF23:
 10868 0770 6361645F 		.ascii	"cad_cb\000"
 10868      636200
 10869              	.LASF128:
 10870 0777 62675F63 		.ascii	"bg_color\000"
 10870      6F6C6F72 
 10870      00
 10871              	.LASF94:
 10872 0780 64726177 		.ascii	"draw_l90\000"
 10872      5F6C3930 
 10872      00
 10873              	.LASF136:
 10874 0789 6B65726E 		.ascii	"kerning_values\000"
 10874      696E675F 
 10874      76616C75 
 10874      657300
 10875              	.LASF108:
 10876 0798 6D61785F 		.ascii	"max_char_width\000"
 10876      63686172 
 10876      5F776964 
 10876      746800
 10877              	.LASF158:
 10878 07a7 6269745F 		.ascii	"bit_pos_plus_cnt\000"
 10878      706F735F 
 10878      706C7573 
 10878      5F636E74 
 10878      00
 10879              	.LASF54:
ARM GAS  C:\Users\arh\AppData\Local\Temp\cc6sEv7h.s 			page 225


 10880 07b8 77726974 		.ascii	"write_pulse_width_ns\000"
 10880      655F7075 
 10880      6C73655F 
 10880      77696474 
 10880      685F6E73 
 10881              	.LASF74:
 10882 07cd 6275665F 		.ascii	"buf_y0\000"
 10882      793000
 10883              	.LASF75:
 10884 07d4 6275665F 		.ascii	"buf_y1\000"
 10884      793100
 10885              	.LASF32:
 10886 07db 64657669 		.ascii	"device_address\000"
 10886      63655F61 
 10886      64647265 
 10886      737300
 10887              	.LASF142:
 10888 07ea 75386732 		.ascii	"u8g2_add_vector_y\000"
 10888      5F616464 
 10888      5F766563 
 10888      746F725F 
 10888      7900
 10889              	.LASF28:
 10890 07fc 785F6F66 		.ascii	"x_offset\000"
 10890      66736574 
 10890      00
 10891              	.LASF165:
 10892 0805 63757272 		.ascii	"current\000"
 10892      656E7400 
 10893              	.LASF172:
 10894 080d 75386732 		.ascii	"u8g2_calculate_exact_string_width\000"
 10894      5F63616C 
 10894      63756C61 
 10894      74655F65 
 10894      78616374 
 10895              	.LASF56:
 10896 082f 74696C65 		.ascii	"tile_height\000"
 10896      5F686569 
 10896      67687400 
 10897              	.LASF195:
 10898 083b 75386732 		.ascii	"u8g2_SetFontPosTop\000"
 10898      5F536574 
 10898      466F6E74 
 10898      506F7354 
 10898      6F7000
 10899              	.LASF146:
 10900 084e 75386732 		.ascii	"u8g2_font_calc_vref_bottom\000"
 10900      5F666F6E 
 10900      745F6361 
 10900      6C635F76 
 10900      7265665F 
 10901              	.LASF67:
 10902 0869 6C6C5F68 		.ascii	"ll_hvline\000"
 10902      766C696E 
 10902      6500
 10903              	.LASF197:
 10904 0873 75386732 		.ascii	"u8g2_SetFont\000"
ARM GAS  C:\Users\arh\AppData\Local\Temp\cc6sEv7h.s 			page 226


 10904      5F536574 
 10904      466F6E74 
 10904      00
 10905              	.LASF127:
 10906 0880 66675F63 		.ascii	"fg_color\000"
 10906      6F6C6F72 
 10906      00
 10907              	.LASF135:
 10908 0889 7365636F 		.ascii	"second_encoding_table\000"
 10908      6E645F65 
 10908      6E636F64 
 10908      696E675F 
 10908      7461626C 
 10909              	.LASF61:
 10910 089f 75387838 		.ascii	"u8x8_msg_cb\000"
 10910      5F6D7367 
 10910      5F636200 
 10911              	.LASF92:
 10912 08ab 75386732 		.ascii	"u8g2_cb_struct\000"
 10912      5F63625F 
 10912      73747275 
 10912      637400
 10913              	.LASF123:
 10914 08ba 676C7970 		.ascii	"glyph_width\000"
 10914      685F7769 
 10914      64746800 
 10915              	.LASF3:
 10916 08c6 756E7369 		.ascii	"unsigned char\000"
 10916      676E6564 
 10916      20636861 
 10916      7200
 10917              	.LASF152:
 10918 08d4 75386732 		.ascii	"u8g2_GetFontBBXHeight\000"
 10918      5F476574 
 10918      466F6E74 
 10918      42425848 
 10918      65696768 
 10919              	.LASF111:
 10920 08ea 61736365 		.ascii	"ascent_A\000"
 10920      6E745F41 
 10920      00
 10921              	.LASF90:
 10922 08f3 69735F61 		.ascii	"is_auto_page_clear\000"
 10922      75746F5F 
 10922      70616765 
 10922      5F636C65 
 10922      617200
 10923              	.LASF71:
 10924 0906 70697865 		.ascii	"pixel_buf_width\000"
 10924      6C5F6275 
 10924      665F7769 
 10924      64746800 
 10925              	.LASF149:
 10926 0916 75386732 		.ascii	"u8g2_GetFontSize\000"
 10926      5F476574 
 10926      466F6E74 
 10926      53697A65 
ARM GAS  C:\Users\arh\AppData\Local\Temp\cc6sEv7h.s 			page 227


 10926      00
 10927              	.LASF4:
 10928 0927 73686F72 		.ascii	"short int\000"
 10928      7420696E 
 10928      7400
 10929              	.LASF148:
 10930 0931 75386732 		.ascii	"u8g2_font_calc_vref_center\000"
 10930      5F666F6E 
 10930      745F6361 
 10930      6C635F76 
 10930      7265665F 
 10931              	.LASF196:
 10932 094c 75386732 		.ascii	"u8g2_SetFontPosCenter\000"
 10932      5F536574 
 10932      466F6E74 
 10932      506F7343 
 10932      656E7465 
 10933              	.LASF66:
 10934 0962 75387838 		.ascii	"u8x8\000"
 10934      00
 10935              	.LASF175:
 10936 0967 75386732 		.ascii	"u8g2_GetGlyphWidth\000"
 10936      5F476574 
 10936      476C7970 
 10936      68576964 
 10936      746800
 10937              	.LASF78:
 10938 097a 75736572 		.ascii	"user_x0\000"
 10938      5F783000 
 10939              	.LASF79:
 10940 0982 75736572 		.ascii	"user_x1\000"
 10940      5F783100 
 10941              	.LASF161:
 10942 098a 75386732 		.ascii	"u8g2_font_decode_get_signed_bits\000"
 10942      5F666F6E 
 10942      745F6465 
 10942      636F6465 
 10942      5F676574 
 10943              	.LASF53:
 10944 09ab 64617461 		.ascii	"data_setup_time_ns\000"
 10944      5F736574 
 10944      75705F74 
 10944      696D655F 
 10944      6E7300
 10945              	.LASF164:
 10946 09be 69735F66 		.ascii	"is_foreground\000"
 10946      6F726567 
 10946      726F756E 
 10946      6400
 10947              	.LASF65:
 10948 09cc 75386732 		.ascii	"u8g2_struct\000"
 10948      5F737472 
 10948      75637400 
 10949              	.LASF96:
 10950 09d8 75386732 		.ascii	"u8g2_draw_l90_cb\000"
 10950      5F647261 
 10950      775F6C39 
ARM GAS  C:\Users\arh\AppData\Local\Temp\cc6sEv7h.s 			page 228


 10950      305F6362 
 10950      00
 10951              	.LASF52:
 10952 09e9 6932635F 		.ascii	"i2c_bus_clock_100kHz\000"
 10952      6275735F 
 10952      636C6F63 
 10952      6B5F3130 
 10952      306B487A 
 10953              	.LASF16:
 10954 09fe 75696E74 		.ascii	"uint32_t\000"
 10954      33325F74 
 10954      00
 10955              	.LASF98:
 10956 0a07 5F753867 		.ascii	"_u8g2_font_info_t\000"
 10956      325F666F 
 10956      6E745F69 
 10956      6E666F5F 
 10956      7400
 10957              	.LASF70:
 10958 0a19 74696C65 		.ascii	"tile_curr_row\000"
 10958      5F637572 
 10958      725F726F 
 10958      7700
 10959              	.LASF173:
 10960 0a27 63686172 		.ascii	"char\000"
 10960      00
 10961              	.LASF91:
 10962 0a2c 75386732 		.ascii	"u8g2_cb_t\000"
 10962      5F63625F 
 10962      7400
 10963              	.LASF51:
 10964 0a36 7370695F 		.ascii	"spi_mode\000"
 10964      6D6F6465 
 10964      00
 10965              	.LASF42:
 10966 0a3f 63686970 		.ascii	"chip_enable_level\000"
 10966      5F656E61 
 10966      626C655F 
 10966      6C657665 
 10966      6C00
 10967              	.LASF166:
 10968 0a51 75386732 		.ascii	"u8g2_font_decode_glyph\000"
 10968      5F666F6E 
 10968      745F6465 
 10968      636F6465 
 10968      5F676C79 
 10969              	.LASF83:
 10970 0a68 666F6E74 		.ascii	"font_decode\000"
 10970      5F646563 
 10970      6F646500 
 10971              	.LASF207:
 10972 0a74 75386732 		.ascii	"u8g2_GetKerningByTable\000"
 10972      5F476574 
 10972      4B65726E 
 10972      696E6742 
 10972      79546162 
 10973              	.LASF104:
ARM GAS  C:\Users\arh\AppData\Local\Temp\cc6sEv7h.s 			page 229


 10974 0a8b 62697473 		.ascii	"bits_per_char_height\000"
 10974      5F706572 
 10974      5F636861 
 10974      725F6865 
 10974      69676874 
 10975              	.LASF5:
 10976 0aa0 5F5F7569 		.ascii	"__uint16_t\000"
 10976      6E743136 
 10976      5F7400
 10977              	.LASF89:
 10978 0aab 64726177 		.ascii	"draw_color\000"
 10978      5F636F6C 
 10978      6F7200
 10979              	.LASF191:
 10980 0ab6 75386732 		.ascii	"u8g2_SetFontRefHeightExtendedText\000"
 10980      5F536574 
 10980      466F6E74 
 10980      52656648 
 10980      65696768 
 10981              	.LASF44:
 10982 0ad8 706F7374 		.ascii	"post_chip_enable_wait_ns\000"
 10982      5F636869 
 10982      705F656E 
 10982      61626C65 
 10982      5F776169 
 10983              	.LASF130:
 10984 0af1 5F753867 		.ascii	"_u8g2_kerning_t\000"
 10984      325F6B65 
 10984      726E696E 
 10984      675F7400 
 10985              	.LASF188:
 10986 0b01 6B65726E 		.ascii	"kerning_table\000"
 10986      696E675F 
 10986      7461626C 
 10986      6500
 10987              	.LASF95:
 10988 0b0f 75386732 		.ascii	"u8g2_update_dimension_cb\000"
 10988      5F757064 
 10988      6174655F 
 10988      64696D65 
 10988      6E73696F 
 10989              	.LASF121:
 10990 0b28 74617267 		.ascii	"target_x\000"
 10990      65745F78 
 10990      00
 10991              	.LASF122:
 10992 0b31 74617267 		.ascii	"target_y\000"
 10992      65745F79 
 10992      00
 10993              	.LASF189:
 10994 0b3a 75386732 		.ascii	"u8g2_UpdateRefHeight\000"
 10994      5F557064 
 10994      61746552 
 10994      65664865 
 10994      69676874 
 10995              	.LASF19:
 10996 0b4f 75387838 		.ascii	"u8x8_t\000"
ARM GAS  C:\Users\arh\AppData\Local\Temp\cc6sEv7h.s 			page 230


 10996      5F7400
 10997              	.LASF155:
 10998 0b56 75386732 		.ascii	"u8g2_GetFontCapitalAHeight\000"
 10998      5F476574 
 10998      466F6E74 
 10998      43617069 
 10998      74616C41 
 10999              	.LASF80:
 11000 0b71 75736572 		.ascii	"user_y0\000"
 11000      5F793000 
 11001              	.LASF81:
 11002 0b79 75736572 		.ascii	"user_y1\000"
 11002      5F793100 
 11003              	.LASF119:
 11004 0b81 5F753867 		.ascii	"_u8g2_font_decode_t\000"
 11004      325F666F 
 11004      6E745F64 
 11004      65636F64 
 11004      655F7400 
 11005              	.LASF13:
 11006 0b95 696E7438 		.ascii	"int8_t\000"
 11006      5F7400
 11007              	.LASF163:
 11008 0b9c 75386732 		.ascii	"u8g2_font_decode_len\000"
 11008      5F666F6E 
 11008      745F6465 
 11008      636F6465 
 11008      5F6C656E 
 11009              	.LASF37:
 11010 0bb1 6465626F 		.ascii	"debounce_state\000"
 11010      756E6365 
 11010      5F737461 
 11010      746500
 11011              	.LASF170:
 11012 0bc0 75386732 		.ascii	"u8g2_GetGlyphHorizontalProperties\000"
 11012      5F476574 
 11012      476C7970 
 11012      68486F72 
 11012      697A6F6E 
 11013              	.LASF147:
 11014 0be2 75386732 		.ascii	"u8g2_font_calc_vref_top\000"
 11014      5F666F6E 
 11014      745F6361 
 11014      6C635F76 
 11014      7265665F 
 11015              	.LASF93:
 11016 0bfa 75706461 		.ascii	"update\000"
 11016      746500
 11017              	.LASF137:
 11018 0c01 75386732 		.ascii	"u8g2_kerning_t\000"
 11018      5F6B6572 
 11018      6E696E67 
 11018      5F7400
 11019              	.LASF43:
 11020 0c10 63686970 		.ascii	"chip_disable_level\000"
 11020      5F646973 
 11020      61626C65 
ARM GAS  C:\Users\arh\AppData\Local\Temp\cc6sEv7h.s 			page 231


 11020      5F6C6576 
 11020      656C00
 11021              	.LASF190:
 11022 0c23 75386732 		.ascii	"u8g2_SetFontRefHeightText\000"
 11022      5F536574 
 11022      466F6E74 
 11022      52656648 
 11022      65696768 
 11023              	.LASF200:
 11024 0c3d 75386732 		.ascii	"u8g2_GetExactStrWidth\000"
 11024      5F476574 
 11024      45786163 
 11024      74537472 
 11024      57696474 
 11025              	.LASF26:
 11026 0c53 666F6E74 		.ascii	"font\000"
 11026      00
 11027              	.LASF157:
 11028 0c58 6269745F 		.ascii	"bit_pos\000"
 11028      706F7300 
 11029              	.LASF116:
 11030 0c60 73746172 		.ascii	"start_pos_lower_a\000"
 11030      745F706F 
 11030      735F6C6F 
 11030      7765725F 
 11030      6100
 11031              	.LASF150:
 11032 0c72 666F6E74 		.ascii	"font_arg\000"
 11032      5F617267 
 11032      00
 11033              	.LASF14:
 11034 0c7b 75696E74 		.ascii	"uint8_t\000"
 11034      385F7400 
 11035              	.LASF138:
 11036 0c83 75386732 		.ascii	"u8g2_font_calc_vref_fnptr\000"
 11036      5F666F6E 
 11036      745F6361 
 11036      6C635F76 
 11036      7265665F 
 11037              	.LASF31:
 11038 0c9d 6932635F 		.ascii	"i2c_started\000"
 11038      73746172 
 11038      74656400 
 11039              	.LASF194:
 11040 0ca9 75386732 		.ascii	"u8g2_SetFontPosBottom\000"
 11040      5F536574 
 11040      466F6E74 
 11040      506F7342 
 11040      6F74746F 
 11041              	.LASF59:
 11042 0cbf 70697865 		.ascii	"pixel_width\000"
 11042      6C5F7769 
 11042      64746800 
 11043              	.LASF140:
 11044 0ccb 75386732 		.ascii	"u8g2_font_get_byte\000"
 11044      5F666F6E 
 11044      745F6765 
ARM GAS  C:\Users\arh\AppData\Local\Temp\cc6sEv7h.s 			page 232


 11044      745F6279 
 11044      746500
 11045              	.LASF55:
 11046 0cde 74696C65 		.ascii	"tile_width\000"
 11046      5F776964 
 11046      746800
 11047              	.LASF143:
 11048 0ce9 75386732 		.ascii	"u8g2_add_vector_x\000"
 11048      5F616464 
 11048      5F766563 
 11048      746F725F 
 11048      7800
 11049              	.LASF35:
 11050 0cfb 6465626F 		.ascii	"debounce_default_pin_state\000"
 11050      756E6365 
 11050      5F646566 
 11050      61756C74 
 11050      5F70696E 
 11051              	.LASF159:
 11052 0d16 676C7970 		.ascii	"glyph_data\000"
 11052      685F6461 
 11052      746100
 11053              	.LASF41:
 11054 0d21 75387838 		.ascii	"u8x8_display_info_struct\000"
 11054      5F646973 
 11054      706C6179 
 11054      5F696E66 
 11054      6F5F7374 
 11055              	.LASF184:
 11056 0d3a 746F5F6C 		.ascii	"to_left\000"
 11056      65667400 
 11057              	.LASF77:
 11058 0d42 68656967 		.ascii	"height\000"
 11058      687400
 11059              	.LASF179:
 11060 0d49 75386732 		.ascii	"u8g2_draw_string\000"
 11060      5F647261 
 11060      775F7374 
 11060      72696E67 
 11060      00
 11061              	.LASF202:
 11062 0d5a 75386732 		.ascii	"u8g2_SetFontDirection\000"
 11062      5F536574 
 11062      466F6E74 
 11062      44697265 
 11062      6374696F 
 11063              	.LASF141:
 11064 0d70 75386732 		.ascii	"u8g2_font_get_word\000"
 11064      5F666F6E 
 11064      745F6765 
 11064      745F776F 
 11064      726400
 11065              	.LASF60:
 11066 0d83 70697865 		.ascii	"pixel_height\000"
 11066      6C5F6865 
 11066      69676874 
 11066      00
ARM GAS  C:\Users\arh\AppData\Local\Temp\cc6sEv7h.s 			page 233


 11067              	.LASF50:
 11068 0d90 73636B5F 		.ascii	"sck_clock_hz\000"
 11068      636C6F63 
 11068      6B5F687A 
 11068      00
 11069              		.ident	"GCC: (GNU Tools for ARM Embedded Processors) 5.4.1 20160609 (release) [ARM/embedded-5-bran
