ARM GAS  C:\Users\arh\AppData\Local\Temp\cc6sEv7h.s 			page 1


   1              		.syntax unified
   2              		.cpu cortex-m0
   3              		.fpu softvfp
   4              		.eabi_attribute 20, 1
   5              		.eabi_attribute 21, 1
   6              		.eabi_attribute 23, 3
   7              		.eabi_attribute 24, 1
   8              		.eabi_attribute 25, 1
   9              		.eabi_attribute 26, 1
  10              		.eabi_attribute 30, 1
  11              		.eabi_attribute 34, 0
  12              		.eabi_attribute 18, 4
  13              		.thumb
  14              		.syntax unified
  15              		.file	"u8g2_font.c"
  16              		.text
  17              	.Ltext0:
  18              		.cfi_sections	.debug_frame
  19              		.section	.text.u8g2_font_get_byte,"ax",%progbits
  20              		.align	2
  21              		.code	16
  22              		.thumb_func
  23              		.type	u8g2_font_get_byte, %function
  24              	u8g2_font_get_byte:
  25              	.LFB0:
  26              		.file 1 "..\\..\\u8g2\\csrc\\u8g2_font.c"
   1:..\..\u8g2\csrc/u8g2_font.c **** /*
   2:..\..\u8g2\csrc/u8g2_font.c **** 
   3:..\..\u8g2\csrc/u8g2_font.c ****   u8g2_font.c
   4:..\..\u8g2\csrc/u8g2_font.c **** 
   5:..\..\u8g2\csrc/u8g2_font.c ****   Universal 8bit Graphics Library (https://github.com/olikraus/u8g2/)
   6:..\..\u8g2\csrc/u8g2_font.c **** 
   7:..\..\u8g2\csrc/u8g2_font.c ****   Copyright (c) 2016, olikraus@gmail.com
   8:..\..\u8g2\csrc/u8g2_font.c ****   All rights reserved.
   9:..\..\u8g2\csrc/u8g2_font.c **** 
  10:..\..\u8g2\csrc/u8g2_font.c ****   Redistribution and use in source and binary forms, with or without modification, 
  11:..\..\u8g2\csrc/u8g2_font.c ****   are permitted provided that the following conditions are met:
  12:..\..\u8g2\csrc/u8g2_font.c **** 
  13:..\..\u8g2\csrc/u8g2_font.c ****   * Redistributions of source code must retain the above copyright notice, this list 
  14:..\..\u8g2\csrc/u8g2_font.c ****     of conditions and the following disclaimer.
  15:..\..\u8g2\csrc/u8g2_font.c ****     
  16:..\..\u8g2\csrc/u8g2_font.c ****   * Redistributions in binary form must reproduce the above copyright notice, this 
  17:..\..\u8g2\csrc/u8g2_font.c ****     list of conditions and the following disclaimer in the documentation and/or other 
  18:..\..\u8g2\csrc/u8g2_font.c ****     materials provided with the distribution.
  19:..\..\u8g2\csrc/u8g2_font.c **** 
  20:..\..\u8g2\csrc/u8g2_font.c ****   THIS SOFTWARE IS PROVIDED BY THE COPYRIGHT HOLDERS AND 
  21:..\..\u8g2\csrc/u8g2_font.c ****   CONTRIBUTORS "AS IS" AND ANY EXPRESS OR IMPLIED WARRANTIES, 
  22:..\..\u8g2\csrc/u8g2_font.c ****   INCLUDING, BUT NOT LIMITED TO, THE IMPLIED WARRANTIES OF 
  23:..\..\u8g2\csrc/u8g2_font.c ****   MERCHANTABILITY AND FITNESS FOR A PARTICULAR PURPOSE ARE 
  24:..\..\u8g2\csrc/u8g2_font.c ****   DISCLAIMED. IN NO EVENT SHALL THE COPYRIGHT HOLDER OR 
  25:..\..\u8g2\csrc/u8g2_font.c ****   CONTRIBUTORS BE LIABLE FOR ANY DIRECT, INDIRECT, INCIDENTAL, 
  26:..\..\u8g2\csrc/u8g2_font.c ****   SPECIAL, EXEMPLARY, OR CONSEQUENTIAL DAMAGES (INCLUDING, BUT 
  27:..\..\u8g2\csrc/u8g2_font.c ****   NOT LIMITED TO, PROCUREMENT OF SUBSTITUTE GOODS OR SERVICES; 
  28:..\..\u8g2\csrc/u8g2_font.c ****   LOSS OF USE, DATA, OR PROFITS; OR BUSINESS INTERRUPTION) HOWEVER 
  29:..\..\u8g2\csrc/u8g2_font.c ****   CAUSED AND ON ANY THEORY OF LIABILITY, WHETHER IN CONTRACT, 
  30:..\..\u8g2\csrc/u8g2_font.c ****   STRICT LIABILITY, OR TORT (INCLUDING NEGLIGENCE OR OTHERWISE) 
  31:..\..\u8g2\csrc/u8g2_font.c ****   ARISING IN ANY WAY OUT OF THE USE OF THIS SOFTWARE, EVEN IF 
ARM GAS  C:\Users\arh\AppData\Local\Temp\cc6sEv7h.s 			page 2


  32:..\..\u8g2\csrc/u8g2_font.c ****   ADVISED OF THE POSSIBILITY OF SUCH DAMAGE.  
  33:..\..\u8g2\csrc/u8g2_font.c **** 
  34:..\..\u8g2\csrc/u8g2_font.c **** */
  35:..\..\u8g2\csrc/u8g2_font.c **** 
  36:..\..\u8g2\csrc/u8g2_font.c **** #include "u8g2.h"
  37:..\..\u8g2\csrc/u8g2_font.c **** 
  38:..\..\u8g2\csrc/u8g2_font.c **** /* size of the font data structure, there is no struct or class... */
  39:..\..\u8g2\csrc/u8g2_font.c **** /* this is the size for the new font format */
  40:..\..\u8g2\csrc/u8g2_font.c **** #define U8G2_FONT_DATA_STRUCT_SIZE 23
  41:..\..\u8g2\csrc/u8g2_font.c **** 
  42:..\..\u8g2\csrc/u8g2_font.c **** /*
  43:..\..\u8g2\csrc/u8g2_font.c ****   font data:
  44:..\..\u8g2\csrc/u8g2_font.c **** 
  45:..\..\u8g2\csrc/u8g2_font.c ****   offset	bytes	description
  46:..\..\u8g2\csrc/u8g2_font.c ****   0		1		glyph_cnt		number of glyphs
  47:..\..\u8g2\csrc/u8g2_font.c ****   1		1		bbx_mode	0: proportional, 1: common height, 2: monospace, 3: multiple of 8
  48:..\..\u8g2\csrc/u8g2_font.c ****   2		1		bits_per_0	glyph rle parameter
  49:..\..\u8g2\csrc/u8g2_font.c ****   3		1		bits_per_1	glyph rle parameter
  50:..\..\u8g2\csrc/u8g2_font.c **** 
  51:..\..\u8g2\csrc/u8g2_font.c ****   4		1		bits_per_char_width		glyph rle parameter
  52:..\..\u8g2\csrc/u8g2_font.c ****   5		1		bits_per_char_height	glyph rle parameter
  53:..\..\u8g2\csrc/u8g2_font.c ****   6		1		bits_per_char_x		glyph rle parameter
  54:..\..\u8g2\csrc/u8g2_font.c ****   7		1		bits_per_char_y		glyph rle parameter
  55:..\..\u8g2\csrc/u8g2_font.c ****   8		1		bits_per_delta_x		glyph rle parameter
  56:..\..\u8g2\csrc/u8g2_font.c **** 
  57:..\..\u8g2\csrc/u8g2_font.c ****   9		1		max_char_width
  58:..\..\u8g2\csrc/u8g2_font.c ****   10		1		max_char_height
  59:..\..\u8g2\csrc/u8g2_font.c ****   11		1		x offset
  60:..\..\u8g2\csrc/u8g2_font.c ****   12		1		y offset (descent)
  61:..\..\u8g2\csrc/u8g2_font.c ****   
  62:..\..\u8g2\csrc/u8g2_font.c ****   13		1		ascent (capital A)
  63:..\..\u8g2\csrc/u8g2_font.c ****   14		1		descent (lower g)
  64:..\..\u8g2\csrc/u8g2_font.c ****   15		1		ascent '('
  65:..\..\u8g2\csrc/u8g2_font.c ****   16		1		descent ')'
  66:..\..\u8g2\csrc/u8g2_font.c ****   
  67:..\..\u8g2\csrc/u8g2_font.c ****   17		1		start pos 'A' high byte
  68:..\..\u8g2\csrc/u8g2_font.c ****   18		1		start pos 'A' low byte
  69:..\..\u8g2\csrc/u8g2_font.c **** 
  70:..\..\u8g2\csrc/u8g2_font.c ****   19		1		start pos 'a' high byte
  71:..\..\u8g2\csrc/u8g2_font.c ****   20		1		start pos 'a' low byte
  72:..\..\u8g2\csrc/u8g2_font.c **** 
  73:..\..\u8g2\csrc/u8g2_font.c ****   21		1		start pos unicode high byte
  74:..\..\u8g2\csrc/u8g2_font.c ****   22		1		start pos unicode low byte
  75:..\..\u8g2\csrc/u8g2_font.c **** 
  76:..\..\u8g2\csrc/u8g2_font.c ****   Font build mode, 0: proportional, 1: common height, 2: monospace, 3: multiple of 8
  77:..\..\u8g2\csrc/u8g2_font.c **** 
  78:..\..\u8g2\csrc/u8g2_font.c ****   Font build mode 0:		
  79:..\..\u8g2\csrc/u8g2_font.c ****     - "t"
  80:..\..\u8g2\csrc/u8g2_font.c ****     - Ref height mode: U8G2_FONT_HEIGHT_MODE_TEXT, U8G2_FONT_HEIGHT_MODE_XTEXT or U8G2_FONT_HEIGHT_
  81:..\..\u8g2\csrc/u8g2_font.c ****     - use in transparent mode only (does not look good in solid mode)
  82:..\..\u8g2\csrc/u8g2_font.c ****     - most compact format
  83:..\..\u8g2\csrc/u8g2_font.c ****     - different font heights possible
  84:..\..\u8g2\csrc/u8g2_font.c ****     
  85:..\..\u8g2\csrc/u8g2_font.c ****   Font build mode 1:		
  86:..\..\u8g2\csrc/u8g2_font.c ****     - "h"
  87:..\..\u8g2\csrc/u8g2_font.c ****     - Ref height mode: U8G2_FONT_HEIGHT_MODE_ALL
  88:..\..\u8g2\csrc/u8g2_font.c ****     - transparent or solid mode
ARM GAS  C:\Users\arh\AppData\Local\Temp\cc6sEv7h.s 			page 3


  89:..\..\u8g2\csrc/u8g2_font.c ****     - The height of the glyphs depend on the largest glyph in the font. This means font height depe
  90:..\..\u8g2\csrc/u8g2_font.c **** 
  91:..\..\u8g2\csrc/u8g2_font.c **** */
  92:..\..\u8g2\csrc/u8g2_font.c **** 
  93:..\..\u8g2\csrc/u8g2_font.c **** /* use case: What is the width and the height of the minimal box into which string s fints? */
  94:..\..\u8g2\csrc/u8g2_font.c **** void u8g2_font_GetStrSize(const void *font, const char *s, u8g2_uint_t *width, u8g2_uint_t *height)
  95:..\..\u8g2\csrc/u8g2_font.c **** void u8g2_font_GetStrSizeP(const void *font, const char *s, u8g2_uint_t *width, u8g2_uint_t *height
  96:..\..\u8g2\csrc/u8g2_font.c **** 
  97:..\..\u8g2\csrc/u8g2_font.c **** /* use case: lower left edge of a minimal box is known, what is the correct x, y position for the s
  98:..\..\u8g2\csrc/u8g2_font.c **** void u8g2_font_AdjustXYToDraw(const void *font, const char *s, u8g2_uint_t *x, u8g2_uint_t *y);
  99:..\..\u8g2\csrc/u8g2_font.c **** void u8g2_font_AdjustXYToDrawP(const void *font, const char *s, u8g2_uint_t *x, u8g2_uint_t *y);
 100:..\..\u8g2\csrc/u8g2_font.c **** 
 101:..\..\u8g2\csrc/u8g2_font.c **** /* use case: Baseline origin known, return minimal box */
 102:..\..\u8g2\csrc/u8g2_font.c **** void u8g2_font_GetStrMinBox(u8g2_t *u8g2, const void *font, const char *s, u8g2_uint_t *x, u8g2_uin
 103:..\..\u8g2\csrc/u8g2_font.c **** 
 104:..\..\u8g2\csrc/u8g2_font.c **** /* procedures */
 105:..\..\u8g2\csrc/u8g2_font.c **** 
 106:..\..\u8g2\csrc/u8g2_font.c **** /*========================================================================*/
 107:..\..\u8g2\csrc/u8g2_font.c **** /* low level byte and word access */
 108:..\..\u8g2\csrc/u8g2_font.c **** 
 109:..\..\u8g2\csrc/u8g2_font.c **** /* removed NOINLINE, because it leads to smaller code, might also be faster */
 110:..\..\u8g2\csrc/u8g2_font.c **** //static uint8_t u8g2_font_get_byte(const uint8_t *font, uint8_t offset) U8G2_NOINLINE;
 111:..\..\u8g2\csrc/u8g2_font.c **** static uint8_t u8g2_font_get_byte(const uint8_t *font, uint8_t offset)
 112:..\..\u8g2\csrc/u8g2_font.c **** {
  27              		.loc 1 112 0
  28              		.cfi_startproc
  29              		@ args = 0, pretend = 0, frame = 0
  30              		@ frame_needed = 0, uses_anonymous_args = 0
  31              		@ link register save eliminated.
  32              	.LVL0:
 113:..\..\u8g2\csrc/u8g2_font.c ****   font += offset;
 114:..\..\u8g2\csrc/u8g2_font.c ****   return u8x8_pgm_read( font );  
  33              		.loc 1 114 0
  34 0000 405C     		ldrb	r0, [r0, r1]
  35              	.LVL1:
 115:..\..\u8g2\csrc/u8g2_font.c **** }
  36              		.loc 1 115 0
  37              		@ sp needed
  38 0002 7047     		bx	lr
  39              		.cfi_endproc
  40              	.LFE0:
  41              		.size	u8g2_font_get_byte, .-u8g2_font_get_byte
  42              		.section	.text.u8g2_font_get_word,"ax",%progbits
  43              		.align	2
  44              		.code	16
  45              		.thumb_func
  46              		.type	u8g2_font_get_word, %function
  47              	u8g2_font_get_word:
  48              	.LFB1:
 116:..\..\u8g2\csrc/u8g2_font.c **** 
 117:..\..\u8g2\csrc/u8g2_font.c **** static uint16_t u8g2_font_get_word(const uint8_t *font, uint8_t offset) U8G2_NOINLINE; 
 118:..\..\u8g2\csrc/u8g2_font.c **** static uint16_t u8g2_font_get_word(const uint8_t *font, uint8_t offset)
 119:..\..\u8g2\csrc/u8g2_font.c **** {
  49              		.loc 1 119 0
  50              		.cfi_startproc
  51              		@ args = 0, pretend = 0, frame = 0
  52              		@ frame_needed = 0, uses_anonymous_args = 0
ARM GAS  C:\Users\arh\AppData\Local\Temp\cc6sEv7h.s 			page 4


  53              		@ link register save eliminated.
  54              	.LVL2:
 120:..\..\u8g2\csrc/u8g2_font.c ****     uint16_t pos;
 121:..\..\u8g2\csrc/u8g2_font.c ****     font += offset;
  55              		.loc 1 121 0
  56 0000 4118     		adds	r1, r0, r1
  57              	.LVL3:
 122:..\..\u8g2\csrc/u8g2_font.c ****     pos = u8x8_pgm_read( font );
  58              		.loc 1 122 0
  59 0002 0878     		ldrb	r0, [r1]
  60              	.LVL4:
 123:..\..\u8g2\csrc/u8g2_font.c ****     font++;
 124:..\..\u8g2\csrc/u8g2_font.c ****     pos <<= 8;
  61              		.loc 1 124 0
  62 0004 0002     		lsls	r0, r0, #8
  63              	.LVL5:
 125:..\..\u8g2\csrc/u8g2_font.c ****     pos += u8x8_pgm_read( font);
  64              		.loc 1 125 0
  65 0006 4B78     		ldrb	r3, [r1, #1]
  66 0008 C018     		adds	r0, r0, r3
  67              	.LVL6:
  68 000a 80B2     		uxth	r0, r0
  69              	.LVL7:
 126:..\..\u8g2\csrc/u8g2_font.c ****     return pos;
 127:..\..\u8g2\csrc/u8g2_font.c **** }
  70              		.loc 1 127 0
  71              		@ sp needed
  72 000c 7047     		bx	lr
  73              		.cfi_endproc
  74              	.LFE1:
  75              		.size	u8g2_font_get_word, .-u8g2_font_get_word
  76 000e C046     		.section	.text.u8g2_add_vector_y,"ax",%progbits
  77              		.align	2
  78              		.code	16
  79              		.thumb_func
  80              		.type	u8g2_add_vector_y, %function
  81              	u8g2_add_vector_y:
  82              	.LFB11:
 128:..\..\u8g2\csrc/u8g2_font.c **** 
 129:..\..\u8g2\csrc/u8g2_font.c **** /*========================================================================*/
 130:..\..\u8g2\csrc/u8g2_font.c **** /* new font format */
 131:..\..\u8g2\csrc/u8g2_font.c **** void u8g2_read_font_info(u8g2_font_info_t *font_info, const uint8_t *font)
 132:..\..\u8g2\csrc/u8g2_font.c **** {
 133:..\..\u8g2\csrc/u8g2_font.c ****   /* offset 0 */
 134:..\..\u8g2\csrc/u8g2_font.c ****   font_info->glyph_cnt = u8g2_font_get_byte(font, 0);
 135:..\..\u8g2\csrc/u8g2_font.c ****   font_info->bbx_mode = u8g2_font_get_byte(font, 1);
 136:..\..\u8g2\csrc/u8g2_font.c ****   font_info->bits_per_0 = u8g2_font_get_byte(font, 2);
 137:..\..\u8g2\csrc/u8g2_font.c ****   font_info->bits_per_1 = u8g2_font_get_byte(font, 3);
 138:..\..\u8g2\csrc/u8g2_font.c ****   
 139:..\..\u8g2\csrc/u8g2_font.c ****   /* offset 4 */
 140:..\..\u8g2\csrc/u8g2_font.c ****   font_info->bits_per_char_width = u8g2_font_get_byte(font, 4);
 141:..\..\u8g2\csrc/u8g2_font.c ****   font_info->bits_per_char_height = u8g2_font_get_byte(font, 5);
 142:..\..\u8g2\csrc/u8g2_font.c ****   font_info->bits_per_char_x = u8g2_font_get_byte(font, 6);
 143:..\..\u8g2\csrc/u8g2_font.c ****   font_info->bits_per_char_y = u8g2_font_get_byte(font, 7);
 144:..\..\u8g2\csrc/u8g2_font.c ****   font_info->bits_per_delta_x = u8g2_font_get_byte(font, 8);
 145:..\..\u8g2\csrc/u8g2_font.c ****   
 146:..\..\u8g2\csrc/u8g2_font.c ****   /* offset 9 */
ARM GAS  C:\Users\arh\AppData\Local\Temp\cc6sEv7h.s 			page 5


 147:..\..\u8g2\csrc/u8g2_font.c ****   font_info->max_char_width = u8g2_font_get_byte(font, 9);
 148:..\..\u8g2\csrc/u8g2_font.c ****   font_info->max_char_height = u8g2_font_get_byte(font, 10);
 149:..\..\u8g2\csrc/u8g2_font.c ****   font_info->x_offset = u8g2_font_get_byte(font, 11);
 150:..\..\u8g2\csrc/u8g2_font.c ****   font_info->y_offset = u8g2_font_get_byte(font, 12);
 151:..\..\u8g2\csrc/u8g2_font.c ****   
 152:..\..\u8g2\csrc/u8g2_font.c ****   /* offset 13 */
 153:..\..\u8g2\csrc/u8g2_font.c ****   font_info->ascent_A = u8g2_font_get_byte(font, 13);
 154:..\..\u8g2\csrc/u8g2_font.c ****   font_info->descent_g = u8g2_font_get_byte(font, 14);
 155:..\..\u8g2\csrc/u8g2_font.c ****   font_info->ascent_para = u8g2_font_get_byte(font, 15);
 156:..\..\u8g2\csrc/u8g2_font.c ****   font_info->descent_para = u8g2_font_get_byte(font, 16);
 157:..\..\u8g2\csrc/u8g2_font.c ****   
 158:..\..\u8g2\csrc/u8g2_font.c ****   /* offset 17 */
 159:..\..\u8g2\csrc/u8g2_font.c ****   font_info->start_pos_upper_A = u8g2_font_get_word(font, 17);
 160:..\..\u8g2\csrc/u8g2_font.c ****   font_info->start_pos_lower_a = u8g2_font_get_word(font, 19); 
 161:..\..\u8g2\csrc/u8g2_font.c ****   
 162:..\..\u8g2\csrc/u8g2_font.c ****   /* offset 21 */
 163:..\..\u8g2\csrc/u8g2_font.c **** #ifdef U8G2_WITH_UNICODE
 164:..\..\u8g2\csrc/u8g2_font.c ****   font_info->start_pos_unicode = u8g2_font_get_word(font, 21); 
 165:..\..\u8g2\csrc/u8g2_font.c **** #endif
 166:..\..\u8g2\csrc/u8g2_font.c **** }
 167:..\..\u8g2\csrc/u8g2_font.c **** 
 168:..\..\u8g2\csrc/u8g2_font.c **** 
 169:..\..\u8g2\csrc/u8g2_font.c **** /* calculate the overall length of the font, only used to create the picture for the google wiki */
 170:..\..\u8g2\csrc/u8g2_font.c **** size_t u8g2_GetFontSize(const uint8_t *font_arg)
 171:..\..\u8g2\csrc/u8g2_font.c **** {
 172:..\..\u8g2\csrc/u8g2_font.c ****   uint16_t e;
 173:..\..\u8g2\csrc/u8g2_font.c ****   const uint8_t *font = font_arg;
 174:..\..\u8g2\csrc/u8g2_font.c ****   font += U8G2_FONT_DATA_STRUCT_SIZE;
 175:..\..\u8g2\csrc/u8g2_font.c ****   
 176:..\..\u8g2\csrc/u8g2_font.c ****   for(;;)
 177:..\..\u8g2\csrc/u8g2_font.c ****   {
 178:..\..\u8g2\csrc/u8g2_font.c ****     if ( u8x8_pgm_read( font + 1 ) == 0 )
 179:..\..\u8g2\csrc/u8g2_font.c ****       break;
 180:..\..\u8g2\csrc/u8g2_font.c ****     font += u8x8_pgm_read( font + 1 );
 181:..\..\u8g2\csrc/u8g2_font.c ****   }
 182:..\..\u8g2\csrc/u8g2_font.c ****   
 183:..\..\u8g2\csrc/u8g2_font.c ****   /* continue with unicode section */
 184:..\..\u8g2\csrc/u8g2_font.c ****   font += 2;
 185:..\..\u8g2\csrc/u8g2_font.c ****   
 186:..\..\u8g2\csrc/u8g2_font.c ****   for(;;)
 187:..\..\u8g2\csrc/u8g2_font.c ****   {
 188:..\..\u8g2\csrc/u8g2_font.c ****     e = u8x8_pgm_read( font );
 189:..\..\u8g2\csrc/u8g2_font.c ****     e <<= 8;
 190:..\..\u8g2\csrc/u8g2_font.c ****     e |= u8x8_pgm_read( font + 1 );
 191:..\..\u8g2\csrc/u8g2_font.c ****     if ( e == 0 )
 192:..\..\u8g2\csrc/u8g2_font.c ****       break;
 193:..\..\u8g2\csrc/u8g2_font.c ****     font += u8x8_pgm_read( font + 2 );    
 194:..\..\u8g2\csrc/u8g2_font.c ****   }
 195:..\..\u8g2\csrc/u8g2_font.c ****   
 196:..\..\u8g2\csrc/u8g2_font.c ****   return (font - font_arg) + 2;
 197:..\..\u8g2\csrc/u8g2_font.c **** }
 198:..\..\u8g2\csrc/u8g2_font.c **** 
 199:..\..\u8g2\csrc/u8g2_font.c **** /*========================================================================*/
 200:..\..\u8g2\csrc/u8g2_font.c **** /* u8g2 interface, font access */
 201:..\..\u8g2\csrc/u8g2_font.c **** 
 202:..\..\u8g2\csrc/u8g2_font.c **** uint8_t u8g2_GetFontBBXWidth(u8g2_t *u8g2)
 203:..\..\u8g2\csrc/u8g2_font.c **** {
ARM GAS  C:\Users\arh\AppData\Local\Temp\cc6sEv7h.s 			page 6


 204:..\..\u8g2\csrc/u8g2_font.c ****   return u8g2->font_info.max_char_width;		/* new font info structure */
 205:..\..\u8g2\csrc/u8g2_font.c **** }
 206:..\..\u8g2\csrc/u8g2_font.c **** 
 207:..\..\u8g2\csrc/u8g2_font.c **** uint8_t u8g2_GetFontBBXHeight(u8g2_t *u8g2)
 208:..\..\u8g2\csrc/u8g2_font.c **** {
 209:..\..\u8g2\csrc/u8g2_font.c ****   return u8g2->font_info.max_char_height;		/* new font info structure */
 210:..\..\u8g2\csrc/u8g2_font.c **** }
 211:..\..\u8g2\csrc/u8g2_font.c **** 
 212:..\..\u8g2\csrc/u8g2_font.c **** int8_t u8g_GetFontBBXOffX(u8g2_t *u8g2) U8G2_NOINLINE;
 213:..\..\u8g2\csrc/u8g2_font.c **** int8_t u8g_GetFontBBXOffX(u8g2_t *u8g2)
 214:..\..\u8g2\csrc/u8g2_font.c **** {
 215:..\..\u8g2\csrc/u8g2_font.c ****   return u8g2->font_info.x_offset;		/* new font info structure */
 216:..\..\u8g2\csrc/u8g2_font.c **** }
 217:..\..\u8g2\csrc/u8g2_font.c **** 
 218:..\..\u8g2\csrc/u8g2_font.c **** int8_t u8g2_GetFontBBXOffY(u8g2_t *u8g2) U8G2_NOINLINE;
 219:..\..\u8g2\csrc/u8g2_font.c **** int8_t u8g2_GetFontBBXOffY(u8g2_t *u8g2)
 220:..\..\u8g2\csrc/u8g2_font.c **** {
 221:..\..\u8g2\csrc/u8g2_font.c ****   return u8g2->font_info.y_offset;		/* new font info structure */
 222:..\..\u8g2\csrc/u8g2_font.c **** }
 223:..\..\u8g2\csrc/u8g2_font.c **** 
 224:..\..\u8g2\csrc/u8g2_font.c **** uint8_t u8g2_GetFontCapitalAHeight(u8g2_t *u8g2) U8G2_NOINLINE; 
 225:..\..\u8g2\csrc/u8g2_font.c **** uint8_t u8g2_GetFontCapitalAHeight(u8g2_t *u8g2)
 226:..\..\u8g2\csrc/u8g2_font.c **** {
 227:..\..\u8g2\csrc/u8g2_font.c ****   return u8g2->font_info.ascent_A;		/* new font info structure */
 228:..\..\u8g2\csrc/u8g2_font.c **** }
 229:..\..\u8g2\csrc/u8g2_font.c **** 
 230:..\..\u8g2\csrc/u8g2_font.c **** /*========================================================================*/
 231:..\..\u8g2\csrc/u8g2_font.c **** /* glyph handling */
 232:..\..\u8g2\csrc/u8g2_font.c **** 
 233:..\..\u8g2\csrc/u8g2_font.c **** /* optimized */
 234:..\..\u8g2\csrc/u8g2_font.c **** uint8_t u8g2_font_decode_get_unsigned_bits(u8g2_font_decode_t *f, uint8_t cnt) 
 235:..\..\u8g2\csrc/u8g2_font.c **** {
 236:..\..\u8g2\csrc/u8g2_font.c ****   uint8_t val;
 237:..\..\u8g2\csrc/u8g2_font.c ****   uint8_t bit_pos = f->decode_bit_pos;
 238:..\..\u8g2\csrc/u8g2_font.c ****   uint8_t bit_pos_plus_cnt;
 239:..\..\u8g2\csrc/u8g2_font.c ****   
 240:..\..\u8g2\csrc/u8g2_font.c ****   //val = *(f->decode_ptr);
 241:..\..\u8g2\csrc/u8g2_font.c ****   val = u8x8_pgm_read( f->decode_ptr );  
 242:..\..\u8g2\csrc/u8g2_font.c ****   
 243:..\..\u8g2\csrc/u8g2_font.c ****   val >>= bit_pos;
 244:..\..\u8g2\csrc/u8g2_font.c ****   bit_pos_plus_cnt = bit_pos;
 245:..\..\u8g2\csrc/u8g2_font.c ****   bit_pos_plus_cnt += cnt;
 246:..\..\u8g2\csrc/u8g2_font.c ****   if ( bit_pos_plus_cnt >= 8 )
 247:..\..\u8g2\csrc/u8g2_font.c ****   {
 248:..\..\u8g2\csrc/u8g2_font.c ****     uint8_t s = 8;
 249:..\..\u8g2\csrc/u8g2_font.c ****     s -= bit_pos;
 250:..\..\u8g2\csrc/u8g2_font.c ****     f->decode_ptr++;
 251:..\..\u8g2\csrc/u8g2_font.c ****     //val |= *(f->decode_ptr) << (8-bit_pos);
 252:..\..\u8g2\csrc/u8g2_font.c ****     val |= u8x8_pgm_read( f->decode_ptr ) << (s);
 253:..\..\u8g2\csrc/u8g2_font.c ****     //bit_pos -= 8;
 254:..\..\u8g2\csrc/u8g2_font.c ****     bit_pos_plus_cnt -= 8;
 255:..\..\u8g2\csrc/u8g2_font.c ****   }
 256:..\..\u8g2\csrc/u8g2_font.c ****   val &= (1U<<cnt)-1;
 257:..\..\u8g2\csrc/u8g2_font.c ****   //bit_pos += cnt;
 258:..\..\u8g2\csrc/u8g2_font.c ****   
 259:..\..\u8g2\csrc/u8g2_font.c ****   f->decode_bit_pos = bit_pos_plus_cnt;
 260:..\..\u8g2\csrc/u8g2_font.c ****   return val;
ARM GAS  C:\Users\arh\AppData\Local\Temp\cc6sEv7h.s 			page 7


 261:..\..\u8g2\csrc/u8g2_font.c **** }
 262:..\..\u8g2\csrc/u8g2_font.c **** 
 263:..\..\u8g2\csrc/u8g2_font.c **** 
 264:..\..\u8g2\csrc/u8g2_font.c **** /*
 265:..\..\u8g2\csrc/u8g2_font.c ****     2 bit --> cnt = 2
 266:..\..\u8g2\csrc/u8g2_font.c ****       -2,-1,0. 1
 267:..\..\u8g2\csrc/u8g2_font.c **** 
 268:..\..\u8g2\csrc/u8g2_font.c ****     3 bit --> cnt = 3
 269:..\..\u8g2\csrc/u8g2_font.c ****       -2,-1,0. 1
 270:..\..\u8g2\csrc/u8g2_font.c ****       -4,-3,-2,-1,0,1,2,3
 271:..\..\u8g2\csrc/u8g2_font.c **** 
 272:..\..\u8g2\csrc/u8g2_font.c ****       if ( x < 0 )
 273:..\..\u8g2\csrc/u8g2_font.c **** 	r = bits(x-1)+1;
 274:..\..\u8g2\csrc/u8g2_font.c ****     else
 275:..\..\u8g2\csrc/u8g2_font.c **** 	r = bits(x)+1;
 276:..\..\u8g2\csrc/u8g2_font.c **** 
 277:..\..\u8g2\csrc/u8g2_font.c **** */
 278:..\..\u8g2\csrc/u8g2_font.c **** /* optimized */
 279:..\..\u8g2\csrc/u8g2_font.c **** int8_t u8g2_font_decode_get_signed_bits(u8g2_font_decode_t *f, uint8_t cnt)
 280:..\..\u8g2\csrc/u8g2_font.c **** {
 281:..\..\u8g2\csrc/u8g2_font.c ****   int8_t v, d;
 282:..\..\u8g2\csrc/u8g2_font.c ****   v = (int8_t)u8g2_font_decode_get_unsigned_bits(f, cnt);
 283:..\..\u8g2\csrc/u8g2_font.c ****   d = 1;
 284:..\..\u8g2\csrc/u8g2_font.c ****   cnt--;
 285:..\..\u8g2\csrc/u8g2_font.c ****   d <<= cnt;
 286:..\..\u8g2\csrc/u8g2_font.c ****   v -= d;
 287:..\..\u8g2\csrc/u8g2_font.c ****   return v;
 288:..\..\u8g2\csrc/u8g2_font.c ****   //return (int8_t)u8g2_font_decode_get_unsigned_bits(f, cnt) - ((1<<cnt)>>1);
 289:..\..\u8g2\csrc/u8g2_font.c **** }
 290:..\..\u8g2\csrc/u8g2_font.c **** 
 291:..\..\u8g2\csrc/u8g2_font.c **** 
 292:..\..\u8g2\csrc/u8g2_font.c **** #ifdef U8G2_WITH_FONT_ROTATION
 293:..\..\u8g2\csrc/u8g2_font.c **** static u8g2_uint_t u8g2_add_vector_y(u8g2_uint_t dy, int8_t x, int8_t y, uint8_t dir) U8G2_NOINLINE
 294:..\..\u8g2\csrc/u8g2_font.c **** static u8g2_uint_t u8g2_add_vector_y(u8g2_uint_t dy, int8_t x, int8_t y, uint8_t dir)
 295:..\..\u8g2\csrc/u8g2_font.c **** {
  83              		.loc 1 295 0
  84              		.cfi_startproc
  85              		@ args = 0, pretend = 0, frame = 0
  86              		@ frame_needed = 0, uses_anonymous_args = 0
  87              		@ link register save eliminated.
  88              	.LVL8:
 296:..\..\u8g2\csrc/u8g2_font.c ****   switch(dir)
  89              		.loc 1 296 0
  90 0000 012B     		cmp	r3, #1
  91 0002 07D0     		beq	.L5
  92 0004 002B     		cmp	r3, #0
  93 0006 02D0     		beq	.L6
  94 0008 022B     		cmp	r3, #2
  95 000a 06D0     		beq	.L7
  96 000c 08E0     		b	.L9
  97              	.L6:
 297:..\..\u8g2\csrc/u8g2_font.c ****   {
 298:..\..\u8g2\csrc/u8g2_font.c ****     case 0:
 299:..\..\u8g2\csrc/u8g2_font.c ****       dy += y;
  98              		.loc 1 299 0
  99 000e 8018     		adds	r0, r0, r2
 100              	.LVL9:
ARM GAS  C:\Users\arh\AppData\Local\Temp\cc6sEv7h.s 			page 8


 101 0010 C0B2     		uxtb	r0, r0
 102              	.LVL10:
 300:..\..\u8g2\csrc/u8g2_font.c ****       break;
 103              		.loc 1 300 0
 104 0012 07E0     		b	.L8
 105              	.L5:
 301:..\..\u8g2\csrc/u8g2_font.c ****     case 1:
 302:..\..\u8g2\csrc/u8g2_font.c ****       dy += x;
 106              		.loc 1 302 0
 107 0014 4018     		adds	r0, r0, r1
 108              	.LVL11:
 109 0016 C0B2     		uxtb	r0, r0
 110              	.LVL12:
 303:..\..\u8g2\csrc/u8g2_font.c ****       break;
 111              		.loc 1 303 0
 112 0018 04E0     		b	.L8
 113              	.L7:
 304:..\..\u8g2\csrc/u8g2_font.c ****     case 2:
 305:..\..\u8g2\csrc/u8g2_font.c ****       dy -= y;
 114              		.loc 1 305 0
 115 001a 801A     		subs	r0, r0, r2
 116              	.LVL13:
 117 001c C0B2     		uxtb	r0, r0
 118              	.LVL14:
 306:..\..\u8g2\csrc/u8g2_font.c ****       break;
 119              		.loc 1 306 0
 120 001e 01E0     		b	.L8
 121              	.L9:
 307:..\..\u8g2\csrc/u8g2_font.c ****     default:
 308:..\..\u8g2\csrc/u8g2_font.c ****       dy -= x;
 122              		.loc 1 308 0
 123 0020 401A     		subs	r0, r0, r1
 124              	.LVL15:
 125 0022 C0B2     		uxtb	r0, r0
 126              	.LVL16:
 127              	.L8:
 309:..\..\u8g2\csrc/u8g2_font.c ****       break;      
 310:..\..\u8g2\csrc/u8g2_font.c ****   }
 311:..\..\u8g2\csrc/u8g2_font.c ****   return dy;
 312:..\..\u8g2\csrc/u8g2_font.c **** }
 128              		.loc 1 312 0
 129              		@ sp needed
 130 0024 7047     		bx	lr
 131              		.cfi_endproc
 132              	.LFE11:
 133              		.size	u8g2_add_vector_y, .-u8g2_add_vector_y
 134 0026 C046     		.section	.text.u8g2_add_vector_x,"ax",%progbits
 135              		.align	2
 136              		.code	16
 137              		.thumb_func
 138              		.type	u8g2_add_vector_x, %function
 139              	u8g2_add_vector_x:
 140              	.LFB12:
 313:..\..\u8g2\csrc/u8g2_font.c **** 
 314:..\..\u8g2\csrc/u8g2_font.c **** static u8g2_uint_t u8g2_add_vector_x(u8g2_uint_t dx, int8_t x, int8_t y, uint8_t dir) U8G2_NOINLINE
 315:..\..\u8g2\csrc/u8g2_font.c **** static u8g2_uint_t u8g2_add_vector_x(u8g2_uint_t dx, int8_t x, int8_t y, uint8_t dir)
 316:..\..\u8g2\csrc/u8g2_font.c **** {
ARM GAS  C:\Users\arh\AppData\Local\Temp\cc6sEv7h.s 			page 9


 141              		.loc 1 316 0
 142              		.cfi_startproc
 143              		@ args = 0, pretend = 0, frame = 0
 144              		@ frame_needed = 0, uses_anonymous_args = 0
 145              		@ link register save eliminated.
 146              	.LVL17:
 317:..\..\u8g2\csrc/u8g2_font.c ****   switch(dir)
 147              		.loc 1 317 0
 148 0000 012B     		cmp	r3, #1
 149 0002 07D0     		beq	.L12
 150 0004 002B     		cmp	r3, #0
 151 0006 02D0     		beq	.L13
 152 0008 022B     		cmp	r3, #2
 153 000a 06D0     		beq	.L14
 154 000c 08E0     		b	.L16
 155              	.L13:
 318:..\..\u8g2\csrc/u8g2_font.c ****   {
 319:..\..\u8g2\csrc/u8g2_font.c ****     case 0:
 320:..\..\u8g2\csrc/u8g2_font.c ****       dx += x;
 156              		.loc 1 320 0
 157 000e 4018     		adds	r0, r0, r1
 158              	.LVL18:
 159 0010 C0B2     		uxtb	r0, r0
 160              	.LVL19:
 321:..\..\u8g2\csrc/u8g2_font.c ****       break;
 161              		.loc 1 321 0
 162 0012 07E0     		b	.L15
 163              	.L12:
 322:..\..\u8g2\csrc/u8g2_font.c ****     case 1:
 323:..\..\u8g2\csrc/u8g2_font.c ****       dx -= y;
 164              		.loc 1 323 0
 165 0014 801A     		subs	r0, r0, r2
 166              	.LVL20:
 167 0016 C0B2     		uxtb	r0, r0
 168              	.LVL21:
 324:..\..\u8g2\csrc/u8g2_font.c ****       break;
 169              		.loc 1 324 0
 170 0018 04E0     		b	.L15
 171              	.L14:
 325:..\..\u8g2\csrc/u8g2_font.c ****     case 2:
 326:..\..\u8g2\csrc/u8g2_font.c ****       dx -= x;
 172              		.loc 1 326 0
 173 001a 401A     		subs	r0, r0, r1
 174              	.LVL22:
 175 001c C0B2     		uxtb	r0, r0
 176              	.LVL23:
 327:..\..\u8g2\csrc/u8g2_font.c ****       break;
 177              		.loc 1 327 0
 178 001e 01E0     		b	.L15
 179              	.L16:
 328:..\..\u8g2\csrc/u8g2_font.c ****     default:
 329:..\..\u8g2\csrc/u8g2_font.c ****       dx += y;
 180              		.loc 1 329 0
 181 0020 8018     		adds	r0, r0, r2
 182              	.LVL24:
 183 0022 C0B2     		uxtb	r0, r0
 184              	.LVL25:
ARM GAS  C:\Users\arh\AppData\Local\Temp\cc6sEv7h.s 			page 10


 185              	.L15:
 330:..\..\u8g2\csrc/u8g2_font.c ****       break;      
 331:..\..\u8g2\csrc/u8g2_font.c ****   }
 332:..\..\u8g2\csrc/u8g2_font.c ****   return dx;
 333:..\..\u8g2\csrc/u8g2_font.c **** }
 186              		.loc 1 333 0
 187              		@ sp needed
 188 0024 7047     		bx	lr
 189              		.cfi_endproc
 190              	.LFE12:
 191              		.size	u8g2_add_vector_x, .-u8g2_add_vector_x
 192 0026 C046     		.section	.text.u8g2_font_calc_vref_font,"ax",%progbits
 193              		.align	2
 194              		.global	u8g2_font_calc_vref_font
 195              		.code	16
 196              		.thumb_func
 197              		.type	u8g2_font_calc_vref_font, %function
 198              	u8g2_font_calc_vref_font:
 199              	.LFB31:
 334:..\..\u8g2\csrc/u8g2_font.c **** #endif
 335:..\..\u8g2\csrc/u8g2_font.c **** 
 336:..\..\u8g2\csrc/u8g2_font.c **** 
 337:..\..\u8g2\csrc/u8g2_font.c **** 
 338:..\..\u8g2\csrc/u8g2_font.c **** /*
 339:..\..\u8g2\csrc/u8g2_font.c ****   Description:
 340:..\..\u8g2\csrc/u8g2_font.c ****     Draw a run-length area of the glyph. "len" can have any size and the line
 341:..\..\u8g2\csrc/u8g2_font.c ****     length has to be wrapped at the glyph border.
 342:..\..\u8g2\csrc/u8g2_font.c ****   Args:
 343:..\..\u8g2\csrc/u8g2_font.c ****     len: 					Length of the line
 344:..\..\u8g2\csrc/u8g2_font.c ****     is_foreground			foreground/background?
 345:..\..\u8g2\csrc/u8g2_font.c ****     u8g2->font_decode.target_x		X position
 346:..\..\u8g2\csrc/u8g2_font.c ****     u8g2->font_decode.target_y		Y position
 347:..\..\u8g2\csrc/u8g2_font.c ****     u8g2->font_decode.is_transparent	Transparent mode
 348:..\..\u8g2\csrc/u8g2_font.c ****   Return:
 349:..\..\u8g2\csrc/u8g2_font.c ****     -
 350:..\..\u8g2\csrc/u8g2_font.c ****   Calls:
 351:..\..\u8g2\csrc/u8g2_font.c ****     u8g2_Draw90Line()
 352:..\..\u8g2\csrc/u8g2_font.c ****   Called by:
 353:..\..\u8g2\csrc/u8g2_font.c ****     u8g2_font_decode_glyph()
 354:..\..\u8g2\csrc/u8g2_font.c **** */
 355:..\..\u8g2\csrc/u8g2_font.c **** /* optimized */
 356:..\..\u8g2\csrc/u8g2_font.c **** void u8g2_font_decode_len(u8g2_t *u8g2, uint8_t len, uint8_t is_foreground)
 357:..\..\u8g2\csrc/u8g2_font.c **** {
 358:..\..\u8g2\csrc/u8g2_font.c ****   uint8_t cnt;	/* total number of remaining pixels, which have to be drawn */
 359:..\..\u8g2\csrc/u8g2_font.c ****   uint8_t rem; 	/* remaining pixel to the right edge of the glyph */
 360:..\..\u8g2\csrc/u8g2_font.c ****   uint8_t current;	/* number of pixels, which need to be drawn for the draw procedure */
 361:..\..\u8g2\csrc/u8g2_font.c ****     /* current is either equal to cnt or equal to rem */
 362:..\..\u8g2\csrc/u8g2_font.c ****   
 363:..\..\u8g2\csrc/u8g2_font.c ****   /* local coordinates of the glyph */
 364:..\..\u8g2\csrc/u8g2_font.c ****   uint8_t lx,ly;
 365:..\..\u8g2\csrc/u8g2_font.c ****   
 366:..\..\u8g2\csrc/u8g2_font.c ****   /* target position on the screen */
 367:..\..\u8g2\csrc/u8g2_font.c ****   u8g2_uint_t x, y;
 368:..\..\u8g2\csrc/u8g2_font.c ****   
 369:..\..\u8g2\csrc/u8g2_font.c ****   u8g2_font_decode_t *decode = &(u8g2->font_decode);
 370:..\..\u8g2\csrc/u8g2_font.c ****   
 371:..\..\u8g2\csrc/u8g2_font.c ****   cnt = len;
ARM GAS  C:\Users\arh\AppData\Local\Temp\cc6sEv7h.s 			page 11


 372:..\..\u8g2\csrc/u8g2_font.c ****   
 373:..\..\u8g2\csrc/u8g2_font.c ****   /* get the local position */
 374:..\..\u8g2\csrc/u8g2_font.c ****   lx = decode->x;
 375:..\..\u8g2\csrc/u8g2_font.c ****   ly = decode->y;
 376:..\..\u8g2\csrc/u8g2_font.c ****   
 377:..\..\u8g2\csrc/u8g2_font.c ****   for(;;)
 378:..\..\u8g2\csrc/u8g2_font.c ****   {
 379:..\..\u8g2\csrc/u8g2_font.c ****     /* calculate the number of pixel to the right edge of the glyph */
 380:..\..\u8g2\csrc/u8g2_font.c ****     rem = decode->glyph_width;
 381:..\..\u8g2\csrc/u8g2_font.c ****     rem -= lx;
 382:..\..\u8g2\csrc/u8g2_font.c ****     
 383:..\..\u8g2\csrc/u8g2_font.c ****     /* calculate how many pixel to draw. This is either to the right edge */
 384:..\..\u8g2\csrc/u8g2_font.c ****     /* or lesser, if not enough pixel are left */
 385:..\..\u8g2\csrc/u8g2_font.c ****     current = rem;
 386:..\..\u8g2\csrc/u8g2_font.c ****     if ( cnt < rem )
 387:..\..\u8g2\csrc/u8g2_font.c ****       current = cnt;
 388:..\..\u8g2\csrc/u8g2_font.c ****     
 389:..\..\u8g2\csrc/u8g2_font.c ****     
 390:..\..\u8g2\csrc/u8g2_font.c ****     /* now draw the line, but apply the rotation around the glyph target position */
 391:..\..\u8g2\csrc/u8g2_font.c ****     //u8g2_font_decode_draw_pixel(u8g2, lx,ly,current, is_foreground);
 392:..\..\u8g2\csrc/u8g2_font.c **** 
 393:..\..\u8g2\csrc/u8g2_font.c ****     /* get target position */
 394:..\..\u8g2\csrc/u8g2_font.c ****     x = decode->target_x;
 395:..\..\u8g2\csrc/u8g2_font.c ****     y = decode->target_y;
 396:..\..\u8g2\csrc/u8g2_font.c **** 
 397:..\..\u8g2\csrc/u8g2_font.c ****     /* apply rotation */
 398:..\..\u8g2\csrc/u8g2_font.c **** #ifdef U8G2_WITH_FONT_ROTATION
 399:..\..\u8g2\csrc/u8g2_font.c ****     x = u8g2_add_vector_x(x, lx, ly, decode->dir);
 400:..\..\u8g2\csrc/u8g2_font.c ****     y = u8g2_add_vector_y(y, lx, ly, decode->dir);
 401:..\..\u8g2\csrc/u8g2_font.c **** #else
 402:..\..\u8g2\csrc/u8g2_font.c ****     x += lx;
 403:..\..\u8g2\csrc/u8g2_font.c ****     y += ly;
 404:..\..\u8g2\csrc/u8g2_font.c **** #endif
 405:..\..\u8g2\csrc/u8g2_font.c ****     
 406:..\..\u8g2\csrc/u8g2_font.c ****     /* draw foreground and background (if required) */
 407:..\..\u8g2\csrc/u8g2_font.c ****     if ( is_foreground )
 408:..\..\u8g2\csrc/u8g2_font.c ****     {
 409:..\..\u8g2\csrc/u8g2_font.c ****       u8g2->draw_color = decode->fg_color;			/* draw_color will be restored later */
 410:..\..\u8g2\csrc/u8g2_font.c ****       u8g2_DrawHVLine(u8g2, 
 411:..\..\u8g2\csrc/u8g2_font.c **** 	x, 
 412:..\..\u8g2\csrc/u8g2_font.c **** 	y, 
 413:..\..\u8g2\csrc/u8g2_font.c **** 	current, 
 414:..\..\u8g2\csrc/u8g2_font.c **** #ifdef U8G2_WITH_FONT_ROTATION
 415:..\..\u8g2\csrc/u8g2_font.c **** 	/* dir */ decode->dir
 416:..\..\u8g2\csrc/u8g2_font.c **** #else
 417:..\..\u8g2\csrc/u8g2_font.c **** 	0
 418:..\..\u8g2\csrc/u8g2_font.c **** #endif
 419:..\..\u8g2\csrc/u8g2_font.c ****       );
 420:..\..\u8g2\csrc/u8g2_font.c ****     }
 421:..\..\u8g2\csrc/u8g2_font.c ****     else if ( decode->is_transparent == 0 )    
 422:..\..\u8g2\csrc/u8g2_font.c ****     {
 423:..\..\u8g2\csrc/u8g2_font.c ****       u8g2->draw_color = decode->bg_color;			/* draw_color will be restored later */
 424:..\..\u8g2\csrc/u8g2_font.c ****       u8g2_DrawHVLine(u8g2, 
 425:..\..\u8g2\csrc/u8g2_font.c **** 	x, 
 426:..\..\u8g2\csrc/u8g2_font.c **** 	y, 
 427:..\..\u8g2\csrc/u8g2_font.c **** 	current, 
 428:..\..\u8g2\csrc/u8g2_font.c **** #ifdef U8G2_WITH_FONT_ROTATION
ARM GAS  C:\Users\arh\AppData\Local\Temp\cc6sEv7h.s 			page 12


 429:..\..\u8g2\csrc/u8g2_font.c **** 	/* dir */ decode->dir
 430:..\..\u8g2\csrc/u8g2_font.c **** #else
 431:..\..\u8g2\csrc/u8g2_font.c **** 	0
 432:..\..\u8g2\csrc/u8g2_font.c **** #endif
 433:..\..\u8g2\csrc/u8g2_font.c ****       );   
 434:..\..\u8g2\csrc/u8g2_font.c ****     }
 435:..\..\u8g2\csrc/u8g2_font.c ****     
 436:..\..\u8g2\csrc/u8g2_font.c ****     /* check, whether the end of the run length code has been reached */
 437:..\..\u8g2\csrc/u8g2_font.c ****     if ( cnt < rem )
 438:..\..\u8g2\csrc/u8g2_font.c ****       break;
 439:..\..\u8g2\csrc/u8g2_font.c ****     cnt -= rem;
 440:..\..\u8g2\csrc/u8g2_font.c ****     lx = 0;
 441:..\..\u8g2\csrc/u8g2_font.c ****     ly++;
 442:..\..\u8g2\csrc/u8g2_font.c ****   }
 443:..\..\u8g2\csrc/u8g2_font.c ****   lx += cnt;
 444:..\..\u8g2\csrc/u8g2_font.c ****   
 445:..\..\u8g2\csrc/u8g2_font.c ****   decode->x = lx;
 446:..\..\u8g2\csrc/u8g2_font.c ****   decode->y = ly;
 447:..\..\u8g2\csrc/u8g2_font.c ****   
 448:..\..\u8g2\csrc/u8g2_font.c **** }
 449:..\..\u8g2\csrc/u8g2_font.c **** 
 450:..\..\u8g2\csrc/u8g2_font.c **** static void u8g2_font_setup_decode(u8g2_t *u8g2, const uint8_t *glyph_data)
 451:..\..\u8g2\csrc/u8g2_font.c **** {
 452:..\..\u8g2\csrc/u8g2_font.c ****   u8g2_font_decode_t *decode = &(u8g2->font_decode);
 453:..\..\u8g2\csrc/u8g2_font.c ****   decode->decode_ptr = glyph_data;
 454:..\..\u8g2\csrc/u8g2_font.c ****   decode->decode_bit_pos = 0;
 455:..\..\u8g2\csrc/u8g2_font.c ****   
 456:..\..\u8g2\csrc/u8g2_font.c ****   /* 8 Nov 2015, this is already done in the glyph data search procedure */
 457:..\..\u8g2\csrc/u8g2_font.c ****   /*
 458:..\..\u8g2\csrc/u8g2_font.c ****   decode->decode_ptr += 1;
 459:..\..\u8g2\csrc/u8g2_font.c ****   decode->decode_ptr += 1;
 460:..\..\u8g2\csrc/u8g2_font.c ****   */
 461:..\..\u8g2\csrc/u8g2_font.c ****   
 462:..\..\u8g2\csrc/u8g2_font.c ****   decode->glyph_width = u8g2_font_decode_get_unsigned_bits(decode, u8g2->font_info.bits_per_char_wi
 463:..\..\u8g2\csrc/u8g2_font.c ****   decode->glyph_height = u8g2_font_decode_get_unsigned_bits(decode,u8g2->font_info.bits_per_char_he
 464:..\..\u8g2\csrc/u8g2_font.c ****   
 465:..\..\u8g2\csrc/u8g2_font.c ****   decode->fg_color = u8g2->draw_color;
 466:..\..\u8g2\csrc/u8g2_font.c ****   decode->bg_color = (decode->fg_color == 0 ? 1 : 0);
 467:..\..\u8g2\csrc/u8g2_font.c **** }
 468:..\..\u8g2\csrc/u8g2_font.c **** 
 469:..\..\u8g2\csrc/u8g2_font.c **** 
 470:..\..\u8g2\csrc/u8g2_font.c **** /*
 471:..\..\u8g2\csrc/u8g2_font.c ****   Description:
 472:..\..\u8g2\csrc/u8g2_font.c ****     Decode and draw a glyph.
 473:..\..\u8g2\csrc/u8g2_font.c ****   Args:
 474:..\..\u8g2\csrc/u8g2_font.c ****     glyph_data: 					Pointer to the compressed glyph data of the font
 475:..\..\u8g2\csrc/u8g2_font.c ****     u8g2->font_decode.target_x		X position
 476:..\..\u8g2\csrc/u8g2_font.c ****     u8g2->font_decode.target_y		Y position
 477:..\..\u8g2\csrc/u8g2_font.c ****     u8g2->font_decode.is_transparent	Transparent mode
 478:..\..\u8g2\csrc/u8g2_font.c ****   Return:
 479:..\..\u8g2\csrc/u8g2_font.c ****     Width (delta x advance) of the glyph.
 480:..\..\u8g2\csrc/u8g2_font.c ****   Calls:
 481:..\..\u8g2\csrc/u8g2_font.c ****     u8g2_font_decode_len()
 482:..\..\u8g2\csrc/u8g2_font.c **** */
 483:..\..\u8g2\csrc/u8g2_font.c **** /* optimized */
 484:..\..\u8g2\csrc/u8g2_font.c **** int8_t u8g2_font_decode_glyph(u8g2_t *u8g2, const uint8_t *glyph_data)
 485:..\..\u8g2\csrc/u8g2_font.c **** {
ARM GAS  C:\Users\arh\AppData\Local\Temp\cc6sEv7h.s 			page 13


 486:..\..\u8g2\csrc/u8g2_font.c ****   uint8_t a, b;
 487:..\..\u8g2\csrc/u8g2_font.c ****   int8_t x, y;
 488:..\..\u8g2\csrc/u8g2_font.c ****   int8_t d;
 489:..\..\u8g2\csrc/u8g2_font.c ****   int8_t h;
 490:..\..\u8g2\csrc/u8g2_font.c ****   u8g2_font_decode_t *decode = &(u8g2->font_decode);
 491:..\..\u8g2\csrc/u8g2_font.c ****     
 492:..\..\u8g2\csrc/u8g2_font.c ****   u8g2_font_setup_decode(u8g2, glyph_data);
 493:..\..\u8g2\csrc/u8g2_font.c ****   h = u8g2->font_decode.glyph_height;
 494:..\..\u8g2\csrc/u8g2_font.c ****   
 495:..\..\u8g2\csrc/u8g2_font.c ****   x = u8g2_font_decode_get_signed_bits(decode, u8g2->font_info.bits_per_char_x);
 496:..\..\u8g2\csrc/u8g2_font.c ****   y = u8g2_font_decode_get_signed_bits(decode, u8g2->font_info.bits_per_char_y);
 497:..\..\u8g2\csrc/u8g2_font.c ****   d = u8g2_font_decode_get_signed_bits(decode, u8g2->font_info.bits_per_delta_x);
 498:..\..\u8g2\csrc/u8g2_font.c ****   
 499:..\..\u8g2\csrc/u8g2_font.c ****   if ( decode->glyph_width > 0 )
 500:..\..\u8g2\csrc/u8g2_font.c ****   {
 501:..\..\u8g2\csrc/u8g2_font.c **** #ifdef U8G2_WITH_FONT_ROTATION
 502:..\..\u8g2\csrc/u8g2_font.c ****     decode->target_x = u8g2_add_vector_x(decode->target_x, x, -(h+y), decode->dir);
 503:..\..\u8g2\csrc/u8g2_font.c ****     decode->target_y = u8g2_add_vector_y(decode->target_y, x, -(h+y), decode->dir);
 504:..\..\u8g2\csrc/u8g2_font.c **** #else
 505:..\..\u8g2\csrc/u8g2_font.c ****     decode->target_x += x;
 506:..\..\u8g2\csrc/u8g2_font.c ****     decode->target_y -= h+y;
 507:..\..\u8g2\csrc/u8g2_font.c **** #endif
 508:..\..\u8g2\csrc/u8g2_font.c ****     //u8g2_add_vector(&(decode->target_x), &(decode->target_y), x, -(h+y), decode->dir);
 509:..\..\u8g2\csrc/u8g2_font.c **** 
 510:..\..\u8g2\csrc/u8g2_font.c **** #ifdef U8G2_WITH_INTERSECTION
 511:..\..\u8g2\csrc/u8g2_font.c ****     {
 512:..\..\u8g2\csrc/u8g2_font.c ****       u8g2_uint_t x0, x1, y0, y1;
 513:..\..\u8g2\csrc/u8g2_font.c ****       x0 = decode->target_x;
 514:..\..\u8g2\csrc/u8g2_font.c ****       y0 = decode->target_y;
 515:..\..\u8g2\csrc/u8g2_font.c ****       x1 = x0;
 516:..\..\u8g2\csrc/u8g2_font.c ****       y1 = y0;
 517:..\..\u8g2\csrc/u8g2_font.c ****       
 518:..\..\u8g2\csrc/u8g2_font.c **** #ifdef U8G2_WITH_FONT_ROTATION
 519:..\..\u8g2\csrc/u8g2_font.c ****       switch(decode->dir)
 520:..\..\u8g2\csrc/u8g2_font.c ****       {
 521:..\..\u8g2\csrc/u8g2_font.c **** 	case 0:
 522:..\..\u8g2\csrc/u8g2_font.c **** 	    x1 += decode->glyph_width;
 523:..\..\u8g2\csrc/u8g2_font.c **** 	    y1 += h;
 524:..\..\u8g2\csrc/u8g2_font.c **** 	    break;
 525:..\..\u8g2\csrc/u8g2_font.c **** 	case 1:
 526:..\..\u8g2\csrc/u8g2_font.c **** 	    x0 -= h;
 527:..\..\u8g2\csrc/u8g2_font.c **** 	    x0++;	/* shift down, because of assymetric boundaries for the interseciton test */
 528:..\..\u8g2\csrc/u8g2_font.c **** 	    x1++;
 529:..\..\u8g2\csrc/u8g2_font.c **** 	    y1 += decode->glyph_width;
 530:..\..\u8g2\csrc/u8g2_font.c **** 	    break;
 531:..\..\u8g2\csrc/u8g2_font.c **** 	case 2:
 532:..\..\u8g2\csrc/u8g2_font.c **** 	    x0 -= decode->glyph_width;
 533:..\..\u8g2\csrc/u8g2_font.c **** 	    x0++;	/* shift down, because of assymetric boundaries for the interseciton test */
 534:..\..\u8g2\csrc/u8g2_font.c **** 	    x1++;
 535:..\..\u8g2\csrc/u8g2_font.c **** 	    y0 -= h;
 536:..\..\u8g2\csrc/u8g2_font.c **** 	    y0++;	/* shift down, because of assymetric boundaries for the interseciton test */
 537:..\..\u8g2\csrc/u8g2_font.c **** 	    y1++;
 538:..\..\u8g2\csrc/u8g2_font.c **** 	    break;	  
 539:..\..\u8g2\csrc/u8g2_font.c **** 	case 3:
 540:..\..\u8g2\csrc/u8g2_font.c **** 	    x1 += h;
 541:..\..\u8g2\csrc/u8g2_font.c **** 	    y0 -= decode->glyph_width;
 542:..\..\u8g2\csrc/u8g2_font.c **** 	    y0++;	/* shift down, because of assymetric boundaries for the interseciton test */
ARM GAS  C:\Users\arh\AppData\Local\Temp\cc6sEv7h.s 			page 14


 543:..\..\u8g2\csrc/u8g2_font.c **** 	    y1++;
 544:..\..\u8g2\csrc/u8g2_font.c **** 	    break;	  
 545:..\..\u8g2\csrc/u8g2_font.c ****       }
 546:..\..\u8g2\csrc/u8g2_font.c **** #else /* U8G2_WITH_FONT_ROTATION */
 547:..\..\u8g2\csrc/u8g2_font.c ****       x1 += decode->glyph_width;
 548:..\..\u8g2\csrc/u8g2_font.c ****       y1 += h;      
 549:..\..\u8g2\csrc/u8g2_font.c **** #endif
 550:..\..\u8g2\csrc/u8g2_font.c ****       
 551:..\..\u8g2\csrc/u8g2_font.c ****       if ( u8g2_IsIntersection(u8g2, x0, y0, x1, y1) == 0 ) 
 552:..\..\u8g2\csrc/u8g2_font.c **** 	return d;
 553:..\..\u8g2\csrc/u8g2_font.c ****     }
 554:..\..\u8g2\csrc/u8g2_font.c **** #endif /* U8G2_WITH_INTERSECTION */
 555:..\..\u8g2\csrc/u8g2_font.c ****    
 556:..\..\u8g2\csrc/u8g2_font.c ****     /* reset local x/y position */
 557:..\..\u8g2\csrc/u8g2_font.c ****     decode->x = 0;
 558:..\..\u8g2\csrc/u8g2_font.c ****     decode->y = 0;
 559:..\..\u8g2\csrc/u8g2_font.c ****     
 560:..\..\u8g2\csrc/u8g2_font.c ****     /* decode glyph */
 561:..\..\u8g2\csrc/u8g2_font.c ****     for(;;)
 562:..\..\u8g2\csrc/u8g2_font.c ****     {
 563:..\..\u8g2\csrc/u8g2_font.c ****       a = u8g2_font_decode_get_unsigned_bits(decode, u8g2->font_info.bits_per_0);
 564:..\..\u8g2\csrc/u8g2_font.c ****       b = u8g2_font_decode_get_unsigned_bits(decode, u8g2->font_info.bits_per_1);
 565:..\..\u8g2\csrc/u8g2_font.c ****       do
 566:..\..\u8g2\csrc/u8g2_font.c ****       {
 567:..\..\u8g2\csrc/u8g2_font.c **** 	u8g2_font_decode_len(u8g2, a, 0);
 568:..\..\u8g2\csrc/u8g2_font.c **** 	u8g2_font_decode_len(u8g2, b, 1);
 569:..\..\u8g2\csrc/u8g2_font.c ****       } while( u8g2_font_decode_get_unsigned_bits(decode, 1) != 0 );
 570:..\..\u8g2\csrc/u8g2_font.c **** 
 571:..\..\u8g2\csrc/u8g2_font.c ****       if ( decode->y >= h )
 572:..\..\u8g2\csrc/u8g2_font.c **** 	break;
 573:..\..\u8g2\csrc/u8g2_font.c ****     }
 574:..\..\u8g2\csrc/u8g2_font.c ****     
 575:..\..\u8g2\csrc/u8g2_font.c ****     /* restore the u8g2 draw color, because this is modified by the decode algo */
 576:..\..\u8g2\csrc/u8g2_font.c ****     u8g2->draw_color = decode->fg_color;
 577:..\..\u8g2\csrc/u8g2_font.c ****   }
 578:..\..\u8g2\csrc/u8g2_font.c ****   return d;
 579:..\..\u8g2\csrc/u8g2_font.c **** }
 580:..\..\u8g2\csrc/u8g2_font.c **** 
 581:..\..\u8g2\csrc/u8g2_font.c **** /*
 582:..\..\u8g2\csrc/u8g2_font.c ****   Description:
 583:..\..\u8g2\csrc/u8g2_font.c ****     Find the starting point of the glyph data.
 584:..\..\u8g2\csrc/u8g2_font.c ****   Args:
 585:..\..\u8g2\csrc/u8g2_font.c ****     encoding: Encoding (ASCII or Unicode) of the glyph
 586:..\..\u8g2\csrc/u8g2_font.c ****   Return:
 587:..\..\u8g2\csrc/u8g2_font.c ****     Address of the glyph data or NULL, if the encoding is not avialable in the font.
 588:..\..\u8g2\csrc/u8g2_font.c **** */
 589:..\..\u8g2\csrc/u8g2_font.c **** const uint8_t *u8g2_font_get_glyph_data(u8g2_t *u8g2, uint16_t encoding)
 590:..\..\u8g2\csrc/u8g2_font.c **** {
 591:..\..\u8g2\csrc/u8g2_font.c ****   const uint8_t *font = u8g2->font;
 592:..\..\u8g2\csrc/u8g2_font.c ****   font += U8G2_FONT_DATA_STRUCT_SIZE;
 593:..\..\u8g2\csrc/u8g2_font.c **** 
 594:..\..\u8g2\csrc/u8g2_font.c ****   
 595:..\..\u8g2\csrc/u8g2_font.c ****   if ( encoding <= 255 )
 596:..\..\u8g2\csrc/u8g2_font.c ****   {
 597:..\..\u8g2\csrc/u8g2_font.c ****     if ( encoding >= 'a' )
 598:..\..\u8g2\csrc/u8g2_font.c ****     {
 599:..\..\u8g2\csrc/u8g2_font.c ****       font += u8g2->font_info.start_pos_lower_a;
ARM GAS  C:\Users\arh\AppData\Local\Temp\cc6sEv7h.s 			page 15


 600:..\..\u8g2\csrc/u8g2_font.c ****     }
 601:..\..\u8g2\csrc/u8g2_font.c ****     else if ( encoding >= 'A' )
 602:..\..\u8g2\csrc/u8g2_font.c ****     {
 603:..\..\u8g2\csrc/u8g2_font.c ****       font += u8g2->font_info.start_pos_upper_A;
 604:..\..\u8g2\csrc/u8g2_font.c ****     }
 605:..\..\u8g2\csrc/u8g2_font.c ****     
 606:..\..\u8g2\csrc/u8g2_font.c ****     for(;;)
 607:..\..\u8g2\csrc/u8g2_font.c ****     {
 608:..\..\u8g2\csrc/u8g2_font.c ****       if ( u8x8_pgm_read( font + 1 ) == 0 )
 609:..\..\u8g2\csrc/u8g2_font.c **** 	break;
 610:..\..\u8g2\csrc/u8g2_font.c ****       if ( u8x8_pgm_read( font ) == encoding )
 611:..\..\u8g2\csrc/u8g2_font.c ****       {
 612:..\..\u8g2\csrc/u8g2_font.c **** 	return font+2;	/* skip encoding and glyph size */
 613:..\..\u8g2\csrc/u8g2_font.c ****       }
 614:..\..\u8g2\csrc/u8g2_font.c ****       font += u8x8_pgm_read( font + 1 );
 615:..\..\u8g2\csrc/u8g2_font.c ****     }
 616:..\..\u8g2\csrc/u8g2_font.c ****   }
 617:..\..\u8g2\csrc/u8g2_font.c **** #ifdef U8G2_WITH_UNICODE
 618:..\..\u8g2\csrc/u8g2_font.c ****   else
 619:..\..\u8g2\csrc/u8g2_font.c ****   {
 620:..\..\u8g2\csrc/u8g2_font.c ****     uint16_t e;
 621:..\..\u8g2\csrc/u8g2_font.c ****     font += u8g2->font_info.start_pos_unicode;
 622:..\..\u8g2\csrc/u8g2_font.c ****     for(;;)
 623:..\..\u8g2\csrc/u8g2_font.c ****     {
 624:..\..\u8g2\csrc/u8g2_font.c ****       e = u8x8_pgm_read( font );
 625:..\..\u8g2\csrc/u8g2_font.c ****       e <<= 8;
 626:..\..\u8g2\csrc/u8g2_font.c ****       e |= u8x8_pgm_read( font + 1 );
 627:..\..\u8g2\csrc/u8g2_font.c ****   
 628:..\..\u8g2\csrc/u8g2_font.c ****       if ( e == 0 )
 629:..\..\u8g2\csrc/u8g2_font.c **** 	break;
 630:..\..\u8g2\csrc/u8g2_font.c ****   
 631:..\..\u8g2\csrc/u8g2_font.c ****       if ( e == encoding )
 632:..\..\u8g2\csrc/u8g2_font.c ****       {
 633:..\..\u8g2\csrc/u8g2_font.c **** 	return font+3;	/* skip encoding and glyph size */
 634:..\..\u8g2\csrc/u8g2_font.c ****       }
 635:..\..\u8g2\csrc/u8g2_font.c ****       font += u8x8_pgm_read( font + 2 );
 636:..\..\u8g2\csrc/u8g2_font.c ****     }  
 637:..\..\u8g2\csrc/u8g2_font.c ****   }
 638:..\..\u8g2\csrc/u8g2_font.c **** #endif
 639:..\..\u8g2\csrc/u8g2_font.c ****   
 640:..\..\u8g2\csrc/u8g2_font.c ****   return NULL;
 641:..\..\u8g2\csrc/u8g2_font.c **** }
 642:..\..\u8g2\csrc/u8g2_font.c **** 
 643:..\..\u8g2\csrc/u8g2_font.c **** static u8g2_uint_t u8g2_font_draw_glyph(u8g2_t *u8g2, u8g2_uint_t x, u8g2_uint_t y, uint16_t encodi
 644:..\..\u8g2\csrc/u8g2_font.c **** {
 645:..\..\u8g2\csrc/u8g2_font.c ****   u8g2_uint_t dx = 0;
 646:..\..\u8g2\csrc/u8g2_font.c ****   u8g2->font_decode.target_x = x;
 647:..\..\u8g2\csrc/u8g2_font.c ****   u8g2->font_decode.target_y = y;
 648:..\..\u8g2\csrc/u8g2_font.c ****   //u8g2->font_decode.is_transparent = is_transparent; this is already set
 649:..\..\u8g2\csrc/u8g2_font.c ****   //u8g2->font_decode.dir = dir;
 650:..\..\u8g2\csrc/u8g2_font.c ****   const uint8_t *glyph_data = u8g2_font_get_glyph_data(u8g2, encoding);
 651:..\..\u8g2\csrc/u8g2_font.c ****   if ( glyph_data != NULL )
 652:..\..\u8g2\csrc/u8g2_font.c ****   {
 653:..\..\u8g2\csrc/u8g2_font.c ****     dx = u8g2_font_decode_glyph(u8g2, glyph_data);
 654:..\..\u8g2\csrc/u8g2_font.c ****   }
 655:..\..\u8g2\csrc/u8g2_font.c ****   return dx;
 656:..\..\u8g2\csrc/u8g2_font.c **** }
ARM GAS  C:\Users\arh\AppData\Local\Temp\cc6sEv7h.s 			page 16


 657:..\..\u8g2\csrc/u8g2_font.c **** 
 658:..\..\u8g2\csrc/u8g2_font.c **** 
 659:..\..\u8g2\csrc/u8g2_font.c **** 
 660:..\..\u8g2\csrc/u8g2_font.c **** uint8_t u8g2_IsGlyph(u8g2_t *u8g2, uint16_t requested_encoding)
 661:..\..\u8g2\csrc/u8g2_font.c **** {
 662:..\..\u8g2\csrc/u8g2_font.c ****   /* updated to new code */
 663:..\..\u8g2\csrc/u8g2_font.c ****   if ( u8g2_font_get_glyph_data(u8g2, requested_encoding) != NULL )
 664:..\..\u8g2\csrc/u8g2_font.c ****     return 1;
 665:..\..\u8g2\csrc/u8g2_font.c ****   return 0;
 666:..\..\u8g2\csrc/u8g2_font.c **** }
 667:..\..\u8g2\csrc/u8g2_font.c **** 
 668:..\..\u8g2\csrc/u8g2_font.c **** /* side effect: updates u8g2->font_decode and u8g2->glyph_x_offset */
 669:..\..\u8g2\csrc/u8g2_font.c **** int8_t u8g2_GetGlyphWidth(u8g2_t *u8g2, uint16_t requested_encoding)
 670:..\..\u8g2\csrc/u8g2_font.c **** {
 671:..\..\u8g2\csrc/u8g2_font.c ****   const uint8_t *glyph_data = u8g2_font_get_glyph_data(u8g2, requested_encoding);
 672:..\..\u8g2\csrc/u8g2_font.c ****   if ( glyph_data == NULL )
 673:..\..\u8g2\csrc/u8g2_font.c ****     return 0; 
 674:..\..\u8g2\csrc/u8g2_font.c ****   
 675:..\..\u8g2\csrc/u8g2_font.c ****   u8g2_font_setup_decode(u8g2, glyph_data);
 676:..\..\u8g2\csrc/u8g2_font.c ****   u8g2->glyph_x_offset = u8g2_font_decode_get_signed_bits(&(u8g2->font_decode), u8g2->font_info.bit
 677:..\..\u8g2\csrc/u8g2_font.c ****   u8g2_font_decode_get_signed_bits(&(u8g2->font_decode), u8g2->font_info.bits_per_char_y);
 678:..\..\u8g2\csrc/u8g2_font.c ****   
 679:..\..\u8g2\csrc/u8g2_font.c ****   /* glyph width is here: u8g2->font_decode.glyph_width */
 680:..\..\u8g2\csrc/u8g2_font.c **** 
 681:..\..\u8g2\csrc/u8g2_font.c ****   return u8g2_font_decode_get_signed_bits(&(u8g2->font_decode), u8g2->font_info.bits_per_delta_x);
 682:..\..\u8g2\csrc/u8g2_font.c **** }
 683:..\..\u8g2\csrc/u8g2_font.c **** 
 684:..\..\u8g2\csrc/u8g2_font.c **** 
 685:..\..\u8g2\csrc/u8g2_font.c **** /*
 686:..\..\u8g2\csrc/u8g2_font.c ****   set one of:
 687:..\..\u8g2\csrc/u8g2_font.c ****     U8G2_FONT_MODE_TRANSPARENT
 688:..\..\u8g2\csrc/u8g2_font.c ****     U8G2_FONT_MODE_SOLID
 689:..\..\u8g2\csrc/u8g2_font.c ****     U8G2_FONT_MODE_NONE
 690:..\..\u8g2\csrc/u8g2_font.c ****   This has been changed for the new font procedures  
 691:..\..\u8g2\csrc/u8g2_font.c **** */
 692:..\..\u8g2\csrc/u8g2_font.c **** void u8g2_SetFontMode(u8g2_t *u8g2, uint8_t is_transparent)
 693:..\..\u8g2\csrc/u8g2_font.c **** {
 694:..\..\u8g2\csrc/u8g2_font.c ****   u8g2->font_decode.is_transparent = is_transparent;		// new font procedures
 695:..\..\u8g2\csrc/u8g2_font.c **** }
 696:..\..\u8g2\csrc/u8g2_font.c **** 
 697:..\..\u8g2\csrc/u8g2_font.c **** u8g2_uint_t u8g2_DrawGlyph(u8g2_t *u8g2, u8g2_uint_t x, u8g2_uint_t y, uint16_t encoding)
 698:..\..\u8g2\csrc/u8g2_font.c **** {
 699:..\..\u8g2\csrc/u8g2_font.c **** #ifdef U8G2_WITH_FONT_ROTATION
 700:..\..\u8g2\csrc/u8g2_font.c ****   switch(u8g2->font_decode.dir)
 701:..\..\u8g2\csrc/u8g2_font.c ****   {
 702:..\..\u8g2\csrc/u8g2_font.c ****     case 0:
 703:..\..\u8g2\csrc/u8g2_font.c ****       y += u8g2->font_calc_vref(u8g2);
 704:..\..\u8g2\csrc/u8g2_font.c ****       break;
 705:..\..\u8g2\csrc/u8g2_font.c ****     case 1:
 706:..\..\u8g2\csrc/u8g2_font.c ****       x -= u8g2->font_calc_vref(u8g2);
 707:..\..\u8g2\csrc/u8g2_font.c ****       break;
 708:..\..\u8g2\csrc/u8g2_font.c ****     case 2:
 709:..\..\u8g2\csrc/u8g2_font.c ****       y -= u8g2->font_calc_vref(u8g2);
 710:..\..\u8g2\csrc/u8g2_font.c ****       break;
 711:..\..\u8g2\csrc/u8g2_font.c ****     case 3:
 712:..\..\u8g2\csrc/u8g2_font.c ****       x += u8g2->font_calc_vref(u8g2);
 713:..\..\u8g2\csrc/u8g2_font.c ****       break;
ARM GAS  C:\Users\arh\AppData\Local\Temp\cc6sEv7h.s 			page 17


 714:..\..\u8g2\csrc/u8g2_font.c ****   }
 715:..\..\u8g2\csrc/u8g2_font.c **** #else
 716:..\..\u8g2\csrc/u8g2_font.c ****   y += u8g2->font_calc_vref(u8g2);
 717:..\..\u8g2\csrc/u8g2_font.c **** #endif
 718:..\..\u8g2\csrc/u8g2_font.c ****   return u8g2_font_draw_glyph(u8g2, x, y, encoding);
 719:..\..\u8g2\csrc/u8g2_font.c **** }
 720:..\..\u8g2\csrc/u8g2_font.c **** 
 721:..\..\u8g2\csrc/u8g2_font.c **** static u8g2_uint_t u8g2_draw_string(u8g2_t *u8g2, u8g2_uint_t x, u8g2_uint_t y, const char *str) U8
 722:..\..\u8g2\csrc/u8g2_font.c **** static u8g2_uint_t u8g2_draw_string(u8g2_t *u8g2, u8g2_uint_t x, u8g2_uint_t y, const char *str)
 723:..\..\u8g2\csrc/u8g2_font.c **** {
 724:..\..\u8g2\csrc/u8g2_font.c ****   uint16_t e;
 725:..\..\u8g2\csrc/u8g2_font.c ****   u8g2_uint_t delta, sum;
 726:..\..\u8g2\csrc/u8g2_font.c ****   u8x8_utf8_init(u8g2_GetU8x8(u8g2));
 727:..\..\u8g2\csrc/u8g2_font.c ****   sum = 0;
 728:..\..\u8g2\csrc/u8g2_font.c ****   for(;;)
 729:..\..\u8g2\csrc/u8g2_font.c ****   {
 730:..\..\u8g2\csrc/u8g2_font.c ****     e = u8g2->u8x8.next_cb(u8g2_GetU8x8(u8g2), (uint8_t)*str);
 731:..\..\u8g2\csrc/u8g2_font.c ****     if ( e == 0x0ffff )
 732:..\..\u8g2\csrc/u8g2_font.c ****       break;
 733:..\..\u8g2\csrc/u8g2_font.c ****     str++;
 734:..\..\u8g2\csrc/u8g2_font.c ****     if ( e != 0x0fffe )
 735:..\..\u8g2\csrc/u8g2_font.c ****     {
 736:..\..\u8g2\csrc/u8g2_font.c ****       delta = u8g2_DrawGlyph(u8g2, x, y, e);
 737:..\..\u8g2\csrc/u8g2_font.c ****     
 738:..\..\u8g2\csrc/u8g2_font.c **** #ifdef U8G2_WITH_FONT_ROTATION
 739:..\..\u8g2\csrc/u8g2_font.c ****       switch(u8g2->font_decode.dir)
 740:..\..\u8g2\csrc/u8g2_font.c ****       {
 741:..\..\u8g2\csrc/u8g2_font.c **** 	case 0:
 742:..\..\u8g2\csrc/u8g2_font.c **** 	  x += delta;
 743:..\..\u8g2\csrc/u8g2_font.c **** 	  break;
 744:..\..\u8g2\csrc/u8g2_font.c **** 	case 1:
 745:..\..\u8g2\csrc/u8g2_font.c **** 	  y += delta;
 746:..\..\u8g2\csrc/u8g2_font.c **** 	  break;
 747:..\..\u8g2\csrc/u8g2_font.c **** 	case 2:
 748:..\..\u8g2\csrc/u8g2_font.c **** 	  x -= delta;
 749:..\..\u8g2\csrc/u8g2_font.c **** 	  break;
 750:..\..\u8g2\csrc/u8g2_font.c **** 	case 3:
 751:..\..\u8g2\csrc/u8g2_font.c **** 	  y -= delta;
 752:..\..\u8g2\csrc/u8g2_font.c **** 	  break;
 753:..\..\u8g2\csrc/u8g2_font.c ****       }
 754:..\..\u8g2\csrc/u8g2_font.c **** #else
 755:..\..\u8g2\csrc/u8g2_font.c ****       x += delta;
 756:..\..\u8g2\csrc/u8g2_font.c **** #endif
 757:..\..\u8g2\csrc/u8g2_font.c **** 
 758:..\..\u8g2\csrc/u8g2_font.c ****       sum += delta;    
 759:..\..\u8g2\csrc/u8g2_font.c ****     }
 760:..\..\u8g2\csrc/u8g2_font.c ****   }
 761:..\..\u8g2\csrc/u8g2_font.c ****   return sum;
 762:..\..\u8g2\csrc/u8g2_font.c **** }
 763:..\..\u8g2\csrc/u8g2_font.c **** 
 764:..\..\u8g2\csrc/u8g2_font.c **** u8g2_uint_t u8g2_DrawStr(u8g2_t *u8g2, u8g2_uint_t x, u8g2_uint_t y, const char *str)
 765:..\..\u8g2\csrc/u8g2_font.c **** {
 766:..\..\u8g2\csrc/u8g2_font.c ****   u8g2->u8x8.next_cb = u8x8_ascii_next;
 767:..\..\u8g2\csrc/u8g2_font.c ****   return u8g2_draw_string(u8g2, x, y, str);
 768:..\..\u8g2\csrc/u8g2_font.c **** }
 769:..\..\u8g2\csrc/u8g2_font.c **** 
 770:..\..\u8g2\csrc/u8g2_font.c **** /*
ARM GAS  C:\Users\arh\AppData\Local\Temp\cc6sEv7h.s 			page 18


 771:..\..\u8g2\csrc/u8g2_font.c **** source: https://en.wikipedia.org/wiki/UTF-8
 772:..\..\u8g2\csrc/u8g2_font.c **** Bits	from 		to			bytes	Byte 1 		Byte 2 		Byte 3 		Byte 4 		Byte 5 		Byte 6
 773:..\..\u8g2\csrc/u8g2_font.c ****   7 	U+0000 		U+007F 		1 		0xxxxxxx
 774:..\..\u8g2\csrc/u8g2_font.c **** 11 	U+0080 		U+07FF 		2 		110xxxxx 	10xxxxxx
 775:..\..\u8g2\csrc/u8g2_font.c **** 16 	U+0800 		U+FFFF 		3 		1110xxxx 	10xxxxxx 	10xxxxxx
 776:..\..\u8g2\csrc/u8g2_font.c **** 21 	U+10000 	U+1FFFFF 	4 		11110xxx 	10xxxxxx 	10xxxxxx 	10xxxxxx
 777:..\..\u8g2\csrc/u8g2_font.c **** 26 	U+200000 	U+3FFFFFF 	5 		111110xx 	10xxxxxx 	10xxxxxx 	10xxxxxx 	10xxxxxx
 778:..\..\u8g2\csrc/u8g2_font.c **** 31 	U+4000000 	U+7FFFFFFF 	6 		1111110x 	10xxxxxx 	10xxxxxx 	10xxxxxx 	10xxxxxx 	10xxxxxx  
 779:..\..\u8g2\csrc/u8g2_font.c **** */
 780:..\..\u8g2\csrc/u8g2_font.c **** u8g2_uint_t u8g2_DrawUTF8(u8g2_t *u8g2, u8g2_uint_t x, u8g2_uint_t y, const char *str)
 781:..\..\u8g2\csrc/u8g2_font.c **** {
 782:..\..\u8g2\csrc/u8g2_font.c ****   u8g2->u8x8.next_cb = u8x8_utf8_next;
 783:..\..\u8g2\csrc/u8g2_font.c ****   return u8g2_draw_string(u8g2, x, y, str);
 784:..\..\u8g2\csrc/u8g2_font.c **** }
 785:..\..\u8g2\csrc/u8g2_font.c **** 
 786:..\..\u8g2\csrc/u8g2_font.c **** 
 787:..\..\u8g2\csrc/u8g2_font.c **** 
 788:..\..\u8g2\csrc/u8g2_font.c **** u8g2_uint_t u8g2_DrawExtendedUTF8(u8g2_t *u8g2, u8g2_uint_t x, u8g2_uint_t y, uint8_t to_left, u8g2
 789:..\..\u8g2\csrc/u8g2_font.c **** {
 790:..\..\u8g2\csrc/u8g2_font.c ****   u8g2->u8x8.next_cb = u8x8_utf8_next;
 791:..\..\u8g2\csrc/u8g2_font.c ****   uint16_t e_prev = 0x0ffff;
 792:..\..\u8g2\csrc/u8g2_font.c ****   uint16_t e;
 793:..\..\u8g2\csrc/u8g2_font.c ****   u8g2_uint_t delta, sum, k;
 794:..\..\u8g2\csrc/u8g2_font.c ****   u8x8_utf8_init(u8g2_GetU8x8(u8g2));
 795:..\..\u8g2\csrc/u8g2_font.c ****   sum = 0;
 796:..\..\u8g2\csrc/u8g2_font.c ****   for(;;)
 797:..\..\u8g2\csrc/u8g2_font.c ****   {
 798:..\..\u8g2\csrc/u8g2_font.c ****     e = u8g2->u8x8.next_cb(u8g2_GetU8x8(u8g2), (uint8_t)*str);
 799:..\..\u8g2\csrc/u8g2_font.c ****     if ( e == 0x0ffff )
 800:..\..\u8g2\csrc/u8g2_font.c ****       break;
 801:..\..\u8g2\csrc/u8g2_font.c ****     str++;
 802:..\..\u8g2\csrc/u8g2_font.c ****     if ( e != 0x0fffe )
 803:..\..\u8g2\csrc/u8g2_font.c ****     {
 804:..\..\u8g2\csrc/u8g2_font.c ****       delta = u8g2_GetGlyphWidth(u8g2, e);
 805:..\..\u8g2\csrc/u8g2_font.c **** 	    
 806:..\..\u8g2\csrc/u8g2_font.c ****       if ( to_left )
 807:..\..\u8g2\csrc/u8g2_font.c ****       {
 808:..\..\u8g2\csrc/u8g2_font.c ****         k = u8g2_GetKerning(u8g2, kerning, e, e_prev);
 809:..\..\u8g2\csrc/u8g2_font.c **** 	delta -= k;
 810:..\..\u8g2\csrc/u8g2_font.c **** 	x -= delta;
 811:..\..\u8g2\csrc/u8g2_font.c ****       }
 812:..\..\u8g2\csrc/u8g2_font.c ****       else
 813:..\..\u8g2\csrc/u8g2_font.c ****       {
 814:..\..\u8g2\csrc/u8g2_font.c ****         k = u8g2_GetKerning(u8g2, kerning, e_prev, e);
 815:..\..\u8g2\csrc/u8g2_font.c **** 	delta -= k;
 816:..\..\u8g2\csrc/u8g2_font.c ****       }
 817:..\..\u8g2\csrc/u8g2_font.c ****       e_prev = e;
 818:..\..\u8g2\csrc/u8g2_font.c **** 
 819:..\..\u8g2\csrc/u8g2_font.c ****       u8g2_DrawGlyph(u8g2, x, y, e);
 820:..\..\u8g2\csrc/u8g2_font.c ****       if ( to_left )
 821:..\..\u8g2\csrc/u8g2_font.c ****       {
 822:..\..\u8g2\csrc/u8g2_font.c ****       }
 823:..\..\u8g2\csrc/u8g2_font.c ****       else
 824:..\..\u8g2\csrc/u8g2_font.c ****       {
 825:..\..\u8g2\csrc/u8g2_font.c **** 	x += delta;
 826:..\..\u8g2\csrc/u8g2_font.c **** 	x -= k;
 827:..\..\u8g2\csrc/u8g2_font.c ****       }
ARM GAS  C:\Users\arh\AppData\Local\Temp\cc6sEv7h.s 			page 19


 828:..\..\u8g2\csrc/u8g2_font.c ****       
 829:..\..\u8g2\csrc/u8g2_font.c ****       sum += delta;    
 830:..\..\u8g2\csrc/u8g2_font.c ****     }
 831:..\..\u8g2\csrc/u8g2_font.c ****   }
 832:..\..\u8g2\csrc/u8g2_font.c ****   return sum;
 833:..\..\u8g2\csrc/u8g2_font.c **** }
 834:..\..\u8g2\csrc/u8g2_font.c **** 
 835:..\..\u8g2\csrc/u8g2_font.c **** u8g2_uint_t u8g2_DrawExtUTF8(u8g2_t *u8g2, u8g2_uint_t x, u8g2_uint_t y, uint8_t to_left, const uin
 836:..\..\u8g2\csrc/u8g2_font.c **** {
 837:..\..\u8g2\csrc/u8g2_font.c ****   u8g2->u8x8.next_cb = u8x8_utf8_next;
 838:..\..\u8g2\csrc/u8g2_font.c ****   uint16_t e_prev = 0x0ffff;
 839:..\..\u8g2\csrc/u8g2_font.c ****   uint16_t e;
 840:..\..\u8g2\csrc/u8g2_font.c ****   u8g2_uint_t delta, sum, k;
 841:..\..\u8g2\csrc/u8g2_font.c ****   u8x8_utf8_init(u8g2_GetU8x8(u8g2));
 842:..\..\u8g2\csrc/u8g2_font.c ****   sum = 0;
 843:..\..\u8g2\csrc/u8g2_font.c ****   for(;;)
 844:..\..\u8g2\csrc/u8g2_font.c ****   {
 845:..\..\u8g2\csrc/u8g2_font.c ****     e = u8g2->u8x8.next_cb(u8g2_GetU8x8(u8g2), (uint8_t)*str);
 846:..\..\u8g2\csrc/u8g2_font.c ****     if ( e == 0x0ffff )
 847:..\..\u8g2\csrc/u8g2_font.c ****       break;
 848:..\..\u8g2\csrc/u8g2_font.c ****     str++;
 849:..\..\u8g2\csrc/u8g2_font.c ****     if ( e != 0x0fffe )
 850:..\..\u8g2\csrc/u8g2_font.c ****     {
 851:..\..\u8g2\csrc/u8g2_font.c ****       delta = u8g2_GetGlyphWidth(u8g2, e);
 852:..\..\u8g2\csrc/u8g2_font.c **** 	    
 853:..\..\u8g2\csrc/u8g2_font.c ****       if ( to_left )
 854:..\..\u8g2\csrc/u8g2_font.c ****       {
 855:..\..\u8g2\csrc/u8g2_font.c ****         k = u8g2_GetKerningByTable(u8g2, kerning_table, e, e_prev);
 856:..\..\u8g2\csrc/u8g2_font.c **** 	delta -= k;
 857:..\..\u8g2\csrc/u8g2_font.c **** 	x -= delta;
 858:..\..\u8g2\csrc/u8g2_font.c ****       }
 859:..\..\u8g2\csrc/u8g2_font.c ****       else
 860:..\..\u8g2\csrc/u8g2_font.c ****       {
 861:..\..\u8g2\csrc/u8g2_font.c ****         k = u8g2_GetKerningByTable(u8g2, kerning_table, e_prev, e);
 862:..\..\u8g2\csrc/u8g2_font.c **** 	delta -= k;
 863:..\..\u8g2\csrc/u8g2_font.c ****       }
 864:..\..\u8g2\csrc/u8g2_font.c ****       e_prev = e;
 865:..\..\u8g2\csrc/u8g2_font.c **** 
 866:..\..\u8g2\csrc/u8g2_font.c ****       u8g2_DrawGlyph(u8g2, x, y, e);
 867:..\..\u8g2\csrc/u8g2_font.c ****       if ( to_left )
 868:..\..\u8g2\csrc/u8g2_font.c ****       {
 869:..\..\u8g2\csrc/u8g2_font.c ****       }
 870:..\..\u8g2\csrc/u8g2_font.c ****       else
 871:..\..\u8g2\csrc/u8g2_font.c ****       {
 872:..\..\u8g2\csrc/u8g2_font.c **** 	x += delta;
 873:..\..\u8g2\csrc/u8g2_font.c **** 	x -= k;
 874:..\..\u8g2\csrc/u8g2_font.c ****       }
 875:..\..\u8g2\csrc/u8g2_font.c ****       
 876:..\..\u8g2\csrc/u8g2_font.c ****       sum += delta;    
 877:..\..\u8g2\csrc/u8g2_font.c ****     }
 878:..\..\u8g2\csrc/u8g2_font.c ****   }
 879:..\..\u8g2\csrc/u8g2_font.c ****   return sum;
 880:..\..\u8g2\csrc/u8g2_font.c **** }
 881:..\..\u8g2\csrc/u8g2_font.c **** 
 882:..\..\u8g2\csrc/u8g2_font.c **** 
 883:..\..\u8g2\csrc/u8g2_font.c **** 
 884:..\..\u8g2\csrc/u8g2_font.c **** /*===============================================*/
ARM GAS  C:\Users\arh\AppData\Local\Temp\cc6sEv7h.s 			page 20


 885:..\..\u8g2\csrc/u8g2_font.c **** 
 886:..\..\u8g2\csrc/u8g2_font.c **** /* set ascent/descent for reference point calculation */
 887:..\..\u8g2\csrc/u8g2_font.c **** 
 888:..\..\u8g2\csrc/u8g2_font.c **** void u8g2_UpdateRefHeight(u8g2_t *u8g2)
 889:..\..\u8g2\csrc/u8g2_font.c **** {
 890:..\..\u8g2\csrc/u8g2_font.c ****   if ( u8g2->font == NULL )
 891:..\..\u8g2\csrc/u8g2_font.c ****     return;
 892:..\..\u8g2\csrc/u8g2_font.c ****   u8g2->font_ref_ascent = u8g2->font_info.ascent_A;
 893:..\..\u8g2\csrc/u8g2_font.c ****   u8g2->font_ref_descent = u8g2->font_info.descent_g;
 894:..\..\u8g2\csrc/u8g2_font.c ****   if ( u8g2->font_height_mode == U8G2_FONT_HEIGHT_MODE_TEXT )
 895:..\..\u8g2\csrc/u8g2_font.c ****   {
 896:..\..\u8g2\csrc/u8g2_font.c ****   }
 897:..\..\u8g2\csrc/u8g2_font.c ****   else if ( u8g2->font_height_mode == U8G2_FONT_HEIGHT_MODE_XTEXT )
 898:..\..\u8g2\csrc/u8g2_font.c ****   {
 899:..\..\u8g2\csrc/u8g2_font.c ****     if ( u8g2->font_ref_ascent < u8g2->font_info.ascent_para )
 900:..\..\u8g2\csrc/u8g2_font.c ****       u8g2->font_ref_ascent = u8g2->font_info.ascent_para;
 901:..\..\u8g2\csrc/u8g2_font.c ****     if ( u8g2->font_ref_descent > u8g2->font_info.descent_para )
 902:..\..\u8g2\csrc/u8g2_font.c ****       u8g2->font_ref_descent = u8g2->font_info.descent_para;
 903:..\..\u8g2\csrc/u8g2_font.c ****   }
 904:..\..\u8g2\csrc/u8g2_font.c ****   else
 905:..\..\u8g2\csrc/u8g2_font.c ****   {
 906:..\..\u8g2\csrc/u8g2_font.c ****     if ( u8g2->font_ref_ascent < u8g2->font_info.max_char_height+u8g2->font_info.y_offset )
 907:..\..\u8g2\csrc/u8g2_font.c ****       u8g2->font_ref_ascent = u8g2->font_info.max_char_height+u8g2->font_info.y_offset;
 908:..\..\u8g2\csrc/u8g2_font.c ****     if ( u8g2->font_ref_descent > u8g2->font_info.y_offset )
 909:..\..\u8g2\csrc/u8g2_font.c ****       u8g2->font_ref_descent = u8g2->font_info.y_offset;
 910:..\..\u8g2\csrc/u8g2_font.c ****   }  
 911:..\..\u8g2\csrc/u8g2_font.c **** }
 912:..\..\u8g2\csrc/u8g2_font.c **** 
 913:..\..\u8g2\csrc/u8g2_font.c **** void u8g2_SetFontRefHeightText(u8g2_t *u8g2)
 914:..\..\u8g2\csrc/u8g2_font.c **** {
 915:..\..\u8g2\csrc/u8g2_font.c ****   u8g2->font_height_mode = U8G2_FONT_HEIGHT_MODE_TEXT;
 916:..\..\u8g2\csrc/u8g2_font.c ****   u8g2_UpdateRefHeight(u8g2);
 917:..\..\u8g2\csrc/u8g2_font.c **** }
 918:..\..\u8g2\csrc/u8g2_font.c **** 
 919:..\..\u8g2\csrc/u8g2_font.c **** void u8g2_SetFontRefHeightExtendedText(u8g2_t *u8g2)
 920:..\..\u8g2\csrc/u8g2_font.c **** {
 921:..\..\u8g2\csrc/u8g2_font.c ****   u8g2->font_height_mode = U8G2_FONT_HEIGHT_MODE_XTEXT;
 922:..\..\u8g2\csrc/u8g2_font.c ****   u8g2_UpdateRefHeight(u8g2);
 923:..\..\u8g2\csrc/u8g2_font.c **** }
 924:..\..\u8g2\csrc/u8g2_font.c **** 
 925:..\..\u8g2\csrc/u8g2_font.c **** void u8g2_SetFontRefHeightAll(u8g2_t *u8g2)
 926:..\..\u8g2\csrc/u8g2_font.c **** {
 927:..\..\u8g2\csrc/u8g2_font.c ****   u8g2->font_height_mode = U8G2_FONT_HEIGHT_MODE_ALL;
 928:..\..\u8g2\csrc/u8g2_font.c ****   u8g2_UpdateRefHeight(u8g2);
 929:..\..\u8g2\csrc/u8g2_font.c **** }
 930:..\..\u8g2\csrc/u8g2_font.c **** 
 931:..\..\u8g2\csrc/u8g2_font.c **** /*===============================================*/
 932:..\..\u8g2\csrc/u8g2_font.c **** /* callback procedures to correct the y position */
 933:..\..\u8g2\csrc/u8g2_font.c **** 
 934:..\..\u8g2\csrc/u8g2_font.c **** u8g2_uint_t u8g2_font_calc_vref_font(U8X8_UNUSED u8g2_t *u8g2)
 935:..\..\u8g2\csrc/u8g2_font.c **** {
 200              		.loc 1 935 0
 201              		.cfi_startproc
 202              		@ args = 0, pretend = 0, frame = 0
 203              		@ frame_needed = 0, uses_anonymous_args = 0
 204              		@ link register save eliminated.
 205              	.LVL26:
ARM GAS  C:\Users\arh\AppData\Local\Temp\cc6sEv7h.s 			page 21


 936:..\..\u8g2\csrc/u8g2_font.c ****   return 0;
 937:..\..\u8g2\csrc/u8g2_font.c **** }
 206              		.loc 1 937 0
 207 0000 0020     		movs	r0, #0
 208              	.LVL27:
 209              		@ sp needed
 210 0002 7047     		bx	lr
 211              		.cfi_endproc
 212              	.LFE31:
 213              		.size	u8g2_font_calc_vref_font, .-u8g2_font_calc_vref_font
 214              		.section	.text.u8g2_font_calc_vref_bottom,"ax",%progbits
 215              		.align	2
 216              		.global	u8g2_font_calc_vref_bottom
 217              		.code	16
 218              		.thumb_func
 219              		.type	u8g2_font_calc_vref_bottom, %function
 220              	u8g2_font_calc_vref_bottom:
 221              	.LFB33:
 938:..\..\u8g2\csrc/u8g2_font.c **** 
 939:..\..\u8g2\csrc/u8g2_font.c **** void u8g2_SetFontPosBaseline(u8g2_t *u8g2)
 940:..\..\u8g2\csrc/u8g2_font.c **** {
 941:..\..\u8g2\csrc/u8g2_font.c ****   u8g2->font_calc_vref = u8g2_font_calc_vref_font;
 942:..\..\u8g2\csrc/u8g2_font.c **** }
 943:..\..\u8g2\csrc/u8g2_font.c **** 
 944:..\..\u8g2\csrc/u8g2_font.c **** 
 945:..\..\u8g2\csrc/u8g2_font.c **** u8g2_uint_t u8g2_font_calc_vref_bottom(u8g2_t *u8g2)
 946:..\..\u8g2\csrc/u8g2_font.c **** {
 222              		.loc 1 946 0
 223              		.cfi_startproc
 224              		@ args = 0, pretend = 0, frame = 0
 225              		@ frame_needed = 0, uses_anonymous_args = 0
 226              		@ link register save eliminated.
 227              	.LVL28:
 947:..\..\u8g2\csrc/u8g2_font.c ****   return (u8g2_uint_t)(u8g2->font_ref_descent);
 228              		.loc 1 947 0
 229 0000 7A23     		movs	r3, #122
 230 0002 C05C     		ldrb	r0, [r0, r3]
 231              	.LVL29:
 948:..\..\u8g2\csrc/u8g2_font.c **** }
 232              		.loc 1 948 0
 233              		@ sp needed
 234 0004 7047     		bx	lr
 235              		.cfi_endproc
 236              	.LFE33:
 237              		.size	u8g2_font_calc_vref_bottom, .-u8g2_font_calc_vref_bottom
 238 0006 C046     		.section	.text.u8g2_font_calc_vref_top,"ax",%progbits
 239              		.align	2
 240              		.global	u8g2_font_calc_vref_top
 241              		.code	16
 242              		.thumb_func
 243              		.type	u8g2_font_calc_vref_top, %function
 244              	u8g2_font_calc_vref_top:
 245              	.LFB35:
 949:..\..\u8g2\csrc/u8g2_font.c **** 
 950:..\..\u8g2\csrc/u8g2_font.c **** void u8g2_SetFontPosBottom(u8g2_t *u8g2)
 951:..\..\u8g2\csrc/u8g2_font.c **** {
 952:..\..\u8g2\csrc/u8g2_font.c ****   u8g2->font_calc_vref = u8g2_font_calc_vref_bottom;
ARM GAS  C:\Users\arh\AppData\Local\Temp\cc6sEv7h.s 			page 22


 953:..\..\u8g2\csrc/u8g2_font.c **** }
 954:..\..\u8g2\csrc/u8g2_font.c **** 
 955:..\..\u8g2\csrc/u8g2_font.c **** u8g2_uint_t u8g2_font_calc_vref_top(u8g2_t *u8g2)
 956:..\..\u8g2\csrc/u8g2_font.c **** {
 246              		.loc 1 956 0
 247              		.cfi_startproc
 248              		@ args = 0, pretend = 0, frame = 0
 249              		@ frame_needed = 0, uses_anonymous_args = 0
 250              		@ link register save eliminated.
 251              	.LVL30:
 957:..\..\u8g2\csrc/u8g2_font.c ****   u8g2_uint_t tmp;
 958:..\..\u8g2\csrc/u8g2_font.c ****   /* reference pos is one pixel above the upper edge of the reference glyph */
 959:..\..\u8g2\csrc/u8g2_font.c ****   tmp = (u8g2_uint_t)(u8g2->font_ref_ascent);
 252              		.loc 1 959 0
 253 0000 7923     		movs	r3, #121
 254 0002 C05C     		ldrb	r0, [r0, r3]
 255              	.LVL31:
 960:..\..\u8g2\csrc/u8g2_font.c ****   tmp++;
 256              		.loc 1 960 0
 257 0004 0130     		adds	r0, r0, #1
 258              	.LVL32:
 259 0006 C0B2     		uxtb	r0, r0
 260              	.LVL33:
 961:..\..\u8g2\csrc/u8g2_font.c ****   return tmp;
 962:..\..\u8g2\csrc/u8g2_font.c **** }
 261              		.loc 1 962 0
 262              		@ sp needed
 263 0008 7047     		bx	lr
 264              		.cfi_endproc
 265              	.LFE35:
 266              		.size	u8g2_font_calc_vref_top, .-u8g2_font_calc_vref_top
 267 000a C046     		.section	.text.u8g2_font_calc_vref_center,"ax",%progbits
 268              		.align	2
 269              		.global	u8g2_font_calc_vref_center
 270              		.code	16
 271              		.thumb_func
 272              		.type	u8g2_font_calc_vref_center, %function
 273              	u8g2_font_calc_vref_center:
 274              	.LFB37:
 963:..\..\u8g2\csrc/u8g2_font.c **** 
 964:..\..\u8g2\csrc/u8g2_font.c **** void u8g2_SetFontPosTop(u8g2_t *u8g2)
 965:..\..\u8g2\csrc/u8g2_font.c **** {
 966:..\..\u8g2\csrc/u8g2_font.c ****   u8g2->font_calc_vref = u8g2_font_calc_vref_top;
 967:..\..\u8g2\csrc/u8g2_font.c **** }
 968:..\..\u8g2\csrc/u8g2_font.c **** 
 969:..\..\u8g2\csrc/u8g2_font.c **** u8g2_uint_t u8g2_font_calc_vref_center(u8g2_t *u8g2)
 970:..\..\u8g2\csrc/u8g2_font.c **** {
 275              		.loc 1 970 0
 276              		.cfi_startproc
 277              		@ args = 0, pretend = 0, frame = 0
 278              		@ frame_needed = 0, uses_anonymous_args = 0
 279              		@ link register save eliminated.
 280              	.LVL34:
 971:..\..\u8g2\csrc/u8g2_font.c ****   int8_t tmp;
 972:..\..\u8g2\csrc/u8g2_font.c ****   tmp = u8g2->font_ref_ascent;
 281              		.loc 1 972 0
 282 0000 7923     		movs	r3, #121
ARM GAS  C:\Users\arh\AppData\Local\Temp\cc6sEv7h.s 			page 23


 283 0002 C356     		ldrsb	r3, [r0, r3]
 284              	.LVL35:
 973:..\..\u8g2\csrc/u8g2_font.c ****   tmp -= u8g2->font_ref_descent;
 285              		.loc 1 973 0
 286 0004 7A22     		movs	r2, #122
 287 0006 805C     		ldrb	r0, [r0, r2]
 288              	.LVL36:
 289 0008 1B1A     		subs	r3, r3, r0
 290              	.LVL37:
 291 000a 5BB2     		sxtb	r3, r3
 292              	.LVL38:
 974:..\..\u8g2\csrc/u8g2_font.c ****   tmp /= 2;
 293              		.loc 1 974 0
 294 000c DA0F     		lsrs	r2, r3, #31
 295 000e D318     		adds	r3, r2, r3
 296              	.LVL39:
 297 0010 5B10     		asrs	r3, r3, #1
 298              	.LVL40:
 975:..\..\u8g2\csrc/u8g2_font.c ****   tmp += u8g2->font_ref_descent;  
 299              		.loc 1 975 0
 300 0012 C018     		adds	r0, r0, r3
 301 0014 C0B2     		uxtb	r0, r0
 302              	.LVL41:
 976:..\..\u8g2\csrc/u8g2_font.c ****   return tmp;
 977:..\..\u8g2\csrc/u8g2_font.c **** }
 303              		.loc 1 977 0
 304              		@ sp needed
 305 0016 7047     		bx	lr
 306              		.cfi_endproc
 307              	.LFE37:
 308              		.size	u8g2_font_calc_vref_center, .-u8g2_font_calc_vref_center
 309              		.section	.text.u8g2_read_font_info,"ax",%progbits
 310              		.align	2
 311              		.global	u8g2_read_font_info
 312              		.code	16
 313              		.thumb_func
 314              		.type	u8g2_read_font_info, %function
 315              	u8g2_read_font_info:
 316              	.LFB2:
 132:..\..\u8g2\csrc/u8g2_font.c ****   /* offset 0 */
 317              		.loc 1 132 0
 318              		.cfi_startproc
 319              		@ args = 0, pretend = 0, frame = 0
 320              		@ frame_needed = 0, uses_anonymous_args = 0
 321              	.LVL42:
 322 0000 70B5     		push	{r4, r5, r6, lr}
 323              		.cfi_def_cfa_offset 16
 324              		.cfi_offset 4, -16
 325              		.cfi_offset 5, -12
 326              		.cfi_offset 6, -8
 327              		.cfi_offset 14, -4
 328 0002 0400     		movs	r4, r0
 329 0004 0D00     		movs	r5, r1
 134:..\..\u8g2\csrc/u8g2_font.c ****   font_info->bbx_mode = u8g2_font_get_byte(font, 1);
 330              		.loc 1 134 0
 331 0006 0021     		movs	r1, #0
 332              	.LVL43:
ARM GAS  C:\Users\arh\AppData\Local\Temp\cc6sEv7h.s 			page 24


 333 0008 2800     		movs	r0, r5
 334              	.LVL44:
 335 000a FFF7FEFF 		bl	u8g2_font_get_byte
 336              	.LVL45:
 337 000e 2070     		strb	r0, [r4]
 135:..\..\u8g2\csrc/u8g2_font.c ****   font_info->bits_per_0 = u8g2_font_get_byte(font, 2);
 338              		.loc 1 135 0
 339 0010 0121     		movs	r1, #1
 340 0012 2800     		movs	r0, r5
 341 0014 FFF7FEFF 		bl	u8g2_font_get_byte
 342              	.LVL46:
 343 0018 6070     		strb	r0, [r4, #1]
 136:..\..\u8g2\csrc/u8g2_font.c ****   font_info->bits_per_1 = u8g2_font_get_byte(font, 3);
 344              		.loc 1 136 0
 345 001a 0221     		movs	r1, #2
 346 001c 2800     		movs	r0, r5
 347 001e FFF7FEFF 		bl	u8g2_font_get_byte
 348              	.LVL47:
 349 0022 A070     		strb	r0, [r4, #2]
 137:..\..\u8g2\csrc/u8g2_font.c ****   
 350              		.loc 1 137 0
 351 0024 0321     		movs	r1, #3
 352 0026 2800     		movs	r0, r5
 353 0028 FFF7FEFF 		bl	u8g2_font_get_byte
 354              	.LVL48:
 355 002c E070     		strb	r0, [r4, #3]
 140:..\..\u8g2\csrc/u8g2_font.c ****   font_info->bits_per_char_height = u8g2_font_get_byte(font, 5);
 356              		.loc 1 140 0
 357 002e 0421     		movs	r1, #4
 358 0030 2800     		movs	r0, r5
 359 0032 FFF7FEFF 		bl	u8g2_font_get_byte
 360              	.LVL49:
 361 0036 2071     		strb	r0, [r4, #4]
 141:..\..\u8g2\csrc/u8g2_font.c ****   font_info->bits_per_char_x = u8g2_font_get_byte(font, 6);
 362              		.loc 1 141 0
 363 0038 0521     		movs	r1, #5
 364 003a 2800     		movs	r0, r5
 365 003c FFF7FEFF 		bl	u8g2_font_get_byte
 366              	.LVL50:
 367 0040 6071     		strb	r0, [r4, #5]
 142:..\..\u8g2\csrc/u8g2_font.c ****   font_info->bits_per_char_y = u8g2_font_get_byte(font, 7);
 368              		.loc 1 142 0
 369 0042 0621     		movs	r1, #6
 370 0044 2800     		movs	r0, r5
 371 0046 FFF7FEFF 		bl	u8g2_font_get_byte
 372              	.LVL51:
 373 004a A071     		strb	r0, [r4, #6]
 143:..\..\u8g2\csrc/u8g2_font.c ****   font_info->bits_per_delta_x = u8g2_font_get_byte(font, 8);
 374              		.loc 1 143 0
 375 004c 0721     		movs	r1, #7
 376 004e 2800     		movs	r0, r5
 377 0050 FFF7FEFF 		bl	u8g2_font_get_byte
 378              	.LVL52:
 379 0054 E071     		strb	r0, [r4, #7]
 144:..\..\u8g2\csrc/u8g2_font.c ****   
 380              		.loc 1 144 0
 381 0056 0821     		movs	r1, #8
ARM GAS  C:\Users\arh\AppData\Local\Temp\cc6sEv7h.s 			page 25


 382 0058 2800     		movs	r0, r5
 383 005a FFF7FEFF 		bl	u8g2_font_get_byte
 384              	.LVL53:
 385 005e 2072     		strb	r0, [r4, #8]
 147:..\..\u8g2\csrc/u8g2_font.c ****   font_info->max_char_height = u8g2_font_get_byte(font, 10);
 386              		.loc 1 147 0
 387 0060 0921     		movs	r1, #9
 388 0062 2800     		movs	r0, r5
 389 0064 FFF7FEFF 		bl	u8g2_font_get_byte
 390              	.LVL54:
 391 0068 6072     		strb	r0, [r4, #9]
 148:..\..\u8g2\csrc/u8g2_font.c ****   font_info->x_offset = u8g2_font_get_byte(font, 11);
 392              		.loc 1 148 0
 393 006a 0A21     		movs	r1, #10
 394 006c 2800     		movs	r0, r5
 395 006e FFF7FEFF 		bl	u8g2_font_get_byte
 396              	.LVL55:
 397 0072 A072     		strb	r0, [r4, #10]
 149:..\..\u8g2\csrc/u8g2_font.c ****   font_info->y_offset = u8g2_font_get_byte(font, 12);
 398              		.loc 1 149 0
 399 0074 0B21     		movs	r1, #11
 400 0076 2800     		movs	r0, r5
 401 0078 FFF7FEFF 		bl	u8g2_font_get_byte
 402              	.LVL56:
 403 007c E072     		strb	r0, [r4, #11]
 150:..\..\u8g2\csrc/u8g2_font.c ****   
 404              		.loc 1 150 0
 405 007e 0C21     		movs	r1, #12
 406 0080 2800     		movs	r0, r5
 407 0082 FFF7FEFF 		bl	u8g2_font_get_byte
 408              	.LVL57:
 409 0086 2073     		strb	r0, [r4, #12]
 153:..\..\u8g2\csrc/u8g2_font.c ****   font_info->descent_g = u8g2_font_get_byte(font, 14);
 410              		.loc 1 153 0
 411 0088 0D21     		movs	r1, #13
 412 008a 2800     		movs	r0, r5
 413 008c FFF7FEFF 		bl	u8g2_font_get_byte
 414              	.LVL58:
 415 0090 6073     		strb	r0, [r4, #13]
 154:..\..\u8g2\csrc/u8g2_font.c ****   font_info->ascent_para = u8g2_font_get_byte(font, 15);
 416              		.loc 1 154 0
 417 0092 0E21     		movs	r1, #14
 418 0094 2800     		movs	r0, r5
 419 0096 FFF7FEFF 		bl	u8g2_font_get_byte
 420              	.LVL59:
 421 009a A073     		strb	r0, [r4, #14]
 155:..\..\u8g2\csrc/u8g2_font.c ****   font_info->descent_para = u8g2_font_get_byte(font, 16);
 422              		.loc 1 155 0
 423 009c 0F21     		movs	r1, #15
 424 009e 2800     		movs	r0, r5
 425 00a0 FFF7FEFF 		bl	u8g2_font_get_byte
 426              	.LVL60:
 427 00a4 E073     		strb	r0, [r4, #15]
 156:..\..\u8g2\csrc/u8g2_font.c ****   
 428              		.loc 1 156 0
 429 00a6 1021     		movs	r1, #16
 430 00a8 2800     		movs	r0, r5
ARM GAS  C:\Users\arh\AppData\Local\Temp\cc6sEv7h.s 			page 26


 431 00aa FFF7FEFF 		bl	u8g2_font_get_byte
 432              	.LVL61:
 433 00ae 2074     		strb	r0, [r4, #16]
 159:..\..\u8g2\csrc/u8g2_font.c ****   font_info->start_pos_lower_a = u8g2_font_get_word(font, 19); 
 434              		.loc 1 159 0
 435 00b0 1121     		movs	r1, #17
 436 00b2 2800     		movs	r0, r5
 437 00b4 FFF7FEFF 		bl	u8g2_font_get_word
 438              	.LVL62:
 439 00b8 6082     		strh	r0, [r4, #18]
 160:..\..\u8g2\csrc/u8g2_font.c ****   
 440              		.loc 1 160 0
 441 00ba 1321     		movs	r1, #19
 442 00bc 2800     		movs	r0, r5
 443 00be FFF7FEFF 		bl	u8g2_font_get_word
 444              	.LVL63:
 445 00c2 A082     		strh	r0, [r4, #20]
 164:..\..\u8g2\csrc/u8g2_font.c **** #endif
 446              		.loc 1 164 0
 447 00c4 1521     		movs	r1, #21
 448 00c6 2800     		movs	r0, r5
 449 00c8 FFF7FEFF 		bl	u8g2_font_get_word
 450              	.LVL64:
 451 00cc E082     		strh	r0, [r4, #22]
 166:..\..\u8g2\csrc/u8g2_font.c **** 
 452              		.loc 1 166 0
 453              		@ sp needed
 454              	.LVL65:
 455              	.LVL66:
 456 00ce 70BD     		pop	{r4, r5, r6, pc}
 457              		.cfi_endproc
 458              	.LFE2:
 459              		.size	u8g2_read_font_info, .-u8g2_read_font_info
 460              		.section	.text.u8g2_GetFontSize,"ax",%progbits
 461              		.align	2
 462              		.global	u8g2_GetFontSize
 463              		.code	16
 464              		.thumb_func
 465              		.type	u8g2_GetFontSize, %function
 466              	u8g2_GetFontSize:
 467              	.LFB3:
 171:..\..\u8g2\csrc/u8g2_font.c ****   uint16_t e;
 468              		.loc 1 171 0
 469              		.cfi_startproc
 470              		@ args = 0, pretend = 0, frame = 0
 471              		@ frame_needed = 0, uses_anonymous_args = 0
 472              		@ link register save eliminated.
 473              	.LVL67:
 174:..\..\u8g2\csrc/u8g2_font.c ****   
 474              		.loc 1 174 0
 475 0000 0300     		movs	r3, r0
 476 0002 1733     		adds	r3, r3, #23
 477              	.LVL68:
 478              	.L24:
 178:..\..\u8g2\csrc/u8g2_font.c ****       break;
 479              		.loc 1 178 0
 480 0004 5A78     		ldrb	r2, [r3, #1]
ARM GAS  C:\Users\arh\AppData\Local\Temp\cc6sEv7h.s 			page 27


 481 0006 002A     		cmp	r2, #0
 482 0008 01D0     		beq	.L23
 180:..\..\u8g2\csrc/u8g2_font.c ****   }
 483              		.loc 1 180 0
 484 000a 9B18     		adds	r3, r3, r2
 485              	.LVL69:
 181:..\..\u8g2\csrc/u8g2_font.c ****   
 486              		.loc 1 181 0
 487 000c FAE7     		b	.L24
 488              	.L23:
 184:..\..\u8g2\csrc/u8g2_font.c ****   
 489              		.loc 1 184 0
 490 000e 0233     		adds	r3, r3, #2
 491              	.LVL70:
 492              	.L26:
 188:..\..\u8g2\csrc/u8g2_font.c ****     e <<= 8;
 493              		.loc 1 188 0
 494 0010 1A78     		ldrb	r2, [r3]
 495              	.LVL71:
 189:..\..\u8g2\csrc/u8g2_font.c ****     e |= u8x8_pgm_read( font + 1 );
 496              		.loc 1 189 0
 497 0012 1202     		lsls	r2, r2, #8
 498              	.LVL72:
 190:..\..\u8g2\csrc/u8g2_font.c ****     if ( e == 0 )
 499              		.loc 1 190 0
 500 0014 5978     		ldrb	r1, [r3, #1]
 501 0016 0A43     		orrs	r2, r1
 502              	.LVL73:
 191:..\..\u8g2\csrc/u8g2_font.c ****       break;
 503              		.loc 1 191 0
 504 0018 02D0     		beq	.L25
 193:..\..\u8g2\csrc/u8g2_font.c ****   }
 505              		.loc 1 193 0
 506 001a 9A78     		ldrb	r2, [r3, #2]
 507              	.LVL74:
 508 001c 9B18     		adds	r3, r3, r2
 509              	.LVL75:
 194:..\..\u8g2\csrc/u8g2_font.c ****   
 510              		.loc 1 194 0
 511 001e F7E7     		b	.L26
 512              	.LVL76:
 513              	.L25:
 196:..\..\u8g2\csrc/u8g2_font.c **** }
 514              		.loc 1 196 0
 515 0020 181A     		subs	r0, r3, r0
 516              	.LVL77:
 517 0022 0230     		adds	r0, r0, #2
 197:..\..\u8g2\csrc/u8g2_font.c **** 
 518              		.loc 1 197 0
 519              		@ sp needed
 520 0024 7047     		bx	lr
 521              		.cfi_endproc
 522              	.LFE3:
 523              		.size	u8g2_GetFontSize, .-u8g2_GetFontSize
 524 0026 C046     		.section	.text.u8g2_GetFontBBXWidth,"ax",%progbits
 525              		.align	2
 526              		.global	u8g2_GetFontBBXWidth
ARM GAS  C:\Users\arh\AppData\Local\Temp\cc6sEv7h.s 			page 28


 527              		.code	16
 528              		.thumb_func
 529              		.type	u8g2_GetFontBBXWidth, %function
 530              	u8g2_GetFontBBXWidth:
 531              	.LFB4:
 203:..\..\u8g2\csrc/u8g2_font.c ****   return u8g2->font_info.max_char_width;		/* new font info structure */
 532              		.loc 1 203 0
 533              		.cfi_startproc
 534              		@ args = 0, pretend = 0, frame = 0
 535              		@ frame_needed = 0, uses_anonymous_args = 0
 536              		@ link register save eliminated.
 537              	.LVL78:
 204:..\..\u8g2\csrc/u8g2_font.c **** }
 538              		.loc 1 204 0
 539 0000 6923     		movs	r3, #105
 540 0002 C05C     		ldrb	r0, [r0, r3]
 541              	.LVL79:
 205:..\..\u8g2\csrc/u8g2_font.c **** 
 542              		.loc 1 205 0
 543              		@ sp needed
 544 0004 7047     		bx	lr
 545              		.cfi_endproc
 546              	.LFE4:
 547              		.size	u8g2_GetFontBBXWidth, .-u8g2_GetFontBBXWidth
 548 0006 C046     		.section	.text.u8g2_GetFontBBXHeight,"ax",%progbits
 549              		.align	2
 550              		.global	u8g2_GetFontBBXHeight
 551              		.code	16
 552              		.thumb_func
 553              		.type	u8g2_GetFontBBXHeight, %function
 554              	u8g2_GetFontBBXHeight:
 555              	.LFB5:
 208:..\..\u8g2\csrc/u8g2_font.c ****   return u8g2->font_info.max_char_height;		/* new font info structure */
 556              		.loc 1 208 0
 557              		.cfi_startproc
 558              		@ args = 0, pretend = 0, frame = 0
 559              		@ frame_needed = 0, uses_anonymous_args = 0
 560              		@ link register save eliminated.
 561              	.LVL80:
 209:..\..\u8g2\csrc/u8g2_font.c **** }
 562              		.loc 1 209 0
 563 0000 6A23     		movs	r3, #106
 564 0002 C05C     		ldrb	r0, [r0, r3]
 565              	.LVL81:
 210:..\..\u8g2\csrc/u8g2_font.c **** 
 566              		.loc 1 210 0
 567              		@ sp needed
 568 0004 7047     		bx	lr
 569              		.cfi_endproc
 570              	.LFE5:
 571              		.size	u8g2_GetFontBBXHeight, .-u8g2_GetFontBBXHeight
 572 0006 C046     		.section	.text.u8g_GetFontBBXOffX,"ax",%progbits
 573              		.align	2
 574              		.global	u8g_GetFontBBXOffX
 575              		.code	16
 576              		.thumb_func
 577              		.type	u8g_GetFontBBXOffX, %function
ARM GAS  C:\Users\arh\AppData\Local\Temp\cc6sEv7h.s 			page 29


 578              	u8g_GetFontBBXOffX:
 579              	.LFB6:
 214:..\..\u8g2\csrc/u8g2_font.c ****   return u8g2->font_info.x_offset;		/* new font info structure */
 580              		.loc 1 214 0
 581              		.cfi_startproc
 582              		@ args = 0, pretend = 0, frame = 0
 583              		@ frame_needed = 0, uses_anonymous_args = 0
 584              		@ link register save eliminated.
 585              	.LVL82:
 215:..\..\u8g2\csrc/u8g2_font.c **** }
 586              		.loc 1 215 0
 587 0000 6B23     		movs	r3, #107
 588 0002 C056     		ldrsb	r0, [r0, r3]
 589              	.LVL83:
 216:..\..\u8g2\csrc/u8g2_font.c **** 
 590              		.loc 1 216 0
 591              		@ sp needed
 592 0004 7047     		bx	lr
 593              		.cfi_endproc
 594              	.LFE6:
 595              		.size	u8g_GetFontBBXOffX, .-u8g_GetFontBBXOffX
 596 0006 C046     		.section	.text.u8g2_GetFontBBXOffY,"ax",%progbits
 597              		.align	2
 598              		.global	u8g2_GetFontBBXOffY
 599              		.code	16
 600              		.thumb_func
 601              		.type	u8g2_GetFontBBXOffY, %function
 602              	u8g2_GetFontBBXOffY:
 603              	.LFB7:
 220:..\..\u8g2\csrc/u8g2_font.c ****   return u8g2->font_info.y_offset;		/* new font info structure */
 604              		.loc 1 220 0
 605              		.cfi_startproc
 606              		@ args = 0, pretend = 0, frame = 0
 607              		@ frame_needed = 0, uses_anonymous_args = 0
 608              		@ link register save eliminated.
 609              	.LVL84:
 221:..\..\u8g2\csrc/u8g2_font.c **** }
 610              		.loc 1 221 0
 611 0000 6C23     		movs	r3, #108
 612 0002 C056     		ldrsb	r0, [r0, r3]
 613              	.LVL85:
 222:..\..\u8g2\csrc/u8g2_font.c **** 
 614              		.loc 1 222 0
 615              		@ sp needed
 616 0004 7047     		bx	lr
 617              		.cfi_endproc
 618              	.LFE7:
 619              		.size	u8g2_GetFontBBXOffY, .-u8g2_GetFontBBXOffY
 620 0006 C046     		.section	.text.u8g2_GetFontCapitalAHeight,"ax",%progbits
 621              		.align	2
 622              		.global	u8g2_GetFontCapitalAHeight
 623              		.code	16
 624              		.thumb_func
 625              		.type	u8g2_GetFontCapitalAHeight, %function
 626              	u8g2_GetFontCapitalAHeight:
 627              	.LFB8:
 226:..\..\u8g2\csrc/u8g2_font.c ****   return u8g2->font_info.ascent_A;		/* new font info structure */
ARM GAS  C:\Users\arh\AppData\Local\Temp\cc6sEv7h.s 			page 30


 628              		.loc 1 226 0
 629              		.cfi_startproc
 630              		@ args = 0, pretend = 0, frame = 0
 631              		@ frame_needed = 0, uses_anonymous_args = 0
 632              		@ link register save eliminated.
 633              	.LVL86:
 227:..\..\u8g2\csrc/u8g2_font.c **** }
 634              		.loc 1 227 0
 635 0000 6D23     		movs	r3, #109
 636 0002 C05C     		ldrb	r0, [r0, r3]
 637              	.LVL87:
 228:..\..\u8g2\csrc/u8g2_font.c **** 
 638              		.loc 1 228 0
 639              		@ sp needed
 640 0004 7047     		bx	lr
 641              		.cfi_endproc
 642              	.LFE8:
 643              		.size	u8g2_GetFontCapitalAHeight, .-u8g2_GetFontCapitalAHeight
 644 0006 C046     		.section	.text.u8g2_font_decode_get_unsigned_bits,"ax",%progbits
 645              		.align	2
 646              		.global	u8g2_font_decode_get_unsigned_bits
 647              		.code	16
 648              		.thumb_func
 649              		.type	u8g2_font_decode_get_unsigned_bits, %function
 650              	u8g2_font_decode_get_unsigned_bits:
 651              	.LFB9:
 235:..\..\u8g2\csrc/u8g2_font.c ****   uint8_t val;
 652              		.loc 1 235 0
 653              		.cfi_startproc
 654              		@ args = 0, pretend = 0, frame = 0
 655              		@ frame_needed = 0, uses_anonymous_args = 0
 656              	.LVL88:
 657 0000 F0B5     		push	{r4, r5, r6, r7, lr}
 658              		.cfi_def_cfa_offset 20
 659              		.cfi_offset 4, -20
 660              		.cfi_offset 5, -16
 661              		.cfi_offset 6, -12
 662              		.cfi_offset 7, -8
 663              		.cfi_offset 14, -4
 237:..\..\u8g2\csrc/u8g2_font.c ****   uint8_t bit_pos_plus_cnt;
 664              		.loc 1 237 0
 665 0002 867A     		ldrb	r6, [r0, #10]
 666              	.LVL89:
 241:..\..\u8g2\csrc/u8g2_font.c ****   
 667              		.loc 1 241 0
 668 0004 0768     		ldr	r7, [r0]
 669 0006 3C78     		ldrb	r4, [r7]
 670              	.LVL90:
 243:..\..\u8g2\csrc/u8g2_font.c ****   bit_pos_plus_cnt = bit_pos;
 671              		.loc 1 243 0
 672 0008 3441     		asrs	r4, r4, r6
 673              	.LVL91:
 674 000a E5B2     		uxtb	r5, r4
 675              	.LVL92:
 245:..\..\u8g2\csrc/u8g2_font.c ****   if ( bit_pos_plus_cnt >= 8 )
 676              		.loc 1 245 0
 677 000c 7318     		adds	r3, r6, r1
ARM GAS  C:\Users\arh\AppData\Local\Temp\cc6sEv7h.s 			page 31


 678 000e DBB2     		uxtb	r3, r3
 679              	.LVL93:
 246:..\..\u8g2\csrc/u8g2_font.c ****   {
 680              		.loc 1 246 0
 681 0010 072B     		cmp	r3, #7
 682 0012 0AD9     		bls	.L33
 683              	.LVL94:
 684              	.LBB2:
 249:..\..\u8g2\csrc/u8g2_font.c ****     f->decode_ptr++;
 685              		.loc 1 249 0
 686 0014 0822     		movs	r2, #8
 687 0016 961B     		subs	r6, r2, r6
 688              	.LVL95:
 689 0018 F6B2     		uxtb	r6, r6
 690              	.LVL96:
 250:..\..\u8g2\csrc/u8g2_font.c ****     //val |= *(f->decode_ptr) << (8-bit_pos);
 691              		.loc 1 250 0
 692 001a 7A1C     		adds	r2, r7, #1
 693 001c 0260     		str	r2, [r0]
 252:..\..\u8g2\csrc/u8g2_font.c ****     //bit_pos -= 8;
 694              		.loc 1 252 0
 695 001e 7D78     		ldrb	r5, [r7, #1]
 696              	.LVL97:
 697 0020 B540     		lsls	r5, r5, r6
 698 0022 2C43     		orrs	r4, r5
 699              	.LVL98:
 700 0024 E5B2     		uxtb	r5, r4
 701              	.LVL99:
 254:..\..\u8g2\csrc/u8g2_font.c ****   }
 702              		.loc 1 254 0
 703 0026 083B     		subs	r3, r3, #8
 704              	.LVL100:
 705 0028 DBB2     		uxtb	r3, r3
 706              	.LVL101:
 707              	.L33:
 708              	.LBE2:
 256:..\..\u8g2\csrc/u8g2_font.c ****   //bit_pos += cnt;
 709              		.loc 1 256 0
 710 002a 0122     		movs	r2, #1
 711 002c 8A40     		lsls	r2, r2, r1
 712 002e 013A     		subs	r2, r2, #1
 713 0030 2A40     		ands	r2, r5
 714              	.LVL102:
 259:..\..\u8g2\csrc/u8g2_font.c ****   return val;
 715              		.loc 1 259 0
 716 0032 8372     		strb	r3, [r0, #10]
 717              	.LVL103:
 261:..\..\u8g2\csrc/u8g2_font.c **** 
 718              		.loc 1 261 0
 719 0034 1000     		movs	r0, r2
 720              	.LVL104:
 721              		@ sp needed
 722 0036 F0BD     		pop	{r4, r5, r6, r7, pc}
 723              		.cfi_endproc
 724              	.LFE9:
 725              		.size	u8g2_font_decode_get_unsigned_bits, .-u8g2_font_decode_get_unsigned_bits
 726              		.section	.text.u8g2_font_setup_decode,"ax",%progbits
ARM GAS  C:\Users\arh\AppData\Local\Temp\cc6sEv7h.s 			page 32


 727              		.align	2
 728              		.code	16
 729              		.thumb_func
 730              		.type	u8g2_font_setup_decode, %function
 731              	u8g2_font_setup_decode:
 732              	.LFB14:
 451:..\..\u8g2\csrc/u8g2_font.c ****   u8g2_font_decode_t *decode = &(u8g2->font_decode);
 733              		.loc 1 451 0
 734              		.cfi_startproc
 735              		@ args = 0, pretend = 0, frame = 0
 736              		@ frame_needed = 0, uses_anonymous_args = 0
 737              	.LVL105:
 738 0000 70B5     		push	{r4, r5, r6, lr}
 739              		.cfi_def_cfa_offset 16
 740              		.cfi_offset 4, -16
 741              		.cfi_offset 5, -12
 742              		.cfi_offset 6, -8
 743              		.cfi_offset 14, -4
 744 0002 0500     		movs	r5, r0
 452:..\..\u8g2\csrc/u8g2_font.c ****   decode->decode_ptr = glyph_data;
 745              		.loc 1 452 0
 746 0004 0400     		movs	r4, r0
 747 0006 5034     		adds	r4, r4, #80
 748              	.LVL106:
 453:..\..\u8g2\csrc/u8g2_font.c ****   decode->decode_bit_pos = 0;
 749              		.loc 1 453 0
 750 0008 0165     		str	r1, [r0, #80]
 454:..\..\u8g2\csrc/u8g2_font.c ****   
 751              		.loc 1 454 0
 752 000a 0023     		movs	r3, #0
 753 000c A372     		strb	r3, [r4, #10]
 462:..\..\u8g2\csrc/u8g2_font.c ****   decode->glyph_height = u8g2_font_decode_get_unsigned_bits(decode,u8g2->font_info.bits_per_char_he
 754              		.loc 1 462 0
 755 000e 6433     		adds	r3, r3, #100
 756 0010 C15C     		ldrb	r1, [r0, r3]
 757              	.LVL107:
 758 0012 2000     		movs	r0, r4
 759              	.LVL108:
 760 0014 FFF7FEFF 		bl	u8g2_font_decode_get_unsigned_bits
 761              	.LVL109:
 762 0018 2072     		strb	r0, [r4, #8]
 463:..\..\u8g2\csrc/u8g2_font.c ****   
 763              		.loc 1 463 0
 764 001a 6523     		movs	r3, #101
 765 001c E95C     		ldrb	r1, [r5, r3]
 766 001e 2000     		movs	r0, r4
 767 0020 FFF7FEFF 		bl	u8g2_font_decode_get_unsigned_bits
 768              	.LVL110:
 769 0024 6072     		strb	r0, [r4, #9]
 465:..\..\u8g2\csrc/u8g2_font.c ****   decode->bg_color = (decode->fg_color == 0 ? 1 : 0);
 770              		.loc 1 465 0
 771 0026 7C23     		movs	r3, #124
 772 0028 EB5C     		ldrb	r3, [r5, r3]
 773 002a 2373     		strb	r3, [r4, #12]
 466:..\..\u8g2\csrc/u8g2_font.c **** }
 774              		.loc 1 466 0
 775 002c 5A42     		rsbs	r2, r3, #0
ARM GAS  C:\Users\arh\AppData\Local\Temp\cc6sEv7h.s 			page 33


 776 002e 5341     		adcs	r3, r3, r2
 777 0030 6373     		strb	r3, [r4, #13]
 467:..\..\u8g2\csrc/u8g2_font.c **** 
 778              		.loc 1 467 0
 779              		@ sp needed
 780              	.LVL111:
 781              	.LVL112:
 782 0032 70BD     		pop	{r4, r5, r6, pc}
 783              		.cfi_endproc
 784              	.LFE14:
 785              		.size	u8g2_font_setup_decode, .-u8g2_font_setup_decode
 786              		.section	.text.u8g2_font_decode_get_signed_bits,"ax",%progbits
 787              		.align	2
 788              		.global	u8g2_font_decode_get_signed_bits
 789              		.code	16
 790              		.thumb_func
 791              		.type	u8g2_font_decode_get_signed_bits, %function
 792              	u8g2_font_decode_get_signed_bits:
 793              	.LFB10:
 280:..\..\u8g2\csrc/u8g2_font.c ****   int8_t v, d;
 794              		.loc 1 280 0
 795              		.cfi_startproc
 796              		@ args = 0, pretend = 0, frame = 0
 797              		@ frame_needed = 0, uses_anonymous_args = 0
 798              	.LVL113:
 799 0000 10B5     		push	{r4, lr}
 800              		.cfi_def_cfa_offset 8
 801              		.cfi_offset 4, -8
 802              		.cfi_offset 14, -4
 803 0002 0C00     		movs	r4, r1
 282:..\..\u8g2\csrc/u8g2_font.c ****   d = 1;
 804              		.loc 1 282 0
 805 0004 FFF7FEFF 		bl	u8g2_font_decode_get_unsigned_bits
 806              	.LVL114:
 284:..\..\u8g2\csrc/u8g2_font.c ****   d <<= cnt;
 807              		.loc 1 284 0
 808 0008 013C     		subs	r4, r4, #1
 809 000a E4B2     		uxtb	r4, r4
 810              	.LVL115:
 285:..\..\u8g2\csrc/u8g2_font.c ****   v -= d;
 811              		.loc 1 285 0
 812 000c 0123     		movs	r3, #1
 813 000e A340     		lsls	r3, r3, r4
 814              	.LVL116:
 286:..\..\u8g2\csrc/u8g2_font.c ****   return v;
 815              		.loc 1 286 0
 816 0010 C01A     		subs	r0, r0, r3
 817              	.LVL117:
 818 0012 40B2     		sxtb	r0, r0
 819              	.LVL118:
 289:..\..\u8g2\csrc/u8g2_font.c **** 
 820              		.loc 1 289 0
 821              		@ sp needed
 822              	.LVL119:
 823 0014 10BD     		pop	{r4, pc}
 824              		.cfi_endproc
 825              	.LFE10:
ARM GAS  C:\Users\arh\AppData\Local\Temp\cc6sEv7h.s 			page 34


 826              		.size	u8g2_font_decode_get_signed_bits, .-u8g2_font_decode_get_signed_bits
 827 0016 C046     		.section	.text.u8g2_font_decode_len,"ax",%progbits
 828              		.align	2
 829              		.global	u8g2_font_decode_len
 830              		.code	16
 831              		.thumb_func
 832              		.type	u8g2_font_decode_len, %function
 833              	u8g2_font_decode_len:
 834              	.LFB13:
 357:..\..\u8g2\csrc/u8g2_font.c ****   uint8_t cnt;	/* total number of remaining pixels, which have to be drawn */
 835              		.loc 1 357 0
 836              		.cfi_startproc
 837              		@ args = 0, pretend = 0, frame = 24
 838              		@ frame_needed = 0, uses_anonymous_args = 0
 839              	.LVL120:
 840 0000 F0B5     		push	{r4, r5, r6, r7, lr}
 841              		.cfi_def_cfa_offset 20
 842              		.cfi_offset 4, -20
 843              		.cfi_offset 5, -16
 844              		.cfi_offset 6, -12
 845              		.cfi_offset 7, -8
 846              		.cfi_offset 14, -4
 847 0002 5F46     		mov	r7, fp
 848 0004 5646     		mov	r6, r10
 849 0006 4546     		mov	r5, r8
 850 0008 E0B4     		push	{r5, r6, r7}
 851              		.cfi_def_cfa_offset 32
 852              		.cfi_offset 8, -32
 853              		.cfi_offset 10, -28
 854              		.cfi_offset 11, -24
 855 000a 88B0     		sub	sp, sp, #32
 856              		.cfi_def_cfa_offset 64
 857 000c 9246     		mov	r10, r2
 858              	.LVL121:
 374:..\..\u8g2\csrc/u8g2_font.c ****   ly = decode->y;
 859              		.loc 1 374 0
 860 000e 0300     		movs	r3, r0
 861 0010 5033     		adds	r3, r3, #80
 862              	.LVL122:
 863 0012 9E79     		ldrb	r6, [r3, #6]
 864              	.LVL123:
 375:..\..\u8g2\csrc/u8g2_font.c ****   
 865              		.loc 1 375 0
 866 0014 DB79     		ldrb	r3, [r3, #7]
 867              	.LVL124:
 868 0016 9846     		mov	r8, r3
 869              	.LVL125:
 870 0018 0400     		movs	r4, r0
 871 001a 5346     		mov	r3, r10
 872 001c B246     		mov	r10, r6
 873 001e 4646     		mov	r6, r8
 874              	.LVL126:
 875 0020 9846     		mov	r8, r3
 876              	.LVL127:
 877 0022 0F00     		movs	r7, r1
 878              	.LVL128:
 879              	.L41:
ARM GAS  C:\Users\arh\AppData\Local\Temp\cc6sEv7h.s 			page 35


 380:..\..\u8g2\csrc/u8g2_font.c ****     rem -= lx;
 880              		.loc 1 380 0
 881 0024 2300     		movs	r3, r4
 882 0026 5033     		adds	r3, r3, #80
 883 0028 1D7A     		ldrb	r5, [r3, #8]
 884              	.LVL129:
 381:..\..\u8g2\csrc/u8g2_font.c ****     
 885              		.loc 1 381 0
 886 002a 5346     		mov	r3, r10
 887 002c ED1A     		subs	r5, r5, r3
 888              	.LVL130:
 889 002e EDB2     		uxtb	r5, r5
 890              	.LVL131:
 386:..\..\u8g2\csrc/u8g2_font.c ****       current = cnt;
 891              		.loc 1 386 0
 892 0030 AF42     		cmp	r7, r5
 893 0032 01D3     		bcc	.L42
 385:..\..\u8g2\csrc/u8g2_font.c ****     if ( cnt < rem )
 894              		.loc 1 385 0
 895 0034 0695     		str	r5, [sp, #24]
 896 0036 00E0     		b	.L37
 897              	.L42:
 387:..\..\u8g2\csrc/u8g2_font.c ****     
 898              		.loc 1 387 0
 899 0038 0697     		str	r7, [sp, #24]
 900              	.L37:
 901              	.LVL132:
 394:..\..\u8g2\csrc/u8g2_font.c ****     y = decode->target_y;
 902              		.loc 1 394 0
 903 003a 2300     		movs	r3, r4
 904 003c 5033     		adds	r3, r3, #80
 905 003e 1879     		ldrb	r0, [r3, #4]
 906              	.LVL133:
 395:..\..\u8g2\csrc/u8g2_font.c **** 
 907              		.loc 1 395 0
 908 0040 5A79     		ldrb	r2, [r3, #5]
 909 0042 9346     		mov	fp, r2
 910              	.LVL134:
 399:..\..\u8g2\csrc/u8g2_font.c ****     y = u8g2_add_vector_y(y, lx, ly, decode->dir);
 911              		.loc 1 399 0
 912 0044 5246     		mov	r2, r10
 913 0046 6946     		mov	r1, sp
 914 0048 0A73     		strb	r2, [r1, #12]
 915 004a 6A46     		mov	r2, sp
 916 004c 0C21     		movs	r1, #12
 917 004e 5156     		ldrsb	r1, [r2, r1]
 918 0050 72B2     		sxtb	r2, r6
 919 0052 9B7B     		ldrb	r3, [r3, #14]
 920 0054 0393     		str	r3, [sp, #12]
 921 0056 0492     		str	r2, [sp, #16]
 922 0058 0591     		str	r1, [sp, #20]
 923 005a FFF7FEFF 		bl	u8g2_add_vector_x
 924              	.LVL135:
 925 005e 0790     		str	r0, [sp, #28]
 926              	.LVL136:
 400:..\..\u8g2\csrc/u8g2_font.c **** #else
 927              		.loc 1 400 0
ARM GAS  C:\Users\arh\AppData\Local\Temp\cc6sEv7h.s 			page 36


 928 0060 039B     		ldr	r3, [sp, #12]
 929 0062 049A     		ldr	r2, [sp, #16]
 930 0064 0599     		ldr	r1, [sp, #20]
 931 0066 5846     		mov	r0, fp
 932 0068 FFF7FEFF 		bl	u8g2_add_vector_y
 933              	.LVL137:
 407:..\..\u8g2\csrc/u8g2_font.c ****     {
 934              		.loc 1 407 0
 935 006c 4346     		mov	r3, r8
 936 006e 002B     		cmp	r3, #0
 937 0070 0DD0     		beq	.L38
 409:..\..\u8g2\csrc/u8g2_font.c ****       u8g2_DrawHVLine(u8g2, 
 938              		.loc 1 409 0
 939 0072 2300     		movs	r3, r4
 940 0074 5033     		adds	r3, r3, #80
 941 0076 1A7B     		ldrb	r2, [r3, #12]
 942 0078 7C23     		movs	r3, #124
 943 007a E254     		strb	r2, [r4, r3]
 410:..\..\u8g2\csrc/u8g2_font.c **** 	x, 
 944              		.loc 1 410 0
 945 007c 039B     		ldr	r3, [sp, #12]
 946 007e 0093     		str	r3, [sp]
 947 0080 069B     		ldr	r3, [sp, #24]
 948 0082 0200     		movs	r2, r0
 949 0084 0799     		ldr	r1, [sp, #28]
 950 0086 2000     		movs	r0, r4
 951              	.LVL138:
 952 0088 FFF7FEFF 		bl	u8g2_DrawHVLine
 953              	.LVL139:
 954 008c 11E0     		b	.L39
 955              	.LVL140:
 956              	.L38:
 421:..\..\u8g2\csrc/u8g2_font.c ****     {
 957              		.loc 1 421 0
 958 008e 2300     		movs	r3, r4
 959 0090 5033     		adds	r3, r3, #80
 960 0092 DB7A     		ldrb	r3, [r3, #11]
 961 0094 002B     		cmp	r3, #0
 962 0096 0CD1     		bne	.L39
 423:..\..\u8g2\csrc/u8g2_font.c ****       u8g2_DrawHVLine(u8g2, 
 963              		.loc 1 423 0
 964 0098 2300     		movs	r3, r4
 965 009a 5033     		adds	r3, r3, #80
 966 009c 5A7B     		ldrb	r2, [r3, #13]
 967 009e 7C23     		movs	r3, #124
 968 00a0 E254     		strb	r2, [r4, r3]
 424:..\..\u8g2\csrc/u8g2_font.c **** 	x, 
 969              		.loc 1 424 0
 970 00a2 039B     		ldr	r3, [sp, #12]
 971 00a4 0093     		str	r3, [sp]
 972 00a6 069B     		ldr	r3, [sp, #24]
 973 00a8 0200     		movs	r2, r0
 974 00aa 0799     		ldr	r1, [sp, #28]
 975 00ac 2000     		movs	r0, r4
 976              	.LVL141:
 977 00ae FFF7FEFF 		bl	u8g2_DrawHVLine
 978              	.LVL142:
ARM GAS  C:\Users\arh\AppData\Local\Temp\cc6sEv7h.s 			page 37


 979              	.L39:
 437:..\..\u8g2\csrc/u8g2_font.c ****       break;
 980              		.loc 1 437 0
 981 00b2 AF42     		cmp	r7, r5
 982 00b4 06D3     		bcc	.L40
 439:..\..\u8g2\csrc/u8g2_font.c ****     lx = 0;
 983              		.loc 1 439 0
 984 00b6 7D1B     		subs	r5, r7, r5
 985              	.LVL143:
 986 00b8 EFB2     		uxtb	r7, r5
 987              	.LVL144:
 441:..\..\u8g2\csrc/u8g2_font.c ****   }
 988              		.loc 1 441 0
 989 00ba 0136     		adds	r6, r6, #1
 990              	.LVL145:
 991 00bc F6B2     		uxtb	r6, r6
 992              	.LVL146:
 440:..\..\u8g2\csrc/u8g2_font.c ****     ly++;
 993              		.loc 1 440 0
 994 00be 0023     		movs	r3, #0
 995 00c0 9A46     		mov	r10, r3
 442:..\..\u8g2\csrc/u8g2_font.c ****   lx += cnt;
 996              		.loc 1 442 0
 997 00c2 AFE7     		b	.L41
 998              	.LVL147:
 999              	.L40:
 1000 00c4 5646     		mov	r6, r10
 1001              	.LVL148:
 1002 00c6 3B00     		movs	r3, r7
 1003 00c8 2700     		movs	r7, r4
 1004              	.LVL149:
 443:..\..\u8g2\csrc/u8g2_font.c ****   
 1005              		.loc 1 443 0
 1006 00ca 9A19     		adds	r2, r3, r6
 1007              	.LVL150:
 445:..\..\u8g2\csrc/u8g2_font.c ****   decode->y = ly;
 1008              		.loc 1 445 0
 1009 00cc 3B00     		movs	r3, r7
 1010 00ce 5033     		adds	r3, r3, #80
 1011 00d0 9A71     		strb	r2, [r3, #6]
 446:..\..\u8g2\csrc/u8g2_font.c ****   
 1012              		.loc 1 446 0
 1013 00d2 6A46     		mov	r2, sp
 1014              	.LVL151:
 1015 00d4 127C     		ldrb	r2, [r2, #16]
 1016 00d6 DA71     		strb	r2, [r3, #7]
 448:..\..\u8g2\csrc/u8g2_font.c **** 
 1017              		.loc 1 448 0
 1018 00d8 08B0     		add	sp, sp, #32
 1019              		@ sp needed
 1020              	.LVL152:
 1021              	.LVL153:
 1022              	.LVL154:
 1023 00da 1CBC     		pop	{r2, r3, r4}
 1024 00dc 9046     		mov	r8, r2
 1025 00de 9A46     		mov	r10, r3
 1026 00e0 A346     		mov	fp, r4
ARM GAS  C:\Users\arh\AppData\Local\Temp\cc6sEv7h.s 			page 38


 1027 00e2 F0BD     		pop	{r4, r5, r6, r7, pc}
 1028              		.cfi_endproc
 1029              	.LFE13:
 1030              		.size	u8g2_font_decode_len, .-u8g2_font_decode_len
 1031              		.section	.text.u8g2_font_decode_glyph,"ax",%progbits
 1032              		.align	2
 1033              		.global	u8g2_font_decode_glyph
 1034              		.code	16
 1035              		.thumb_func
 1036              		.type	u8g2_font_decode_glyph, %function
 1037              	u8g2_font_decode_glyph:
 1038              	.LFB15:
 485:..\..\u8g2\csrc/u8g2_font.c ****   uint8_t a, b;
 1039              		.loc 1 485 0
 1040              		.cfi_startproc
 1041              		@ args = 0, pretend = 0, frame = 16
 1042              		@ frame_needed = 0, uses_anonymous_args = 0
 1043              	.LVL155:
 1044 0000 F0B5     		push	{r4, r5, r6, r7, lr}
 1045              		.cfi_def_cfa_offset 20
 1046              		.cfi_offset 4, -20
 1047              		.cfi_offset 5, -16
 1048              		.cfi_offset 6, -12
 1049              		.cfi_offset 7, -8
 1050              		.cfi_offset 14, -4
 1051 0002 5F46     		mov	r7, fp
 1052 0004 5646     		mov	r6, r10
 1053 0006 4D46     		mov	r5, r9
 1054 0008 4446     		mov	r4, r8
 1055 000a F0B4     		push	{r4, r5, r6, r7}
 1056              		.cfi_def_cfa_offset 36
 1057              		.cfi_offset 8, -36
 1058              		.cfi_offset 9, -32
 1059              		.cfi_offset 10, -28
 1060              		.cfi_offset 11, -24
 1061 000c 87B0     		sub	sp, sp, #28
 1062              		.cfi_def_cfa_offset 64
 1063 000e 0400     		movs	r4, r0
 490:..\..\u8g2\csrc/u8g2_font.c ****     
 1064              		.loc 1 490 0
 1065 0010 0700     		movs	r7, r0
 1066 0012 5037     		adds	r7, r7, #80
 1067              	.LVL156:
 492:..\..\u8g2\csrc/u8g2_font.c ****   h = u8g2->font_decode.glyph_height;
 1068              		.loc 1 492 0
 1069 0014 FFF7FEFF 		bl	u8g2_font_setup_decode
 1070              	.LVL157:
 493:..\..\u8g2\csrc/u8g2_font.c ****   
 1071              		.loc 1 493 0
 1072 0018 5923     		movs	r3, #89
 1073 001a E356     		ldrsb	r3, [r4, r3]
 1074 001c 9846     		mov	r8, r3
 1075              	.LVL158:
 495:..\..\u8g2\csrc/u8g2_font.c ****   y = u8g2_font_decode_get_signed_bits(decode, u8g2->font_info.bits_per_char_y);
 1076              		.loc 1 495 0
 1077 001e 6623     		movs	r3, #102
 1078 0020 E15C     		ldrb	r1, [r4, r3]
ARM GAS  C:\Users\arh\AppData\Local\Temp\cc6sEv7h.s 			page 39


 1079 0022 3800     		movs	r0, r7
 1080 0024 FFF7FEFF 		bl	u8g2_font_decode_get_signed_bits
 1081              	.LVL159:
 1082 0028 0290     		str	r0, [sp, #8]
 1083              	.LVL160:
 496:..\..\u8g2\csrc/u8g2_font.c ****   d = u8g2_font_decode_get_signed_bits(decode, u8g2->font_info.bits_per_delta_x);
 1084              		.loc 1 496 0
 1085 002a 6723     		movs	r3, #103
 1086 002c E15C     		ldrb	r1, [r4, r3]
 1087 002e 3800     		movs	r0, r7
 1088 0030 FFF7FEFF 		bl	u8g2_font_decode_get_signed_bits
 1089              	.LVL161:
 1090 0034 0500     		movs	r5, r0
 1091              	.LVL162:
 497:..\..\u8g2\csrc/u8g2_font.c ****   
 1092              		.loc 1 497 0
 1093 0036 6823     		movs	r3, #104
 1094 0038 E15C     		ldrb	r1, [r4, r3]
 1095 003a 3800     		movs	r0, r7
 1096 003c FFF7FEFF 		bl	u8g2_font_decode_get_signed_bits
 1097              	.LVL163:
 1098 0040 0390     		str	r0, [sp, #12]
 1099              	.LVL164:
 499:..\..\u8g2\csrc/u8g2_font.c ****   {
 1100              		.loc 1 499 0
 1101 0042 0823     		movs	r3, #8
 1102 0044 FB56     		ldrsb	r3, [r7, r3]
 1103 0046 9B46     		mov	fp, r3
 1104 0048 002B     		cmp	r3, #0
 1105 004a 00DC     		bgt	.LCB969
 1106 004c 85E0     		b	.L44	@long jump
 1107              	.LCB969:
 502:..\..\u8g2\csrc/u8g2_font.c ****     decode->target_y = u8g2_add_vector_y(decode->target_y, x, -(h+y), decode->dir);
 1108              		.loc 1 502 0
 1109 004e 4346     		mov	r3, r8
 1110 0050 6A46     		mov	r2, sp
 1111 0052 1374     		strb	r3, [r2, #16]
 1112 0054 137C     		ldrb	r3, [r2, #16]
 1113 0056 9A46     		mov	r10, r3
 1114 0058 5544     		add	r5, r5, r10
 1115              	.LVL165:
 1116 005a 6D42     		rsbs	r5, r5, #0
 1117 005c 6BB2     		sxtb	r3, r5
 1118 005e 1A00     		movs	r2, r3
 1119 0060 BD7B     		ldrb	r5, [r7, #14]
 1120 0062 3879     		ldrb	r0, [r7, #4]
 1121 0064 2B00     		movs	r3, r5
 1122 0066 0592     		str	r2, [sp, #20]
 1123 0068 0299     		ldr	r1, [sp, #8]
 1124 006a FFF7FEFF 		bl	u8g2_add_vector_x
 1125              	.LVL166:
 1126 006e 8146     		mov	r9, r0
 1127 0070 0490     		str	r0, [sp, #16]
 1128 0072 3871     		strb	r0, [r7, #4]
 503:..\..\u8g2\csrc/u8g2_font.c **** #else
 1129              		.loc 1 503 0
 1130 0074 7879     		ldrb	r0, [r7, #5]
ARM GAS  C:\Users\arh\AppData\Local\Temp\cc6sEv7h.s 			page 40


 1131 0076 2B00     		movs	r3, r5
 1132 0078 059A     		ldr	r2, [sp, #20]
 1133 007a 0299     		ldr	r1, [sp, #8]
 1134 007c FFF7FEFF 		bl	u8g2_add_vector_y
 1135              	.LVL167:
 1136 0080 0200     		movs	r2, r0
 1137 0082 7871     		strb	r0, [r7, #5]
 1138              	.LVL168:
 1139              	.LBB3:
 519:..\..\u8g2\csrc/u8g2_font.c ****       {
 1140              		.loc 1 519 0
 1141 0084 012D     		cmp	r5, #1
 1142 0086 0CD0     		beq	.L46
 1143 0088 002D     		cmp	r5, #0
 1144 008a 04D0     		beq	.L47
 1145 008c 022D     		cmp	r5, #2
 1146 008e 14D0     		beq	.L48
 1147 0090 032D     		cmp	r5, #3
 1148 0092 23D0     		beq	.L49
 1149 0094 2DE0     		b	.L53
 1150              	.L47:
 522:..\..\u8g2\csrc/u8g2_font.c **** 	    y1 += h;
 1151              		.loc 1 522 0
 1152 0096 4E46     		mov	r6, r9
 1153 0098 5E44     		add	r6, r6, fp
 1154 009a F3B2     		uxtb	r3, r6
 1155              	.LVL169:
 523:..\..\u8g2\csrc/u8g2_font.c **** 	    break;
 1156              		.loc 1 523 0
 1157 009c 5044     		add	r0, r0, r10
 1158              	.LVL170:
 1159 009e C0B2     		uxtb	r0, r0
 1160              	.LVL171:
 524:..\..\u8g2\csrc/u8g2_font.c **** 	case 1:
 1161              		.loc 1 524 0
 1162 00a0 28E0     		b	.L45
 1163              	.LVL172:
 1164              	.L46:
 526:..\..\u8g2\csrc/u8g2_font.c **** 	    x0++;	/* shift down, because of assymetric boundaries for the interseciton test */
 1165              		.loc 1 526 0
 1166 00a2 4B46     		mov	r3, r9
 1167 00a4 5146     		mov	r1, r10
 1168 00a6 591A     		subs	r1, r3, r1
 1169 00a8 C9B2     		uxtb	r1, r1
 1170              	.LVL173:
 527:..\..\u8g2\csrc/u8g2_font.c **** 	    x1++;
 1171              		.loc 1 527 0
 1172 00aa 0131     		adds	r1, r1, #1
 1173              	.LVL174:
 528:..\..\u8g2\csrc/u8g2_font.c **** 	    y1 += decode->glyph_width;
 1174              		.loc 1 528 0
 1175 00ac 5E1C     		adds	r6, r3, #1
 1176 00ae F3B2     		uxtb	r3, r6
 1177              	.LVL175:
 529:..\..\u8g2\csrc/u8g2_font.c **** 	    break;
 1178              		.loc 1 529 0
 1179 00b0 5844     		add	r0, r0, fp
ARM GAS  C:\Users\arh\AppData\Local\Temp\cc6sEv7h.s 			page 41


 1180              	.LVL176:
 1181 00b2 C0B2     		uxtb	r0, r0
 1182              	.LVL177:
 527:..\..\u8g2\csrc/u8g2_font.c **** 	    x1++;
 1183              		.loc 1 527 0
 1184 00b4 C9B2     		uxtb	r1, r1
 1185 00b6 0491     		str	r1, [sp, #16]
 530:..\..\u8g2\csrc/u8g2_font.c **** 	case 2:
 1186              		.loc 1 530 0
 1187 00b8 1CE0     		b	.L45
 1188              	.LVL178:
 1189              	.L48:
 532:..\..\u8g2\csrc/u8g2_font.c **** 	    x0++;	/* shift down, because of assymetric boundaries for the interseciton test */
 1190              		.loc 1 532 0
 1191 00ba 4B46     		mov	r3, r9
 1192 00bc 5A46     		mov	r2, fp
 1193 00be 991A     		subs	r1, r3, r2
 1194 00c0 C9B2     		uxtb	r1, r1
 1195              	.LVL179:
 533:..\..\u8g2\csrc/u8g2_font.c **** 	    x1++;
 1196              		.loc 1 533 0
 1197 00c2 0131     		adds	r1, r1, #1
 1198              	.LVL180:
 534:..\..\u8g2\csrc/u8g2_font.c **** 	    y0 -= h;
 1199              		.loc 1 534 0
 1200 00c4 5E1C     		adds	r6, r3, #1
 1201 00c6 F3B2     		uxtb	r3, r6
 1202              	.LVL181:
 535:..\..\u8g2\csrc/u8g2_font.c **** 	    y0++;	/* shift down, because of assymetric boundaries for the interseciton test */
 1203              		.loc 1 535 0
 1204 00c8 5246     		mov	r2, r10
 1205 00ca 821A     		subs	r2, r0, r2
 1206 00cc D2B2     		uxtb	r2, r2
 1207              	.LVL182:
 536:..\..\u8g2\csrc/u8g2_font.c **** 	    y1++;
 1208              		.loc 1 536 0
 1209 00ce 0132     		adds	r2, r2, #1
 1210              	.LVL183:
 537:..\..\u8g2\csrc/u8g2_font.c **** 	    break;	  
 1211              		.loc 1 537 0
 1212 00d0 0130     		adds	r0, r0, #1
 1213              	.LVL184:
 1214 00d2 C0B2     		uxtb	r0, r0
 1215              	.LVL185:
 536:..\..\u8g2\csrc/u8g2_font.c **** 	    y1++;
 1216              		.loc 1 536 0
 1217 00d4 D2B2     		uxtb	r2, r2
 533:..\..\u8g2\csrc/u8g2_font.c **** 	    x1++;
 1218              		.loc 1 533 0
 1219 00d6 C9B2     		uxtb	r1, r1
 1220 00d8 0491     		str	r1, [sp, #16]
 538:..\..\u8g2\csrc/u8g2_font.c **** 	case 3:
 1221              		.loc 1 538 0
 1222 00da 0BE0     		b	.L45
 1223              	.LVL186:
 1224              	.L49:
 540:..\..\u8g2\csrc/u8g2_font.c **** 	    y0 -= decode->glyph_width;
ARM GAS  C:\Users\arh\AppData\Local\Temp\cc6sEv7h.s 			page 42


 1225              		.loc 1 540 0
 1226 00dc 5646     		mov	r6, r10
 1227 00de 4E44     		add	r6, r6, r9
 1228 00e0 F3B2     		uxtb	r3, r6
 1229              	.LVL187:
 541:..\..\u8g2\csrc/u8g2_font.c **** 	    y0++;	/* shift down, because of assymetric boundaries for the interseciton test */
 1230              		.loc 1 541 0
 1231 00e2 5A46     		mov	r2, fp
 1232 00e4 821A     		subs	r2, r0, r2
 1233 00e6 D2B2     		uxtb	r2, r2
 1234              	.LVL188:
 542:..\..\u8g2\csrc/u8g2_font.c **** 	    y1++;
 1235              		.loc 1 542 0
 1236 00e8 0132     		adds	r2, r2, #1
 1237              	.LVL189:
 543:..\..\u8g2\csrc/u8g2_font.c **** 	    break;	  
 1238              		.loc 1 543 0
 1239 00ea 0130     		adds	r0, r0, #1
 1240              	.LVL190:
 1241 00ec C0B2     		uxtb	r0, r0
 1242              	.LVL191:
 542:..\..\u8g2\csrc/u8g2_font.c **** 	    y1++;
 1243              		.loc 1 542 0
 1244 00ee D2B2     		uxtb	r2, r2
 544:..\..\u8g2\csrc/u8g2_font.c ****       }
 1245              		.loc 1 544 0
 1246 00f0 00E0     		b	.L45
 1247              	.LVL192:
 1248              	.L53:
 515:..\..\u8g2\csrc/u8g2_font.c ****       y1 = y0;
 1249              		.loc 1 515 0
 1250 00f2 4B46     		mov	r3, r9
 1251              	.LVL193:
 1252              	.L45:
 551:..\..\u8g2\csrc/u8g2_font.c **** 	return d;
 1253              		.loc 1 551 0
 1254 00f4 0090     		str	r0, [sp]
 1255 00f6 0499     		ldr	r1, [sp, #16]
 1256 00f8 2000     		movs	r0, r4
 1257              	.LVL194:
 1258 00fa FFF7FEFF 		bl	u8g2_IsIntersection
 1259              	.LVL195:
 1260 00fe 0028     		cmp	r0, #0
 1261 0100 2BD0     		beq	.L44
 1262              	.LBE3:
 557:..\..\u8g2\csrc/u8g2_font.c ****     decode->y = 0;
 1263              		.loc 1 557 0
 1264 0102 2300     		movs	r3, r4
 1265 0104 5033     		adds	r3, r3, #80
 1266 0106 0022     		movs	r2, #0
 1267 0108 9A71     		strb	r2, [r3, #6]
 558:..\..\u8g2\csrc/u8g2_font.c ****     
 1268              		.loc 1 558 0
 1269 010a DA71     		strb	r2, [r3, #7]
 1270              	.L51:
 563:..\..\u8g2\csrc/u8g2_font.c ****       b = u8g2_font_decode_get_unsigned_bits(decode, u8g2->font_info.bits_per_1);
 1271              		.loc 1 563 0
ARM GAS  C:\Users\arh\AppData\Local\Temp\cc6sEv7h.s 			page 43


 1272 010c 6223     		movs	r3, #98
 1273 010e E15C     		ldrb	r1, [r4, r3]
 1274 0110 3800     		movs	r0, r7
 1275 0112 FFF7FEFF 		bl	u8g2_font_decode_get_unsigned_bits
 1276              	.LVL196:
 1277 0116 0600     		movs	r6, r0
 1278              	.LVL197:
 564:..\..\u8g2\csrc/u8g2_font.c ****       do
 1279              		.loc 1 564 0
 1280 0118 6323     		movs	r3, #99
 1281 011a E15C     		ldrb	r1, [r4, r3]
 1282 011c 3800     		movs	r0, r7
 1283              	.LVL198:
 1284 011e FFF7FEFF 		bl	u8g2_font_decode_get_unsigned_bits
 1285              	.LVL199:
 1286 0122 0500     		movs	r5, r0
 1287              	.LVL200:
 1288              	.L50:
 567:..\..\u8g2\csrc/u8g2_font.c **** 	u8g2_font_decode_len(u8g2, b, 1);
 1289              		.loc 1 567 0 discriminator 1
 1290 0124 0022     		movs	r2, #0
 1291 0126 3100     		movs	r1, r6
 1292 0128 2000     		movs	r0, r4
 1293 012a FFF7FEFF 		bl	u8g2_font_decode_len
 1294              	.LVL201:
 568:..\..\u8g2\csrc/u8g2_font.c ****       } while( u8g2_font_decode_get_unsigned_bits(decode, 1) != 0 );
 1295              		.loc 1 568 0 discriminator 1
 1296 012e 0122     		movs	r2, #1
 1297 0130 2900     		movs	r1, r5
 1298 0132 2000     		movs	r0, r4
 1299 0134 FFF7FEFF 		bl	u8g2_font_decode_len
 1300              	.LVL202:
 569:..\..\u8g2\csrc/u8g2_font.c **** 
 1301              		.loc 1 569 0 discriminator 1
 1302 0138 0121     		movs	r1, #1
 1303 013a 3800     		movs	r0, r7
 1304 013c FFF7FEFF 		bl	u8g2_font_decode_get_unsigned_bits
 1305              	.LVL203:
 1306 0140 0028     		cmp	r0, #0
 1307 0142 EFD1     		bne	.L50
 571:..\..\u8g2\csrc/u8g2_font.c **** 	break;
 1308              		.loc 1 571 0
 1309 0144 2300     		movs	r3, r4
 1310 0146 5033     		adds	r3, r3, #80
 1311 0148 DB79     		ldrb	r3, [r3, #7]
 1312 014a 5BB2     		sxtb	r3, r3
 1313 014c 9845     		cmp	r8, r3
 1314 014e DDDC     		bgt	.L51
 576:..\..\u8g2\csrc/u8g2_font.c ****   }
 1315              		.loc 1 576 0
 1316 0150 2300     		movs	r3, r4
 1317 0152 5033     		adds	r3, r3, #80
 1318 0154 1A7B     		ldrb	r2, [r3, #12]
 1319 0156 7C23     		movs	r3, #124
 1320 0158 E254     		strb	r2, [r4, r3]
 1321              	.LVL204:
 1322              	.L44:
ARM GAS  C:\Users\arh\AppData\Local\Temp\cc6sEv7h.s 			page 44


 579:..\..\u8g2\csrc/u8g2_font.c **** 
 1323              		.loc 1 579 0
 1324 015a 0398     		ldr	r0, [sp, #12]
 1325 015c 07B0     		add	sp, sp, #28
 1326              		@ sp needed
 1327              	.LVL205:
 1328              	.LVL206:
 1329              	.LVL207:
 1330 015e 3CBC     		pop	{r2, r3, r4, r5}
 1331 0160 9046     		mov	r8, r2
 1332 0162 9946     		mov	r9, r3
 1333 0164 A246     		mov	r10, r4
 1334 0166 AB46     		mov	fp, r5
 1335 0168 F0BD     		pop	{r4, r5, r6, r7, pc}
 1336              		.cfi_endproc
 1337              	.LFE15:
 1338              		.size	u8g2_font_decode_glyph, .-u8g2_font_decode_glyph
 1339 016a C046     		.section	.text.u8g2_font_get_glyph_data,"ax",%progbits
 1340              		.align	2
 1341              		.global	u8g2_font_get_glyph_data
 1342              		.code	16
 1343              		.thumb_func
 1344              		.type	u8g2_font_get_glyph_data, %function
 1345              	u8g2_font_get_glyph_data:
 1346              	.LFB16:
 590:..\..\u8g2\csrc/u8g2_font.c ****   const uint8_t *font = u8g2->font;
 1347              		.loc 1 590 0
 1348              		.cfi_startproc
 1349              		@ args = 0, pretend = 0, frame = 0
 1350              		@ frame_needed = 0, uses_anonymous_args = 0
 1351              		@ link register save eliminated.
 1352              	.LVL208:
 592:..\..\u8g2\csrc/u8g2_font.c **** 
 1353              		.loc 1 592 0
 1354 0000 826C     		ldr	r2, [r0, #72]
 1355 0002 1732     		adds	r2, r2, #23
 1356              	.LVL209:
 595:..\..\u8g2\csrc/u8g2_font.c ****   {
 1357              		.loc 1 595 0
 1358 0004 FF29     		cmp	r1, #255
 1359 0006 14D8     		bhi	.L55
 597:..\..\u8g2\csrc/u8g2_font.c ****     {
 1360              		.loc 1 597 0
 1361 0008 6029     		cmp	r1, #96
 1362 000a 03D9     		bls	.L56
 599:..\..\u8g2\csrc/u8g2_font.c ****     }
 1363              		.loc 1 599 0
 1364 000c 7423     		movs	r3, #116
 1365 000e C35A     		ldrh	r3, [r0, r3]
 1366 0010 D218     		adds	r2, r2, r3
 1367              	.LVL210:
 1368 0012 04E0     		b	.L60
 1369              	.L56:
 601:..\..\u8g2\csrc/u8g2_font.c ****     {
 1370              		.loc 1 601 0
 1371 0014 4029     		cmp	r1, #64
 1372 0016 02D9     		bls	.L60
ARM GAS  C:\Users\arh\AppData\Local\Temp\cc6sEv7h.s 			page 45


 603:..\..\u8g2\csrc/u8g2_font.c ****     }
 1373              		.loc 1 603 0
 1374 0018 7223     		movs	r3, #114
 1375 001a C35A     		ldrh	r3, [r0, r3]
 1376 001c D218     		adds	r2, r2, r3
 1377              	.LVL211:
 1378              	.L60:
 608:..\..\u8g2\csrc/u8g2_font.c **** 	break;
 1379              		.loc 1 608 0
 1380 001e 5378     		ldrb	r3, [r2, #1]
 1381 0020 002B     		cmp	r3, #0
 1382 0022 15D0     		beq	.L63
 610:..\..\u8g2\csrc/u8g2_font.c ****       {
 1383              		.loc 1 610 0
 1384 0024 1078     		ldrb	r0, [r2]
 1385 0026 8142     		cmp	r1, r0
 1386 0028 01D1     		bne	.L59
 612:..\..\u8g2\csrc/u8g2_font.c ****       }
 1387              		.loc 1 612 0
 1388 002a 901C     		adds	r0, r2, #2
 1389 002c 13E0     		b	.L58
 1390              	.L59:
 614:..\..\u8g2\csrc/u8g2_font.c ****     }
 1391              		.loc 1 614 0
 1392 002e D218     		adds	r2, r2, r3
 1393              	.LVL212:
 615:..\..\u8g2\csrc/u8g2_font.c ****   }
 1394              		.loc 1 615 0
 1395 0030 F5E7     		b	.L60
 1396              	.LVL213:
 1397              	.L55:
 1398              	.LBB4:
 621:..\..\u8g2\csrc/u8g2_font.c ****     for(;;)
 1399              		.loc 1 621 0
 1400 0032 7623     		movs	r3, #118
 1401 0034 C35A     		ldrh	r3, [r0, r3]
 1402 0036 D018     		adds	r0, r2, r3
 1403              	.LVL214:
 1404              	.L62:
 624:..\..\u8g2\csrc/u8g2_font.c ****       e <<= 8;
 1405              		.loc 1 624 0
 1406 0038 0378     		ldrb	r3, [r0]
 1407              	.LVL215:
 625:..\..\u8g2\csrc/u8g2_font.c ****       e |= u8x8_pgm_read( font + 1 );
 1408              		.loc 1 625 0
 1409 003a 1B02     		lsls	r3, r3, #8
 1410              	.LVL216:
 626:..\..\u8g2\csrc/u8g2_font.c ****   
 1411              		.loc 1 626 0
 1412 003c 4278     		ldrb	r2, [r0, #1]
 1413 003e 1343     		orrs	r3, r2
 1414              	.LVL217:
 628:..\..\u8g2\csrc/u8g2_font.c **** 	break;
 1415              		.loc 1 628 0
 1416 0040 08D0     		beq	.L64
 631:..\..\u8g2\csrc/u8g2_font.c ****       {
 1417              		.loc 1 631 0
ARM GAS  C:\Users\arh\AppData\Local\Temp\cc6sEv7h.s 			page 46


 1418 0042 9942     		cmp	r1, r3
 1419 0044 01D1     		bne	.L61
 633:..\..\u8g2\csrc/u8g2_font.c ****       }
 1420              		.loc 1 633 0
 1421 0046 0330     		adds	r0, r0, #3
 1422              	.LVL218:
 1423 0048 05E0     		b	.L58
 1424              	.LVL219:
 1425              	.L61:
 635:..\..\u8g2\csrc/u8g2_font.c ****     }  
 1426              		.loc 1 635 0
 1427 004a 8378     		ldrb	r3, [r0, #2]
 1428              	.LVL220:
 1429 004c C018     		adds	r0, r0, r3
 1430              	.LVL221:
 636:..\..\u8g2\csrc/u8g2_font.c ****   }
 1431              		.loc 1 636 0
 1432 004e F3E7     		b	.L62
 1433              	.LVL222:
 1434              	.L63:
 1435              	.LBE4:
 640:..\..\u8g2\csrc/u8g2_font.c **** }
 1436              		.loc 1 640 0
 1437 0050 0020     		movs	r0, #0
 1438 0052 00E0     		b	.L58
 1439              	.LVL223:
 1440              	.L64:
 1441 0054 0020     		movs	r0, #0
 1442              	.LVL224:
 1443              	.L58:
 641:..\..\u8g2\csrc/u8g2_font.c **** 
 1444              		.loc 1 641 0
 1445              		@ sp needed
 1446 0056 7047     		bx	lr
 1447              		.cfi_endproc
 1448              	.LFE16:
 1449              		.size	u8g2_font_get_glyph_data, .-u8g2_font_get_glyph_data
 1450              		.section	.text.u8g2_font_draw_glyph,"ax",%progbits
 1451              		.align	2
 1452              		.code	16
 1453              		.thumb_func
 1454              		.type	u8g2_font_draw_glyph, %function
 1455              	u8g2_font_draw_glyph:
 1456              	.LFB17:
 644:..\..\u8g2\csrc/u8g2_font.c ****   u8g2_uint_t dx = 0;
 1457              		.loc 1 644 0
 1458              		.cfi_startproc
 1459              		@ args = 0, pretend = 0, frame = 0
 1460              		@ frame_needed = 0, uses_anonymous_args = 0
 1461              	.LVL225:
 1462 0000 10B5     		push	{r4, lr}
 1463              		.cfi_def_cfa_offset 8
 1464              		.cfi_offset 4, -8
 1465              		.cfi_offset 14, -4
 1466 0002 0400     		movs	r4, r0
 1467              	.LVL226:
 646:..\..\u8g2\csrc/u8g2_font.c ****   u8g2->font_decode.target_y = y;
ARM GAS  C:\Users\arh\AppData\Local\Temp\cc6sEv7h.s 			page 47


 1468              		.loc 1 646 0
 1469 0004 5420     		movs	r0, #84
 1470              	.LVL227:
 1471 0006 2154     		strb	r1, [r4, r0]
 647:..\..\u8g2\csrc/u8g2_font.c ****   //u8g2->font_decode.is_transparent = is_transparent; this is already set
 1472              		.loc 1 647 0
 1473 0008 5521     		movs	r1, #85
 1474              	.LVL228:
 1475 000a 6254     		strb	r2, [r4, r1]
 650:..\..\u8g2\csrc/u8g2_font.c ****   if ( glyph_data != NULL )
 1476              		.loc 1 650 0
 1477 000c 1900     		movs	r1, r3
 1478 000e 2000     		movs	r0, r4
 1479              	.LVL229:
 1480 0010 FFF7FEFF 		bl	u8g2_font_get_glyph_data
 1481              	.LVL230:
 651:..\..\u8g2\csrc/u8g2_font.c ****   {
 1482              		.loc 1 651 0
 1483 0014 0028     		cmp	r0, #0
 1484 0016 05D0     		beq	.L67
 653:..\..\u8g2\csrc/u8g2_font.c ****   }
 1485              		.loc 1 653 0
 1486 0018 0100     		movs	r1, r0
 1487 001a 2000     		movs	r0, r4
 1488              	.LVL231:
 1489 001c FFF7FEFF 		bl	u8g2_font_decode_glyph
 1490              	.LVL232:
 1491 0020 C0B2     		uxtb	r0, r0
 1492              	.LVL233:
 1493 0022 00E0     		b	.L66
 1494              	.LVL234:
 1495              	.L67:
 645:..\..\u8g2\csrc/u8g2_font.c ****   u8g2->font_decode.target_x = x;
 1496              		.loc 1 645 0
 1497 0024 0020     		movs	r0, #0
 1498              	.LVL235:
 1499              	.L66:
 656:..\..\u8g2\csrc/u8g2_font.c **** 
 1500              		.loc 1 656 0
 1501              		@ sp needed
 1502              	.LVL236:
 1503 0026 10BD     		pop	{r4, pc}
 1504              		.cfi_endproc
 1505              	.LFE17:
 1506              		.size	u8g2_font_draw_glyph, .-u8g2_font_draw_glyph
 1507              		.section	.text.u8g2_GetGlyphHorizontalProperties,"ax",%progbits
 1508              		.align	2
 1509              		.code	16
 1510              		.thumb_func
 1511              		.type	u8g2_GetGlyphHorizontalProperties, %function
 1512              	u8g2_GetGlyphHorizontalProperties:
 1513              	.LFB41:
 978:..\..\u8g2\csrc/u8g2_font.c **** 
 979:..\..\u8g2\csrc/u8g2_font.c **** void u8g2_SetFontPosCenter(u8g2_t *u8g2)
 980:..\..\u8g2\csrc/u8g2_font.c **** {
 981:..\..\u8g2\csrc/u8g2_font.c ****   u8g2->font_calc_vref = u8g2_font_calc_vref_center;
 982:..\..\u8g2\csrc/u8g2_font.c **** }
ARM GAS  C:\Users\arh\AppData\Local\Temp\cc6sEv7h.s 			page 48


 983:..\..\u8g2\csrc/u8g2_font.c **** 
 984:..\..\u8g2\csrc/u8g2_font.c **** /*===============================================*/
 985:..\..\u8g2\csrc/u8g2_font.c **** 
 986:..\..\u8g2\csrc/u8g2_font.c **** void u8g2_SetFont(u8g2_t *u8g2, const uint8_t  *font)
 987:..\..\u8g2\csrc/u8g2_font.c **** {
 988:..\..\u8g2\csrc/u8g2_font.c ****   if ( u8g2->font != font )
 989:..\..\u8g2\csrc/u8g2_font.c ****   {
 990:..\..\u8g2\csrc/u8g2_font.c ****     u8g2->font = font;
 991:..\..\u8g2\csrc/u8g2_font.c ****     u8g2_read_font_info(&(u8g2->font_info), font);
 992:..\..\u8g2\csrc/u8g2_font.c ****     u8g2_UpdateRefHeight(u8g2);
 993:..\..\u8g2\csrc/u8g2_font.c ****     /* u8g2_SetFontPosBaseline(u8g2); */ /* removed with issue 195 */
 994:..\..\u8g2\csrc/u8g2_font.c ****   }
 995:..\..\u8g2\csrc/u8g2_font.c **** }
 996:..\..\u8g2\csrc/u8g2_font.c **** 
 997:..\..\u8g2\csrc/u8g2_font.c **** /*===============================================*/
 998:..\..\u8g2\csrc/u8g2_font.c **** 
 999:..\..\u8g2\csrc/u8g2_font.c **** /* string calculation is stilll not 100% perfect as it addes the initial string offset to the overa
1000:..\..\u8g2\csrc/u8g2_font.c **** static u8g2_uint_t u8g2_string_width(u8g2_t *u8g2, const char *str) U8G2_NOINLINE;
1001:..\..\u8g2\csrc/u8g2_font.c **** static u8g2_uint_t u8g2_string_width(u8g2_t *u8g2, const char *str)
1002:..\..\u8g2\csrc/u8g2_font.c **** {
1003:..\..\u8g2\csrc/u8g2_font.c ****   uint16_t e;
1004:..\..\u8g2\csrc/u8g2_font.c ****   u8g2_uint_t  w, dx;
1005:..\..\u8g2\csrc/u8g2_font.c ****   
1006:..\..\u8g2\csrc/u8g2_font.c ****   u8g2->font_decode.glyph_width = 0;
1007:..\..\u8g2\csrc/u8g2_font.c ****   u8x8_utf8_init(u8g2_GetU8x8(u8g2));
1008:..\..\u8g2\csrc/u8g2_font.c ****   
1009:..\..\u8g2\csrc/u8g2_font.c ****   /* reset the total width to zero, this will be expanded during calculation */
1010:..\..\u8g2\csrc/u8g2_font.c ****   w = 0;
1011:..\..\u8g2\csrc/u8g2_font.c ****   dx = 0;
1012:..\..\u8g2\csrc/u8g2_font.c **** 
1013:..\..\u8g2\csrc/u8g2_font.c ****   // printf("str=<%s>\n", str);
1014:..\..\u8g2\csrc/u8g2_font.c **** 	
1015:..\..\u8g2\csrc/u8g2_font.c ****   for(;;)
1016:..\..\u8g2\csrc/u8g2_font.c ****   {
1017:..\..\u8g2\csrc/u8g2_font.c ****     e = u8g2->u8x8.next_cb(u8g2_GetU8x8(u8g2), (uint8_t)*str);
1018:..\..\u8g2\csrc/u8g2_font.c ****     if ( e == 0x0ffff )
1019:..\..\u8g2\csrc/u8g2_font.c ****       break;
1020:..\..\u8g2\csrc/u8g2_font.c ****     str++;
1021:..\..\u8g2\csrc/u8g2_font.c ****     if ( e != 0x0fffe )
1022:..\..\u8g2\csrc/u8g2_font.c ****     {
1023:..\..\u8g2\csrc/u8g2_font.c ****       dx = u8g2_GetGlyphWidth(u8g2, e);		/* delta x value of the glyph */
1024:..\..\u8g2\csrc/u8g2_font.c ****       w += dx;
1025:..\..\u8g2\csrc/u8g2_font.c ****     }
1026:..\..\u8g2\csrc/u8g2_font.c ****   }
1027:..\..\u8g2\csrc/u8g2_font.c ****   
1028:..\..\u8g2\csrc/u8g2_font.c ****   /* adjust the last glyph, check for issue #16: do not adjust if width is 0 */
1029:..\..\u8g2\csrc/u8g2_font.c ****   if ( u8g2->font_decode.glyph_width != 0 )
1030:..\..\u8g2\csrc/u8g2_font.c ****   {
1031:..\..\u8g2\csrc/u8g2_font.c ****     w -= dx;
1032:..\..\u8g2\csrc/u8g2_font.c ****     w += u8g2->font_decode.glyph_width;  /* the real pixel width of the glyph, sideeffect of GetGly
1033:..\..\u8g2\csrc/u8g2_font.c ****     /* issue #46: we have to add the x offset also */
1034:..\..\u8g2\csrc/u8g2_font.c ****     w += u8g2->glyph_x_offset;	/* this value is set as a side effect of u8g2_GetGlyphWidth() */
1035:..\..\u8g2\csrc/u8g2_font.c ****   }
1036:..\..\u8g2\csrc/u8g2_font.c ****   // printf("w=%d \n", w);
1037:..\..\u8g2\csrc/u8g2_font.c ****   
1038:..\..\u8g2\csrc/u8g2_font.c ****   return w;  
1039:..\..\u8g2\csrc/u8g2_font.c **** }
ARM GAS  C:\Users\arh\AppData\Local\Temp\cc6sEv7h.s 			page 49


1040:..\..\u8g2\csrc/u8g2_font.c **** 
1041:..\..\u8g2\csrc/u8g2_font.c **** static void u8g2_GetGlyphHorizontalProperties(u8g2_t *u8g2, uint16_t requested_encoding, uint8_t *w
1042:..\..\u8g2\csrc/u8g2_font.c **** {
 1514              		.loc 1 1042 0
 1515              		.cfi_startproc
 1516              		@ args = 4, pretend = 0, frame = 0
 1517              		@ frame_needed = 0, uses_anonymous_args = 0
 1518              	.LVL237:
 1519 0000 70B5     		push	{r4, r5, r6, lr}
 1520              		.cfi_def_cfa_offset 16
 1521              		.cfi_offset 4, -16
 1522              		.cfi_offset 5, -12
 1523              		.cfi_offset 6, -8
 1524              		.cfi_offset 14, -4
 1525 0002 0400     		movs	r4, r0
 1526 0004 1500     		movs	r5, r2
 1527 0006 1E00     		movs	r6, r3
1043:..\..\u8g2\csrc/u8g2_font.c ****   const uint8_t *glyph_data = u8g2_font_get_glyph_data(u8g2, requested_encoding);
 1528              		.loc 1 1043 0
 1529 0008 FFF7FEFF 		bl	u8g2_font_get_glyph_data
 1530              	.LVL238:
1044:..\..\u8g2\csrc/u8g2_font.c ****   if ( glyph_data == NULL )
 1531              		.loc 1 1044 0
 1532 000c 0028     		cmp	r0, #0
 1533 000e 1AD0     		beq	.L68
1045:..\..\u8g2\csrc/u8g2_font.c ****     return; 
1046:..\..\u8g2\csrc/u8g2_font.c ****   
1047:..\..\u8g2\csrc/u8g2_font.c ****   u8g2_font_setup_decode(u8g2, glyph_data);
 1534              		.loc 1 1047 0
 1535 0010 0100     		movs	r1, r0
 1536 0012 2000     		movs	r0, r4
 1537              	.LVL239:
 1538 0014 FFF7FEFF 		bl	u8g2_font_setup_decode
 1539              	.LVL240:
1048:..\..\u8g2\csrc/u8g2_font.c ****   *w = u8g2->font_decode.glyph_width;
 1540              		.loc 1 1048 0
 1541 0018 5823     		movs	r3, #88
 1542 001a E356     		ldrsb	r3, [r4, r3]
 1543 001c 2B70     		strb	r3, [r5]
1049:..\..\u8g2\csrc/u8g2_font.c ****   *ox =  u8g2_font_decode_get_signed_bits(&(u8g2->font_decode), u8g2->font_info.bits_per_char_x);
 1544              		.loc 1 1049 0
 1545 001e 2500     		movs	r5, r4
 1546              	.LVL241:
 1547 0020 5035     		adds	r5, r5, #80
 1548 0022 6623     		movs	r3, #102
 1549 0024 E15C     		ldrb	r1, [r4, r3]
 1550 0026 2800     		movs	r0, r5
 1551 0028 FFF7FEFF 		bl	u8g2_font_decode_get_signed_bits
 1552              	.LVL242:
 1553 002c 3070     		strb	r0, [r6]
1050:..\..\u8g2\csrc/u8g2_font.c ****   u8g2_font_decode_get_signed_bits(&(u8g2->font_decode), u8g2->font_info.bits_per_char_y);
 1554              		.loc 1 1050 0
 1555 002e 6723     		movs	r3, #103
 1556 0030 E15C     		ldrb	r1, [r4, r3]
 1557 0032 2800     		movs	r0, r5
 1558 0034 FFF7FEFF 		bl	u8g2_font_decode_get_signed_bits
 1559              	.LVL243:
ARM GAS  C:\Users\arh\AppData\Local\Temp\cc6sEv7h.s 			page 50


1051:..\..\u8g2\csrc/u8g2_font.c ****   *dx = u8g2_font_decode_get_signed_bits(&(u8g2->font_decode), u8g2->font_info.bits_per_delta_x);
 1560              		.loc 1 1051 0
 1561 0038 6823     		movs	r3, #104
 1562 003a E15C     		ldrb	r1, [r4, r3]
 1563 003c 2800     		movs	r0, r5
 1564 003e FFF7FEFF 		bl	u8g2_font_decode_get_signed_bits
 1565              	.LVL244:
 1566 0042 049B     		ldr	r3, [sp, #16]
 1567 0044 1870     		strb	r0, [r3]
 1568              	.L68:
1052:..\..\u8g2\csrc/u8g2_font.c **** }
 1569              		.loc 1 1052 0
 1570              		@ sp needed
 1571              	.LVL245:
 1572              	.LVL246:
 1573 0046 70BD     		pop	{r4, r5, r6, pc}
 1574              		.cfi_endproc
 1575              	.LFE41:
 1576              		.size	u8g2_GetGlyphHorizontalProperties, .-u8g2_GetGlyphHorizontalProperties
 1577              		.section	.text.u8g2_calculate_exact_string_width,"ax",%progbits
 1578              		.align	2
 1579              		.code	16
 1580              		.thumb_func
 1581              		.type	u8g2_calculate_exact_string_width, %function
 1582              	u8g2_calculate_exact_string_width:
 1583              	.LFB43:
1053:..\..\u8g2\csrc/u8g2_font.c **** 
1054:..\..\u8g2\csrc/u8g2_font.c **** /* u8g compatible GetStrX function */
1055:..\..\u8g2\csrc/u8g2_font.c **** int8_t u8g2_GetStrX(u8g2_t *u8g2, const char *s)
1056:..\..\u8g2\csrc/u8g2_font.c **** {
1057:..\..\u8g2\csrc/u8g2_font.c ****   uint8_t w;
1058:..\..\u8g2\csrc/u8g2_font.c ****   int8_t ox, dx;
1059:..\..\u8g2\csrc/u8g2_font.c ****   u8g2_GetGlyphHorizontalProperties(u8g2, *s, &w, &ox, &dx);
1060:..\..\u8g2\csrc/u8g2_font.c ****   return ox;
1061:..\..\u8g2\csrc/u8g2_font.c **** }
1062:..\..\u8g2\csrc/u8g2_font.c **** 
1063:..\..\u8g2\csrc/u8g2_font.c **** 
1064:..\..\u8g2\csrc/u8g2_font.c **** 
1065:..\..\u8g2\csrc/u8g2_font.c **** static u8g2_uint_t u8g2_calculate_exact_string_width(u8g2_t *u8g2, const char *str)
1066:..\..\u8g2\csrc/u8g2_font.c **** {
 1584              		.loc 1 1066 0
 1585              		.cfi_startproc
 1586              		@ args = 0, pretend = 0, frame = 8
 1587              		@ frame_needed = 0, uses_anonymous_args = 0
 1588              	.LVL247:
 1589 0000 F0B5     		push	{r4, r5, r6, r7, lr}
 1590              		.cfi_def_cfa_offset 20
 1591              		.cfi_offset 4, -20
 1592              		.cfi_offset 5, -16
 1593              		.cfi_offset 6, -12
 1594              		.cfi_offset 7, -8
 1595              		.cfi_offset 14, -4
 1596 0002 85B0     		sub	sp, sp, #20
 1597              		.cfi_def_cfa_offset 40
 1598 0004 0500     		movs	r5, r0
 1599 0006 0C00     		movs	r4, r1
 1600              	.LVL248:
ARM GAS  C:\Users\arh\AppData\Local\Temp\cc6sEv7h.s 			page 51


 1601              	.L71:
1067:..\..\u8g2\csrc/u8g2_font.c **** 
1068:..\..\u8g2\csrc/u8g2_font.c ****   u8g2_uint_t  w;
1069:..\..\u8g2\csrc/u8g2_font.c ****   uint16_t enc;
1070:..\..\u8g2\csrc/u8g2_font.c ****   uint8_t gw; 
1071:..\..\u8g2\csrc/u8g2_font.c ****   int8_t ox, dx;
1072:..\..\u8g2\csrc/u8g2_font.c ****   
1073:..\..\u8g2\csrc/u8g2_font.c ****   /* reset the total minimal width to zero, this will be expanded during calculation */
1074:..\..\u8g2\csrc/u8g2_font.c ****   w = 0;
1075:..\..\u8g2\csrc/u8g2_font.c ****     
1076:..\..\u8g2\csrc/u8g2_font.c ****   
1077:..\..\u8g2\csrc/u8g2_font.c ****   /* check for empty string, width is already 0 */
1078:..\..\u8g2\csrc/u8g2_font.c ****   do
1079:..\..\u8g2\csrc/u8g2_font.c ****   {
1080:..\..\u8g2\csrc/u8g2_font.c ****     enc = u8g2->u8x8.next_cb(u8g2_GetU8x8(u8g2), (uint8_t)*str);
 1602              		.loc 1 1080 0 discriminator 1
 1603 0008 2178     		ldrb	r1, [r4]
 1604 000a 2800     		movs	r0, r5
 1605 000c 6B68     		ldr	r3, [r5, #4]
 1606 000e 9847     		blx	r3
 1607              	.LVL249:
 1608 0010 0100     		movs	r1, r0
 1609              	.LVL250:
1081:..\..\u8g2\csrc/u8g2_font.c ****     str++;
 1610              		.loc 1 1081 0 discriminator 1
 1611 0012 0134     		adds	r4, r4, #1
 1612              	.LVL251:
1082:..\..\u8g2\csrc/u8g2_font.c ****   } while( enc == 0x0fffe );
 1613              		.loc 1 1082 0 discriminator 1
 1614 0014 214B     		ldr	r3, .L78
 1615 0016 9842     		cmp	r0, r3
 1616 0018 F6D0     		beq	.L71
1083:..\..\u8g2\csrc/u8g2_font.c ****   
1084:..\..\u8g2\csrc/u8g2_font.c ****   if ( enc== 0x0ffff )
 1617              		.loc 1 1084 0
 1618 001a 214B     		ldr	r3, .L78+4
 1619 001c 9842     		cmp	r0, r3
 1620 001e 3AD0     		beq	.L77
1085:..\..\u8g2\csrc/u8g2_font.c ****      return w;
1086:..\..\u8g2\csrc/u8g2_font.c ****   
1087:..\..\u8g2\csrc/u8g2_font.c ****   /* get the glyph information of the first char. This must be valid, because we already checked fo
1088:..\..\u8g2\csrc/u8g2_font.c ****   /* if *s is not inside the font, then the cached parameters of the glyph are all zero */
1089:..\..\u8g2\csrc/u8g2_font.c ****   u8g2_GetGlyphHorizontalProperties(u8g2, enc, &gw, &ox, &dx);  
 1621              		.loc 1 1089 0
 1622 0020 0E26     		movs	r6, #14
 1623 0022 6E44     		add	r6, r6, sp
 1624 0024 0D23     		movs	r3, #13
 1625 0026 6B44     		add	r3, r3, sp
 1626 0028 0093     		str	r3, [sp]
 1627 002a 3300     		movs	r3, r6
 1628 002c 0F22     		movs	r2, #15
 1629 002e 6A44     		add	r2, r2, sp
 1630 0030 2800     		movs	r0, r5
 1631              	.LVL252:
 1632 0032 FFF7FEFF 		bl	u8g2_GetGlyphHorizontalProperties
 1633              	.LVL253:
1090:..\..\u8g2\csrc/u8g2_font.c **** 
ARM GAS  C:\Users\arh\AppData\Local\Temp\cc6sEv7h.s 			page 52


1091:..\..\u8g2\csrc/u8g2_font.c ****   /* strlen(s) == 1:       width = width(s[0]) */
1092:..\..\u8g2\csrc/u8g2_font.c ****   /* strlen(s) == 2:       width = - offx(s[0]) + deltax(s[0]) + offx(s[1]) + width(s[1]) */
1093:..\..\u8g2\csrc/u8g2_font.c ****   /* strlen(s) == 3:       width = - offx(s[0]) + deltax(s[0]) + deltax(s[1]) + offx(s[2]) + width(
1094:..\..\u8g2\csrc/u8g2_font.c ****   
1095:..\..\u8g2\csrc/u8g2_font.c ****   /* assume that the string has size 2 or more, than start with negative offset-x */
1096:..\..\u8g2\csrc/u8g2_font.c ****   /* for string with size 1, this will be nullified after the loop */
1097:..\..\u8g2\csrc/u8g2_font.c ****   w = -ox;  
 1634              		.loc 1 1097 0
 1635 0036 3078     		ldrb	r0, [r6]
 1636 0038 4042     		rsbs	r0, r0, #0
 1637 003a C7B2     		uxtb	r7, r0
 1638              	.LVL254:
 1639              	.L73:
1098:..\..\u8g2\csrc/u8g2_font.c ****   for(;;)
1099:..\..\u8g2\csrc/u8g2_font.c ****   {
1100:..\..\u8g2\csrc/u8g2_font.c ****     
1101:..\..\u8g2\csrc/u8g2_font.c ****     /* check and stop if the end of the string is reached */
1102:..\..\u8g2\csrc/u8g2_font.c ****     do
1103:..\..\u8g2\csrc/u8g2_font.c ****     {
1104:..\..\u8g2\csrc/u8g2_font.c ****       enc = u8g2->u8x8.next_cb(u8g2_GetU8x8(u8g2), (uint8_t)*str);
 1640              		.loc 1 1104 0 discriminator 1
 1641 003c 2178     		ldrb	r1, [r4]
 1642 003e 2800     		movs	r0, r5
 1643 0040 6B68     		ldr	r3, [r5, #4]
 1644 0042 9847     		blx	r3
 1645              	.LVL255:
1105:..\..\u8g2\csrc/u8g2_font.c ****       str++;
 1646              		.loc 1 1105 0 discriminator 1
 1647 0044 0134     		adds	r4, r4, #1
 1648              	.LVL256:
1106:..\..\u8g2\csrc/u8g2_font.c ****     } while( enc == 0x0fffe );
 1649              		.loc 1 1106 0 discriminator 1
 1650 0046 154A     		ldr	r2, .L78
 1651 0048 9042     		cmp	r0, r2
 1652 004a F7D0     		beq	.L73
1107:..\..\u8g2\csrc/u8g2_font.c ****     if ( enc== 0x0ffff )
 1653              		.loc 1 1107 0
 1654 004c 144A     		ldr	r2, .L78+4
 1655 004e 9042     		cmp	r0, r2
 1656 0050 0ED0     		beq	.L75
1108:..\..\u8g2\csrc/u8g2_font.c ****       break;
1109:..\..\u8g2\csrc/u8g2_font.c **** 
1110:..\..\u8g2\csrc/u8g2_font.c ****     u8g2_GetGlyphHorizontalProperties(u8g2, enc, &gw, &ox, &dx);  
 1657              		.loc 1 1110 0
 1658 0052 0D26     		movs	r6, #13
 1659 0054 6E44     		add	r6, r6, sp
 1660 0056 0096     		str	r6, [sp]
 1661 0058 0E23     		movs	r3, #14
 1662 005a 6B44     		add	r3, r3, sp
 1663 005c 0F22     		movs	r2, #15
 1664 005e 6A44     		add	r2, r2, sp
 1665 0060 0100     		movs	r1, r0
 1666 0062 2800     		movs	r0, r5
 1667              	.LVL257:
 1668 0064 FFF7FEFF 		bl	u8g2_GetGlyphHorizontalProperties
 1669              	.LVL258:
1111:..\..\u8g2\csrc/u8g2_font.c ****     
ARM GAS  C:\Users\arh\AppData\Local\Temp\cc6sEv7h.s 			page 53


1112:..\..\u8g2\csrc/u8g2_font.c ****     /* if there are still more characters, add the delta to the next glyph */
1113:..\..\u8g2\csrc/u8g2_font.c ****     w += dx;    
 1670              		.loc 1 1113 0
 1671 0068 3078     		ldrb	r0, [r6]
 1672 006a 3818     		adds	r0, r7, r0
 1673 006c C7B2     		uxtb	r7, r0
 1674              	.LVL259:
1114:..\..\u8g2\csrc/u8g2_font.c ****   }
 1675              		.loc 1 1114 0
 1676 006e E5E7     		b	.L73
 1677              	.LVL260:
 1678              	.L75:
1115:..\..\u8g2\csrc/u8g2_font.c ****   
1116:..\..\u8g2\csrc/u8g2_font.c ****   /* finally calculate the width of the last char */
1117:..\..\u8g2\csrc/u8g2_font.c ****   /* here is another exception, if the last char is a black, use the dx value instead */
1118:..\..\u8g2\csrc/u8g2_font.c ****   if ( enc != ' ' )
 1679              		.loc 1 1118 0
 1680 0070 2028     		cmp	r0, #32
 1681 0072 0AD0     		beq	.L76
1119:..\..\u8g2\csrc/u8g2_font.c ****   {
1120:..\..\u8g2\csrc/u8g2_font.c ****     /* if g was not updated in the for loop (strlen() == 1), then the initial offset x gets removed
1121:..\..\u8g2\csrc/u8g2_font.c ****     w += gw;
 1682              		.loc 1 1121 0
 1683 0074 0F23     		movs	r3, #15
 1684 0076 6B44     		add	r3, r3, sp
 1685 0078 1878     		ldrb	r0, [r3]
 1686              	.LVL261:
 1687 007a 3818     		adds	r0, r7, r0
 1688 007c C0B2     		uxtb	r0, r0
 1689              	.LVL262:
1122:..\..\u8g2\csrc/u8g2_font.c ****     w += ox;
 1690              		.loc 1 1122 0
 1691 007e 0E23     		movs	r3, #14
 1692 0080 6B44     		add	r3, r3, sp
 1693 0082 1B78     		ldrb	r3, [r3]
 1694 0084 C018     		adds	r0, r0, r3
 1695              	.LVL263:
 1696 0086 C0B2     		uxtb	r0, r0
 1697              	.LVL264:
 1698 0088 06E0     		b	.L72
 1699              	.LVL265:
 1700              	.L76:
1123:..\..\u8g2\csrc/u8g2_font.c ****   }
1124:..\..\u8g2\csrc/u8g2_font.c ****   else
1125:..\..\u8g2\csrc/u8g2_font.c ****   {
1126:..\..\u8g2\csrc/u8g2_font.c ****     w += dx;
 1701              		.loc 1 1126 0
 1702 008a 0D23     		movs	r3, #13
 1703 008c 6B44     		add	r3, r3, sp
 1704 008e 1878     		ldrb	r0, [r3]
 1705              	.LVL266:
 1706 0090 3818     		adds	r0, r7, r0
 1707 0092 C0B2     		uxtb	r0, r0
 1708              	.LVL267:
 1709 0094 00E0     		b	.L72
 1710              	.LVL268:
 1711              	.L77:
ARM GAS  C:\Users\arh\AppData\Local\Temp\cc6sEv7h.s 			page 54


1085:..\..\u8g2\csrc/u8g2_font.c ****   
 1712              		.loc 1 1085 0
 1713 0096 0020     		movs	r0, #0
 1714              	.LVL269:
 1715              	.L72:
1127:..\..\u8g2\csrc/u8g2_font.c ****   }
1128:..\..\u8g2\csrc/u8g2_font.c ****   
1129:..\..\u8g2\csrc/u8g2_font.c ****   
1130:..\..\u8g2\csrc/u8g2_font.c ****   return w;
1131:..\..\u8g2\csrc/u8g2_font.c **** 	
1132:..\..\u8g2\csrc/u8g2_font.c **** }
 1716              		.loc 1 1132 0
 1717 0098 05B0     		add	sp, sp, #20
 1718              		@ sp needed
 1719              	.LVL270:
 1720              	.LVL271:
 1721 009a F0BD     		pop	{r4, r5, r6, r7, pc}
 1722              	.L79:
 1723              		.align	2
 1724              	.L78:
 1725 009c FEFF0000 		.word	65534
 1726 00a0 FFFF0000 		.word	65535
 1727              		.cfi_endproc
 1728              	.LFE43:
 1729              		.size	u8g2_calculate_exact_string_width, .-u8g2_calculate_exact_string_width
 1730              		.section	.text.u8g2_IsGlyph,"ax",%progbits
 1731              		.align	2
 1732              		.global	u8g2_IsGlyph
 1733              		.code	16
 1734              		.thumb_func
 1735              		.type	u8g2_IsGlyph, %function
 1736              	u8g2_IsGlyph:
 1737              	.LFB18:
 661:..\..\u8g2\csrc/u8g2_font.c ****   /* updated to new code */
 1738              		.loc 1 661 0
 1739              		.cfi_startproc
 1740              		@ args = 0, pretend = 0, frame = 0
 1741              		@ frame_needed = 0, uses_anonymous_args = 0
 1742              	.LVL272:
 1743 0000 10B5     		push	{r4, lr}
 1744              		.cfi_def_cfa_offset 8
 1745              		.cfi_offset 4, -8
 1746              		.cfi_offset 14, -4
 663:..\..\u8g2\csrc/u8g2_font.c ****     return 1;
 1747              		.loc 1 663 0
 1748 0002 FFF7FEFF 		bl	u8g2_font_get_glyph_data
 1749              	.LVL273:
 1750 0006 0028     		cmp	r0, #0
 1751 0008 01D0     		beq	.L82
 664:..\..\u8g2\csrc/u8g2_font.c ****   return 0;
 1752              		.loc 1 664 0
 1753 000a 0120     		movs	r0, #1
 1754 000c 00E0     		b	.L81
 1755              	.L82:
 665:..\..\u8g2\csrc/u8g2_font.c **** }
 1756              		.loc 1 665 0
 1757 000e 0020     		movs	r0, #0
ARM GAS  C:\Users\arh\AppData\Local\Temp\cc6sEv7h.s 			page 55


 1758              	.L81:
 666:..\..\u8g2\csrc/u8g2_font.c **** 
 1759              		.loc 1 666 0
 1760              		@ sp needed
 1761 0010 10BD     		pop	{r4, pc}
 1762              		.cfi_endproc
 1763              	.LFE18:
 1764              		.size	u8g2_IsGlyph, .-u8g2_IsGlyph
 1765 0012 C046     		.section	.text.u8g2_GetGlyphWidth,"ax",%progbits
 1766              		.align	2
 1767              		.global	u8g2_GetGlyphWidth
 1768              		.code	16
 1769              		.thumb_func
 1770              		.type	u8g2_GetGlyphWidth, %function
 1771              	u8g2_GetGlyphWidth:
 1772              	.LFB19:
 670:..\..\u8g2\csrc/u8g2_font.c ****   const uint8_t *glyph_data = u8g2_font_get_glyph_data(u8g2, requested_encoding);
 1773              		.loc 1 670 0
 1774              		.cfi_startproc
 1775              		@ args = 0, pretend = 0, frame = 0
 1776              		@ frame_needed = 0, uses_anonymous_args = 0
 1777              	.LVL274:
 1778 0000 70B5     		push	{r4, r5, r6, lr}
 1779              		.cfi_def_cfa_offset 16
 1780              		.cfi_offset 4, -16
 1781              		.cfi_offset 5, -12
 1782              		.cfi_offset 6, -8
 1783              		.cfi_offset 14, -4
 1784 0002 0400     		movs	r4, r0
 671:..\..\u8g2\csrc/u8g2_font.c ****   if ( glyph_data == NULL )
 1785              		.loc 1 671 0
 1786 0004 FFF7FEFF 		bl	u8g2_font_get_glyph_data
 1787              	.LVL275:
 672:..\..\u8g2\csrc/u8g2_font.c ****     return 0; 
 1788              		.loc 1 672 0
 1789 0008 0028     		cmp	r0, #0
 1790 000a 17D0     		beq	.L85
 675:..\..\u8g2\csrc/u8g2_font.c ****   u8g2->glyph_x_offset = u8g2_font_decode_get_signed_bits(&(u8g2->font_decode), u8g2->font_info.bit
 1791              		.loc 1 675 0
 1792 000c 0100     		movs	r1, r0
 1793 000e 2000     		movs	r0, r4
 1794              	.LVL276:
 1795 0010 FFF7FEFF 		bl	u8g2_font_setup_decode
 1796              	.LVL277:
 676:..\..\u8g2\csrc/u8g2_font.c ****   u8g2_font_decode_get_signed_bits(&(u8g2->font_decode), u8g2->font_info.bits_per_char_y);
 1797              		.loc 1 676 0
 1798 0014 2500     		movs	r5, r4
 1799 0016 5035     		adds	r5, r5, #80
 1800 0018 6623     		movs	r3, #102
 1801 001a E15C     		ldrb	r1, [r4, r3]
 1802 001c 2800     		movs	r0, r5
 1803 001e FFF7FEFF 		bl	u8g2_font_decode_get_signed_bits
 1804              	.LVL278:
 1805 0022 7B23     		movs	r3, #123
 1806 0024 E054     		strb	r0, [r4, r3]
 677:..\..\u8g2\csrc/u8g2_font.c ****   
 1807              		.loc 1 677 0
ARM GAS  C:\Users\arh\AppData\Local\Temp\cc6sEv7h.s 			page 56


 1808 0026 143B     		subs	r3, r3, #20
 1809 0028 E15C     		ldrb	r1, [r4, r3]
 1810 002a 2800     		movs	r0, r5
 1811 002c FFF7FEFF 		bl	u8g2_font_decode_get_signed_bits
 1812              	.LVL279:
 681:..\..\u8g2\csrc/u8g2_font.c **** }
 1813              		.loc 1 681 0
 1814 0030 6823     		movs	r3, #104
 1815 0032 E15C     		ldrb	r1, [r4, r3]
 1816 0034 2800     		movs	r0, r5
 1817 0036 FFF7FEFF 		bl	u8g2_font_decode_get_signed_bits
 1818              	.LVL280:
 1819 003a 00E0     		b	.L84
 1820              	.LVL281:
 1821              	.L85:
 673:..\..\u8g2\csrc/u8g2_font.c ****   
 1822              		.loc 1 673 0
 1823 003c 0020     		movs	r0, #0
 1824              	.LVL282:
 1825              	.L84:
 682:..\..\u8g2\csrc/u8g2_font.c **** 
 1826              		.loc 1 682 0
 1827              		@ sp needed
 1828              	.LVL283:
 1829 003e 70BD     		pop	{r4, r5, r6, pc}
 1830              		.cfi_endproc
 1831              	.LFE19:
 1832              		.size	u8g2_GetGlyphWidth, .-u8g2_GetGlyphWidth
 1833              		.section	.text.u8g2_string_width,"ax",%progbits
 1834              		.align	2
 1835              		.code	16
 1836              		.thumb_func
 1837              		.type	u8g2_string_width, %function
 1838              	u8g2_string_width:
 1839              	.LFB40:
1002:..\..\u8g2\csrc/u8g2_font.c ****   uint16_t e;
 1840              		.loc 1 1002 0
 1841              		.cfi_startproc
 1842              		@ args = 0, pretend = 0, frame = 0
 1843              		@ frame_needed = 0, uses_anonymous_args = 0
 1844              	.LVL284:
 1845 0000 F8B5     		push	{r3, r4, r5, r6, r7, lr}
 1846              		.cfi_def_cfa_offset 24
 1847              		.cfi_offset 3, -24
 1848              		.cfi_offset 4, -20
 1849              		.cfi_offset 5, -16
 1850              		.cfi_offset 6, -12
 1851              		.cfi_offset 7, -8
 1852              		.cfi_offset 14, -4
 1853 0002 0500     		movs	r5, r0
 1854 0004 0C00     		movs	r4, r1
1006:..\..\u8g2\csrc/u8g2_font.c ****   u8x8_utf8_init(u8g2_GetU8x8(u8g2));
 1855              		.loc 1 1006 0
 1856 0006 0022     		movs	r2, #0
 1857 0008 5823     		movs	r3, #88
 1858 000a C254     		strb	r2, [r0, r3]
1007:..\..\u8g2\csrc/u8g2_font.c ****   
ARM GAS  C:\Users\arh\AppData\Local\Temp\cc6sEv7h.s 			page 57


 1859              		.loc 1 1007 0
 1860 000c FFF7FEFF 		bl	u8x8_utf8_init
 1861              	.LVL285:
1011:..\..\u8g2\csrc/u8g2_font.c **** 
 1862              		.loc 1 1011 0
 1863 0010 0027     		movs	r7, #0
1010:..\..\u8g2\csrc/u8g2_font.c ****   dx = 0;
 1864              		.loc 1 1010 0
 1865 0012 0026     		movs	r6, #0
 1866              	.LVL286:
 1867              	.L87:
1017:..\..\u8g2\csrc/u8g2_font.c ****     if ( e == 0x0ffff )
 1868              		.loc 1 1017 0
 1869 0014 2178     		ldrb	r1, [r4]
 1870 0016 2800     		movs	r0, r5
 1871 0018 6B68     		ldr	r3, [r5, #4]
 1872 001a 9847     		blx	r3
 1873              	.LVL287:
1018:..\..\u8g2\csrc/u8g2_font.c ****       break;
 1874              		.loc 1 1018 0
 1875 001c 0E4A     		ldr	r2, .L91
 1876 001e 9042     		cmp	r0, r2
 1877 0020 0BD0     		beq	.L88
1020:..\..\u8g2\csrc/u8g2_font.c ****     if ( e != 0x0fffe )
 1878              		.loc 1 1020 0
 1879 0022 0134     		adds	r4, r4, #1
 1880              	.LVL288:
1021:..\..\u8g2\csrc/u8g2_font.c ****     {
 1881              		.loc 1 1021 0
 1882 0024 0D4A     		ldr	r2, .L91+4
 1883 0026 9042     		cmp	r0, r2
 1884 0028 F4D0     		beq	.L87
1023:..\..\u8g2\csrc/u8g2_font.c ****       w += dx;
 1885              		.loc 1 1023 0
 1886 002a 0100     		movs	r1, r0
 1887 002c 2800     		movs	r0, r5
 1888              	.LVL289:
 1889 002e FFF7FEFF 		bl	u8g2_GetGlyphWidth
 1890              	.LVL290:
 1891 0032 C7B2     		uxtb	r7, r0
 1892              	.LVL291:
1024:..\..\u8g2\csrc/u8g2_font.c ****     }
 1893              		.loc 1 1024 0
 1894 0034 F619     		adds	r6, r6, r7
 1895              	.LVL292:
 1896 0036 F6B2     		uxtb	r6, r6
 1897              	.LVL293:
 1898 0038 ECE7     		b	.L87
 1899              	.LVL294:
 1900              	.L88:
1029:..\..\u8g2\csrc/u8g2_font.c ****   {
 1901              		.loc 1 1029 0
 1902 003a 5823     		movs	r3, #88
 1903 003c EB56     		ldrsb	r3, [r5, r3]
 1904 003e 002B     		cmp	r3, #0
 1905 0040 07D0     		beq	.L90
1031:..\..\u8g2\csrc/u8g2_font.c ****     w += u8g2->font_decode.glyph_width;  /* the real pixel width of the glyph, sideeffect of GetGly
ARM GAS  C:\Users\arh\AppData\Local\Temp\cc6sEv7h.s 			page 58


 1906              		.loc 1 1031 0
 1907 0042 F01B     		subs	r0, r6, r7
 1908              	.LVL295:
 1909 0044 C6B2     		uxtb	r6, r0
 1910              	.LVL296:
1032:..\..\u8g2\csrc/u8g2_font.c ****     /* issue #46: we have to add the x offset also */
 1911              		.loc 1 1032 0
 1912 0046 F618     		adds	r6, r6, r3
 1913              	.LVL297:
 1914 0048 F6B2     		uxtb	r6, r6
 1915              	.LVL298:
1034:..\..\u8g2\csrc/u8g2_font.c ****   }
 1916              		.loc 1 1034 0
 1917 004a 7B23     		movs	r3, #123
 1918 004c EB56     		ldrsb	r3, [r5, r3]
 1919 004e F618     		adds	r6, r6, r3
 1920              	.LVL299:
 1921 0050 F6B2     		uxtb	r6, r6
 1922              	.LVL300:
 1923              	.L90:
1039:..\..\u8g2\csrc/u8g2_font.c **** 
 1924              		.loc 1 1039 0
 1925 0052 3000     		movs	r0, r6
 1926              		@ sp needed
 1927              	.LVL301:
 1928              	.LVL302:
 1929              	.LVL303:
 1930              	.LVL304:
 1931 0054 F8BD     		pop	{r3, r4, r5, r6, r7, pc}
 1932              	.L92:
 1933 0056 C046     		.align	2
 1934              	.L91:
 1935 0058 FFFF0000 		.word	65535
 1936 005c FEFF0000 		.word	65534
 1937              		.cfi_endproc
 1938              	.LFE40:
 1939              		.size	u8g2_string_width, .-u8g2_string_width
 1940              		.section	.text.u8g2_SetFontMode,"ax",%progbits
 1941              		.align	2
 1942              		.global	u8g2_SetFontMode
 1943              		.code	16
 1944              		.thumb_func
 1945              		.type	u8g2_SetFontMode, %function
 1946              	u8g2_SetFontMode:
 1947              	.LFB20:
 693:..\..\u8g2\csrc/u8g2_font.c ****   u8g2->font_decode.is_transparent = is_transparent;		// new font procedures
 1948              		.loc 1 693 0
 1949              		.cfi_startproc
 1950              		@ args = 0, pretend = 0, frame = 0
 1951              		@ frame_needed = 0, uses_anonymous_args = 0
 1952              		@ link register save eliminated.
 1953              	.LVL305:
 694:..\..\u8g2\csrc/u8g2_font.c **** }
 1954              		.loc 1 694 0
 1955 0000 5B23     		movs	r3, #91
 1956 0002 C154     		strb	r1, [r0, r3]
 695:..\..\u8g2\csrc/u8g2_font.c **** 
ARM GAS  C:\Users\arh\AppData\Local\Temp\cc6sEv7h.s 			page 59


 1957              		.loc 1 695 0
 1958              		@ sp needed
 1959 0004 7047     		bx	lr
 1960              		.cfi_endproc
 1961              	.LFE20:
 1962              		.size	u8g2_SetFontMode, .-u8g2_SetFontMode
 1963 0006 C046     		.section	.text.u8g2_DrawGlyph,"ax",%progbits
 1964              		.align	2
 1965              		.global	u8g2_DrawGlyph
 1966              		.code	16
 1967              		.thumb_func
 1968              		.type	u8g2_DrawGlyph, %function
 1969              	u8g2_DrawGlyph:
 1970              	.LFB21:
 698:..\..\u8g2\csrc/u8g2_font.c **** #ifdef U8G2_WITH_FONT_ROTATION
 1971              		.loc 1 698 0
 1972              		.cfi_startproc
 1973              		@ args = 0, pretend = 0, frame = 0
 1974              		@ frame_needed = 0, uses_anonymous_args = 0
 1975              	.LVL306:
 1976 0000 F8B5     		push	{r3, r4, r5, r6, r7, lr}
 1977              		.cfi_def_cfa_offset 24
 1978              		.cfi_offset 3, -24
 1979              		.cfi_offset 4, -20
 1980              		.cfi_offset 5, -16
 1981              		.cfi_offset 6, -12
 1982              		.cfi_offset 7, -8
 1983              		.cfi_offset 14, -4
 1984 0002 0400     		movs	r4, r0
 1985 0004 0D00     		movs	r5, r1
 1986 0006 1600     		movs	r6, r2
 1987 0008 1F00     		movs	r7, r3
 700:..\..\u8g2\csrc/u8g2_font.c ****   {
 1988              		.loc 1 700 0
 1989 000a 5E23     		movs	r3, #94
 1990              	.LVL307:
 1991 000c C35C     		ldrb	r3, [r0, r3]
 1992 000e 012B     		cmp	r3, #1
 1993 0010 0BD0     		beq	.L96
 1994 0012 002B     		cmp	r3, #0
 1995 0014 04D0     		beq	.L97
 1996 0016 022B     		cmp	r3, #2
 1997 0018 0CD0     		beq	.L98
 1998 001a 032B     		cmp	r3, #3
 1999 001c 0FD0     		beq	.L99
 2000 001e 12E0     		b	.L95
 2001              	.L97:
 703:..\..\u8g2\csrc/u8g2_font.c ****       break;
 2002              		.loc 1 703 0
 2003 0020 C36C     		ldr	r3, [r0, #76]
 2004 0022 9847     		blx	r3
 2005              	.LVL308:
 2006 0024 3618     		adds	r6, r6, r0
 2007 0026 F6B2     		uxtb	r6, r6
 2008              	.LVL309:
 704:..\..\u8g2\csrc/u8g2_font.c ****     case 1:
 2009              		.loc 1 704 0
ARM GAS  C:\Users\arh\AppData\Local\Temp\cc6sEv7h.s 			page 60


 2010 0028 0DE0     		b	.L95
 2011              	.LVL310:
 2012              	.L96:
 706:..\..\u8g2\csrc/u8g2_font.c ****       break;
 2013              		.loc 1 706 0
 2014 002a C36C     		ldr	r3, [r0, #76]
 2015 002c 9847     		blx	r3
 2016              	.LVL311:
 2017 002e 2D1A     		subs	r5, r5, r0
 2018 0030 EDB2     		uxtb	r5, r5
 2019              	.LVL312:
 707:..\..\u8g2\csrc/u8g2_font.c ****     case 2:
 2020              		.loc 1 707 0
 2021 0032 08E0     		b	.L95
 2022              	.LVL313:
 2023              	.L98:
 709:..\..\u8g2\csrc/u8g2_font.c ****       break;
 2024              		.loc 1 709 0
 2025 0034 C36C     		ldr	r3, [r0, #76]
 2026 0036 9847     		blx	r3
 2027              	.LVL314:
 2028 0038 361A     		subs	r6, r6, r0
 2029 003a F6B2     		uxtb	r6, r6
 2030              	.LVL315:
 710:..\..\u8g2\csrc/u8g2_font.c ****     case 3:
 2031              		.loc 1 710 0
 2032 003c 03E0     		b	.L95
 2033              	.LVL316:
 2034              	.L99:
 712:..\..\u8g2\csrc/u8g2_font.c ****       break;
 2035              		.loc 1 712 0
 2036 003e C36C     		ldr	r3, [r0, #76]
 2037 0040 9847     		blx	r3
 2038              	.LVL317:
 2039 0042 2D18     		adds	r5, r5, r0
 2040 0044 EDB2     		uxtb	r5, r5
 2041              	.LVL318:
 2042              	.L95:
 718:..\..\u8g2\csrc/u8g2_font.c **** }
 2043              		.loc 1 718 0
 2044 0046 3B00     		movs	r3, r7
 2045 0048 3200     		movs	r2, r6
 2046 004a 2900     		movs	r1, r5
 2047 004c 2000     		movs	r0, r4
 2048 004e FFF7FEFF 		bl	u8g2_font_draw_glyph
 2049              	.LVL319:
 719:..\..\u8g2\csrc/u8g2_font.c **** 
 2050              		.loc 1 719 0
 2051              		@ sp needed
 2052              	.LVL320:
 2053              	.LVL321:
 2054              	.LVL322:
 2055 0052 F8BD     		pop	{r3, r4, r5, r6, r7, pc}
 2056              		.cfi_endproc
 2057              	.LFE21:
 2058              		.size	u8g2_DrawGlyph, .-u8g2_DrawGlyph
 2059              		.section	.text.u8g2_draw_string,"ax",%progbits
ARM GAS  C:\Users\arh\AppData\Local\Temp\cc6sEv7h.s 			page 61


 2060              		.align	2
 2061              		.code	16
 2062              		.thumb_func
 2063              		.type	u8g2_draw_string, %function
 2064              	u8g2_draw_string:
 2065              	.LFB22:
 723:..\..\u8g2\csrc/u8g2_font.c ****   uint16_t e;
 2066              		.loc 1 723 0
 2067              		.cfi_startproc
 2068              		@ args = 0, pretend = 0, frame = 0
 2069              		@ frame_needed = 0, uses_anonymous_args = 0
 2070              	.LVL323:
 2071 0000 F0B5     		push	{r4, r5, r6, r7, lr}
 2072              		.cfi_def_cfa_offset 20
 2073              		.cfi_offset 4, -20
 2074              		.cfi_offset 5, -16
 2075              		.cfi_offset 6, -12
 2076              		.cfi_offset 7, -8
 2077              		.cfi_offset 14, -4
 2078 0002 4746     		mov	r7, r8
 2079 0004 80B4     		push	{r7}
 2080              		.cfi_def_cfa_offset 24
 2081              		.cfi_offset 8, -24
 2082 0006 0400     		movs	r4, r0
 2083 0008 0F00     		movs	r7, r1
 2084 000a 1600     		movs	r6, r2
 2085 000c 1D00     		movs	r5, r3
 726:..\..\u8g2\csrc/u8g2_font.c ****   sum = 0;
 2086              		.loc 1 726 0
 2087 000e FFF7FEFF 		bl	u8x8_utf8_init
 2088              	.LVL324:
 727:..\..\u8g2\csrc/u8g2_font.c ****   for(;;)
 2089              		.loc 1 727 0
 2090 0012 0023     		movs	r3, #0
 2091 0014 9846     		mov	r8, r3
 2092              	.LVL325:
 2093              	.L101:
 730:..\..\u8g2\csrc/u8g2_font.c ****     if ( e == 0x0ffff )
 2094              		.loc 1 730 0
 2095 0016 2978     		ldrb	r1, [r5]
 2096 0018 2000     		movs	r0, r4
 2097 001a 6368     		ldr	r3, [r4, #4]
 2098 001c 9847     		blx	r3
 2099              	.LVL326:
 731:..\..\u8g2\csrc/u8g2_font.c ****       break;
 2100              		.loc 1 731 0
 2101 001e 154B     		ldr	r3, .L109
 2102 0020 9842     		cmp	r0, r3
 2103 0022 23D0     		beq	.L102
 733:..\..\u8g2\csrc/u8g2_font.c ****     if ( e != 0x0fffe )
 2104              		.loc 1 733 0
 2105 0024 0135     		adds	r5, r5, #1
 2106              	.LVL327:
 734:..\..\u8g2\csrc/u8g2_font.c ****     {
 2107              		.loc 1 734 0
 2108 0026 144B     		ldr	r3, .L109+4
 2109 0028 9842     		cmp	r0, r3
ARM GAS  C:\Users\arh\AppData\Local\Temp\cc6sEv7h.s 			page 62


 2110 002a F4D0     		beq	.L101
 736:..\..\u8g2\csrc/u8g2_font.c ****     
 2111              		.loc 1 736 0
 2112 002c 0300     		movs	r3, r0
 2113 002e 3200     		movs	r2, r6
 2114 0030 3900     		movs	r1, r7
 2115 0032 2000     		movs	r0, r4
 2116              	.LVL328:
 2117 0034 FFF7FEFF 		bl	u8g2_DrawGlyph
 2118              	.LVL329:
 739:..\..\u8g2\csrc/u8g2_font.c ****       {
 2119              		.loc 1 739 0
 2120 0038 5E23     		movs	r3, #94
 2121 003a E35C     		ldrb	r3, [r4, r3]
 2122 003c 012B     		cmp	r3, #1
 2123 003e 09D0     		beq	.L105
 2124 0040 002B     		cmp	r3, #0
 2125 0042 04D0     		beq	.L106
 2126 0044 022B     		cmp	r3, #2
 2127 0046 08D0     		beq	.L107
 2128 0048 032B     		cmp	r3, #3
 2129 004a 09D0     		beq	.L108
 2130 004c 0AE0     		b	.L104
 2131              	.L106:
 742:..\..\u8g2\csrc/u8g2_font.c **** 	  break;
 2132              		.loc 1 742 0
 2133 004e 3F18     		adds	r7, r7, r0
 2134              	.LVL330:
 2135 0050 FFB2     		uxtb	r7, r7
 2136              	.LVL331:
 743:..\..\u8g2\csrc/u8g2_font.c **** 	case 1:
 2137              		.loc 1 743 0
 2138 0052 07E0     		b	.L104
 2139              	.L105:
 745:..\..\u8g2\csrc/u8g2_font.c **** 	  break;
 2140              		.loc 1 745 0
 2141 0054 3618     		adds	r6, r6, r0
 2142              	.LVL332:
 2143 0056 F6B2     		uxtb	r6, r6
 2144              	.LVL333:
 746:..\..\u8g2\csrc/u8g2_font.c **** 	case 2:
 2145              		.loc 1 746 0
 2146 0058 04E0     		b	.L104
 2147              	.L107:
 748:..\..\u8g2\csrc/u8g2_font.c **** 	  break;
 2148              		.loc 1 748 0
 2149 005a 3F1A     		subs	r7, r7, r0
 2150              	.LVL334:
 2151 005c FFB2     		uxtb	r7, r7
 2152              	.LVL335:
 749:..\..\u8g2\csrc/u8g2_font.c **** 	case 3:
 2153              		.loc 1 749 0
 2154 005e 01E0     		b	.L104
 2155              	.L108:
 751:..\..\u8g2\csrc/u8g2_font.c **** 	  break;
 2156              		.loc 1 751 0
 2157 0060 361A     		subs	r6, r6, r0
ARM GAS  C:\Users\arh\AppData\Local\Temp\cc6sEv7h.s 			page 63


 2158              	.LVL336:
 2159 0062 F6B2     		uxtb	r6, r6
 2160              	.LVL337:
 2161              	.L104:
 758:..\..\u8g2\csrc/u8g2_font.c ****     }
 2162              		.loc 1 758 0
 2163 0064 4044     		add	r0, r0, r8
 2164              	.LVL338:
 2165 0066 C3B2     		uxtb	r3, r0
 2166 0068 9846     		mov	r8, r3
 2167              	.LVL339:
 2168 006a D4E7     		b	.L101
 2169              	.LVL340:
 2170              	.L102:
 762:..\..\u8g2\csrc/u8g2_font.c **** 
 2171              		.loc 1 762 0
 2172 006c 4046     		mov	r0, r8
 2173              	.LVL341:
 2174              		@ sp needed
 2175              	.LVL342:
 2176              	.LVL343:
 2177              	.LVL344:
 2178              	.LVL345:
 2179              	.LVL346:
 2180 006e 04BC     		pop	{r2}
 2181 0070 9046     		mov	r8, r2
 2182 0072 F0BD     		pop	{r4, r5, r6, r7, pc}
 2183              	.L110:
 2184              		.align	2
 2185              	.L109:
 2186 0074 FFFF0000 		.word	65535
 2187 0078 FEFF0000 		.word	65534
 2188              		.cfi_endproc
 2189              	.LFE22:
 2190              		.size	u8g2_draw_string, .-u8g2_draw_string
 2191              		.section	.text.u8g2_DrawStr,"ax",%progbits
 2192              		.align	2
 2193              		.global	u8g2_DrawStr
 2194              		.code	16
 2195              		.thumb_func
 2196              		.type	u8g2_DrawStr, %function
 2197              	u8g2_DrawStr:
 2198              	.LFB23:
 765:..\..\u8g2\csrc/u8g2_font.c ****   u8g2->u8x8.next_cb = u8x8_ascii_next;
 2199              		.loc 1 765 0
 2200              		.cfi_startproc
 2201              		@ args = 0, pretend = 0, frame = 0
 2202              		@ frame_needed = 0, uses_anonymous_args = 0
 2203              	.LVL347:
 2204 0000 10B5     		push	{r4, lr}
 2205              		.cfi_def_cfa_offset 8
 2206              		.cfi_offset 4, -8
 2207              		.cfi_offset 14, -4
 766:..\..\u8g2\csrc/u8g2_font.c ****   return u8g2_draw_string(u8g2, x, y, str);
 2208              		.loc 1 766 0
 2209 0002 024C     		ldr	r4, .L112
 2210 0004 4460     		str	r4, [r0, #4]
ARM GAS  C:\Users\arh\AppData\Local\Temp\cc6sEv7h.s 			page 64


 767:..\..\u8g2\csrc/u8g2_font.c **** }
 2211              		.loc 1 767 0
 2212 0006 FFF7FEFF 		bl	u8g2_draw_string
 2213              	.LVL348:
 768:..\..\u8g2\csrc/u8g2_font.c **** 
 2214              		.loc 1 768 0
 2215              		@ sp needed
 2216 000a 10BD     		pop	{r4, pc}
 2217              	.L113:
 2218              		.align	2
 2219              	.L112:
 2220 000c 00000000 		.word	u8x8_ascii_next
 2221              		.cfi_endproc
 2222              	.LFE23:
 2223              		.size	u8g2_DrawStr, .-u8g2_DrawStr
 2224              		.section	.text.u8g2_DrawUTF8,"ax",%progbits
 2225              		.align	2
 2226              		.global	u8g2_DrawUTF8
 2227              		.code	16
 2228              		.thumb_func
 2229              		.type	u8g2_DrawUTF8, %function
 2230              	u8g2_DrawUTF8:
 2231              	.LFB24:
 781:..\..\u8g2\csrc/u8g2_font.c ****   u8g2->u8x8.next_cb = u8x8_utf8_next;
 2232              		.loc 1 781 0
 2233              		.cfi_startproc
 2234              		@ args = 0, pretend = 0, frame = 0
 2235              		@ frame_needed = 0, uses_anonymous_args = 0
 2236              	.LVL349:
 2237 0000 10B5     		push	{r4, lr}
 2238              		.cfi_def_cfa_offset 8
 2239              		.cfi_offset 4, -8
 2240              		.cfi_offset 14, -4
 782:..\..\u8g2\csrc/u8g2_font.c ****   return u8g2_draw_string(u8g2, x, y, str);
 2241              		.loc 1 782 0
 2242 0002 024C     		ldr	r4, .L115
 2243 0004 4460     		str	r4, [r0, #4]
 783:..\..\u8g2\csrc/u8g2_font.c **** }
 2244              		.loc 1 783 0
 2245 0006 FFF7FEFF 		bl	u8g2_draw_string
 2246              	.LVL350:
 784:..\..\u8g2\csrc/u8g2_font.c **** 
 2247              		.loc 1 784 0
 2248              		@ sp needed
 2249 000a 10BD     		pop	{r4, pc}
 2250              	.L116:
 2251              		.align	2
 2252              	.L115:
 2253 000c 00000000 		.word	u8x8_utf8_next
 2254              		.cfi_endproc
 2255              	.LFE24:
 2256              		.size	u8g2_DrawUTF8, .-u8g2_DrawUTF8
 2257              		.section	.text.u8g2_DrawExtendedUTF8,"ax",%progbits
 2258              		.align	2
 2259              		.global	u8g2_DrawExtendedUTF8
 2260              		.code	16
 2261              		.thumb_func
ARM GAS  C:\Users\arh\AppData\Local\Temp\cc6sEv7h.s 			page 65


 2262              		.type	u8g2_DrawExtendedUTF8, %function
 2263              	u8g2_DrawExtendedUTF8:
 2264              	.LFB25:
 789:..\..\u8g2\csrc/u8g2_font.c ****   u8g2->u8x8.next_cb = u8x8_utf8_next;
 2265              		.loc 1 789 0
 2266              		.cfi_startproc
 2267              		@ args = 8, pretend = 0, frame = 16
 2268              		@ frame_needed = 0, uses_anonymous_args = 0
 2269              	.LVL351:
 2270 0000 F0B5     		push	{r4, r5, r6, r7, lr}
 2271              		.cfi_def_cfa_offset 20
 2272              		.cfi_offset 4, -20
 2273              		.cfi_offset 5, -16
 2274              		.cfi_offset 6, -12
 2275              		.cfi_offset 7, -8
 2276              		.cfi_offset 14, -4
 2277 0002 5F46     		mov	r7, fp
 2278 0004 4646     		mov	r6, r8
 2279 0006 C0B4     		push	{r6, r7}
 2280              		.cfi_def_cfa_offset 28
 2281              		.cfi_offset 8, -28
 2282              		.cfi_offset 11, -24
 2283 0008 85B0     		sub	sp, sp, #20
 2284              		.cfi_def_cfa_offset 48
 2285 000a 0700     		movs	r7, r0
 2286 000c 8846     		mov	r8, r1
 2287 000e 0392     		str	r2, [sp, #12]
 2288 0010 9B46     		mov	fp, r3
 2289 0012 0D9E     		ldr	r6, [sp, #52]
 790:..\..\u8g2\csrc/u8g2_font.c ****   uint16_t e_prev = 0x0ffff;
 2290              		.loc 1 790 0
 2291 0014 264B     		ldr	r3, .L124
 2292              	.LVL352:
 2293 0016 4360     		str	r3, [r0, #4]
 2294              	.LVL353:
 794:..\..\u8g2\csrc/u8g2_font.c ****   sum = 0;
 2295              		.loc 1 794 0
 2296 0018 FFF7FEFF 		bl	u8x8_utf8_init
 2297              	.LVL354:
 795:..\..\u8g2\csrc/u8g2_font.c ****   for(;;)
 2298              		.loc 1 795 0
 2299 001c 0024     		movs	r4, #0
 791:..\..\u8g2\csrc/u8g2_font.c ****   uint16_t e;
 2300              		.loc 1 791 0
 2301 001e 254B     		ldr	r3, .L124+4
 2302 0020 0293     		str	r3, [sp, #8]
 2303              	.LVL355:
 2304              	.L118:
 798:..\..\u8g2\csrc/u8g2_font.c ****     if ( e == 0x0ffff )
 2305              		.loc 1 798 0
 2306 0022 3178     		ldrb	r1, [r6]
 2307 0024 3800     		movs	r0, r7
 2308 0026 7B68     		ldr	r3, [r7, #4]
 2309 0028 9847     		blx	r3
 2310              	.LVL356:
 2311 002a 0100     		movs	r1, r0
 2312 002c 0190     		str	r0, [sp, #4]
ARM GAS  C:\Users\arh\AppData\Local\Temp\cc6sEv7h.s 			page 66


 2313              	.LVL357:
 799:..\..\u8g2\csrc/u8g2_font.c ****       break;
 2314              		.loc 1 799 0
 2315 002e 214A     		ldr	r2, .L124+4
 2316 0030 9042     		cmp	r0, r2
 2317 0032 36D0     		beq	.L119
 801:..\..\u8g2\csrc/u8g2_font.c ****     if ( e != 0x0fffe )
 2318              		.loc 1 801 0
 2319 0034 0136     		adds	r6, r6, #1
 2320              	.LVL358:
 802:..\..\u8g2\csrc/u8g2_font.c ****     {
 2321              		.loc 1 802 0
 2322 0036 204A     		ldr	r2, .L124+8
 2323 0038 9042     		cmp	r0, r2
 2324 003a F2D0     		beq	.L118
 804:..\..\u8g2\csrc/u8g2_font.c **** 	    
 2325              		.loc 1 804 0
 2326 003c 3800     		movs	r0, r7
 2327              	.LVL359:
 2328 003e FFF7FEFF 		bl	u8g2_GetGlyphWidth
 2329              	.LVL360:
 2330 0042 C5B2     		uxtb	r5, r0
 2331              	.LVL361:
 806:..\..\u8g2\csrc/u8g2_font.c ****       {
 2332              		.loc 1 806 0
 2333 0044 5B46     		mov	r3, fp
 2334 0046 002B     		cmp	r3, #0
 2335 0048 0DD0     		beq	.L121
 808:..\..\u8g2\csrc/u8g2_font.c **** 	delta -= k;
 2336              		.loc 1 808 0
 2337 004a 029B     		ldr	r3, [sp, #8]
 2338 004c 019A     		ldr	r2, [sp, #4]
 2339 004e 0C99     		ldr	r1, [sp, #48]
 2340 0050 3800     		movs	r0, r7
 2341 0052 FFF7FEFF 		bl	u8g2_GetKerning
 2342              	.LVL362:
 2343 0056 0290     		str	r0, [sp, #8]
 2344              	.LVL363:
 809:..\..\u8g2\csrc/u8g2_font.c **** 	x -= delta;
 2345              		.loc 1 809 0
 2346 0058 2D1A     		subs	r5, r5, r0
 2347              	.LVL364:
 2348 005a EDB2     		uxtb	r5, r5
 2349              	.LVL365:
 810:..\..\u8g2\csrc/u8g2_font.c ****       }
 2350              		.loc 1 810 0
 2351 005c 4346     		mov	r3, r8
 2352 005e 5B1B     		subs	r3, r3, r5
 2353 0060 DBB2     		uxtb	r3, r3
 2354 0062 9846     		mov	r8, r3
 2355              	.LVL366:
 2356 0064 08E0     		b	.L122
 2357              	.LVL367:
 2358              	.L121:
 814:..\..\u8g2\csrc/u8g2_font.c **** 	delta -= k;
 2359              		.loc 1 814 0
 2360 0066 019B     		ldr	r3, [sp, #4]
ARM GAS  C:\Users\arh\AppData\Local\Temp\cc6sEv7h.s 			page 67


 2361 0068 029A     		ldr	r2, [sp, #8]
 2362 006a 0C99     		ldr	r1, [sp, #48]
 2363 006c 3800     		movs	r0, r7
 2364 006e FFF7FEFF 		bl	u8g2_GetKerning
 2365              	.LVL368:
 2366 0072 0290     		str	r0, [sp, #8]
 2367              	.LVL369:
 815:..\..\u8g2\csrc/u8g2_font.c ****       }
 2368              		.loc 1 815 0
 2369 0074 2D1A     		subs	r5, r5, r0
 2370              	.LVL370:
 2371 0076 EDB2     		uxtb	r5, r5
 2372              	.LVL371:
 2373              	.L122:
 819:..\..\u8g2\csrc/u8g2_font.c ****       if ( to_left )
 2374              		.loc 1 819 0
 2375 0078 019B     		ldr	r3, [sp, #4]
 2376 007a 039A     		ldr	r2, [sp, #12]
 2377 007c 4146     		mov	r1, r8
 2378 007e 3800     		movs	r0, r7
 2379 0080 FFF7FEFF 		bl	u8g2_DrawGlyph
 2380              	.LVL372:
 820:..\..\u8g2\csrc/u8g2_font.c ****       {
 2381              		.loc 1 820 0
 2382 0084 5B46     		mov	r3, fp
 2383 0086 002B     		cmp	r3, #0
 2384 0088 06D1     		bne	.L123
 825:..\..\u8g2\csrc/u8g2_font.c **** 	x -= k;
 2385              		.loc 1 825 0
 2386 008a 4346     		mov	r3, r8
 2387 008c 5B19     		adds	r3, r3, r5
 2388 008e DBB2     		uxtb	r3, r3
 2389              	.LVL373:
 826:..\..\u8g2\csrc/u8g2_font.c ****       }
 2390              		.loc 1 826 0
 2391 0090 029A     		ldr	r2, [sp, #8]
 2392 0092 9B1A     		subs	r3, r3, r2
 2393              	.LVL374:
 2394 0094 DBB2     		uxtb	r3, r3
 2395 0096 9846     		mov	r8, r3
 2396              	.LVL375:
 2397              	.L123:
 829:..\..\u8g2\csrc/u8g2_font.c ****     }
 2398              		.loc 1 829 0
 2399 0098 2D19     		adds	r5, r5, r4
 2400              	.LVL376:
 2401 009a ECB2     		uxtb	r4, r5
 2402              	.LVL377:
 817:..\..\u8g2\csrc/u8g2_font.c **** 
 2403              		.loc 1 817 0
 2404 009c 019B     		ldr	r3, [sp, #4]
 2405 009e 0293     		str	r3, [sp, #8]
 2406              	.LVL378:
 2407 00a0 BFE7     		b	.L118
 2408              	.LVL379:
 2409              	.L119:
 833:..\..\u8g2\csrc/u8g2_font.c **** 
ARM GAS  C:\Users\arh\AppData\Local\Temp\cc6sEv7h.s 			page 68


 2410              		.loc 1 833 0
 2411 00a2 2000     		movs	r0, r4
 2412              	.LVL380:
 2413 00a4 05B0     		add	sp, sp, #20
 2414              		@ sp needed
 2415              	.LVL381:
 2416              	.LVL382:
 2417              	.LVL383:
 2418              	.LVL384:
 2419 00a6 0CBC     		pop	{r2, r3}
 2420 00a8 9046     		mov	r8, r2
 2421 00aa 9B46     		mov	fp, r3
 2422 00ac F0BD     		pop	{r4, r5, r6, r7, pc}
 2423              	.L125:
 2424 00ae C046     		.align	2
 2425              	.L124:
 2426 00b0 00000000 		.word	u8x8_utf8_next
 2427 00b4 FFFF0000 		.word	65535
 2428 00b8 FEFF0000 		.word	65534
 2429              		.cfi_endproc
 2430              	.LFE25:
 2431              		.size	u8g2_DrawExtendedUTF8, .-u8g2_DrawExtendedUTF8
 2432              		.section	.text.u8g2_DrawExtUTF8,"ax",%progbits
 2433              		.align	2
 2434              		.global	u8g2_DrawExtUTF8
 2435              		.code	16
 2436              		.thumb_func
 2437              		.type	u8g2_DrawExtUTF8, %function
 2438              	u8g2_DrawExtUTF8:
 2439              	.LFB26:
 836:..\..\u8g2\csrc/u8g2_font.c ****   u8g2->u8x8.next_cb = u8x8_utf8_next;
 2440              		.loc 1 836 0
 2441              		.cfi_startproc
 2442              		@ args = 8, pretend = 0, frame = 16
 2443              		@ frame_needed = 0, uses_anonymous_args = 0
 2444              	.LVL385:
 2445 0000 F0B5     		push	{r4, r5, r6, r7, lr}
 2446              		.cfi_def_cfa_offset 20
 2447              		.cfi_offset 4, -20
 2448              		.cfi_offset 5, -16
 2449              		.cfi_offset 6, -12
 2450              		.cfi_offset 7, -8
 2451              		.cfi_offset 14, -4
 2452 0002 5F46     		mov	r7, fp
 2453 0004 4646     		mov	r6, r8
 2454 0006 C0B4     		push	{r6, r7}
 2455              		.cfi_def_cfa_offset 28
 2456              		.cfi_offset 8, -28
 2457              		.cfi_offset 11, -24
 2458 0008 85B0     		sub	sp, sp, #20
 2459              		.cfi_def_cfa_offset 48
 2460 000a 0700     		movs	r7, r0
 2461 000c 8846     		mov	r8, r1
 2462 000e 0392     		str	r2, [sp, #12]
 2463 0010 9B46     		mov	fp, r3
 2464 0012 0D9E     		ldr	r6, [sp, #52]
 837:..\..\u8g2\csrc/u8g2_font.c ****   uint16_t e_prev = 0x0ffff;
ARM GAS  C:\Users\arh\AppData\Local\Temp\cc6sEv7h.s 			page 69


 2465              		.loc 1 837 0
 2466 0014 264B     		ldr	r3, .L133
 2467              	.LVL386:
 2468 0016 4360     		str	r3, [r0, #4]
 2469              	.LVL387:
 841:..\..\u8g2\csrc/u8g2_font.c ****   sum = 0;
 2470              		.loc 1 841 0
 2471 0018 FFF7FEFF 		bl	u8x8_utf8_init
 2472              	.LVL388:
 842:..\..\u8g2\csrc/u8g2_font.c ****   for(;;)
 2473              		.loc 1 842 0
 2474 001c 0024     		movs	r4, #0
 838:..\..\u8g2\csrc/u8g2_font.c ****   uint16_t e;
 2475              		.loc 1 838 0
 2476 001e 254B     		ldr	r3, .L133+4
 2477 0020 0293     		str	r3, [sp, #8]
 2478              	.LVL389:
 2479              	.L127:
 845:..\..\u8g2\csrc/u8g2_font.c ****     if ( e == 0x0ffff )
 2480              		.loc 1 845 0
 2481 0022 3178     		ldrb	r1, [r6]
 2482 0024 3800     		movs	r0, r7
 2483 0026 7B68     		ldr	r3, [r7, #4]
 2484 0028 9847     		blx	r3
 2485              	.LVL390:
 2486 002a 0100     		movs	r1, r0
 2487 002c 0190     		str	r0, [sp, #4]
 2488              	.LVL391:
 846:..\..\u8g2\csrc/u8g2_font.c ****       break;
 2489              		.loc 1 846 0
 2490 002e 214A     		ldr	r2, .L133+4
 2491 0030 9042     		cmp	r0, r2
 2492 0032 36D0     		beq	.L128
 848:..\..\u8g2\csrc/u8g2_font.c ****     if ( e != 0x0fffe )
 2493              		.loc 1 848 0
 2494 0034 0136     		adds	r6, r6, #1
 2495              	.LVL392:
 849:..\..\u8g2\csrc/u8g2_font.c ****     {
 2496              		.loc 1 849 0
 2497 0036 204A     		ldr	r2, .L133+8
 2498 0038 9042     		cmp	r0, r2
 2499 003a F2D0     		beq	.L127
 851:..\..\u8g2\csrc/u8g2_font.c **** 	    
 2500              		.loc 1 851 0
 2501 003c 3800     		movs	r0, r7
 2502              	.LVL393:
 2503 003e FFF7FEFF 		bl	u8g2_GetGlyphWidth
 2504              	.LVL394:
 2505 0042 C5B2     		uxtb	r5, r0
 2506              	.LVL395:
 853:..\..\u8g2\csrc/u8g2_font.c ****       {
 2507              		.loc 1 853 0
 2508 0044 5B46     		mov	r3, fp
 2509 0046 002B     		cmp	r3, #0
 2510 0048 0DD0     		beq	.L130
 855:..\..\u8g2\csrc/u8g2_font.c **** 	delta -= k;
 2511              		.loc 1 855 0
ARM GAS  C:\Users\arh\AppData\Local\Temp\cc6sEv7h.s 			page 70


 2512 004a 029B     		ldr	r3, [sp, #8]
 2513 004c 019A     		ldr	r2, [sp, #4]
 2514 004e 0C99     		ldr	r1, [sp, #48]
 2515 0050 3800     		movs	r0, r7
 2516 0052 FFF7FEFF 		bl	u8g2_GetKerningByTable
 2517              	.LVL396:
 2518 0056 0290     		str	r0, [sp, #8]
 2519              	.LVL397:
 856:..\..\u8g2\csrc/u8g2_font.c **** 	x -= delta;
 2520              		.loc 1 856 0
 2521 0058 2D1A     		subs	r5, r5, r0
 2522              	.LVL398:
 2523 005a EDB2     		uxtb	r5, r5
 2524              	.LVL399:
 857:..\..\u8g2\csrc/u8g2_font.c ****       }
 2525              		.loc 1 857 0
 2526 005c 4346     		mov	r3, r8
 2527 005e 5B1B     		subs	r3, r3, r5
 2528 0060 DBB2     		uxtb	r3, r3
 2529 0062 9846     		mov	r8, r3
 2530              	.LVL400:
 2531 0064 08E0     		b	.L131
 2532              	.LVL401:
 2533              	.L130:
 861:..\..\u8g2\csrc/u8g2_font.c **** 	delta -= k;
 2534              		.loc 1 861 0
 2535 0066 019B     		ldr	r3, [sp, #4]
 2536 0068 029A     		ldr	r2, [sp, #8]
 2537 006a 0C99     		ldr	r1, [sp, #48]
 2538 006c 3800     		movs	r0, r7
 2539 006e FFF7FEFF 		bl	u8g2_GetKerningByTable
 2540              	.LVL402:
 2541 0072 0290     		str	r0, [sp, #8]
 2542              	.LVL403:
 862:..\..\u8g2\csrc/u8g2_font.c ****       }
 2543              		.loc 1 862 0
 2544 0074 2D1A     		subs	r5, r5, r0
 2545              	.LVL404:
 2546 0076 EDB2     		uxtb	r5, r5
 2547              	.LVL405:
 2548              	.L131:
 866:..\..\u8g2\csrc/u8g2_font.c ****       if ( to_left )
 2549              		.loc 1 866 0
 2550 0078 019B     		ldr	r3, [sp, #4]
 2551 007a 039A     		ldr	r2, [sp, #12]
 2552 007c 4146     		mov	r1, r8
 2553 007e 3800     		movs	r0, r7
 2554 0080 FFF7FEFF 		bl	u8g2_DrawGlyph
 2555              	.LVL406:
 867:..\..\u8g2\csrc/u8g2_font.c ****       {
 2556              		.loc 1 867 0
 2557 0084 5B46     		mov	r3, fp
 2558 0086 002B     		cmp	r3, #0
 2559 0088 06D1     		bne	.L132
 872:..\..\u8g2\csrc/u8g2_font.c **** 	x -= k;
 2560              		.loc 1 872 0
 2561 008a 4346     		mov	r3, r8
ARM GAS  C:\Users\arh\AppData\Local\Temp\cc6sEv7h.s 			page 71


 2562 008c 5B19     		adds	r3, r3, r5
 2563 008e DBB2     		uxtb	r3, r3
 2564              	.LVL407:
 873:..\..\u8g2\csrc/u8g2_font.c ****       }
 2565              		.loc 1 873 0
 2566 0090 029A     		ldr	r2, [sp, #8]
 2567 0092 9B1A     		subs	r3, r3, r2
 2568              	.LVL408:
 2569 0094 DBB2     		uxtb	r3, r3
 2570 0096 9846     		mov	r8, r3
 2571              	.LVL409:
 2572              	.L132:
 876:..\..\u8g2\csrc/u8g2_font.c ****     }
 2573              		.loc 1 876 0
 2574 0098 2D19     		adds	r5, r5, r4
 2575              	.LVL410:
 2576 009a ECB2     		uxtb	r4, r5
 2577              	.LVL411:
 864:..\..\u8g2\csrc/u8g2_font.c **** 
 2578              		.loc 1 864 0
 2579 009c 019B     		ldr	r3, [sp, #4]
 2580 009e 0293     		str	r3, [sp, #8]
 2581              	.LVL412:
 2582 00a0 BFE7     		b	.L127
 2583              	.LVL413:
 2584              	.L128:
 880:..\..\u8g2\csrc/u8g2_font.c **** 
 2585              		.loc 1 880 0
 2586 00a2 2000     		movs	r0, r4
 2587              	.LVL414:
 2588 00a4 05B0     		add	sp, sp, #20
 2589              		@ sp needed
 2590              	.LVL415:
 2591              	.LVL416:
 2592              	.LVL417:
 2593              	.LVL418:
 2594 00a6 0CBC     		pop	{r2, r3}
 2595 00a8 9046     		mov	r8, r2
 2596 00aa 9B46     		mov	fp, r3
 2597 00ac F0BD     		pop	{r4, r5, r6, r7, pc}
 2598              	.L134:
 2599 00ae C046     		.align	2
 2600              	.L133:
 2601 00b0 00000000 		.word	u8x8_utf8_next
 2602 00b4 FFFF0000 		.word	65535
 2603 00b8 FEFF0000 		.word	65534
 2604              		.cfi_endproc
 2605              	.LFE26:
 2606              		.size	u8g2_DrawExtUTF8, .-u8g2_DrawExtUTF8
 2607              		.section	.text.u8g2_UpdateRefHeight,"ax",%progbits
 2608              		.align	2
 2609              		.global	u8g2_UpdateRefHeight
 2610              		.code	16
 2611              		.thumb_func
 2612              		.type	u8g2_UpdateRefHeight, %function
 2613              	u8g2_UpdateRefHeight:
 2614              	.LFB27:
ARM GAS  C:\Users\arh\AppData\Local\Temp\cc6sEv7h.s 			page 72


 889:..\..\u8g2\csrc/u8g2_font.c ****   if ( u8g2->font == NULL )
 2615              		.loc 1 889 0
 2616              		.cfi_startproc
 2617              		@ args = 0, pretend = 0, frame = 0
 2618              		@ frame_needed = 0, uses_anonymous_args = 0
 2619              	.LVL419:
 2620 0000 30B5     		push	{r4, r5, lr}
 2621              		.cfi_def_cfa_offset 12
 2622              		.cfi_offset 4, -12
 2623              		.cfi_offset 5, -8
 2624              		.cfi_offset 14, -4
 890:..\..\u8g2\csrc/u8g2_font.c ****     return;
 2625              		.loc 1 890 0
 2626 0002 836C     		ldr	r3, [r0, #72]
 2627 0004 002B     		cmp	r3, #0
 2628 0006 27D0     		beq	.L135
 892:..\..\u8g2\csrc/u8g2_font.c ****   u8g2->font_ref_descent = u8g2->font_info.descent_g;
 2629              		.loc 1 892 0
 2630 0008 6D23     		movs	r3, #109
 2631 000a C156     		ldrsb	r1, [r0, r3]
 2632 000c 0C33     		adds	r3, r3, #12
 2633 000e C154     		strb	r1, [r0, r3]
 893:..\..\u8g2\csrc/u8g2_font.c ****   if ( u8g2->font_height_mode == U8G2_FONT_HEIGHT_MODE_TEXT )
 2634              		.loc 1 893 0
 2635 0010 0B3B     		subs	r3, r3, #11
 2636 0012 C256     		ldrsb	r2, [r0, r3]
 2637 0014 0C33     		adds	r3, r3, #12
 2638 0016 C254     		strb	r2, [r0, r3]
 894:..\..\u8g2\csrc/u8g2_font.c ****   {
 2639              		.loc 1 894 0
 2640 0018 023B     		subs	r3, r3, #2
 2641 001a C35C     		ldrb	r3, [r0, r3]
 2642 001c 002B     		cmp	r3, #0
 2643 001e 1BD0     		beq	.L135
 897:..\..\u8g2\csrc/u8g2_font.c ****   {
 2644              		.loc 1 897 0
 2645 0020 012B     		cmp	r3, #1
 2646 0022 0CD1     		bne	.L137
 899:..\..\u8g2\csrc/u8g2_font.c ****       u8g2->font_ref_ascent = u8g2->font_info.ascent_para;
 2647              		.loc 1 899 0
 2648 0024 6E33     		adds	r3, r3, #110
 2649 0026 C356     		ldrsb	r3, [r0, r3]
 2650 0028 9942     		cmp	r1, r3
 2651 002a 01DA     		bge	.L138
 900:..\..\u8g2\csrc/u8g2_font.c ****     if ( u8g2->font_ref_descent > u8g2->font_info.descent_para )
 2652              		.loc 1 900 0
 2653 002c 7921     		movs	r1, #121
 2654 002e 4354     		strb	r3, [r0, r1]
 2655              	.L138:
 901:..\..\u8g2\csrc/u8g2_font.c ****       u8g2->font_ref_descent = u8g2->font_info.descent_para;
 2656              		.loc 1 901 0
 2657 0030 7023     		movs	r3, #112
 2658 0032 C356     		ldrsb	r3, [r0, r3]
 2659 0034 9A42     		cmp	r2, r3
 2660 0036 0FDD     		ble	.L135
 902:..\..\u8g2\csrc/u8g2_font.c ****   }
 2661              		.loc 1 902 0
ARM GAS  C:\Users\arh\AppData\Local\Temp\cc6sEv7h.s 			page 73


 2662 0038 7A22     		movs	r2, #122
 2663 003a 8354     		strb	r3, [r0, r2]
 2664 003c 0CE0     		b	.L135
 2665              	.L137:
 906:..\..\u8g2\csrc/u8g2_font.c ****       u8g2->font_ref_ascent = u8g2->font_info.max_char_height+u8g2->font_info.y_offset;
 2666              		.loc 1 906 0
 2667 003e 6A23     		movs	r3, #106
 2668 0040 C456     		ldrsb	r4, [r0, r3]
 2669 0042 0233     		adds	r3, r3, #2
 2670 0044 C356     		ldrsb	r3, [r0, r3]
 2671 0046 E518     		adds	r5, r4, r3
 2672 0048 A942     		cmp	r1, r5
 2673 004a 01DA     		bge	.L139
 907:..\..\u8g2\csrc/u8g2_font.c ****     if ( u8g2->font_ref_descent > u8g2->font_info.y_offset )
 2674              		.loc 1 907 0
 2675 004c 7921     		movs	r1, #121
 2676 004e 4554     		strb	r5, [r0, r1]
 2677              	.L139:
 908:..\..\u8g2\csrc/u8g2_font.c ****       u8g2->font_ref_descent = u8g2->font_info.y_offset;
 2678              		.loc 1 908 0
 2679 0050 9A42     		cmp	r2, r3
 2680 0052 01DD     		ble	.L135
 909:..\..\u8g2\csrc/u8g2_font.c ****   }  
 2681              		.loc 1 909 0
 2682 0054 7A22     		movs	r2, #122
 2683 0056 8354     		strb	r3, [r0, r2]
 2684              	.L135:
 911:..\..\u8g2\csrc/u8g2_font.c **** 
 2685              		.loc 1 911 0
 2686              		@ sp needed
 2687 0058 30BD     		pop	{r4, r5, pc}
 2688              		.cfi_endproc
 2689              	.LFE27:
 2690              		.size	u8g2_UpdateRefHeight, .-u8g2_UpdateRefHeight
 2691 005a C046     		.section	.text.u8g2_SetFontRefHeightText,"ax",%progbits
 2692              		.align	2
 2693              		.global	u8g2_SetFontRefHeightText
 2694              		.code	16
 2695              		.thumb_func
 2696              		.type	u8g2_SetFontRefHeightText, %function
 2697              	u8g2_SetFontRefHeightText:
 2698              	.LFB28:
 914:..\..\u8g2\csrc/u8g2_font.c ****   u8g2->font_height_mode = U8G2_FONT_HEIGHT_MODE_TEXT;
 2699              		.loc 1 914 0
 2700              		.cfi_startproc
 2701              		@ args = 0, pretend = 0, frame = 0
 2702              		@ frame_needed = 0, uses_anonymous_args = 0
 2703              	.LVL420:
 2704 0000 10B5     		push	{r4, lr}
 2705              		.cfi_def_cfa_offset 8
 2706              		.cfi_offset 4, -8
 2707              		.cfi_offset 14, -4
 915:..\..\u8g2\csrc/u8g2_font.c ****   u8g2_UpdateRefHeight(u8g2);
 2708              		.loc 1 915 0
 2709 0002 0022     		movs	r2, #0
 2710 0004 7823     		movs	r3, #120
 2711 0006 C254     		strb	r2, [r0, r3]
ARM GAS  C:\Users\arh\AppData\Local\Temp\cc6sEv7h.s 			page 74


 916:..\..\u8g2\csrc/u8g2_font.c **** }
 2712              		.loc 1 916 0
 2713 0008 FFF7FEFF 		bl	u8g2_UpdateRefHeight
 2714              	.LVL421:
 917:..\..\u8g2\csrc/u8g2_font.c **** 
 2715              		.loc 1 917 0
 2716              		@ sp needed
 2717 000c 10BD     		pop	{r4, pc}
 2718              		.cfi_endproc
 2719              	.LFE28:
 2720              		.size	u8g2_SetFontRefHeightText, .-u8g2_SetFontRefHeightText
 2721 000e C046     		.section	.text.u8g2_SetFontRefHeightExtendedText,"ax",%progbits
 2722              		.align	2
 2723              		.global	u8g2_SetFontRefHeightExtendedText
 2724              		.code	16
 2725              		.thumb_func
 2726              		.type	u8g2_SetFontRefHeightExtendedText, %function
 2727              	u8g2_SetFontRefHeightExtendedText:
 2728              	.LFB29:
 920:..\..\u8g2\csrc/u8g2_font.c ****   u8g2->font_height_mode = U8G2_FONT_HEIGHT_MODE_XTEXT;
 2729              		.loc 1 920 0
 2730              		.cfi_startproc
 2731              		@ args = 0, pretend = 0, frame = 0
 2732              		@ frame_needed = 0, uses_anonymous_args = 0
 2733              	.LVL422:
 2734 0000 10B5     		push	{r4, lr}
 2735              		.cfi_def_cfa_offset 8
 2736              		.cfi_offset 4, -8
 2737              		.cfi_offset 14, -4
 921:..\..\u8g2\csrc/u8g2_font.c ****   u8g2_UpdateRefHeight(u8g2);
 2738              		.loc 1 921 0
 2739 0002 0122     		movs	r2, #1
 2740 0004 7823     		movs	r3, #120
 2741 0006 C254     		strb	r2, [r0, r3]
 922:..\..\u8g2\csrc/u8g2_font.c **** }
 2742              		.loc 1 922 0
 2743 0008 FFF7FEFF 		bl	u8g2_UpdateRefHeight
 2744              	.LVL423:
 923:..\..\u8g2\csrc/u8g2_font.c **** 
 2745              		.loc 1 923 0
 2746              		@ sp needed
 2747 000c 10BD     		pop	{r4, pc}
 2748              		.cfi_endproc
 2749              	.LFE29:
 2750              		.size	u8g2_SetFontRefHeightExtendedText, .-u8g2_SetFontRefHeightExtendedText
 2751 000e C046     		.section	.text.u8g2_SetFontRefHeightAll,"ax",%progbits
 2752              		.align	2
 2753              		.global	u8g2_SetFontRefHeightAll
 2754              		.code	16
 2755              		.thumb_func
 2756              		.type	u8g2_SetFontRefHeightAll, %function
 2757              	u8g2_SetFontRefHeightAll:
 2758              	.LFB30:
 926:..\..\u8g2\csrc/u8g2_font.c ****   u8g2->font_height_mode = U8G2_FONT_HEIGHT_MODE_ALL;
 2759              		.loc 1 926 0
 2760              		.cfi_startproc
 2761              		@ args = 0, pretend = 0, frame = 0
ARM GAS  C:\Users\arh\AppData\Local\Temp\cc6sEv7h.s 			page 75


 2762              		@ frame_needed = 0, uses_anonymous_args = 0
 2763              	.LVL424:
 2764 0000 10B5     		push	{r4, lr}
 2765              		.cfi_def_cfa_offset 8
 2766              		.cfi_offset 4, -8
 2767              		.cfi_offset 14, -4
 927:..\..\u8g2\csrc/u8g2_font.c ****   u8g2_UpdateRefHeight(u8g2);
 2768              		.loc 1 927 0
 2769 0002 0222     		movs	r2, #2
 2770 0004 7823     		movs	r3, #120
 2771 0006 C254     		strb	r2, [r0, r3]
 928:..\..\u8g2\csrc/u8g2_font.c **** }
 2772              		.loc 1 928 0
 2773 0008 FFF7FEFF 		bl	u8g2_UpdateRefHeight
 2774              	.LVL425:
 929:..\..\u8g2\csrc/u8g2_font.c **** 
 2775              		.loc 1 929 0
 2776              		@ sp needed
 2777 000c 10BD     		pop	{r4, pc}
 2778              		.cfi_endproc
 2779              	.LFE30:
 2780              		.size	u8g2_SetFontRefHeightAll, .-u8g2_SetFontRefHeightAll
 2781 000e C046     		.section	.text.u8g2_SetFontPosBaseline,"ax",%progbits
 2782              		.align	2
 2783              		.global	u8g2_SetFontPosBaseline
 2784              		.code	16
 2785              		.thumb_func
 2786              		.type	u8g2_SetFontPosBaseline, %function
 2787              	u8g2_SetFontPosBaseline:
 2788              	.LFB32:
 940:..\..\u8g2\csrc/u8g2_font.c ****   u8g2->font_calc_vref = u8g2_font_calc_vref_font;
 2789              		.loc 1 940 0
 2790              		.cfi_startproc
 2791              		@ args = 0, pretend = 0, frame = 0
 2792              		@ frame_needed = 0, uses_anonymous_args = 0
 2793              		@ link register save eliminated.
 2794              	.LVL426:
 941:..\..\u8g2\csrc/u8g2_font.c **** }
 2795              		.loc 1 941 0
 2796 0000 014B     		ldr	r3, .L144
 2797 0002 C364     		str	r3, [r0, #76]
 942:..\..\u8g2\csrc/u8g2_font.c **** 
 2798              		.loc 1 942 0
 2799              		@ sp needed
 2800 0004 7047     		bx	lr
 2801              	.L145:
 2802 0006 C046     		.align	2
 2803              	.L144:
 2804 0008 00000000 		.word	u8g2_font_calc_vref_font
 2805              		.cfi_endproc
 2806              	.LFE32:
 2807              		.size	u8g2_SetFontPosBaseline, .-u8g2_SetFontPosBaseline
 2808              		.section	.text.u8g2_SetFontPosBottom,"ax",%progbits
 2809              		.align	2
 2810              		.global	u8g2_SetFontPosBottom
 2811              		.code	16
 2812              		.thumb_func
ARM GAS  C:\Users\arh\AppData\Local\Temp\cc6sEv7h.s 			page 76


 2813              		.type	u8g2_SetFontPosBottom, %function
 2814              	u8g2_SetFontPosBottom:
 2815              	.LFB34:
 951:..\..\u8g2\csrc/u8g2_font.c ****   u8g2->font_calc_vref = u8g2_font_calc_vref_bottom;
 2816              		.loc 1 951 0
 2817              		.cfi_startproc
 2818              		@ args = 0, pretend = 0, frame = 0
 2819              		@ frame_needed = 0, uses_anonymous_args = 0
 2820              		@ link register save eliminated.
 2821              	.LVL427:
 952:..\..\u8g2\csrc/u8g2_font.c **** }
 2822              		.loc 1 952 0
 2823 0000 014B     		ldr	r3, .L147
 2824 0002 C364     		str	r3, [r0, #76]
 953:..\..\u8g2\csrc/u8g2_font.c **** 
 2825              		.loc 1 953 0
 2826              		@ sp needed
 2827 0004 7047     		bx	lr
 2828              	.L148:
 2829 0006 C046     		.align	2
 2830              	.L147:
 2831 0008 00000000 		.word	u8g2_font_calc_vref_bottom
 2832              		.cfi_endproc
 2833              	.LFE34:
 2834              		.size	u8g2_SetFontPosBottom, .-u8g2_SetFontPosBottom
 2835              		.section	.text.u8g2_SetFontPosTop,"ax",%progbits
 2836              		.align	2
 2837              		.global	u8g2_SetFontPosTop
 2838              		.code	16
 2839              		.thumb_func
 2840              		.type	u8g2_SetFontPosTop, %function
 2841              	u8g2_SetFontPosTop:
 2842              	.LFB36:
 965:..\..\u8g2\csrc/u8g2_font.c ****   u8g2->font_calc_vref = u8g2_font_calc_vref_top;
 2843              		.loc 1 965 0
 2844              		.cfi_startproc
 2845              		@ args = 0, pretend = 0, frame = 0
 2846              		@ frame_needed = 0, uses_anonymous_args = 0
 2847              		@ link register save eliminated.
 2848              	.LVL428:
 966:..\..\u8g2\csrc/u8g2_font.c **** }
 2849              		.loc 1 966 0
 2850 0000 014B     		ldr	r3, .L150
 2851 0002 C364     		str	r3, [r0, #76]
 967:..\..\u8g2\csrc/u8g2_font.c **** 
 2852              		.loc 1 967 0
 2853              		@ sp needed
 2854 0004 7047     		bx	lr
 2855              	.L151:
 2856 0006 C046     		.align	2
 2857              	.L150:
 2858 0008 00000000 		.word	u8g2_font_calc_vref_top
 2859              		.cfi_endproc
 2860              	.LFE36:
 2861              		.size	u8g2_SetFontPosTop, .-u8g2_SetFontPosTop
 2862              		.section	.text.u8g2_SetFontPosCenter,"ax",%progbits
 2863              		.align	2
ARM GAS  C:\Users\arh\AppData\Local\Temp\cc6sEv7h.s 			page 77


 2864              		.global	u8g2_SetFontPosCenter
 2865              		.code	16
 2866              		.thumb_func
 2867              		.type	u8g2_SetFontPosCenter, %function
 2868              	u8g2_SetFontPosCenter:
 2869              	.LFB38:
 980:..\..\u8g2\csrc/u8g2_font.c ****   u8g2->font_calc_vref = u8g2_font_calc_vref_center;
 2870              		.loc 1 980 0
 2871              		.cfi_startproc
 2872              		@ args = 0, pretend = 0, frame = 0
 2873              		@ frame_needed = 0, uses_anonymous_args = 0
 2874              		@ link register save eliminated.
 2875              	.LVL429:
 981:..\..\u8g2\csrc/u8g2_font.c **** }
 2876              		.loc 1 981 0
 2877 0000 014B     		ldr	r3, .L153
 2878 0002 C364     		str	r3, [r0, #76]
 982:..\..\u8g2\csrc/u8g2_font.c **** 
 2879              		.loc 1 982 0
 2880              		@ sp needed
 2881 0004 7047     		bx	lr
 2882              	.L154:
 2883 0006 C046     		.align	2
 2884              	.L153:
 2885 0008 00000000 		.word	u8g2_font_calc_vref_center
 2886              		.cfi_endproc
 2887              	.LFE38:
 2888              		.size	u8g2_SetFontPosCenter, .-u8g2_SetFontPosCenter
 2889              		.section	.text.u8g2_SetFont,"ax",%progbits
 2890              		.align	2
 2891              		.global	u8g2_SetFont
 2892              		.code	16
 2893              		.thumb_func
 2894              		.type	u8g2_SetFont, %function
 2895              	u8g2_SetFont:
 2896              	.LFB39:
 987:..\..\u8g2\csrc/u8g2_font.c ****   if ( u8g2->font != font )
 2897              		.loc 1 987 0
 2898              		.cfi_startproc
 2899              		@ args = 0, pretend = 0, frame = 0
 2900              		@ frame_needed = 0, uses_anonymous_args = 0
 2901              	.LVL430:
 2902 0000 10B5     		push	{r4, lr}
 2903              		.cfi_def_cfa_offset 8
 2904              		.cfi_offset 4, -8
 2905              		.cfi_offset 14, -4
 2906 0002 0400     		movs	r4, r0
 988:..\..\u8g2\csrc/u8g2_font.c ****   {
 2907              		.loc 1 988 0
 2908 0004 836C     		ldr	r3, [r0, #72]
 2909 0006 8B42     		cmp	r3, r1
 2910 0008 06D0     		beq	.L155
 990:..\..\u8g2\csrc/u8g2_font.c ****     u8g2_read_font_info(&(u8g2->font_info), font);
 2911              		.loc 1 990 0
 2912 000a 8164     		str	r1, [r0, #72]
 991:..\..\u8g2\csrc/u8g2_font.c ****     u8g2_UpdateRefHeight(u8g2);
 2913              		.loc 1 991 0
ARM GAS  C:\Users\arh\AppData\Local\Temp\cc6sEv7h.s 			page 78


 2914 000c 6030     		adds	r0, r0, #96
 2915              	.LVL431:
 2916 000e FFF7FEFF 		bl	u8g2_read_font_info
 2917              	.LVL432:
 992:..\..\u8g2\csrc/u8g2_font.c ****     /* u8g2_SetFontPosBaseline(u8g2); */ /* removed with issue 195 */
 2918              		.loc 1 992 0
 2919 0012 2000     		movs	r0, r4
 2920 0014 FFF7FEFF 		bl	u8g2_UpdateRefHeight
 2921              	.LVL433:
 2922              	.L155:
 995:..\..\u8g2\csrc/u8g2_font.c **** 
 2923              		.loc 1 995 0
 2924              		@ sp needed
 2925              	.LVL434:
 2926 0018 10BD     		pop	{r4, pc}
 2927              		.cfi_endproc
 2928              	.LFE39:
 2929              		.size	u8g2_SetFont, .-u8g2_SetFont
 2930 001a C046     		.section	.text.u8g2_GetStrX,"ax",%progbits
 2931              		.align	2
 2932              		.global	u8g2_GetStrX
 2933              		.code	16
 2934              		.thumb_func
 2935              		.type	u8g2_GetStrX, %function
 2936              	u8g2_GetStrX:
 2937              	.LFB42:
1056:..\..\u8g2\csrc/u8g2_font.c ****   uint8_t w;
 2938              		.loc 1 1056 0
 2939              		.cfi_startproc
 2940              		@ args = 0, pretend = 0, frame = 8
 2941              		@ frame_needed = 0, uses_anonymous_args = 0
 2942              	.LVL435:
 2943 0000 10B5     		push	{r4, lr}
 2944              		.cfi_def_cfa_offset 8
 2945              		.cfi_offset 4, -8
 2946              		.cfi_offset 14, -4
 2947 0002 84B0     		sub	sp, sp, #16
 2948              		.cfi_def_cfa_offset 24
1059:..\..\u8g2\csrc/u8g2_font.c ****   return ox;
 2949              		.loc 1 1059 0
 2950 0004 0E24     		movs	r4, #14
 2951 0006 6C44     		add	r4, r4, sp
 2952 0008 0978     		ldrb	r1, [r1]
 2953              	.LVL436:
 2954 000a 0D23     		movs	r3, #13
 2955 000c 6B44     		add	r3, r3, sp
 2956 000e 0093     		str	r3, [sp]
 2957 0010 2300     		movs	r3, r4
 2958 0012 0F22     		movs	r2, #15
 2959 0014 6A44     		add	r2, r2, sp
 2960 0016 FFF7FEFF 		bl	u8g2_GetGlyphHorizontalProperties
 2961              	.LVL437:
1060:..\..\u8g2\csrc/u8g2_font.c **** }
 2962              		.loc 1 1060 0
 2963 001a 0020     		movs	r0, #0
 2964 001c 2056     		ldrsb	r0, [r4, r0]
1061:..\..\u8g2\csrc/u8g2_font.c **** 
ARM GAS  C:\Users\arh\AppData\Local\Temp\cc6sEv7h.s 			page 79


 2965              		.loc 1 1061 0
 2966 001e 04B0     		add	sp, sp, #16
 2967              		@ sp needed
 2968 0020 10BD     		pop	{r4, pc}
 2969              		.cfi_endproc
 2970              	.LFE42:
 2971              		.size	u8g2_GetStrX, .-u8g2_GetStrX
 2972 0022 C046     		.section	.text.u8g2_GetStrWidth,"ax",%progbits
 2973              		.align	2
 2974              		.global	u8g2_GetStrWidth
 2975              		.code	16
 2976              		.thumb_func
 2977              		.type	u8g2_GetStrWidth, %function
 2978              	u8g2_GetStrWidth:
 2979              	.LFB44:
1133:..\..\u8g2\csrc/u8g2_font.c **** 
1134:..\..\u8g2\csrc/u8g2_font.c **** 
1135:..\..\u8g2\csrc/u8g2_font.c **** 
1136:..\..\u8g2\csrc/u8g2_font.c **** 
1137:..\..\u8g2\csrc/u8g2_font.c **** 
1138:..\..\u8g2\csrc/u8g2_font.c **** u8g2_uint_t u8g2_GetStrWidth(u8g2_t *u8g2, const char *s)
1139:..\..\u8g2\csrc/u8g2_font.c **** {
 2980              		.loc 1 1139 0
 2981              		.cfi_startproc
 2982              		@ args = 0, pretend = 0, frame = 0
 2983              		@ frame_needed = 0, uses_anonymous_args = 0
 2984              	.LVL438:
 2985 0000 10B5     		push	{r4, lr}
 2986              		.cfi_def_cfa_offset 8
 2987              		.cfi_offset 4, -8
 2988              		.cfi_offset 14, -4
1140:..\..\u8g2\csrc/u8g2_font.c ****   u8g2->u8x8.next_cb = u8x8_ascii_next;
 2989              		.loc 1 1140 0
 2990 0002 024B     		ldr	r3, .L159
 2991 0004 4360     		str	r3, [r0, #4]
1141:..\..\u8g2\csrc/u8g2_font.c ****   return u8g2_string_width(u8g2, s);
 2992              		.loc 1 1141 0
 2993 0006 FFF7FEFF 		bl	u8g2_string_width
 2994              	.LVL439:
1142:..\..\u8g2\csrc/u8g2_font.c **** }
 2995              		.loc 1 1142 0
 2996              		@ sp needed
 2997 000a 10BD     		pop	{r4, pc}
 2998              	.L160:
 2999              		.align	2
 3000              	.L159:
 3001 000c 00000000 		.word	u8x8_ascii_next
 3002              		.cfi_endproc
 3003              	.LFE44:
 3004              		.size	u8g2_GetStrWidth, .-u8g2_GetStrWidth
 3005              		.section	.text.u8g2_GetExactStrWidth,"ax",%progbits
 3006              		.align	2
 3007              		.global	u8g2_GetExactStrWidth
 3008              		.code	16
 3009              		.thumb_func
 3010              		.type	u8g2_GetExactStrWidth, %function
 3011              	u8g2_GetExactStrWidth:
ARM GAS  C:\Users\arh\AppData\Local\Temp\cc6sEv7h.s 			page 80


 3012              	.LFB45:
1143:..\..\u8g2\csrc/u8g2_font.c **** 
1144:..\..\u8g2\csrc/u8g2_font.c **** u8g2_uint_t u8g2_GetExactStrWidth(u8g2_t *u8g2, const char *s)
1145:..\..\u8g2\csrc/u8g2_font.c **** {
 3013              		.loc 1 1145 0
 3014              		.cfi_startproc
 3015              		@ args = 0, pretend = 0, frame = 0
 3016              		@ frame_needed = 0, uses_anonymous_args = 0
 3017              	.LVL440:
 3018 0000 10B5     		push	{r4, lr}
 3019              		.cfi_def_cfa_offset 8
 3020              		.cfi_offset 4, -8
 3021              		.cfi_offset 14, -4
1146:..\..\u8g2\csrc/u8g2_font.c ****   u8g2->u8x8.next_cb = u8x8_ascii_next;
 3022              		.loc 1 1146 0
 3023 0002 024B     		ldr	r3, .L162
 3024 0004 4360     		str	r3, [r0, #4]
1147:..\..\u8g2\csrc/u8g2_font.c ****   return u8g2_calculate_exact_string_width(u8g2, s);
 3025              		.loc 1 1147 0
 3026 0006 FFF7FEFF 		bl	u8g2_calculate_exact_string_width
 3027              	.LVL441:
1148:..\..\u8g2\csrc/u8g2_font.c **** }
 3028              		.loc 1 1148 0
 3029              		@ sp needed
 3030 000a 10BD     		pop	{r4, pc}
 3031              	.L163:
 3032              		.align	2
 3033              	.L162:
 3034 000c 00000000 		.word	u8x8_ascii_next
 3035              		.cfi_endproc
 3036              	.LFE45:
 3037              		.size	u8g2_GetExactStrWidth, .-u8g2_GetExactStrWidth
 3038              		.section	.text.u8g2_GetUTF8Width,"ax",%progbits
 3039              		.align	2
 3040              		.global	u8g2_GetUTF8Width
 3041              		.code	16
 3042              		.thumb_func
 3043              		.type	u8g2_GetUTF8Width, %function
 3044              	u8g2_GetUTF8Width:
 3045              	.LFB46:
1149:..\..\u8g2\csrc/u8g2_font.c **** 
1150:..\..\u8g2\csrc/u8g2_font.c **** /*
1151:..\..\u8g2\csrc/u8g2_font.c **** source: https://en.wikipedia.org/wiki/UTF-8
1152:..\..\u8g2\csrc/u8g2_font.c **** Bits	from 		to			bytes	Byte 1 		Byte 2 		Byte 3 		Byte 4 		Byte 5 		Byte 6
1153:..\..\u8g2\csrc/u8g2_font.c ****   7 	U+0000 		U+007F 		1 		0xxxxxxx
1154:..\..\u8g2\csrc/u8g2_font.c **** 11 	U+0080 		U+07FF 		2 		110xxxxx 	10xxxxxx
1155:..\..\u8g2\csrc/u8g2_font.c **** 16 	U+0800 		U+FFFF 		3 		1110xxxx 	10xxxxxx 	10xxxxxx
1156:..\..\u8g2\csrc/u8g2_font.c **** 21 	U+10000 	U+1FFFFF 	4 		11110xxx 	10xxxxxx 	10xxxxxx 	10xxxxxx
1157:..\..\u8g2\csrc/u8g2_font.c **** 26 	U+200000 	U+3FFFFFF 	5 		111110xx 	10xxxxxx 	10xxxxxx 	10xxxxxx 	10xxxxxx
1158:..\..\u8g2\csrc/u8g2_font.c **** 31 	U+4000000 	U+7FFFFFFF 	6 		1111110x 	10xxxxxx 	10xxxxxx 	10xxxxxx 	10xxxxxx 	10xxxxxx  
1159:..\..\u8g2\csrc/u8g2_font.c **** */
1160:..\..\u8g2\csrc/u8g2_font.c **** u8g2_uint_t u8g2_GetUTF8Width(u8g2_t *u8g2, const char *str)
1161:..\..\u8g2\csrc/u8g2_font.c **** {
 3046              		.loc 1 1161 0
 3047              		.cfi_startproc
 3048              		@ args = 0, pretend = 0, frame = 0
 3049              		@ frame_needed = 0, uses_anonymous_args = 0
ARM GAS  C:\Users\arh\AppData\Local\Temp\cc6sEv7h.s 			page 81


 3050              	.LVL442:
 3051 0000 10B5     		push	{r4, lr}
 3052              		.cfi_def_cfa_offset 8
 3053              		.cfi_offset 4, -8
 3054              		.cfi_offset 14, -4
1162:..\..\u8g2\csrc/u8g2_font.c ****   u8g2->u8x8.next_cb = u8x8_utf8_next;
 3055              		.loc 1 1162 0
 3056 0002 024B     		ldr	r3, .L165
 3057 0004 4360     		str	r3, [r0, #4]
1163:..\..\u8g2\csrc/u8g2_font.c ****   return u8g2_string_width(u8g2, str);
 3058              		.loc 1 1163 0
 3059 0006 FFF7FEFF 		bl	u8g2_string_width
 3060              	.LVL443:
1164:..\..\u8g2\csrc/u8g2_font.c **** }
 3061              		.loc 1 1164 0
 3062              		@ sp needed
 3063 000a 10BD     		pop	{r4, pc}
 3064              	.L166:
 3065              		.align	2
 3066              	.L165:
 3067 000c 00000000 		.word	u8x8_utf8_next
 3068              		.cfi_endproc
 3069              	.LFE46:
 3070              		.size	u8g2_GetUTF8Width, .-u8g2_GetUTF8Width
 3071              		.section	.text.u8g2_SetFontDirection,"ax",%progbits
 3072              		.align	2
 3073              		.global	u8g2_SetFontDirection
 3074              		.code	16
 3075              		.thumb_func
 3076              		.type	u8g2_SetFontDirection, %function
 3077              	u8g2_SetFontDirection:
 3078              	.LFB47:
1165:..\..\u8g2\csrc/u8g2_font.c **** 
1166:..\..\u8g2\csrc/u8g2_font.c **** 
1167:..\..\u8g2\csrc/u8g2_font.c **** 
1168:..\..\u8g2\csrc/u8g2_font.c **** void u8g2_SetFontDirection(u8g2_t *u8g2, uint8_t dir)
1169:..\..\u8g2\csrc/u8g2_font.c **** {
 3079              		.loc 1 1169 0
 3080              		.cfi_startproc
 3081              		@ args = 0, pretend = 0, frame = 0
 3082              		@ frame_needed = 0, uses_anonymous_args = 0
 3083              		@ link register save eliminated.
 3084              	.LVL444:
1170:..\..\u8g2\csrc/u8g2_font.c **** #ifdef U8G2_WITH_FONT_ROTATION  
1171:..\..\u8g2\csrc/u8g2_font.c ****   u8g2->font_decode.dir = dir;
 3085              		.loc 1 1171 0
 3086 0000 5E23     		movs	r3, #94
 3087 0002 C154     		strb	r1, [r0, r3]
1172:..\..\u8g2\csrc/u8g2_font.c **** #endif
1173:..\..\u8g2\csrc/u8g2_font.c **** }
 3088              		.loc 1 1173 0
 3089              		@ sp needed
 3090 0004 7047     		bx	lr
 3091              		.cfi_endproc
 3092              	.LFE47:
 3093              		.size	u8g2_SetFontDirection, .-u8g2_SetFontDirection
 3094 0006 C046     		.text
ARM GAS  C:\Users\arh\AppData\Local\Temp\cc6sEv7h.s 			page 82


 3095              	.Letext0:
 3096              		.file 2 "c:\\program files (x86)\\cypress\\psoc creator\\4.1\\psoc creator\\import\\gnu\\arm\\5.4.
 3097              		.file 3 "c:\\program files (x86)\\cypress\\psoc creator\\4.1\\psoc creator\\import\\gnu\\arm\\5.4.
 3098              		.file 4 "c:\\program files (x86)\\cypress\\psoc creator\\4.1\\psoc creator\\import\\gnu\\arm\\5.4.
 3099              		.file 5 "..\\..\\u8g2\\csrc\\u8x8.h"
 3100              		.file 6 "..\\..\\u8g2\\csrc\\u8g2.h"