ARM GAS  C:\Users\Alan\AppData\Local\Temp\ccoesi17.s 			page 1


   1              		.syntax unified
   2              		.cpu cortex-m0
   3              		.fpu softvfp
   4              		.eabi_attribute 20, 1
   5              		.eabi_attribute 21, 1
   6              		.eabi_attribute 23, 3
   7              		.eabi_attribute 24, 1
   8              		.eabi_attribute 25, 1
   9              		.eabi_attribute 26, 1
  10              		.eabi_attribute 30, 1
  11              		.eabi_attribute 34, 0
  12              		.eabi_attribute 18, 4
  13              		.thumb
  14              		.syntax unified
  15              		.file	"u8g2_bitmap.c"
  16              		.text
  17              	.Ltext0:
  18              		.cfi_sections	.debug_frame
  19              		.section	.text.u8g2_DrawHorizontalBitmap,"ax",%progbits
  20              		.align	2
  21              		.global	u8g2_DrawHorizontalBitmap
  22              		.code	16
  23              		.thumb_func
  24              		.type	u8g2_DrawHorizontalBitmap, %function
  25              	u8g2_DrawHorizontalBitmap:
  26              	.LFB0:
  27              		.file 1 "..\\..\\u8g2\\csrc\\u8g2_bitmap.c"
   1:..\..\u8g2\csrc/u8g2_bitmap.c **** /*
   2:..\..\u8g2\csrc/u8g2_bitmap.c **** 
   3:..\..\u8g2\csrc/u8g2_bitmap.c ****   u8g2_bitmap.c
   4:..\..\u8g2\csrc/u8g2_bitmap.c **** 
   5:..\..\u8g2\csrc/u8g2_bitmap.c ****   Universal 8bit Graphics Library (https://github.com/olikraus/u8g2/)
   6:..\..\u8g2\csrc/u8g2_bitmap.c **** 
   7:..\..\u8g2\csrc/u8g2_bitmap.c ****   Copyright (c) 2016, olikraus@gmail.com
   8:..\..\u8g2\csrc/u8g2_bitmap.c ****   All rights reserved.
   9:..\..\u8g2\csrc/u8g2_bitmap.c **** 
  10:..\..\u8g2\csrc/u8g2_bitmap.c ****   Redistribution and use in source and binary forms, with or without modification, 
  11:..\..\u8g2\csrc/u8g2_bitmap.c ****   are permitted provided that the following conditions are met:
  12:..\..\u8g2\csrc/u8g2_bitmap.c **** 
  13:..\..\u8g2\csrc/u8g2_bitmap.c ****   * Redistributions of source code must retain the above copyright notice, this list 
  14:..\..\u8g2\csrc/u8g2_bitmap.c ****     of conditions and the following disclaimer.
  15:..\..\u8g2\csrc/u8g2_bitmap.c ****     
  16:..\..\u8g2\csrc/u8g2_bitmap.c ****   * Redistributions in binary form must reproduce the above copyright notice, this 
  17:..\..\u8g2\csrc/u8g2_bitmap.c ****     list of conditions and the following disclaimer in the documentation and/or other 
  18:..\..\u8g2\csrc/u8g2_bitmap.c ****     materials provided with the distribution.
  19:..\..\u8g2\csrc/u8g2_bitmap.c **** 
  20:..\..\u8g2\csrc/u8g2_bitmap.c ****   THIS SOFTWARE IS PROVIDED BY THE COPYRIGHT HOLDERS AND 
  21:..\..\u8g2\csrc/u8g2_bitmap.c ****   CONTRIBUTORS "AS IS" AND ANY EXPRESS OR IMPLIED WARRANTIES, 
  22:..\..\u8g2\csrc/u8g2_bitmap.c ****   INCLUDING, BUT NOT LIMITED TO, THE IMPLIED WARRANTIES OF 
  23:..\..\u8g2\csrc/u8g2_bitmap.c ****   MERCHANTABILITY AND FITNESS FOR A PARTICULAR PURPOSE ARE 
  24:..\..\u8g2\csrc/u8g2_bitmap.c ****   DISCLAIMED. IN NO EVENT SHALL THE COPYRIGHT HOLDER OR 
  25:..\..\u8g2\csrc/u8g2_bitmap.c ****   CONTRIBUTORS BE LIABLE FOR ANY DIRECT, INDIRECT, INCIDENTAL, 
  26:..\..\u8g2\csrc/u8g2_bitmap.c ****   SPECIAL, EXEMPLARY, OR CONSEQUENTIAL DAMAGES (INCLUDING, BUT 
  27:..\..\u8g2\csrc/u8g2_bitmap.c ****   NOT LIMITED TO, PROCUREMENT OF SUBSTITUTE GOODS OR SERVICES; 
  28:..\..\u8g2\csrc/u8g2_bitmap.c ****   LOSS OF USE, DATA, OR PROFITS; OR BUSINESS INTERRUPTION) HOWEVER 
  29:..\..\u8g2\csrc/u8g2_bitmap.c ****   CAUSED AND ON ANY THEORY OF LIABILITY, WHETHER IN CONTRACT, 
  30:..\..\u8g2\csrc/u8g2_bitmap.c ****   STRICT LIABILITY, OR TORT (INCLUDING NEGLIGENCE OR OTHERWISE) 
ARM GAS  C:\Users\Alan\AppData\Local\Temp\ccoesi17.s 			page 2


  31:..\..\u8g2\csrc/u8g2_bitmap.c ****   ARISING IN ANY WAY OUT OF THE USE OF THIS SOFTWARE, EVEN IF 
  32:..\..\u8g2\csrc/u8g2_bitmap.c ****   ADVISED OF THE POSSIBILITY OF SUCH DAMAGE.  
  33:..\..\u8g2\csrc/u8g2_bitmap.c **** 
  34:..\..\u8g2\csrc/u8g2_bitmap.c **** */
  35:..\..\u8g2\csrc/u8g2_bitmap.c **** 
  36:..\..\u8g2\csrc/u8g2_bitmap.c **** #include "u8g2.h"
  37:..\..\u8g2\csrc/u8g2_bitmap.c **** 
  38:..\..\u8g2\csrc/u8g2_bitmap.c **** /*
  39:..\..\u8g2\csrc/u8g2_bitmap.c ****   x,y 	Position on the display
  40:..\..\u8g2\csrc/u8g2_bitmap.c ****   len		Length of bitmap line in pixel. Note: This differs from u8glib which had a bytecount here.
  41:..\..\u8g2\csrc/u8g2_bitmap.c ****   b		Pointer to the bitmap line.
  42:..\..\u8g2\csrc/u8g2_bitmap.c ****   Only draw pixels which are set.
  43:..\..\u8g2\csrc/u8g2_bitmap.c **** */
  44:..\..\u8g2\csrc/u8g2_bitmap.c **** 
  45:..\..\u8g2\csrc/u8g2_bitmap.c **** void u8g2_DrawHorizontalBitmap(u8g2_t *u8g2, u8g2_uint_t x, u8g2_uint_t y, u8g2_uint_t len, const u
  46:..\..\u8g2\csrc/u8g2_bitmap.c **** {
  28              		.loc 1 46 0
  29              		.cfi_startproc
  30              		@ args = 4, pretend = 0, frame = 8
  31              		@ frame_needed = 0, uses_anonymous_args = 0
  32              	.LVL0:
  33 0000 F0B5     		push	{r4, r5, r6, r7, lr}
  34              		.cfi_def_cfa_offset 20
  35              		.cfi_offset 4, -20
  36              		.cfi_offset 5, -16
  37              		.cfi_offset 6, -12
  38              		.cfi_offset 7, -8
  39              		.cfi_offset 14, -4
  40 0002 85B0     		sub	sp, sp, #20
  41              		.cfi_def_cfa_offset 40
  42 0004 0290     		str	r0, [sp, #8]
  43 0006 0D00     		movs	r5, r1
  44 0008 1100     		movs	r1, r2
  45              	.LVL1:
  46 000a 0392     		str	r2, [sp, #12]
  47 000c 1C00     		movs	r4, r3
  48 000e 0A9E     		ldr	r6, [sp, #40]
  47:..\..\u8g2\csrc/u8g2_bitmap.c ****   uint8_t mask;
  48:..\..\u8g2\csrc/u8g2_bitmap.c **** #ifdef U8G2_WITH_INTERSECTION
  49:..\..\u8g2\csrc/u8g2_bitmap.c ****   if ( u8g2_IsIntersection(u8g2, x, y, x+len, y+1) == 0 ) 
  49              		.loc 1 49 0
  50 0010 EB18     		adds	r3, r5, r3
  51              	.LVL2:
  52 0012 DBB2     		uxtb	r3, r3
  53 0014 0132     		adds	r2, r2, #1
  54              	.LVL3:
  55 0016 D2B2     		uxtb	r2, r2
  56 0018 0092     		str	r2, [sp]
  57 001a 0A00     		movs	r2, r1
  58 001c 2900     		movs	r1, r5
  59 001e FFF7FEFF 		bl	u8g2_IsIntersection
  60              	.LVL4:
  61 0022 0028     		cmp	r0, #0
  62 0024 16D0     		beq	.L1
  63 0026 8027     		movs	r7, #128
  64 0028 12E0     		b	.L3
  65              	.LVL5:
ARM GAS  C:\Users\Alan\AppData\Local\Temp\ccoesi17.s 			page 3


  66              	.L6:
  50:..\..\u8g2\csrc/u8g2_bitmap.c ****     return;
  51:..\..\u8g2\csrc/u8g2_bitmap.c **** #endif /* U8G2_WITH_INTERSECTION */
  52:..\..\u8g2\csrc/u8g2_bitmap.c ****   
  53:..\..\u8g2\csrc/u8g2_bitmap.c ****   mask = 128;
  54:..\..\u8g2\csrc/u8g2_bitmap.c ****   while(len > 0)
  55:..\..\u8g2\csrc/u8g2_bitmap.c ****   {
  56:..\..\u8g2\csrc/u8g2_bitmap.c ****     if ( *b & mask )
  67              		.loc 1 56 0
  68 002a 3378     		ldrb	r3, [r6]
  69 002c 3B42     		tst	r3, r7
  70 002e 07D0     		beq	.L4
  57:..\..\u8g2\csrc/u8g2_bitmap.c ****       u8g2_DrawHVLine(u8g2, x, y, 1, 0);
  71              		.loc 1 57 0
  72 0030 0023     		movs	r3, #0
  73 0032 0093     		str	r3, [sp]
  74 0034 0133     		adds	r3, r3, #1
  75 0036 039A     		ldr	r2, [sp, #12]
  76 0038 2900     		movs	r1, r5
  77 003a 0298     		ldr	r0, [sp, #8]
  78 003c FFF7FEFF 		bl	u8g2_DrawHVLine
  79              	.LVL6:
  80              	.L4:
  58:..\..\u8g2\csrc/u8g2_bitmap.c ****     x++;
  81              		.loc 1 58 0
  82 0040 0135     		adds	r5, r5, #1
  83              	.LVL7:
  84 0042 EDB2     		uxtb	r5, r5
  85              	.LVL8:
  59:..\..\u8g2\csrc/u8g2_bitmap.c ****     mask >>= 1;
  86              		.loc 1 59 0
  87 0044 7F08     		lsrs	r7, r7, #1
  88              	.LVL9:
  60:..\..\u8g2\csrc/u8g2_bitmap.c ****     if ( mask == 0 )
  89              		.loc 1 60 0
  90 0046 01D1     		bne	.L5
  91              	.LVL10:
  61:..\..\u8g2\csrc/u8g2_bitmap.c ****     {
  62:..\..\u8g2\csrc/u8g2_bitmap.c ****       mask = 128;
  63:..\..\u8g2\csrc/u8g2_bitmap.c ****       b++;
  92              		.loc 1 63 0
  93 0048 0136     		adds	r6, r6, #1
  94              	.LVL11:
  62:..\..\u8g2\csrc/u8g2_bitmap.c ****       b++;
  95              		.loc 1 62 0
  96 004a 8037     		adds	r7, r7, #128
  97              	.LVL12:
  98              	.L5:
  64:..\..\u8g2\csrc/u8g2_bitmap.c ****     }
  65:..\..\u8g2\csrc/u8g2_bitmap.c ****     len--;
  99              		.loc 1 65 0
 100 004c 013C     		subs	r4, r4, #1
 101              	.LVL13:
 102 004e E4B2     		uxtb	r4, r4
 103              	.LVL14:
 104              	.L3:
  54:..\..\u8g2\csrc/u8g2_bitmap.c ****   {
ARM GAS  C:\Users\Alan\AppData\Local\Temp\ccoesi17.s 			page 4


 105              		.loc 1 54 0
 106 0050 002C     		cmp	r4, #0
 107 0052 EAD1     		bne	.L6
 108              	.LVL15:
 109              	.L1:
  66:..\..\u8g2\csrc/u8g2_bitmap.c ****   }
  67:..\..\u8g2\csrc/u8g2_bitmap.c **** }
 110              		.loc 1 67 0
 111 0054 05B0     		add	sp, sp, #20
 112              		@ sp needed
 113 0056 F0BD     		pop	{r4, r5, r6, r7, pc}
 114              		.cfi_endproc
 115              	.LFE0:
 116              		.size	u8g2_DrawHorizontalBitmap, .-u8g2_DrawHorizontalBitmap
 117              		.section	.text.u8g2_DrawBitmap,"ax",%progbits
 118              		.align	2
 119              		.global	u8g2_DrawBitmap
 120              		.code	16
 121              		.thumb_func
 122              		.type	u8g2_DrawBitmap, %function
 123              	u8g2_DrawBitmap:
 124              	.LFB1:
  68:..\..\u8g2\csrc/u8g2_bitmap.c **** 
  69:..\..\u8g2\csrc/u8g2_bitmap.c **** 
  70:..\..\u8g2\csrc/u8g2_bitmap.c **** /* u8glib compatible bitmap draw function */
  71:..\..\u8g2\csrc/u8g2_bitmap.c **** void u8g2_DrawBitmap(u8g2_t *u8g2, u8g2_uint_t x, u8g2_uint_t y, u8g2_uint_t cnt, u8g2_uint_t h, co
  72:..\..\u8g2\csrc/u8g2_bitmap.c **** {
 125              		.loc 1 72 0
 126              		.cfi_startproc
 127              		@ args = 8, pretend = 0, frame = 16
 128              		@ frame_needed = 0, uses_anonymous_args = 0
 129              	.LVL16:
 130 0000 F0B5     		push	{r4, r5, r6, r7, lr}
 131              		.cfi_def_cfa_offset 20
 132              		.cfi_offset 4, -20
 133              		.cfi_offset 5, -16
 134              		.cfi_offset 6, -12
 135              		.cfi_offset 7, -8
 136              		.cfi_offset 14, -4
 137 0002 87B0     		sub	sp, sp, #28
 138              		.cfi_def_cfa_offset 48
 139 0004 0490     		str	r0, [sp, #16]
 140 0006 0591     		str	r1, [sp, #20]
 141 0008 1400     		movs	r4, r2
 142 000a 1E00     		movs	r6, r3
 143 000c 0CAB     		add	r3, sp, #48
 144              	.LVL17:
 145 000e 1F78     		ldrb	r7, [r3]
 146 0010 0D9D     		ldr	r5, [sp, #52]
 147              	.LVL18:
  73:..\..\u8g2\csrc/u8g2_bitmap.c ****   u8g2_uint_t w;
  74:..\..\u8g2\csrc/u8g2_bitmap.c ****   w = cnt;
  75:..\..\u8g2\csrc/u8g2_bitmap.c ****   w *= 8;
 148              		.loc 1 75 0
 149 0012 F300     		lsls	r3, r6, #3
 150              	.LVL19:
 151 0014 DBB2     		uxtb	r3, r3
ARM GAS  C:\Users\Alan\AppData\Local\Temp\ccoesi17.s 			page 5


 152 0016 1A00     		movs	r2, r3
 153              	.LVL20:
 154 0018 0393     		str	r3, [sp, #12]
 155              	.LVL21:
  76:..\..\u8g2\csrc/u8g2_bitmap.c **** #ifdef U8G2_WITH_INTERSECTION
  77:..\..\u8g2\csrc/u8g2_bitmap.c ****   if ( u8g2_IsIntersection(u8g2, x, y, x+w, y+h) == 0 ) 
 156              		.loc 1 77 0
 157 001a 0B00     		movs	r3, r1
 158 001c 9446     		mov	ip, r2
 159 001e 6344     		add	r3, r3, ip
 160 0020 DBB2     		uxtb	r3, r3
 161 0022 E219     		adds	r2, r4, r7
 162              	.LVL22:
 163 0024 D2B2     		uxtb	r2, r2
 164 0026 0092     		str	r2, [sp]
 165 0028 2200     		movs	r2, r4
 166 002a FFF7FEFF 		bl	u8g2_IsIntersection
 167              	.LVL23:
 168 002e 0028     		cmp	r0, #0
 169 0030 0CD1     		bne	.L9
 170 0032 0DE0     		b	.L7
 171              	.LVL24:
 172              	.L10:
  78:..\..\u8g2\csrc/u8g2_bitmap.c ****     return;
  79:..\..\u8g2\csrc/u8g2_bitmap.c **** #endif /* U8G2_WITH_INTERSECTION */
  80:..\..\u8g2\csrc/u8g2_bitmap.c ****   
  81:..\..\u8g2\csrc/u8g2_bitmap.c ****   while( h > 0 )
  82:..\..\u8g2\csrc/u8g2_bitmap.c ****   {
  83:..\..\u8g2\csrc/u8g2_bitmap.c ****     u8g2_DrawHorizontalBitmap(u8g2, x, y, w, bitmap);
 173              		.loc 1 83 0
 174 0034 0095     		str	r5, [sp]
 175 0036 039B     		ldr	r3, [sp, #12]
 176 0038 2200     		movs	r2, r4
 177 003a 0599     		ldr	r1, [sp, #20]
 178 003c 0498     		ldr	r0, [sp, #16]
 179 003e FFF7FEFF 		bl	u8g2_DrawHorizontalBitmap
 180              	.LVL25:
  84:..\..\u8g2\csrc/u8g2_bitmap.c ****     bitmap += cnt;
 181              		.loc 1 84 0
 182 0042 AD19     		adds	r5, r5, r6
 183              	.LVL26:
  85:..\..\u8g2\csrc/u8g2_bitmap.c ****     y++;
 184              		.loc 1 85 0
 185 0044 0134     		adds	r4, r4, #1
 186              	.LVL27:
 187 0046 E4B2     		uxtb	r4, r4
 188              	.LVL28:
  86:..\..\u8g2\csrc/u8g2_bitmap.c ****     h--;
 189              		.loc 1 86 0
 190 0048 7B1E     		subs	r3, r7, #1
 191 004a DFB2     		uxtb	r7, r3
 192              	.LVL29:
 193              	.L9:
  81:..\..\u8g2\csrc/u8g2_bitmap.c ****   {
 194              		.loc 1 81 0
 195 004c 002F     		cmp	r7, #0
 196 004e F1D1     		bne	.L10
ARM GAS  C:\Users\Alan\AppData\Local\Temp\ccoesi17.s 			page 6


 197              	.LVL30:
 198              	.L7:
  87:..\..\u8g2\csrc/u8g2_bitmap.c ****   }
  88:..\..\u8g2\csrc/u8g2_bitmap.c **** }
 199              		.loc 1 88 0
 200 0050 07B0     		add	sp, sp, #28
 201              		@ sp needed
 202 0052 F0BD     		pop	{r4, r5, r6, r7, pc}
 203              		.cfi_endproc
 204              	.LFE1:
 205              		.size	u8g2_DrawBitmap, .-u8g2_DrawBitmap
 206              		.section	.text.u8g2_DrawHXBM,"ax",%progbits
 207              		.align	2
 208              		.global	u8g2_DrawHXBM
 209              		.code	16
 210              		.thumb_func
 211              		.type	u8g2_DrawHXBM, %function
 212              	u8g2_DrawHXBM:
 213              	.LFB2:
  89:..\..\u8g2\csrc/u8g2_bitmap.c **** 
  90:..\..\u8g2\csrc/u8g2_bitmap.c **** 
  91:..\..\u8g2\csrc/u8g2_bitmap.c **** 
  92:..\..\u8g2\csrc/u8g2_bitmap.c **** void u8g2_DrawHXBM(u8g2_t *u8g2, u8g2_uint_t x, u8g2_uint_t y, u8g2_uint_t len, const uint8_t *b)
  93:..\..\u8g2\csrc/u8g2_bitmap.c **** {
 214              		.loc 1 93 0
 215              		.cfi_startproc
 216              		@ args = 4, pretend = 0, frame = 8
 217              		@ frame_needed = 0, uses_anonymous_args = 0
 218              	.LVL31:
 219 0000 F0B5     		push	{r4, r5, r6, r7, lr}
 220              		.cfi_def_cfa_offset 20
 221              		.cfi_offset 4, -20
 222              		.cfi_offset 5, -16
 223              		.cfi_offset 6, -12
 224              		.cfi_offset 7, -8
 225              		.cfi_offset 14, -4
 226 0002 5F46     		mov	r7, fp
 227 0004 5646     		mov	r6, r10
 228 0006 4D46     		mov	r5, r9
 229 0008 E0B4     		push	{r5, r6, r7}
 230              		.cfi_def_cfa_offset 32
 231              		.cfi_offset 9, -32
 232              		.cfi_offset 10, -28
 233              		.cfi_offset 11, -24
 234 000a 84B0     		sub	sp, sp, #16
 235              		.cfi_def_cfa_offset 48
 236 000c 0700     		movs	r7, r0
 237 000e 0D00     		movs	r5, r1
 238 0010 1100     		movs	r1, r2
 239              	.LVL32:
 240 0012 0392     		str	r2, [sp, #12]
 241 0014 1E00     		movs	r6, r3
 242 0016 0C9B     		ldr	r3, [sp, #48]
 243              	.LVL33:
 244 0018 9946     		mov	r9, r3
  94:..\..\u8g2\csrc/u8g2_bitmap.c ****   uint8_t mask;
  95:..\..\u8g2\csrc/u8g2_bitmap.c ****   uint8_t color = u8g2->draw_color;
ARM GAS  C:\Users\Alan\AppData\Local\Temp\ccoesi17.s 			page 7


 245              		.loc 1 95 0
 246 001a 7C23     		movs	r3, #124
 247 001c C35C     		ldrb	r3, [r0, r3]
 248 001e 9B46     		mov	fp, r3
 249              	.LVL34:
  96:..\..\u8g2\csrc/u8g2_bitmap.c ****   uint8_t ncolor = (color == 0 ? 1 : 0);
 250              		.loc 1 96 0
 251 0020 5A42     		rsbs	r2, r3, #0
 252 0022 5341     		adcs	r3, r3, r2
 253              	.LVL35:
 254 0024 DBB2     		uxtb	r3, r3
 255 0026 9A46     		mov	r10, r3
 256              	.LVL36:
  97:..\..\u8g2\csrc/u8g2_bitmap.c **** #ifdef U8G2_WITH_INTERSECTION
  98:..\..\u8g2\csrc/u8g2_bitmap.c ****   if ( u8g2_IsIntersection(u8g2, x, y, x+len, y+1) == 0 ) 
 257              		.loc 1 98 0
 258 0028 AB19     		adds	r3, r5, r6
 259 002a DBB2     		uxtb	r3, r3
 260 002c 0A00     		movs	r2, r1
 261 002e 0132     		adds	r2, r2, #1
 262 0030 D2B2     		uxtb	r2, r2
 263 0032 0092     		str	r2, [sp]
 264 0034 0A00     		movs	r2, r1
 265 0036 2900     		movs	r1, r5
 266 0038 FFF7FEFF 		bl	u8g2_IsIntersection
 267              	.LVL37:
 268 003c 0028     		cmp	r0, #0
 269 003e 25D0     		beq	.L11
 270 0040 0124     		movs	r4, #1
 271 0042 1EE0     		b	.L13
 272              	.LVL38:
 273              	.L17:
  99:..\..\u8g2\csrc/u8g2_bitmap.c ****     return;
 100:..\..\u8g2\csrc/u8g2_bitmap.c **** #endif /* U8G2_WITH_INTERSECTION */
 101:..\..\u8g2\csrc/u8g2_bitmap.c ****   
 102:..\..\u8g2\csrc/u8g2_bitmap.c ****   mask = 1;
 103:..\..\u8g2\csrc/u8g2_bitmap.c ****   while(len > 0)
 104:..\..\u8g2\csrc/u8g2_bitmap.c ****   {
 105:..\..\u8g2\csrc/u8g2_bitmap.c ****     if ( *b & mask )
 274              		.loc 1 105 0
 275 0044 4B46     		mov	r3, r9
 276 0046 1B78     		ldrb	r3, [r3]
 277 0048 2342     		tst	r3, r4
 278 004a 03D0     		beq	.L14
 106:..\..\u8g2\csrc/u8g2_bitmap.c ****       u8g2->draw_color = color;
 279              		.loc 1 106 0
 280 004c 7C23     		movs	r3, #124
 281 004e 5A46     		mov	r2, fp
 282 0050 FA54     		strb	r2, [r7, r3]
 283 0052 02E0     		b	.L15
 284              	.L14:
 107:..\..\u8g2\csrc/u8g2_bitmap.c ****     else
 108:..\..\u8g2\csrc/u8g2_bitmap.c ****       u8g2->draw_color = ncolor;
 285              		.loc 1 108 0
 286 0054 7C23     		movs	r3, #124
 287 0056 5246     		mov	r2, r10
 288 0058 FA54     		strb	r2, [r7, r3]
ARM GAS  C:\Users\Alan\AppData\Local\Temp\ccoesi17.s 			page 8


 289              	.L15:
 109:..\..\u8g2\csrc/u8g2_bitmap.c ****     u8g2_DrawHVLine(u8g2, x, y, 1, 0);
 290              		.loc 1 109 0
 291 005a 0023     		movs	r3, #0
 292 005c 0093     		str	r3, [sp]
 293 005e 0133     		adds	r3, r3, #1
 294 0060 039A     		ldr	r2, [sp, #12]
 295 0062 2900     		movs	r1, r5
 296 0064 3800     		movs	r0, r7
 297 0066 FFF7FEFF 		bl	u8g2_DrawHVLine
 298              	.LVL39:
 110:..\..\u8g2\csrc/u8g2_bitmap.c ****     x++;
 299              		.loc 1 110 0
 300 006a 0135     		adds	r5, r5, #1
 301              	.LVL40:
 302 006c EDB2     		uxtb	r5, r5
 303              	.LVL41:
 111:..\..\u8g2\csrc/u8g2_bitmap.c ****     mask <<= 1;
 304              		.loc 1 111 0
 305 006e 6400     		lsls	r4, r4, #1
 306              	.LVL42:
 307 0070 E4B2     		uxtb	r4, r4
 308              	.LVL43:
 112:..\..\u8g2\csrc/u8g2_bitmap.c ****     if ( mask == 0 )
 309              		.loc 1 112 0
 310 0072 002C     		cmp	r4, #0
 311 0074 03D1     		bne	.L16
 312              	.LVL44:
 113:..\..\u8g2\csrc/u8g2_bitmap.c ****     {
 114:..\..\u8g2\csrc/u8g2_bitmap.c ****       mask = 1;
 115:..\..\u8g2\csrc/u8g2_bitmap.c ****       b++;
 313              		.loc 1 115 0
 314 0076 0123     		movs	r3, #1
 315 0078 9C46     		mov	ip, r3
 316 007a E144     		add	r9, r9, ip
 317              	.LVL45:
 114:..\..\u8g2\csrc/u8g2_bitmap.c ****       b++;
 318              		.loc 1 114 0
 319 007c 0134     		adds	r4, r4, #1
 320              	.LVL46:
 321              	.L16:
 116:..\..\u8g2\csrc/u8g2_bitmap.c ****     }
 117:..\..\u8g2\csrc/u8g2_bitmap.c ****     len--;
 322              		.loc 1 117 0
 323 007e 013E     		subs	r6, r6, #1
 324              	.LVL47:
 325 0080 F6B2     		uxtb	r6, r6
 326              	.LVL48:
 327              	.L13:
 103:..\..\u8g2\csrc/u8g2_bitmap.c ****   {
 328              		.loc 1 103 0
 329 0082 002E     		cmp	r6, #0
 330 0084 DED1     		bne	.L17
 118:..\..\u8g2\csrc/u8g2_bitmap.c ****   }
 119:..\..\u8g2\csrc/u8g2_bitmap.c ****   u8g2->draw_color = color;
 331              		.loc 1 119 0
 332 0086 7C23     		movs	r3, #124
ARM GAS  C:\Users\Alan\AppData\Local\Temp\ccoesi17.s 			page 9


 333 0088 5A46     		mov	r2, fp
 334 008a FA54     		strb	r2, [r7, r3]
 335              	.LVL49:
 336              	.L11:
 120:..\..\u8g2\csrc/u8g2_bitmap.c **** }
 337              		.loc 1 120 0
 338 008c 04B0     		add	sp, sp, #16
 339              		@ sp needed
 340              	.LVL50:
 341              	.LVL51:
 342              	.LVL52:
 343 008e 1CBC     		pop	{r2, r3, r4}
 344 0090 9146     		mov	r9, r2
 345 0092 9A46     		mov	r10, r3
 346 0094 A346     		mov	fp, r4
 347 0096 F0BD     		pop	{r4, r5, r6, r7, pc}
 348              		.cfi_endproc
 349              	.LFE2:
 350              		.size	u8g2_DrawHXBM, .-u8g2_DrawHXBM
 351              		.section	.text.u8g2_DrawXBM,"ax",%progbits
 352              		.align	2
 353              		.global	u8g2_DrawXBM
 354              		.code	16
 355              		.thumb_func
 356              		.type	u8g2_DrawXBM, %function
 357              	u8g2_DrawXBM:
 358              	.LFB3:
 121:..\..\u8g2\csrc/u8g2_bitmap.c **** 
 122:..\..\u8g2\csrc/u8g2_bitmap.c **** 
 123:..\..\u8g2\csrc/u8g2_bitmap.c **** void u8g2_DrawXBM(u8g2_t *u8g2, u8g2_uint_t x, u8g2_uint_t y, u8g2_uint_t w, u8g2_uint_t h, const u
 124:..\..\u8g2\csrc/u8g2_bitmap.c **** {
 359              		.loc 1 124 0
 360              		.cfi_startproc
 361              		@ args = 8, pretend = 0, frame = 16
 362              		@ frame_needed = 0, uses_anonymous_args = 0
 363              	.LVL53:
 364 0000 F0B5     		push	{r4, r5, r6, r7, lr}
 365              		.cfi_def_cfa_offset 20
 366              		.cfi_offset 4, -20
 367              		.cfi_offset 5, -16
 368              		.cfi_offset 6, -12
 369              		.cfi_offset 7, -8
 370              		.cfi_offset 14, -4
 371 0002 87B0     		sub	sp, sp, #28
 372              		.cfi_def_cfa_offset 48
 373 0004 0390     		str	r0, [sp, #12]
 374 0006 0491     		str	r1, [sp, #16]
 375 0008 1400     		movs	r4, r2
 376 000a 1A00     		movs	r2, r3
 377              	.LVL54:
 378 000c 0593     		str	r3, [sp, #20]
 379 000e 0CAB     		add	r3, sp, #48
 380              	.LVL55:
 381 0010 1F78     		ldrb	r7, [r3]
 382 0012 0D9E     		ldr	r6, [sp, #52]
 383              	.LVL56:
 125:..\..\u8g2\csrc/u8g2_bitmap.c ****   u8g2_uint_t blen;
ARM GAS  C:\Users\Alan\AppData\Local\Temp\ccoesi17.s 			page 10


 126:..\..\u8g2\csrc/u8g2_bitmap.c ****   blen = w;
 127:..\..\u8g2\csrc/u8g2_bitmap.c ****   blen += 7;
 384              		.loc 1 127 0
 385 0014 1300     		movs	r3, r2
 386              	.LVL57:
 387 0016 0733     		adds	r3, r3, #7
 388 0018 DBB2     		uxtb	r3, r3
 389              	.LVL58:
 128:..\..\u8g2\csrc/u8g2_bitmap.c ****   blen >>= 3;
 390              		.loc 1 128 0
 391 001a DD08     		lsrs	r5, r3, #3
 392              	.LVL59:
 129:..\..\u8g2\csrc/u8g2_bitmap.c **** #ifdef U8G2_WITH_INTERSECTION
 130:..\..\u8g2\csrc/u8g2_bitmap.c ****   if ( u8g2_IsIntersection(u8g2, x, y, x+w, y+h) == 0 ) 
 393              		.loc 1 130 0
 394 001c 0B00     		movs	r3, r1
 395 001e 9446     		mov	ip, r2
 396 0020 6344     		add	r3, r3, ip
 397 0022 DBB2     		uxtb	r3, r3
 398 0024 E219     		adds	r2, r4, r7
 399 0026 D2B2     		uxtb	r2, r2
 400 0028 0092     		str	r2, [sp]
 401 002a 2200     		movs	r2, r4
 402 002c FFF7FEFF 		bl	u8g2_IsIntersection
 403              	.LVL60:
 404 0030 0028     		cmp	r0, #0
 405 0032 0CD1     		bne	.L20
 406 0034 0DE0     		b	.L18
 407              	.LVL61:
 408              	.L21:
 131:..\..\u8g2\csrc/u8g2_bitmap.c ****     return;
 132:..\..\u8g2\csrc/u8g2_bitmap.c **** #endif /* U8G2_WITH_INTERSECTION */
 133:..\..\u8g2\csrc/u8g2_bitmap.c ****   
 134:..\..\u8g2\csrc/u8g2_bitmap.c ****   while( h > 0 )
 135:..\..\u8g2\csrc/u8g2_bitmap.c ****   {
 136:..\..\u8g2\csrc/u8g2_bitmap.c ****     u8g2_DrawHXBM(u8g2, x, y, w, bitmap);
 409              		.loc 1 136 0
 410 0036 0096     		str	r6, [sp]
 411 0038 059B     		ldr	r3, [sp, #20]
 412 003a 2200     		movs	r2, r4
 413 003c 0499     		ldr	r1, [sp, #16]
 414 003e 0398     		ldr	r0, [sp, #12]
 415 0040 FFF7FEFF 		bl	u8g2_DrawHXBM
 416              	.LVL62:
 137:..\..\u8g2\csrc/u8g2_bitmap.c ****     bitmap += blen;
 417              		.loc 1 137 0
 418 0044 7619     		adds	r6, r6, r5
 419              	.LVL63:
 138:..\..\u8g2\csrc/u8g2_bitmap.c ****     y++;
 420              		.loc 1 138 0
 421 0046 0134     		adds	r4, r4, #1
 422              	.LVL64:
 423 0048 E4B2     		uxtb	r4, r4
 424              	.LVL65:
 139:..\..\u8g2\csrc/u8g2_bitmap.c ****     h--;
 425              		.loc 1 139 0
 426 004a 7B1E     		subs	r3, r7, #1
ARM GAS  C:\Users\Alan\AppData\Local\Temp\ccoesi17.s 			page 11


 427 004c DFB2     		uxtb	r7, r3
 428              	.LVL66:
 429              	.L20:
 134:..\..\u8g2\csrc/u8g2_bitmap.c ****   {
 430              		.loc 1 134 0
 431 004e 002F     		cmp	r7, #0
 432 0050 F1D1     		bne	.L21
 433              	.LVL67:
 434              	.L18:
 140:..\..\u8g2\csrc/u8g2_bitmap.c ****   }
 141:..\..\u8g2\csrc/u8g2_bitmap.c **** }
 435              		.loc 1 141 0
 436 0052 07B0     		add	sp, sp, #28
 437              		@ sp needed
 438              	.LVL68:
 439 0054 F0BD     		pop	{r4, r5, r6, r7, pc}
 440              		.cfi_endproc
 441              	.LFE3:
 442              		.size	u8g2_DrawXBM, .-u8g2_DrawXBM
 443 0056 C046     		.section	.text.u8g2_DrawHXBMP,"ax",%progbits
 444              		.align	2
 445              		.global	u8g2_DrawHXBMP
 446              		.code	16
 447              		.thumb_func
 448              		.type	u8g2_DrawHXBMP, %function
 449              	u8g2_DrawHXBMP:
 450              	.LFB4:
 142:..\..\u8g2\csrc/u8g2_bitmap.c **** 
 143:..\..\u8g2\csrc/u8g2_bitmap.c **** 
 144:..\..\u8g2\csrc/u8g2_bitmap.c **** 
 145:..\..\u8g2\csrc/u8g2_bitmap.c **** 
 146:..\..\u8g2\csrc/u8g2_bitmap.c **** 
 147:..\..\u8g2\csrc/u8g2_bitmap.c **** 
 148:..\..\u8g2\csrc/u8g2_bitmap.c **** void u8g2_DrawHXBMP(u8g2_t *u8g2, u8g2_uint_t x, u8g2_uint_t y, u8g2_uint_t len, const uint8_t *b)
 149:..\..\u8g2\csrc/u8g2_bitmap.c **** {
 451              		.loc 1 149 0
 452              		.cfi_startproc
 453              		@ args = 4, pretend = 0, frame = 8
 454              		@ frame_needed = 0, uses_anonymous_args = 0
 455              	.LVL69:
 456 0000 F0B5     		push	{r4, r5, r6, r7, lr}
 457              		.cfi_def_cfa_offset 20
 458              		.cfi_offset 4, -20
 459              		.cfi_offset 5, -16
 460              		.cfi_offset 6, -12
 461              		.cfi_offset 7, -8
 462              		.cfi_offset 14, -4
 463 0002 5F46     		mov	r7, fp
 464 0004 5646     		mov	r6, r10
 465 0006 4D46     		mov	r5, r9
 466 0008 E0B4     		push	{r5, r6, r7}
 467              		.cfi_def_cfa_offset 32
 468              		.cfi_offset 9, -32
 469              		.cfi_offset 10, -28
 470              		.cfi_offset 11, -24
 471 000a 84B0     		sub	sp, sp, #16
 472              		.cfi_def_cfa_offset 48
ARM GAS  C:\Users\Alan\AppData\Local\Temp\ccoesi17.s 			page 12


 473 000c 0700     		movs	r7, r0
 474 000e 0D00     		movs	r5, r1
 475 0010 1100     		movs	r1, r2
 476              	.LVL70:
 477 0012 0392     		str	r2, [sp, #12]
 478 0014 1E00     		movs	r6, r3
 479 0016 0C9B     		ldr	r3, [sp, #48]
 480              	.LVL71:
 481 0018 9946     		mov	r9, r3
 150:..\..\u8g2\csrc/u8g2_bitmap.c ****   uint8_t mask;
 151:..\..\u8g2\csrc/u8g2_bitmap.c ****   uint8_t color = u8g2->draw_color;
 482              		.loc 1 151 0
 483 001a 7C23     		movs	r3, #124
 484 001c C35C     		ldrb	r3, [r0, r3]
 485 001e 9B46     		mov	fp, r3
 486              	.LVL72:
 152:..\..\u8g2\csrc/u8g2_bitmap.c ****   uint8_t ncolor = (color == 0 ? 1 : 0);
 487              		.loc 1 152 0
 488 0020 5A42     		rsbs	r2, r3, #0
 489 0022 5341     		adcs	r3, r3, r2
 490              	.LVL73:
 491 0024 DBB2     		uxtb	r3, r3
 492 0026 9A46     		mov	r10, r3
 493              	.LVL74:
 153:..\..\u8g2\csrc/u8g2_bitmap.c **** #ifdef U8G2_WITH_INTERSECTION
 154:..\..\u8g2\csrc/u8g2_bitmap.c ****   if ( u8g2_IsIntersection(u8g2, x, y, x+len, y+1) == 0 ) 
 494              		.loc 1 154 0
 495 0028 AB19     		adds	r3, r5, r6
 496 002a DBB2     		uxtb	r3, r3
 497 002c 0A00     		movs	r2, r1
 498 002e 0132     		adds	r2, r2, #1
 499 0030 D2B2     		uxtb	r2, r2
 500 0032 0092     		str	r2, [sp]
 501 0034 0A00     		movs	r2, r1
 502 0036 2900     		movs	r1, r5
 503 0038 FFF7FEFF 		bl	u8g2_IsIntersection
 504              	.LVL75:
 505 003c 0028     		cmp	r0, #0
 506 003e 25D0     		beq	.L22
 507 0040 0124     		movs	r4, #1
 508 0042 1EE0     		b	.L24
 509              	.LVL76:
 510              	.L28:
 155:..\..\u8g2\csrc/u8g2_bitmap.c ****     return;
 156:..\..\u8g2\csrc/u8g2_bitmap.c **** #endif /* U8G2_WITH_INTERSECTION */
 157:..\..\u8g2\csrc/u8g2_bitmap.c ****   
 158:..\..\u8g2\csrc/u8g2_bitmap.c ****   mask = 1;
 159:..\..\u8g2\csrc/u8g2_bitmap.c ****   while(len > 0)
 160:..\..\u8g2\csrc/u8g2_bitmap.c ****   {
 161:..\..\u8g2\csrc/u8g2_bitmap.c ****     if ( u8x8_pgm_read(b) & mask )
 511              		.loc 1 161 0
 512 0044 4B46     		mov	r3, r9
 513 0046 1B78     		ldrb	r3, [r3]
 514 0048 2342     		tst	r3, r4
 515 004a 03D0     		beq	.L25
 162:..\..\u8g2\csrc/u8g2_bitmap.c ****       u8g2->draw_color = color;
 516              		.loc 1 162 0
ARM GAS  C:\Users\Alan\AppData\Local\Temp\ccoesi17.s 			page 13


 517 004c 7C23     		movs	r3, #124
 518 004e 5A46     		mov	r2, fp
 519 0050 FA54     		strb	r2, [r7, r3]
 520 0052 02E0     		b	.L26
 521              	.L25:
 163:..\..\u8g2\csrc/u8g2_bitmap.c ****     else
 164:..\..\u8g2\csrc/u8g2_bitmap.c ****       u8g2->draw_color = ncolor;
 522              		.loc 1 164 0
 523 0054 7C23     		movs	r3, #124
 524 0056 5246     		mov	r2, r10
 525 0058 FA54     		strb	r2, [r7, r3]
 526              	.L26:
 165:..\..\u8g2\csrc/u8g2_bitmap.c ****     u8g2_DrawHVLine(u8g2, x, y, 1, 0);
 527              		.loc 1 165 0
 528 005a 0023     		movs	r3, #0
 529 005c 0093     		str	r3, [sp]
 530 005e 0133     		adds	r3, r3, #1
 531 0060 039A     		ldr	r2, [sp, #12]
 532 0062 2900     		movs	r1, r5
 533 0064 3800     		movs	r0, r7
 534 0066 FFF7FEFF 		bl	u8g2_DrawHVLine
 535              	.LVL77:
 166:..\..\u8g2\csrc/u8g2_bitmap.c ****     x++;
 536              		.loc 1 166 0
 537 006a 0135     		adds	r5, r5, #1
 538              	.LVL78:
 539 006c EDB2     		uxtb	r5, r5
 540              	.LVL79:
 167:..\..\u8g2\csrc/u8g2_bitmap.c ****     mask <<= 1;
 541              		.loc 1 167 0
 542 006e 6400     		lsls	r4, r4, #1
 543              	.LVL80:
 544 0070 E4B2     		uxtb	r4, r4
 545              	.LVL81:
 168:..\..\u8g2\csrc/u8g2_bitmap.c ****     if ( mask == 0 )
 546              		.loc 1 168 0
 547 0072 002C     		cmp	r4, #0
 548 0074 03D1     		bne	.L27
 549              	.LVL82:
 169:..\..\u8g2\csrc/u8g2_bitmap.c ****     {
 170:..\..\u8g2\csrc/u8g2_bitmap.c ****       mask = 1;
 171:..\..\u8g2\csrc/u8g2_bitmap.c ****       b++;
 550              		.loc 1 171 0
 551 0076 0123     		movs	r3, #1
 552 0078 9C46     		mov	ip, r3
 553 007a E144     		add	r9, r9, ip
 554              	.LVL83:
 170:..\..\u8g2\csrc/u8g2_bitmap.c ****       b++;
 555              		.loc 1 170 0
 556 007c 0134     		adds	r4, r4, #1
 557              	.LVL84:
 558              	.L27:
 172:..\..\u8g2\csrc/u8g2_bitmap.c ****     }
 173:..\..\u8g2\csrc/u8g2_bitmap.c ****     len--;
 559              		.loc 1 173 0
 560 007e 013E     		subs	r6, r6, #1
 561              	.LVL85:
ARM GAS  C:\Users\Alan\AppData\Local\Temp\ccoesi17.s 			page 14


 562 0080 F6B2     		uxtb	r6, r6
 563              	.LVL86:
 564              	.L24:
 159:..\..\u8g2\csrc/u8g2_bitmap.c ****   {
 565              		.loc 1 159 0
 566 0082 002E     		cmp	r6, #0
 567 0084 DED1     		bne	.L28
 174:..\..\u8g2\csrc/u8g2_bitmap.c ****   }
 175:..\..\u8g2\csrc/u8g2_bitmap.c ****   u8g2->draw_color = color;
 568              		.loc 1 175 0
 569 0086 7C23     		movs	r3, #124
 570 0088 5A46     		mov	r2, fp
 571 008a FA54     		strb	r2, [r7, r3]
 572              	.LVL87:
 573              	.L22:
 176:..\..\u8g2\csrc/u8g2_bitmap.c **** }
 574              		.loc 1 176 0
 575 008c 04B0     		add	sp, sp, #16
 576              		@ sp needed
 577              	.LVL88:
 578              	.LVL89:
 579              	.LVL90:
 580 008e 1CBC     		pop	{r2, r3, r4}
 581 0090 9146     		mov	r9, r2
 582 0092 9A46     		mov	r10, r3
 583 0094 A346     		mov	fp, r4
 584 0096 F0BD     		pop	{r4, r5, r6, r7, pc}
 585              		.cfi_endproc
 586              	.LFE4:
 587              		.size	u8g2_DrawHXBMP, .-u8g2_DrawHXBMP
 588              		.section	.text.u8g2_DrawXBMP,"ax",%progbits
 589              		.align	2
 590              		.global	u8g2_DrawXBMP
 591              		.code	16
 592              		.thumb_func
 593              		.type	u8g2_DrawXBMP, %function
 594              	u8g2_DrawXBMP:
 595              	.LFB5:
 177:..\..\u8g2\csrc/u8g2_bitmap.c **** 
 178:..\..\u8g2\csrc/u8g2_bitmap.c **** 
 179:..\..\u8g2\csrc/u8g2_bitmap.c **** void u8g2_DrawXBMP(u8g2_t *u8g2, u8g2_uint_t x, u8g2_uint_t y, u8g2_uint_t w, u8g2_uint_t h, const 
 180:..\..\u8g2\csrc/u8g2_bitmap.c **** {
 596              		.loc 1 180 0
 597              		.cfi_startproc
 598              		@ args = 8, pretend = 0, frame = 16
 599              		@ frame_needed = 0, uses_anonymous_args = 0
 600              	.LVL91:
 601 0000 F0B5     		push	{r4, r5, r6, r7, lr}
 602              		.cfi_def_cfa_offset 20
 603              		.cfi_offset 4, -20
 604              		.cfi_offset 5, -16
 605              		.cfi_offset 6, -12
 606              		.cfi_offset 7, -8
 607              		.cfi_offset 14, -4
 608 0002 87B0     		sub	sp, sp, #28
 609              		.cfi_def_cfa_offset 48
 610 0004 0390     		str	r0, [sp, #12]
ARM GAS  C:\Users\Alan\AppData\Local\Temp\ccoesi17.s 			page 15


 611 0006 0491     		str	r1, [sp, #16]
 612 0008 1400     		movs	r4, r2
 613 000a 1A00     		movs	r2, r3
 614              	.LVL92:
 615 000c 0593     		str	r3, [sp, #20]
 616 000e 0CAB     		add	r3, sp, #48
 617              	.LVL93:
 618 0010 1F78     		ldrb	r7, [r3]
 619 0012 0D9E     		ldr	r6, [sp, #52]
 620              	.LVL94:
 181:..\..\u8g2\csrc/u8g2_bitmap.c ****   u8g2_uint_t blen;
 182:..\..\u8g2\csrc/u8g2_bitmap.c ****   blen = w;
 183:..\..\u8g2\csrc/u8g2_bitmap.c ****   blen += 7;
 621              		.loc 1 183 0
 622 0014 1300     		movs	r3, r2
 623              	.LVL95:
 624 0016 0733     		adds	r3, r3, #7
 625 0018 DBB2     		uxtb	r3, r3
 626              	.LVL96:
 184:..\..\u8g2\csrc/u8g2_bitmap.c ****   blen >>= 3;
 627              		.loc 1 184 0
 628 001a DD08     		lsrs	r5, r3, #3
 629              	.LVL97:
 185:..\..\u8g2\csrc/u8g2_bitmap.c **** #ifdef U8G2_WITH_INTERSECTION
 186:..\..\u8g2\csrc/u8g2_bitmap.c ****   if ( u8g2_IsIntersection(u8g2, x, y, x+w, y+h) == 0 ) 
 630              		.loc 1 186 0
 631 001c 0B00     		movs	r3, r1
 632 001e 9446     		mov	ip, r2
 633 0020 6344     		add	r3, r3, ip
 634 0022 DBB2     		uxtb	r3, r3
 635 0024 E219     		adds	r2, r4, r7
 636 0026 D2B2     		uxtb	r2, r2
 637 0028 0092     		str	r2, [sp]
 638 002a 2200     		movs	r2, r4
 639 002c FFF7FEFF 		bl	u8g2_IsIntersection
 640              	.LVL98:
 641 0030 0028     		cmp	r0, #0
 642 0032 0CD1     		bne	.L31
 643 0034 0DE0     		b	.L29
 644              	.LVL99:
 645              	.L32:
 187:..\..\u8g2\csrc/u8g2_bitmap.c ****     return;
 188:..\..\u8g2\csrc/u8g2_bitmap.c **** #endif /* U8G2_WITH_INTERSECTION */
 189:..\..\u8g2\csrc/u8g2_bitmap.c ****   
 190:..\..\u8g2\csrc/u8g2_bitmap.c ****   while( h > 0 )
 191:..\..\u8g2\csrc/u8g2_bitmap.c ****   {
 192:..\..\u8g2\csrc/u8g2_bitmap.c ****     u8g2_DrawHXBMP(u8g2, x, y, w, bitmap);
 646              		.loc 1 192 0
 647 0036 0096     		str	r6, [sp]
 648 0038 059B     		ldr	r3, [sp, #20]
 649 003a 2200     		movs	r2, r4
 650 003c 0499     		ldr	r1, [sp, #16]
 651 003e 0398     		ldr	r0, [sp, #12]
 652 0040 FFF7FEFF 		bl	u8g2_DrawHXBMP
 653              	.LVL100:
 193:..\..\u8g2\csrc/u8g2_bitmap.c ****     bitmap += blen;
 654              		.loc 1 193 0
ARM GAS  C:\Users\Alan\AppData\Local\Temp\ccoesi17.s 			page 16


 655 0044 7619     		adds	r6, r6, r5
 656              	.LVL101:
 194:..\..\u8g2\csrc/u8g2_bitmap.c ****     y++;
 657              		.loc 1 194 0
 658 0046 0134     		adds	r4, r4, #1
 659              	.LVL102:
 660 0048 E4B2     		uxtb	r4, r4
 661              	.LVL103:
 195:..\..\u8g2\csrc/u8g2_bitmap.c ****     h--;
 662              		.loc 1 195 0
 663 004a 7B1E     		subs	r3, r7, #1
 664 004c DFB2     		uxtb	r7, r3
 665              	.LVL104:
 666              	.L31:
 190:..\..\u8g2\csrc/u8g2_bitmap.c ****   {
 667              		.loc 1 190 0
 668 004e 002F     		cmp	r7, #0
 669 0050 F1D1     		bne	.L32
 670              	.LVL105:
 671              	.L29:
 196:..\..\u8g2\csrc/u8g2_bitmap.c ****   }
 197:..\..\u8g2\csrc/u8g2_bitmap.c **** }
 672              		.loc 1 197 0
 673 0052 07B0     		add	sp, sp, #28
 674              		@ sp needed
 675              	.LVL106:
 676 0054 F0BD     		pop	{r4, r5, r6, r7, pc}
 677              		.cfi_endproc
 678              	.LFE5:
 679              		.size	u8g2_DrawXBMP, .-u8g2_DrawXBMP
 680 0056 C046     		.text
 681              	.Letext0:
 682              		.file 2 "c:\\program files (x86)\\cypress\\psoc creator\\4.1\\psoc creator\\import\\gnu\\arm\\5.4.
 683              		.file 3 "c:\\program files (x86)\\cypress\\psoc creator\\4.1\\psoc creator\\import\\gnu\\arm\\5.4.
 684              		.file 4 "..\\..\\u8g2\\csrc\\u8x8.h"
 685              		.file 5 "..\\..\\u8g2\\csrc\\u8g2.h"