ARM GAS  C:\Users\arh\AppData\Local\Temp\ccfmrym3.s 			page 1


   1              		.syntax unified
   2              		.cpu cortex-m0
   3              		.fpu softvfp
   4              		.eabi_attribute 20, 1
   5              		.eabi_attribute 21, 1
   6              		.eabi_attribute 23, 3
   7              		.eabi_attribute 24, 1
   8              		.eabi_attribute 25, 1
   9              		.eabi_attribute 26, 1
  10              		.eabi_attribute 30, 1
  11              		.eabi_attribute 34, 0
  12              		.eabi_attribute 18, 4
  13              		.thumb
  14              		.syntax unified
  15              		.file	"u8g2_d_setup.c"
  16              		.text
  17              	.Ltext0:
  18              		.cfi_sections	.debug_frame
  19              		.section	.text.u8g2_Setup_ssd1305_128x32_noname_1,"ax",%progbits
  20              		.align	2
  21              		.global	u8g2_Setup_ssd1305_128x32_noname_1
  22              		.code	16
  23              		.thumb_func
  24              		.type	u8g2_Setup_ssd1305_128x32_noname_1, %function
  25              	u8g2_Setup_ssd1305_128x32_noname_1:
  26              	.LFB0:
  27              		.file 1 "..\\..\\u8g2\\csrc\\u8g2_d_setup.c"
   1:..\..\u8g2\csrc/u8g2_d_setup.c **** /* u8g2_d_setup.c */
   2:..\..\u8g2\csrc/u8g2_d_setup.c **** /* generated code, codebuild, u8g2 project */
   3:..\..\u8g2\csrc/u8g2_d_setup.c **** 
   4:..\..\u8g2\csrc/u8g2_d_setup.c **** #include "u8g2.h"
   5:..\..\u8g2\csrc/u8g2_d_setup.c **** 
   6:..\..\u8g2\csrc/u8g2_d_setup.c **** /* ssd1305 */
   7:..\..\u8g2\csrc/u8g2_d_setup.c **** /* ssd1305 1 */
   8:..\..\u8g2\csrc/u8g2_d_setup.c **** void u8g2_Setup_ssd1305_128x32_noname_1(u8g2_t *u8g2, const u8g2_cb_t *rotation, u8x8_msg_cb byte_c
   9:..\..\u8g2\csrc/u8g2_d_setup.c **** {
  28              		.loc 1 9 0
  29              		.cfi_startproc
  30              		@ args = 0, pretend = 0, frame = 8
  31              		@ frame_needed = 0, uses_anonymous_args = 0
  32              	.LVL0:
  33 0000 70B5     		push	{r4, r5, r6, lr}
  34              		.cfi_def_cfa_offset 16
  35              		.cfi_offset 4, -16
  36              		.cfi_offset 5, -12
  37              		.cfi_offset 6, -8
  38              		.cfi_offset 14, -4
  39 0002 84B0     		sub	sp, sp, #16
  40              		.cfi_def_cfa_offset 32
  41 0004 0400     		movs	r4, r0
  42 0006 0E00     		movs	r6, r1
  10:..\..\u8g2\csrc/u8g2_d_setup.c ****   uint8_t tile_buf_height;
  11:..\..\u8g2\csrc/u8g2_d_setup.c ****   uint8_t *buf;
  12:..\..\u8g2\csrc/u8g2_d_setup.c ****   u8g2_SetupDisplay(u8g2, u8x8_d_ssd1305_128x32_noname, u8x8_cad_001, byte_cb, gpio_and_delay_cb);
  43              		.loc 1 12 0
  44 0008 0093     		str	r3, [sp]
  45 000a 1300     		movs	r3, r2
ARM GAS  C:\Users\arh\AppData\Local\Temp\ccfmrym3.s 			page 2


  46              	.LVL1:
  47 000c 084A     		ldr	r2, .L2
  48              	.LVL2:
  49 000e 0949     		ldr	r1, .L2+4
  50              	.LVL3:
  51 0010 FFF7FEFF 		bl	u8x8_Setup
  52              	.LVL4:
  13:..\..\u8g2\csrc/u8g2_d_setup.c ****   buf = u8g2_m_ssd1305_16_1(&tile_buf_height);
  53              		.loc 1 13 0
  54 0014 0F25     		movs	r5, #15
  55 0016 6D44     		add	r5, r5, sp
  56 0018 2800     		movs	r0, r5
  57 001a FFF7FEFF 		bl	u8g2_m_ssd1305_16_1
  58              	.LVL5:
  59 001e 0100     		movs	r1, r0
  60              	.LVL6:
  14:..\..\u8g2\csrc/u8g2_d_setup.c ****   u8g2_SetupBuffer(u8g2, buf, tile_buf_height, u8g2_ll_hvline_vertical_top_lsb, rotation);
  61              		.loc 1 14 0
  62 0020 2A78     		ldrb	r2, [r5]
  63 0022 0096     		str	r6, [sp]
  64 0024 044B     		ldr	r3, .L2+8
  65 0026 2000     		movs	r0, r4
  66              	.LVL7:
  67 0028 FFF7FEFF 		bl	u8g2_SetupBuffer
  68              	.LVL8:
  15:..\..\u8g2\csrc/u8g2_d_setup.c **** }
  69              		.loc 1 15 0
  70 002c 04B0     		add	sp, sp, #16
  71              		@ sp needed
  72              	.LVL9:
  73              	.LVL10:
  74 002e 70BD     		pop	{r4, r5, r6, pc}
  75              	.L3:
  76              		.align	2
  77              	.L2:
  78 0030 00000000 		.word	u8x8_cad_001
  79 0034 00000000 		.word	u8x8_d_ssd1305_128x32_noname
  80 0038 00000000 		.word	u8g2_ll_hvline_vertical_top_lsb
  81              		.cfi_endproc
  82              	.LFE0:
  83              		.size	u8g2_Setup_ssd1305_128x32_noname_1, .-u8g2_Setup_ssd1305_128x32_noname_1
  84              		.section	.text.u8g2_Setup_ssd1305_128x32_noname_2,"ax",%progbits
  85              		.align	2
  86              		.global	u8g2_Setup_ssd1305_128x32_noname_2
  87              		.code	16
  88              		.thumb_func
  89              		.type	u8g2_Setup_ssd1305_128x32_noname_2, %function
  90              	u8g2_Setup_ssd1305_128x32_noname_2:
  91              	.LFB1:
  16:..\..\u8g2\csrc/u8g2_d_setup.c **** /* ssd1305 2 */
  17:..\..\u8g2\csrc/u8g2_d_setup.c **** void u8g2_Setup_ssd1305_128x32_noname_2(u8g2_t *u8g2, const u8g2_cb_t *rotation, u8x8_msg_cb byte_c
  18:..\..\u8g2\csrc/u8g2_d_setup.c **** {
  92              		.loc 1 18 0
  93              		.cfi_startproc
  94              		@ args = 0, pretend = 0, frame = 8
  95              		@ frame_needed = 0, uses_anonymous_args = 0
  96              	.LVL11:
ARM GAS  C:\Users\arh\AppData\Local\Temp\ccfmrym3.s 			page 3


  97 0000 70B5     		push	{r4, r5, r6, lr}
  98              		.cfi_def_cfa_offset 16
  99              		.cfi_offset 4, -16
 100              		.cfi_offset 5, -12
 101              		.cfi_offset 6, -8
 102              		.cfi_offset 14, -4
 103 0002 84B0     		sub	sp, sp, #16
 104              		.cfi_def_cfa_offset 32
 105 0004 0400     		movs	r4, r0
 106 0006 0E00     		movs	r6, r1
  19:..\..\u8g2\csrc/u8g2_d_setup.c ****   uint8_t tile_buf_height;
  20:..\..\u8g2\csrc/u8g2_d_setup.c ****   uint8_t *buf;
  21:..\..\u8g2\csrc/u8g2_d_setup.c ****   u8g2_SetupDisplay(u8g2, u8x8_d_ssd1305_128x32_noname, u8x8_cad_001, byte_cb, gpio_and_delay_cb);
 107              		.loc 1 21 0
 108 0008 0093     		str	r3, [sp]
 109 000a 1300     		movs	r3, r2
 110              	.LVL12:
 111 000c 084A     		ldr	r2, .L5
 112              	.LVL13:
 113 000e 0949     		ldr	r1, .L5+4
 114              	.LVL14:
 115 0010 FFF7FEFF 		bl	u8x8_Setup
 116              	.LVL15:
  22:..\..\u8g2\csrc/u8g2_d_setup.c ****   buf = u8g2_m_ssd1305_16_2(&tile_buf_height);
 117              		.loc 1 22 0
 118 0014 0F25     		movs	r5, #15
 119 0016 6D44     		add	r5, r5, sp
 120 0018 2800     		movs	r0, r5
 121 001a FFF7FEFF 		bl	u8g2_m_ssd1305_16_2
 122              	.LVL16:
 123 001e 0100     		movs	r1, r0
 124              	.LVL17:
  23:..\..\u8g2\csrc/u8g2_d_setup.c ****   u8g2_SetupBuffer(u8g2, buf, tile_buf_height, u8g2_ll_hvline_vertical_top_lsb, rotation);
 125              		.loc 1 23 0
 126 0020 2A78     		ldrb	r2, [r5]
 127 0022 0096     		str	r6, [sp]
 128 0024 044B     		ldr	r3, .L5+8
 129 0026 2000     		movs	r0, r4
 130              	.LVL18:
 131 0028 FFF7FEFF 		bl	u8g2_SetupBuffer
 132              	.LVL19:
  24:..\..\u8g2\csrc/u8g2_d_setup.c **** }
 133              		.loc 1 24 0
 134 002c 04B0     		add	sp, sp, #16
 135              		@ sp needed
 136              	.LVL20:
 137              	.LVL21:
 138 002e 70BD     		pop	{r4, r5, r6, pc}
 139              	.L6:
 140              		.align	2
 141              	.L5:
 142 0030 00000000 		.word	u8x8_cad_001
 143 0034 00000000 		.word	u8x8_d_ssd1305_128x32_noname
 144 0038 00000000 		.word	u8g2_ll_hvline_vertical_top_lsb
 145              		.cfi_endproc
 146              	.LFE1:
 147              		.size	u8g2_Setup_ssd1305_128x32_noname_2, .-u8g2_Setup_ssd1305_128x32_noname_2
ARM GAS  C:\Users\arh\AppData\Local\Temp\ccfmrym3.s 			page 4


 148              		.section	.text.u8g2_Setup_ssd1305_128x32_noname_f,"ax",%progbits
 149              		.align	2
 150              		.global	u8g2_Setup_ssd1305_128x32_noname_f
 151              		.code	16
 152              		.thumb_func
 153              		.type	u8g2_Setup_ssd1305_128x32_noname_f, %function
 154              	u8g2_Setup_ssd1305_128x32_noname_f:
 155              	.LFB2:
  25:..\..\u8g2\csrc/u8g2_d_setup.c **** /* ssd1305 f */
  26:..\..\u8g2\csrc/u8g2_d_setup.c **** void u8g2_Setup_ssd1305_128x32_noname_f(u8g2_t *u8g2, const u8g2_cb_t *rotation, u8x8_msg_cb byte_c
  27:..\..\u8g2\csrc/u8g2_d_setup.c **** {
 156              		.loc 1 27 0
 157              		.cfi_startproc
 158              		@ args = 0, pretend = 0, frame = 8
 159              		@ frame_needed = 0, uses_anonymous_args = 0
 160              	.LVL22:
 161 0000 70B5     		push	{r4, r5, r6, lr}
 162              		.cfi_def_cfa_offset 16
 163              		.cfi_offset 4, -16
 164              		.cfi_offset 5, -12
 165              		.cfi_offset 6, -8
 166              		.cfi_offset 14, -4
 167 0002 84B0     		sub	sp, sp, #16
 168              		.cfi_def_cfa_offset 32
 169 0004 0400     		movs	r4, r0
 170 0006 0E00     		movs	r6, r1
  28:..\..\u8g2\csrc/u8g2_d_setup.c ****   uint8_t tile_buf_height;
  29:..\..\u8g2\csrc/u8g2_d_setup.c ****   uint8_t *buf;
  30:..\..\u8g2\csrc/u8g2_d_setup.c ****   u8g2_SetupDisplay(u8g2, u8x8_d_ssd1305_128x32_noname, u8x8_cad_001, byte_cb, gpio_and_delay_cb);
 171              		.loc 1 30 0
 172 0008 0093     		str	r3, [sp]
 173 000a 1300     		movs	r3, r2
 174              	.LVL23:
 175 000c 084A     		ldr	r2, .L8
 176              	.LVL24:
 177 000e 0949     		ldr	r1, .L8+4
 178              	.LVL25:
 179 0010 FFF7FEFF 		bl	u8x8_Setup
 180              	.LVL26:
  31:..\..\u8g2\csrc/u8g2_d_setup.c ****   buf = u8g2_m_ssd1305_16_f(&tile_buf_height);
 181              		.loc 1 31 0
 182 0014 0F25     		movs	r5, #15
 183 0016 6D44     		add	r5, r5, sp
 184 0018 2800     		movs	r0, r5
 185 001a FFF7FEFF 		bl	u8g2_m_ssd1305_16_f
 186              	.LVL27:
 187 001e 0100     		movs	r1, r0
 188              	.LVL28:
  32:..\..\u8g2\csrc/u8g2_d_setup.c ****   u8g2_SetupBuffer(u8g2, buf, tile_buf_height, u8g2_ll_hvline_vertical_top_lsb, rotation);
 189              		.loc 1 32 0
 190 0020 2A78     		ldrb	r2, [r5]
 191 0022 0096     		str	r6, [sp]
 192 0024 044B     		ldr	r3, .L8+8
 193 0026 2000     		movs	r0, r4
 194              	.LVL29:
 195 0028 FFF7FEFF 		bl	u8g2_SetupBuffer
 196              	.LVL30:
ARM GAS  C:\Users\arh\AppData\Local\Temp\ccfmrym3.s 			page 5


  33:..\..\u8g2\csrc/u8g2_d_setup.c **** }
 197              		.loc 1 33 0
 198 002c 04B0     		add	sp, sp, #16
 199              		@ sp needed
 200              	.LVL31:
 201              	.LVL32:
 202 002e 70BD     		pop	{r4, r5, r6, pc}
 203              	.L9:
 204              		.align	2
 205              	.L8:
 206 0030 00000000 		.word	u8x8_cad_001
 207 0034 00000000 		.word	u8x8_d_ssd1305_128x32_noname
 208 0038 00000000 		.word	u8g2_ll_hvline_vertical_top_lsb
 209              		.cfi_endproc
 210              	.LFE2:
 211              		.size	u8g2_Setup_ssd1305_128x32_noname_f, .-u8g2_Setup_ssd1305_128x32_noname_f
 212              		.section	.text.u8g2_Setup_ssd1305_i2c_128x32_noname_1,"ax",%progbits
 213              		.align	2
 214              		.global	u8g2_Setup_ssd1305_i2c_128x32_noname_1
 215              		.code	16
 216              		.thumb_func
 217              		.type	u8g2_Setup_ssd1305_i2c_128x32_noname_1, %function
 218              	u8g2_Setup_ssd1305_i2c_128x32_noname_1:
 219              	.LFB3:
  34:..\..\u8g2\csrc/u8g2_d_setup.c **** /* ssd1305 */
  35:..\..\u8g2\csrc/u8g2_d_setup.c **** /* ssd1305 1 */
  36:..\..\u8g2\csrc/u8g2_d_setup.c **** void u8g2_Setup_ssd1305_i2c_128x32_noname_1(u8g2_t *u8g2, const u8g2_cb_t *rotation, u8x8_msg_cb by
  37:..\..\u8g2\csrc/u8g2_d_setup.c **** {
 220              		.loc 1 37 0
 221              		.cfi_startproc
 222              		@ args = 0, pretend = 0, frame = 8
 223              		@ frame_needed = 0, uses_anonymous_args = 0
 224              	.LVL33:
 225 0000 70B5     		push	{r4, r5, r6, lr}
 226              		.cfi_def_cfa_offset 16
 227              		.cfi_offset 4, -16
 228              		.cfi_offset 5, -12
 229              		.cfi_offset 6, -8
 230              		.cfi_offset 14, -4
 231 0002 84B0     		sub	sp, sp, #16
 232              		.cfi_def_cfa_offset 32
 233 0004 0400     		movs	r4, r0
 234 0006 0E00     		movs	r6, r1
  38:..\..\u8g2\csrc/u8g2_d_setup.c ****   uint8_t tile_buf_height;
  39:..\..\u8g2\csrc/u8g2_d_setup.c ****   uint8_t *buf;
  40:..\..\u8g2\csrc/u8g2_d_setup.c ****   u8g2_SetupDisplay(u8g2, u8x8_d_ssd1305_128x32_noname, u8x8_cad_ssd13xx_i2c, byte_cb, gpio_and_del
 235              		.loc 1 40 0
 236 0008 0093     		str	r3, [sp]
 237 000a 1300     		movs	r3, r2
 238              	.LVL34:
 239 000c 084A     		ldr	r2, .L11
 240              	.LVL35:
 241 000e 0949     		ldr	r1, .L11+4
 242              	.LVL36:
 243 0010 FFF7FEFF 		bl	u8x8_Setup
 244              	.LVL37:
  41:..\..\u8g2\csrc/u8g2_d_setup.c ****   buf = u8g2_m_ssd1305_16_1(&tile_buf_height);
ARM GAS  C:\Users\arh\AppData\Local\Temp\ccfmrym3.s 			page 6


 245              		.loc 1 41 0
 246 0014 0F25     		movs	r5, #15
 247 0016 6D44     		add	r5, r5, sp
 248 0018 2800     		movs	r0, r5
 249 001a FFF7FEFF 		bl	u8g2_m_ssd1305_16_1
 250              	.LVL38:
 251 001e 0100     		movs	r1, r0
 252              	.LVL39:
  42:..\..\u8g2\csrc/u8g2_d_setup.c ****   u8g2_SetupBuffer(u8g2, buf, tile_buf_height, u8g2_ll_hvline_vertical_top_lsb, rotation);
 253              		.loc 1 42 0
 254 0020 2A78     		ldrb	r2, [r5]
 255 0022 0096     		str	r6, [sp]
 256 0024 044B     		ldr	r3, .L11+8
 257 0026 2000     		movs	r0, r4
 258              	.LVL40:
 259 0028 FFF7FEFF 		bl	u8g2_SetupBuffer
 260              	.LVL41:
  43:..\..\u8g2\csrc/u8g2_d_setup.c **** }
 261              		.loc 1 43 0
 262 002c 04B0     		add	sp, sp, #16
 263              		@ sp needed
 264              	.LVL42:
 265              	.LVL43:
 266 002e 70BD     		pop	{r4, r5, r6, pc}
 267              	.L12:
 268              		.align	2
 269              	.L11:
 270 0030 00000000 		.word	u8x8_cad_ssd13xx_i2c
 271 0034 00000000 		.word	u8x8_d_ssd1305_128x32_noname
 272 0038 00000000 		.word	u8g2_ll_hvline_vertical_top_lsb
 273              		.cfi_endproc
 274              	.LFE3:
 275              		.size	u8g2_Setup_ssd1305_i2c_128x32_noname_1, .-u8g2_Setup_ssd1305_i2c_128x32_noname_1
 276              		.section	.text.u8g2_Setup_ssd1305_i2c_128x32_noname_2,"ax",%progbits
 277              		.align	2
 278              		.global	u8g2_Setup_ssd1305_i2c_128x32_noname_2
 279              		.code	16
 280              		.thumb_func
 281              		.type	u8g2_Setup_ssd1305_i2c_128x32_noname_2, %function
 282              	u8g2_Setup_ssd1305_i2c_128x32_noname_2:
 283              	.LFB4:
  44:..\..\u8g2\csrc/u8g2_d_setup.c **** /* ssd1305 2 */
  45:..\..\u8g2\csrc/u8g2_d_setup.c **** void u8g2_Setup_ssd1305_i2c_128x32_noname_2(u8g2_t *u8g2, const u8g2_cb_t *rotation, u8x8_msg_cb by
  46:..\..\u8g2\csrc/u8g2_d_setup.c **** {
 284              		.loc 1 46 0
 285              		.cfi_startproc
 286              		@ args = 0, pretend = 0, frame = 8
 287              		@ frame_needed = 0, uses_anonymous_args = 0
 288              	.LVL44:
 289 0000 70B5     		push	{r4, r5, r6, lr}
 290              		.cfi_def_cfa_offset 16
 291              		.cfi_offset 4, -16
 292              		.cfi_offset 5, -12
 293              		.cfi_offset 6, -8
 294              		.cfi_offset 14, -4
 295 0002 84B0     		sub	sp, sp, #16
 296              		.cfi_def_cfa_offset 32
ARM GAS  C:\Users\arh\AppData\Local\Temp\ccfmrym3.s 			page 7


 297 0004 0400     		movs	r4, r0
 298 0006 0E00     		movs	r6, r1
  47:..\..\u8g2\csrc/u8g2_d_setup.c ****   uint8_t tile_buf_height;
  48:..\..\u8g2\csrc/u8g2_d_setup.c ****   uint8_t *buf;
  49:..\..\u8g2\csrc/u8g2_d_setup.c ****   u8g2_SetupDisplay(u8g2, u8x8_d_ssd1305_128x32_noname, u8x8_cad_ssd13xx_i2c, byte_cb, gpio_and_del
 299              		.loc 1 49 0
 300 0008 0093     		str	r3, [sp]
 301 000a 1300     		movs	r3, r2
 302              	.LVL45:
 303 000c 084A     		ldr	r2, .L14
 304              	.LVL46:
 305 000e 0949     		ldr	r1, .L14+4
 306              	.LVL47:
 307 0010 FFF7FEFF 		bl	u8x8_Setup
 308              	.LVL48:
  50:..\..\u8g2\csrc/u8g2_d_setup.c ****   buf = u8g2_m_ssd1305_16_2(&tile_buf_height);
 309              		.loc 1 50 0
 310 0014 0F25     		movs	r5, #15
 311 0016 6D44     		add	r5, r5, sp
 312 0018 2800     		movs	r0, r5
 313 001a FFF7FEFF 		bl	u8g2_m_ssd1305_16_2
 314              	.LVL49:
 315 001e 0100     		movs	r1, r0
 316              	.LVL50:
  51:..\..\u8g2\csrc/u8g2_d_setup.c ****   u8g2_SetupBuffer(u8g2, buf, tile_buf_height, u8g2_ll_hvline_vertical_top_lsb, rotation);
 317              		.loc 1 51 0
 318 0020 2A78     		ldrb	r2, [r5]
 319 0022 0096     		str	r6, [sp]
 320 0024 044B     		ldr	r3, .L14+8
 321 0026 2000     		movs	r0, r4
 322              	.LVL51:
 323 0028 FFF7FEFF 		bl	u8g2_SetupBuffer
 324              	.LVL52:
  52:..\..\u8g2\csrc/u8g2_d_setup.c **** }
 325              		.loc 1 52 0
 326 002c 04B0     		add	sp, sp, #16
 327              		@ sp needed
 328              	.LVL53:
 329              	.LVL54:
 330 002e 70BD     		pop	{r4, r5, r6, pc}
 331              	.L15:
 332              		.align	2
 333              	.L14:
 334 0030 00000000 		.word	u8x8_cad_ssd13xx_i2c
 335 0034 00000000 		.word	u8x8_d_ssd1305_128x32_noname
 336 0038 00000000 		.word	u8g2_ll_hvline_vertical_top_lsb
 337              		.cfi_endproc
 338              	.LFE4:
 339              		.size	u8g2_Setup_ssd1305_i2c_128x32_noname_2, .-u8g2_Setup_ssd1305_i2c_128x32_noname_2
 340              		.section	.text.u8g2_Setup_ssd1305_i2c_128x32_noname_f,"ax",%progbits
 341              		.align	2
 342              		.global	u8g2_Setup_ssd1305_i2c_128x32_noname_f
 343              		.code	16
 344              		.thumb_func
 345              		.type	u8g2_Setup_ssd1305_i2c_128x32_noname_f, %function
 346              	u8g2_Setup_ssd1305_i2c_128x32_noname_f:
 347              	.LFB5:
ARM GAS  C:\Users\arh\AppData\Local\Temp\ccfmrym3.s 			page 8


  53:..\..\u8g2\csrc/u8g2_d_setup.c **** /* ssd1305 f */
  54:..\..\u8g2\csrc/u8g2_d_setup.c **** void u8g2_Setup_ssd1305_i2c_128x32_noname_f(u8g2_t *u8g2, const u8g2_cb_t *rotation, u8x8_msg_cb by
  55:..\..\u8g2\csrc/u8g2_d_setup.c **** {
 348              		.loc 1 55 0
 349              		.cfi_startproc
 350              		@ args = 0, pretend = 0, frame = 8
 351              		@ frame_needed = 0, uses_anonymous_args = 0
 352              	.LVL55:
 353 0000 70B5     		push	{r4, r5, r6, lr}
 354              		.cfi_def_cfa_offset 16
 355              		.cfi_offset 4, -16
 356              		.cfi_offset 5, -12
 357              		.cfi_offset 6, -8
 358              		.cfi_offset 14, -4
 359 0002 84B0     		sub	sp, sp, #16
 360              		.cfi_def_cfa_offset 32
 361 0004 0400     		movs	r4, r0
 362 0006 0E00     		movs	r6, r1
  56:..\..\u8g2\csrc/u8g2_d_setup.c ****   uint8_t tile_buf_height;
  57:..\..\u8g2\csrc/u8g2_d_setup.c ****   uint8_t *buf;
  58:..\..\u8g2\csrc/u8g2_d_setup.c ****   u8g2_SetupDisplay(u8g2, u8x8_d_ssd1305_128x32_noname, u8x8_cad_ssd13xx_i2c, byte_cb, gpio_and_del
 363              		.loc 1 58 0
 364 0008 0093     		str	r3, [sp]
 365 000a 1300     		movs	r3, r2
 366              	.LVL56:
 367 000c 084A     		ldr	r2, .L17
 368              	.LVL57:
 369 000e 0949     		ldr	r1, .L17+4
 370              	.LVL58:
 371 0010 FFF7FEFF 		bl	u8x8_Setup
 372              	.LVL59:
  59:..\..\u8g2\csrc/u8g2_d_setup.c ****   buf = u8g2_m_ssd1305_16_f(&tile_buf_height);
 373              		.loc 1 59 0
 374 0014 0F25     		movs	r5, #15
 375 0016 6D44     		add	r5, r5, sp
 376 0018 2800     		movs	r0, r5
 377 001a FFF7FEFF 		bl	u8g2_m_ssd1305_16_f
 378              	.LVL60:
 379 001e 0100     		movs	r1, r0
 380              	.LVL61:
  60:..\..\u8g2\csrc/u8g2_d_setup.c ****   u8g2_SetupBuffer(u8g2, buf, tile_buf_height, u8g2_ll_hvline_vertical_top_lsb, rotation);
 381              		.loc 1 60 0
 382 0020 2A78     		ldrb	r2, [r5]
 383 0022 0096     		str	r6, [sp]
 384 0024 044B     		ldr	r3, .L17+8
 385 0026 2000     		movs	r0, r4
 386              	.LVL62:
 387 0028 FFF7FEFF 		bl	u8g2_SetupBuffer
 388              	.LVL63:
  61:..\..\u8g2\csrc/u8g2_d_setup.c **** }
 389              		.loc 1 61 0
 390 002c 04B0     		add	sp, sp, #16
 391              		@ sp needed
 392              	.LVL64:
 393              	.LVL65:
 394 002e 70BD     		pop	{r4, r5, r6, pc}
 395              	.L18:
ARM GAS  C:\Users\arh\AppData\Local\Temp\ccfmrym3.s 			page 9


 396              		.align	2
 397              	.L17:
 398 0030 00000000 		.word	u8x8_cad_ssd13xx_i2c
 399 0034 00000000 		.word	u8x8_d_ssd1305_128x32_noname
 400 0038 00000000 		.word	u8g2_ll_hvline_vertical_top_lsb
 401              		.cfi_endproc
 402              	.LFE5:
 403              		.size	u8g2_Setup_ssd1305_i2c_128x32_noname_f, .-u8g2_Setup_ssd1305_i2c_128x32_noname_f
 404              		.section	.text.u8g2_Setup_ssd1306_128x64_noname_1,"ax",%progbits
 405              		.align	2
 406              		.global	u8g2_Setup_ssd1306_128x64_noname_1
 407              		.code	16
 408              		.thumb_func
 409              		.type	u8g2_Setup_ssd1306_128x64_noname_1, %function
 410              	u8g2_Setup_ssd1306_128x64_noname_1:
 411              	.LFB6:
  62:..\..\u8g2\csrc/u8g2_d_setup.c **** /* ssd1306 */
  63:..\..\u8g2\csrc/u8g2_d_setup.c **** /* ssd1306 1 */
  64:..\..\u8g2\csrc/u8g2_d_setup.c **** void u8g2_Setup_ssd1306_128x64_noname_1(u8g2_t *u8g2, const u8g2_cb_t *rotation, u8x8_msg_cb byte_c
  65:..\..\u8g2\csrc/u8g2_d_setup.c **** {
 412              		.loc 1 65 0
 413              		.cfi_startproc
 414              		@ args = 0, pretend = 0, frame = 8
 415              		@ frame_needed = 0, uses_anonymous_args = 0
 416              	.LVL66:
 417 0000 70B5     		push	{r4, r5, r6, lr}
 418              		.cfi_def_cfa_offset 16
 419              		.cfi_offset 4, -16
 420              		.cfi_offset 5, -12
 421              		.cfi_offset 6, -8
 422              		.cfi_offset 14, -4
 423 0002 84B0     		sub	sp, sp, #16
 424              		.cfi_def_cfa_offset 32
 425 0004 0400     		movs	r4, r0
 426 0006 0E00     		movs	r6, r1
  66:..\..\u8g2\csrc/u8g2_d_setup.c ****   uint8_t tile_buf_height;
  67:..\..\u8g2\csrc/u8g2_d_setup.c ****   uint8_t *buf;
  68:..\..\u8g2\csrc/u8g2_d_setup.c ****   u8g2_SetupDisplay(u8g2, u8x8_d_ssd1306_128x64_noname, u8x8_cad_001, byte_cb, gpio_and_delay_cb);
 427              		.loc 1 68 0
 428 0008 0093     		str	r3, [sp]
 429 000a 1300     		movs	r3, r2
 430              	.LVL67:
 431 000c 084A     		ldr	r2, .L20
 432              	.LVL68:
 433 000e 0949     		ldr	r1, .L20+4
 434              	.LVL69:
 435 0010 FFF7FEFF 		bl	u8x8_Setup
 436              	.LVL70:
  69:..\..\u8g2\csrc/u8g2_d_setup.c ****   buf = u8g2_m_ssd1306_16_1(&tile_buf_height);
 437              		.loc 1 69 0
 438 0014 0F25     		movs	r5, #15
 439 0016 6D44     		add	r5, r5, sp
 440 0018 2800     		movs	r0, r5
 441 001a FFF7FEFF 		bl	u8g2_m_ssd1306_16_1
 442              	.LVL71:
 443 001e 0100     		movs	r1, r0
 444              	.LVL72:
ARM GAS  C:\Users\arh\AppData\Local\Temp\ccfmrym3.s 			page 10


  70:..\..\u8g2\csrc/u8g2_d_setup.c ****   u8g2_SetupBuffer(u8g2, buf, tile_buf_height, u8g2_ll_hvline_vertical_top_lsb, rotation);
 445              		.loc 1 70 0
 446 0020 2A78     		ldrb	r2, [r5]
 447 0022 0096     		str	r6, [sp]
 448 0024 044B     		ldr	r3, .L20+8
 449 0026 2000     		movs	r0, r4
 450              	.LVL73:
 451 0028 FFF7FEFF 		bl	u8g2_SetupBuffer
 452              	.LVL74:
  71:..\..\u8g2\csrc/u8g2_d_setup.c **** }
 453              		.loc 1 71 0
 454 002c 04B0     		add	sp, sp, #16
 455              		@ sp needed
 456              	.LVL75:
 457              	.LVL76:
 458 002e 70BD     		pop	{r4, r5, r6, pc}
 459              	.L21:
 460              		.align	2
 461              	.L20:
 462 0030 00000000 		.word	u8x8_cad_001
 463 0034 00000000 		.word	u8x8_d_ssd1306_128x64_noname
 464 0038 00000000 		.word	u8g2_ll_hvline_vertical_top_lsb
 465              		.cfi_endproc
 466              	.LFE6:
 467              		.size	u8g2_Setup_ssd1306_128x64_noname_1, .-u8g2_Setup_ssd1306_128x64_noname_1
 468              		.section	.text.u8g2_Setup_ssd1306_128x64_vcomh0_1,"ax",%progbits
 469              		.align	2
 470              		.global	u8g2_Setup_ssd1306_128x64_vcomh0_1
 471              		.code	16
 472              		.thumb_func
 473              		.type	u8g2_Setup_ssd1306_128x64_vcomh0_1, %function
 474              	u8g2_Setup_ssd1306_128x64_vcomh0_1:
 475              	.LFB7:
  72:..\..\u8g2\csrc/u8g2_d_setup.c **** void u8g2_Setup_ssd1306_128x64_vcomh0_1(u8g2_t *u8g2, const u8g2_cb_t *rotation, u8x8_msg_cb byte_c
  73:..\..\u8g2\csrc/u8g2_d_setup.c **** {
 476              		.loc 1 73 0
 477              		.cfi_startproc
 478              		@ args = 0, pretend = 0, frame = 8
 479              		@ frame_needed = 0, uses_anonymous_args = 0
 480              	.LVL77:
 481 0000 70B5     		push	{r4, r5, r6, lr}
 482              		.cfi_def_cfa_offset 16
 483              		.cfi_offset 4, -16
 484              		.cfi_offset 5, -12
 485              		.cfi_offset 6, -8
 486              		.cfi_offset 14, -4
 487 0002 84B0     		sub	sp, sp, #16
 488              		.cfi_def_cfa_offset 32
 489 0004 0400     		movs	r4, r0
 490 0006 0E00     		movs	r6, r1
  74:..\..\u8g2\csrc/u8g2_d_setup.c ****   uint8_t tile_buf_height;
  75:..\..\u8g2\csrc/u8g2_d_setup.c ****   uint8_t *buf;
  76:..\..\u8g2\csrc/u8g2_d_setup.c ****   u8g2_SetupDisplay(u8g2, u8x8_d_ssd1306_128x64_vcomh0, u8x8_cad_001, byte_cb, gpio_and_delay_cb);
 491              		.loc 1 76 0
 492 0008 0093     		str	r3, [sp]
 493 000a 1300     		movs	r3, r2
 494              	.LVL78:
ARM GAS  C:\Users\arh\AppData\Local\Temp\ccfmrym3.s 			page 11


 495 000c 084A     		ldr	r2, .L23
 496              	.LVL79:
 497 000e 0949     		ldr	r1, .L23+4
 498              	.LVL80:
 499 0010 FFF7FEFF 		bl	u8x8_Setup
 500              	.LVL81:
  77:..\..\u8g2\csrc/u8g2_d_setup.c ****   buf = u8g2_m_ssd1306_16_1(&tile_buf_height);
 501              		.loc 1 77 0
 502 0014 0F25     		movs	r5, #15
 503 0016 6D44     		add	r5, r5, sp
 504 0018 2800     		movs	r0, r5
 505 001a FFF7FEFF 		bl	u8g2_m_ssd1306_16_1
 506              	.LVL82:
 507 001e 0100     		movs	r1, r0
 508              	.LVL83:
  78:..\..\u8g2\csrc/u8g2_d_setup.c ****   u8g2_SetupBuffer(u8g2, buf, tile_buf_height, u8g2_ll_hvline_vertical_top_lsb, rotation);
 509              		.loc 1 78 0
 510 0020 2A78     		ldrb	r2, [r5]
 511 0022 0096     		str	r6, [sp]
 512 0024 044B     		ldr	r3, .L23+8
 513 0026 2000     		movs	r0, r4
 514              	.LVL84:
 515 0028 FFF7FEFF 		bl	u8g2_SetupBuffer
 516              	.LVL85:
  79:..\..\u8g2\csrc/u8g2_d_setup.c **** }
 517              		.loc 1 79 0
 518 002c 04B0     		add	sp, sp, #16
 519              		@ sp needed
 520              	.LVL86:
 521              	.LVL87:
 522 002e 70BD     		pop	{r4, r5, r6, pc}
 523              	.L24:
 524              		.align	2
 525              	.L23:
 526 0030 00000000 		.word	u8x8_cad_001
 527 0034 00000000 		.word	u8x8_d_ssd1306_128x64_vcomh0
 528 0038 00000000 		.word	u8g2_ll_hvline_vertical_top_lsb
 529              		.cfi_endproc
 530              	.LFE7:
 531              		.size	u8g2_Setup_ssd1306_128x64_vcomh0_1, .-u8g2_Setup_ssd1306_128x64_vcomh0_1
 532              		.section	.text.u8g2_Setup_ssd1306_128x64_noname_2,"ax",%progbits
 533              		.align	2
 534              		.global	u8g2_Setup_ssd1306_128x64_noname_2
 535              		.code	16
 536              		.thumb_func
 537              		.type	u8g2_Setup_ssd1306_128x64_noname_2, %function
 538              	u8g2_Setup_ssd1306_128x64_noname_2:
 539              	.LFB8:
  80:..\..\u8g2\csrc/u8g2_d_setup.c **** /* ssd1306 2 */
  81:..\..\u8g2\csrc/u8g2_d_setup.c **** void u8g2_Setup_ssd1306_128x64_noname_2(u8g2_t *u8g2, const u8g2_cb_t *rotation, u8x8_msg_cb byte_c
  82:..\..\u8g2\csrc/u8g2_d_setup.c **** {
 540              		.loc 1 82 0
 541              		.cfi_startproc
 542              		@ args = 0, pretend = 0, frame = 8
 543              		@ frame_needed = 0, uses_anonymous_args = 0
 544              	.LVL88:
 545 0000 70B5     		push	{r4, r5, r6, lr}
ARM GAS  C:\Users\arh\AppData\Local\Temp\ccfmrym3.s 			page 12


 546              		.cfi_def_cfa_offset 16
 547              		.cfi_offset 4, -16
 548              		.cfi_offset 5, -12
 549              		.cfi_offset 6, -8
 550              		.cfi_offset 14, -4
 551 0002 84B0     		sub	sp, sp, #16
 552              		.cfi_def_cfa_offset 32
 553 0004 0400     		movs	r4, r0
 554 0006 0E00     		movs	r6, r1
  83:..\..\u8g2\csrc/u8g2_d_setup.c ****   uint8_t tile_buf_height;
  84:..\..\u8g2\csrc/u8g2_d_setup.c ****   uint8_t *buf;
  85:..\..\u8g2\csrc/u8g2_d_setup.c ****   u8g2_SetupDisplay(u8g2, u8x8_d_ssd1306_128x64_noname, u8x8_cad_001, byte_cb, gpio_and_delay_cb);
 555              		.loc 1 85 0
 556 0008 0093     		str	r3, [sp]
 557 000a 1300     		movs	r3, r2
 558              	.LVL89:
 559 000c 084A     		ldr	r2, .L26
 560              	.LVL90:
 561 000e 0949     		ldr	r1, .L26+4
 562              	.LVL91:
 563 0010 FFF7FEFF 		bl	u8x8_Setup
 564              	.LVL92:
  86:..\..\u8g2\csrc/u8g2_d_setup.c ****   buf = u8g2_m_ssd1306_16_2(&tile_buf_height);
 565              		.loc 1 86 0
 566 0014 0F25     		movs	r5, #15
 567 0016 6D44     		add	r5, r5, sp
 568 0018 2800     		movs	r0, r5
 569 001a FFF7FEFF 		bl	u8g2_m_ssd1306_16_2
 570              	.LVL93:
 571 001e 0100     		movs	r1, r0
 572              	.LVL94:
  87:..\..\u8g2\csrc/u8g2_d_setup.c ****   u8g2_SetupBuffer(u8g2, buf, tile_buf_height, u8g2_ll_hvline_vertical_top_lsb, rotation);
 573              		.loc 1 87 0
 574 0020 2A78     		ldrb	r2, [r5]
 575 0022 0096     		str	r6, [sp]
 576 0024 044B     		ldr	r3, .L26+8
 577 0026 2000     		movs	r0, r4
 578              	.LVL95:
 579 0028 FFF7FEFF 		bl	u8g2_SetupBuffer
 580              	.LVL96:
  88:..\..\u8g2\csrc/u8g2_d_setup.c **** }
 581              		.loc 1 88 0
 582 002c 04B0     		add	sp, sp, #16
 583              		@ sp needed
 584              	.LVL97:
 585              	.LVL98:
 586 002e 70BD     		pop	{r4, r5, r6, pc}
 587              	.L27:
 588              		.align	2
 589              	.L26:
 590 0030 00000000 		.word	u8x8_cad_001
 591 0034 00000000 		.word	u8x8_d_ssd1306_128x64_noname
 592 0038 00000000 		.word	u8g2_ll_hvline_vertical_top_lsb
 593              		.cfi_endproc
 594              	.LFE8:
 595              		.size	u8g2_Setup_ssd1306_128x64_noname_2, .-u8g2_Setup_ssd1306_128x64_noname_2
 596              		.section	.text.u8g2_Setup_ssd1306_128x64_vcomh0_2,"ax",%progbits
ARM GAS  C:\Users\arh\AppData\Local\Temp\ccfmrym3.s 			page 13


 597              		.align	2
 598              		.global	u8g2_Setup_ssd1306_128x64_vcomh0_2
 599              		.code	16
 600              		.thumb_func
 601              		.type	u8g2_Setup_ssd1306_128x64_vcomh0_2, %function
 602              	u8g2_Setup_ssd1306_128x64_vcomh0_2:
 603              	.LFB9:
  89:..\..\u8g2\csrc/u8g2_d_setup.c **** void u8g2_Setup_ssd1306_128x64_vcomh0_2(u8g2_t *u8g2, const u8g2_cb_t *rotation, u8x8_msg_cb byte_c
  90:..\..\u8g2\csrc/u8g2_d_setup.c **** {
 604              		.loc 1 90 0
 605              		.cfi_startproc
 606              		@ args = 0, pretend = 0, frame = 8
 607              		@ frame_needed = 0, uses_anonymous_args = 0
 608              	.LVL99:
 609 0000 70B5     		push	{r4, r5, r6, lr}
 610              		.cfi_def_cfa_offset 16
 611              		.cfi_offset 4, -16
 612              		.cfi_offset 5, -12
 613              		.cfi_offset 6, -8
 614              		.cfi_offset 14, -4
 615 0002 84B0     		sub	sp, sp, #16
 616              		.cfi_def_cfa_offset 32
 617 0004 0400     		movs	r4, r0
 618 0006 0E00     		movs	r6, r1
  91:..\..\u8g2\csrc/u8g2_d_setup.c ****   uint8_t tile_buf_height;
  92:..\..\u8g2\csrc/u8g2_d_setup.c ****   uint8_t *buf;
  93:..\..\u8g2\csrc/u8g2_d_setup.c ****   u8g2_SetupDisplay(u8g2, u8x8_d_ssd1306_128x64_vcomh0, u8x8_cad_001, byte_cb, gpio_and_delay_cb);
 619              		.loc 1 93 0
 620 0008 0093     		str	r3, [sp]
 621 000a 1300     		movs	r3, r2
 622              	.LVL100:
 623 000c 084A     		ldr	r2, .L29
 624              	.LVL101:
 625 000e 0949     		ldr	r1, .L29+4
 626              	.LVL102:
 627 0010 FFF7FEFF 		bl	u8x8_Setup
 628              	.LVL103:
  94:..\..\u8g2\csrc/u8g2_d_setup.c ****   buf = u8g2_m_ssd1306_16_2(&tile_buf_height);
 629              		.loc 1 94 0
 630 0014 0F25     		movs	r5, #15
 631 0016 6D44     		add	r5, r5, sp
 632 0018 2800     		movs	r0, r5
 633 001a FFF7FEFF 		bl	u8g2_m_ssd1306_16_2
 634              	.LVL104:
 635 001e 0100     		movs	r1, r0
 636              	.LVL105:
  95:..\..\u8g2\csrc/u8g2_d_setup.c ****   u8g2_SetupBuffer(u8g2, buf, tile_buf_height, u8g2_ll_hvline_vertical_top_lsb, rotation);
 637              		.loc 1 95 0
 638 0020 2A78     		ldrb	r2, [r5]
 639 0022 0096     		str	r6, [sp]
 640 0024 044B     		ldr	r3, .L29+8
 641 0026 2000     		movs	r0, r4
 642              	.LVL106:
 643 0028 FFF7FEFF 		bl	u8g2_SetupBuffer
 644              	.LVL107:
  96:..\..\u8g2\csrc/u8g2_d_setup.c **** }
 645              		.loc 1 96 0
ARM GAS  C:\Users\arh\AppData\Local\Temp\ccfmrym3.s 			page 14


 646 002c 04B0     		add	sp, sp, #16
 647              		@ sp needed
 648              	.LVL108:
 649              	.LVL109:
 650 002e 70BD     		pop	{r4, r5, r6, pc}
 651              	.L30:
 652              		.align	2
 653              	.L29:
 654 0030 00000000 		.word	u8x8_cad_001
 655 0034 00000000 		.word	u8x8_d_ssd1306_128x64_vcomh0
 656 0038 00000000 		.word	u8g2_ll_hvline_vertical_top_lsb
 657              		.cfi_endproc
 658              	.LFE9:
 659              		.size	u8g2_Setup_ssd1306_128x64_vcomh0_2, .-u8g2_Setup_ssd1306_128x64_vcomh0_2
 660              		.section	.text.u8g2_Setup_ssd1306_128x64_noname_f,"ax",%progbits
 661              		.align	2
 662              		.global	u8g2_Setup_ssd1306_128x64_noname_f
 663              		.code	16
 664              		.thumb_func
 665              		.type	u8g2_Setup_ssd1306_128x64_noname_f, %function
 666              	u8g2_Setup_ssd1306_128x64_noname_f:
 667              	.LFB10:
  97:..\..\u8g2\csrc/u8g2_d_setup.c **** /* ssd1306 f */
  98:..\..\u8g2\csrc/u8g2_d_setup.c **** void u8g2_Setup_ssd1306_128x64_noname_f(u8g2_t *u8g2, const u8g2_cb_t *rotation, u8x8_msg_cb byte_c
  99:..\..\u8g2\csrc/u8g2_d_setup.c **** {
 668              		.loc 1 99 0
 669              		.cfi_startproc
 670              		@ args = 0, pretend = 0, frame = 8
 671              		@ frame_needed = 0, uses_anonymous_args = 0
 672              	.LVL110:
 673 0000 70B5     		push	{r4, r5, r6, lr}
 674              		.cfi_def_cfa_offset 16
 675              		.cfi_offset 4, -16
 676              		.cfi_offset 5, -12
 677              		.cfi_offset 6, -8
 678              		.cfi_offset 14, -4
 679 0002 84B0     		sub	sp, sp, #16
 680              		.cfi_def_cfa_offset 32
 681 0004 0400     		movs	r4, r0
 682 0006 0E00     		movs	r6, r1
 100:..\..\u8g2\csrc/u8g2_d_setup.c ****   uint8_t tile_buf_height;
 101:..\..\u8g2\csrc/u8g2_d_setup.c ****   uint8_t *buf;
 102:..\..\u8g2\csrc/u8g2_d_setup.c ****   u8g2_SetupDisplay(u8g2, u8x8_d_ssd1306_128x64_noname, u8x8_cad_001, byte_cb, gpio_and_delay_cb);
 683              		.loc 1 102 0
 684 0008 0093     		str	r3, [sp]
 685 000a 1300     		movs	r3, r2
 686              	.LVL111:
 687 000c 084A     		ldr	r2, .L32
 688              	.LVL112:
 689 000e 0949     		ldr	r1, .L32+4
 690              	.LVL113:
 691 0010 FFF7FEFF 		bl	u8x8_Setup
 692              	.LVL114:
 103:..\..\u8g2\csrc/u8g2_d_setup.c ****   buf = u8g2_m_ssd1306_16_f(&tile_buf_height);
 693              		.loc 1 103 0
 694 0014 0F25     		movs	r5, #15
 695 0016 6D44     		add	r5, r5, sp
ARM GAS  C:\Users\arh\AppData\Local\Temp\ccfmrym3.s 			page 15


 696 0018 2800     		movs	r0, r5
 697 001a FFF7FEFF 		bl	u8g2_m_ssd1306_16_f
 698              	.LVL115:
 699 001e 0100     		movs	r1, r0
 700              	.LVL116:
 104:..\..\u8g2\csrc/u8g2_d_setup.c ****   u8g2_SetupBuffer(u8g2, buf, tile_buf_height, u8g2_ll_hvline_vertical_top_lsb, rotation);
 701              		.loc 1 104 0
 702 0020 2A78     		ldrb	r2, [r5]
 703 0022 0096     		str	r6, [sp]
 704 0024 044B     		ldr	r3, .L32+8
 705 0026 2000     		movs	r0, r4
 706              	.LVL117:
 707 0028 FFF7FEFF 		bl	u8g2_SetupBuffer
 708              	.LVL118:
 105:..\..\u8g2\csrc/u8g2_d_setup.c **** }
 709              		.loc 1 105 0
 710 002c 04B0     		add	sp, sp, #16
 711              		@ sp needed
 712              	.LVL119:
 713              	.LVL120:
 714 002e 70BD     		pop	{r4, r5, r6, pc}
 715              	.L33:
 716              		.align	2
 717              	.L32:
 718 0030 00000000 		.word	u8x8_cad_001
 719 0034 00000000 		.word	u8x8_d_ssd1306_128x64_noname
 720 0038 00000000 		.word	u8g2_ll_hvline_vertical_top_lsb
 721              		.cfi_endproc
 722              	.LFE10:
 723              		.size	u8g2_Setup_ssd1306_128x64_noname_f, .-u8g2_Setup_ssd1306_128x64_noname_f
 724              		.section	.text.u8g2_Setup_ssd1306_128x64_vcomh0_f,"ax",%progbits
 725              		.align	2
 726              		.global	u8g2_Setup_ssd1306_128x64_vcomh0_f
 727              		.code	16
 728              		.thumb_func
 729              		.type	u8g2_Setup_ssd1306_128x64_vcomh0_f, %function
 730              	u8g2_Setup_ssd1306_128x64_vcomh0_f:
 731              	.LFB11:
 106:..\..\u8g2\csrc/u8g2_d_setup.c **** void u8g2_Setup_ssd1306_128x64_vcomh0_f(u8g2_t *u8g2, const u8g2_cb_t *rotation, u8x8_msg_cb byte_c
 107:..\..\u8g2\csrc/u8g2_d_setup.c **** {
 732              		.loc 1 107 0
 733              		.cfi_startproc
 734              		@ args = 0, pretend = 0, frame = 8
 735              		@ frame_needed = 0, uses_anonymous_args = 0
 736              	.LVL121:
 737 0000 70B5     		push	{r4, r5, r6, lr}
 738              		.cfi_def_cfa_offset 16
 739              		.cfi_offset 4, -16
 740              		.cfi_offset 5, -12
 741              		.cfi_offset 6, -8
 742              		.cfi_offset 14, -4
 743 0002 84B0     		sub	sp, sp, #16
 744              		.cfi_def_cfa_offset 32
 745 0004 0400     		movs	r4, r0
 746 0006 0E00     		movs	r6, r1
 108:..\..\u8g2\csrc/u8g2_d_setup.c ****   uint8_t tile_buf_height;
 109:..\..\u8g2\csrc/u8g2_d_setup.c ****   uint8_t *buf;
ARM GAS  C:\Users\arh\AppData\Local\Temp\ccfmrym3.s 			page 16


 110:..\..\u8g2\csrc/u8g2_d_setup.c ****   u8g2_SetupDisplay(u8g2, u8x8_d_ssd1306_128x64_vcomh0, u8x8_cad_001, byte_cb, gpio_and_delay_cb);
 747              		.loc 1 110 0
 748 0008 0093     		str	r3, [sp]
 749 000a 1300     		movs	r3, r2
 750              	.LVL122:
 751 000c 084A     		ldr	r2, .L35
 752              	.LVL123:
 753 000e 0949     		ldr	r1, .L35+4
 754              	.LVL124:
 755 0010 FFF7FEFF 		bl	u8x8_Setup
 756              	.LVL125:
 111:..\..\u8g2\csrc/u8g2_d_setup.c ****   buf = u8g2_m_ssd1306_16_f(&tile_buf_height);
 757              		.loc 1 111 0
 758 0014 0F25     		movs	r5, #15
 759 0016 6D44     		add	r5, r5, sp
 760 0018 2800     		movs	r0, r5
 761 001a FFF7FEFF 		bl	u8g2_m_ssd1306_16_f
 762              	.LVL126:
 763 001e 0100     		movs	r1, r0
 764              	.LVL127:
 112:..\..\u8g2\csrc/u8g2_d_setup.c ****   u8g2_SetupBuffer(u8g2, buf, tile_buf_height, u8g2_ll_hvline_vertical_top_lsb, rotation);
 765              		.loc 1 112 0
 766 0020 2A78     		ldrb	r2, [r5]
 767 0022 0096     		str	r6, [sp]
 768 0024 044B     		ldr	r3, .L35+8
 769 0026 2000     		movs	r0, r4
 770              	.LVL128:
 771 0028 FFF7FEFF 		bl	u8g2_SetupBuffer
 772              	.LVL129:
 113:..\..\u8g2\csrc/u8g2_d_setup.c **** }
 773              		.loc 1 113 0
 774 002c 04B0     		add	sp, sp, #16
 775              		@ sp needed
 776              	.LVL130:
 777              	.LVL131:
 778 002e 70BD     		pop	{r4, r5, r6, pc}
 779              	.L36:
 780              		.align	2
 781              	.L35:
 782 0030 00000000 		.word	u8x8_cad_001
 783 0034 00000000 		.word	u8x8_d_ssd1306_128x64_vcomh0
 784 0038 00000000 		.word	u8g2_ll_hvline_vertical_top_lsb
 785              		.cfi_endproc
 786              	.LFE11:
 787              		.size	u8g2_Setup_ssd1306_128x64_vcomh0_f, .-u8g2_Setup_ssd1306_128x64_vcomh0_f
 788              		.section	.text.u8g2_Setup_ssd1306_i2c_128x64_noname_1,"ax",%progbits
 789              		.align	2
 790              		.global	u8g2_Setup_ssd1306_i2c_128x64_noname_1
 791              		.code	16
 792              		.thumb_func
 793              		.type	u8g2_Setup_ssd1306_i2c_128x64_noname_1, %function
 794              	u8g2_Setup_ssd1306_i2c_128x64_noname_1:
 795              	.LFB12:
 114:..\..\u8g2\csrc/u8g2_d_setup.c **** /* ssd1306 */
 115:..\..\u8g2\csrc/u8g2_d_setup.c **** /* ssd1306 1 */
 116:..\..\u8g2\csrc/u8g2_d_setup.c **** void u8g2_Setup_ssd1306_i2c_128x64_noname_1(u8g2_t *u8g2, const u8g2_cb_t *rotation, u8x8_msg_cb by
 117:..\..\u8g2\csrc/u8g2_d_setup.c **** {
ARM GAS  C:\Users\arh\AppData\Local\Temp\ccfmrym3.s 			page 17


 796              		.loc 1 117 0
 797              		.cfi_startproc
 798              		@ args = 0, pretend = 0, frame = 8
 799              		@ frame_needed = 0, uses_anonymous_args = 0
 800              	.LVL132:
 801 0000 70B5     		push	{r4, r5, r6, lr}
 802              		.cfi_def_cfa_offset 16
 803              		.cfi_offset 4, -16
 804              		.cfi_offset 5, -12
 805              		.cfi_offset 6, -8
 806              		.cfi_offset 14, -4
 807 0002 84B0     		sub	sp, sp, #16
 808              		.cfi_def_cfa_offset 32
 809 0004 0400     		movs	r4, r0
 810 0006 0E00     		movs	r6, r1
 118:..\..\u8g2\csrc/u8g2_d_setup.c ****   uint8_t tile_buf_height;
 119:..\..\u8g2\csrc/u8g2_d_setup.c ****   uint8_t *buf;
 120:..\..\u8g2\csrc/u8g2_d_setup.c ****   u8g2_SetupDisplay(u8g2, u8x8_d_ssd1306_128x64_noname, u8x8_cad_ssd13xx_i2c, byte_cb, gpio_and_del
 811              		.loc 1 120 0
 812 0008 0093     		str	r3, [sp]
 813 000a 1300     		movs	r3, r2
 814              	.LVL133:
 815 000c 084A     		ldr	r2, .L38
 816              	.LVL134:
 817 000e 0949     		ldr	r1, .L38+4
 818              	.LVL135:
 819 0010 FFF7FEFF 		bl	u8x8_Setup
 820              	.LVL136:
 121:..\..\u8g2\csrc/u8g2_d_setup.c ****   buf = u8g2_m_ssd1306_16_1(&tile_buf_height);
 821              		.loc 1 121 0
 822 0014 0F25     		movs	r5, #15
 823 0016 6D44     		add	r5, r5, sp
 824 0018 2800     		movs	r0, r5
 825 001a FFF7FEFF 		bl	u8g2_m_ssd1306_16_1
 826              	.LVL137:
 827 001e 0100     		movs	r1, r0
 828              	.LVL138:
 122:..\..\u8g2\csrc/u8g2_d_setup.c ****   u8g2_SetupBuffer(u8g2, buf, tile_buf_height, u8g2_ll_hvline_vertical_top_lsb, rotation);
 829              		.loc 1 122 0
 830 0020 2A78     		ldrb	r2, [r5]
 831 0022 0096     		str	r6, [sp]
 832 0024 044B     		ldr	r3, .L38+8
 833 0026 2000     		movs	r0, r4
 834              	.LVL139:
 835 0028 FFF7FEFF 		bl	u8g2_SetupBuffer
 836              	.LVL140:
 123:..\..\u8g2\csrc/u8g2_d_setup.c **** }
 837              		.loc 1 123 0
 838 002c 04B0     		add	sp, sp, #16
 839              		@ sp needed
 840              	.LVL141:
 841              	.LVL142:
 842 002e 70BD     		pop	{r4, r5, r6, pc}
 843              	.L39:
 844              		.align	2
 845              	.L38:
 846 0030 00000000 		.word	u8x8_cad_ssd13xx_i2c
ARM GAS  C:\Users\arh\AppData\Local\Temp\ccfmrym3.s 			page 18


 847 0034 00000000 		.word	u8x8_d_ssd1306_128x64_noname
 848 0038 00000000 		.word	u8g2_ll_hvline_vertical_top_lsb
 849              		.cfi_endproc
 850              	.LFE12:
 851              		.size	u8g2_Setup_ssd1306_i2c_128x64_noname_1, .-u8g2_Setup_ssd1306_i2c_128x64_noname_1
 852              		.section	.text.u8g2_Setup_ssd1306_i2c_128x64_vcomh0_1,"ax",%progbits
 853              		.align	2
 854              		.global	u8g2_Setup_ssd1306_i2c_128x64_vcomh0_1
 855              		.code	16
 856              		.thumb_func
 857              		.type	u8g2_Setup_ssd1306_i2c_128x64_vcomh0_1, %function
 858              	u8g2_Setup_ssd1306_i2c_128x64_vcomh0_1:
 859              	.LFB13:
 124:..\..\u8g2\csrc/u8g2_d_setup.c **** void u8g2_Setup_ssd1306_i2c_128x64_vcomh0_1(u8g2_t *u8g2, const u8g2_cb_t *rotation, u8x8_msg_cb by
 125:..\..\u8g2\csrc/u8g2_d_setup.c **** {
 860              		.loc 1 125 0
 861              		.cfi_startproc
 862              		@ args = 0, pretend = 0, frame = 8
 863              		@ frame_needed = 0, uses_anonymous_args = 0
 864              	.LVL143:
 865 0000 70B5     		push	{r4, r5, r6, lr}
 866              		.cfi_def_cfa_offset 16
 867              		.cfi_offset 4, -16
 868              		.cfi_offset 5, -12
 869              		.cfi_offset 6, -8
 870              		.cfi_offset 14, -4
 871 0002 84B0     		sub	sp, sp, #16
 872              		.cfi_def_cfa_offset 32
 873 0004 0400     		movs	r4, r0
 874 0006 0E00     		movs	r6, r1
 126:..\..\u8g2\csrc/u8g2_d_setup.c ****   uint8_t tile_buf_height;
 127:..\..\u8g2\csrc/u8g2_d_setup.c ****   uint8_t *buf;
 128:..\..\u8g2\csrc/u8g2_d_setup.c ****   u8g2_SetupDisplay(u8g2, u8x8_d_ssd1306_128x64_vcomh0, u8x8_cad_ssd13xx_i2c, byte_cb, gpio_and_del
 875              		.loc 1 128 0
 876 0008 0093     		str	r3, [sp]
 877 000a 1300     		movs	r3, r2
 878              	.LVL144:
 879 000c 084A     		ldr	r2, .L41
 880              	.LVL145:
 881 000e 0949     		ldr	r1, .L41+4
 882              	.LVL146:
 883 0010 FFF7FEFF 		bl	u8x8_Setup
 884              	.LVL147:
 129:..\..\u8g2\csrc/u8g2_d_setup.c ****   buf = u8g2_m_ssd1306_16_1(&tile_buf_height);
 885              		.loc 1 129 0
 886 0014 0F25     		movs	r5, #15
 887 0016 6D44     		add	r5, r5, sp
 888 0018 2800     		movs	r0, r5
 889 001a FFF7FEFF 		bl	u8g2_m_ssd1306_16_1
 890              	.LVL148:
 891 001e 0100     		movs	r1, r0
 892              	.LVL149:
 130:..\..\u8g2\csrc/u8g2_d_setup.c ****   u8g2_SetupBuffer(u8g2, buf, tile_buf_height, u8g2_ll_hvline_vertical_top_lsb, rotation);
 893              		.loc 1 130 0
 894 0020 2A78     		ldrb	r2, [r5]
 895 0022 0096     		str	r6, [sp]
 896 0024 044B     		ldr	r3, .L41+8
ARM GAS  C:\Users\arh\AppData\Local\Temp\ccfmrym3.s 			page 19


 897 0026 2000     		movs	r0, r4
 898              	.LVL150:
 899 0028 FFF7FEFF 		bl	u8g2_SetupBuffer
 900              	.LVL151:
 131:..\..\u8g2\csrc/u8g2_d_setup.c **** }
 901              		.loc 1 131 0
 902 002c 04B0     		add	sp, sp, #16
 903              		@ sp needed
 904              	.LVL152:
 905              	.LVL153:
 906 002e 70BD     		pop	{r4, r5, r6, pc}
 907              	.L42:
 908              		.align	2
 909              	.L41:
 910 0030 00000000 		.word	u8x8_cad_ssd13xx_i2c
 911 0034 00000000 		.word	u8x8_d_ssd1306_128x64_vcomh0
 912 0038 00000000 		.word	u8g2_ll_hvline_vertical_top_lsb
 913              		.cfi_endproc
 914              	.LFE13:
 915              		.size	u8g2_Setup_ssd1306_i2c_128x64_vcomh0_1, .-u8g2_Setup_ssd1306_i2c_128x64_vcomh0_1
 916              		.section	.text.u8g2_Setup_ssd1306_i2c_128x64_noname_2,"ax",%progbits
 917              		.align	2
 918              		.global	u8g2_Setup_ssd1306_i2c_128x64_noname_2
 919              		.code	16
 920              		.thumb_func
 921              		.type	u8g2_Setup_ssd1306_i2c_128x64_noname_2, %function
 922              	u8g2_Setup_ssd1306_i2c_128x64_noname_2:
 923              	.LFB14:
 132:..\..\u8g2\csrc/u8g2_d_setup.c **** /* ssd1306 2 */
 133:..\..\u8g2\csrc/u8g2_d_setup.c **** void u8g2_Setup_ssd1306_i2c_128x64_noname_2(u8g2_t *u8g2, const u8g2_cb_t *rotation, u8x8_msg_cb by
 134:..\..\u8g2\csrc/u8g2_d_setup.c **** {
 924              		.loc 1 134 0
 925              		.cfi_startproc
 926              		@ args = 0, pretend = 0, frame = 8
 927              		@ frame_needed = 0, uses_anonymous_args = 0
 928              	.LVL154:
 929 0000 70B5     		push	{r4, r5, r6, lr}
 930              		.cfi_def_cfa_offset 16
 931              		.cfi_offset 4, -16
 932              		.cfi_offset 5, -12
 933              		.cfi_offset 6, -8
 934              		.cfi_offset 14, -4
 935 0002 84B0     		sub	sp, sp, #16
 936              		.cfi_def_cfa_offset 32
 937 0004 0400     		movs	r4, r0
 938 0006 0E00     		movs	r6, r1
 135:..\..\u8g2\csrc/u8g2_d_setup.c ****   uint8_t tile_buf_height;
 136:..\..\u8g2\csrc/u8g2_d_setup.c ****   uint8_t *buf;
 137:..\..\u8g2\csrc/u8g2_d_setup.c ****   u8g2_SetupDisplay(u8g2, u8x8_d_ssd1306_128x64_noname, u8x8_cad_ssd13xx_i2c, byte_cb, gpio_and_del
 939              		.loc 1 137 0
 940 0008 0093     		str	r3, [sp]
 941 000a 1300     		movs	r3, r2
 942              	.LVL155:
 943 000c 084A     		ldr	r2, .L44
 944              	.LVL156:
 945 000e 0949     		ldr	r1, .L44+4
 946              	.LVL157:
ARM GAS  C:\Users\arh\AppData\Local\Temp\ccfmrym3.s 			page 20


 947 0010 FFF7FEFF 		bl	u8x8_Setup
 948              	.LVL158:
 138:..\..\u8g2\csrc/u8g2_d_setup.c ****   buf = u8g2_m_ssd1306_16_2(&tile_buf_height);
 949              		.loc 1 138 0
 950 0014 0F25     		movs	r5, #15
 951 0016 6D44     		add	r5, r5, sp
 952 0018 2800     		movs	r0, r5
 953 001a FFF7FEFF 		bl	u8g2_m_ssd1306_16_2
 954              	.LVL159:
 955 001e 0100     		movs	r1, r0
 956              	.LVL160:
 139:..\..\u8g2\csrc/u8g2_d_setup.c ****   u8g2_SetupBuffer(u8g2, buf, tile_buf_height, u8g2_ll_hvline_vertical_top_lsb, rotation);
 957              		.loc 1 139 0
 958 0020 2A78     		ldrb	r2, [r5]
 959 0022 0096     		str	r6, [sp]
 960 0024 044B     		ldr	r3, .L44+8
 961 0026 2000     		movs	r0, r4
 962              	.LVL161:
 963 0028 FFF7FEFF 		bl	u8g2_SetupBuffer
 964              	.LVL162:
 140:..\..\u8g2\csrc/u8g2_d_setup.c **** }
 965              		.loc 1 140 0
 966 002c 04B0     		add	sp, sp, #16
 967              		@ sp needed
 968              	.LVL163:
 969              	.LVL164:
 970 002e 70BD     		pop	{r4, r5, r6, pc}
 971              	.L45:
 972              		.align	2
 973              	.L44:
 974 0030 00000000 		.word	u8x8_cad_ssd13xx_i2c
 975 0034 00000000 		.word	u8x8_d_ssd1306_128x64_noname
 976 0038 00000000 		.word	u8g2_ll_hvline_vertical_top_lsb
 977              		.cfi_endproc
 978              	.LFE14:
 979              		.size	u8g2_Setup_ssd1306_i2c_128x64_noname_2, .-u8g2_Setup_ssd1306_i2c_128x64_noname_2
 980              		.section	.text.u8g2_Setup_ssd1306_i2c_128x64_vcomh0_2,"ax",%progbits
 981              		.align	2
 982              		.global	u8g2_Setup_ssd1306_i2c_128x64_vcomh0_2
 983              		.code	16
 984              		.thumb_func
 985              		.type	u8g2_Setup_ssd1306_i2c_128x64_vcomh0_2, %function
 986              	u8g2_Setup_ssd1306_i2c_128x64_vcomh0_2:
 987              	.LFB15:
 141:..\..\u8g2\csrc/u8g2_d_setup.c **** void u8g2_Setup_ssd1306_i2c_128x64_vcomh0_2(u8g2_t *u8g2, const u8g2_cb_t *rotation, u8x8_msg_cb by
 142:..\..\u8g2\csrc/u8g2_d_setup.c **** {
 988              		.loc 1 142 0
 989              		.cfi_startproc
 990              		@ args = 0, pretend = 0, frame = 8
 991              		@ frame_needed = 0, uses_anonymous_args = 0
 992              	.LVL165:
 993 0000 70B5     		push	{r4, r5, r6, lr}
 994              		.cfi_def_cfa_offset 16
 995              		.cfi_offset 4, -16
 996              		.cfi_offset 5, -12
 997              		.cfi_offset 6, -8
 998              		.cfi_offset 14, -4
ARM GAS  C:\Users\arh\AppData\Local\Temp\ccfmrym3.s 			page 21


 999 0002 84B0     		sub	sp, sp, #16
 1000              		.cfi_def_cfa_offset 32
 1001 0004 0400     		movs	r4, r0
 1002 0006 0E00     		movs	r6, r1
 143:..\..\u8g2\csrc/u8g2_d_setup.c ****   uint8_t tile_buf_height;
 144:..\..\u8g2\csrc/u8g2_d_setup.c ****   uint8_t *buf;
 145:..\..\u8g2\csrc/u8g2_d_setup.c ****   u8g2_SetupDisplay(u8g2, u8x8_d_ssd1306_128x64_vcomh0, u8x8_cad_ssd13xx_i2c, byte_cb, gpio_and_del
 1003              		.loc 1 145 0
 1004 0008 0093     		str	r3, [sp]
 1005 000a 1300     		movs	r3, r2
 1006              	.LVL166:
 1007 000c 084A     		ldr	r2, .L47
 1008              	.LVL167:
 1009 000e 0949     		ldr	r1, .L47+4
 1010              	.LVL168:
 1011 0010 FFF7FEFF 		bl	u8x8_Setup
 1012              	.LVL169:
 146:..\..\u8g2\csrc/u8g2_d_setup.c ****   buf = u8g2_m_ssd1306_16_2(&tile_buf_height);
 1013              		.loc 1 146 0
 1014 0014 0F25     		movs	r5, #15
 1015 0016 6D44     		add	r5, r5, sp
 1016 0018 2800     		movs	r0, r5
 1017 001a FFF7FEFF 		bl	u8g2_m_ssd1306_16_2
 1018              	.LVL170:
 1019 001e 0100     		movs	r1, r0
 1020              	.LVL171:
 147:..\..\u8g2\csrc/u8g2_d_setup.c ****   u8g2_SetupBuffer(u8g2, buf, tile_buf_height, u8g2_ll_hvline_vertical_top_lsb, rotation);
 1021              		.loc 1 147 0
 1022 0020 2A78     		ldrb	r2, [r5]
 1023 0022 0096     		str	r6, [sp]
 1024 0024 044B     		ldr	r3, .L47+8
 1025 0026 2000     		movs	r0, r4
 1026              	.LVL172:
 1027 0028 FFF7FEFF 		bl	u8g2_SetupBuffer
 1028              	.LVL173:
 148:..\..\u8g2\csrc/u8g2_d_setup.c **** }
 1029              		.loc 1 148 0
 1030 002c 04B0     		add	sp, sp, #16
 1031              		@ sp needed
 1032              	.LVL174:
 1033              	.LVL175:
 1034 002e 70BD     		pop	{r4, r5, r6, pc}
 1035              	.L48:
 1036              		.align	2
 1037              	.L47:
 1038 0030 00000000 		.word	u8x8_cad_ssd13xx_i2c
 1039 0034 00000000 		.word	u8x8_d_ssd1306_128x64_vcomh0
 1040 0038 00000000 		.word	u8g2_ll_hvline_vertical_top_lsb
 1041              		.cfi_endproc
 1042              	.LFE15:
 1043              		.size	u8g2_Setup_ssd1306_i2c_128x64_vcomh0_2, .-u8g2_Setup_ssd1306_i2c_128x64_vcomh0_2
 1044              		.section	.text.u8g2_Setup_ssd1306_i2c_128x64_noname_f,"ax",%progbits
 1045              		.align	2
 1046              		.global	u8g2_Setup_ssd1306_i2c_128x64_noname_f
 1047              		.code	16
 1048              		.thumb_func
 1049              		.type	u8g2_Setup_ssd1306_i2c_128x64_noname_f, %function
ARM GAS  C:\Users\arh\AppData\Local\Temp\ccfmrym3.s 			page 22


 1050              	u8g2_Setup_ssd1306_i2c_128x64_noname_f:
 1051              	.LFB16:
 149:..\..\u8g2\csrc/u8g2_d_setup.c **** /* ssd1306 f */
 150:..\..\u8g2\csrc/u8g2_d_setup.c **** void u8g2_Setup_ssd1306_i2c_128x64_noname_f(u8g2_t *u8g2, const u8g2_cb_t *rotation, u8x8_msg_cb by
 151:..\..\u8g2\csrc/u8g2_d_setup.c **** {
 1052              		.loc 1 151 0
 1053              		.cfi_startproc
 1054              		@ args = 0, pretend = 0, frame = 8
 1055              		@ frame_needed = 0, uses_anonymous_args = 0
 1056              	.LVL176:
 1057 0000 70B5     		push	{r4, r5, r6, lr}
 1058              		.cfi_def_cfa_offset 16
 1059              		.cfi_offset 4, -16
 1060              		.cfi_offset 5, -12
 1061              		.cfi_offset 6, -8
 1062              		.cfi_offset 14, -4
 1063 0002 84B0     		sub	sp, sp, #16
 1064              		.cfi_def_cfa_offset 32
 1065 0004 0400     		movs	r4, r0
 1066 0006 0E00     		movs	r6, r1
 152:..\..\u8g2\csrc/u8g2_d_setup.c ****   uint8_t tile_buf_height;
 153:..\..\u8g2\csrc/u8g2_d_setup.c ****   uint8_t *buf;
 154:..\..\u8g2\csrc/u8g2_d_setup.c ****   u8g2_SetupDisplay(u8g2, u8x8_d_ssd1306_128x64_noname, u8x8_cad_ssd13xx_i2c, byte_cb, gpio_and_del
 1067              		.loc 1 154 0
 1068 0008 0093     		str	r3, [sp]
 1069 000a 1300     		movs	r3, r2
 1070              	.LVL177:
 1071 000c 084A     		ldr	r2, .L50
 1072              	.LVL178:
 1073 000e 0949     		ldr	r1, .L50+4
 1074              	.LVL179:
 1075 0010 FFF7FEFF 		bl	u8x8_Setup
 1076              	.LVL180:
 155:..\..\u8g2\csrc/u8g2_d_setup.c ****   buf = u8g2_m_ssd1306_16_f(&tile_buf_height);
 1077              		.loc 1 155 0
 1078 0014 0F25     		movs	r5, #15
 1079 0016 6D44     		add	r5, r5, sp
 1080 0018 2800     		movs	r0, r5
 1081 001a FFF7FEFF 		bl	u8g2_m_ssd1306_16_f
 1082              	.LVL181:
 1083 001e 0100     		movs	r1, r0
 1084              	.LVL182:
 156:..\..\u8g2\csrc/u8g2_d_setup.c ****   u8g2_SetupBuffer(u8g2, buf, tile_buf_height, u8g2_ll_hvline_vertical_top_lsb, rotation);
 1085              		.loc 1 156 0
 1086 0020 2A78     		ldrb	r2, [r5]
 1087 0022 0096     		str	r6, [sp]
 1088 0024 044B     		ldr	r3, .L50+8
 1089 0026 2000     		movs	r0, r4
 1090              	.LVL183:
 1091 0028 FFF7FEFF 		bl	u8g2_SetupBuffer
 1092              	.LVL184:
 157:..\..\u8g2\csrc/u8g2_d_setup.c **** }
 1093              		.loc 1 157 0
 1094 002c 04B0     		add	sp, sp, #16
 1095              		@ sp needed
 1096              	.LVL185:
 1097              	.LVL186:
ARM GAS  C:\Users\arh\AppData\Local\Temp\ccfmrym3.s 			page 23


 1098 002e 70BD     		pop	{r4, r5, r6, pc}
 1099              	.L51:
 1100              		.align	2
 1101              	.L50:
 1102 0030 00000000 		.word	u8x8_cad_ssd13xx_i2c
 1103 0034 00000000 		.word	u8x8_d_ssd1306_128x64_noname
 1104 0038 00000000 		.word	u8g2_ll_hvline_vertical_top_lsb
 1105              		.cfi_endproc
 1106              	.LFE16:
 1107              		.size	u8g2_Setup_ssd1306_i2c_128x64_noname_f, .-u8g2_Setup_ssd1306_i2c_128x64_noname_f
 1108              		.section	.text.u8g2_Setup_ssd1306_i2c_128x64_vcomh0_f,"ax",%progbits
 1109              		.align	2
 1110              		.global	u8g2_Setup_ssd1306_i2c_128x64_vcomh0_f
 1111              		.code	16
 1112              		.thumb_func
 1113              		.type	u8g2_Setup_ssd1306_i2c_128x64_vcomh0_f, %function
 1114              	u8g2_Setup_ssd1306_i2c_128x64_vcomh0_f:
 1115              	.LFB17:
 158:..\..\u8g2\csrc/u8g2_d_setup.c **** void u8g2_Setup_ssd1306_i2c_128x64_vcomh0_f(u8g2_t *u8g2, const u8g2_cb_t *rotation, u8x8_msg_cb by
 159:..\..\u8g2\csrc/u8g2_d_setup.c **** {
 1116              		.loc 1 159 0
 1117              		.cfi_startproc
 1118              		@ args = 0, pretend = 0, frame = 8
 1119              		@ frame_needed = 0, uses_anonymous_args = 0
 1120              	.LVL187:
 1121 0000 70B5     		push	{r4, r5, r6, lr}
 1122              		.cfi_def_cfa_offset 16
 1123              		.cfi_offset 4, -16
 1124              		.cfi_offset 5, -12
 1125              		.cfi_offset 6, -8
 1126              		.cfi_offset 14, -4
 1127 0002 84B0     		sub	sp, sp, #16
 1128              		.cfi_def_cfa_offset 32
 1129 0004 0400     		movs	r4, r0
 1130 0006 0E00     		movs	r6, r1
 160:..\..\u8g2\csrc/u8g2_d_setup.c ****   uint8_t tile_buf_height;
 161:..\..\u8g2\csrc/u8g2_d_setup.c ****   uint8_t *buf;
 162:..\..\u8g2\csrc/u8g2_d_setup.c ****   u8g2_SetupDisplay(u8g2, u8x8_d_ssd1306_128x64_vcomh0, u8x8_cad_ssd13xx_i2c, byte_cb, gpio_and_del
 1131              		.loc 1 162 0
 1132 0008 0093     		str	r3, [sp]
 1133 000a 1300     		movs	r3, r2
 1134              	.LVL188:
 1135 000c 084A     		ldr	r2, .L53
 1136              	.LVL189:
 1137 000e 0949     		ldr	r1, .L53+4
 1138              	.LVL190:
 1139 0010 FFF7FEFF 		bl	u8x8_Setup
 1140              	.LVL191:
 163:..\..\u8g2\csrc/u8g2_d_setup.c ****   buf = u8g2_m_ssd1306_16_f(&tile_buf_height);
 1141              		.loc 1 163 0
 1142 0014 0F25     		movs	r5, #15
 1143 0016 6D44     		add	r5, r5, sp
 1144 0018 2800     		movs	r0, r5
 1145 001a FFF7FEFF 		bl	u8g2_m_ssd1306_16_f
 1146              	.LVL192:
 1147 001e 0100     		movs	r1, r0
 1148              	.LVL193:
ARM GAS  C:\Users\arh\AppData\Local\Temp\ccfmrym3.s 			page 24


 164:..\..\u8g2\csrc/u8g2_d_setup.c ****   u8g2_SetupBuffer(u8g2, buf, tile_buf_height, u8g2_ll_hvline_vertical_top_lsb, rotation);
 1149              		.loc 1 164 0
 1150 0020 2A78     		ldrb	r2, [r5]
 1151 0022 0096     		str	r6, [sp]
 1152 0024 044B     		ldr	r3, .L53+8
 1153 0026 2000     		movs	r0, r4
 1154              	.LVL194:
 1155 0028 FFF7FEFF 		bl	u8g2_SetupBuffer
 1156              	.LVL195:
 165:..\..\u8g2\csrc/u8g2_d_setup.c **** }
 1157              		.loc 1 165 0
 1158 002c 04B0     		add	sp, sp, #16
 1159              		@ sp needed
 1160              	.LVL196:
 1161              	.LVL197:
 1162 002e 70BD     		pop	{r4, r5, r6, pc}
 1163              	.L54:
 1164              		.align	2
 1165              	.L53:
 1166 0030 00000000 		.word	u8x8_cad_ssd13xx_i2c
 1167 0034 00000000 		.word	u8x8_d_ssd1306_128x64_vcomh0
 1168 0038 00000000 		.word	u8g2_ll_hvline_vertical_top_lsb
 1169              		.cfi_endproc
 1170              	.LFE17:
 1171              		.size	u8g2_Setup_ssd1306_i2c_128x64_vcomh0_f, .-u8g2_Setup_ssd1306_i2c_128x64_vcomh0_f
 1172              		.section	.text.u8g2_Setup_sh1106_128x64_noname_1,"ax",%progbits
 1173              		.align	2
 1174              		.global	u8g2_Setup_sh1106_128x64_noname_1
 1175              		.code	16
 1176              		.thumb_func
 1177              		.type	u8g2_Setup_sh1106_128x64_noname_1, %function
 1178              	u8g2_Setup_sh1106_128x64_noname_1:
 1179              	.LFB18:
 166:..\..\u8g2\csrc/u8g2_d_setup.c **** /* sh1106 */
 167:..\..\u8g2\csrc/u8g2_d_setup.c **** /* sh1106 1 */
 168:..\..\u8g2\csrc/u8g2_d_setup.c **** void u8g2_Setup_sh1106_128x64_noname_1(u8g2_t *u8g2, const u8g2_cb_t *rotation, u8x8_msg_cb byte_cb
 169:..\..\u8g2\csrc/u8g2_d_setup.c **** {
 1180              		.loc 1 169 0
 1181              		.cfi_startproc
 1182              		@ args = 0, pretend = 0, frame = 8
 1183              		@ frame_needed = 0, uses_anonymous_args = 0
 1184              	.LVL198:
 1185 0000 70B5     		push	{r4, r5, r6, lr}
 1186              		.cfi_def_cfa_offset 16
 1187              		.cfi_offset 4, -16
 1188              		.cfi_offset 5, -12
 1189              		.cfi_offset 6, -8
 1190              		.cfi_offset 14, -4
 1191 0002 84B0     		sub	sp, sp, #16
 1192              		.cfi_def_cfa_offset 32
 1193 0004 0400     		movs	r4, r0
 1194 0006 0E00     		movs	r6, r1
 170:..\..\u8g2\csrc/u8g2_d_setup.c ****   uint8_t tile_buf_height;
 171:..\..\u8g2\csrc/u8g2_d_setup.c ****   uint8_t *buf;
 172:..\..\u8g2\csrc/u8g2_d_setup.c ****   u8g2_SetupDisplay(u8g2, u8x8_d_sh1106_128x64_noname, u8x8_cad_001, byte_cb, gpio_and_delay_cb);
 1195              		.loc 1 172 0
 1196 0008 0093     		str	r3, [sp]
ARM GAS  C:\Users\arh\AppData\Local\Temp\ccfmrym3.s 			page 25


 1197 000a 1300     		movs	r3, r2
 1198              	.LVL199:
 1199 000c 084A     		ldr	r2, .L56
 1200              	.LVL200:
 1201 000e 0949     		ldr	r1, .L56+4
 1202              	.LVL201:
 1203 0010 FFF7FEFF 		bl	u8x8_Setup
 1204              	.LVL202:
 173:..\..\u8g2\csrc/u8g2_d_setup.c ****   buf = u8g2_m_sh1106_16_1(&tile_buf_height);
 1205              		.loc 1 173 0
 1206 0014 0F25     		movs	r5, #15
 1207 0016 6D44     		add	r5, r5, sp
 1208 0018 2800     		movs	r0, r5
 1209 001a FFF7FEFF 		bl	u8g2_m_sh1106_16_1
 1210              	.LVL203:
 1211 001e 0100     		movs	r1, r0
 1212              	.LVL204:
 174:..\..\u8g2\csrc/u8g2_d_setup.c ****   u8g2_SetupBuffer(u8g2, buf, tile_buf_height, u8g2_ll_hvline_vertical_top_lsb, rotation);
 1213              		.loc 1 174 0
 1214 0020 2A78     		ldrb	r2, [r5]
 1215 0022 0096     		str	r6, [sp]
 1216 0024 044B     		ldr	r3, .L56+8
 1217 0026 2000     		movs	r0, r4
 1218              	.LVL205:
 1219 0028 FFF7FEFF 		bl	u8g2_SetupBuffer
 1220              	.LVL206:
 175:..\..\u8g2\csrc/u8g2_d_setup.c **** }
 1221              		.loc 1 175 0
 1222 002c 04B0     		add	sp, sp, #16
 1223              		@ sp needed
 1224              	.LVL207:
 1225              	.LVL208:
 1226 002e 70BD     		pop	{r4, r5, r6, pc}
 1227              	.L57:
 1228              		.align	2
 1229              	.L56:
 1230 0030 00000000 		.word	u8x8_cad_001
 1231 0034 00000000 		.word	u8x8_d_sh1106_128x64_noname
 1232 0038 00000000 		.word	u8g2_ll_hvline_vertical_top_lsb
 1233              		.cfi_endproc
 1234              	.LFE18:
 1235              		.size	u8g2_Setup_sh1106_128x64_noname_1, .-u8g2_Setup_sh1106_128x64_noname_1
 1236              		.section	.text.u8g2_Setup_sh1106_128x64_vcomh0_1,"ax",%progbits
 1237              		.align	2
 1238              		.global	u8g2_Setup_sh1106_128x64_vcomh0_1
 1239              		.code	16
 1240              		.thumb_func
 1241              		.type	u8g2_Setup_sh1106_128x64_vcomh0_1, %function
 1242              	u8g2_Setup_sh1106_128x64_vcomh0_1:
 1243              	.LFB19:
 176:..\..\u8g2\csrc/u8g2_d_setup.c **** void u8g2_Setup_sh1106_128x64_vcomh0_1(u8g2_t *u8g2, const u8g2_cb_t *rotation, u8x8_msg_cb byte_cb
 177:..\..\u8g2\csrc/u8g2_d_setup.c **** {
 1244              		.loc 1 177 0
 1245              		.cfi_startproc
 1246              		@ args = 0, pretend = 0, frame = 8
 1247              		@ frame_needed = 0, uses_anonymous_args = 0
 1248              	.LVL209:
ARM GAS  C:\Users\arh\AppData\Local\Temp\ccfmrym3.s 			page 26


 1249 0000 70B5     		push	{r4, r5, r6, lr}
 1250              		.cfi_def_cfa_offset 16
 1251              		.cfi_offset 4, -16
 1252              		.cfi_offset 5, -12
 1253              		.cfi_offset 6, -8
 1254              		.cfi_offset 14, -4
 1255 0002 84B0     		sub	sp, sp, #16
 1256              		.cfi_def_cfa_offset 32
 1257 0004 0400     		movs	r4, r0
 1258 0006 0E00     		movs	r6, r1
 178:..\..\u8g2\csrc/u8g2_d_setup.c ****   uint8_t tile_buf_height;
 179:..\..\u8g2\csrc/u8g2_d_setup.c ****   uint8_t *buf;
 180:..\..\u8g2\csrc/u8g2_d_setup.c ****   u8g2_SetupDisplay(u8g2, u8x8_d_sh1106_128x64_vcomh0, u8x8_cad_001, byte_cb, gpio_and_delay_cb);
 1259              		.loc 1 180 0
 1260 0008 0093     		str	r3, [sp]
 1261 000a 1300     		movs	r3, r2
 1262              	.LVL210:
 1263 000c 084A     		ldr	r2, .L59
 1264              	.LVL211:
 1265 000e 0949     		ldr	r1, .L59+4
 1266              	.LVL212:
 1267 0010 FFF7FEFF 		bl	u8x8_Setup
 1268              	.LVL213:
 181:..\..\u8g2\csrc/u8g2_d_setup.c ****   buf = u8g2_m_sh1106_16_1(&tile_buf_height);
 1269              		.loc 1 181 0
 1270 0014 0F25     		movs	r5, #15
 1271 0016 6D44     		add	r5, r5, sp
 1272 0018 2800     		movs	r0, r5
 1273 001a FFF7FEFF 		bl	u8g2_m_sh1106_16_1
 1274              	.LVL214:
 1275 001e 0100     		movs	r1, r0
 1276              	.LVL215:
 182:..\..\u8g2\csrc/u8g2_d_setup.c ****   u8g2_SetupBuffer(u8g2, buf, tile_buf_height, u8g2_ll_hvline_vertical_top_lsb, rotation);
 1277              		.loc 1 182 0
 1278 0020 2A78     		ldrb	r2, [r5]
 1279 0022 0096     		str	r6, [sp]
 1280 0024 044B     		ldr	r3, .L59+8
 1281 0026 2000     		movs	r0, r4
 1282              	.LVL216:
 1283 0028 FFF7FEFF 		bl	u8g2_SetupBuffer
 1284              	.LVL217:
 183:..\..\u8g2\csrc/u8g2_d_setup.c **** }
 1285              		.loc 1 183 0
 1286 002c 04B0     		add	sp, sp, #16
 1287              		@ sp needed
 1288              	.LVL218:
 1289              	.LVL219:
 1290 002e 70BD     		pop	{r4, r5, r6, pc}
 1291              	.L60:
 1292              		.align	2
 1293              	.L59:
 1294 0030 00000000 		.word	u8x8_cad_001
 1295 0034 00000000 		.word	u8x8_d_sh1106_128x64_vcomh0
 1296 0038 00000000 		.word	u8g2_ll_hvline_vertical_top_lsb
 1297              		.cfi_endproc
 1298              	.LFE19:
 1299              		.size	u8g2_Setup_sh1106_128x64_vcomh0_1, .-u8g2_Setup_sh1106_128x64_vcomh0_1
ARM GAS  C:\Users\arh\AppData\Local\Temp\ccfmrym3.s 			page 27


 1300              		.section	.text.u8g2_Setup_sh1106_128x64_noname_2,"ax",%progbits
 1301              		.align	2
 1302              		.global	u8g2_Setup_sh1106_128x64_noname_2
 1303              		.code	16
 1304              		.thumb_func
 1305              		.type	u8g2_Setup_sh1106_128x64_noname_2, %function
 1306              	u8g2_Setup_sh1106_128x64_noname_2:
 1307              	.LFB20:
 184:..\..\u8g2\csrc/u8g2_d_setup.c **** /* sh1106 2 */
 185:..\..\u8g2\csrc/u8g2_d_setup.c **** void u8g2_Setup_sh1106_128x64_noname_2(u8g2_t *u8g2, const u8g2_cb_t *rotation, u8x8_msg_cb byte_cb
 186:..\..\u8g2\csrc/u8g2_d_setup.c **** {
 1308              		.loc 1 186 0
 1309              		.cfi_startproc
 1310              		@ args = 0, pretend = 0, frame = 8
 1311              		@ frame_needed = 0, uses_anonymous_args = 0
 1312              	.LVL220:
 1313 0000 70B5     		push	{r4, r5, r6, lr}
 1314              		.cfi_def_cfa_offset 16
 1315              		.cfi_offset 4, -16
 1316              		.cfi_offset 5, -12
 1317              		.cfi_offset 6, -8
 1318              		.cfi_offset 14, -4
 1319 0002 84B0     		sub	sp, sp, #16
 1320              		.cfi_def_cfa_offset 32
 1321 0004 0400     		movs	r4, r0
 1322 0006 0E00     		movs	r6, r1
 187:..\..\u8g2\csrc/u8g2_d_setup.c ****   uint8_t tile_buf_height;
 188:..\..\u8g2\csrc/u8g2_d_setup.c ****   uint8_t *buf;
 189:..\..\u8g2\csrc/u8g2_d_setup.c ****   u8g2_SetupDisplay(u8g2, u8x8_d_sh1106_128x64_noname, u8x8_cad_001, byte_cb, gpio_and_delay_cb);
 1323              		.loc 1 189 0
 1324 0008 0093     		str	r3, [sp]
 1325 000a 1300     		movs	r3, r2
 1326              	.LVL221:
 1327 000c 084A     		ldr	r2, .L62
 1328              	.LVL222:
 1329 000e 0949     		ldr	r1, .L62+4
 1330              	.LVL223:
 1331 0010 FFF7FEFF 		bl	u8x8_Setup
 1332              	.LVL224:
 190:..\..\u8g2\csrc/u8g2_d_setup.c ****   buf = u8g2_m_sh1106_16_2(&tile_buf_height);
 1333              		.loc 1 190 0
 1334 0014 0F25     		movs	r5, #15
 1335 0016 6D44     		add	r5, r5, sp
 1336 0018 2800     		movs	r0, r5
 1337 001a FFF7FEFF 		bl	u8g2_m_sh1106_16_2
 1338              	.LVL225:
 1339 001e 0100     		movs	r1, r0
 1340              	.LVL226:
 191:..\..\u8g2\csrc/u8g2_d_setup.c ****   u8g2_SetupBuffer(u8g2, buf, tile_buf_height, u8g2_ll_hvline_vertical_top_lsb, rotation);
 1341              		.loc 1 191 0
 1342 0020 2A78     		ldrb	r2, [r5]
 1343 0022 0096     		str	r6, [sp]
 1344 0024 044B     		ldr	r3, .L62+8
 1345 0026 2000     		movs	r0, r4
 1346              	.LVL227:
 1347 0028 FFF7FEFF 		bl	u8g2_SetupBuffer
 1348              	.LVL228:
ARM GAS  C:\Users\arh\AppData\Local\Temp\ccfmrym3.s 			page 28


 192:..\..\u8g2\csrc/u8g2_d_setup.c **** }
 1349              		.loc 1 192 0
 1350 002c 04B0     		add	sp, sp, #16
 1351              		@ sp needed
 1352              	.LVL229:
 1353              	.LVL230:
 1354 002e 70BD     		pop	{r4, r5, r6, pc}
 1355              	.L63:
 1356              		.align	2
 1357              	.L62:
 1358 0030 00000000 		.word	u8x8_cad_001
 1359 0034 00000000 		.word	u8x8_d_sh1106_128x64_noname
 1360 0038 00000000 		.word	u8g2_ll_hvline_vertical_top_lsb
 1361              		.cfi_endproc
 1362              	.LFE20:
 1363              		.size	u8g2_Setup_sh1106_128x64_noname_2, .-u8g2_Setup_sh1106_128x64_noname_2
 1364              		.section	.text.u8g2_Setup_sh1106_128x64_vcomh0_2,"ax",%progbits
 1365              		.align	2
 1366              		.global	u8g2_Setup_sh1106_128x64_vcomh0_2
 1367              		.code	16
 1368              		.thumb_func
 1369              		.type	u8g2_Setup_sh1106_128x64_vcomh0_2, %function
 1370              	u8g2_Setup_sh1106_128x64_vcomh0_2:
 1371              	.LFB21:
 193:..\..\u8g2\csrc/u8g2_d_setup.c **** void u8g2_Setup_sh1106_128x64_vcomh0_2(u8g2_t *u8g2, const u8g2_cb_t *rotation, u8x8_msg_cb byte_cb
 194:..\..\u8g2\csrc/u8g2_d_setup.c **** {
 1372              		.loc 1 194 0
 1373              		.cfi_startproc
 1374              		@ args = 0, pretend = 0, frame = 8
 1375              		@ frame_needed = 0, uses_anonymous_args = 0
 1376              	.LVL231:
 1377 0000 70B5     		push	{r4, r5, r6, lr}
 1378              		.cfi_def_cfa_offset 16
 1379              		.cfi_offset 4, -16
 1380              		.cfi_offset 5, -12
 1381              		.cfi_offset 6, -8
 1382              		.cfi_offset 14, -4
 1383 0002 84B0     		sub	sp, sp, #16
 1384              		.cfi_def_cfa_offset 32
 1385 0004 0400     		movs	r4, r0
 1386 0006 0E00     		movs	r6, r1
 195:..\..\u8g2\csrc/u8g2_d_setup.c ****   uint8_t tile_buf_height;
 196:..\..\u8g2\csrc/u8g2_d_setup.c ****   uint8_t *buf;
 197:..\..\u8g2\csrc/u8g2_d_setup.c ****   u8g2_SetupDisplay(u8g2, u8x8_d_sh1106_128x64_vcomh0, u8x8_cad_001, byte_cb, gpio_and_delay_cb);
 1387              		.loc 1 197 0
 1388 0008 0093     		str	r3, [sp]
 1389 000a 1300     		movs	r3, r2
 1390              	.LVL232:
 1391 000c 084A     		ldr	r2, .L65
 1392              	.LVL233:
 1393 000e 0949     		ldr	r1, .L65+4
 1394              	.LVL234:
 1395 0010 FFF7FEFF 		bl	u8x8_Setup
 1396              	.LVL235:
 198:..\..\u8g2\csrc/u8g2_d_setup.c ****   buf = u8g2_m_sh1106_16_2(&tile_buf_height);
 1397              		.loc 1 198 0
 1398 0014 0F25     		movs	r5, #15
ARM GAS  C:\Users\arh\AppData\Local\Temp\ccfmrym3.s 			page 29


 1399 0016 6D44     		add	r5, r5, sp
 1400 0018 2800     		movs	r0, r5
 1401 001a FFF7FEFF 		bl	u8g2_m_sh1106_16_2
 1402              	.LVL236:
 1403 001e 0100     		movs	r1, r0
 1404              	.LVL237:
 199:..\..\u8g2\csrc/u8g2_d_setup.c ****   u8g2_SetupBuffer(u8g2, buf, tile_buf_height, u8g2_ll_hvline_vertical_top_lsb, rotation);
 1405              		.loc 1 199 0
 1406 0020 2A78     		ldrb	r2, [r5]
 1407 0022 0096     		str	r6, [sp]
 1408 0024 044B     		ldr	r3, .L65+8
 1409 0026 2000     		movs	r0, r4
 1410              	.LVL238:
 1411 0028 FFF7FEFF 		bl	u8g2_SetupBuffer
 1412              	.LVL239:
 200:..\..\u8g2\csrc/u8g2_d_setup.c **** }
 1413              		.loc 1 200 0
 1414 002c 04B0     		add	sp, sp, #16
 1415              		@ sp needed
 1416              	.LVL240:
 1417              	.LVL241:
 1418 002e 70BD     		pop	{r4, r5, r6, pc}
 1419              	.L66:
 1420              		.align	2
 1421              	.L65:
 1422 0030 00000000 		.word	u8x8_cad_001
 1423 0034 00000000 		.word	u8x8_d_sh1106_128x64_vcomh0
 1424 0038 00000000 		.word	u8g2_ll_hvline_vertical_top_lsb
 1425              		.cfi_endproc
 1426              	.LFE21:
 1427              		.size	u8g2_Setup_sh1106_128x64_vcomh0_2, .-u8g2_Setup_sh1106_128x64_vcomh0_2
 1428              		.section	.text.u8g2_Setup_sh1106_128x64_noname_f,"ax",%progbits
 1429              		.align	2
 1430              		.global	u8g2_Setup_sh1106_128x64_noname_f
 1431              		.code	16
 1432              		.thumb_func
 1433              		.type	u8g2_Setup_sh1106_128x64_noname_f, %function
 1434              	u8g2_Setup_sh1106_128x64_noname_f:
 1435              	.LFB22:
 201:..\..\u8g2\csrc/u8g2_d_setup.c **** /* sh1106 f */
 202:..\..\u8g2\csrc/u8g2_d_setup.c **** void u8g2_Setup_sh1106_128x64_noname_f(u8g2_t *u8g2, const u8g2_cb_t *rotation, u8x8_msg_cb byte_cb
 203:..\..\u8g2\csrc/u8g2_d_setup.c **** {
 1436              		.loc 1 203 0
 1437              		.cfi_startproc
 1438              		@ args = 0, pretend = 0, frame = 8
 1439              		@ frame_needed = 0, uses_anonymous_args = 0
 1440              	.LVL242:
 1441 0000 70B5     		push	{r4, r5, r6, lr}
 1442              		.cfi_def_cfa_offset 16
 1443              		.cfi_offset 4, -16
 1444              		.cfi_offset 5, -12
 1445              		.cfi_offset 6, -8
 1446              		.cfi_offset 14, -4
 1447 0002 84B0     		sub	sp, sp, #16
 1448              		.cfi_def_cfa_offset 32
 1449 0004 0400     		movs	r4, r0
 1450 0006 0E00     		movs	r6, r1
ARM GAS  C:\Users\arh\AppData\Local\Temp\ccfmrym3.s 			page 30


 204:..\..\u8g2\csrc/u8g2_d_setup.c ****   uint8_t tile_buf_height;
 205:..\..\u8g2\csrc/u8g2_d_setup.c ****   uint8_t *buf;
 206:..\..\u8g2\csrc/u8g2_d_setup.c ****   u8g2_SetupDisplay(u8g2, u8x8_d_sh1106_128x64_noname, u8x8_cad_001, byte_cb, gpio_and_delay_cb);
 1451              		.loc 1 206 0
 1452 0008 0093     		str	r3, [sp]
 1453 000a 1300     		movs	r3, r2
 1454              	.LVL243:
 1455 000c 084A     		ldr	r2, .L68
 1456              	.LVL244:
 1457 000e 0949     		ldr	r1, .L68+4
 1458              	.LVL245:
 1459 0010 FFF7FEFF 		bl	u8x8_Setup
 1460              	.LVL246:
 207:..\..\u8g2\csrc/u8g2_d_setup.c ****   buf = u8g2_m_sh1106_16_f(&tile_buf_height);
 1461              		.loc 1 207 0
 1462 0014 0F25     		movs	r5, #15
 1463 0016 6D44     		add	r5, r5, sp
 1464 0018 2800     		movs	r0, r5
 1465 001a FFF7FEFF 		bl	u8g2_m_sh1106_16_f
 1466              	.LVL247:
 1467 001e 0100     		movs	r1, r0
 1468              	.LVL248:
 208:..\..\u8g2\csrc/u8g2_d_setup.c ****   u8g2_SetupBuffer(u8g2, buf, tile_buf_height, u8g2_ll_hvline_vertical_top_lsb, rotation);
 1469              		.loc 1 208 0
 1470 0020 2A78     		ldrb	r2, [r5]
 1471 0022 0096     		str	r6, [sp]
 1472 0024 044B     		ldr	r3, .L68+8
 1473 0026 2000     		movs	r0, r4
 1474              	.LVL249:
 1475 0028 FFF7FEFF 		bl	u8g2_SetupBuffer
 1476              	.LVL250:
 209:..\..\u8g2\csrc/u8g2_d_setup.c **** }
 1477              		.loc 1 209 0
 1478 002c 04B0     		add	sp, sp, #16
 1479              		@ sp needed
 1480              	.LVL251:
 1481              	.LVL252:
 1482 002e 70BD     		pop	{r4, r5, r6, pc}
 1483              	.L69:
 1484              		.align	2
 1485              	.L68:
 1486 0030 00000000 		.word	u8x8_cad_001
 1487 0034 00000000 		.word	u8x8_d_sh1106_128x64_noname
 1488 0038 00000000 		.word	u8g2_ll_hvline_vertical_top_lsb
 1489              		.cfi_endproc
 1490              	.LFE22:
 1491              		.size	u8g2_Setup_sh1106_128x64_noname_f, .-u8g2_Setup_sh1106_128x64_noname_f
 1492              		.section	.text.u8g2_Setup_sh1106_128x64_vcomh0_f,"ax",%progbits
 1493              		.align	2
 1494              		.global	u8g2_Setup_sh1106_128x64_vcomh0_f
 1495              		.code	16
 1496              		.thumb_func
 1497              		.type	u8g2_Setup_sh1106_128x64_vcomh0_f, %function
 1498              	u8g2_Setup_sh1106_128x64_vcomh0_f:
 1499              	.LFB23:
 210:..\..\u8g2\csrc/u8g2_d_setup.c **** void u8g2_Setup_sh1106_128x64_vcomh0_f(u8g2_t *u8g2, const u8g2_cb_t *rotation, u8x8_msg_cb byte_cb
 211:..\..\u8g2\csrc/u8g2_d_setup.c **** {
ARM GAS  C:\Users\arh\AppData\Local\Temp\ccfmrym3.s 			page 31


 1500              		.loc 1 211 0
 1501              		.cfi_startproc
 1502              		@ args = 0, pretend = 0, frame = 8
 1503              		@ frame_needed = 0, uses_anonymous_args = 0
 1504              	.LVL253:
 1505 0000 70B5     		push	{r4, r5, r6, lr}
 1506              		.cfi_def_cfa_offset 16
 1507              		.cfi_offset 4, -16
 1508              		.cfi_offset 5, -12
 1509              		.cfi_offset 6, -8
 1510              		.cfi_offset 14, -4
 1511 0002 84B0     		sub	sp, sp, #16
 1512              		.cfi_def_cfa_offset 32
 1513 0004 0400     		movs	r4, r0
 1514 0006 0E00     		movs	r6, r1
 212:..\..\u8g2\csrc/u8g2_d_setup.c ****   uint8_t tile_buf_height;
 213:..\..\u8g2\csrc/u8g2_d_setup.c ****   uint8_t *buf;
 214:..\..\u8g2\csrc/u8g2_d_setup.c ****   u8g2_SetupDisplay(u8g2, u8x8_d_sh1106_128x64_vcomh0, u8x8_cad_001, byte_cb, gpio_and_delay_cb);
 1515              		.loc 1 214 0
 1516 0008 0093     		str	r3, [sp]
 1517 000a 1300     		movs	r3, r2
 1518              	.LVL254:
 1519 000c 084A     		ldr	r2, .L71
 1520              	.LVL255:
 1521 000e 0949     		ldr	r1, .L71+4
 1522              	.LVL256:
 1523 0010 FFF7FEFF 		bl	u8x8_Setup
 1524              	.LVL257:
 215:..\..\u8g2\csrc/u8g2_d_setup.c ****   buf = u8g2_m_sh1106_16_f(&tile_buf_height);
 1525              		.loc 1 215 0
 1526 0014 0F25     		movs	r5, #15
 1527 0016 6D44     		add	r5, r5, sp
 1528 0018 2800     		movs	r0, r5
 1529 001a FFF7FEFF 		bl	u8g2_m_sh1106_16_f
 1530              	.LVL258:
 1531 001e 0100     		movs	r1, r0
 1532              	.LVL259:
 216:..\..\u8g2\csrc/u8g2_d_setup.c ****   u8g2_SetupBuffer(u8g2, buf, tile_buf_height, u8g2_ll_hvline_vertical_top_lsb, rotation);
 1533              		.loc 1 216 0
 1534 0020 2A78     		ldrb	r2, [r5]
 1535 0022 0096     		str	r6, [sp]
 1536 0024 044B     		ldr	r3, .L71+8
 1537 0026 2000     		movs	r0, r4
 1538              	.LVL260:
 1539 0028 FFF7FEFF 		bl	u8g2_SetupBuffer
 1540              	.LVL261:
 217:..\..\u8g2\csrc/u8g2_d_setup.c **** }
 1541              		.loc 1 217 0
 1542 002c 04B0     		add	sp, sp, #16
 1543              		@ sp needed
 1544              	.LVL262:
 1545              	.LVL263:
 1546 002e 70BD     		pop	{r4, r5, r6, pc}
 1547              	.L72:
 1548              		.align	2
 1549              	.L71:
 1550 0030 00000000 		.word	u8x8_cad_001
ARM GAS  C:\Users\arh\AppData\Local\Temp\ccfmrym3.s 			page 32


 1551 0034 00000000 		.word	u8x8_d_sh1106_128x64_vcomh0
 1552 0038 00000000 		.word	u8g2_ll_hvline_vertical_top_lsb
 1553              		.cfi_endproc
 1554              	.LFE23:
 1555              		.size	u8g2_Setup_sh1106_128x64_vcomh0_f, .-u8g2_Setup_sh1106_128x64_vcomh0_f
 1556              		.section	.text.u8g2_Setup_sh1106_i2c_128x64_noname_1,"ax",%progbits
 1557              		.align	2
 1558              		.global	u8g2_Setup_sh1106_i2c_128x64_noname_1
 1559              		.code	16
 1560              		.thumb_func
 1561              		.type	u8g2_Setup_sh1106_i2c_128x64_noname_1, %function
 1562              	u8g2_Setup_sh1106_i2c_128x64_noname_1:
 1563              	.LFB24:
 218:..\..\u8g2\csrc/u8g2_d_setup.c **** /* sh1106 */
 219:..\..\u8g2\csrc/u8g2_d_setup.c **** /* sh1106 1 */
 220:..\..\u8g2\csrc/u8g2_d_setup.c **** void u8g2_Setup_sh1106_i2c_128x64_noname_1(u8g2_t *u8g2, const u8g2_cb_t *rotation, u8x8_msg_cb byt
 221:..\..\u8g2\csrc/u8g2_d_setup.c **** {
 1564              		.loc 1 221 0
 1565              		.cfi_startproc
 1566              		@ args = 0, pretend = 0, frame = 8
 1567              		@ frame_needed = 0, uses_anonymous_args = 0
 1568              	.LVL264:
 1569 0000 70B5     		push	{r4, r5, r6, lr}
 1570              		.cfi_def_cfa_offset 16
 1571              		.cfi_offset 4, -16
 1572              		.cfi_offset 5, -12
 1573              		.cfi_offset 6, -8
 1574              		.cfi_offset 14, -4
 1575 0002 84B0     		sub	sp, sp, #16
 1576              		.cfi_def_cfa_offset 32
 1577 0004 0400     		movs	r4, r0
 1578 0006 0E00     		movs	r6, r1
 222:..\..\u8g2\csrc/u8g2_d_setup.c ****   uint8_t tile_buf_height;
 223:..\..\u8g2\csrc/u8g2_d_setup.c ****   uint8_t *buf;
 224:..\..\u8g2\csrc/u8g2_d_setup.c ****   u8g2_SetupDisplay(u8g2, u8x8_d_sh1106_128x64_noname, u8x8_cad_ssd13xx_i2c, byte_cb, gpio_and_dela
 1579              		.loc 1 224 0
 1580 0008 0093     		str	r3, [sp]
 1581 000a 1300     		movs	r3, r2
 1582              	.LVL265:
 1583 000c 084A     		ldr	r2, .L74
 1584              	.LVL266:
 1585 000e 0949     		ldr	r1, .L74+4
 1586              	.LVL267:
 1587 0010 FFF7FEFF 		bl	u8x8_Setup
 1588              	.LVL268:
 225:..\..\u8g2\csrc/u8g2_d_setup.c ****   buf = u8g2_m_sh1106_16_1(&tile_buf_height);
 1589              		.loc 1 225 0
 1590 0014 0F25     		movs	r5, #15
 1591 0016 6D44     		add	r5, r5, sp
 1592 0018 2800     		movs	r0, r5
 1593 001a FFF7FEFF 		bl	u8g2_m_sh1106_16_1
 1594              	.LVL269:
 1595 001e 0100     		movs	r1, r0
 1596              	.LVL270:
 226:..\..\u8g2\csrc/u8g2_d_setup.c ****   u8g2_SetupBuffer(u8g2, buf, tile_buf_height, u8g2_ll_hvline_vertical_top_lsb, rotation);
 1597              		.loc 1 226 0
 1598 0020 2A78     		ldrb	r2, [r5]
ARM GAS  C:\Users\arh\AppData\Local\Temp\ccfmrym3.s 			page 33


 1599 0022 0096     		str	r6, [sp]
 1600 0024 044B     		ldr	r3, .L74+8
 1601 0026 2000     		movs	r0, r4
 1602              	.LVL271:
 1603 0028 FFF7FEFF 		bl	u8g2_SetupBuffer
 1604              	.LVL272:
 227:..\..\u8g2\csrc/u8g2_d_setup.c **** }
 1605              		.loc 1 227 0
 1606 002c 04B0     		add	sp, sp, #16
 1607              		@ sp needed
 1608              	.LVL273:
 1609              	.LVL274:
 1610 002e 70BD     		pop	{r4, r5, r6, pc}
 1611              	.L75:
 1612              		.align	2
 1613              	.L74:
 1614 0030 00000000 		.word	u8x8_cad_ssd13xx_i2c
 1615 0034 00000000 		.word	u8x8_d_sh1106_128x64_noname
 1616 0038 00000000 		.word	u8g2_ll_hvline_vertical_top_lsb
 1617              		.cfi_endproc
 1618              	.LFE24:
 1619              		.size	u8g2_Setup_sh1106_i2c_128x64_noname_1, .-u8g2_Setup_sh1106_i2c_128x64_noname_1
 1620              		.section	.text.u8g2_Setup_sh1106_i2c_128x64_vcomh0_1,"ax",%progbits
 1621              		.align	2
 1622              		.global	u8g2_Setup_sh1106_i2c_128x64_vcomh0_1
 1623              		.code	16
 1624              		.thumb_func
 1625              		.type	u8g2_Setup_sh1106_i2c_128x64_vcomh0_1, %function
 1626              	u8g2_Setup_sh1106_i2c_128x64_vcomh0_1:
 1627              	.LFB25:
 228:..\..\u8g2\csrc/u8g2_d_setup.c **** void u8g2_Setup_sh1106_i2c_128x64_vcomh0_1(u8g2_t *u8g2, const u8g2_cb_t *rotation, u8x8_msg_cb byt
 229:..\..\u8g2\csrc/u8g2_d_setup.c **** {
 1628              		.loc 1 229 0
 1629              		.cfi_startproc
 1630              		@ args = 0, pretend = 0, frame = 8
 1631              		@ frame_needed = 0, uses_anonymous_args = 0
 1632              	.LVL275:
 1633 0000 70B5     		push	{r4, r5, r6, lr}
 1634              		.cfi_def_cfa_offset 16
 1635              		.cfi_offset 4, -16
 1636              		.cfi_offset 5, -12
 1637              		.cfi_offset 6, -8
 1638              		.cfi_offset 14, -4
 1639 0002 84B0     		sub	sp, sp, #16
 1640              		.cfi_def_cfa_offset 32
 1641 0004 0400     		movs	r4, r0
 1642 0006 0E00     		movs	r6, r1
 230:..\..\u8g2\csrc/u8g2_d_setup.c ****   uint8_t tile_buf_height;
 231:..\..\u8g2\csrc/u8g2_d_setup.c ****   uint8_t *buf;
 232:..\..\u8g2\csrc/u8g2_d_setup.c ****   u8g2_SetupDisplay(u8g2, u8x8_d_sh1106_128x64_vcomh0, u8x8_cad_ssd13xx_i2c, byte_cb, gpio_and_dela
 1643              		.loc 1 232 0
 1644 0008 0093     		str	r3, [sp]
 1645 000a 1300     		movs	r3, r2
 1646              	.LVL276:
 1647 000c 084A     		ldr	r2, .L77
 1648              	.LVL277:
 1649 000e 0949     		ldr	r1, .L77+4
ARM GAS  C:\Users\arh\AppData\Local\Temp\ccfmrym3.s 			page 34


 1650              	.LVL278:
 1651 0010 FFF7FEFF 		bl	u8x8_Setup
 1652              	.LVL279:
 233:..\..\u8g2\csrc/u8g2_d_setup.c ****   buf = u8g2_m_sh1106_16_1(&tile_buf_height);
 1653              		.loc 1 233 0
 1654 0014 0F25     		movs	r5, #15
 1655 0016 6D44     		add	r5, r5, sp
 1656 0018 2800     		movs	r0, r5
 1657 001a FFF7FEFF 		bl	u8g2_m_sh1106_16_1
 1658              	.LVL280:
 1659 001e 0100     		movs	r1, r0
 1660              	.LVL281:
 234:..\..\u8g2\csrc/u8g2_d_setup.c ****   u8g2_SetupBuffer(u8g2, buf, tile_buf_height, u8g2_ll_hvline_vertical_top_lsb, rotation);
 1661              		.loc 1 234 0
 1662 0020 2A78     		ldrb	r2, [r5]
 1663 0022 0096     		str	r6, [sp]
 1664 0024 044B     		ldr	r3, .L77+8
 1665 0026 2000     		movs	r0, r4
 1666              	.LVL282:
 1667 0028 FFF7FEFF 		bl	u8g2_SetupBuffer
 1668              	.LVL283:
 235:..\..\u8g2\csrc/u8g2_d_setup.c **** }
 1669              		.loc 1 235 0
 1670 002c 04B0     		add	sp, sp, #16
 1671              		@ sp needed
 1672              	.LVL284:
 1673              	.LVL285:
 1674 002e 70BD     		pop	{r4, r5, r6, pc}
 1675              	.L78:
 1676              		.align	2
 1677              	.L77:
 1678 0030 00000000 		.word	u8x8_cad_ssd13xx_i2c
 1679 0034 00000000 		.word	u8x8_d_sh1106_128x64_vcomh0
 1680 0038 00000000 		.word	u8g2_ll_hvline_vertical_top_lsb
 1681              		.cfi_endproc
 1682              	.LFE25:
 1683              		.size	u8g2_Setup_sh1106_i2c_128x64_vcomh0_1, .-u8g2_Setup_sh1106_i2c_128x64_vcomh0_1
 1684              		.section	.text.u8g2_Setup_sh1106_i2c_128x64_noname_2,"ax",%progbits
 1685              		.align	2
 1686              		.global	u8g2_Setup_sh1106_i2c_128x64_noname_2
 1687              		.code	16
 1688              		.thumb_func
 1689              		.type	u8g2_Setup_sh1106_i2c_128x64_noname_2, %function
 1690              	u8g2_Setup_sh1106_i2c_128x64_noname_2:
 1691              	.LFB26:
 236:..\..\u8g2\csrc/u8g2_d_setup.c **** /* sh1106 2 */
 237:..\..\u8g2\csrc/u8g2_d_setup.c **** void u8g2_Setup_sh1106_i2c_128x64_noname_2(u8g2_t *u8g2, const u8g2_cb_t *rotation, u8x8_msg_cb byt
 238:..\..\u8g2\csrc/u8g2_d_setup.c **** {
 1692              		.loc 1 238 0
 1693              		.cfi_startproc
 1694              		@ args = 0, pretend = 0, frame = 8
 1695              		@ frame_needed = 0, uses_anonymous_args = 0
 1696              	.LVL286:
 1697 0000 70B5     		push	{r4, r5, r6, lr}
 1698              		.cfi_def_cfa_offset 16
 1699              		.cfi_offset 4, -16
 1700              		.cfi_offset 5, -12
ARM GAS  C:\Users\arh\AppData\Local\Temp\ccfmrym3.s 			page 35


 1701              		.cfi_offset 6, -8
 1702              		.cfi_offset 14, -4
 1703 0002 84B0     		sub	sp, sp, #16
 1704              		.cfi_def_cfa_offset 32
 1705 0004 0400     		movs	r4, r0
 1706 0006 0E00     		movs	r6, r1
 239:..\..\u8g2\csrc/u8g2_d_setup.c ****   uint8_t tile_buf_height;
 240:..\..\u8g2\csrc/u8g2_d_setup.c ****   uint8_t *buf;
 241:..\..\u8g2\csrc/u8g2_d_setup.c ****   u8g2_SetupDisplay(u8g2, u8x8_d_sh1106_128x64_noname, u8x8_cad_ssd13xx_i2c, byte_cb, gpio_and_dela
 1707              		.loc 1 241 0
 1708 0008 0093     		str	r3, [sp]
 1709 000a 1300     		movs	r3, r2
 1710              	.LVL287:
 1711 000c 084A     		ldr	r2, .L80
 1712              	.LVL288:
 1713 000e 0949     		ldr	r1, .L80+4
 1714              	.LVL289:
 1715 0010 FFF7FEFF 		bl	u8x8_Setup
 1716              	.LVL290:
 242:..\..\u8g2\csrc/u8g2_d_setup.c ****   buf = u8g2_m_sh1106_16_2(&tile_buf_height);
 1717              		.loc 1 242 0
 1718 0014 0F25     		movs	r5, #15
 1719 0016 6D44     		add	r5, r5, sp
 1720 0018 2800     		movs	r0, r5
 1721 001a FFF7FEFF 		bl	u8g2_m_sh1106_16_2
 1722              	.LVL291:
 1723 001e 0100     		movs	r1, r0
 1724              	.LVL292:
 243:..\..\u8g2\csrc/u8g2_d_setup.c ****   u8g2_SetupBuffer(u8g2, buf, tile_buf_height, u8g2_ll_hvline_vertical_top_lsb, rotation);
 1725              		.loc 1 243 0
 1726 0020 2A78     		ldrb	r2, [r5]
 1727 0022 0096     		str	r6, [sp]
 1728 0024 044B     		ldr	r3, .L80+8
 1729 0026 2000     		movs	r0, r4
 1730              	.LVL293:
 1731 0028 FFF7FEFF 		bl	u8g2_SetupBuffer
 1732              	.LVL294:
 244:..\..\u8g2\csrc/u8g2_d_setup.c **** }
 1733              		.loc 1 244 0
 1734 002c 04B0     		add	sp, sp, #16
 1735              		@ sp needed
 1736              	.LVL295:
 1737              	.LVL296:
 1738 002e 70BD     		pop	{r4, r5, r6, pc}
 1739              	.L81:
 1740              		.align	2
 1741              	.L80:
 1742 0030 00000000 		.word	u8x8_cad_ssd13xx_i2c
 1743 0034 00000000 		.word	u8x8_d_sh1106_128x64_noname
 1744 0038 00000000 		.word	u8g2_ll_hvline_vertical_top_lsb
 1745              		.cfi_endproc
 1746              	.LFE26:
 1747              		.size	u8g2_Setup_sh1106_i2c_128x64_noname_2, .-u8g2_Setup_sh1106_i2c_128x64_noname_2
 1748              		.section	.text.u8g2_Setup_sh1106_i2c_128x64_vcomh0_2,"ax",%progbits
 1749              		.align	2
 1750              		.global	u8g2_Setup_sh1106_i2c_128x64_vcomh0_2
 1751              		.code	16
ARM GAS  C:\Users\arh\AppData\Local\Temp\ccfmrym3.s 			page 36


 1752              		.thumb_func
 1753              		.type	u8g2_Setup_sh1106_i2c_128x64_vcomh0_2, %function
 1754              	u8g2_Setup_sh1106_i2c_128x64_vcomh0_2:
 1755              	.LFB27:
 245:..\..\u8g2\csrc/u8g2_d_setup.c **** void u8g2_Setup_sh1106_i2c_128x64_vcomh0_2(u8g2_t *u8g2, const u8g2_cb_t *rotation, u8x8_msg_cb byt
 246:..\..\u8g2\csrc/u8g2_d_setup.c **** {
 1756              		.loc 1 246 0
 1757              		.cfi_startproc
 1758              		@ args = 0, pretend = 0, frame = 8
 1759              		@ frame_needed = 0, uses_anonymous_args = 0
 1760              	.LVL297:
 1761 0000 70B5     		push	{r4, r5, r6, lr}
 1762              		.cfi_def_cfa_offset 16
 1763              		.cfi_offset 4, -16
 1764              		.cfi_offset 5, -12
 1765              		.cfi_offset 6, -8
 1766              		.cfi_offset 14, -4
 1767 0002 84B0     		sub	sp, sp, #16
 1768              		.cfi_def_cfa_offset 32
 1769 0004 0400     		movs	r4, r0
 1770 0006 0E00     		movs	r6, r1
 247:..\..\u8g2\csrc/u8g2_d_setup.c ****   uint8_t tile_buf_height;
 248:..\..\u8g2\csrc/u8g2_d_setup.c ****   uint8_t *buf;
 249:..\..\u8g2\csrc/u8g2_d_setup.c ****   u8g2_SetupDisplay(u8g2, u8x8_d_sh1106_128x64_vcomh0, u8x8_cad_ssd13xx_i2c, byte_cb, gpio_and_dela
 1771              		.loc 1 249 0
 1772 0008 0093     		str	r3, [sp]
 1773 000a 1300     		movs	r3, r2
 1774              	.LVL298:
 1775 000c 084A     		ldr	r2, .L83
 1776              	.LVL299:
 1777 000e 0949     		ldr	r1, .L83+4
 1778              	.LVL300:
 1779 0010 FFF7FEFF 		bl	u8x8_Setup
 1780              	.LVL301:
 250:..\..\u8g2\csrc/u8g2_d_setup.c ****   buf = u8g2_m_sh1106_16_2(&tile_buf_height);
 1781              		.loc 1 250 0
 1782 0014 0F25     		movs	r5, #15
 1783 0016 6D44     		add	r5, r5, sp
 1784 0018 2800     		movs	r0, r5
 1785 001a FFF7FEFF 		bl	u8g2_m_sh1106_16_2
 1786              	.LVL302:
 1787 001e 0100     		movs	r1, r0
 1788              	.LVL303:
 251:..\..\u8g2\csrc/u8g2_d_setup.c ****   u8g2_SetupBuffer(u8g2, buf, tile_buf_height, u8g2_ll_hvline_vertical_top_lsb, rotation);
 1789              		.loc 1 251 0
 1790 0020 2A78     		ldrb	r2, [r5]
 1791 0022 0096     		str	r6, [sp]
 1792 0024 044B     		ldr	r3, .L83+8
 1793 0026 2000     		movs	r0, r4
 1794              	.LVL304:
 1795 0028 FFF7FEFF 		bl	u8g2_SetupBuffer
 1796              	.LVL305:
 252:..\..\u8g2\csrc/u8g2_d_setup.c **** }
 1797              		.loc 1 252 0
 1798 002c 04B0     		add	sp, sp, #16
 1799              		@ sp needed
 1800              	.LVL306:
ARM GAS  C:\Users\arh\AppData\Local\Temp\ccfmrym3.s 			page 37


 1801              	.LVL307:
 1802 002e 70BD     		pop	{r4, r5, r6, pc}
 1803              	.L84:
 1804              		.align	2
 1805              	.L83:
 1806 0030 00000000 		.word	u8x8_cad_ssd13xx_i2c
 1807 0034 00000000 		.word	u8x8_d_sh1106_128x64_vcomh0
 1808 0038 00000000 		.word	u8g2_ll_hvline_vertical_top_lsb
 1809              		.cfi_endproc
 1810              	.LFE27:
 1811              		.size	u8g2_Setup_sh1106_i2c_128x64_vcomh0_2, .-u8g2_Setup_sh1106_i2c_128x64_vcomh0_2
 1812              		.section	.text.u8g2_Setup_sh1106_i2c_128x64_noname_f,"ax",%progbits
 1813              		.align	2
 1814              		.global	u8g2_Setup_sh1106_i2c_128x64_noname_f
 1815              		.code	16
 1816              		.thumb_func
 1817              		.type	u8g2_Setup_sh1106_i2c_128x64_noname_f, %function
 1818              	u8g2_Setup_sh1106_i2c_128x64_noname_f:
 1819              	.LFB28:
 253:..\..\u8g2\csrc/u8g2_d_setup.c **** /* sh1106 f */
 254:..\..\u8g2\csrc/u8g2_d_setup.c **** void u8g2_Setup_sh1106_i2c_128x64_noname_f(u8g2_t *u8g2, const u8g2_cb_t *rotation, u8x8_msg_cb byt
 255:..\..\u8g2\csrc/u8g2_d_setup.c **** {
 1820              		.loc 1 255 0
 1821              		.cfi_startproc
 1822              		@ args = 0, pretend = 0, frame = 8
 1823              		@ frame_needed = 0, uses_anonymous_args = 0
 1824              	.LVL308:
 1825 0000 70B5     		push	{r4, r5, r6, lr}
 1826              		.cfi_def_cfa_offset 16
 1827              		.cfi_offset 4, -16
 1828              		.cfi_offset 5, -12
 1829              		.cfi_offset 6, -8
 1830              		.cfi_offset 14, -4
 1831 0002 84B0     		sub	sp, sp, #16
 1832              		.cfi_def_cfa_offset 32
 1833 0004 0400     		movs	r4, r0
 1834 0006 0E00     		movs	r6, r1
 256:..\..\u8g2\csrc/u8g2_d_setup.c ****   uint8_t tile_buf_height;
 257:..\..\u8g2\csrc/u8g2_d_setup.c ****   uint8_t *buf;
 258:..\..\u8g2\csrc/u8g2_d_setup.c ****   u8g2_SetupDisplay(u8g2, u8x8_d_sh1106_128x64_noname, u8x8_cad_ssd13xx_i2c, byte_cb, gpio_and_dela
 1835              		.loc 1 258 0
 1836 0008 0093     		str	r3, [sp]
 1837 000a 1300     		movs	r3, r2
 1838              	.LVL309:
 1839 000c 084A     		ldr	r2, .L86
 1840              	.LVL310:
 1841 000e 0949     		ldr	r1, .L86+4
 1842              	.LVL311:
 1843 0010 FFF7FEFF 		bl	u8x8_Setup
 1844              	.LVL312:
 259:..\..\u8g2\csrc/u8g2_d_setup.c ****   buf = u8g2_m_sh1106_16_f(&tile_buf_height);
 1845              		.loc 1 259 0
 1846 0014 0F25     		movs	r5, #15
 1847 0016 6D44     		add	r5, r5, sp
 1848 0018 2800     		movs	r0, r5
 1849 001a FFF7FEFF 		bl	u8g2_m_sh1106_16_f
 1850              	.LVL313:
ARM GAS  C:\Users\arh\AppData\Local\Temp\ccfmrym3.s 			page 38


 1851 001e 0100     		movs	r1, r0
 1852              	.LVL314:
 260:..\..\u8g2\csrc/u8g2_d_setup.c ****   u8g2_SetupBuffer(u8g2, buf, tile_buf_height, u8g2_ll_hvline_vertical_top_lsb, rotation);
 1853              		.loc 1 260 0
 1854 0020 2A78     		ldrb	r2, [r5]
 1855 0022 0096     		str	r6, [sp]
 1856 0024 044B     		ldr	r3, .L86+8
 1857 0026 2000     		movs	r0, r4
 1858              	.LVL315:
 1859 0028 FFF7FEFF 		bl	u8g2_SetupBuffer
 1860              	.LVL316:
 261:..\..\u8g2\csrc/u8g2_d_setup.c **** }
 1861              		.loc 1 261 0
 1862 002c 04B0     		add	sp, sp, #16
 1863              		@ sp needed
 1864              	.LVL317:
 1865              	.LVL318:
 1866 002e 70BD     		pop	{r4, r5, r6, pc}
 1867              	.L87:
 1868              		.align	2
 1869              	.L86:
 1870 0030 00000000 		.word	u8x8_cad_ssd13xx_i2c
 1871 0034 00000000 		.word	u8x8_d_sh1106_128x64_noname
 1872 0038 00000000 		.word	u8g2_ll_hvline_vertical_top_lsb
 1873              		.cfi_endproc
 1874              	.LFE28:
 1875              		.size	u8g2_Setup_sh1106_i2c_128x64_noname_f, .-u8g2_Setup_sh1106_i2c_128x64_noname_f
 1876              		.section	.text.u8g2_Setup_sh1106_i2c_128x64_vcomh0_f,"ax",%progbits
 1877              		.align	2
 1878              		.global	u8g2_Setup_sh1106_i2c_128x64_vcomh0_f
 1879              		.code	16
 1880              		.thumb_func
 1881              		.type	u8g2_Setup_sh1106_i2c_128x64_vcomh0_f, %function
 1882              	u8g2_Setup_sh1106_i2c_128x64_vcomh0_f:
 1883              	.LFB29:
 262:..\..\u8g2\csrc/u8g2_d_setup.c **** void u8g2_Setup_sh1106_i2c_128x64_vcomh0_f(u8g2_t *u8g2, const u8g2_cb_t *rotation, u8x8_msg_cb byt
 263:..\..\u8g2\csrc/u8g2_d_setup.c **** {
 1884              		.loc 1 263 0
 1885              		.cfi_startproc
 1886              		@ args = 0, pretend = 0, frame = 8
 1887              		@ frame_needed = 0, uses_anonymous_args = 0
 1888              	.LVL319:
 1889 0000 70B5     		push	{r4, r5, r6, lr}
 1890              		.cfi_def_cfa_offset 16
 1891              		.cfi_offset 4, -16
 1892              		.cfi_offset 5, -12
 1893              		.cfi_offset 6, -8
 1894              		.cfi_offset 14, -4
 1895 0002 84B0     		sub	sp, sp, #16
 1896              		.cfi_def_cfa_offset 32
 1897 0004 0400     		movs	r4, r0
 1898 0006 0E00     		movs	r6, r1
 264:..\..\u8g2\csrc/u8g2_d_setup.c ****   uint8_t tile_buf_height;
 265:..\..\u8g2\csrc/u8g2_d_setup.c ****   uint8_t *buf;
 266:..\..\u8g2\csrc/u8g2_d_setup.c ****   u8g2_SetupDisplay(u8g2, u8x8_d_sh1106_128x64_vcomh0, u8x8_cad_ssd13xx_i2c, byte_cb, gpio_and_dela
 1899              		.loc 1 266 0
 1900 0008 0093     		str	r3, [sp]
ARM GAS  C:\Users\arh\AppData\Local\Temp\ccfmrym3.s 			page 39


 1901 000a 1300     		movs	r3, r2
 1902              	.LVL320:
 1903 000c 084A     		ldr	r2, .L89
 1904              	.LVL321:
 1905 000e 0949     		ldr	r1, .L89+4
 1906              	.LVL322:
 1907 0010 FFF7FEFF 		bl	u8x8_Setup
 1908              	.LVL323:
 267:..\..\u8g2\csrc/u8g2_d_setup.c ****   buf = u8g2_m_sh1106_16_f(&tile_buf_height);
 1909              		.loc 1 267 0
 1910 0014 0F25     		movs	r5, #15
 1911 0016 6D44     		add	r5, r5, sp
 1912 0018 2800     		movs	r0, r5
 1913 001a FFF7FEFF 		bl	u8g2_m_sh1106_16_f
 1914              	.LVL324:
 1915 001e 0100     		movs	r1, r0
 1916              	.LVL325:
 268:..\..\u8g2\csrc/u8g2_d_setup.c ****   u8g2_SetupBuffer(u8g2, buf, tile_buf_height, u8g2_ll_hvline_vertical_top_lsb, rotation);
 1917              		.loc 1 268 0
 1918 0020 2A78     		ldrb	r2, [r5]
 1919 0022 0096     		str	r6, [sp]
 1920 0024 044B     		ldr	r3, .L89+8
 1921 0026 2000     		movs	r0, r4
 1922              	.LVL326:
 1923 0028 FFF7FEFF 		bl	u8g2_SetupBuffer
 1924              	.LVL327:
 269:..\..\u8g2\csrc/u8g2_d_setup.c **** }
 1925              		.loc 1 269 0
 1926 002c 04B0     		add	sp, sp, #16
 1927              		@ sp needed
 1928              	.LVL328:
 1929              	.LVL329:
 1930 002e 70BD     		pop	{r4, r5, r6, pc}
 1931              	.L90:
 1932              		.align	2
 1933              	.L89:
 1934 0030 00000000 		.word	u8x8_cad_ssd13xx_i2c
 1935 0034 00000000 		.word	u8x8_d_sh1106_128x64_vcomh0
 1936 0038 00000000 		.word	u8g2_ll_hvline_vertical_top_lsb
 1937              		.cfi_endproc
 1938              	.LFE29:
 1939              		.size	u8g2_Setup_sh1106_i2c_128x64_vcomh0_f, .-u8g2_Setup_sh1106_i2c_128x64_vcomh0_f
 1940              		.section	.text.u8g2_Setup_ssd1306_128x32_univision_1,"ax",%progbits
 1941              		.align	2
 1942              		.global	u8g2_Setup_ssd1306_128x32_univision_1
 1943              		.code	16
 1944              		.thumb_func
 1945              		.type	u8g2_Setup_ssd1306_128x32_univision_1, %function
 1946              	u8g2_Setup_ssd1306_128x32_univision_1:
 1947              	.LFB30:
 270:..\..\u8g2\csrc/u8g2_d_setup.c **** /* ssd1306 */
 271:..\..\u8g2\csrc/u8g2_d_setup.c **** /* ssd1306 1 */
 272:..\..\u8g2\csrc/u8g2_d_setup.c **** void u8g2_Setup_ssd1306_128x32_univision_1(u8g2_t *u8g2, const u8g2_cb_t *rotation, u8x8_msg_cb byt
 273:..\..\u8g2\csrc/u8g2_d_setup.c **** {
 1948              		.loc 1 273 0
 1949              		.cfi_startproc
 1950              		@ args = 0, pretend = 0, frame = 8
ARM GAS  C:\Users\arh\AppData\Local\Temp\ccfmrym3.s 			page 40


 1951              		@ frame_needed = 0, uses_anonymous_args = 0
 1952              	.LVL330:
 1953 0000 70B5     		push	{r4, r5, r6, lr}
 1954              		.cfi_def_cfa_offset 16
 1955              		.cfi_offset 4, -16
 1956              		.cfi_offset 5, -12
 1957              		.cfi_offset 6, -8
 1958              		.cfi_offset 14, -4
 1959 0002 84B0     		sub	sp, sp, #16
 1960              		.cfi_def_cfa_offset 32
 1961 0004 0400     		movs	r4, r0
 1962 0006 0E00     		movs	r6, r1
 274:..\..\u8g2\csrc/u8g2_d_setup.c ****   uint8_t tile_buf_height;
 275:..\..\u8g2\csrc/u8g2_d_setup.c ****   uint8_t *buf;
 276:..\..\u8g2\csrc/u8g2_d_setup.c ****   u8g2_SetupDisplay(u8g2, u8x8_d_ssd1306_128x32_univision, u8x8_cad_001, byte_cb, gpio_and_delay_cb
 1963              		.loc 1 276 0
 1964 0008 0093     		str	r3, [sp]
 1965 000a 1300     		movs	r3, r2
 1966              	.LVL331:
 1967 000c 084A     		ldr	r2, .L92
 1968              	.LVL332:
 1969 000e 0949     		ldr	r1, .L92+4
 1970              	.LVL333:
 1971 0010 FFF7FEFF 		bl	u8x8_Setup
 1972              	.LVL334:
 277:..\..\u8g2\csrc/u8g2_d_setup.c ****   buf = u8g2_m_ssd1306_16_1(&tile_buf_height);
 1973              		.loc 1 277 0
 1974 0014 0F25     		movs	r5, #15
 1975 0016 6D44     		add	r5, r5, sp
 1976 0018 2800     		movs	r0, r5
 1977 001a FFF7FEFF 		bl	u8g2_m_ssd1306_16_1
 1978              	.LVL335:
 1979 001e 0100     		movs	r1, r0
 1980              	.LVL336:
 278:..\..\u8g2\csrc/u8g2_d_setup.c ****   u8g2_SetupBuffer(u8g2, buf, tile_buf_height, u8g2_ll_hvline_vertical_top_lsb, rotation);
 1981              		.loc 1 278 0
 1982 0020 2A78     		ldrb	r2, [r5]
 1983 0022 0096     		str	r6, [sp]
 1984 0024 044B     		ldr	r3, .L92+8
 1985 0026 2000     		movs	r0, r4
 1986              	.LVL337:
 1987 0028 FFF7FEFF 		bl	u8g2_SetupBuffer
 1988              	.LVL338:
 279:..\..\u8g2\csrc/u8g2_d_setup.c **** }
 1989              		.loc 1 279 0
 1990 002c 04B0     		add	sp, sp, #16
 1991              		@ sp needed
 1992              	.LVL339:
 1993              	.LVL340:
 1994 002e 70BD     		pop	{r4, r5, r6, pc}
 1995              	.L93:
 1996              		.align	2
 1997              	.L92:
 1998 0030 00000000 		.word	u8x8_cad_001
 1999 0034 00000000 		.word	u8x8_d_ssd1306_128x32_univision
 2000 0038 00000000 		.word	u8g2_ll_hvline_vertical_top_lsb
 2001              		.cfi_endproc
ARM GAS  C:\Users\arh\AppData\Local\Temp\ccfmrym3.s 			page 41


 2002              	.LFE30:
 2003              		.size	u8g2_Setup_ssd1306_128x32_univision_1, .-u8g2_Setup_ssd1306_128x32_univision_1
 2004              		.section	.text.u8g2_Setup_ssd1306_128x32_univision_2,"ax",%progbits
 2005              		.align	2
 2006              		.global	u8g2_Setup_ssd1306_128x32_univision_2
 2007              		.code	16
 2008              		.thumb_func
 2009              		.type	u8g2_Setup_ssd1306_128x32_univision_2, %function
 2010              	u8g2_Setup_ssd1306_128x32_univision_2:
 2011              	.LFB31:
 280:..\..\u8g2\csrc/u8g2_d_setup.c **** /* ssd1306 2 */
 281:..\..\u8g2\csrc/u8g2_d_setup.c **** void u8g2_Setup_ssd1306_128x32_univision_2(u8g2_t *u8g2, const u8g2_cb_t *rotation, u8x8_msg_cb byt
 282:..\..\u8g2\csrc/u8g2_d_setup.c **** {
 2012              		.loc 1 282 0
 2013              		.cfi_startproc
 2014              		@ args = 0, pretend = 0, frame = 8
 2015              		@ frame_needed = 0, uses_anonymous_args = 0
 2016              	.LVL341:
 2017 0000 70B5     		push	{r4, r5, r6, lr}
 2018              		.cfi_def_cfa_offset 16
 2019              		.cfi_offset 4, -16
 2020              		.cfi_offset 5, -12
 2021              		.cfi_offset 6, -8
 2022              		.cfi_offset 14, -4
 2023 0002 84B0     		sub	sp, sp, #16
 2024              		.cfi_def_cfa_offset 32
 2025 0004 0400     		movs	r4, r0
 2026 0006 0E00     		movs	r6, r1
 283:..\..\u8g2\csrc/u8g2_d_setup.c ****   uint8_t tile_buf_height;
 284:..\..\u8g2\csrc/u8g2_d_setup.c ****   uint8_t *buf;
 285:..\..\u8g2\csrc/u8g2_d_setup.c ****   u8g2_SetupDisplay(u8g2, u8x8_d_ssd1306_128x32_univision, u8x8_cad_001, byte_cb, gpio_and_delay_cb
 2027              		.loc 1 285 0
 2028 0008 0093     		str	r3, [sp]
 2029 000a 1300     		movs	r3, r2
 2030              	.LVL342:
 2031 000c 084A     		ldr	r2, .L95
 2032              	.LVL343:
 2033 000e 0949     		ldr	r1, .L95+4
 2034              	.LVL344:
 2035 0010 FFF7FEFF 		bl	u8x8_Setup
 2036              	.LVL345:
 286:..\..\u8g2\csrc/u8g2_d_setup.c ****   buf = u8g2_m_ssd1306_16_2(&tile_buf_height);
 2037              		.loc 1 286 0
 2038 0014 0F25     		movs	r5, #15
 2039 0016 6D44     		add	r5, r5, sp
 2040 0018 2800     		movs	r0, r5
 2041 001a FFF7FEFF 		bl	u8g2_m_ssd1306_16_2
 2042              	.LVL346:
 2043 001e 0100     		movs	r1, r0
 2044              	.LVL347:
 287:..\..\u8g2\csrc/u8g2_d_setup.c ****   u8g2_SetupBuffer(u8g2, buf, tile_buf_height, u8g2_ll_hvline_vertical_top_lsb, rotation);
 2045              		.loc 1 287 0
 2046 0020 2A78     		ldrb	r2, [r5]
 2047 0022 0096     		str	r6, [sp]
 2048 0024 044B     		ldr	r3, .L95+8
 2049 0026 2000     		movs	r0, r4
 2050              	.LVL348:
ARM GAS  C:\Users\arh\AppData\Local\Temp\ccfmrym3.s 			page 42


 2051 0028 FFF7FEFF 		bl	u8g2_SetupBuffer
 2052              	.LVL349:
 288:..\..\u8g2\csrc/u8g2_d_setup.c **** }
 2053              		.loc 1 288 0
 2054 002c 04B0     		add	sp, sp, #16
 2055              		@ sp needed
 2056              	.LVL350:
 2057              	.LVL351:
 2058 002e 70BD     		pop	{r4, r5, r6, pc}
 2059              	.L96:
 2060              		.align	2
 2061              	.L95:
 2062 0030 00000000 		.word	u8x8_cad_001
 2063 0034 00000000 		.word	u8x8_d_ssd1306_128x32_univision
 2064 0038 00000000 		.word	u8g2_ll_hvline_vertical_top_lsb
 2065              		.cfi_endproc
 2066              	.LFE31:
 2067              		.size	u8g2_Setup_ssd1306_128x32_univision_2, .-u8g2_Setup_ssd1306_128x32_univision_2
 2068              		.section	.text.u8g2_Setup_ssd1306_128x32_univision_f,"ax",%progbits
 2069              		.align	2
 2070              		.global	u8g2_Setup_ssd1306_128x32_univision_f
 2071              		.code	16
 2072              		.thumb_func
 2073              		.type	u8g2_Setup_ssd1306_128x32_univision_f, %function
 2074              	u8g2_Setup_ssd1306_128x32_univision_f:
 2075              	.LFB32:
 289:..\..\u8g2\csrc/u8g2_d_setup.c **** /* ssd1306 f */
 290:..\..\u8g2\csrc/u8g2_d_setup.c **** void u8g2_Setup_ssd1306_128x32_univision_f(u8g2_t *u8g2, const u8g2_cb_t *rotation, u8x8_msg_cb byt
 291:..\..\u8g2\csrc/u8g2_d_setup.c **** {
 2076              		.loc 1 291 0
 2077              		.cfi_startproc
 2078              		@ args = 0, pretend = 0, frame = 8
 2079              		@ frame_needed = 0, uses_anonymous_args = 0
 2080              	.LVL352:
 2081 0000 70B5     		push	{r4, r5, r6, lr}
 2082              		.cfi_def_cfa_offset 16
 2083              		.cfi_offset 4, -16
 2084              		.cfi_offset 5, -12
 2085              		.cfi_offset 6, -8
 2086              		.cfi_offset 14, -4
 2087 0002 84B0     		sub	sp, sp, #16
 2088              		.cfi_def_cfa_offset 32
 2089 0004 0400     		movs	r4, r0
 2090 0006 0E00     		movs	r6, r1
 292:..\..\u8g2\csrc/u8g2_d_setup.c ****   uint8_t tile_buf_height;
 293:..\..\u8g2\csrc/u8g2_d_setup.c ****   uint8_t *buf;
 294:..\..\u8g2\csrc/u8g2_d_setup.c ****   u8g2_SetupDisplay(u8g2, u8x8_d_ssd1306_128x32_univision, u8x8_cad_001, byte_cb, gpio_and_delay_cb
 2091              		.loc 1 294 0
 2092 0008 0093     		str	r3, [sp]
 2093 000a 1300     		movs	r3, r2
 2094              	.LVL353:
 2095 000c 084A     		ldr	r2, .L98
 2096              	.LVL354:
 2097 000e 0949     		ldr	r1, .L98+4
 2098              	.LVL355:
 2099 0010 FFF7FEFF 		bl	u8x8_Setup
 2100              	.LVL356:
ARM GAS  C:\Users\arh\AppData\Local\Temp\ccfmrym3.s 			page 43


 295:..\..\u8g2\csrc/u8g2_d_setup.c ****   buf = u8g2_m_ssd1306_16_f(&tile_buf_height);
 2101              		.loc 1 295 0
 2102 0014 0F25     		movs	r5, #15
 2103 0016 6D44     		add	r5, r5, sp
 2104 0018 2800     		movs	r0, r5
 2105 001a FFF7FEFF 		bl	u8g2_m_ssd1306_16_f
 2106              	.LVL357:
 2107 001e 0100     		movs	r1, r0
 2108              	.LVL358:
 296:..\..\u8g2\csrc/u8g2_d_setup.c ****   u8g2_SetupBuffer(u8g2, buf, tile_buf_height, u8g2_ll_hvline_vertical_top_lsb, rotation);
 2109              		.loc 1 296 0
 2110 0020 2A78     		ldrb	r2, [r5]
 2111 0022 0096     		str	r6, [sp]
 2112 0024 044B     		ldr	r3, .L98+8
 2113 0026 2000     		movs	r0, r4
 2114              	.LVL359:
 2115 0028 FFF7FEFF 		bl	u8g2_SetupBuffer
 2116              	.LVL360:
 297:..\..\u8g2\csrc/u8g2_d_setup.c **** }
 2117              		.loc 1 297 0
 2118 002c 04B0     		add	sp, sp, #16
 2119              		@ sp needed
 2120              	.LVL361:
 2121              	.LVL362:
 2122 002e 70BD     		pop	{r4, r5, r6, pc}
 2123              	.L99:
 2124              		.align	2
 2125              	.L98:
 2126 0030 00000000 		.word	u8x8_cad_001
 2127 0034 00000000 		.word	u8x8_d_ssd1306_128x32_univision
 2128 0038 00000000 		.word	u8g2_ll_hvline_vertical_top_lsb
 2129              		.cfi_endproc
 2130              	.LFE32:
 2131              		.size	u8g2_Setup_ssd1306_128x32_univision_f, .-u8g2_Setup_ssd1306_128x32_univision_f
 2132              		.section	.text.u8g2_Setup_ssd1306_i2c_128x32_univision_1,"ax",%progbits
 2133              		.align	2
 2134              		.global	u8g2_Setup_ssd1306_i2c_128x32_univision_1
 2135              		.code	16
 2136              		.thumb_func
 2137              		.type	u8g2_Setup_ssd1306_i2c_128x32_univision_1, %function
 2138              	u8g2_Setup_ssd1306_i2c_128x32_univision_1:
 2139              	.LFB33:
 298:..\..\u8g2\csrc/u8g2_d_setup.c **** /* ssd1306 */
 299:..\..\u8g2\csrc/u8g2_d_setup.c **** /* ssd1306 1 */
 300:..\..\u8g2\csrc/u8g2_d_setup.c **** void u8g2_Setup_ssd1306_i2c_128x32_univision_1(u8g2_t *u8g2, const u8g2_cb_t *rotation, u8x8_msg_cb
 301:..\..\u8g2\csrc/u8g2_d_setup.c **** {
 2140              		.loc 1 301 0
 2141              		.cfi_startproc
 2142              		@ args = 0, pretend = 0, frame = 8
 2143              		@ frame_needed = 0, uses_anonymous_args = 0
 2144              	.LVL363:
 2145 0000 70B5     		push	{r4, r5, r6, lr}
 2146              		.cfi_def_cfa_offset 16
 2147              		.cfi_offset 4, -16
 2148              		.cfi_offset 5, -12
 2149              		.cfi_offset 6, -8
 2150              		.cfi_offset 14, -4
ARM GAS  C:\Users\arh\AppData\Local\Temp\ccfmrym3.s 			page 44


 2151 0002 84B0     		sub	sp, sp, #16
 2152              		.cfi_def_cfa_offset 32
 2153 0004 0400     		movs	r4, r0
 2154 0006 0E00     		movs	r6, r1
 302:..\..\u8g2\csrc/u8g2_d_setup.c ****   uint8_t tile_buf_height;
 303:..\..\u8g2\csrc/u8g2_d_setup.c ****   uint8_t *buf;
 304:..\..\u8g2\csrc/u8g2_d_setup.c ****   u8g2_SetupDisplay(u8g2, u8x8_d_ssd1306_128x32_univision, u8x8_cad_ssd13xx_i2c, byte_cb, gpio_and_
 2155              		.loc 1 304 0
 2156 0008 0093     		str	r3, [sp]
 2157 000a 1300     		movs	r3, r2
 2158              	.LVL364:
 2159 000c 084A     		ldr	r2, .L101
 2160              	.LVL365:
 2161 000e 0949     		ldr	r1, .L101+4
 2162              	.LVL366:
 2163 0010 FFF7FEFF 		bl	u8x8_Setup
 2164              	.LVL367:
 305:..\..\u8g2\csrc/u8g2_d_setup.c ****   buf = u8g2_m_ssd1306_16_1(&tile_buf_height);
 2165              		.loc 1 305 0
 2166 0014 0F25     		movs	r5, #15
 2167 0016 6D44     		add	r5, r5, sp
 2168 0018 2800     		movs	r0, r5
 2169 001a FFF7FEFF 		bl	u8g2_m_ssd1306_16_1
 2170              	.LVL368:
 2171 001e 0100     		movs	r1, r0
 2172              	.LVL369:
 306:..\..\u8g2\csrc/u8g2_d_setup.c ****   u8g2_SetupBuffer(u8g2, buf, tile_buf_height, u8g2_ll_hvline_vertical_top_lsb, rotation);
 2173              		.loc 1 306 0
 2174 0020 2A78     		ldrb	r2, [r5]
 2175 0022 0096     		str	r6, [sp]
 2176 0024 044B     		ldr	r3, .L101+8
 2177 0026 2000     		movs	r0, r4
 2178              	.LVL370:
 2179 0028 FFF7FEFF 		bl	u8g2_SetupBuffer
 2180              	.LVL371:
 307:..\..\u8g2\csrc/u8g2_d_setup.c **** }
 2181              		.loc 1 307 0
 2182 002c 04B0     		add	sp, sp, #16
 2183              		@ sp needed
 2184              	.LVL372:
 2185              	.LVL373:
 2186 002e 70BD     		pop	{r4, r5, r6, pc}
 2187              	.L102:
 2188              		.align	2
 2189              	.L101:
 2190 0030 00000000 		.word	u8x8_cad_ssd13xx_i2c
 2191 0034 00000000 		.word	u8x8_d_ssd1306_128x32_univision
 2192 0038 00000000 		.word	u8g2_ll_hvline_vertical_top_lsb
 2193              		.cfi_endproc
 2194              	.LFE33:
 2195              		.size	u8g2_Setup_ssd1306_i2c_128x32_univision_1, .-u8g2_Setup_ssd1306_i2c_128x32_univision_1
 2196              		.section	.text.u8g2_Setup_ssd1306_i2c_128x32_univision_2,"ax",%progbits
 2197              		.align	2
 2198              		.global	u8g2_Setup_ssd1306_i2c_128x32_univision_2
 2199              		.code	16
 2200              		.thumb_func
 2201              		.type	u8g2_Setup_ssd1306_i2c_128x32_univision_2, %function
ARM GAS  C:\Users\arh\AppData\Local\Temp\ccfmrym3.s 			page 45


 2202              	u8g2_Setup_ssd1306_i2c_128x32_univision_2:
 2203              	.LFB34:
 308:..\..\u8g2\csrc/u8g2_d_setup.c **** /* ssd1306 2 */
 309:..\..\u8g2\csrc/u8g2_d_setup.c **** void u8g2_Setup_ssd1306_i2c_128x32_univision_2(u8g2_t *u8g2, const u8g2_cb_t *rotation, u8x8_msg_cb
 310:..\..\u8g2\csrc/u8g2_d_setup.c **** {
 2204              		.loc 1 310 0
 2205              		.cfi_startproc
 2206              		@ args = 0, pretend = 0, frame = 8
 2207              		@ frame_needed = 0, uses_anonymous_args = 0
 2208              	.LVL374:
 2209 0000 70B5     		push	{r4, r5, r6, lr}
 2210              		.cfi_def_cfa_offset 16
 2211              		.cfi_offset 4, -16
 2212              		.cfi_offset 5, -12
 2213              		.cfi_offset 6, -8
 2214              		.cfi_offset 14, -4
 2215 0002 84B0     		sub	sp, sp, #16
 2216              		.cfi_def_cfa_offset 32
 2217 0004 0400     		movs	r4, r0
 2218 0006 0E00     		movs	r6, r1
 311:..\..\u8g2\csrc/u8g2_d_setup.c ****   uint8_t tile_buf_height;
 312:..\..\u8g2\csrc/u8g2_d_setup.c ****   uint8_t *buf;
 313:..\..\u8g2\csrc/u8g2_d_setup.c ****   u8g2_SetupDisplay(u8g2, u8x8_d_ssd1306_128x32_univision, u8x8_cad_ssd13xx_i2c, byte_cb, gpio_and_
 2219              		.loc 1 313 0
 2220 0008 0093     		str	r3, [sp]
 2221 000a 1300     		movs	r3, r2
 2222              	.LVL375:
 2223 000c 084A     		ldr	r2, .L104
 2224              	.LVL376:
 2225 000e 0949     		ldr	r1, .L104+4
 2226              	.LVL377:
 2227 0010 FFF7FEFF 		bl	u8x8_Setup
 2228              	.LVL378:
 314:..\..\u8g2\csrc/u8g2_d_setup.c ****   buf = u8g2_m_ssd1306_16_2(&tile_buf_height);
 2229              		.loc 1 314 0
 2230 0014 0F25     		movs	r5, #15
 2231 0016 6D44     		add	r5, r5, sp
 2232 0018 2800     		movs	r0, r5
 2233 001a FFF7FEFF 		bl	u8g2_m_ssd1306_16_2
 2234              	.LVL379:
 2235 001e 0100     		movs	r1, r0
 2236              	.LVL380:
 315:..\..\u8g2\csrc/u8g2_d_setup.c ****   u8g2_SetupBuffer(u8g2, buf, tile_buf_height, u8g2_ll_hvline_vertical_top_lsb, rotation);
 2237              		.loc 1 315 0
 2238 0020 2A78     		ldrb	r2, [r5]
 2239 0022 0096     		str	r6, [sp]
 2240 0024 044B     		ldr	r3, .L104+8
 2241 0026 2000     		movs	r0, r4
 2242              	.LVL381:
 2243 0028 FFF7FEFF 		bl	u8g2_SetupBuffer
 2244              	.LVL382:
 316:..\..\u8g2\csrc/u8g2_d_setup.c **** }
 2245              		.loc 1 316 0
 2246 002c 04B0     		add	sp, sp, #16
 2247              		@ sp needed
 2248              	.LVL383:
 2249              	.LVL384:
ARM GAS  C:\Users\arh\AppData\Local\Temp\ccfmrym3.s 			page 46


 2250 002e 70BD     		pop	{r4, r5, r6, pc}
 2251              	.L105:
 2252              		.align	2
 2253              	.L104:
 2254 0030 00000000 		.word	u8x8_cad_ssd13xx_i2c
 2255 0034 00000000 		.word	u8x8_d_ssd1306_128x32_univision
 2256 0038 00000000 		.word	u8g2_ll_hvline_vertical_top_lsb
 2257              		.cfi_endproc
 2258              	.LFE34:
 2259              		.size	u8g2_Setup_ssd1306_i2c_128x32_univision_2, .-u8g2_Setup_ssd1306_i2c_128x32_univision_2
 2260              		.section	.text.u8g2_Setup_ssd1306_i2c_128x32_univision_f,"ax",%progbits
 2261              		.align	2
 2262              		.global	u8g2_Setup_ssd1306_i2c_128x32_univision_f
 2263              		.code	16
 2264              		.thumb_func
 2265              		.type	u8g2_Setup_ssd1306_i2c_128x32_univision_f, %function
 2266              	u8g2_Setup_ssd1306_i2c_128x32_univision_f:
 2267              	.LFB35:
 317:..\..\u8g2\csrc/u8g2_d_setup.c **** /* ssd1306 f */
 318:..\..\u8g2\csrc/u8g2_d_setup.c **** void u8g2_Setup_ssd1306_i2c_128x32_univision_f(u8g2_t *u8g2, const u8g2_cb_t *rotation, u8x8_msg_cb
 319:..\..\u8g2\csrc/u8g2_d_setup.c **** {
 2268              		.loc 1 319 0
 2269              		.cfi_startproc
 2270              		@ args = 0, pretend = 0, frame = 8
 2271              		@ frame_needed = 0, uses_anonymous_args = 0
 2272              	.LVL385:
 2273 0000 70B5     		push	{r4, r5, r6, lr}
 2274              		.cfi_def_cfa_offset 16
 2275              		.cfi_offset 4, -16
 2276              		.cfi_offset 5, -12
 2277              		.cfi_offset 6, -8
 2278              		.cfi_offset 14, -4
 2279 0002 84B0     		sub	sp, sp, #16
 2280              		.cfi_def_cfa_offset 32
 2281 0004 0400     		movs	r4, r0
 2282 0006 0E00     		movs	r6, r1
 320:..\..\u8g2\csrc/u8g2_d_setup.c ****   uint8_t tile_buf_height;
 321:..\..\u8g2\csrc/u8g2_d_setup.c ****   uint8_t *buf;
 322:..\..\u8g2\csrc/u8g2_d_setup.c ****   u8g2_SetupDisplay(u8g2, u8x8_d_ssd1306_128x32_univision, u8x8_cad_ssd13xx_i2c, byte_cb, gpio_and_
 2283              		.loc 1 322 0
 2284 0008 0093     		str	r3, [sp]
 2285 000a 1300     		movs	r3, r2
 2286              	.LVL386:
 2287 000c 084A     		ldr	r2, .L107
 2288              	.LVL387:
 2289 000e 0949     		ldr	r1, .L107+4
 2290              	.LVL388:
 2291 0010 FFF7FEFF 		bl	u8x8_Setup
 2292              	.LVL389:
 323:..\..\u8g2\csrc/u8g2_d_setup.c ****   buf = u8g2_m_ssd1306_16_f(&tile_buf_height);
 2293              		.loc 1 323 0
 2294 0014 0F25     		movs	r5, #15
 2295 0016 6D44     		add	r5, r5, sp
 2296 0018 2800     		movs	r0, r5
 2297 001a FFF7FEFF 		bl	u8g2_m_ssd1306_16_f
 2298              	.LVL390:
 2299 001e 0100     		movs	r1, r0
ARM GAS  C:\Users\arh\AppData\Local\Temp\ccfmrym3.s 			page 47


 2300              	.LVL391:
 324:..\..\u8g2\csrc/u8g2_d_setup.c ****   u8g2_SetupBuffer(u8g2, buf, tile_buf_height, u8g2_ll_hvline_vertical_top_lsb, rotation);
 2301              		.loc 1 324 0
 2302 0020 2A78     		ldrb	r2, [r5]
 2303 0022 0096     		str	r6, [sp]
 2304 0024 044B     		ldr	r3, .L107+8
 2305 0026 2000     		movs	r0, r4
 2306              	.LVL392:
 2307 0028 FFF7FEFF 		bl	u8g2_SetupBuffer
 2308              	.LVL393:
 325:..\..\u8g2\csrc/u8g2_d_setup.c **** }
 2309              		.loc 1 325 0
 2310 002c 04B0     		add	sp, sp, #16
 2311              		@ sp needed
 2312              	.LVL394:
 2313              	.LVL395:
 2314 002e 70BD     		pop	{r4, r5, r6, pc}
 2315              	.L108:
 2316              		.align	2
 2317              	.L107:
 2318 0030 00000000 		.word	u8x8_cad_ssd13xx_i2c
 2319 0034 00000000 		.word	u8x8_d_ssd1306_128x32_univision
 2320 0038 00000000 		.word	u8g2_ll_hvline_vertical_top_lsb
 2321              		.cfi_endproc
 2322              	.LFE35:
 2323              		.size	u8g2_Setup_ssd1306_i2c_128x32_univision_f, .-u8g2_Setup_ssd1306_i2c_128x32_univision_f
 2324              		.section	.text.u8g2_Setup_ssd1306_64x48_er_1,"ax",%progbits
 2325              		.align	2
 2326              		.global	u8g2_Setup_ssd1306_64x48_er_1
 2327              		.code	16
 2328              		.thumb_func
 2329              		.type	u8g2_Setup_ssd1306_64x48_er_1, %function
 2330              	u8g2_Setup_ssd1306_64x48_er_1:
 2331              	.LFB36:
 326:..\..\u8g2\csrc/u8g2_d_setup.c **** /* ssd1306 */
 327:..\..\u8g2\csrc/u8g2_d_setup.c **** /* ssd1306 1 */
 328:..\..\u8g2\csrc/u8g2_d_setup.c **** void u8g2_Setup_ssd1306_64x48_er_1(u8g2_t *u8g2, const u8g2_cb_t *rotation, u8x8_msg_cb byte_cb, u8
 329:..\..\u8g2\csrc/u8g2_d_setup.c **** {
 2332              		.loc 1 329 0
 2333              		.cfi_startproc
 2334              		@ args = 0, pretend = 0, frame = 8
 2335              		@ frame_needed = 0, uses_anonymous_args = 0
 2336              	.LVL396:
 2337 0000 70B5     		push	{r4, r5, r6, lr}
 2338              		.cfi_def_cfa_offset 16
 2339              		.cfi_offset 4, -16
 2340              		.cfi_offset 5, -12
 2341              		.cfi_offset 6, -8
 2342              		.cfi_offset 14, -4
 2343 0002 84B0     		sub	sp, sp, #16
 2344              		.cfi_def_cfa_offset 32
 2345 0004 0400     		movs	r4, r0
 2346 0006 0E00     		movs	r6, r1
 330:..\..\u8g2\csrc/u8g2_d_setup.c ****   uint8_t tile_buf_height;
 331:..\..\u8g2\csrc/u8g2_d_setup.c ****   uint8_t *buf;
 332:..\..\u8g2\csrc/u8g2_d_setup.c ****   u8g2_SetupDisplay(u8g2, u8x8_d_ssd1306_64x48_er, u8x8_cad_001, byte_cb, gpio_and_delay_cb);
 2347              		.loc 1 332 0
ARM GAS  C:\Users\arh\AppData\Local\Temp\ccfmrym3.s 			page 48


 2348 0008 0093     		str	r3, [sp]
 2349 000a 1300     		movs	r3, r2
 2350              	.LVL397:
 2351 000c 084A     		ldr	r2, .L110
 2352              	.LVL398:
 2353 000e 0949     		ldr	r1, .L110+4
 2354              	.LVL399:
 2355 0010 FFF7FEFF 		bl	u8x8_Setup
 2356              	.LVL400:
 333:..\..\u8g2\csrc/u8g2_d_setup.c ****   buf = u8g2_m_ssd1306_8_1(&tile_buf_height);
 2357              		.loc 1 333 0
 2358 0014 0F25     		movs	r5, #15
 2359 0016 6D44     		add	r5, r5, sp
 2360 0018 2800     		movs	r0, r5
 2361 001a FFF7FEFF 		bl	u8g2_m_ssd1306_8_1
 2362              	.LVL401:
 2363 001e 0100     		movs	r1, r0
 2364              	.LVL402:
 334:..\..\u8g2\csrc/u8g2_d_setup.c ****   u8g2_SetupBuffer(u8g2, buf, tile_buf_height, u8g2_ll_hvline_vertical_top_lsb, rotation);
 2365              		.loc 1 334 0
 2366 0020 2A78     		ldrb	r2, [r5]
 2367 0022 0096     		str	r6, [sp]
 2368 0024 044B     		ldr	r3, .L110+8
 2369 0026 2000     		movs	r0, r4
 2370              	.LVL403:
 2371 0028 FFF7FEFF 		bl	u8g2_SetupBuffer
 2372              	.LVL404:
 335:..\..\u8g2\csrc/u8g2_d_setup.c **** }
 2373              		.loc 1 335 0
 2374 002c 04B0     		add	sp, sp, #16
 2375              		@ sp needed
 2376              	.LVL405:
 2377              	.LVL406:
 2378 002e 70BD     		pop	{r4, r5, r6, pc}
 2379              	.L111:
 2380              		.align	2
 2381              	.L110:
 2382 0030 00000000 		.word	u8x8_cad_001
 2383 0034 00000000 		.word	u8x8_d_ssd1306_64x48_er
 2384 0038 00000000 		.word	u8g2_ll_hvline_vertical_top_lsb
 2385              		.cfi_endproc
 2386              	.LFE36:
 2387              		.size	u8g2_Setup_ssd1306_64x48_er_1, .-u8g2_Setup_ssd1306_64x48_er_1
 2388              		.section	.text.u8g2_Setup_ssd1306_64x48_er_2,"ax",%progbits
 2389              		.align	2
 2390              		.global	u8g2_Setup_ssd1306_64x48_er_2
 2391              		.code	16
 2392              		.thumb_func
 2393              		.type	u8g2_Setup_ssd1306_64x48_er_2, %function
 2394              	u8g2_Setup_ssd1306_64x48_er_2:
 2395              	.LFB37:
 336:..\..\u8g2\csrc/u8g2_d_setup.c **** /* ssd1306 2 */
 337:..\..\u8g2\csrc/u8g2_d_setup.c **** void u8g2_Setup_ssd1306_64x48_er_2(u8g2_t *u8g2, const u8g2_cb_t *rotation, u8x8_msg_cb byte_cb, u8
 338:..\..\u8g2\csrc/u8g2_d_setup.c **** {
 2396              		.loc 1 338 0
 2397              		.cfi_startproc
 2398              		@ args = 0, pretend = 0, frame = 8
ARM GAS  C:\Users\arh\AppData\Local\Temp\ccfmrym3.s 			page 49


 2399              		@ frame_needed = 0, uses_anonymous_args = 0
 2400              	.LVL407:
 2401 0000 70B5     		push	{r4, r5, r6, lr}
 2402              		.cfi_def_cfa_offset 16
 2403              		.cfi_offset 4, -16
 2404              		.cfi_offset 5, -12
 2405              		.cfi_offset 6, -8
 2406              		.cfi_offset 14, -4
 2407 0002 84B0     		sub	sp, sp, #16
 2408              		.cfi_def_cfa_offset 32
 2409 0004 0400     		movs	r4, r0
 2410 0006 0E00     		movs	r6, r1
 339:..\..\u8g2\csrc/u8g2_d_setup.c ****   uint8_t tile_buf_height;
 340:..\..\u8g2\csrc/u8g2_d_setup.c ****   uint8_t *buf;
 341:..\..\u8g2\csrc/u8g2_d_setup.c ****   u8g2_SetupDisplay(u8g2, u8x8_d_ssd1306_64x48_er, u8x8_cad_001, byte_cb, gpio_and_delay_cb);
 2411              		.loc 1 341 0
 2412 0008 0093     		str	r3, [sp]
 2413 000a 1300     		movs	r3, r2
 2414              	.LVL408:
 2415 000c 084A     		ldr	r2, .L113
 2416              	.LVL409:
 2417 000e 0949     		ldr	r1, .L113+4
 2418              	.LVL410:
 2419 0010 FFF7FEFF 		bl	u8x8_Setup
 2420              	.LVL411:
 342:..\..\u8g2\csrc/u8g2_d_setup.c ****   buf = u8g2_m_ssd1306_8_2(&tile_buf_height);
 2421              		.loc 1 342 0
 2422 0014 0F25     		movs	r5, #15
 2423 0016 6D44     		add	r5, r5, sp
 2424 0018 2800     		movs	r0, r5
 2425 001a FFF7FEFF 		bl	u8g2_m_ssd1306_8_2
 2426              	.LVL412:
 2427 001e 0100     		movs	r1, r0
 2428              	.LVL413:
 343:..\..\u8g2\csrc/u8g2_d_setup.c ****   u8g2_SetupBuffer(u8g2, buf, tile_buf_height, u8g2_ll_hvline_vertical_top_lsb, rotation);
 2429              		.loc 1 343 0
 2430 0020 2A78     		ldrb	r2, [r5]
 2431 0022 0096     		str	r6, [sp]
 2432 0024 044B     		ldr	r3, .L113+8
 2433 0026 2000     		movs	r0, r4
 2434              	.LVL414:
 2435 0028 FFF7FEFF 		bl	u8g2_SetupBuffer
 2436              	.LVL415:
 344:..\..\u8g2\csrc/u8g2_d_setup.c **** }
 2437              		.loc 1 344 0
 2438 002c 04B0     		add	sp, sp, #16
 2439              		@ sp needed
 2440              	.LVL416:
 2441              	.LVL417:
 2442 002e 70BD     		pop	{r4, r5, r6, pc}
 2443              	.L114:
 2444              		.align	2
 2445              	.L113:
 2446 0030 00000000 		.word	u8x8_cad_001
 2447 0034 00000000 		.word	u8x8_d_ssd1306_64x48_er
 2448 0038 00000000 		.word	u8g2_ll_hvline_vertical_top_lsb
 2449              		.cfi_endproc
ARM GAS  C:\Users\arh\AppData\Local\Temp\ccfmrym3.s 			page 50


 2450              	.LFE37:
 2451              		.size	u8g2_Setup_ssd1306_64x48_er_2, .-u8g2_Setup_ssd1306_64x48_er_2
 2452              		.section	.text.u8g2_Setup_ssd1306_64x48_er_f,"ax",%progbits
 2453              		.align	2
 2454              		.global	u8g2_Setup_ssd1306_64x48_er_f
 2455              		.code	16
 2456              		.thumb_func
 2457              		.type	u8g2_Setup_ssd1306_64x48_er_f, %function
 2458              	u8g2_Setup_ssd1306_64x48_er_f:
 2459              	.LFB38:
 345:..\..\u8g2\csrc/u8g2_d_setup.c **** /* ssd1306 f */
 346:..\..\u8g2\csrc/u8g2_d_setup.c **** void u8g2_Setup_ssd1306_64x48_er_f(u8g2_t *u8g2, const u8g2_cb_t *rotation, u8x8_msg_cb byte_cb, u8
 347:..\..\u8g2\csrc/u8g2_d_setup.c **** {
 2460              		.loc 1 347 0
 2461              		.cfi_startproc
 2462              		@ args = 0, pretend = 0, frame = 8
 2463              		@ frame_needed = 0, uses_anonymous_args = 0
 2464              	.LVL418:
 2465 0000 70B5     		push	{r4, r5, r6, lr}
 2466              		.cfi_def_cfa_offset 16
 2467              		.cfi_offset 4, -16
 2468              		.cfi_offset 5, -12
 2469              		.cfi_offset 6, -8
 2470              		.cfi_offset 14, -4
 2471 0002 84B0     		sub	sp, sp, #16
 2472              		.cfi_def_cfa_offset 32
 2473 0004 0400     		movs	r4, r0
 2474 0006 0E00     		movs	r6, r1
 348:..\..\u8g2\csrc/u8g2_d_setup.c ****   uint8_t tile_buf_height;
 349:..\..\u8g2\csrc/u8g2_d_setup.c ****   uint8_t *buf;
 350:..\..\u8g2\csrc/u8g2_d_setup.c ****   u8g2_SetupDisplay(u8g2, u8x8_d_ssd1306_64x48_er, u8x8_cad_001, byte_cb, gpio_and_delay_cb);
 2475              		.loc 1 350 0
 2476 0008 0093     		str	r3, [sp]
 2477 000a 1300     		movs	r3, r2
 2478              	.LVL419:
 2479 000c 084A     		ldr	r2, .L116
 2480              	.LVL420:
 2481 000e 0949     		ldr	r1, .L116+4
 2482              	.LVL421:
 2483 0010 FFF7FEFF 		bl	u8x8_Setup
 2484              	.LVL422:
 351:..\..\u8g2\csrc/u8g2_d_setup.c ****   buf = u8g2_m_ssd1306_8_f(&tile_buf_height);
 2485              		.loc 1 351 0
 2486 0014 0F25     		movs	r5, #15
 2487 0016 6D44     		add	r5, r5, sp
 2488 0018 2800     		movs	r0, r5
 2489 001a FFF7FEFF 		bl	u8g2_m_ssd1306_8_f
 2490              	.LVL423:
 2491 001e 0100     		movs	r1, r0
 2492              	.LVL424:
 352:..\..\u8g2\csrc/u8g2_d_setup.c ****   u8g2_SetupBuffer(u8g2, buf, tile_buf_height, u8g2_ll_hvline_vertical_top_lsb, rotation);
 2493              		.loc 1 352 0
 2494 0020 2A78     		ldrb	r2, [r5]
 2495 0022 0096     		str	r6, [sp]
 2496 0024 044B     		ldr	r3, .L116+8
 2497 0026 2000     		movs	r0, r4
 2498              	.LVL425:
ARM GAS  C:\Users\arh\AppData\Local\Temp\ccfmrym3.s 			page 51


 2499 0028 FFF7FEFF 		bl	u8g2_SetupBuffer
 2500              	.LVL426:
 353:..\..\u8g2\csrc/u8g2_d_setup.c **** }
 2501              		.loc 1 353 0
 2502 002c 04B0     		add	sp, sp, #16
 2503              		@ sp needed
 2504              	.LVL427:
 2505              	.LVL428:
 2506 002e 70BD     		pop	{r4, r5, r6, pc}
 2507              	.L117:
 2508              		.align	2
 2509              	.L116:
 2510 0030 00000000 		.word	u8x8_cad_001
 2511 0034 00000000 		.word	u8x8_d_ssd1306_64x48_er
 2512 0038 00000000 		.word	u8g2_ll_hvline_vertical_top_lsb
 2513              		.cfi_endproc
 2514              	.LFE38:
 2515              		.size	u8g2_Setup_ssd1306_64x48_er_f, .-u8g2_Setup_ssd1306_64x48_er_f
 2516              		.section	.text.u8g2_Setup_ssd1306_i2c_64x48_er_1,"ax",%progbits
 2517              		.align	2
 2518              		.global	u8g2_Setup_ssd1306_i2c_64x48_er_1
 2519              		.code	16
 2520              		.thumb_func
 2521              		.type	u8g2_Setup_ssd1306_i2c_64x48_er_1, %function
 2522              	u8g2_Setup_ssd1306_i2c_64x48_er_1:
 2523              	.LFB39:
 354:..\..\u8g2\csrc/u8g2_d_setup.c **** /* ssd1306 */
 355:..\..\u8g2\csrc/u8g2_d_setup.c **** /* ssd1306 1 */
 356:..\..\u8g2\csrc/u8g2_d_setup.c **** void u8g2_Setup_ssd1306_i2c_64x48_er_1(u8g2_t *u8g2, const u8g2_cb_t *rotation, u8x8_msg_cb byte_cb
 357:..\..\u8g2\csrc/u8g2_d_setup.c **** {
 2524              		.loc 1 357 0
 2525              		.cfi_startproc
 2526              		@ args = 0, pretend = 0, frame = 8
 2527              		@ frame_needed = 0, uses_anonymous_args = 0
 2528              	.LVL429:
 2529 0000 70B5     		push	{r4, r5, r6, lr}
 2530              		.cfi_def_cfa_offset 16
 2531              		.cfi_offset 4, -16
 2532              		.cfi_offset 5, -12
 2533              		.cfi_offset 6, -8
 2534              		.cfi_offset 14, -4
 2535 0002 84B0     		sub	sp, sp, #16
 2536              		.cfi_def_cfa_offset 32
 2537 0004 0400     		movs	r4, r0
 2538 0006 0E00     		movs	r6, r1
 358:..\..\u8g2\csrc/u8g2_d_setup.c ****   uint8_t tile_buf_height;
 359:..\..\u8g2\csrc/u8g2_d_setup.c ****   uint8_t *buf;
 360:..\..\u8g2\csrc/u8g2_d_setup.c ****   u8g2_SetupDisplay(u8g2, u8x8_d_ssd1306_64x48_er, u8x8_cad_ssd13xx_i2c, byte_cb, gpio_and_delay_cb
 2539              		.loc 1 360 0
 2540 0008 0093     		str	r3, [sp]
 2541 000a 1300     		movs	r3, r2
 2542              	.LVL430:
 2543 000c 084A     		ldr	r2, .L119
 2544              	.LVL431:
 2545 000e 0949     		ldr	r1, .L119+4
 2546              	.LVL432:
 2547 0010 FFF7FEFF 		bl	u8x8_Setup
ARM GAS  C:\Users\arh\AppData\Local\Temp\ccfmrym3.s 			page 52


 2548              	.LVL433:
 361:..\..\u8g2\csrc/u8g2_d_setup.c ****   buf = u8g2_m_ssd1306_8_1(&tile_buf_height);
 2549              		.loc 1 361 0
 2550 0014 0F25     		movs	r5, #15
 2551 0016 6D44     		add	r5, r5, sp
 2552 0018 2800     		movs	r0, r5
 2553 001a FFF7FEFF 		bl	u8g2_m_ssd1306_8_1
 2554              	.LVL434:
 2555 001e 0100     		movs	r1, r0
 2556              	.LVL435:
 362:..\..\u8g2\csrc/u8g2_d_setup.c ****   u8g2_SetupBuffer(u8g2, buf, tile_buf_height, u8g2_ll_hvline_vertical_top_lsb, rotation);
 2557              		.loc 1 362 0
 2558 0020 2A78     		ldrb	r2, [r5]
 2559 0022 0096     		str	r6, [sp]
 2560 0024 044B     		ldr	r3, .L119+8
 2561 0026 2000     		movs	r0, r4
 2562              	.LVL436:
 2563 0028 FFF7FEFF 		bl	u8g2_SetupBuffer
 2564              	.LVL437:
 363:..\..\u8g2\csrc/u8g2_d_setup.c **** }
 2565              		.loc 1 363 0
 2566 002c 04B0     		add	sp, sp, #16
 2567              		@ sp needed
 2568              	.LVL438:
 2569              	.LVL439:
 2570 002e 70BD     		pop	{r4, r5, r6, pc}
 2571              	.L120:
 2572              		.align	2
 2573              	.L119:
 2574 0030 00000000 		.word	u8x8_cad_ssd13xx_i2c
 2575 0034 00000000 		.word	u8x8_d_ssd1306_64x48_er
 2576 0038 00000000 		.word	u8g2_ll_hvline_vertical_top_lsb
 2577              		.cfi_endproc
 2578              	.LFE39:
 2579              		.size	u8g2_Setup_ssd1306_i2c_64x48_er_1, .-u8g2_Setup_ssd1306_i2c_64x48_er_1
 2580              		.section	.text.u8g2_Setup_ssd1306_i2c_64x48_er_2,"ax",%progbits
 2581              		.align	2
 2582              		.global	u8g2_Setup_ssd1306_i2c_64x48_er_2
 2583              		.code	16
 2584              		.thumb_func
 2585              		.type	u8g2_Setup_ssd1306_i2c_64x48_er_2, %function
 2586              	u8g2_Setup_ssd1306_i2c_64x48_er_2:
 2587              	.LFB40:
 364:..\..\u8g2\csrc/u8g2_d_setup.c **** /* ssd1306 2 */
 365:..\..\u8g2\csrc/u8g2_d_setup.c **** void u8g2_Setup_ssd1306_i2c_64x48_er_2(u8g2_t *u8g2, const u8g2_cb_t *rotation, u8x8_msg_cb byte_cb
 366:..\..\u8g2\csrc/u8g2_d_setup.c **** {
 2588              		.loc 1 366 0
 2589              		.cfi_startproc
 2590              		@ args = 0, pretend = 0, frame = 8
 2591              		@ frame_needed = 0, uses_anonymous_args = 0
 2592              	.LVL440:
 2593 0000 70B5     		push	{r4, r5, r6, lr}
 2594              		.cfi_def_cfa_offset 16
 2595              		.cfi_offset 4, -16
 2596              		.cfi_offset 5, -12
 2597              		.cfi_offset 6, -8
 2598              		.cfi_offset 14, -4
ARM GAS  C:\Users\arh\AppData\Local\Temp\ccfmrym3.s 			page 53


 2599 0002 84B0     		sub	sp, sp, #16
 2600              		.cfi_def_cfa_offset 32
 2601 0004 0400     		movs	r4, r0
 2602 0006 0E00     		movs	r6, r1
 367:..\..\u8g2\csrc/u8g2_d_setup.c ****   uint8_t tile_buf_height;
 368:..\..\u8g2\csrc/u8g2_d_setup.c ****   uint8_t *buf;
 369:..\..\u8g2\csrc/u8g2_d_setup.c ****   u8g2_SetupDisplay(u8g2, u8x8_d_ssd1306_64x48_er, u8x8_cad_ssd13xx_i2c, byte_cb, gpio_and_delay_cb
 2603              		.loc 1 369 0
 2604 0008 0093     		str	r3, [sp]
 2605 000a 1300     		movs	r3, r2
 2606              	.LVL441:
 2607 000c 084A     		ldr	r2, .L122
 2608              	.LVL442:
 2609 000e 0949     		ldr	r1, .L122+4
 2610              	.LVL443:
 2611 0010 FFF7FEFF 		bl	u8x8_Setup
 2612              	.LVL444:
 370:..\..\u8g2\csrc/u8g2_d_setup.c ****   buf = u8g2_m_ssd1306_8_2(&tile_buf_height);
 2613              		.loc 1 370 0
 2614 0014 0F25     		movs	r5, #15
 2615 0016 6D44     		add	r5, r5, sp
 2616 0018 2800     		movs	r0, r5
 2617 001a FFF7FEFF 		bl	u8g2_m_ssd1306_8_2
 2618              	.LVL445:
 2619 001e 0100     		movs	r1, r0
 2620              	.LVL446:
 371:..\..\u8g2\csrc/u8g2_d_setup.c ****   u8g2_SetupBuffer(u8g2, buf, tile_buf_height, u8g2_ll_hvline_vertical_top_lsb, rotation);
 2621              		.loc 1 371 0
 2622 0020 2A78     		ldrb	r2, [r5]
 2623 0022 0096     		str	r6, [sp]
 2624 0024 044B     		ldr	r3, .L122+8
 2625 0026 2000     		movs	r0, r4
 2626              	.LVL447:
 2627 0028 FFF7FEFF 		bl	u8g2_SetupBuffer
 2628              	.LVL448:
 372:..\..\u8g2\csrc/u8g2_d_setup.c **** }
 2629              		.loc 1 372 0
 2630 002c 04B0     		add	sp, sp, #16
 2631              		@ sp needed
 2632              	.LVL449:
 2633              	.LVL450:
 2634 002e 70BD     		pop	{r4, r5, r6, pc}
 2635              	.L123:
 2636              		.align	2
 2637              	.L122:
 2638 0030 00000000 		.word	u8x8_cad_ssd13xx_i2c
 2639 0034 00000000 		.word	u8x8_d_ssd1306_64x48_er
 2640 0038 00000000 		.word	u8g2_ll_hvline_vertical_top_lsb
 2641              		.cfi_endproc
 2642              	.LFE40:
 2643              		.size	u8g2_Setup_ssd1306_i2c_64x48_er_2, .-u8g2_Setup_ssd1306_i2c_64x48_er_2
 2644              		.section	.text.u8g2_Setup_ssd1306_i2c_64x48_er_f,"ax",%progbits
 2645              		.align	2
 2646              		.global	u8g2_Setup_ssd1306_i2c_64x48_er_f
 2647              		.code	16
 2648              		.thumb_func
 2649              		.type	u8g2_Setup_ssd1306_i2c_64x48_er_f, %function
ARM GAS  C:\Users\arh\AppData\Local\Temp\ccfmrym3.s 			page 54


 2650              	u8g2_Setup_ssd1306_i2c_64x48_er_f:
 2651              	.LFB41:
 373:..\..\u8g2\csrc/u8g2_d_setup.c **** /* ssd1306 f */
 374:..\..\u8g2\csrc/u8g2_d_setup.c **** void u8g2_Setup_ssd1306_i2c_64x48_er_f(u8g2_t *u8g2, const u8g2_cb_t *rotation, u8x8_msg_cb byte_cb
 375:..\..\u8g2\csrc/u8g2_d_setup.c **** {
 2652              		.loc 1 375 0
 2653              		.cfi_startproc
 2654              		@ args = 0, pretend = 0, frame = 8
 2655              		@ frame_needed = 0, uses_anonymous_args = 0
 2656              	.LVL451:
 2657 0000 70B5     		push	{r4, r5, r6, lr}
 2658              		.cfi_def_cfa_offset 16
 2659              		.cfi_offset 4, -16
 2660              		.cfi_offset 5, -12
 2661              		.cfi_offset 6, -8
 2662              		.cfi_offset 14, -4
 2663 0002 84B0     		sub	sp, sp, #16
 2664              		.cfi_def_cfa_offset 32
 2665 0004 0400     		movs	r4, r0
 2666 0006 0E00     		movs	r6, r1
 376:..\..\u8g2\csrc/u8g2_d_setup.c ****   uint8_t tile_buf_height;
 377:..\..\u8g2\csrc/u8g2_d_setup.c ****   uint8_t *buf;
 378:..\..\u8g2\csrc/u8g2_d_setup.c ****   u8g2_SetupDisplay(u8g2, u8x8_d_ssd1306_64x48_er, u8x8_cad_ssd13xx_i2c, byte_cb, gpio_and_delay_cb
 2667              		.loc 1 378 0
 2668 0008 0093     		str	r3, [sp]
 2669 000a 1300     		movs	r3, r2
 2670              	.LVL452:
 2671 000c 084A     		ldr	r2, .L125
 2672              	.LVL453:
 2673 000e 0949     		ldr	r1, .L125+4
 2674              	.LVL454:
 2675 0010 FFF7FEFF 		bl	u8x8_Setup
 2676              	.LVL455:
 379:..\..\u8g2\csrc/u8g2_d_setup.c ****   buf = u8g2_m_ssd1306_8_f(&tile_buf_height);
 2677              		.loc 1 379 0
 2678 0014 0F25     		movs	r5, #15
 2679 0016 6D44     		add	r5, r5, sp
 2680 0018 2800     		movs	r0, r5
 2681 001a FFF7FEFF 		bl	u8g2_m_ssd1306_8_f
 2682              	.LVL456:
 2683 001e 0100     		movs	r1, r0
 2684              	.LVL457:
 380:..\..\u8g2\csrc/u8g2_d_setup.c ****   u8g2_SetupBuffer(u8g2, buf, tile_buf_height, u8g2_ll_hvline_vertical_top_lsb, rotation);
 2685              		.loc 1 380 0
 2686 0020 2A78     		ldrb	r2, [r5]
 2687 0022 0096     		str	r6, [sp]
 2688 0024 044B     		ldr	r3, .L125+8
 2689 0026 2000     		movs	r0, r4
 2690              	.LVL458:
 2691 0028 FFF7FEFF 		bl	u8g2_SetupBuffer
 2692              	.LVL459:
 381:..\..\u8g2\csrc/u8g2_d_setup.c **** }
 2693              		.loc 1 381 0
 2694 002c 04B0     		add	sp, sp, #16
 2695              		@ sp needed
 2696              	.LVL460:
 2697              	.LVL461:
ARM GAS  C:\Users\arh\AppData\Local\Temp\ccfmrym3.s 			page 55


 2698 002e 70BD     		pop	{r4, r5, r6, pc}
 2699              	.L126:
 2700              		.align	2
 2701              	.L125:
 2702 0030 00000000 		.word	u8x8_cad_ssd13xx_i2c
 2703 0034 00000000 		.word	u8x8_d_ssd1306_64x48_er
 2704 0038 00000000 		.word	u8g2_ll_hvline_vertical_top_lsb
 2705              		.cfi_endproc
 2706              	.LFE41:
 2707              		.size	u8g2_Setup_ssd1306_i2c_64x48_er_f, .-u8g2_Setup_ssd1306_i2c_64x48_er_f
 2708              		.section	.text.u8g2_Setup_ssd1309_128x64_noname_1,"ax",%progbits
 2709              		.align	2
 2710              		.global	u8g2_Setup_ssd1309_128x64_noname_1
 2711              		.code	16
 2712              		.thumb_func
 2713              		.type	u8g2_Setup_ssd1309_128x64_noname_1, %function
 2714              	u8g2_Setup_ssd1309_128x64_noname_1:
 2715              	.LFB42:
 382:..\..\u8g2\csrc/u8g2_d_setup.c **** /* ssd1309 */
 383:..\..\u8g2\csrc/u8g2_d_setup.c **** /* ssd1309 1 */
 384:..\..\u8g2\csrc/u8g2_d_setup.c **** void u8g2_Setup_ssd1309_128x64_noname_1(u8g2_t *u8g2, const u8g2_cb_t *rotation, u8x8_msg_cb byte_c
 385:..\..\u8g2\csrc/u8g2_d_setup.c **** {
 2716              		.loc 1 385 0
 2717              		.cfi_startproc
 2718              		@ args = 0, pretend = 0, frame = 8
 2719              		@ frame_needed = 0, uses_anonymous_args = 0
 2720              	.LVL462:
 2721 0000 70B5     		push	{r4, r5, r6, lr}
 2722              		.cfi_def_cfa_offset 16
 2723              		.cfi_offset 4, -16
 2724              		.cfi_offset 5, -12
 2725              		.cfi_offset 6, -8
 2726              		.cfi_offset 14, -4
 2727 0002 84B0     		sub	sp, sp, #16
 2728              		.cfi_def_cfa_offset 32
 2729 0004 0400     		movs	r4, r0
 2730 0006 0E00     		movs	r6, r1
 386:..\..\u8g2\csrc/u8g2_d_setup.c ****   uint8_t tile_buf_height;
 387:..\..\u8g2\csrc/u8g2_d_setup.c ****   uint8_t *buf;
 388:..\..\u8g2\csrc/u8g2_d_setup.c ****   u8g2_SetupDisplay(u8g2, u8x8_d_ssd1309_128x64_noname, u8x8_cad_001, byte_cb, gpio_and_delay_cb);
 2731              		.loc 1 388 0
 2732 0008 0093     		str	r3, [sp]
 2733 000a 1300     		movs	r3, r2
 2734              	.LVL463:
 2735 000c 084A     		ldr	r2, .L128
 2736              	.LVL464:
 2737 000e 0949     		ldr	r1, .L128+4
 2738              	.LVL465:
 2739 0010 FFF7FEFF 		bl	u8x8_Setup
 2740              	.LVL466:
 389:..\..\u8g2\csrc/u8g2_d_setup.c ****   buf = u8g2_m_ssd1309_16_1(&tile_buf_height);
 2741              		.loc 1 389 0
 2742 0014 0F25     		movs	r5, #15
 2743 0016 6D44     		add	r5, r5, sp
 2744 0018 2800     		movs	r0, r5
 2745 001a FFF7FEFF 		bl	u8g2_m_ssd1309_16_1
 2746              	.LVL467:
ARM GAS  C:\Users\arh\AppData\Local\Temp\ccfmrym3.s 			page 56


 2747 001e 0100     		movs	r1, r0
 2748              	.LVL468:
 390:..\..\u8g2\csrc/u8g2_d_setup.c ****   u8g2_SetupBuffer(u8g2, buf, tile_buf_height, u8g2_ll_hvline_vertical_top_lsb, rotation);
 2749              		.loc 1 390 0
 2750 0020 2A78     		ldrb	r2, [r5]
 2751 0022 0096     		str	r6, [sp]
 2752 0024 044B     		ldr	r3, .L128+8
 2753 0026 2000     		movs	r0, r4
 2754              	.LVL469:
 2755 0028 FFF7FEFF 		bl	u8g2_SetupBuffer
 2756              	.LVL470:
 391:..\..\u8g2\csrc/u8g2_d_setup.c **** }
 2757              		.loc 1 391 0
 2758 002c 04B0     		add	sp, sp, #16
 2759              		@ sp needed
 2760              	.LVL471:
 2761              	.LVL472:
 2762 002e 70BD     		pop	{r4, r5, r6, pc}
 2763              	.L129:
 2764              		.align	2
 2765              	.L128:
 2766 0030 00000000 		.word	u8x8_cad_001
 2767 0034 00000000 		.word	u8x8_d_ssd1309_128x64_noname
 2768 0038 00000000 		.word	u8g2_ll_hvline_vertical_top_lsb
 2769              		.cfi_endproc
 2770              	.LFE42:
 2771              		.size	u8g2_Setup_ssd1309_128x64_noname_1, .-u8g2_Setup_ssd1309_128x64_noname_1
 2772              		.section	.text.u8g2_Setup_ssd1309_128x64_noname_2,"ax",%progbits
 2773              		.align	2
 2774              		.global	u8g2_Setup_ssd1309_128x64_noname_2
 2775              		.code	16
 2776              		.thumb_func
 2777              		.type	u8g2_Setup_ssd1309_128x64_noname_2, %function
 2778              	u8g2_Setup_ssd1309_128x64_noname_2:
 2779              	.LFB43:
 392:..\..\u8g2\csrc/u8g2_d_setup.c **** /* ssd1309 2 */
 393:..\..\u8g2\csrc/u8g2_d_setup.c **** void u8g2_Setup_ssd1309_128x64_noname_2(u8g2_t *u8g2, const u8g2_cb_t *rotation, u8x8_msg_cb byte_c
 394:..\..\u8g2\csrc/u8g2_d_setup.c **** {
 2780              		.loc 1 394 0
 2781              		.cfi_startproc
 2782              		@ args = 0, pretend = 0, frame = 8
 2783              		@ frame_needed = 0, uses_anonymous_args = 0
 2784              	.LVL473:
 2785 0000 70B5     		push	{r4, r5, r6, lr}
 2786              		.cfi_def_cfa_offset 16
 2787              		.cfi_offset 4, -16
 2788              		.cfi_offset 5, -12
 2789              		.cfi_offset 6, -8
 2790              		.cfi_offset 14, -4
 2791 0002 84B0     		sub	sp, sp, #16
 2792              		.cfi_def_cfa_offset 32
 2793 0004 0400     		movs	r4, r0
 2794 0006 0E00     		movs	r6, r1
 395:..\..\u8g2\csrc/u8g2_d_setup.c ****   uint8_t tile_buf_height;
 396:..\..\u8g2\csrc/u8g2_d_setup.c ****   uint8_t *buf;
 397:..\..\u8g2\csrc/u8g2_d_setup.c ****   u8g2_SetupDisplay(u8g2, u8x8_d_ssd1309_128x64_noname, u8x8_cad_001, byte_cb, gpio_and_delay_cb);
 2795              		.loc 1 397 0
ARM GAS  C:\Users\arh\AppData\Local\Temp\ccfmrym3.s 			page 57


 2796 0008 0093     		str	r3, [sp]
 2797 000a 1300     		movs	r3, r2
 2798              	.LVL474:
 2799 000c 084A     		ldr	r2, .L131
 2800              	.LVL475:
 2801 000e 0949     		ldr	r1, .L131+4
 2802              	.LVL476:
 2803 0010 FFF7FEFF 		bl	u8x8_Setup
 2804              	.LVL477:
 398:..\..\u8g2\csrc/u8g2_d_setup.c ****   buf = u8g2_m_ssd1309_16_2(&tile_buf_height);
 2805              		.loc 1 398 0
 2806 0014 0F25     		movs	r5, #15
 2807 0016 6D44     		add	r5, r5, sp
 2808 0018 2800     		movs	r0, r5
 2809 001a FFF7FEFF 		bl	u8g2_m_ssd1309_16_2
 2810              	.LVL478:
 2811 001e 0100     		movs	r1, r0
 2812              	.LVL479:
 399:..\..\u8g2\csrc/u8g2_d_setup.c ****   u8g2_SetupBuffer(u8g2, buf, tile_buf_height, u8g2_ll_hvline_vertical_top_lsb, rotation);
 2813              		.loc 1 399 0
 2814 0020 2A78     		ldrb	r2, [r5]
 2815 0022 0096     		str	r6, [sp]
 2816 0024 044B     		ldr	r3, .L131+8
 2817 0026 2000     		movs	r0, r4
 2818              	.LVL480:
 2819 0028 FFF7FEFF 		bl	u8g2_SetupBuffer
 2820              	.LVL481:
 400:..\..\u8g2\csrc/u8g2_d_setup.c **** }
 2821              		.loc 1 400 0
 2822 002c 04B0     		add	sp, sp, #16
 2823              		@ sp needed
 2824              	.LVL482:
 2825              	.LVL483:
 2826 002e 70BD     		pop	{r4, r5, r6, pc}
 2827              	.L132:
 2828              		.align	2
 2829              	.L131:
 2830 0030 00000000 		.word	u8x8_cad_001
 2831 0034 00000000 		.word	u8x8_d_ssd1309_128x64_noname
 2832 0038 00000000 		.word	u8g2_ll_hvline_vertical_top_lsb
 2833              		.cfi_endproc
 2834              	.LFE43:
 2835              		.size	u8g2_Setup_ssd1309_128x64_noname_2, .-u8g2_Setup_ssd1309_128x64_noname_2
 2836              		.section	.text.u8g2_Setup_ssd1309_128x64_noname_f,"ax",%progbits
 2837              		.align	2
 2838              		.global	u8g2_Setup_ssd1309_128x64_noname_f
 2839              		.code	16
 2840              		.thumb_func
 2841              		.type	u8g2_Setup_ssd1309_128x64_noname_f, %function
 2842              	u8g2_Setup_ssd1309_128x64_noname_f:
 2843              	.LFB44:
 401:..\..\u8g2\csrc/u8g2_d_setup.c **** /* ssd1309 f */
 402:..\..\u8g2\csrc/u8g2_d_setup.c **** void u8g2_Setup_ssd1309_128x64_noname_f(u8g2_t *u8g2, const u8g2_cb_t *rotation, u8x8_msg_cb byte_c
 403:..\..\u8g2\csrc/u8g2_d_setup.c **** {
 2844              		.loc 1 403 0
 2845              		.cfi_startproc
 2846              		@ args = 0, pretend = 0, frame = 8
ARM GAS  C:\Users\arh\AppData\Local\Temp\ccfmrym3.s 			page 58


 2847              		@ frame_needed = 0, uses_anonymous_args = 0
 2848              	.LVL484:
 2849 0000 70B5     		push	{r4, r5, r6, lr}
 2850              		.cfi_def_cfa_offset 16
 2851              		.cfi_offset 4, -16
 2852              		.cfi_offset 5, -12
 2853              		.cfi_offset 6, -8
 2854              		.cfi_offset 14, -4
 2855 0002 84B0     		sub	sp, sp, #16
 2856              		.cfi_def_cfa_offset 32
 2857 0004 0400     		movs	r4, r0
 2858 0006 0E00     		movs	r6, r1
 404:..\..\u8g2\csrc/u8g2_d_setup.c ****   uint8_t tile_buf_height;
 405:..\..\u8g2\csrc/u8g2_d_setup.c ****   uint8_t *buf;
 406:..\..\u8g2\csrc/u8g2_d_setup.c ****   u8g2_SetupDisplay(u8g2, u8x8_d_ssd1309_128x64_noname, u8x8_cad_001, byte_cb, gpio_and_delay_cb);
 2859              		.loc 1 406 0
 2860 0008 0093     		str	r3, [sp]
 2861 000a 1300     		movs	r3, r2
 2862              	.LVL485:
 2863 000c 084A     		ldr	r2, .L134
 2864              	.LVL486:
 2865 000e 0949     		ldr	r1, .L134+4
 2866              	.LVL487:
 2867 0010 FFF7FEFF 		bl	u8x8_Setup
 2868              	.LVL488:
 407:..\..\u8g2\csrc/u8g2_d_setup.c ****   buf = u8g2_m_ssd1309_16_f(&tile_buf_height);
 2869              		.loc 1 407 0
 2870 0014 0F25     		movs	r5, #15
 2871 0016 6D44     		add	r5, r5, sp
 2872 0018 2800     		movs	r0, r5
 2873 001a FFF7FEFF 		bl	u8g2_m_ssd1309_16_f
 2874              	.LVL489:
 2875 001e 0100     		movs	r1, r0
 2876              	.LVL490:
 408:..\..\u8g2\csrc/u8g2_d_setup.c ****   u8g2_SetupBuffer(u8g2, buf, tile_buf_height, u8g2_ll_hvline_vertical_top_lsb, rotation);
 2877              		.loc 1 408 0
 2878 0020 2A78     		ldrb	r2, [r5]
 2879 0022 0096     		str	r6, [sp]
 2880 0024 044B     		ldr	r3, .L134+8
 2881 0026 2000     		movs	r0, r4
 2882              	.LVL491:
 2883 0028 FFF7FEFF 		bl	u8g2_SetupBuffer
 2884              	.LVL492:
 409:..\..\u8g2\csrc/u8g2_d_setup.c **** }
 2885              		.loc 1 409 0
 2886 002c 04B0     		add	sp, sp, #16
 2887              		@ sp needed
 2888              	.LVL493:
 2889              	.LVL494:
 2890 002e 70BD     		pop	{r4, r5, r6, pc}
 2891              	.L135:
 2892              		.align	2
 2893              	.L134:
 2894 0030 00000000 		.word	u8x8_cad_001
 2895 0034 00000000 		.word	u8x8_d_ssd1309_128x64_noname
 2896 0038 00000000 		.word	u8g2_ll_hvline_vertical_top_lsb
 2897              		.cfi_endproc
ARM GAS  C:\Users\arh\AppData\Local\Temp\ccfmrym3.s 			page 59


 2898              	.LFE44:
 2899              		.size	u8g2_Setup_ssd1309_128x64_noname_f, .-u8g2_Setup_ssd1309_128x64_noname_f
 2900              		.section	.text.u8g2_Setup_ssd1309_i2c_128x64_noname_1,"ax",%progbits
 2901              		.align	2
 2902              		.global	u8g2_Setup_ssd1309_i2c_128x64_noname_1
 2903              		.code	16
 2904              		.thumb_func
 2905              		.type	u8g2_Setup_ssd1309_i2c_128x64_noname_1, %function
 2906              	u8g2_Setup_ssd1309_i2c_128x64_noname_1:
 2907              	.LFB45:
 410:..\..\u8g2\csrc/u8g2_d_setup.c **** /* ssd1309 */
 411:..\..\u8g2\csrc/u8g2_d_setup.c **** /* ssd1309 1 */
 412:..\..\u8g2\csrc/u8g2_d_setup.c **** void u8g2_Setup_ssd1309_i2c_128x64_noname_1(u8g2_t *u8g2, const u8g2_cb_t *rotation, u8x8_msg_cb by
 413:..\..\u8g2\csrc/u8g2_d_setup.c **** {
 2908              		.loc 1 413 0
 2909              		.cfi_startproc
 2910              		@ args = 0, pretend = 0, frame = 8
 2911              		@ frame_needed = 0, uses_anonymous_args = 0
 2912              	.LVL495:
 2913 0000 70B5     		push	{r4, r5, r6, lr}
 2914              		.cfi_def_cfa_offset 16
 2915              		.cfi_offset 4, -16
 2916              		.cfi_offset 5, -12
 2917              		.cfi_offset 6, -8
 2918              		.cfi_offset 14, -4
 2919 0002 84B0     		sub	sp, sp, #16
 2920              		.cfi_def_cfa_offset 32
 2921 0004 0400     		movs	r4, r0
 2922 0006 0E00     		movs	r6, r1
 414:..\..\u8g2\csrc/u8g2_d_setup.c ****   uint8_t tile_buf_height;
 415:..\..\u8g2\csrc/u8g2_d_setup.c ****   uint8_t *buf;
 416:..\..\u8g2\csrc/u8g2_d_setup.c ****   u8g2_SetupDisplay(u8g2, u8x8_d_ssd1309_128x64_noname, u8x8_cad_ssd13xx_i2c, byte_cb, gpio_and_del
 2923              		.loc 1 416 0
 2924 0008 0093     		str	r3, [sp]
 2925 000a 1300     		movs	r3, r2
 2926              	.LVL496:
 2927 000c 084A     		ldr	r2, .L137
 2928              	.LVL497:
 2929 000e 0949     		ldr	r1, .L137+4
 2930              	.LVL498:
 2931 0010 FFF7FEFF 		bl	u8x8_Setup
 2932              	.LVL499:
 417:..\..\u8g2\csrc/u8g2_d_setup.c ****   buf = u8g2_m_ssd1309_16_1(&tile_buf_height);
 2933              		.loc 1 417 0
 2934 0014 0F25     		movs	r5, #15
 2935 0016 6D44     		add	r5, r5, sp
 2936 0018 2800     		movs	r0, r5
 2937 001a FFF7FEFF 		bl	u8g2_m_ssd1309_16_1
 2938              	.LVL500:
 2939 001e 0100     		movs	r1, r0
 2940              	.LVL501:
 418:..\..\u8g2\csrc/u8g2_d_setup.c ****   u8g2_SetupBuffer(u8g2, buf, tile_buf_height, u8g2_ll_hvline_vertical_top_lsb, rotation);
 2941              		.loc 1 418 0
 2942 0020 2A78     		ldrb	r2, [r5]
 2943 0022 0096     		str	r6, [sp]
 2944 0024 044B     		ldr	r3, .L137+8
 2945 0026 2000     		movs	r0, r4
ARM GAS  C:\Users\arh\AppData\Local\Temp\ccfmrym3.s 			page 60


 2946              	.LVL502:
 2947 0028 FFF7FEFF 		bl	u8g2_SetupBuffer
 2948              	.LVL503:
 419:..\..\u8g2\csrc/u8g2_d_setup.c **** }
 2949              		.loc 1 419 0
 2950 002c 04B0     		add	sp, sp, #16
 2951              		@ sp needed
 2952              	.LVL504:
 2953              	.LVL505:
 2954 002e 70BD     		pop	{r4, r5, r6, pc}
 2955              	.L138:
 2956              		.align	2
 2957              	.L137:
 2958 0030 00000000 		.word	u8x8_cad_ssd13xx_i2c
 2959 0034 00000000 		.word	u8x8_d_ssd1309_128x64_noname
 2960 0038 00000000 		.word	u8g2_ll_hvline_vertical_top_lsb
 2961              		.cfi_endproc
 2962              	.LFE45:
 2963              		.size	u8g2_Setup_ssd1309_i2c_128x64_noname_1, .-u8g2_Setup_ssd1309_i2c_128x64_noname_1
 2964              		.section	.text.u8g2_Setup_ssd1309_i2c_128x64_noname_2,"ax",%progbits
 2965              		.align	2
 2966              		.global	u8g2_Setup_ssd1309_i2c_128x64_noname_2
 2967              		.code	16
 2968              		.thumb_func
 2969              		.type	u8g2_Setup_ssd1309_i2c_128x64_noname_2, %function
 2970              	u8g2_Setup_ssd1309_i2c_128x64_noname_2:
 2971              	.LFB46:
 420:..\..\u8g2\csrc/u8g2_d_setup.c **** /* ssd1309 2 */
 421:..\..\u8g2\csrc/u8g2_d_setup.c **** void u8g2_Setup_ssd1309_i2c_128x64_noname_2(u8g2_t *u8g2, const u8g2_cb_t *rotation, u8x8_msg_cb by
 422:..\..\u8g2\csrc/u8g2_d_setup.c **** {
 2972              		.loc 1 422 0
 2973              		.cfi_startproc
 2974              		@ args = 0, pretend = 0, frame = 8
 2975              		@ frame_needed = 0, uses_anonymous_args = 0
 2976              	.LVL506:
 2977 0000 70B5     		push	{r4, r5, r6, lr}
 2978              		.cfi_def_cfa_offset 16
 2979              		.cfi_offset 4, -16
 2980              		.cfi_offset 5, -12
 2981              		.cfi_offset 6, -8
 2982              		.cfi_offset 14, -4
 2983 0002 84B0     		sub	sp, sp, #16
 2984              		.cfi_def_cfa_offset 32
 2985 0004 0400     		movs	r4, r0
 2986 0006 0E00     		movs	r6, r1
 423:..\..\u8g2\csrc/u8g2_d_setup.c ****   uint8_t tile_buf_height;
 424:..\..\u8g2\csrc/u8g2_d_setup.c ****   uint8_t *buf;
 425:..\..\u8g2\csrc/u8g2_d_setup.c ****   u8g2_SetupDisplay(u8g2, u8x8_d_ssd1309_128x64_noname, u8x8_cad_ssd13xx_i2c, byte_cb, gpio_and_del
 2987              		.loc 1 425 0
 2988 0008 0093     		str	r3, [sp]
 2989 000a 1300     		movs	r3, r2
 2990              	.LVL507:
 2991 000c 084A     		ldr	r2, .L140
 2992              	.LVL508:
 2993 000e 0949     		ldr	r1, .L140+4
 2994              	.LVL509:
 2995 0010 FFF7FEFF 		bl	u8x8_Setup
ARM GAS  C:\Users\arh\AppData\Local\Temp\ccfmrym3.s 			page 61


 2996              	.LVL510:
 426:..\..\u8g2\csrc/u8g2_d_setup.c ****   buf = u8g2_m_ssd1309_16_2(&tile_buf_height);
 2997              		.loc 1 426 0
 2998 0014 0F25     		movs	r5, #15
 2999 0016 6D44     		add	r5, r5, sp
 3000 0018 2800     		movs	r0, r5
 3001 001a FFF7FEFF 		bl	u8g2_m_ssd1309_16_2
 3002              	.LVL511:
 3003 001e 0100     		movs	r1, r0
 3004              	.LVL512:
 427:..\..\u8g2\csrc/u8g2_d_setup.c ****   u8g2_SetupBuffer(u8g2, buf, tile_buf_height, u8g2_ll_hvline_vertical_top_lsb, rotation);
 3005              		.loc 1 427 0
 3006 0020 2A78     		ldrb	r2, [r5]
 3007 0022 0096     		str	r6, [sp]
 3008 0024 044B     		ldr	r3, .L140+8
 3009 0026 2000     		movs	r0, r4
 3010              	.LVL513:
 3011 0028 FFF7FEFF 		bl	u8g2_SetupBuffer
 3012              	.LVL514:
 428:..\..\u8g2\csrc/u8g2_d_setup.c **** }
 3013              		.loc 1 428 0
 3014 002c 04B0     		add	sp, sp, #16
 3015              		@ sp needed
 3016              	.LVL515:
 3017              	.LVL516:
 3018 002e 70BD     		pop	{r4, r5, r6, pc}
 3019              	.L141:
 3020              		.align	2
 3021              	.L140:
 3022 0030 00000000 		.word	u8x8_cad_ssd13xx_i2c
 3023 0034 00000000 		.word	u8x8_d_ssd1309_128x64_noname
 3024 0038 00000000 		.word	u8g2_ll_hvline_vertical_top_lsb
 3025              		.cfi_endproc
 3026              	.LFE46:
 3027              		.size	u8g2_Setup_ssd1309_i2c_128x64_noname_2, .-u8g2_Setup_ssd1309_i2c_128x64_noname_2
 3028              		.section	.text.u8g2_Setup_ssd1309_i2c_128x64_noname_f,"ax",%progbits
 3029              		.align	2
 3030              		.global	u8g2_Setup_ssd1309_i2c_128x64_noname_f
 3031              		.code	16
 3032              		.thumb_func
 3033              		.type	u8g2_Setup_ssd1309_i2c_128x64_noname_f, %function
 3034              	u8g2_Setup_ssd1309_i2c_128x64_noname_f:
 3035              	.LFB47:
 429:..\..\u8g2\csrc/u8g2_d_setup.c **** /* ssd1309 f */
 430:..\..\u8g2\csrc/u8g2_d_setup.c **** void u8g2_Setup_ssd1309_i2c_128x64_noname_f(u8g2_t *u8g2, const u8g2_cb_t *rotation, u8x8_msg_cb by
 431:..\..\u8g2\csrc/u8g2_d_setup.c **** {
 3036              		.loc 1 431 0
 3037              		.cfi_startproc
 3038              		@ args = 0, pretend = 0, frame = 8
 3039              		@ frame_needed = 0, uses_anonymous_args = 0
 3040              	.LVL517:
 3041 0000 70B5     		push	{r4, r5, r6, lr}
 3042              		.cfi_def_cfa_offset 16
 3043              		.cfi_offset 4, -16
 3044              		.cfi_offset 5, -12
 3045              		.cfi_offset 6, -8
 3046              		.cfi_offset 14, -4
ARM GAS  C:\Users\arh\AppData\Local\Temp\ccfmrym3.s 			page 62


 3047 0002 84B0     		sub	sp, sp, #16
 3048              		.cfi_def_cfa_offset 32
 3049 0004 0400     		movs	r4, r0
 3050 0006 0E00     		movs	r6, r1
 432:..\..\u8g2\csrc/u8g2_d_setup.c ****   uint8_t tile_buf_height;
 433:..\..\u8g2\csrc/u8g2_d_setup.c ****   uint8_t *buf;
 434:..\..\u8g2\csrc/u8g2_d_setup.c ****   u8g2_SetupDisplay(u8g2, u8x8_d_ssd1309_128x64_noname, u8x8_cad_ssd13xx_i2c, byte_cb, gpio_and_del
 3051              		.loc 1 434 0
 3052 0008 0093     		str	r3, [sp]
 3053 000a 1300     		movs	r3, r2
 3054              	.LVL518:
 3055 000c 084A     		ldr	r2, .L143
 3056              	.LVL519:
 3057 000e 0949     		ldr	r1, .L143+4
 3058              	.LVL520:
 3059 0010 FFF7FEFF 		bl	u8x8_Setup
 3060              	.LVL521:
 435:..\..\u8g2\csrc/u8g2_d_setup.c ****   buf = u8g2_m_ssd1309_16_f(&tile_buf_height);
 3061              		.loc 1 435 0
 3062 0014 0F25     		movs	r5, #15
 3063 0016 6D44     		add	r5, r5, sp
 3064 0018 2800     		movs	r0, r5
 3065 001a FFF7FEFF 		bl	u8g2_m_ssd1309_16_f
 3066              	.LVL522:
 3067 001e 0100     		movs	r1, r0
 3068              	.LVL523:
 436:..\..\u8g2\csrc/u8g2_d_setup.c ****   u8g2_SetupBuffer(u8g2, buf, tile_buf_height, u8g2_ll_hvline_vertical_top_lsb, rotation);
 3069              		.loc 1 436 0
 3070 0020 2A78     		ldrb	r2, [r5]
 3071 0022 0096     		str	r6, [sp]
 3072 0024 044B     		ldr	r3, .L143+8
 3073 0026 2000     		movs	r0, r4
 3074              	.LVL524:
 3075 0028 FFF7FEFF 		bl	u8g2_SetupBuffer
 3076              	.LVL525:
 437:..\..\u8g2\csrc/u8g2_d_setup.c **** }
 3077              		.loc 1 437 0
 3078 002c 04B0     		add	sp, sp, #16
 3079              		@ sp needed
 3080              	.LVL526:
 3081              	.LVL527:
 3082 002e 70BD     		pop	{r4, r5, r6, pc}
 3083              	.L144:
 3084              		.align	2
 3085              	.L143:
 3086 0030 00000000 		.word	u8x8_cad_ssd13xx_i2c
 3087 0034 00000000 		.word	u8x8_d_ssd1309_128x64_noname
 3088 0038 00000000 		.word	u8g2_ll_hvline_vertical_top_lsb
 3089              		.cfi_endproc
 3090              	.LFE47:
 3091              		.size	u8g2_Setup_ssd1309_i2c_128x64_noname_f, .-u8g2_Setup_ssd1309_i2c_128x64_noname_f
 3092              		.section	.text.u8g2_Setup_ssd1325_nhd_128x64_1,"ax",%progbits
 3093              		.align	2
 3094              		.global	u8g2_Setup_ssd1325_nhd_128x64_1
 3095              		.code	16
 3096              		.thumb_func
 3097              		.type	u8g2_Setup_ssd1325_nhd_128x64_1, %function
ARM GAS  C:\Users\arh\AppData\Local\Temp\ccfmrym3.s 			page 63


 3098              	u8g2_Setup_ssd1325_nhd_128x64_1:
 3099              	.LFB48:
 438:..\..\u8g2\csrc/u8g2_d_setup.c **** /* ssd1325 */
 439:..\..\u8g2\csrc/u8g2_d_setup.c **** /* ssd1325 1 */
 440:..\..\u8g2\csrc/u8g2_d_setup.c **** void u8g2_Setup_ssd1325_nhd_128x64_1(u8g2_t *u8g2, const u8g2_cb_t *rotation, u8x8_msg_cb byte_cb, 
 441:..\..\u8g2\csrc/u8g2_d_setup.c **** {
 3100              		.loc 1 441 0
 3101              		.cfi_startproc
 3102              		@ args = 0, pretend = 0, frame = 8
 3103              		@ frame_needed = 0, uses_anonymous_args = 0
 3104              	.LVL528:
 3105 0000 70B5     		push	{r4, r5, r6, lr}
 3106              		.cfi_def_cfa_offset 16
 3107              		.cfi_offset 4, -16
 3108              		.cfi_offset 5, -12
 3109              		.cfi_offset 6, -8
 3110              		.cfi_offset 14, -4
 3111 0002 84B0     		sub	sp, sp, #16
 3112              		.cfi_def_cfa_offset 32
 3113 0004 0400     		movs	r4, r0
 3114 0006 0E00     		movs	r6, r1
 442:..\..\u8g2\csrc/u8g2_d_setup.c ****   uint8_t tile_buf_height;
 443:..\..\u8g2\csrc/u8g2_d_setup.c ****   uint8_t *buf;
 444:..\..\u8g2\csrc/u8g2_d_setup.c ****   u8g2_SetupDisplay(u8g2, u8x8_d_ssd1325_nhd_128x64, u8x8_cad_001, byte_cb, gpio_and_delay_cb);
 3115              		.loc 1 444 0
 3116 0008 0093     		str	r3, [sp]
 3117 000a 1300     		movs	r3, r2
 3118              	.LVL529:
 3119 000c 084A     		ldr	r2, .L146
 3120              	.LVL530:
 3121 000e 0949     		ldr	r1, .L146+4
 3122              	.LVL531:
 3123 0010 FFF7FEFF 		bl	u8x8_Setup
 3124              	.LVL532:
 445:..\..\u8g2\csrc/u8g2_d_setup.c ****   buf = u8g2_m_ssd1325_16_1(&tile_buf_height);
 3125              		.loc 1 445 0
 3126 0014 0F25     		movs	r5, #15
 3127 0016 6D44     		add	r5, r5, sp
 3128 0018 2800     		movs	r0, r5
 3129 001a FFF7FEFF 		bl	u8g2_m_ssd1325_16_1
 3130              	.LVL533:
 3131 001e 0100     		movs	r1, r0
 3132              	.LVL534:
 446:..\..\u8g2\csrc/u8g2_d_setup.c ****   u8g2_SetupBuffer(u8g2, buf, tile_buf_height, u8g2_ll_hvline_vertical_top_lsb, rotation);
 3133              		.loc 1 446 0
 3134 0020 2A78     		ldrb	r2, [r5]
 3135 0022 0096     		str	r6, [sp]
 3136 0024 044B     		ldr	r3, .L146+8
 3137 0026 2000     		movs	r0, r4
 3138              	.LVL535:
 3139 0028 FFF7FEFF 		bl	u8g2_SetupBuffer
 3140              	.LVL536:
 447:..\..\u8g2\csrc/u8g2_d_setup.c **** }
 3141              		.loc 1 447 0
 3142 002c 04B0     		add	sp, sp, #16
 3143              		@ sp needed
 3144              	.LVL537:
ARM GAS  C:\Users\arh\AppData\Local\Temp\ccfmrym3.s 			page 64


 3145              	.LVL538:
 3146 002e 70BD     		pop	{r4, r5, r6, pc}
 3147              	.L147:
 3148              		.align	2
 3149              	.L146:
 3150 0030 00000000 		.word	u8x8_cad_001
 3151 0034 00000000 		.word	u8x8_d_ssd1325_nhd_128x64
 3152 0038 00000000 		.word	u8g2_ll_hvline_vertical_top_lsb
 3153              		.cfi_endproc
 3154              	.LFE48:
 3155              		.size	u8g2_Setup_ssd1325_nhd_128x64_1, .-u8g2_Setup_ssd1325_nhd_128x64_1
 3156              		.section	.text.u8g2_Setup_ssd1325_nhd_128x64_2,"ax",%progbits
 3157              		.align	2
 3158              		.global	u8g2_Setup_ssd1325_nhd_128x64_2
 3159              		.code	16
 3160              		.thumb_func
 3161              		.type	u8g2_Setup_ssd1325_nhd_128x64_2, %function
 3162              	u8g2_Setup_ssd1325_nhd_128x64_2:
 3163              	.LFB49:
 448:..\..\u8g2\csrc/u8g2_d_setup.c **** /* ssd1325 2 */
 449:..\..\u8g2\csrc/u8g2_d_setup.c **** void u8g2_Setup_ssd1325_nhd_128x64_2(u8g2_t *u8g2, const u8g2_cb_t *rotation, u8x8_msg_cb byte_cb, 
 450:..\..\u8g2\csrc/u8g2_d_setup.c **** {
 3164              		.loc 1 450 0
 3165              		.cfi_startproc
 3166              		@ args = 0, pretend = 0, frame = 8
 3167              		@ frame_needed = 0, uses_anonymous_args = 0
 3168              	.LVL539:
 3169 0000 70B5     		push	{r4, r5, r6, lr}
 3170              		.cfi_def_cfa_offset 16
 3171              		.cfi_offset 4, -16
 3172              		.cfi_offset 5, -12
 3173              		.cfi_offset 6, -8
 3174              		.cfi_offset 14, -4
 3175 0002 84B0     		sub	sp, sp, #16
 3176              		.cfi_def_cfa_offset 32
 3177 0004 0400     		movs	r4, r0
 3178 0006 0E00     		movs	r6, r1
 451:..\..\u8g2\csrc/u8g2_d_setup.c ****   uint8_t tile_buf_height;
 452:..\..\u8g2\csrc/u8g2_d_setup.c ****   uint8_t *buf;
 453:..\..\u8g2\csrc/u8g2_d_setup.c ****   u8g2_SetupDisplay(u8g2, u8x8_d_ssd1325_nhd_128x64, u8x8_cad_001, byte_cb, gpio_and_delay_cb);
 3179              		.loc 1 453 0
 3180 0008 0093     		str	r3, [sp]
 3181 000a 1300     		movs	r3, r2
 3182              	.LVL540:
 3183 000c 084A     		ldr	r2, .L149
 3184              	.LVL541:
 3185 000e 0949     		ldr	r1, .L149+4
 3186              	.LVL542:
 3187 0010 FFF7FEFF 		bl	u8x8_Setup
 3188              	.LVL543:
 454:..\..\u8g2\csrc/u8g2_d_setup.c ****   buf = u8g2_m_ssd1325_16_2(&tile_buf_height);
 3189              		.loc 1 454 0
 3190 0014 0F25     		movs	r5, #15
 3191 0016 6D44     		add	r5, r5, sp
 3192 0018 2800     		movs	r0, r5
 3193 001a FFF7FEFF 		bl	u8g2_m_ssd1325_16_2
 3194              	.LVL544:
ARM GAS  C:\Users\arh\AppData\Local\Temp\ccfmrym3.s 			page 65


 3195 001e 0100     		movs	r1, r0
 3196              	.LVL545:
 455:..\..\u8g2\csrc/u8g2_d_setup.c ****   u8g2_SetupBuffer(u8g2, buf, tile_buf_height, u8g2_ll_hvline_vertical_top_lsb, rotation);
 3197              		.loc 1 455 0
 3198 0020 2A78     		ldrb	r2, [r5]
 3199 0022 0096     		str	r6, [sp]
 3200 0024 044B     		ldr	r3, .L149+8
 3201 0026 2000     		movs	r0, r4
 3202              	.LVL546:
 3203 0028 FFF7FEFF 		bl	u8g2_SetupBuffer
 3204              	.LVL547:
 456:..\..\u8g2\csrc/u8g2_d_setup.c **** }
 3205              		.loc 1 456 0
 3206 002c 04B0     		add	sp, sp, #16
 3207              		@ sp needed
 3208              	.LVL548:
 3209              	.LVL549:
 3210 002e 70BD     		pop	{r4, r5, r6, pc}
 3211              	.L150:
 3212              		.align	2
 3213              	.L149:
 3214 0030 00000000 		.word	u8x8_cad_001
 3215 0034 00000000 		.word	u8x8_d_ssd1325_nhd_128x64
 3216 0038 00000000 		.word	u8g2_ll_hvline_vertical_top_lsb
 3217              		.cfi_endproc
 3218              	.LFE49:
 3219              		.size	u8g2_Setup_ssd1325_nhd_128x64_2, .-u8g2_Setup_ssd1325_nhd_128x64_2
 3220              		.section	.text.u8g2_Setup_ssd1325_nhd_128x64_f,"ax",%progbits
 3221              		.align	2
 3222              		.global	u8g2_Setup_ssd1325_nhd_128x64_f
 3223              		.code	16
 3224              		.thumb_func
 3225              		.type	u8g2_Setup_ssd1325_nhd_128x64_f, %function
 3226              	u8g2_Setup_ssd1325_nhd_128x64_f:
 3227              	.LFB50:
 457:..\..\u8g2\csrc/u8g2_d_setup.c **** /* ssd1325 f */
 458:..\..\u8g2\csrc/u8g2_d_setup.c **** void u8g2_Setup_ssd1325_nhd_128x64_f(u8g2_t *u8g2, const u8g2_cb_t *rotation, u8x8_msg_cb byte_cb, 
 459:..\..\u8g2\csrc/u8g2_d_setup.c **** {
 3228              		.loc 1 459 0
 3229              		.cfi_startproc
 3230              		@ args = 0, pretend = 0, frame = 8
 3231              		@ frame_needed = 0, uses_anonymous_args = 0
 3232              	.LVL550:
 3233 0000 70B5     		push	{r4, r5, r6, lr}
 3234              		.cfi_def_cfa_offset 16
 3235              		.cfi_offset 4, -16
 3236              		.cfi_offset 5, -12
 3237              		.cfi_offset 6, -8
 3238              		.cfi_offset 14, -4
 3239 0002 84B0     		sub	sp, sp, #16
 3240              		.cfi_def_cfa_offset 32
 3241 0004 0400     		movs	r4, r0
 3242 0006 0E00     		movs	r6, r1
 460:..\..\u8g2\csrc/u8g2_d_setup.c ****   uint8_t tile_buf_height;
 461:..\..\u8g2\csrc/u8g2_d_setup.c ****   uint8_t *buf;
 462:..\..\u8g2\csrc/u8g2_d_setup.c ****   u8g2_SetupDisplay(u8g2, u8x8_d_ssd1325_nhd_128x64, u8x8_cad_001, byte_cb, gpio_and_delay_cb);
 3243              		.loc 1 462 0
ARM GAS  C:\Users\arh\AppData\Local\Temp\ccfmrym3.s 			page 66


 3244 0008 0093     		str	r3, [sp]
 3245 000a 1300     		movs	r3, r2
 3246              	.LVL551:
 3247 000c 084A     		ldr	r2, .L152
 3248              	.LVL552:
 3249 000e 0949     		ldr	r1, .L152+4
 3250              	.LVL553:
 3251 0010 FFF7FEFF 		bl	u8x8_Setup
 3252              	.LVL554:
 463:..\..\u8g2\csrc/u8g2_d_setup.c ****   buf = u8g2_m_ssd1325_16_f(&tile_buf_height);
 3253              		.loc 1 463 0
 3254 0014 0F25     		movs	r5, #15
 3255 0016 6D44     		add	r5, r5, sp
 3256 0018 2800     		movs	r0, r5
 3257 001a FFF7FEFF 		bl	u8g2_m_ssd1325_16_f
 3258              	.LVL555:
 3259 001e 0100     		movs	r1, r0
 3260              	.LVL556:
 464:..\..\u8g2\csrc/u8g2_d_setup.c ****   u8g2_SetupBuffer(u8g2, buf, tile_buf_height, u8g2_ll_hvline_vertical_top_lsb, rotation);
 3261              		.loc 1 464 0
 3262 0020 2A78     		ldrb	r2, [r5]
 3263 0022 0096     		str	r6, [sp]
 3264 0024 044B     		ldr	r3, .L152+8
 3265 0026 2000     		movs	r0, r4
 3266              	.LVL557:
 3267 0028 FFF7FEFF 		bl	u8g2_SetupBuffer
 3268              	.LVL558:
 465:..\..\u8g2\csrc/u8g2_d_setup.c **** }
 3269              		.loc 1 465 0
 3270 002c 04B0     		add	sp, sp, #16
 3271              		@ sp needed
 3272              	.LVL559:
 3273              	.LVL560:
 3274 002e 70BD     		pop	{r4, r5, r6, pc}
 3275              	.L153:
 3276              		.align	2
 3277              	.L152:
 3278 0030 00000000 		.word	u8x8_cad_001
 3279 0034 00000000 		.word	u8x8_d_ssd1325_nhd_128x64
 3280 0038 00000000 		.word	u8g2_ll_hvline_vertical_top_lsb
 3281              		.cfi_endproc
 3282              	.LFE50:
 3283              		.size	u8g2_Setup_ssd1325_nhd_128x64_f, .-u8g2_Setup_ssd1325_nhd_128x64_f
 3284              		.section	.text.u8g2_Setup_ssd1325_i2c_nhd_128x64_1,"ax",%progbits
 3285              		.align	2
 3286              		.global	u8g2_Setup_ssd1325_i2c_nhd_128x64_1
 3287              		.code	16
 3288              		.thumb_func
 3289              		.type	u8g2_Setup_ssd1325_i2c_nhd_128x64_1, %function
 3290              	u8g2_Setup_ssd1325_i2c_nhd_128x64_1:
 3291              	.LFB51:
 466:..\..\u8g2\csrc/u8g2_d_setup.c **** /* ssd1325 */
 467:..\..\u8g2\csrc/u8g2_d_setup.c **** /* ssd1325 1 */
 468:..\..\u8g2\csrc/u8g2_d_setup.c **** void u8g2_Setup_ssd1325_i2c_nhd_128x64_1(u8g2_t *u8g2, const u8g2_cb_t *rotation, u8x8_msg_cb byte_
 469:..\..\u8g2\csrc/u8g2_d_setup.c **** {
 3292              		.loc 1 469 0
 3293              		.cfi_startproc
ARM GAS  C:\Users\arh\AppData\Local\Temp\ccfmrym3.s 			page 67


 3294              		@ args = 0, pretend = 0, frame = 8
 3295              		@ frame_needed = 0, uses_anonymous_args = 0
 3296              	.LVL561:
 3297 0000 70B5     		push	{r4, r5, r6, lr}
 3298              		.cfi_def_cfa_offset 16
 3299              		.cfi_offset 4, -16
 3300              		.cfi_offset 5, -12
 3301              		.cfi_offset 6, -8
 3302              		.cfi_offset 14, -4
 3303 0002 84B0     		sub	sp, sp, #16
 3304              		.cfi_def_cfa_offset 32
 3305 0004 0400     		movs	r4, r0
 3306 0006 0E00     		movs	r6, r1
 470:..\..\u8g2\csrc/u8g2_d_setup.c ****   uint8_t tile_buf_height;
 471:..\..\u8g2\csrc/u8g2_d_setup.c ****   uint8_t *buf;
 472:..\..\u8g2\csrc/u8g2_d_setup.c ****   u8g2_SetupDisplay(u8g2, u8x8_d_ssd1325_nhd_128x64, u8x8_cad_ssd13xx_i2c, byte_cb, gpio_and_delay_
 3307              		.loc 1 472 0
 3308 0008 0093     		str	r3, [sp]
 3309 000a 1300     		movs	r3, r2
 3310              	.LVL562:
 3311 000c 084A     		ldr	r2, .L155
 3312              	.LVL563:
 3313 000e 0949     		ldr	r1, .L155+4
 3314              	.LVL564:
 3315 0010 FFF7FEFF 		bl	u8x8_Setup
 3316              	.LVL565:
 473:..\..\u8g2\csrc/u8g2_d_setup.c ****   buf = u8g2_m_ssd1325_16_1(&tile_buf_height);
 3317              		.loc 1 473 0
 3318 0014 0F25     		movs	r5, #15
 3319 0016 6D44     		add	r5, r5, sp
 3320 0018 2800     		movs	r0, r5
 3321 001a FFF7FEFF 		bl	u8g2_m_ssd1325_16_1
 3322              	.LVL566:
 3323 001e 0100     		movs	r1, r0
 3324              	.LVL567:
 474:..\..\u8g2\csrc/u8g2_d_setup.c ****   u8g2_SetupBuffer(u8g2, buf, tile_buf_height, u8g2_ll_hvline_vertical_top_lsb, rotation);
 3325              		.loc 1 474 0
 3326 0020 2A78     		ldrb	r2, [r5]
 3327 0022 0096     		str	r6, [sp]
 3328 0024 044B     		ldr	r3, .L155+8
 3329 0026 2000     		movs	r0, r4
 3330              	.LVL568:
 3331 0028 FFF7FEFF 		bl	u8g2_SetupBuffer
 3332              	.LVL569:
 475:..\..\u8g2\csrc/u8g2_d_setup.c **** }
 3333              		.loc 1 475 0
 3334 002c 04B0     		add	sp, sp, #16
 3335              		@ sp needed
 3336              	.LVL570:
 3337              	.LVL571:
 3338 002e 70BD     		pop	{r4, r5, r6, pc}
 3339              	.L156:
 3340              		.align	2
 3341              	.L155:
 3342 0030 00000000 		.word	u8x8_cad_ssd13xx_i2c
 3343 0034 00000000 		.word	u8x8_d_ssd1325_nhd_128x64
 3344 0038 00000000 		.word	u8g2_ll_hvline_vertical_top_lsb
ARM GAS  C:\Users\arh\AppData\Local\Temp\ccfmrym3.s 			page 68


 3345              		.cfi_endproc
 3346              	.LFE51:
 3347              		.size	u8g2_Setup_ssd1325_i2c_nhd_128x64_1, .-u8g2_Setup_ssd1325_i2c_nhd_128x64_1
 3348              		.section	.text.u8g2_Setup_ssd1325_i2c_nhd_128x64_2,"ax",%progbits
 3349              		.align	2
 3350              		.global	u8g2_Setup_ssd1325_i2c_nhd_128x64_2
 3351              		.code	16
 3352              		.thumb_func
 3353              		.type	u8g2_Setup_ssd1325_i2c_nhd_128x64_2, %function
 3354              	u8g2_Setup_ssd1325_i2c_nhd_128x64_2:
 3355              	.LFB52:
 476:..\..\u8g2\csrc/u8g2_d_setup.c **** /* ssd1325 2 */
 477:..\..\u8g2\csrc/u8g2_d_setup.c **** void u8g2_Setup_ssd1325_i2c_nhd_128x64_2(u8g2_t *u8g2, const u8g2_cb_t *rotation, u8x8_msg_cb byte_
 478:..\..\u8g2\csrc/u8g2_d_setup.c **** {
 3356              		.loc 1 478 0
 3357              		.cfi_startproc
 3358              		@ args = 0, pretend = 0, frame = 8
 3359              		@ frame_needed = 0, uses_anonymous_args = 0
 3360              	.LVL572:
 3361 0000 70B5     		push	{r4, r5, r6, lr}
 3362              		.cfi_def_cfa_offset 16
 3363              		.cfi_offset 4, -16
 3364              		.cfi_offset 5, -12
 3365              		.cfi_offset 6, -8
 3366              		.cfi_offset 14, -4
 3367 0002 84B0     		sub	sp, sp, #16
 3368              		.cfi_def_cfa_offset 32
 3369 0004 0400     		movs	r4, r0
 3370 0006 0E00     		movs	r6, r1
 479:..\..\u8g2\csrc/u8g2_d_setup.c ****   uint8_t tile_buf_height;
 480:..\..\u8g2\csrc/u8g2_d_setup.c ****   uint8_t *buf;
 481:..\..\u8g2\csrc/u8g2_d_setup.c ****   u8g2_SetupDisplay(u8g2, u8x8_d_ssd1325_nhd_128x64, u8x8_cad_ssd13xx_i2c, byte_cb, gpio_and_delay_
 3371              		.loc 1 481 0
 3372 0008 0093     		str	r3, [sp]
 3373 000a 1300     		movs	r3, r2
 3374              	.LVL573:
 3375 000c 084A     		ldr	r2, .L158
 3376              	.LVL574:
 3377 000e 0949     		ldr	r1, .L158+4
 3378              	.LVL575:
 3379 0010 FFF7FEFF 		bl	u8x8_Setup
 3380              	.LVL576:
 482:..\..\u8g2\csrc/u8g2_d_setup.c ****   buf = u8g2_m_ssd1325_16_2(&tile_buf_height);
 3381              		.loc 1 482 0
 3382 0014 0F25     		movs	r5, #15
 3383 0016 6D44     		add	r5, r5, sp
 3384 0018 2800     		movs	r0, r5
 3385 001a FFF7FEFF 		bl	u8g2_m_ssd1325_16_2
 3386              	.LVL577:
 3387 001e 0100     		movs	r1, r0
 3388              	.LVL578:
 483:..\..\u8g2\csrc/u8g2_d_setup.c ****   u8g2_SetupBuffer(u8g2, buf, tile_buf_height, u8g2_ll_hvline_vertical_top_lsb, rotation);
 3389              		.loc 1 483 0
 3390 0020 2A78     		ldrb	r2, [r5]
 3391 0022 0096     		str	r6, [sp]
 3392 0024 044B     		ldr	r3, .L158+8
 3393 0026 2000     		movs	r0, r4
ARM GAS  C:\Users\arh\AppData\Local\Temp\ccfmrym3.s 			page 69


 3394              	.LVL579:
 3395 0028 FFF7FEFF 		bl	u8g2_SetupBuffer
 3396              	.LVL580:
 484:..\..\u8g2\csrc/u8g2_d_setup.c **** }
 3397              		.loc 1 484 0
 3398 002c 04B0     		add	sp, sp, #16
 3399              		@ sp needed
 3400              	.LVL581:
 3401              	.LVL582:
 3402 002e 70BD     		pop	{r4, r5, r6, pc}
 3403              	.L159:
 3404              		.align	2
 3405              	.L158:
 3406 0030 00000000 		.word	u8x8_cad_ssd13xx_i2c
 3407 0034 00000000 		.word	u8x8_d_ssd1325_nhd_128x64
 3408 0038 00000000 		.word	u8g2_ll_hvline_vertical_top_lsb
 3409              		.cfi_endproc
 3410              	.LFE52:
 3411              		.size	u8g2_Setup_ssd1325_i2c_nhd_128x64_2, .-u8g2_Setup_ssd1325_i2c_nhd_128x64_2
 3412              		.section	.text.u8g2_Setup_ssd1325_i2c_nhd_128x64_f,"ax",%progbits
 3413              		.align	2
 3414              		.global	u8g2_Setup_ssd1325_i2c_nhd_128x64_f
 3415              		.code	16
 3416              		.thumb_func
 3417              		.type	u8g2_Setup_ssd1325_i2c_nhd_128x64_f, %function
 3418              	u8g2_Setup_ssd1325_i2c_nhd_128x64_f:
 3419              	.LFB53:
 485:..\..\u8g2\csrc/u8g2_d_setup.c **** /* ssd1325 f */
 486:..\..\u8g2\csrc/u8g2_d_setup.c **** void u8g2_Setup_ssd1325_i2c_nhd_128x64_f(u8g2_t *u8g2, const u8g2_cb_t *rotation, u8x8_msg_cb byte_
 487:..\..\u8g2\csrc/u8g2_d_setup.c **** {
 3420              		.loc 1 487 0
 3421              		.cfi_startproc
 3422              		@ args = 0, pretend = 0, frame = 8
 3423              		@ frame_needed = 0, uses_anonymous_args = 0
 3424              	.LVL583:
 3425 0000 70B5     		push	{r4, r5, r6, lr}
 3426              		.cfi_def_cfa_offset 16
 3427              		.cfi_offset 4, -16
 3428              		.cfi_offset 5, -12
 3429              		.cfi_offset 6, -8
 3430              		.cfi_offset 14, -4
 3431 0002 84B0     		sub	sp, sp, #16
 3432              		.cfi_def_cfa_offset 32
 3433 0004 0400     		movs	r4, r0
 3434 0006 0E00     		movs	r6, r1
 488:..\..\u8g2\csrc/u8g2_d_setup.c ****   uint8_t tile_buf_height;
 489:..\..\u8g2\csrc/u8g2_d_setup.c ****   uint8_t *buf;
 490:..\..\u8g2\csrc/u8g2_d_setup.c ****   u8g2_SetupDisplay(u8g2, u8x8_d_ssd1325_nhd_128x64, u8x8_cad_ssd13xx_i2c, byte_cb, gpio_and_delay_
 3435              		.loc 1 490 0
 3436 0008 0093     		str	r3, [sp]
 3437 000a 1300     		movs	r3, r2
 3438              	.LVL584:
 3439 000c 084A     		ldr	r2, .L161
 3440              	.LVL585:
 3441 000e 0949     		ldr	r1, .L161+4
 3442              	.LVL586:
 3443 0010 FFF7FEFF 		bl	u8x8_Setup
ARM GAS  C:\Users\arh\AppData\Local\Temp\ccfmrym3.s 			page 70


 3444              	.LVL587:
 491:..\..\u8g2\csrc/u8g2_d_setup.c ****   buf = u8g2_m_ssd1325_16_f(&tile_buf_height);
 3445              		.loc 1 491 0
 3446 0014 0F25     		movs	r5, #15
 3447 0016 6D44     		add	r5, r5, sp
 3448 0018 2800     		movs	r0, r5
 3449 001a FFF7FEFF 		bl	u8g2_m_ssd1325_16_f
 3450              	.LVL588:
 3451 001e 0100     		movs	r1, r0
 3452              	.LVL589:
 492:..\..\u8g2\csrc/u8g2_d_setup.c ****   u8g2_SetupBuffer(u8g2, buf, tile_buf_height, u8g2_ll_hvline_vertical_top_lsb, rotation);
 3453              		.loc 1 492 0
 3454 0020 2A78     		ldrb	r2, [r5]
 3455 0022 0096     		str	r6, [sp]
 3456 0024 044B     		ldr	r3, .L161+8
 3457 0026 2000     		movs	r0, r4
 3458              	.LVL590:
 3459 0028 FFF7FEFF 		bl	u8g2_SetupBuffer
 3460              	.LVL591:
 493:..\..\u8g2\csrc/u8g2_d_setup.c **** }
 3461              		.loc 1 493 0
 3462 002c 04B0     		add	sp, sp, #16
 3463              		@ sp needed
 3464              	.LVL592:
 3465              	.LVL593:
 3466 002e 70BD     		pop	{r4, r5, r6, pc}
 3467              	.L162:
 3468              		.align	2
 3469              	.L161:
 3470 0030 00000000 		.word	u8x8_cad_ssd13xx_i2c
 3471 0034 00000000 		.word	u8x8_d_ssd1325_nhd_128x64
 3472 0038 00000000 		.word	u8g2_ll_hvline_vertical_top_lsb
 3473              		.cfi_endproc
 3474              	.LFE53:
 3475              		.size	u8g2_Setup_ssd1325_i2c_nhd_128x64_f, .-u8g2_Setup_ssd1325_i2c_nhd_128x64_f
 3476              		.section	.text.u8g2_Setup_ssd1327_seeed_96x96_1,"ax",%progbits
 3477              		.align	2
 3478              		.global	u8g2_Setup_ssd1327_seeed_96x96_1
 3479              		.code	16
 3480              		.thumb_func
 3481              		.type	u8g2_Setup_ssd1327_seeed_96x96_1, %function
 3482              	u8g2_Setup_ssd1327_seeed_96x96_1:
 3483              	.LFB54:
 494:..\..\u8g2\csrc/u8g2_d_setup.c **** /* ssd1327 */
 495:..\..\u8g2\csrc/u8g2_d_setup.c **** /* ssd1327 1 */
 496:..\..\u8g2\csrc/u8g2_d_setup.c **** void u8g2_Setup_ssd1327_seeed_96x96_1(u8g2_t *u8g2, const u8g2_cb_t *rotation, u8x8_msg_cb byte_cb,
 497:..\..\u8g2\csrc/u8g2_d_setup.c **** {
 3484              		.loc 1 497 0
 3485              		.cfi_startproc
 3486              		@ args = 0, pretend = 0, frame = 8
 3487              		@ frame_needed = 0, uses_anonymous_args = 0
 3488              	.LVL594:
 3489 0000 70B5     		push	{r4, r5, r6, lr}
 3490              		.cfi_def_cfa_offset 16
 3491              		.cfi_offset 4, -16
 3492              		.cfi_offset 5, -12
 3493              		.cfi_offset 6, -8
ARM GAS  C:\Users\arh\AppData\Local\Temp\ccfmrym3.s 			page 71


 3494              		.cfi_offset 14, -4
 3495 0002 84B0     		sub	sp, sp, #16
 3496              		.cfi_def_cfa_offset 32
 3497 0004 0400     		movs	r4, r0
 3498 0006 0E00     		movs	r6, r1
 498:..\..\u8g2\csrc/u8g2_d_setup.c ****   uint8_t tile_buf_height;
 499:..\..\u8g2\csrc/u8g2_d_setup.c ****   uint8_t *buf;
 500:..\..\u8g2\csrc/u8g2_d_setup.c ****   u8g2_SetupDisplay(u8g2, u8x8_d_ssd1327_seeed_96x96, u8x8_cad_001, byte_cb, gpio_and_delay_cb);
 3499              		.loc 1 500 0
 3500 0008 0093     		str	r3, [sp]
 3501 000a 1300     		movs	r3, r2
 3502              	.LVL595:
 3503 000c 084A     		ldr	r2, .L164
 3504              	.LVL596:
 3505 000e 0949     		ldr	r1, .L164+4
 3506              	.LVL597:
 3507 0010 FFF7FEFF 		bl	u8x8_Setup
 3508              	.LVL598:
 501:..\..\u8g2\csrc/u8g2_d_setup.c ****   buf = u8g2_m_ssd1327_12_1(&tile_buf_height);
 3509              		.loc 1 501 0
 3510 0014 0F25     		movs	r5, #15
 3511 0016 6D44     		add	r5, r5, sp
 3512 0018 2800     		movs	r0, r5
 3513 001a FFF7FEFF 		bl	u8g2_m_ssd1327_12_1
 3514              	.LVL599:
 3515 001e 0100     		movs	r1, r0
 3516              	.LVL600:
 502:..\..\u8g2\csrc/u8g2_d_setup.c ****   u8g2_SetupBuffer(u8g2, buf, tile_buf_height, u8g2_ll_hvline_vertical_top_lsb, rotation);
 3517              		.loc 1 502 0
 3518 0020 2A78     		ldrb	r2, [r5]
 3519 0022 0096     		str	r6, [sp]
 3520 0024 044B     		ldr	r3, .L164+8
 3521 0026 2000     		movs	r0, r4
 3522              	.LVL601:
 3523 0028 FFF7FEFF 		bl	u8g2_SetupBuffer
 3524              	.LVL602:
 503:..\..\u8g2\csrc/u8g2_d_setup.c **** }
 3525              		.loc 1 503 0
 3526 002c 04B0     		add	sp, sp, #16
 3527              		@ sp needed
 3528              	.LVL603:
 3529              	.LVL604:
 3530 002e 70BD     		pop	{r4, r5, r6, pc}
 3531              	.L165:
 3532              		.align	2
 3533              	.L164:
 3534 0030 00000000 		.word	u8x8_cad_001
 3535 0034 00000000 		.word	u8x8_d_ssd1327_seeed_96x96
 3536 0038 00000000 		.word	u8g2_ll_hvline_vertical_top_lsb
 3537              		.cfi_endproc
 3538              	.LFE54:
 3539              		.size	u8g2_Setup_ssd1327_seeed_96x96_1, .-u8g2_Setup_ssd1327_seeed_96x96_1
 3540              		.section	.text.u8g2_Setup_ssd1327_seeed_96x96_2,"ax",%progbits
 3541              		.align	2
 3542              		.global	u8g2_Setup_ssd1327_seeed_96x96_2
 3543              		.code	16
 3544              		.thumb_func
ARM GAS  C:\Users\arh\AppData\Local\Temp\ccfmrym3.s 			page 72


 3545              		.type	u8g2_Setup_ssd1327_seeed_96x96_2, %function
 3546              	u8g2_Setup_ssd1327_seeed_96x96_2:
 3547              	.LFB55:
 504:..\..\u8g2\csrc/u8g2_d_setup.c **** /* ssd1327 2 */
 505:..\..\u8g2\csrc/u8g2_d_setup.c **** void u8g2_Setup_ssd1327_seeed_96x96_2(u8g2_t *u8g2, const u8g2_cb_t *rotation, u8x8_msg_cb byte_cb,
 506:..\..\u8g2\csrc/u8g2_d_setup.c **** {
 3548              		.loc 1 506 0
 3549              		.cfi_startproc
 3550              		@ args = 0, pretend = 0, frame = 8
 3551              		@ frame_needed = 0, uses_anonymous_args = 0
 3552              	.LVL605:
 3553 0000 70B5     		push	{r4, r5, r6, lr}
 3554              		.cfi_def_cfa_offset 16
 3555              		.cfi_offset 4, -16
 3556              		.cfi_offset 5, -12
 3557              		.cfi_offset 6, -8
 3558              		.cfi_offset 14, -4
 3559 0002 84B0     		sub	sp, sp, #16
 3560              		.cfi_def_cfa_offset 32
 3561 0004 0400     		movs	r4, r0
 3562 0006 0E00     		movs	r6, r1
 507:..\..\u8g2\csrc/u8g2_d_setup.c ****   uint8_t tile_buf_height;
 508:..\..\u8g2\csrc/u8g2_d_setup.c ****   uint8_t *buf;
 509:..\..\u8g2\csrc/u8g2_d_setup.c ****   u8g2_SetupDisplay(u8g2, u8x8_d_ssd1327_seeed_96x96, u8x8_cad_001, byte_cb, gpio_and_delay_cb);
 3563              		.loc 1 509 0
 3564 0008 0093     		str	r3, [sp]
 3565 000a 1300     		movs	r3, r2
 3566              	.LVL606:
 3567 000c 084A     		ldr	r2, .L167
 3568              	.LVL607:
 3569 000e 0949     		ldr	r1, .L167+4
 3570              	.LVL608:
 3571 0010 FFF7FEFF 		bl	u8x8_Setup
 3572              	.LVL609:
 510:..\..\u8g2\csrc/u8g2_d_setup.c ****   buf = u8g2_m_ssd1327_12_2(&tile_buf_height);
 3573              		.loc 1 510 0
 3574 0014 0F25     		movs	r5, #15
 3575 0016 6D44     		add	r5, r5, sp
 3576 0018 2800     		movs	r0, r5
 3577 001a FFF7FEFF 		bl	u8g2_m_ssd1327_12_2
 3578              	.LVL610:
 3579 001e 0100     		movs	r1, r0
 3580              	.LVL611:
 511:..\..\u8g2\csrc/u8g2_d_setup.c ****   u8g2_SetupBuffer(u8g2, buf, tile_buf_height, u8g2_ll_hvline_vertical_top_lsb, rotation);
 3581              		.loc 1 511 0
 3582 0020 2A78     		ldrb	r2, [r5]
 3583 0022 0096     		str	r6, [sp]
 3584 0024 044B     		ldr	r3, .L167+8
 3585 0026 2000     		movs	r0, r4
 3586              	.LVL612:
 3587 0028 FFF7FEFF 		bl	u8g2_SetupBuffer
 3588              	.LVL613:
 512:..\..\u8g2\csrc/u8g2_d_setup.c **** }
 3589              		.loc 1 512 0
 3590 002c 04B0     		add	sp, sp, #16
 3591              		@ sp needed
 3592              	.LVL614:
ARM GAS  C:\Users\arh\AppData\Local\Temp\ccfmrym3.s 			page 73


 3593              	.LVL615:
 3594 002e 70BD     		pop	{r4, r5, r6, pc}
 3595              	.L168:
 3596              		.align	2
 3597              	.L167:
 3598 0030 00000000 		.word	u8x8_cad_001
 3599 0034 00000000 		.word	u8x8_d_ssd1327_seeed_96x96
 3600 0038 00000000 		.word	u8g2_ll_hvline_vertical_top_lsb
 3601              		.cfi_endproc
 3602              	.LFE55:
 3603              		.size	u8g2_Setup_ssd1327_seeed_96x96_2, .-u8g2_Setup_ssd1327_seeed_96x96_2
 3604              		.section	.text.u8g2_Setup_ssd1327_seeed_96x96_f,"ax",%progbits
 3605              		.align	2
 3606              		.global	u8g2_Setup_ssd1327_seeed_96x96_f
 3607              		.code	16
 3608              		.thumb_func
 3609              		.type	u8g2_Setup_ssd1327_seeed_96x96_f, %function
 3610              	u8g2_Setup_ssd1327_seeed_96x96_f:
 3611              	.LFB56:
 513:..\..\u8g2\csrc/u8g2_d_setup.c **** /* ssd1327 f */
 514:..\..\u8g2\csrc/u8g2_d_setup.c **** void u8g2_Setup_ssd1327_seeed_96x96_f(u8g2_t *u8g2, const u8g2_cb_t *rotation, u8x8_msg_cb byte_cb,
 515:..\..\u8g2\csrc/u8g2_d_setup.c **** {
 3612              		.loc 1 515 0
 3613              		.cfi_startproc
 3614              		@ args = 0, pretend = 0, frame = 8
 3615              		@ frame_needed = 0, uses_anonymous_args = 0
 3616              	.LVL616:
 3617 0000 70B5     		push	{r4, r5, r6, lr}
 3618              		.cfi_def_cfa_offset 16
 3619              		.cfi_offset 4, -16
 3620              		.cfi_offset 5, -12
 3621              		.cfi_offset 6, -8
 3622              		.cfi_offset 14, -4
 3623 0002 84B0     		sub	sp, sp, #16
 3624              		.cfi_def_cfa_offset 32
 3625 0004 0400     		movs	r4, r0
 3626 0006 0E00     		movs	r6, r1
 516:..\..\u8g2\csrc/u8g2_d_setup.c ****   uint8_t tile_buf_height;
 517:..\..\u8g2\csrc/u8g2_d_setup.c ****   uint8_t *buf;
 518:..\..\u8g2\csrc/u8g2_d_setup.c ****   u8g2_SetupDisplay(u8g2, u8x8_d_ssd1327_seeed_96x96, u8x8_cad_001, byte_cb, gpio_and_delay_cb);
 3627              		.loc 1 518 0
 3628 0008 0093     		str	r3, [sp]
 3629 000a 1300     		movs	r3, r2
 3630              	.LVL617:
 3631 000c 084A     		ldr	r2, .L170
 3632              	.LVL618:
 3633 000e 0949     		ldr	r1, .L170+4
 3634              	.LVL619:
 3635 0010 FFF7FEFF 		bl	u8x8_Setup
 3636              	.LVL620:
 519:..\..\u8g2\csrc/u8g2_d_setup.c ****   buf = u8g2_m_ssd1327_12_f(&tile_buf_height);
 3637              		.loc 1 519 0
 3638 0014 0F25     		movs	r5, #15
 3639 0016 6D44     		add	r5, r5, sp
 3640 0018 2800     		movs	r0, r5
 3641 001a FFF7FEFF 		bl	u8g2_m_ssd1327_12_f
 3642              	.LVL621:
ARM GAS  C:\Users\arh\AppData\Local\Temp\ccfmrym3.s 			page 74


 3643 001e 0100     		movs	r1, r0
 3644              	.LVL622:
 520:..\..\u8g2\csrc/u8g2_d_setup.c ****   u8g2_SetupBuffer(u8g2, buf, tile_buf_height, u8g2_ll_hvline_vertical_top_lsb, rotation);
 3645              		.loc 1 520 0
 3646 0020 2A78     		ldrb	r2, [r5]
 3647 0022 0096     		str	r6, [sp]
 3648 0024 044B     		ldr	r3, .L170+8
 3649 0026 2000     		movs	r0, r4
 3650              	.LVL623:
 3651 0028 FFF7FEFF 		bl	u8g2_SetupBuffer
 3652              	.LVL624:
 521:..\..\u8g2\csrc/u8g2_d_setup.c **** }
 3653              		.loc 1 521 0
 3654 002c 04B0     		add	sp, sp, #16
 3655              		@ sp needed
 3656              	.LVL625:
 3657              	.LVL626:
 3658 002e 70BD     		pop	{r4, r5, r6, pc}
 3659              	.L171:
 3660              		.align	2
 3661              	.L170:
 3662 0030 00000000 		.word	u8x8_cad_001
 3663 0034 00000000 		.word	u8x8_d_ssd1327_seeed_96x96
 3664 0038 00000000 		.word	u8g2_ll_hvline_vertical_top_lsb
 3665              		.cfi_endproc
 3666              	.LFE56:
 3667              		.size	u8g2_Setup_ssd1327_seeed_96x96_f, .-u8g2_Setup_ssd1327_seeed_96x96_f
 3668              		.section	.text.u8g2_Setup_ssd1327_i2c_seeed_96x96_1,"ax",%progbits
 3669              		.align	2
 3670              		.global	u8g2_Setup_ssd1327_i2c_seeed_96x96_1
 3671              		.code	16
 3672              		.thumb_func
 3673              		.type	u8g2_Setup_ssd1327_i2c_seeed_96x96_1, %function
 3674              	u8g2_Setup_ssd1327_i2c_seeed_96x96_1:
 3675              	.LFB57:
 522:..\..\u8g2\csrc/u8g2_d_setup.c **** /* ssd1327 */
 523:..\..\u8g2\csrc/u8g2_d_setup.c **** /* ssd1327 1 */
 524:..\..\u8g2\csrc/u8g2_d_setup.c **** void u8g2_Setup_ssd1327_i2c_seeed_96x96_1(u8g2_t *u8g2, const u8g2_cb_t *rotation, u8x8_msg_cb byte
 525:..\..\u8g2\csrc/u8g2_d_setup.c **** {
 3676              		.loc 1 525 0
 3677              		.cfi_startproc
 3678              		@ args = 0, pretend = 0, frame = 8
 3679              		@ frame_needed = 0, uses_anonymous_args = 0
 3680              	.LVL627:
 3681 0000 70B5     		push	{r4, r5, r6, lr}
 3682              		.cfi_def_cfa_offset 16
 3683              		.cfi_offset 4, -16
 3684              		.cfi_offset 5, -12
 3685              		.cfi_offset 6, -8
 3686              		.cfi_offset 14, -4
 3687 0002 84B0     		sub	sp, sp, #16
 3688              		.cfi_def_cfa_offset 32
 3689 0004 0400     		movs	r4, r0
 3690 0006 0E00     		movs	r6, r1
 526:..\..\u8g2\csrc/u8g2_d_setup.c ****   uint8_t tile_buf_height;
 527:..\..\u8g2\csrc/u8g2_d_setup.c ****   uint8_t *buf;
 528:..\..\u8g2\csrc/u8g2_d_setup.c ****   u8g2_SetupDisplay(u8g2, u8x8_d_ssd1327_seeed_96x96, u8x8_cad_ssd13xx_i2c, byte_cb, gpio_and_delay
ARM GAS  C:\Users\arh\AppData\Local\Temp\ccfmrym3.s 			page 75


 3691              		.loc 1 528 0
 3692 0008 0093     		str	r3, [sp]
 3693 000a 1300     		movs	r3, r2
 3694              	.LVL628:
 3695 000c 084A     		ldr	r2, .L173
 3696              	.LVL629:
 3697 000e 0949     		ldr	r1, .L173+4
 3698              	.LVL630:
 3699 0010 FFF7FEFF 		bl	u8x8_Setup
 3700              	.LVL631:
 529:..\..\u8g2\csrc/u8g2_d_setup.c ****   buf = u8g2_m_ssd1327_12_1(&tile_buf_height);
 3701              		.loc 1 529 0
 3702 0014 0F25     		movs	r5, #15
 3703 0016 6D44     		add	r5, r5, sp
 3704 0018 2800     		movs	r0, r5
 3705 001a FFF7FEFF 		bl	u8g2_m_ssd1327_12_1
 3706              	.LVL632:
 3707 001e 0100     		movs	r1, r0
 3708              	.LVL633:
 530:..\..\u8g2\csrc/u8g2_d_setup.c ****   u8g2_SetupBuffer(u8g2, buf, tile_buf_height, u8g2_ll_hvline_vertical_top_lsb, rotation);
 3709              		.loc 1 530 0
 3710 0020 2A78     		ldrb	r2, [r5]
 3711 0022 0096     		str	r6, [sp]
 3712 0024 044B     		ldr	r3, .L173+8
 3713 0026 2000     		movs	r0, r4
 3714              	.LVL634:
 3715 0028 FFF7FEFF 		bl	u8g2_SetupBuffer
 3716              	.LVL635:
 531:..\..\u8g2\csrc/u8g2_d_setup.c **** }
 3717              		.loc 1 531 0
 3718 002c 04B0     		add	sp, sp, #16
 3719              		@ sp needed
 3720              	.LVL636:
 3721              	.LVL637:
 3722 002e 70BD     		pop	{r4, r5, r6, pc}
 3723              	.L174:
 3724              		.align	2
 3725              	.L173:
 3726 0030 00000000 		.word	u8x8_cad_ssd13xx_i2c
 3727 0034 00000000 		.word	u8x8_d_ssd1327_seeed_96x96
 3728 0038 00000000 		.word	u8g2_ll_hvline_vertical_top_lsb
 3729              		.cfi_endproc
 3730              	.LFE57:
 3731              		.size	u8g2_Setup_ssd1327_i2c_seeed_96x96_1, .-u8g2_Setup_ssd1327_i2c_seeed_96x96_1
 3732              		.section	.text.u8g2_Setup_ssd1327_i2c_seeed_96x96_2,"ax",%progbits
 3733              		.align	2
 3734              		.global	u8g2_Setup_ssd1327_i2c_seeed_96x96_2
 3735              		.code	16
 3736              		.thumb_func
 3737              		.type	u8g2_Setup_ssd1327_i2c_seeed_96x96_2, %function
 3738              	u8g2_Setup_ssd1327_i2c_seeed_96x96_2:
 3739              	.LFB58:
 532:..\..\u8g2\csrc/u8g2_d_setup.c **** /* ssd1327 2 */
 533:..\..\u8g2\csrc/u8g2_d_setup.c **** void u8g2_Setup_ssd1327_i2c_seeed_96x96_2(u8g2_t *u8g2, const u8g2_cb_t *rotation, u8x8_msg_cb byte
 534:..\..\u8g2\csrc/u8g2_d_setup.c **** {
 3740              		.loc 1 534 0
 3741              		.cfi_startproc
ARM GAS  C:\Users\arh\AppData\Local\Temp\ccfmrym3.s 			page 76


 3742              		@ args = 0, pretend = 0, frame = 8
 3743              		@ frame_needed = 0, uses_anonymous_args = 0
 3744              	.LVL638:
 3745 0000 70B5     		push	{r4, r5, r6, lr}
 3746              		.cfi_def_cfa_offset 16
 3747              		.cfi_offset 4, -16
 3748              		.cfi_offset 5, -12
 3749              		.cfi_offset 6, -8
 3750              		.cfi_offset 14, -4
 3751 0002 84B0     		sub	sp, sp, #16
 3752              		.cfi_def_cfa_offset 32
 3753 0004 0400     		movs	r4, r0
 3754 0006 0E00     		movs	r6, r1
 535:..\..\u8g2\csrc/u8g2_d_setup.c ****   uint8_t tile_buf_height;
 536:..\..\u8g2\csrc/u8g2_d_setup.c ****   uint8_t *buf;
 537:..\..\u8g2\csrc/u8g2_d_setup.c ****   u8g2_SetupDisplay(u8g2, u8x8_d_ssd1327_seeed_96x96, u8x8_cad_ssd13xx_i2c, byte_cb, gpio_and_delay
 3755              		.loc 1 537 0
 3756 0008 0093     		str	r3, [sp]
 3757 000a 1300     		movs	r3, r2
 3758              	.LVL639:
 3759 000c 084A     		ldr	r2, .L176
 3760              	.LVL640:
 3761 000e 0949     		ldr	r1, .L176+4
 3762              	.LVL641:
 3763 0010 FFF7FEFF 		bl	u8x8_Setup
 3764              	.LVL642:
 538:..\..\u8g2\csrc/u8g2_d_setup.c ****   buf = u8g2_m_ssd1327_12_2(&tile_buf_height);
 3765              		.loc 1 538 0
 3766 0014 0F25     		movs	r5, #15
 3767 0016 6D44     		add	r5, r5, sp
 3768 0018 2800     		movs	r0, r5
 3769 001a FFF7FEFF 		bl	u8g2_m_ssd1327_12_2
 3770              	.LVL643:
 3771 001e 0100     		movs	r1, r0
 3772              	.LVL644:
 539:..\..\u8g2\csrc/u8g2_d_setup.c ****   u8g2_SetupBuffer(u8g2, buf, tile_buf_height, u8g2_ll_hvline_vertical_top_lsb, rotation);
 3773              		.loc 1 539 0
 3774 0020 2A78     		ldrb	r2, [r5]
 3775 0022 0096     		str	r6, [sp]
 3776 0024 044B     		ldr	r3, .L176+8
 3777 0026 2000     		movs	r0, r4
 3778              	.LVL645:
 3779 0028 FFF7FEFF 		bl	u8g2_SetupBuffer
 3780              	.LVL646:
 540:..\..\u8g2\csrc/u8g2_d_setup.c **** }
 3781              		.loc 1 540 0
 3782 002c 04B0     		add	sp, sp, #16
 3783              		@ sp needed
 3784              	.LVL647:
 3785              	.LVL648:
 3786 002e 70BD     		pop	{r4, r5, r6, pc}
 3787              	.L177:
 3788              		.align	2
 3789              	.L176:
 3790 0030 00000000 		.word	u8x8_cad_ssd13xx_i2c
 3791 0034 00000000 		.word	u8x8_d_ssd1327_seeed_96x96
 3792 0038 00000000 		.word	u8g2_ll_hvline_vertical_top_lsb
ARM GAS  C:\Users\arh\AppData\Local\Temp\ccfmrym3.s 			page 77


 3793              		.cfi_endproc
 3794              	.LFE58:
 3795              		.size	u8g2_Setup_ssd1327_i2c_seeed_96x96_2, .-u8g2_Setup_ssd1327_i2c_seeed_96x96_2
 3796              		.section	.text.u8g2_Setup_ssd1327_i2c_seeed_96x96_f,"ax",%progbits
 3797              		.align	2
 3798              		.global	u8g2_Setup_ssd1327_i2c_seeed_96x96_f
 3799              		.code	16
 3800              		.thumb_func
 3801              		.type	u8g2_Setup_ssd1327_i2c_seeed_96x96_f, %function
 3802              	u8g2_Setup_ssd1327_i2c_seeed_96x96_f:
 3803              	.LFB59:
 541:..\..\u8g2\csrc/u8g2_d_setup.c **** /* ssd1327 f */
 542:..\..\u8g2\csrc/u8g2_d_setup.c **** void u8g2_Setup_ssd1327_i2c_seeed_96x96_f(u8g2_t *u8g2, const u8g2_cb_t *rotation, u8x8_msg_cb byte
 543:..\..\u8g2\csrc/u8g2_d_setup.c **** {
 3804              		.loc 1 543 0
 3805              		.cfi_startproc
 3806              		@ args = 0, pretend = 0, frame = 8
 3807              		@ frame_needed = 0, uses_anonymous_args = 0
 3808              	.LVL649:
 3809 0000 70B5     		push	{r4, r5, r6, lr}
 3810              		.cfi_def_cfa_offset 16
 3811              		.cfi_offset 4, -16
 3812              		.cfi_offset 5, -12
 3813              		.cfi_offset 6, -8
 3814              		.cfi_offset 14, -4
 3815 0002 84B0     		sub	sp, sp, #16
 3816              		.cfi_def_cfa_offset 32
 3817 0004 0400     		movs	r4, r0
 3818 0006 0E00     		movs	r6, r1
 544:..\..\u8g2\csrc/u8g2_d_setup.c ****   uint8_t tile_buf_height;
 545:..\..\u8g2\csrc/u8g2_d_setup.c ****   uint8_t *buf;
 546:..\..\u8g2\csrc/u8g2_d_setup.c ****   u8g2_SetupDisplay(u8g2, u8x8_d_ssd1327_seeed_96x96, u8x8_cad_ssd13xx_i2c, byte_cb, gpio_and_delay
 3819              		.loc 1 546 0
 3820 0008 0093     		str	r3, [sp]
 3821 000a 1300     		movs	r3, r2
 3822              	.LVL650:
 3823 000c 084A     		ldr	r2, .L179
 3824              	.LVL651:
 3825 000e 0949     		ldr	r1, .L179+4
 3826              	.LVL652:
 3827 0010 FFF7FEFF 		bl	u8x8_Setup
 3828              	.LVL653:
 547:..\..\u8g2\csrc/u8g2_d_setup.c ****   buf = u8g2_m_ssd1327_12_f(&tile_buf_height);
 3829              		.loc 1 547 0
 3830 0014 0F25     		movs	r5, #15
 3831 0016 6D44     		add	r5, r5, sp
 3832 0018 2800     		movs	r0, r5
 3833 001a FFF7FEFF 		bl	u8g2_m_ssd1327_12_f
 3834              	.LVL654:
 3835 001e 0100     		movs	r1, r0
 3836              	.LVL655:
 548:..\..\u8g2\csrc/u8g2_d_setup.c ****   u8g2_SetupBuffer(u8g2, buf, tile_buf_height, u8g2_ll_hvline_vertical_top_lsb, rotation);
 3837              		.loc 1 548 0
 3838 0020 2A78     		ldrb	r2, [r5]
 3839 0022 0096     		str	r6, [sp]
 3840 0024 044B     		ldr	r3, .L179+8
 3841 0026 2000     		movs	r0, r4
ARM GAS  C:\Users\arh\AppData\Local\Temp\ccfmrym3.s 			page 78


 3842              	.LVL656:
 3843 0028 FFF7FEFF 		bl	u8g2_SetupBuffer
 3844              	.LVL657:
 549:..\..\u8g2\csrc/u8g2_d_setup.c **** }
 3845              		.loc 1 549 0
 3846 002c 04B0     		add	sp, sp, #16
 3847              		@ sp needed
 3848              	.LVL658:
 3849              	.LVL659:
 3850 002e 70BD     		pop	{r4, r5, r6, pc}
 3851              	.L180:
 3852              		.align	2
 3853              	.L179:
 3854 0030 00000000 		.word	u8x8_cad_ssd13xx_i2c
 3855 0034 00000000 		.word	u8x8_d_ssd1327_seeed_96x96
 3856 0038 00000000 		.word	u8g2_ll_hvline_vertical_top_lsb
 3857              		.cfi_endproc
 3858              	.LFE59:
 3859              		.size	u8g2_Setup_ssd1327_i2c_seeed_96x96_f, .-u8g2_Setup_ssd1327_i2c_seeed_96x96_f
 3860              		.section	.text.u8g2_Setup_ld7032_60x32_1,"ax",%progbits
 3861              		.align	2
 3862              		.global	u8g2_Setup_ld7032_60x32_1
 3863              		.code	16
 3864              		.thumb_func
 3865              		.type	u8g2_Setup_ld7032_60x32_1, %function
 3866              	u8g2_Setup_ld7032_60x32_1:
 3867              	.LFB60:
 550:..\..\u8g2\csrc/u8g2_d_setup.c **** /* ld7032 */
 551:..\..\u8g2\csrc/u8g2_d_setup.c **** /* ld7032 1 */
 552:..\..\u8g2\csrc/u8g2_d_setup.c **** void u8g2_Setup_ld7032_60x32_1(u8g2_t *u8g2, const u8g2_cb_t *rotation, u8x8_msg_cb byte_cb, u8x8_m
 553:..\..\u8g2\csrc/u8g2_d_setup.c **** {
 3868              		.loc 1 553 0
 3869              		.cfi_startproc
 3870              		@ args = 0, pretend = 0, frame = 8
 3871              		@ frame_needed = 0, uses_anonymous_args = 0
 3872              	.LVL660:
 3873 0000 70B5     		push	{r4, r5, r6, lr}
 3874              		.cfi_def_cfa_offset 16
 3875              		.cfi_offset 4, -16
 3876              		.cfi_offset 5, -12
 3877              		.cfi_offset 6, -8
 3878              		.cfi_offset 14, -4
 3879 0002 84B0     		sub	sp, sp, #16
 3880              		.cfi_def_cfa_offset 32
 3881 0004 0400     		movs	r4, r0
 3882 0006 0E00     		movs	r6, r1
 554:..\..\u8g2\csrc/u8g2_d_setup.c ****   uint8_t tile_buf_height;
 555:..\..\u8g2\csrc/u8g2_d_setup.c ****   uint8_t *buf;
 556:..\..\u8g2\csrc/u8g2_d_setup.c ****   u8g2_SetupDisplay(u8g2, u8x8_d_ld7032_60x32, u8x8_cad_011, byte_cb, gpio_and_delay_cb);
 3883              		.loc 1 556 0
 3884 0008 0093     		str	r3, [sp]
 3885 000a 1300     		movs	r3, r2
 3886              	.LVL661:
 3887 000c 084A     		ldr	r2, .L182
 3888              	.LVL662:
 3889 000e 0949     		ldr	r1, .L182+4
 3890              	.LVL663:
ARM GAS  C:\Users\arh\AppData\Local\Temp\ccfmrym3.s 			page 79


 3891 0010 FFF7FEFF 		bl	u8x8_Setup
 3892              	.LVL664:
 557:..\..\u8g2\csrc/u8g2_d_setup.c ****   buf = u8g2_m_ld7032_8_1(&tile_buf_height);
 3893              		.loc 1 557 0
 3894 0014 0F25     		movs	r5, #15
 3895 0016 6D44     		add	r5, r5, sp
 3896 0018 2800     		movs	r0, r5
 3897 001a FFF7FEFF 		bl	u8g2_m_ld7032_8_1
 3898              	.LVL665:
 3899 001e 0100     		movs	r1, r0
 3900              	.LVL666:
 558:..\..\u8g2\csrc/u8g2_d_setup.c ****   u8g2_SetupBuffer(u8g2, buf, tile_buf_height, u8g2_ll_hvline_horizontal_right_lsb, rotation);
 3901              		.loc 1 558 0
 3902 0020 2A78     		ldrb	r2, [r5]
 3903 0022 0096     		str	r6, [sp]
 3904 0024 044B     		ldr	r3, .L182+8
 3905 0026 2000     		movs	r0, r4
 3906              	.LVL667:
 3907 0028 FFF7FEFF 		bl	u8g2_SetupBuffer
 3908              	.LVL668:
 559:..\..\u8g2\csrc/u8g2_d_setup.c **** }
 3909              		.loc 1 559 0
 3910 002c 04B0     		add	sp, sp, #16
 3911              		@ sp needed
 3912              	.LVL669:
 3913              	.LVL670:
 3914 002e 70BD     		pop	{r4, r5, r6, pc}
 3915              	.L183:
 3916              		.align	2
 3917              	.L182:
 3918 0030 00000000 		.word	u8x8_cad_011
 3919 0034 00000000 		.word	u8x8_d_ld7032_60x32
 3920 0038 00000000 		.word	u8g2_ll_hvline_horizontal_right_lsb
 3921              		.cfi_endproc
 3922              	.LFE60:
 3923              		.size	u8g2_Setup_ld7032_60x32_1, .-u8g2_Setup_ld7032_60x32_1
 3924              		.section	.text.u8g2_Setup_ld7032_60x32_2,"ax",%progbits
 3925              		.align	2
 3926              		.global	u8g2_Setup_ld7032_60x32_2
 3927              		.code	16
 3928              		.thumb_func
 3929              		.type	u8g2_Setup_ld7032_60x32_2, %function
 3930              	u8g2_Setup_ld7032_60x32_2:
 3931              	.LFB61:
 560:..\..\u8g2\csrc/u8g2_d_setup.c **** /* ld7032 2 */
 561:..\..\u8g2\csrc/u8g2_d_setup.c **** void u8g2_Setup_ld7032_60x32_2(u8g2_t *u8g2, const u8g2_cb_t *rotation, u8x8_msg_cb byte_cb, u8x8_m
 562:..\..\u8g2\csrc/u8g2_d_setup.c **** {
 3932              		.loc 1 562 0
 3933              		.cfi_startproc
 3934              		@ args = 0, pretend = 0, frame = 8
 3935              		@ frame_needed = 0, uses_anonymous_args = 0
 3936              	.LVL671:
 3937 0000 70B5     		push	{r4, r5, r6, lr}
 3938              		.cfi_def_cfa_offset 16
 3939              		.cfi_offset 4, -16
 3940              		.cfi_offset 5, -12
 3941              		.cfi_offset 6, -8
ARM GAS  C:\Users\arh\AppData\Local\Temp\ccfmrym3.s 			page 80


 3942              		.cfi_offset 14, -4
 3943 0002 84B0     		sub	sp, sp, #16
 3944              		.cfi_def_cfa_offset 32
 3945 0004 0400     		movs	r4, r0
 3946 0006 0E00     		movs	r6, r1
 563:..\..\u8g2\csrc/u8g2_d_setup.c ****   uint8_t tile_buf_height;
 564:..\..\u8g2\csrc/u8g2_d_setup.c ****   uint8_t *buf;
 565:..\..\u8g2\csrc/u8g2_d_setup.c ****   u8g2_SetupDisplay(u8g2, u8x8_d_ld7032_60x32, u8x8_cad_011, byte_cb, gpio_and_delay_cb);
 3947              		.loc 1 565 0
 3948 0008 0093     		str	r3, [sp]
 3949 000a 1300     		movs	r3, r2
 3950              	.LVL672:
 3951 000c 084A     		ldr	r2, .L185
 3952              	.LVL673:
 3953 000e 0949     		ldr	r1, .L185+4
 3954              	.LVL674:
 3955 0010 FFF7FEFF 		bl	u8x8_Setup
 3956              	.LVL675:
 566:..\..\u8g2\csrc/u8g2_d_setup.c ****   buf = u8g2_m_ld7032_8_2(&tile_buf_height);
 3957              		.loc 1 566 0
 3958 0014 0F25     		movs	r5, #15
 3959 0016 6D44     		add	r5, r5, sp
 3960 0018 2800     		movs	r0, r5
 3961 001a FFF7FEFF 		bl	u8g2_m_ld7032_8_2
 3962              	.LVL676:
 3963 001e 0100     		movs	r1, r0
 3964              	.LVL677:
 567:..\..\u8g2\csrc/u8g2_d_setup.c ****   u8g2_SetupBuffer(u8g2, buf, tile_buf_height, u8g2_ll_hvline_horizontal_right_lsb, rotation);
 3965              		.loc 1 567 0
 3966 0020 2A78     		ldrb	r2, [r5]
 3967 0022 0096     		str	r6, [sp]
 3968 0024 044B     		ldr	r3, .L185+8
 3969 0026 2000     		movs	r0, r4
 3970              	.LVL678:
 3971 0028 FFF7FEFF 		bl	u8g2_SetupBuffer
 3972              	.LVL679:
 568:..\..\u8g2\csrc/u8g2_d_setup.c **** }
 3973              		.loc 1 568 0
 3974 002c 04B0     		add	sp, sp, #16
 3975              		@ sp needed
 3976              	.LVL680:
 3977              	.LVL681:
 3978 002e 70BD     		pop	{r4, r5, r6, pc}
 3979              	.L186:
 3980              		.align	2
 3981              	.L185:
 3982 0030 00000000 		.word	u8x8_cad_011
 3983 0034 00000000 		.word	u8x8_d_ld7032_60x32
 3984 0038 00000000 		.word	u8g2_ll_hvline_horizontal_right_lsb
 3985              		.cfi_endproc
 3986              	.LFE61:
 3987              		.size	u8g2_Setup_ld7032_60x32_2, .-u8g2_Setup_ld7032_60x32_2
 3988              		.section	.text.u8g2_Setup_ld7032_60x32_f,"ax",%progbits
 3989              		.align	2
 3990              		.global	u8g2_Setup_ld7032_60x32_f
 3991              		.code	16
 3992              		.thumb_func
ARM GAS  C:\Users\arh\AppData\Local\Temp\ccfmrym3.s 			page 81


 3993              		.type	u8g2_Setup_ld7032_60x32_f, %function
 3994              	u8g2_Setup_ld7032_60x32_f:
 3995              	.LFB62:
 569:..\..\u8g2\csrc/u8g2_d_setup.c **** /* ld7032 f */
 570:..\..\u8g2\csrc/u8g2_d_setup.c **** void u8g2_Setup_ld7032_60x32_f(u8g2_t *u8g2, const u8g2_cb_t *rotation, u8x8_msg_cb byte_cb, u8x8_m
 571:..\..\u8g2\csrc/u8g2_d_setup.c **** {
 3996              		.loc 1 571 0
 3997              		.cfi_startproc
 3998              		@ args = 0, pretend = 0, frame = 8
 3999              		@ frame_needed = 0, uses_anonymous_args = 0
 4000              	.LVL682:
 4001 0000 70B5     		push	{r4, r5, r6, lr}
 4002              		.cfi_def_cfa_offset 16
 4003              		.cfi_offset 4, -16
 4004              		.cfi_offset 5, -12
 4005              		.cfi_offset 6, -8
 4006              		.cfi_offset 14, -4
 4007 0002 84B0     		sub	sp, sp, #16
 4008              		.cfi_def_cfa_offset 32
 4009 0004 0400     		movs	r4, r0
 4010 0006 0E00     		movs	r6, r1
 572:..\..\u8g2\csrc/u8g2_d_setup.c ****   uint8_t tile_buf_height;
 573:..\..\u8g2\csrc/u8g2_d_setup.c ****   uint8_t *buf;
 574:..\..\u8g2\csrc/u8g2_d_setup.c ****   u8g2_SetupDisplay(u8g2, u8x8_d_ld7032_60x32, u8x8_cad_011, byte_cb, gpio_and_delay_cb);
 4011              		.loc 1 574 0
 4012 0008 0093     		str	r3, [sp]
 4013 000a 1300     		movs	r3, r2
 4014              	.LVL683:
 4015 000c 084A     		ldr	r2, .L188
 4016              	.LVL684:
 4017 000e 0949     		ldr	r1, .L188+4
 4018              	.LVL685:
 4019 0010 FFF7FEFF 		bl	u8x8_Setup
 4020              	.LVL686:
 575:..\..\u8g2\csrc/u8g2_d_setup.c ****   buf = u8g2_m_ld7032_8_f(&tile_buf_height);
 4021              		.loc 1 575 0
 4022 0014 0F25     		movs	r5, #15
 4023 0016 6D44     		add	r5, r5, sp
 4024 0018 2800     		movs	r0, r5
 4025 001a FFF7FEFF 		bl	u8g2_m_ld7032_8_f
 4026              	.LVL687:
 4027 001e 0100     		movs	r1, r0
 4028              	.LVL688:
 576:..\..\u8g2\csrc/u8g2_d_setup.c ****   u8g2_SetupBuffer(u8g2, buf, tile_buf_height, u8g2_ll_hvline_horizontal_right_lsb, rotation);
 4029              		.loc 1 576 0
 4030 0020 2A78     		ldrb	r2, [r5]
 4031 0022 0096     		str	r6, [sp]
 4032 0024 044B     		ldr	r3, .L188+8
 4033 0026 2000     		movs	r0, r4
 4034              	.LVL689:
 4035 0028 FFF7FEFF 		bl	u8g2_SetupBuffer
 4036              	.LVL690:
 577:..\..\u8g2\csrc/u8g2_d_setup.c **** }
 4037              		.loc 1 577 0
 4038 002c 04B0     		add	sp, sp, #16
 4039              		@ sp needed
 4040              	.LVL691:
ARM GAS  C:\Users\arh\AppData\Local\Temp\ccfmrym3.s 			page 82


 4041              	.LVL692:
 4042 002e 70BD     		pop	{r4, r5, r6, pc}
 4043              	.L189:
 4044              		.align	2
 4045              	.L188:
 4046 0030 00000000 		.word	u8x8_cad_011
 4047 0034 00000000 		.word	u8x8_d_ld7032_60x32
 4048 0038 00000000 		.word	u8g2_ll_hvline_horizontal_right_lsb
 4049              		.cfi_endproc
 4050              	.LFE62:
 4051              		.size	u8g2_Setup_ld7032_60x32_f, .-u8g2_Setup_ld7032_60x32_f
 4052              		.section	.text.u8g2_Setup_ld7032_i2c_60x32_1,"ax",%progbits
 4053              		.align	2
 4054              		.global	u8g2_Setup_ld7032_i2c_60x32_1
 4055              		.code	16
 4056              		.thumb_func
 4057              		.type	u8g2_Setup_ld7032_i2c_60x32_1, %function
 4058              	u8g2_Setup_ld7032_i2c_60x32_1:
 4059              	.LFB63:
 578:..\..\u8g2\csrc/u8g2_d_setup.c **** /* ld7032 */
 579:..\..\u8g2\csrc/u8g2_d_setup.c **** /* ld7032 1 */
 580:..\..\u8g2\csrc/u8g2_d_setup.c **** void u8g2_Setup_ld7032_i2c_60x32_1(u8g2_t *u8g2, const u8g2_cb_t *rotation, u8x8_msg_cb byte_cb, u8
 581:..\..\u8g2\csrc/u8g2_d_setup.c **** {
 4060              		.loc 1 581 0
 4061              		.cfi_startproc
 4062              		@ args = 0, pretend = 0, frame = 8
 4063              		@ frame_needed = 0, uses_anonymous_args = 0
 4064              	.LVL693:
 4065 0000 70B5     		push	{r4, r5, r6, lr}
 4066              		.cfi_def_cfa_offset 16
 4067              		.cfi_offset 4, -16
 4068              		.cfi_offset 5, -12
 4069              		.cfi_offset 6, -8
 4070              		.cfi_offset 14, -4
 4071 0002 84B0     		sub	sp, sp, #16
 4072              		.cfi_def_cfa_offset 32
 4073 0004 0400     		movs	r4, r0
 4074 0006 0E00     		movs	r6, r1
 582:..\..\u8g2\csrc/u8g2_d_setup.c ****   uint8_t tile_buf_height;
 583:..\..\u8g2\csrc/u8g2_d_setup.c ****   uint8_t *buf;
 584:..\..\u8g2\csrc/u8g2_d_setup.c ****   u8g2_SetupDisplay(u8g2, u8x8_d_ld7032_60x32, u8x8_cad_ld7032_i2c, byte_cb, gpio_and_delay_cb);
 4075              		.loc 1 584 0
 4076 0008 0093     		str	r3, [sp]
 4077 000a 1300     		movs	r3, r2
 4078              	.LVL694:
 4079 000c 084A     		ldr	r2, .L191
 4080              	.LVL695:
 4081 000e 0949     		ldr	r1, .L191+4
 4082              	.LVL696:
 4083 0010 FFF7FEFF 		bl	u8x8_Setup
 4084              	.LVL697:
 585:..\..\u8g2\csrc/u8g2_d_setup.c ****   buf = u8g2_m_ld7032_8_1(&tile_buf_height);
 4085              		.loc 1 585 0
 4086 0014 0F25     		movs	r5, #15
 4087 0016 6D44     		add	r5, r5, sp
 4088 0018 2800     		movs	r0, r5
 4089 001a FFF7FEFF 		bl	u8g2_m_ld7032_8_1
ARM GAS  C:\Users\arh\AppData\Local\Temp\ccfmrym3.s 			page 83


 4090              	.LVL698:
 4091 001e 0100     		movs	r1, r0
 4092              	.LVL699:
 586:..\..\u8g2\csrc/u8g2_d_setup.c ****   u8g2_SetupBuffer(u8g2, buf, tile_buf_height, u8g2_ll_hvline_horizontal_right_lsb, rotation);
 4093              		.loc 1 586 0
 4094 0020 2A78     		ldrb	r2, [r5]
 4095 0022 0096     		str	r6, [sp]
 4096 0024 044B     		ldr	r3, .L191+8
 4097 0026 2000     		movs	r0, r4
 4098              	.LVL700:
 4099 0028 FFF7FEFF 		bl	u8g2_SetupBuffer
 4100              	.LVL701:
 587:..\..\u8g2\csrc/u8g2_d_setup.c **** }
 4101              		.loc 1 587 0
 4102 002c 04B0     		add	sp, sp, #16
 4103              		@ sp needed
 4104              	.LVL702:
 4105              	.LVL703:
 4106 002e 70BD     		pop	{r4, r5, r6, pc}
 4107              	.L192:
 4108              		.align	2
 4109              	.L191:
 4110 0030 00000000 		.word	u8x8_cad_ld7032_i2c
 4111 0034 00000000 		.word	u8x8_d_ld7032_60x32
 4112 0038 00000000 		.word	u8g2_ll_hvline_horizontal_right_lsb
 4113              		.cfi_endproc
 4114              	.LFE63:
 4115              		.size	u8g2_Setup_ld7032_i2c_60x32_1, .-u8g2_Setup_ld7032_i2c_60x32_1
 4116              		.section	.text.u8g2_Setup_ld7032_i2c_60x32_2,"ax",%progbits
 4117              		.align	2
 4118              		.global	u8g2_Setup_ld7032_i2c_60x32_2
 4119              		.code	16
 4120              		.thumb_func
 4121              		.type	u8g2_Setup_ld7032_i2c_60x32_2, %function
 4122              	u8g2_Setup_ld7032_i2c_60x32_2:
 4123              	.LFB64:
 588:..\..\u8g2\csrc/u8g2_d_setup.c **** /* ld7032 2 */
 589:..\..\u8g2\csrc/u8g2_d_setup.c **** void u8g2_Setup_ld7032_i2c_60x32_2(u8g2_t *u8g2, const u8g2_cb_t *rotation, u8x8_msg_cb byte_cb, u8
 590:..\..\u8g2\csrc/u8g2_d_setup.c **** {
 4124              		.loc 1 590 0
 4125              		.cfi_startproc
 4126              		@ args = 0, pretend = 0, frame = 8
 4127              		@ frame_needed = 0, uses_anonymous_args = 0
 4128              	.LVL704:
 4129 0000 70B5     		push	{r4, r5, r6, lr}
 4130              		.cfi_def_cfa_offset 16
 4131              		.cfi_offset 4, -16
 4132              		.cfi_offset 5, -12
 4133              		.cfi_offset 6, -8
 4134              		.cfi_offset 14, -4
 4135 0002 84B0     		sub	sp, sp, #16
 4136              		.cfi_def_cfa_offset 32
 4137 0004 0400     		movs	r4, r0
 4138 0006 0E00     		movs	r6, r1
 591:..\..\u8g2\csrc/u8g2_d_setup.c ****   uint8_t tile_buf_height;
 592:..\..\u8g2\csrc/u8g2_d_setup.c ****   uint8_t *buf;
 593:..\..\u8g2\csrc/u8g2_d_setup.c ****   u8g2_SetupDisplay(u8g2, u8x8_d_ld7032_60x32, u8x8_cad_ld7032_i2c, byte_cb, gpio_and_delay_cb);
ARM GAS  C:\Users\arh\AppData\Local\Temp\ccfmrym3.s 			page 84


 4139              		.loc 1 593 0
 4140 0008 0093     		str	r3, [sp]
 4141 000a 1300     		movs	r3, r2
 4142              	.LVL705:
 4143 000c 084A     		ldr	r2, .L194
 4144              	.LVL706:
 4145 000e 0949     		ldr	r1, .L194+4
 4146              	.LVL707:
 4147 0010 FFF7FEFF 		bl	u8x8_Setup
 4148              	.LVL708:
 594:..\..\u8g2\csrc/u8g2_d_setup.c ****   buf = u8g2_m_ld7032_8_2(&tile_buf_height);
 4149              		.loc 1 594 0
 4150 0014 0F25     		movs	r5, #15
 4151 0016 6D44     		add	r5, r5, sp
 4152 0018 2800     		movs	r0, r5
 4153 001a FFF7FEFF 		bl	u8g2_m_ld7032_8_2
 4154              	.LVL709:
 4155 001e 0100     		movs	r1, r0
 4156              	.LVL710:
 595:..\..\u8g2\csrc/u8g2_d_setup.c ****   u8g2_SetupBuffer(u8g2, buf, tile_buf_height, u8g2_ll_hvline_horizontal_right_lsb, rotation);
 4157              		.loc 1 595 0
 4158 0020 2A78     		ldrb	r2, [r5]
 4159 0022 0096     		str	r6, [sp]
 4160 0024 044B     		ldr	r3, .L194+8
 4161 0026 2000     		movs	r0, r4
 4162              	.LVL711:
 4163 0028 FFF7FEFF 		bl	u8g2_SetupBuffer
 4164              	.LVL712:
 596:..\..\u8g2\csrc/u8g2_d_setup.c **** }
 4165              		.loc 1 596 0
 4166 002c 04B0     		add	sp, sp, #16
 4167              		@ sp needed
 4168              	.LVL713:
 4169              	.LVL714:
 4170 002e 70BD     		pop	{r4, r5, r6, pc}
 4171              	.L195:
 4172              		.align	2
 4173              	.L194:
 4174 0030 00000000 		.word	u8x8_cad_ld7032_i2c
 4175 0034 00000000 		.word	u8x8_d_ld7032_60x32
 4176 0038 00000000 		.word	u8g2_ll_hvline_horizontal_right_lsb
 4177              		.cfi_endproc
 4178              	.LFE64:
 4179              		.size	u8g2_Setup_ld7032_i2c_60x32_2, .-u8g2_Setup_ld7032_i2c_60x32_2
 4180              		.section	.text.u8g2_Setup_ld7032_i2c_60x32_f,"ax",%progbits
 4181              		.align	2
 4182              		.global	u8g2_Setup_ld7032_i2c_60x32_f
 4183              		.code	16
 4184              		.thumb_func
 4185              		.type	u8g2_Setup_ld7032_i2c_60x32_f, %function
 4186              	u8g2_Setup_ld7032_i2c_60x32_f:
 4187              	.LFB65:
 597:..\..\u8g2\csrc/u8g2_d_setup.c **** /* ld7032 f */
 598:..\..\u8g2\csrc/u8g2_d_setup.c **** void u8g2_Setup_ld7032_i2c_60x32_f(u8g2_t *u8g2, const u8g2_cb_t *rotation, u8x8_msg_cb byte_cb, u8
 599:..\..\u8g2\csrc/u8g2_d_setup.c **** {
 4188              		.loc 1 599 0
 4189              		.cfi_startproc
ARM GAS  C:\Users\arh\AppData\Local\Temp\ccfmrym3.s 			page 85


 4190              		@ args = 0, pretend = 0, frame = 8
 4191              		@ frame_needed = 0, uses_anonymous_args = 0
 4192              	.LVL715:
 4193 0000 70B5     		push	{r4, r5, r6, lr}
 4194              		.cfi_def_cfa_offset 16
 4195              		.cfi_offset 4, -16
 4196              		.cfi_offset 5, -12
 4197              		.cfi_offset 6, -8
 4198              		.cfi_offset 14, -4
 4199 0002 84B0     		sub	sp, sp, #16
 4200              		.cfi_def_cfa_offset 32
 4201 0004 0400     		movs	r4, r0
 4202 0006 0E00     		movs	r6, r1
 600:..\..\u8g2\csrc/u8g2_d_setup.c ****   uint8_t tile_buf_height;
 601:..\..\u8g2\csrc/u8g2_d_setup.c ****   uint8_t *buf;
 602:..\..\u8g2\csrc/u8g2_d_setup.c ****   u8g2_SetupDisplay(u8g2, u8x8_d_ld7032_60x32, u8x8_cad_ld7032_i2c, byte_cb, gpio_and_delay_cb);
 4203              		.loc 1 602 0
 4204 0008 0093     		str	r3, [sp]
 4205 000a 1300     		movs	r3, r2
 4206              	.LVL716:
 4207 000c 084A     		ldr	r2, .L197
 4208              	.LVL717:
 4209 000e 0949     		ldr	r1, .L197+4
 4210              	.LVL718:
 4211 0010 FFF7FEFF 		bl	u8x8_Setup
 4212              	.LVL719:
 603:..\..\u8g2\csrc/u8g2_d_setup.c ****   buf = u8g2_m_ld7032_8_f(&tile_buf_height);
 4213              		.loc 1 603 0
 4214 0014 0F25     		movs	r5, #15
 4215 0016 6D44     		add	r5, r5, sp
 4216 0018 2800     		movs	r0, r5
 4217 001a FFF7FEFF 		bl	u8g2_m_ld7032_8_f
 4218              	.LVL720:
 4219 001e 0100     		movs	r1, r0
 4220              	.LVL721:
 604:..\..\u8g2\csrc/u8g2_d_setup.c ****   u8g2_SetupBuffer(u8g2, buf, tile_buf_height, u8g2_ll_hvline_horizontal_right_lsb, rotation);
 4221              		.loc 1 604 0
 4222 0020 2A78     		ldrb	r2, [r5]
 4223 0022 0096     		str	r6, [sp]
 4224 0024 044B     		ldr	r3, .L197+8
 4225 0026 2000     		movs	r0, r4
 4226              	.LVL722:
 4227 0028 FFF7FEFF 		bl	u8g2_SetupBuffer
 4228              	.LVL723:
 605:..\..\u8g2\csrc/u8g2_d_setup.c **** }
 4229              		.loc 1 605 0
 4230 002c 04B0     		add	sp, sp, #16
 4231              		@ sp needed
 4232              	.LVL724:
 4233              	.LVL725:
 4234 002e 70BD     		pop	{r4, r5, r6, pc}
 4235              	.L198:
 4236              		.align	2
 4237              	.L197:
 4238 0030 00000000 		.word	u8x8_cad_ld7032_i2c
 4239 0034 00000000 		.word	u8x8_d_ld7032_60x32
 4240 0038 00000000 		.word	u8g2_ll_hvline_horizontal_right_lsb
ARM GAS  C:\Users\arh\AppData\Local\Temp\ccfmrym3.s 			page 86


 4241              		.cfi_endproc
 4242              	.LFE65:
 4243              		.size	u8g2_Setup_ld7032_i2c_60x32_f, .-u8g2_Setup_ld7032_i2c_60x32_f
 4244              		.section	.text.u8g2_Setup_st7920_p_192x32_1,"ax",%progbits
 4245              		.align	2
 4246              		.global	u8g2_Setup_st7920_p_192x32_1
 4247              		.code	16
 4248              		.thumb_func
 4249              		.type	u8g2_Setup_st7920_p_192x32_1, %function
 4250              	u8g2_Setup_st7920_p_192x32_1:
 4251              	.LFB66:
 606:..\..\u8g2\csrc/u8g2_d_setup.c **** /* st7920 */
 607:..\..\u8g2\csrc/u8g2_d_setup.c **** /* st7920 1 */
 608:..\..\u8g2\csrc/u8g2_d_setup.c **** void u8g2_Setup_st7920_p_192x32_1(u8g2_t *u8g2, const u8g2_cb_t *rotation, u8x8_msg_cb byte_cb, u8x
 609:..\..\u8g2\csrc/u8g2_d_setup.c **** {
 4252              		.loc 1 609 0
 4253              		.cfi_startproc
 4254              		@ args = 0, pretend = 0, frame = 8
 4255              		@ frame_needed = 0, uses_anonymous_args = 0
 4256              	.LVL726:
 4257 0000 70B5     		push	{r4, r5, r6, lr}
 4258              		.cfi_def_cfa_offset 16
 4259              		.cfi_offset 4, -16
 4260              		.cfi_offset 5, -12
 4261              		.cfi_offset 6, -8
 4262              		.cfi_offset 14, -4
 4263 0002 84B0     		sub	sp, sp, #16
 4264              		.cfi_def_cfa_offset 32
 4265 0004 0400     		movs	r4, r0
 4266 0006 0E00     		movs	r6, r1
 610:..\..\u8g2\csrc/u8g2_d_setup.c ****   uint8_t tile_buf_height;
 611:..\..\u8g2\csrc/u8g2_d_setup.c ****   uint8_t *buf;
 612:..\..\u8g2\csrc/u8g2_d_setup.c ****   u8g2_SetupDisplay(u8g2, u8x8_d_st7920_192x32, u8x8_cad_001, byte_cb, gpio_and_delay_cb);
 4267              		.loc 1 612 0
 4268 0008 0093     		str	r3, [sp]
 4269 000a 1300     		movs	r3, r2
 4270              	.LVL727:
 4271 000c 084A     		ldr	r2, .L200
 4272              	.LVL728:
 4273 000e 0949     		ldr	r1, .L200+4
 4274              	.LVL729:
 4275 0010 FFF7FEFF 		bl	u8x8_Setup
 4276              	.LVL730:
 613:..\..\u8g2\csrc/u8g2_d_setup.c ****   buf = u8g2_m_st7920_24_1(&tile_buf_height);
 4277              		.loc 1 613 0
 4278 0014 0F25     		movs	r5, #15
 4279 0016 6D44     		add	r5, r5, sp
 4280 0018 2800     		movs	r0, r5
 4281 001a FFF7FEFF 		bl	u8g2_m_st7920_24_1
 4282              	.LVL731:
 4283 001e 0100     		movs	r1, r0
 4284              	.LVL732:
 614:..\..\u8g2\csrc/u8g2_d_setup.c ****   u8g2_SetupBuffer(u8g2, buf, tile_buf_height, u8g2_ll_hvline_horizontal_right_lsb, rotation);
 4285              		.loc 1 614 0
 4286 0020 2A78     		ldrb	r2, [r5]
 4287 0022 0096     		str	r6, [sp]
 4288 0024 044B     		ldr	r3, .L200+8
ARM GAS  C:\Users\arh\AppData\Local\Temp\ccfmrym3.s 			page 87


 4289 0026 2000     		movs	r0, r4
 4290              	.LVL733:
 4291 0028 FFF7FEFF 		bl	u8g2_SetupBuffer
 4292              	.LVL734:
 615:..\..\u8g2\csrc/u8g2_d_setup.c **** }
 4293              		.loc 1 615 0
 4294 002c 04B0     		add	sp, sp, #16
 4295              		@ sp needed
 4296              	.LVL735:
 4297              	.LVL736:
 4298 002e 70BD     		pop	{r4, r5, r6, pc}
 4299              	.L201:
 4300              		.align	2
 4301              	.L200:
 4302 0030 00000000 		.word	u8x8_cad_001
 4303 0034 00000000 		.word	u8x8_d_st7920_192x32
 4304 0038 00000000 		.word	u8g2_ll_hvline_horizontal_right_lsb
 4305              		.cfi_endproc
 4306              	.LFE66:
 4307              		.size	u8g2_Setup_st7920_p_192x32_1, .-u8g2_Setup_st7920_p_192x32_1
 4308              		.section	.text.u8g2_Setup_st7920_p_192x32_2,"ax",%progbits
 4309              		.align	2
 4310              		.global	u8g2_Setup_st7920_p_192x32_2
 4311              		.code	16
 4312              		.thumb_func
 4313              		.type	u8g2_Setup_st7920_p_192x32_2, %function
 4314              	u8g2_Setup_st7920_p_192x32_2:
 4315              	.LFB67:
 616:..\..\u8g2\csrc/u8g2_d_setup.c **** /* st7920 2 */
 617:..\..\u8g2\csrc/u8g2_d_setup.c **** void u8g2_Setup_st7920_p_192x32_2(u8g2_t *u8g2, const u8g2_cb_t *rotation, u8x8_msg_cb byte_cb, u8x
 618:..\..\u8g2\csrc/u8g2_d_setup.c **** {
 4316              		.loc 1 618 0
 4317              		.cfi_startproc
 4318              		@ args = 0, pretend = 0, frame = 8
 4319              		@ frame_needed = 0, uses_anonymous_args = 0
 4320              	.LVL737:
 4321 0000 70B5     		push	{r4, r5, r6, lr}
 4322              		.cfi_def_cfa_offset 16
 4323              		.cfi_offset 4, -16
 4324              		.cfi_offset 5, -12
 4325              		.cfi_offset 6, -8
 4326              		.cfi_offset 14, -4
 4327 0002 84B0     		sub	sp, sp, #16
 4328              		.cfi_def_cfa_offset 32
 4329 0004 0400     		movs	r4, r0
 4330 0006 0E00     		movs	r6, r1
 619:..\..\u8g2\csrc/u8g2_d_setup.c ****   uint8_t tile_buf_height;
 620:..\..\u8g2\csrc/u8g2_d_setup.c ****   uint8_t *buf;
 621:..\..\u8g2\csrc/u8g2_d_setup.c ****   u8g2_SetupDisplay(u8g2, u8x8_d_st7920_192x32, u8x8_cad_001, byte_cb, gpio_and_delay_cb);
 4331              		.loc 1 621 0
 4332 0008 0093     		str	r3, [sp]
 4333 000a 1300     		movs	r3, r2
 4334              	.LVL738:
 4335 000c 084A     		ldr	r2, .L203
 4336              	.LVL739:
 4337 000e 0949     		ldr	r1, .L203+4
 4338              	.LVL740:
ARM GAS  C:\Users\arh\AppData\Local\Temp\ccfmrym3.s 			page 88


 4339 0010 FFF7FEFF 		bl	u8x8_Setup
 4340              	.LVL741:
 622:..\..\u8g2\csrc/u8g2_d_setup.c ****   buf = u8g2_m_st7920_24_2(&tile_buf_height);
 4341              		.loc 1 622 0
 4342 0014 0F25     		movs	r5, #15
 4343 0016 6D44     		add	r5, r5, sp
 4344 0018 2800     		movs	r0, r5
 4345 001a FFF7FEFF 		bl	u8g2_m_st7920_24_2
 4346              	.LVL742:
 4347 001e 0100     		movs	r1, r0
 4348              	.LVL743:
 623:..\..\u8g2\csrc/u8g2_d_setup.c ****   u8g2_SetupBuffer(u8g2, buf, tile_buf_height, u8g2_ll_hvline_horizontal_right_lsb, rotation);
 4349              		.loc 1 623 0
 4350 0020 2A78     		ldrb	r2, [r5]
 4351 0022 0096     		str	r6, [sp]
 4352 0024 044B     		ldr	r3, .L203+8
 4353 0026 2000     		movs	r0, r4
 4354              	.LVL744:
 4355 0028 FFF7FEFF 		bl	u8g2_SetupBuffer
 4356              	.LVL745:
 624:..\..\u8g2\csrc/u8g2_d_setup.c **** }
 4357              		.loc 1 624 0
 4358 002c 04B0     		add	sp, sp, #16
 4359              		@ sp needed
 4360              	.LVL746:
 4361              	.LVL747:
 4362 002e 70BD     		pop	{r4, r5, r6, pc}
 4363              	.L204:
 4364              		.align	2
 4365              	.L203:
 4366 0030 00000000 		.word	u8x8_cad_001
 4367 0034 00000000 		.word	u8x8_d_st7920_192x32
 4368 0038 00000000 		.word	u8g2_ll_hvline_horizontal_right_lsb
 4369              		.cfi_endproc
 4370              	.LFE67:
 4371              		.size	u8g2_Setup_st7920_p_192x32_2, .-u8g2_Setup_st7920_p_192x32_2
 4372              		.section	.text.u8g2_Setup_st7920_p_192x32_f,"ax",%progbits
 4373              		.align	2
 4374              		.global	u8g2_Setup_st7920_p_192x32_f
 4375              		.code	16
 4376              		.thumb_func
 4377              		.type	u8g2_Setup_st7920_p_192x32_f, %function
 4378              	u8g2_Setup_st7920_p_192x32_f:
 4379              	.LFB68:
 625:..\..\u8g2\csrc/u8g2_d_setup.c **** /* st7920 f */
 626:..\..\u8g2\csrc/u8g2_d_setup.c **** void u8g2_Setup_st7920_p_192x32_f(u8g2_t *u8g2, const u8g2_cb_t *rotation, u8x8_msg_cb byte_cb, u8x
 627:..\..\u8g2\csrc/u8g2_d_setup.c **** {
 4380              		.loc 1 627 0
 4381              		.cfi_startproc
 4382              		@ args = 0, pretend = 0, frame = 8
 4383              		@ frame_needed = 0, uses_anonymous_args = 0
 4384              	.LVL748:
 4385 0000 70B5     		push	{r4, r5, r6, lr}
 4386              		.cfi_def_cfa_offset 16
 4387              		.cfi_offset 4, -16
 4388              		.cfi_offset 5, -12
 4389              		.cfi_offset 6, -8
ARM GAS  C:\Users\arh\AppData\Local\Temp\ccfmrym3.s 			page 89


 4390              		.cfi_offset 14, -4
 4391 0002 84B0     		sub	sp, sp, #16
 4392              		.cfi_def_cfa_offset 32
 4393 0004 0400     		movs	r4, r0
 4394 0006 0E00     		movs	r6, r1
 628:..\..\u8g2\csrc/u8g2_d_setup.c ****   uint8_t tile_buf_height;
 629:..\..\u8g2\csrc/u8g2_d_setup.c ****   uint8_t *buf;
 630:..\..\u8g2\csrc/u8g2_d_setup.c ****   u8g2_SetupDisplay(u8g2, u8x8_d_st7920_192x32, u8x8_cad_001, byte_cb, gpio_and_delay_cb);
 4395              		.loc 1 630 0
 4396 0008 0093     		str	r3, [sp]
 4397 000a 1300     		movs	r3, r2
 4398              	.LVL749:
 4399 000c 084A     		ldr	r2, .L206
 4400              	.LVL750:
 4401 000e 0949     		ldr	r1, .L206+4
 4402              	.LVL751:
 4403 0010 FFF7FEFF 		bl	u8x8_Setup
 4404              	.LVL752:
 631:..\..\u8g2\csrc/u8g2_d_setup.c ****   buf = u8g2_m_st7920_24_f(&tile_buf_height);
 4405              		.loc 1 631 0
 4406 0014 0F25     		movs	r5, #15
 4407 0016 6D44     		add	r5, r5, sp
 4408 0018 2800     		movs	r0, r5
 4409 001a FFF7FEFF 		bl	u8g2_m_st7920_24_f
 4410              	.LVL753:
 4411 001e 0100     		movs	r1, r0
 4412              	.LVL754:
 632:..\..\u8g2\csrc/u8g2_d_setup.c ****   u8g2_SetupBuffer(u8g2, buf, tile_buf_height, u8g2_ll_hvline_horizontal_right_lsb, rotation);
 4413              		.loc 1 632 0
 4414 0020 2A78     		ldrb	r2, [r5]
 4415 0022 0096     		str	r6, [sp]
 4416 0024 044B     		ldr	r3, .L206+8
 4417 0026 2000     		movs	r0, r4
 4418              	.LVL755:
 4419 0028 FFF7FEFF 		bl	u8g2_SetupBuffer
 4420              	.LVL756:
 633:..\..\u8g2\csrc/u8g2_d_setup.c **** }
 4421              		.loc 1 633 0
 4422 002c 04B0     		add	sp, sp, #16
 4423              		@ sp needed
 4424              	.LVL757:
 4425              	.LVL758:
 4426 002e 70BD     		pop	{r4, r5, r6, pc}
 4427              	.L207:
 4428              		.align	2
 4429              	.L206:
 4430 0030 00000000 		.word	u8x8_cad_001
 4431 0034 00000000 		.word	u8x8_d_st7920_192x32
 4432 0038 00000000 		.word	u8g2_ll_hvline_horizontal_right_lsb
 4433              		.cfi_endproc
 4434              	.LFE68:
 4435              		.size	u8g2_Setup_st7920_p_192x32_f, .-u8g2_Setup_st7920_p_192x32_f
 4436              		.section	.text.u8g2_Setup_st7920_192x32_1,"ax",%progbits
 4437              		.align	2
 4438              		.global	u8g2_Setup_st7920_192x32_1
 4439              		.code	16
 4440              		.thumb_func
ARM GAS  C:\Users\arh\AppData\Local\Temp\ccfmrym3.s 			page 90


 4441              		.type	u8g2_Setup_st7920_192x32_1, %function
 4442              	u8g2_Setup_st7920_192x32_1:
 4443              	.LFB69:
 634:..\..\u8g2\csrc/u8g2_d_setup.c **** /* st7920 */
 635:..\..\u8g2\csrc/u8g2_d_setup.c **** /* st7920 1 */
 636:..\..\u8g2\csrc/u8g2_d_setup.c **** void u8g2_Setup_st7920_192x32_1(u8g2_t *u8g2, const u8g2_cb_t *rotation, u8x8_msg_cb byte_cb, u8x8_
 637:..\..\u8g2\csrc/u8g2_d_setup.c **** {
 4444              		.loc 1 637 0
 4445              		.cfi_startproc
 4446              		@ args = 0, pretend = 0, frame = 8
 4447              		@ frame_needed = 0, uses_anonymous_args = 0
 4448              	.LVL759:
 4449 0000 70B5     		push	{r4, r5, r6, lr}
 4450              		.cfi_def_cfa_offset 16
 4451              		.cfi_offset 4, -16
 4452              		.cfi_offset 5, -12
 4453              		.cfi_offset 6, -8
 4454              		.cfi_offset 14, -4
 4455 0002 84B0     		sub	sp, sp, #16
 4456              		.cfi_def_cfa_offset 32
 4457 0004 0400     		movs	r4, r0
 4458 0006 0E00     		movs	r6, r1
 638:..\..\u8g2\csrc/u8g2_d_setup.c ****   uint8_t tile_buf_height;
 639:..\..\u8g2\csrc/u8g2_d_setup.c ****   uint8_t *buf;
 640:..\..\u8g2\csrc/u8g2_d_setup.c ****   u8g2_SetupDisplay(u8g2, u8x8_d_st7920_192x32, u8x8_cad_001, byte_cb, gpio_and_delay_cb);
 4459              		.loc 1 640 0
 4460 0008 0093     		str	r3, [sp]
 4461 000a 1300     		movs	r3, r2
 4462              	.LVL760:
 4463 000c 084A     		ldr	r2, .L209
 4464              	.LVL761:
 4465 000e 0949     		ldr	r1, .L209+4
 4466              	.LVL762:
 4467 0010 FFF7FEFF 		bl	u8x8_Setup
 4468              	.LVL763:
 641:..\..\u8g2\csrc/u8g2_d_setup.c ****   buf = u8g2_m_st7920_24_1(&tile_buf_height);
 4469              		.loc 1 641 0
 4470 0014 0F25     		movs	r5, #15
 4471 0016 6D44     		add	r5, r5, sp
 4472 0018 2800     		movs	r0, r5
 4473 001a FFF7FEFF 		bl	u8g2_m_st7920_24_1
 4474              	.LVL764:
 4475 001e 0100     		movs	r1, r0
 4476              	.LVL765:
 642:..\..\u8g2\csrc/u8g2_d_setup.c ****   u8g2_SetupBuffer(u8g2, buf, tile_buf_height, u8g2_ll_hvline_horizontal_right_lsb, rotation);
 4477              		.loc 1 642 0
 4478 0020 2A78     		ldrb	r2, [r5]
 4479 0022 0096     		str	r6, [sp]
 4480 0024 044B     		ldr	r3, .L209+8
 4481 0026 2000     		movs	r0, r4
 4482              	.LVL766:
 4483 0028 FFF7FEFF 		bl	u8g2_SetupBuffer
 4484              	.LVL767:
 643:..\..\u8g2\csrc/u8g2_d_setup.c **** }
 4485              		.loc 1 643 0
 4486 002c 04B0     		add	sp, sp, #16
 4487              		@ sp needed
ARM GAS  C:\Users\arh\AppData\Local\Temp\ccfmrym3.s 			page 91


 4488              	.LVL768:
 4489              	.LVL769:
 4490 002e 70BD     		pop	{r4, r5, r6, pc}
 4491              	.L210:
 4492              		.align	2
 4493              	.L209:
 4494 0030 00000000 		.word	u8x8_cad_001
 4495 0034 00000000 		.word	u8x8_d_st7920_192x32
 4496 0038 00000000 		.word	u8g2_ll_hvline_horizontal_right_lsb
 4497              		.cfi_endproc
 4498              	.LFE69:
 4499              		.size	u8g2_Setup_st7920_192x32_1, .-u8g2_Setup_st7920_192x32_1
 4500              		.section	.text.u8g2_Setup_st7920_192x32_2,"ax",%progbits
 4501              		.align	2
 4502              		.global	u8g2_Setup_st7920_192x32_2
 4503              		.code	16
 4504              		.thumb_func
 4505              		.type	u8g2_Setup_st7920_192x32_2, %function
 4506              	u8g2_Setup_st7920_192x32_2:
 4507              	.LFB70:
 644:..\..\u8g2\csrc/u8g2_d_setup.c **** /* st7920 2 */
 645:..\..\u8g2\csrc/u8g2_d_setup.c **** void u8g2_Setup_st7920_192x32_2(u8g2_t *u8g2, const u8g2_cb_t *rotation, u8x8_msg_cb byte_cb, u8x8_
 646:..\..\u8g2\csrc/u8g2_d_setup.c **** {
 4508              		.loc 1 646 0
 4509              		.cfi_startproc
 4510              		@ args = 0, pretend = 0, frame = 8
 4511              		@ frame_needed = 0, uses_anonymous_args = 0
 4512              	.LVL770:
 4513 0000 70B5     		push	{r4, r5, r6, lr}
 4514              		.cfi_def_cfa_offset 16
 4515              		.cfi_offset 4, -16
 4516              		.cfi_offset 5, -12
 4517              		.cfi_offset 6, -8
 4518              		.cfi_offset 14, -4
 4519 0002 84B0     		sub	sp, sp, #16
 4520              		.cfi_def_cfa_offset 32
 4521 0004 0400     		movs	r4, r0
 4522 0006 0E00     		movs	r6, r1
 647:..\..\u8g2\csrc/u8g2_d_setup.c ****   uint8_t tile_buf_height;
 648:..\..\u8g2\csrc/u8g2_d_setup.c ****   uint8_t *buf;
 649:..\..\u8g2\csrc/u8g2_d_setup.c ****   u8g2_SetupDisplay(u8g2, u8x8_d_st7920_192x32, u8x8_cad_001, byte_cb, gpio_and_delay_cb);
 4523              		.loc 1 649 0
 4524 0008 0093     		str	r3, [sp]
 4525 000a 1300     		movs	r3, r2
 4526              	.LVL771:
 4527 000c 084A     		ldr	r2, .L212
 4528              	.LVL772:
 4529 000e 0949     		ldr	r1, .L212+4
 4530              	.LVL773:
 4531 0010 FFF7FEFF 		bl	u8x8_Setup
 4532              	.LVL774:
 650:..\..\u8g2\csrc/u8g2_d_setup.c ****   buf = u8g2_m_st7920_24_2(&tile_buf_height);
 4533              		.loc 1 650 0
 4534 0014 0F25     		movs	r5, #15
 4535 0016 6D44     		add	r5, r5, sp
 4536 0018 2800     		movs	r0, r5
 4537 001a FFF7FEFF 		bl	u8g2_m_st7920_24_2
ARM GAS  C:\Users\arh\AppData\Local\Temp\ccfmrym3.s 			page 92


 4538              	.LVL775:
 4539 001e 0100     		movs	r1, r0
 4540              	.LVL776:
 651:..\..\u8g2\csrc/u8g2_d_setup.c ****   u8g2_SetupBuffer(u8g2, buf, tile_buf_height, u8g2_ll_hvline_horizontal_right_lsb, rotation);
 4541              		.loc 1 651 0
 4542 0020 2A78     		ldrb	r2, [r5]
 4543 0022 0096     		str	r6, [sp]
 4544 0024 044B     		ldr	r3, .L212+8
 4545 0026 2000     		movs	r0, r4
 4546              	.LVL777:
 4547 0028 FFF7FEFF 		bl	u8g2_SetupBuffer
 4548              	.LVL778:
 652:..\..\u8g2\csrc/u8g2_d_setup.c **** }
 4549              		.loc 1 652 0
 4550 002c 04B0     		add	sp, sp, #16
 4551              		@ sp needed
 4552              	.LVL779:
 4553              	.LVL780:
 4554 002e 70BD     		pop	{r4, r5, r6, pc}
 4555              	.L213:
 4556              		.align	2
 4557              	.L212:
 4558 0030 00000000 		.word	u8x8_cad_001
 4559 0034 00000000 		.word	u8x8_d_st7920_192x32
 4560 0038 00000000 		.word	u8g2_ll_hvline_horizontal_right_lsb
 4561              		.cfi_endproc
 4562              	.LFE70:
 4563              		.size	u8g2_Setup_st7920_192x32_2, .-u8g2_Setup_st7920_192x32_2
 4564              		.section	.text.u8g2_Setup_st7920_192x32_f,"ax",%progbits
 4565              		.align	2
 4566              		.global	u8g2_Setup_st7920_192x32_f
 4567              		.code	16
 4568              		.thumb_func
 4569              		.type	u8g2_Setup_st7920_192x32_f, %function
 4570              	u8g2_Setup_st7920_192x32_f:
 4571              	.LFB71:
 653:..\..\u8g2\csrc/u8g2_d_setup.c **** /* st7920 f */
 654:..\..\u8g2\csrc/u8g2_d_setup.c **** void u8g2_Setup_st7920_192x32_f(u8g2_t *u8g2, const u8g2_cb_t *rotation, u8x8_msg_cb byte_cb, u8x8_
 655:..\..\u8g2\csrc/u8g2_d_setup.c **** {
 4572              		.loc 1 655 0
 4573              		.cfi_startproc
 4574              		@ args = 0, pretend = 0, frame = 8
 4575              		@ frame_needed = 0, uses_anonymous_args = 0
 4576              	.LVL781:
 4577 0000 70B5     		push	{r4, r5, r6, lr}
 4578              		.cfi_def_cfa_offset 16
 4579              		.cfi_offset 4, -16
 4580              		.cfi_offset 5, -12
 4581              		.cfi_offset 6, -8
 4582              		.cfi_offset 14, -4
 4583 0002 84B0     		sub	sp, sp, #16
 4584              		.cfi_def_cfa_offset 32
 4585 0004 0400     		movs	r4, r0
 4586 0006 0E00     		movs	r6, r1
 656:..\..\u8g2\csrc/u8g2_d_setup.c ****   uint8_t tile_buf_height;
 657:..\..\u8g2\csrc/u8g2_d_setup.c ****   uint8_t *buf;
 658:..\..\u8g2\csrc/u8g2_d_setup.c ****   u8g2_SetupDisplay(u8g2, u8x8_d_st7920_192x32, u8x8_cad_001, byte_cb, gpio_and_delay_cb);
ARM GAS  C:\Users\arh\AppData\Local\Temp\ccfmrym3.s 			page 93


 4587              		.loc 1 658 0
 4588 0008 0093     		str	r3, [sp]
 4589 000a 1300     		movs	r3, r2
 4590              	.LVL782:
 4591 000c 084A     		ldr	r2, .L215
 4592              	.LVL783:
 4593 000e 0949     		ldr	r1, .L215+4
 4594              	.LVL784:
 4595 0010 FFF7FEFF 		bl	u8x8_Setup
 4596              	.LVL785:
 659:..\..\u8g2\csrc/u8g2_d_setup.c ****   buf = u8g2_m_st7920_24_f(&tile_buf_height);
 4597              		.loc 1 659 0
 4598 0014 0F25     		movs	r5, #15
 4599 0016 6D44     		add	r5, r5, sp
 4600 0018 2800     		movs	r0, r5
 4601 001a FFF7FEFF 		bl	u8g2_m_st7920_24_f
 4602              	.LVL786:
 4603 001e 0100     		movs	r1, r0
 4604              	.LVL787:
 660:..\..\u8g2\csrc/u8g2_d_setup.c ****   u8g2_SetupBuffer(u8g2, buf, tile_buf_height, u8g2_ll_hvline_horizontal_right_lsb, rotation);
 4605              		.loc 1 660 0
 4606 0020 2A78     		ldrb	r2, [r5]
 4607 0022 0096     		str	r6, [sp]
 4608 0024 044B     		ldr	r3, .L215+8
 4609 0026 2000     		movs	r0, r4
 4610              	.LVL788:
 4611 0028 FFF7FEFF 		bl	u8g2_SetupBuffer
 4612              	.LVL789:
 661:..\..\u8g2\csrc/u8g2_d_setup.c **** }
 4613              		.loc 1 661 0
 4614 002c 04B0     		add	sp, sp, #16
 4615              		@ sp needed
 4616              	.LVL790:
 4617              	.LVL791:
 4618 002e 70BD     		pop	{r4, r5, r6, pc}
 4619              	.L216:
 4620              		.align	2
 4621              	.L215:
 4622 0030 00000000 		.word	u8x8_cad_001
 4623 0034 00000000 		.word	u8x8_d_st7920_192x32
 4624 0038 00000000 		.word	u8g2_ll_hvline_horizontal_right_lsb
 4625              		.cfi_endproc
 4626              	.LFE71:
 4627              		.size	u8g2_Setup_st7920_192x32_f, .-u8g2_Setup_st7920_192x32_f
 4628              		.section	.text.u8g2_Setup_st7920_s_192x32_1,"ax",%progbits
 4629              		.align	2
 4630              		.global	u8g2_Setup_st7920_s_192x32_1
 4631              		.code	16
 4632              		.thumb_func
 4633              		.type	u8g2_Setup_st7920_s_192x32_1, %function
 4634              	u8g2_Setup_st7920_s_192x32_1:
 4635              	.LFB72:
 662:..\..\u8g2\csrc/u8g2_d_setup.c **** /* st7920 */
 663:..\..\u8g2\csrc/u8g2_d_setup.c **** /* st7920 1 */
 664:..\..\u8g2\csrc/u8g2_d_setup.c **** void u8g2_Setup_st7920_s_192x32_1(u8g2_t *u8g2, const u8g2_cb_t *rotation, u8x8_msg_cb byte_cb, u8x
 665:..\..\u8g2\csrc/u8g2_d_setup.c **** {
 4636              		.loc 1 665 0
ARM GAS  C:\Users\arh\AppData\Local\Temp\ccfmrym3.s 			page 94


 4637              		.cfi_startproc
 4638              		@ args = 0, pretend = 0, frame = 8
 4639              		@ frame_needed = 0, uses_anonymous_args = 0
 4640              	.LVL792:
 4641 0000 70B5     		push	{r4, r5, r6, lr}
 4642              		.cfi_def_cfa_offset 16
 4643              		.cfi_offset 4, -16
 4644              		.cfi_offset 5, -12
 4645              		.cfi_offset 6, -8
 4646              		.cfi_offset 14, -4
 4647 0002 84B0     		sub	sp, sp, #16
 4648              		.cfi_def_cfa_offset 32
 4649 0004 0400     		movs	r4, r0
 4650 0006 0E00     		movs	r6, r1
 666:..\..\u8g2\csrc/u8g2_d_setup.c ****   uint8_t tile_buf_height;
 667:..\..\u8g2\csrc/u8g2_d_setup.c ****   uint8_t *buf;
 668:..\..\u8g2\csrc/u8g2_d_setup.c ****   u8g2_SetupDisplay(u8g2, u8x8_d_st7920_192x32, u8x8_cad_st7920_spi, byte_cb, gpio_and_delay_cb);
 4651              		.loc 1 668 0
 4652 0008 0093     		str	r3, [sp]
 4653 000a 1300     		movs	r3, r2
 4654              	.LVL793:
 4655 000c 084A     		ldr	r2, .L218
 4656              	.LVL794:
 4657 000e 0949     		ldr	r1, .L218+4
 4658              	.LVL795:
 4659 0010 FFF7FEFF 		bl	u8x8_Setup
 4660              	.LVL796:
 669:..\..\u8g2\csrc/u8g2_d_setup.c ****   buf = u8g2_m_st7920_24_1(&tile_buf_height);
 4661              		.loc 1 669 0
 4662 0014 0F25     		movs	r5, #15
