ARM GAS  C:\Users\gjl\AppData\Local\Temp\cc0j7sNR.s 			page 1


   1              		.syntax unified
   2              		.cpu cortex-m0
   3              		.fpu softvfp
   4              		.eabi_attribute 20, 1
   5              		.eabi_attribute 21, 1
   6              		.eabi_attribute 23, 3
   7              		.eabi_attribute 24, 1
   8              		.eabi_attribute 25, 1
   9              		.eabi_attribute 26, 1
  10              		.eabi_attribute 30, 1
  11              		.eabi_attribute 34, 0
  12              		.eabi_attribute 18, 4
  13              		.thumb
  14              		.syntax unified
  15              		.file	"u8g2_ll_hvline.c"
  16              		.text
  17              	.Ltext0:
  18              		.cfi_sections	.debug_frame
  19              		.section	.text.u8g2_ll_hvline_vertical_top_lsb,"ax",%progbits
  20              		.align	2
  21              		.global	u8g2_ll_hvline_vertical_top_lsb
  22              		.code	16
  23              		.thumb_func
  24              		.type	u8g2_ll_hvline_vertical_top_lsb, %function
  25              	u8g2_ll_hvline_vertical_top_lsb:
  26              	.LFB0:
  27              		.file 1 "..\\u8g2\\csrc\\u8g2_ll_hvline.c"
   1:..\u8g2\csrc/u8g2_ll_hvline.c **** /*
   2:..\u8g2\csrc/u8g2_ll_hvline.c **** 
   3:..\u8g2\csrc/u8g2_ll_hvline.c ****   u8g2_ll_hvline.c
   4:..\u8g2\csrc/u8g2_ll_hvline.c ****   
   5:..\u8g2\csrc/u8g2_ll_hvline.c ****   low level hvline
   6:..\u8g2\csrc/u8g2_ll_hvline.c **** 
   7:..\u8g2\csrc/u8g2_ll_hvline.c ****   Universal 8bit Graphics Library (https://github.com/olikraus/u8g2/)
   8:..\u8g2\csrc/u8g2_ll_hvline.c **** 
   9:..\u8g2\csrc/u8g2_ll_hvline.c ****   Copyright (c) 2016, olikraus@gmail.com
  10:..\u8g2\csrc/u8g2_ll_hvline.c ****   All rights reserved.
  11:..\u8g2\csrc/u8g2_ll_hvline.c **** 
  12:..\u8g2\csrc/u8g2_ll_hvline.c ****   Redistribution and use in source and binary forms, with or without modification, 
  13:..\u8g2\csrc/u8g2_ll_hvline.c ****   are permitted provided that the following conditions are met:
  14:..\u8g2\csrc/u8g2_ll_hvline.c **** 
  15:..\u8g2\csrc/u8g2_ll_hvline.c ****   * Redistributions of source code must retain the above copyright notice, this list 
  16:..\u8g2\csrc/u8g2_ll_hvline.c ****     of conditions and the following disclaimer.
  17:..\u8g2\csrc/u8g2_ll_hvline.c ****     
  18:..\u8g2\csrc/u8g2_ll_hvline.c ****   * Redistributions in binary form must reproduce the above copyright notice, this 
  19:..\u8g2\csrc/u8g2_ll_hvline.c ****     list of conditions and the following disclaimer in the documentation and/or other 
  20:..\u8g2\csrc/u8g2_ll_hvline.c ****     materials provided with the distribution.
  21:..\u8g2\csrc/u8g2_ll_hvline.c **** 
  22:..\u8g2\csrc/u8g2_ll_hvline.c ****   THIS SOFTWARE IS PROVIDED BY THE COPYRIGHT HOLDERS AND 
  23:..\u8g2\csrc/u8g2_ll_hvline.c ****   CONTRIBUTORS "AS IS" AND ANY EXPRESS OR IMPLIED WARRANTIES, 
  24:..\u8g2\csrc/u8g2_ll_hvline.c ****   INCLUDING, BUT NOT LIMITED TO, THE IMPLIED WARRANTIES OF 
  25:..\u8g2\csrc/u8g2_ll_hvline.c ****   MERCHANTABILITY AND FITNESS FOR A PARTICULAR PURPOSE ARE 
  26:..\u8g2\csrc/u8g2_ll_hvline.c ****   DISCLAIMED. IN NO EVENT SHALL THE COPYRIGHT HOLDER OR 
  27:..\u8g2\csrc/u8g2_ll_hvline.c ****   CONTRIBUTORS BE LIABLE FOR ANY DIRECT, INDIRECT, INCIDENTAL, 
  28:..\u8g2\csrc/u8g2_ll_hvline.c ****   SPECIAL, EXEMPLARY, OR CONSEQUENTIAL DAMAGES (INCLUDING, BUT 
  29:..\u8g2\csrc/u8g2_ll_hvline.c ****   NOT LIMITED TO, PROCUREMENT OF SUBSTITUTE GOODS OR SERVICES; 
  30:..\u8g2\csrc/u8g2_ll_hvline.c ****   LOSS OF USE, DATA, OR PROFITS; OR BUSINESS INTERRUPTION) HOWEVER 
ARM GAS  C:\Users\gjl\AppData\Local\Temp\cc0j7sNR.s 			page 2


  31:..\u8g2\csrc/u8g2_ll_hvline.c ****   CAUSED AND ON ANY THEORY OF LIABILITY, WHETHER IN CONTRACT, 
  32:..\u8g2\csrc/u8g2_ll_hvline.c ****   STRICT LIABILITY, OR TORT (INCLUDING NEGLIGENCE OR OTHERWISE) 
  33:..\u8g2\csrc/u8g2_ll_hvline.c ****   ARISING IN ANY WAY OUT OF THE USE OF THIS SOFTWARE, EVEN IF 
  34:..\u8g2\csrc/u8g2_ll_hvline.c ****   ADVISED OF THE POSSIBILITY OF SUCH DAMAGE.  
  35:..\u8g2\csrc/u8g2_ll_hvline.c **** 
  36:..\u8g2\csrc/u8g2_ll_hvline.c **** 
  37:..\u8g2\csrc/u8g2_ll_hvline.c ****   *ptr |= or_mask
  38:..\u8g2\csrc/u8g2_ll_hvline.c ****   *ptr ^= xor_mask
  39:..\u8g2\csrc/u8g2_ll_hvline.c ****   
  40:..\u8g2\csrc/u8g2_ll_hvline.c ****   color = 0:   or_mask = 1, xor_mask = 1
  41:..\u8g2\csrc/u8g2_ll_hvline.c ****   color = 1:   or_mask = 1, xor_mask = 0
  42:..\u8g2\csrc/u8g2_ll_hvline.c ****   color = 2:   or_mask = 0, xor_mask = 1
  43:..\u8g2\csrc/u8g2_ll_hvline.c **** 
  44:..\u8g2\csrc/u8g2_ll_hvline.c ****   if ( color <= 1 )
  45:..\u8g2\csrc/u8g2_ll_hvline.c ****     or_mask  = mask;
  46:..\u8g2\csrc/u8g2_ll_hvline.c ****   if ( color != 1 )
  47:..\u8g2\csrc/u8g2_ll_hvline.c ****     xor_mask = mask;
  48:..\u8g2\csrc/u8g2_ll_hvline.c ****     
  49:..\u8g2\csrc/u8g2_ll_hvline.c **** */
  50:..\u8g2\csrc/u8g2_ll_hvline.c **** 
  51:..\u8g2\csrc/u8g2_ll_hvline.c **** #include "u8g2.h"
  52:..\u8g2\csrc/u8g2_ll_hvline.c **** #include <assert.h>
  53:..\u8g2\csrc/u8g2_ll_hvline.c **** 
  54:..\u8g2\csrc/u8g2_ll_hvline.c **** /*=================================================*/
  55:..\u8g2\csrc/u8g2_ll_hvline.c **** /*
  56:..\u8g2\csrc/u8g2_ll_hvline.c ****   u8g2_ll_hvline_vertical_top_lsb
  57:..\u8g2\csrc/u8g2_ll_hvline.c ****     SSD13xx
  58:..\u8g2\csrc/u8g2_ll_hvline.c ****     UC1701    
  59:..\u8g2\csrc/u8g2_ll_hvline.c **** */
  60:..\u8g2\csrc/u8g2_ll_hvline.c **** 
  61:..\u8g2\csrc/u8g2_ll_hvline.c **** 
  62:..\u8g2\csrc/u8g2_ll_hvline.c **** #ifdef U8G2_HVLINE_SPEED_OPTIMIZATION
  63:..\u8g2\csrc/u8g2_ll_hvline.c **** 
  64:..\u8g2\csrc/u8g2_ll_hvline.c **** /*
  65:..\u8g2\csrc/u8g2_ll_hvline.c ****   x,y		Upper left position of the line within the local buffer (not the display!)
  66:..\u8g2\csrc/u8g2_ll_hvline.c ****   len		length of the line in pixel, len must not be 0
  67:..\u8g2\csrc/u8g2_ll_hvline.c ****   dir		0: horizontal line (left to right)
  68:..\u8g2\csrc/u8g2_ll_hvline.c **** 		1: vertical line (top to bottom)
  69:..\u8g2\csrc/u8g2_ll_hvline.c ****   asumption: 
  70:..\u8g2\csrc/u8g2_ll_hvline.c ****     all clipping done
  71:..\u8g2\csrc/u8g2_ll_hvline.c **** */
  72:..\u8g2\csrc/u8g2_ll_hvline.c **** void u8g2_ll_hvline_vertical_top_lsb(u8g2_t *u8g2, u8g2_uint_t x, u8g2_uint_t y, u8g2_uint_t len, u
  73:..\u8g2\csrc/u8g2_ll_hvline.c **** {
  28              		.loc 1 73 0
  29              		.cfi_startproc
  30              		@ args = 4, pretend = 0, frame = 0
  31              		@ frame_needed = 0, uses_anonymous_args = 0
  32              	.LVL0:
  33 0000 F0B5     		push	{r4, r5, r6, r7, lr}
  34              		.cfi_def_cfa_offset 20
  35              		.cfi_offset 4, -20
  36              		.cfi_offset 5, -16
  37              		.cfi_offset 6, -12
  38              		.cfi_offset 7, -8
  39              		.cfi_offset 14, -4
  40 0002 4746     		mov	r7, r8
  41 0004 80B4     		push	{r7}
ARM GAS  C:\Users\gjl\AppData\Local\Temp\cc0j7sNR.s 			page 3


  42              		.cfi_def_cfa_offset 24
  43              		.cfi_offset 8, -24
  44 0006 06AC     		add	r4, sp, #24
  45              	.LVL1:
  46 0008 2478     		ldrb	r4, [r4]
  47              	.LVL2:
  48 000a A446     		mov	ip, r4
  49              	.LVL3:
  74:..\u8g2\csrc/u8g2_ll_hvline.c ****   uint16_t offset;
  75:..\u8g2\csrc/u8g2_ll_hvline.c ****   uint8_t *ptr;
  76:..\u8g2\csrc/u8g2_ll_hvline.c ****   uint8_t bit_pos, mask;
  77:..\u8g2\csrc/u8g2_ll_hvline.c ****   uint8_t or_mask, xor_mask;
  78:..\u8g2\csrc/u8g2_ll_hvline.c **** 
  79:..\u8g2\csrc/u8g2_ll_hvline.c ****   //assert(x >= u8g2->buf_x0);
  80:..\u8g2\csrc/u8g2_ll_hvline.c ****   //assert(x < u8g2_GetU8x8(u8g2)->display_info->tile_width*8);
  81:..\u8g2\csrc/u8g2_ll_hvline.c ****   //assert(y >= u8g2->buf_y0);
  82:..\u8g2\csrc/u8g2_ll_hvline.c ****   //assert(y < u8g2_GetU8x8(u8g2)->display_info->tile_height*8);
  83:..\u8g2\csrc/u8g2_ll_hvline.c ****   
  84:..\u8g2\csrc/u8g2_ll_hvline.c ****   /* bytes are vertical, lsb on top (y=0), msb at bottom (y=7) */
  85:..\u8g2\csrc/u8g2_ll_hvline.c ****   bit_pos = y;		/* overflow truncate is ok here... */
  86:..\u8g2\csrc/u8g2_ll_hvline.c ****   bit_pos &= 7; 	/* ... because only the lowest 3 bits are needed */
  50              		.loc 1 86 0
  51 000c 0725     		movs	r5, #7
  52 000e 1540     		ands	r5, r2
  53              	.LVL4:
  87:..\u8g2\csrc/u8g2_ll_hvline.c ****   mask = 1;
  88:..\u8g2\csrc/u8g2_ll_hvline.c ****   mask <<= bit_pos;
  54              		.loc 1 88 0
  55 0010 0126     		movs	r6, #1
  56 0012 AE40     		lsls	r6, r6, r5
  57 0014 F6B2     		uxtb	r6, r6
  58              	.LVL5:
  89:..\u8g2\csrc/u8g2_ll_hvline.c **** 
  90:..\u8g2\csrc/u8g2_ll_hvline.c ****   or_mask = 0;
  91:..\u8g2\csrc/u8g2_ll_hvline.c ****   xor_mask = 0;
  92:..\u8g2\csrc/u8g2_ll_hvline.c ****   if ( u8g2->draw_color <= 1 )
  59              		.loc 1 92 0
  60 0016 7C24     		movs	r4, #124
  61 0018 045D     		ldrb	r4, [r0, r4]
  62 001a 012C     		cmp	r4, #1
  63 001c 01D9     		bls	.L10
  90:..\u8g2\csrc/u8g2_ll_hvline.c ****   xor_mask = 0;
  64              		.loc 1 90 0
  65 001e 0027     		movs	r7, #0
  66 0020 00E0     		b	.L2
  67              	.L10:
  93:..\u8g2\csrc/u8g2_ll_hvline.c ****     or_mask  = mask;
  68              		.loc 1 93 0
  69 0022 3700     		movs	r7, r6
  70              	.L2:
  71              	.LVL6:
  94:..\u8g2\csrc/u8g2_ll_hvline.c ****   if ( u8g2->draw_color != 1 )
  72              		.loc 1 94 0
  73 0024 012C     		cmp	r4, #1
  74 0026 00D1     		bne	.L3
  91:..\u8g2\csrc/u8g2_ll_hvline.c ****   if ( u8g2->draw_color <= 1 )
  75              		.loc 1 91 0
ARM GAS  C:\Users\gjl\AppData\Local\Temp\cc0j7sNR.s 			page 4


  76 0028 0026     		movs	r6, #0
  77              	.LVL7:
  78              	.L3:
  95:..\u8g2\csrc/u8g2_ll_hvline.c ****     xor_mask = mask;
  96:..\u8g2\csrc/u8g2_ll_hvline.c **** 
  97:..\u8g2\csrc/u8g2_ll_hvline.c **** 
  98:..\u8g2\csrc/u8g2_ll_hvline.c ****   offset = y;		/* y might be 8 or 16 bit, but we need 16 bit, so use a 16 bit variable */
  99:..\u8g2\csrc/u8g2_ll_hvline.c ****   offset &= ~7;
  79              		.loc 1 99 0
  80 002a 0724     		movs	r4, #7
  81 002c A243     		bics	r2, r4
  82              	.LVL8:
 100:..\u8g2\csrc/u8g2_ll_hvline.c ****   offset *= u8g2_GetU8x8(u8g2)->display_info->tile_width;
  83              		.loc 1 100 0
  84 002e 0468     		ldr	r4, [r0]
  85 0030 247C     		ldrb	r4, [r4, #16]
  86 0032 6243     		muls	r2, r4
  87              	.LVL9:
 101:..\u8g2\csrc/u8g2_ll_hvline.c ****   ptr = u8g2->tile_buf_ptr;
 102:..\u8g2\csrc/u8g2_ll_hvline.c ****   ptr += offset;
 103:..\u8g2\csrc/u8g2_ll_hvline.c ****   ptr += x;
  88              		.loc 1 103 0
  89 0034 5118     		adds	r1, r2, r1
  90              	.LVL10:
  91 0036 426B     		ldr	r2, [r0, #52]
  92              	.LVL11:
  93 0038 9046     		mov	r8, r2
  94 003a 4144     		add	r1, r1, r8
  95              	.LVL12:
 104:..\u8g2\csrc/u8g2_ll_hvline.c ****   
 105:..\u8g2\csrc/u8g2_ll_hvline.c ****   if ( dir == 0 )
  96              		.loc 1 105 0
  97 003c 6246     		mov	r2, ip
  98 003e 002A     		cmp	r2, #0
  99 0040 0AD1     		bne	.L4
 100              	.LVL13:
 101              	.L5:
 106:..\u8g2\csrc/u8g2_ll_hvline.c ****   {
 107:..\u8g2\csrc/u8g2_ll_hvline.c ****   /*
 108:..\u8g2\csrc/u8g2_ll_hvline.c ****     if ( u8g2->draw_color != 0 )
 109:..\u8g2\csrc/u8g2_ll_hvline.c ****     {
 110:..\u8g2\csrc/u8g2_ll_hvline.c ****     */
 111:..\u8g2\csrc/u8g2_ll_hvline.c ****       do
 112:..\u8g2\csrc/u8g2_ll_hvline.c ****       {
 113:..\u8g2\csrc/u8g2_ll_hvline.c **** 	//*ptr |= mask;
 114:..\u8g2\csrc/u8g2_ll_hvline.c **** 	*ptr |= or_mask;
 102              		.loc 1 114 0 discriminator 1
 103 0042 0878     		ldrb	r0, [r1]
 104 0044 3843     		orrs	r0, r7
 105 0046 C0B2     		uxtb	r0, r0
 115:..\u8g2\csrc/u8g2_ll_hvline.c **** 	*ptr ^= xor_mask;
 106              		.loc 1 115 0 discriminator 1
 107 0048 7040     		eors	r0, r6
 108 004a 0870     		strb	r0, [r1]
 116:..\u8g2\csrc/u8g2_ll_hvline.c **** 	ptr++;
 109              		.loc 1 116 0 discriminator 1
 110 004c 0131     		adds	r1, r1, #1
ARM GAS  C:\Users\gjl\AppData\Local\Temp\cc0j7sNR.s 			page 5


 111              	.LVL14:
 117:..\u8g2\csrc/u8g2_ll_hvline.c **** 	len--;
 112              		.loc 1 117 0 discriminator 1
 113 004e 013B     		subs	r3, r3, #1
 114              	.LVL15:
 115 0050 DBB2     		uxtb	r3, r3
 116              	.LVL16:
 118:..\u8g2\csrc/u8g2_ll_hvline.c ****       } while( len != 0 );
 117              		.loc 1 118 0 discriminator 1
 118 0052 002B     		cmp	r3, #0
 119 0054 F5D1     		bne	.L5
 120 0056 1EE0     		b	.L1
 121              	.LVL17:
 122              	.L4:
 119:..\u8g2\csrc/u8g2_ll_hvline.c ****       /*
 120:..\u8g2\csrc/u8g2_ll_hvline.c ****     }
 121:..\u8g2\csrc/u8g2_ll_hvline.c ****     else
 122:..\u8g2\csrc/u8g2_ll_hvline.c ****     {
 123:..\u8g2\csrc/u8g2_ll_hvline.c ****       mask = ~mask;
 124:..\u8g2\csrc/u8g2_ll_hvline.c ****       do
 125:..\u8g2\csrc/u8g2_ll_hvline.c ****       {
 126:..\u8g2\csrc/u8g2_ll_hvline.c **** 	*ptr &= mask;
 127:..\u8g2\csrc/u8g2_ll_hvline.c **** 	ptr++;
 128:..\u8g2\csrc/u8g2_ll_hvline.c **** 	len--;
 129:..\u8g2\csrc/u8g2_ll_hvline.c ****       } while( len != 0 );
 130:..\u8g2\csrc/u8g2_ll_hvline.c ****     }  
 131:..\u8g2\csrc/u8g2_ll_hvline.c ****     */
 132:..\u8g2\csrc/u8g2_ll_hvline.c ****   }
 133:..\u8g2\csrc/u8g2_ll_hvline.c ****   else
 134:..\u8g2\csrc/u8g2_ll_hvline.c ****   {    
 135:..\u8g2\csrc/u8g2_ll_hvline.c ****     do
 136:..\u8g2\csrc/u8g2_ll_hvline.c ****     {
 137:..\u8g2\csrc/u8g2_ll_hvline.c ****       *ptr |= or_mask;
 123              		.loc 1 137 0
 124 0058 0C78     		ldrb	r4, [r1]
 125 005a 3C43     		orrs	r4, r7
 126 005c E4B2     		uxtb	r4, r4
 138:..\u8g2\csrc/u8g2_ll_hvline.c ****       *ptr ^= xor_mask;
 127              		.loc 1 138 0
 128 005e 7440     		eors	r4, r6
 129 0060 0C70     		strb	r4, [r1]
 139:..\u8g2\csrc/u8g2_ll_hvline.c ****       /*
 140:..\u8g2\csrc/u8g2_ll_hvline.c ****       if ( u8g2->draw_color != 0 )
 141:..\u8g2\csrc/u8g2_ll_hvline.c ****       {
 142:..\u8g2\csrc/u8g2_ll_hvline.c **** 	*ptr |= mask;
 143:..\u8g2\csrc/u8g2_ll_hvline.c ****       }
 144:..\u8g2\csrc/u8g2_ll_hvline.c ****       else
 145:..\u8g2\csrc/u8g2_ll_hvline.c ****       {
 146:..\u8g2\csrc/u8g2_ll_hvline.c **** 	*ptr &= ~mask;
 147:..\u8g2\csrc/u8g2_ll_hvline.c ****       }
 148:..\u8g2\csrc/u8g2_ll_hvline.c ****       */
 149:..\u8g2\csrc/u8g2_ll_hvline.c ****       
 150:..\u8g2\csrc/u8g2_ll_hvline.c ****       bit_pos++;
 130              		.loc 1 150 0
 131 0062 0135     		adds	r5, r5, #1
 132              	.LVL18:
 151:..\u8g2\csrc/u8g2_ll_hvline.c ****       bit_pos &= 7;
ARM GAS  C:\Users\gjl\AppData\Local\Temp\cc0j7sNR.s 			page 6


 133              		.loc 1 151 0
 134 0064 0722     		movs	r2, #7
 135 0066 1540     		ands	r5, r2
 136              	.LVL19:
 152:..\u8g2\csrc/u8g2_ll_hvline.c **** 
 153:..\u8g2\csrc/u8g2_ll_hvline.c ****       len--;
 137              		.loc 1 153 0
 138 0068 013B     		subs	r3, r3, #1
 139              	.LVL20:
 140 006a DBB2     		uxtb	r3, r3
 141              	.LVL21:
 154:..\u8g2\csrc/u8g2_ll_hvline.c **** 
 155:..\u8g2\csrc/u8g2_ll_hvline.c ****       if ( bit_pos == 0 )
 142              		.loc 1 155 0
 143 006c 002D     		cmp	r5, #0
 144 006e 0AD1     		bne	.L7
 156:..\u8g2\csrc/u8g2_ll_hvline.c ****       {
 157:..\u8g2\csrc/u8g2_ll_hvline.c **** 	ptr+=u8g2->pixel_buf_width;	/* 6 Jan 17: Changed u8g2->width to u8g2->pixel_buf_width, issue #148 
 145              		.loc 1 157 0
 146 0070 3332     		adds	r2, r2, #51
 147 0072 825C     		ldrb	r2, [r0, r2]
 148 0074 8918     		adds	r1, r1, r2
 149              	.LVL22:
 158:..\u8g2\csrc/u8g2_ll_hvline.c **** 	
 159:..\u8g2\csrc/u8g2_ll_hvline.c **** 	/* another speed optimization, but requires about 60 bytes on AVR */
 160:..\u8g2\csrc/u8g2_ll_hvline.c **** 	/*
 161:..\u8g2\csrc/u8g2_ll_hvline.c **** 	while( len >= 8 )
 162:..\u8g2\csrc/u8g2_ll_hvline.c **** 	{
 163:..\u8g2\csrc/u8g2_ll_hvline.c **** 	  if ( u8g2->draw_color != 0 )
 164:..\u8g2\csrc/u8g2_ll_hvline.c **** 	  {
 165:..\u8g2\csrc/u8g2_ll_hvline.c **** 	    *ptr = 255;
 166:..\u8g2\csrc/u8g2_ll_hvline.c **** 	  }
 167:..\u8g2\csrc/u8g2_ll_hvline.c **** 	  else
 168:..\u8g2\csrc/u8g2_ll_hvline.c **** 	  {
 169:..\u8g2\csrc/u8g2_ll_hvline.c **** 	    *ptr = 0;
 170:..\u8g2\csrc/u8g2_ll_hvline.c **** 	  }
 171:..\u8g2\csrc/u8g2_ll_hvline.c **** 	  len -= 8;
 172:..\u8g2\csrc/u8g2_ll_hvline.c **** 	  ptr+=u8g2->width;
 173:..\u8g2\csrc/u8g2_ll_hvline.c **** 	}
 174:..\u8g2\csrc/u8g2_ll_hvline.c **** 	*/
 175:..\u8g2\csrc/u8g2_ll_hvline.c **** 	
 176:..\u8g2\csrc/u8g2_ll_hvline.c **** 	//mask = 1;
 177:..\u8g2\csrc/u8g2_ll_hvline.c **** 	
 178:..\u8g2\csrc/u8g2_ll_hvline.c **** 	if ( u8g2->draw_color <= 1 )
 150              		.loc 1 178 0
 151 0076 7C22     		movs	r2, #124
 152 0078 825C     		ldrb	r2, [r0, r2]
 153 007a 012A     		cmp	r2, #1
 154 007c 00D8     		bhi	.L8
 179:..\u8g2\csrc/u8g2_ll_hvline.c **** 	  or_mask  = 1;
 155              		.loc 1 179 0
 156 007e 0127     		movs	r7, #1
 157              	.LVL23:
 158              	.L8:
 180:..\u8g2\csrc/u8g2_ll_hvline.c **** 	if ( u8g2->draw_color != 1 )
 159              		.loc 1 180 0
 160 0080 012A     		cmp	r2, #1
ARM GAS  C:\Users\gjl\AppData\Local\Temp\cc0j7sNR.s 			page 7


 161 0082 05D1     		bne	.L12
 162 0084 05E0     		b	.L9
 163              	.L7:
 181:..\u8g2\csrc/u8g2_ll_hvline.c **** 	  xor_mask = 1;
 182:..\u8g2\csrc/u8g2_ll_hvline.c ****       }
 183:..\u8g2\csrc/u8g2_ll_hvline.c ****       else
 184:..\u8g2\csrc/u8g2_ll_hvline.c ****       {
 185:..\u8g2\csrc/u8g2_ll_hvline.c **** 	//mask <<= 1;
 186:..\u8g2\csrc/u8g2_ll_hvline.c **** 	or_mask <<= 1;
 164              		.loc 1 186 0
 165 0086 7F00     		lsls	r7, r7, #1
 166              	.LVL24:
 167 0088 FFB2     		uxtb	r7, r7
 168              	.LVL25:
 187:..\u8g2\csrc/u8g2_ll_hvline.c **** 	xor_mask <<= 1;
 169              		.loc 1 187 0
 170 008a 7600     		lsls	r6, r6, #1
 171              	.LVL26:
 172 008c F6B2     		uxtb	r6, r6
 173              	.LVL27:
 174 008e 00E0     		b	.L9
 175              	.L12:
 181:..\u8g2\csrc/u8g2_ll_hvline.c **** 	  xor_mask = 1;
 176              		.loc 1 181 0
 177 0090 0126     		movs	r6, #1
 178              	.LVL28:
 179              	.L9:
 188:..\u8g2\csrc/u8g2_ll_hvline.c ****       }
 189:..\u8g2\csrc/u8g2_ll_hvline.c ****     } while( len != 0 );
 180              		.loc 1 189 0
 181 0092 002B     		cmp	r3, #0
 182 0094 E0D1     		bne	.L4
 183              	.LVL29:
 184              	.L1:
 190:..\u8g2\csrc/u8g2_ll_hvline.c ****   }
 191:..\u8g2\csrc/u8g2_ll_hvline.c **** }
 185              		.loc 1 191 0
 186              		@ sp needed
 187              	.LVL30:
 188              	.LVL31:
 189              	.LVL32:
 190 0096 04BC     		pop	{r2}
 191 0098 9046     		mov	r8, r2
 192 009a F0BD     		pop	{r4, r5, r6, r7, pc}
 193              		.cfi_endproc
 194              	.LFE0:
 195              		.size	u8g2_ll_hvline_vertical_top_lsb, .-u8g2_ll_hvline_vertical_top_lsb
 196              		.section	.text.u8g2_ll_hvline_horizontal_right_lsb,"ax",%progbits
 197              		.align	2
 198              		.global	u8g2_ll_hvline_horizontal_right_lsb
 199              		.code	16
 200              		.thumb_func
 201              		.type	u8g2_ll_hvline_horizontal_right_lsb, %function
 202              	u8g2_ll_hvline_horizontal_right_lsb:
 203              	.LFB1:
 192:..\u8g2\csrc/u8g2_ll_hvline.c **** 
 193:..\u8g2\csrc/u8g2_ll_hvline.c **** 
ARM GAS  C:\Users\gjl\AppData\Local\Temp\cc0j7sNR.s 			page 8


 194:..\u8g2\csrc/u8g2_ll_hvline.c **** 
 195:..\u8g2\csrc/u8g2_ll_hvline.c **** #else /* U8G2_HVLINE_SPEED_OPTIMIZATION */
 196:..\u8g2\csrc/u8g2_ll_hvline.c **** 
 197:..\u8g2\csrc/u8g2_ll_hvline.c **** /*
 198:..\u8g2\csrc/u8g2_ll_hvline.c ****   x,y position within the buffer
 199:..\u8g2\csrc/u8g2_ll_hvline.c **** */
 200:..\u8g2\csrc/u8g2_ll_hvline.c **** static void u8g2_draw_pixel_vertical_top_lsb(u8g2_t *u8g2, u8g2_uint_t x, u8g2_uint_t y)
 201:..\u8g2\csrc/u8g2_ll_hvline.c **** {
 202:..\u8g2\csrc/u8g2_ll_hvline.c ****   uint16_t offset;
 203:..\u8g2\csrc/u8g2_ll_hvline.c ****   uint8_t *ptr;
 204:..\u8g2\csrc/u8g2_ll_hvline.c ****   uint8_t bit_pos, mask;
 205:..\u8g2\csrc/u8g2_ll_hvline.c ****   
 206:..\u8g2\csrc/u8g2_ll_hvline.c ****   //assert(x >= u8g2->buf_x0);
 207:..\u8g2\csrc/u8g2_ll_hvline.c ****   //assert(x < u8g2_GetU8x8(u8g2)->display_info->tile_width*8);
 208:..\u8g2\csrc/u8g2_ll_hvline.c ****   //assert(y >= u8g2->buf_y0);
 209:..\u8g2\csrc/u8g2_ll_hvline.c ****   //assert(y < u8g2_GetU8x8(u8g2)->display_info->tile_height*8);
 210:..\u8g2\csrc/u8g2_ll_hvline.c ****   
 211:..\u8g2\csrc/u8g2_ll_hvline.c ****   /* bytes are vertical, lsb on top (y=0), msb at bottom (y=7) */
 212:..\u8g2\csrc/u8g2_ll_hvline.c ****   bit_pos = y;		/* overflow truncate is ok here... */
 213:..\u8g2\csrc/u8g2_ll_hvline.c ****   bit_pos &= 7; 	/* ... because only the lowest 3 bits are needed */
 214:..\u8g2\csrc/u8g2_ll_hvline.c ****   mask = 1;
 215:..\u8g2\csrc/u8g2_ll_hvline.c ****   mask <<= bit_pos;
 216:..\u8g2\csrc/u8g2_ll_hvline.c **** 
 217:..\u8g2\csrc/u8g2_ll_hvline.c ****   offset = y;		/* y might be 8 or 16 bit, but we need 16 bit, so use a 16 bit variable */
 218:..\u8g2\csrc/u8g2_ll_hvline.c ****   offset &= ~7;
 219:..\u8g2\csrc/u8g2_ll_hvline.c ****   offset *= u8g2_GetU8x8(u8g2)->display_info->tile_width;
 220:..\u8g2\csrc/u8g2_ll_hvline.c ****   ptr = u8g2->tile_buf_ptr;
 221:..\u8g2\csrc/u8g2_ll_hvline.c ****   ptr += offset;
 222:..\u8g2\csrc/u8g2_ll_hvline.c ****   ptr += x;
 223:..\u8g2\csrc/u8g2_ll_hvline.c **** 
 224:..\u8g2\csrc/u8g2_ll_hvline.c **** 
 225:..\u8g2\csrc/u8g2_ll_hvline.c ****   if ( u8g2->draw_color <= 1 )
 226:..\u8g2\csrc/u8g2_ll_hvline.c ****     *ptr |= mask;
 227:..\u8g2\csrc/u8g2_ll_hvline.c ****   if ( u8g2->draw_color != 1 )
 228:..\u8g2\csrc/u8g2_ll_hvline.c ****     *ptr ^= mask;
 229:..\u8g2\csrc/u8g2_ll_hvline.c **** 
 230:..\u8g2\csrc/u8g2_ll_hvline.c **** /*  
 231:..\u8g2\csrc/u8g2_ll_hvline.c ****   if ( u8g2->draw_color != 0 )
 232:..\u8g2\csrc/u8g2_ll_hvline.c ****   {
 233:..\u8g2\csrc/u8g2_ll_hvline.c ****     *ptr |= mask;
 234:..\u8g2\csrc/u8g2_ll_hvline.c ****   }
 235:..\u8g2\csrc/u8g2_ll_hvline.c ****   else
 236:..\u8g2\csrc/u8g2_ll_hvline.c ****   {
 237:..\u8g2\csrc/u8g2_ll_hvline.c ****     mask ^= 255;
 238:..\u8g2\csrc/u8g2_ll_hvline.c ****     *ptr &= mask;
 239:..\u8g2\csrc/u8g2_ll_hvline.c ****   }
 240:..\u8g2\csrc/u8g2_ll_hvline.c **** */  
 241:..\u8g2\csrc/u8g2_ll_hvline.c **** }
 242:..\u8g2\csrc/u8g2_ll_hvline.c **** 
 243:..\u8g2\csrc/u8g2_ll_hvline.c **** /*
 244:..\u8g2\csrc/u8g2_ll_hvline.c ****   x,y		Upper left position of the line within the local buffer (not the display!)
 245:..\u8g2\csrc/u8g2_ll_hvline.c ****   len		length of the line in pixel, len must not be 0
 246:..\u8g2\csrc/u8g2_ll_hvline.c ****   dir		0: horizontal line (left to right)
 247:..\u8g2\csrc/u8g2_ll_hvline.c **** 		1: vertical line (top to bottom)
 248:..\u8g2\csrc/u8g2_ll_hvline.c ****   asumption: 
 249:..\u8g2\csrc/u8g2_ll_hvline.c ****     all clipping done
 250:..\u8g2\csrc/u8g2_ll_hvline.c **** */
ARM GAS  C:\Users\gjl\AppData\Local\Temp\cc0j7sNR.s 			page 9


 251:..\u8g2\csrc/u8g2_ll_hvline.c **** void u8g2_ll_hvline_vertical_top_lsb(u8g2_t *u8g2, u8g2_uint_t x, u8g2_uint_t y, u8g2_uint_t len, u
 252:..\u8g2\csrc/u8g2_ll_hvline.c **** {
 253:..\u8g2\csrc/u8g2_ll_hvline.c ****   if ( dir == 0 )
 254:..\u8g2\csrc/u8g2_ll_hvline.c ****   {
 255:..\u8g2\csrc/u8g2_ll_hvline.c ****     do
 256:..\u8g2\csrc/u8g2_ll_hvline.c ****     {
 257:..\u8g2\csrc/u8g2_ll_hvline.c ****       u8g2_draw_pixel_vertical_top_lsb(u8g2, x, y);
 258:..\u8g2\csrc/u8g2_ll_hvline.c ****       x++;
 259:..\u8g2\csrc/u8g2_ll_hvline.c ****       len--;
 260:..\u8g2\csrc/u8g2_ll_hvline.c ****     } while( len != 0 );
 261:..\u8g2\csrc/u8g2_ll_hvline.c ****   }
 262:..\u8g2\csrc/u8g2_ll_hvline.c ****   else
 263:..\u8g2\csrc/u8g2_ll_hvline.c ****   {
 264:..\u8g2\csrc/u8g2_ll_hvline.c ****     do
 265:..\u8g2\csrc/u8g2_ll_hvline.c ****     {
 266:..\u8g2\csrc/u8g2_ll_hvline.c ****       u8g2_draw_pixel_vertical_top_lsb(u8g2, x, y);
 267:..\u8g2\csrc/u8g2_ll_hvline.c ****       y++;
 268:..\u8g2\csrc/u8g2_ll_hvline.c ****       len--;
 269:..\u8g2\csrc/u8g2_ll_hvline.c ****     } while( len != 0 );
 270:..\u8g2\csrc/u8g2_ll_hvline.c ****   }
 271:..\u8g2\csrc/u8g2_ll_hvline.c **** }
 272:..\u8g2\csrc/u8g2_ll_hvline.c **** 
 273:..\u8g2\csrc/u8g2_ll_hvline.c **** 
 274:..\u8g2\csrc/u8g2_ll_hvline.c **** #endif /* U8G2_HVLINE_SPEED_OPTIMIZATION */
 275:..\u8g2\csrc/u8g2_ll_hvline.c **** 
 276:..\u8g2\csrc/u8g2_ll_hvline.c **** /*=================================================*/
 277:..\u8g2\csrc/u8g2_ll_hvline.c **** /*
 278:..\u8g2\csrc/u8g2_ll_hvline.c ****   u8g2_ll_hvline_horizontal_right_lsb
 279:..\u8g2\csrc/u8g2_ll_hvline.c ****     ST7920
 280:..\u8g2\csrc/u8g2_ll_hvline.c **** */
 281:..\u8g2\csrc/u8g2_ll_hvline.c **** 
 282:..\u8g2\csrc/u8g2_ll_hvline.c **** #ifdef U8G2_HVLINE_SPEED_OPTIMIZATION
 283:..\u8g2\csrc/u8g2_ll_hvline.c **** 
 284:..\u8g2\csrc/u8g2_ll_hvline.c **** /*
 285:..\u8g2\csrc/u8g2_ll_hvline.c ****   x,y		Upper left position of the line within the local buffer (not the display!)
 286:..\u8g2\csrc/u8g2_ll_hvline.c ****   len		length of the line in pixel, len must not be 0
 287:..\u8g2\csrc/u8g2_ll_hvline.c ****   dir		0: horizontal line (left to right)
 288:..\u8g2\csrc/u8g2_ll_hvline.c **** 		1: vertical line (top to bottom)
 289:..\u8g2\csrc/u8g2_ll_hvline.c ****   asumption: 
 290:..\u8g2\csrc/u8g2_ll_hvline.c ****     all clipping done
 291:..\u8g2\csrc/u8g2_ll_hvline.c **** */
 292:..\u8g2\csrc/u8g2_ll_hvline.c **** 
 293:..\u8g2\csrc/u8g2_ll_hvline.c **** void u8g2_ll_hvline_horizontal_right_lsb(u8g2_t *u8g2, u8g2_uint_t x, u8g2_uint_t y, u8g2_uint_t le
 294:..\u8g2\csrc/u8g2_ll_hvline.c **** {
 204              		.loc 1 294 0
 205              		.cfi_startproc
 206              		@ args = 4, pretend = 0, frame = 0
 207              		@ frame_needed = 0, uses_anonymous_args = 0
 208              	.LVL33:
 209 0000 F0B5     		push	{r4, r5, r6, r7, lr}
 210              		.cfi_def_cfa_offset 20
 211              		.cfi_offset 4, -20
 212              		.cfi_offset 5, -16
 213              		.cfi_offset 6, -12
 214              		.cfi_offset 7, -8
 215              		.cfi_offset 14, -4
 216 0002 05AC     		add	r4, sp, #20
ARM GAS  C:\Users\gjl\AppData\Local\Temp\cc0j7sNR.s 			page 10


 217              	.LVL34:
 218 0004 2478     		ldrb	r4, [r4]
 219              	.LVL35:
 295:..\u8g2\csrc/u8g2_ll_hvline.c ****   uint16_t offset;
 296:..\u8g2\csrc/u8g2_ll_hvline.c ****   uint8_t *ptr;
 297:..\u8g2\csrc/u8g2_ll_hvline.c ****   uint8_t bit_pos;
 298:..\u8g2\csrc/u8g2_ll_hvline.c ****   uint8_t mask;
 299:..\u8g2\csrc/u8g2_ll_hvline.c ****   uint8_t tile_width = u8g2_GetU8x8(u8g2)->display_info->tile_width;
 220              		.loc 1 299 0
 221 0006 0568     		ldr	r5, [r0]
 222 0008 2E7C     		ldrb	r6, [r5, #16]
 223              	.LVL36:
 300:..\u8g2\csrc/u8g2_ll_hvline.c **** 
 301:..\u8g2\csrc/u8g2_ll_hvline.c ****   bit_pos = x;		/* overflow truncate is ok here... */
 302:..\u8g2\csrc/u8g2_ll_hvline.c ****   bit_pos &= 7; 	/* ... because only the lowest 3 bits are needed */
 224              		.loc 1 302 0
 225 000a 0727     		movs	r7, #7
 226 000c 0F40     		ands	r7, r1
 227              	.LVL37:
 303:..\u8g2\csrc/u8g2_ll_hvline.c ****   mask = 128;
 304:..\u8g2\csrc/u8g2_ll_hvline.c ****   mask >>= bit_pos;
 228              		.loc 1 304 0
 229 000e 8025     		movs	r5, #128
 230 0010 3D41     		asrs	r5, r5, r7
 231 0012 EDB2     		uxtb	r5, r5
 232              	.LVL38:
 305:..\u8g2\csrc/u8g2_ll_hvline.c **** 
 306:..\u8g2\csrc/u8g2_ll_hvline.c ****   offset = y;		/* y might be 8 or 16 bit, but we need 16 bit, so use a 16 bit variable */
 307:..\u8g2\csrc/u8g2_ll_hvline.c ****   offset *= tile_width;
 233              		.loc 1 307 0
 234 0014 7243     		muls	r2, r6
 235              	.LVL39:
 308:..\u8g2\csrc/u8g2_ll_hvline.c ****   offset += x>>3;
 236              		.loc 1 308 0
 237 0016 C908     		lsrs	r1, r1, #3
 238              	.LVL40:
 239 0018 5218     		adds	r2, r2, r1
 240              	.LVL41:
 241 001a 92B2     		uxth	r2, r2
 242              	.LVL42:
 309:..\u8g2\csrc/u8g2_ll_hvline.c ****   ptr = u8g2->tile_buf_ptr;
 310:..\u8g2\csrc/u8g2_ll_hvline.c ****   ptr += offset;
 243              		.loc 1 310 0
 244 001c 416B     		ldr	r1, [r0, #52]
 245 001e 8C46     		mov	ip, r1
 246 0020 6244     		add	r2, r2, ip
 247              	.LVL43:
 311:..\u8g2\csrc/u8g2_ll_hvline.c ****   
 312:..\u8g2\csrc/u8g2_ll_hvline.c ****   if ( dir == 0 )
 248              		.loc 1 312 0
 249 0022 002C     		cmp	r4, #0
 250 0024 16D1     		bne	.L14
 251              	.L18:
 313:..\u8g2\csrc/u8g2_ll_hvline.c ****   {
 314:..\u8g2\csrc/u8g2_ll_hvline.c ****       
 315:..\u8g2\csrc/u8g2_ll_hvline.c ****     do
 316:..\u8g2\csrc/u8g2_ll_hvline.c ****     {
ARM GAS  C:\Users\gjl\AppData\Local\Temp\cc0j7sNR.s 			page 11


 317:..\u8g2\csrc/u8g2_ll_hvline.c **** 
 318:..\u8g2\csrc/u8g2_ll_hvline.c ****       if ( u8g2->draw_color <= 1 )
 252              		.loc 1 318 0
 253 0026 7C21     		movs	r1, #124
 254 0028 415C     		ldrb	r1, [r0, r1]
 255 002a 0129     		cmp	r1, #1
 256 002c 02D8     		bhi	.L15
 319:..\u8g2\csrc/u8g2_ll_hvline.c **** 	*ptr |= mask;
 257              		.loc 1 319 0
 258 002e 1178     		ldrb	r1, [r2]
 259 0030 2943     		orrs	r1, r5
 260 0032 1170     		strb	r1, [r2]
 261              	.L15:
 320:..\u8g2\csrc/u8g2_ll_hvline.c ****       if ( u8g2->draw_color != 1 )
 262              		.loc 1 320 0
 263 0034 7C21     		movs	r1, #124
 264 0036 415C     		ldrb	r1, [r0, r1]
 265 0038 0129     		cmp	r1, #1
 266 003a 02D0     		beq	.L16
 321:..\u8g2\csrc/u8g2_ll_hvline.c **** 	*ptr ^= mask;
 267              		.loc 1 321 0
 268 003c 1478     		ldrb	r4, [r2]
 269 003e 6C40     		eors	r4, r5
 270 0040 1470     		strb	r4, [r2]
 271              	.L16:
 322:..\u8g2\csrc/u8g2_ll_hvline.c ****       
 323:..\u8g2\csrc/u8g2_ll_hvline.c ****       mask >>= 1;
 272              		.loc 1 323 0
 273 0042 6D08     		lsrs	r5, r5, #1
 274              	.LVL44:
 324:..\u8g2\csrc/u8g2_ll_hvline.c ****       if ( mask == 0 )
 275              		.loc 1 324 0
 276 0044 01D1     		bne	.L17
 277              	.LVL45:
 325:..\u8g2\csrc/u8g2_ll_hvline.c ****       {
 326:..\u8g2\csrc/u8g2_ll_hvline.c **** 	mask = 128;
 327:..\u8g2\csrc/u8g2_ll_hvline.c ****         ptr++;
 278              		.loc 1 327 0
 279 0046 0132     		adds	r2, r2, #1
 280              	.LVL46:
 326:..\u8g2\csrc/u8g2_ll_hvline.c ****         ptr++;
 281              		.loc 1 326 0
 282 0048 8035     		adds	r5, r5, #128
 283              	.LVL47:
 284              	.L17:
 328:..\u8g2\csrc/u8g2_ll_hvline.c ****       }
 329:..\u8g2\csrc/u8g2_ll_hvline.c ****       
 330:..\u8g2\csrc/u8g2_ll_hvline.c ****       //x++;
 331:..\u8g2\csrc/u8g2_ll_hvline.c ****       len--;
 285              		.loc 1 331 0
 286 004a 013B     		subs	r3, r3, #1
 287              	.LVL48:
 288 004c DBB2     		uxtb	r3, r3
 289              	.LVL49:
 332:..\u8g2\csrc/u8g2_ll_hvline.c ****     } while( len != 0 );
 290              		.loc 1 332 0
 291 004e 002B     		cmp	r3, #0
ARM GAS  C:\Users\gjl\AppData\Local\Temp\cc0j7sNR.s 			page 12


 292 0050 E9D1     		bne	.L18
 293 0052 12E0     		b	.L13
 294              	.L14:
 333:..\u8g2\csrc/u8g2_ll_hvline.c ****   }
 334:..\u8g2\csrc/u8g2_ll_hvline.c ****   else
 335:..\u8g2\csrc/u8g2_ll_hvline.c ****   {
 336:..\u8g2\csrc/u8g2_ll_hvline.c ****     do
 337:..\u8g2\csrc/u8g2_ll_hvline.c ****     {
 338:..\u8g2\csrc/u8g2_ll_hvline.c ****       if ( u8g2->draw_color <= 1 )
 295              		.loc 1 338 0
 296 0054 7C21     		movs	r1, #124
 297 0056 415C     		ldrb	r1, [r0, r1]
 298 0058 0129     		cmp	r1, #1
 299 005a 02D8     		bhi	.L20
 339:..\u8g2\csrc/u8g2_ll_hvline.c **** 	*ptr |= mask;
 300              		.loc 1 339 0
 301 005c 1178     		ldrb	r1, [r2]
 302 005e 2943     		orrs	r1, r5
 303 0060 1170     		strb	r1, [r2]
 304              	.L20:
 340:..\u8g2\csrc/u8g2_ll_hvline.c ****       if ( u8g2->draw_color != 1 )
 305              		.loc 1 340 0
 306 0062 7C21     		movs	r1, #124
 307 0064 415C     		ldrb	r1, [r0, r1]
 308 0066 0129     		cmp	r1, #1
 309 0068 02D0     		beq	.L21
 341:..\u8g2\csrc/u8g2_ll_hvline.c **** 	*ptr ^= mask;
 310              		.loc 1 341 0
 311 006a 1478     		ldrb	r4, [r2]
 312 006c 6C40     		eors	r4, r5
 313 006e 1470     		strb	r4, [r2]
 314              	.L21:
 342:..\u8g2\csrc/u8g2_ll_hvline.c ****       
 343:..\u8g2\csrc/u8g2_ll_hvline.c ****       ptr += tile_width;
 315              		.loc 1 343 0
 316 0070 9219     		adds	r2, r2, r6
 317              	.LVL50:
 344:..\u8g2\csrc/u8g2_ll_hvline.c ****       //y++;
 345:..\u8g2\csrc/u8g2_ll_hvline.c ****       len--;
 318              		.loc 1 345 0
 319 0072 013B     		subs	r3, r3, #1
 320              	.LVL51:
 321 0074 DBB2     		uxtb	r3, r3
 322              	.LVL52:
 346:..\u8g2\csrc/u8g2_ll_hvline.c ****     } while( len != 0 );
 323              		.loc 1 346 0
 324 0076 002B     		cmp	r3, #0
 325 0078 ECD1     		bne	.L14
 326              	.L13:
 347:..\u8g2\csrc/u8g2_ll_hvline.c ****   }
 348:..\u8g2\csrc/u8g2_ll_hvline.c **** }
 327              		.loc 1 348 0
 328              		@ sp needed
 329              	.LVL53:
 330              	.LVL54:
 331              	.LVL55:
 332 007a F0BD     		pop	{r4, r5, r6, r7, pc}
ARM GAS  C:\Users\gjl\AppData\Local\Temp\cc0j7sNR.s 			page 13


 333              		.cfi_endproc
 334              	.LFE1:
 335              		.size	u8g2_ll_hvline_horizontal_right_lsb, .-u8g2_ll_hvline_horizontal_right_lsb
 336              		.text
 337              	.Letext0:
 338              		.file 2 "c:\\program files (x86)\\cypress\\psoc creator\\4.1\\psoc creator\\import\\gnu\\arm\\5.4.
 339              		.file 3 "c:\\program files (x86)\\cypress\\psoc creator\\4.1\\psoc creator\\import\\gnu\\arm\\5.4.
 340              		.file 4 "..\\u8g2\\csrc\\u8x8.h"
 341              		.file 5 "..\\u8g2\\csrc\\u8g2.h"