ARM GAS  C:\Users\Alan\AppData\Local\Temp\ccyDTqa9.s 			page 1


   1              		.syntax unified
   2              		.cpu cortex-m0
   3              		.fpu softvfp
   4              		.eabi_attribute 20, 1
   5              		.eabi_attribute 21, 1
   6              		.eabi_attribute 23, 3
   7              		.eabi_attribute 24, 1
   8              		.eabi_attribute 25, 1
   9              		.eabi_attribute 26, 1
  10              		.eabi_attribute 30, 1
  11              		.eabi_attribute 34, 0
  12              		.eabi_attribute 18, 4
  13              		.thumb
  14              		.syntax unified
  15              		.file	"u8g2_setup.c"
  16              		.text
  17              	.Ltext0:
  18              		.cfi_sections	.debug_frame
  19              		.section	.text.u8g2_update_dimension_common,"ax",%progbits
  20              		.align	2
  21              		.code	16
  22              		.thumb_func
  23              		.type	u8g2_update_dimension_common, %function
  24              	u8g2_update_dimension_common:
  25              	.LFB2:
  26              		.file 1 "..\\..\\u8g2\\csrc\\u8g2_setup.c"
   1:..\..\u8g2\csrc/u8g2_setup.c **** /*
   2:..\..\u8g2\csrc/u8g2_setup.c **** 
   3:..\..\u8g2\csrc/u8g2_setup.c ****   u8g2_setup.c
   4:..\..\u8g2\csrc/u8g2_setup.c **** 
   5:..\..\u8g2\csrc/u8g2_setup.c ****   Universal 8bit Graphics Library (https://github.com/olikraus/u8g2/)
   6:..\..\u8g2\csrc/u8g2_setup.c **** 
   7:..\..\u8g2\csrc/u8g2_setup.c ****   Copyright (c) 2016, olikraus@gmail.com
   8:..\..\u8g2\csrc/u8g2_setup.c ****   All rights reserved.
   9:..\..\u8g2\csrc/u8g2_setup.c **** 
  10:..\..\u8g2\csrc/u8g2_setup.c ****   Redistribution and use in source and binary forms, with or without modification, 
  11:..\..\u8g2\csrc/u8g2_setup.c ****   are permitted provided that the following conditions are met:
  12:..\..\u8g2\csrc/u8g2_setup.c **** 
  13:..\..\u8g2\csrc/u8g2_setup.c ****   * Redistributions of source code must retain the above copyright notice, this list 
  14:..\..\u8g2\csrc/u8g2_setup.c ****     of conditions and the following disclaimer.
  15:..\..\u8g2\csrc/u8g2_setup.c ****     
  16:..\..\u8g2\csrc/u8g2_setup.c ****   * Redistributions in binary form must reproduce the above copyright notice, this 
  17:..\..\u8g2\csrc/u8g2_setup.c ****     list of conditions and the following disclaimer in the documentation and/or other 
  18:..\..\u8g2\csrc/u8g2_setup.c ****     materials provided with the distribution.
  19:..\..\u8g2\csrc/u8g2_setup.c **** 
  20:..\..\u8g2\csrc/u8g2_setup.c ****   THIS SOFTWARE IS PROVIDED BY THE COPYRIGHT HOLDERS AND 
  21:..\..\u8g2\csrc/u8g2_setup.c ****   CONTRIBUTORS "AS IS" AND ANY EXPRESS OR IMPLIED WARRANTIES, 
  22:..\..\u8g2\csrc/u8g2_setup.c ****   INCLUDING, BUT NOT LIMITED TO, THE IMPLIED WARRANTIES OF 
  23:..\..\u8g2\csrc/u8g2_setup.c ****   MERCHANTABILITY AND FITNESS FOR A PARTICULAR PURPOSE ARE 
  24:..\..\u8g2\csrc/u8g2_setup.c ****   DISCLAIMED. IN NO EVENT SHALL THE COPYRIGHT HOLDER OR 
  25:..\..\u8g2\csrc/u8g2_setup.c ****   CONTRIBUTORS BE LIABLE FOR ANY DIRECT, INDIRECT, INCIDENTAL, 
  26:..\..\u8g2\csrc/u8g2_setup.c ****   SPECIAL, EXEMPLARY, OR CONSEQUENTIAL DAMAGES (INCLUDING, BUT 
  27:..\..\u8g2\csrc/u8g2_setup.c ****   NOT LIMITED TO, PROCUREMENT OF SUBSTITUTE GOODS OR SERVICES; 
  28:..\..\u8g2\csrc/u8g2_setup.c ****   LOSS OF USE, DATA, OR PROFITS; OR BUSINESS INTERRUPTION) HOWEVER 
  29:..\..\u8g2\csrc/u8g2_setup.c ****   CAUSED AND ON ANY THEORY OF LIABILITY, WHETHER IN CONTRACT, 
  30:..\..\u8g2\csrc/u8g2_setup.c ****   STRICT LIABILITY, OR TORT (INCLUDING NEGLIGENCE OR OTHERWISE) 
  31:..\..\u8g2\csrc/u8g2_setup.c ****   ARISING IN ANY WAY OUT OF THE USE OF THIS SOFTWARE, EVEN IF 
ARM GAS  C:\Users\Alan\AppData\Local\Temp\ccyDTqa9.s 			page 2


  32:..\..\u8g2\csrc/u8g2_setup.c ****   ADVISED OF THE POSSIBILITY OF SUCH DAMAGE.  
  33:..\..\u8g2\csrc/u8g2_setup.c **** 
  34:..\..\u8g2\csrc/u8g2_setup.c **** */
  35:..\..\u8g2\csrc/u8g2_setup.c **** 
  36:..\..\u8g2\csrc/u8g2_setup.c **** #include "u8g2.h"
  37:..\..\u8g2\csrc/u8g2_setup.c **** #include <string.h>
  38:..\..\u8g2\csrc/u8g2_setup.c **** 
  39:..\..\u8g2\csrc/u8g2_setup.c **** /*============================================*/
  40:..\..\u8g2\csrc/u8g2_setup.c **** /*
  41:..\..\u8g2\csrc/u8g2_setup.c ****   This procedure is called after setting up the display (u8x8 structure).
  42:..\..\u8g2\csrc/u8g2_setup.c ****   --> This is the central init procedure for u8g2 object
  43:..\..\u8g2\csrc/u8g2_setup.c **** */
  44:..\..\u8g2\csrc/u8g2_setup.c **** void u8g2_SetupBuffer(u8g2_t *u8g2, uint8_t *buf, uint8_t tile_buf_height, u8g2_draw_ll_hvline_cb l
  45:..\..\u8g2\csrc/u8g2_setup.c **** {
  46:..\..\u8g2\csrc/u8g2_setup.c ****   u8g2->font = NULL;
  47:..\..\u8g2\csrc/u8g2_setup.c ****   //u8g2->kerning = NULL;
  48:..\..\u8g2\csrc/u8g2_setup.c ****   //u8g2->get_kerning_cb = u8g2_GetNullKerning;
  49:..\..\u8g2\csrc/u8g2_setup.c ****   
  50:..\..\u8g2\csrc/u8g2_setup.c ****   //u8g2->ll_hvline = u8g2_ll_hvline_vertical_top_lsb;
  51:..\..\u8g2\csrc/u8g2_setup.c ****   u8g2->ll_hvline = ll_hvline_cb;
  52:..\..\u8g2\csrc/u8g2_setup.c ****   
  53:..\..\u8g2\csrc/u8g2_setup.c ****   u8g2->tile_buf_ptr = buf;
  54:..\..\u8g2\csrc/u8g2_setup.c ****   u8g2->tile_buf_height = tile_buf_height;
  55:..\..\u8g2\csrc/u8g2_setup.c ****   
  56:..\..\u8g2\csrc/u8g2_setup.c ****   u8g2->tile_curr_row = 0;
  57:..\..\u8g2\csrc/u8g2_setup.c ****   u8g2->draw_color = 1;
  58:..\..\u8g2\csrc/u8g2_setup.c ****   u8g2->is_auto_page_clear = 1;
  59:..\..\u8g2\csrc/u8g2_setup.c ****   
  60:..\..\u8g2\csrc/u8g2_setup.c ****   u8g2->cb = u8g2_cb;
  61:..\..\u8g2\csrc/u8g2_setup.c ****   u8g2->cb->update(u8g2);
  62:..\..\u8g2\csrc/u8g2_setup.c **** 
  63:..\..\u8g2\csrc/u8g2_setup.c ****   u8g2_SetFontPosBaseline(u8g2);  /* issue 195 */
  64:..\..\u8g2\csrc/u8g2_setup.c ****   
  65:..\..\u8g2\csrc/u8g2_setup.c **** #ifdef U8G2_WITH_FONT_ROTATION  
  66:..\..\u8g2\csrc/u8g2_setup.c ****   u8g2->font_decode.dir = 0;
  67:..\..\u8g2\csrc/u8g2_setup.c **** #endif
  68:..\..\u8g2\csrc/u8g2_setup.c **** }
  69:..\..\u8g2\csrc/u8g2_setup.c **** 
  70:..\..\u8g2\csrc/u8g2_setup.c **** /*
  71:..\..\u8g2\csrc/u8g2_setup.c ****   Usually the display rotation is set initially, but it could be done later also
  72:..\..\u8g2\csrc/u8g2_setup.c ****   u8g2_cb can be U8G2_R0..U8G2_R3
  73:..\..\u8g2\csrc/u8g2_setup.c **** */
  74:..\..\u8g2\csrc/u8g2_setup.c **** void u8g2_SetDisplayRotation(u8g2_t *u8g2, const u8g2_cb_t *u8g2_cb)
  75:..\..\u8g2\csrc/u8g2_setup.c **** {
  76:..\..\u8g2\csrc/u8g2_setup.c ****   u8g2->cb = u8g2_cb;
  77:..\..\u8g2\csrc/u8g2_setup.c ****   u8g2->cb->update(u8g2);
  78:..\..\u8g2\csrc/u8g2_setup.c **** }
  79:..\..\u8g2\csrc/u8g2_setup.c **** 
  80:..\..\u8g2\csrc/u8g2_setup.c **** 
  81:..\..\u8g2\csrc/u8g2_setup.c **** /*============================================*/
  82:..\..\u8g2\csrc/u8g2_setup.c **** /* 
  83:..\..\u8g2\csrc/u8g2_setup.c ****   update dimension: 
  84:..\..\u8g2\csrc/u8g2_setup.c ****   calculate the following variables:
  85:..\..\u8g2\csrc/u8g2_setup.c ****     u8g2_uint_t buf_x0;	left corner of the buffer
  86:..\..\u8g2\csrc/u8g2_setup.c ****     u8g2_uint_t buf_x1;	right corner of the buffer (excluded)
  87:..\..\u8g2\csrc/u8g2_setup.c ****     u8g2_uint_t buf_y0;
  88:..\..\u8g2\csrc/u8g2_setup.c ****     u8g2_uint_t buf_y1; 	
ARM GAS  C:\Users\Alan\AppData\Local\Temp\ccyDTqa9.s 			page 3


  89:..\..\u8g2\csrc/u8g2_setup.c **** */
  90:..\..\u8g2\csrc/u8g2_setup.c **** 
  91:..\..\u8g2\csrc/u8g2_setup.c **** static void u8g2_update_dimension_common(u8g2_t *u8g2)
  92:..\..\u8g2\csrc/u8g2_setup.c **** {
  27              		.loc 1 92 0
  28              		.cfi_startproc
  29              		@ args = 0, pretend = 0, frame = 0
  30              		@ frame_needed = 0, uses_anonymous_args = 0
  31              	.LVL0:
  32 0000 70B5     		push	{r4, r5, r6, lr}
  33              		.cfi_def_cfa_offset 16
  34              		.cfi_offset 4, -16
  35              		.cfi_offset 5, -12
  36              		.cfi_offset 6, -8
  37              		.cfi_offset 14, -4
  93:..\..\u8g2\csrc/u8g2_setup.c ****   u8g2_uint_t t;
  94:..\..\u8g2\csrc/u8g2_setup.c ****   
  95:..\..\u8g2\csrc/u8g2_setup.c ****   t = u8g2->tile_buf_height;
  38              		.loc 1 95 0
  39 0002 3823     		movs	r3, #56
  40 0004 C35C     		ldrb	r3, [r0, r3]
  41              	.LVL1:
  96:..\..\u8g2\csrc/u8g2_setup.c ****   t *= 8;
  42              		.loc 1 96 0
  43 0006 D900     		lsls	r1, r3, #3
  44              	.LVL2:
  97:..\..\u8g2\csrc/u8g2_setup.c ****   u8g2->pixel_buf_height = t;
  45              		.loc 1 97 0
  46 0008 3B22     		movs	r2, #59
  47 000a 8154     		strb	r1, [r0, r2]
  98:..\..\u8g2\csrc/u8g2_setup.c ****   
  99:..\..\u8g2\csrc/u8g2_setup.c ****   t = u8g2_GetU8x8(u8g2)->display_info->tile_width;
  48              		.loc 1 99 0
  49 000c 0168     		ldr	r1, [r0]
  50              	.LVL3:
  51 000e 0A7C     		ldrb	r2, [r1, #16]
  52              	.LVL4:
 100:..\..\u8g2\csrc/u8g2_setup.c **** #ifndef U8G2_16BIT
 101:..\..\u8g2\csrc/u8g2_setup.c ****   if ( t >= 32 )
  53              		.loc 1 101 0
  54 0010 1F2A     		cmp	r2, #31
  55 0012 00D9     		bls	.L2
 102:..\..\u8g2\csrc/u8g2_setup.c ****     t = 31;
  56              		.loc 1 102 0
  57 0014 1F22     		movs	r2, #31
  58              	.LVL5:
  59              	.L2:
 103:..\..\u8g2\csrc/u8g2_setup.c **** #endif
 104:..\..\u8g2\csrc/u8g2_setup.c ****   t *= 8;
  60              		.loc 1 104 0
  61 0016 D200     		lsls	r2, r2, #3
  62              	.LVL6:
 105:..\..\u8g2\csrc/u8g2_setup.c ****   u8g2->pixel_buf_width = t;
  63              		.loc 1 105 0
  64 0018 3A24     		movs	r4, #58
  65 001a 0255     		strb	r2, [r0, r4]
 106:..\..\u8g2\csrc/u8g2_setup.c ****   
ARM GAS  C:\Users\Alan\AppData\Local\Temp\ccyDTqa9.s 			page 4


 107:..\..\u8g2\csrc/u8g2_setup.c ****   t = u8g2->tile_curr_row;
  66              		.loc 1 107 0
  67 001c 3922     		movs	r2, #57
  68              	.LVL7:
  69 001e 855C     		ldrb	r5, [r0, r2]
  70              	.LVL8:
 108:..\..\u8g2\csrc/u8g2_setup.c ****   t *= 8;
  71              		.loc 1 108 0
  72 0020 EA00     		lsls	r2, r5, #3
  73 0022 D2B2     		uxtb	r2, r2
  74              	.LVL9:
 109:..\..\u8g2\csrc/u8g2_setup.c ****   u8g2->pixel_curr_row = t;
  75              		.loc 1 109 0
  76 0024 0234     		adds	r4, r4, #2
  77 0026 0255     		strb	r2, [r0, r4]
  78              	.LVL10:
 110:..\..\u8g2\csrc/u8g2_setup.c ****   
 111:..\..\u8g2\csrc/u8g2_setup.c ****   t = u8g2->tile_buf_height;
 112:..\..\u8g2\csrc/u8g2_setup.c ****   /* handle the case, where the buffer is larger than the (remaining) part of the display */
 113:..\..\u8g2\csrc/u8g2_setup.c ****   if ( t + u8g2->tile_curr_row > u8g2_GetU8x8(u8g2)->display_info->tile_height )
  79              		.loc 1 113 0
  80 0028 5E19     		adds	r6, r3, r5
  81 002a 4C7C     		ldrb	r4, [r1, #17]
  82 002c A642     		cmp	r6, r4
  83 002e 01DD     		ble	.L3
 114:..\..\u8g2\csrc/u8g2_setup.c ****     t = u8g2_GetU8x8(u8g2)->display_info->tile_height - u8g2->tile_curr_row;
  84              		.loc 1 114 0
  85 0030 631B     		subs	r3, r4, r5
  86              	.LVL11:
  87 0032 DBB2     		uxtb	r3, r3
  88              	.LVL12:
  89              	.L3:
 115:..\..\u8g2\csrc/u8g2_setup.c ****   t *= 8;
  90              		.loc 1 115 0
  91 0034 DB00     		lsls	r3, r3, #3
  92              	.LVL13:
  93 0036 DBB2     		uxtb	r3, r3
  94              	.LVL14:
 116:..\..\u8g2\csrc/u8g2_setup.c ****   
 117:..\..\u8g2\csrc/u8g2_setup.c ****   u8g2->buf_y0 = u8g2->pixel_curr_row;   
  95              		.loc 1 117 0
  96 0038 3D24     		movs	r4, #61
  97 003a 0255     		strb	r2, [r0, r4]
 118:..\..\u8g2\csrc/u8g2_setup.c ****   u8g2->buf_y1 = u8g2->buf_y0;
 119:..\..\u8g2\csrc/u8g2_setup.c ****   u8g2->buf_y1 += t;
  98              		.loc 1 119 0
  99 003c D318     		adds	r3, r2, r3
 100              	.LVL15:
 101 003e 3E22     		movs	r2, #62
 102 0040 8354     		strb	r3, [r0, r2]
 120:..\..\u8g2\csrc/u8g2_setup.c **** 
 121:..\..\u8g2\csrc/u8g2_setup.c ****   
 122:..\..\u8g2\csrc/u8g2_setup.c **** #ifdef U8G2_16BIT
 123:..\..\u8g2\csrc/u8g2_setup.c ****   u8g2->width = u8g2_GetU8x8(u8g2)->display_info->pixel_width;
 124:..\..\u8g2\csrc/u8g2_setup.c ****   u8g2->height = u8g2_GetU8x8(u8g2)->display_info->pixel_height;
 125:..\..\u8g2\csrc/u8g2_setup.c **** #else
 126:..\..\u8g2\csrc/u8g2_setup.c ****   u8g2->width = 240;
ARM GAS  C:\Users\Alan\AppData\Local\Temp\ccyDTqa9.s 			page 5


 103              		.loc 1 126 0
 104 0042 B232     		adds	r2, r2, #178
 105 0044 3F23     		movs	r3, #63
 106 0046 C254     		strb	r2, [r0, r3]
 127:..\..\u8g2\csrc/u8g2_setup.c ****   if ( u8g2_GetU8x8(u8g2)->display_info->pixel_width <= 240 )
 107              		.loc 1 127 0
 108 0048 8B8A     		ldrh	r3, [r1, #20]
 109 004a F02B     		cmp	r3, #240
 110 004c 01D8     		bhi	.L4
 128:..\..\u8g2\csrc/u8g2_setup.c ****     u8g2->width = u8g2_GetU8x8(u8g2)->display_info->pixel_width;
 111              		.loc 1 128 0
 112 004e B13A     		subs	r2, r2, #177
 113 0050 8354     		strb	r3, [r0, r2]
 114              	.L4:
 129:..\..\u8g2\csrc/u8g2_setup.c ****   u8g2->height = u8g2_GetU8x8(u8g2)->display_info->pixel_height;
 115              		.loc 1 129 0
 116 0052 CA8A     		ldrh	r2, [r1, #22]
 117 0054 4023     		movs	r3, #64
 118 0056 C254     		strb	r2, [r0, r3]
 130:..\..\u8g2\csrc/u8g2_setup.c **** #endif
 131:..\..\u8g2\csrc/u8g2_setup.c **** 
 132:..\..\u8g2\csrc/u8g2_setup.c **** }
 119              		.loc 1 132 0
 120              		@ sp needed
 121 0058 70BD     		pop	{r4, r5, r6, pc}
 122              		.cfi_endproc
 123              	.LFE2:
 124              		.size	u8g2_update_dimension_common, .-u8g2_update_dimension_common
 125 005a C046     		.section	.text.u8g2_update_dimension_r0,"ax",%progbits
 126              		.align	2
 127              		.global	u8g2_update_dimension_r0
 128              		.code	16
 129              		.thumb_func
 130              		.type	u8g2_update_dimension_r0, %function
 131              	u8g2_update_dimension_r0:
 132              	.LFB3:
 133:..\..\u8g2\csrc/u8g2_setup.c **** 
 134:..\..\u8g2\csrc/u8g2_setup.c **** void u8g2_update_dimension_r0(u8g2_t *u8g2)
 135:..\..\u8g2\csrc/u8g2_setup.c **** {
 133              		.loc 1 135 0
 134              		.cfi_startproc
 135              		@ args = 0, pretend = 0, frame = 0
 136              		@ frame_needed = 0, uses_anonymous_args = 0
 137              	.LVL16:
 138 0000 10B5     		push	{r4, lr}
 139              		.cfi_def_cfa_offset 8
 140              		.cfi_offset 4, -8
 141              		.cfi_offset 14, -4
 142 0002 0400     		movs	r4, r0
 136:..\..\u8g2\csrc/u8g2_setup.c ****   u8g2_update_dimension_common(u8g2);
 143              		.loc 1 136 0
 144 0004 FFF7FEFF 		bl	u8g2_update_dimension_common
 145              	.LVL17:
 137:..\..\u8g2\csrc/u8g2_setup.c **** 
 138:..\..\u8g2\csrc/u8g2_setup.c ****   u8g2->user_x0 = 0;
 146              		.loc 1 138 0
 147 0008 0022     		movs	r2, #0
ARM GAS  C:\Users\Alan\AppData\Local\Temp\ccyDTqa9.s 			page 6


 148 000a 4123     		movs	r3, #65
 149 000c E254     		strb	r2, [r4, r3]
 139:..\..\u8g2\csrc/u8g2_setup.c ****   u8g2->user_x1 = u8g2->pixel_buf_width;	/* pixel_buf_width replaced with width */
 150              		.loc 1 139 0
 151 000e 073B     		subs	r3, r3, #7
 152 0010 E25C     		ldrb	r2, [r4, r3]
 153 0012 0833     		adds	r3, r3, #8
 154 0014 E254     		strb	r2, [r4, r3]
 140:..\..\u8g2\csrc/u8g2_setup.c ****   
 141:..\..\u8g2\csrc/u8g2_setup.c ****   u8g2->user_y0 = u8g2->buf_y0;
 155              		.loc 1 141 0
 156 0016 053B     		subs	r3, r3, #5
 157 0018 E25C     		ldrb	r2, [r4, r3]
 158 001a 0633     		adds	r3, r3, #6
 159 001c E254     		strb	r2, [r4, r3]
 142:..\..\u8g2\csrc/u8g2_setup.c ****   u8g2->user_y1 = u8g2->buf_y1;
 160              		.loc 1 142 0
 161 001e 053B     		subs	r3, r3, #5
 162 0020 E25C     		ldrb	r2, [r4, r3]
 163 0022 0633     		adds	r3, r3, #6
 164 0024 E254     		strb	r2, [r4, r3]
 143:..\..\u8g2\csrc/u8g2_setup.c ****   
 144:..\..\u8g2\csrc/u8g2_setup.c **** //  printf("x0=%d x1=%d y0=%d y1=%d\n", 
 145:..\..\u8g2\csrc/u8g2_setup.c **** //      u8g2->user_x0, u8g2->user_x1, u8g2->user_y0, u8g2->user_y1);
 146:..\..\u8g2\csrc/u8g2_setup.c **** }
 165              		.loc 1 146 0
 166              		@ sp needed
 167              	.LVL18:
 168 0026 10BD     		pop	{r4, pc}
 169              		.cfi_endproc
 170              	.LFE3:
 171              		.size	u8g2_update_dimension_r0, .-u8g2_update_dimension_r0
 172              		.section	.text.u8g2_update_dimension_r1,"ax",%progbits
 173              		.align	2
 174              		.global	u8g2_update_dimension_r1
 175              		.code	16
 176              		.thumb_func
 177              		.type	u8g2_update_dimension_r1, %function
 178              	u8g2_update_dimension_r1:
 179              	.LFB4:
 147:..\..\u8g2\csrc/u8g2_setup.c **** 
 148:..\..\u8g2\csrc/u8g2_setup.c **** void u8g2_update_dimension_r1(u8g2_t *u8g2)
 149:..\..\u8g2\csrc/u8g2_setup.c **** {
 180              		.loc 1 149 0
 181              		.cfi_startproc
 182              		@ args = 0, pretend = 0, frame = 0
 183              		@ frame_needed = 0, uses_anonymous_args = 0
 184              	.LVL19:
 185 0000 10B5     		push	{r4, lr}
 186              		.cfi_def_cfa_offset 8
 187              		.cfi_offset 4, -8
 188              		.cfi_offset 14, -4
 189 0002 0400     		movs	r4, r0
 150:..\..\u8g2\csrc/u8g2_setup.c ****   u8g2_update_dimension_common(u8g2);
 190              		.loc 1 150 0
 191 0004 FFF7FEFF 		bl	u8g2_update_dimension_common
 192              	.LVL20:
ARM GAS  C:\Users\Alan\AppData\Local\Temp\ccyDTqa9.s 			page 7


 151:..\..\u8g2\csrc/u8g2_setup.c ****   
 152:..\..\u8g2\csrc/u8g2_setup.c ****   u8g2->height = u8g2_GetU8x8(u8g2)->display_info->pixel_width;
 193              		.loc 1 152 0
 194 0008 2268     		ldr	r2, [r4]
 195 000a 137D     		ldrb	r3, [r2, #20]
 196 000c 4021     		movs	r1, #64
 197 000e 6354     		strb	r3, [r4, r1]
 153:..\..\u8g2\csrc/u8g2_setup.c ****   u8g2->width = u8g2_GetU8x8(u8g2)->display_info->pixel_height;
 198              		.loc 1 153 0
 199 0010 D18A     		ldrh	r1, [r2, #22]
 200 0012 3F22     		movs	r2, #63
 201 0014 A154     		strb	r1, [r4, r2]
 154:..\..\u8g2\csrc/u8g2_setup.c ****   
 155:..\..\u8g2\csrc/u8g2_setup.c ****   u8g2->user_x0 = u8g2->buf_y0;
 202              		.loc 1 155 0
 203 0016 023A     		subs	r2, r2, #2
 204 0018 A15C     		ldrb	r1, [r4, r2]
 205 001a 0432     		adds	r2, r2, #4
 206 001c A154     		strb	r1, [r4, r2]
 156:..\..\u8g2\csrc/u8g2_setup.c ****   u8g2->user_x1 = u8g2->buf_y1;
 207              		.loc 1 156 0
 208 001e 033A     		subs	r2, r2, #3
 209 0020 A15C     		ldrb	r1, [r4, r2]
 210 0022 0432     		adds	r2, r2, #4
 211 0024 A154     		strb	r1, [r4, r2]
 157:..\..\u8g2\csrc/u8g2_setup.c ****   
 158:..\..\u8g2\csrc/u8g2_setup.c ****   u8g2->user_y0 = 0;
 212              		.loc 1 158 0
 213 0026 0021     		movs	r1, #0
 214 0028 0132     		adds	r2, r2, #1
 215 002a A154     		strb	r1, [r4, r2]
 159:..\..\u8g2\csrc/u8g2_setup.c ****   u8g2->user_y1 = u8g2->height;	/* pixel_buf_width replaced with height (which is the real pixel wi
 216              		.loc 1 159 0
 217 002c 0132     		adds	r2, r2, #1
 218 002e A354     		strb	r3, [r4, r2]
 160:..\..\u8g2\csrc/u8g2_setup.c ****   
 161:..\..\u8g2\csrc/u8g2_setup.c ****   //printf("x0=%d x1=%d y0=%d y1=%d\n", 
 162:..\..\u8g2\csrc/u8g2_setup.c ****    //   u8g2->user_x0, u8g2->user_x1, u8g2->user_y0, u8g2->user_y1);
 163:..\..\u8g2\csrc/u8g2_setup.c **** }
 219              		.loc 1 163 0
 220              		@ sp needed
 221              	.LVL21:
 222 0030 10BD     		pop	{r4, pc}
 223              		.cfi_endproc
 224              	.LFE4:
 225              		.size	u8g2_update_dimension_r1, .-u8g2_update_dimension_r1
 226 0032 C046     		.section	.text.u8g2_update_dimension_r2,"ax",%progbits
 227              		.align	2
 228              		.global	u8g2_update_dimension_r2
 229              		.code	16
 230              		.thumb_func
 231              		.type	u8g2_update_dimension_r2, %function
 232              	u8g2_update_dimension_r2:
 233              	.LFB5:
 164:..\..\u8g2\csrc/u8g2_setup.c **** 
 165:..\..\u8g2\csrc/u8g2_setup.c **** void u8g2_update_dimension_r2(u8g2_t *u8g2)
 166:..\..\u8g2\csrc/u8g2_setup.c **** {
ARM GAS  C:\Users\Alan\AppData\Local\Temp\ccyDTqa9.s 			page 8


 234              		.loc 1 166 0
 235              		.cfi_startproc
 236              		@ args = 0, pretend = 0, frame = 0
 237              		@ frame_needed = 0, uses_anonymous_args = 0
 238              	.LVL22:
 239 0000 10B5     		push	{r4, lr}
 240              		.cfi_def_cfa_offset 8
 241              		.cfi_offset 4, -8
 242              		.cfi_offset 14, -4
 243 0002 0400     		movs	r4, r0
 167:..\..\u8g2\csrc/u8g2_setup.c ****   u8g2_update_dimension_common(u8g2);
 244              		.loc 1 167 0
 245 0004 FFF7FEFF 		bl	u8g2_update_dimension_common
 246              	.LVL23:
 168:..\..\u8g2\csrc/u8g2_setup.c **** 
 169:..\..\u8g2\csrc/u8g2_setup.c ****   u8g2->user_x0 = 0;
 247              		.loc 1 169 0
 248 0008 0022     		movs	r2, #0
 249 000a 4123     		movs	r3, #65
 250 000c E254     		strb	r2, [r4, r3]
 170:..\..\u8g2\csrc/u8g2_setup.c ****   u8g2->user_x1 = u8g2->width;	/* pixel_buf_width replaced with width */
 251              		.loc 1 170 0
 252 000e 023B     		subs	r3, r3, #2
 253 0010 E25C     		ldrb	r2, [r4, r3]
 254 0012 0333     		adds	r3, r3, #3
 255 0014 E254     		strb	r2, [r4, r3]
 171:..\..\u8g2\csrc/u8g2_setup.c ****   
 172:..\..\u8g2\csrc/u8g2_setup.c ****   u8g2->user_y0 = u8g2->height - u8g2->buf_y1;
 256              		.loc 1 172 0
 257 0016 023B     		subs	r3, r3, #2
 258 0018 E35C     		ldrb	r3, [r4, r3]
 259 001a 3E22     		movs	r2, #62
 260 001c A25C     		ldrb	r2, [r4, r2]
 261 001e 9A1A     		subs	r2, r3, r2
 262 0020 4321     		movs	r1, #67
 263 0022 6254     		strb	r2, [r4, r1]
 173:..\..\u8g2\csrc/u8g2_setup.c ****   u8g2->user_y1 = u8g2->height - u8g2->buf_y0;
 264              		.loc 1 173 0
 265 0024 3D22     		movs	r2, #61
 266 0026 A25C     		ldrb	r2, [r4, r2]
 267 0028 9B1A     		subs	r3, r3, r2
 268 002a 4422     		movs	r2, #68
 269 002c A354     		strb	r3, [r4, r2]
 174:..\..\u8g2\csrc/u8g2_setup.c **** 
 175:..\..\u8g2\csrc/u8g2_setup.c **** //  printf("x0=%d x1=%d y0=%d y1=%d\n", 
 176:..\..\u8g2\csrc/u8g2_setup.c **** //      u8g2->user_x0, u8g2->user_x1, u8g2->user_y0, u8g2->user_y1);
 177:..\..\u8g2\csrc/u8g2_setup.c **** }
 270              		.loc 1 177 0
 271              		@ sp needed
 272              	.LVL24:
 273 002e 10BD     		pop	{r4, pc}
 274              		.cfi_endproc
 275              	.LFE5:
 276              		.size	u8g2_update_dimension_r2, .-u8g2_update_dimension_r2
 277              		.section	.text.u8g2_update_dimension_r3,"ax",%progbits
 278              		.align	2
 279              		.global	u8g2_update_dimension_r3
ARM GAS  C:\Users\Alan\AppData\Local\Temp\ccyDTqa9.s 			page 9


 280              		.code	16
 281              		.thumb_func
 282              		.type	u8g2_update_dimension_r3, %function
 283              	u8g2_update_dimension_r3:
 284              	.LFB6:
 178:..\..\u8g2\csrc/u8g2_setup.c **** 
 179:..\..\u8g2\csrc/u8g2_setup.c **** void u8g2_update_dimension_r3(u8g2_t *u8g2)
 180:..\..\u8g2\csrc/u8g2_setup.c **** {
 285              		.loc 1 180 0
 286              		.cfi_startproc
 287              		@ args = 0, pretend = 0, frame = 0
 288              		@ frame_needed = 0, uses_anonymous_args = 0
 289              	.LVL25:
 290 0000 10B5     		push	{r4, lr}
 291              		.cfi_def_cfa_offset 8
 292              		.cfi_offset 4, -8
 293              		.cfi_offset 14, -4
 294 0002 0400     		movs	r4, r0
 181:..\..\u8g2\csrc/u8g2_setup.c ****   u8g2_update_dimension_common(u8g2);
 295              		.loc 1 181 0
 296 0004 FFF7FEFF 		bl	u8g2_update_dimension_common
 297              	.LVL26:
 182:..\..\u8g2\csrc/u8g2_setup.c ****   
 183:..\..\u8g2\csrc/u8g2_setup.c ****   u8g2->height = u8g2_GetU8x8(u8g2)->display_info->pixel_width;
 298              		.loc 1 183 0
 299 0008 2368     		ldr	r3, [r4]
 300 000a 197D     		ldrb	r1, [r3, #20]
 301 000c 4022     		movs	r2, #64
 302 000e A154     		strb	r1, [r4, r2]
 184:..\..\u8g2\csrc/u8g2_setup.c ****   u8g2->width = u8g2_GetU8x8(u8g2)->display_info->pixel_height;
 303              		.loc 1 184 0
 304 0010 9B7D     		ldrb	r3, [r3, #22]
 305 0012 013A     		subs	r2, r2, #1
 306 0014 A354     		strb	r3, [r4, r2]
 185:..\..\u8g2\csrc/u8g2_setup.c **** 
 186:..\..\u8g2\csrc/u8g2_setup.c ****   u8g2->user_x0 = u8g2->width - u8g2->buf_y1;
 307              		.loc 1 186 0
 308 0016 013A     		subs	r2, r2, #1
 309 0018 A25C     		ldrb	r2, [r4, r2]
 310 001a 9A1A     		subs	r2, r3, r2
 311 001c 4120     		movs	r0, #65
 312 001e 2254     		strb	r2, [r4, r0]
 187:..\..\u8g2\csrc/u8g2_setup.c ****   u8g2->user_x1 = u8g2->width - u8g2->buf_y0;
 313              		.loc 1 187 0
 314 0020 3D22     		movs	r2, #61
 315 0022 A25C     		ldrb	r2, [r4, r2]
 316 0024 9B1A     		subs	r3, r3, r2
 317 0026 4222     		movs	r2, #66
 318 0028 A354     		strb	r3, [r4, r2]
 188:..\..\u8g2\csrc/u8g2_setup.c ****   
 189:..\..\u8g2\csrc/u8g2_setup.c ****   u8g2->user_y0 = 0;
 319              		.loc 1 189 0
 320 002a 0022     		movs	r2, #0
 321 002c 4323     		movs	r3, #67
 322 002e E254     		strb	r2, [r4, r3]
 190:..\..\u8g2\csrc/u8g2_setup.c ****   u8g2->user_y1 = u8g2->height;	/* pixel_buf_width replaced with height (pixel_width) */
 323              		.loc 1 190 0
ARM GAS  C:\Users\Alan\AppData\Local\Temp\ccyDTqa9.s 			page 10


 324 0030 0133     		adds	r3, r3, #1
 325 0032 E154     		strb	r1, [r4, r3]
 191:..\..\u8g2\csrc/u8g2_setup.c **** 
 192:..\..\u8g2\csrc/u8g2_setup.c **** //  printf("x0=%d x1=%d y0=%d y1=%d\n", 
 193:..\..\u8g2\csrc/u8g2_setup.c **** //      u8g2->user_x0, u8g2->user_x1, u8g2->user_y0, u8g2->user_y1);
 194:..\..\u8g2\csrc/u8g2_setup.c **** }
 326              		.loc 1 194 0
 327              		@ sp needed
 328              	.LVL27:
 329 0034 10BD     		pop	{r4, pc}
 330              		.cfi_endproc
 331              	.LFE6:
 332              		.size	u8g2_update_dimension_r3, .-u8g2_update_dimension_r3
 333 0036 C046     		.section	.text.u8g2_draw_l90_r0,"ax",%progbits
 334              		.align	2
 335              		.global	u8g2_draw_l90_r0
 336              		.code	16
 337              		.thumb_func
 338              		.type	u8g2_draw_l90_r0, %function
 339              	u8g2_draw_l90_r0:
 340              	.LFB7:
 195:..\..\u8g2\csrc/u8g2_setup.c **** 
 196:..\..\u8g2\csrc/u8g2_setup.c **** /*============================================*/
 197:..\..\u8g2\csrc/u8g2_setup.c **** extern void u8g2_draw_hv_line_4dir(u8g2_t *u8g2, u8g2_uint_t x, u8g2_uint_t y, u8g2_uint_t len, uin
 198:..\..\u8g2\csrc/u8g2_setup.c **** 
 199:..\..\u8g2\csrc/u8g2_setup.c **** 
 200:..\..\u8g2\csrc/u8g2_setup.c **** void u8g2_draw_l90_r0(u8g2_t *u8g2, u8g2_uint_t x, u8g2_uint_t y, u8g2_uint_t len, uint8_t dir)
 201:..\..\u8g2\csrc/u8g2_setup.c **** {
 341              		.loc 1 201 0
 342              		.cfi_startproc
 343              		@ args = 4, pretend = 0, frame = 0
 344              		@ frame_needed = 0, uses_anonymous_args = 0
 345              	.LVL28:
 346 0000 10B5     		push	{r4, lr}
 347              		.cfi_def_cfa_offset 8
 348              		.cfi_offset 4, -8
 349              		.cfi_offset 14, -4
 350 0002 82B0     		sub	sp, sp, #8
 351              		.cfi_def_cfa_offset 16
 352 0004 04AC     		add	r4, sp, #16
 353              	.LVL29:
 354 0006 2478     		ldrb	r4, [r4]
 355              	.LVL30:
 202:..\..\u8g2\csrc/u8g2_setup.c ****   u8g2_draw_hv_line_4dir(u8g2, x, y, len, dir);
 356              		.loc 1 202 0
 357 0008 0094     		str	r4, [sp]
 358 000a FFF7FEFF 		bl	u8g2_draw_hv_line_4dir
 359              	.LVL31:
 203:..\..\u8g2\csrc/u8g2_setup.c **** }
 360              		.loc 1 203 0
 361 000e 02B0     		add	sp, sp, #8
 362              		@ sp needed
 363 0010 10BD     		pop	{r4, pc}
 364              		.cfi_endproc
 365              	.LFE7:
 366              		.size	u8g2_draw_l90_r0, .-u8g2_draw_l90_r0
 367 0012 C046     		.section	.text.u8g2_draw_l90_mirrorr_r0,"ax",%progbits
ARM GAS  C:\Users\Alan\AppData\Local\Temp\ccyDTqa9.s 			page 11


 368              		.align	2
 369              		.global	u8g2_draw_l90_mirrorr_r0
 370              		.code	16
 371              		.thumb_func
 372              		.type	u8g2_draw_l90_mirrorr_r0, %function
 373              	u8g2_draw_l90_mirrorr_r0:
 374              	.LFB8:
 204:..\..\u8g2\csrc/u8g2_setup.c **** 
 205:..\..\u8g2\csrc/u8g2_setup.c **** void u8g2_draw_l90_mirrorr_r0(u8g2_t *u8g2, u8g2_uint_t x, u8g2_uint_t y, u8g2_uint_t len, uint8_t 
 206:..\..\u8g2\csrc/u8g2_setup.c **** {
 375              		.loc 1 206 0
 376              		.cfi_startproc
 377              		@ args = 4, pretend = 0, frame = 0
 378              		@ frame_needed = 0, uses_anonymous_args = 0
 379              	.LVL32:
 380 0000 30B5     		push	{r4, r5, lr}
 381              		.cfi_def_cfa_offset 12
 382              		.cfi_offset 4, -12
 383              		.cfi_offset 5, -8
 384              		.cfi_offset 14, -4
 385 0002 83B0     		sub	sp, sp, #12
 386              		.cfi_def_cfa_offset 24
 387 0004 06AC     		add	r4, sp, #24
 388              	.LVL33:
 389 0006 2578     		ldrb	r5, [r4]
 207:..\..\u8g2\csrc/u8g2_setup.c ****   u8g2_uint_t xx;
 208:..\..\u8g2\csrc/u8g2_setup.c ****   xx = u8g2->width;
 390              		.loc 1 208 0
 391 0008 3F24     		movs	r4, #63
 392              	.LVL34:
 393 000a 045D     		ldrb	r4, [r0, r4]
 394              	.LVL35:
 209:..\..\u8g2\csrc/u8g2_setup.c ****   xx -= x;
 395              		.loc 1 209 0
 396 000c 611A     		subs	r1, r4, r1
 397              	.LVL36:
 398 000e C9B2     		uxtb	r1, r1
 399              	.LVL37:
 210:..\..\u8g2\csrc/u8g2_setup.c ****   if ( (dir & 1) == 0 )
 400              		.loc 1 210 0
 401 0010 EC07     		lsls	r4, r5, #31
 402 0012 02D4     		bmi	.L12
 211:..\..\u8g2\csrc/u8g2_setup.c ****   {
 212:..\..\u8g2\csrc/u8g2_setup.c ****     xx -= len;
 403              		.loc 1 212 0
 404 0014 C91A     		subs	r1, r1, r3
 405              	.LVL38:
 406 0016 C9B2     		uxtb	r1, r1
 407              	.LVL39:
 408 0018 01E0     		b	.L13
 409              	.L12:
 213:..\..\u8g2\csrc/u8g2_setup.c ****   }
 214:..\..\u8g2\csrc/u8g2_setup.c ****   else
 215:..\..\u8g2\csrc/u8g2_setup.c ****   {
 216:..\..\u8g2\csrc/u8g2_setup.c ****     xx--;
 410              		.loc 1 216 0
 411 001a 0139     		subs	r1, r1, #1
ARM GAS  C:\Users\Alan\AppData\Local\Temp\ccyDTqa9.s 			page 12


 412              	.LVL40:
 413 001c C9B2     		uxtb	r1, r1
 414              	.LVL41:
 415              	.L13:
 217:..\..\u8g2\csrc/u8g2_setup.c ****   }
 218:..\..\u8g2\csrc/u8g2_setup.c ****   u8g2_draw_hv_line_4dir(u8g2, xx, y, len, dir);
 416              		.loc 1 218 0
 417 001e 0095     		str	r5, [sp]
 418 0020 FFF7FEFF 		bl	u8g2_draw_hv_line_4dir
 419              	.LVL42:
 219:..\..\u8g2\csrc/u8g2_setup.c **** }
 420              		.loc 1 219 0
 421 0024 03B0     		add	sp, sp, #12
 422              		@ sp needed
 423 0026 30BD     		pop	{r4, r5, pc}
 424              		.cfi_endproc
 425              	.LFE8:
 426              		.size	u8g2_draw_l90_mirrorr_r0, .-u8g2_draw_l90_mirrorr_r0
 427              		.section	.text.u8g2_draw_l90_r1,"ax",%progbits
 428              		.align	2
 429              		.global	u8g2_draw_l90_r1
 430              		.code	16
 431              		.thumb_func
 432              		.type	u8g2_draw_l90_r1, %function
 433              	u8g2_draw_l90_r1:
 434              	.LFB9:
 220:..\..\u8g2\csrc/u8g2_setup.c **** 
 221:..\..\u8g2\csrc/u8g2_setup.c **** 
 222:..\..\u8g2\csrc/u8g2_setup.c **** 
 223:..\..\u8g2\csrc/u8g2_setup.c **** void u8g2_draw_l90_r1(u8g2_t *u8g2, u8g2_uint_t x, u8g2_uint_t y, u8g2_uint_t len, uint8_t dir)
 224:..\..\u8g2\csrc/u8g2_setup.c **** {
 435              		.loc 1 224 0
 436              		.cfi_startproc
 437              		@ args = 4, pretend = 0, frame = 0
 438              		@ frame_needed = 0, uses_anonymous_args = 0
 439              	.LVL43:
 440 0000 30B5     		push	{r4, r5, lr}
 441              		.cfi_def_cfa_offset 12
 442              		.cfi_offset 4, -12
 443              		.cfi_offset 5, -8
 444              		.cfi_offset 14, -4
 445 0002 83B0     		sub	sp, sp, #12
 446              		.cfi_def_cfa_offset 24
 447 0004 0C00     		movs	r4, r1
 448 0006 06A9     		add	r1, sp, #24
 449              	.LVL44:
 450 0008 0D78     		ldrb	r5, [r1]
 451              	.LVL45:
 225:..\..\u8g2\csrc/u8g2_setup.c ****   u8g2_uint_t xx, yy;
 226:..\..\u8g2\csrc/u8g2_setup.c ****   
 227:..\..\u8g2\csrc/u8g2_setup.c ****   yy = x;
 228:..\..\u8g2\csrc/u8g2_setup.c ****   
 229:..\..\u8g2\csrc/u8g2_setup.c ****   xx = u8g2->height;
 452              		.loc 1 229 0
 453 000a 4021     		movs	r1, #64
 454              	.LVL46:
 455 000c 415C     		ldrb	r1, [r0, r1]
ARM GAS  C:\Users\Alan\AppData\Local\Temp\ccyDTqa9.s 			page 13


 456              	.LVL47:
 230:..\..\u8g2\csrc/u8g2_setup.c ****   xx -= y;
 457              		.loc 1 230 0
 458 000e 8A1A     		subs	r2, r1, r2
 459              	.LVL48:
 460 0010 D2B2     		uxtb	r2, r2
 461              	.LVL49:
 231:..\..\u8g2\csrc/u8g2_setup.c ****   xx--;
 462              		.loc 1 231 0
 463 0012 013A     		subs	r2, r2, #1
 464              	.LVL50:
 465 0014 D1B2     		uxtb	r1, r2
 466              	.LVL51:
 232:..\..\u8g2\csrc/u8g2_setup.c ****   
 233:..\..\u8g2\csrc/u8g2_setup.c ****   dir ++;
 467              		.loc 1 233 0
 468 0016 6A1C     		adds	r2, r5, #1
 469              	.LVL52:
 234:..\..\u8g2\csrc/u8g2_setup.c ****   dir &= 3;
 470              		.loc 1 234 0
 471 0018 0325     		movs	r5, #3
 472 001a 2A40     		ands	r2, r5
 473              	.LVL53:
 235:..\..\u8g2\csrc/u8g2_setup.c ****   u8g2_draw_hv_line_4dir(u8g2, xx, yy, len, dir);
 474              		.loc 1 235 0
 475 001c 0092     		str	r2, [sp]
 476 001e 2200     		movs	r2, r4
 477              	.LVL54:
 478 0020 FFF7FEFF 		bl	u8g2_draw_hv_line_4dir
 479              	.LVL55:
 236:..\..\u8g2\csrc/u8g2_setup.c **** }
 480              		.loc 1 236 0
 481 0024 03B0     		add	sp, sp, #12
 482              		@ sp needed
 483              	.LVL56:
 484              	.LVL57:
 485 0026 30BD     		pop	{r4, r5, pc}
 486              		.cfi_endproc
 487              	.LFE9:
 488              		.size	u8g2_draw_l90_r1, .-u8g2_draw_l90_r1
 489              		.section	.text.u8g2_draw_l90_r2,"ax",%progbits
 490              		.align	2
 491              		.global	u8g2_draw_l90_r2
 492              		.code	16
 493              		.thumb_func
 494              		.type	u8g2_draw_l90_r2, %function
 495              	u8g2_draw_l90_r2:
 496              	.LFB10:
 237:..\..\u8g2\csrc/u8g2_setup.c **** 
 238:..\..\u8g2\csrc/u8g2_setup.c **** void u8g2_draw_l90_r2(u8g2_t *u8g2, u8g2_uint_t x, u8g2_uint_t y, u8g2_uint_t len, uint8_t dir)
 239:..\..\u8g2\csrc/u8g2_setup.c **** {
 497              		.loc 1 239 0
 498              		.cfi_startproc
 499              		@ args = 4, pretend = 0, frame = 0
 500              		@ frame_needed = 0, uses_anonymous_args = 0
 501              	.LVL58:
 502 0000 30B5     		push	{r4, r5, lr}
ARM GAS  C:\Users\Alan\AppData\Local\Temp\ccyDTqa9.s 			page 14


 503              		.cfi_def_cfa_offset 12
 504              		.cfi_offset 4, -12
 505              		.cfi_offset 5, -8
 506              		.cfi_offset 14, -4
 507 0002 83B0     		sub	sp, sp, #12
 508              		.cfi_def_cfa_offset 24
 509 0004 06AC     		add	r4, sp, #24
 510              	.LVL59:
 511 0006 2578     		ldrb	r5, [r4]
 240:..\..\u8g2\csrc/u8g2_setup.c ****   u8g2_uint_t xx, yy;
 241:..\..\u8g2\csrc/u8g2_setup.c **** 
 242:..\..\u8g2\csrc/u8g2_setup.c ****   yy = u8g2->height;
 512              		.loc 1 242 0
 513 0008 4024     		movs	r4, #64
 514              	.LVL60:
 515 000a 045D     		ldrb	r4, [r0, r4]
 516              	.LVL61:
 243:..\..\u8g2\csrc/u8g2_setup.c ****   yy -= y;
 517              		.loc 1 243 0
 518 000c A21A     		subs	r2, r4, r2
 519              	.LVL62:
 520 000e D2B2     		uxtb	r2, r2
 521              	.LVL63:
 244:..\..\u8g2\csrc/u8g2_setup.c ****   yy--;
 522              		.loc 1 244 0
 523 0010 013A     		subs	r2, r2, #1
 524              	.LVL64:
 525 0012 D2B2     		uxtb	r2, r2
 526              	.LVL65:
 245:..\..\u8g2\csrc/u8g2_setup.c ****   
 246:..\..\u8g2\csrc/u8g2_setup.c ****   xx = u8g2->width;
 527              		.loc 1 246 0
 528 0014 3F24     		movs	r4, #63
 529 0016 045D     		ldrb	r4, [r0, r4]
 530              	.LVL66:
 247:..\..\u8g2\csrc/u8g2_setup.c ****   xx -= x;
 531              		.loc 1 247 0
 532 0018 611A     		subs	r1, r4, r1
 533              	.LVL67:
 534 001a C9B2     		uxtb	r1, r1
 535              	.LVL68:
 248:..\..\u8g2\csrc/u8g2_setup.c ****   xx--;
 536              		.loc 1 248 0
 537 001c 0139     		subs	r1, r1, #1
 538              	.LVL69:
 539 001e C9B2     		uxtb	r1, r1
 540              	.LVL70:
 249:..\..\u8g2\csrc/u8g2_setup.c ****   
 250:..\..\u8g2\csrc/u8g2_setup.c ****   dir +=2;
 541              		.loc 1 250 0
 542 0020 AC1C     		adds	r4, r5, #2
 543              	.LVL71:
 251:..\..\u8g2\csrc/u8g2_setup.c ****   dir &= 3;
 544              		.loc 1 251 0
 545 0022 0325     		movs	r5, #3
 546 0024 2C40     		ands	r4, r5
 547              	.LVL72:
ARM GAS  C:\Users\Alan\AppData\Local\Temp\ccyDTqa9.s 			page 15


 252:..\..\u8g2\csrc/u8g2_setup.c ****   u8g2_draw_hv_line_4dir(u8g2, xx, yy, len, dir);
 548              		.loc 1 252 0
 549 0026 0094     		str	r4, [sp]
 550 0028 FFF7FEFF 		bl	u8g2_draw_hv_line_4dir
 551              	.LVL73:
 253:..\..\u8g2\csrc/u8g2_setup.c **** }
 552              		.loc 1 253 0
 553 002c 03B0     		add	sp, sp, #12
 554              		@ sp needed
 555              	.LVL74:
 556              	.LVL75:
 557 002e 30BD     		pop	{r4, r5, pc}
 558              		.cfi_endproc
 559              	.LFE10:
 560              		.size	u8g2_draw_l90_r2, .-u8g2_draw_l90_r2
 561              		.section	.text.u8g2_draw_l90_r3,"ax",%progbits
 562              		.align	2
 563              		.global	u8g2_draw_l90_r3
 564              		.code	16
 565              		.thumb_func
 566              		.type	u8g2_draw_l90_r3, %function
 567              	u8g2_draw_l90_r3:
 568              	.LFB11:
 254:..\..\u8g2\csrc/u8g2_setup.c **** 
 255:..\..\u8g2\csrc/u8g2_setup.c **** void u8g2_draw_l90_r3(u8g2_t *u8g2, u8g2_uint_t x, u8g2_uint_t y, u8g2_uint_t len, uint8_t dir)
 256:..\..\u8g2\csrc/u8g2_setup.c **** {
 569              		.loc 1 256 0
 570              		.cfi_startproc
 571              		@ args = 4, pretend = 0, frame = 0
 572              		@ frame_needed = 0, uses_anonymous_args = 0
 573              	.LVL76:
 574 0000 30B5     		push	{r4, r5, lr}
 575              		.cfi_def_cfa_offset 12
 576              		.cfi_offset 4, -12
 577              		.cfi_offset 5, -8
 578              		.cfi_offset 14, -4
 579 0002 83B0     		sub	sp, sp, #12
 580              		.cfi_def_cfa_offset 24
 581 0004 0D00     		movs	r5, r1
 582 0006 1400     		movs	r4, r2
 583 0008 06AA     		add	r2, sp, #24
 584              	.LVL77:
 585 000a 1178     		ldrb	r1, [r2]
 586              	.LVL78:
 257:..\..\u8g2\csrc/u8g2_setup.c ****   u8g2_uint_t xx, yy;
 258:..\..\u8g2\csrc/u8g2_setup.c **** 
 259:..\..\u8g2\csrc/u8g2_setup.c ****   xx = y;
 260:..\..\u8g2\csrc/u8g2_setup.c ****   
 261:..\..\u8g2\csrc/u8g2_setup.c ****   yy = u8g2->width;
 587              		.loc 1 261 0
 588 000c 3F22     		movs	r2, #63
 589              	.LVL79:
 590 000e 825C     		ldrb	r2, [r0, r2]
 591              	.LVL80:
 262:..\..\u8g2\csrc/u8g2_setup.c ****   yy -= x;
 592              		.loc 1 262 0
 593 0010 521B     		subs	r2, r2, r5
ARM GAS  C:\Users\Alan\AppData\Local\Temp\ccyDTqa9.s 			page 16


 594              	.LVL81:
 595 0012 D2B2     		uxtb	r2, r2
 596              	.LVL82:
 263:..\..\u8g2\csrc/u8g2_setup.c ****   yy--;
 597              		.loc 1 263 0
 598 0014 013A     		subs	r2, r2, #1
 599              	.LVL83:
 600 0016 D2B2     		uxtb	r2, r2
 601              	.LVL84:
 264:..\..\u8g2\csrc/u8g2_setup.c ****   
 265:..\..\u8g2\csrc/u8g2_setup.c ****   dir +=3;
 602              		.loc 1 265 0
 603 0018 0331     		adds	r1, r1, #3
 604              	.LVL85:
 266:..\..\u8g2\csrc/u8g2_setup.c ****   dir &= 3;
 605              		.loc 1 266 0
 606 001a 0325     		movs	r5, #3
 607 001c 2940     		ands	r1, r5
 608              	.LVL86:
 267:..\..\u8g2\csrc/u8g2_setup.c ****   u8g2_draw_hv_line_4dir(u8g2, xx, yy, len, dir);
 609              		.loc 1 267 0
 610 001e 0091     		str	r1, [sp]
 611 0020 2100     		movs	r1, r4
 612              	.LVL87:
 613 0022 FFF7FEFF 		bl	u8g2_draw_hv_line_4dir
 614              	.LVL88:
 268:..\..\u8g2\csrc/u8g2_setup.c **** }
 615              		.loc 1 268 0
 616 0026 03B0     		add	sp, sp, #12
 617              		@ sp needed
 618              	.LVL89:
 619              	.LVL90:
 620 0028 30BD     		pop	{r4, r5, pc}
 621              		.cfi_endproc
 622              	.LFE11:
 623              		.size	u8g2_draw_l90_r3, .-u8g2_draw_l90_r3
 624 002a C046     		.section	.text.u8g2_SetupBuffer,"ax",%progbits
 625              		.align	2
 626              		.global	u8g2_SetupBuffer
 627              		.code	16
 628              		.thumb_func
 629              		.type	u8g2_SetupBuffer, %function
 630              	u8g2_SetupBuffer:
 631              	.LFB0:
  45:..\..\u8g2\csrc/u8g2_setup.c ****   u8g2->font = NULL;
 632              		.loc 1 45 0
 633              		.cfi_startproc
 634              		@ args = 4, pretend = 0, frame = 0
 635              		@ frame_needed = 0, uses_anonymous_args = 0
 636              	.LVL91:
 637 0000 70B5     		push	{r4, r5, r6, lr}
 638              		.cfi_def_cfa_offset 16
 639              		.cfi_offset 4, -16
 640              		.cfi_offset 5, -12
 641              		.cfi_offset 6, -8
 642              		.cfi_offset 14, -4
 643 0002 0400     		movs	r4, r0
ARM GAS  C:\Users\Alan\AppData\Local\Temp\ccyDTqa9.s 			page 17


 644 0004 0498     		ldr	r0, [sp, #16]
 645              	.LVL92:
  46:..\..\u8g2\csrc/u8g2_setup.c ****   //u8g2->kerning = NULL;
 646              		.loc 1 46 0
 647 0006 0025     		movs	r5, #0
 648 0008 A564     		str	r5, [r4, #72]
  51:..\..\u8g2\csrc/u8g2_setup.c ****   
 649              		.loc 1 51 0
 650 000a E362     		str	r3, [r4, #44]
  53:..\..\u8g2\csrc/u8g2_setup.c ****   u8g2->tile_buf_height = tile_buf_height;
 651              		.loc 1 53 0
 652 000c 6163     		str	r1, [r4, #52]
  54:..\..\u8g2\csrc/u8g2_setup.c ****   
 653              		.loc 1 54 0
 654 000e 3823     		movs	r3, #56
 655              	.LVL93:
 656 0010 E254     		strb	r2, [r4, r3]
 657              	.LVL94:
  56:..\..\u8g2\csrc/u8g2_setup.c ****   u8g2->draw_color = 1;
 658              		.loc 1 56 0
 659 0012 0133     		adds	r3, r3, #1
 660 0014 E554     		strb	r5, [r4, r3]
  57:..\..\u8g2\csrc/u8g2_setup.c ****   u8g2->is_auto_page_clear = 1;
 661              		.loc 1 57 0
 662 0016 383B     		subs	r3, r3, #56
 663 0018 7C22     		movs	r2, #124
 664              	.LVL95:
 665 001a A354     		strb	r3, [r4, r2]
  58:..\..\u8g2\csrc/u8g2_setup.c ****   
 666              		.loc 1 58 0
 667 001c 0132     		adds	r2, r2, #1
 668 001e A354     		strb	r3, [r4, r2]
  60:..\..\u8g2\csrc/u8g2_setup.c ****   u8g2->cb->update(u8g2);
 669              		.loc 1 60 0
 670 0020 2063     		str	r0, [r4, #48]
 671              	.LVL96:
  61:..\..\u8g2\csrc/u8g2_setup.c **** 
 672              		.loc 1 61 0
 673 0022 0368     		ldr	r3, [r0]
 674 0024 2000     		movs	r0, r4
 675 0026 9847     		blx	r3
 676              	.LVL97:
  63:..\..\u8g2\csrc/u8g2_setup.c ****   
 677              		.loc 1 63 0
 678 0028 2000     		movs	r0, r4
 679 002a FFF7FEFF 		bl	u8g2_SetFontPosBaseline
 680              	.LVL98:
  66:..\..\u8g2\csrc/u8g2_setup.c **** #endif
 681              		.loc 1 66 0
 682 002e 5E23     		movs	r3, #94
 683 0030 E554     		strb	r5, [r4, r3]
  68:..\..\u8g2\csrc/u8g2_setup.c **** 
 684              		.loc 1 68 0
 685              		@ sp needed
 686              	.LVL99:
 687 0032 70BD     		pop	{r4, r5, r6, pc}
 688              		.cfi_endproc
ARM GAS  C:\Users\Alan\AppData\Local\Temp\ccyDTqa9.s 			page 18


 689              	.LFE0:
 690              		.size	u8g2_SetupBuffer, .-u8g2_SetupBuffer
 691              		.section	.text.u8g2_SetDisplayRotation,"ax",%progbits
 692              		.align	2
 693              		.global	u8g2_SetDisplayRotation
 694              		.code	16
 695              		.thumb_func
 696              		.type	u8g2_SetDisplayRotation, %function
 697              	u8g2_SetDisplayRotation:
 698              	.LFB1:
  75:..\..\u8g2\csrc/u8g2_setup.c ****   u8g2->cb = u8g2_cb;
 699              		.loc 1 75 0
 700              		.cfi_startproc
 701              		@ args = 0, pretend = 0, frame = 0
 702              		@ frame_needed = 0, uses_anonymous_args = 0
 703              	.LVL100:
 704 0000 10B5     		push	{r4, lr}
 705              		.cfi_def_cfa_offset 8
 706              		.cfi_offset 4, -8
 707              		.cfi_offset 14, -4
  76:..\..\u8g2\csrc/u8g2_setup.c ****   u8g2->cb->update(u8g2);
 708              		.loc 1 76 0
 709 0002 0163     		str	r1, [r0, #48]
  77:..\..\u8g2\csrc/u8g2_setup.c **** }
 710              		.loc 1 77 0
 711 0004 0B68     		ldr	r3, [r1]
 712 0006 9847     		blx	r3
 713              	.LVL101:
  78:..\..\u8g2\csrc/u8g2_setup.c **** 
 714              		.loc 1 78 0
 715              		@ sp needed
 716 0008 10BD     		pop	{r4, pc}
 717              		.cfi_endproc
 718              	.LFE1:
 719              		.size	u8g2_SetDisplayRotation, .-u8g2_SetDisplayRotation
 720              		.global	u8g2_cb_mirror
 721              		.global	u8g2_cb_r3
 722              		.global	u8g2_cb_r2
 723              		.global	u8g2_cb_r1
 724              		.global	u8g2_cb_r0
 725 000a C046     		.section	.rodata
 726              		.align	2
 727              		.type	u8g2_cb_mirror, %object
 728              		.size	u8g2_cb_mirror, 8
 729              	u8g2_cb_mirror:
 730 0000 00000000 		.word	u8g2_update_dimension_r0
 731 0004 00000000 		.word	u8g2_draw_l90_mirrorr_r0
 732              		.type	u8g2_cb_r3, %object
 733              		.size	u8g2_cb_r3, 8
 734              	u8g2_cb_r3:
 735 0008 00000000 		.word	u8g2_update_dimension_r3
 736 000c 00000000 		.word	u8g2_draw_l90_r3
 737              		.type	u8g2_cb_r2, %object
 738              		.size	u8g2_cb_r2, 8
 739              	u8g2_cb_r2:
 740 0010 00000000 		.word	u8g2_update_dimension_r2
 741 0014 00000000 		.word	u8g2_draw_l90_r2
ARM GAS  C:\Users\Alan\AppData\Local\Temp\ccyDTqa9.s 			page 19


 742              		.type	u8g2_cb_r1, %object
 743              		.size	u8g2_cb_r1, 8
 744              	u8g2_cb_r1:
 745 0018 00000000 		.word	u8g2_update_dimension_r1
 746 001c 00000000 		.word	u8g2_draw_l90_r1
 747              		.type	u8g2_cb_r0, %object
 748              		.size	u8g2_cb_r0, 8
 749              	u8g2_cb_r0:
 750 0020 00000000 		.word	u8g2_update_dimension_r0
 751 0024 00000000 		.word	u8g2_draw_l90_r0
 752              		.text
 753              	.Letext0:
 754              		.file 2 "c:\\program files (x86)\\cypress\\psoc creator\\4.1\\psoc creator\\import\\gnu\\arm\\5.4.
 755              		.file 3 "c:\\program files (x86)\\cypress\\psoc creator\\4.1\\psoc creator\\import\\gnu\\arm\\5.4.
 756              		.file 4 "..\\..\\u8g2\\csrc\\u8x8.h"
 757              		.file 5 "..\\..\\u8g2\\csrc\\u8g2.h"