ARM GAS  C:\Users\arh\AppData\Local\Temp\ccYmWyte.s 			page 1


   1              		.syntax unified
   2              		.cpu cortex-m0
   3              		.fpu softvfp
   4              		.eabi_attribute 20, 1
   5              		.eabi_attribute 21, 1
   6              		.eabi_attribute 23, 3
   7              		.eabi_attribute 24, 1
   8              		.eabi_attribute 25, 1
   9              		.eabi_attribute 26, 1
  10              		.eabi_attribute 30, 1
  11              		.eabi_attribute 34, 0
  12              		.eabi_attribute 18, 4
  13              		.thumb
  14              		.syntax unified
  15              		.file	"u8x8_display.c"
  16              		.text
  17              	.Ltext0:
  18              		.cfi_sections	.debug_frame
  19              		.section	.text.u8x8_d_helper_display_setup_memory,"ax",%progbits
  20              		.align	2
  21              		.global	u8x8_d_helper_display_setup_memory
  22              		.code	16
  23              		.thumb_func
  24              		.type	u8x8_d_helper_display_setup_memory, %function
  25              	u8x8_d_helper_display_setup_memory:
  26              	.LFB0:
  27              		.file 1 "..\\..\\u8g2\\csrc\\u8x8_display.c"
   1:..\..\u8g2\csrc/u8x8_display.c **** /*
   2:..\..\u8g2\csrc/u8x8_display.c ****   
   3:..\..\u8g2\csrc/u8x8_display.c ****   u8x8_display.c
   4:..\..\u8g2\csrc/u8x8_display.c ****   
   5:..\..\u8g2\csrc/u8x8_display.c ****   Universal 8bit Graphics Library (https://github.com/olikraus/u8g2/)
   6:..\..\u8g2\csrc/u8x8_display.c **** 
   7:..\..\u8g2\csrc/u8x8_display.c ****   Copyright (c) 2016, olikraus@gmail.com
   8:..\..\u8g2\csrc/u8x8_display.c ****   All rights reserved.
   9:..\..\u8g2\csrc/u8x8_display.c **** 
  10:..\..\u8g2\csrc/u8x8_display.c ****   Redistribution and use in source and binary forms, with or without modification, 
  11:..\..\u8g2\csrc/u8x8_display.c ****   are permitted provided that the following conditions are met:
  12:..\..\u8g2\csrc/u8x8_display.c **** 
  13:..\..\u8g2\csrc/u8x8_display.c ****   * Redistributions of source code must retain the above copyright notice, this list 
  14:..\..\u8g2\csrc/u8x8_display.c ****     of conditions and the following disclaimer.
  15:..\..\u8g2\csrc/u8x8_display.c ****     
  16:..\..\u8g2\csrc/u8x8_display.c ****   * Redistributions in binary form must reproduce the above copyright notice, this 
  17:..\..\u8g2\csrc/u8x8_display.c ****     list of conditions and the following disclaimer in the documentation and/or other 
  18:..\..\u8g2\csrc/u8x8_display.c ****     materials provided with the distribution.
  19:..\..\u8g2\csrc/u8x8_display.c **** 
  20:..\..\u8g2\csrc/u8x8_display.c ****   THIS SOFTWARE IS PROVIDED BY THE COPYRIGHT HOLDERS AND 
  21:..\..\u8g2\csrc/u8x8_display.c ****   CONTRIBUTORS "AS IS" AND ANY EXPRESS OR IMPLIED WARRANTIES, 
  22:..\..\u8g2\csrc/u8x8_display.c ****   INCLUDING, BUT NOT LIMITED TO, THE IMPLIED WARRANTIES OF 
  23:..\..\u8g2\csrc/u8x8_display.c ****   MERCHANTABILITY AND FITNESS FOR A PARTICULAR PURPOSE ARE 
  24:..\..\u8g2\csrc/u8x8_display.c ****   DISCLAIMED. IN NO EVENT SHALL THE COPYRIGHT HOLDER OR 
  25:..\..\u8g2\csrc/u8x8_display.c ****   CONTRIBUTORS BE LIABLE FOR ANY DIRECT, INDIRECT, INCIDENTAL, 
  26:..\..\u8g2\csrc/u8x8_display.c ****   SPECIAL, EXEMPLARY, OR CONSEQUENTIAL DAMAGES (INCLUDING, BUT 
  27:..\..\u8g2\csrc/u8x8_display.c ****   NOT LIMITED TO, PROCUREMENT OF SUBSTITUTE GOODS OR SERVICES; 
  28:..\..\u8g2\csrc/u8x8_display.c ****   LOSS OF USE, DATA, OR PROFITS; OR BUSINESS INTERRUPTION) HOWEVER 
  29:..\..\u8g2\csrc/u8x8_display.c ****   CAUSED AND ON ANY THEORY OF LIABILITY, WHETHER IN CONTRACT, 
  30:..\..\u8g2\csrc/u8x8_display.c ****   STRICT LIABILITY, OR TORT (INCLUDING NEGLIGENCE OR OTHERWISE) 
ARM GAS  C:\Users\arh\AppData\Local\Temp\ccYmWyte.s 			page 2


  31:..\..\u8g2\csrc/u8x8_display.c ****   ARISING IN ANY WAY OUT OF THE USE OF THIS SOFTWARE, EVEN IF 
  32:..\..\u8g2\csrc/u8x8_display.c ****   ADVISED OF THE POSSIBILITY OF SUCH DAMAGE.  
  33:..\..\u8g2\csrc/u8x8_display.c ****   
  34:..\..\u8g2\csrc/u8x8_display.c ****   
  35:..\..\u8g2\csrc/u8x8_display.c ****   Abstraction layer for the graphics controller.
  36:..\..\u8g2\csrc/u8x8_display.c ****   Main goal is the placement of a 8x8 pixel block (tile) on the display.
  37:..\..\u8g2\csrc/u8x8_display.c ****   
  38:..\..\u8g2\csrc/u8x8_display.c **** */
  39:..\..\u8g2\csrc/u8x8_display.c **** 
  40:..\..\u8g2\csrc/u8x8_display.c **** 
  41:..\..\u8g2\csrc/u8x8_display.c **** #include "u8x8.h"
  42:..\..\u8g2\csrc/u8x8_display.c **** 
  43:..\..\u8g2\csrc/u8x8_display.c **** 
  44:..\..\u8g2\csrc/u8x8_display.c **** /*==========================================*/
  45:..\..\u8g2\csrc/u8x8_display.c **** /* internal library function */
  46:..\..\u8g2\csrc/u8x8_display.c **** 
  47:..\..\u8g2\csrc/u8x8_display.c **** /*
  48:..\..\u8g2\csrc/u8x8_display.c ****   this is a helper function for the U8X8_MSG_DISPLAY_SETUP_MEMORY function.
  49:..\..\u8g2\csrc/u8x8_display.c ****   It can be called within the display callback function to carry out the usual standard tasks.
  50:..\..\u8g2\csrc/u8x8_display.c ****   
  51:..\..\u8g2\csrc/u8x8_display.c **** */
  52:..\..\u8g2\csrc/u8x8_display.c **** void u8x8_d_helper_display_setup_memory(u8x8_t *u8x8, const u8x8_display_info_t *display_info)
  53:..\..\u8g2\csrc/u8x8_display.c **** {
  28              		.loc 1 53 0
  29              		.cfi_startproc
  30              		@ args = 0, pretend = 0, frame = 0
  31              		@ frame_needed = 0, uses_anonymous_args = 0
  32              		@ link register save eliminated.
  33              	.LVL0:
  54:..\..\u8g2\csrc/u8x8_display.c ****       /* 1) set display info struct */
  55:..\..\u8g2\csrc/u8x8_display.c ****       u8x8->display_info = display_info;
  34              		.loc 1 55 0
  35 0000 0160     		str	r1, [r0]
  56:..\..\u8g2\csrc/u8x8_display.c ****       u8x8->x_offset = u8x8->display_info->default_x_offset;
  36              		.loc 1 56 0
  37 0002 8B7C     		ldrb	r3, [r1, #18]
  38 0004 8377     		strb	r3, [r0, #30]
  57:..\..\u8g2\csrc/u8x8_display.c **** }
  39              		.loc 1 57 0
  40              		@ sp needed
  41 0006 7047     		bx	lr
  42              		.cfi_endproc
  43              	.LFE0:
  44              		.size	u8x8_d_helper_display_setup_memory, .-u8x8_d_helper_display_setup_memory
  45              		.section	.text.u8x8_d_helper_display_init,"ax",%progbits
  46              		.align	2
  47              		.global	u8x8_d_helper_display_init
  48              		.code	16
  49              		.thumb_func
  50              		.type	u8x8_d_helper_display_init, %function
  51              	u8x8_d_helper_display_init:
  52              	.LFB1:
  58:..\..\u8g2\csrc/u8x8_display.c **** 
  59:..\..\u8g2\csrc/u8x8_display.c **** /*
  60:..\..\u8g2\csrc/u8x8_display.c ****   this is a helper function for the U8X8_MSG_DISPLAY_INIT function.
  61:..\..\u8g2\csrc/u8x8_display.c ****   It can be called within the display callback function to carry out the usual standard tasks.
  62:..\..\u8g2\csrc/u8x8_display.c ****   
ARM GAS  C:\Users\arh\AppData\Local\Temp\ccYmWyte.s 			page 3


  63:..\..\u8g2\csrc/u8x8_display.c **** */
  64:..\..\u8g2\csrc/u8x8_display.c **** void u8x8_d_helper_display_init(u8x8_t *u8x8)
  65:..\..\u8g2\csrc/u8x8_display.c **** {
  53              		.loc 1 65 0
  54              		.cfi_startproc
  55              		@ args = 0, pretend = 0, frame = 0
  56              		@ frame_needed = 0, uses_anonymous_args = 0
  57              	.LVL1:
  58 0000 70B5     		push	{r4, r5, r6, lr}
  59              		.cfi_def_cfa_offset 16
  60              		.cfi_offset 4, -16
  61              		.cfi_offset 5, -12
  62              		.cfi_offset 6, -8
  63              		.cfi_offset 14, -4
  64 0002 0400     		movs	r4, r0
  66:..\..\u8g2\csrc/u8x8_display.c ****       /* 2) apply port directions to the GPIO lines and apply default values for the IO lines*/
  67:..\..\u8g2\csrc/u8x8_display.c ****       u8x8_gpio_Init(u8x8);
  65              		.loc 1 67 0
  66 0004 0023     		movs	r3, #0
  67 0006 0022     		movs	r2, #0
  68 0008 2821     		movs	r1, #40
  69 000a 4569     		ldr	r5, [r0, #20]
  70 000c A847     		blx	r5
  71              	.LVL2:
  68:..\..\u8g2\csrc/u8x8_display.c ****       u8x8_cad_Init(u8x8);
  72              		.loc 1 68 0
  73 000e 0023     		movs	r3, #0
  74 0010 0022     		movs	r2, #0
  75 0012 1421     		movs	r1, #20
  76 0014 2000     		movs	r0, r4
  77 0016 E568     		ldr	r5, [r4, #12]
  78 0018 A847     		blx	r5
  79              	.LVL3:
  69:..\..\u8g2\csrc/u8x8_display.c **** 
  70:..\..\u8g2\csrc/u8x8_display.c ****       /* 3) do reset */
  71:..\..\u8g2\csrc/u8x8_display.c ****       u8x8_gpio_SetReset(u8x8, 1);
  80              		.loc 1 71 0
  81 001a 0122     		movs	r2, #1
  82 001c 4B21     		movs	r1, #75
  83 001e 2000     		movs	r0, r4
  84 0020 FFF7FEFF 		bl	u8x8_gpio_call
  85              	.LVL4:
  72:..\..\u8g2\csrc/u8x8_display.c ****       u8x8_gpio_Delay(u8x8, U8X8_MSG_DELAY_MILLI, u8x8->display_info->reset_pulse_width_ms);
  86              		.loc 1 72 0
  87 0024 2368     		ldr	r3, [r4]
  88 0026 1A79     		ldrb	r2, [r3, #4]
  89 0028 2921     		movs	r1, #41
  90 002a 2000     		movs	r0, r4
  91 002c FFF7FEFF 		bl	u8x8_gpio_call
  92              	.LVL5:
  73:..\..\u8g2\csrc/u8x8_display.c ****       u8x8_gpio_SetReset(u8x8, 0);
  93              		.loc 1 73 0
  94 0030 0022     		movs	r2, #0
  95 0032 4B21     		movs	r1, #75
  96 0034 2000     		movs	r0, r4
  97 0036 FFF7FEFF 		bl	u8x8_gpio_call
  98              	.LVL6:
ARM GAS  C:\Users\arh\AppData\Local\Temp\ccYmWyte.s 			page 4


  74:..\..\u8g2\csrc/u8x8_display.c ****       u8x8_gpio_Delay(u8x8, U8X8_MSG_DELAY_MILLI, u8x8->display_info->reset_pulse_width_ms);
  99              		.loc 1 74 0
 100 003a 2368     		ldr	r3, [r4]
 101 003c 1A79     		ldrb	r2, [r3, #4]
 102 003e 2921     		movs	r1, #41
 103 0040 2000     		movs	r0, r4
 104 0042 FFF7FEFF 		bl	u8x8_gpio_call
 105              	.LVL7:
  75:..\..\u8g2\csrc/u8x8_display.c ****       u8x8_gpio_SetReset(u8x8, 1);
 106              		.loc 1 75 0
 107 0046 0122     		movs	r2, #1
 108 0048 4B21     		movs	r1, #75
 109 004a 2000     		movs	r0, r4
 110 004c FFF7FEFF 		bl	u8x8_gpio_call
 111              	.LVL8:
  76:..\..\u8g2\csrc/u8x8_display.c ****       u8x8_gpio_Delay(u8x8, U8X8_MSG_DELAY_MILLI, u8x8->display_info->post_reset_wait_ms);
 112              		.loc 1 76 0
 113 0050 2368     		ldr	r3, [r4]
 114 0052 5A79     		ldrb	r2, [r3, #5]
 115 0054 2921     		movs	r1, #41
 116 0056 2000     		movs	r0, r4
 117 0058 FFF7FEFF 		bl	u8x8_gpio_call
 118              	.LVL9:
  77:..\..\u8g2\csrc/u8x8_display.c **** }    
 119              		.loc 1 77 0
 120              		@ sp needed
 121              	.LVL10:
 122 005c 70BD     		pop	{r4, r5, r6, pc}
 123              		.cfi_endproc
 124              	.LFE1:
 125              		.size	u8x8_d_helper_display_init, .-u8x8_d_helper_display_init
 126 005e C046     		.section	.text.u8x8_DrawTile,"ax",%progbits
 127              		.align	2
 128              		.global	u8x8_DrawTile
 129              		.code	16
 130              		.thumb_func
 131              		.type	u8x8_DrawTile, %function
 132              	u8x8_DrawTile:
 133              	.LFB2:
  78:..\..\u8g2\csrc/u8x8_display.c **** 
  79:..\..\u8g2\csrc/u8x8_display.c **** /*==========================================*/
  80:..\..\u8g2\csrc/u8x8_display.c **** /* official functions */
  81:..\..\u8g2\csrc/u8x8_display.c **** 
  82:..\..\u8g2\csrc/u8x8_display.c **** uint8_t u8x8_DrawTile(u8x8_t *u8x8, uint8_t x, uint8_t y, uint8_t cnt, uint8_t *tile_ptr)
  83:..\..\u8g2\csrc/u8x8_display.c **** {
 134              		.loc 1 83 0
 135              		.cfi_startproc
 136              		@ args = 4, pretend = 0, frame = 8
 137              		@ frame_needed = 0, uses_anonymous_args = 0
 138              	.LVL11:
 139 0000 10B5     		push	{r4, lr}
 140              		.cfi_def_cfa_offset 8
 141              		.cfi_offset 4, -8
 142              		.cfi_offset 14, -4
 143 0002 82B0     		sub	sp, sp, #8
 144              		.cfi_def_cfa_offset 16
  84:..\..\u8g2\csrc/u8x8_display.c ****   u8x8_tile_t tile;
ARM GAS  C:\Users\arh\AppData\Local\Temp\ccYmWyte.s 			page 5


  85:..\..\u8g2\csrc/u8x8_display.c ****   tile.x_pos = x;
 145              		.loc 1 85 0
 146 0004 6C46     		mov	r4, sp
 147 0006 6171     		strb	r1, [r4, #5]
  86:..\..\u8g2\csrc/u8x8_display.c ****   tile.y_pos = y;
 148              		.loc 1 86 0
 149 0008 A271     		strb	r2, [r4, #6]
  87:..\..\u8g2\csrc/u8x8_display.c ****   tile.cnt = cnt;
 150              		.loc 1 87 0
 151 000a 2371     		strb	r3, [r4, #4]
  88:..\..\u8g2\csrc/u8x8_display.c ****   tile.tile_ptr = tile_ptr;
 152              		.loc 1 88 0
 153 000c 049B     		ldr	r3, [sp, #16]
 154              	.LVL12:
 155 000e 0093     		str	r3, [sp]
  89:..\..\u8g2\csrc/u8x8_display.c ****   return u8x8->display_cb(u8x8, U8X8_MSG_DISPLAY_DRAW_TILE, 1, (void *)&tile);
 156              		.loc 1 89 0
 157 0010 8468     		ldr	r4, [r0, #8]
 158              	.LVL13:
 159 0012 6B46     		mov	r3, sp
 160 0014 0122     		movs	r2, #1
 161              	.LVL14:
 162 0016 0F21     		movs	r1, #15
 163              	.LVL15:
 164 0018 A047     		blx	r4
 165              	.LVL16:
  90:..\..\u8g2\csrc/u8x8_display.c **** }
 166              		.loc 1 90 0
 167 001a 02B0     		add	sp, sp, #8
 168              		@ sp needed
 169 001c 10BD     		pop	{r4, pc}
 170              		.cfi_endproc
 171              	.LFE2:
 172              		.size	u8x8_DrawTile, .-u8x8_DrawTile
 173 001e C046     		.section	.text.u8x8_SetupMemory,"ax",%progbits
 174              		.align	2
 175              		.global	u8x8_SetupMemory
 176              		.code	16
 177              		.thumb_func
 178              		.type	u8x8_SetupMemory, %function
 179              	u8x8_SetupMemory:
 180              	.LFB3:
  91:..\..\u8g2\csrc/u8x8_display.c **** 
  92:..\..\u8g2\csrc/u8x8_display.c **** /* should be implemented as macro */
  93:..\..\u8g2\csrc/u8x8_display.c **** void u8x8_SetupMemory(u8x8_t *u8x8)
  94:..\..\u8g2\csrc/u8x8_display.c **** {
 181              		.loc 1 94 0
 182              		.cfi_startproc
 183              		@ args = 0, pretend = 0, frame = 0
 184              		@ frame_needed = 0, uses_anonymous_args = 0
 185              	.LVL17:
 186 0000 10B5     		push	{r4, lr}
 187              		.cfi_def_cfa_offset 8
 188              		.cfi_offset 4, -8
 189              		.cfi_offset 14, -4
  95:..\..\u8g2\csrc/u8x8_display.c ****   u8x8->display_cb(u8x8, U8X8_MSG_DISPLAY_SETUP_MEMORY, 0, NULL);  
 190              		.loc 1 95 0
ARM GAS  C:\Users\arh\AppData\Local\Temp\ccYmWyte.s 			page 6


 191 0002 8468     		ldr	r4, [r0, #8]
 192 0004 0023     		movs	r3, #0
 193 0006 0022     		movs	r2, #0
 194 0008 0921     		movs	r1, #9
 195 000a A047     		blx	r4
 196              	.LVL18:
  96:..\..\u8g2\csrc/u8x8_display.c **** }
 197              		.loc 1 96 0
 198              		@ sp needed
 199 000c 10BD     		pop	{r4, pc}
 200              		.cfi_endproc
 201              	.LFE3:
 202              		.size	u8x8_SetupMemory, .-u8x8_SetupMemory
 203 000e C046     		.section	.text.u8x8_InitDisplay,"ax",%progbits
 204              		.align	2
 205              		.global	u8x8_InitDisplay
 206              		.code	16
 207              		.thumb_func
 208              		.type	u8x8_InitDisplay, %function
 209              	u8x8_InitDisplay:
 210              	.LFB4:
  97:..\..\u8g2\csrc/u8x8_display.c **** 
  98:..\..\u8g2\csrc/u8x8_display.c **** void u8x8_InitDisplay(u8x8_t *u8x8)
  99:..\..\u8g2\csrc/u8x8_display.c **** {
 211              		.loc 1 99 0
 212              		.cfi_startproc
 213              		@ args = 0, pretend = 0, frame = 0
 214              		@ frame_needed = 0, uses_anonymous_args = 0
 215              	.LVL19:
 216 0000 10B5     		push	{r4, lr}
 217              		.cfi_def_cfa_offset 8
 218              		.cfi_offset 4, -8
 219              		.cfi_offset 14, -4
 100:..\..\u8g2\csrc/u8x8_display.c ****   u8x8->display_cb(u8x8, U8X8_MSG_DISPLAY_INIT, 0, NULL);  
 220              		.loc 1 100 0
 221 0002 8468     		ldr	r4, [r0, #8]
 222 0004 0023     		movs	r3, #0
 223 0006 0022     		movs	r2, #0
 224 0008 0A21     		movs	r1, #10
 225 000a A047     		blx	r4
 226              	.LVL20:
 101:..\..\u8g2\csrc/u8x8_display.c **** }
 227              		.loc 1 101 0
 228              		@ sp needed
 229 000c 10BD     		pop	{r4, pc}
 230              		.cfi_endproc
 231              	.LFE4:
 232              		.size	u8x8_InitDisplay, .-u8x8_InitDisplay
 233 000e C046     		.section	.text.u8x8_SetPowerSave,"ax",%progbits
 234              		.align	2
 235              		.global	u8x8_SetPowerSave
 236              		.code	16
 237              		.thumb_func
 238              		.type	u8x8_SetPowerSave, %function
 239              	u8x8_SetPowerSave:
 240              	.LFB5:
 102:..\..\u8g2\csrc/u8x8_display.c **** 
ARM GAS  C:\Users\arh\AppData\Local\Temp\ccYmWyte.s 			page 7


 103:..\..\u8g2\csrc/u8x8_display.c **** void u8x8_SetPowerSave(u8x8_t *u8x8, uint8_t is_enable)
 104:..\..\u8g2\csrc/u8x8_display.c **** {
 241              		.loc 1 104 0
 242              		.cfi_startproc
 243              		@ args = 0, pretend = 0, frame = 0
 244              		@ frame_needed = 0, uses_anonymous_args = 0
 245              	.LVL21:
 246 0000 10B5     		push	{r4, lr}
 247              		.cfi_def_cfa_offset 8
 248              		.cfi_offset 4, -8
 249              		.cfi_offset 14, -4
 250 0002 0A00     		movs	r2, r1
 105:..\..\u8g2\csrc/u8x8_display.c ****   u8x8->display_cb(u8x8, U8X8_MSG_DISPLAY_SET_POWER_SAVE, is_enable, NULL);  
 251              		.loc 1 105 0
 252 0004 8468     		ldr	r4, [r0, #8]
 253 0006 0023     		movs	r3, #0
 254 0008 0B21     		movs	r1, #11
 255              	.LVL22:
 256 000a A047     		blx	r4
 257              	.LVL23:
 106:..\..\u8g2\csrc/u8x8_display.c **** }
 258              		.loc 1 106 0
 259              		@ sp needed
 260 000c 10BD     		pop	{r4, pc}
 261              		.cfi_endproc
 262              	.LFE5:
 263              		.size	u8x8_SetPowerSave, .-u8x8_SetPowerSave
 264 000e C046     		.section	.text.u8x8_SetFlipMode,"ax",%progbits
 265              		.align	2
 266              		.global	u8x8_SetFlipMode
 267              		.code	16
 268              		.thumb_func
 269              		.type	u8x8_SetFlipMode, %function
 270              	u8x8_SetFlipMode:
 271              	.LFB6:
 107:..\..\u8g2\csrc/u8x8_display.c **** 
 108:..\..\u8g2\csrc/u8x8_display.c **** void u8x8_SetFlipMode(u8x8_t *u8x8, uint8_t mode)
 109:..\..\u8g2\csrc/u8x8_display.c **** {
 272              		.loc 1 109 0
 273              		.cfi_startproc
 274              		@ args = 0, pretend = 0, frame = 0
 275              		@ frame_needed = 0, uses_anonymous_args = 0
 276              	.LVL24:
 277 0000 10B5     		push	{r4, lr}
 278              		.cfi_def_cfa_offset 8
 279              		.cfi_offset 4, -8
 280              		.cfi_offset 14, -4
 281 0002 0A00     		movs	r2, r1
 110:..\..\u8g2\csrc/u8x8_display.c ****   u8x8->display_cb(u8x8, U8X8_MSG_DISPLAY_SET_FLIP_MODE, mode, NULL);  
 282              		.loc 1 110 0
 283 0004 8468     		ldr	r4, [r0, #8]
 284 0006 0023     		movs	r3, #0
 285 0008 0D21     		movs	r1, #13
 286              	.LVL25:
 287 000a A047     		blx	r4
 288              	.LVL26:
 111:..\..\u8g2\csrc/u8x8_display.c **** }
ARM GAS  C:\Users\arh\AppData\Local\Temp\ccYmWyte.s 			page 8


 289              		.loc 1 111 0
 290              		@ sp needed
 291 000c 10BD     		pop	{r4, pc}
 292              		.cfi_endproc
 293              	.LFE6:
 294              		.size	u8x8_SetFlipMode, .-u8x8_SetFlipMode
 295 000e C046     		.section	.text.u8x8_SetContrast,"ax",%progbits
 296              		.align	2
 297              		.global	u8x8_SetContrast
 298              		.code	16
 299              		.thumb_func
 300              		.type	u8x8_SetContrast, %function
 301              	u8x8_SetContrast:
 302              	.LFB7:
 112:..\..\u8g2\csrc/u8x8_display.c **** 
 113:..\..\u8g2\csrc/u8x8_display.c **** void u8x8_SetContrast(u8x8_t *u8x8, uint8_t value)
 114:..\..\u8g2\csrc/u8x8_display.c **** {
 303              		.loc 1 114 0
 304              		.cfi_startproc
 305              		@ args = 0, pretend = 0, frame = 0
 306              		@ frame_needed = 0, uses_anonymous_args = 0
 307              	.LVL27:
 308 0000 10B5     		push	{r4, lr}
 309              		.cfi_def_cfa_offset 8
 310              		.cfi_offset 4, -8
 311              		.cfi_offset 14, -4
 312 0002 0A00     		movs	r2, r1
 115:..\..\u8g2\csrc/u8x8_display.c ****   u8x8->display_cb(u8x8, U8X8_MSG_DISPLAY_SET_CONTRAST, value, NULL);  
 313              		.loc 1 115 0
 314 0004 8468     		ldr	r4, [r0, #8]
 315 0006 0023     		movs	r3, #0
 316 0008 0E21     		movs	r1, #14
 317              	.LVL28:
 318 000a A047     		blx	r4
 319              	.LVL29:
 116:..\..\u8g2\csrc/u8x8_display.c **** }
 320              		.loc 1 116 0
 321              		@ sp needed
 322 000c 10BD     		pop	{r4, pc}
 323              		.cfi_endproc
 324              	.LFE7:
 325              		.size	u8x8_SetContrast, .-u8x8_SetContrast
 326 000e C046     		.section	.text.u8x8_RefreshDisplay,"ax",%progbits
 327              		.align	2
 328              		.global	u8x8_RefreshDisplay
 329              		.code	16
 330              		.thumb_func
 331              		.type	u8x8_RefreshDisplay, %function
 332              	u8x8_RefreshDisplay:
 333              	.LFB8:
 117:..\..\u8g2\csrc/u8x8_display.c **** 
 118:..\..\u8g2\csrc/u8x8_display.c **** void u8x8_RefreshDisplay(u8x8_t *u8x8)
 119:..\..\u8g2\csrc/u8x8_display.c **** {
 334              		.loc 1 119 0
 335              		.cfi_startproc
 336              		@ args = 0, pretend = 0, frame = 0
 337              		@ frame_needed = 0, uses_anonymous_args = 0
ARM GAS  C:\Users\arh\AppData\Local\Temp\ccYmWyte.s 			page 9


 338              	.LVL30:
 339 0000 10B5     		push	{r4, lr}
 340              		.cfi_def_cfa_offset 8
 341              		.cfi_offset 4, -8
 342              		.cfi_offset 14, -4
 120:..\..\u8g2\csrc/u8x8_display.c ****   u8x8->display_cb(u8x8, U8X8_MSG_DISPLAY_REFRESH, 0, NULL);  
 343              		.loc 1 120 0
 344 0002 8468     		ldr	r4, [r0, #8]
 345 0004 0023     		movs	r3, #0
 346 0006 0022     		movs	r2, #0
 347 0008 1021     		movs	r1, #16
 348 000a A047     		blx	r4
 349              	.LVL31:
 121:..\..\u8g2\csrc/u8x8_display.c **** }
 350              		.loc 1 121 0
 351              		@ sp needed
 352 000c 10BD     		pop	{r4, pc}
 353              		.cfi_endproc
 354              	.LFE8:
 355              		.size	u8x8_RefreshDisplay, .-u8x8_RefreshDisplay
 356 000e C046     		.section	.text.u8x8_ClearDisplayWithTile,"ax",%progbits
 357              		.align	2
 358              		.global	u8x8_ClearDisplayWithTile
 359              		.code	16
 360              		.thumb_func
 361              		.type	u8x8_ClearDisplayWithTile, %function
 362              	u8x8_ClearDisplayWithTile:
 363              	.LFB9:
 122:..\..\u8g2\csrc/u8x8_display.c **** 
 123:..\..\u8g2\csrc/u8x8_display.c **** void u8x8_ClearDisplayWithTile(u8x8_t *u8x8, const uint8_t *buf)
 124:..\..\u8g2\csrc/u8x8_display.c **** {
 364              		.loc 1 124 0
 365              		.cfi_startproc
 366              		@ args = 0, pretend = 0, frame = 8
 367              		@ frame_needed = 0, uses_anonymous_args = 0
 368              	.LVL32:
 369 0000 70B5     		push	{r4, r5, r6, lr}
 370              		.cfi_def_cfa_offset 16
 371              		.cfi_offset 4, -16
 372              		.cfi_offset 5, -12
 373              		.cfi_offset 6, -8
 374              		.cfi_offset 14, -4
 375 0002 82B0     		sub	sp, sp, #8
 376              		.cfi_def_cfa_offset 24
 377 0004 0400     		movs	r4, r0
 125:..\..\u8g2\csrc/u8x8_display.c ****   u8x8_tile_t tile;
 126:..\..\u8g2\csrc/u8x8_display.c ****   uint8_t h;
 127:..\..\u8g2\csrc/u8x8_display.c **** 
 128:..\..\u8g2\csrc/u8x8_display.c ****   tile.x_pos = 0;
 378              		.loc 1 128 0
 379 0006 0023     		movs	r3, #0
 380 0008 6A46     		mov	r2, sp
 381 000a 5371     		strb	r3, [r2, #5]
 129:..\..\u8g2\csrc/u8x8_display.c ****   tile.cnt = 1;
 382              		.loc 1 129 0
 383 000c 0122     		movs	r2, #1
 384 000e 6846     		mov	r0, sp
ARM GAS  C:\Users\arh\AppData\Local\Temp\ccYmWyte.s 			page 10


 385              	.LVL33:
 386 0010 0271     		strb	r2, [r0, #4]
 130:..\..\u8g2\csrc/u8x8_display.c ****   tile.tile_ptr = (uint8_t *)buf;		/* tile_ptr should be const, but isn't */
 387              		.loc 1 130 0
 388 0012 0091     		str	r1, [sp]
 131:..\..\u8g2\csrc/u8x8_display.c ****   
 132:..\..\u8g2\csrc/u8x8_display.c ****   h = u8x8->display_info->tile_height;
 389              		.loc 1 132 0
 390 0014 2268     		ldr	r2, [r4]
 391 0016 557C     		ldrb	r5, [r2, #17]
 392              	.LVL34:
 133:..\..\u8g2\csrc/u8x8_display.c ****   tile.y_pos = 0;
 393              		.loc 1 133 0
 394 0018 8371     		strb	r3, [r0, #6]
 395              	.LVL35:
 396              	.L11:
 134:..\..\u8g2\csrc/u8x8_display.c ****   do
 135:..\..\u8g2\csrc/u8x8_display.c ****   {
 136:..\..\u8g2\csrc/u8x8_display.c ****     u8x8->display_cb(u8x8, U8X8_MSG_DISPLAY_DRAW_TILE, u8x8->display_info->tile_width, (void *)&til
 397              		.loc 1 136 0 discriminator 1
 398 001a 2368     		ldr	r3, [r4]
 399 001c 1A7C     		ldrb	r2, [r3, #16]
 400 001e 6B46     		mov	r3, sp
 401 0020 0F21     		movs	r1, #15
 402 0022 2000     		movs	r0, r4
 403 0024 A668     		ldr	r6, [r4, #8]
 404 0026 B047     		blx	r6
 405              	.LVL36:
 137:..\..\u8g2\csrc/u8x8_display.c ****     tile.y_pos++;
 406              		.loc 1 137 0 discriminator 1
 407 0028 6B46     		mov	r3, sp
 408 002a 9B79     		ldrb	r3, [r3, #6]
 409 002c 0133     		adds	r3, r3, #1
 410 002e DBB2     		uxtb	r3, r3
 411 0030 6A46     		mov	r2, sp
 412 0032 9371     		strb	r3, [r2, #6]
 138:..\..\u8g2\csrc/u8x8_display.c ****   } while( tile.y_pos < h );
 413              		.loc 1 138 0 discriminator 1
 414 0034 9D42     		cmp	r5, r3
 415 0036 F0D8     		bhi	.L11
 139:..\..\u8g2\csrc/u8x8_display.c **** }
 416              		.loc 1 139 0
 417 0038 02B0     		add	sp, sp, #8
 418              		@ sp needed
 419              	.LVL37:
 420              	.LVL38:
 421 003a 70BD     		pop	{r4, r5, r6, pc}
 422              		.cfi_endproc
 423              	.LFE9:
 424              		.size	u8x8_ClearDisplayWithTile, .-u8x8_ClearDisplayWithTile
 425              		.section	.text.u8x8_ClearDisplay,"ax",%progbits
 426              		.align	2
 427              		.global	u8x8_ClearDisplay
 428              		.code	16
 429              		.thumb_func
 430              		.type	u8x8_ClearDisplay, %function
 431              	u8x8_ClearDisplay:
ARM GAS  C:\Users\arh\AppData\Local\Temp\ccYmWyte.s 			page 11


 432              	.LFB10:
 140:..\..\u8g2\csrc/u8x8_display.c **** 
 141:..\..\u8g2\csrc/u8x8_display.c **** void u8x8_ClearDisplay(u8x8_t *u8x8)
 142:..\..\u8g2\csrc/u8x8_display.c **** {
 433              		.loc 1 142 0
 434              		.cfi_startproc
 435              		@ args = 0, pretend = 0, frame = 8
 436              		@ frame_needed = 0, uses_anonymous_args = 0
 437              	.LVL39:
 438 0000 10B5     		push	{r4, lr}
 439              		.cfi_def_cfa_offset 8
 440              		.cfi_offset 4, -8
 441              		.cfi_offset 14, -4
 442 0002 82B0     		sub	sp, sp, #8
 443              		.cfi_def_cfa_offset 16
 444 0004 0400     		movs	r4, r0
 143:..\..\u8g2\csrc/u8x8_display.c ****   uint8_t buf[8] = { 0, 0, 0, 0, 0, 0, 0, 0 };
 445              		.loc 1 143 0
 446 0006 0822     		movs	r2, #8
 447 0008 0021     		movs	r1, #0
 448 000a 6846     		mov	r0, sp
 449              	.LVL40:
 450 000c FFF7FEFF 		bl	memset
 451              	.LVL41:
 144:..\..\u8g2\csrc/u8x8_display.c ****   u8x8_ClearDisplayWithTile(u8x8, buf);
 452              		.loc 1 144 0
 453 0010 6946     		mov	r1, sp
 454 0012 2000     		movs	r0, r4
 455 0014 FFF7FEFF 		bl	u8x8_ClearDisplayWithTile
 456              	.LVL42:
 145:..\..\u8g2\csrc/u8x8_display.c **** }
 457              		.loc 1 145 0
 458 0018 02B0     		add	sp, sp, #8
 459              		@ sp needed
 460              	.LVL43:
 461 001a 10BD     		pop	{r4, pc}
 462              		.cfi_endproc
 463              	.LFE10:
 464              		.size	u8x8_ClearDisplay, .-u8x8_ClearDisplay
 465              		.section	.text.u8x8_FillDisplay,"ax",%progbits
 466              		.align	2
 467              		.global	u8x8_FillDisplay
 468              		.code	16
 469              		.thumb_func
 470              		.type	u8x8_FillDisplay, %function
 471              	u8x8_FillDisplay:
 472              	.LFB11:
 146:..\..\u8g2\csrc/u8x8_display.c **** 
 147:..\..\u8g2\csrc/u8x8_display.c **** void u8x8_FillDisplay(u8x8_t *u8x8)
 148:..\..\u8g2\csrc/u8x8_display.c **** {
 473              		.loc 1 148 0
 474              		.cfi_startproc
 475              		@ args = 0, pretend = 0, frame = 8
 476              		@ frame_needed = 0, uses_anonymous_args = 0
 477              	.LVL44:
 478 0000 10B5     		push	{r4, lr}
 479              		.cfi_def_cfa_offset 8
ARM GAS  C:\Users\arh\AppData\Local\Temp\ccYmWyte.s 			page 12


 480              		.cfi_offset 4, -8
 481              		.cfi_offset 14, -4
 482 0002 82B0     		sub	sp, sp, #8
 483              		.cfi_def_cfa_offset 16
 484 0004 0400     		movs	r4, r0
 149:..\..\u8g2\csrc/u8x8_display.c ****   uint8_t buf[8] = { 255, 255, 255, 255, 255, 255, 255, 255 };
 485              		.loc 1 149 0
 486 0006 0822     		movs	r2, #8
 487 0008 0449     		ldr	r1, .L14
 488 000a 6846     		mov	r0, sp
 489              	.LVL45:
 490 000c FFF7FEFF 		bl	memcpy
 491              	.LVL46:
 150:..\..\u8g2\csrc/u8x8_display.c ****   u8x8_ClearDisplayWithTile(u8x8, buf);
 492              		.loc 1 150 0
 493 0010 6946     		mov	r1, sp
 494 0012 2000     		movs	r0, r4
 495 0014 FFF7FEFF 		bl	u8x8_ClearDisplayWithTile
 496              	.LVL47:
 151:..\..\u8g2\csrc/u8x8_display.c **** }
 497              		.loc 1 151 0
 498 0018 02B0     		add	sp, sp, #8
 499              		@ sp needed
 500              	.LVL48:
 501 001a 10BD     		pop	{r4, pc}
 502              	.L15:
 503              		.align	2
 504              	.L14:
 505 001c 00000000 		.word	.LANCHOR0
 506              		.cfi_endproc
 507              	.LFE11:
 508              		.size	u8x8_FillDisplay, .-u8x8_FillDisplay
 509              		.section	.rodata
 510              		.align	2
 511              		.set	.LANCHOR0,. + 0
 512              	.LC0:
 513 0000 FF       		.byte	-1
 514 0001 FF       		.byte	-1
 515 0002 FF       		.byte	-1
 516 0003 FF       		.byte	-1
 517 0004 FF       		.byte	-1
 518 0005 FF       		.byte	-1
 519 0006 FF       		.byte	-1
 520 0007 FF       		.byte	-1
 521              		.text
 522              	.Letext0:
 523              		.file 2 "c:\\program files (x86)\\cypress\\psoc creator\\4.1\\psoc creator\\import\\gnu\\arm\\5.4.
 524              		.file 3 "c:\\program files (x86)\\cypress\\psoc creator\\4.1\\psoc creator\\import\\gnu\\arm\\5.4.
 525              		.file 4 "..\\..\\u8g2\\csrc\\u8x8.h"