ARM GAS  C:\Users\Alan\AppData\Local\Temp\cc0jR1Gr.s 			page 1


   1              		.syntax unified
   2              		.cpu cortex-m0
   3              		.fpu softvfp
   4              		.eabi_attribute 20, 1
   5              		.eabi_attribute 21, 1
   6              		.eabi_attribute 23, 3
   7              		.eabi_attribute 24, 1
   8              		.eabi_attribute 25, 1
   9              		.eabi_attribute 26, 1
  10              		.eabi_attribute 30, 1
  11              		.eabi_attribute 34, 0
  12              		.eabi_attribute 18, 4
  13              		.thumb
  14              		.syntax unified
  15              		.file	"u8x8_d_uc1610.c"
  16              		.text
  17              	.Ltext0:
  18              		.cfi_sections	.debug_frame
  19              		.section	.text.u8x8_convert_tile_for_uc1610,"ax",%progbits
  20              		.align	2
  21              		.code	16
  22              		.thumb_func
  23              		.type	u8x8_convert_tile_for_uc1610, %function
  24              	u8x8_convert_tile_for_uc1610:
  25              	.LFB0:
  26              		.file 1 "..\\..\\u8g2\\csrc\\u8x8_d_uc1610.c"
   1:..\..\u8g2\csrc/u8x8_d_uc1610.c **** /*
   2:..\..\u8g2\csrc/u8x8_d_uc1610.c **** 
   3:..\..\u8g2\csrc/u8x8_d_uc1610.c ****   u8x8_d_uc1610.c
   4:..\..\u8g2\csrc/u8x8_d_uc1610.c ****   
   5:..\..\u8g2\csrc/u8x8_d_uc1610.c ****   Universal 8bit Graphics Library (https://github.com/olikraus/u8g2/)
   6:..\..\u8g2\csrc/u8x8_d_uc1610.c **** 
   7:..\..\u8g2\csrc/u8x8_d_uc1610.c ****   Copyright (c) 2016, olikraus@gmail.com
   8:..\..\u8g2\csrc/u8x8_d_uc1610.c ****   All rights reserved.
   9:..\..\u8g2\csrc/u8x8_d_uc1610.c **** 
  10:..\..\u8g2\csrc/u8x8_d_uc1610.c ****   Redistribution and use in source and binary forms, with or without modification, 
  11:..\..\u8g2\csrc/u8x8_d_uc1610.c ****   are permitted provided that the following conditions are met:
  12:..\..\u8g2\csrc/u8x8_d_uc1610.c **** 
  13:..\..\u8g2\csrc/u8x8_d_uc1610.c ****   * Redistributions of source code must retain the above copyright notice, this list 
  14:..\..\u8g2\csrc/u8x8_d_uc1610.c ****     of conditions and the following disclaimer.
  15:..\..\u8g2\csrc/u8x8_d_uc1610.c ****     
  16:..\..\u8g2\csrc/u8x8_d_uc1610.c ****   * Redistributions in binary form must reproduce the above copyright notice, this 
  17:..\..\u8g2\csrc/u8x8_d_uc1610.c ****     list of conditions and the following disclaimer in the documentation and/or other 
  18:..\..\u8g2\csrc/u8x8_d_uc1610.c ****     materials provided with the distribution.
  19:..\..\u8g2\csrc/u8x8_d_uc1610.c **** 
  20:..\..\u8g2\csrc/u8x8_d_uc1610.c ****   THIS SOFTWARE IS PROVIDED BY THE COPYRIGHT HOLDERS AND 
  21:..\..\u8g2\csrc/u8x8_d_uc1610.c ****   CONTRIBUTORS "AS IS" AND ANY EXPRESS OR IMPLIED WARRANTIES, 
  22:..\..\u8g2\csrc/u8x8_d_uc1610.c ****   INCLUDING, BUT NOT LIMITED TO, THE IMPLIED WARRANTIES OF 
  23:..\..\u8g2\csrc/u8x8_d_uc1610.c ****   MERCHANTABILITY AND FITNESS FOR A PARTICULAR PURPOSE ARE 
  24:..\..\u8g2\csrc/u8x8_d_uc1610.c ****   DISCLAIMED. IN NO EVENT SHALL THE COPYRIGHT HOLDER OR 
  25:..\..\u8g2\csrc/u8x8_d_uc1610.c ****   CONTRIBUTORS BE LIABLE FOR ANY DIRECT, INDIRECT, INCIDENTAL, 
  26:..\..\u8g2\csrc/u8x8_d_uc1610.c ****   SPECIAL, EXEMPLARY, OR CONSEQUENTIAL DAMAGES (INCLUDING, BUT 
  27:..\..\u8g2\csrc/u8x8_d_uc1610.c ****   NOT LIMITED TO, PROCUREMENT OF SUBSTITUTE GOODS OR SERVICES; 
  28:..\..\u8g2\csrc/u8x8_d_uc1610.c ****   LOSS OF USE, DATA, OR PROFITS; OR BUSINESS INTERRUPTION) HOWEVER 
  29:..\..\u8g2\csrc/u8x8_d_uc1610.c ****   CAUSED AND ON ANY THEORY OF LIABILITY, WHETHER IN CONTRACT, 
  30:..\..\u8g2\csrc/u8x8_d_uc1610.c ****   STRICT LIABILITY, OR TORT (INCLUDING NEGLIGENCE OR OTHERWISE) 
  31:..\..\u8g2\csrc/u8x8_d_uc1610.c ****   ARISING IN ANY WAY OUT OF THE USE OF THIS SOFTWARE, EVEN IF 
ARM GAS  C:\Users\Alan\AppData\Local\Temp\cc0jR1Gr.s 			page 2


  32:..\..\u8g2\csrc/u8x8_d_uc1610.c ****   ADVISED OF THE POSSIBILITY OF SUCH DAMAGE.  
  33:..\..\u8g2\csrc/u8x8_d_uc1610.c **** 
  34:..\..\u8g2\csrc/u8x8_d_uc1610.c ****   
  35:..\..\u8g2\csrc/u8x8_d_uc1610.c ****   cad001
  36:..\..\u8g2\csrc/u8x8_d_uc1610.c ****   
  37:..\..\u8g2\csrc/u8x8_d_uc1610.c **** */
  38:..\..\u8g2\csrc/u8x8_d_uc1610.c **** #include "u8x8.h"
  39:..\..\u8g2\csrc/u8x8_d_uc1610.c **** 
  40:..\..\u8g2\csrc/u8x8_d_uc1610.c **** 
  41:..\..\u8g2\csrc/u8x8_d_uc1610.c **** 
  42:..\..\u8g2\csrc/u8x8_d_uc1610.c **** 
  43:..\..\u8g2\csrc/u8x8_d_uc1610.c **** static const uint8_t u8x8_d_uc1610_dogxl160_init_seq[] = {
  44:..\..\u8g2\csrc/u8x8_d_uc1610.c ****     
  45:..\..\u8g2\csrc/u8x8_d_uc1610.c ****   U8X8_START_TRANSFER(),             	/* enable chip, delay is part of the transfer start */
  46:..\..\u8g2\csrc/u8x8_d_uc1610.c **** 
  47:..\..\u8g2\csrc/u8x8_d_uc1610.c ****   U8X8_CA(0x0f1, 0x067),		/* set COM end (display height-1) */
  48:..\..\u8g2\csrc/u8x8_d_uc1610.c ****   U8X8_C(0x0c0),            			/* SEG & COM normal */
  49:..\..\u8g2\csrc/u8x8_d_uc1610.c ****   U8X8_C(0x040),            			/* set scroll line lsb to zero */
  50:..\..\u8g2\csrc/u8x8_d_uc1610.c ****   U8X8_C(0x050),            			/* set scroll line msb to zero */
  51:..\..\u8g2\csrc/u8x8_d_uc1610.c ****   U8X8_C(0x02b),            			/* set panelloading */
  52:..\..\u8g2\csrc/u8x8_d_uc1610.c ****   U8X8_C(0x0eb),            			/* set bias 1/2 */  
  53:..\..\u8g2\csrc/u8x8_d_uc1610.c ****   U8X8_CA(0x081, 0x05f),            	/* set contrast */
  54:..\..\u8g2\csrc/u8x8_d_uc1610.c ****   
  55:..\..\u8g2\csrc/u8x8_d_uc1610.c ****   /*
  56:..\..\u8g2\csrc/u8x8_d_uc1610.c ****     AC0:	0: stop at boundary, 1: increment by one
  57:..\..\u8g2\csrc/u8x8_d_uc1610.c ****     AC1: 	0: first column then page, 1: first page, then column increment
  58:..\..\u8g2\csrc/u8x8_d_uc1610.c ****     AC2:	0: increment page adr, 1: decrement page adr.
  59:..\..\u8g2\csrc/u8x8_d_uc1610.c ****   */
  60:..\..\u8g2\csrc/u8x8_d_uc1610.c ****   U8X8_C(0x08b),            			/* set auto increment, low bits are AC2 AC1 AC0 */
  61:..\..\u8g2\csrc/u8x8_d_uc1610.c ****   
  62:..\..\u8g2\csrc/u8x8_d_uc1610.c ****   /*
  63:..\..\u8g2\csrc/u8x8_d_uc1610.c ****     LC0:	0
  64:..\..\u8g2\csrc/u8x8_d_uc1610.c ****     MX:	Mirror X
  65:..\..\u8g2\csrc/u8x8_d_uc1610.c ****     MY:	Mirror Y
  66:..\..\u8g2\csrc/u8x8_d_uc1610.c ****   */  
  67:..\..\u8g2\csrc/u8x8_d_uc1610.c ****   U8X8_C(0x0c0),            			/* low bits are MY, MX, LC0 */
  68:..\..\u8g2\csrc/u8x8_d_uc1610.c ****   
  69:..\..\u8g2\csrc/u8x8_d_uc1610.c ****   U8X8_C(0x0f8),            			// window mode off
  70:..\..\u8g2\csrc/u8x8_d_uc1610.c ****   U8X8_C(0x010),		                // col high
  71:..\..\u8g2\csrc/u8x8_d_uc1610.c ****   U8X8_C(0x000),		                // col low
  72:..\..\u8g2\csrc/u8x8_d_uc1610.c ****   U8X8_C(0x0b0),		                // page
  73:..\..\u8g2\csrc/u8x8_d_uc1610.c ****   
  74:..\..\u8g2\csrc/u8x8_d_uc1610.c ****   U8X8_C(0x0a6),            			/* set normal pixel mode (not inverse) */
  75:..\..\u8g2\csrc/u8x8_d_uc1610.c ****   U8X8_C(0x0a4),            			/* set normal pixel mode (not all on) */
  76:..\..\u8g2\csrc/u8x8_d_uc1610.c **** 
  77:..\..\u8g2\csrc/u8x8_d_uc1610.c ****   /* test code 
  78:..\..\u8g2\csrc/u8x8_d_uc1610.c ****   U8X8_C(0x0af),		                // display on 
  79:..\..\u8g2\csrc/u8x8_d_uc1610.c ****   U8X8_C(0x0f8),            			// window mode off
  80:..\..\u8g2\csrc/u8x8_d_uc1610.c ****   U8X8_CA(0x0f4, 0),			// set window
  81:..\..\u8g2\csrc/u8x8_d_uc1610.c ****   U8X8_CA(0x0f5, 0),
  82:..\..\u8g2\csrc/u8x8_d_uc1610.c ****   U8X8_CA(0x0f6, 4),
  83:..\..\u8g2\csrc/u8x8_d_uc1610.c ****   U8X8_CA(0x0f7, 1),
  84:..\..\u8g2\csrc/u8x8_d_uc1610.c ****   U8X8_C(0x0f9),            			// window mode on
  85:..\..\u8g2\csrc/u8x8_d_uc1610.c ****   U8X8_D1(0x03),
  86:..\..\u8g2\csrc/u8x8_d_uc1610.c ****   U8X8_D1(0x0c0),
  87:..\..\u8g2\csrc/u8x8_d_uc1610.c ****   U8X8_D1(0x0ff),
  88:..\..\u8g2\csrc/u8x8_d_uc1610.c ****   U8X8_D1(0x0ff),
ARM GAS  C:\Users\Alan\AppData\Local\Temp\cc0jR1Gr.s 			page 3


  89:..\..\u8g2\csrc/u8x8_d_uc1610.c ****   U8X8_D1(0x0ff),
  90:..\..\u8g2\csrc/u8x8_d_uc1610.c ****   U8X8_D1(0x0ff),
  91:..\..\u8g2\csrc/u8x8_d_uc1610.c ****   U8X8_D1(0x0ff),
  92:..\..\u8g2\csrc/u8x8_d_uc1610.c ****   U8X8_D1(0x0ff),
  93:..\..\u8g2\csrc/u8x8_d_uc1610.c ****   */
  94:..\..\u8g2\csrc/u8x8_d_uc1610.c ****   
  95:..\..\u8g2\csrc/u8x8_d_uc1610.c ****   U8X8_END_TRANSFER(),             	/* disable chip */
  96:..\..\u8g2\csrc/u8x8_d_uc1610.c ****   U8X8_END()             			/* end of sequence */
  97:..\..\u8g2\csrc/u8x8_d_uc1610.c **** };
  98:..\..\u8g2\csrc/u8x8_d_uc1610.c **** 
  99:..\..\u8g2\csrc/u8x8_d_uc1610.c **** static const uint8_t u8x8_d_uc1610_dogxl160_powersave0_seq[] = {
 100:..\..\u8g2\csrc/u8x8_d_uc1610.c ****   U8X8_START_TRANSFER(),             	/* enable chip, delay is part of the transfer start */
 101:..\..\u8g2\csrc/u8x8_d_uc1610.c ****   U8X8_C(0x0af),		                /* display on, UC1610 */
 102:..\..\u8g2\csrc/u8x8_d_uc1610.c ****   U8X8_END_TRANSFER(),             	/* disable chip */
 103:..\..\u8g2\csrc/u8x8_d_uc1610.c ****   U8X8_END()             			/* end of sequence */
 104:..\..\u8g2\csrc/u8x8_d_uc1610.c **** };
 105:..\..\u8g2\csrc/u8x8_d_uc1610.c **** 
 106:..\..\u8g2\csrc/u8x8_d_uc1610.c **** static const uint8_t u8x8_d_uc1610_dogxl160_powersave1_seq[] = {
 107:..\..\u8g2\csrc/u8x8_d_uc1610.c ****   U8X8_START_TRANSFER(),             	/* enable chip, delay is part of the transfer start */
 108:..\..\u8g2\csrc/u8x8_d_uc1610.c ****   U8X8_C(0x0ae),		                /* display off,  UC1610 */
 109:..\..\u8g2\csrc/u8x8_d_uc1610.c ****   U8X8_END_TRANSFER(),             	/* disable chip */
 110:..\..\u8g2\csrc/u8x8_d_uc1610.c ****   U8X8_END()             			/* end of sequence */
 111:..\..\u8g2\csrc/u8x8_d_uc1610.c **** };
 112:..\..\u8g2\csrc/u8x8_d_uc1610.c **** 
 113:..\..\u8g2\csrc/u8x8_d_uc1610.c **** static const uint8_t u8x8_d_uc1610_dogxl160_flip0_seq[] = {
 114:..\..\u8g2\csrc/u8x8_d_uc1610.c ****   U8X8_START_TRANSFER(),             	/* enable chip, delay is part of the transfer start */
 115:..\..\u8g2\csrc/u8x8_d_uc1610.c ****   /*
 116:..\..\u8g2\csrc/u8x8_d_uc1610.c ****     LC0:	0
 117:..\..\u8g2\csrc/u8x8_d_uc1610.c ****     MX:	Mirror X
 118:..\..\u8g2\csrc/u8x8_d_uc1610.c ****     MY:	Mirror Y
 119:..\..\u8g2\csrc/u8x8_d_uc1610.c ****   */  
 120:..\..\u8g2\csrc/u8x8_d_uc1610.c ****   U8X8_C(0x0c0),            			/* low bits are MY, MX, LC0 */
 121:..\..\u8g2\csrc/u8x8_d_uc1610.c ****   U8X8_END_TRANSFER(),             	/* disable chip */
 122:..\..\u8g2\csrc/u8x8_d_uc1610.c ****   U8X8_END()             			/* end of sequence */
 123:..\..\u8g2\csrc/u8x8_d_uc1610.c **** };
 124:..\..\u8g2\csrc/u8x8_d_uc1610.c **** 
 125:..\..\u8g2\csrc/u8x8_d_uc1610.c **** static const uint8_t u8x8_d_uc1610_dogxl160_flip1_seq[] = {
 126:..\..\u8g2\csrc/u8x8_d_uc1610.c ****   U8X8_START_TRANSFER(),             	/* enable chip, delay is part of the transfer start */
 127:..\..\u8g2\csrc/u8x8_d_uc1610.c ****   /*
 128:..\..\u8g2\csrc/u8x8_d_uc1610.c ****     LC0:	0
 129:..\..\u8g2\csrc/u8x8_d_uc1610.c ****     MX:	Mirror X
 130:..\..\u8g2\csrc/u8x8_d_uc1610.c ****     MY:	Mirror Y
 131:..\..\u8g2\csrc/u8x8_d_uc1610.c ****   */  
 132:..\..\u8g2\csrc/u8x8_d_uc1610.c ****   U8X8_C(0x0c6),            			/* low bits are MY, MX, LC0 */
 133:..\..\u8g2\csrc/u8x8_d_uc1610.c ****   U8X8_END_TRANSFER(),             	/* disable chip */
 134:..\..\u8g2\csrc/u8x8_d_uc1610.c ****   U8X8_END()             			/* end of sequence */
 135:..\..\u8g2\csrc/u8x8_d_uc1610.c **** };
 136:..\..\u8g2\csrc/u8x8_d_uc1610.c **** 
 137:..\..\u8g2\csrc/u8x8_d_uc1610.c **** 
 138:..\..\u8g2\csrc/u8x8_d_uc1610.c **** /* 
 139:..\..\u8g2\csrc/u8x8_d_uc1610.c ****   UC1610 has two chip select inputs (CS0 and CS1).
 140:..\..\u8g2\csrc/u8x8_d_uc1610.c ****   CS0 is low active, CS1 is high active. It will depend on the display
 141:..\..\u8g2\csrc/u8x8_d_uc1610.c ****   module whether the display has a is low or high active chip select.
 142:..\..\u8g2\csrc/u8x8_d_uc1610.c **** */
 143:..\..\u8g2\csrc/u8x8_d_uc1610.c **** 
 144:..\..\u8g2\csrc/u8x8_d_uc1610.c **** static const u8x8_display_info_t u8x8_uc1610_display_info =
 145:..\..\u8g2\csrc/u8x8_d_uc1610.c **** {
ARM GAS  C:\Users\Alan\AppData\Local\Temp\cc0jR1Gr.s 			page 4


 146:..\..\u8g2\csrc/u8x8_d_uc1610.c ****   /* chip_enable_level = */ 0,
 147:..\..\u8g2\csrc/u8x8_d_uc1610.c ****   /* chip_disable_level = */ 1,
 148:..\..\u8g2\csrc/u8x8_d_uc1610.c ****   
 149:..\..\u8g2\csrc/u8x8_d_uc1610.c ****   /* post_chip_enable_wait_ns = */ 15,
 150:..\..\u8g2\csrc/u8x8_d_uc1610.c ****   /* pre_chip_disable_wait_ns = */ 15,
 151:..\..\u8g2\csrc/u8x8_d_uc1610.c ****   /* reset_pulse_width_ms = */ 1, 
 152:..\..\u8g2\csrc/u8x8_d_uc1610.c ****   /* post_reset_wait_ms = */ 6, 
 153:..\..\u8g2\csrc/u8x8_d_uc1610.c ****   /* sda_setup_time_ns = */ 30,	
 154:..\..\u8g2\csrc/u8x8_d_uc1610.c ****   /* sck_pulse_width_ns = */ 63,	/* half of cycle time (125ns cycle time according to datasheet) --
 155:..\..\u8g2\csrc/u8x8_d_uc1610.c ****   /* sck_clock_hz = */ 8000000UL,	/* since Arduino 1.6.0, the SPI bus speed in Hz. Should be  10000
 156:..\..\u8g2\csrc/u8x8_d_uc1610.c ****   /* spi_mode = */ 0,		/* active high, rising edge */
 157:..\..\u8g2\csrc/u8x8_d_uc1610.c ****   /* i2c_bus_clock_100kHz = */ 4,
 158:..\..\u8g2\csrc/u8x8_d_uc1610.c ****   /* data_setup_time_ns = */ 30,
 159:..\..\u8g2\csrc/u8x8_d_uc1610.c ****   /* write_pulse_width_ns = */ 40,
 160:..\..\u8g2\csrc/u8x8_d_uc1610.c ****   /* tile_width = */ 20,		
 161:..\..\u8g2\csrc/u8x8_d_uc1610.c ****   /* tile_hight = */ 13,		/* height of 13*8=104 pixel */
 162:..\..\u8g2\csrc/u8x8_d_uc1610.c ****   /* default_x_offset = */ 0,
 163:..\..\u8g2\csrc/u8x8_d_uc1610.c ****   /* flipmode_x_offset = */ 0,
 164:..\..\u8g2\csrc/u8x8_d_uc1610.c ****   /* pixel_width = */ 160,
 165:..\..\u8g2\csrc/u8x8_d_uc1610.c ****   /* pixel_height = */ 104
 166:..\..\u8g2\csrc/u8x8_d_uc1610.c **** };
 167:..\..\u8g2\csrc/u8x8_d_uc1610.c **** 
 168:..\..\u8g2\csrc/u8x8_d_uc1610.c **** 
 169:..\..\u8g2\csrc/u8x8_d_uc1610.c **** /*
 170:..\..\u8g2\csrc/u8x8_d_uc1610.c ****   RAM Organization:
 171:..\..\u8g2\csrc/u8x8_d_uc1610.c ****   D0  Pix0
 172:..\..\u8g2\csrc/u8x8_d_uc1610.c ****   D1
 173:..\..\u8g2\csrc/u8x8_d_uc1610.c ****   D2  Pix1
 174:..\..\u8g2\csrc/u8x8_d_uc1610.c ****   D3
 175:..\..\u8g2\csrc/u8x8_d_uc1610.c ****   D4  Pix2
 176:..\..\u8g2\csrc/u8x8_d_uc1610.c ****   D5
 177:..\..\u8g2\csrc/u8x8_d_uc1610.c ****   D6  Pix3
 178:..\..\u8g2\csrc/u8x8_d_uc1610.c ****   D7    
 179:..\..\u8g2\csrc/u8x8_d_uc1610.c ****   D0  Pix4
 180:..\..\u8g2\csrc/u8x8_d_uc1610.c ****   D1
 181:..\..\u8g2\csrc/u8x8_d_uc1610.c ****   D2  Pix5
 182:..\..\u8g2\csrc/u8x8_d_uc1610.c ****   D3
 183:..\..\u8g2\csrc/u8x8_d_uc1610.c ****   D4  Pix6
 184:..\..\u8g2\csrc/u8x8_d_uc1610.c ****   D5
 185:..\..\u8g2\csrc/u8x8_d_uc1610.c ****   D6  Pix7
 186:..\..\u8g2\csrc/u8x8_d_uc1610.c ****   D7    
 187:..\..\u8g2\csrc/u8x8_d_uc1610.c **** 
 188:..\..\u8g2\csrc/u8x8_d_uc1610.c **** 
 189:..\..\u8g2\csrc/u8x8_d_uc1610.c **** */
 190:..\..\u8g2\csrc/u8x8_d_uc1610.c **** static uint8_t *u8x8_convert_tile_for_uc1610(uint8_t *t)
 191:..\..\u8g2\csrc/u8x8_d_uc1610.c **** {
  27              		.loc 1 191 0
  28              		.cfi_startproc
  29              		@ args = 0, pretend = 0, frame = 0
  30              		@ frame_needed = 0, uses_anonymous_args = 0
  31              	.LVL0:
  32 0000 70B5     		push	{r4, r5, r6, lr}
  33              		.cfi_def_cfa_offset 16
  34              		.cfi_offset 4, -16
  35              		.cfi_offset 5, -12
  36              		.cfi_offset 6, -8
  37              		.cfi_offset 14, -4
ARM GAS  C:\Users\Alan\AppData\Local\Temp\cc0jR1Gr.s 			page 5


  38              	.LVL1:
 192:..\..\u8g2\csrc/u8x8_d_uc1610.c ****   uint8_t i;
 193:..\..\u8g2\csrc/u8x8_d_uc1610.c ****   uint16_t r;
 194:..\..\u8g2\csrc/u8x8_d_uc1610.c ****   static uint8_t buf[16];
 195:..\..\u8g2\csrc/u8x8_d_uc1610.c ****   uint8_t *pbuf = buf;
  39              		.loc 1 195 0
  40 0002 094D     		ldr	r5, .L4
 196:..\..\u8g2\csrc/u8x8_d_uc1610.c **** 
 197:..\..\u8g2\csrc/u8x8_d_uc1610.c ****   for( i = 0; i < 8; i++ )
  41              		.loc 1 197 0
  42 0004 0024     		movs	r4, #0
  43 0006 0AE0     		b	.L2
  44              	.LVL2:
  45              	.L3:
 198:..\..\u8g2\csrc/u8x8_d_uc1610.c ****   {
 199:..\..\u8g2\csrc/u8x8_d_uc1610.c ****     r = u8x8_upscale_byte(*t++);
  46              		.loc 1 199 0 discriminator 3
  47 0008 461C     		adds	r6, r0, #1
  48              	.LVL3:
  49 000a 0078     		ldrb	r0, [r0]
  50 000c FFF7FEFF 		bl	u8x8_upscale_byte
  51              	.LVL4:
 200:..\..\u8g2\csrc/u8x8_d_uc1610.c ****     *pbuf++ = r & 255;
  52              		.loc 1 200 0 discriminator 3
  53 0010 2870     		strb	r0, [r5]
 201:..\..\u8g2\csrc/u8x8_d_uc1610.c ****     r >>= 8;
  54              		.loc 1 201 0 discriminator 3
  55 0012 000A     		lsrs	r0, r0, #8
  56              	.LVL5:
 202:..\..\u8g2\csrc/u8x8_d_uc1610.c ****     *pbuf++ = r;
  57              		.loc 1 202 0 discriminator 3
  58 0014 6870     		strb	r0, [r5, #1]
 197:..\..\u8g2\csrc/u8x8_d_uc1610.c ****   {
  59              		.loc 1 197 0 discriminator 3
  60 0016 0134     		adds	r4, r4, #1
  61              	.LVL6:
  62 0018 E4B2     		uxtb	r4, r4
  63              	.LVL7:
  64              		.loc 1 202 0 discriminator 3
  65 001a 0235     		adds	r5, r5, #2
  66              	.LVL8:
 199:..\..\u8g2\csrc/u8x8_d_uc1610.c ****     *pbuf++ = r & 255;
  67              		.loc 1 199 0 discriminator 3
  68 001c 3000     		movs	r0, r6
  69              	.LVL9:
  70              	.L2:
 197:..\..\u8g2\csrc/u8x8_d_uc1610.c ****   {
  71              		.loc 1 197 0 discriminator 1
  72 001e 072C     		cmp	r4, #7
  73 0020 F2D9     		bls	.L3
 203:..\..\u8g2\csrc/u8x8_d_uc1610.c ****   }
 204:..\..\u8g2\csrc/u8x8_d_uc1610.c ****   return buf;
 205:..\..\u8g2\csrc/u8x8_d_uc1610.c **** }
  74              		.loc 1 205 0
  75 0022 0148     		ldr	r0, .L4
  76              	.LVL10:
  77              		@ sp needed
ARM GAS  C:\Users\Alan\AppData\Local\Temp\cc0jR1Gr.s 			page 6


  78              	.LVL11:
  79              	.LVL12:
  80 0024 70BD     		pop	{r4, r5, r6, pc}
  81              	.L5:
  82 0026 C046     		.align	2
  83              	.L4:
  84 0028 00000000 		.word	.LANCHOR0
  85              		.cfi_endproc
  86              	.LFE0:
  87              		.size	u8x8_convert_tile_for_uc1610, .-u8x8_convert_tile_for_uc1610
  88              		.section	.text.u8x8_d_uc1610_ea_dogxl160,"ax",%progbits
  89              		.align	2
  90              		.global	u8x8_d_uc1610_ea_dogxl160
  91              		.code	16
  92              		.thumb_func
  93              		.type	u8x8_d_uc1610_ea_dogxl160, %function
  94              	u8x8_d_uc1610_ea_dogxl160:
  95              	.LFB1:
 206:..\..\u8g2\csrc/u8x8_d_uc1610.c **** 
 207:..\..\u8g2\csrc/u8x8_d_uc1610.c **** uint8_t u8x8_d_uc1610_ea_dogxl160(u8x8_t *u8x8, uint8_t msg, uint8_t arg_int, void *arg_ptr)
 208:..\..\u8g2\csrc/u8x8_d_uc1610.c **** {
  96              		.loc 1 208 0
  97              		.cfi_startproc
  98              		@ args = 0, pretend = 0, frame = 0
  99              		@ frame_needed = 0, uses_anonymous_args = 0
 100              	.LVL13:
 101 0000 F0B5     		push	{r4, r5, r6, r7, lr}
 102              		.cfi_def_cfa_offset 20
 103              		.cfi_offset 4, -20
 104              		.cfi_offset 5, -16
 105              		.cfi_offset 6, -12
 106              		.cfi_offset 7, -8
 107              		.cfi_offset 14, -4
 108 0002 4746     		mov	r7, r8
 109 0004 80B4     		push	{r7}
 110              		.cfi_def_cfa_offset 24
 111              		.cfi_offset 8, -24
 112 0006 0600     		movs	r6, r0
 113 0008 1700     		movs	r7, r2
 114 000a 9846     		mov	r8, r3
 209:..\..\u8g2\csrc/u8x8_d_uc1610.c ****   uint8_t x, c, page;
 210:..\..\u8g2\csrc/u8x8_d_uc1610.c ****   uint8_t *ptr;
 211:..\..\u8g2\csrc/u8x8_d_uc1610.c ****   switch(msg)
 115              		.loc 1 211 0
 116 000c 0939     		subs	r1, r1, #9
 117              	.LVL14:
 118 000e CBB2     		uxtb	r3, r1
 119              	.LVL15:
 120 0010 062B     		cmp	r3, #6
 121 0012 00D9     		bls	.LCB103
 122 0014 91E0     		b	.L19	@long jump
 123              	.LCB103:
 124 0016 9900     		lsls	r1, r3, #2
 125 0018 4A4B     		ldr	r3, .L20
 126 001a 5B58     		ldr	r3, [r3, r1]
 127 001c 9F46     		mov	pc, r3
 128              		.section	.rodata
ARM GAS  C:\Users\Alan\AppData\Local\Temp\cc0jR1Gr.s 			page 7


 129              		.align	2
 130              	.L9:
 131 0000 1E000000 		.word	.L8
 132 0004 28000000 		.word	.L10
 133 0008 3A000000 		.word	.L11
 134 000c 3A010000 		.word	.L19
 135 0010 56000000 		.word	.L12
 136 0014 7E000000 		.word	.L13
 137 0018 9C000000 		.word	.L14
 138              		.section	.text.u8x8_d_uc1610_ea_dogxl160
 139              	.L8:
 212:..\..\u8g2\csrc/u8x8_d_uc1610.c ****   {
 213:..\..\u8g2\csrc/u8x8_d_uc1610.c ****     case U8X8_MSG_DISPLAY_SETUP_MEMORY:
 214:..\..\u8g2\csrc/u8x8_d_uc1610.c ****       u8x8_d_helper_display_setup_memory(u8x8, &u8x8_uc1610_display_info);
 140              		.loc 1 214 0
 141 001e 4A49     		ldr	r1, .L20+4
 142 0020 FFF7FEFF 		bl	u8x8_d_helper_display_setup_memory
 143              	.LVL16:
 215:..\..\u8g2\csrc/u8x8_d_uc1610.c ****       break;
 216:..\..\u8g2\csrc/u8x8_d_uc1610.c ****     case U8X8_MSG_DISPLAY_INIT:
 217:..\..\u8g2\csrc/u8x8_d_uc1610.c ****       u8x8_d_helper_display_init(u8x8);
 218:..\..\u8g2\csrc/u8x8_d_uc1610.c ****       u8x8_cad_SendSequence(u8x8, u8x8_d_uc1610_dogxl160_init_seq);
 219:..\..\u8g2\csrc/u8x8_d_uc1610.c ****       break;
 220:..\..\u8g2\csrc/u8x8_d_uc1610.c ****     case U8X8_MSG_DISPLAY_SET_POWER_SAVE:
 221:..\..\u8g2\csrc/u8x8_d_uc1610.c ****       if ( arg_int == 0 )
 222:..\..\u8g2\csrc/u8x8_d_uc1610.c **** 	u8x8_cad_SendSequence(u8x8, u8x8_d_uc1610_dogxl160_powersave0_seq);
 223:..\..\u8g2\csrc/u8x8_d_uc1610.c ****       else
 224:..\..\u8g2\csrc/u8x8_d_uc1610.c **** 	u8x8_cad_SendSequence(u8x8, u8x8_d_uc1610_dogxl160_powersave1_seq);
 225:..\..\u8g2\csrc/u8x8_d_uc1610.c ****       break;
 226:..\..\u8g2\csrc/u8x8_d_uc1610.c ****     case U8X8_MSG_DISPLAY_SET_FLIP_MODE:
 227:..\..\u8g2\csrc/u8x8_d_uc1610.c ****       if ( arg_int == 0 )
 228:..\..\u8g2\csrc/u8x8_d_uc1610.c ****       {
 229:..\..\u8g2\csrc/u8x8_d_uc1610.c **** 	u8x8_cad_SendSequence(u8x8, u8x8_d_uc1610_dogxl160_flip0_seq);
 230:..\..\u8g2\csrc/u8x8_d_uc1610.c **** 	u8x8->x_offset = u8x8->display_info->default_x_offset;
 231:..\..\u8g2\csrc/u8x8_d_uc1610.c ****       }
 232:..\..\u8g2\csrc/u8x8_d_uc1610.c ****       else
 233:..\..\u8g2\csrc/u8x8_d_uc1610.c ****       {
 234:..\..\u8g2\csrc/u8x8_d_uc1610.c **** 	u8x8_cad_SendSequence(u8x8, u8x8_d_uc1610_dogxl160_flip1_seq);
 235:..\..\u8g2\csrc/u8x8_d_uc1610.c **** 	u8x8->x_offset = u8x8->display_info->flipmode_x_offset;
 236:..\..\u8g2\csrc/u8x8_d_uc1610.c ****       }	
 237:..\..\u8g2\csrc/u8x8_d_uc1610.c ****       break;
 238:..\..\u8g2\csrc/u8x8_d_uc1610.c **** #ifdef U8X8_WITH_SET_CONTRAST
 239:..\..\u8g2\csrc/u8x8_d_uc1610.c ****     case U8X8_MSG_DISPLAY_SET_CONTRAST:
 240:..\..\u8g2\csrc/u8x8_d_uc1610.c ****       u8x8_cad_StartTransfer(u8x8);
 241:..\..\u8g2\csrc/u8x8_d_uc1610.c ****       u8x8_cad_SendCmd(u8x8, 0x081 );
 242:..\..\u8g2\csrc/u8x8_d_uc1610.c ****       u8x8_cad_SendArg(u8x8, arg_int >> 2 );	/* uc1610 has range from 0 to 63 */
 243:..\..\u8g2\csrc/u8x8_d_uc1610.c ****       u8x8_cad_EndTransfer(u8x8);
 244:..\..\u8g2\csrc/u8x8_d_uc1610.c ****       break;
 245:..\..\u8g2\csrc/u8x8_d_uc1610.c **** #endif
 246:..\..\u8g2\csrc/u8x8_d_uc1610.c ****     case U8X8_MSG_DISPLAY_DRAW_TILE:
 247:..\..\u8g2\csrc/u8x8_d_uc1610.c ****       u8x8_cad_StartTransfer(u8x8);
 248:..\..\u8g2\csrc/u8x8_d_uc1610.c **** 
 249:..\..\u8g2\csrc/u8x8_d_uc1610.c ****       x = ((u8x8_tile_t *)arg_ptr)->x_pos;
 250:..\..\u8g2\csrc/u8x8_d_uc1610.c ****       x *= 8;
 251:..\..\u8g2\csrc/u8x8_d_uc1610.c ****       x += u8x8->x_offset;
 252:..\..\u8g2\csrc/u8x8_d_uc1610.c ****     
 253:..\..\u8g2\csrc/u8x8_d_uc1610.c ****       page = (((u8x8_tile_t *)arg_ptr)->y_pos);
ARM GAS  C:\Users\Alan\AppData\Local\Temp\cc0jR1Gr.s 			page 8


 254:..\..\u8g2\csrc/u8x8_d_uc1610.c ****       page *= 2;
 255:..\..\u8g2\csrc/u8x8_d_uc1610.c **** 
 256:..\..\u8g2\csrc/u8x8_d_uc1610.c ****       u8x8_cad_SendCmd(u8x8, 0x0f8 );	/* window disable */
 257:..\..\u8g2\csrc/u8x8_d_uc1610.c ****       
 258:..\..\u8g2\csrc/u8x8_d_uc1610.c ****       //u8x8_cad_SendCmd(u8x8, 0x010 | (x>>4) );
 259:..\..\u8g2\csrc/u8x8_d_uc1610.c ****       //u8x8_cad_SendCmd(u8x8, 0x000 | ((x&15)));
 260:..\..\u8g2\csrc/u8x8_d_uc1610.c ****       //u8x8_cad_SendCmd(u8x8, 0x0b0 | page);
 261:..\..\u8g2\csrc/u8x8_d_uc1610.c **** 
 262:..\..\u8g2\csrc/u8x8_d_uc1610.c ****       u8x8_cad_SendCmd(u8x8, 0x0f4 );	/* window start column */
 263:..\..\u8g2\csrc/u8x8_d_uc1610.c ****       u8x8_cad_SendArg(u8x8, x);
 264:..\..\u8g2\csrc/u8x8_d_uc1610.c ****       u8x8_cad_SendCmd(u8x8, 0x0f5 );	/* window start page */
 265:..\..\u8g2\csrc/u8x8_d_uc1610.c ****       u8x8_cad_SendArg(u8x8, page);
 266:..\..\u8g2\csrc/u8x8_d_uc1610.c ****       u8x8_cad_SendCmd(u8x8, 0x0f6 );	/* window end column */
 267:..\..\u8g2\csrc/u8x8_d_uc1610.c ****       u8x8_cad_SendArg(u8x8, 159);		/* end of display */
 268:..\..\u8g2\csrc/u8x8_d_uc1610.c ****       u8x8_cad_SendCmd(u8x8, 0x0f7 );	/* window end page */
 269:..\..\u8g2\csrc/u8x8_d_uc1610.c ****       u8x8_cad_SendArg(u8x8, page+1);
 270:..\..\u8g2\csrc/u8x8_d_uc1610.c ****       u8x8_cad_SendCmd(u8x8, 0x0f9 );	/* window enable */
 271:..\..\u8g2\csrc/u8x8_d_uc1610.c ****     
 272:..\..\u8g2\csrc/u8x8_d_uc1610.c ****       do
 273:..\..\u8g2\csrc/u8x8_d_uc1610.c ****       {
 274:..\..\u8g2\csrc/u8x8_d_uc1610.c **** 	c = ((u8x8_tile_t *)arg_ptr)->cnt;
 275:..\..\u8g2\csrc/u8x8_d_uc1610.c **** 	ptr = ((u8x8_tile_t *)arg_ptr)->tile_ptr;
 276:..\..\u8g2\csrc/u8x8_d_uc1610.c **** 	
 277:..\..\u8g2\csrc/u8x8_d_uc1610.c **** 	
 278:..\..\u8g2\csrc/u8x8_d_uc1610.c **** 	do
 279:..\..\u8g2\csrc/u8x8_d_uc1610.c **** 	{
 280:..\..\u8g2\csrc/u8x8_d_uc1610.c **** 	  
 281:..\..\u8g2\csrc/u8x8_d_uc1610.c **** 	  
 282:..\..\u8g2\csrc/u8x8_d_uc1610.c **** 	  
 283:..\..\u8g2\csrc/u8x8_d_uc1610.c **** 	  u8x8_cad_SendData(u8x8, 16, u8x8_convert_tile_for_uc1610(ptr));
 284:..\..\u8g2\csrc/u8x8_d_uc1610.c **** 
 285:..\..\u8g2\csrc/u8x8_d_uc1610.c **** 	  
 286:..\..\u8g2\csrc/u8x8_d_uc1610.c **** 	  ptr += 8;
 287:..\..\u8g2\csrc/u8x8_d_uc1610.c **** 	  x += 8;
 288:..\..\u8g2\csrc/u8x8_d_uc1610.c **** 	  c--;
 289:..\..\u8g2\csrc/u8x8_d_uc1610.c **** 	} while( c > 0 );
 290:..\..\u8g2\csrc/u8x8_d_uc1610.c **** 	
 291:..\..\u8g2\csrc/u8x8_d_uc1610.c **** 	arg_int--;
 292:..\..\u8g2\csrc/u8x8_d_uc1610.c ****       } while( arg_int > 0 );
 293:..\..\u8g2\csrc/u8x8_d_uc1610.c ****       
 294:..\..\u8g2\csrc/u8x8_d_uc1610.c ****       u8x8_cad_EndTransfer(u8x8);
 295:..\..\u8g2\csrc/u8x8_d_uc1610.c **** 
 296:..\..\u8g2\csrc/u8x8_d_uc1610.c ****     
 297:..\..\u8g2\csrc/u8x8_d_uc1610.c ****       break;
 298:..\..\u8g2\csrc/u8x8_d_uc1610.c ****     default:
 299:..\..\u8g2\csrc/u8x8_d_uc1610.c ****       return 0;
 300:..\..\u8g2\csrc/u8x8_d_uc1610.c ****   }
 301:..\..\u8g2\csrc/u8x8_d_uc1610.c ****   return 1;
 144              		.loc 1 301 0
 145 0024 0120     		movs	r0, #1
 215:..\..\u8g2\csrc/u8x8_d_uc1610.c ****       break;
 146              		.loc 1 215 0
 147 0026 89E0     		b	.L7
 148              	.LVL17:
 149              	.L10:
 217:..\..\u8g2\csrc/u8x8_d_uc1610.c ****       u8x8_cad_SendSequence(u8x8, u8x8_d_uc1610_dogxl160_init_seq);
 150              		.loc 1 217 0
ARM GAS  C:\Users\Alan\AppData\Local\Temp\cc0jR1Gr.s 			page 9


 151 0028 FFF7FEFF 		bl	u8x8_d_helper_display_init
 152              	.LVL18:
 218:..\..\u8g2\csrc/u8x8_d_uc1610.c ****       break;
 153              		.loc 1 218 0
 154 002c 4649     		ldr	r1, .L20+4
 155 002e 1831     		adds	r1, r1, #24
 156 0030 3000     		movs	r0, r6
 157 0032 FFF7FEFF 		bl	u8x8_cad_SendSequence
 158              	.LVL19:
 159              		.loc 1 301 0
 160 0036 0120     		movs	r0, #1
 219:..\..\u8g2\csrc/u8x8_d_uc1610.c ****     case U8X8_MSG_DISPLAY_SET_POWER_SAVE:
 161              		.loc 1 219 0
 162 0038 80E0     		b	.L7
 163              	.LVL20:
 164              	.L11:
 221:..\..\u8g2\csrc/u8x8_d_uc1610.c **** 	u8x8_cad_SendSequence(u8x8, u8x8_d_uc1610_dogxl160_powersave0_seq);
 165              		.loc 1 221 0
 166 003a 002A     		cmp	r2, #0
 167 003c 05D1     		bne	.L15
 222:..\..\u8g2\csrc/u8x8_d_uc1610.c ****       else
 168              		.loc 1 222 0
 169 003e 4249     		ldr	r1, .L20+4
 170 0040 4031     		adds	r1, r1, #64
 171 0042 FFF7FEFF 		bl	u8x8_cad_SendSequence
 172              	.LVL21:
 173              		.loc 1 301 0
 174 0046 0120     		movs	r0, #1
 175 0048 78E0     		b	.L7
 176              	.LVL22:
 177              	.L15:
 224:..\..\u8g2\csrc/u8x8_d_uc1610.c ****       break;
 178              		.loc 1 224 0
 179 004a 3F49     		ldr	r1, .L20+4
 180 004c 4831     		adds	r1, r1, #72
 181 004e FFF7FEFF 		bl	u8x8_cad_SendSequence
 182              	.LVL23:
 183              		.loc 1 301 0
 184 0052 0120     		movs	r0, #1
 185 0054 72E0     		b	.L7
 186              	.LVL24:
 187              	.L12:
 227:..\..\u8g2\csrc/u8x8_d_uc1610.c ****       {
 188              		.loc 1 227 0
 189 0056 002A     		cmp	r2, #0
 190 0058 08D1     		bne	.L16
 229:..\..\u8g2\csrc/u8x8_d_uc1610.c **** 	u8x8->x_offset = u8x8->display_info->default_x_offset;
 191              		.loc 1 229 0
 192 005a 3B49     		ldr	r1, .L20+4
 193 005c 5031     		adds	r1, r1, #80
 194 005e FFF7FEFF 		bl	u8x8_cad_SendSequence
 195              	.LVL25:
 230:..\..\u8g2\csrc/u8x8_d_uc1610.c ****       }
 196              		.loc 1 230 0
 197 0062 3368     		ldr	r3, [r6]
 198 0064 9B7C     		ldrb	r3, [r3, #18]
 199 0066 B377     		strb	r3, [r6, #30]
ARM GAS  C:\Users\Alan\AppData\Local\Temp\cc0jR1Gr.s 			page 10


 200              		.loc 1 301 0
 201 0068 0120     		movs	r0, #1
 202 006a 67E0     		b	.L7
 203              	.LVL26:
 204              	.L16:
 234:..\..\u8g2\csrc/u8x8_d_uc1610.c **** 	u8x8->x_offset = u8x8->display_info->flipmode_x_offset;
 205              		.loc 1 234 0
 206 006c 3649     		ldr	r1, .L20+4
 207 006e 5831     		adds	r1, r1, #88
 208 0070 FFF7FEFF 		bl	u8x8_cad_SendSequence
 209              	.LVL27:
 235:..\..\u8g2\csrc/u8x8_d_uc1610.c ****       }	
 210              		.loc 1 235 0
 211 0074 3368     		ldr	r3, [r6]
 212 0076 DB7C     		ldrb	r3, [r3, #19]
 213 0078 B377     		strb	r3, [r6, #30]
 214              		.loc 1 301 0
 215 007a 0120     		movs	r0, #1
 216 007c 5EE0     		b	.L7
 217              	.LVL28:
 218              	.L13:
 240:..\..\u8g2\csrc/u8x8_d_uc1610.c ****       u8x8_cad_SendCmd(u8x8, 0x081 );
 219              		.loc 1 240 0
 220 007e FFF7FEFF 		bl	u8x8_cad_StartTransfer
 221              	.LVL29:
 241:..\..\u8g2\csrc/u8x8_d_uc1610.c ****       u8x8_cad_SendArg(u8x8, arg_int >> 2 );	/* uc1610 has range from 0 to 63 */
 222              		.loc 1 241 0
 223 0082 8121     		movs	r1, #129
 224 0084 3000     		movs	r0, r6
 225 0086 FFF7FEFF 		bl	u8x8_cad_SendCmd
 226              	.LVL30:
 242:..\..\u8g2\csrc/u8x8_d_uc1610.c ****       u8x8_cad_EndTransfer(u8x8);
 227              		.loc 1 242 0
 228 008a B908     		lsrs	r1, r7, #2
 229 008c 3000     		movs	r0, r6
 230 008e FFF7FEFF 		bl	u8x8_cad_SendArg
 231              	.LVL31:
 243:..\..\u8g2\csrc/u8x8_d_uc1610.c ****       break;
 232              		.loc 1 243 0
 233 0092 3000     		movs	r0, r6
 234 0094 FFF7FEFF 		bl	u8x8_cad_EndTransfer
 235              	.LVL32:
 236              		.loc 1 301 0
 237 0098 0120     		movs	r0, #1
 244:..\..\u8g2\csrc/u8x8_d_uc1610.c **** #endif
 238              		.loc 1 244 0
 239 009a 4FE0     		b	.L7
 240              	.LVL33:
 241              	.L14:
 247:..\..\u8g2\csrc/u8x8_d_uc1610.c **** 
 242              		.loc 1 247 0
 243 009c FFF7FEFF 		bl	u8x8_cad_StartTransfer
 244              	.LVL34:
 249:..\..\u8g2\csrc/u8x8_d_uc1610.c ****       x *= 8;
 245              		.loc 1 249 0
 246 00a0 4346     		mov	r3, r8
 247 00a2 5D79     		ldrb	r5, [r3, #5]
ARM GAS  C:\Users\Alan\AppData\Local\Temp\cc0jR1Gr.s 			page 11


 248              	.LVL35:
 250:..\..\u8g2\csrc/u8x8_d_uc1610.c ****       x += u8x8->x_offset;
 249              		.loc 1 250 0
 250 00a4 ED00     		lsls	r5, r5, #3
 251              	.LVL36:
 252 00a6 EDB2     		uxtb	r5, r5
 253              	.LVL37:
 251:..\..\u8g2\csrc/u8x8_d_uc1610.c ****     
 254              		.loc 1 251 0
 255 00a8 B37F     		ldrb	r3, [r6, #30]
 256 00aa ED18     		adds	r5, r5, r3
 257              	.LVL38:
 258 00ac EDB2     		uxtb	r5, r5
 259              	.LVL39:
 253:..\..\u8g2\csrc/u8x8_d_uc1610.c ****       page *= 2;
 260              		.loc 1 253 0
 261 00ae 4346     		mov	r3, r8
 262 00b0 9C79     		ldrb	r4, [r3, #6]
 263              	.LVL40:
 254:..\..\u8g2\csrc/u8x8_d_uc1610.c **** 
 264              		.loc 1 254 0
 265 00b2 6400     		lsls	r4, r4, #1
 266              	.LVL41:
 267 00b4 E4B2     		uxtb	r4, r4
 268              	.LVL42:
 256:..\..\u8g2\csrc/u8x8_d_uc1610.c ****       
 269              		.loc 1 256 0
 270 00b6 F821     		movs	r1, #248
 271 00b8 3000     		movs	r0, r6
 272 00ba FFF7FEFF 		bl	u8x8_cad_SendCmd
 273              	.LVL43:
 262:..\..\u8g2\csrc/u8x8_d_uc1610.c ****       u8x8_cad_SendArg(u8x8, x);
 274              		.loc 1 262 0
 275 00be F421     		movs	r1, #244
 276 00c0 3000     		movs	r0, r6
 277 00c2 FFF7FEFF 		bl	u8x8_cad_SendCmd
 278              	.LVL44:
 263:..\..\u8g2\csrc/u8x8_d_uc1610.c ****       u8x8_cad_SendCmd(u8x8, 0x0f5 );	/* window start page */
 279              		.loc 1 263 0
 280 00c6 2900     		movs	r1, r5
 281 00c8 3000     		movs	r0, r6
 282 00ca FFF7FEFF 		bl	u8x8_cad_SendArg
 283              	.LVL45:
 264:..\..\u8g2\csrc/u8x8_d_uc1610.c ****       u8x8_cad_SendArg(u8x8, page);
 284              		.loc 1 264 0
 285 00ce F521     		movs	r1, #245
 286 00d0 3000     		movs	r0, r6
 287 00d2 FFF7FEFF 		bl	u8x8_cad_SendCmd
 288              	.LVL46:
 265:..\..\u8g2\csrc/u8x8_d_uc1610.c ****       u8x8_cad_SendCmd(u8x8, 0x0f6 );	/* window end column */
 289              		.loc 1 265 0
 290 00d6 2100     		movs	r1, r4
 291 00d8 3000     		movs	r0, r6
 292 00da FFF7FEFF 		bl	u8x8_cad_SendArg
 293              	.LVL47:
 266:..\..\u8g2\csrc/u8x8_d_uc1610.c ****       u8x8_cad_SendArg(u8x8, 159);		/* end of display */
 294              		.loc 1 266 0
ARM GAS  C:\Users\Alan\AppData\Local\Temp\cc0jR1Gr.s 			page 12


 295 00de F621     		movs	r1, #246
 296 00e0 3000     		movs	r0, r6
 297 00e2 FFF7FEFF 		bl	u8x8_cad_SendCmd
 298              	.LVL48:
 267:..\..\u8g2\csrc/u8x8_d_uc1610.c ****       u8x8_cad_SendCmd(u8x8, 0x0f7 );	/* window end page */
 299              		.loc 1 267 0
 300 00e6 9F21     		movs	r1, #159
 301 00e8 3000     		movs	r0, r6
 302 00ea FFF7FEFF 		bl	u8x8_cad_SendArg
 303              	.LVL49:
 268:..\..\u8g2\csrc/u8x8_d_uc1610.c ****       u8x8_cad_SendArg(u8x8, page+1);
 304              		.loc 1 268 0
 305 00ee F721     		movs	r1, #247
 306 00f0 3000     		movs	r0, r6
 307 00f2 FFF7FEFF 		bl	u8x8_cad_SendCmd
 308              	.LVL50:
 269:..\..\u8g2\csrc/u8x8_d_uc1610.c ****       u8x8_cad_SendCmd(u8x8, 0x0f9 );	/* window enable */
 309              		.loc 1 269 0
 310 00f6 0134     		adds	r4, r4, #1
 311              	.LVL51:
 312 00f8 E1B2     		uxtb	r1, r4
 313 00fa 3000     		movs	r0, r6
 314 00fc FFF7FEFF 		bl	u8x8_cad_SendArg
 315              	.LVL52:
 270:..\..\u8g2\csrc/u8x8_d_uc1610.c ****     
 316              		.loc 1 270 0
 317 0100 F921     		movs	r1, #249
 318 0102 3000     		movs	r0, r6
 319 0104 FFF7FEFF 		bl	u8x8_cad_SendCmd
 320              	.LVL53:
 321              	.L18:
 274:..\..\u8g2\csrc/u8x8_d_uc1610.c **** 	ptr = ((u8x8_tile_t *)arg_ptr)->tile_ptr;
 322              		.loc 1 274 0
 323 0108 4346     		mov	r3, r8
 324 010a 1C79     		ldrb	r4, [r3, #4]
 325              	.LVL54:
 275:..\..\u8g2\csrc/u8x8_d_uc1610.c **** 	
 326              		.loc 1 275 0
 327 010c 1D68     		ldr	r5, [r3]
 328              	.LVL55:
 329              	.L17:
 283:..\..\u8g2\csrc/u8x8_d_uc1610.c **** 
 330              		.loc 1 283 0 discriminator 1
 331 010e 2800     		movs	r0, r5
 332 0110 FFF7FEFF 		bl	u8x8_convert_tile_for_uc1610
 333              	.LVL56:
 334 0114 0200     		movs	r2, r0
 335 0116 1021     		movs	r1, #16
 336 0118 3000     		movs	r0, r6
 337 011a FFF7FEFF 		bl	u8x8_cad_SendData
 338              	.LVL57:
 286:..\..\u8g2\csrc/u8x8_d_uc1610.c **** 	  x += 8;
 339              		.loc 1 286 0 discriminator 1
 340 011e 0835     		adds	r5, r5, #8
 341              	.LVL58:
 288:..\..\u8g2\csrc/u8x8_d_uc1610.c **** 	} while( c > 0 );
 342              		.loc 1 288 0 discriminator 1
ARM GAS  C:\Users\Alan\AppData\Local\Temp\cc0jR1Gr.s 			page 13


 343 0120 013C     		subs	r4, r4, #1
 344              	.LVL59:
 345 0122 E4B2     		uxtb	r4, r4
 346              	.LVL60:
 289:..\..\u8g2\csrc/u8x8_d_uc1610.c **** 	
 347              		.loc 1 289 0 discriminator 1
 348 0124 002C     		cmp	r4, #0
 349 0126 F2D1     		bne	.L17
 291:..\..\u8g2\csrc/u8x8_d_uc1610.c ****       } while( arg_int > 0 );
 350              		.loc 1 291 0
 351 0128 013F     		subs	r7, r7, #1
 352              	.LVL61:
 353 012a FFB2     		uxtb	r7, r7
 354              	.LVL62:
 292:..\..\u8g2\csrc/u8x8_d_uc1610.c ****       
 355              		.loc 1 292 0
 356 012c 002F     		cmp	r7, #0
 357 012e EBD1     		bne	.L18
 294:..\..\u8g2\csrc/u8x8_d_uc1610.c **** 
 358              		.loc 1 294 0
 359 0130 3000     		movs	r0, r6
 360 0132 FFF7FEFF 		bl	u8x8_cad_EndTransfer
 361              	.LVL63:
 362              		.loc 1 301 0
 363 0136 0120     		movs	r0, #1
 297:..\..\u8g2\csrc/u8x8_d_uc1610.c ****     default:
 364              		.loc 1 297 0
 365 0138 00E0     		b	.L7
 366              	.LVL64:
 367              	.L19:
 299:..\..\u8g2\csrc/u8x8_d_uc1610.c ****   }
 368              		.loc 1 299 0
 369 013a 0020     		movs	r0, #0
 370              	.LVL65:
 371              	.L7:
 302:..\..\u8g2\csrc/u8x8_d_uc1610.c **** }
 372              		.loc 1 302 0
 373              		@ sp needed
 374              	.LVL66:
 375              	.LVL67:
 376 013c 04BC     		pop	{r2}
 377 013e 9046     		mov	r8, r2
 378 0140 F0BD     		pop	{r4, r5, r6, r7, pc}
 379              	.L21:
 380 0142 C046     		.align	2
 381              	.L20:
 382 0144 00000000 		.word	.L9
 383 0148 1C000000 		.word	.LANCHOR1
 384              		.cfi_endproc
 385              	.LFE1:
 386              		.size	u8x8_d_uc1610_ea_dogxl160, .-u8x8_d_uc1610_ea_dogxl160
 387              		.section	.rodata
 388              		.align	2
 389              		.set	.LANCHOR1,. + 0
 390              		.type	u8x8_uc1610_display_info, %object
 391              		.size	u8x8_uc1610_display_info, 24
 392              	u8x8_uc1610_display_info:
ARM GAS  C:\Users\Alan\AppData\Local\Temp\cc0jR1Gr.s 			page 14


 393 001c 00       		.byte	0
 394 001d 01       		.byte	1
 395 001e 0F       		.byte	15
 396 001f 0F       		.byte	15
 397 0020 01       		.byte	1
 398 0021 06       		.byte	6
 399 0022 1E       		.byte	30
 400 0023 3F       		.byte	63
 401 0024 00127A00 		.word	8000000
 402 0028 00       		.byte	0
 403 0029 04       		.byte	4
 404 002a 1E       		.byte	30
 405 002b 28       		.byte	40
 406 002c 14       		.byte	20
 407 002d 0D       		.byte	13
 408 002e 00       		.byte	0
 409 002f 00       		.byte	0
 410 0030 A000     		.short	160
 411 0032 6800     		.short	104
 412              		.type	u8x8_d_uc1610_dogxl160_init_seq, %object
 413              		.size	u8x8_d_uc1610_dogxl160_init_seq, 37
 414              	u8x8_d_uc1610_dogxl160_init_seq:
 415 0034 18       		.byte	24
 416 0035 15       		.byte	21
 417 0036 F1       		.byte	-15
 418 0037 16       		.byte	22
 419 0038 67       		.byte	103
 420 0039 15       		.byte	21
 421 003a C0       		.byte	-64
 422 003b 15       		.byte	21
 423 003c 40       		.byte	64
 424 003d 15       		.byte	21
 425 003e 50       		.byte	80
 426 003f 15       		.byte	21
 427 0040 2B       		.byte	43
 428 0041 15       		.byte	21
 429 0042 EB       		.byte	-21
 430 0043 15       		.byte	21
 431 0044 81       		.byte	-127
 432 0045 16       		.byte	22
 433 0046 5F       		.byte	95
 434 0047 15       		.byte	21
 435 0048 8B       		.byte	-117
 436 0049 15       		.byte	21
 437 004a C0       		.byte	-64
 438 004b 15       		.byte	21
 439 004c F8       		.byte	-8
 440 004d 15       		.byte	21
 441 004e 10       		.byte	16
 442 004f 15       		.byte	21
 443 0050 00       		.byte	0
 444 0051 15       		.byte	21
 445 0052 B0       		.byte	-80
 446 0053 15       		.byte	21
 447 0054 A6       		.byte	-90
 448 0055 15       		.byte	21
 449 0056 A4       		.byte	-92
ARM GAS  C:\Users\Alan\AppData\Local\Temp\cc0jR1Gr.s 			page 15


 450 0057 19       		.byte	25
 451 0058 FF       		.byte	-1
 452 0059 000000   		.space	3
 453              		.type	u8x8_d_uc1610_dogxl160_powersave0_seq, %object
 454              		.size	u8x8_d_uc1610_dogxl160_powersave0_seq, 5
 455              	u8x8_d_uc1610_dogxl160_powersave0_seq:
 456 005c 18       		.byte	24
 457 005d 15       		.byte	21
 458 005e AF       		.byte	-81
 459 005f 19       		.byte	25
 460 0060 FF       		.byte	-1
 461 0061 000000   		.space	3
 462              		.type	u8x8_d_uc1610_dogxl160_powersave1_seq, %object
 463              		.size	u8x8_d_uc1610_dogxl160_powersave1_seq, 5
 464              	u8x8_d_uc1610_dogxl160_powersave1_seq:
 465 0064 18       		.byte	24
 466 0065 15       		.byte	21
 467 0066 AE       		.byte	-82
 468 0067 19       		.byte	25
 469 0068 FF       		.byte	-1
 470 0069 000000   		.space	3
 471              		.type	u8x8_d_uc1610_dogxl160_flip0_seq, %object
 472              		.size	u8x8_d_uc1610_dogxl160_flip0_seq, 5
 473              	u8x8_d_uc1610_dogxl160_flip0_seq:
 474 006c 18       		.byte	24
 475 006d 15       		.byte	21
 476 006e C0       		.byte	-64
 477 006f 19       		.byte	25
 478 0070 FF       		.byte	-1
 479 0071 000000   		.space	3
 480              		.type	u8x8_d_uc1610_dogxl160_flip1_seq, %object
 481              		.size	u8x8_d_uc1610_dogxl160_flip1_seq, 5
 482              	u8x8_d_uc1610_dogxl160_flip1_seq:
 483 0074 18       		.byte	24
 484 0075 15       		.byte	21
 485 0076 C6       		.byte	-58
 486 0077 19       		.byte	25
 487 0078 FF       		.byte	-1
 488              		.bss
 489              		.align	2
 490              		.set	.LANCHOR0,. + 0
 491              		.type	buf.4870, %object
 492              		.size	buf.4870, 16
 493              	buf.4870:
 494 0000 00000000 		.space	16
 494      00000000 
 494      00000000 
 494      00000000 
 495              		.text
 496              	.Letext0:
 497              		.file 2 "c:\\program files (x86)\\cypress\\psoc creator\\4.1\\psoc creator\\import\\gnu\\arm\\5.4.
 498              		.file 3 "c:\\program files (x86)\\cypress\\psoc creator\\4.1\\psoc creator\\import\\gnu\\arm\\5.4.
 499              		.file 4 "..\\..\\u8g2\\csrc\\u8x8.h"