ARM GAS  C:\Users\arh\AppData\Local\Temp\cceR5fye.s 			page 1


   1              		.syntax unified
   2              		.cpu cortex-m0
   3              		.fpu softvfp
   4              		.eabi_attribute 20, 1
   5              		.eabi_attribute 21, 1
   6              		.eabi_attribute 23, 3
   7              		.eabi_attribute 24, 1
   8              		.eabi_attribute 25, 1
   9              		.eabi_attribute 26, 1
  10              		.eabi_attribute 30, 1
  11              		.eabi_attribute 34, 0
  12              		.eabi_attribute 18, 4
  13              		.thumb
  14              		.syntax unified
  15              		.file	"u8x8_d_lc7981.c"
  16              		.text
  17              	.Ltext0:
  18              		.cfi_sections	.debug_frame
  19              		.section	.text.reverse_byte,"ax",%progbits
  20              		.align	2
  21              		.code	16
  22              		.thumb_func
  23              		.type	reverse_byte, %function
  24              	reverse_byte:
  25              	.LFB0:
  26              		.file 1 "..\\..\\u8g2\\csrc\\u8x8_d_lc7981.c"
   1:..\..\u8g2\csrc/u8x8_d_lc7981.c **** /*
   2:..\..\u8g2\csrc/u8x8_d_lc7981.c **** 
   3:..\..\u8g2\csrc/u8x8_d_lc7981.c ****   u8x8_d_lc7981.c
   4:..\..\u8g2\csrc/u8x8_d_lc7981.c ****   
   5:..\..\u8g2\csrc/u8x8_d_lc7981.c ****   Universal 8bit Graphics Library (https://github.com/olikraus/u8g2/)
   6:..\..\u8g2\csrc/u8x8_d_lc7981.c **** 
   7:..\..\u8g2\csrc/u8x8_d_lc7981.c ****   Copyright (c) 2016, olikraus@gmail.com
   8:..\..\u8g2\csrc/u8x8_d_lc7981.c ****   All rights reserved.
   9:..\..\u8g2\csrc/u8x8_d_lc7981.c **** 
  10:..\..\u8g2\csrc/u8x8_d_lc7981.c ****   Redistribution and use in source and binary forms, with or without modification, 
  11:..\..\u8g2\csrc/u8x8_d_lc7981.c ****   are permitted provided that the following conditions are met:
  12:..\..\u8g2\csrc/u8x8_d_lc7981.c **** 
  13:..\..\u8g2\csrc/u8x8_d_lc7981.c ****   * Redistributions of source code must retain the above copyright notice, this list 
  14:..\..\u8g2\csrc/u8x8_d_lc7981.c ****     of conditions and the following disclaimer.
  15:..\..\u8g2\csrc/u8x8_d_lc7981.c ****     
  16:..\..\u8g2\csrc/u8x8_d_lc7981.c ****   * Redistributions in binary form must reproduce the above copyright notice, this 
  17:..\..\u8g2\csrc/u8x8_d_lc7981.c ****     list of conditions and the following disclaimer in the documentation and/or other 
  18:..\..\u8g2\csrc/u8x8_d_lc7981.c ****     materials provided with the distribution.
  19:..\..\u8g2\csrc/u8x8_d_lc7981.c **** 
  20:..\..\u8g2\csrc/u8x8_d_lc7981.c ****   THIS SOFTWARE IS PROVIDED BY THE COPYRIGHT HOLDERS AND 
  21:..\..\u8g2\csrc/u8x8_d_lc7981.c ****   CONTRIBUTORS "AS IS" AND ANY EXPRESS OR IMPLIED WARRANTIES, 
  22:..\..\u8g2\csrc/u8x8_d_lc7981.c ****   INCLUDING, BUT NOT LIMITED TO, THE IMPLIED WARRANTIES OF 
  23:..\..\u8g2\csrc/u8x8_d_lc7981.c ****   MERCHANTABILITY AND FITNESS FOR A PARTICULAR PURPOSE ARE 
  24:..\..\u8g2\csrc/u8x8_d_lc7981.c ****   DISCLAIMED. IN NO EVENT SHALL THE COPYRIGHT HOLDER OR 
  25:..\..\u8g2\csrc/u8x8_d_lc7981.c ****   CONTRIBUTORS BE LIABLE FOR ANY DIRECT, INDIRECT, INCIDENTAL, 
  26:..\..\u8g2\csrc/u8x8_d_lc7981.c ****   SPECIAL, EXEMPLARY, OR CONSEQUENTIAL DAMAGES (INCLUDING, BUT 
  27:..\..\u8g2\csrc/u8x8_d_lc7981.c ****   NOT LIMITED TO, PROCUREMENT OF SUBSTITUTE GOODS OR SERVICES; 
  28:..\..\u8g2\csrc/u8x8_d_lc7981.c ****   LOSS OF USE, DATA, OR PROFITS; OR BUSINESS INTERRUPTION) HOWEVER 
  29:..\..\u8g2\csrc/u8x8_d_lc7981.c ****   CAUSED AND ON ANY THEORY OF LIABILITY, WHETHER IN CONTRACT, 
  30:..\..\u8g2\csrc/u8x8_d_lc7981.c ****   STRICT LIABILITY, OR TORT (INCLUDING NEGLIGENCE OR OTHERWISE) 
  31:..\..\u8g2\csrc/u8x8_d_lc7981.c ****   ARISING IN ANY WAY OUT OF THE USE OF THIS SOFTWARE, EVEN IF 
ARM GAS  C:\Users\arh\AppData\Local\Temp\cceR5fye.s 			page 2


  32:..\..\u8g2\csrc/u8x8_d_lc7981.c ****   ADVISED OF THE POSSIBILITY OF SUCH DAMAGE.  
  33:..\..\u8g2\csrc/u8x8_d_lc7981.c **** 
  34:..\..\u8g2\csrc/u8x8_d_lc7981.c **** 
  35:..\..\u8g2\csrc/u8x8_d_lc7981.c ****   
  36:..\..\u8g2\csrc/u8x8_d_lc7981.c **** */
  37:..\..\u8g2\csrc/u8x8_d_lc7981.c **** #include "u8x8.h"
  38:..\..\u8g2\csrc/u8x8_d_lc7981.c **** 
  39:..\..\u8g2\csrc/u8x8_d_lc7981.c **** 
  40:..\..\u8g2\csrc/u8x8_d_lc7981.c **** 
  41:..\..\u8g2\csrc/u8x8_d_lc7981.c **** 
  42:..\..\u8g2\csrc/u8x8_d_lc7981.c **** /* no powersave mode for the LC7981 */
  43:..\..\u8g2\csrc/u8x8_d_lc7981.c **** static const uint8_t u8x8_d_lc7981_powersave0_seq[] = {
  44:..\..\u8g2\csrc/u8x8_d_lc7981.c ****   U8X8_START_TRANSFER(),             	/* enable chip, delay is part of the transfer start */
  45:..\..\u8g2\csrc/u8x8_d_lc7981.c ****   U8X8_END_TRANSFER(),             	/* disable chip */
  46:..\..\u8g2\csrc/u8x8_d_lc7981.c ****   U8X8_END()             			/* end of sequence */
  47:..\..\u8g2\csrc/u8x8_d_lc7981.c **** };
  48:..\..\u8g2\csrc/u8x8_d_lc7981.c **** 
  49:..\..\u8g2\csrc/u8x8_d_lc7981.c **** static const uint8_t u8x8_d_lc7981_powersave1_seq[] = {
  50:..\..\u8g2\csrc/u8x8_d_lc7981.c ****   U8X8_START_TRANSFER(),             	/* enable chip, delay is part of the transfer start */
  51:..\..\u8g2\csrc/u8x8_d_lc7981.c ****   U8X8_END_TRANSFER(),             	/* disable chip */
  52:..\..\u8g2\csrc/u8x8_d_lc7981.c ****   U8X8_END()             			/* end of sequence */
  53:..\..\u8g2\csrc/u8x8_d_lc7981.c **** };
  54:..\..\u8g2\csrc/u8x8_d_lc7981.c **** 
  55:..\..\u8g2\csrc/u8x8_d_lc7981.c **** /* no hardware flip for the LC7981 */
  56:..\..\u8g2\csrc/u8x8_d_lc7981.c **** static const uint8_t u8x8_d_lc7981_flip0_seq[] = {
  57:..\..\u8g2\csrc/u8x8_d_lc7981.c ****   U8X8_START_TRANSFER(),             	/* enable chip, delay is part of the transfer start */
  58:..\..\u8g2\csrc/u8x8_d_lc7981.c ****   U8X8_END_TRANSFER(),             	/* disable chip */
  59:..\..\u8g2\csrc/u8x8_d_lc7981.c ****   U8X8_END()             			/* end of sequence */
  60:..\..\u8g2\csrc/u8x8_d_lc7981.c **** };
  61:..\..\u8g2\csrc/u8x8_d_lc7981.c **** 
  62:..\..\u8g2\csrc/u8x8_d_lc7981.c **** static const uint8_t u8x8_d_lc7981_flip1_seq[] = {
  63:..\..\u8g2\csrc/u8x8_d_lc7981.c ****   U8X8_START_TRANSFER(),             	/* enable chip, delay is part of the transfer start */
  64:..\..\u8g2\csrc/u8x8_d_lc7981.c ****   U8X8_END_TRANSFER(),             	/* disable chip */
  65:..\..\u8g2\csrc/u8x8_d_lc7981.c ****   U8X8_END()             			/* end of sequence */
  66:..\..\u8g2\csrc/u8x8_d_lc7981.c **** };
  67:..\..\u8g2\csrc/u8x8_d_lc7981.c **** 
  68:..\..\u8g2\csrc/u8x8_d_lc7981.c **** 
  69:..\..\u8g2\csrc/u8x8_d_lc7981.c **** /* http://graphics.stanford.edu/~seander/bithacks.html */
  70:..\..\u8g2\csrc/u8x8_d_lc7981.c **** static uint8_t reverse_byte(uint8_t v)
  71:..\..\u8g2\csrc/u8x8_d_lc7981.c **** {
  27              		.loc 1 71 0
  28              		.cfi_startproc
  29              		@ args = 0, pretend = 0, frame = 0
  30              		@ frame_needed = 0, uses_anonymous_args = 0
  31              		@ link register save eliminated.
  32              	.LVL0:
  72:..\..\u8g2\csrc/u8x8_d_lc7981.c ****   // if ( v != 0 && v != 255 )  does not help much
  73:..\..\u8g2\csrc/u8x8_d_lc7981.c ****   {
  74:..\..\u8g2\csrc/u8x8_d_lc7981.c ****     // swap odd and even bits
  75:..\..\u8g2\csrc/u8x8_d_lc7981.c ****     v = ((v >> 1) & 0x055) | ((v & 0x055) << 1);
  33              		.loc 1 75 0
  34 0000 4300     		lsls	r3, r0, #1
  35 0002 4008     		lsrs	r0, r0, #1
  36              	.LVL1:
  37 0004 5522     		movs	r2, #85
  38 0006 1040     		ands	r0, r2
  39 0008 9343     		bics	r3, r2
ARM GAS  C:\Users\arh\AppData\Local\Temp\cceR5fye.s 			page 3


  40 000a 1843     		orrs	r0, r3
  41 000c C0B2     		uxtb	r0, r0
  42              	.LVL2:
  76:..\..\u8g2\csrc/u8x8_d_lc7981.c ****     // swap consecutive pairs
  77:..\..\u8g2\csrc/u8x8_d_lc7981.c ****     v = ((v >> 2) & 0x033) | ((v & 0x033) << 2);
  43              		.loc 1 77 0
  44 000e 8300     		lsls	r3, r0, #2
  45 0010 8008     		lsrs	r0, r0, #2
  46              	.LVL3:
  47 0012 223A     		subs	r2, r2, #34
  48 0014 1040     		ands	r0, r2
  49 0016 9343     		bics	r3, r2
  50 0018 1843     		orrs	r0, r3
  51 001a C0B2     		uxtb	r0, r0
  52              	.LVL4:
  78:..\..\u8g2\csrc/u8x8_d_lc7981.c ****     // swap nibbles ... 
  79:..\..\u8g2\csrc/u8x8_d_lc7981.c ****     v = ((v >> 4) & 0x00F) | ((v & 0x00F) << 4);
  53              		.loc 1 79 0
  54 001c 0301     		lsls	r3, r0, #4
  55 001e 0009     		lsrs	r0, r0, #4
  56              	.LVL5:
  57 0020 1843     		orrs	r0, r3
  58 0022 C0B2     		uxtb	r0, r0
  59              	.LVL6:
  80:..\..\u8g2\csrc/u8x8_d_lc7981.c ****   }
  81:..\..\u8g2\csrc/u8x8_d_lc7981.c ****   return v;
  82:..\..\u8g2\csrc/u8x8_d_lc7981.c **** }
  60              		.loc 1 82 0
  61              		@ sp needed
  62 0024 7047     		bx	lr
  63              		.cfi_endproc
  64              	.LFE0:
  65              		.size	reverse_byte, .-reverse_byte
  66 0026 C046     		.section	.text.u8x8_d_lc7981_common,"ax",%progbits
  67              		.align	2
  68              		.code	16
  69              		.thumb_func
  70              		.type	u8x8_d_lc7981_common, %function
  71              	u8x8_d_lc7981_common:
  72              	.LFB1:
  83:..\..\u8g2\csrc/u8x8_d_lc7981.c **** 
  84:..\..\u8g2\csrc/u8x8_d_lc7981.c **** static uint8_t u8x8_d_lc7981_common(u8x8_t *u8x8, uint8_t msg, U8X8_UNUSED uint8_t arg_int, void *a
  85:..\..\u8g2\csrc/u8x8_d_lc7981.c **** {
  73              		.loc 1 85 0
  74              		.cfi_startproc
  75              		@ args = 0, pretend = 0, frame = 8
  76              		@ frame_needed = 0, uses_anonymous_args = 0
  77              	.LVL7:
  78 0000 F0B5     		push	{r4, r5, r6, r7, lr}
  79              		.cfi_def_cfa_offset 20
  80              		.cfi_offset 4, -20
  81              		.cfi_offset 5, -16
  82              		.cfi_offset 6, -12
  83              		.cfi_offset 7, -8
  84              		.cfi_offset 14, -4
  85 0002 5746     		mov	r7, r10
  86 0004 4E46     		mov	r6, r9
ARM GAS  C:\Users\arh\AppData\Local\Temp\cceR5fye.s 			page 4


  87 0006 4546     		mov	r5, r8
  88 0008 E0B4     		push	{r5, r6, r7}
  89              		.cfi_def_cfa_offset 32
  90              		.cfi_offset 8, -32
  91              		.cfi_offset 9, -28
  92              		.cfi_offset 10, -24
  93 000a 82B0     		sub	sp, sp, #8
  94              		.cfi_def_cfa_offset 40
  95 000c 0600     		movs	r6, r0
  96 000e 1C00     		movs	r4, r3
  86:..\..\u8g2\csrc/u8x8_d_lc7981.c ****   uint8_t c, i, j;
  87:..\..\u8g2\csrc/u8x8_d_lc7981.c ****   uint16_t y;
  88:..\..\u8g2\csrc/u8x8_d_lc7981.c ****   uint8_t *ptr;
  89:..\..\u8g2\csrc/u8x8_d_lc7981.c ****   switch(msg)
  97              		.loc 1 89 0
  98 0010 0F29     		cmp	r1, #15
  99 0012 46D1     		bne	.L10
  90:..\..\u8g2\csrc/u8x8_d_lc7981.c ****   {
  91:..\..\u8g2\csrc/u8x8_d_lc7981.c ****     case U8X8_MSG_DISPLAY_DRAW_TILE:
  92:..\..\u8g2\csrc/u8x8_d_lc7981.c ****       y = (((u8x8_tile_t *)arg_ptr)->y_pos);
 100              		.loc 1 92 0
 101 0014 9B79     		ldrb	r3, [r3, #6]
 102              	.LVL8:
  93:..\..\u8g2\csrc/u8x8_d_lc7981.c ****       y*=8;
 103              		.loc 1 93 0
 104 0016 DB00     		lsls	r3, r3, #3
 105              	.LVL9:
  94:..\..\u8g2\csrc/u8x8_d_lc7981.c ****       y*= u8x8->display_info->tile_width;
 106              		.loc 1 94 0
 107 0018 0268     		ldr	r2, [r0]
 108              	.LVL10:
 109 001a 127C     		ldrb	r2, [r2, #16]
 110 001c 5343     		muls	r3, r2
 111              	.LVL11:
 112 001e 9BB2     		uxth	r3, r3
 113 0020 9A46     		mov	r10, r3
 114              	.LVL12:
  95:..\..\u8g2\csrc/u8x8_d_lc7981.c ****       /* x = ((u8x8_tile_t *)arg_ptr)->x_pos; x is ignored... no u8x8 support */
  96:..\..\u8g2\csrc/u8x8_d_lc7981.c ****       u8x8_cad_StartTransfer(u8x8);
 115              		.loc 1 96 0
 116 0022 FFF7FEFF 		bl	u8x8_cad_StartTransfer
 117              	.LVL13:
  97:..\..\u8g2\csrc/u8x8_d_lc7981.c ****       /* 
  98:..\..\u8g2\csrc/u8x8_d_lc7981.c **** 	Tile structure is reused here for the t6963, however u8x8 is not supported 
  99:..\..\u8g2\csrc/u8x8_d_lc7981.c **** 	tile_ptr points to data which has cnt*8 bytes (same as SSD1306 tiles)
 100:..\..\u8g2\csrc/u8x8_d_lc7981.c **** 	Buffer is expected to have 8 lines of code fitting to the t6963 internal memory
 101:..\..\u8g2\csrc/u8x8_d_lc7981.c **** 	"cnt" includes the number of horizontal bytes. width is equal to cnt*8
 102:..\..\u8g2\csrc/u8x8_d_lc7981.c **** 	
 103:..\..\u8g2\csrc/u8x8_d_lc7981.c **** 	x is assumed to be zero
 104:..\..\u8g2\csrc/u8x8_d_lc7981.c ****     
 105:..\..\u8g2\csrc/u8x8_d_lc7981.c **** 	TODO: Consider arg_int, however arg_int is not used by u8g2
 106:..\..\u8g2\csrc/u8x8_d_lc7981.c ****       */
 107:..\..\u8g2\csrc/u8x8_d_lc7981.c ****       c = ((u8x8_tile_t *)arg_ptr)->cnt;	/* number of tiles */
 118              		.loc 1 107 0
 119 0026 2379     		ldrb	r3, [r4, #4]
 120 0028 9846     		mov	r8, r3
 121              	.LVL14:
ARM GAS  C:\Users\arh\AppData\Local\Temp\cceR5fye.s 			page 5


 108:..\..\u8g2\csrc/u8x8_d_lc7981.c ****       ptr = ((u8x8_tile_t *)arg_ptr)->tile_ptr;	/* data ptr to the tiles */
 122              		.loc 1 108 0
 123 002a 2568     		ldr	r5, [r4]
 124              	.LVL15:
 109:..\..\u8g2\csrc/u8x8_d_lc7981.c ****       for( i = 0; i < 8; i++ )
 125              		.loc 1 109 0
 126 002c 0023     		movs	r3, #0
 127 002e 9946     		mov	r9, r3
 128 0030 2FE0     		b	.L5
 129              	.LVL16:
 130              	.L8:
 110:..\..\u8g2\csrc/u8x8_d_lc7981.c ****       {
 111:..\..\u8g2\csrc/u8x8_d_lc7981.c **** 	u8x8_cad_SendCmd(u8x8, 0x0a );	/* display ram (cursor) address low byte */
 131              		.loc 1 111 0
 132 0032 0A21     		movs	r1, #10
 133 0034 3000     		movs	r0, r6
 134 0036 FFF7FEFF 		bl	u8x8_cad_SendCmd
 135              	.LVL17:
 112:..\..\u8g2\csrc/u8x8_d_lc7981.c **** 	u8x8_cad_SendArg(u8x8, y&255);
 136              		.loc 1 112 0
 137 003a 5346     		mov	r3, r10
 138 003c 6A46     		mov	r2, sp
 139 003e D371     		strb	r3, [r2, #7]
 140 0040 D179     		ldrb	r1, [r2, #7]
 141 0042 3000     		movs	r0, r6
 142 0044 FFF7FEFF 		bl	u8x8_cad_SendArg
 143              	.LVL18:
 113:..\..\u8g2\csrc/u8x8_d_lc7981.c **** 	u8x8_cad_SendCmd(u8x8, 0x0b );	/* display ram (cursor) address high byte */
 144              		.loc 1 113 0
 145 0048 0B21     		movs	r1, #11
 146 004a 3000     		movs	r0, r6
 147 004c FFF7FEFF 		bl	u8x8_cad_SendCmd
 148              	.LVL19:
 114:..\..\u8g2\csrc/u8x8_d_lc7981.c **** 	u8x8_cad_SendArg(u8x8, y>>8);
 149              		.loc 1 114 0
 150 0050 5346     		mov	r3, r10
 151 0052 190A     		lsrs	r1, r3, #8
 152 0054 3000     		movs	r0, r6
 153 0056 FFF7FEFF 		bl	u8x8_cad_SendArg
 154              	.LVL20:
 115:..\..\u8g2\csrc/u8x8_d_lc7981.c **** 	
 116:..\..\u8g2\csrc/u8x8_d_lc7981.c **** 	u8x8_cad_SendCmd(u8x8, 0x0c );	/* write start */
 155              		.loc 1 116 0
 156 005a 0C21     		movs	r1, #12
 157 005c 3000     		movs	r0, r6
 158 005e FFF7FEFF 		bl	u8x8_cad_SendCmd
 159              	.LVL21:
 117:..\..\u8g2\csrc/u8x8_d_lc7981.c **** 	/*
 118:..\..\u8g2\csrc/u8x8_d_lc7981.c **** 	  The LC7981 has the MSB at the right position, which is exactly the opposite to the T6963.
 119:..\..\u8g2\csrc/u8x8_d_lc7981.c **** 	  Instead of writing a third hvline procedure for this device, we just revert the bytes before 
 120:..\..\u8g2\csrc/u8x8_d_lc7981.c **** 	  transmit. This is slow because:
 121:..\..\u8g2\csrc/u8x8_d_lc7981.c **** 	    - the bit reverse itself
 122:..\..\u8g2\csrc/u8x8_d_lc7981.c **** 	    - the single byte transfer 
 123:..\..\u8g2\csrc/u8x8_d_lc7981.c **** 	   The one byte is transmitted via SendArg, which is ok, because CAD = 100
 124:..\..\u8g2\csrc/u8x8_d_lc7981.c **** 	*/
 125:..\..\u8g2\csrc/u8x8_d_lc7981.c **** 	for( j = 0; j < c; j++ )
 160              		.loc 1 125 0
ARM GAS  C:\Users\arh\AppData\Local\Temp\cceR5fye.s 			page 6


 161 0062 0024     		movs	r4, #0
 162 0064 0AE0     		b	.L6
 163              	.LVL22:
 164              	.L7:
 126:..\..\u8g2\csrc/u8x8_d_lc7981.c **** 	  u8x8_cad_SendArg(u8x8, reverse_byte(*ptr++));
 165              		.loc 1 126 0 discriminator 3
 166 0066 6F1C     		adds	r7, r5, #1
 167              	.LVL23:
 168 0068 2878     		ldrb	r0, [r5]
 169 006a FFF7FEFF 		bl	reverse_byte
 170              	.LVL24:
 171 006e 0100     		movs	r1, r0
 172 0070 3000     		movs	r0, r6
 173 0072 FFF7FEFF 		bl	u8x8_cad_SendArg
 174              	.LVL25:
 125:..\..\u8g2\csrc/u8x8_d_lc7981.c **** 	  u8x8_cad_SendArg(u8x8, reverse_byte(*ptr++));
 175              		.loc 1 125 0 discriminator 3
 176 0076 0134     		adds	r4, r4, #1
 177              	.LVL26:
 178 0078 E4B2     		uxtb	r4, r4
 179              	.LVL27:
 180              		.loc 1 126 0 discriminator 3
 181 007a 3D00     		movs	r5, r7
 182              	.LVL28:
 183              	.L6:
 125:..\..\u8g2\csrc/u8x8_d_lc7981.c **** 	  u8x8_cad_SendArg(u8x8, reverse_byte(*ptr++));
 184              		.loc 1 125 0 discriminator 1
 185 007c 4445     		cmp	r4, r8
 186 007e F2D3     		bcc	.L7
 127:..\..\u8g2\csrc/u8x8_d_lc7981.c **** 	
 128:..\..\u8g2\csrc/u8x8_d_lc7981.c **** 	//u8x8_cad_SendData(u8x8, c, ptr);	/* note: SendData can not handle more than 255 bytes, send one 
 129:..\..\u8g2\csrc/u8x8_d_lc7981.c **** 	//ptr += u8x8->display_info->tile_width;
 130:..\..\u8g2\csrc/u8x8_d_lc7981.c **** 	
 131:..\..\u8g2\csrc/u8x8_d_lc7981.c **** 	y += u8x8->display_info->tile_width;
 187              		.loc 1 131 0 discriminator 2
 188 0080 3368     		ldr	r3, [r6]
 189 0082 1B7C     		ldrb	r3, [r3, #16]
 190 0084 5344     		add	r3, r3, r10
 191 0086 9BB2     		uxth	r3, r3
 192 0088 9A46     		mov	r10, r3
 193              	.LVL29:
 109:..\..\u8g2\csrc/u8x8_d_lc7981.c ****       {
 194              		.loc 1 109 0 discriminator 2
 195 008a 4B46     		mov	r3, r9
 196 008c 0133     		adds	r3, r3, #1
 197 008e DBB2     		uxtb	r3, r3
 198 0090 9946     		mov	r9, r3
 199              	.LVL30:
 200              	.L5:
 109:..\..\u8g2\csrc/u8x8_d_lc7981.c ****       {
 201              		.loc 1 109 0 is_stmt 0 discriminator 1
 202 0092 4B46     		mov	r3, r9
 203 0094 072B     		cmp	r3, #7
 204 0096 CCD9     		bls	.L8
 132:..\..\u8g2\csrc/u8x8_d_lc7981.c ****       }
 133:..\..\u8g2\csrc/u8x8_d_lc7981.c **** 
 134:..\..\u8g2\csrc/u8x8_d_lc7981.c ****       u8x8_cad_EndTransfer(u8x8);
ARM GAS  C:\Users\arh\AppData\Local\Temp\cceR5fye.s 			page 7


 205              		.loc 1 134 0 is_stmt 1
 206 0098 3000     		movs	r0, r6
 207 009a FFF7FEFF 		bl	u8x8_cad_EndTransfer
 208              	.LVL31:
 135:..\..\u8g2\csrc/u8x8_d_lc7981.c ****       break;
 136:..\..\u8g2\csrc/u8x8_d_lc7981.c ****     /*	handled in the calling procedure 
 137:..\..\u8g2\csrc/u8x8_d_lc7981.c ****     case U8X8_MSG_DISPLAY_SETUP_MEMORY:
 138:..\..\u8g2\csrc/u8x8_d_lc7981.c ****       u8x8_d_helper_display_setup_memory(u8x8, &u8x8_lc7981_128x64_display_info);
 139:..\..\u8g2\csrc/u8x8_d_lc7981.c ****       break;
 140:..\..\u8g2\csrc/u8x8_d_lc7981.c ****     case U8X8_MSG_DISPLAY_INIT:
 141:..\..\u8g2\csrc/u8x8_d_lc7981.c ****       u8x8_d_helper_display_init(u8x8);
 142:..\..\u8g2\csrc/u8x8_d_lc7981.c ****       u8x8_cad_SendSequence(u8x8, u8x8_d_uc1701_dogs102_init_seq);
 143:..\..\u8g2\csrc/u8x8_d_lc7981.c ****       break;
 144:..\..\u8g2\csrc/u8x8_d_lc7981.c ****     */
 145:..\..\u8g2\csrc/u8x8_d_lc7981.c ****     /* power save is not there... 
 146:..\..\u8g2\csrc/u8x8_d_lc7981.c ****     case U8X8_MSG_DISPLAY_SET_POWER_SAVE:
 147:..\..\u8g2\csrc/u8x8_d_lc7981.c ****       if ( arg_int == 0 )
 148:..\..\u8g2\csrc/u8x8_d_lc7981.c **** 	u8x8_cad_SendSequence(u8x8, u8x8_d_lc7981_powersave0_seq);
 149:..\..\u8g2\csrc/u8x8_d_lc7981.c ****       else
 150:..\..\u8g2\csrc/u8x8_d_lc7981.c **** 	u8x8_cad_SendSequence(u8x8, u8x8_d_lc7981_powersave1_seq);
 151:..\..\u8g2\csrc/u8x8_d_lc7981.c ****       break;
 152:..\..\u8g2\csrc/u8x8_d_lc7981.c ****     */
 153:..\..\u8g2\csrc/u8x8_d_lc7981.c ****     /* hardware flip not is not available
 154:..\..\u8g2\csrc/u8x8_d_lc7981.c ****     case U8X8_MSG_DISPLAY_SET_FLIP_MODE:
 155:..\..\u8g2\csrc/u8x8_d_lc7981.c ****       if ( arg_int == 0 )
 156:..\..\u8g2\csrc/u8x8_d_lc7981.c ****       {
 157:..\..\u8g2\csrc/u8x8_d_lc7981.c **** 	u8x8_cad_SendSequence(u8x8, u8x8_d_lc7981_flip0_seq);
 158:..\..\u8g2\csrc/u8x8_d_lc7981.c **** 	u8x8->x_offset = u8x8->display_info->default_x_offset;
 159:..\..\u8g2\csrc/u8x8_d_lc7981.c ****       }
 160:..\..\u8g2\csrc/u8x8_d_lc7981.c ****       else
 161:..\..\u8g2\csrc/u8x8_d_lc7981.c ****       {
 162:..\..\u8g2\csrc/u8x8_d_lc7981.c **** 	u8x8_cad_SendSequence(u8x8, u8x8_d_lc7981_flip1_seq);
 163:..\..\u8g2\csrc/u8x8_d_lc7981.c **** 	u8x8->x_offset = u8x8->display_info->flipmode_x_offset;
 164:..\..\u8g2\csrc/u8x8_d_lc7981.c ****       }	
 165:..\..\u8g2\csrc/u8x8_d_lc7981.c ****       break;
 166:..\..\u8g2\csrc/u8x8_d_lc7981.c ****     */
 167:..\..\u8g2\csrc/u8x8_d_lc7981.c **** #ifdef U8X8_WITH_SET_CONTRAST
 168:..\..\u8g2\csrc/u8x8_d_lc7981.c ****     /* no contrast setting :-(
 169:..\..\u8g2\csrc/u8x8_d_lc7981.c ****     case U8X8_MSG_DISPLAY_SET_CONTRAST:
 170:..\..\u8g2\csrc/u8x8_d_lc7981.c ****       u8x8_cad_StartTransfer(u8x8);
 171:..\..\u8g2\csrc/u8x8_d_lc7981.c ****       u8x8_cad_SendCmd(u8x8, 0x081 );
 172:..\..\u8g2\csrc/u8x8_d_lc7981.c ****       u8x8_cad_SendArg(u8x8, arg_int  );
 173:..\..\u8g2\csrc/u8x8_d_lc7981.c ****       u8x8_cad_EndTransfer(u8x8);
 174:..\..\u8g2\csrc/u8x8_d_lc7981.c ****       break;
 175:..\..\u8g2\csrc/u8x8_d_lc7981.c ****   */
 176:..\..\u8g2\csrc/u8x8_d_lc7981.c **** #endif
 177:..\..\u8g2\csrc/u8x8_d_lc7981.c ****     default:
 178:..\..\u8g2\csrc/u8x8_d_lc7981.c ****       return 0;
 179:..\..\u8g2\csrc/u8x8_d_lc7981.c ****   }
 180:..\..\u8g2\csrc/u8x8_d_lc7981.c ****   return 1;
 209              		.loc 1 180 0
 210 009e 0120     		movs	r0, #1
 211 00a0 00E0     		b	.L3
 212              	.LVL32:
 213              	.L10:
 178:..\..\u8g2\csrc/u8x8_d_lc7981.c ****   }
 214              		.loc 1 178 0
ARM GAS  C:\Users\arh\AppData\Local\Temp\cceR5fye.s 			page 8


 215 00a2 0020     		movs	r0, #0
 216              	.LVL33:
 217              	.L3:
 181:..\..\u8g2\csrc/u8x8_d_lc7981.c **** }
 218              		.loc 1 181 0
 219 00a4 02B0     		add	sp, sp, #8
 220              		@ sp needed
 221              	.LVL34:
 222 00a6 1CBC     		pop	{r2, r3, r4}
 223 00a8 9046     		mov	r8, r2
 224 00aa 9946     		mov	r9, r3
 225 00ac A246     		mov	r10, r4
 226 00ae F0BD     		pop	{r4, r5, r6, r7, pc}
 227              		.cfi_endproc
 228              	.LFE1:
 229              		.size	u8x8_d_lc7981_common, .-u8x8_d_lc7981_common
 230              		.section	.text.u8x8_d_lc7981_160x80,"ax",%progbits
 231              		.align	2
 232              		.global	u8x8_d_lc7981_160x80
 233              		.code	16
 234              		.thumb_func
 235              		.type	u8x8_d_lc7981_160x80, %function
 236              	u8x8_d_lc7981_160x80:
 237              	.LFB2:
 182:..\..\u8g2\csrc/u8x8_d_lc7981.c **** 
 183:..\..\u8g2\csrc/u8x8_d_lc7981.c **** /*================================================*/
 184:..\..\u8g2\csrc/u8x8_d_lc7981.c **** /* LC7981 160x80 LCD*/
 185:..\..\u8g2\csrc/u8x8_d_lc7981.c **** 
 186:..\..\u8g2\csrc/u8x8_d_lc7981.c **** /* 
 187:..\..\u8g2\csrc/u8x8_d_lc7981.c **** 
 188:..\..\u8g2\csrc/u8x8_d_lc7981.c **** */
 189:..\..\u8g2\csrc/u8x8_d_lc7981.c **** static const u8x8_display_info_t u8x8_lc7981_160x80_display_info =
 190:..\..\u8g2\csrc/u8x8_d_lc7981.c **** {
 191:..\..\u8g2\csrc/u8x8_d_lc7981.c ****   /* chip_enable_level = */ 0,	/* LC7981 has a low active CS*/
 192:..\..\u8g2\csrc/u8x8_d_lc7981.c ****   /* chip_disable_level = */ 1,
 193:..\..\u8g2\csrc/u8x8_d_lc7981.c ****   
 194:..\..\u8g2\csrc/u8x8_d_lc7981.c ****   /* from here... */
 195:..\..\u8g2\csrc/u8x8_d_lc7981.c ****   /* post_chip_enable_wait_ns = */ 20,	
 196:..\..\u8g2\csrc/u8x8_d_lc7981.c ****   /* pre_chip_disable_wait_ns = */ 20,	
 197:..\..\u8g2\csrc/u8x8_d_lc7981.c ****   /* reset_pulse_width_ms = */ 1, 	
 198:..\..\u8g2\csrc/u8x8_d_lc7981.c ****   /* post_reset_wait_ms = */ 10, 	
 199:..\..\u8g2\csrc/u8x8_d_lc7981.c ****   /* sda_setup_time_ns = */ 30,		
 200:..\..\u8g2\csrc/u8x8_d_lc7981.c ****   /* sck_pulse_width_ns = */ 65,	/* half of cycle time  */
 201:..\..\u8g2\csrc/u8x8_d_lc7981.c ****   /* sck_clock_hz = */ 4000000UL,	/* since Arduino 1.6.0, the SPI bus speed in Hz. Should be  10000
 202:..\..\u8g2\csrc/u8x8_d_lc7981.c ****   /* spi_mode = */ 0,		/* active high, rising edge */
 203:..\..\u8g2\csrc/u8x8_d_lc7981.c ****   /* i2c_bus_clock_100kHz = */ 4,
 204:..\..\u8g2\csrc/u8x8_d_lc7981.c ****   /* ... to here, values are ignored, because this is a parallel interface only */
 205:..\..\u8g2\csrc/u8x8_d_lc7981.c ****   
 206:..\..\u8g2\csrc/u8x8_d_lc7981.c ****   /* data_setup_time_ns = */ 220,	
 207:..\..\u8g2\csrc/u8x8_d_lc7981.c ****   /* write_pulse_width_ns = */ 20,	
 208:..\..\u8g2\csrc/u8x8_d_lc7981.c ****   /* tile_width = */ 20,		/* width of 20*8=160 pixel */
 209:..\..\u8g2\csrc/u8x8_d_lc7981.c ****   /* tile_hight = */ 10,
 210:..\..\u8g2\csrc/u8x8_d_lc7981.c ****   /* default_x_offset = */ 0,	
 211:..\..\u8g2\csrc/u8x8_d_lc7981.c ****   /* flipmode_x_offset = */ 0,	
 212:..\..\u8g2\csrc/u8x8_d_lc7981.c ****   /* pixel_width = */ 160,
 213:..\..\u8g2\csrc/u8x8_d_lc7981.c ****   /* pixel_height = */ 80
 214:..\..\u8g2\csrc/u8x8_d_lc7981.c **** };
ARM GAS  C:\Users\arh\AppData\Local\Temp\cceR5fye.s 			page 9


 215:..\..\u8g2\csrc/u8x8_d_lc7981.c **** 
 216:..\..\u8g2\csrc/u8x8_d_lc7981.c **** static const uint8_t u8x8_d_lc7981_160x80_init_seq[] = {
 217:..\..\u8g2\csrc/u8x8_d_lc7981.c ****     
 218:..\..\u8g2\csrc/u8x8_d_lc7981.c ****   U8X8_START_TRANSFER(),             	/* enable chip, delay is part of the transfer start */
 219:..\..\u8g2\csrc/u8x8_d_lc7981.c ****   
 220:..\..\u8g2\csrc/u8x8_d_lc7981.c ****   U8X8_DLY(50),
 221:..\..\u8g2\csrc/u8x8_d_lc7981.c **** 
 222:..\..\u8g2\csrc/u8x8_d_lc7981.c ****   U8X8_CA(0x00, 0x32),			/* display on (bit 5), master mode on (bit 4), graphics mode on (bit 1) */
 223:..\..\u8g2\csrc/u8x8_d_lc7981.c ****   U8X8_CA(0x01, 0x07),			/* character/bits per pixel pitch */
 224:..\..\u8g2\csrc/u8x8_d_lc7981.c ****   U8X8_CA(0x02, 160/8-1),		/* number of chars/byte width of the screen */
 225:..\..\u8g2\csrc/u8x8_d_lc7981.c ****   U8X8_CA(0x03, 0x50),			/* time division:  50 (1/80 duty cycle) */
 226:..\..\u8g2\csrc/u8x8_d_lc7981.c ****   U8X8_CA(0x08, 0x00),			/* display start low */
 227:..\..\u8g2\csrc/u8x8_d_lc7981.c ****   U8X8_CA(0x09, 0x00),			/* display start high */
 228:..\..\u8g2\csrc/u8x8_d_lc7981.c **** 
 229:..\..\u8g2\csrc/u8x8_d_lc7981.c ****   U8X8_DLY(10),
 230:..\..\u8g2\csrc/u8x8_d_lc7981.c ****   
 231:..\..\u8g2\csrc/u8x8_d_lc7981.c ****   U8X8_END_TRANSFER(),             	/* disable chip */
 232:..\..\u8g2\csrc/u8x8_d_lc7981.c ****   U8X8_END()             			/* end of sequence */
 233:..\..\u8g2\csrc/u8x8_d_lc7981.c **** };
 234:..\..\u8g2\csrc/u8x8_d_lc7981.c **** 
 235:..\..\u8g2\csrc/u8x8_d_lc7981.c **** uint8_t u8x8_d_lc7981_160x80(u8x8_t *u8x8, uint8_t msg, uint8_t arg_int, void *arg_ptr)
 236:..\..\u8g2\csrc/u8x8_d_lc7981.c **** {
 238              		.loc 1 236 0
 239              		.cfi_startproc
 240              		@ args = 0, pretend = 0, frame = 0
 241              		@ frame_needed = 0, uses_anonymous_args = 0
 242              	.LVL35:
 243 0000 70B5     		push	{r4, r5, r6, lr}
 244              		.cfi_def_cfa_offset 16
 245              		.cfi_offset 4, -16
 246              		.cfi_offset 5, -12
 247              		.cfi_offset 6, -8
 248              		.cfi_offset 14, -4
 249 0002 0500     		movs	r5, r0
 250 0004 0C00     		movs	r4, r1
 237:..\..\u8g2\csrc/u8x8_d_lc7981.c ****   /* call common procedure first and handle messages there */
 238:..\..\u8g2\csrc/u8x8_d_lc7981.c ****   if ( u8x8_d_lc7981_common(u8x8, msg, arg_int, arg_ptr) == 0 )
 251              		.loc 1 238 0
 252 0006 FFF7FEFF 		bl	u8x8_d_lc7981_common
 253              	.LVL36:
 254 000a 0028     		cmp	r0, #0
 255 000c 14D1     		bne	.L15
 239:..\..\u8g2\csrc/u8x8_d_lc7981.c ****   {
 240:..\..\u8g2\csrc/u8x8_d_lc7981.c ****     /* msg not handled, then try here */
 241:..\..\u8g2\csrc/u8x8_d_lc7981.c ****     switch(msg)
 256              		.loc 1 241 0
 257 000e 092C     		cmp	r4, #9
 258 0010 02D0     		beq	.L13
 259 0012 0A2C     		cmp	r4, #10
 260 0014 06D0     		beq	.L14
 261 0016 10E0     		b	.L12
 262              	.L13:
 242:..\..\u8g2\csrc/u8x8_d_lc7981.c ****     {
 243:..\..\u8g2\csrc/u8x8_d_lc7981.c ****       case U8X8_MSG_DISPLAY_SETUP_MEMORY:
 244:..\..\u8g2\csrc/u8x8_d_lc7981.c **** 	u8x8_d_helper_display_setup_memory(u8x8, &u8x8_lc7981_160x80_display_info);
 263              		.loc 1 244 0
 264 0018 0849     		ldr	r1, .L16
ARM GAS  C:\Users\arh\AppData\Local\Temp\cceR5fye.s 			page 10


 265 001a 2800     		movs	r0, r5
 266 001c FFF7FEFF 		bl	u8x8_d_helper_display_setup_memory
 267              	.LVL37:
 245:..\..\u8g2\csrc/u8x8_d_lc7981.c **** 	break;
 246:..\..\u8g2\csrc/u8x8_d_lc7981.c ****       case U8X8_MSG_DISPLAY_INIT:
 247:..\..\u8g2\csrc/u8x8_d_lc7981.c **** 	u8x8_d_helper_display_init(u8x8);
 248:..\..\u8g2\csrc/u8x8_d_lc7981.c **** 	u8x8_cad_SendSequence(u8x8, u8x8_d_lc7981_160x80_init_seq);
 249:..\..\u8g2\csrc/u8x8_d_lc7981.c **** 	break;
 250:..\..\u8g2\csrc/u8x8_d_lc7981.c ****       default:
 251:..\..\u8g2\csrc/u8x8_d_lc7981.c **** 	return 0;		/* msg unknown */
 252:..\..\u8g2\csrc/u8x8_d_lc7981.c ****     }
 253:..\..\u8g2\csrc/u8x8_d_lc7981.c ****   }
 254:..\..\u8g2\csrc/u8x8_d_lc7981.c ****   return 1;
 268              		.loc 1 254 0
 269 0020 0120     		movs	r0, #1
 245:..\..\u8g2\csrc/u8x8_d_lc7981.c **** 	break;
 270              		.loc 1 245 0
 271 0022 0AE0     		b	.L12
 272              	.L14:
 247:..\..\u8g2\csrc/u8x8_d_lc7981.c **** 	u8x8_cad_SendSequence(u8x8, u8x8_d_lc7981_160x80_init_seq);
 273              		.loc 1 247 0
 274 0024 2800     		movs	r0, r5
 275 0026 FFF7FEFF 		bl	u8x8_d_helper_display_init
 276              	.LVL38:
 248:..\..\u8g2\csrc/u8x8_d_lc7981.c **** 	break;
 277              		.loc 1 248 0
 278 002a 0449     		ldr	r1, .L16
 279 002c 1831     		adds	r1, r1, #24
 280 002e 2800     		movs	r0, r5
 281 0030 FFF7FEFF 		bl	u8x8_cad_SendSequence
 282              	.LVL39:
 283              		.loc 1 254 0
 284 0034 0120     		movs	r0, #1
 249:..\..\u8g2\csrc/u8x8_d_lc7981.c ****       default:
 285              		.loc 1 249 0
 286 0036 00E0     		b	.L12
 287              	.L15:
 288              		.loc 1 254 0
 289 0038 0120     		movs	r0, #1
 290              	.L12:
 255:..\..\u8g2\csrc/u8x8_d_lc7981.c **** }
 291              		.loc 1 255 0
 292              		@ sp needed
 293              	.LVL40:
 294 003a 70BD     		pop	{r4, r5, r6, pc}
 295              	.L17:
 296              		.align	2
 297              	.L16:
 298 003c 00000000 		.word	.LANCHOR0
 299              		.cfi_endproc
 300              	.LFE2:
 301              		.size	u8x8_d_lc7981_160x80, .-u8x8_d_lc7981_160x80
 302              		.section	.text.u8x8_d_lc7981_240x128,"ax",%progbits
 303              		.align	2
 304              		.global	u8x8_d_lc7981_240x128
 305              		.code	16
 306              		.thumb_func
ARM GAS  C:\Users\arh\AppData\Local\Temp\cceR5fye.s 			page 11


 307              		.type	u8x8_d_lc7981_240x128, %function
 308              	u8x8_d_lc7981_240x128:
 309              	.LFB3:
 256:..\..\u8g2\csrc/u8x8_d_lc7981.c **** 
 257:..\..\u8g2\csrc/u8x8_d_lc7981.c **** 
 258:..\..\u8g2\csrc/u8x8_d_lc7981.c **** /*================================================*/
 259:..\..\u8g2\csrc/u8x8_d_lc7981.c **** /* LC7981 240x128 LCD*/
 260:..\..\u8g2\csrc/u8x8_d_lc7981.c **** 
 261:..\..\u8g2\csrc/u8x8_d_lc7981.c **** /* 
 262:..\..\u8g2\csrc/u8x8_d_lc7981.c **** 
 263:..\..\u8g2\csrc/u8x8_d_lc7981.c **** */
 264:..\..\u8g2\csrc/u8x8_d_lc7981.c **** static const u8x8_display_info_t u8x8_lc7981_240x128_display_info =
 265:..\..\u8g2\csrc/u8x8_d_lc7981.c **** {
 266:..\..\u8g2\csrc/u8x8_d_lc7981.c ****   /* chip_enable_level = */ 0,	/* LC7981 has a low active CS*/
 267:..\..\u8g2\csrc/u8x8_d_lc7981.c ****   /* chip_disable_level = */ 1,
 268:..\..\u8g2\csrc/u8x8_d_lc7981.c ****   
 269:..\..\u8g2\csrc/u8x8_d_lc7981.c ****   /* from here... */
 270:..\..\u8g2\csrc/u8x8_d_lc7981.c ****   /* post_chip_enable_wait_ns = */ 20,	
 271:..\..\u8g2\csrc/u8x8_d_lc7981.c ****   /* pre_chip_disable_wait_ns = */ 20,	
 272:..\..\u8g2\csrc/u8x8_d_lc7981.c ****   /* reset_pulse_width_ms = */ 1, 	
 273:..\..\u8g2\csrc/u8x8_d_lc7981.c ****   /* post_reset_wait_ms = */ 10, 	
 274:..\..\u8g2\csrc/u8x8_d_lc7981.c ****   /* sda_setup_time_ns = */ 30,		
 275:..\..\u8g2\csrc/u8x8_d_lc7981.c ****   /* sck_pulse_width_ns = */ 65,	/* half of cycle time  */
 276:..\..\u8g2\csrc/u8x8_d_lc7981.c ****   /* sck_clock_hz = */ 4000000UL,	/* since Arduino 1.6.0, the SPI bus speed in Hz. Should be  10000
 277:..\..\u8g2\csrc/u8x8_d_lc7981.c ****   /* spi_mode = */ 0,		/* active high, rising edge */
 278:..\..\u8g2\csrc/u8x8_d_lc7981.c ****   /* i2c_bus_clock_100kHz = */ 4,
 279:..\..\u8g2\csrc/u8x8_d_lc7981.c ****   /* ... to here, values are ignored, because this is a parallel interface only */
 280:..\..\u8g2\csrc/u8x8_d_lc7981.c ****   
 281:..\..\u8g2\csrc/u8x8_d_lc7981.c ****   /* data_setup_time_ns = */ 220,	
 282:..\..\u8g2\csrc/u8x8_d_lc7981.c ****   /* write_pulse_width_ns = */ 20,	
 283:..\..\u8g2\csrc/u8x8_d_lc7981.c ****   /* tile_width = */ 30,		/* width of 30*8=240 pixel */
 284:..\..\u8g2\csrc/u8x8_d_lc7981.c ****   /* tile_hight = */ 16,
 285:..\..\u8g2\csrc/u8x8_d_lc7981.c ****   /* default_x_offset = */ 0,	
 286:..\..\u8g2\csrc/u8x8_d_lc7981.c ****   /* flipmode_x_offset = */ 0,	
 287:..\..\u8g2\csrc/u8x8_d_lc7981.c ****   /* pixel_width = */ 240,
 288:..\..\u8g2\csrc/u8x8_d_lc7981.c ****   /* pixel_height = */ 128
 289:..\..\u8g2\csrc/u8x8_d_lc7981.c **** };
 290:..\..\u8g2\csrc/u8x8_d_lc7981.c **** 
 291:..\..\u8g2\csrc/u8x8_d_lc7981.c **** static const uint8_t u8x8_d_lc7981_240x128_init_seq[] = {
 292:..\..\u8g2\csrc/u8x8_d_lc7981.c ****     
 293:..\..\u8g2\csrc/u8x8_d_lc7981.c ****   U8X8_START_TRANSFER(),             	/* enable chip, delay is part of the transfer start */
 294:..\..\u8g2\csrc/u8x8_d_lc7981.c ****   
 295:..\..\u8g2\csrc/u8x8_d_lc7981.c ****   U8X8_DLY(50),
 296:..\..\u8g2\csrc/u8x8_d_lc7981.c **** 
 297:..\..\u8g2\csrc/u8x8_d_lc7981.c ****   U8X8_CA(0x00, 0x32),			/* display on (bit 5), master mode on (bit 4), graphics mode on (bit 1) */
 298:..\..\u8g2\csrc/u8x8_d_lc7981.c ****   U8X8_CA(0x01, 0x07),			/* character/bits per pixel pitch */
 299:..\..\u8g2\csrc/u8x8_d_lc7981.c ****   U8X8_CA(0x02, 240/8-1),		/* number of chars/byte width of the screen */
 300:..\..\u8g2\csrc/u8x8_d_lc7981.c ****   U8X8_CA(0x03, 0x7f),			/* time division */
 301:..\..\u8g2\csrc/u8x8_d_lc7981.c ****   U8X8_CA(0x08, 0x00),			/* display start low */
 302:..\..\u8g2\csrc/u8x8_d_lc7981.c ****   U8X8_CA(0x09, 0x00),			/* display start high */
 303:..\..\u8g2\csrc/u8x8_d_lc7981.c **** 
 304:..\..\u8g2\csrc/u8x8_d_lc7981.c ****   U8X8_DLY(10),
 305:..\..\u8g2\csrc/u8x8_d_lc7981.c ****   
 306:..\..\u8g2\csrc/u8x8_d_lc7981.c ****   U8X8_END_TRANSFER(),             	/* disable chip */
 307:..\..\u8g2\csrc/u8x8_d_lc7981.c ****   U8X8_END()             			/* end of sequence */
 308:..\..\u8g2\csrc/u8x8_d_lc7981.c **** };
 309:..\..\u8g2\csrc/u8x8_d_lc7981.c **** 
ARM GAS  C:\Users\arh\AppData\Local\Temp\cceR5fye.s 			page 12


 310:..\..\u8g2\csrc/u8x8_d_lc7981.c **** uint8_t u8x8_d_lc7981_240x128(u8x8_t *u8x8, uint8_t msg, uint8_t arg_int, void *arg_ptr)
 311:..\..\u8g2\csrc/u8x8_d_lc7981.c **** {
 310              		.loc 1 311 0
 311              		.cfi_startproc
 312              		@ args = 0, pretend = 0, frame = 0
 313              		@ frame_needed = 0, uses_anonymous_args = 0
 314              	.LVL41:
 315 0000 70B5     		push	{r4, r5, r6, lr}
 316              		.cfi_def_cfa_offset 16
 317              		.cfi_offset 4, -16
 318              		.cfi_offset 5, -12
 319              		.cfi_offset 6, -8
 320              		.cfi_offset 14, -4
 321 0002 0500     		movs	r5, r0
 322 0004 0C00     		movs	r4, r1
 312:..\..\u8g2\csrc/u8x8_d_lc7981.c ****   /* call common procedure first and handle messages there */
 313:..\..\u8g2\csrc/u8x8_d_lc7981.c ****   if ( u8x8_d_lc7981_common(u8x8, msg, arg_int, arg_ptr) == 0 )
 323              		.loc 1 313 0
 324 0006 FFF7FEFF 		bl	u8x8_d_lc7981_common
 325              	.LVL42:
 326 000a 0028     		cmp	r0, #0
 327 000c 15D1     		bne	.L22
 314:..\..\u8g2\csrc/u8x8_d_lc7981.c ****   {
 315:..\..\u8g2\csrc/u8x8_d_lc7981.c ****     /* msg not handled, then try here */
 316:..\..\u8g2\csrc/u8x8_d_lc7981.c ****     switch(msg)
 328              		.loc 1 316 0
 329 000e 092C     		cmp	r4, #9
 330 0010 02D0     		beq	.L20
 331 0012 0A2C     		cmp	r4, #10
 332 0014 07D0     		beq	.L21
 333 0016 11E0     		b	.L19
 334              	.L20:
 317:..\..\u8g2\csrc/u8x8_d_lc7981.c ****     {
 318:..\..\u8g2\csrc/u8x8_d_lc7981.c ****       case U8X8_MSG_DISPLAY_SETUP_MEMORY:
 319:..\..\u8g2\csrc/u8x8_d_lc7981.c **** 	u8x8_d_helper_display_setup_memory(u8x8, &u8x8_lc7981_240x128_display_info);
 335              		.loc 1 319 0
 336 0018 0949     		ldr	r1, .L23
 337 001a 3831     		adds	r1, r1, #56
 338 001c 2800     		movs	r0, r5
 339 001e FFF7FEFF 		bl	u8x8_d_helper_display_setup_memory
 340              	.LVL43:
 320:..\..\u8g2\csrc/u8x8_d_lc7981.c **** 	break;
 321:..\..\u8g2\csrc/u8x8_d_lc7981.c ****       case U8X8_MSG_DISPLAY_INIT:
 322:..\..\u8g2\csrc/u8x8_d_lc7981.c **** 	u8x8_d_helper_display_init(u8x8);
 323:..\..\u8g2\csrc/u8x8_d_lc7981.c **** 	u8x8_cad_SendSequence(u8x8, u8x8_d_lc7981_240x128_init_seq);
 324:..\..\u8g2\csrc/u8x8_d_lc7981.c **** 	break;
 325:..\..\u8g2\csrc/u8x8_d_lc7981.c ****       default:
 326:..\..\u8g2\csrc/u8x8_d_lc7981.c **** 	return 0;		/* msg unknown */
 327:..\..\u8g2\csrc/u8x8_d_lc7981.c ****     }
 328:..\..\u8g2\csrc/u8x8_d_lc7981.c ****   }
 329:..\..\u8g2\csrc/u8x8_d_lc7981.c ****   return 1;
 341              		.loc 1 329 0
 342 0022 0120     		movs	r0, #1
 320:..\..\u8g2\csrc/u8x8_d_lc7981.c **** 	break;
 343              		.loc 1 320 0
 344 0024 0AE0     		b	.L19
 345              	.L21:
ARM GAS  C:\Users\arh\AppData\Local\Temp\cceR5fye.s 			page 13


 322:..\..\u8g2\csrc/u8x8_d_lc7981.c **** 	u8x8_cad_SendSequence(u8x8, u8x8_d_lc7981_240x128_init_seq);
 346              		.loc 1 322 0
 347 0026 2800     		movs	r0, r5
 348 0028 FFF7FEFF 		bl	u8x8_d_helper_display_init
 349              	.LVL44:
 323:..\..\u8g2\csrc/u8x8_d_lc7981.c **** 	break;
 350              		.loc 1 323 0
 351 002c 0449     		ldr	r1, .L23
 352 002e 5031     		adds	r1, r1, #80
 353 0030 2800     		movs	r0, r5
 354 0032 FFF7FEFF 		bl	u8x8_cad_SendSequence
 355              	.LVL45:
 356              		.loc 1 329 0
 357 0036 0120     		movs	r0, #1
 324:..\..\u8g2\csrc/u8x8_d_lc7981.c ****       default:
 358              		.loc 1 324 0
 359 0038 00E0     		b	.L19
 360              	.L22:
 361              		.loc 1 329 0
 362 003a 0120     		movs	r0, #1
 363              	.L19:
 330:..\..\u8g2\csrc/u8x8_d_lc7981.c **** }
 364              		.loc 1 330 0
 365              		@ sp needed
 366              	.LVL46:
 367 003c 70BD     		pop	{r4, r5, r6, pc}
 368              	.L24:
 369 003e C046     		.align	2
 370              	.L23:
 371 0040 00000000 		.word	.LANCHOR0
 372              		.cfi_endproc
 373              	.LFE3:
 374              		.size	u8x8_d_lc7981_240x128, .-u8x8_d_lc7981_240x128
 375              		.section	.rodata
 376              		.align	2
 377              		.set	.LANCHOR0,. + 0
 378              		.type	u8x8_lc7981_160x80_display_info, %object
 379              		.size	u8x8_lc7981_160x80_display_info, 24
 380              	u8x8_lc7981_160x80_display_info:
 381 0000 00       		.byte	0
 382 0001 01       		.byte	1
 383 0002 14       		.byte	20
 384 0003 14       		.byte	20
 385 0004 01       		.byte	1
 386 0005 0A       		.byte	10
 387 0006 1E       		.byte	30
 388 0007 41       		.byte	65
 389 0008 00093D00 		.word	4000000
 390 000c 00       		.byte	0
 391 000d 04       		.byte	4
 392 000e DC       		.byte	-36
 393 000f 14       		.byte	20
 394 0010 14       		.byte	20
 395 0011 0A       		.byte	10
 396 0012 00       		.byte	0
 397 0013 00       		.byte	0
 398 0014 A000     		.short	160
ARM GAS  C:\Users\arh\AppData\Local\Temp\cceR5fye.s 			page 14


 399 0016 5000     		.short	80
 400              		.type	u8x8_d_lc7981_160x80_init_seq, %object
 401              		.size	u8x8_d_lc7981_160x80_init_seq, 31
 402              	u8x8_d_lc7981_160x80_init_seq:
 403 0018 18       		.byte	24
 404 0019 FE       		.byte	-2
 405 001a 32       		.byte	50
 406 001b 15       		.byte	21
 407 001c 00       		.byte	0
 408 001d 16       		.byte	22
 409 001e 32       		.byte	50
 410 001f 15       		.byte	21
 411 0020 01       		.byte	1
 412 0021 16       		.byte	22
 413 0022 07       		.byte	7
 414 0023 15       		.byte	21
 415 0024 02       		.byte	2
 416 0025 16       		.byte	22
 417 0026 13       		.byte	19
 418 0027 15       		.byte	21
 419 0028 03       		.byte	3
 420 0029 16       		.byte	22
 421 002a 50       		.byte	80
 422 002b 15       		.byte	21
 423 002c 08       		.byte	8
 424 002d 16       		.byte	22
 425 002e 00       		.byte	0
 426 002f 15       		.byte	21
 427 0030 09       		.byte	9
 428 0031 16       		.byte	22
 429 0032 00       		.byte	0
 430 0033 FE       		.byte	-2
 431 0034 0A       		.byte	10
 432 0035 19       		.byte	25
 433 0036 FF       		.byte	-1
 434 0037 00       		.space	1
 435              		.type	u8x8_lc7981_240x128_display_info, %object
 436              		.size	u8x8_lc7981_240x128_display_info, 24
 437              	u8x8_lc7981_240x128_display_info:
 438 0038 00       		.byte	0
 439 0039 01       		.byte	1
 440 003a 14       		.byte	20
 441 003b 14       		.byte	20
 442 003c 01       		.byte	1
 443 003d 0A       		.byte	10
 444 003e 1E       		.byte	30
 445 003f 41       		.byte	65
 446 0040 00093D00 		.word	4000000
 447 0044 00       		.byte	0
 448 0045 04       		.byte	4
 449 0046 DC       		.byte	-36
 450 0047 14       		.byte	20
 451 0048 1E       		.byte	30
 452 0049 10       		.byte	16
 453 004a 00       		.byte	0
 454 004b 00       		.byte	0
 455 004c F000     		.short	240
ARM GAS  C:\Users\arh\AppData\Local\Temp\cceR5fye.s 			page 15


 456 004e 8000     		.short	128
 457              		.type	u8x8_d_lc7981_240x128_init_seq, %object
 458              		.size	u8x8_d_lc7981_240x128_init_seq, 31
 459              	u8x8_d_lc7981_240x128_init_seq:
 460 0050 18       		.byte	24
 461 0051 FE       		.byte	-2
 462 0052 32       		.byte	50
 463 0053 15       		.byte	21
 464 0054 00       		.byte	0
 465 0055 16       		.byte	22
 466 0056 32       		.byte	50
 467 0057 15       		.byte	21
 468 0058 01       		.byte	1
 469 0059 16       		.byte	22
 470 005a 07       		.byte	7
 471 005b 15       		.byte	21
 472 005c 02       		.byte	2
 473 005d 16       		.byte	22
 474 005e 1D       		.byte	29
 475 005f 15       		.byte	21
 476 0060 03       		.byte	3
 477 0061 16       		.byte	22
 478 0062 7F       		.byte	127
 479 0063 15       		.byte	21
 480 0064 08       		.byte	8
 481 0065 16       		.byte	22
 482 0066 00       		.byte	0
 483 0067 15       		.byte	21
 484 0068 09       		.byte	9
 485 0069 16       		.byte	22
 486 006a 00       		.byte	0
 487 006b FE       		.byte	-2
 488 006c 0A       		.byte	10
 489 006d 19       		.byte	25
 490 006e FF       		.byte	-1
 491              		.text
 492              	.Letext0:
 493              		.file 2 "c:\\program files (x86)\\cypress\\psoc creator\\4.1\\psoc creator\\import\\gnu\\arm\\5.4.
 494              		.file 3 "c:\\program files (x86)\\cypress\\psoc creator\\4.1\\psoc creator\\import\\gnu\\arm\\5.4.
 495              		.file 4 "..\\..\\u8g2\\csrc\\u8x8.h"