ARM GAS  C:\Users\Alan\AppData\Local\Temp\cciFSLdN.s 			page 1


   1              		.syntax unified
   2              		.cpu cortex-m0
   3              		.fpu softvfp
   4              		.eabi_attribute 20, 1
   5              		.eabi_attribute 21, 1
   6              		.eabi_attribute 23, 3
   7              		.eabi_attribute 24, 1
   8              		.eabi_attribute 25, 1
   9              		.eabi_attribute 26, 1
  10              		.eabi_attribute 30, 1
  11              		.eabi_attribute 34, 0
  12              		.eabi_attribute 18, 4
  13              		.thumb
  14              		.syntax unified
  15              		.file	"u8x8_d_ld7032_60x32.c"
  16              		.text
  17              	.Ltext0:
  18              		.cfi_sections	.debug_frame
  19              		.section	.text.u8x8_d_ld7032_generic,"ax",%progbits
  20              		.align	2
  21              		.code	16
  22              		.thumb_func
  23              		.type	u8x8_d_ld7032_generic, %function
  24              	u8x8_d_ld7032_generic:
  25              	.LFB0:
  26              		.file 1 "..\\..\\u8g2\\csrc\\u8x8_d_ld7032_60x32.c"
   1:..\..\u8g2\csrc/u8x8_d_ld7032_60x32.c **** /*
   2:..\..\u8g2\csrc/u8x8_d_ld7032_60x32.c **** 
   3:..\..\u8g2\csrc/u8x8_d_ld7032_60x32.c ****   u8x8_d_ld7032_60x32.c
   4:..\..\u8g2\csrc/u8x8_d_ld7032_60x32.c ****   Note: Flip Mode is NOT supported
   5:..\..\u8g2\csrc/u8x8_d_ld7032_60x32.c **** 
   6:..\..\u8g2\csrc/u8x8_d_ld7032_60x32.c ****   Universal 8bit Graphics Library (https://github.com/olikraus/u8g2/)
   7:..\..\u8g2\csrc/u8x8_d_ld7032_60x32.c **** 
   8:..\..\u8g2\csrc/u8x8_d_ld7032_60x32.c ****   Copyright (c) 2016, olikraus@gmail.com
   9:..\..\u8g2\csrc/u8x8_d_ld7032_60x32.c ****   All rights reserved.
  10:..\..\u8g2\csrc/u8x8_d_ld7032_60x32.c **** 
  11:..\..\u8g2\csrc/u8x8_d_ld7032_60x32.c ****   Redistribution and use in source and binary forms, with or without modification, 
  12:..\..\u8g2\csrc/u8x8_d_ld7032_60x32.c ****   are permitted provided that the following conditions are met:
  13:..\..\u8g2\csrc/u8x8_d_ld7032_60x32.c **** 
  14:..\..\u8g2\csrc/u8x8_d_ld7032_60x32.c ****   * Redistributions of source code must retain the above copyright notice, this list 
  15:..\..\u8g2\csrc/u8x8_d_ld7032_60x32.c ****     of conditions and the following disclaimer.
  16:..\..\u8g2\csrc/u8x8_d_ld7032_60x32.c ****     
  17:..\..\u8g2\csrc/u8x8_d_ld7032_60x32.c ****   * Redistributions in binary form must reproduce the above copyright notice, this 
  18:..\..\u8g2\csrc/u8x8_d_ld7032_60x32.c ****     list of conditions and the following disclaimer in the documentation and/or other 
  19:..\..\u8g2\csrc/u8x8_d_ld7032_60x32.c ****     materials provided with the distribution.
  20:..\..\u8g2\csrc/u8x8_d_ld7032_60x32.c **** 
  21:..\..\u8g2\csrc/u8x8_d_ld7032_60x32.c ****   THIS SOFTWARE IS PROVIDED BY THE COPYRIGHT HOLDERS AND 
  22:..\..\u8g2\csrc/u8x8_d_ld7032_60x32.c ****   CONTRIBUTORS "AS IS" AND ANY EXPRESS OR IMPLIED WARRANTIES, 
  23:..\..\u8g2\csrc/u8x8_d_ld7032_60x32.c ****   INCLUDING, BUT NOT LIMITED TO, THE IMPLIED WARRANTIES OF 
  24:..\..\u8g2\csrc/u8x8_d_ld7032_60x32.c ****   MERCHANTABILITY AND FITNESS FOR A PARTICULAR PURPOSE ARE 
  25:..\..\u8g2\csrc/u8x8_d_ld7032_60x32.c ****   DISCLAIMED. IN NO EVENT SHALL THE COPYRIGHT HOLDER OR 
  26:..\..\u8g2\csrc/u8x8_d_ld7032_60x32.c ****   CONTRIBUTORS BE LIABLE FOR ANY DIRECT, INDIRECT, INCIDENTAL, 
  27:..\..\u8g2\csrc/u8x8_d_ld7032_60x32.c ****   SPECIAL, EXEMPLARY, OR CONSEQUENTIAL DAMAGES (INCLUDING, BUT 
  28:..\..\u8g2\csrc/u8x8_d_ld7032_60x32.c ****   NOT LIMITED TO, PROCUREMENT OF SUBSTITUTE GOODS OR SERVICES; 
  29:..\..\u8g2\csrc/u8x8_d_ld7032_60x32.c ****   LOSS OF USE, DATA, OR PROFITS; OR BUSINESS INTERRUPTION) HOWEVER 
  30:..\..\u8g2\csrc/u8x8_d_ld7032_60x32.c ****   CAUSED AND ON ANY THEORY OF LIABILITY, WHETHER IN CONTRACT, 
  31:..\..\u8g2\csrc/u8x8_d_ld7032_60x32.c ****   STRICT LIABILITY, OR TORT (INCLUDING NEGLIGENCE OR OTHERWISE) 
ARM GAS  C:\Users\Alan\AppData\Local\Temp\cciFSLdN.s 			page 2


  32:..\..\u8g2\csrc/u8x8_d_ld7032_60x32.c ****   ARISING IN ANY WAY OUT OF THE USE OF THIS SOFTWARE, EVEN IF 
  33:..\..\u8g2\csrc/u8x8_d_ld7032_60x32.c ****   ADVISED OF THE POSSIBILITY OF SUCH DAMAGE.  
  34:..\..\u8g2\csrc/u8x8_d_ld7032_60x32.c ****   
  35:..\..\u8g2\csrc/u8x8_d_ld7032_60x32.c **** */
  36:..\..\u8g2\csrc/u8x8_d_ld7032_60x32.c **** 
  37:..\..\u8g2\csrc/u8x8_d_ld7032_60x32.c **** 
  38:..\..\u8g2\csrc/u8x8_d_ld7032_60x32.c **** #include "u8x8.h"
  39:..\..\u8g2\csrc/u8x8_d_ld7032_60x32.c **** 
  40:..\..\u8g2\csrc/u8x8_d_ld7032_60x32.c **** 
  41:..\..\u8g2\csrc/u8x8_d_ld7032_60x32.c **** /* testboard U8GLIB_LD7032_60x32 u8g(11, 12, 9, 10, 8);	// SPI Com: SCK = 11, MOSI = 12, CS = 9, A0
  42:..\..\u8g2\csrc/u8x8_d_ld7032_60x32.c **** /* http://www.seeedstudio.com/document/pdf/0.5OLED%20SPEC.pdf */
  43:..\..\u8g2\csrc/u8x8_d_ld7032_60x32.c **** static const uint8_t u8x8_d_ld7032_60x32_init_seq[] = {
  44:..\..\u8g2\csrc/u8x8_d_ld7032_60x32.c ****     
  45:..\..\u8g2\csrc/u8x8_d_ld7032_60x32.c ****   U8X8_START_TRANSFER(),             	/* enable chip, delay is part of the transfer start */
  46:..\..\u8g2\csrc/u8x8_d_ld7032_60x32.c **** 
  47:..\..\u8g2\csrc/u8x8_d_ld7032_60x32.c ****   //U8X8_CA(0x002, 0x001),		/* Dot Matrix Display ON */
  48:..\..\u8g2\csrc/u8x8_d_ld7032_60x32.c ****   U8X8_CA(0x014, 0x000),		/* Stand-by OFF */
  49:..\..\u8g2\csrc/u8x8_d_ld7032_60x32.c ****   U8X8_CA(0x01a, 0x004),		/* Dot Matrix Frame Rate,  special value for this OLED from manual*/
  50:..\..\u8g2\csrc/u8x8_d_ld7032_60x32.c ****   U8X8_CA(0x01d, 0x000),		/* Graphics Memory Writing Direction: reset default (right down, horizont
  51:..\..\u8g2\csrc/u8x8_d_ld7032_60x32.c ****   U8X8_CA(0x009, 0x000),		/* Display Direction:  reset default (x,y: min --> max) */
  52:..\..\u8g2\csrc/u8x8_d_ld7032_60x32.c ****   U8X8_CAA(0x030, 0x000, 0x03b),	/* Display Size X, Column Start - End*/
  53:..\..\u8g2\csrc/u8x8_d_ld7032_60x32.c ****   U8X8_CAA(0x032, 0x000, 0x01f),	/* Display Size Y, Row Start - End*/
  54:..\..\u8g2\csrc/u8x8_d_ld7032_60x32.c ****   U8X8_CA(0x010, 0x000),		/* Peak Pulse Width Set: 0 SCLK */
  55:..\..\u8g2\csrc/u8x8_d_ld7032_60x32.c ****   U8X8_CA(0x016, 0x000),		/* Peak Pulse Delay Set: 0 SCLK */
  56:..\..\u8g2\csrc/u8x8_d_ld7032_60x32.c ****   U8X8_CA(0x012, 0x040),		/* Dot Matrix Current Level Set: 0x050 * 1 uA = 80 uA */
  57:..\..\u8g2\csrc/u8x8_d_ld7032_60x32.c ****   U8X8_CA(0x018, 0x003),		/* Pre-Charge Pulse Width: 3 SCLK */
  58:..\..\u8g2\csrc/u8x8_d_ld7032_60x32.c ****   U8X8_CA(0x044, 0x002),		/* Pre-Charge Mode: Every Time */
  59:..\..\u8g2\csrc/u8x8_d_ld7032_60x32.c ****   U8X8_CA(0x048, 0x003),		/* Row overlap timing: Pre-Charge + Peak Delay + Peak boot Timing */
  60:..\..\u8g2\csrc/u8x8_d_ld7032_60x32.c ****   U8X8_CA(0x03f, 0x011),		/* VCC_R_SEL: ??? */
  61:..\..\u8g2\csrc/u8x8_d_ld7032_60x32.c ****   U8X8_CA(0x03d, 0x000),		/* VSS selection: 2.8V */
  62:..\..\u8g2\csrc/u8x8_d_ld7032_60x32.c ****   //U8X8_CA(0x002, 0x001),		/* Dot Matrix Display ON */
  63:..\..\u8g2\csrc/u8x8_d_ld7032_60x32.c ****   
  64:..\..\u8g2\csrc/u8x8_d_ld7032_60x32.c ****     
  65:..\..\u8g2\csrc/u8x8_d_ld7032_60x32.c ****   U8X8_END_TRANSFER(),             	/* disable chip */
  66:..\..\u8g2\csrc/u8x8_d_ld7032_60x32.c ****   U8X8_END()             			/* end of sequence */
  67:..\..\u8g2\csrc/u8x8_d_ld7032_60x32.c **** };
  68:..\..\u8g2\csrc/u8x8_d_ld7032_60x32.c **** 
  69:..\..\u8g2\csrc/u8x8_d_ld7032_60x32.c **** static const uint8_t u8x8_d_ld7032_60x32_powersave0_seq[] = {
  70:..\..\u8g2\csrc/u8x8_d_ld7032_60x32.c ****   U8X8_START_TRANSFER(),             	/* enable chip, delay is part of the transfer start */
  71:..\..\u8g2\csrc/u8x8_d_ld7032_60x32.c ****   U8X8_CA(0x002, 0x001),		/* Dot Matrix Display ON */
  72:..\..\u8g2\csrc/u8x8_d_ld7032_60x32.c ****   U8X8_END_TRANSFER(),             	/* disable chip */
  73:..\..\u8g2\csrc/u8x8_d_ld7032_60x32.c ****   U8X8_END()             			/* end of sequence */
  74:..\..\u8g2\csrc/u8x8_d_ld7032_60x32.c **** };
  75:..\..\u8g2\csrc/u8x8_d_ld7032_60x32.c **** 
  76:..\..\u8g2\csrc/u8x8_d_ld7032_60x32.c **** static const uint8_t u8x8_d_ld7032_60x32_powersave1_seq[] = {
  77:..\..\u8g2\csrc/u8x8_d_ld7032_60x32.c ****   U8X8_START_TRANSFER(),             	/* enable chip, delay is part of the transfer start */
  78:..\..\u8g2\csrc/u8x8_d_ld7032_60x32.c ****   U8X8_CA(0x002, 0x000),		/* Dot Matrix Display ON */
  79:..\..\u8g2\csrc/u8x8_d_ld7032_60x32.c ****   U8X8_END_TRANSFER(),             	/* disable chip */
  80:..\..\u8g2\csrc/u8x8_d_ld7032_60x32.c ****   U8X8_END()             			/* end of sequence */
  81:..\..\u8g2\csrc/u8x8_d_ld7032_60x32.c **** };
  82:..\..\u8g2\csrc/u8x8_d_ld7032_60x32.c **** 
  83:..\..\u8g2\csrc/u8x8_d_ld7032_60x32.c **** static const uint8_t u8x8_d_ld7032_60x32_flip0_seq[] = {
  84:..\..\u8g2\csrc/u8x8_d_ld7032_60x32.c ****   U8X8_START_TRANSFER(),             	/* enable chip, delay is part of the transfer start */
  85:..\..\u8g2\csrc/u8x8_d_ld7032_60x32.c ****   U8X8_CA(0x009, 0x000),		/* Display Direction:  reset default (x,y: min --> max) */  
  86:..\..\u8g2\csrc/u8x8_d_ld7032_60x32.c ****   U8X8_END_TRANSFER(),             	/* disable chip */
  87:..\..\u8g2\csrc/u8x8_d_ld7032_60x32.c ****   U8X8_END()             			/* end of sequence */
  88:..\..\u8g2\csrc/u8x8_d_ld7032_60x32.c **** };
ARM GAS  C:\Users\Alan\AppData\Local\Temp\cciFSLdN.s 			page 3


  89:..\..\u8g2\csrc/u8x8_d_ld7032_60x32.c **** 
  90:..\..\u8g2\csrc/u8x8_d_ld7032_60x32.c **** static const uint8_t u8x8_d_ld7032_60x32_flip1_seq[] = {
  91:..\..\u8g2\csrc/u8x8_d_ld7032_60x32.c ****   U8X8_START_TRANSFER(),             	/* enable chip, delay is part of the transfer start */
  92:..\..\u8g2\csrc/u8x8_d_ld7032_60x32.c ****   //U8X8_CA(0x009, 0x002),		/* Display Direction:  reset default (x,y: min --> max) */  
  93:..\..\u8g2\csrc/u8x8_d_ld7032_60x32.c ****   U8X8_END_TRANSFER(),             	/* disable chip */
  94:..\..\u8g2\csrc/u8x8_d_ld7032_60x32.c ****   U8X8_END()             			/* end of sequence */
  95:..\..\u8g2\csrc/u8x8_d_ld7032_60x32.c **** };
  96:..\..\u8g2\csrc/u8x8_d_ld7032_60x32.c **** 
  97:..\..\u8g2\csrc/u8x8_d_ld7032_60x32.c **** 
  98:..\..\u8g2\csrc/u8x8_d_ld7032_60x32.c **** static uint8_t u8x8_d_ld7032_generic(u8x8_t *u8x8, uint8_t msg, uint8_t arg_int, void *arg_ptr)
  99:..\..\u8g2\csrc/u8x8_d_ld7032_60x32.c **** {
  27              		.loc 1 99 0
  28              		.cfi_startproc
  29              		@ args = 0, pretend = 0, frame = 0
  30              		@ frame_needed = 0, uses_anonymous_args = 0
  31              	.LVL0:
  32 0000 F8B5     		push	{r3, r4, r5, r6, r7, lr}
  33              		.cfi_def_cfa_offset 24
  34              		.cfi_offset 3, -24
  35              		.cfi_offset 4, -20
  36              		.cfi_offset 5, -16
  37              		.cfi_offset 6, -12
  38              		.cfi_offset 7, -8
  39              		.cfi_offset 14, -4
  40 0002 0400     		movs	r4, r0
  41 0004 1500     		movs	r5, r2
  42 0006 1E00     		movs	r6, r3
 100:..\..\u8g2\csrc/u8x8_d_ld7032_60x32.c ****   uint8_t x, c;
 101:..\..\u8g2\csrc/u8x8_d_ld7032_60x32.c ****   uint8_t *ptr;
 102:..\..\u8g2\csrc/u8x8_d_ld7032_60x32.c ****   switch(msg)
  43              		.loc 1 102 0
  44 0008 0A39     		subs	r1, r1, #10
  45              	.LVL1:
  46 000a CBB2     		uxtb	r3, r1
  47              	.LVL2:
  48 000c 052B     		cmp	r3, #5
  49 000e 7DD8     		bhi	.L13
  50 0010 9900     		lsls	r1, r3, #2
  51 0012 3F4B     		ldr	r3, .L15
  52 0014 5B58     		ldr	r3, [r3, r1]
  53 0016 9F46     		mov	pc, r3
  54              		.section	.rodata
  55              		.align	2
  56              	.L4:
  57 0000 18000000 		.word	.L3
  58 0004 28000000 		.word	.L5
  59 0008 0C010000 		.word	.L13
  60 000c 44000000 		.word	.L6
  61 0010 6C000000 		.word	.L7
  62 0014 92000000 		.word	.L8
  63              		.section	.text.u8x8_d_ld7032_generic
  64              	.L3:
 103:..\..\u8g2\csrc/u8x8_d_ld7032_60x32.c ****   {
 104:..\..\u8g2\csrc/u8x8_d_ld7032_60x32.c ****     /* handled by the calling function
 105:..\..\u8g2\csrc/u8x8_d_ld7032_60x32.c ****     case U8X8_MSG_DISPLAY_SETUP_MEMORY:
 106:..\..\u8g2\csrc/u8x8_d_ld7032_60x32.c ****       u8x8_d_helper_display_setup_memory(u8x8, &u8x8_ld7032_60x32_display_info);
 107:..\..\u8g2\csrc/u8x8_d_ld7032_60x32.c ****       break;
ARM GAS  C:\Users\Alan\AppData\Local\Temp\cciFSLdN.s 			page 4


 108:..\..\u8g2\csrc/u8x8_d_ld7032_60x32.c ****     */
 109:..\..\u8g2\csrc/u8x8_d_ld7032_60x32.c ****     case U8X8_MSG_DISPLAY_INIT:
 110:..\..\u8g2\csrc/u8x8_d_ld7032_60x32.c ****       u8x8_d_helper_display_init(u8x8);
  65              		.loc 1 110 0
  66 0018 FFF7FEFF 		bl	u8x8_d_helper_display_init
  67              	.LVL3:
 111:..\..\u8g2\csrc/u8x8_d_ld7032_60x32.c ****       u8x8_cad_SendSequence(u8x8, u8x8_d_ld7032_60x32_init_seq);    
  68              		.loc 1 111 0
  69 001c 3D49     		ldr	r1, .L15+4
  70 001e 2000     		movs	r0, r4
  71 0020 FFF7FEFF 		bl	u8x8_cad_SendSequence
  72              	.LVL4:
 112:..\..\u8g2\csrc/u8x8_d_ld7032_60x32.c ****       break;
 113:..\..\u8g2\csrc/u8x8_d_ld7032_60x32.c ****     case U8X8_MSG_DISPLAY_SET_POWER_SAVE:
 114:..\..\u8g2\csrc/u8x8_d_ld7032_60x32.c ****       if ( arg_int == 0 )
 115:..\..\u8g2\csrc/u8x8_d_ld7032_60x32.c **** 	u8x8_cad_SendSequence(u8x8, u8x8_d_ld7032_60x32_powersave0_seq);
 116:..\..\u8g2\csrc/u8x8_d_ld7032_60x32.c ****       else
 117:..\..\u8g2\csrc/u8x8_d_ld7032_60x32.c **** 	u8x8_cad_SendSequence(u8x8, u8x8_d_ld7032_60x32_powersave1_seq);
 118:..\..\u8g2\csrc/u8x8_d_ld7032_60x32.c ****       break;
 119:..\..\u8g2\csrc/u8x8_d_ld7032_60x32.c ****     case U8X8_MSG_DISPLAY_SET_FLIP_MODE:
 120:..\..\u8g2\csrc/u8x8_d_ld7032_60x32.c ****       if ( arg_int == 0 )
 121:..\..\u8g2\csrc/u8x8_d_ld7032_60x32.c ****       {
 122:..\..\u8g2\csrc/u8x8_d_ld7032_60x32.c **** 	u8x8_cad_SendSequence(u8x8, u8x8_d_ld7032_60x32_flip0_seq);
 123:..\..\u8g2\csrc/u8x8_d_ld7032_60x32.c **** 	u8x8->x_offset = u8x8->display_info->default_x_offset;
 124:..\..\u8g2\csrc/u8x8_d_ld7032_60x32.c ****       }
 125:..\..\u8g2\csrc/u8x8_d_ld7032_60x32.c ****       else
 126:..\..\u8g2\csrc/u8x8_d_ld7032_60x32.c ****       {
 127:..\..\u8g2\csrc/u8x8_d_ld7032_60x32.c **** 	u8x8_cad_SendSequence(u8x8, u8x8_d_ld7032_60x32_flip1_seq);
 128:..\..\u8g2\csrc/u8x8_d_ld7032_60x32.c **** 	u8x8->x_offset = u8x8->display_info->flipmode_x_offset;
 129:..\..\u8g2\csrc/u8x8_d_ld7032_60x32.c ****       }
 130:..\..\u8g2\csrc/u8x8_d_ld7032_60x32.c ****       break;
 131:..\..\u8g2\csrc/u8x8_d_ld7032_60x32.c **** #ifdef U8X8_WITH_SET_CONTRAST
 132:..\..\u8g2\csrc/u8x8_d_ld7032_60x32.c ****     case U8X8_MSG_DISPLAY_SET_CONTRAST:
 133:..\..\u8g2\csrc/u8x8_d_ld7032_60x32.c ****       u8x8_cad_StartTransfer(u8x8);
 134:..\..\u8g2\csrc/u8x8_d_ld7032_60x32.c ****       u8x8_cad_SendCmd(u8x8, 0x012 );
 135:..\..\u8g2\csrc/u8x8_d_ld7032_60x32.c ****       if ( arg_int > 0x07f )			/* default is 0x040, limit to 0x07f to be on the safe side (hopefull
 136:..\..\u8g2\csrc/u8x8_d_ld7032_60x32.c **** 	arg_int= 0x07f;
 137:..\..\u8g2\csrc/u8x8_d_ld7032_60x32.c ****       u8x8_cad_SendArg(u8x8, arg_int );	/* values from 0x00 to 0x0ff are allowed, bit will all valu
 138:..\..\u8g2\csrc/u8x8_d_ld7032_60x32.c ****       u8x8_cad_EndTransfer(u8x8);
 139:..\..\u8g2\csrc/u8x8_d_ld7032_60x32.c ****       break;
 140:..\..\u8g2\csrc/u8x8_d_ld7032_60x32.c **** #endif
 141:..\..\u8g2\csrc/u8x8_d_ld7032_60x32.c ****     case U8X8_MSG_DISPLAY_DRAW_TILE:
 142:..\..\u8g2\csrc/u8x8_d_ld7032_60x32.c ****       u8x8_cad_StartTransfer(u8x8);
 143:..\..\u8g2\csrc/u8x8_d_ld7032_60x32.c ****       x = ((u8x8_tile_t *)arg_ptr)->x_pos;    
 144:..\..\u8g2\csrc/u8x8_d_ld7032_60x32.c ****       x += u8x8->x_offset/8;
 145:..\..\u8g2\csrc/u8x8_d_ld7032_60x32.c ****       u8x8_cad_SendCmd(u8x8, 0x034 );
 146:..\..\u8g2\csrc/u8x8_d_ld7032_60x32.c ****       u8x8_cad_SendArg(u8x8, x );
 147:..\..\u8g2\csrc/u8x8_d_ld7032_60x32.c ****       u8x8_cad_SendCmd(u8x8, 0x035 );
 148:..\..\u8g2\csrc/u8x8_d_ld7032_60x32.c ****       u8x8_cad_SendArg(u8x8, 0x007 );
 149:..\..\u8g2\csrc/u8x8_d_ld7032_60x32.c ****       u8x8_cad_SendCmd(u8x8, 0x036 );
 150:..\..\u8g2\csrc/u8x8_d_ld7032_60x32.c ****       u8x8_cad_SendArg(u8x8, (((u8x8_tile_t *)arg_ptr)->y_pos)*8 );
 151:..\..\u8g2\csrc/u8x8_d_ld7032_60x32.c ****       u8x8_cad_SendCmd(u8x8, 0x037 );
 152:..\..\u8g2\csrc/u8x8_d_ld7032_60x32.c ****       u8x8_cad_SendArg(u8x8, 0x01f );
 153:..\..\u8g2\csrc/u8x8_d_ld7032_60x32.c ****       u8x8_cad_SendCmd(u8x8, 0x008 );
 154:..\..\u8g2\csrc/u8x8_d_ld7032_60x32.c ****     
 155:..\..\u8g2\csrc/u8x8_d_ld7032_60x32.c ****       
 156:..\..\u8g2\csrc/u8x8_d_ld7032_60x32.c ****       do
ARM GAS  C:\Users\Alan\AppData\Local\Temp\cciFSLdN.s 			page 5


 157:..\..\u8g2\csrc/u8x8_d_ld7032_60x32.c ****       {
 158:..\..\u8g2\csrc/u8x8_d_ld7032_60x32.c **** 	c = ((u8x8_tile_t *)arg_ptr)->cnt;
 159:..\..\u8g2\csrc/u8x8_d_ld7032_60x32.c **** 	ptr = ((u8x8_tile_t *)arg_ptr)->tile_ptr;
 160:..\..\u8g2\csrc/u8x8_d_ld7032_60x32.c **** 	u8x8_cad_SendData(u8x8, c*8, ptr); 	/* note: SendData can not handle more than 255 bytes */
 161:..\..\u8g2\csrc/u8x8_d_ld7032_60x32.c **** 	arg_int--;
 162:..\..\u8g2\csrc/u8x8_d_ld7032_60x32.c ****       } while( arg_int > 0 );
 163:..\..\u8g2\csrc/u8x8_d_ld7032_60x32.c ****       
 164:..\..\u8g2\csrc/u8x8_d_ld7032_60x32.c ****       u8x8_cad_EndTransfer(u8x8);
 165:..\..\u8g2\csrc/u8x8_d_ld7032_60x32.c ****       break;
 166:..\..\u8g2\csrc/u8x8_d_ld7032_60x32.c ****     default:
 167:..\..\u8g2\csrc/u8x8_d_ld7032_60x32.c ****       return 0;
 168:..\..\u8g2\csrc/u8x8_d_ld7032_60x32.c ****   }
 169:..\..\u8g2\csrc/u8x8_d_ld7032_60x32.c ****   return 1;
  73              		.loc 1 169 0
  74 0024 0120     		movs	r0, #1
 112:..\..\u8g2\csrc/u8x8_d_ld7032_60x32.c ****       break;
  75              		.loc 1 112 0
  76 0026 72E0     		b	.L2
  77              	.LVL5:
  78              	.L5:
 114:..\..\u8g2\csrc/u8x8_d_ld7032_60x32.c **** 	u8x8_cad_SendSequence(u8x8, u8x8_d_ld7032_60x32_powersave0_seq);
  79              		.loc 1 114 0
  80 0028 002A     		cmp	r2, #0
  81 002a 05D1     		bne	.L9
 115:..\..\u8g2\csrc/u8x8_d_ld7032_60x32.c ****       else
  82              		.loc 1 115 0
  83 002c 3949     		ldr	r1, .L15+4
  84 002e 4031     		adds	r1, r1, #64
  85 0030 FFF7FEFF 		bl	u8x8_cad_SendSequence
  86              	.LVL6:
  87              		.loc 1 169 0
  88 0034 0120     		movs	r0, #1
  89 0036 6AE0     		b	.L2
  90              	.LVL7:
  91              	.L9:
 117:..\..\u8g2\csrc/u8x8_d_ld7032_60x32.c ****       break;
  92              		.loc 1 117 0
  93 0038 3649     		ldr	r1, .L15+4
  94 003a 4831     		adds	r1, r1, #72
  95 003c FFF7FEFF 		bl	u8x8_cad_SendSequence
  96              	.LVL8:
  97              		.loc 1 169 0
  98 0040 0120     		movs	r0, #1
  99 0042 64E0     		b	.L2
 100              	.LVL9:
 101              	.L6:
 120:..\..\u8g2\csrc/u8x8_d_ld7032_60x32.c ****       {
 102              		.loc 1 120 0
 103 0044 002A     		cmp	r2, #0
 104 0046 08D1     		bne	.L10
 122:..\..\u8g2\csrc/u8x8_d_ld7032_60x32.c **** 	u8x8->x_offset = u8x8->display_info->default_x_offset;
 105              		.loc 1 122 0
 106 0048 3249     		ldr	r1, .L15+4
 107 004a 5031     		adds	r1, r1, #80
 108 004c FFF7FEFF 		bl	u8x8_cad_SendSequence
 109              	.LVL10:
 123:..\..\u8g2\csrc/u8x8_d_ld7032_60x32.c ****       }
ARM GAS  C:\Users\Alan\AppData\Local\Temp\cciFSLdN.s 			page 6


 110              		.loc 1 123 0
 111 0050 2368     		ldr	r3, [r4]
 112 0052 9B7C     		ldrb	r3, [r3, #18]
 113 0054 A377     		strb	r3, [r4, #30]
 114              		.loc 1 169 0
 115 0056 0120     		movs	r0, #1
 116 0058 59E0     		b	.L2
 117              	.LVL11:
 118              	.L10:
 127:..\..\u8g2\csrc/u8x8_d_ld7032_60x32.c **** 	u8x8->x_offset = u8x8->display_info->flipmode_x_offset;
 119              		.loc 1 127 0
 120 005a 2E49     		ldr	r1, .L15+4
 121 005c 5831     		adds	r1, r1, #88
 122 005e FFF7FEFF 		bl	u8x8_cad_SendSequence
 123              	.LVL12:
 128:..\..\u8g2\csrc/u8x8_d_ld7032_60x32.c ****       }
 124              		.loc 1 128 0
 125 0062 2368     		ldr	r3, [r4]
 126 0064 DB7C     		ldrb	r3, [r3, #19]
 127 0066 A377     		strb	r3, [r4, #30]
 128              		.loc 1 169 0
 129 0068 0120     		movs	r0, #1
 130 006a 50E0     		b	.L2
 131              	.LVL13:
 132              	.L7:
 133:..\..\u8g2\csrc/u8x8_d_ld7032_60x32.c ****       u8x8_cad_SendCmd(u8x8, 0x012 );
 133              		.loc 1 133 0
 134 006c FFF7FEFF 		bl	u8x8_cad_StartTransfer
 135              	.LVL14:
 134:..\..\u8g2\csrc/u8x8_d_ld7032_60x32.c ****       if ( arg_int > 0x07f )			/* default is 0x040, limit to 0x07f to be on the safe side (hopefull
 136              		.loc 1 134 0
 137 0070 1221     		movs	r1, #18
 138 0072 2000     		movs	r0, r4
 139 0074 FFF7FEFF 		bl	u8x8_cad_SendCmd
 140              	.LVL15:
 135:..\..\u8g2\csrc/u8x8_d_ld7032_60x32.c **** 	arg_int= 0x07f;
 141              		.loc 1 135 0
 142 0078 6BB2     		sxtb	r3, r5
 143 007a 002B     		cmp	r3, #0
 144 007c 00DA     		bge	.L11
 136:..\..\u8g2\csrc/u8x8_d_ld7032_60x32.c ****       u8x8_cad_SendArg(u8x8, arg_int );	/* values from 0x00 to 0x0ff are allowed, bit will all valu
 145              		.loc 1 136 0
 146 007e 7F25     		movs	r5, #127
 147              	.L11:
 148              	.LVL16:
 137:..\..\u8g2\csrc/u8x8_d_ld7032_60x32.c ****       u8x8_cad_EndTransfer(u8x8);
 149              		.loc 1 137 0
 150 0080 2900     		movs	r1, r5
 151 0082 2000     		movs	r0, r4
 152 0084 FFF7FEFF 		bl	u8x8_cad_SendArg
 153              	.LVL17:
 138:..\..\u8g2\csrc/u8x8_d_ld7032_60x32.c ****       break;
 154              		.loc 1 138 0
 155 0088 2000     		movs	r0, r4
 156 008a FFF7FEFF 		bl	u8x8_cad_EndTransfer
 157              	.LVL18:
 158              		.loc 1 169 0
ARM GAS  C:\Users\Alan\AppData\Local\Temp\cciFSLdN.s 			page 7


 159 008e 0120     		movs	r0, #1
 139:..\..\u8g2\csrc/u8x8_d_ld7032_60x32.c **** #endif
 160              		.loc 1 139 0
 161 0090 3DE0     		b	.L2
 162              	.LVL19:
 163              	.L8:
 142:..\..\u8g2\csrc/u8x8_d_ld7032_60x32.c ****       x = ((u8x8_tile_t *)arg_ptr)->x_pos;    
 164              		.loc 1 142 0
 165 0092 FFF7FEFF 		bl	u8x8_cad_StartTransfer
 166              	.LVL20:
 143:..\..\u8g2\csrc/u8x8_d_ld7032_60x32.c ****       x += u8x8->x_offset/8;
 167              		.loc 1 143 0
 168 0096 7379     		ldrb	r3, [r6, #5]
 169              	.LVL21:
 144:..\..\u8g2\csrc/u8x8_d_ld7032_60x32.c ****       u8x8_cad_SendCmd(u8x8, 0x034 );
 170              		.loc 1 144 0
 171 0098 A77F     		ldrb	r7, [r4, #30]
 172 009a FF08     		lsrs	r7, r7, #3
 173 009c DF19     		adds	r7, r3, r7
 174 009e FFB2     		uxtb	r7, r7
 175              	.LVL22:
 145:..\..\u8g2\csrc/u8x8_d_ld7032_60x32.c ****       u8x8_cad_SendArg(u8x8, x );
 176              		.loc 1 145 0
 177 00a0 3421     		movs	r1, #52
 178 00a2 2000     		movs	r0, r4
 179 00a4 FFF7FEFF 		bl	u8x8_cad_SendCmd
 180              	.LVL23:
 146:..\..\u8g2\csrc/u8x8_d_ld7032_60x32.c ****       u8x8_cad_SendCmd(u8x8, 0x035 );
 181              		.loc 1 146 0
 182 00a8 3900     		movs	r1, r7
 183 00aa 2000     		movs	r0, r4
 184 00ac FFF7FEFF 		bl	u8x8_cad_SendArg
 185              	.LVL24:
 147:..\..\u8g2\csrc/u8x8_d_ld7032_60x32.c ****       u8x8_cad_SendArg(u8x8, 0x007 );
 186              		.loc 1 147 0
 187 00b0 3521     		movs	r1, #53
 188 00b2 2000     		movs	r0, r4
 189 00b4 FFF7FEFF 		bl	u8x8_cad_SendCmd
 190              	.LVL25:
 148:..\..\u8g2\csrc/u8x8_d_ld7032_60x32.c ****       u8x8_cad_SendCmd(u8x8, 0x036 );
 191              		.loc 1 148 0
 192 00b8 0721     		movs	r1, #7
 193 00ba 2000     		movs	r0, r4
 194 00bc FFF7FEFF 		bl	u8x8_cad_SendArg
 195              	.LVL26:
 149:..\..\u8g2\csrc/u8x8_d_ld7032_60x32.c ****       u8x8_cad_SendArg(u8x8, (((u8x8_tile_t *)arg_ptr)->y_pos)*8 );
 196              		.loc 1 149 0
 197 00c0 3621     		movs	r1, #54
 198 00c2 2000     		movs	r0, r4
 199 00c4 FFF7FEFF 		bl	u8x8_cad_SendCmd
 200              	.LVL27:
 150:..\..\u8g2\csrc/u8x8_d_ld7032_60x32.c ****       u8x8_cad_SendCmd(u8x8, 0x037 );
 201              		.loc 1 150 0
 202 00c8 B179     		ldrb	r1, [r6, #6]
 203 00ca C900     		lsls	r1, r1, #3
 204 00cc C9B2     		uxtb	r1, r1
 205 00ce 2000     		movs	r0, r4
ARM GAS  C:\Users\Alan\AppData\Local\Temp\cciFSLdN.s 			page 8


 206 00d0 FFF7FEFF 		bl	u8x8_cad_SendArg
 207              	.LVL28:
 151:..\..\u8g2\csrc/u8x8_d_ld7032_60x32.c ****       u8x8_cad_SendArg(u8x8, 0x01f );
 208              		.loc 1 151 0
 209 00d4 3721     		movs	r1, #55
 210 00d6 2000     		movs	r0, r4
 211 00d8 FFF7FEFF 		bl	u8x8_cad_SendCmd
 212              	.LVL29:
 152:..\..\u8g2\csrc/u8x8_d_ld7032_60x32.c ****       u8x8_cad_SendCmd(u8x8, 0x008 );
 213              		.loc 1 152 0
 214 00dc 1F21     		movs	r1, #31
 215 00de 2000     		movs	r0, r4
 216 00e0 FFF7FEFF 		bl	u8x8_cad_SendArg
 217              	.LVL30:
 153:..\..\u8g2\csrc/u8x8_d_ld7032_60x32.c ****     
 218              		.loc 1 153 0
 219 00e4 0821     		movs	r1, #8
 220 00e6 2000     		movs	r0, r4
 221 00e8 FFF7FEFF 		bl	u8x8_cad_SendCmd
 222              	.LVL31:
 223              	.L12:
 158:..\..\u8g2\csrc/u8x8_d_ld7032_60x32.c **** 	ptr = ((u8x8_tile_t *)arg_ptr)->tile_ptr;
 224              		.loc 1 158 0 discriminator 1
 225 00ec 3179     		ldrb	r1, [r6, #4]
 226              	.LVL32:
 160:..\..\u8g2\csrc/u8x8_d_ld7032_60x32.c **** 	arg_int--;
 227              		.loc 1 160 0 discriminator 1
 228 00ee C900     		lsls	r1, r1, #3
 229              	.LVL33:
 230 00f0 C9B2     		uxtb	r1, r1
 231 00f2 3268     		ldr	r2, [r6]
 232 00f4 2000     		movs	r0, r4
 233 00f6 FFF7FEFF 		bl	u8x8_cad_SendData
 234              	.LVL34:
 161:..\..\u8g2\csrc/u8x8_d_ld7032_60x32.c ****       } while( arg_int > 0 );
 235              		.loc 1 161 0 discriminator 1
 236 00fa 013D     		subs	r5, r5, #1
 237              	.LVL35:
 238 00fc EDB2     		uxtb	r5, r5
 239              	.LVL36:
 162:..\..\u8g2\csrc/u8x8_d_ld7032_60x32.c ****       
 240              		.loc 1 162 0 discriminator 1
 241 00fe 002D     		cmp	r5, #0
 242 0100 F4D1     		bne	.L12
 164:..\..\u8g2\csrc/u8x8_d_ld7032_60x32.c ****       break;
 243              		.loc 1 164 0
 244 0102 2000     		movs	r0, r4
 245 0104 FFF7FEFF 		bl	u8x8_cad_EndTransfer
 246              	.LVL37:
 247              		.loc 1 169 0
 248 0108 0120     		movs	r0, #1
 165:..\..\u8g2\csrc/u8x8_d_ld7032_60x32.c ****     default:
 249              		.loc 1 165 0
 250 010a 00E0     		b	.L2
 251              	.LVL38:
 252              	.L13:
 167:..\..\u8g2\csrc/u8x8_d_ld7032_60x32.c ****   }
ARM GAS  C:\Users\Alan\AppData\Local\Temp\cciFSLdN.s 			page 9


 253              		.loc 1 167 0
 254 010c 0020     		movs	r0, #0
 255              	.LVL39:
 256              	.L2:
 170:..\..\u8g2\csrc/u8x8_d_ld7032_60x32.c **** }
 257              		.loc 1 170 0
 258              		@ sp needed
 259              	.LVL40:
 260              	.LVL41:
 261 010e F8BD     		pop	{r3, r4, r5, r6, r7, pc}
 262              	.L16:
 263              		.align	2
 264              	.L15:
 265 0110 00000000 		.word	.L4
 266 0114 18000000 		.word	.LANCHOR0
 267              		.cfi_endproc
 268              	.LFE0:
 269              		.size	u8x8_d_ld7032_generic, .-u8x8_d_ld7032_generic
 270              		.section	.text.u8x8_d_ld7032_60x32,"ax",%progbits
 271              		.align	2
 272              		.global	u8x8_d_ld7032_60x32
 273              		.code	16
 274              		.thumb_func
 275              		.type	u8x8_d_ld7032_60x32, %function
 276              	u8x8_d_ld7032_60x32:
 277              	.LFB1:
 171:..\..\u8g2\csrc/u8x8_d_ld7032_60x32.c **** 
 172:..\..\u8g2\csrc/u8x8_d_ld7032_60x32.c **** 
 173:..\..\u8g2\csrc/u8x8_d_ld7032_60x32.c **** static const u8x8_display_info_t u8x8_ld7032_60x32_display_info =
 174:..\..\u8g2\csrc/u8x8_d_ld7032_60x32.c **** {
 175:..\..\u8g2\csrc/u8x8_d_ld7032_60x32.c ****   /* chip_enable_level = */ 0,
 176:..\..\u8g2\csrc/u8x8_d_ld7032_60x32.c ****   /* chip_disable_level = */ 1,
 177:..\..\u8g2\csrc/u8x8_d_ld7032_60x32.c ****   
 178:..\..\u8g2\csrc/u8x8_d_ld7032_60x32.c ****   /* post_chip_enable_wait_ns = */ 15,
 179:..\..\u8g2\csrc/u8x8_d_ld7032_60x32.c ****   /* pre_chip_disable_wait_ns = */ 20,
 180:..\..\u8g2\csrc/u8x8_d_ld7032_60x32.c ****   /* reset_pulse_width_ms = */ 100, 	
 181:..\..\u8g2\csrc/u8x8_d_ld7032_60x32.c ****   /* post_reset_wait_ms = */ 100, 
 182:..\..\u8g2\csrc/u8x8_d_ld7032_60x32.c ****   /* sda_setup_time_ns = */ 30,		/* 20ns, but cycle time is 60ns, so use 60/2 */
 183:..\..\u8g2\csrc/u8x8_d_ld7032_60x32.c ****   /* sck_pulse_width_ns = */ 30,	/* 20ns, but cycle time is 60ns, so use 60/2  */
 184:..\..\u8g2\csrc/u8x8_d_ld7032_60x32.c ****   /* sck_clock_hz = */ 4000000UL,	/* since Arduino 1.6.0, the SPI bus speed in Hz. Should be  10000
 185:..\..\u8g2\csrc/u8x8_d_ld7032_60x32.c ****   /* spi_mode = */ 0,		/* active high, rising edge */
 186:..\..\u8g2\csrc/u8x8_d_ld7032_60x32.c ****   /* i2c_bus_clock_100kHz = */ 4,
 187:..\..\u8g2\csrc/u8x8_d_ld7032_60x32.c ****   /* data_setup_time_ns = */ 20,
 188:..\..\u8g2\csrc/u8x8_d_ld7032_60x32.c ****   /* write_pulse_width_ns = */ 40,	
 189:..\..\u8g2\csrc/u8x8_d_ld7032_60x32.c ****   /* tile_width = */ 8,
 190:..\..\u8g2\csrc/u8x8_d_ld7032_60x32.c ****   /* tile_hight = */ 4,
 191:..\..\u8g2\csrc/u8x8_d_ld7032_60x32.c ****   /* default_x_offset = */ 0,
 192:..\..\u8g2\csrc/u8x8_d_ld7032_60x32.c ****   /* flipmode_x_offset = */ 0,
 193:..\..\u8g2\csrc/u8x8_d_ld7032_60x32.c ****   /* pixel_width = */ 60,
 194:..\..\u8g2\csrc/u8x8_d_ld7032_60x32.c ****   /* pixel_height = */ 32
 195:..\..\u8g2\csrc/u8x8_d_ld7032_60x32.c **** };
 196:..\..\u8g2\csrc/u8x8_d_ld7032_60x32.c **** 
 197:..\..\u8g2\csrc/u8x8_d_ld7032_60x32.c **** uint8_t u8x8_d_ld7032_60x32(u8x8_t *u8x8, uint8_t msg, uint8_t arg_int, void *arg_ptr)
 198:..\..\u8g2\csrc/u8x8_d_ld7032_60x32.c **** {
 278              		.loc 1 198 0
 279              		.cfi_startproc
 280              		@ args = 0, pretend = 0, frame = 0
ARM GAS  C:\Users\Alan\AppData\Local\Temp\cciFSLdN.s 			page 10


 281              		@ frame_needed = 0, uses_anonymous_args = 0
 282              	.LVL42:
 283 0000 10B5     		push	{r4, lr}
 284              		.cfi_def_cfa_offset 8
 285              		.cfi_offset 4, -8
 286              		.cfi_offset 14, -4
 199:..\..\u8g2\csrc/u8x8_d_ld7032_60x32.c ****     if ( msg == U8X8_MSG_DISPLAY_SETUP_MEMORY )
 287              		.loc 1 199 0
 288 0002 0929     		cmp	r1, #9
 289 0004 04D1     		bne	.L18
 200:..\..\u8g2\csrc/u8x8_d_ld7032_60x32.c ****     {
 201:..\..\u8g2\csrc/u8x8_d_ld7032_60x32.c ****       u8x8_d_helper_display_setup_memory(u8x8, &u8x8_ld7032_60x32_display_info);
 290              		.loc 1 201 0
 291 0006 0449     		ldr	r1, .L20
 292              	.LVL43:
 293 0008 FFF7FEFF 		bl	u8x8_d_helper_display_setup_memory
 294              	.LVL44:
 202:..\..\u8g2\csrc/u8x8_d_ld7032_60x32.c ****       return 1;
 295              		.loc 1 202 0
 296 000c 0120     		movs	r0, #1
 297 000e 01E0     		b	.L19
 298              	.LVL45:
 299              	.L18:
 203:..\..\u8g2\csrc/u8x8_d_ld7032_60x32.c ****     }
 204:..\..\u8g2\csrc/u8x8_d_ld7032_60x32.c ****     return u8x8_d_ld7032_generic(u8x8, msg, arg_int, arg_ptr);
 300              		.loc 1 204 0
 301 0010 FFF7FEFF 		bl	u8x8_d_ld7032_generic
 302              	.LVL46:
 303              	.L19:
 205:..\..\u8g2\csrc/u8x8_d_ld7032_60x32.c **** }
 304              		.loc 1 205 0
 305              		@ sp needed
 306 0014 10BD     		pop	{r4, pc}
 307              	.L21:
 308 0016 C046     		.align	2
 309              	.L20:
 310 0018 74000000 		.word	.LANCHOR1
 311              		.cfi_endproc
 312              	.LFE1:
 313              		.size	u8x8_d_ld7032_60x32, .-u8x8_d_ld7032_60x32
 314              		.section	.rodata
 315              		.align	2
 316              		.set	.LANCHOR0,. + 0
 317              		.type	u8x8_d_ld7032_60x32_init_seq, %object
 318              		.size	u8x8_d_ld7032_60x32_init_seq, 63
 319              	u8x8_d_ld7032_60x32_init_seq:
 320 0018 18       		.byte	24
 321 0019 15       		.byte	21
 322 001a 14       		.byte	20
 323 001b 16       		.byte	22
 324 001c 00       		.byte	0
 325 001d 15       		.byte	21
 326 001e 1A       		.byte	26
 327 001f 16       		.byte	22
 328 0020 04       		.byte	4
 329 0021 15       		.byte	21
 330 0022 1D       		.byte	29
ARM GAS  C:\Users\Alan\AppData\Local\Temp\cciFSLdN.s 			page 11


 331 0023 16       		.byte	22
 332 0024 00       		.byte	0
 333 0025 15       		.byte	21
 334 0026 09       		.byte	9
 335 0027 16       		.byte	22
 336 0028 00       		.byte	0
 337 0029 15       		.byte	21
 338 002a 30       		.byte	48
 339 002b 16       		.byte	22
 340 002c 00       		.byte	0
 341 002d 16       		.byte	22
 342 002e 3B       		.byte	59
 343 002f 15       		.byte	21
 344 0030 32       		.byte	50
 345 0031 16       		.byte	22
 346 0032 00       		.byte	0
 347 0033 16       		.byte	22
 348 0034 1F       		.byte	31
 349 0035 15       		.byte	21
 350 0036 10       		.byte	16
 351 0037 16       		.byte	22
 352 0038 00       		.byte	0
 353 0039 15       		.byte	21
 354 003a 16       		.byte	22
 355 003b 16       		.byte	22
 356 003c 00       		.byte	0
 357 003d 15       		.byte	21
 358 003e 12       		.byte	18
 359 003f 16       		.byte	22
 360 0040 40       		.byte	64
 361 0041 15       		.byte	21
 362 0042 18       		.byte	24
 363 0043 16       		.byte	22
 364 0044 03       		.byte	3
 365 0045 15       		.byte	21
 366 0046 44       		.byte	68
 367 0047 16       		.byte	22
 368 0048 02       		.byte	2
 369 0049 15       		.byte	21
 370 004a 48       		.byte	72
 371 004b 16       		.byte	22
 372 004c 03       		.byte	3
 373 004d 15       		.byte	21
 374 004e 3F       		.byte	63
 375 004f 16       		.byte	22
 376 0050 11       		.byte	17
 377 0051 15       		.byte	21
 378 0052 3D       		.byte	61
 379 0053 16       		.byte	22
 380 0054 00       		.byte	0
 381 0055 19       		.byte	25
 382 0056 FF       		.byte	-1
 383 0057 00       		.space	1
 384              		.type	u8x8_d_ld7032_60x32_powersave0_seq, %object
 385              		.size	u8x8_d_ld7032_60x32_powersave0_seq, 7
 386              	u8x8_d_ld7032_60x32_powersave0_seq:
 387 0058 18       		.byte	24
ARM GAS  C:\Users\Alan\AppData\Local\Temp\cciFSLdN.s 			page 12


 388 0059 15       		.byte	21
 389 005a 02       		.byte	2
 390 005b 16       		.byte	22
 391 005c 01       		.byte	1
 392 005d 19       		.byte	25
 393 005e FF       		.byte	-1
 394 005f 00       		.space	1
 395              		.type	u8x8_d_ld7032_60x32_powersave1_seq, %object
 396              		.size	u8x8_d_ld7032_60x32_powersave1_seq, 7
 397              	u8x8_d_ld7032_60x32_powersave1_seq:
 398 0060 18       		.byte	24
 399 0061 15       		.byte	21
 400 0062 02       		.byte	2
 401 0063 16       		.byte	22
 402 0064 00       		.byte	0
 403 0065 19       		.byte	25
 404 0066 FF       		.byte	-1
 405 0067 00       		.space	1
 406              		.type	u8x8_d_ld7032_60x32_flip0_seq, %object
 407              		.size	u8x8_d_ld7032_60x32_flip0_seq, 7
 408              	u8x8_d_ld7032_60x32_flip0_seq:
 409 0068 18       		.byte	24
 410 0069 15       		.byte	21
 411 006a 09       		.byte	9
 412 006b 16       		.byte	22
 413 006c 00       		.byte	0
 414 006d 19       		.byte	25
 415 006e FF       		.byte	-1
 416 006f 00       		.space	1
 417              		.type	u8x8_d_ld7032_60x32_flip1_seq, %object
 418              		.size	u8x8_d_ld7032_60x32_flip1_seq, 3
 419              	u8x8_d_ld7032_60x32_flip1_seq:
 420 0070 18       		.byte	24
 421 0071 19       		.byte	25
 422 0072 FF       		.byte	-1
 423 0073 00       		.align	2
 424              		.set	.LANCHOR1,. + 0
 425              		.type	u8x8_ld7032_60x32_display_info, %object
 426              		.size	u8x8_ld7032_60x32_display_info, 24
 427              	u8x8_ld7032_60x32_display_info:
 428 0074 00       		.byte	0
 429 0075 01       		.byte	1
 430 0076 0F       		.byte	15
 431 0077 14       		.byte	20
 432 0078 64       		.byte	100
 433 0079 64       		.byte	100
 434 007a 1E       		.byte	30
 435 007b 1E       		.byte	30
 436 007c 00093D00 		.word	4000000
 437 0080 00       		.byte	0
 438 0081 04       		.byte	4
 439 0082 14       		.byte	20
 440 0083 28       		.byte	40
 441 0084 08       		.byte	8
 442 0085 04       		.byte	4
 443 0086 00       		.byte	0
 444 0087 00       		.byte	0
ARM GAS  C:\Users\Alan\AppData\Local\Temp\cciFSLdN.s 			page 13


 445 0088 3C00     		.short	60
 446 008a 2000     		.short	32
 447              		.text
 448              	.Letext0:
 449              		.file 2 "c:\\program files (x86)\\cypress\\psoc creator\\4.1\\psoc creator\\import\\gnu\\arm\\5.4.
 450              		.file 3 "c:\\program files (x86)\\cypress\\psoc creator\\4.1\\psoc creator\\import\\gnu\\arm\\5.4.
 451              		.file 4 "..\\..\\u8g2\\csrc\\u8x8.h"