ARM GAS  C:\Users\gjl\AppData\Local\Temp\ccLR1rmz.s 			page 1


   1              		.syntax unified
   2              		.cpu cortex-m0
   3              		.fpu softvfp
   4              		.eabi_attribute 20, 1
   5              		.eabi_attribute 21, 1
   6              		.eabi_attribute 23, 3
   7              		.eabi_attribute 24, 1
   8              		.eabi_attribute 25, 1
   9              		.eabi_attribute 26, 1
  10              		.eabi_attribute 30, 1
  11              		.eabi_attribute 34, 0
  12              		.eabi_attribute 18, 4
  13              		.thumb
  14              		.syntax unified
  15              		.file	"u8x8_d_ssd1309.c"
  16              		.text
  17              	.Ltext0:
  18              		.cfi_sections	.debug_frame
  19              		.section	.text.u8x8_d_ssd1309_generic,"ax",%progbits
  20              		.align	2
  21              		.code	16
  22              		.thumb_func
  23              		.type	u8x8_d_ssd1309_generic, %function
  24              	u8x8_d_ssd1309_generic:
  25              	.LFB0:
  26              		.file 1 "..\\u8g2\\csrc\\u8x8_d_ssd1309.c"
   1:..\u8g2\csrc/u8x8_d_ssd1309.c **** /*
   2:..\u8g2\csrc/u8x8_d_ssd1309.c **** 
   3:..\u8g2\csrc/u8x8_d_ssd1309.c ****   u8x8_d_ssd1309.c
   4:..\u8g2\csrc/u8x8_d_ssd1309.c **** 
   5:..\u8g2\csrc/u8x8_d_ssd1309.c ****   Universal 8bit Graphics Library (https://github.com/olikraus/u8g2/)
   6:..\u8g2\csrc/u8x8_d_ssd1309.c **** 
   7:..\u8g2\csrc/u8x8_d_ssd1309.c ****   Copyright (c) 2017, olikraus@gmail.com
   8:..\u8g2\csrc/u8x8_d_ssd1309.c ****   All rights reserved.
   9:..\u8g2\csrc/u8x8_d_ssd1309.c **** 
  10:..\u8g2\csrc/u8x8_d_ssd1309.c ****   Redistribution and use in source and binary forms, with or without modification, 
  11:..\u8g2\csrc/u8x8_d_ssd1309.c ****   are permitted provided that the following conditions are met:
  12:..\u8g2\csrc/u8x8_d_ssd1309.c **** 
  13:..\u8g2\csrc/u8x8_d_ssd1309.c ****   * Redistributions of source code must retain the above copyright notice, this list 
  14:..\u8g2\csrc/u8x8_d_ssd1309.c ****     of conditions and the following disclaimer.
  15:..\u8g2\csrc/u8x8_d_ssd1309.c ****     
  16:..\u8g2\csrc/u8x8_d_ssd1309.c ****   * Redistributions in binary form must reproduce the above copyright notice, this 
  17:..\u8g2\csrc/u8x8_d_ssd1309.c ****     list of conditions and the following disclaimer in the documentation and/or other 
  18:..\u8g2\csrc/u8x8_d_ssd1309.c ****     materials provided with the distribution.
  19:..\u8g2\csrc/u8x8_d_ssd1309.c **** 
  20:..\u8g2\csrc/u8x8_d_ssd1309.c ****   THIS SOFTWARE IS PROVIDED BY THE COPYRIGHT HOLDERS AND 
  21:..\u8g2\csrc/u8x8_d_ssd1309.c ****   CONTRIBUTORS "AS IS" AND ANY EXPRESS OR IMPLIED WARRANTIES, 
  22:..\u8g2\csrc/u8x8_d_ssd1309.c ****   INCLUDING, BUT NOT LIMITED TO, THE IMPLIED WARRANTIES OF 
  23:..\u8g2\csrc/u8x8_d_ssd1309.c ****   MERCHANTABILITY AND FITNESS FOR A PARTICULAR PURPOSE ARE 
  24:..\u8g2\csrc/u8x8_d_ssd1309.c ****   DISCLAIMED. IN NO EVENT SHALL THE COPYRIGHT HOLDER OR 
  25:..\u8g2\csrc/u8x8_d_ssd1309.c ****   CONTRIBUTORS BE LIABLE FOR ANY DIRECT, INDIRECT, INCIDENTAL, 
  26:..\u8g2\csrc/u8x8_d_ssd1309.c ****   SPECIAL, EXEMPLARY, OR CONSEQUENTIAL DAMAGES (INCLUDING, BUT 
  27:..\u8g2\csrc/u8x8_d_ssd1309.c ****   NOT LIMITED TO, PROCUREMENT OF SUBSTITUTE GOODS OR SERVICES; 
  28:..\u8g2\csrc/u8x8_d_ssd1309.c ****   LOSS OF USE, DATA, OR PROFITS; OR BUSINESS INTERRUPTION) HOWEVER 
  29:..\u8g2\csrc/u8x8_d_ssd1309.c ****   CAUSED AND ON ANY THEORY OF LIABILITY, WHETHER IN CONTRACT, 
  30:..\u8g2\csrc/u8x8_d_ssd1309.c ****   STRICT LIABILITY, OR TORT (INCLUDING NEGLIGENCE OR OTHERWISE) 
  31:..\u8g2\csrc/u8x8_d_ssd1309.c ****   ARISING IN ANY WAY OUT OF THE USE OF THIS SOFTWARE, EVEN IF 
ARM GAS  C:\Users\gjl\AppData\Local\Temp\ccLR1rmz.s 			page 2


  32:..\u8g2\csrc/u8x8_d_ssd1309.c ****   ADVISED OF THE POSSIBILITY OF SUCH DAMAGE.  
  33:..\u8g2\csrc/u8x8_d_ssd1309.c ****   
  34:..\u8g2\csrc/u8x8_d_ssd1309.c **** */
  35:..\u8g2\csrc/u8x8_d_ssd1309.c **** 
  36:..\u8g2\csrc/u8x8_d_ssd1309.c **** 
  37:..\u8g2\csrc/u8x8_d_ssd1309.c **** #include "u8x8.h"
  38:..\u8g2\csrc/u8x8_d_ssd1309.c **** 
  39:..\u8g2\csrc/u8x8_d_ssd1309.c **** 
  40:..\u8g2\csrc/u8x8_d_ssd1309.c **** 
  41:..\u8g2\csrc/u8x8_d_ssd1309.c **** 
  42:..\u8g2\csrc/u8x8_d_ssd1309.c **** static const uint8_t u8x8_d_ssd1309_powersave0_seq[] = {
  43:..\u8g2\csrc/u8x8_d_ssd1309.c ****   U8X8_START_TRANSFER(),             	/* enable chip, delay is part of the transfer start */
  44:..\u8g2\csrc/u8x8_d_ssd1309.c ****   U8X8_C(0x0af),		                /* display on */
  45:..\u8g2\csrc/u8x8_d_ssd1309.c ****   U8X8_END_TRANSFER(),             	/* disable chip */
  46:..\u8g2\csrc/u8x8_d_ssd1309.c ****   U8X8_END()             			/* end of sequence */
  47:..\u8g2\csrc/u8x8_d_ssd1309.c **** };
  48:..\u8g2\csrc/u8x8_d_ssd1309.c **** 
  49:..\u8g2\csrc/u8x8_d_ssd1309.c **** static const uint8_t u8x8_d_ssd1309_powersave1_seq[] = {
  50:..\u8g2\csrc/u8x8_d_ssd1309.c ****   U8X8_START_TRANSFER(),             	/* enable chip, delay is part of the transfer start */
  51:..\u8g2\csrc/u8x8_d_ssd1309.c ****   U8X8_C(0x0ae),		                /* display off */
  52:..\u8g2\csrc/u8x8_d_ssd1309.c ****   U8X8_END_TRANSFER(),             	/* disable chip */
  53:..\u8g2\csrc/u8x8_d_ssd1309.c ****   U8X8_END()             			/* end of sequence */
  54:..\u8g2\csrc/u8x8_d_ssd1309.c **** };
  55:..\u8g2\csrc/u8x8_d_ssd1309.c **** 
  56:..\u8g2\csrc/u8x8_d_ssd1309.c **** static const uint8_t u8x8_d_ssd1309_128x64_flip0_seq[] = {
  57:..\u8g2\csrc/u8x8_d_ssd1309.c ****   U8X8_START_TRANSFER(),             	/* enable chip, delay is part of the transfer start */
  58:..\u8g2\csrc/u8x8_d_ssd1309.c ****   U8X8_C(0x0a1),				/* segment remap a0/a1*/
  59:..\u8g2\csrc/u8x8_d_ssd1309.c ****   U8X8_C(0x0c8),				/* c0: scan dir normal, c8: reverse */
  60:..\u8g2\csrc/u8x8_d_ssd1309.c ****   U8X8_END_TRANSFER(),             	/* disable chip */
  61:..\u8g2\csrc/u8x8_d_ssd1309.c ****   U8X8_END()             			/* end of sequence */
  62:..\u8g2\csrc/u8x8_d_ssd1309.c **** };
  63:..\u8g2\csrc/u8x8_d_ssd1309.c **** 
  64:..\u8g2\csrc/u8x8_d_ssd1309.c **** static const uint8_t u8x8_d_ssd1309_128x64_flip1_seq[] = {
  65:..\u8g2\csrc/u8x8_d_ssd1309.c ****   U8X8_START_TRANSFER(),             	/* enable chip, delay is part of the transfer start */
  66:..\u8g2\csrc/u8x8_d_ssd1309.c ****   U8X8_C(0x0a0),				/* segment remap a0/a1*/
  67:..\u8g2\csrc/u8x8_d_ssd1309.c ****   U8X8_C(0x0c0),				/* c0: scan dir normal, c8: reverse */
  68:..\u8g2\csrc/u8x8_d_ssd1309.c ****   U8X8_END_TRANSFER(),             	/* disable chip */
  69:..\u8g2\csrc/u8x8_d_ssd1309.c ****   U8X8_END()             			/* end of sequence */
  70:..\u8g2\csrc/u8x8_d_ssd1309.c **** };
  71:..\u8g2\csrc/u8x8_d_ssd1309.c **** 
  72:..\u8g2\csrc/u8x8_d_ssd1309.c **** 
  73:..\u8g2\csrc/u8x8_d_ssd1309.c **** 
  74:..\u8g2\csrc/u8x8_d_ssd1309.c **** static uint8_t u8x8_d_ssd1309_generic(u8x8_t *u8x8, uint8_t msg, uint8_t arg_int, void *arg_ptr)
  75:..\u8g2\csrc/u8x8_d_ssd1309.c **** {
  27              		.loc 1 75 0
  28              		.cfi_startproc
  29              		@ args = 0, pretend = 0, frame = 0
  30              		@ frame_needed = 0, uses_anonymous_args = 0
  31              	.LVL0:
  32 0000 F8B5     		push	{r3, r4, r5, r6, r7, lr}
  33              		.cfi_def_cfa_offset 24
  34              		.cfi_offset 3, -24
  35              		.cfi_offset 4, -20
  36              		.cfi_offset 5, -16
  37              		.cfi_offset 6, -12
  38              		.cfi_offset 7, -8
  39              		.cfi_offset 14, -4
ARM GAS  C:\Users\gjl\AppData\Local\Temp\ccLR1rmz.s 			page 3


  40 0002 0400     		movs	r4, r0
  41 0004 1500     		movs	r5, r2
  42 0006 1E00     		movs	r6, r3
  76:..\u8g2\csrc/u8x8_d_ssd1309.c ****   uint8_t x, c;
  77:..\u8g2\csrc/u8x8_d_ssd1309.c ****   uint8_t *ptr;
  78:..\u8g2\csrc/u8x8_d_ssd1309.c ****   switch(msg)
  43              		.loc 1 78 0
  44 0008 0E29     		cmp	r1, #14
  45 000a 3DD0     		beq	.L3
  46 000c 0F29     		cmp	r1, #15
  47 000e 02D0     		beq	.L4
  48 0010 0B29     		cmp	r1, #11
  49 0012 48D1     		bne	.L9
  50 0014 2BE0     		b	.L5
  51              	.L4:
  79:..\u8g2\csrc/u8x8_d_ssd1309.c ****   {
  80:..\u8g2\csrc/u8x8_d_ssd1309.c ****     case U8X8_MSG_DISPLAY_DRAW_TILE:
  81:..\u8g2\csrc/u8x8_d_ssd1309.c ****       u8x8_cad_StartTransfer(u8x8);
  52              		.loc 1 81 0
  53 0016 FFF7FEFF 		bl	u8x8_cad_StartTransfer
  54              	.LVL1:
  82:..\u8g2\csrc/u8x8_d_ssd1309.c ****       x = ((u8x8_tile_t *)arg_ptr)->x_pos;    
  55              		.loc 1 82 0
  56 001a 7379     		ldrb	r3, [r6, #5]
  57              	.LVL2:
  83:..\u8g2\csrc/u8x8_d_ssd1309.c ****       x *= 8;
  58              		.loc 1 83 0
  59 001c DB00     		lsls	r3, r3, #3
  60              	.LVL3:
  61 001e DBB2     		uxtb	r3, r3
  62              	.LVL4:
  84:..\u8g2\csrc/u8x8_d_ssd1309.c ****       x += u8x8->x_offset;
  63              		.loc 1 84 0
  64 0020 A77F     		ldrb	r7, [r4, #30]
  65 0022 DB19     		adds	r3, r3, r7
  66              	.LVL5:
  67 0024 DFB2     		uxtb	r7, r3
  68              	.LVL6:
  85:..\u8g2\csrc/u8x8_d_ssd1309.c ****     
  86:..\u8g2\csrc/u8x8_d_ssd1309.c ****       u8x8_cad_SendCmd(u8x8, 0x010 | (x>>4) );
  69              		.loc 1 86 0
  70 0026 3909     		lsrs	r1, r7, #4
  71 0028 1023     		movs	r3, #16
  72 002a 1943     		orrs	r1, r3
  73 002c C9B2     		uxtb	r1, r1
  74 002e 2000     		movs	r0, r4
  75 0030 FFF7FEFF 		bl	u8x8_cad_SendCmd
  76              	.LVL7:
  87:..\u8g2\csrc/u8x8_d_ssd1309.c ****       u8x8_cad_SendArg(u8x8, 0x000 | ((x&15)));
  77              		.loc 1 87 0
  78 0034 0F21     		movs	r1, #15
  79 0036 3940     		ands	r1, r7
  80 0038 2000     		movs	r0, r4
  81 003a FFF7FEFF 		bl	u8x8_cad_SendArg
  82              	.LVL8:
  88:..\u8g2\csrc/u8x8_d_ssd1309.c ****       u8x8_cad_SendArg(u8x8, 0x0b0 | (((u8x8_tile_t *)arg_ptr)->y_pos)   );
  83              		.loc 1 88 0
ARM GAS  C:\Users\gjl\AppData\Local\Temp\ccLR1rmz.s 			page 4


  84 003e B379     		ldrb	r3, [r6, #6]
  85 0040 5021     		movs	r1, #80
  86 0042 4942     		rsbs	r1, r1, #0
  87 0044 1943     		orrs	r1, r3
  88 0046 C9B2     		uxtb	r1, r1
  89 0048 2000     		movs	r0, r4
  90 004a FFF7FEFF 		bl	u8x8_cad_SendArg
  91              	.LVL9:
  92              	.L6:
  89:..\u8g2\csrc/u8x8_d_ssd1309.c **** 
  90:..\u8g2\csrc/u8x8_d_ssd1309.c ****     
  91:..\u8g2\csrc/u8x8_d_ssd1309.c ****       do
  92:..\u8g2\csrc/u8x8_d_ssd1309.c ****       {
  93:..\u8g2\csrc/u8x8_d_ssd1309.c **** 	c = ((u8x8_tile_t *)arg_ptr)->cnt;
  93              		.loc 1 93 0 discriminator 1
  94 004e 3179     		ldrb	r1, [r6, #4]
  95              	.LVL10:
  94:..\u8g2\csrc/u8x8_d_ssd1309.c **** 	ptr = ((u8x8_tile_t *)arg_ptr)->tile_ptr;
  95:..\u8g2\csrc/u8x8_d_ssd1309.c **** 	u8x8_cad_SendData(u8x8, c*8, ptr); 	/* note: SendData can not handle more than 255 bytes */
  96              		.loc 1 95 0 discriminator 1
  97 0050 C900     		lsls	r1, r1, #3
  98              	.LVL11:
  99 0052 C9B2     		uxtb	r1, r1
 100 0054 3268     		ldr	r2, [r6]
 101 0056 2000     		movs	r0, r4
 102 0058 FFF7FEFF 		bl	u8x8_cad_SendData
 103              	.LVL12:
  96:..\u8g2\csrc/u8x8_d_ssd1309.c **** 	/*
  97:..\u8g2\csrc/u8x8_d_ssd1309.c **** 	do
  98:..\u8g2\csrc/u8x8_d_ssd1309.c **** 	{
  99:..\u8g2\csrc/u8x8_d_ssd1309.c **** 	  u8x8_cad_SendData(u8x8, 8, ptr);
 100:..\u8g2\csrc/u8x8_d_ssd1309.c **** 	  ptr += 8;
 101:..\u8g2\csrc/u8x8_d_ssd1309.c **** 	  c--;
 102:..\u8g2\csrc/u8x8_d_ssd1309.c **** 	} while( c > 0 );
 103:..\u8g2\csrc/u8x8_d_ssd1309.c **** 	*/
 104:..\u8g2\csrc/u8x8_d_ssd1309.c **** 	arg_int--;
 104              		.loc 1 104 0 discriminator 1
 105 005c 013D     		subs	r5, r5, #1
 106              	.LVL13:
 107 005e EDB2     		uxtb	r5, r5
 108              	.LVL14:
 105:..\u8g2\csrc/u8x8_d_ssd1309.c ****       } while( arg_int > 0 );
 109              		.loc 1 105 0 discriminator 1
 110 0060 002D     		cmp	r5, #0
 111 0062 F4D1     		bne	.L6
 106:..\u8g2\csrc/u8x8_d_ssd1309.c ****       
 107:..\u8g2\csrc/u8x8_d_ssd1309.c ****       u8x8_cad_EndTransfer(u8x8);
 112              		.loc 1 107 0
 113 0064 2000     		movs	r0, r4
 114 0066 FFF7FEFF 		bl	u8x8_cad_EndTransfer
 115              	.LVL15:
 108:..\u8g2\csrc/u8x8_d_ssd1309.c ****       break;
 109:..\u8g2\csrc/u8x8_d_ssd1309.c ****     case U8X8_MSG_DISPLAY_SET_POWER_SAVE:
 110:..\u8g2\csrc/u8x8_d_ssd1309.c ****       if ( arg_int == 0 )
 111:..\u8g2\csrc/u8x8_d_ssd1309.c **** 	u8x8_cad_SendSequence(u8x8, u8x8_d_ssd1309_powersave0_seq);
 112:..\u8g2\csrc/u8x8_d_ssd1309.c ****       else
 113:..\u8g2\csrc/u8x8_d_ssd1309.c **** 	u8x8_cad_SendSequence(u8x8, u8x8_d_ssd1309_powersave1_seq);
ARM GAS  C:\Users\gjl\AppData\Local\Temp\ccLR1rmz.s 			page 5


 114:..\u8g2\csrc/u8x8_d_ssd1309.c ****       break;
 115:..\u8g2\csrc/u8x8_d_ssd1309.c **** #ifdef U8X8_WITH_SET_CONTRAST
 116:..\u8g2\csrc/u8x8_d_ssd1309.c ****     case U8X8_MSG_DISPLAY_SET_CONTRAST:
 117:..\u8g2\csrc/u8x8_d_ssd1309.c ****       u8x8_cad_StartTransfer(u8x8);
 118:..\u8g2\csrc/u8x8_d_ssd1309.c ****       u8x8_cad_SendCmd(u8x8, 0x081 );
 119:..\u8g2\csrc/u8x8_d_ssd1309.c ****       u8x8_cad_SendArg(u8x8, arg_int );	/* ssd1309 has range from 0 to 255 */
 120:..\u8g2\csrc/u8x8_d_ssd1309.c ****       u8x8_cad_EndTransfer(u8x8);
 121:..\u8g2\csrc/u8x8_d_ssd1309.c ****       break;
 122:..\u8g2\csrc/u8x8_d_ssd1309.c **** #endif
 123:..\u8g2\csrc/u8x8_d_ssd1309.c ****     default:
 124:..\u8g2\csrc/u8x8_d_ssd1309.c ****       return 0;
 125:..\u8g2\csrc/u8x8_d_ssd1309.c ****   }
 126:..\u8g2\csrc/u8x8_d_ssd1309.c ****   return 1;
 116              		.loc 1 126 0
 117 006a 0120     		movs	r0, #1
 108:..\u8g2\csrc/u8x8_d_ssd1309.c ****       break;
 118              		.loc 1 108 0
 119 006c 1CE0     		b	.L2
 120              	.LVL16:
 121              	.L5:
 110:..\u8g2\csrc/u8x8_d_ssd1309.c **** 	u8x8_cad_SendSequence(u8x8, u8x8_d_ssd1309_powersave0_seq);
 122              		.loc 1 110 0
 123 006e 002A     		cmp	r2, #0
 124 0070 04D1     		bne	.L7
 111:..\u8g2\csrc/u8x8_d_ssd1309.c ****       else
 125              		.loc 1 111 0
 126 0072 0E49     		ldr	r1, .L10
 127              	.LVL17:
 128 0074 FFF7FEFF 		bl	u8x8_cad_SendSequence
 129              	.LVL18:
 130              		.loc 1 126 0
 131 0078 0120     		movs	r0, #1
 132 007a 15E0     		b	.L2
 133              	.LVL19:
 134              	.L7:
 113:..\u8g2\csrc/u8x8_d_ssd1309.c ****       break;
 135              		.loc 1 113 0
 136 007c 0B49     		ldr	r1, .L10
 137              	.LVL20:
 138 007e 0831     		adds	r1, r1, #8
 139 0080 FFF7FEFF 		bl	u8x8_cad_SendSequence
 140              	.LVL21:
 141              		.loc 1 126 0
 142 0084 0120     		movs	r0, #1
 143 0086 0FE0     		b	.L2
 144              	.LVL22:
 145              	.L3:
 117:..\u8g2\csrc/u8x8_d_ssd1309.c ****       u8x8_cad_SendCmd(u8x8, 0x081 );
 146              		.loc 1 117 0
 147 0088 FFF7FEFF 		bl	u8x8_cad_StartTransfer
 148              	.LVL23:
 118:..\u8g2\csrc/u8x8_d_ssd1309.c ****       u8x8_cad_SendArg(u8x8, arg_int );	/* ssd1309 has range from 0 to 255 */
 149              		.loc 1 118 0
 150 008c 8121     		movs	r1, #129
 151 008e 2000     		movs	r0, r4
 152 0090 FFF7FEFF 		bl	u8x8_cad_SendCmd
 153              	.LVL24:
ARM GAS  C:\Users\gjl\AppData\Local\Temp\ccLR1rmz.s 			page 6


 119:..\u8g2\csrc/u8x8_d_ssd1309.c ****       u8x8_cad_EndTransfer(u8x8);
 154              		.loc 1 119 0
 155 0094 2900     		movs	r1, r5
 156 0096 2000     		movs	r0, r4
 157 0098 FFF7FEFF 		bl	u8x8_cad_SendArg
 158              	.LVL25:
 120:..\u8g2\csrc/u8x8_d_ssd1309.c ****       break;
 159              		.loc 1 120 0
 160 009c 2000     		movs	r0, r4
 161 009e FFF7FEFF 		bl	u8x8_cad_EndTransfer
 162              	.LVL26:
 163              		.loc 1 126 0
 164 00a2 0120     		movs	r0, #1
 121:..\u8g2\csrc/u8x8_d_ssd1309.c **** #endif
 165              		.loc 1 121 0
 166 00a4 00E0     		b	.L2
 167              	.LVL27:
 168              	.L9:
 124:..\u8g2\csrc/u8x8_d_ssd1309.c ****   }
 169              		.loc 1 124 0
 170 00a6 0020     		movs	r0, #0
 171              	.LVL28:
 172              	.L2:
 127:..\u8g2\csrc/u8x8_d_ssd1309.c **** }
 173              		.loc 1 127 0
 174              		@ sp needed
 175              	.LVL29:
 176              	.LVL30:
 177 00a8 F8BD     		pop	{r3, r4, r5, r6, r7, pc}
 178              	.L11:
 179 00aa C046     		.align	2
 180              	.L10:
 181 00ac 00000000 		.word	.LANCHOR0
 182              		.cfi_endproc
 183              	.LFE0:
 184              		.size	u8x8_d_ssd1309_generic, .-u8x8_d_ssd1309_generic
 185              		.section	.text.u8x8_d_ssd1309_128x64_noname,"ax",%progbits
 186              		.align	2
 187              		.global	u8x8_d_ssd1309_128x64_noname
 188              		.code	16
 189              		.thumb_func
 190              		.type	u8x8_d_ssd1309_128x64_noname, %function
 191              	u8x8_d_ssd1309_128x64_noname:
 192              	.LFB1:
 128:..\u8g2\csrc/u8x8_d_ssd1309.c **** 
 129:..\u8g2\csrc/u8x8_d_ssd1309.c **** /* timing from SSD1306 */
 130:..\u8g2\csrc/u8x8_d_ssd1309.c **** static const u8x8_display_info_t u8x8_ssd1309_128x64_noname_display_info =
 131:..\u8g2\csrc/u8x8_d_ssd1309.c **** {
 132:..\u8g2\csrc/u8x8_d_ssd1309.c ****   /* chip_enable_level = */ 0,
 133:..\u8g2\csrc/u8x8_d_ssd1309.c ****   /* chip_disable_level = */ 1,
 134:..\u8g2\csrc/u8x8_d_ssd1309.c ****   
 135:..\u8g2\csrc/u8x8_d_ssd1309.c ****   /* post_chip_enable_wait_ns = */ 20,
 136:..\u8g2\csrc/u8x8_d_ssd1309.c ****   /* pre_chip_disable_wait_ns = */ 10,
 137:..\u8g2\csrc/u8x8_d_ssd1309.c ****   /* reset_pulse_width_ms = */ 100, 	/* SSD1306: 3 us */
 138:..\u8g2\csrc/u8x8_d_ssd1309.c ****   /* post_reset_wait_ms = */ 100, /* far east OLEDs need much longer setup time */
 139:..\u8g2\csrc/u8x8_d_ssd1309.c ****   /* sda_setup_time_ns = */ 50,		/* SSD1306: 15ns, but cycle time is 100ns, so use 100/2 */
 140:..\u8g2\csrc/u8x8_d_ssd1309.c ****   /* sck_pulse_width_ns = */ 50,	/* SSD1306: 20ns, but cycle time is 100ns, so use 100/2, AVR: belo
ARM GAS  C:\Users\gjl\AppData\Local\Temp\ccLR1rmz.s 			page 7


 141:..\u8g2\csrc/u8x8_d_ssd1309.c ****   /* sck_clock_hz = */ 4000000UL,	/* since Arduino 1.6.0, the SPI bus speed in Hz. Should be  10000
 142:..\u8g2\csrc/u8x8_d_ssd1309.c ****   /* spi_mode = */ 0,		/* active high, rising edge */
 143:..\u8g2\csrc/u8x8_d_ssd1309.c ****   /* i2c_bus_clock_100kHz = */ 4,
 144:..\u8g2\csrc/u8x8_d_ssd1309.c ****   /* data_setup_time_ns = */ 40,
 145:..\u8g2\csrc/u8x8_d_ssd1309.c ****   /* write_pulse_width_ns = */ 150,	/* SSD1306: cycle time is 300ns, so use 300/2 = 150 */
 146:..\u8g2\csrc/u8x8_d_ssd1309.c ****   /* tile_width = */ 16,
 147:..\u8g2\csrc/u8x8_d_ssd1309.c ****   /* tile_hight = */ 8,
 148:..\u8g2\csrc/u8x8_d_ssd1309.c ****   /* default_x_offset = */ 2,
 149:..\u8g2\csrc/u8x8_d_ssd1309.c ****   /* flipmode_x_offset = */ 2,
 150:..\u8g2\csrc/u8x8_d_ssd1309.c ****   /* pixel_width = */ 128,
 151:..\u8g2\csrc/u8x8_d_ssd1309.c ****   /* pixel_height = */ 64
 152:..\u8g2\csrc/u8x8_d_ssd1309.c **** };
 153:..\u8g2\csrc/u8x8_d_ssd1309.c **** 
 154:..\u8g2\csrc/u8x8_d_ssd1309.c **** 
 155:..\u8g2\csrc/u8x8_d_ssd1309.c **** static const uint8_t u8x8_d_ssd1309_128x64_noname_init_seq[] = {
 156:..\u8g2\csrc/u8x8_d_ssd1309.c ****     
 157:..\u8g2\csrc/u8x8_d_ssd1309.c ****   U8X8_START_TRANSFER(),             	/* enable chip, delay is part of the transfer start */
 158:..\u8g2\csrc/u8x8_d_ssd1309.c ****   
 159:..\u8g2\csrc/u8x8_d_ssd1309.c ****   
 160:..\u8g2\csrc/u8x8_d_ssd1309.c ****   U8X8_C(0x0ae),		                /* display off */
 161:..\u8g2\csrc/u8x8_d_ssd1309.c ****   U8X8_CA(0x0d5, 0x0a0),		/* clock divide ratio (0x00=1) and oscillator frequency (0x8) */
 162:..\u8g2\csrc/u8x8_d_ssd1309.c ****   //U8X8_CA(0x0a8, 0x03f),		/* multiplex ratio */
 163:..\u8g2\csrc/u8x8_d_ssd1309.c ****   U8X8_C(0x040),		        	/* set display start line to 0 */
 164:..\u8g2\csrc/u8x8_d_ssd1309.c ****   U8X8_CA(0x020, 0x002),		/* page addressing mode */
 165:..\u8g2\csrc/u8x8_d_ssd1309.c ****   
 166:..\u8g2\csrc/u8x8_d_ssd1309.c ****   U8X8_C(0x0a1),				/* segment remap a0/a1*/
 167:..\u8g2\csrc/u8x8_d_ssd1309.c ****   U8X8_C(0x0c8),				/* c0: scan dir normal, c8: reverse */
 168:..\u8g2\csrc/u8x8_d_ssd1309.c ****   // Flipmode
 169:..\u8g2\csrc/u8x8_d_ssd1309.c ****   // U8X8_C(0x0a0),				/* segment remap a0/a1*/
 170:..\u8g2\csrc/u8x8_d_ssd1309.c ****   // U8X8_C(0x0c0),				/* c0: scan dir normal, c8: reverse */
 171:..\u8g2\csrc/u8x8_d_ssd1309.c ****   
 172:..\u8g2\csrc/u8x8_d_ssd1309.c ****   U8X8_CA(0x0da, 0x012),		/* com pin HW config, sequential com pin config (bit 4), disable left/rig
 173:..\u8g2\csrc/u8x8_d_ssd1309.c **** 
 174:..\u8g2\csrc/u8x8_d_ssd1309.c ****   U8X8_CA(0x081, 0x06f), 		/* [2] set contrast control */
 175:..\u8g2\csrc/u8x8_d_ssd1309.c ****   U8X8_CA(0x0d9, 0x0d3), 		/* [2] pre-charge period 0x022/f1*/
 176:..\u8g2\csrc/u8x8_d_ssd1309.c ****   U8X8_CA(0x0db, 0x020), 		/* vcomh deselect level */  
 177:..\u8g2\csrc/u8x8_d_ssd1309.c ****   // if vcomh is 0, then this will give the biggest range for contrast control issue #98
 178:..\u8g2\csrc/u8x8_d_ssd1309.c ****   // restored the old values for the noname constructor, because vcomh=0 will not work for all OLED
 179:..\u8g2\csrc/u8x8_d_ssd1309.c ****   
 180:..\u8g2\csrc/u8x8_d_ssd1309.c ****   U8X8_C(0x02e),				/* Deactivate scroll */ 
 181:..\u8g2\csrc/u8x8_d_ssd1309.c ****   U8X8_C(0x0a4),				/* output ram to display */
 182:..\u8g2\csrc/u8x8_d_ssd1309.c ****   U8X8_C(0x0a6),				/* none inverted normal display mode */
 183:..\u8g2\csrc/u8x8_d_ssd1309.c ****   
 184:..\u8g2\csrc/u8x8_d_ssd1309.c ****   //U8X8_C(0x0af),		                /* display on */
 185:..\u8g2\csrc/u8x8_d_ssd1309.c ****     
 186:..\u8g2\csrc/u8x8_d_ssd1309.c ****   U8X8_END_TRANSFER(),             	/* disable chip */
 187:..\u8g2\csrc/u8x8_d_ssd1309.c ****   U8X8_END()             			/* end of sequence */
 188:..\u8g2\csrc/u8x8_d_ssd1309.c **** };
 189:..\u8g2\csrc/u8x8_d_ssd1309.c **** 
 190:..\u8g2\csrc/u8x8_d_ssd1309.c **** 
 191:..\u8g2\csrc/u8x8_d_ssd1309.c **** uint8_t u8x8_d_ssd1309_128x64_noname(u8x8_t *u8x8, uint8_t msg, uint8_t arg_int, void *arg_ptr)
 192:..\u8g2\csrc/u8x8_d_ssd1309.c **** {
 193              		.loc 1 192 0
 194              		.cfi_startproc
 195              		@ args = 0, pretend = 0, frame = 0
 196              		@ frame_needed = 0, uses_anonymous_args = 0
 197              	.LVL31:
ARM GAS  C:\Users\gjl\AppData\Local\Temp\ccLR1rmz.s 			page 8


 198 0000 70B5     		push	{r4, r5, r6, lr}
 199              		.cfi_def_cfa_offset 16
 200              		.cfi_offset 4, -16
 201              		.cfi_offset 5, -12
 202              		.cfi_offset 6, -8
 203              		.cfi_offset 14, -4
 204 0002 0500     		movs	r5, r0
 205 0004 0C00     		movs	r4, r1
 206 0006 1600     		movs	r6, r2
 193:..\u8g2\csrc/u8x8_d_ssd1309.c ****     
 194:..\u8g2\csrc/u8x8_d_ssd1309.c ****   if ( u8x8_d_ssd1309_generic(u8x8, msg, arg_int, arg_ptr) != 0 )
 207              		.loc 1 194 0
 208 0008 FFF7FEFF 		bl	u8x8_d_ssd1309_generic
 209              	.LVL32:
 210 000c 0028     		cmp	r0, #0
 211 000e 2DD1     		bne	.L18
 195:..\u8g2\csrc/u8x8_d_ssd1309.c ****     return 1;
 196:..\u8g2\csrc/u8x8_d_ssd1309.c ****   
 197:..\u8g2\csrc/u8x8_d_ssd1309.c ****   switch(msg)
 212              		.loc 1 197 0
 213 0010 0A2C     		cmp	r4, #10
 214 0012 1AD0     		beq	.L14
 215 0014 0D2C     		cmp	r4, #13
 216 0016 02D0     		beq	.L15
 217 0018 092C     		cmp	r4, #9
 218 001a 28D1     		bne	.L13
 219 001c 1FE0     		b	.L16
 220              	.L15:
 198:..\u8g2\csrc/u8x8_d_ssd1309.c ****   {
 199:..\u8g2\csrc/u8x8_d_ssd1309.c ****     case U8X8_MSG_DISPLAY_SET_FLIP_MODE:
 200:..\u8g2\csrc/u8x8_d_ssd1309.c ****       if ( arg_int == 0 )
 221              		.loc 1 200 0
 222 001e 002E     		cmp	r6, #0
 223 0020 09D1     		bne	.L17
 201:..\u8g2\csrc/u8x8_d_ssd1309.c ****       {
 202:..\u8g2\csrc/u8x8_d_ssd1309.c **** 	u8x8_cad_SendSequence(u8x8, u8x8_d_ssd1309_128x64_flip0_seq);
 224              		.loc 1 202 0
 225 0022 1349     		ldr	r1, .L19
 226 0024 1031     		adds	r1, r1, #16
 227 0026 2800     		movs	r0, r5
 228 0028 FFF7FEFF 		bl	u8x8_cad_SendSequence
 229              	.LVL33:
 203:..\u8g2\csrc/u8x8_d_ssd1309.c **** 	u8x8->x_offset = u8x8->display_info->default_x_offset;
 230              		.loc 1 203 0
 231 002c 2B68     		ldr	r3, [r5]
 232 002e 9B7C     		ldrb	r3, [r3, #18]
 233 0030 AB77     		strb	r3, [r5, #30]
 204:..\u8g2\csrc/u8x8_d_ssd1309.c ****       }
 205:..\u8g2\csrc/u8x8_d_ssd1309.c ****       else
 206:..\u8g2\csrc/u8x8_d_ssd1309.c ****       {
 207:..\u8g2\csrc/u8x8_d_ssd1309.c **** 	u8x8_cad_SendSequence(u8x8, u8x8_d_ssd1309_128x64_flip1_seq);
 208:..\u8g2\csrc/u8x8_d_ssd1309.c **** 	u8x8->x_offset = u8x8->display_info->flipmode_x_offset;
 209:..\u8g2\csrc/u8x8_d_ssd1309.c ****       }
 210:..\u8g2\csrc/u8x8_d_ssd1309.c ****       break;
 211:..\u8g2\csrc/u8x8_d_ssd1309.c ****     case U8X8_MSG_DISPLAY_INIT:
 212:..\u8g2\csrc/u8x8_d_ssd1309.c ****       u8x8_d_helper_display_init(u8x8);
 213:..\u8g2\csrc/u8x8_d_ssd1309.c ****       u8x8_cad_SendSequence(u8x8, u8x8_d_ssd1309_128x64_noname_init_seq);    
ARM GAS  C:\Users\gjl\AppData\Local\Temp\ccLR1rmz.s 			page 9


 214:..\u8g2\csrc/u8x8_d_ssd1309.c ****       break;
 215:..\u8g2\csrc/u8x8_d_ssd1309.c ****     case U8X8_MSG_DISPLAY_SETUP_MEMORY:
 216:..\u8g2\csrc/u8x8_d_ssd1309.c ****       u8x8_d_helper_display_setup_memory(u8x8, &u8x8_ssd1309_128x64_noname_display_info);
 217:..\u8g2\csrc/u8x8_d_ssd1309.c ****       break;
 218:..\u8g2\csrc/u8x8_d_ssd1309.c ****     default:
 219:..\u8g2\csrc/u8x8_d_ssd1309.c ****       return 0;
 220:..\u8g2\csrc/u8x8_d_ssd1309.c ****   }
 221:..\u8g2\csrc/u8x8_d_ssd1309.c ****   return 1;
 234              		.loc 1 221 0
 235 0032 0120     		movs	r0, #1
 236 0034 1BE0     		b	.L13
 237              	.L17:
 207:..\u8g2\csrc/u8x8_d_ssd1309.c **** 	u8x8->x_offset = u8x8->display_info->flipmode_x_offset;
 238              		.loc 1 207 0
 239 0036 0E49     		ldr	r1, .L19
 240 0038 1831     		adds	r1, r1, #24
 241 003a 2800     		movs	r0, r5
 242 003c FFF7FEFF 		bl	u8x8_cad_SendSequence
 243              	.LVL34:
 208:..\u8g2\csrc/u8x8_d_ssd1309.c ****       }
 244              		.loc 1 208 0
 245 0040 2B68     		ldr	r3, [r5]
 246 0042 DB7C     		ldrb	r3, [r3, #19]
 247 0044 AB77     		strb	r3, [r5, #30]
 248              		.loc 1 221 0
 249 0046 0120     		movs	r0, #1
 250 0048 11E0     		b	.L13
 251              	.L14:
 212:..\u8g2\csrc/u8x8_d_ssd1309.c ****       u8x8_cad_SendSequence(u8x8, u8x8_d_ssd1309_128x64_noname_init_seq);    
 252              		.loc 1 212 0
 253 004a 2800     		movs	r0, r5
 254 004c FFF7FEFF 		bl	u8x8_d_helper_display_init
 255              	.LVL35:
 213:..\u8g2\csrc/u8x8_d_ssd1309.c ****       break;
 256              		.loc 1 213 0
 257 0050 0749     		ldr	r1, .L19
 258 0052 2031     		adds	r1, r1, #32
 259 0054 2800     		movs	r0, r5
 260 0056 FFF7FEFF 		bl	u8x8_cad_SendSequence
 261              	.LVL36:
 262              		.loc 1 221 0
 263 005a 0120     		movs	r0, #1
 214:..\u8g2\csrc/u8x8_d_ssd1309.c ****     case U8X8_MSG_DISPLAY_SETUP_MEMORY:
 264              		.loc 1 214 0
 265 005c 07E0     		b	.L13
 266              	.L16:
 216:..\u8g2\csrc/u8x8_d_ssd1309.c ****       break;
 267              		.loc 1 216 0
 268 005e 0449     		ldr	r1, .L19
 269 0060 4C31     		adds	r1, r1, #76
 270 0062 2800     		movs	r0, r5
 271 0064 FFF7FEFF 		bl	u8x8_d_helper_display_setup_memory
 272              	.LVL37:
 273              		.loc 1 221 0
 274 0068 0120     		movs	r0, #1
 217:..\u8g2\csrc/u8x8_d_ssd1309.c ****     default:
 275              		.loc 1 217 0
ARM GAS  C:\Users\gjl\AppData\Local\Temp\ccLR1rmz.s 			page 10


 276 006a 00E0     		b	.L13
 277              	.L18:
 195:..\u8g2\csrc/u8x8_d_ssd1309.c ****   
 278              		.loc 1 195 0
 279 006c 0120     		movs	r0, #1
 280              	.L13:
 222:..\u8g2\csrc/u8x8_d_ssd1309.c **** }
 281              		.loc 1 222 0
 282              		@ sp needed
 283              	.LVL38:
 284 006e 70BD     		pop	{r4, r5, r6, pc}
 285              	.L20:
 286              		.align	2
 287              	.L19:
 288 0070 00000000 		.word	.LANCHOR0
 289              		.cfi_endproc
 290              	.LFE1:
 291              		.size	u8x8_d_ssd1309_128x64_noname, .-u8x8_d_ssd1309_128x64_noname
 292              		.section	.rodata
 293              		.align	2
 294              		.set	.LANCHOR0,. + 0
 295              		.type	u8x8_d_ssd1309_powersave0_seq, %object
 296              		.size	u8x8_d_ssd1309_powersave0_seq, 5
 297              	u8x8_d_ssd1309_powersave0_seq:
 298 0000 18       		.byte	24
 299 0001 15       		.byte	21
 300 0002 AF       		.byte	-81
 301 0003 19       		.byte	25
 302 0004 FF       		.byte	-1
 303 0005 000000   		.space	3
 304              		.type	u8x8_d_ssd1309_powersave1_seq, %object
 305              		.size	u8x8_d_ssd1309_powersave1_seq, 5
 306              	u8x8_d_ssd1309_powersave1_seq:
 307 0008 18       		.byte	24
 308 0009 15       		.byte	21
 309 000a AE       		.byte	-82
 310 000b 19       		.byte	25
 311 000c FF       		.byte	-1
 312 000d 000000   		.space	3
 313              		.type	u8x8_d_ssd1309_128x64_flip0_seq, %object
 314              		.size	u8x8_d_ssd1309_128x64_flip0_seq, 7
 315              	u8x8_d_ssd1309_128x64_flip0_seq:
 316 0010 18       		.byte	24
 317 0011 15       		.byte	21
 318 0012 A1       		.byte	-95
 319 0013 15       		.byte	21
 320 0014 C8       		.byte	-56
 321 0015 19       		.byte	25
 322 0016 FF       		.byte	-1
 323 0017 00       		.space	1
 324              		.type	u8x8_d_ssd1309_128x64_flip1_seq, %object
 325              		.size	u8x8_d_ssd1309_128x64_flip1_seq, 7
 326              	u8x8_d_ssd1309_128x64_flip1_seq:
 327 0018 18       		.byte	24
 328 0019 15       		.byte	21
 329 001a A0       		.byte	-96
 330 001b 15       		.byte	21
ARM GAS  C:\Users\gjl\AppData\Local\Temp\ccLR1rmz.s 			page 11


 331 001c C0       		.byte	-64
 332 001d 19       		.byte	25
 333 001e FF       		.byte	-1
 334 001f 00       		.space	1
 335              		.type	u8x8_d_ssd1309_128x64_noname_init_seq, %object
 336              		.size	u8x8_d_ssd1309_128x64_noname_init_seq, 41
 337              	u8x8_d_ssd1309_128x64_noname_init_seq:
 338 0020 18       		.byte	24
 339 0021 15       		.byte	21
 340 0022 AE       		.byte	-82
 341 0023 15       		.byte	21
 342 0024 D5       		.byte	-43
 343 0025 16       		.byte	22
 344 0026 A0       		.byte	-96
 345 0027 15       		.byte	21
 346 0028 40       		.byte	64
 347 0029 15       		.byte	21
 348 002a 20       		.byte	32
 349 002b 16       		.byte	22
 350 002c 02       		.byte	2
 351 002d 15       		.byte	21
 352 002e A1       		.byte	-95
 353 002f 15       		.byte	21
 354 0030 C8       		.byte	-56
 355 0031 15       		.byte	21
 356 0032 DA       		.byte	-38
 357 0033 16       		.byte	22
 358 0034 12       		.byte	18
 359 0035 15       		.byte	21
 360 0036 81       		.byte	-127
 361 0037 16       		.byte	22
 362 0038 6F       		.byte	111
 363 0039 15       		.byte	21
 364 003a D9       		.byte	-39
 365 003b 16       		.byte	22
 366 003c D3       		.byte	-45
 367 003d 15       		.byte	21
 368 003e DB       		.byte	-37
 369 003f 16       		.byte	22
 370 0040 20       		.byte	32
 371 0041 15       		.byte	21
 372 0042 2E       		.byte	46
 373 0043 15       		.byte	21
 374 0044 A4       		.byte	-92
 375 0045 15       		.byte	21
 376 0046 A6       		.byte	-90
 377 0047 19       		.byte	25
 378 0048 FF       		.byte	-1
 379 0049 000000   		.space	3
 380              		.type	u8x8_ssd1309_128x64_noname_display_info, %object
 381              		.size	u8x8_ssd1309_128x64_noname_display_info, 24
 382              	u8x8_ssd1309_128x64_noname_display_info:
 383 004c 00       		.byte	0
 384 004d 01       		.byte	1
 385 004e 14       		.byte	20
 386 004f 0A       		.byte	10
 387 0050 64       		.byte	100
ARM GAS  C:\Users\gjl\AppData\Local\Temp\ccLR1rmz.s 			page 12


 388 0051 64       		.byte	100
 389 0052 32       		.byte	50
 390 0053 32       		.byte	50
 391 0054 00093D00 		.word	4000000
 392 0058 00       		.byte	0
 393 0059 04       		.byte	4
 394 005a 28       		.byte	40
 395 005b 96       		.byte	-106
 396 005c 10       		.byte	16
 397 005d 08       		.byte	8
 398 005e 02       		.byte	2
 399 005f 02       		.byte	2
 400 0060 8000     		.short	128
 401 0062 4000     		.short	64
 402              		.text
 403              	.Letext0:
 404              		.file 2 "c:\\program files (x86)\\cypress\\psoc creator\\4.1\\psoc creator\\import\\gnu\\arm\\5.4.
 405              		.file 3 "c:\\program files (x86)\\cypress\\psoc creator\\4.1\\psoc creator\\import\\gnu\\arm\\5.4.
 406              		.file 4 "..\\u8g2\\csrc\\u8x8.h"