ARM GAS  C:\Users\gjl\AppData\Local\Temp\ccA8HVAv.s 			page 1


   1              		.syntax unified
   2              		.cpu cortex-m0
   3              		.fpu softvfp
   4              		.eabi_attribute 20, 1
   5              		.eabi_attribute 21, 1
   6              		.eabi_attribute 23, 3
   7              		.eabi_attribute 24, 1
   8              		.eabi_attribute 25, 1
   9              		.eabi_attribute 26, 1
  10              		.eabi_attribute 30, 1
  11              		.eabi_attribute 34, 0
  12              		.eabi_attribute 18, 4
  13              		.thumb
  14              		.syntax unified
  15              		.file	"u8x8_d_st7567.c"
  16              		.text
  17              	.Ltext0:
  18              		.cfi_sections	.debug_frame
  19              		.section	.text.u8x8_d_st7567_pi_132x64,"ax",%progbits
  20              		.align	2
  21              		.global	u8x8_d_st7567_pi_132x64
  22              		.code	16
  23              		.thumb_func
  24              		.type	u8x8_d_st7567_pi_132x64, %function
  25              	u8x8_d_st7567_pi_132x64:
  26              	.LFB0:
  27              		.file 1 "..\\u8g2\\csrc\\u8x8_d_st7567.c"
   1:..\u8g2\csrc/u8x8_d_st7567.c **** /*
   2:..\u8g2\csrc/u8x8_d_st7567.c **** 
   3:..\u8g2\csrc/u8x8_d_st7567.c ****   u8x8_d_st7567.c
   4:..\u8g2\csrc/u8x8_d_st7567.c ****   
   5:..\u8g2\csrc/u8x8_d_st7567.c ****   Universal 8bit Graphics Library (https://github.com/olikraus/u8g2/)
   6:..\u8g2\csrc/u8x8_d_st7567.c **** 
   7:..\u8g2\csrc/u8x8_d_st7567.c ****   Copyright (c) 2016, olikraus@gmail.com
   8:..\u8g2\csrc/u8x8_d_st7567.c ****   All rights reserved.
   9:..\u8g2\csrc/u8x8_d_st7567.c **** 
  10:..\u8g2\csrc/u8x8_d_st7567.c ****   Redistribution and use in source and binary forms, with or without modification, 
  11:..\u8g2\csrc/u8x8_d_st7567.c ****   are permitted provided that the following conditions are met:
  12:..\u8g2\csrc/u8x8_d_st7567.c **** 
  13:..\u8g2\csrc/u8x8_d_st7567.c ****   * Redistributions of source code must retain the above copyright notice, this list 
  14:..\u8g2\csrc/u8x8_d_st7567.c ****     of conditions and the following disclaimer.
  15:..\u8g2\csrc/u8x8_d_st7567.c ****     
  16:..\u8g2\csrc/u8x8_d_st7567.c ****   * Redistributions in binary form must reproduce the above copyright notice, this 
  17:..\u8g2\csrc/u8x8_d_st7567.c ****     list of conditions and the following disclaimer in the documentation and/or other 
  18:..\u8g2\csrc/u8x8_d_st7567.c ****     materials provided with the distribution.
  19:..\u8g2\csrc/u8x8_d_st7567.c **** 
  20:..\u8g2\csrc/u8x8_d_st7567.c ****   THIS SOFTWARE IS PROVIDED BY THE COPYRIGHT HOLDERS AND 
  21:..\u8g2\csrc/u8x8_d_st7567.c ****   CONTRIBUTORS "AS IS" AND ANY EXPRESS OR IMPLIED WARRANTIES, 
  22:..\u8g2\csrc/u8x8_d_st7567.c ****   INCLUDING, BUT NOT LIMITED TO, THE IMPLIED WARRANTIES OF 
  23:..\u8g2\csrc/u8x8_d_st7567.c ****   MERCHANTABILITY AND FITNESS FOR A PARTICULAR PURPOSE ARE 
  24:..\u8g2\csrc/u8x8_d_st7567.c ****   DISCLAIMED. IN NO EVENT SHALL THE COPYRIGHT HOLDER OR 
  25:..\u8g2\csrc/u8x8_d_st7567.c ****   CONTRIBUTORS BE LIABLE FOR ANY DIRECT, INDIRECT, INCIDENTAL, 
  26:..\u8g2\csrc/u8x8_d_st7567.c ****   SPECIAL, EXEMPLARY, OR CONSEQUENTIAL DAMAGES (INCLUDING, BUT 
  27:..\u8g2\csrc/u8x8_d_st7567.c ****   NOT LIMITED TO, PROCUREMENT OF SUBSTITUTE GOODS OR SERVICES; 
  28:..\u8g2\csrc/u8x8_d_st7567.c ****   LOSS OF USE, DATA, OR PROFITS; OR BUSINESS INTERRUPTION) HOWEVER 
  29:..\u8g2\csrc/u8x8_d_st7567.c ****   CAUSED AND ON ANY THEORY OF LIABILITY, WHETHER IN CONTRACT, 
  30:..\u8g2\csrc/u8x8_d_st7567.c ****   STRICT LIABILITY, OR TORT (INCLUDING NEGLIGENCE OR OTHERWISE) 
ARM GAS  C:\Users\gjl\AppData\Local\Temp\ccA8HVAv.s 			page 2


  31:..\u8g2\csrc/u8x8_d_st7567.c ****   ARISING IN ANY WAY OUT OF THE USE OF THIS SOFTWARE, EVEN IF 
  32:..\u8g2\csrc/u8x8_d_st7567.c ****   ADVISED OF THE POSSIBILITY OF SUCH DAMAGE.  
  33:..\u8g2\csrc/u8x8_d_st7567.c **** 
  34:..\u8g2\csrc/u8x8_d_st7567.c ****   
  35:..\u8g2\csrc/u8x8_d_st7567.c **** */
  36:..\u8g2\csrc/u8x8_d_st7567.c **** #include "u8x8.h"
  37:..\u8g2\csrc/u8x8_d_st7567.c **** 
  38:..\u8g2\csrc/u8x8_d_st7567.c **** 
  39:..\u8g2\csrc/u8x8_d_st7567.c **** 
  40:..\u8g2\csrc/u8x8_d_st7567.c **** 
  41:..\u8g2\csrc/u8x8_d_st7567.c **** static const uint8_t u8x8_d_st7567_132x64_powersave0_seq[] = {
  42:..\u8g2\csrc/u8x8_d_st7567.c ****   U8X8_START_TRANSFER(),             	/* enable chip, delay is part of the transfer start */
  43:..\u8g2\csrc/u8x8_d_st7567.c ****   U8X8_C(0x0a4),		                /* all pixel off, issue 142 */
  44:..\u8g2\csrc/u8x8_d_st7567.c ****   U8X8_C(0x0af),		                /* display on */
  45:..\u8g2\csrc/u8x8_d_st7567.c ****   U8X8_END_TRANSFER(),             	/* disable chip */
  46:..\u8g2\csrc/u8x8_d_st7567.c ****   U8X8_END()             			/* end of sequence */
  47:..\u8g2\csrc/u8x8_d_st7567.c **** };
  48:..\u8g2\csrc/u8x8_d_st7567.c **** 
  49:..\u8g2\csrc/u8x8_d_st7567.c **** static const uint8_t u8x8_d_st7567_132x64_powersave1_seq[] = {
  50:..\u8g2\csrc/u8x8_d_st7567.c ****   U8X8_START_TRANSFER(),             	/* enable chip, delay is part of the transfer start */
  51:..\u8g2\csrc/u8x8_d_st7567.c ****   U8X8_C(0x0ae),		                /* display off */
  52:..\u8g2\csrc/u8x8_d_st7567.c ****   U8X8_C(0x0a5),		                /* enter powersafe: all pixel on, issue 142 */
  53:..\u8g2\csrc/u8x8_d_st7567.c ****   U8X8_END_TRANSFER(),             	/* disable chip */
  54:..\u8g2\csrc/u8x8_d_st7567.c ****   U8X8_END()             			/* end of sequence */
  55:..\u8g2\csrc/u8x8_d_st7567.c **** };
  56:..\u8g2\csrc/u8x8_d_st7567.c **** 
  57:..\u8g2\csrc/u8x8_d_st7567.c **** static const uint8_t u8x8_d_st7567_132x64_flip0_seq[] = {
  58:..\u8g2\csrc/u8x8_d_st7567.c ****   U8X8_START_TRANSFER(),             	/* enable chip, delay is part of the transfer start */
  59:..\u8g2\csrc/u8x8_d_st7567.c ****   U8X8_C(0x0a1),				/* segment remap a0/a1*/
  60:..\u8g2\csrc/u8x8_d_st7567.c ****   U8X8_C(0x0c0),				/* c0: scan dir normal, c8: reverse */
  61:..\u8g2\csrc/u8x8_d_st7567.c ****   U8X8_END_TRANSFER(),             	/* disable chip */
  62:..\u8g2\csrc/u8x8_d_st7567.c ****   U8X8_END()             			/* end of sequence */
  63:..\u8g2\csrc/u8x8_d_st7567.c **** };
  64:..\u8g2\csrc/u8x8_d_st7567.c **** 
  65:..\u8g2\csrc/u8x8_d_st7567.c **** static const uint8_t u8x8_d_st7567_132x64_flip1_seq[] = {
  66:..\u8g2\csrc/u8x8_d_st7567.c ****   U8X8_START_TRANSFER(),             	/* enable chip, delay is part of the transfer start */
  67:..\u8g2\csrc/u8x8_d_st7567.c ****   U8X8_C(0x0a0),				/* segment remap a0/a1*/
  68:..\u8g2\csrc/u8x8_d_st7567.c ****   U8X8_C(0x0c8),				/* c0: scan dir normal, c8: reverse */
  69:..\u8g2\csrc/u8x8_d_st7567.c ****   U8X8_END_TRANSFER(),             	/* disable chip */
  70:..\u8g2\csrc/u8x8_d_st7567.c ****   U8X8_END()             			/* end of sequence */
  71:..\u8g2\csrc/u8x8_d_st7567.c **** };
  72:..\u8g2\csrc/u8x8_d_st7567.c **** 
  73:..\u8g2\csrc/u8x8_d_st7567.c **** 
  74:..\u8g2\csrc/u8x8_d_st7567.c **** static const u8x8_display_info_t u8x8_st7567_132x64_display_info =
  75:..\u8g2\csrc/u8x8_d_st7567.c **** {
  76:..\u8g2\csrc/u8x8_d_st7567.c ****   /* chip_enable_level = */ 0,
  77:..\u8g2\csrc/u8x8_d_st7567.c ****   /* chip_disable_level = */ 1,
  78:..\u8g2\csrc/u8x8_d_st7567.c ****   
  79:..\u8g2\csrc/u8x8_d_st7567.c ****   /* post_chip_enable_wait_ns = */ 150,	/* */
  80:..\u8g2\csrc/u8x8_d_st7567.c ****   /* pre_chip_disable_wait_ns = */ 50,	/* */
  81:..\u8g2\csrc/u8x8_d_st7567.c ****   /* reset_pulse_width_ms = */ 1, 
  82:..\u8g2\csrc/u8x8_d_st7567.c ****   /* post_reset_wait_ms = */ 1, 
  83:..\u8g2\csrc/u8x8_d_st7567.c ****   /* sda_setup_time_ns = */ 50,		/* */
  84:..\u8g2\csrc/u8x8_d_st7567.c ****   /* sck_pulse_width_ns = */ 120,	/* */
  85:..\u8g2\csrc/u8x8_d_st7567.c ****   /* sck_clock_hz = */ 4000000UL,	/* */
  86:..\u8g2\csrc/u8x8_d_st7567.c ****   /* spi_mode = */ 0,		/* active high, rising edge */
  87:..\u8g2\csrc/u8x8_d_st7567.c ****   /* i2c_bus_clock_100kHz = */ 4,
ARM GAS  C:\Users\gjl\AppData\Local\Temp\ccA8HVAv.s 			page 3


  88:..\u8g2\csrc/u8x8_d_st7567.c ****   /* data_setup_time_ns = */ 40,	/* */
  89:..\u8g2\csrc/u8x8_d_st7567.c ****   /* write_pulse_width_ns = */ 80,	/* */
  90:..\u8g2\csrc/u8x8_d_st7567.c ****   /* tile_width = */ 17,		/* width of 17*8=136 pixel */
  91:..\u8g2\csrc/u8x8_d_st7567.c ****   /* tile_hight = */ 8,
  92:..\u8g2\csrc/u8x8_d_st7567.c ****   /* default_x_offset = */ 0,
  93:..\u8g2\csrc/u8x8_d_st7567.c ****   /* flipmode_x_offset = */ 0,
  94:..\u8g2\csrc/u8x8_d_st7567.c ****   /* pixel_width = */ 132,
  95:..\u8g2\csrc/u8x8_d_st7567.c ****   /* pixel_height = */ 64
  96:..\u8g2\csrc/u8x8_d_st7567.c **** };
  97:..\u8g2\csrc/u8x8_d_st7567.c **** 
  98:..\u8g2\csrc/u8x8_d_st7567.c **** static const uint8_t u8x8_d_st7567_132x64_init_seq[] = {
  99:..\u8g2\csrc/u8x8_d_st7567.c ****     
 100:..\u8g2\csrc/u8x8_d_st7567.c ****   U8X8_START_TRANSFER(),             	/* enable chip, delay is part of the transfer start */
 101:..\u8g2\csrc/u8x8_d_st7567.c ****   
 102:..\u8g2\csrc/u8x8_d_st7567.c ****   U8X8_C(0x0e2),            			/* soft reset */
 103:..\u8g2\csrc/u8x8_d_st7567.c ****   U8X8_C(0x0ae),		                /* display off */
 104:..\u8g2\csrc/u8x8_d_st7567.c ****   U8X8_C(0x040),		                /* set display start line to 0 */
 105:..\u8g2\csrc/u8x8_d_st7567.c ****   
 106:..\u8g2\csrc/u8x8_d_st7567.c ****   U8X8_C(0x0a1),		                /* ADC set to reverse */
 107:..\u8g2\csrc/u8x8_d_st7567.c ****   U8X8_C(0x0c0),		                /* common output mode */
 108:..\u8g2\csrc/u8x8_d_st7567.c ****   // Flipmode
 109:..\u8g2\csrc/u8x8_d_st7567.c ****   //U8X8_C(0x0a0),		                /* ADC set to reverse */
 110:..\u8g2\csrc/u8x8_d_st7567.c ****   //U8X8_C(0x0c8),		                /* common output mode */
 111:..\u8g2\csrc/u8x8_d_st7567.c ****   
 112:..\u8g2\csrc/u8x8_d_st7567.c ****   U8X8_C(0x0a6),		                /* display normal, bit val 0: LCD pixel off. */
 113:..\u8g2\csrc/u8x8_d_st7567.c ****   U8X8_C(0x0a3),		                /* LCD bias 1/7 */
 114:..\u8g2\csrc/u8x8_d_st7567.c ****   /* power on sequence from paxinstruments */
 115:..\u8g2\csrc/u8x8_d_st7567.c ****   U8X8_C(0x028|4),		                /* all power  control circuits on */
 116:..\u8g2\csrc/u8x8_d_st7567.c ****   U8X8_DLY(50),
 117:..\u8g2\csrc/u8x8_d_st7567.c ****   U8X8_C(0x028|6),		                /* all power  control circuits on */
 118:..\u8g2\csrc/u8x8_d_st7567.c ****   U8X8_DLY(50),
 119:..\u8g2\csrc/u8x8_d_st7567.c ****   U8X8_C(0x028|7),		                /* all power  control circuits on */
 120:..\u8g2\csrc/u8x8_d_st7567.c ****   U8X8_DLY(50),
 121:..\u8g2\csrc/u8x8_d_st7567.c ****   
 122:..\u8g2\csrc/u8x8_d_st7567.c ****   U8X8_C(0x026),		                /* v0 voltage resistor ratio */
 123:..\u8g2\csrc/u8x8_d_st7567.c ****   U8X8_CA(0x081, 0x027),		/* set contrast, contrast value*/
 124:..\u8g2\csrc/u8x8_d_st7567.c ****   
 125:..\u8g2\csrc/u8x8_d_st7567.c ****   U8X8_C(0x0ae),		                /* display off */
 126:..\u8g2\csrc/u8x8_d_st7567.c ****   U8X8_C(0x0a5),		                /* enter powersafe: all pixel on, issue 142 */
 127:..\u8g2\csrc/u8x8_d_st7567.c ****    
 128:..\u8g2\csrc/u8x8_d_st7567.c ****   U8X8_END_TRANSFER(),             	/* disable chip */
 129:..\u8g2\csrc/u8x8_d_st7567.c ****   U8X8_END()             			/* end of sequence */
 130:..\u8g2\csrc/u8x8_d_st7567.c **** };
 131:..\u8g2\csrc/u8x8_d_st7567.c **** 
 132:..\u8g2\csrc/u8x8_d_st7567.c **** /* pax instruments 132x64 display */
 133:..\u8g2\csrc/u8x8_d_st7567.c **** uint8_t u8x8_d_st7567_pi_132x64(u8x8_t *u8x8, uint8_t msg, uint8_t arg_int, void *arg_ptr)
 134:..\u8g2\csrc/u8x8_d_st7567.c **** {
  28              		.loc 1 134 0
  29              		.cfi_startproc
  30              		@ args = 0, pretend = 0, frame = 0
  31              		@ frame_needed = 0, uses_anonymous_args = 0
  32              	.LVL0:
  33 0000 F0B5     		push	{r4, r5, r6, r7, lr}
  34              		.cfi_def_cfa_offset 20
  35              		.cfi_offset 4, -20
  36              		.cfi_offset 5, -16
  37              		.cfi_offset 6, -12
ARM GAS  C:\Users\gjl\AppData\Local\Temp\ccA8HVAv.s 			page 4


  38              		.cfi_offset 7, -8
  39              		.cfi_offset 14, -4
  40 0002 4746     		mov	r7, r8
  41 0004 80B4     		push	{r7}
  42              		.cfi_def_cfa_offset 24
  43              		.cfi_offset 8, -24
  44 0006 0500     		movs	r5, r0
  45 0008 1400     		movs	r4, r2
  46 000a 1F00     		movs	r7, r3
 135:..\u8g2\csrc/u8x8_d_st7567.c ****   uint8_t x, c;
 136:..\u8g2\csrc/u8x8_d_st7567.c ****   uint8_t *ptr;
 137:..\u8g2\csrc/u8x8_d_st7567.c ****   switch(msg)
  47              		.loc 1 137 0
  48 000c 0939     		subs	r1, r1, #9
  49              	.LVL1:
  50 000e CBB2     		uxtb	r3, r1
  51              	.LVL2:
  52 0010 062B     		cmp	r3, #6
  53 0012 7BD8     		bhi	.L14
  54 0014 9900     		lsls	r1, r3, #2
  55 0016 3F4B     		ldr	r3, .L15
  56 0018 5B58     		ldr	r3, [r3, r1]
  57 001a 9F46     		mov	pc, r3
  58              		.section	.rodata
  59              		.align	2
  60              	.L4:
  61 0000 1C000000 		.word	.L3
  62 0004 26000000 		.word	.L5
  63 0008 38000000 		.word	.L6
  64 000c 0C010000 		.word	.L14
  65 0010 54000000 		.word	.L7
  66 0014 7C000000 		.word	.L8
  67 0018 9A000000 		.word	.L9
  68              		.section	.text.u8x8_d_st7567_pi_132x64
  69              	.L3:
 138:..\u8g2\csrc/u8x8_d_st7567.c ****   {
 139:..\u8g2\csrc/u8x8_d_st7567.c ****     case U8X8_MSG_DISPLAY_SETUP_MEMORY:
 140:..\u8g2\csrc/u8x8_d_st7567.c ****       u8x8_d_helper_display_setup_memory(u8x8, &u8x8_st7567_132x64_display_info);
  70              		.loc 1 140 0
  71 001c 3E49     		ldr	r1, .L15+4
  72 001e FFF7FEFF 		bl	u8x8_d_helper_display_setup_memory
  73              	.LVL3:
 141:..\u8g2\csrc/u8x8_d_st7567.c ****       break;
 142:..\u8g2\csrc/u8x8_d_st7567.c ****     case U8X8_MSG_DISPLAY_INIT:
 143:..\u8g2\csrc/u8x8_d_st7567.c ****       u8x8_d_helper_display_init(u8x8);
 144:..\u8g2\csrc/u8x8_d_st7567.c ****       u8x8_cad_SendSequence(u8x8, u8x8_d_st7567_132x64_init_seq);
 145:..\u8g2\csrc/u8x8_d_st7567.c ****       break;
 146:..\u8g2\csrc/u8x8_d_st7567.c ****     case U8X8_MSG_DISPLAY_SET_POWER_SAVE:
 147:..\u8g2\csrc/u8x8_d_st7567.c ****       if ( arg_int == 0 )
 148:..\u8g2\csrc/u8x8_d_st7567.c **** 	u8x8_cad_SendSequence(u8x8, u8x8_d_st7567_132x64_powersave0_seq);
 149:..\u8g2\csrc/u8x8_d_st7567.c ****       else
 150:..\u8g2\csrc/u8x8_d_st7567.c **** 	u8x8_cad_SendSequence(u8x8, u8x8_d_st7567_132x64_powersave1_seq);
 151:..\u8g2\csrc/u8x8_d_st7567.c ****       break;
 152:..\u8g2\csrc/u8x8_d_st7567.c ****     case U8X8_MSG_DISPLAY_SET_FLIP_MODE:
 153:..\u8g2\csrc/u8x8_d_st7567.c ****       if ( arg_int == 0 )
 154:..\u8g2\csrc/u8x8_d_st7567.c ****       {
 155:..\u8g2\csrc/u8x8_d_st7567.c **** 	u8x8_cad_SendSequence(u8x8, u8x8_d_st7567_132x64_flip0_seq);
ARM GAS  C:\Users\gjl\AppData\Local\Temp\ccA8HVAv.s 			page 5


 156:..\u8g2\csrc/u8x8_d_st7567.c **** 	u8x8->x_offset = u8x8->display_info->default_x_offset;
 157:..\u8g2\csrc/u8x8_d_st7567.c ****       }
 158:..\u8g2\csrc/u8x8_d_st7567.c ****       else
 159:..\u8g2\csrc/u8x8_d_st7567.c ****       {
 160:..\u8g2\csrc/u8x8_d_st7567.c **** 	u8x8_cad_SendSequence(u8x8, u8x8_d_st7567_132x64_flip1_seq);
 161:..\u8g2\csrc/u8x8_d_st7567.c **** 	u8x8->x_offset = u8x8->display_info->flipmode_x_offset;
 162:..\u8g2\csrc/u8x8_d_st7567.c ****       }	
 163:..\u8g2\csrc/u8x8_d_st7567.c ****       break;
 164:..\u8g2\csrc/u8x8_d_st7567.c **** #ifdef U8X8_WITH_SET_CONTRAST
 165:..\u8g2\csrc/u8x8_d_st7567.c ****     case U8X8_MSG_DISPLAY_SET_CONTRAST:
 166:..\u8g2\csrc/u8x8_d_st7567.c ****       u8x8_cad_StartTransfer(u8x8);
 167:..\u8g2\csrc/u8x8_d_st7567.c ****       u8x8_cad_SendCmd(u8x8, 0x081 );
 168:..\u8g2\csrc/u8x8_d_st7567.c ****       u8x8_cad_SendArg(u8x8, arg_int >> 2 );	/* st7567 has range from 0 to 63 */
 169:..\u8g2\csrc/u8x8_d_st7567.c ****       u8x8_cad_EndTransfer(u8x8);
 170:..\u8g2\csrc/u8x8_d_st7567.c ****       break;
 171:..\u8g2\csrc/u8x8_d_st7567.c **** #endif
 172:..\u8g2\csrc/u8x8_d_st7567.c ****     case U8X8_MSG_DISPLAY_DRAW_TILE:
 173:..\u8g2\csrc/u8x8_d_st7567.c ****       u8x8_cad_StartTransfer(u8x8);
 174:..\u8g2\csrc/u8x8_d_st7567.c ****     
 175:..\u8g2\csrc/u8x8_d_st7567.c ****       x = ((u8x8_tile_t *)arg_ptr)->x_pos;
 176:..\u8g2\csrc/u8x8_d_st7567.c ****       x *= 8;
 177:..\u8g2\csrc/u8x8_d_st7567.c ****       x += u8x8->x_offset;
 178:..\u8g2\csrc/u8x8_d_st7567.c ****       u8x8_cad_SendCmd(u8x8, 0x010 | (x>>4) );
 179:..\u8g2\csrc/u8x8_d_st7567.c ****       u8x8_cad_SendCmd(u8x8, 0x000 | ((x&15)));
 180:..\u8g2\csrc/u8x8_d_st7567.c ****       u8x8_cad_SendCmd(u8x8, 0x0b0 | (((u8x8_tile_t *)arg_ptr)->y_pos));
 181:..\u8g2\csrc/u8x8_d_st7567.c ****     
 182:..\u8g2\csrc/u8x8_d_st7567.c ****       c = ((u8x8_tile_t *)arg_ptr)->cnt;
 183:..\u8g2\csrc/u8x8_d_st7567.c ****       c *= 8;
 184:..\u8g2\csrc/u8x8_d_st7567.c ****       ptr = ((u8x8_tile_t *)arg_ptr)->tile_ptr;
 185:..\u8g2\csrc/u8x8_d_st7567.c ****       /* 
 186:..\u8g2\csrc/u8x8_d_st7567.c **** 	The following if condition checks the hardware limits of the st7567 
 187:..\u8g2\csrc/u8x8_d_st7567.c **** 	controller: It is not allowed to write beyond the display limits.
 188:..\u8g2\csrc/u8x8_d_st7567.c **** 	This is in fact an issue within flip mode.
 189:..\u8g2\csrc/u8x8_d_st7567.c ****       */
 190:..\u8g2\csrc/u8x8_d_st7567.c ****       if ( c + x > 132u )
 191:..\u8g2\csrc/u8x8_d_st7567.c ****       {
 192:..\u8g2\csrc/u8x8_d_st7567.c **** 	c = 132u;
 193:..\u8g2\csrc/u8x8_d_st7567.c **** 	c -= x;
 194:..\u8g2\csrc/u8x8_d_st7567.c ****       }
 195:..\u8g2\csrc/u8x8_d_st7567.c ****       do
 196:..\u8g2\csrc/u8x8_d_st7567.c ****       {
 197:..\u8g2\csrc/u8x8_d_st7567.c **** 	u8x8_cad_SendData(u8x8, c, ptr);	/* note: SendData can not handle more than 255 bytes */
 198:..\u8g2\csrc/u8x8_d_st7567.c **** 	arg_int--;
 199:..\u8g2\csrc/u8x8_d_st7567.c ****       } while( arg_int > 0 );
 200:..\u8g2\csrc/u8x8_d_st7567.c ****       
 201:..\u8g2\csrc/u8x8_d_st7567.c ****       u8x8_cad_EndTransfer(u8x8);
 202:..\u8g2\csrc/u8x8_d_st7567.c ****       break;
 203:..\u8g2\csrc/u8x8_d_st7567.c ****     default:
 204:..\u8g2\csrc/u8x8_d_st7567.c ****       return 0;
 205:..\u8g2\csrc/u8x8_d_st7567.c ****   }
 206:..\u8g2\csrc/u8x8_d_st7567.c ****   return 1;
  74              		.loc 1 206 0
  75 0022 0120     		movs	r0, #1
 141:..\u8g2\csrc/u8x8_d_st7567.c ****       break;
  76              		.loc 1 141 0
  77 0024 73E0     		b	.L2
  78              	.LVL4:
ARM GAS  C:\Users\gjl\AppData\Local\Temp\ccA8HVAv.s 			page 6


  79              	.L5:
 143:..\u8g2\csrc/u8x8_d_st7567.c ****       u8x8_cad_SendSequence(u8x8, u8x8_d_st7567_132x64_init_seq);
  80              		.loc 1 143 0
  81 0026 FFF7FEFF 		bl	u8x8_d_helper_display_init
  82              	.LVL5:
 144:..\u8g2\csrc/u8x8_d_st7567.c ****       break;
  83              		.loc 1 144 0
  84 002a 3B49     		ldr	r1, .L15+4
  85 002c 1831     		adds	r1, r1, #24
  86 002e 2800     		movs	r0, r5
  87 0030 FFF7FEFF 		bl	u8x8_cad_SendSequence
  88              	.LVL6:
  89              		.loc 1 206 0
  90 0034 0120     		movs	r0, #1
 145:..\u8g2\csrc/u8x8_d_st7567.c ****     case U8X8_MSG_DISPLAY_SET_POWER_SAVE:
  91              		.loc 1 145 0
  92 0036 6AE0     		b	.L2
  93              	.LVL7:
  94              	.L6:
 147:..\u8g2\csrc/u8x8_d_st7567.c **** 	u8x8_cad_SendSequence(u8x8, u8x8_d_st7567_132x64_powersave0_seq);
  95              		.loc 1 147 0
  96 0038 002A     		cmp	r2, #0
  97 003a 05D1     		bne	.L10
 148:..\u8g2\csrc/u8x8_d_st7567.c ****       else
  98              		.loc 1 148 0
  99 003c 3649     		ldr	r1, .L15+4
 100 003e 4031     		adds	r1, r1, #64
 101 0040 FFF7FEFF 		bl	u8x8_cad_SendSequence
 102              	.LVL8:
 103              		.loc 1 206 0
 104 0044 0120     		movs	r0, #1
 105 0046 62E0     		b	.L2
 106              	.LVL9:
 107              	.L10:
 150:..\u8g2\csrc/u8x8_d_st7567.c ****       break;
 108              		.loc 1 150 0
 109 0048 3349     		ldr	r1, .L15+4
 110 004a 4831     		adds	r1, r1, #72
 111 004c FFF7FEFF 		bl	u8x8_cad_SendSequence
 112              	.LVL10:
 113              		.loc 1 206 0
 114 0050 0120     		movs	r0, #1
 115 0052 5CE0     		b	.L2
 116              	.LVL11:
 117              	.L7:
 153:..\u8g2\csrc/u8x8_d_st7567.c ****       {
 118              		.loc 1 153 0
 119 0054 002A     		cmp	r2, #0
 120 0056 08D1     		bne	.L11
 155:..\u8g2\csrc/u8x8_d_st7567.c **** 	u8x8->x_offset = u8x8->display_info->default_x_offset;
 121              		.loc 1 155 0
 122 0058 2F49     		ldr	r1, .L15+4
 123 005a 5031     		adds	r1, r1, #80
 124 005c FFF7FEFF 		bl	u8x8_cad_SendSequence
 125              	.LVL12:
 156:..\u8g2\csrc/u8x8_d_st7567.c ****       }
 126              		.loc 1 156 0
ARM GAS  C:\Users\gjl\AppData\Local\Temp\ccA8HVAv.s 			page 7


 127 0060 2B68     		ldr	r3, [r5]
 128 0062 9B7C     		ldrb	r3, [r3, #18]
 129 0064 AB77     		strb	r3, [r5, #30]
 130              		.loc 1 206 0
 131 0066 0120     		movs	r0, #1
 132 0068 51E0     		b	.L2
 133              	.LVL13:
 134              	.L11:
 160:..\u8g2\csrc/u8x8_d_st7567.c **** 	u8x8->x_offset = u8x8->display_info->flipmode_x_offset;
 135              		.loc 1 160 0
 136 006a 2B49     		ldr	r1, .L15+4
 137 006c 5831     		adds	r1, r1, #88
 138 006e FFF7FEFF 		bl	u8x8_cad_SendSequence
 139              	.LVL14:
 161:..\u8g2\csrc/u8x8_d_st7567.c ****       }	
 140              		.loc 1 161 0
 141 0072 2B68     		ldr	r3, [r5]
 142 0074 DB7C     		ldrb	r3, [r3, #19]
 143 0076 AB77     		strb	r3, [r5, #30]
 144              		.loc 1 206 0
 145 0078 0120     		movs	r0, #1
 146 007a 48E0     		b	.L2
 147              	.LVL15:
 148              	.L8:
 166:..\u8g2\csrc/u8x8_d_st7567.c ****       u8x8_cad_SendCmd(u8x8, 0x081 );
 149              		.loc 1 166 0
 150 007c FFF7FEFF 		bl	u8x8_cad_StartTransfer
 151              	.LVL16:
 167:..\u8g2\csrc/u8x8_d_st7567.c ****       u8x8_cad_SendArg(u8x8, arg_int >> 2 );	/* st7567 has range from 0 to 63 */
 152              		.loc 1 167 0
 153 0080 8121     		movs	r1, #129
 154 0082 2800     		movs	r0, r5
 155 0084 FFF7FEFF 		bl	u8x8_cad_SendCmd
 156              	.LVL17:
 168:..\u8g2\csrc/u8x8_d_st7567.c ****       u8x8_cad_EndTransfer(u8x8);
 157              		.loc 1 168 0
 158 0088 A108     		lsrs	r1, r4, #2
 159 008a 2800     		movs	r0, r5
 160 008c FFF7FEFF 		bl	u8x8_cad_SendArg
 161              	.LVL18:
 169:..\u8g2\csrc/u8x8_d_st7567.c ****       break;
 162              		.loc 1 169 0
 163 0090 2800     		movs	r0, r5
 164 0092 FFF7FEFF 		bl	u8x8_cad_EndTransfer
 165              	.LVL19:
 166              		.loc 1 206 0
 167 0096 0120     		movs	r0, #1
 170:..\u8g2\csrc/u8x8_d_st7567.c **** #endif
 168              		.loc 1 170 0
 169 0098 39E0     		b	.L2
 170              	.LVL20:
 171              	.L9:
 173:..\u8g2\csrc/u8x8_d_st7567.c ****     
 172              		.loc 1 173 0
 173 009a FFF7FEFF 		bl	u8x8_cad_StartTransfer
 174              	.LVL21:
 175:..\u8g2\csrc/u8x8_d_st7567.c ****       x *= 8;
ARM GAS  C:\Users\gjl\AppData\Local\Temp\ccA8HVAv.s 			page 8


 175              		.loc 1 175 0
 176 009e 7B79     		ldrb	r3, [r7, #5]
 177              	.LVL22:
 176:..\u8g2\csrc/u8x8_d_st7567.c ****       x += u8x8->x_offset;
 178              		.loc 1 176 0
 179 00a0 DB00     		lsls	r3, r3, #3
 180              	.LVL23:
 181 00a2 DBB2     		uxtb	r3, r3
 182              	.LVL24:
 177:..\u8g2\csrc/u8x8_d_st7567.c ****       u8x8_cad_SendCmd(u8x8, 0x010 | (x>>4) );
 183              		.loc 1 177 0
 184 00a4 AE7F     		ldrb	r6, [r5, #30]
 185 00a6 9B19     		adds	r3, r3, r6
 186              	.LVL25:
 187 00a8 DBB2     		uxtb	r3, r3
 188 00aa 9846     		mov	r8, r3
 189              	.LVL26:
 178:..\u8g2\csrc/u8x8_d_st7567.c ****       u8x8_cad_SendCmd(u8x8, 0x000 | ((x&15)));
 190              		.loc 1 178 0
 191 00ac 1909     		lsrs	r1, r3, #4
 192 00ae 1023     		movs	r3, #16
 193              	.LVL27:
 194 00b0 1943     		orrs	r1, r3
 195 00b2 C9B2     		uxtb	r1, r1
 196 00b4 2800     		movs	r0, r5
 197 00b6 FFF7FEFF 		bl	u8x8_cad_SendCmd
 198              	.LVL28:
 179:..\u8g2\csrc/u8x8_d_st7567.c ****       u8x8_cad_SendCmd(u8x8, 0x0b0 | (((u8x8_tile_t *)arg_ptr)->y_pos));
 199              		.loc 1 179 0
 200 00ba 0F21     		movs	r1, #15
 201 00bc 4346     		mov	r3, r8
 202 00be 1940     		ands	r1, r3
 203 00c0 2800     		movs	r0, r5
 204 00c2 FFF7FEFF 		bl	u8x8_cad_SendCmd
 205              	.LVL29:
 180:..\u8g2\csrc/u8x8_d_st7567.c ****     
 206              		.loc 1 180 0
 207 00c6 BB79     		ldrb	r3, [r7, #6]
 208 00c8 5021     		movs	r1, #80
 209 00ca 4942     		rsbs	r1, r1, #0
 210 00cc 1943     		orrs	r1, r3
 211 00ce C9B2     		uxtb	r1, r1
 212 00d0 2800     		movs	r0, r5
 213 00d2 FFF7FEFF 		bl	u8x8_cad_SendCmd
 214              	.LVL30:
 182:..\u8g2\csrc/u8x8_d_st7567.c ****       c *= 8;
 215              		.loc 1 182 0
 216 00d6 3E79     		ldrb	r6, [r7, #4]
 217              	.LVL31:
 183:..\u8g2\csrc/u8x8_d_st7567.c ****       ptr = ((u8x8_tile_t *)arg_ptr)->tile_ptr;
 218              		.loc 1 183 0
 219 00d8 F600     		lsls	r6, r6, #3
 220              	.LVL32:
 221 00da F6B2     		uxtb	r6, r6
 222              	.LVL33:
 184:..\u8g2\csrc/u8x8_d_st7567.c ****       /* 
 223              		.loc 1 184 0
ARM GAS  C:\Users\gjl\AppData\Local\Temp\ccA8HVAv.s 			page 9


 224 00dc 3F68     		ldr	r7, [r7]
 225              	.LVL34:
 190:..\u8g2\csrc/u8x8_d_st7567.c ****       {
 226              		.loc 1 190 0
 227 00de 4346     		mov	r3, r8
 228 00e0 F318     		adds	r3, r6, r3
 229 00e2 842B     		cmp	r3, #132
 230 00e4 04D9     		bls	.L13
 231              	.LVL35:
 193:..\u8g2\csrc/u8x8_d_st7567.c ****       }
 232              		.loc 1 193 0
 233 00e6 7C26     		movs	r6, #124
 234 00e8 7642     		rsbs	r6, r6, #0
 235 00ea 4346     		mov	r3, r8
 236 00ec F61A     		subs	r6, r6, r3
 237 00ee F6B2     		uxtb	r6, r6
 238              	.LVL36:
 239              	.L13:
 197:..\u8g2\csrc/u8x8_d_st7567.c **** 	arg_int--;
 240              		.loc 1 197 0 discriminator 1
 241 00f0 3A00     		movs	r2, r7
 242 00f2 3100     		movs	r1, r6
 243 00f4 2800     		movs	r0, r5
 244 00f6 FFF7FEFF 		bl	u8x8_cad_SendData
 245              	.LVL37:
 198:..\u8g2\csrc/u8x8_d_st7567.c ****       } while( arg_int > 0 );
 246              		.loc 1 198 0 discriminator 1
 247 00fa 013C     		subs	r4, r4, #1
 248              	.LVL38:
 249 00fc E4B2     		uxtb	r4, r4
 250              	.LVL39:
 199:..\u8g2\csrc/u8x8_d_st7567.c ****       
 251              		.loc 1 199 0 discriminator 1
 252 00fe 002C     		cmp	r4, #0
 253 0100 F6D1     		bne	.L13
 201:..\u8g2\csrc/u8x8_d_st7567.c ****       break;
 254              		.loc 1 201 0
 255 0102 2800     		movs	r0, r5
 256 0104 FFF7FEFF 		bl	u8x8_cad_EndTransfer
 257              	.LVL40:
 258              		.loc 1 206 0
 259 0108 0120     		movs	r0, #1
 202:..\u8g2\csrc/u8x8_d_st7567.c ****     default:
 260              		.loc 1 202 0
 261 010a 00E0     		b	.L2
 262              	.LVL41:
 263              	.L14:
 204:..\u8g2\csrc/u8x8_d_st7567.c ****   }
 264              		.loc 1 204 0
 265 010c 0020     		movs	r0, #0
 266              	.LVL42:
 267              	.L2:
 207:..\u8g2\csrc/u8x8_d_st7567.c **** }
 268              		.loc 1 207 0
 269              		@ sp needed
 270              	.LVL43:
 271 010e 04BC     		pop	{r2}
ARM GAS  C:\Users\gjl\AppData\Local\Temp\ccA8HVAv.s 			page 10


 272 0110 9046     		mov	r8, r2
 273 0112 F0BD     		pop	{r4, r5, r6, r7, pc}
 274              	.L16:
 275              		.align	2
 276              	.L15:
 277 0114 00000000 		.word	.L4
 278 0118 1C000000 		.word	.LANCHOR0
 279              		.cfi_endproc
 280              	.LFE0:
 281              		.size	u8x8_d_st7567_pi_132x64, .-u8x8_d_st7567_pi_132x64
 282              		.section	.rodata
 283              		.align	2
 284              		.set	.LANCHOR0,. + 0
 285              		.type	u8x8_st7567_132x64_display_info, %object
 286              		.size	u8x8_st7567_132x64_display_info, 24
 287              	u8x8_st7567_132x64_display_info:
 288 001c 00       		.byte	0
 289 001d 01       		.byte	1
 290 001e 96       		.byte	-106
 291 001f 32       		.byte	50
 292 0020 01       		.byte	1
 293 0021 01       		.byte	1
 294 0022 32       		.byte	50
 295 0023 78       		.byte	120
 296 0024 00093D00 		.word	4000000
 297 0028 00       		.byte	0
 298 0029 04       		.byte	4
 299 002a 28       		.byte	40
 300 002b 50       		.byte	80
 301 002c 11       		.byte	17
 302 002d 08       		.byte	8
 303 002e 00       		.byte	0
 304 002f 00       		.byte	0
 305 0030 8400     		.short	132
 306 0032 4000     		.short	64
 307              		.type	u8x8_d_st7567_132x64_init_seq, %object
 308              		.size	u8x8_d_st7567_132x64_init_seq, 39
 309              	u8x8_d_st7567_132x64_init_seq:
 310 0034 18       		.byte	24
 311 0035 15       		.byte	21
 312 0036 E2       		.byte	-30
 313 0037 15       		.byte	21
 314 0038 AE       		.byte	-82
 315 0039 15       		.byte	21
 316 003a 40       		.byte	64
 317 003b 15       		.byte	21
 318 003c A1       		.byte	-95
 319 003d 15       		.byte	21
 320 003e C0       		.byte	-64
 321 003f 15       		.byte	21
 322 0040 A6       		.byte	-90
 323 0041 15       		.byte	21
 324 0042 A3       		.byte	-93
 325 0043 15       		.byte	21
 326 0044 2C       		.byte	44
 327 0045 FE       		.byte	-2
 328 0046 32       		.byte	50
ARM GAS  C:\Users\gjl\AppData\Local\Temp\ccA8HVAv.s 			page 11


 329 0047 15       		.byte	21
 330 0048 2E       		.byte	46
 331 0049 FE       		.byte	-2
 332 004a 32       		.byte	50
 333 004b 15       		.byte	21
 334 004c 2F       		.byte	47
 335 004d FE       		.byte	-2
 336 004e 32       		.byte	50
 337 004f 15       		.byte	21
 338 0050 26       		.byte	38
 339 0051 15       		.byte	21
 340 0052 81       		.byte	-127
 341 0053 16       		.byte	22
 342 0054 27       		.byte	39
 343 0055 15       		.byte	21
 344 0056 AE       		.byte	-82
 345 0057 15       		.byte	21
 346 0058 A5       		.byte	-91
 347 0059 19       		.byte	25
 348 005a FF       		.byte	-1
 349 005b 00       		.space	1
 350              		.type	u8x8_d_st7567_132x64_powersave0_seq, %object
 351              		.size	u8x8_d_st7567_132x64_powersave0_seq, 7
 352              	u8x8_d_st7567_132x64_powersave0_seq:
 353 005c 18       		.byte	24
 354 005d 15       		.byte	21
 355 005e A4       		.byte	-92
 356 005f 15       		.byte	21
 357 0060 AF       		.byte	-81
 358 0061 19       		.byte	25
 359 0062 FF       		.byte	-1
 360 0063 00       		.space	1
 361              		.type	u8x8_d_st7567_132x64_powersave1_seq, %object
 362              		.size	u8x8_d_st7567_132x64_powersave1_seq, 7
 363              	u8x8_d_st7567_132x64_powersave1_seq:
 364 0064 18       		.byte	24
 365 0065 15       		.byte	21
 366 0066 AE       		.byte	-82
 367 0067 15       		.byte	21
 368 0068 A5       		.byte	-91
 369 0069 19       		.byte	25
 370 006a FF       		.byte	-1
 371 006b 00       		.space	1
 372              		.type	u8x8_d_st7567_132x64_flip0_seq, %object
 373              		.size	u8x8_d_st7567_132x64_flip0_seq, 7
 374              	u8x8_d_st7567_132x64_flip0_seq:
 375 006c 18       		.byte	24
 376 006d 15       		.byte	21
 377 006e A1       		.byte	-95
 378 006f 15       		.byte	21
 379 0070 C0       		.byte	-64
 380 0071 19       		.byte	25
 381 0072 FF       		.byte	-1
 382 0073 00       		.space	1
 383              		.type	u8x8_d_st7567_132x64_flip1_seq, %object
 384              		.size	u8x8_d_st7567_132x64_flip1_seq, 7
 385              	u8x8_d_st7567_132x64_flip1_seq:
ARM GAS  C:\Users\gjl\AppData\Local\Temp\ccA8HVAv.s 			page 12


 386 0074 18       		.byte	24
 387 0075 15       		.byte	21
 388 0076 A0       		.byte	-96
 389 0077 15       		.byte	21
 390 0078 C8       		.byte	-56
 391 0079 19       		.byte	25
 392 007a FF       		.byte	-1
 393              		.text
 394              	.Letext0:
 395              		.file 2 "c:\\program files (x86)\\cypress\\psoc creator\\4.1\\psoc creator\\import\\gnu\\arm\\5.4.
 396              		.file 3 "c:\\program files (x86)\\cypress\\psoc creator\\4.1\\psoc creator\\import\\gnu\\arm\\5.4.
 397              		.file 4 "..\\u8g2\\csrc\\u8x8.h"