ARM GAS  C:\Users\gjl\AppData\Local\Temp\cczPNLzA.s 			page 1


   1              		.syntax unified
   2              		.cpu cortex-m0
   3              		.fpu softvfp
   4              		.eabi_attribute 20, 1
   5              		.eabi_attribute 21, 1
   6              		.eabi_attribute 23, 3
   7              		.eabi_attribute 24, 1
   8              		.eabi_attribute 25, 1
   9              		.eabi_attribute 26, 1
  10              		.eabi_attribute 30, 1
  11              		.eabi_attribute 34, 0
  12              		.eabi_attribute 18, 4
  13              		.thumb
  14              		.syntax unified
  15              		.file	"u8x8_u16toa.c"
  16              		.text
  17              	.Ltext0:
  18              		.cfi_sections	.debug_frame
  19              		.global	__aeabi_uidiv
  20              		.section	.text.u8x8_u16toap,"ax",%progbits
  21              		.align	2
  22              		.global	u8x8_u16toap
  23              		.code	16
  24              		.thumb_func
  25              		.type	u8x8_u16toap, %function
  26              	u8x8_u16toap:
  27              	.LFB0:
  28              		.file 1 "..\\u8g2\\csrc\\u8x8_u16toa.c"
   1:..\u8g2\csrc/u8x8_u16toa.c **** /*
   2:..\u8g2\csrc/u8x8_u16toa.c **** 
   3:..\u8g2\csrc/u8x8_u16toa.c ****   u8x8_u16toa.c
   4:..\u8g2\csrc/u8x8_u16toa.c **** 
   5:..\u8g2\csrc/u8x8_u16toa.c ****   Universal 8bit Graphics Library (https://github.com/olikraus/u8g2/)
   6:..\u8g2\csrc/u8x8_u16toa.c **** 
   7:..\u8g2\csrc/u8x8_u16toa.c ****   Copyright (c) 2016, olikraus@gmail.com
   8:..\u8g2\csrc/u8x8_u16toa.c ****   All rights reserved.
   9:..\u8g2\csrc/u8x8_u16toa.c **** 
  10:..\u8g2\csrc/u8x8_u16toa.c ****   Redistribution and use in source and binary forms, with or without modification, 
  11:..\u8g2\csrc/u8x8_u16toa.c ****   are permitted provided that the following conditions are met:
  12:..\u8g2\csrc/u8x8_u16toa.c **** 
  13:..\u8g2\csrc/u8x8_u16toa.c ****   * Redistributions of source code must retain the above copyright notice, this list 
  14:..\u8g2\csrc/u8x8_u16toa.c ****     of conditions and the following disclaimer.
  15:..\u8g2\csrc/u8x8_u16toa.c ****     
  16:..\u8g2\csrc/u8x8_u16toa.c ****   * Redistributions in binary form must reproduce the above copyright notice, this 
  17:..\u8g2\csrc/u8x8_u16toa.c ****     list of conditions and the following disclaimer in the documentation and/or other 
  18:..\u8g2\csrc/u8x8_u16toa.c ****     materials provided with the distribution.
  19:..\u8g2\csrc/u8x8_u16toa.c **** 
  20:..\u8g2\csrc/u8x8_u16toa.c ****   THIS SOFTWARE IS PROVIDED BY THE COPYRIGHT HOLDERS AND 
  21:..\u8g2\csrc/u8x8_u16toa.c ****   CONTRIBUTORS "AS IS" AND ANY EXPRESS OR IMPLIED WARRANTIES, 
  22:..\u8g2\csrc/u8x8_u16toa.c ****   INCLUDING, BUT NOT LIMITED TO, THE IMPLIED WARRANTIES OF 
  23:..\u8g2\csrc/u8x8_u16toa.c ****   MERCHANTABILITY AND FITNESS FOR A PARTICULAR PURPOSE ARE 
  24:..\u8g2\csrc/u8x8_u16toa.c ****   DISCLAIMED. IN NO EVENT SHALL THE COPYRIGHT HOLDER OR 
  25:..\u8g2\csrc/u8x8_u16toa.c ****   CONTRIBUTORS BE LIABLE FOR ANY DIRECT, INDIRECT, INCIDENTAL, 
  26:..\u8g2\csrc/u8x8_u16toa.c ****   SPECIAL, EXEMPLARY, OR CONSEQUENTIAL DAMAGES (INCLUDING, BUT 
  27:..\u8g2\csrc/u8x8_u16toa.c ****   NOT LIMITED TO, PROCUREMENT OF SUBSTITUTE GOODS OR SERVICES; 
  28:..\u8g2\csrc/u8x8_u16toa.c ****   LOSS OF USE, DATA, OR PROFITS; OR BUSINESS INTERRUPTION) HOWEVER 
  29:..\u8g2\csrc/u8x8_u16toa.c ****   CAUSED AND ON ANY THEORY OF LIABILITY, WHETHER IN CONTRACT, 
ARM GAS  C:\Users\gjl\AppData\Local\Temp\cczPNLzA.s 			page 2


  30:..\u8g2\csrc/u8x8_u16toa.c ****   STRICT LIABILITY, OR TORT (INCLUDING NEGLIGENCE OR OTHERWISE) 
  31:..\u8g2\csrc/u8x8_u16toa.c ****   ARISING IN ANY WAY OUT OF THE USE OF THIS SOFTWARE, EVEN IF 
  32:..\u8g2\csrc/u8x8_u16toa.c ****   ADVISED OF THE POSSIBILITY OF SUCH DAMAGE.  
  33:..\u8g2\csrc/u8x8_u16toa.c **** 
  34:..\u8g2\csrc/u8x8_u16toa.c ****   
  35:..\u8g2\csrc/u8x8_u16toa.c **** */
  36:..\u8g2\csrc/u8x8_u16toa.c **** 
  37:..\u8g2\csrc/u8x8_u16toa.c **** 
  38:..\u8g2\csrc/u8x8_u16toa.c **** #include "u8x8.h"
  39:..\u8g2\csrc/u8x8_u16toa.c **** 
  40:..\u8g2\csrc/u8x8_u16toa.c **** const char *u8x8_u16toap(char * dest, uint16_t v)
  41:..\u8g2\csrc/u8x8_u16toa.c **** {
  29              		.loc 1 41 0
  30              		.cfi_startproc
  31              		@ args = 0, pretend = 0, frame = 0
  32              		@ frame_needed = 0, uses_anonymous_args = 0
  33              	.LVL0:
  34 0000 70B5     		push	{r4, r5, r6, lr}
  35              		.cfi_def_cfa_offset 16
  36              		.cfi_offset 4, -16
  37              		.cfi_offset 5, -12
  38              		.cfi_offset 6, -8
  39              		.cfi_offset 14, -4
  40 0002 0600     		movs	r6, r0
  41 0004 0C00     		movs	r4, r1
  42              	.LVL1:
  42:..\u8g2\csrc/u8x8_u16toa.c ****   uint8_t pos;
  43:..\u8g2\csrc/u8x8_u16toa.c ****   uint8_t d;
  44:..\u8g2\csrc/u8x8_u16toa.c ****   uint16_t c;
  45:..\u8g2\csrc/u8x8_u16toa.c ****   c = 10000;
  43              		.loc 1 45 0
  44 0006 0C48     		ldr	r0, .L6
  45              	.LVL2:
  46:..\u8g2\csrc/u8x8_u16toa.c ****   for( pos = 0; pos < 5; pos++ )
  46              		.loc 1 46 0
  47 0008 0025     		movs	r5, #0
  48 000a 0EE0     		b	.L2
  49              	.LVL3:
  50              	.L3:
  47:..\u8g2\csrc/u8x8_u16toa.c ****   {
  48:..\u8g2\csrc/u8x8_u16toa.c ****       d = '0';
  49:..\u8g2\csrc/u8x8_u16toa.c ****       while( v >= c )
  50:..\u8g2\csrc/u8x8_u16toa.c ****       {
  51:..\u8g2\csrc/u8x8_u16toa.c **** 	v -= c;
  51              		.loc 1 51 0
  52 000c 241A     		subs	r4, r4, r0
  53              	.LVL4:
  54 000e A4B2     		uxth	r4, r4
  55              	.LVL5:
  52:..\u8g2\csrc/u8x8_u16toa.c **** 	d++;
  56              		.loc 1 52 0
  57 0010 0133     		adds	r3, r3, #1
  58              	.LVL6:
  59 0012 DBB2     		uxtb	r3, r3
  60              	.LVL7:
  61 0014 00E0     		b	.L4
  62              	.LVL8:
ARM GAS  C:\Users\gjl\AppData\Local\Temp\cczPNLzA.s 			page 3


  63              	.L5:
  64 0016 3023     		movs	r3, #48
  65              	.L4:
  66              	.LVL9:
  49:..\u8g2\csrc/u8x8_u16toa.c ****       {
  67              		.loc 1 49 0
  68 0018 8442     		cmp	r4, r0
  69 001a F7D2     		bcs	.L3
  53:..\u8g2\csrc/u8x8_u16toa.c ****       }
  54:..\u8g2\csrc/u8x8_u16toa.c ****       dest[pos] = d;
  70              		.loc 1 54 0 discriminator 2
  71 001c 7355     		strb	r3, [r6, r5]
  55:..\u8g2\csrc/u8x8_u16toa.c ****       c /= 10;
  72              		.loc 1 55 0 discriminator 2
  73 001e 0A21     		movs	r1, #10
  74 0020 FFF7FEFF 		bl	__aeabi_uidiv
  75              	.LVL10:
  76 0024 80B2     		uxth	r0, r0
  77              	.LVL11:
  46:..\u8g2\csrc/u8x8_u16toa.c ****   {
  78              		.loc 1 46 0 discriminator 2
  79 0026 0135     		adds	r5, r5, #1
  80              	.LVL12:
  81 0028 EDB2     		uxtb	r5, r5
  82              	.LVL13:
  83              	.L2:
  46:..\u8g2\csrc/u8x8_u16toa.c ****   {
  84              		.loc 1 46 0 is_stmt 0 discriminator 1
  85 002a 042D     		cmp	r5, #4
  86 002c F3D9     		bls	.L5
  56:..\u8g2\csrc/u8x8_u16toa.c ****   }  
  57:..\u8g2\csrc/u8x8_u16toa.c ****   dest[5] = '\0';
  87              		.loc 1 57 0 is_stmt 1
  88 002e 0023     		movs	r3, #0
  89 0030 7371     		strb	r3, [r6, #5]
  58:..\u8g2\csrc/u8x8_u16toa.c ****   return dest;
  59:..\u8g2\csrc/u8x8_u16toa.c **** }
  90              		.loc 1 59 0
  91 0032 3000     		movs	r0, r6
  92              	.LVL14:
  93              		@ sp needed
  94              	.LVL15:
  95              	.LVL16:
  96              	.LVL17:
  97 0034 70BD     		pop	{r4, r5, r6, pc}
  98              	.L7:
  99 0036 C046     		.align	2
 100              	.L6:
 101 0038 10270000 		.word	10000
 102              		.cfi_endproc
 103              	.LFE0:
 104              		.size	u8x8_u16toap, .-u8x8_u16toap
 105              		.section	.text.u8x8_u16toa,"ax",%progbits
 106              		.align	2
 107              		.global	u8x8_u16toa
 108              		.code	16
 109              		.thumb_func
ARM GAS  C:\Users\gjl\AppData\Local\Temp\cczPNLzA.s 			page 4


 110              		.type	u8x8_u16toa, %function
 111              	u8x8_u16toa:
 112              	.LFB1:
  60:..\u8g2\csrc/u8x8_u16toa.c **** 
  61:..\u8g2\csrc/u8x8_u16toa.c **** /* v = value, d = number of digits */
  62:..\u8g2\csrc/u8x8_u16toa.c **** const char *u8x8_u16toa(uint16_t v, uint8_t d)
  63:..\u8g2\csrc/u8x8_u16toa.c **** {
 113              		.loc 1 63 0
 114              		.cfi_startproc
 115              		@ args = 0, pretend = 0, frame = 0
 116              		@ frame_needed = 0, uses_anonymous_args = 0
 117              	.LVL18:
 118 0000 10B5     		push	{r4, lr}
 119              		.cfi_def_cfa_offset 8
 120              		.cfi_offset 4, -8
 121              		.cfi_offset 14, -4
  64:..\u8g2\csrc/u8x8_u16toa.c ****   static char buf[6];
  65:..\u8g2\csrc/u8x8_u16toa.c ****   d = 5-d;
 122              		.loc 1 65 0
 123 0002 0523     		movs	r3, #5
 124 0004 5C1A     		subs	r4, r3, r1
 125 0006 E4B2     		uxtb	r4, r4
 126              	.LVL19:
  66:..\u8g2\csrc/u8x8_u16toa.c ****   return u8x8_u16toap(buf, v) + d;
 127              		.loc 1 66 0
 128 0008 0100     		movs	r1, r0
 129 000a 0248     		ldr	r0, .L9
 130              	.LVL20:
 131 000c FFF7FEFF 		bl	u8x8_u16toap
 132              	.LVL21:
 133 0010 0019     		adds	r0, r0, r4
  67:..\u8g2\csrc/u8x8_u16toa.c **** }
 134              		.loc 1 67 0
 135              		@ sp needed
 136              	.LVL22:
 137 0012 10BD     		pop	{r4, pc}
 138              	.L10:
 139              		.align	2
 140              	.L9:
 141 0014 00000000 		.word	.LANCHOR0
 142              		.cfi_endproc
 143              	.LFE1:
 144              		.size	u8x8_u16toa, .-u8x8_u16toa
 145              		.bss
 146              		.align	2
 147              		.set	.LANCHOR0,. + 0
 148              		.type	buf.4876, %object
 149              		.size	buf.4876, 6
 150              	buf.4876:
 151 0000 00000000 		.space	6
 151      0000
 152              		.text
 153              	.Letext0:
 154              		.file 2 "c:\\program files (x86)\\cypress\\psoc creator\\4.1\\psoc creator\\import\\gnu\\arm\\5.4.
 155              		.file 3 "c:\\program files (x86)\\cypress\\psoc creator\\4.1\\psoc creator\\import\\gnu\\arm\\5.4.