ARM GAS  C:\Users\arh\AppData\Local\Temp\ccysCJcD.s 			page 1


   1              		.syntax unified
   2              		.cpu cortex-m0
   3              		.fpu softvfp
   4              		.eabi_attribute 20, 1
   5              		.eabi_attribute 21, 1
   6              		.eabi_attribute 23, 3
   7              		.eabi_attribute 24, 1
   8              		.eabi_attribute 25, 1
   9              		.eabi_attribute 26, 1
  10              		.eabi_attribute 30, 1
  11              		.eabi_attribute 34, 0
  12              		.eabi_attribute 18, 4
  13              		.thumb
  14              		.syntax unified
  15              		.file	"u8x8_d_ssd1607_200x200.c"
  16              		.text
  17              	.Ltext0:
  18              		.cfi_sections	.debug_frame
  19              		.section	.text.u8x8_convert_tile_for_ssd1607,"ax",%progbits
  20              		.align	2
  21              		.code	16
  22              		.thumb_func
  23              		.type	u8x8_convert_tile_for_ssd1607, %function
  24              	u8x8_convert_tile_for_ssd1607:
  25              	.LFB0:
  26              		.file 1 "..\\..\\u8g2\\csrc\\u8x8_d_ssd1607_200x200.c"
   1:..\..\u8g2\csrc/u8x8_d_ssd1607_200x200.c **** /*
   2:..\..\u8g2\csrc/u8x8_d_ssd1607_200x200.c **** 
   3:..\..\u8g2\csrc/u8x8_d_ssd1607_200x200.c ****   u8x8_d_ssd1607_200x200.c
   4:..\..\u8g2\csrc/u8x8_d_ssd1607_200x200.c **** 
   5:..\..\u8g2\csrc/u8x8_d_ssd1607_200x200.c ****   Universal 8bit Graphics Library (https://github.com/olikraus/u8g2/)
   6:..\..\u8g2\csrc/u8x8_d_ssd1607_200x200.c **** 
   7:..\..\u8g2\csrc/u8x8_d_ssd1607_200x200.c ****   Copyright (c) 2016, olikraus@gmail.com
   8:..\..\u8g2\csrc/u8x8_d_ssd1607_200x200.c ****   All rights reserved.
   9:..\..\u8g2\csrc/u8x8_d_ssd1607_200x200.c **** 
  10:..\..\u8g2\csrc/u8x8_d_ssd1607_200x200.c ****   Redistribution and use in source and binary forms, with or without modification, 
  11:..\..\u8g2\csrc/u8x8_d_ssd1607_200x200.c ****   are permitted provided that the following conditions are met:
  12:..\..\u8g2\csrc/u8x8_d_ssd1607_200x200.c **** 
  13:..\..\u8g2\csrc/u8x8_d_ssd1607_200x200.c ****   * Redistributions of source code must retain the above copyright notice, this list 
  14:..\..\u8g2\csrc/u8x8_d_ssd1607_200x200.c ****     of conditions and the following disclaimer.
  15:..\..\u8g2\csrc/u8x8_d_ssd1607_200x200.c ****     
  16:..\..\u8g2\csrc/u8x8_d_ssd1607_200x200.c ****   * Redistributions in binary form must reproduce the above copyright notice, this 
  17:..\..\u8g2\csrc/u8x8_d_ssd1607_200x200.c ****     list of conditions and the following disclaimer in the documentation and/or other 
  18:..\..\u8g2\csrc/u8x8_d_ssd1607_200x200.c ****     materials provided with the distribution.
  19:..\..\u8g2\csrc/u8x8_d_ssd1607_200x200.c **** 
  20:..\..\u8g2\csrc/u8x8_d_ssd1607_200x200.c ****   THIS SOFTWARE IS PROVIDED BY THE COPYRIGHT HOLDERS AND 
  21:..\..\u8g2\csrc/u8x8_d_ssd1607_200x200.c ****   CONTRIBUTORS "AS IS" AND ANY EXPRESS OR IMPLIED WARRANTIES, 
  22:..\..\u8g2\csrc/u8x8_d_ssd1607_200x200.c ****   INCLUDING, BUT NOT LIMITED TO, THE IMPLIED WARRANTIES OF 
  23:..\..\u8g2\csrc/u8x8_d_ssd1607_200x200.c ****   MERCHANTABILITY AND FITNESS FOR A PARTICULAR PURPOSE ARE 
  24:..\..\u8g2\csrc/u8x8_d_ssd1607_200x200.c ****   DISCLAIMED. IN NO EVENT SHALL THE COPYRIGHT HOLDER OR 
  25:..\..\u8g2\csrc/u8x8_d_ssd1607_200x200.c ****   CONTRIBUTORS BE LIABLE FOR ANY DIRECT, INDIRECT, INCIDENTAL, 
  26:..\..\u8g2\csrc/u8x8_d_ssd1607_200x200.c ****   SPECIAL, EXEMPLARY, OR CONSEQUENTIAL DAMAGES (INCLUDING, BUT 
  27:..\..\u8g2\csrc/u8x8_d_ssd1607_200x200.c ****   NOT LIMITED TO, PROCUREMENT OF SUBSTITUTE GOODS OR SERVICES; 
  28:..\..\u8g2\csrc/u8x8_d_ssd1607_200x200.c ****   LOSS OF USE, DATA, OR PROFITS; OR BUSINESS INTERRUPTION) HOWEVER 
  29:..\..\u8g2\csrc/u8x8_d_ssd1607_200x200.c ****   CAUSED AND ON ANY THEORY OF LIABILITY, WHETHER IN CONTRACT, 
  30:..\..\u8g2\csrc/u8x8_d_ssd1607_200x200.c ****   STRICT LIABILITY, OR TORT (INCLUDING NEGLIGENCE OR OTHERWISE) 
  31:..\..\u8g2\csrc/u8x8_d_ssd1607_200x200.c ****   ARISING IN ANY WAY OUT OF THE USE OF THIS SOFTWARE, EVEN IF 
ARM GAS  C:\Users\arh\AppData\Local\Temp\ccysCJcD.s 			page 2


  32:..\..\u8g2\csrc/u8x8_d_ssd1607_200x200.c ****   ADVISED OF THE POSSIBILITY OF SUCH DAMAGE.  
  33:..\..\u8g2\csrc/u8x8_d_ssd1607_200x200.c ****   
  34:..\..\u8g2\csrc/u8x8_d_ssd1607_200x200.c ****   SSD1607: 200x300x1
  35:..\..\u8g2\csrc/u8x8_d_ssd1607_200x200.c ****   
  36:..\..\u8g2\csrc/u8x8_d_ssd1607_200x200.c ****   command 
  37:..\..\u8g2\csrc/u8x8_d_ssd1607_200x200.c ****     0x22: assign actions
  38:..\..\u8g2\csrc/u8x8_d_ssd1607_200x200.c ****     0x20: execute actions
  39:..\..\u8g2\csrc/u8x8_d_ssd1607_200x200.c ****   
  40:..\..\u8g2\csrc/u8x8_d_ssd1607_200x200.c ****   action for command 0x022 are (more or less guessed)
  41:..\..\u8g2\csrc/u8x8_d_ssd1607_200x200.c ****     bit 7:	Enable Clock
  42:..\..\u8g2\csrc/u8x8_d_ssd1607_200x200.c ****     bit 6:	Enable Charge Pump
  43:..\..\u8g2\csrc/u8x8_d_ssd1607_200x200.c ****     bit 5:	Load Temparture Value (???)
  44:..\..\u8g2\csrc/u8x8_d_ssd1607_200x200.c ****     bit 4:	Load LUT (???)
  45:..\..\u8g2\csrc/u8x8_d_ssd1607_200x200.c ****     bit 3:	Initial Display (???)
  46:..\..\u8g2\csrc/u8x8_d_ssd1607_200x200.c ****     bit 2:	Pattern Display --> Requires about 945ms with the LUT from below
  47:..\..\u8g2\csrc/u8x8_d_ssd1607_200x200.c ****     bit 1:	Disable Charge Pump
  48:..\..\u8g2\csrc/u8x8_d_ssd1607_200x200.c ****     bit 0:	Disable Clock
  49:..\..\u8g2\csrc/u8x8_d_ssd1607_200x200.c ****     
  50:..\..\u8g2\csrc/u8x8_d_ssd1607_200x200.c ****     Disable Charge Pump and Clock require about 267ms
  51:..\..\u8g2\csrc/u8x8_d_ssd1607_200x200.c ****     Enable Charge Pump and Clock require about 10ms
  52:..\..\u8g2\csrc/u8x8_d_ssd1607_200x200.c **** 
  53:..\..\u8g2\csrc/u8x8_d_ssd1607_200x200.c ****   Notes:
  54:..\..\u8g2\csrc/u8x8_d_ssd1607_200x200.c ****     - Introduced a refresh display message, which copies RAM to display
  55:..\..\u8g2\csrc/u8x8_d_ssd1607_200x200.c ****     - Charge pump and clock are only enabled for the transfer RAM to display
  56:..\..\u8g2\csrc/u8x8_d_ssd1607_200x200.c ****     - U8x8 will not really work because of the two buffers in the SSD1606, however U8g2 should be o
  57:..\..\u8g2\csrc/u8x8_d_ssd1607_200x200.c **** 
  58:..\..\u8g2\csrc/u8x8_d_ssd1607_200x200.c **** */
  59:..\..\u8g2\csrc/u8x8_d_ssd1607_200x200.c **** 
  60:..\..\u8g2\csrc/u8x8_d_ssd1607_200x200.c **** 
  61:..\..\u8g2\csrc/u8x8_d_ssd1607_200x200.c **** #include "u8x8.h"
  62:..\..\u8g2\csrc/u8x8_d_ssd1607_200x200.c **** 
  63:..\..\u8g2\csrc/u8x8_d_ssd1607_200x200.c **** 
  64:..\..\u8g2\csrc/u8x8_d_ssd1607_200x200.c **** #define L(a,b,c,d) (((a)<<6)|((b)<<4)|((c)<<2)|(d))
  65:..\..\u8g2\csrc/u8x8_d_ssd1607_200x200.c **** 
  66:..\..\u8g2\csrc/u8x8_d_ssd1607_200x200.c **** 
  67:..\..\u8g2\csrc/u8x8_d_ssd1607_200x200.c **** /* https://github.com/embeddedadventures/SSD1607/blob/master/SSD1607.cpp */
  68:..\..\u8g2\csrc/u8x8_d_ssd1607_200x200.c **** static const uint8_t u8x8_d_ssd1607_200x200_init_seq[] = {
  69:..\..\u8g2\csrc/u8x8_d_ssd1607_200x200.c ****     
  70:..\..\u8g2\csrc/u8x8_d_ssd1607_200x200.c ****   U8X8_START_TRANSFER(),             	/* enable chip, delay is part of the transfer start */
  71:..\..\u8g2\csrc/u8x8_d_ssd1607_200x200.c ****   
  72:..\..\u8g2\csrc/u8x8_d_ssd1607_200x200.c ****   
  73:..\..\u8g2\csrc/u8x8_d_ssd1607_200x200.c ****   
  74:..\..\u8g2\csrc/u8x8_d_ssd1607_200x200.c **** 
  75:..\..\u8g2\csrc/u8x8_d_ssd1607_200x200.c ****   U8X8_CA(0x10, 0x00),	/* Deep Sleep mode Control: Disable */
  76:..\..\u8g2\csrc/u8x8_d_ssd1607_200x200.c ****   //U8X8_C(0x01),
  77:..\..\u8g2\csrc/u8x8_d_ssd1607_200x200.c ****   //U8X8_A(199),U8X8_A(0),U8X8_A(0),
  78:..\..\u8g2\csrc/u8x8_d_ssd1607_200x200.c ****   
  79:..\..\u8g2\csrc/u8x8_d_ssd1607_200x200.c ****   
  80:..\..\u8g2\csrc/u8x8_d_ssd1607_200x200.c ****   U8X8_CA(0x03, 0x00), 	/* Gate Driving voltage: 15V (lowest value)*/
  81:..\..\u8g2\csrc/u8x8_d_ssd1607_200x200.c ****   U8X8_CA(0x04, 0x0a), 	/* Source Driving voltage: 15V (mid value and POR)*/
  82:..\..\u8g2\csrc/u8x8_d_ssd1607_200x200.c ****   
  83:..\..\u8g2\csrc/u8x8_d_ssd1607_200x200.c ****   U8X8_CA(0x11, 0x01),	/* Define data entry mode, x&y inc, x first */
  84:..\..\u8g2\csrc/u8x8_d_ssd1607_200x200.c ****   U8X8_CAA(0x44, 0, 24),	/* RAM x start & end, each byte has 8 pixel, 25*4=200 */
  85:..\..\u8g2\csrc/u8x8_d_ssd1607_200x200.c ****   U8X8_CAAAA(0x45, 0, 0, 299&255, 299>>8),	/* RAM y start & end, 0..299 */
  86:..\..\u8g2\csrc/u8x8_d_ssd1607_200x200.c ****   
  87:..\..\u8g2\csrc/u8x8_d_ssd1607_200x200.c ****   U8X8_CA(0x4e, 0),	/* set x pos, 0..24 */
  88:..\..\u8g2\csrc/u8x8_d_ssd1607_200x200.c ****   U8X8_CAA(0x4f, 0&255, 0>>8),	/* set y pos, 0...299 */
ARM GAS  C:\Users\arh\AppData\Local\Temp\ccysCJcD.s 			page 3


  89:..\..\u8g2\csrc/u8x8_d_ssd1607_200x200.c **** 
  90:..\..\u8g2\csrc/u8x8_d_ssd1607_200x200.c ****   U8X8_CA(0xf0, 0x1f),	/* set booster feedback to internal */
  91:..\..\u8g2\csrc/u8x8_d_ssd1607_200x200.c ****   U8X8_CA(0x22, 0xc0),	/* display update seq. option: enable clk, enable CP, .... todo: this is nev
  92:..\..\u8g2\csrc/u8x8_d_ssd1607_200x200.c ****   
  93:..\..\u8g2\csrc/u8x8_d_ssd1607_200x200.c ****   U8X8_C(0x32),	/* write LUT register*/
  94:..\..\u8g2\csrc/u8x8_d_ssd1607_200x200.c **** 
  95:..\..\u8g2\csrc/u8x8_d_ssd1607_200x200.c ****   
  96:..\..\u8g2\csrc/u8x8_d_ssd1607_200x200.c ****   /* according to the command table, the lut has 240 bits (=30 bytes * 8 bits) */
  97:..\..\u8g2\csrc/u8x8_d_ssd1607_200x200.c ****   
  98:..\..\u8g2\csrc/u8x8_d_ssd1607_200x200.c ****   /* Waveform part of the LUT (20 bytes) */
  99:..\..\u8g2\csrc/u8x8_d_ssd1607_200x200.c ****   /* bit 7/6: 1 - 1 transition */
 100:..\..\u8g2\csrc/u8x8_d_ssd1607_200x200.c ****   /* bit 5/4: 1 - 0 transition */
 101:..\..\u8g2\csrc/u8x8_d_ssd1607_200x200.c ****   /* bit 3/2: 0 - 1 transition */
 102:..\..\u8g2\csrc/u8x8_d_ssd1607_200x200.c ****   /* bit 1/0: 0 - 0 transition */
 103:..\..\u8g2\csrc/u8x8_d_ssd1607_200x200.c ****   /* 	00 – VSS */
 104:..\..\u8g2\csrc/u8x8_d_ssd1607_200x200.c ****   /* 	01 – VSH */
 105:..\..\u8g2\csrc/u8x8_d_ssd1607_200x200.c ****   /* 	10 – VSL */
 106:..\..\u8g2\csrc/u8x8_d_ssd1607_200x200.c ****   /* 	11 – NA */
 107:..\..\u8g2\csrc/u8x8_d_ssd1607_200x200.c ****   
 108:..\..\u8g2\csrc/u8x8_d_ssd1607_200x200.c ****   /* original values */
 109:..\..\u8g2\csrc/u8x8_d_ssd1607_200x200.c ****   /*
 110:..\..\u8g2\csrc/u8x8_d_ssd1607_200x200.c ****   U8X8_A(0x02),
 111:..\..\u8g2\csrc/u8x8_d_ssd1607_200x200.c ****   U8X8_A(0x02),
 112:..\..\u8g2\csrc/u8x8_d_ssd1607_200x200.c ****   U8X8_A(0x01),
 113:..\..\u8g2\csrc/u8x8_d_ssd1607_200x200.c ****   U8X8_A(0x11),
 114:..\..\u8g2\csrc/u8x8_d_ssd1607_200x200.c ****   U8X8_A(0x12),
 115:..\..\u8g2\csrc/u8x8_d_ssd1607_200x200.c ****   U8X8_A(0x12),
 116:..\..\u8g2\csrc/u8x8_d_ssd1607_200x200.c ****   U8X8_A(0x22),
 117:..\..\u8g2\csrc/u8x8_d_ssd1607_200x200.c ****   U8X8_A(0x22),
 118:..\..\u8g2\csrc/u8x8_d_ssd1607_200x200.c ****   U8X8_A(0x66),
 119:..\..\u8g2\csrc/u8x8_d_ssd1607_200x200.c ****   U8X8_A(0x69),
 120:..\..\u8g2\csrc/u8x8_d_ssd1607_200x200.c ****   U8X8_A(0x69),
 121:..\..\u8g2\csrc/u8x8_d_ssd1607_200x200.c ****   U8X8_A(0x59),
 122:..\..\u8g2\csrc/u8x8_d_ssd1607_200x200.c ****   U8X8_A(0x58),
 123:..\..\u8g2\csrc/u8x8_d_ssd1607_200x200.c ****   U8X8_A(0x99),
 124:..\..\u8g2\csrc/u8x8_d_ssd1607_200x200.c ****   U8X8_A(0x99),
 125:..\..\u8g2\csrc/u8x8_d_ssd1607_200x200.c ****   U8X8_A(0x88),
 126:..\..\u8g2\csrc/u8x8_d_ssd1607_200x200.c ****   U8X8_A(0x00),
 127:..\..\u8g2\csrc/u8x8_d_ssd1607_200x200.c ****   U8X8_A(0x00),
 128:..\..\u8g2\csrc/u8x8_d_ssd1607_200x200.c ****   U8X8_A(0x00),
 129:..\..\u8g2\csrc/u8x8_d_ssd1607_200x200.c ****   U8X8_A(0x00),
 130:..\..\u8g2\csrc/u8x8_d_ssd1607_200x200.c ****   */
 131:..\..\u8g2\csrc/u8x8_d_ssd1607_200x200.c ****   
 132:..\..\u8g2\csrc/u8x8_d_ssd1607_200x200.c ****   /* original values, L-macro */
 133:..\..\u8g2\csrc/u8x8_d_ssd1607_200x200.c ****   U8X8_A(L(0,0,0,2)), // 0x02
 134:..\..\u8g2\csrc/u8x8_d_ssd1607_200x200.c ****   U8X8_A(L(0,0,0,2)), // 0x02
 135:..\..\u8g2\csrc/u8x8_d_ssd1607_200x200.c ****   U8X8_A(L(0,0,0,1)), // 0x01
 136:..\..\u8g2\csrc/u8x8_d_ssd1607_200x200.c ****   U8X8_A(L(0,1,0,1)), // 0x11
 137:..\..\u8g2\csrc/u8x8_d_ssd1607_200x200.c ****   U8X8_A(L(0,1,0,2)), // 0x12
 138:..\..\u8g2\csrc/u8x8_d_ssd1607_200x200.c ****   U8X8_A(L(0,1,0,2)), // 0x12
 139:..\..\u8g2\csrc/u8x8_d_ssd1607_200x200.c ****   U8X8_A(L(0,2,0,2)), // 0x22
 140:..\..\u8g2\csrc/u8x8_d_ssd1607_200x200.c ****   U8X8_A(L(0,2,0,2)), // 0x22
 141:..\..\u8g2\csrc/u8x8_d_ssd1607_200x200.c ****   U8X8_A(L(1,2,1,2)), // 0x66
 142:..\..\u8g2\csrc/u8x8_d_ssd1607_200x200.c ****   U8X8_A(L(1,2,2,1)), // 0x69
 143:..\..\u8g2\csrc/u8x8_d_ssd1607_200x200.c ****   U8X8_A(L(1,2,2,1)), // 0x69
 144:..\..\u8g2\csrc/u8x8_d_ssd1607_200x200.c ****   U8X8_A(L(1,1,2,1)), // 0x59
 145:..\..\u8g2\csrc/u8x8_d_ssd1607_200x200.c ****   U8X8_A(L(1,1,2,0)), // 0x58
ARM GAS  C:\Users\arh\AppData\Local\Temp\ccysCJcD.s 			page 4


 146:..\..\u8g2\csrc/u8x8_d_ssd1607_200x200.c ****   U8X8_A(L(2,1,2,1)), // 0x99
 147:..\..\u8g2\csrc/u8x8_d_ssd1607_200x200.c ****   U8X8_A(L(2,1,2,1)), // 0x99
 148:..\..\u8g2\csrc/u8x8_d_ssd1607_200x200.c ****   U8X8_A(L(2,0,2,0)), // 0x88
 149:..\..\u8g2\csrc/u8x8_d_ssd1607_200x200.c ****   U8X8_A(L(0,0,0,0)), // 0x00
 150:..\..\u8g2\csrc/u8x8_d_ssd1607_200x200.c ****   U8X8_A(L(0,0,0,0)), // 0x00
 151:..\..\u8g2\csrc/u8x8_d_ssd1607_200x200.c ****   U8X8_A(L(0,0,0,0)), // 0x00
 152:..\..\u8g2\csrc/u8x8_d_ssd1607_200x200.c ****   U8X8_A(L(0,0,0,0)), // 0x00
 153:..\..\u8g2\csrc/u8x8_d_ssd1607_200x200.c **** 
 154:..\..\u8g2\csrc/u8x8_d_ssd1607_200x200.c **** 
 155:..\..\u8g2\csrc/u8x8_d_ssd1607_200x200.c ****   /* orginal values without 0-0 and 1-1 transition */
 156:..\..\u8g2\csrc/u8x8_d_ssd1607_200x200.c ****   /*
 157:..\..\u8g2\csrc/u8x8_d_ssd1607_200x200.c ****   U8X8_A(L(3,0,0,3)), // 0x02
 158:..\..\u8g2\csrc/u8x8_d_ssd1607_200x200.c ****   U8X8_A(L(3,0,0,3)), // 0x02
 159:..\..\u8g2\csrc/u8x8_d_ssd1607_200x200.c ****   U8X8_A(L(3,0,0,3)), // 0x01
 160:..\..\u8g2\csrc/u8x8_d_ssd1607_200x200.c ****   U8X8_A(L(3,1,0,3)), // 0x11
 161:..\..\u8g2\csrc/u8x8_d_ssd1607_200x200.c ****   U8X8_A(L(3,1,0,3)), // 0x12
 162:..\..\u8g2\csrc/u8x8_d_ssd1607_200x200.c ****   U8X8_A(L(3,1,0,3)), // 0x12
 163:..\..\u8g2\csrc/u8x8_d_ssd1607_200x200.c ****   U8X8_A(L(3,2,0,3)), // 0x22
 164:..\..\u8g2\csrc/u8x8_d_ssd1607_200x200.c ****   U8X8_A(L(3,2,0,3)), // 0x22
 165:..\..\u8g2\csrc/u8x8_d_ssd1607_200x200.c ****   U8X8_A(L(3,2,1,3)), // 0x66
 166:..\..\u8g2\csrc/u8x8_d_ssd1607_200x200.c ****   U8X8_A(L(3,2,2,3)), // 0x69
 167:..\..\u8g2\csrc/u8x8_d_ssd1607_200x200.c ****   U8X8_A(L(3,2,2,3)), // 0x69
 168:..\..\u8g2\csrc/u8x8_d_ssd1607_200x200.c ****   U8X8_A(L(3,1,2,3)), // 0x59
 169:..\..\u8g2\csrc/u8x8_d_ssd1607_200x200.c ****   U8X8_A(L(3,1,2,3)), // 0x58
 170:..\..\u8g2\csrc/u8x8_d_ssd1607_200x200.c ****   U8X8_A(L(3,1,2,3)), // 0x99
 171:..\..\u8g2\csrc/u8x8_d_ssd1607_200x200.c ****   U8X8_A(L(3,1,2,3)), // 0x99
 172:..\..\u8g2\csrc/u8x8_d_ssd1607_200x200.c ****   U8X8_A(L(3,0,2,3)), // 0x88
 173:..\..\u8g2\csrc/u8x8_d_ssd1607_200x200.c ****   U8X8_A(L(3,0,0,3)), // 0x00
 174:..\..\u8g2\csrc/u8x8_d_ssd1607_200x200.c ****   U8X8_A(L(3,0,0,3)), // 0x00
 175:..\..\u8g2\csrc/u8x8_d_ssd1607_200x200.c ****   U8X8_A(L(3,0,0,3)), // 0x00
 176:..\..\u8g2\csrc/u8x8_d_ssd1607_200x200.c ****   U8X8_A(L(3,0,0,3)), // 0x00
 177:..\..\u8g2\csrc/u8x8_d_ssd1607_200x200.c ****   */
 178:..\..\u8g2\csrc/u8x8_d_ssd1607_200x200.c ****   
 179:..\..\u8g2\csrc/u8x8_d_ssd1607_200x200.c ****   
 180:..\..\u8g2\csrc/u8x8_d_ssd1607_200x200.c ****   /* Timing part of the LUT, 20 Phases with 4 bit each: 10 bytes */
 181:..\..\u8g2\csrc/u8x8_d_ssd1607_200x200.c ****   U8X8_A(0xF8),
 182:..\..\u8g2\csrc/u8x8_d_ssd1607_200x200.c ****   U8X8_A(0xB4),
 183:..\..\u8g2\csrc/u8x8_d_ssd1607_200x200.c ****   U8X8_A(0x13),
 184:..\..\u8g2\csrc/u8x8_d_ssd1607_200x200.c ****   U8X8_A(0x51),
 185:..\..\u8g2\csrc/u8x8_d_ssd1607_200x200.c ****   U8X8_A(0x35),
 186:..\..\u8g2\csrc/u8x8_d_ssd1607_200x200.c ****   U8X8_A(0x51),
 187:..\..\u8g2\csrc/u8x8_d_ssd1607_200x200.c ****   U8X8_A(0x51),
 188:..\..\u8g2\csrc/u8x8_d_ssd1607_200x200.c ****   U8X8_A(0x19),
 189:..\..\u8g2\csrc/u8x8_d_ssd1607_200x200.c ****   U8X8_A(0x01),
 190:..\..\u8g2\csrc/u8x8_d_ssd1607_200x200.c ****   U8X8_A(0x00),
 191:..\..\u8g2\csrc/u8x8_d_ssd1607_200x200.c ****   
 192:..\..\u8g2\csrc/u8x8_d_ssd1607_200x200.c ****   
 193:..\..\u8g2\csrc/u8x8_d_ssd1607_200x200.c **** 
 194:..\..\u8g2\csrc/u8x8_d_ssd1607_200x200.c ****   U8X8_CA(0x2c, 0xa8),	/* write vcom value*/
 195:..\..\u8g2\csrc/u8x8_d_ssd1607_200x200.c ****   U8X8_CA(0x3a, 0x1a),	/* dummy lines */
 196:..\..\u8g2\csrc/u8x8_d_ssd1607_200x200.c ****   U8X8_CA(0x3b, 0x08),	/* gate time */
 197:..\..\u8g2\csrc/u8x8_d_ssd1607_200x200.c ****   U8X8_CA(0x3c, 0x33),	/* select boarder waveform */
 198:..\..\u8g2\csrc/u8x8_d_ssd1607_200x200.c ****   U8X8_CA(0x22, 0xc4),	/* display update seq. option: clk -> CP -> LUT -> initial display -> patter
 199:..\..\u8g2\csrc/u8x8_d_ssd1607_200x200.c ****   
 200:..\..\u8g2\csrc/u8x8_d_ssd1607_200x200.c ****   U8X8_END_TRANSFER(),             	/* disable chip */
 201:..\..\u8g2\csrc/u8x8_d_ssd1607_200x200.c ****   U8X8_END()             			/* end of sequence */
 202:..\..\u8g2\csrc/u8x8_d_ssd1607_200x200.c **** };
ARM GAS  C:\Users\arh\AppData\Local\Temp\ccysCJcD.s 			page 5


 203:..\..\u8g2\csrc/u8x8_d_ssd1607_200x200.c **** 
 204:..\..\u8g2\csrc/u8x8_d_ssd1607_200x200.c **** static const uint8_t u8x8_d_ssd1607_to_display_seq[] = {
 205:..\..\u8g2\csrc/u8x8_d_ssd1607_200x200.c ****   U8X8_START_TRANSFER(),             	/* enable chip, delay is part of the transfer start */
 206:..\..\u8g2\csrc/u8x8_d_ssd1607_200x200.c ****   
 207:..\..\u8g2\csrc/u8x8_d_ssd1607_200x200.c ****   U8X8_CA(0x22, 0xc4),	/* display update seq. option: clk -> CP -> LUT -> initial display -> patter
 208:..\..\u8g2\csrc/u8x8_d_ssd1607_200x200.c ****   U8X8_C(0x20),	/* execute sequence */
 209:..\..\u8g2\csrc/u8x8_d_ssd1607_200x200.c ****   U8X8_DLY(250),	/* the sequence above requires about 1200ms for the 200x200 display*/
 210:..\..\u8g2\csrc/u8x8_d_ssd1607_200x200.c ****   U8X8_DLY(250),
 211:..\..\u8g2\csrc/u8x8_d_ssd1607_200x200.c ****   U8X8_DLY(250),
 212:..\..\u8g2\csrc/u8x8_d_ssd1607_200x200.c ****   U8X8_DLY(250),
 213:..\..\u8g2\csrc/u8x8_d_ssd1607_200x200.c ****   U8X8_DLY(250),
 214:..\..\u8g2\csrc/u8x8_d_ssd1607_200x200.c ****   U8X8_DLY(250),
 215:..\..\u8g2\csrc/u8x8_d_ssd1607_200x200.c ****   U8X8_DLY(250),
 216:..\..\u8g2\csrc/u8x8_d_ssd1607_200x200.c ****   
 217:..\..\u8g2\csrc/u8x8_d_ssd1607_200x200.c ****   U8X8_CA(0x22, 0x03),	/* disable clock and charge pump */
 218:..\..\u8g2\csrc/u8x8_d_ssd1607_200x200.c ****   U8X8_DLY(250),
 219:..\..\u8g2\csrc/u8x8_d_ssd1607_200x200.c ****   U8X8_DLY(250),
 220:..\..\u8g2\csrc/u8x8_d_ssd1607_200x200.c ****   U8X8_DLY(100),  
 221:..\..\u8g2\csrc/u8x8_d_ssd1607_200x200.c ****   
 222:..\..\u8g2\csrc/u8x8_d_ssd1607_200x200.c ****   U8X8_END_TRANSFER(),             	/* disable chip */
 223:..\..\u8g2\csrc/u8x8_d_ssd1607_200x200.c ****   U8X8_END()             			/* end of sequence */
 224:..\..\u8g2\csrc/u8x8_d_ssd1607_200x200.c **** };
 225:..\..\u8g2\csrc/u8x8_d_ssd1607_200x200.c **** 
 226:..\..\u8g2\csrc/u8x8_d_ssd1607_200x200.c **** static const uint8_t u8x8_d_ssd1607_200x200_powersave0_seq[] = {
 227:..\..\u8g2\csrc/u8x8_d_ssd1607_200x200.c ****   U8X8_START_TRANSFER(),             	/* enable chip, delay is part of the transfer start */
 228:..\..\u8g2\csrc/u8x8_d_ssd1607_200x200.c ****   U8X8_END_TRANSFER(),             	/* disable chip */
 229:..\..\u8g2\csrc/u8x8_d_ssd1607_200x200.c ****   U8X8_END()             			/* end of sequence */
 230:..\..\u8g2\csrc/u8x8_d_ssd1607_200x200.c **** };
 231:..\..\u8g2\csrc/u8x8_d_ssd1607_200x200.c **** 
 232:..\..\u8g2\csrc/u8x8_d_ssd1607_200x200.c **** static const uint8_t u8x8_d_ssd1607_200x200_powersave1_seq[] = {
 233:..\..\u8g2\csrc/u8x8_d_ssd1607_200x200.c ****   U8X8_START_TRANSFER(),             	/* enable chip, delay is part of the transfer start */
 234:..\..\u8g2\csrc/u8x8_d_ssd1607_200x200.c ****   U8X8_END_TRANSFER(),             	/* disable chip */
 235:..\..\u8g2\csrc/u8x8_d_ssd1607_200x200.c ****   U8X8_END()             			/* end of sequence */
 236:..\..\u8g2\csrc/u8x8_d_ssd1607_200x200.c **** };
 237:..\..\u8g2\csrc/u8x8_d_ssd1607_200x200.c **** 
 238:..\..\u8g2\csrc/u8x8_d_ssd1607_200x200.c **** static const uint8_t u8x8_d_ssd1607_200x200_flip0_seq[] = {
 239:..\..\u8g2\csrc/u8x8_d_ssd1607_200x200.c ****   U8X8_START_TRANSFER(),             	/* enable chip, delay is part of the transfer start */
 240:..\..\u8g2\csrc/u8x8_d_ssd1607_200x200.c ****   U8X8_END_TRANSFER(),             	/* disable chip */
 241:..\..\u8g2\csrc/u8x8_d_ssd1607_200x200.c ****   U8X8_END()             			/* end of sequence */
 242:..\..\u8g2\csrc/u8x8_d_ssd1607_200x200.c **** };
 243:..\..\u8g2\csrc/u8x8_d_ssd1607_200x200.c **** 
 244:..\..\u8g2\csrc/u8x8_d_ssd1607_200x200.c **** static const uint8_t u8x8_d_ssd1607_200x200_flip1_seq[] = {
 245:..\..\u8g2\csrc/u8x8_d_ssd1607_200x200.c ****   U8X8_START_TRANSFER(),             	/* enable chip, delay is part of the transfer start */
 246:..\..\u8g2\csrc/u8x8_d_ssd1607_200x200.c ****   U8X8_END_TRANSFER(),             	/* disable chip */
 247:..\..\u8g2\csrc/u8x8_d_ssd1607_200x200.c ****   U8X8_END()             			/* end of sequence */
 248:..\..\u8g2\csrc/u8x8_d_ssd1607_200x200.c **** };
 249:..\..\u8g2\csrc/u8x8_d_ssd1607_200x200.c **** 
 250:..\..\u8g2\csrc/u8x8_d_ssd1607_200x200.c **** 
 251:..\..\u8g2\csrc/u8x8_d_ssd1607_200x200.c **** static uint8_t *u8x8_convert_tile_for_ssd1607(uint8_t *t)
 252:..\..\u8g2\csrc/u8x8_d_ssd1607_200x200.c **** {
  27              		.loc 1 252 0
  28              		.cfi_startproc
  29              		@ args = 0, pretend = 0, frame = 0
  30              		@ frame_needed = 0, uses_anonymous_args = 0
  31              		@ link register save eliminated.
  32              	.LVL0:
 253:..\..\u8g2\csrc/u8x8_d_ssd1607_200x200.c ****   uint8_t i;
ARM GAS  C:\Users\arh\AppData\Local\Temp\ccysCJcD.s 			page 6


 254:..\..\u8g2\csrc/u8x8_d_ssd1607_200x200.c ****   static uint8_t buf[8];
 255:..\..\u8g2\csrc/u8x8_d_ssd1607_200x200.c ****   uint8_t *pbuf = buf;
  33              		.loc 1 255 0
  34 0000 0649     		ldr	r1, .L4
 256:..\..\u8g2\csrc/u8x8_d_ssd1607_200x200.c **** 
 257:..\..\u8g2\csrc/u8x8_d_ssd1607_200x200.c ****   for( i = 0; i < 8; i++ )
  35              		.loc 1 257 0
  36 0002 0023     		movs	r3, #0
  37 0004 06E0     		b	.L2
  38              	.LVL1:
  39              	.L3:
 258:..\..\u8g2\csrc/u8x8_d_ssd1607_200x200.c ****   {
 259:..\..\u8g2\csrc/u8x8_d_ssd1607_200x200.c ****     *pbuf++ = ~(*t++);
  40              		.loc 1 259 0 discriminator 3
  41 0006 0278     		ldrb	r2, [r0]
  42 0008 D243     		mvns	r2, r2
  43 000a 0A70     		strb	r2, [r1]
 257:..\..\u8g2\csrc/u8x8_d_ssd1607_200x200.c ****   {
  44              		.loc 1 257 0 discriminator 3
  45 000c 0133     		adds	r3, r3, #1
  46              	.LVL2:
  47 000e DBB2     		uxtb	r3, r3
  48              	.LVL3:
  49              		.loc 1 259 0 discriminator 3
  50 0010 0131     		adds	r1, r1, #1
  51              	.LVL4:
  52 0012 0130     		adds	r0, r0, #1
  53              	.LVL5:
  54              	.L2:
 257:..\..\u8g2\csrc/u8x8_d_ssd1607_200x200.c ****   {
  55              		.loc 1 257 0 discriminator 1
  56 0014 072B     		cmp	r3, #7
  57 0016 F6D9     		bls	.L3
 260:..\..\u8g2\csrc/u8x8_d_ssd1607_200x200.c ****   }
 261:..\..\u8g2\csrc/u8x8_d_ssd1607_200x200.c ****   return buf;
 262:..\..\u8g2\csrc/u8x8_d_ssd1607_200x200.c **** }
  58              		.loc 1 262 0
  59 0018 0048     		ldr	r0, .L4
  60              	.LVL6:
  61              		@ sp needed
  62 001a 7047     		bx	lr
  63              	.L5:
  64              		.align	2
  65              	.L4:
  66 001c 00000000 		.word	.LANCHOR0
  67              		.cfi_endproc
  68              	.LFE0:
  69              		.size	u8x8_convert_tile_for_ssd1607, .-u8x8_convert_tile_for_ssd1607
  70              		.section	.text.u8x8_d_ssd1607_draw_tile,"ax",%progbits
  71              		.align	2
  72              		.code	16
  73              		.thumb_func
  74              		.type	u8x8_d_ssd1607_draw_tile, %function
  75              	u8x8_d_ssd1607_draw_tile:
  76              	.LFB1:
 263:..\..\u8g2\csrc/u8x8_d_ssd1607_200x200.c **** 
 264:..\..\u8g2\csrc/u8x8_d_ssd1607_200x200.c **** static void u8x8_d_ssd1607_draw_tile(u8x8_t *u8x8, uint8_t arg_int, void *arg_ptr) U8X8_NOINLINE;
ARM GAS  C:\Users\arh\AppData\Local\Temp\ccysCJcD.s 			page 7


 265:..\..\u8g2\csrc/u8x8_d_ssd1607_200x200.c **** static void u8x8_d_ssd1607_draw_tile(u8x8_t *u8x8, uint8_t arg_int, void *arg_ptr)
 266:..\..\u8g2\csrc/u8x8_d_ssd1607_200x200.c **** {
  77              		.loc 1 266 0
  78              		.cfi_startproc
  79              		@ args = 0, pretend = 0, frame = 0
  80              		@ frame_needed = 0, uses_anonymous_args = 0
  81              	.LVL7:
  82 0000 F0B5     		push	{r4, r5, r6, r7, lr}
  83              		.cfi_def_cfa_offset 20
  84              		.cfi_offset 4, -20
  85              		.cfi_offset 5, -16
  86              		.cfi_offset 6, -12
  87              		.cfi_offset 7, -8
  88              		.cfi_offset 14, -4
  89 0002 4746     		mov	r7, r8
  90 0004 80B4     		push	{r7}
  91              		.cfi_def_cfa_offset 24
  92              		.cfi_offset 8, -24
  93 0006 0600     		movs	r6, r0
  94 0008 0F00     		movs	r7, r1
  95 000a 9046     		mov	r8, r2
 267:..\..\u8g2\csrc/u8x8_d_ssd1607_200x200.c ****   uint16_t x;
 268:..\..\u8g2\csrc/u8x8_d_ssd1607_200x200.c ****   uint8_t c, page;
 269:..\..\u8g2\csrc/u8x8_d_ssd1607_200x200.c ****   uint8_t *ptr;
 270:..\..\u8g2\csrc/u8x8_d_ssd1607_200x200.c ****   u8x8_cad_StartTransfer(u8x8);
  96              		.loc 1 270 0
  97 000c FFF7FEFF 		bl	u8x8_cad_StartTransfer
  98              	.LVL8:
 271:..\..\u8g2\csrc/u8x8_d_ssd1607_200x200.c **** 
 272:..\..\u8g2\csrc/u8x8_d_ssd1607_200x200.c ****   page = u8x8->display_info->tile_height;
  99              		.loc 1 272 0
 100 0010 3368     		ldr	r3, [r6]
 101 0012 5C7C     		ldrb	r4, [r3, #17]
 102              	.LVL9:
 273:..\..\u8g2\csrc/u8x8_d_ssd1607_200x200.c ****   page --;
 103              		.loc 1 273 0
 104 0014 013C     		subs	r4, r4, #1
 105              	.LVL10:
 106 0016 E3B2     		uxtb	r3, r4
 107              	.LVL11:
 274:..\..\u8g2\csrc/u8x8_d_ssd1607_200x200.c ****   page -= (((u8x8_tile_t *)arg_ptr)->y_pos);
 108              		.loc 1 274 0
 109 0018 4246     		mov	r2, r8
 110 001a 9479     		ldrb	r4, [r2, #6]
 111 001c 1C1B     		subs	r4, r3, r4
 112 001e E4B2     		uxtb	r4, r4
 113              	.LVL12:
 275:..\..\u8g2\csrc/u8x8_d_ssd1607_200x200.c ****   
 276:..\..\u8g2\csrc/u8x8_d_ssd1607_200x200.c ****   //page = (((u8x8_tile_t *)arg_ptr)->y_pos);
 277:..\..\u8g2\csrc/u8x8_d_ssd1607_200x200.c **** 
 278:..\..\u8g2\csrc/u8x8_d_ssd1607_200x200.c ****   x = ((u8x8_tile_t *)arg_ptr)->x_pos;
 114              		.loc 1 278 0
 115 0020 5579     		ldrb	r5, [r2, #5]
 116              	.LVL13:
 279:..\..\u8g2\csrc/u8x8_d_ssd1607_200x200.c ****   x *= 8;
 117              		.loc 1 279 0
 118 0022 ED00     		lsls	r5, r5, #3
ARM GAS  C:\Users\arh\AppData\Local\Temp\ccysCJcD.s 			page 8


 119              	.LVL14:
 280:..\..\u8g2\csrc/u8x8_d_ssd1607_200x200.c ****   x += u8x8->x_offset;
 120              		.loc 1 280 0
 121 0024 B37F     		ldrb	r3, [r6, #30]
 122 0026 ED18     		adds	r5, r5, r3
 123              	.LVL15:
 281:..\..\u8g2\csrc/u8x8_d_ssd1607_200x200.c **** 
 282:..\..\u8g2\csrc/u8x8_d_ssd1607_200x200.c ****   u8x8_cad_SendCmd(u8x8, 0x00f );	/* scan start */
 124              		.loc 1 282 0
 125 0028 0F21     		movs	r1, #15
 126 002a 3000     		movs	r0, r6
 127 002c FFF7FEFF 		bl	u8x8_cad_SendCmd
 128              	.LVL16:
 283:..\..\u8g2\csrc/u8x8_d_ssd1607_200x200.c ****   u8x8_cad_SendArg(u8x8, 0);
 129              		.loc 1 283 0
 130 0030 0021     		movs	r1, #0
 131 0032 3000     		movs	r0, r6
 132 0034 FFF7FEFF 		bl	u8x8_cad_SendArg
 133              	.LVL17:
 284:..\..\u8g2\csrc/u8x8_d_ssd1607_200x200.c **** 
 285:..\..\u8g2\csrc/u8x8_d_ssd1607_200x200.c ****   u8x8_cad_SendCmd(u8x8, 0x011 );	/* cursor increment mode */
 134              		.loc 1 285 0
 135 0038 1121     		movs	r1, #17
 136 003a 3000     		movs	r0, r6
 137 003c FFF7FEFF 		bl	u8x8_cad_SendCmd
 138              	.LVL18:
 286:..\..\u8g2\csrc/u8x8_d_ssd1607_200x200.c ****   u8x8_cad_SendArg(u8x8, 3);
 139              		.loc 1 286 0
 140 0040 0321     		movs	r1, #3
 141 0042 3000     		movs	r0, r6
 142 0044 FFF7FEFF 		bl	u8x8_cad_SendArg
 143              	.LVL19:
 287:..\..\u8g2\csrc/u8x8_d_ssd1607_200x200.c **** 
 288:..\..\u8g2\csrc/u8x8_d_ssd1607_200x200.c ****   u8x8_cad_SendCmd(u8x8, 0x045 );	/* window start column */
 144              		.loc 1 288 0
 145 0048 4521     		movs	r1, #69
 146 004a 3000     		movs	r0, r6
 147 004c FFF7FEFF 		bl	u8x8_cad_SendCmd
 148              	.LVL20:
 289:..\..\u8g2\csrc/u8x8_d_ssd1607_200x200.c ****   u8x8_cad_SendArg(u8x8, 0);
 149              		.loc 1 289 0
 150 0050 0021     		movs	r1, #0
 151 0052 3000     		movs	r0, r6
 152 0054 FFF7FEFF 		bl	u8x8_cad_SendArg
 153              	.LVL21:
 290:..\..\u8g2\csrc/u8x8_d_ssd1607_200x200.c ****   u8x8_cad_SendArg(u8x8, 0);
 154              		.loc 1 290 0
 155 0058 0021     		movs	r1, #0
 156 005a 3000     		movs	r0, r6
 157 005c FFF7FEFF 		bl	u8x8_cad_SendArg
 158              	.LVL22:
 291:..\..\u8g2\csrc/u8x8_d_ssd1607_200x200.c ****   u8x8_cad_SendArg(u8x8, 199);		/* end of display */
 159              		.loc 1 291 0
 160 0060 C721     		movs	r1, #199
 161 0062 3000     		movs	r0, r6
 162 0064 FFF7FEFF 		bl	u8x8_cad_SendArg
 163              	.LVL23:
ARM GAS  C:\Users\arh\AppData\Local\Temp\ccysCJcD.s 			page 9


 292:..\..\u8g2\csrc/u8x8_d_ssd1607_200x200.c ****   u8x8_cad_SendArg(u8x8, 0);
 164              		.loc 1 292 0
 165 0068 0021     		movs	r1, #0
 166 006a 3000     		movs	r0, r6
 167 006c FFF7FEFF 		bl	u8x8_cad_SendArg
 168              	.LVL24:
 293:..\..\u8g2\csrc/u8x8_d_ssd1607_200x200.c **** 
 294:..\..\u8g2\csrc/u8x8_d_ssd1607_200x200.c ****   u8x8_cad_SendCmd(u8x8, 0x044 );	/* window end page */
 169              		.loc 1 294 0
 170 0070 4421     		movs	r1, #68
 171 0072 3000     		movs	r0, r6
 172 0074 FFF7FEFF 		bl	u8x8_cad_SendCmd
 173              	.LVL25:
 295:..\..\u8g2\csrc/u8x8_d_ssd1607_200x200.c ****   u8x8_cad_SendArg(u8x8, page);
 174              		.loc 1 295 0
 175 0078 2100     		movs	r1, r4
 176 007a 3000     		movs	r0, r6
 177 007c FFF7FEFF 		bl	u8x8_cad_SendArg
 178              	.LVL26:
 296:..\..\u8g2\csrc/u8x8_d_ssd1607_200x200.c ****   u8x8_cad_SendArg(u8x8, page);
 179              		.loc 1 296 0
 180 0080 2100     		movs	r1, r4
 181 0082 3000     		movs	r0, r6
 182 0084 FFF7FEFF 		bl	u8x8_cad_SendArg
 183              	.LVL27:
 297:..\..\u8g2\csrc/u8x8_d_ssd1607_200x200.c ****   //u8x8_cad_SendArg(u8x8, 0);
 298:..\..\u8g2\csrc/u8x8_d_ssd1607_200x200.c ****   //u8x8_cad_SendArg(u8x8, 199/8);
 299:..\..\u8g2\csrc/u8x8_d_ssd1607_200x200.c **** 
 300:..\..\u8g2\csrc/u8x8_d_ssd1607_200x200.c ****   u8x8_cad_SendCmd(u8x8, 0x04f );	/* window column */
 184              		.loc 1 300 0
 185 0088 4F21     		movs	r1, #79
 186 008a 3000     		movs	r0, r6
 187 008c FFF7FEFF 		bl	u8x8_cad_SendCmd
 188              	.LVL28:
 301:..\..\u8g2\csrc/u8x8_d_ssd1607_200x200.c ****   u8x8_cad_SendArg(u8x8, x&255);
 189              		.loc 1 301 0
 190 0090 E9B2     		uxtb	r1, r5
 191 0092 3000     		movs	r0, r6
 192 0094 FFF7FEFF 		bl	u8x8_cad_SendArg
 193              	.LVL29:
 302:..\..\u8g2\csrc/u8x8_d_ssd1607_200x200.c ****   u8x8_cad_SendArg(u8x8, x>>8);
 194              		.loc 1 302 0
 195 0098 2D0A     		lsrs	r5, r5, #8
 196              	.LVL30:
 197 009a E9B2     		uxtb	r1, r5
 198 009c 3000     		movs	r0, r6
 199 009e FFF7FEFF 		bl	u8x8_cad_SendArg
 200              	.LVL31:
 303:..\..\u8g2\csrc/u8x8_d_ssd1607_200x200.c **** 
 304:..\..\u8g2\csrc/u8x8_d_ssd1607_200x200.c ****   u8x8_cad_SendCmd(u8x8, 0x04e );	/* window row */
 201              		.loc 1 304 0
 202 00a2 4E21     		movs	r1, #78
 203 00a4 3000     		movs	r0, r6
 204 00a6 FFF7FEFF 		bl	u8x8_cad_SendCmd
 205              	.LVL32:
 305:..\..\u8g2\csrc/u8x8_d_ssd1607_200x200.c ****   u8x8_cad_SendArg(u8x8, page);
 206              		.loc 1 305 0
ARM GAS  C:\Users\arh\AppData\Local\Temp\ccysCJcD.s 			page 10


 207 00aa 2100     		movs	r1, r4
 208 00ac 3000     		movs	r0, r6
 209 00ae FFF7FEFF 		bl	u8x8_cad_SendArg
 210              	.LVL33:
 306:..\..\u8g2\csrc/u8x8_d_ssd1607_200x200.c **** 
 307:..\..\u8g2\csrc/u8x8_d_ssd1607_200x200.c ****   u8x8_cad_SendCmd(u8x8, 0x024 );
 211              		.loc 1 307 0
 212 00b2 2421     		movs	r1, #36
 213 00b4 3000     		movs	r0, r6
 214 00b6 FFF7FEFF 		bl	u8x8_cad_SendCmd
 215              	.LVL34:
 216              	.L8:
 308:..\..\u8g2\csrc/u8x8_d_ssd1607_200x200.c ****   
 309:..\..\u8g2\csrc/u8x8_d_ssd1607_200x200.c ****   do
 310:..\..\u8g2\csrc/u8x8_d_ssd1607_200x200.c ****   {
 311:..\..\u8g2\csrc/u8x8_d_ssd1607_200x200.c ****     c = ((u8x8_tile_t *)arg_ptr)->cnt;
 217              		.loc 1 311 0
 218 00ba 4346     		mov	r3, r8
 219 00bc 1C79     		ldrb	r4, [r3, #4]
 220              	.LVL35:
 312:..\..\u8g2\csrc/u8x8_d_ssd1607_200x200.c ****     ptr = ((u8x8_tile_t *)arg_ptr)->tile_ptr;
 221              		.loc 1 312 0
 222 00be 1D68     		ldr	r5, [r3]
 223              	.LVL36:
 224              	.L7:
 313:..\..\u8g2\csrc/u8x8_d_ssd1607_200x200.c ****     do
 314:..\..\u8g2\csrc/u8x8_d_ssd1607_200x200.c ****     {
 315:..\..\u8g2\csrc/u8x8_d_ssd1607_200x200.c ****       u8x8_cad_SendData(u8x8, 8, u8x8_convert_tile_for_ssd1607(ptr));
 225              		.loc 1 315 0 discriminator 1
 226 00c0 2800     		movs	r0, r5
 227 00c2 FFF7FEFF 		bl	u8x8_convert_tile_for_ssd1607
 228              	.LVL37:
 229 00c6 0200     		movs	r2, r0
 230 00c8 0821     		movs	r1, #8
 231 00ca 3000     		movs	r0, r6
 232 00cc FFF7FEFF 		bl	u8x8_cad_SendData
 233              	.LVL38:
 316:..\..\u8g2\csrc/u8x8_d_ssd1607_200x200.c ****       ptr += 8;
 234              		.loc 1 316 0 discriminator 1
 235 00d0 0835     		adds	r5, r5, #8
 236              	.LVL39:
 317:..\..\u8g2\csrc/u8x8_d_ssd1607_200x200.c ****       x += 8;
 318:..\..\u8g2\csrc/u8x8_d_ssd1607_200x200.c ****       c--;
 237              		.loc 1 318 0 discriminator 1
 238 00d2 013C     		subs	r4, r4, #1
 239              	.LVL40:
 240 00d4 E4B2     		uxtb	r4, r4
 241              	.LVL41:
 319:..\..\u8g2\csrc/u8x8_d_ssd1607_200x200.c ****     } while( c > 0 );
 242              		.loc 1 319 0 discriminator 1
 243 00d6 002C     		cmp	r4, #0
 244 00d8 F2D1     		bne	.L7
 320:..\..\u8g2\csrc/u8x8_d_ssd1607_200x200.c ****     
 321:..\..\u8g2\csrc/u8x8_d_ssd1607_200x200.c ****     arg_int--;
 245              		.loc 1 321 0
 246 00da 013F     		subs	r7, r7, #1
 247              	.LVL42:
ARM GAS  C:\Users\arh\AppData\Local\Temp\ccysCJcD.s 			page 11


 248 00dc FFB2     		uxtb	r7, r7
 249              	.LVL43:
 322:..\..\u8g2\csrc/u8x8_d_ssd1607_200x200.c ****   } while( arg_int > 0 );
 250              		.loc 1 322 0
 251 00de 002F     		cmp	r7, #0
 252 00e0 EBD1     		bne	.L8
 323:..\..\u8g2\csrc/u8x8_d_ssd1607_200x200.c ****   
 324:..\..\u8g2\csrc/u8x8_d_ssd1607_200x200.c ****   u8x8_cad_EndTransfer(u8x8);
 253              		.loc 1 324 0
 254 00e2 3000     		movs	r0, r6
 255 00e4 FFF7FEFF 		bl	u8x8_cad_EndTransfer
 256              	.LVL44:
 325:..\..\u8g2\csrc/u8x8_d_ssd1607_200x200.c **** }
 257              		.loc 1 325 0
 258              		@ sp needed
 259              	.LVL45:
 260              	.LVL46:
 261              	.LVL47:
 262              	.LVL48:
 263              	.LVL49:
 264 00e8 04BC     		pop	{r2}
 265 00ea 9046     		mov	r8, r2
 266 00ec F0BD     		pop	{r4, r5, r6, r7, pc}
 267              		.cfi_endproc
 268              	.LFE1:
 269              		.size	u8x8_d_ssd1607_draw_tile, .-u8x8_d_ssd1607_draw_tile
 270 00ee C046     		.section	.text.u8x8_d_ssd1607_200x200_generic,"ax",%progbits
 271              		.align	2
 272              		.code	16
 273              		.thumb_func
 274              		.type	u8x8_d_ssd1607_200x200_generic, %function
 275              	u8x8_d_ssd1607_200x200_generic:
 276              	.LFB2:
 326:..\..\u8g2\csrc/u8x8_d_ssd1607_200x200.c **** 
 327:..\..\u8g2\csrc/u8x8_d_ssd1607_200x200.c **** 
 328:..\..\u8g2\csrc/u8x8_d_ssd1607_200x200.c **** static uint8_t u8x8_d_ssd1607_200x200_generic(u8x8_t *u8x8, uint8_t msg, uint8_t arg_int, void *arg
 329:..\..\u8g2\csrc/u8x8_d_ssd1607_200x200.c **** {
 277              		.loc 1 329 0
 278              		.cfi_startproc
 279              		@ args = 0, pretend = 0, frame = 0
 280              		@ frame_needed = 0, uses_anonymous_args = 0
 281              	.LVL50:
 282 0000 70B5     		push	{r4, r5, r6, lr}
 283              		.cfi_def_cfa_offset 16
 284              		.cfi_offset 4, -16
 285              		.cfi_offset 5, -12
 286              		.cfi_offset 6, -8
 287              		.cfi_offset 14, -4
 288 0002 0400     		movs	r4, r0
 289 0004 1000     		movs	r0, r2
 290              	.LVL51:
 330:..\..\u8g2\csrc/u8x8_d_ssd1607_200x200.c ****   switch(msg)
 291              		.loc 1 330 0
 292 0006 0A39     		subs	r1, r1, #10
 293              	.LVL52:
 294 0008 CDB2     		uxtb	r5, r1
 295 000a 062D     		cmp	r5, #6
ARM GAS  C:\Users\arh\AppData\Local\Temp\ccysCJcD.s 			page 12


 296 000c 03D8     		bhi	.L10
 297 000e A900     		lsls	r1, r5, #2
 298 0010 114A     		ldr	r2, .L17
 299              	.LVL53:
 300 0012 5258     		ldr	r2, [r2, r1]
 301 0014 9746     		mov	pc, r2
 302              		.section	.rodata
 303              		.align	2
 304              	.L12:
 305 0000 1A000000 		.word	.L11
 306 0004 54000000 		.word	.L16
 307 0008 16000000 		.word	.L10
 308 000c 54000000 		.word	.L16
 309 0010 16000000 		.word	.L10
 310 0014 38000000 		.word	.L14
 311 0018 46000000 		.word	.L15
 312              		.section	.text.u8x8_d_ssd1607_200x200_generic
 313              	.L10:
 331:..\..\u8g2\csrc/u8x8_d_ssd1607_200x200.c ****   {
 332:..\..\u8g2\csrc/u8x8_d_ssd1607_200x200.c ****     /* handled by the calling function
 333:..\..\u8g2\csrc/u8x8_d_ssd1607_200x200.c ****     case U8X8_MSG_DISPLAY_SETUP_MEMORY:
 334:..\..\u8g2\csrc/u8x8_d_ssd1607_200x200.c ****       u8x8_d_helper_display_setup_memory(u8x8, &u8x8_ssd1607_200x200_display_info);
 335:..\..\u8g2\csrc/u8x8_d_ssd1607_200x200.c ****       break;
 336:..\..\u8g2\csrc/u8x8_d_ssd1607_200x200.c ****     */
 337:..\..\u8g2\csrc/u8x8_d_ssd1607_200x200.c ****     case U8X8_MSG_DISPLAY_INIT:
 338:..\..\u8g2\csrc/u8x8_d_ssd1607_200x200.c **** 
 339:..\..\u8g2\csrc/u8x8_d_ssd1607_200x200.c ****       u8x8_d_helper_display_init(u8x8);
 340:..\..\u8g2\csrc/u8x8_d_ssd1607_200x200.c ****       u8x8_cad_SendSequence(u8x8, u8x8_d_ssd1607_200x200_init_seq);    
 341:..\..\u8g2\csrc/u8x8_d_ssd1607_200x200.c ****     
 342:..\..\u8g2\csrc/u8x8_d_ssd1607_200x200.c **** #ifdef NOT_USED
 343:..\..\u8g2\csrc/u8x8_d_ssd1607_200x200.c ****       /* STRATEGY FOR SSD1606 */
 344:..\..\u8g2\csrc/u8x8_d_ssd1607_200x200.c ****       /* special code for the SSD1606... */
 345:..\..\u8g2\csrc/u8x8_d_ssd1607_200x200.c ****       /* ensure that the initial buffer is clear and all eInk is set to white */
 346:..\..\u8g2\csrc/u8x8_d_ssd1607_200x200.c ****       /* this is done here, because the LUT will be of that kind, that it uses the previous color *
 347:..\..\u8g2\csrc/u8x8_d_ssd1607_200x200.c ****       /* make everything black */
 348:..\..\u8g2\csrc/u8x8_d_ssd1607_200x200.c ****       u8x8_FillDisplay(u8x8);		
 349:..\..\u8g2\csrc/u8x8_d_ssd1607_200x200.c ****       /* write content to the display */
 350:..\..\u8g2\csrc/u8x8_d_ssd1607_200x200.c ****       u8x8_RefreshDisplay(u8x8);
 351:..\..\u8g2\csrc/u8x8_d_ssd1607_200x200.c ****       /* now make everything clear */
 352:..\..\u8g2\csrc/u8x8_d_ssd1607_200x200.c ****       u8x8_FillDisplay(u8x8);		
 353:..\..\u8g2\csrc/u8x8_d_ssd1607_200x200.c ****       /* write content to the display */
 354:..\..\u8g2\csrc/u8x8_d_ssd1607_200x200.c ****       u8x8_RefreshDisplay(u8x8);
 355:..\..\u8g2\csrc/u8x8_d_ssd1607_200x200.c ****       /* now make everything clear */
 356:..\..\u8g2\csrc/u8x8_d_ssd1607_200x200.c ****       u8x8_ClearDisplay(u8x8);		
 357:..\..\u8g2\csrc/u8x8_d_ssd1607_200x200.c ****       /* write content to the display */
 358:..\..\u8g2\csrc/u8x8_d_ssd1607_200x200.c ****       u8x8_RefreshDisplay(u8x8);
 359:..\..\u8g2\csrc/u8x8_d_ssd1607_200x200.c **** #endif
 360:..\..\u8g2\csrc/u8x8_d_ssd1607_200x200.c **** 
 361:..\..\u8g2\csrc/u8x8_d_ssd1607_200x200.c ****       u8x8_ClearDisplay(u8x8);		
 362:..\..\u8g2\csrc/u8x8_d_ssd1607_200x200.c ****       /* write content to the display */
 363:..\..\u8g2\csrc/u8x8_d_ssd1607_200x200.c ****       u8x8_RefreshDisplay(u8x8);
 364:..\..\u8g2\csrc/u8x8_d_ssd1607_200x200.c ****     
 365:..\..\u8g2\csrc/u8x8_d_ssd1607_200x200.c ****       break;
 366:..\..\u8g2\csrc/u8x8_d_ssd1607_200x200.c ****     case U8X8_MSG_DISPLAY_SET_POWER_SAVE:
 367:..\..\u8g2\csrc/u8x8_d_ssd1607_200x200.c **** /*
 368:..\..\u8g2\csrc/u8x8_d_ssd1607_200x200.c ****       if ( arg_int == 0 )
 369:..\..\u8g2\csrc/u8x8_d_ssd1607_200x200.c **** 	u8x8_cad_SendSequence(u8x8, u8x8_d_ssd1607_200x200_powersave0_seq);
ARM GAS  C:\Users\arh\AppData\Local\Temp\ccysCJcD.s 			page 13


 370:..\..\u8g2\csrc/u8x8_d_ssd1607_200x200.c ****       else
 371:..\..\u8g2\csrc/u8x8_d_ssd1607_200x200.c **** 	u8x8_cad_SendSequence(u8x8, u8x8_d_ssd1607_200x200_powersave1_seq);
 372:..\..\u8g2\csrc/u8x8_d_ssd1607_200x200.c **** */
 373:..\..\u8g2\csrc/u8x8_d_ssd1607_200x200.c ****       break;
 374:..\..\u8g2\csrc/u8x8_d_ssd1607_200x200.c ****     case U8X8_MSG_DISPLAY_SET_FLIP_MODE:
 375:..\..\u8g2\csrc/u8x8_d_ssd1607_200x200.c **** /*
 376:..\..\u8g2\csrc/u8x8_d_ssd1607_200x200.c ****       if ( arg_int == 0 )
 377:..\..\u8g2\csrc/u8x8_d_ssd1607_200x200.c ****       {
 378:..\..\u8g2\csrc/u8x8_d_ssd1607_200x200.c **** 	u8x8_cad_SendSequence(u8x8, u8x8_d_ssd1607_200x200_flip0_seq);
 379:..\..\u8g2\csrc/u8x8_d_ssd1607_200x200.c **** 	u8x8->x_offset = u8x8->display_info->default_x_offset;
 380:..\..\u8g2\csrc/u8x8_d_ssd1607_200x200.c ****       }
 381:..\..\u8g2\csrc/u8x8_d_ssd1607_200x200.c ****       else
 382:..\..\u8g2\csrc/u8x8_d_ssd1607_200x200.c ****       {
 383:..\..\u8g2\csrc/u8x8_d_ssd1607_200x200.c **** 	u8x8_cad_SendSequence(u8x8, u8x8_d_ssd1607_200x200_flip1_seq);
 384:..\..\u8g2\csrc/u8x8_d_ssd1607_200x200.c **** 	u8x8->x_offset = u8x8->display_info->flipmode_x_offset;
 385:..\..\u8g2\csrc/u8x8_d_ssd1607_200x200.c ****       }
 386:..\..\u8g2\csrc/u8x8_d_ssd1607_200x200.c **** */
 387:..\..\u8g2\csrc/u8x8_d_ssd1607_200x200.c ****       break;
 388:..\..\u8g2\csrc/u8x8_d_ssd1607_200x200.c **** #ifdef U8X8_WITH_SET_CONTRAST
 389:..\..\u8g2\csrc/u8x8_d_ssd1607_200x200.c **** /*
 390:..\..\u8g2\csrc/u8x8_d_ssd1607_200x200.c ****     case U8X8_MSG_DISPLAY_SET_CONTRAST:
 391:..\..\u8g2\csrc/u8x8_d_ssd1607_200x200.c ****       u8x8_cad_StartTransfer(u8x8);
 392:..\..\u8g2\csrc/u8x8_d_ssd1607_200x200.c ****       u8x8_cad_EndTransfer(u8x8);
 393:..\..\u8g2\csrc/u8x8_d_ssd1607_200x200.c **** */
 394:..\..\u8g2\csrc/u8x8_d_ssd1607_200x200.c ****       break;
 395:..\..\u8g2\csrc/u8x8_d_ssd1607_200x200.c **** #endif
 396:..\..\u8g2\csrc/u8x8_d_ssd1607_200x200.c ****     case U8X8_MSG_DISPLAY_DRAW_TILE:
 397:..\..\u8g2\csrc/u8x8_d_ssd1607_200x200.c ****       u8x8_d_ssd1607_draw_tile(u8x8, arg_int, arg_ptr);
 398:..\..\u8g2\csrc/u8x8_d_ssd1607_200x200.c ****       break;
 399:..\..\u8g2\csrc/u8x8_d_ssd1607_200x200.c ****     case U8X8_MSG_DISPLAY_REFRESH:
 400:..\..\u8g2\csrc/u8x8_d_ssd1607_200x200.c ****       u8x8_cad_SendSequence(u8x8, u8x8_d_ssd1607_to_display_seq);    
 401:..\..\u8g2\csrc/u8x8_d_ssd1607_200x200.c ****       break;
 402:..\..\u8g2\csrc/u8x8_d_ssd1607_200x200.c ****     default:
 403:..\..\u8g2\csrc/u8x8_d_ssd1607_200x200.c ****       return 0;
 314              		.loc 1 403 0
 315 0016 0020     		movs	r0, #0
 316 0018 1DE0     		b	.L13
 317              	.L11:
 339:..\..\u8g2\csrc/u8x8_d_ssd1607_200x200.c ****       u8x8_cad_SendSequence(u8x8, u8x8_d_ssd1607_200x200_init_seq);    
 318              		.loc 1 339 0
 319 001a 2000     		movs	r0, r4
 320 001c FFF7FEFF 		bl	u8x8_d_helper_display_init
 321              	.LVL54:
 340:..\..\u8g2\csrc/u8x8_d_ssd1607_200x200.c ****     
 322              		.loc 1 340 0
 323 0020 0E49     		ldr	r1, .L17+4
 324 0022 2000     		movs	r0, r4
 325 0024 FFF7FEFF 		bl	u8x8_cad_SendSequence
 326              	.LVL55:
 361:..\..\u8g2\csrc/u8x8_d_ssd1607_200x200.c ****       /* write content to the display */
 327              		.loc 1 361 0
 328 0028 2000     		movs	r0, r4
 329 002a FFF7FEFF 		bl	u8x8_ClearDisplay
 330              	.LVL56:
 363:..\..\u8g2\csrc/u8x8_d_ssd1607_200x200.c ****     
 331              		.loc 1 363 0
 332 002e 2000     		movs	r0, r4
ARM GAS  C:\Users\arh\AppData\Local\Temp\ccysCJcD.s 			page 14


 333 0030 FFF7FEFF 		bl	u8x8_RefreshDisplay
 334              	.LVL57:
 404:..\..\u8g2\csrc/u8x8_d_ssd1607_200x200.c ****   }
 405:..\..\u8g2\csrc/u8x8_d_ssd1607_200x200.c ****   return 1;
 335              		.loc 1 405 0
 336 0034 0120     		movs	r0, #1
 365:..\..\u8g2\csrc/u8x8_d_ssd1607_200x200.c ****     case U8X8_MSG_DISPLAY_SET_POWER_SAVE:
 337              		.loc 1 365 0
 338 0036 0EE0     		b	.L13
 339              	.LVL58:
 340              	.L14:
 397:..\..\u8g2\csrc/u8x8_d_ssd1607_200x200.c ****       break;
 341              		.loc 1 397 0
 342 0038 1A00     		movs	r2, r3
 343 003a 0100     		movs	r1, r0
 344 003c 2000     		movs	r0, r4
 345 003e FFF7FEFF 		bl	u8x8_d_ssd1607_draw_tile
 346              	.LVL59:
 347              		.loc 1 405 0
 348 0042 0120     		movs	r0, #1
 398:..\..\u8g2\csrc/u8x8_d_ssd1607_200x200.c ****     case U8X8_MSG_DISPLAY_REFRESH:
 349              		.loc 1 398 0
 350 0044 07E0     		b	.L13
 351              	.LVL60:
 352              	.L15:
 400:..\..\u8g2\csrc/u8x8_d_ssd1607_200x200.c ****       break;
 353              		.loc 1 400 0
 354 0046 0649     		ldr	r1, .L17+8
 355 0048 0831     		adds	r1, r1, #8
 356 004a 2000     		movs	r0, r4
 357 004c FFF7FEFF 		bl	u8x8_cad_SendSequence
 358              	.LVL61:
 359              		.loc 1 405 0
 360 0050 0120     		movs	r0, #1
 401:..\..\u8g2\csrc/u8x8_d_ssd1607_200x200.c ****     default:
 361              		.loc 1 401 0
 362 0052 00E0     		b	.L13
 363              	.LVL62:
 364              	.L16:
 365              		.loc 1 405 0
 366 0054 0120     		movs	r0, #1
 367              	.LVL63:
 368              	.L13:
 406:..\..\u8g2\csrc/u8x8_d_ssd1607_200x200.c **** }
 369              		.loc 1 406 0
 370              		@ sp needed
 371              	.LVL64:
 372 0056 70BD     		pop	{r4, r5, r6, pc}
 373              	.L18:
 374              		.align	2
 375              	.L17:
 376 0058 00000000 		.word	.L12
 377 005c 1C000000 		.word	.LANCHOR1
 378 0060 9C000000 		.word	.LANCHOR2
 379              		.cfi_endproc
 380              	.LFE2:
 381              		.size	u8x8_d_ssd1607_200x200_generic, .-u8x8_d_ssd1607_200x200_generic
ARM GAS  C:\Users\arh\AppData\Local\Temp\ccysCJcD.s 			page 15


 382              		.section	.text.u8x8_d_ssd1607_200x200,"ax",%progbits
 383              		.align	2
 384              		.global	u8x8_d_ssd1607_200x200
 385              		.code	16
 386              		.thumb_func
 387              		.type	u8x8_d_ssd1607_200x200, %function
 388              	u8x8_d_ssd1607_200x200:
 389              	.LFB3:
 407:..\..\u8g2\csrc/u8x8_d_ssd1607_200x200.c **** 
 408:..\..\u8g2\csrc/u8x8_d_ssd1607_200x200.c **** 
 409:..\..\u8g2\csrc/u8x8_d_ssd1607_200x200.c **** static const u8x8_display_info_t u8x8_ssd1607_200x200_display_info =
 410:..\..\u8g2\csrc/u8x8_d_ssd1607_200x200.c **** {
 411:..\..\u8g2\csrc/u8x8_d_ssd1607_200x200.c ****   /* chip_enable_level = */ 0,
 412:..\..\u8g2\csrc/u8x8_d_ssd1607_200x200.c ****   /* chip_disable_level = */ 1,
 413:..\..\u8g2\csrc/u8x8_d_ssd1607_200x200.c ****   
 414:..\..\u8g2\csrc/u8x8_d_ssd1607_200x200.c ****   /* values from SSD1606 */
 415:..\..\u8g2\csrc/u8x8_d_ssd1607_200x200.c ****   /* post_chip_enable_wait_ns = */ 120,
 416:..\..\u8g2\csrc/u8x8_d_ssd1607_200x200.c ****   /* pre_chip_disable_wait_ns = */ 60,
 417:..\..\u8g2\csrc/u8x8_d_ssd1607_200x200.c ****   /* reset_pulse_width_ms = */ 100, 	
 418:..\..\u8g2\csrc/u8x8_d_ssd1607_200x200.c ****   /* post_reset_wait_ms = */ 100, 
 419:..\..\u8g2\csrc/u8x8_d_ssd1607_200x200.c ****   /* sda_setup_time_ns = */ 50,		/* SSD1606: */
 420:..\..\u8g2\csrc/u8x8_d_ssd1607_200x200.c ****   /* sck_pulse_width_ns = */ 100,	/* SSD1606: 100ns */
 421:..\..\u8g2\csrc/u8x8_d_ssd1607_200x200.c ****   /* sck_clock_hz = */ 4000000UL,	/* since Arduino 1.6.0, the SPI bus speed in Hz. Should be  10000
 422:..\..\u8g2\csrc/u8x8_d_ssd1607_200x200.c ****   /* spi_mode = */ 2,		/* active high, rising edge */
 423:..\..\u8g2\csrc/u8x8_d_ssd1607_200x200.c ****   /* i2c_bus_clock_100kHz = */ 4,
 424:..\..\u8g2\csrc/u8x8_d_ssd1607_200x200.c ****   /* data_setup_time_ns = */ 40,
 425:..\..\u8g2\csrc/u8x8_d_ssd1607_200x200.c ****   /* write_pulse_width_ns = */ 150,	
 426:..\..\u8g2\csrc/u8x8_d_ssd1607_200x200.c ****   /* tile_width = */ 25,		/* 25*8 = 200 */
 427:..\..\u8g2\csrc/u8x8_d_ssd1607_200x200.c ****   /* tile_hight = */ 25,		
 428:..\..\u8g2\csrc/u8x8_d_ssd1607_200x200.c ****   /* default_x_offset = */ 0,
 429:..\..\u8g2\csrc/u8x8_d_ssd1607_200x200.c ****   /* flipmode_x_offset = */ 0,
 430:..\..\u8g2\csrc/u8x8_d_ssd1607_200x200.c ****   /* pixel_width = */ 200,
 431:..\..\u8g2\csrc/u8x8_d_ssd1607_200x200.c ****   /* pixel_height = */ 200		
 432:..\..\u8g2\csrc/u8x8_d_ssd1607_200x200.c **** };
 433:..\..\u8g2\csrc/u8x8_d_ssd1607_200x200.c **** 
 434:..\..\u8g2\csrc/u8x8_d_ssd1607_200x200.c **** uint8_t u8x8_d_ssd1607_200x200(u8x8_t *u8x8, uint8_t msg, uint8_t arg_int, void *arg_ptr)
 435:..\..\u8g2\csrc/u8x8_d_ssd1607_200x200.c **** {
 390              		.loc 1 435 0
 391              		.cfi_startproc
 392              		@ args = 0, pretend = 0, frame = 0
 393              		@ frame_needed = 0, uses_anonymous_args = 0
 394              	.LVL65:
 395 0000 10B5     		push	{r4, lr}
 396              		.cfi_def_cfa_offset 8
 397              		.cfi_offset 4, -8
 398              		.cfi_offset 14, -4
 436:..\..\u8g2\csrc/u8x8_d_ssd1607_200x200.c ****     if ( msg == U8X8_MSG_DISPLAY_SETUP_MEMORY )
 399              		.loc 1 436 0
 400 0002 0929     		cmp	r1, #9
 401 0004 04D1     		bne	.L20
 437:..\..\u8g2\csrc/u8x8_d_ssd1607_200x200.c ****     {
 438:..\..\u8g2\csrc/u8x8_d_ssd1607_200x200.c ****       u8x8_d_helper_display_setup_memory(u8x8, &u8x8_ssd1607_200x200_display_info);
 402              		.loc 1 438 0
 403 0006 0449     		ldr	r1, .L22
 404              	.LVL66:
 405 0008 FFF7FEFF 		bl	u8x8_d_helper_display_setup_memory
 406              	.LVL67:
ARM GAS  C:\Users\arh\AppData\Local\Temp\ccysCJcD.s 			page 16


 439:..\..\u8g2\csrc/u8x8_d_ssd1607_200x200.c ****       return 1;
 407              		.loc 1 439 0
 408 000c 0120     		movs	r0, #1
 409 000e 01E0     		b	.L21
 410              	.LVL68:
 411              	.L20:
 440:..\..\u8g2\csrc/u8x8_d_ssd1607_200x200.c ****     }
 441:..\..\u8g2\csrc/u8x8_d_ssd1607_200x200.c ****     return u8x8_d_ssd1607_200x200_generic(u8x8, msg, arg_int, arg_ptr);
 412              		.loc 1 441 0
 413 0010 FFF7FEFF 		bl	u8x8_d_ssd1607_200x200_generic
 414              	.LVL69:
 415              	.L21:
 442:..\..\u8g2\csrc/u8x8_d_ssd1607_200x200.c **** }
 416              		.loc 1 442 0
 417              		@ sp needed
 418 0014 10BD     		pop	{r4, pc}
 419              	.L23:
 420 0016 C046     		.align	2
 421              	.L22:
 422 0018 C8000000 		.word	.LANCHOR3
 423              		.cfi_endproc
 424              	.LFE3:
 425              		.size	u8x8_d_ssd1607_200x200, .-u8x8_d_ssd1607_200x200
 426              		.section	.rodata
 427              		.align	2
 428              		.set	.LANCHOR1,. + 0
 429              		.set	.LANCHOR2,. + 128
 430              		.type	u8x8_d_ssd1607_200x200_init_seq, %object
 431              		.size	u8x8_d_ssd1607_200x200_init_seq, 135
 432              	u8x8_d_ssd1607_200x200_init_seq:
 433 001c 18       		.byte	24
 434 001d 15       		.byte	21
 435 001e 10       		.byte	16
 436 001f 16       		.byte	22
 437 0020 00       		.byte	0
 438 0021 15       		.byte	21
 439 0022 03       		.byte	3
 440 0023 16       		.byte	22
 441 0024 00       		.byte	0
 442 0025 15       		.byte	21
 443 0026 04       		.byte	4
 444 0027 16       		.byte	22
 445 0028 0A       		.byte	10
 446 0029 15       		.byte	21
 447 002a 11       		.byte	17
 448 002b 16       		.byte	22
 449 002c 01       		.byte	1
 450 002d 15       		.byte	21
 451 002e 44       		.byte	68
 452 002f 16       		.byte	22
 453 0030 00       		.byte	0
 454 0031 16       		.byte	22
 455 0032 18       		.byte	24
 456 0033 15       		.byte	21
 457 0034 45       		.byte	69
 458 0035 16       		.byte	22
 459 0036 00       		.byte	0
ARM GAS  C:\Users\arh\AppData\Local\Temp\ccysCJcD.s 			page 17


 460 0037 16       		.byte	22
 461 0038 00       		.byte	0
 462 0039 16       		.byte	22
 463 003a 2B       		.byte	43
 464 003b 16       		.byte	22
 465 003c 01       		.byte	1
 466 003d 15       		.byte	21
 467 003e 4E       		.byte	78
 468 003f 16       		.byte	22
 469 0040 00       		.byte	0
 470 0041 15       		.byte	21
 471 0042 4F       		.byte	79
 472 0043 16       		.byte	22
 473 0044 00       		.byte	0
 474 0045 16       		.byte	22
 475 0046 00       		.byte	0
 476 0047 15       		.byte	21
 477 0048 F0       		.byte	-16
 478 0049 16       		.byte	22
 479 004a 1F       		.byte	31
 480 004b 15       		.byte	21
 481 004c 22       		.byte	34
 482 004d 16       		.byte	22
 483 004e C0       		.byte	-64
 484 004f 15       		.byte	21
 485 0050 32       		.byte	50
 486 0051 16       		.byte	22
 487 0052 02       		.byte	2
 488 0053 16       		.byte	22
 489 0054 02       		.byte	2
 490 0055 16       		.byte	22
 491 0056 01       		.byte	1
 492 0057 16       		.byte	22
 493 0058 11       		.byte	17
 494 0059 16       		.byte	22
 495 005a 12       		.byte	18
 496 005b 16       		.byte	22
 497 005c 12       		.byte	18
 498 005d 16       		.byte	22
 499 005e 22       		.byte	34
 500 005f 16       		.byte	22
 501 0060 22       		.byte	34
 502 0061 16       		.byte	22
 503 0062 66       		.byte	102
 504 0063 16       		.byte	22
 505 0064 69       		.byte	105
 506 0065 16       		.byte	22
 507 0066 69       		.byte	105
 508 0067 16       		.byte	22
 509 0068 59       		.byte	89
 510 0069 16       		.byte	22
 511 006a 58       		.byte	88
 512 006b 16       		.byte	22
 513 006c 99       		.byte	-103
 514 006d 16       		.byte	22
 515 006e 99       		.byte	-103
 516 006f 16       		.byte	22
ARM GAS  C:\Users\arh\AppData\Local\Temp\ccysCJcD.s 			page 18


 517 0070 88       		.byte	-120
 518 0071 16       		.byte	22
 519 0072 00       		.byte	0
 520 0073 16       		.byte	22
 521 0074 00       		.byte	0
 522 0075 16       		.byte	22
 523 0076 00       		.byte	0
 524 0077 16       		.byte	22
 525 0078 00       		.byte	0
 526 0079 16       		.byte	22
 527 007a F8       		.byte	-8
 528 007b 16       		.byte	22
 529 007c B4       		.byte	-76
 530 007d 16       		.byte	22
 531 007e 13       		.byte	19
 532 007f 16       		.byte	22
 533 0080 51       		.byte	81
 534 0081 16       		.byte	22
 535 0082 35       		.byte	53
 536 0083 16       		.byte	22
 537 0084 51       		.byte	81
 538 0085 16       		.byte	22
 539 0086 51       		.byte	81
 540 0087 16       		.byte	22
 541 0088 19       		.byte	25
 542 0089 16       		.byte	22
 543 008a 01       		.byte	1
 544 008b 16       		.byte	22
 545 008c 00       		.byte	0
 546 008d 15       		.byte	21
 547 008e 2C       		.byte	44
 548 008f 16       		.byte	22
 549 0090 A8       		.byte	-88
 550 0091 15       		.byte	21
 551 0092 3A       		.byte	58
 552 0093 16       		.byte	22
 553 0094 1A       		.byte	26
 554 0095 15       		.byte	21
 555 0096 3B       		.byte	59
 556 0097 16       		.byte	22
 557 0098 08       		.byte	8
 558 0099 15       		.byte	21
 559 009a 3C       		.byte	60
 560 009b 16       		.byte	22
 561 009c 33       		.byte	51
 562 009d 15       		.byte	21
 563 009e 22       		.byte	34
 564 009f 16       		.byte	22
 565 00a0 C4       		.byte	-60
 566 00a1 19       		.byte	25
 567 00a2 FF       		.byte	-1
 568 00a3 00       		.space	1
 569              		.type	u8x8_d_ssd1607_to_display_seq, %object
 570              		.size	u8x8_d_ssd1607_to_display_seq, 33
 571              	u8x8_d_ssd1607_to_display_seq:
 572 00a4 18       		.byte	24
 573 00a5 15       		.byte	21
ARM GAS  C:\Users\arh\AppData\Local\Temp\ccysCJcD.s 			page 19


 574 00a6 22       		.byte	34
 575 00a7 16       		.byte	22
 576 00a8 C4       		.byte	-60
 577 00a9 15       		.byte	21
 578 00aa 20       		.byte	32
 579 00ab FE       		.byte	-2
 580 00ac FA       		.byte	-6
 581 00ad FE       		.byte	-2
 582 00ae FA       		.byte	-6
 583 00af FE       		.byte	-2
 584 00b0 FA       		.byte	-6
 585 00b1 FE       		.byte	-2
 586 00b2 FA       		.byte	-6
 587 00b3 FE       		.byte	-2
 588 00b4 FA       		.byte	-6
 589 00b5 FE       		.byte	-2
 590 00b6 FA       		.byte	-6
 591 00b7 FE       		.byte	-2
 592 00b8 FA       		.byte	-6
 593 00b9 15       		.byte	21
 594 00ba 22       		.byte	34
 595 00bb 16       		.byte	22
 596 00bc 03       		.byte	3
 597 00bd FE       		.byte	-2
 598 00be FA       		.byte	-6
 599 00bf FE       		.byte	-2
 600 00c0 FA       		.byte	-6
 601 00c1 FE       		.byte	-2
 602 00c2 64       		.byte	100
 603 00c3 19       		.byte	25
 604 00c4 FF       		.byte	-1
 605 00c5 000000   		.align	2
 606              		.set	.LANCHOR3,. + 0
 607              		.type	u8x8_ssd1607_200x200_display_info, %object
 608              		.size	u8x8_ssd1607_200x200_display_info, 24
 609              	u8x8_ssd1607_200x200_display_info:
 610 00c8 00       		.byte	0
 611 00c9 01       		.byte	1
 612 00ca 78       		.byte	120
 613 00cb 3C       		.byte	60
 614 00cc 64       		.byte	100
 615 00cd 64       		.byte	100
 616 00ce 32       		.byte	50
 617 00cf 64       		.byte	100
 618 00d0 00093D00 		.word	4000000
 619 00d4 02       		.byte	2
 620 00d5 04       		.byte	4
 621 00d6 28       		.byte	40
 622 00d7 96       		.byte	-106
 623 00d8 19       		.byte	25
 624 00d9 19       		.byte	25
 625 00da 00       		.byte	0
 626 00db 00       		.byte	0
 627 00dc C800     		.short	200
 628 00de C800     		.short	200
 629              		.bss
 630              		.align	2
ARM GAS  C:\Users\arh\AppData\Local\Temp\ccysCJcD.s 			page 20


 631              		.set	.LANCHOR0,. + 0
 632              		.type	buf.4869, %object
 633              		.size	buf.4869, 8
 634              	buf.4869:
 635 0000 00000000 		.space	8
 635      00000000 
 636              		.text
 637              	.Letext0:
 638              		.file 2 "c:\\program files (x86)\\cypress\\psoc creator\\4.1\\psoc creator\\import\\gnu\\arm\\5.4.
 639              		.file 3 "c:\\program files (x86)\\cypress\\psoc creator\\4.1\\psoc creator\\import\\gnu\\arm\\5.4.
 640              		.file 4 "..\\..\\u8g2\\csrc\\u8x8.h"