ARM GAS  C:\Users\gjl\AppData\Local\Temp\ccb0p5eu.s 			page 1


   1              		.syntax unified
   2              		.cpu cortex-m0
   3              		.fpu softvfp
   4              		.eabi_attribute 20, 1
   5              		.eabi_attribute 21, 1
   6              		.eabi_attribute 23, 3
   7              		.eabi_attribute 24, 1
   8              		.eabi_attribute 25, 1
   9              		.eabi_attribute 26, 1
  10              		.eabi_attribute 30, 1
  11              		.eabi_attribute 34, 0
  12              		.eabi_attribute 18, 4
  13              		.thumb
  14              		.syntax unified
  15              		.file	"u8x8_cad.c"
  16              		.text
  17              	.Ltext0:
  18              		.cfi_sections	.debug_frame
  19              		.section	.text.u8x8_i2c_data_transfer,"ax",%progbits
  20              		.align	2
  21              		.code	16
  22              		.thumb_func
  23              		.type	u8x8_i2c_data_transfer, %function
  24              	u8x8_i2c_data_transfer:
  25              	.LFB12:
  26              		.file 1 "..\\u8g2\\csrc\\u8x8_cad.c"
   1:..\u8g2\csrc/u8x8_cad.c **** /*
   2:..\u8g2\csrc/u8x8_cad.c ****   
   3:..\u8g2\csrc/u8x8_cad.c ****   u8x8_cad.c
   4:..\u8g2\csrc/u8x8_cad.c ****   
   5:..\u8g2\csrc/u8x8_cad.c ****   "command arg data" interface to the graphics controller
   6:..\u8g2\csrc/u8x8_cad.c **** 
   7:..\u8g2\csrc/u8x8_cad.c ****   Universal 8bit Graphics Library (https://github.com/olikraus/u8g2/)
   8:..\u8g2\csrc/u8x8_cad.c **** 
   9:..\u8g2\csrc/u8x8_cad.c ****   Copyright (c) 2016, olikraus@gmail.com
  10:..\u8g2\csrc/u8x8_cad.c ****   All rights reserved.
  11:..\u8g2\csrc/u8x8_cad.c **** 
  12:..\u8g2\csrc/u8x8_cad.c ****   Redistribution and use in source and binary forms, with or without modification, 
  13:..\u8g2\csrc/u8x8_cad.c ****   are permitted provided that the following conditions are met:
  14:..\u8g2\csrc/u8x8_cad.c **** 
  15:..\u8g2\csrc/u8x8_cad.c ****   * Redistributions of source code must retain the above copyright notice, this list 
  16:..\u8g2\csrc/u8x8_cad.c ****     of conditions and the following disclaimer.
  17:..\u8g2\csrc/u8x8_cad.c ****     
  18:..\u8g2\csrc/u8x8_cad.c ****   * Redistributions in binary form must reproduce the above copyright notice, this 
  19:..\u8g2\csrc/u8x8_cad.c ****     list of conditions and the following disclaimer in the documentation and/or other 
  20:..\u8g2\csrc/u8x8_cad.c ****     materials provided with the distribution.
  21:..\u8g2\csrc/u8x8_cad.c **** 
  22:..\u8g2\csrc/u8x8_cad.c ****   THIS SOFTWARE IS PROVIDED BY THE COPYRIGHT HOLDERS AND 
  23:..\u8g2\csrc/u8x8_cad.c ****   CONTRIBUTORS "AS IS" AND ANY EXPRESS OR IMPLIED WARRANTIES, 
  24:..\u8g2\csrc/u8x8_cad.c ****   INCLUDING, BUT NOT LIMITED TO, THE IMPLIED WARRANTIES OF 
  25:..\u8g2\csrc/u8x8_cad.c ****   MERCHANTABILITY AND FITNESS FOR A PARTICULAR PURPOSE ARE 
  26:..\u8g2\csrc/u8x8_cad.c ****   DISCLAIMED. IN NO EVENT SHALL THE COPYRIGHT HOLDER OR 
  27:..\u8g2\csrc/u8x8_cad.c ****   CONTRIBUTORS BE LIABLE FOR ANY DIRECT, INDIRECT, INCIDENTAL, 
  28:..\u8g2\csrc/u8x8_cad.c ****   SPECIAL, EXEMPLARY, OR CONSEQUENTIAL DAMAGES (INCLUDING, BUT 
  29:..\u8g2\csrc/u8x8_cad.c ****   NOT LIMITED TO, PROCUREMENT OF SUBSTITUTE GOODS OR SERVICES; 
  30:..\u8g2\csrc/u8x8_cad.c ****   LOSS OF USE, DATA, OR PROFITS; OR BUSINESS INTERRUPTION) HOWEVER 
  31:..\u8g2\csrc/u8x8_cad.c ****   CAUSED AND ON ANY THEORY OF LIABILITY, WHETHER IN CONTRACT, 
ARM GAS  C:\Users\gjl\AppData\Local\Temp\ccb0p5eu.s 			page 2


  32:..\u8g2\csrc/u8x8_cad.c ****   STRICT LIABILITY, OR TORT (INCLUDING NEGLIGENCE OR OTHERWISE) 
  33:..\u8g2\csrc/u8x8_cad.c ****   ARISING IN ANY WAY OUT OF THE USE OF THIS SOFTWARE, EVEN IF 
  34:..\u8g2\csrc/u8x8_cad.c ****   ADVISED OF THE POSSIBILITY OF SUCH DAMAGE.  
  35:..\u8g2\csrc/u8x8_cad.c **** 
  36:..\u8g2\csrc/u8x8_cad.c **** 
  37:..\u8g2\csrc/u8x8_cad.c ****   The following sequence must be used for any data, which is set to the display:
  38:..\u8g2\csrc/u8x8_cad.c ****   
  39:..\u8g2\csrc/u8x8_cad.c ****   
  40:..\u8g2\csrc/u8x8_cad.c ****   uint8_t u8x8_cad_StartTransfer(u8x8_t *u8x8)
  41:..\u8g2\csrc/u8x8_cad.c **** 
  42:..\u8g2\csrc/u8x8_cad.c ****   any of the following calls
  43:..\u8g2\csrc/u8x8_cad.c ****     uint8_t u8x8_cad_SendCmd(u8x8_t *u8x8, uint8_t cmd)
  44:..\u8g2\csrc/u8x8_cad.c ****     uint8_t u8x8_cad_SendArg(u8x8_t *u8x8, uint8_t arg)
  45:..\u8g2\csrc/u8x8_cad.c ****     uint8_t u8x8_cad_SendData(u8x8_t *u8x8, uint8_t cnt, uint8_t *data)
  46:..\u8g2\csrc/u8x8_cad.c ****   
  47:..\u8g2\csrc/u8x8_cad.c ****   uint8_t u8x8_cad_EndTransfer(u8x8_t *u8x8)
  48:..\u8g2\csrc/u8x8_cad.c **** 
  49:..\u8g2\csrc/u8x8_cad.c **** 
  50:..\u8g2\csrc/u8x8_cad.c **** 
  51:..\u8g2\csrc/u8x8_cad.c **** */
  52:..\u8g2\csrc/u8x8_cad.c **** /*
  53:..\u8g2\csrc/u8x8_cad.c **** uint8_t u8x8_cad_template(u8x8_t *u8x8, uint8_t msg, uint16_t arg_int, void *arg_ptr)
  54:..\u8g2\csrc/u8x8_cad.c **** {
  55:..\u8g2\csrc/u8x8_cad.c ****   uint8_t i;
  56:..\u8g2\csrc/u8x8_cad.c ****   
  57:..\u8g2\csrc/u8x8_cad.c ****   switch(msg)
  58:..\u8g2\csrc/u8x8_cad.c ****   {
  59:..\u8g2\csrc/u8x8_cad.c ****     case U8X8_MSG_CAD_SEND_CMD:
  60:..\u8g2\csrc/u8x8_cad.c ****       u8x8_mcd_byte_SetDC(mcd->next, 1);
  61:..\u8g2\csrc/u8x8_cad.c ****       u8x8_mcd_byte_Send(mcd->next, arg_int);
  62:..\u8g2\csrc/u8x8_cad.c ****       break;
  63:..\u8g2\csrc/u8x8_cad.c ****     case U8X8_MSG_CAD_SEND_ARG:
  64:..\u8g2\csrc/u8x8_cad.c ****       u8x8_mcd_byte_SetDC(mcd->next, 1);
  65:..\u8g2\csrc/u8x8_cad.c ****       u8x8_mcd_byte_Send(mcd->next, arg_int);
  66:..\u8g2\csrc/u8x8_cad.c ****       break;
  67:..\u8g2\csrc/u8x8_cad.c ****     case U8X8_MSG_CAD_SEND_DATA:
  68:..\u8g2\csrc/u8x8_cad.c ****       u8x8_mcd_byte_SetDC(mcd->next, 0);
  69:..\u8g2\csrc/u8x8_cad.c ****       for( i = 0; i < 8; i++ )
  70:..\u8g2\csrc/u8x8_cad.c **** 	u8x8_mcd_byte_Send(mcd->next, ((uint8_t *)arg_ptr)[i]);
  71:..\u8g2\csrc/u8x8_cad.c ****       break;
  72:..\u8g2\csrc/u8x8_cad.c ****     case U8X8_MSG_CAD_RESET:
  73:..\u8g2\csrc/u8x8_cad.c ****       return mcd->next->cb(mcd->next, msg, arg_int, arg_ptr);
  74:..\u8g2\csrc/u8x8_cad.c ****     case U8X8_MSG_CAD_START_TRANSFER:
  75:..\u8g2\csrc/u8x8_cad.c ****       return mcd->next->cb(mcd->next, msg, arg_int, arg_ptr);
  76:..\u8g2\csrc/u8x8_cad.c ****     case U8X8_MSG_CAD_END_TRANSFER:
  77:..\u8g2\csrc/u8x8_cad.c ****       return mcd->next->cb(mcd->next, msg, arg_int, arg_ptr);
  78:..\u8g2\csrc/u8x8_cad.c ****     default:
  79:..\u8g2\csrc/u8x8_cad.c ****       break;
  80:..\u8g2\csrc/u8x8_cad.c ****   }
  81:..\u8g2\csrc/u8x8_cad.c ****   return 1;
  82:..\u8g2\csrc/u8x8_cad.c **** }
  83:..\u8g2\csrc/u8x8_cad.c **** 
  84:..\u8g2\csrc/u8x8_cad.c **** */
  85:..\u8g2\csrc/u8x8_cad.c **** 
  86:..\u8g2\csrc/u8x8_cad.c **** #include "u8x8.h"
  87:..\u8g2\csrc/u8x8_cad.c **** 
  88:..\u8g2\csrc/u8x8_cad.c **** uint8_t u8x8_cad_SendCmd(u8x8_t *u8x8, uint8_t cmd)
ARM GAS  C:\Users\gjl\AppData\Local\Temp\ccb0p5eu.s 			page 3


  89:..\u8g2\csrc/u8x8_cad.c **** {
  90:..\u8g2\csrc/u8x8_cad.c ****   return u8x8->cad_cb(u8x8, U8X8_MSG_CAD_SEND_CMD, cmd, NULL);
  91:..\u8g2\csrc/u8x8_cad.c **** }
  92:..\u8g2\csrc/u8x8_cad.c **** 
  93:..\u8g2\csrc/u8x8_cad.c **** uint8_t u8x8_cad_SendArg(u8x8_t *u8x8, uint8_t arg)
  94:..\u8g2\csrc/u8x8_cad.c **** {
  95:..\u8g2\csrc/u8x8_cad.c ****   return u8x8->cad_cb(u8x8, U8X8_MSG_CAD_SEND_ARG, arg, NULL);
  96:..\u8g2\csrc/u8x8_cad.c **** }
  97:..\u8g2\csrc/u8x8_cad.c **** 
  98:..\u8g2\csrc/u8x8_cad.c **** uint8_t u8x8_cad_SendData(u8x8_t *u8x8, uint8_t cnt, uint8_t *data)
  99:..\u8g2\csrc/u8x8_cad.c **** {
 100:..\u8g2\csrc/u8x8_cad.c ****   return u8x8->cad_cb(u8x8, U8X8_MSG_CAD_SEND_DATA, cnt, data);
 101:..\u8g2\csrc/u8x8_cad.c **** }
 102:..\u8g2\csrc/u8x8_cad.c **** 
 103:..\u8g2\csrc/u8x8_cad.c **** uint8_t u8x8_cad_StartTransfer(u8x8_t *u8x8)
 104:..\u8g2\csrc/u8x8_cad.c **** {
 105:..\u8g2\csrc/u8x8_cad.c ****   return u8x8->cad_cb(u8x8, U8X8_MSG_CAD_START_TRANSFER, 0, NULL);
 106:..\u8g2\csrc/u8x8_cad.c **** }
 107:..\u8g2\csrc/u8x8_cad.c **** 
 108:..\u8g2\csrc/u8x8_cad.c **** uint8_t u8x8_cad_EndTransfer(u8x8_t *u8x8)
 109:..\u8g2\csrc/u8x8_cad.c **** {
 110:..\u8g2\csrc/u8x8_cad.c ****   return u8x8->cad_cb(u8x8, U8X8_MSG_CAD_END_TRANSFER, 0, NULL);
 111:..\u8g2\csrc/u8x8_cad.c **** }
 112:..\u8g2\csrc/u8x8_cad.c **** 
 113:..\u8g2\csrc/u8x8_cad.c **** /*
 114:..\u8g2\csrc/u8x8_cad.c ****   21 c		send command c
 115:..\u8g2\csrc/u8x8_cad.c ****   22 a		send arg a
 116:..\u8g2\csrc/u8x8_cad.c ****   23 d		send data d
 117:..\u8g2\csrc/u8x8_cad.c ****   24			CS on
 118:..\u8g2\csrc/u8x8_cad.c ****   25			CS off
 119:..\u8g2\csrc/u8x8_cad.c ****   254 milli	delay by milliseconds
 120:..\u8g2\csrc/u8x8_cad.c ****   255		end of sequence
 121:..\u8g2\csrc/u8x8_cad.c **** */
 122:..\u8g2\csrc/u8x8_cad.c **** 
 123:..\u8g2\csrc/u8x8_cad.c **** void u8x8_cad_SendSequence(u8x8_t *u8x8, uint8_t const *data)
 124:..\u8g2\csrc/u8x8_cad.c **** {
 125:..\u8g2\csrc/u8x8_cad.c ****   uint8_t cmd;
 126:..\u8g2\csrc/u8x8_cad.c ****   uint8_t v;
 127:..\u8g2\csrc/u8x8_cad.c **** 
 128:..\u8g2\csrc/u8x8_cad.c ****   for(;;)
 129:..\u8g2\csrc/u8x8_cad.c ****   {
 130:..\u8g2\csrc/u8x8_cad.c ****     cmd = *data;
 131:..\u8g2\csrc/u8x8_cad.c ****     data++;
 132:..\u8g2\csrc/u8x8_cad.c ****     switch( cmd )
 133:..\u8g2\csrc/u8x8_cad.c ****     {
 134:..\u8g2\csrc/u8x8_cad.c ****       case U8X8_MSG_CAD_SEND_CMD:
 135:..\u8g2\csrc/u8x8_cad.c ****       case U8X8_MSG_CAD_SEND_ARG:
 136:..\u8g2\csrc/u8x8_cad.c **** 	  v = *data;
 137:..\u8g2\csrc/u8x8_cad.c **** 	  u8x8->cad_cb(u8x8, cmd, v, NULL);
 138:..\u8g2\csrc/u8x8_cad.c **** 	  data++;
 139:..\u8g2\csrc/u8x8_cad.c **** 	  break;
 140:..\u8g2\csrc/u8x8_cad.c ****       case U8X8_MSG_CAD_SEND_DATA:
 141:..\u8g2\csrc/u8x8_cad.c **** 	  v = *data;
 142:..\u8g2\csrc/u8x8_cad.c **** 	  u8x8_cad_SendData(u8x8, 1, &v);
 143:..\u8g2\csrc/u8x8_cad.c **** 	  data++;
 144:..\u8g2\csrc/u8x8_cad.c **** 	  break;
 145:..\u8g2\csrc/u8x8_cad.c ****       case U8X8_MSG_CAD_START_TRANSFER:
ARM GAS  C:\Users\gjl\AppData\Local\Temp\ccb0p5eu.s 			page 4


 146:..\u8g2\csrc/u8x8_cad.c ****       case U8X8_MSG_CAD_END_TRANSFER:
 147:..\u8g2\csrc/u8x8_cad.c **** 	  u8x8->cad_cb(u8x8, cmd, 0, NULL);
 148:..\u8g2\csrc/u8x8_cad.c **** 	  break;
 149:..\u8g2\csrc/u8x8_cad.c ****       case 0x0fe:
 150:..\u8g2\csrc/u8x8_cad.c **** 	  v = *data;
 151:..\u8g2\csrc/u8x8_cad.c **** 	  u8x8_gpio_Delay(u8x8, U8X8_MSG_DELAY_MILLI, v);	    
 152:..\u8g2\csrc/u8x8_cad.c **** 	  data++;
 153:..\u8g2\csrc/u8x8_cad.c **** 	  break;
 154:..\u8g2\csrc/u8x8_cad.c ****       default:
 155:..\u8g2\csrc/u8x8_cad.c **** 	return;
 156:..\u8g2\csrc/u8x8_cad.c ****     }
 157:..\u8g2\csrc/u8x8_cad.c ****   }
 158:..\u8g2\csrc/u8x8_cad.c **** }
 159:..\u8g2\csrc/u8x8_cad.c **** 
 160:..\u8g2\csrc/u8x8_cad.c **** 
 161:..\u8g2\csrc/u8x8_cad.c **** uint8_t u8x8_cad_empty(u8x8_t *u8x8, uint8_t msg, uint8_t arg_int, void *arg_ptr)
 162:..\u8g2\csrc/u8x8_cad.c **** {
 163:..\u8g2\csrc/u8x8_cad.c ****   switch(msg)
 164:..\u8g2\csrc/u8x8_cad.c ****   {
 165:..\u8g2\csrc/u8x8_cad.c ****     case U8X8_MSG_CAD_SEND_CMD:
 166:..\u8g2\csrc/u8x8_cad.c ****       u8x8_byte_SendByte(u8x8, arg_int);
 167:..\u8g2\csrc/u8x8_cad.c ****       break;
 168:..\u8g2\csrc/u8x8_cad.c ****     case U8X8_MSG_CAD_SEND_ARG:
 169:..\u8g2\csrc/u8x8_cad.c ****       u8x8_byte_SendByte(u8x8, arg_int);
 170:..\u8g2\csrc/u8x8_cad.c ****       break;
 171:..\u8g2\csrc/u8x8_cad.c ****     case U8X8_MSG_CAD_SEND_DATA:
 172:..\u8g2\csrc/u8x8_cad.c ****     case U8X8_MSG_CAD_INIT:
 173:..\u8g2\csrc/u8x8_cad.c ****     case U8X8_MSG_CAD_START_TRANSFER:
 174:..\u8g2\csrc/u8x8_cad.c ****     case U8X8_MSG_CAD_END_TRANSFER:
 175:..\u8g2\csrc/u8x8_cad.c ****       return u8x8->byte_cb(u8x8, msg, arg_int, arg_ptr);
 176:..\u8g2\csrc/u8x8_cad.c ****     default:
 177:..\u8g2\csrc/u8x8_cad.c ****       return 0;
 178:..\u8g2\csrc/u8x8_cad.c ****   }
 179:..\u8g2\csrc/u8x8_cad.c ****   return 1;
 180:..\u8g2\csrc/u8x8_cad.c **** }
 181:..\u8g2\csrc/u8x8_cad.c **** 
 182:..\u8g2\csrc/u8x8_cad.c **** 
 183:..\u8g2\csrc/u8x8_cad.c **** /*
 184:..\u8g2\csrc/u8x8_cad.c ****   convert to bytes by using 
 185:..\u8g2\csrc/u8x8_cad.c ****     dc = 1 for commands and args and
 186:..\u8g2\csrc/u8x8_cad.c ****     dc = 0 for data
 187:..\u8g2\csrc/u8x8_cad.c **** */
 188:..\u8g2\csrc/u8x8_cad.c **** uint8_t u8x8_cad_110(u8x8_t *u8x8, uint8_t msg, uint8_t arg_int, void *arg_ptr)
 189:..\u8g2\csrc/u8x8_cad.c **** {
 190:..\u8g2\csrc/u8x8_cad.c ****   switch(msg)
 191:..\u8g2\csrc/u8x8_cad.c ****   {
 192:..\u8g2\csrc/u8x8_cad.c ****     case U8X8_MSG_CAD_SEND_CMD:
 193:..\u8g2\csrc/u8x8_cad.c ****       u8x8_byte_SetDC(u8x8, 1);
 194:..\u8g2\csrc/u8x8_cad.c ****       u8x8_byte_SendByte(u8x8, arg_int);
 195:..\u8g2\csrc/u8x8_cad.c ****       break;
 196:..\u8g2\csrc/u8x8_cad.c ****     case U8X8_MSG_CAD_SEND_ARG:
 197:..\u8g2\csrc/u8x8_cad.c ****       u8x8_byte_SetDC(u8x8, 1);
 198:..\u8g2\csrc/u8x8_cad.c ****       u8x8_byte_SendByte(u8x8, arg_int);
 199:..\u8g2\csrc/u8x8_cad.c ****       break;
 200:..\u8g2\csrc/u8x8_cad.c ****     case U8X8_MSG_CAD_SEND_DATA:
 201:..\u8g2\csrc/u8x8_cad.c ****       u8x8_byte_SetDC(u8x8, 0);
 202:..\u8g2\csrc/u8x8_cad.c ****       //u8x8_byte_SendBytes(u8x8, arg_int, arg_ptr);
ARM GAS  C:\Users\gjl\AppData\Local\Temp\ccb0p5eu.s 			page 5


 203:..\u8g2\csrc/u8x8_cad.c ****       //break;
 204:..\u8g2\csrc/u8x8_cad.c ****       /* fall through */
 205:..\u8g2\csrc/u8x8_cad.c ****     case U8X8_MSG_CAD_INIT:
 206:..\u8g2\csrc/u8x8_cad.c ****     case U8X8_MSG_CAD_START_TRANSFER:
 207:..\u8g2\csrc/u8x8_cad.c ****     case U8X8_MSG_CAD_END_TRANSFER:
 208:..\u8g2\csrc/u8x8_cad.c ****       return u8x8->byte_cb(u8x8, msg, arg_int, arg_ptr);
 209:..\u8g2\csrc/u8x8_cad.c ****     default:
 210:..\u8g2\csrc/u8x8_cad.c ****       return 0;
 211:..\u8g2\csrc/u8x8_cad.c ****   }
 212:..\u8g2\csrc/u8x8_cad.c ****   return 1;
 213:..\u8g2\csrc/u8x8_cad.c **** }
 214:..\u8g2\csrc/u8x8_cad.c **** 
 215:..\u8g2\csrc/u8x8_cad.c **** /*
 216:..\u8g2\csrc/u8x8_cad.c ****   convert to bytes by using 
 217:..\u8g2\csrc/u8x8_cad.c ****     dc = 1 for commands and args and
 218:..\u8g2\csrc/u8x8_cad.c ****     dc = 0 for data
 219:..\u8g2\csrc/u8x8_cad.c ****     t6963
 220:..\u8g2\csrc/u8x8_cad.c **** */
 221:..\u8g2\csrc/u8x8_cad.c **** uint8_t u8x8_cad_100(u8x8_t *u8x8, uint8_t msg, uint8_t arg_int, void *arg_ptr)
 222:..\u8g2\csrc/u8x8_cad.c **** {
 223:..\u8g2\csrc/u8x8_cad.c ****   switch(msg)
 224:..\u8g2\csrc/u8x8_cad.c ****   {
 225:..\u8g2\csrc/u8x8_cad.c ****     case U8X8_MSG_CAD_SEND_CMD:
 226:..\u8g2\csrc/u8x8_cad.c ****       u8x8_byte_SetDC(u8x8, 1);
 227:..\u8g2\csrc/u8x8_cad.c ****       u8x8_byte_SendByte(u8x8, arg_int);
 228:..\u8g2\csrc/u8x8_cad.c ****       break;
 229:..\u8g2\csrc/u8x8_cad.c ****     case U8X8_MSG_CAD_SEND_ARG:
 230:..\u8g2\csrc/u8x8_cad.c ****       u8x8_byte_SetDC(u8x8, 0);
 231:..\u8g2\csrc/u8x8_cad.c ****       u8x8_byte_SendByte(u8x8, arg_int);
 232:..\u8g2\csrc/u8x8_cad.c ****       break;
 233:..\u8g2\csrc/u8x8_cad.c ****     case U8X8_MSG_CAD_SEND_DATA:
 234:..\u8g2\csrc/u8x8_cad.c ****       u8x8_byte_SetDC(u8x8, 0);
 235:..\u8g2\csrc/u8x8_cad.c ****       //u8x8_byte_SendBytes(u8x8, arg_int, arg_ptr);
 236:..\u8g2\csrc/u8x8_cad.c ****       //break;
 237:..\u8g2\csrc/u8x8_cad.c ****       /* fall through */
 238:..\u8g2\csrc/u8x8_cad.c ****     case U8X8_MSG_CAD_INIT:
 239:..\u8g2\csrc/u8x8_cad.c ****     case U8X8_MSG_CAD_START_TRANSFER:
 240:..\u8g2\csrc/u8x8_cad.c ****     case U8X8_MSG_CAD_END_TRANSFER:
 241:..\u8g2\csrc/u8x8_cad.c ****       return u8x8->byte_cb(u8x8, msg, arg_int, arg_ptr);
 242:..\u8g2\csrc/u8x8_cad.c ****     default:
 243:..\u8g2\csrc/u8x8_cad.c ****       return 0;
 244:..\u8g2\csrc/u8x8_cad.c ****   }
 245:..\u8g2\csrc/u8x8_cad.c ****   return 1;
 246:..\u8g2\csrc/u8x8_cad.c **** }
 247:..\u8g2\csrc/u8x8_cad.c **** 
 248:..\u8g2\csrc/u8x8_cad.c **** /*
 249:..\u8g2\csrc/u8x8_cad.c ****   convert to bytes by using 
 250:..\u8g2\csrc/u8x8_cad.c ****     dc = 0 for commands and args and
 251:..\u8g2\csrc/u8x8_cad.c ****     dc = 1 for data
 252:..\u8g2\csrc/u8x8_cad.c **** */
 253:..\u8g2\csrc/u8x8_cad.c **** uint8_t u8x8_cad_001(u8x8_t *u8x8, uint8_t msg, uint8_t arg_int, void *arg_ptr)
 254:..\u8g2\csrc/u8x8_cad.c **** {
 255:..\u8g2\csrc/u8x8_cad.c ****   switch(msg)
 256:..\u8g2\csrc/u8x8_cad.c ****   {
 257:..\u8g2\csrc/u8x8_cad.c ****     case U8X8_MSG_CAD_SEND_CMD:
 258:..\u8g2\csrc/u8x8_cad.c ****       u8x8_byte_SetDC(u8x8, 0);
 259:..\u8g2\csrc/u8x8_cad.c ****       u8x8_byte_SendByte(u8x8, arg_int);
ARM GAS  C:\Users\gjl\AppData\Local\Temp\ccb0p5eu.s 			page 6


 260:..\u8g2\csrc/u8x8_cad.c ****       break;
 261:..\u8g2\csrc/u8x8_cad.c ****     case U8X8_MSG_CAD_SEND_ARG:
 262:..\u8g2\csrc/u8x8_cad.c ****       u8x8_byte_SetDC(u8x8, 0);
 263:..\u8g2\csrc/u8x8_cad.c ****       u8x8_byte_SendByte(u8x8, arg_int);
 264:..\u8g2\csrc/u8x8_cad.c ****       break;
 265:..\u8g2\csrc/u8x8_cad.c ****     case U8X8_MSG_CAD_SEND_DATA:
 266:..\u8g2\csrc/u8x8_cad.c ****       u8x8_byte_SetDC(u8x8, 1);
 267:..\u8g2\csrc/u8x8_cad.c ****       //u8x8_byte_SendBytes(u8x8, arg_int, arg_ptr);
 268:..\u8g2\csrc/u8x8_cad.c ****       //break;
 269:..\u8g2\csrc/u8x8_cad.c ****       /* fall through */
 270:..\u8g2\csrc/u8x8_cad.c ****     case U8X8_MSG_CAD_INIT:
 271:..\u8g2\csrc/u8x8_cad.c ****     case U8X8_MSG_CAD_START_TRANSFER:
 272:..\u8g2\csrc/u8x8_cad.c ****     case U8X8_MSG_CAD_END_TRANSFER:
 273:..\u8g2\csrc/u8x8_cad.c ****       return u8x8->byte_cb(u8x8, msg, arg_int, arg_ptr);
 274:..\u8g2\csrc/u8x8_cad.c ****     default:
 275:..\u8g2\csrc/u8x8_cad.c ****       return 0;
 276:..\u8g2\csrc/u8x8_cad.c ****   }
 277:..\u8g2\csrc/u8x8_cad.c ****   return 1;
 278:..\u8g2\csrc/u8x8_cad.c **** }
 279:..\u8g2\csrc/u8x8_cad.c **** 
 280:..\u8g2\csrc/u8x8_cad.c **** /*
 281:..\u8g2\csrc/u8x8_cad.c ****   convert to bytes by using 
 282:..\u8g2\csrc/u8x8_cad.c ****     dc = 0 for commands 
 283:..\u8g2\csrc/u8x8_cad.c ****     dc = 1 for args and data
 284:..\u8g2\csrc/u8x8_cad.c **** */
 285:..\u8g2\csrc/u8x8_cad.c **** uint8_t u8x8_cad_011(u8x8_t *u8x8, uint8_t msg, uint8_t arg_int, void *arg_ptr)
 286:..\u8g2\csrc/u8x8_cad.c **** {
 287:..\u8g2\csrc/u8x8_cad.c ****   switch(msg)
 288:..\u8g2\csrc/u8x8_cad.c ****   {
 289:..\u8g2\csrc/u8x8_cad.c ****     case U8X8_MSG_CAD_SEND_CMD:
 290:..\u8g2\csrc/u8x8_cad.c ****       u8x8_byte_SetDC(u8x8, 0);
 291:..\u8g2\csrc/u8x8_cad.c ****       u8x8_byte_SendByte(u8x8, arg_int);
 292:..\u8g2\csrc/u8x8_cad.c ****       break;
 293:..\u8g2\csrc/u8x8_cad.c ****     case U8X8_MSG_CAD_SEND_ARG:
 294:..\u8g2\csrc/u8x8_cad.c ****       u8x8_byte_SetDC(u8x8, 1);
 295:..\u8g2\csrc/u8x8_cad.c ****       u8x8_byte_SendByte(u8x8, arg_int);
 296:..\u8g2\csrc/u8x8_cad.c ****       break;
 297:..\u8g2\csrc/u8x8_cad.c ****     case U8X8_MSG_CAD_SEND_DATA:
 298:..\u8g2\csrc/u8x8_cad.c ****       u8x8_byte_SetDC(u8x8, 1);
 299:..\u8g2\csrc/u8x8_cad.c ****       //u8x8_byte_SendBytes(u8x8, arg_int, arg_ptr);
 300:..\u8g2\csrc/u8x8_cad.c ****       //break;
 301:..\u8g2\csrc/u8x8_cad.c ****       /* fall through */
 302:..\u8g2\csrc/u8x8_cad.c ****     case U8X8_MSG_CAD_INIT:
 303:..\u8g2\csrc/u8x8_cad.c ****     case U8X8_MSG_CAD_START_TRANSFER:
 304:..\u8g2\csrc/u8x8_cad.c ****     case U8X8_MSG_CAD_END_TRANSFER:
 305:..\u8g2\csrc/u8x8_cad.c ****       return u8x8->byte_cb(u8x8, msg, arg_int, arg_ptr);
 306:..\u8g2\csrc/u8x8_cad.c ****     default:
 307:..\u8g2\csrc/u8x8_cad.c ****       return 0;
 308:..\u8g2\csrc/u8x8_cad.c ****   }
 309:..\u8g2\csrc/u8x8_cad.c ****   return 1;
 310:..\u8g2\csrc/u8x8_cad.c **** }
 311:..\u8g2\csrc/u8x8_cad.c **** 
 312:..\u8g2\csrc/u8x8_cad.c **** /* cad procedure for the ST7920 in SPI mode */
 313:..\u8g2\csrc/u8x8_cad.c **** /* u8x8_byte_SetDC is not used */
 314:..\u8g2\csrc/u8x8_cad.c **** uint8_t u8x8_cad_st7920_spi(u8x8_t *u8x8, uint8_t msg, uint8_t arg_int, void *arg_ptr)
 315:..\u8g2\csrc/u8x8_cad.c **** {
 316:..\u8g2\csrc/u8x8_cad.c ****   uint8_t *data;
ARM GAS  C:\Users\gjl\AppData\Local\Temp\ccb0p5eu.s 			page 7


 317:..\u8g2\csrc/u8x8_cad.c ****   uint8_t b;
 318:..\u8g2\csrc/u8x8_cad.c ****   uint8_t i;
 319:..\u8g2\csrc/u8x8_cad.c ****   static uint8_t buf[16];
 320:..\u8g2\csrc/u8x8_cad.c ****   uint8_t *ptr;
 321:..\u8g2\csrc/u8x8_cad.c ****   
 322:..\u8g2\csrc/u8x8_cad.c ****   switch(msg)
 323:..\u8g2\csrc/u8x8_cad.c ****   {
 324:..\u8g2\csrc/u8x8_cad.c ****     case U8X8_MSG_CAD_SEND_CMD:
 325:..\u8g2\csrc/u8x8_cad.c ****       u8x8_byte_SendByte(u8x8, 0x0f8);
 326:..\u8g2\csrc/u8x8_cad.c ****       u8x8_gpio_Delay(u8x8, U8X8_MSG_DELAY_NANO, 1);
 327:..\u8g2\csrc/u8x8_cad.c ****       u8x8_byte_SendByte(u8x8, arg_int & 0x0f0);
 328:..\u8g2\csrc/u8x8_cad.c ****       u8x8_gpio_Delay(u8x8, U8X8_MSG_DELAY_NANO, 1);
 329:..\u8g2\csrc/u8x8_cad.c ****       u8x8_byte_SendByte(u8x8, arg_int << 4);
 330:..\u8g2\csrc/u8x8_cad.c ****       u8x8_gpio_Delay(u8x8, U8X8_MSG_DELAY_NANO, 1);
 331:..\u8g2\csrc/u8x8_cad.c ****       break;
 332:..\u8g2\csrc/u8x8_cad.c ****     case U8X8_MSG_CAD_SEND_ARG:
 333:..\u8g2\csrc/u8x8_cad.c ****       u8x8_byte_SendByte(u8x8, 0x0f8);
 334:..\u8g2\csrc/u8x8_cad.c ****       u8x8_byte_SendByte(u8x8, arg_int & 0x0f0);
 335:..\u8g2\csrc/u8x8_cad.c ****       u8x8_byte_SendByte(u8x8, arg_int << 4);
 336:..\u8g2\csrc/u8x8_cad.c ****       break;
 337:..\u8g2\csrc/u8x8_cad.c ****     case U8X8_MSG_CAD_SEND_DATA:
 338:..\u8g2\csrc/u8x8_cad.c ****     
 339:..\u8g2\csrc/u8x8_cad.c ****       u8x8_byte_SendByte(u8x8, 0x0fa);
 340:..\u8g2\csrc/u8x8_cad.c ****       u8x8_gpio_Delay(u8x8, U8X8_MSG_DELAY_NANO, 1);
 341:..\u8g2\csrc/u8x8_cad.c **** 
 342:..\u8g2\csrc/u8x8_cad.c ****       /* this loop should be optimized: multiple bytes should be sent */
 343:..\u8g2\csrc/u8x8_cad.c ****       /* u8x8_byte_SendBytes(u8x8, arg_int, arg_ptr); */
 344:..\u8g2\csrc/u8x8_cad.c ****       data = (uint8_t *)arg_ptr;
 345:..\u8g2\csrc/u8x8_cad.c ****     
 346:..\u8g2\csrc/u8x8_cad.c ****       /* the following loop increases speed by 20% */
 347:..\u8g2\csrc/u8x8_cad.c ****       while( arg_int >= 8 )
 348:..\u8g2\csrc/u8x8_cad.c ****       {
 349:..\u8g2\csrc/u8x8_cad.c **** 	i = 8;
 350:..\u8g2\csrc/u8x8_cad.c **** 	ptr = buf;
 351:..\u8g2\csrc/u8x8_cad.c **** 	do
 352:..\u8g2\csrc/u8x8_cad.c **** 	{
 353:..\u8g2\csrc/u8x8_cad.c **** 	  b = *data++;
 354:..\u8g2\csrc/u8x8_cad.c **** 	  *ptr++= b & 0x0f0;
 355:..\u8g2\csrc/u8x8_cad.c **** 	  b <<= 4;
 356:..\u8g2\csrc/u8x8_cad.c **** 	  *ptr++= b;
 357:..\u8g2\csrc/u8x8_cad.c **** 	  i--;
 358:..\u8g2\csrc/u8x8_cad.c **** 	} while( i > 0 );
 359:..\u8g2\csrc/u8x8_cad.c **** 	arg_int -= 8;
 360:..\u8g2\csrc/u8x8_cad.c **** 	u8x8_byte_SendBytes(u8x8, 16, buf); 
 361:..\u8g2\csrc/u8x8_cad.c ****       }
 362:..\u8g2\csrc/u8x8_cad.c ****       
 363:..\u8g2\csrc/u8x8_cad.c ****     
 364:..\u8g2\csrc/u8x8_cad.c ****       while( arg_int > 0 )
 365:..\u8g2\csrc/u8x8_cad.c ****       {
 366:..\u8g2\csrc/u8x8_cad.c **** 	b = *data;
 367:..\u8g2\csrc/u8x8_cad.c **** 	u8x8_byte_SendByte(u8x8, b & 0x0f0);
 368:..\u8g2\csrc/u8x8_cad.c **** 	u8x8_byte_SendByte(u8x8, b << 4);
 369:..\u8g2\csrc/u8x8_cad.c **** 	data++;
 370:..\u8g2\csrc/u8x8_cad.c **** 	arg_int--;
 371:..\u8g2\csrc/u8x8_cad.c ****       }
 372:..\u8g2\csrc/u8x8_cad.c ****       u8x8_gpio_Delay(u8x8, U8X8_MSG_DELAY_NANO, 1);
 373:..\u8g2\csrc/u8x8_cad.c ****       break;
ARM GAS  C:\Users\gjl\AppData\Local\Temp\ccb0p5eu.s 			page 8


 374:..\u8g2\csrc/u8x8_cad.c ****     case U8X8_MSG_CAD_INIT:
 375:..\u8g2\csrc/u8x8_cad.c ****     case U8X8_MSG_CAD_START_TRANSFER:
 376:..\u8g2\csrc/u8x8_cad.c ****     case U8X8_MSG_CAD_END_TRANSFER:
 377:..\u8g2\csrc/u8x8_cad.c ****       return u8x8->byte_cb(u8x8, msg, arg_int, arg_ptr);
 378:..\u8g2\csrc/u8x8_cad.c ****     default:
 379:..\u8g2\csrc/u8x8_cad.c ****       return 0;
 380:..\u8g2\csrc/u8x8_cad.c ****   }
 381:..\u8g2\csrc/u8x8_cad.c ****   return 1;
 382:..\u8g2\csrc/u8x8_cad.c **** }
 383:..\u8g2\csrc/u8x8_cad.c **** 
 384:..\u8g2\csrc/u8x8_cad.c **** 
 385:..\u8g2\csrc/u8x8_cad.c **** /* cad procedure for the SSD13xx family in I2C mode */
 386:..\u8g2\csrc/u8x8_cad.c **** /* this procedure is also used by the ST7588 */
 387:..\u8g2\csrc/u8x8_cad.c **** /* u8x8_byte_SetDC is not used */
 388:..\u8g2\csrc/u8x8_cad.c **** /* U8X8_MSG_BYTE_START_TRANSFER starts i2c transfer, U8X8_MSG_BYTE_END_TRANSFER stops transfer */
 389:..\u8g2\csrc/u8x8_cad.c **** /* After transfer start, a full byte indicates command or data mode */
 390:..\u8g2\csrc/u8x8_cad.c **** 
 391:..\u8g2\csrc/u8x8_cad.c **** static void u8x8_i2c_data_transfer(u8x8_t *u8x8, uint8_t arg_int, void *arg_ptr) U8X8_NOINLINE;
 392:..\u8g2\csrc/u8x8_cad.c **** static void u8x8_i2c_data_transfer(u8x8_t *u8x8, uint8_t arg_int, void *arg_ptr)
 393:..\u8g2\csrc/u8x8_cad.c **** {
  27              		.loc 1 393 0
  28              		.cfi_startproc
  29              		@ args = 0, pretend = 0, frame = 0
  30              		@ frame_needed = 0, uses_anonymous_args = 0
  31              	.LVL0:
  32 0000 70B5     		push	{r4, r5, r6, lr}
  33              		.cfi_def_cfa_offset 16
  34              		.cfi_offset 4, -16
  35              		.cfi_offset 5, -12
  36              		.cfi_offset 6, -8
  37              		.cfi_offset 14, -4
  38 0002 0400     		movs	r4, r0
  39 0004 0D00     		movs	r5, r1
  40 0006 1600     		movs	r6, r2
 394:..\u8g2\csrc/u8x8_cad.c ****     u8x8_byte_StartTransfer(u8x8);    
  41              		.loc 1 394 0
  42 0008 FFF7FEFF 		bl	u8x8_byte_StartTransfer
  43              	.LVL1:
 395:..\u8g2\csrc/u8x8_cad.c ****     u8x8_byte_SendByte(u8x8, 0x040);
  44              		.loc 1 395 0
  45 000c 4021     		movs	r1, #64
  46 000e 2000     		movs	r0, r4
  47 0010 FFF7FEFF 		bl	u8x8_byte_SendByte
  48              	.LVL2:
 396:..\u8g2\csrc/u8x8_cad.c ****     u8x8->byte_cb(u8x8, U8X8_MSG_CAD_SEND_DATA, arg_int, arg_ptr);
  49              		.loc 1 396 0
  50 0014 3300     		movs	r3, r6
  51 0016 2A00     		movs	r2, r5
  52 0018 1721     		movs	r1, #23
  53 001a 2000     		movs	r0, r4
  54 001c 2569     		ldr	r5, [r4, #16]
  55 001e A847     		blx	r5
  56              	.LVL3:
 397:..\u8g2\csrc/u8x8_cad.c ****     u8x8_byte_EndTransfer(u8x8);
  57              		.loc 1 397 0
  58 0020 2000     		movs	r0, r4
  59 0022 FFF7FEFF 		bl	u8x8_byte_EndTransfer
ARM GAS  C:\Users\gjl\AppData\Local\Temp\ccb0p5eu.s 			page 9


  60              	.LVL4:
 398:..\u8g2\csrc/u8x8_cad.c **** }
  61              		.loc 1 398 0
  62              		@ sp needed
  63              	.LVL5:
  64              	.LVL6:
  65 0026 70BD     		pop	{r4, r5, r6, pc}
  66              		.cfi_endproc
  67              	.LFE12:
  68              		.size	u8x8_i2c_data_transfer, .-u8x8_i2c_data_transfer
  69              		.section	.text.u8x8_cad_SendCmd,"ax",%progbits
  70              		.align	2
  71              		.global	u8x8_cad_SendCmd
  72              		.code	16
  73              		.thumb_func
  74              		.type	u8x8_cad_SendCmd, %function
  75              	u8x8_cad_SendCmd:
  76              	.LFB0:
  89:..\u8g2\csrc/u8x8_cad.c ****   return u8x8->cad_cb(u8x8, U8X8_MSG_CAD_SEND_CMD, cmd, NULL);
  77              		.loc 1 89 0
  78              		.cfi_startproc
  79              		@ args = 0, pretend = 0, frame = 0
  80              		@ frame_needed = 0, uses_anonymous_args = 0
  81              	.LVL7:
  82 0000 10B5     		push	{r4, lr}
  83              		.cfi_def_cfa_offset 8
  84              		.cfi_offset 4, -8
  85              		.cfi_offset 14, -4
  86 0002 0A00     		movs	r2, r1
  90:..\u8g2\csrc/u8x8_cad.c **** }
  87              		.loc 1 90 0
  88 0004 C468     		ldr	r4, [r0, #12]
  89 0006 0023     		movs	r3, #0
  90 0008 1521     		movs	r1, #21
  91              	.LVL8:
  92 000a A047     		blx	r4
  93              	.LVL9:
  91:..\u8g2\csrc/u8x8_cad.c **** 
  94              		.loc 1 91 0
  95              		@ sp needed
  96 000c 10BD     		pop	{r4, pc}
  97              		.cfi_endproc
  98              	.LFE0:
  99              		.size	u8x8_cad_SendCmd, .-u8x8_cad_SendCmd
 100 000e C046     		.section	.text.u8x8_cad_SendArg,"ax",%progbits
 101              		.align	2
 102              		.global	u8x8_cad_SendArg
 103              		.code	16
 104              		.thumb_func
 105              		.type	u8x8_cad_SendArg, %function
 106              	u8x8_cad_SendArg:
 107              	.LFB1:
  94:..\u8g2\csrc/u8x8_cad.c ****   return u8x8->cad_cb(u8x8, U8X8_MSG_CAD_SEND_ARG, arg, NULL);
 108              		.loc 1 94 0
 109              		.cfi_startproc
 110              		@ args = 0, pretend = 0, frame = 0
 111              		@ frame_needed = 0, uses_anonymous_args = 0
ARM GAS  C:\Users\gjl\AppData\Local\Temp\ccb0p5eu.s 			page 10


 112              	.LVL10:
 113 0000 10B5     		push	{r4, lr}
 114              		.cfi_def_cfa_offset 8
 115              		.cfi_offset 4, -8
 116              		.cfi_offset 14, -4
 117 0002 0A00     		movs	r2, r1
  95:..\u8g2\csrc/u8x8_cad.c **** }
 118              		.loc 1 95 0
 119 0004 C468     		ldr	r4, [r0, #12]
 120 0006 0023     		movs	r3, #0
 121 0008 1621     		movs	r1, #22
 122              	.LVL11:
 123 000a A047     		blx	r4
 124              	.LVL12:
  96:..\u8g2\csrc/u8x8_cad.c **** 
 125              		.loc 1 96 0
 126              		@ sp needed
 127 000c 10BD     		pop	{r4, pc}
 128              		.cfi_endproc
 129              	.LFE1:
 130              		.size	u8x8_cad_SendArg, .-u8x8_cad_SendArg
 131 000e C046     		.section	.text.u8x8_cad_SendData,"ax",%progbits
 132              		.align	2
 133              		.global	u8x8_cad_SendData
 134              		.code	16
 135              		.thumb_func
 136              		.type	u8x8_cad_SendData, %function
 137              	u8x8_cad_SendData:
 138              	.LFB2:
  99:..\u8g2\csrc/u8x8_cad.c ****   return u8x8->cad_cb(u8x8, U8X8_MSG_CAD_SEND_DATA, cnt, data);
 139              		.loc 1 99 0
 140              		.cfi_startproc
 141              		@ args = 0, pretend = 0, frame = 0
 142              		@ frame_needed = 0, uses_anonymous_args = 0
 143              	.LVL13:
 144 0000 10B5     		push	{r4, lr}
 145              		.cfi_def_cfa_offset 8
 146              		.cfi_offset 4, -8
 147              		.cfi_offset 14, -4
 148 0002 1300     		movs	r3, r2
 100:..\u8g2\csrc/u8x8_cad.c **** }
 149              		.loc 1 100 0
 150 0004 C468     		ldr	r4, [r0, #12]
 151 0006 0A00     		movs	r2, r1
 152              	.LVL14:
 153 0008 1721     		movs	r1, #23
 154              	.LVL15:
 155 000a A047     		blx	r4
 156              	.LVL16:
 101:..\u8g2\csrc/u8x8_cad.c **** 
 157              		.loc 1 101 0
 158              		@ sp needed
 159 000c 10BD     		pop	{r4, pc}
 160              		.cfi_endproc
 161              	.LFE2:
 162              		.size	u8x8_cad_SendData, .-u8x8_cad_SendData
 163 000e C046     		.section	.text.u8x8_cad_StartTransfer,"ax",%progbits
ARM GAS  C:\Users\gjl\AppData\Local\Temp\ccb0p5eu.s 			page 11


 164              		.align	2
 165              		.global	u8x8_cad_StartTransfer
 166              		.code	16
 167              		.thumb_func
 168              		.type	u8x8_cad_StartTransfer, %function
 169              	u8x8_cad_StartTransfer:
 170              	.LFB3:
 104:..\u8g2\csrc/u8x8_cad.c ****   return u8x8->cad_cb(u8x8, U8X8_MSG_CAD_START_TRANSFER, 0, NULL);
 171              		.loc 1 104 0
 172              		.cfi_startproc
 173              		@ args = 0, pretend = 0, frame = 0
 174              		@ frame_needed = 0, uses_anonymous_args = 0
 175              	.LVL17:
 176 0000 10B5     		push	{r4, lr}
 177              		.cfi_def_cfa_offset 8
 178              		.cfi_offset 4, -8
 179              		.cfi_offset 14, -4
 105:..\u8g2\csrc/u8x8_cad.c **** }
 180              		.loc 1 105 0
 181 0002 C468     		ldr	r4, [r0, #12]
 182 0004 0023     		movs	r3, #0
 183 0006 0022     		movs	r2, #0
 184 0008 1821     		movs	r1, #24
 185 000a A047     		blx	r4
 186              	.LVL18:
 106:..\u8g2\csrc/u8x8_cad.c **** 
 187              		.loc 1 106 0
 188              		@ sp needed
 189 000c 10BD     		pop	{r4, pc}
 190              		.cfi_endproc
 191              	.LFE3:
 192              		.size	u8x8_cad_StartTransfer, .-u8x8_cad_StartTransfer
 193 000e C046     		.section	.text.u8x8_cad_EndTransfer,"ax",%progbits
 194              		.align	2
 195              		.global	u8x8_cad_EndTransfer
 196              		.code	16
 197              		.thumb_func
 198              		.type	u8x8_cad_EndTransfer, %function
 199              	u8x8_cad_EndTransfer:
 200              	.LFB4:
 109:..\u8g2\csrc/u8x8_cad.c ****   return u8x8->cad_cb(u8x8, U8X8_MSG_CAD_END_TRANSFER, 0, NULL);
 201              		.loc 1 109 0
 202              		.cfi_startproc
 203              		@ args = 0, pretend = 0, frame = 0
 204              		@ frame_needed = 0, uses_anonymous_args = 0
 205              	.LVL19:
 206 0000 10B5     		push	{r4, lr}
 207              		.cfi_def_cfa_offset 8
 208              		.cfi_offset 4, -8
 209              		.cfi_offset 14, -4
 110:..\u8g2\csrc/u8x8_cad.c **** }
 210              		.loc 1 110 0
 211 0002 C468     		ldr	r4, [r0, #12]
 212 0004 0023     		movs	r3, #0
 213 0006 0022     		movs	r2, #0
 214 0008 1921     		movs	r1, #25
 215 000a A047     		blx	r4
ARM GAS  C:\Users\gjl\AppData\Local\Temp\ccb0p5eu.s 			page 12


 216              	.LVL20:
 111:..\u8g2\csrc/u8x8_cad.c **** 
 217              		.loc 1 111 0
 218              		@ sp needed
 219 000c 10BD     		pop	{r4, pc}
 220              		.cfi_endproc
 221              	.LFE4:
 222              		.size	u8x8_cad_EndTransfer, .-u8x8_cad_EndTransfer
 223 000e C046     		.section	.text.u8x8_cad_SendSequence,"ax",%progbits
 224              		.align	2
 225              		.global	u8x8_cad_SendSequence
 226              		.code	16
 227              		.thumb_func
 228              		.type	u8x8_cad_SendSequence, %function
 229              	u8x8_cad_SendSequence:
 230              	.LFB5:
 124:..\u8g2\csrc/u8x8_cad.c ****   uint8_t cmd;
 231              		.loc 1 124 0
 232              		.cfi_startproc
 233              		@ args = 0, pretend = 0, frame = 8
 234              		@ frame_needed = 0, uses_anonymous_args = 0
 235              	.LVL21:
 236 0000 70B5     		push	{r4, r5, r6, lr}
 237              		.cfi_def_cfa_offset 16
 238              		.cfi_offset 4, -16
 239              		.cfi_offset 5, -12
 240              		.cfi_offset 6, -8
 241              		.cfi_offset 14, -4
 242 0002 82B0     		sub	sp, sp, #8
 243              		.cfi_def_cfa_offset 24
 244 0004 0500     		movs	r5, r0
 245 0006 0C00     		movs	r4, r1
 246              	.LVL22:
 247              	.L8:
 130:..\u8g2\csrc/u8x8_cad.c ****     data++;
 248              		.loc 1 130 0
 249 0008 2178     		ldrb	r1, [r4]
 250              	.LVL23:
 131:..\u8g2\csrc/u8x8_cad.c ****     switch( cmd )
 251              		.loc 1 131 0
 252 000a 0134     		adds	r4, r4, #1
 253              	.LVL24:
 132:..\u8g2\csrc/u8x8_cad.c ****     {
 254              		.loc 1 132 0
 255 000c 1729     		cmp	r1, #23
 256 000e 11D0     		beq	.L10
 257 0010 02D8     		bhi	.L11
 258 0012 1529     		cmp	r1, #21
 259 0014 05D2     		bcs	.L16
 260 0016 26E0     		b	.L7
 261              	.L11:
 262 0018 1929     		cmp	r1, #25
 263 001a 15D9     		bls	.L13
 264 001c FE29     		cmp	r1, #254
 265 001e 19D0     		beq	.L14
 266 0020 21E0     		b	.L7
 267              	.L16:
ARM GAS  C:\Users\gjl\AppData\Local\Temp\ccb0p5eu.s 			page 13


 136:..\u8g2\csrc/u8x8_cad.c **** 	  u8x8->cad_cb(u8x8, cmd, v, NULL);
 268              		.loc 1 136 0
 269 0022 2278     		ldrb	r2, [r4]
 270 0024 6B46     		mov	r3, sp
 271 0026 DA71     		strb	r2, [r3, #7]
 137:..\u8g2\csrc/u8x8_cad.c **** 	  data++;
 272              		.loc 1 137 0
 273 0028 0023     		movs	r3, #0
 274 002a 2800     		movs	r0, r5
 275 002c EE68     		ldr	r6, [r5, #12]
 276 002e B047     		blx	r6
 277              	.LVL25:
 138:..\u8g2\csrc/u8x8_cad.c **** 	  break;
 278              		.loc 1 138 0
 279 0030 0134     		adds	r4, r4, #1
 280              	.LVL26:
 139:..\u8g2\csrc/u8x8_cad.c ****       case U8X8_MSG_CAD_SEND_DATA:
 281              		.loc 1 139 0
 282 0032 E9E7     		b	.L8
 283              	.LVL27:
 284              	.L10:
 141:..\u8g2\csrc/u8x8_cad.c **** 	  u8x8_cad_SendData(u8x8, 1, &v);
 285              		.loc 1 141 0
 286 0034 2378     		ldrb	r3, [r4]
 287 0036 6A46     		mov	r2, sp
 288 0038 0732     		adds	r2, r2, #7
 289 003a 1370     		strb	r3, [r2]
 142:..\u8g2\csrc/u8x8_cad.c **** 	  data++;
 290              		.loc 1 142 0
 291 003c 0121     		movs	r1, #1
 292              	.LVL28:
 293 003e 2800     		movs	r0, r5
 294 0040 FFF7FEFF 		bl	u8x8_cad_SendData
 295              	.LVL29:
 143:..\u8g2\csrc/u8x8_cad.c **** 	  break;
 296              		.loc 1 143 0
 297 0044 0134     		adds	r4, r4, #1
 298              	.LVL30:
 144:..\u8g2\csrc/u8x8_cad.c ****       case U8X8_MSG_CAD_START_TRANSFER:
 299              		.loc 1 144 0
 300 0046 DFE7     		b	.L8
 301              	.LVL31:
 302              	.L13:
 147:..\u8g2\csrc/u8x8_cad.c **** 	  break;
 303              		.loc 1 147 0
 304 0048 0023     		movs	r3, #0
 305 004a 0022     		movs	r2, #0
 306 004c 2800     		movs	r0, r5
 307 004e EE68     		ldr	r6, [r5, #12]
 308 0050 B047     		blx	r6
 309              	.LVL32:
 148:..\u8g2\csrc/u8x8_cad.c ****       case 0x0fe:
 310              		.loc 1 148 0
 311 0052 D9E7     		b	.L8
 312              	.LVL33:
 313              	.L14:
 150:..\u8g2\csrc/u8x8_cad.c **** 	  u8x8_gpio_Delay(u8x8, U8X8_MSG_DELAY_MILLI, v);	    
ARM GAS  C:\Users\gjl\AppData\Local\Temp\ccb0p5eu.s 			page 14


 314              		.loc 1 150 0
 315 0054 2278     		ldrb	r2, [r4]
 316 0056 6B46     		mov	r3, sp
 317 0058 DA71     		strb	r2, [r3, #7]
 151:..\u8g2\csrc/u8x8_cad.c **** 	  data++;
 318              		.loc 1 151 0
 319 005a 2921     		movs	r1, #41
 320              	.LVL34:
 321 005c 2800     		movs	r0, r5
 322 005e FFF7FEFF 		bl	u8x8_gpio_call
 323              	.LVL35:
 152:..\u8g2\csrc/u8x8_cad.c **** 	  break;
 324              		.loc 1 152 0
 325 0062 0134     		adds	r4, r4, #1
 326              	.LVL36:
 153:..\u8g2\csrc/u8x8_cad.c ****       default:
 327              		.loc 1 153 0
 328 0064 D0E7     		b	.L8
 329              	.LVL37:
 330              	.L7:
 158:..\u8g2\csrc/u8x8_cad.c **** 
 331              		.loc 1 158 0
 332 0066 02B0     		add	sp, sp, #8
 333              		@ sp needed
 334              	.LVL38:
 335              	.LVL39:
 336 0068 70BD     		pop	{r4, r5, r6, pc}
 337              		.cfi_endproc
 338              	.LFE5:
 339              		.size	u8x8_cad_SendSequence, .-u8x8_cad_SendSequence
 340 006a C046     		.section	.text.u8x8_cad_empty,"ax",%progbits
 341              		.align	2
 342              		.global	u8x8_cad_empty
 343              		.code	16
 344              		.thumb_func
 345              		.type	u8x8_cad_empty, %function
 346              	u8x8_cad_empty:
 347              	.LFB6:
 162:..\u8g2\csrc/u8x8_cad.c ****   switch(msg)
 348              		.loc 1 162 0
 349              		.cfi_startproc
 350              		@ args = 0, pretend = 0, frame = 0
 351              		@ frame_needed = 0, uses_anonymous_args = 0
 352              	.LVL40:
 353 0000 70B5     		push	{r4, r5, r6, lr}
 354              		.cfi_def_cfa_offset 16
 355              		.cfi_offset 4, -16
 356              		.cfi_offset 5, -12
 357              		.cfi_offset 6, -8
 358              		.cfi_offset 14, -4
 163:..\u8g2\csrc/u8x8_cad.c ****   {
 359              		.loc 1 163 0
 360 0002 0C00     		movs	r4, r1
 361 0004 143C     		subs	r4, r4, #20
 362 0006 E5B2     		uxtb	r5, r4
 363 0008 052D     		cmp	r5, #5
 364 000a 10D8     		bhi	.L23
ARM GAS  C:\Users\gjl\AppData\Local\Temp\ccb0p5eu.s 			page 15


 365 000c AC00     		lsls	r4, r5, #2
 366 000e 094D     		ldr	r5, .L24
 367 0010 2C59     		ldr	r4, [r5, r4]
 368 0012 A746     		mov	pc, r4
 369              		.section	.rodata
 370              		.align	2
 371              	.L20:
 372 0000 28000000 		.word	.L19
 373 0004 14000000 		.word	.L21
 374 0008 1E000000 		.word	.L22
 375 000c 28000000 		.word	.L19
 376 0010 28000000 		.word	.L19
 377 0014 28000000 		.word	.L19
 378              		.section	.text.u8x8_cad_empty
 379              	.L21:
 166:..\u8g2\csrc/u8x8_cad.c ****       break;
 380              		.loc 1 166 0
 381 0014 1100     		movs	r1, r2
 382              	.LVL41:
 383 0016 FFF7FEFF 		bl	u8x8_byte_SendByte
 384              	.LVL42:
 179:..\u8g2\csrc/u8x8_cad.c **** }
 385              		.loc 1 179 0
 386 001a 0120     		movs	r0, #1
 167:..\u8g2\csrc/u8x8_cad.c ****     case U8X8_MSG_CAD_SEND_ARG:
 387              		.loc 1 167 0
 388 001c 08E0     		b	.L18
 389              	.LVL43:
 390              	.L22:
 169:..\u8g2\csrc/u8x8_cad.c ****       break;
 391              		.loc 1 169 0
 392 001e 1100     		movs	r1, r2
 393              	.LVL44:
 394 0020 FFF7FEFF 		bl	u8x8_byte_SendByte
 395              	.LVL45:
 179:..\u8g2\csrc/u8x8_cad.c **** }
 396              		.loc 1 179 0
 397 0024 0120     		movs	r0, #1
 170:..\u8g2\csrc/u8x8_cad.c ****     case U8X8_MSG_CAD_SEND_DATA:
 398              		.loc 1 170 0
 399 0026 03E0     		b	.L18
 400              	.LVL46:
 401              	.L19:
 175:..\u8g2\csrc/u8x8_cad.c ****     default:
 402              		.loc 1 175 0
 403 0028 0469     		ldr	r4, [r0, #16]
 404 002a A047     		blx	r4
 405              	.LVL47:
 406 002c 00E0     		b	.L18
 407              	.LVL48:
 408              	.L23:
 177:..\u8g2\csrc/u8x8_cad.c ****   }
 409              		.loc 1 177 0
 410 002e 0020     		movs	r0, #0
 411              	.LVL49:
 412              	.L18:
 180:..\u8g2\csrc/u8x8_cad.c **** 
ARM GAS  C:\Users\gjl\AppData\Local\Temp\ccb0p5eu.s 			page 16


 413              		.loc 1 180 0
 414              		@ sp needed
 415 0030 70BD     		pop	{r4, r5, r6, pc}
 416              	.L25:
 417 0032 C046     		.align	2
 418              	.L24:
 419 0034 00000000 		.word	.L20
 420              		.cfi_endproc
 421              	.LFE6:
 422              		.size	u8x8_cad_empty, .-u8x8_cad_empty
 423              		.section	.text.u8x8_cad_110,"ax",%progbits
 424              		.align	2
 425              		.global	u8x8_cad_110
 426              		.code	16
 427              		.thumb_func
 428              		.type	u8x8_cad_110, %function
 429              	u8x8_cad_110:
 430              	.LFB7:
 189:..\u8g2\csrc/u8x8_cad.c ****   switch(msg)
 431              		.loc 1 189 0
 432              		.cfi_startproc
 433              		@ args = 0, pretend = 0, frame = 8
 434              		@ frame_needed = 0, uses_anonymous_args = 0
 435              	.LVL50:
 436 0000 F0B5     		push	{r4, r5, r6, r7, lr}
 437              		.cfi_def_cfa_offset 20
 438              		.cfi_offset 4, -20
 439              		.cfi_offset 5, -16
 440              		.cfi_offset 6, -12
 441              		.cfi_offset 7, -8
 442              		.cfi_offset 14, -4
 443 0002 83B0     		sub	sp, sp, #12
 444              		.cfi_def_cfa_offset 32
 445 0004 0400     		movs	r4, r0
 446 0006 0D00     		movs	r5, r1
 447 0008 1600     		movs	r6, r2
 448 000a 0193     		str	r3, [sp, #4]
 190:..\u8g2\csrc/u8x8_cad.c ****   {
 449              		.loc 1 190 0
 450 000c 0B00     		movs	r3, r1
 451              	.LVL51:
 452 000e 143B     		subs	r3, r3, #20
 453 0010 DAB2     		uxtb	r2, r3
 454              	.LVL52:
 455 0012 052A     		cmp	r2, #5
 456 0014 1FD8     		bhi	.L33
 457 0016 9300     		lsls	r3, r2, #2
 458 0018 104A     		ldr	r2, .L34
 459 001a D358     		ldr	r3, [r2, r3]
 460 001c 9F46     		mov	pc, r3
 461              		.section	.rodata
 462              		.align	2
 463              	.L29:
 464 0018 48000000 		.word	.L28
 465 001c 1E000000 		.word	.L30
 466 0020 30000000 		.word	.L31
 467 0024 42000000 		.word	.L32
ARM GAS  C:\Users\gjl\AppData\Local\Temp\ccb0p5eu.s 			page 17


 468 0028 48000000 		.word	.L28
 469 002c 48000000 		.word	.L28
 470              		.section	.text.u8x8_cad_110
 471              	.L30:
 193:..\u8g2\csrc/u8x8_cad.c ****       u8x8_byte_SendByte(u8x8, arg_int);
 472              		.loc 1 193 0
 473 001e 0121     		movs	r1, #1
 474              	.LVL53:
 475 0020 FFF7FEFF 		bl	u8x8_byte_SetDC
 476              	.LVL54:
 194:..\u8g2\csrc/u8x8_cad.c ****       break;
 477              		.loc 1 194 0
 478 0024 3100     		movs	r1, r6
 479 0026 2000     		movs	r0, r4
 480 0028 FFF7FEFF 		bl	u8x8_byte_SendByte
 481              	.LVL55:
 212:..\u8g2\csrc/u8x8_cad.c **** }
 482              		.loc 1 212 0
 483 002c 0120     		movs	r0, #1
 195:..\u8g2\csrc/u8x8_cad.c ****     case U8X8_MSG_CAD_SEND_ARG:
 484              		.loc 1 195 0
 485 002e 13E0     		b	.L27
 486              	.LVL56:
 487              	.L31:
 197:..\u8g2\csrc/u8x8_cad.c ****       u8x8_byte_SendByte(u8x8, arg_int);
 488              		.loc 1 197 0
 489 0030 0121     		movs	r1, #1
 490              	.LVL57:
 491 0032 FFF7FEFF 		bl	u8x8_byte_SetDC
 492              	.LVL58:
 198:..\u8g2\csrc/u8x8_cad.c ****       break;
 493              		.loc 1 198 0
 494 0036 3100     		movs	r1, r6
 495 0038 2000     		movs	r0, r4
 496 003a FFF7FEFF 		bl	u8x8_byte_SendByte
 497              	.LVL59:
 212:..\u8g2\csrc/u8x8_cad.c **** }
 498              		.loc 1 212 0
 499 003e 0120     		movs	r0, #1
 199:..\u8g2\csrc/u8x8_cad.c ****     case U8X8_MSG_CAD_SEND_DATA:
 500              		.loc 1 199 0
 501 0040 0AE0     		b	.L27
 502              	.LVL60:
 503              	.L32:
 201:..\u8g2\csrc/u8x8_cad.c ****       //u8x8_byte_SendBytes(u8x8, arg_int, arg_ptr);
 504              		.loc 1 201 0
 505 0042 0021     		movs	r1, #0
 506              	.LVL61:
 507 0044 FFF7FEFF 		bl	u8x8_byte_SetDC
 508              	.LVL62:
 509              	.L28:
 208:..\u8g2\csrc/u8x8_cad.c ****     default:
 510              		.loc 1 208 0
 511 0048 2769     		ldr	r7, [r4, #16]
 512 004a 019B     		ldr	r3, [sp, #4]
 513 004c 3200     		movs	r2, r6
 514 004e 2900     		movs	r1, r5
ARM GAS  C:\Users\gjl\AppData\Local\Temp\ccb0p5eu.s 			page 18


 515 0050 2000     		movs	r0, r4
 516 0052 B847     		blx	r7
 517              	.LVL63:
 518 0054 00E0     		b	.L27
 519              	.LVL64:
 520              	.L33:
 210:..\u8g2\csrc/u8x8_cad.c ****   }
 521              		.loc 1 210 0
 522 0056 0020     		movs	r0, #0
 523              	.LVL65:
 524              	.L27:
 213:..\u8g2\csrc/u8x8_cad.c **** 
 525              		.loc 1 213 0
 526 0058 03B0     		add	sp, sp, #12
 527              		@ sp needed
 528              	.LVL66:
 529 005a F0BD     		pop	{r4, r5, r6, r7, pc}
 530              	.L35:
 531              		.align	2
 532              	.L34:
 533 005c 18000000 		.word	.L29
 534              		.cfi_endproc
 535              	.LFE7:
 536              		.size	u8x8_cad_110, .-u8x8_cad_110
 537              		.section	.text.u8x8_cad_100,"ax",%progbits
 538              		.align	2
 539              		.global	u8x8_cad_100
 540              		.code	16
 541              		.thumb_func
 542              		.type	u8x8_cad_100, %function
 543              	u8x8_cad_100:
 544              	.LFB8:
 222:..\u8g2\csrc/u8x8_cad.c ****   switch(msg)
 545              		.loc 1 222 0
 546              		.cfi_startproc
 547              		@ args = 0, pretend = 0, frame = 8
 548              		@ frame_needed = 0, uses_anonymous_args = 0
 549              	.LVL67:
 550 0000 F0B5     		push	{r4, r5, r6, r7, lr}
 551              		.cfi_def_cfa_offset 20
 552              		.cfi_offset 4, -20
 553              		.cfi_offset 5, -16
 554              		.cfi_offset 6, -12
 555              		.cfi_offset 7, -8
 556              		.cfi_offset 14, -4
 557 0002 83B0     		sub	sp, sp, #12
 558              		.cfi_def_cfa_offset 32
 559 0004 0400     		movs	r4, r0
 560 0006 0D00     		movs	r5, r1
 561 0008 1600     		movs	r6, r2
 562 000a 0193     		str	r3, [sp, #4]
 223:..\u8g2\csrc/u8x8_cad.c ****   {
 563              		.loc 1 223 0
 564 000c 0B00     		movs	r3, r1
 565              	.LVL68:
 566 000e 143B     		subs	r3, r3, #20
 567 0010 DAB2     		uxtb	r2, r3
ARM GAS  C:\Users\gjl\AppData\Local\Temp\ccb0p5eu.s 			page 19


 568              	.LVL69:
 569 0012 052A     		cmp	r2, #5
 570 0014 1FD8     		bhi	.L43
 571 0016 9300     		lsls	r3, r2, #2
 572 0018 104A     		ldr	r2, .L44
 573 001a D358     		ldr	r3, [r2, r3]
 574 001c 9F46     		mov	pc, r3
 575              		.section	.rodata
 576              		.align	2
 577              	.L39:
 578 0030 48000000 		.word	.L38
 579 0034 1E000000 		.word	.L40
 580 0038 30000000 		.word	.L41
 581 003c 42000000 		.word	.L42
 582 0040 48000000 		.word	.L38
 583 0044 48000000 		.word	.L38
 584              		.section	.text.u8x8_cad_100
 585              	.L40:
 226:..\u8g2\csrc/u8x8_cad.c ****       u8x8_byte_SendByte(u8x8, arg_int);
 586              		.loc 1 226 0
 587 001e 0121     		movs	r1, #1
 588              	.LVL70:
 589 0020 FFF7FEFF 		bl	u8x8_byte_SetDC
 590              	.LVL71:
 227:..\u8g2\csrc/u8x8_cad.c ****       break;
 591              		.loc 1 227 0
 592 0024 3100     		movs	r1, r6
 593 0026 2000     		movs	r0, r4
 594 0028 FFF7FEFF 		bl	u8x8_byte_SendByte
 595              	.LVL72:
 245:..\u8g2\csrc/u8x8_cad.c **** }
 596              		.loc 1 245 0
 597 002c 0120     		movs	r0, #1
 228:..\u8g2\csrc/u8x8_cad.c ****     case U8X8_MSG_CAD_SEND_ARG:
 598              		.loc 1 228 0
 599 002e 13E0     		b	.L37
 600              	.LVL73:
 601              	.L41:
 230:..\u8g2\csrc/u8x8_cad.c ****       u8x8_byte_SendByte(u8x8, arg_int);
 602              		.loc 1 230 0
 603 0030 0021     		movs	r1, #0
 604              	.LVL74:
 605 0032 FFF7FEFF 		bl	u8x8_byte_SetDC
 606              	.LVL75:
 231:..\u8g2\csrc/u8x8_cad.c ****       break;
 607              		.loc 1 231 0
 608 0036 3100     		movs	r1, r6
 609 0038 2000     		movs	r0, r4
 610 003a FFF7FEFF 		bl	u8x8_byte_SendByte
 611              	.LVL76:
 245:..\u8g2\csrc/u8x8_cad.c **** }
 612              		.loc 1 245 0
 613 003e 0120     		movs	r0, #1
 232:..\u8g2\csrc/u8x8_cad.c ****     case U8X8_MSG_CAD_SEND_DATA:
 614              		.loc 1 232 0
 615 0040 0AE0     		b	.L37
 616              	.LVL77:
ARM GAS  C:\Users\gjl\AppData\Local\Temp\ccb0p5eu.s 			page 20


 617              	.L42:
 234:..\u8g2\csrc/u8x8_cad.c ****       //u8x8_byte_SendBytes(u8x8, arg_int, arg_ptr);
 618              		.loc 1 234 0
 619 0042 0021     		movs	r1, #0
 620              	.LVL78:
 621 0044 FFF7FEFF 		bl	u8x8_byte_SetDC
 622              	.LVL79:
 623              	.L38:
 241:..\u8g2\csrc/u8x8_cad.c ****     default:
 624              		.loc 1 241 0
 625 0048 2769     		ldr	r7, [r4, #16]
 626 004a 019B     		ldr	r3, [sp, #4]
 627 004c 3200     		movs	r2, r6
 628 004e 2900     		movs	r1, r5
 629 0050 2000     		movs	r0, r4
 630 0052 B847     		blx	r7
 631              	.LVL80:
 632 0054 00E0     		b	.L37
 633              	.LVL81:
 634              	.L43:
 243:..\u8g2\csrc/u8x8_cad.c ****   }
 635              		.loc 1 243 0
 636 0056 0020     		movs	r0, #0
 637              	.LVL82:
 638              	.L37:
 246:..\u8g2\csrc/u8x8_cad.c **** 
 639              		.loc 1 246 0
 640 0058 03B0     		add	sp, sp, #12
 641              		@ sp needed
 642              	.LVL83:
 643 005a F0BD     		pop	{r4, r5, r6, r7, pc}
 644              	.L45:
 645              		.align	2
 646              	.L44:
 647 005c 30000000 		.word	.L39
 648              		.cfi_endproc
 649              	.LFE8:
 650              		.size	u8x8_cad_100, .-u8x8_cad_100
 651              		.section	.text.u8x8_cad_001,"ax",%progbits
 652              		.align	2
 653              		.global	u8x8_cad_001
 654              		.code	16
 655              		.thumb_func
 656              		.type	u8x8_cad_001, %function
 657              	u8x8_cad_001:
 658              	.LFB9:
 254:..\u8g2\csrc/u8x8_cad.c ****   switch(msg)
 659              		.loc 1 254 0
 660              		.cfi_startproc
 661              		@ args = 0, pretend = 0, frame = 8
 662              		@ frame_needed = 0, uses_anonymous_args = 0
 663              	.LVL84:
 664 0000 F0B5     		push	{r4, r5, r6, r7, lr}
 665              		.cfi_def_cfa_offset 20
 666              		.cfi_offset 4, -20
 667              		.cfi_offset 5, -16
 668              		.cfi_offset 6, -12
ARM GAS  C:\Users\gjl\AppData\Local\Temp\ccb0p5eu.s 			page 21


 669              		.cfi_offset 7, -8
 670              		.cfi_offset 14, -4
 671 0002 83B0     		sub	sp, sp, #12
 672              		.cfi_def_cfa_offset 32
 673 0004 0400     		movs	r4, r0
 674 0006 0D00     		movs	r5, r1
 675 0008 1600     		movs	r6, r2
 676 000a 0193     		str	r3, [sp, #4]
 255:..\u8g2\csrc/u8x8_cad.c ****   {
 677              		.loc 1 255 0
 678 000c 0B00     		movs	r3, r1
 679              	.LVL85:
 680 000e 143B     		subs	r3, r3, #20
 681 0010 DAB2     		uxtb	r2, r3
 682              	.LVL86:
 683 0012 052A     		cmp	r2, #5
 684 0014 1FD8     		bhi	.L53
 685 0016 9300     		lsls	r3, r2, #2
 686 0018 104A     		ldr	r2, .L54
 687 001a D358     		ldr	r3, [r2, r3]
 688 001c 9F46     		mov	pc, r3
 689              		.section	.rodata
 690              		.align	2
 691              	.L49:
 692 0048 48000000 		.word	.L48
 693 004c 1E000000 		.word	.L50
 694 0050 30000000 		.word	.L51
 695 0054 42000000 		.word	.L52
 696 0058 48000000 		.word	.L48
 697 005c 48000000 		.word	.L48
 698              		.section	.text.u8x8_cad_001
 699              	.L50:
 258:..\u8g2\csrc/u8x8_cad.c ****       u8x8_byte_SendByte(u8x8, arg_int);
 700              		.loc 1 258 0
 701 001e 0021     		movs	r1, #0
 702              	.LVL87:
 703 0020 FFF7FEFF 		bl	u8x8_byte_SetDC
 704              	.LVL88:
 259:..\u8g2\csrc/u8x8_cad.c ****       break;
 705              		.loc 1 259 0
 706 0024 3100     		movs	r1, r6
 707 0026 2000     		movs	r0, r4
 708 0028 FFF7FEFF 		bl	u8x8_byte_SendByte
 709              	.LVL89:
 277:..\u8g2\csrc/u8x8_cad.c **** }
 710              		.loc 1 277 0
 711 002c 0120     		movs	r0, #1
 260:..\u8g2\csrc/u8x8_cad.c ****     case U8X8_MSG_CAD_SEND_ARG:
 712              		.loc 1 260 0
 713 002e 13E0     		b	.L47
 714              	.LVL90:
 715              	.L51:
 262:..\u8g2\csrc/u8x8_cad.c ****       u8x8_byte_SendByte(u8x8, arg_int);
 716              		.loc 1 262 0
 717 0030 0021     		movs	r1, #0
 718              	.LVL91:
 719 0032 FFF7FEFF 		bl	u8x8_byte_SetDC
ARM GAS  C:\Users\gjl\AppData\Local\Temp\ccb0p5eu.s 			page 22


 720              	.LVL92:
 263:..\u8g2\csrc/u8x8_cad.c ****       break;
 721              		.loc 1 263 0
 722 0036 3100     		movs	r1, r6
 723 0038 2000     		movs	r0, r4
 724 003a FFF7FEFF 		bl	u8x8_byte_SendByte
 725              	.LVL93:
 277:..\u8g2\csrc/u8x8_cad.c **** }
 726              		.loc 1 277 0
 727 003e 0120     		movs	r0, #1
 264:..\u8g2\csrc/u8x8_cad.c ****     case U8X8_MSG_CAD_SEND_DATA:
 728              		.loc 1 264 0
 729 0040 0AE0     		b	.L47
 730              	.LVL94:
 731              	.L52:
 266:..\u8g2\csrc/u8x8_cad.c ****       //u8x8_byte_SendBytes(u8x8, arg_int, arg_ptr);
 732              		.loc 1 266 0
 733 0042 0121     		movs	r1, #1
 734              	.LVL95:
 735 0044 FFF7FEFF 		bl	u8x8_byte_SetDC
 736              	.LVL96:
 737              	.L48:
 273:..\u8g2\csrc/u8x8_cad.c ****     default:
 738              		.loc 1 273 0
 739 0048 2769     		ldr	r7, [r4, #16]
 740 004a 019B     		ldr	r3, [sp, #4]
 741 004c 3200     		movs	r2, r6
 742 004e 2900     		movs	r1, r5
 743 0050 2000     		movs	r0, r4
 744 0052 B847     		blx	r7
 745              	.LVL97:
 746 0054 00E0     		b	.L47
 747              	.LVL98:
 748              	.L53:
 275:..\u8g2\csrc/u8x8_cad.c ****   }
 749              		.loc 1 275 0
 750 0056 0020     		movs	r0, #0
 751              	.LVL99:
 752              	.L47:
 278:..\u8g2\csrc/u8x8_cad.c **** 
 753              		.loc 1 278 0
 754 0058 03B0     		add	sp, sp, #12
 755              		@ sp needed
 756              	.LVL100:
 757 005a F0BD     		pop	{r4, r5, r6, r7, pc}
 758              	.L55:
 759              		.align	2
 760              	.L54:
 761 005c 48000000 		.word	.L49
 762              		.cfi_endproc
 763              	.LFE9:
 764              		.size	u8x8_cad_001, .-u8x8_cad_001
 765              		.section	.text.u8x8_cad_011,"ax",%progbits
 766              		.align	2
 767              		.global	u8x8_cad_011
 768              		.code	16
 769              		.thumb_func
ARM GAS  C:\Users\gjl\AppData\Local\Temp\ccb0p5eu.s 			page 23


 770              		.type	u8x8_cad_011, %function
 771              	u8x8_cad_011:
 772              	.LFB10:
 286:..\u8g2\csrc/u8x8_cad.c ****   switch(msg)
 773              		.loc 1 286 0
 774              		.cfi_startproc
 775              		@ args = 0, pretend = 0, frame = 8
 776              		@ frame_needed = 0, uses_anonymous_args = 0
 777              	.LVL101:
 778 0000 F0B5     		push	{r4, r5, r6, r7, lr}
 779              		.cfi_def_cfa_offset 20
 780              		.cfi_offset 4, -20
 781              		.cfi_offset 5, -16
 782              		.cfi_offset 6, -12
 783              		.cfi_offset 7, -8
 784              		.cfi_offset 14, -4
 785 0002 83B0     		sub	sp, sp, #12
 786              		.cfi_def_cfa_offset 32
 787 0004 0400     		movs	r4, r0
 788 0006 0D00     		movs	r5, r1
 789 0008 1600     		movs	r6, r2
 790 000a 0193     		str	r3, [sp, #4]
 287:..\u8g2\csrc/u8x8_cad.c ****   {
 791              		.loc 1 287 0
 792 000c 0B00     		movs	r3, r1
 793              	.LVL102:
 794 000e 143B     		subs	r3, r3, #20
 795 0010 DAB2     		uxtb	r2, r3
 796              	.LVL103:
 797 0012 052A     		cmp	r2, #5
 798 0014 1FD8     		bhi	.L63
 799 0016 9300     		lsls	r3, r2, #2
 800 0018 104A     		ldr	r2, .L64
 801 001a D358     		ldr	r3, [r2, r3]
 802 001c 9F46     		mov	pc, r3
 803              		.section	.rodata
 804              		.align	2
 805              	.L59:
 806 0060 48000000 		.word	.L58
 807 0064 1E000000 		.word	.L60
 808 0068 30000000 		.word	.L61
 809 006c 42000000 		.word	.L62
 810 0070 48000000 		.word	.L58
 811 0074 48000000 		.word	.L58
 812              		.section	.text.u8x8_cad_011
 813              	.L60:
 290:..\u8g2\csrc/u8x8_cad.c ****       u8x8_byte_SendByte(u8x8, arg_int);
 814              		.loc 1 290 0
 815 001e 0021     		movs	r1, #0
 816              	.LVL104:
 817 0020 FFF7FEFF 		bl	u8x8_byte_SetDC
 818              	.LVL105:
 291:..\u8g2\csrc/u8x8_cad.c ****       break;
 819              		.loc 1 291 0
 820 0024 3100     		movs	r1, r6
 821 0026 2000     		movs	r0, r4
 822 0028 FFF7FEFF 		bl	u8x8_byte_SendByte
ARM GAS  C:\Users\gjl\AppData\Local\Temp\ccb0p5eu.s 			page 24


 823              	.LVL106:
 309:..\u8g2\csrc/u8x8_cad.c **** }
 824              		.loc 1 309 0
 825 002c 0120     		movs	r0, #1
 292:..\u8g2\csrc/u8x8_cad.c ****     case U8X8_MSG_CAD_SEND_ARG:
 826              		.loc 1 292 0
 827 002e 13E0     		b	.L57
 828              	.LVL107:
 829              	.L61:
 294:..\u8g2\csrc/u8x8_cad.c ****       u8x8_byte_SendByte(u8x8, arg_int);
 830              		.loc 1 294 0
 831 0030 0121     		movs	r1, #1
 832              	.LVL108:
 833 0032 FFF7FEFF 		bl	u8x8_byte_SetDC
 834              	.LVL109:
 295:..\u8g2\csrc/u8x8_cad.c ****       break;
 835              		.loc 1 295 0
 836 0036 3100     		movs	r1, r6
 837 0038 2000     		movs	r0, r4
 838 003a FFF7FEFF 		bl	u8x8_byte_SendByte
 839              	.LVL110:
 309:..\u8g2\csrc/u8x8_cad.c **** }
 840              		.loc 1 309 0
 841 003e 0120     		movs	r0, #1
 296:..\u8g2\csrc/u8x8_cad.c ****     case U8X8_MSG_CAD_SEND_DATA:
 842              		.loc 1 296 0
 843 0040 0AE0     		b	.L57
 844              	.LVL111:
 845              	.L62:
 298:..\u8g2\csrc/u8x8_cad.c ****       //u8x8_byte_SendBytes(u8x8, arg_int, arg_ptr);
 846              		.loc 1 298 0
 847 0042 0121     		movs	r1, #1
 848              	.LVL112:
 849 0044 FFF7FEFF 		bl	u8x8_byte_SetDC
 850              	.LVL113:
 851              	.L58:
 305:..\u8g2\csrc/u8x8_cad.c ****     default:
 852              		.loc 1 305 0
 853 0048 2769     		ldr	r7, [r4, #16]
 854 004a 019B     		ldr	r3, [sp, #4]
 855 004c 3200     		movs	r2, r6
 856 004e 2900     		movs	r1, r5
 857 0050 2000     		movs	r0, r4
 858 0052 B847     		blx	r7
 859              	.LVL114:
 860 0054 00E0     		b	.L57
 861              	.LVL115:
 862              	.L63:
 307:..\u8g2\csrc/u8x8_cad.c ****   }
 863              		.loc 1 307 0
 864 0056 0020     		movs	r0, #0
 865              	.LVL116:
 866              	.L57:
 310:..\u8g2\csrc/u8x8_cad.c **** 
 867              		.loc 1 310 0
 868 0058 03B0     		add	sp, sp, #12
 869              		@ sp needed
ARM GAS  C:\Users\gjl\AppData\Local\Temp\ccb0p5eu.s 			page 25


 870              	.LVL117:
 871 005a F0BD     		pop	{r4, r5, r6, r7, pc}
 872              	.L65:
 873              		.align	2
 874              	.L64:
 875 005c 60000000 		.word	.L59
 876              		.cfi_endproc
 877              	.LFE10:
 878              		.size	u8x8_cad_011, .-u8x8_cad_011
 879              		.section	.text.u8x8_cad_st7920_spi,"ax",%progbits
 880              		.align	2
 881              		.global	u8x8_cad_st7920_spi
 882              		.code	16
 883              		.thumb_func
 884              		.type	u8x8_cad_st7920_spi, %function
 885              	u8x8_cad_st7920_spi:
 886              	.LFB11:
 315:..\u8g2\csrc/u8x8_cad.c ****   uint8_t *data;
 887              		.loc 1 315 0
 888              		.cfi_startproc
 889              		@ args = 0, pretend = 0, frame = 0
 890              		@ frame_needed = 0, uses_anonymous_args = 0
 891              	.LVL118:
 892 0000 F8B5     		push	{r3, r4, r5, r6, r7, lr}
 893              		.cfi_def_cfa_offset 24
 894              		.cfi_offset 3, -24
 895              		.cfi_offset 4, -20
 896              		.cfi_offset 5, -16
 897              		.cfi_offset 6, -12
 898              		.cfi_offset 7, -8
 899              		.cfi_offset 14, -4
 900 0002 0400     		movs	r4, r0
 901 0004 1600     		movs	r6, r2
 902 0006 1F00     		movs	r7, r3
 322:..\u8g2\csrc/u8x8_cad.c ****   {
 903              		.loc 1 322 0
 904 0008 0B00     		movs	r3, r1
 905              	.LVL119:
 906 000a 143B     		subs	r3, r3, #20
 907 000c DAB2     		uxtb	r2, r3
 908              	.LVL120:
 909 000e 052A     		cmp	r2, #5
 910 0010 72D8     		bhi	.L77
 911 0012 9300     		lsls	r3, r2, #2
 912 0014 394A     		ldr	r2, .L79
 913 0016 D358     		ldr	r3, [r2, r3]
 914 0018 9F46     		mov	pc, r3
 915              		.section	.rodata
 916              		.align	2
 917              	.L69:
 918 0078 EE000000 		.word	.L68
 919 007c 1A000000 		.word	.L70
 920 0080 58000000 		.word	.L71
 921 0084 78000000 		.word	.L72
 922 0088 EE000000 		.word	.L68
 923 008c EE000000 		.word	.L68
 924              		.section	.text.u8x8_cad_st7920_spi
ARM GAS  C:\Users\gjl\AppData\Local\Temp\ccb0p5eu.s 			page 26


 925              	.L70:
 325:..\u8g2\csrc/u8x8_cad.c ****       u8x8_gpio_Delay(u8x8, U8X8_MSG_DELAY_NANO, 1);
 926              		.loc 1 325 0
 927 001a F821     		movs	r1, #248
 928              	.LVL121:
 929 001c FFF7FEFF 		bl	u8x8_byte_SendByte
 930              	.LVL122:
 326:..\u8g2\csrc/u8x8_cad.c ****       u8x8_byte_SendByte(u8x8, arg_int & 0x0f0);
 931              		.loc 1 326 0
 932 0020 0122     		movs	r2, #1
 933 0022 2C21     		movs	r1, #44
 934 0024 2000     		movs	r0, r4
 935 0026 FFF7FEFF 		bl	u8x8_gpio_call
 936              	.LVL123:
 327:..\u8g2\csrc/u8x8_cad.c ****       u8x8_gpio_Delay(u8x8, U8X8_MSG_DELAY_NANO, 1);
 937              		.loc 1 327 0
 938 002a 0F23     		movs	r3, #15
 939 002c 3100     		movs	r1, r6
 940 002e 9943     		bics	r1, r3
 941 0030 2000     		movs	r0, r4
 942 0032 FFF7FEFF 		bl	u8x8_byte_SendByte
 943              	.LVL124:
 328:..\u8g2\csrc/u8x8_cad.c ****       u8x8_byte_SendByte(u8x8, arg_int << 4);
 944              		.loc 1 328 0
 945 0036 0122     		movs	r2, #1
 946 0038 2C21     		movs	r1, #44
 947 003a 2000     		movs	r0, r4
 948 003c FFF7FEFF 		bl	u8x8_gpio_call
 949              	.LVL125:
 329:..\u8g2\csrc/u8x8_cad.c ****       u8x8_gpio_Delay(u8x8, U8X8_MSG_DELAY_NANO, 1);
 950              		.loc 1 329 0
 951 0040 3601     		lsls	r6, r6, #4
 952 0042 F1B2     		uxtb	r1, r6
 953 0044 2000     		movs	r0, r4
 954 0046 FFF7FEFF 		bl	u8x8_byte_SendByte
 955              	.LVL126:
 330:..\u8g2\csrc/u8x8_cad.c ****       break;
 956              		.loc 1 330 0
 957 004a 0122     		movs	r2, #1
 958 004c 2C21     		movs	r1, #44
 959 004e 2000     		movs	r0, r4
 960 0050 FFF7FEFF 		bl	u8x8_gpio_call
 961              	.LVL127:
 381:..\u8g2\csrc/u8x8_cad.c **** }
 962              		.loc 1 381 0
 963 0054 0120     		movs	r0, #1
 331:..\u8g2\csrc/u8x8_cad.c ****     case U8X8_MSG_CAD_SEND_ARG:
 964              		.loc 1 331 0
 965 0056 50E0     		b	.L67
 966              	.LVL128:
 967              	.L71:
 333:..\u8g2\csrc/u8x8_cad.c ****       u8x8_byte_SendByte(u8x8, arg_int & 0x0f0);
 968              		.loc 1 333 0
 969 0058 F821     		movs	r1, #248
 970              	.LVL129:
 971 005a FFF7FEFF 		bl	u8x8_byte_SendByte
 972              	.LVL130:
ARM GAS  C:\Users\gjl\AppData\Local\Temp\ccb0p5eu.s 			page 27


 334:..\u8g2\csrc/u8x8_cad.c ****       u8x8_byte_SendByte(u8x8, arg_int << 4);
 973              		.loc 1 334 0
 974 005e 0F23     		movs	r3, #15
 975 0060 3100     		movs	r1, r6
 976 0062 9943     		bics	r1, r3
 977 0064 2000     		movs	r0, r4
 978 0066 FFF7FEFF 		bl	u8x8_byte_SendByte
 979              	.LVL131:
 335:..\u8g2\csrc/u8x8_cad.c ****       break;
 980              		.loc 1 335 0
 981 006a 3601     		lsls	r6, r6, #4
 982 006c F1B2     		uxtb	r1, r6
 983 006e 2000     		movs	r0, r4
 984 0070 FFF7FEFF 		bl	u8x8_byte_SendByte
 985              	.LVL132:
 381:..\u8g2\csrc/u8x8_cad.c **** }
 986              		.loc 1 381 0
 987 0074 0120     		movs	r0, #1
 336:..\u8g2\csrc/u8x8_cad.c ****     case U8X8_MSG_CAD_SEND_DATA:
 988              		.loc 1 336 0
 989 0076 40E0     		b	.L67
 990              	.LVL133:
 991              	.L72:
 339:..\u8g2\csrc/u8x8_cad.c ****       u8x8_gpio_Delay(u8x8, U8X8_MSG_DELAY_NANO, 1);
 992              		.loc 1 339 0
 993 0078 FA21     		movs	r1, #250
 994              	.LVL134:
 995 007a FFF7FEFF 		bl	u8x8_byte_SendByte
 996              	.LVL135:
 340:..\u8g2\csrc/u8x8_cad.c **** 
 997              		.loc 1 340 0
 998 007e 0122     		movs	r2, #1
 999 0080 2C21     		movs	r1, #44
 1000 0082 2000     		movs	r0, r4
 1001 0084 FFF7FEFF 		bl	u8x8_gpio_call
 1002              	.LVL136:
 347:..\u8g2\csrc/u8x8_cad.c ****       {
 1003              		.loc 1 347 0
 1004 0088 16E0     		b	.L73
 1005              	.LVL137:
 1006              	.L78:
 1007 008a 1D48     		ldr	r0, .L79+4
 1008 008c 0823     		movs	r3, #8
 1009              	.L74:
 1010              	.LVL138:
 353:..\u8g2\csrc/u8x8_cad.c **** 	  *ptr++= b & 0x0f0;
 1011              		.loc 1 353 0 discriminator 1
 1012 008e 7D1C     		adds	r5, r7, #1
 1013              	.LVL139:
 1014 0090 3A78     		ldrb	r2, [r7]
 1015              	.LVL140:
 354:..\u8g2\csrc/u8x8_cad.c **** 	  b <<= 4;
 1016              		.loc 1 354 0 discriminator 1
 1017 0092 0F21     		movs	r1, #15
 1018 0094 1700     		movs	r7, r2
 1019 0096 8F43     		bics	r7, r1
 1020 0098 0770     		strb	r7, [r0]
ARM GAS  C:\Users\gjl\AppData\Local\Temp\ccb0p5eu.s 			page 28


 355:..\u8g2\csrc/u8x8_cad.c **** 	  *ptr++= b;
 1021              		.loc 1 355 0 discriminator 1
 1022 009a 1201     		lsls	r2, r2, #4
 1023              	.LVL141:
 356:..\u8g2\csrc/u8x8_cad.c **** 	  i--;
 1024              		.loc 1 356 0 discriminator 1
 1025 009c 4270     		strb	r2, [r0, #1]
 357:..\u8g2\csrc/u8x8_cad.c **** 	} while( i > 0 );
 1026              		.loc 1 357 0 discriminator 1
 1027 009e 013B     		subs	r3, r3, #1
 1028              	.LVL142:
 1029 00a0 DBB2     		uxtb	r3, r3
 1030              	.LVL143:
 353:..\u8g2\csrc/u8x8_cad.c **** 	  *ptr++= b & 0x0f0;
 1031              		.loc 1 353 0 discriminator 1
 1032 00a2 2F00     		movs	r7, r5
 356:..\u8g2\csrc/u8x8_cad.c **** 	  i--;
 1033              		.loc 1 356 0 discriminator 1
 1034 00a4 0230     		adds	r0, r0, #2
 1035              	.LVL144:
 358:..\u8g2\csrc/u8x8_cad.c **** 	arg_int -= 8;
 1036              		.loc 1 358 0 discriminator 1
 1037 00a6 002B     		cmp	r3, #0
 1038 00a8 F1D1     		bne	.L74
 359:..\u8g2\csrc/u8x8_cad.c **** 	u8x8_byte_SendBytes(u8x8, 16, buf); 
 1039              		.loc 1 359 0
 1040 00aa 083E     		subs	r6, r6, #8
 1041              	.LVL145:
 1042 00ac F6B2     		uxtb	r6, r6
 1043              	.LVL146:
 360:..\u8g2\csrc/u8x8_cad.c ****       }
 1044              		.loc 1 360 0
 1045 00ae 144A     		ldr	r2, .L79+4
 1046              	.LVL147:
 1047 00b0 1021     		movs	r1, #16
 1048 00b2 2000     		movs	r0, r4
 1049              	.LVL148:
 1050 00b4 FFF7FEFF 		bl	u8x8_byte_SendBytes
 1051              	.LVL149:
 1052              	.L73:
 347:..\u8g2\csrc/u8x8_cad.c ****       {
 1053              		.loc 1 347 0
 1054 00b8 072E     		cmp	r6, #7
 1055 00ba E6D8     		bhi	.L78
 1056 00bc 0EE0     		b	.L75
 1057              	.L76:
 366:..\u8g2\csrc/u8x8_cad.c **** 	u8x8_byte_SendByte(u8x8, b & 0x0f0);
 1058              		.loc 1 366 0
 1059 00be 3D78     		ldrb	r5, [r7]
 1060              	.LVL150:
 367:..\u8g2\csrc/u8x8_cad.c **** 	u8x8_byte_SendByte(u8x8, b << 4);
 1061              		.loc 1 367 0
 1062 00c0 0F23     		movs	r3, #15
 1063 00c2 2900     		movs	r1, r5
 1064 00c4 9943     		bics	r1, r3
 1065 00c6 2000     		movs	r0, r4
 1066 00c8 FFF7FEFF 		bl	u8x8_byte_SendByte
ARM GAS  C:\Users\gjl\AppData\Local\Temp\ccb0p5eu.s 			page 29


 1067              	.LVL151:
 368:..\u8g2\csrc/u8x8_cad.c **** 	data++;
 1068              		.loc 1 368 0
 1069 00cc 2D01     		lsls	r5, r5, #4
 1070              	.LVL152:
 1071 00ce E9B2     		uxtb	r1, r5
 1072 00d0 2000     		movs	r0, r4
 1073 00d2 FFF7FEFF 		bl	u8x8_byte_SendByte
 1074              	.LVL153:
 369:..\u8g2\csrc/u8x8_cad.c **** 	arg_int--;
 1075              		.loc 1 369 0
 1076 00d6 0137     		adds	r7, r7, #1
 1077              	.LVL154:
 370:..\u8g2\csrc/u8x8_cad.c ****       }
 1078              		.loc 1 370 0
 1079 00d8 013E     		subs	r6, r6, #1
 1080              	.LVL155:
 1081 00da F6B2     		uxtb	r6, r6
 1082              	.LVL156:
 1083              	.L75:
 364:..\u8g2\csrc/u8x8_cad.c ****       {
 1084              		.loc 1 364 0
 1085 00dc 002E     		cmp	r6, #0
 1086 00de EED1     		bne	.L76
 372:..\u8g2\csrc/u8x8_cad.c ****       break;
 1087              		.loc 1 372 0
 1088 00e0 0122     		movs	r2, #1
 1089 00e2 2C21     		movs	r1, #44
 1090 00e4 2000     		movs	r0, r4
 1091 00e6 FFF7FEFF 		bl	u8x8_gpio_call
 1092              	.LVL157:
 381:..\u8g2\csrc/u8x8_cad.c **** }
 1093              		.loc 1 381 0
 1094 00ea 0120     		movs	r0, #1
 373:..\u8g2\csrc/u8x8_cad.c ****     case U8X8_MSG_CAD_INIT:
 1095              		.loc 1 373 0
 1096 00ec 05E0     		b	.L67
 1097              	.LVL158:
 1098              	.L68:
 377:..\u8g2\csrc/u8x8_cad.c ****     default:
 1099              		.loc 1 377 0
 1100 00ee 0569     		ldr	r5, [r0, #16]
 1101 00f0 3B00     		movs	r3, r7
 1102 00f2 3200     		movs	r2, r6
 1103 00f4 A847     		blx	r5
 1104              	.LVL159:
 1105 00f6 00E0     		b	.L67
 1106              	.LVL160:
 1107              	.L77:
 379:..\u8g2\csrc/u8x8_cad.c ****   }
 1108              		.loc 1 379 0
 1109 00f8 0020     		movs	r0, #0
 1110              	.LVL161:
 1111              	.L67:
 382:..\u8g2\csrc/u8x8_cad.c **** 
 1112              		.loc 1 382 0
 1113              		@ sp needed
ARM GAS  C:\Users\gjl\AppData\Local\Temp\ccb0p5eu.s 			page 30


 1114              	.LVL162:
 1115 00fa F8BD     		pop	{r3, r4, r5, r6, r7, pc}
 1116              	.L80:
 1117              		.align	2
 1118              	.L79:
 1119 00fc 78000000 		.word	.L69
 1120 0100 00000000 		.word	.LANCHOR0
 1121              		.cfi_endproc
 1122              	.LFE11:
 1123              		.size	u8x8_cad_st7920_spi, .-u8x8_cad_st7920_spi
 1124              		.section	.text.u8x8_cad_ssd13xx_i2c,"ax",%progbits
 1125              		.align	2
 1126              		.global	u8x8_cad_ssd13xx_i2c
 1127              		.code	16
 1128              		.thumb_func
 1129              		.type	u8x8_cad_ssd13xx_i2c, %function
 1130              	u8x8_cad_ssd13xx_i2c:
 1131              	.LFB13:
 399:..\u8g2\csrc/u8x8_cad.c **** 
 400:..\u8g2\csrc/u8x8_cad.c **** uint8_t u8x8_cad_ssd13xx_i2c(u8x8_t *u8x8, uint8_t msg, uint8_t arg_int, void *arg_ptr)
 401:..\u8g2\csrc/u8x8_cad.c **** {
 1132              		.loc 1 401 0
 1133              		.cfi_startproc
 1134              		@ args = 0, pretend = 0, frame = 0
 1135              		@ frame_needed = 0, uses_anonymous_args = 0
 1136              	.LVL163:
 1137 0000 F8B5     		push	{r3, r4, r5, r6, r7, lr}
 1138              		.cfi_def_cfa_offset 24
 1139              		.cfi_offset 3, -24
 1140              		.cfi_offset 4, -20
 1141              		.cfi_offset 5, -16
 1142              		.cfi_offset 6, -12
 1143              		.cfi_offset 7, -8
 1144              		.cfi_offset 14, -4
 1145 0002 0500     		movs	r5, r0
 1146 0004 1400     		movs	r4, r2
 1147 0006 1E00     		movs	r6, r3
 402:..\u8g2\csrc/u8x8_cad.c ****   uint8_t *p;
 403:..\u8g2\csrc/u8x8_cad.c ****   switch(msg)
 1148              		.loc 1 403 0
 1149 0008 0B00     		movs	r3, r1
 1150              	.LVL164:
 1151 000a 143B     		subs	r3, r3, #20
 1152 000c DAB2     		uxtb	r2, r3
 1153              	.LVL165:
 1154 000e 052A     		cmp	r2, #5
 1155 0010 03D8     		bhi	.L82
 1156 0012 9300     		lsls	r3, r2, #2
 1157 0014 194A     		ldr	r2, .L91
 1158 0016 D358     		ldr	r3, [r2, r3]
 1159 0018 9F46     		mov	pc, r3
 1160              		.section	.rodata
 1161              		.align	2
 1162              	.L84:
 1163 0090 5E000000 		.word	.L83
 1164 0094 1E000000 		.word	.L85
 1165 0098 1E000000 		.word	.L85
ARM GAS  C:\Users\gjl\AppData\Local\Temp\ccb0p5eu.s 			page 31


 1166 009c 4C000000 		.word	.L86
 1167 00a0 78000000 		.word	.L90
 1168 00a4 78000000 		.word	.L90
 1169              		.section	.text.u8x8_cad_ssd13xx_i2c
 1170              	.L82:
 404:..\u8g2\csrc/u8x8_cad.c ****   {
 405:..\u8g2\csrc/u8x8_cad.c ****     case U8X8_MSG_CAD_SEND_CMD:
 406:..\u8g2\csrc/u8x8_cad.c ****     case U8X8_MSG_CAD_SEND_ARG:
 407:..\u8g2\csrc/u8x8_cad.c ****       /* 7 Nov 2016: Can this be improved?  */
 408:..\u8g2\csrc/u8x8_cad.c ****       //u8x8_byte_SetDC(u8x8, 0);
 409:..\u8g2\csrc/u8x8_cad.c ****       u8x8_byte_StartTransfer(u8x8);
 410:..\u8g2\csrc/u8x8_cad.c ****       //u8x8_byte_SendByte(u8x8, u8x8_GetI2CAddress(u8x8));
 411:..\u8g2\csrc/u8x8_cad.c ****       u8x8_byte_SendByte(u8x8, 0x000);
 412:..\u8g2\csrc/u8x8_cad.c ****       u8x8_byte_SendByte(u8x8, arg_int);
 413:..\u8g2\csrc/u8x8_cad.c ****       u8x8_byte_EndTransfer(u8x8);      
 414:..\u8g2\csrc/u8x8_cad.c ****       break;
 415:..\u8g2\csrc/u8x8_cad.c ****     case U8X8_MSG_CAD_SEND_DATA:
 416:..\u8g2\csrc/u8x8_cad.c ****       //u8x8_byte_SetDC(u8x8, 1);
 417:..\u8g2\csrc/u8x8_cad.c ****     
 418:..\u8g2\csrc/u8x8_cad.c ****       /* the FeatherWing OLED with the 32u4 transfer of long byte */
 419:..\u8g2\csrc/u8x8_cad.c ****       /* streams was not possible. This is broken down to */
 420:..\u8g2\csrc/u8x8_cad.c ****       /* smaller streams, 32 seems to be the limit... */
 421:..\u8g2\csrc/u8x8_cad.c ****       /* I guess this is related to the size of the Wire buffers in Arduino */
 422:..\u8g2\csrc/u8x8_cad.c ****       /* Unfortunately, this can not be handled in the byte level drivers, */
 423:..\u8g2\csrc/u8x8_cad.c ****       /* so this is done here. Even further, only 24 bytes will be sent, */
 424:..\u8g2\csrc/u8x8_cad.c ****       /* because there will be another byte (DC) required during the transfer */
 425:..\u8g2\csrc/u8x8_cad.c ****       p = arg_ptr;
 426:..\u8g2\csrc/u8x8_cad.c ****        while( arg_int > 24 )
 427:..\u8g2\csrc/u8x8_cad.c ****       {
 428:..\u8g2\csrc/u8x8_cad.c **** 	u8x8_i2c_data_transfer(u8x8, 24, p);
 429:..\u8g2\csrc/u8x8_cad.c **** 	arg_int-=24;
 430:..\u8g2\csrc/u8x8_cad.c **** 	p+=24;
 431:..\u8g2\csrc/u8x8_cad.c ****       }
 432:..\u8g2\csrc/u8x8_cad.c ****       u8x8_i2c_data_transfer(u8x8, arg_int, p);
 433:..\u8g2\csrc/u8x8_cad.c ****       break;
 434:..\u8g2\csrc/u8x8_cad.c ****     case U8X8_MSG_CAD_INIT:
 435:..\u8g2\csrc/u8x8_cad.c ****       /* apply default i2c adr if required so that the start transfer msg can use this */
 436:..\u8g2\csrc/u8x8_cad.c ****       if ( u8x8->i2c_address == 255 )
 437:..\u8g2\csrc/u8x8_cad.c **** 	u8x8->i2c_address = 0x078;
 438:..\u8g2\csrc/u8x8_cad.c ****       return u8x8->byte_cb(u8x8, msg, arg_int, arg_ptr);
 439:..\u8g2\csrc/u8x8_cad.c ****     case U8X8_MSG_CAD_START_TRANSFER:
 440:..\u8g2\csrc/u8x8_cad.c ****     case U8X8_MSG_CAD_END_TRANSFER:
 441:..\u8g2\csrc/u8x8_cad.c ****       /* cad transfer commands are ignored */
 442:..\u8g2\csrc/u8x8_cad.c ****       break;
 443:..\u8g2\csrc/u8x8_cad.c ****     default:
 444:..\u8g2\csrc/u8x8_cad.c ****       return 0;
 1171              		.loc 1 444 0
 1172 001a 0020     		movs	r0, #0
 1173              	.LVL166:
 1174 001c 2DE0     		b	.L87
 1175              	.LVL167:
 1176              	.L85:
 409:..\u8g2\csrc/u8x8_cad.c ****       //u8x8_byte_SendByte(u8x8, u8x8_GetI2CAddress(u8x8));
 1177              		.loc 1 409 0
 1178 001e FFF7FEFF 		bl	u8x8_byte_StartTransfer
 1179              	.LVL168:
 411:..\u8g2\csrc/u8x8_cad.c ****       u8x8_byte_SendByte(u8x8, arg_int);
ARM GAS  C:\Users\gjl\AppData\Local\Temp\ccb0p5eu.s 			page 32


 1180              		.loc 1 411 0
 1181 0022 0021     		movs	r1, #0
 1182 0024 2800     		movs	r0, r5
 1183 0026 FFF7FEFF 		bl	u8x8_byte_SendByte
 1184              	.LVL169:
 412:..\u8g2\csrc/u8x8_cad.c ****       u8x8_byte_EndTransfer(u8x8);      
 1185              		.loc 1 412 0
 1186 002a 2100     		movs	r1, r4
 1187 002c 2800     		movs	r0, r5
 1188 002e FFF7FEFF 		bl	u8x8_byte_SendByte
 1189              	.LVL170:
 413:..\u8g2\csrc/u8x8_cad.c ****       break;
 1190              		.loc 1 413 0
 1191 0032 2800     		movs	r0, r5
 1192 0034 FFF7FEFF 		bl	u8x8_byte_EndTransfer
 1193              	.LVL171:
 445:..\u8g2\csrc/u8x8_cad.c ****   }
 446:..\u8g2\csrc/u8x8_cad.c ****   return 1;
 1194              		.loc 1 446 0
 1195 0038 0120     		movs	r0, #1
 414:..\u8g2\csrc/u8x8_cad.c ****     case U8X8_MSG_CAD_SEND_DATA:
 1196              		.loc 1 414 0
 1197 003a 1EE0     		b	.L87
 1198              	.LVL172:
 1199              	.L88:
 428:..\u8g2\csrc/u8x8_cad.c **** 	arg_int-=24;
 1200              		.loc 1 428 0
 1201 003c 3200     		movs	r2, r6
 1202 003e 1821     		movs	r1, #24
 1203 0040 2800     		movs	r0, r5
 1204 0042 FFF7FEFF 		bl	u8x8_i2c_data_transfer
 1205              	.LVL173:
 429:..\u8g2\csrc/u8x8_cad.c **** 	p+=24;
 1206              		.loc 1 429 0
 1207 0046 183C     		subs	r4, r4, #24
 1208              	.LVL174:
 1209 0048 E4B2     		uxtb	r4, r4
 1210              	.LVL175:
 430:..\u8g2\csrc/u8x8_cad.c ****       }
 1211              		.loc 1 430 0
 1212 004a 1836     		adds	r6, r6, #24
 1213              	.LVL176:
 1214              	.L86:
 426:..\u8g2\csrc/u8x8_cad.c ****       {
 1215              		.loc 1 426 0
 1216 004c 182C     		cmp	r4, #24
 1217 004e F5D8     		bhi	.L88
 432:..\u8g2\csrc/u8x8_cad.c ****       break;
 1218              		.loc 1 432 0
 1219 0050 3200     		movs	r2, r6
 1220 0052 2100     		movs	r1, r4
 1221 0054 2800     		movs	r0, r5
 1222 0056 FFF7FEFF 		bl	u8x8_i2c_data_transfer
 1223              	.LVL177:
 1224              		.loc 1 446 0
 1225 005a 0120     		movs	r0, #1
 433:..\u8g2\csrc/u8x8_cad.c ****     case U8X8_MSG_CAD_INIT:
ARM GAS  C:\Users\gjl\AppData\Local\Temp\ccb0p5eu.s 			page 33


 1226              		.loc 1 433 0
 1227 005c 0DE0     		b	.L87
 1228              	.LVL178:
 1229              	.L83:
 436:..\u8g2\csrc/u8x8_cad.c **** 	u8x8->i2c_address = 0x078;
 1230              		.loc 1 436 0
 1231 005e 2023     		movs	r3, #32
 1232 0060 C35C     		ldrb	r3, [r0, r3]
 1233 0062 FF2B     		cmp	r3, #255
 1234 0064 02D1     		bne	.L89
 437:..\u8g2\csrc/u8x8_cad.c ****       return u8x8->byte_cb(u8x8, msg, arg_int, arg_ptr);
 1235              		.loc 1 437 0
 1236 0066 7822     		movs	r2, #120
 1237 0068 DF3B     		subs	r3, r3, #223
 1238 006a C254     		strb	r2, [r0, r3]
 1239              	.L89:
 438:..\u8g2\csrc/u8x8_cad.c ****     case U8X8_MSG_CAD_START_TRANSFER:
 1240              		.loc 1 438 0
 1241 006c 2F69     		ldr	r7, [r5, #16]
 1242 006e 3300     		movs	r3, r6
 1243 0070 2200     		movs	r2, r4
 1244 0072 2800     		movs	r0, r5
 1245              	.LVL179:
 1246 0074 B847     		blx	r7
 1247              	.LVL180:
 1248 0076 00E0     		b	.L87
 1249              	.LVL181:
 1250              	.L90:
 1251              		.loc 1 446 0
 1252 0078 0120     		movs	r0, #1
 1253              	.LVL182:
 1254              	.L87:
 447:..\u8g2\csrc/u8x8_cad.c **** }
 1255              		.loc 1 447 0
 1256              		@ sp needed
 1257              	.LVL183:
 1258 007a F8BD     		pop	{r3, r4, r5, r6, r7, pc}
 1259              	.L92:
 1260              		.align	2
 1261              	.L91:
 1262 007c 90000000 		.word	.L84
 1263              		.cfi_endproc
 1264              	.LFE13:
 1265              		.size	u8x8_cad_ssd13xx_i2c, .-u8x8_cad_ssd13xx_i2c
 1266              		.section	.text.u8x8_cad_ld7032_i2c,"ax",%progbits
 1267              		.align	2
 1268              		.global	u8x8_cad_ld7032_i2c
 1269              		.code	16
 1270              		.thumb_func
 1271              		.type	u8x8_cad_ld7032_i2c, %function
 1272              	u8x8_cad_ld7032_i2c:
 1273              	.LFB14:
 448:..\u8g2\csrc/u8x8_cad.c **** 
 449:..\u8g2\csrc/u8x8_cad.c **** /* cad i2c procedure for the ld7032 controller */
 450:..\u8g2\csrc/u8x8_cad.c **** uint8_t u8x8_cad_ld7032_i2c(u8x8_t *u8x8, uint8_t msg, uint8_t arg_int, void *arg_ptr)
 451:..\u8g2\csrc/u8x8_cad.c **** {
 1274              		.loc 1 451 0
ARM GAS  C:\Users\gjl\AppData\Local\Temp\ccb0p5eu.s 			page 34


 1275              		.cfi_startproc
 1276              		@ args = 0, pretend = 0, frame = 0
 1277              		@ frame_needed = 0, uses_anonymous_args = 0
 1278              	.LVL184:
 1279 0000 F8B5     		push	{r3, r4, r5, r6, r7, lr}
 1280              		.cfi_def_cfa_offset 24
 1281              		.cfi_offset 3, -24
 1282              		.cfi_offset 4, -20
 1283              		.cfi_offset 5, -16
 1284              		.cfi_offset 6, -12
 1285              		.cfi_offset 7, -8
 1286              		.cfi_offset 14, -4
 1287 0002 0400     		movs	r4, r0
 1288 0004 1500     		movs	r5, r2
 1289 0006 1E00     		movs	r6, r3
 452:..\u8g2\csrc/u8x8_cad.c ****   static uint8_t in_transfer = 0;
 453:..\u8g2\csrc/u8x8_cad.c ****   uint8_t *p;
 454:..\u8g2\csrc/u8x8_cad.c ****   switch(msg)
 1290              		.loc 1 454 0
 1291 0008 0B00     		movs	r3, r1
 1292              	.LVL185:
 1293 000a 143B     		subs	r3, r3, #20
 1294 000c DAB2     		uxtb	r2, r3
 1295              	.LVL186:
 1296 000e 052A     		cmp	r2, #5
 1297 0010 51D8     		bhi	.L105
 1298 0012 9300     		lsls	r3, r2, #2
 1299 0014 2A4A     		ldr	r2, .L107
 1300 0016 D358     		ldr	r3, [r2, r3]
 1301 0018 9F46     		mov	pc, r3
 1302              		.section	.rodata
 1303              		.align	2
 1304              	.L96:
 1305 00a8 82000000 		.word	.L95
 1306 00ac 1A000000 		.word	.L97
 1307 00b0 3E000000 		.word	.L98
 1308 00b4 6E000000 		.word	.L99
 1309 00b8 9C000000 		.word	.L100
 1310 00bc A6000000 		.word	.L101
 1311              		.section	.text.u8x8_cad_ld7032_i2c
 1312              	.L97:
 455:..\u8g2\csrc/u8x8_cad.c ****   {
 456:..\u8g2\csrc/u8x8_cad.c ****     case U8X8_MSG_CAD_SEND_CMD:
 457:..\u8g2\csrc/u8x8_cad.c ****       if ( in_transfer != 0 )
 1313              		.loc 1 457 0
 1314 001a 2A4B     		ldr	r3, .L107+4
 1315 001c 1B7C     		ldrb	r3, [r3, #16]
 1316 001e 002B     		cmp	r3, #0
 1317 0020 01D0     		beq	.L102
 458:..\u8g2\csrc/u8x8_cad.c **** 	u8x8_byte_EndTransfer(u8x8); 
 1318              		.loc 1 458 0
 1319 0022 FFF7FEFF 		bl	u8x8_byte_EndTransfer
 1320              	.LVL187:
 1321              	.L102:
 459:..\u8g2\csrc/u8x8_cad.c ****       u8x8_byte_StartTransfer(u8x8);
 1322              		.loc 1 459 0
 1323 0026 2000     		movs	r0, r4
ARM GAS  C:\Users\gjl\AppData\Local\Temp\ccb0p5eu.s 			page 35


 1324 0028 FFF7FEFF 		bl	u8x8_byte_StartTransfer
 1325              	.LVL188:
 460:..\u8g2\csrc/u8x8_cad.c ****       u8x8_byte_SendByte(u8x8, arg_int);
 1326              		.loc 1 460 0
 1327 002c 2900     		movs	r1, r5
 1328 002e 2000     		movs	r0, r4
 1329 0030 FFF7FEFF 		bl	u8x8_byte_SendByte
 1330              	.LVL189:
 461:..\u8g2\csrc/u8x8_cad.c ****       in_transfer = 1;
 1331              		.loc 1 461 0
 1332 0034 0122     		movs	r2, #1
 1333 0036 234B     		ldr	r3, .L107+4
 1334 0038 1A74     		strb	r2, [r3, #16]
 462:..\u8g2\csrc/u8x8_cad.c ****       break;
 463:..\u8g2\csrc/u8x8_cad.c ****     case U8X8_MSG_CAD_SEND_ARG:
 464:..\u8g2\csrc/u8x8_cad.c ****       u8x8_byte_SendByte(u8x8, arg_int);
 465:..\u8g2\csrc/u8x8_cad.c ****       break;
 466:..\u8g2\csrc/u8x8_cad.c ****     case U8X8_MSG_CAD_SEND_DATA:
 467:..\u8g2\csrc/u8x8_cad.c ****       //u8x8_byte_SetDC(u8x8, 1);
 468:..\u8g2\csrc/u8x8_cad.c ****     
 469:..\u8g2\csrc/u8x8_cad.c ****       /* the FeatherWing OLED with the 32u4 transfer of long byte */
 470:..\u8g2\csrc/u8x8_cad.c ****       /* streams was not possible. This is broken down to */
 471:..\u8g2\csrc/u8x8_cad.c ****       /* smaller streams, 32 seems to be the limit... */
 472:..\u8g2\csrc/u8x8_cad.c ****       /* I guess this is related to the size of the Wire buffers in Arduino */
 473:..\u8g2\csrc/u8x8_cad.c ****       /* Unfortunately, this can not be handled in the byte level drivers, */
 474:..\u8g2\csrc/u8x8_cad.c ****       /* so this is done here. Even further, only 24 bytes will be sent, */
 475:..\u8g2\csrc/u8x8_cad.c ****       /* because there will be another byte (DC) required during the transfer */
 476:..\u8g2\csrc/u8x8_cad.c ****       p = arg_ptr;
 477:..\u8g2\csrc/u8x8_cad.c ****        while( arg_int > 24 )
 478:..\u8g2\csrc/u8x8_cad.c ****       {
 479:..\u8g2\csrc/u8x8_cad.c **** 	u8x8->byte_cb(u8x8, U8X8_MSG_CAD_SEND_DATA, 24, p);
 480:..\u8g2\csrc/u8x8_cad.c **** 	arg_int-=24;
 481:..\u8g2\csrc/u8x8_cad.c **** 	p+=24;
 482:..\u8g2\csrc/u8x8_cad.c **** 	u8x8_byte_EndTransfer(u8x8); 
 483:..\u8g2\csrc/u8x8_cad.c **** 	u8x8_byte_StartTransfer(u8x8);
 484:..\u8g2\csrc/u8x8_cad.c **** 	u8x8_byte_SendByte(u8x8, 0x08);	/* data write for LD7032 */
 485:..\u8g2\csrc/u8x8_cad.c ****       }
 486:..\u8g2\csrc/u8x8_cad.c ****       u8x8->byte_cb(u8x8, U8X8_MSG_CAD_SEND_DATA, arg_int, p);
 487:..\u8g2\csrc/u8x8_cad.c ****       break;
 488:..\u8g2\csrc/u8x8_cad.c ****     case U8X8_MSG_CAD_INIT:
 489:..\u8g2\csrc/u8x8_cad.c ****       /* apply default i2c adr if required so that the start transfer msg can use this */
 490:..\u8g2\csrc/u8x8_cad.c ****       if ( u8x8->i2c_address == 255 )
 491:..\u8g2\csrc/u8x8_cad.c **** 	u8x8->i2c_address = 0x060;
 492:..\u8g2\csrc/u8x8_cad.c ****       return u8x8->byte_cb(u8x8, msg, arg_int, arg_ptr);
 493:..\u8g2\csrc/u8x8_cad.c ****     case U8X8_MSG_CAD_START_TRANSFER:
 494:..\u8g2\csrc/u8x8_cad.c ****       in_transfer = 0;
 495:..\u8g2\csrc/u8x8_cad.c ****       break;
 496:..\u8g2\csrc/u8x8_cad.c ****     case U8X8_MSG_CAD_END_TRANSFER:
 497:..\u8g2\csrc/u8x8_cad.c ****       if ( in_transfer != 0 )
 498:..\u8g2\csrc/u8x8_cad.c **** 	u8x8_byte_EndTransfer(u8x8); 
 499:..\u8g2\csrc/u8x8_cad.c ****       break;
 500:..\u8g2\csrc/u8x8_cad.c ****     default:
 501:..\u8g2\csrc/u8x8_cad.c ****       return 0;
 502:..\u8g2\csrc/u8x8_cad.c ****   }
 503:..\u8g2\csrc/u8x8_cad.c ****   return 1;
 1335              		.loc 1 503 0
 1336 003a 0120     		movs	r0, #1
ARM GAS  C:\Users\gjl\AppData\Local\Temp\ccb0p5eu.s 			page 36


 462:..\u8g2\csrc/u8x8_cad.c ****       break;
 1337              		.loc 1 462 0
 1338 003c 3EE0     		b	.L94
 1339              	.LVL190:
 1340              	.L98:
 464:..\u8g2\csrc/u8x8_cad.c ****       break;
 1341              		.loc 1 464 0
 1342 003e 2900     		movs	r1, r5
 1343              	.LVL191:
 1344 0040 FFF7FEFF 		bl	u8x8_byte_SendByte
 1345              	.LVL192:
 1346              		.loc 1 503 0
 1347 0044 0120     		movs	r0, #1
 465:..\u8g2\csrc/u8x8_cad.c ****     case U8X8_MSG_CAD_SEND_DATA:
 1348              		.loc 1 465 0
 1349 0046 39E0     		b	.L94
 1350              	.LVL193:
 1351              	.L103:
 479:..\u8g2\csrc/u8x8_cad.c **** 	arg_int-=24;
 1352              		.loc 1 479 0
 1353 0048 3300     		movs	r3, r6
 1354 004a 1822     		movs	r2, #24
 1355 004c 1721     		movs	r1, #23
 1356 004e 2000     		movs	r0, r4
 1357 0050 2769     		ldr	r7, [r4, #16]
 1358 0052 B847     		blx	r7
 1359              	.LVL194:
 480:..\u8g2\csrc/u8x8_cad.c **** 	p+=24;
 1360              		.loc 1 480 0
 1361 0054 183D     		subs	r5, r5, #24
 1362              	.LVL195:
 1363 0056 EDB2     		uxtb	r5, r5
 1364              	.LVL196:
 481:..\u8g2\csrc/u8x8_cad.c **** 	u8x8_byte_EndTransfer(u8x8); 
 1365              		.loc 1 481 0
 1366 0058 1836     		adds	r6, r6, #24
 1367              	.LVL197:
 482:..\u8g2\csrc/u8x8_cad.c **** 	u8x8_byte_StartTransfer(u8x8);
 1368              		.loc 1 482 0
 1369 005a 2000     		movs	r0, r4
 1370 005c FFF7FEFF 		bl	u8x8_byte_EndTransfer
 1371              	.LVL198:
 483:..\u8g2\csrc/u8x8_cad.c **** 	u8x8_byte_SendByte(u8x8, 0x08);	/* data write for LD7032 */
 1372              		.loc 1 483 0
 1373 0060 2000     		movs	r0, r4
 1374 0062 FFF7FEFF 		bl	u8x8_byte_StartTransfer
 1375              	.LVL199:
 484:..\u8g2\csrc/u8x8_cad.c ****       }
 1376              		.loc 1 484 0
 1377 0066 0821     		movs	r1, #8
 1378 0068 2000     		movs	r0, r4
 1379 006a FFF7FEFF 		bl	u8x8_byte_SendByte
 1380              	.LVL200:
 1381              	.L99:
 477:..\u8g2\csrc/u8x8_cad.c ****       {
 1382              		.loc 1 477 0
 1383 006e 182D     		cmp	r5, #24
ARM GAS  C:\Users\gjl\AppData\Local\Temp\ccb0p5eu.s 			page 37


 1384 0070 EAD8     		bhi	.L103
 486:..\u8g2\csrc/u8x8_cad.c ****       break;
 1385              		.loc 1 486 0
 1386 0072 2769     		ldr	r7, [r4, #16]
 1387 0074 3300     		movs	r3, r6
 1388 0076 2A00     		movs	r2, r5
 1389 0078 1721     		movs	r1, #23
 1390 007a 2000     		movs	r0, r4
 1391 007c B847     		blx	r7
 1392              	.LVL201:
 1393              		.loc 1 503 0
 1394 007e 0120     		movs	r0, #1
 487:..\u8g2\csrc/u8x8_cad.c ****     case U8X8_MSG_CAD_INIT:
 1395              		.loc 1 487 0
 1396 0080 1CE0     		b	.L94
 1397              	.LVL202:
 1398              	.L95:
 490:..\u8g2\csrc/u8x8_cad.c **** 	u8x8->i2c_address = 0x060;
 1399              		.loc 1 490 0
 1400 0082 2023     		movs	r3, #32
 1401 0084 C35C     		ldrb	r3, [r0, r3]
 1402 0086 FF2B     		cmp	r3, #255
 1403 0088 02D1     		bne	.L104
 491:..\u8g2\csrc/u8x8_cad.c ****       return u8x8->byte_cb(u8x8, msg, arg_int, arg_ptr);
 1404              		.loc 1 491 0
 1405 008a 6022     		movs	r2, #96
 1406 008c DF3B     		subs	r3, r3, #223
 1407 008e C254     		strb	r2, [r0, r3]
 1408              	.L104:
 492:..\u8g2\csrc/u8x8_cad.c ****     case U8X8_MSG_CAD_START_TRANSFER:
 1409              		.loc 1 492 0
 1410 0090 2769     		ldr	r7, [r4, #16]
 1411 0092 3300     		movs	r3, r6
 1412 0094 2A00     		movs	r2, r5
 1413 0096 2000     		movs	r0, r4
 1414              	.LVL203:
 1415 0098 B847     		blx	r7
 1416              	.LVL204:
 1417 009a 0FE0     		b	.L94
 1418              	.LVL205:
 1419              	.L100:
 494:..\u8g2\csrc/u8x8_cad.c ****       break;
 1420              		.loc 1 494 0
 1421 009c 0022     		movs	r2, #0
 1422 009e 094B     		ldr	r3, .L107+4
 1423 00a0 1A74     		strb	r2, [r3, #16]
 1424              		.loc 1 503 0
 1425 00a2 0120     		movs	r0, #1
 1426              	.LVL206:
 495:..\u8g2\csrc/u8x8_cad.c ****     case U8X8_MSG_CAD_END_TRANSFER:
 1427              		.loc 1 495 0
 1428 00a4 0AE0     		b	.L94
 1429              	.LVL207:
 1430              	.L101:
 497:..\u8g2\csrc/u8x8_cad.c **** 	u8x8_byte_EndTransfer(u8x8); 
 1431              		.loc 1 497 0
 1432 00a6 074B     		ldr	r3, .L107+4
ARM GAS  C:\Users\gjl\AppData\Local\Temp\ccb0p5eu.s 			page 38


 1433 00a8 1B7C     		ldrb	r3, [r3, #16]
 1434 00aa 002B     		cmp	r3, #0
 1435 00ac 05D0     		beq	.L106
 498:..\u8g2\csrc/u8x8_cad.c ****       break;
 1436              		.loc 1 498 0
 1437 00ae FFF7FEFF 		bl	u8x8_byte_EndTransfer
 1438              	.LVL208:
 1439              		.loc 1 503 0
 1440 00b2 0120     		movs	r0, #1
 1441 00b4 02E0     		b	.L94
 1442              	.LVL209:
 1443              	.L105:
 501:..\u8g2\csrc/u8x8_cad.c ****   }
 1444              		.loc 1 501 0
 1445 00b6 0020     		movs	r0, #0
 1446              	.LVL210:
 1447 00b8 00E0     		b	.L94
 1448              	.LVL211:
 1449              	.L106:
 1450              		.loc 1 503 0
 1451 00ba 0120     		movs	r0, #1
 1452              	.LVL212:
 1453              	.L94:
 504:..\u8g2\csrc/u8x8_cad.c **** }
 1454              		.loc 1 504 0
 1455              		@ sp needed
 1456              	.LVL213:
 1457 00bc F8BD     		pop	{r3, r4, r5, r6, r7, pc}
 1458              	.L108:
 1459 00be C046     		.align	2
 1460              	.L107:
 1461 00c0 A8000000 		.word	.L96
 1462 00c4 00000000 		.word	.LANCHOR0
 1463              		.cfi_endproc
 1464              	.LFE14:
 1465              		.size	u8x8_cad_ld7032_i2c, .-u8x8_cad_ld7032_i2c
 1466              		.section	.text.u8x8_cad_uc16xx_i2c,"ax",%progbits
 1467              		.align	2
 1468              		.global	u8x8_cad_uc16xx_i2c
 1469              		.code	16
 1470              		.thumb_func
 1471              		.type	u8x8_cad_uc16xx_i2c, %function
 1472              	u8x8_cad_uc16xx_i2c:
 1473              	.LFB15:
 505:..\u8g2\csrc/u8x8_cad.c **** 
 506:..\u8g2\csrc/u8x8_cad.c **** /* cad procedure for the UC16xx family in I2C mode */
 507:..\u8g2\csrc/u8x8_cad.c **** /* u8x8_byte_SetDC is not used */
 508:..\u8g2\csrc/u8x8_cad.c **** /* DC bit is encoded into the adr byte */
 509:..\u8g2\csrc/u8x8_cad.c **** uint8_t u8x8_cad_uc16xx_i2c(u8x8_t *u8x8, uint8_t msg, uint8_t arg_int, void *arg_ptr)
 510:..\u8g2\csrc/u8x8_cad.c **** {
 1474              		.loc 1 510 0
 1475              		.cfi_startproc
 1476              		@ args = 0, pretend = 0, frame = 0
 1477              		@ frame_needed = 0, uses_anonymous_args = 0
 1478              	.LVL214:
 1479 0000 F8B5     		push	{r3, r4, r5, r6, r7, lr}
 1480              		.cfi_def_cfa_offset 24
ARM GAS  C:\Users\gjl\AppData\Local\Temp\ccb0p5eu.s 			page 39


 1481              		.cfi_offset 3, -24
 1482              		.cfi_offset 4, -20
 1483              		.cfi_offset 5, -16
 1484              		.cfi_offset 6, -12
 1485              		.cfi_offset 7, -8
 1486              		.cfi_offset 14, -4
 1487 0002 0500     		movs	r5, r0
 1488 0004 1400     		movs	r4, r2
 1489 0006 1E00     		movs	r6, r3
 511:..\u8g2\csrc/u8x8_cad.c ****   static uint8_t in_transfer = 0;	
 512:..\u8g2\csrc/u8x8_cad.c ****   static uint8_t is_data = 0;
 513:..\u8g2\csrc/u8x8_cad.c ****   uint8_t *p;
 514:..\u8g2\csrc/u8x8_cad.c ****   switch(msg)
 1490              		.loc 1 514 0
 1491 0008 0B00     		movs	r3, r1
 1492              	.LVL215:
 1493 000a 143B     		subs	r3, r3, #20
 1494 000c DAB2     		uxtb	r2, r3
 1495              	.LVL216:
 1496 000e 052A     		cmp	r2, #5
 1497 0010 6BD8     		bhi	.L124
 1498 0012 9300     		lsls	r3, r2, #2
 1499 0014 364A     		ldr	r2, .L125
 1500 0016 D358     		ldr	r3, [r2, r3]
 1501 0018 9F46     		mov	pc, r3
 1502              		.section	.rodata
 1503              		.align	2
 1504              	.L112:
 1505 00c0 B0000000 		.word	.L111
 1506 00c4 1A000000 		.word	.L113
 1507 00c8 1A000000 		.word	.L113
 1508 00cc 42000000 		.word	.L114
 1509 00d0 CA000000 		.word	.L115
 1510 00d4 D4000000 		.word	.L116
 1511              		.section	.text.u8x8_cad_uc16xx_i2c
 1512              	.L113:
 515:..\u8g2\csrc/u8x8_cad.c ****   {
 516:..\u8g2\csrc/u8x8_cad.c ****     case U8X8_MSG_CAD_SEND_CMD:
 517:..\u8g2\csrc/u8x8_cad.c ****     case U8X8_MSG_CAD_SEND_ARG:
 518:..\u8g2\csrc/u8x8_cad.c ****       if ( in_transfer != 0 )
 1513              		.loc 1 518 0
 1514 001a 364B     		ldr	r3, .L125+4
 1515 001c 5B7C     		ldrb	r3, [r3, #17]
 1516 001e 002B     		cmp	r3, #0
 1517 0020 06D1     		bne	.L117
 519:..\u8g2\csrc/u8x8_cad.c ****       {
 520:..\u8g2\csrc/u8x8_cad.c **** 	if ( is_data != 0 )
 521:..\u8g2\csrc/u8x8_cad.c **** 	{
 522:..\u8g2\csrc/u8x8_cad.c **** 	  /* transfer mode is active, but data transfer */
 523:..\u8g2\csrc/u8x8_cad.c **** 	  u8x8_byte_EndTransfer(u8x8); 
 524:..\u8g2\csrc/u8x8_cad.c **** 	  /* clear the lowest two bits of the adr */
 525:..\u8g2\csrc/u8x8_cad.c **** 	  u8x8_SetI2CAddress( u8x8, u8x8_GetI2CAddress(u8x8)&0x0fc );
 526:..\u8g2\csrc/u8x8_cad.c **** 	  u8x8_byte_StartTransfer(u8x8); 
 527:..\u8g2\csrc/u8x8_cad.c **** 	}
 528:..\u8g2\csrc/u8x8_cad.c ****       }
 529:..\u8g2\csrc/u8x8_cad.c ****       else
 530:..\u8g2\csrc/u8x8_cad.c ****       {
ARM GAS  C:\Users\gjl\AppData\Local\Temp\ccb0p5eu.s 			page 40


 531:..\u8g2\csrc/u8x8_cad.c **** 	/* clear the lowest two bits of the adr */
 532:..\u8g2\csrc/u8x8_cad.c **** 	u8x8_SetI2CAddress( u8x8, u8x8_GetI2CAddress(u8x8)&0x0fc );
 1518              		.loc 1 532 0
 1519 0022 2022     		movs	r2, #32
 1520 0024 835C     		ldrb	r3, [r0, r2]
 1521 0026 0321     		movs	r1, #3
 1522              	.LVL217:
 1523 0028 8B43     		bics	r3, r1
 1524 002a 8354     		strb	r3, [r0, r2]
 533:..\u8g2\csrc/u8x8_cad.c **** 	u8x8_byte_StartTransfer(u8x8);
 1525              		.loc 1 533 0
 1526 002c FFF7FEFF 		bl	u8x8_byte_StartTransfer
 1527              	.LVL218:
 1528              	.L117:
 534:..\u8g2\csrc/u8x8_cad.c ****       }
 535:..\u8g2\csrc/u8x8_cad.c ****       u8x8_byte_SendByte(u8x8, arg_int);
 1529              		.loc 1 535 0
 1530 0030 2100     		movs	r1, r4
 1531 0032 2800     		movs	r0, r5
 1532 0034 FFF7FEFF 		bl	u8x8_byte_SendByte
 1533              	.LVL219:
 536:..\u8g2\csrc/u8x8_cad.c ****       in_transfer = 1;
 1534              		.loc 1 536 0
 1535 0038 0122     		movs	r2, #1
 1536 003a 2E4B     		ldr	r3, .L125+4
 1537 003c 5A74     		strb	r2, [r3, #17]
 537:..\u8g2\csrc/u8x8_cad.c ****       break;
 538:..\u8g2\csrc/u8x8_cad.c ****     case U8X8_MSG_CAD_SEND_DATA:
 539:..\u8g2\csrc/u8x8_cad.c ****       if ( in_transfer != 0 )
 540:..\u8g2\csrc/u8x8_cad.c ****       {
 541:..\u8g2\csrc/u8x8_cad.c **** 	if ( is_data == 0 )
 542:..\u8g2\csrc/u8x8_cad.c **** 	{
 543:..\u8g2\csrc/u8x8_cad.c **** 	  /* transfer mode is active, but data transfer */
 544:..\u8g2\csrc/u8x8_cad.c **** 	  u8x8_byte_EndTransfer(u8x8); 
 545:..\u8g2\csrc/u8x8_cad.c **** 	  /* clear the lowest two bits of the adr */
 546:..\u8g2\csrc/u8x8_cad.c **** 	  u8x8_SetI2CAddress( u8x8, (u8x8_GetI2CAddress(u8x8)&0x0fc)|2 );
 547:..\u8g2\csrc/u8x8_cad.c **** 	  u8x8_byte_StartTransfer(u8x8); 
 548:..\u8g2\csrc/u8x8_cad.c **** 	}
 549:..\u8g2\csrc/u8x8_cad.c ****       }
 550:..\u8g2\csrc/u8x8_cad.c ****       else
 551:..\u8g2\csrc/u8x8_cad.c ****       {
 552:..\u8g2\csrc/u8x8_cad.c **** 	/* clear the lowest two bits of the adr */
 553:..\u8g2\csrc/u8x8_cad.c **** 	u8x8_SetI2CAddress( u8x8, (u8x8_GetI2CAddress(u8x8)&0x0fc)|2 );
 554:..\u8g2\csrc/u8x8_cad.c **** 	u8x8_byte_StartTransfer(u8x8);
 555:..\u8g2\csrc/u8x8_cad.c ****       }
 556:..\u8g2\csrc/u8x8_cad.c ****       in_transfer = 1;
 557:..\u8g2\csrc/u8x8_cad.c ****       
 558:..\u8g2\csrc/u8x8_cad.c ****       p = arg_ptr;
 559:..\u8g2\csrc/u8x8_cad.c ****       while( arg_int > 24 )
 560:..\u8g2\csrc/u8x8_cad.c ****       {
 561:..\u8g2\csrc/u8x8_cad.c **** 	u8x8->byte_cb(u8x8, U8X8_MSG_CAD_SEND_DATA, 24, p);
 562:..\u8g2\csrc/u8x8_cad.c **** 	arg_int-=24;
 563:..\u8g2\csrc/u8x8_cad.c **** 	p+=24;
 564:..\u8g2\csrc/u8x8_cad.c **** 	u8x8_byte_EndTransfer(u8x8); 
 565:..\u8g2\csrc/u8x8_cad.c **** 	u8x8_byte_StartTransfer(u8x8);
 566:..\u8g2\csrc/u8x8_cad.c ****       }
 567:..\u8g2\csrc/u8x8_cad.c ****       u8x8->byte_cb(u8x8, U8X8_MSG_CAD_SEND_DATA, arg_int, p);
ARM GAS  C:\Users\gjl\AppData\Local\Temp\ccb0p5eu.s 			page 41


 568:..\u8g2\csrc/u8x8_cad.c ****       
 569:..\u8g2\csrc/u8x8_cad.c ****       break;
 570:..\u8g2\csrc/u8x8_cad.c ****     case U8X8_MSG_CAD_INIT:
 571:..\u8g2\csrc/u8x8_cad.c ****       /* apply default i2c adr if required so that the start transfer msg can use this */
 572:..\u8g2\csrc/u8x8_cad.c ****       if ( u8x8->i2c_address == 255 )
 573:..\u8g2\csrc/u8x8_cad.c **** 	u8x8->i2c_address = 0x070;
 574:..\u8g2\csrc/u8x8_cad.c ****       return u8x8->byte_cb(u8x8, msg, arg_int, arg_ptr);
 575:..\u8g2\csrc/u8x8_cad.c ****     case U8X8_MSG_CAD_START_TRANSFER:
 576:..\u8g2\csrc/u8x8_cad.c ****       in_transfer = 0;    
 577:..\u8g2\csrc/u8x8_cad.c ****       /* actual start is delayed, because we do not whether this is data or cmd transfer */
 578:..\u8g2\csrc/u8x8_cad.c ****       break;
 579:..\u8g2\csrc/u8x8_cad.c ****     case U8X8_MSG_CAD_END_TRANSFER:
 580:..\u8g2\csrc/u8x8_cad.c ****       if ( in_transfer != 0 )
 581:..\u8g2\csrc/u8x8_cad.c **** 	u8x8_byte_EndTransfer(u8x8);
 582:..\u8g2\csrc/u8x8_cad.c ****       in_transfer = 0;
 583:..\u8g2\csrc/u8x8_cad.c ****       break;
 584:..\u8g2\csrc/u8x8_cad.c ****     default:
 585:..\u8g2\csrc/u8x8_cad.c ****       return 0;
 586:..\u8g2\csrc/u8x8_cad.c ****   }
 587:..\u8g2\csrc/u8x8_cad.c ****   return 1;
 1538              		.loc 1 587 0
 1539 003e 0120     		movs	r0, #1
 537:..\u8g2\csrc/u8x8_cad.c ****       break;
 1540              		.loc 1 537 0
 1541 0040 54E0     		b	.L110
 1542              	.LVL220:
 1543              	.L114:
 539:..\u8g2\csrc/u8x8_cad.c ****       {
 1544              		.loc 1 539 0
 1545 0042 2C4B     		ldr	r3, .L125+4
 1546 0044 5B7C     		ldrb	r3, [r3, #17]
 1547 0046 002B     		cmp	r3, #0
 1548 0048 0CD0     		beq	.L118
 544:..\u8g2\csrc/u8x8_cad.c **** 	  /* clear the lowest two bits of the adr */
 1549              		.loc 1 544 0
 1550 004a FFF7FEFF 		bl	u8x8_byte_EndTransfer
 1551              	.LVL221:
 546:..\u8g2\csrc/u8x8_cad.c **** 	  u8x8_byte_StartTransfer(u8x8); 
 1552              		.loc 1 546 0
 1553 004e 2021     		movs	r1, #32
 1554 0050 6B5C     		ldrb	r3, [r5, r1]
 1555 0052 0322     		movs	r2, #3
 1556 0054 9343     		bics	r3, r2
 1557 0056 0222     		movs	r2, #2
 1558 0058 1343     		orrs	r3, r2
 1559 005a 6B54     		strb	r3, [r5, r1]
 547:..\u8g2\csrc/u8x8_cad.c **** 	}
 1560              		.loc 1 547 0
 1561 005c 2800     		movs	r0, r5
 1562 005e FFF7FEFF 		bl	u8x8_byte_StartTransfer
 1563              	.LVL222:
 1564 0062 08E0     		b	.L119
 1565              	.LVL223:
 1566              	.L118:
 553:..\u8g2\csrc/u8x8_cad.c **** 	u8x8_byte_StartTransfer(u8x8);
 1567              		.loc 1 553 0
 1568 0064 2021     		movs	r1, #32
ARM GAS  C:\Users\gjl\AppData\Local\Temp\ccb0p5eu.s 			page 42


 1569              	.LVL224:
 1570 0066 435C     		ldrb	r3, [r0, r1]
 1571 0068 0322     		movs	r2, #3
 1572 006a 9343     		bics	r3, r2
 1573 006c 0222     		movs	r2, #2
 1574 006e 1343     		orrs	r3, r2
 1575 0070 4354     		strb	r3, [r0, r1]
 554:..\u8g2\csrc/u8x8_cad.c ****       }
 1576              		.loc 1 554 0
 1577 0072 FFF7FEFF 		bl	u8x8_byte_StartTransfer
 1578              	.LVL225:
 1579              	.L119:
 556:..\u8g2\csrc/u8x8_cad.c ****       
 1580              		.loc 1 556 0
 1581 0076 0122     		movs	r2, #1
 1582 0078 1E4B     		ldr	r3, .L125+4
 1583 007a 5A74     		strb	r2, [r3, #17]
 1584              	.LVL226:
 559:..\u8g2\csrc/u8x8_cad.c ****       {
 1585              		.loc 1 559 0
 1586 007c 0EE0     		b	.L120
 1587              	.LVL227:
 1588              	.L121:
 561:..\u8g2\csrc/u8x8_cad.c **** 	arg_int-=24;
 1589              		.loc 1 561 0
 1590 007e 3300     		movs	r3, r6
 1591 0080 1822     		movs	r2, #24
 1592 0082 1721     		movs	r1, #23
 1593 0084 2800     		movs	r0, r5
 1594 0086 2F69     		ldr	r7, [r5, #16]
 1595 0088 B847     		blx	r7
 1596              	.LVL228:
 562:..\u8g2\csrc/u8x8_cad.c **** 	p+=24;
 1597              		.loc 1 562 0
 1598 008a 183C     		subs	r4, r4, #24
 1599              	.LVL229:
 1600 008c E4B2     		uxtb	r4, r4
 1601              	.LVL230:
 563:..\u8g2\csrc/u8x8_cad.c **** 	u8x8_byte_EndTransfer(u8x8); 
 1602              		.loc 1 563 0
 1603 008e 1836     		adds	r6, r6, #24
 1604              	.LVL231:
 564:..\u8g2\csrc/u8x8_cad.c **** 	u8x8_byte_StartTransfer(u8x8);
 1605              		.loc 1 564 0
 1606 0090 2800     		movs	r0, r5
 1607 0092 FFF7FEFF 		bl	u8x8_byte_EndTransfer
 1608              	.LVL232:
 565:..\u8g2\csrc/u8x8_cad.c ****       }
 1609              		.loc 1 565 0
 1610 0096 2800     		movs	r0, r5
 1611 0098 FFF7FEFF 		bl	u8x8_byte_StartTransfer
 1612              	.LVL233:
 1613              	.L120:
 559:..\u8g2\csrc/u8x8_cad.c ****       {
 1614              		.loc 1 559 0
 1615 009c 182C     		cmp	r4, #24
 1616 009e EED8     		bhi	.L121
ARM GAS  C:\Users\gjl\AppData\Local\Temp\ccb0p5eu.s 			page 43


 567:..\u8g2\csrc/u8x8_cad.c ****       
 1617              		.loc 1 567 0
 1618 00a0 2F69     		ldr	r7, [r5, #16]
 1619 00a2 3300     		movs	r3, r6
 1620 00a4 2200     		movs	r2, r4
 1621 00a6 1721     		movs	r1, #23
 1622 00a8 2800     		movs	r0, r5
 1623 00aa B847     		blx	r7
 1624              	.LVL234:
 1625              		.loc 1 587 0
 1626 00ac 0120     		movs	r0, #1
 569:..\u8g2\csrc/u8x8_cad.c ****     case U8X8_MSG_CAD_INIT:
 1627              		.loc 1 569 0
 1628 00ae 1DE0     		b	.L110
 1629              	.LVL235:
 1630              	.L111:
 572:..\u8g2\csrc/u8x8_cad.c **** 	u8x8->i2c_address = 0x070;
 1631              		.loc 1 572 0
 1632 00b0 2023     		movs	r3, #32
 1633 00b2 C35C     		ldrb	r3, [r0, r3]
 1634 00b4 FF2B     		cmp	r3, #255
 1635 00b6 02D1     		bne	.L122
 573:..\u8g2\csrc/u8x8_cad.c ****       return u8x8->byte_cb(u8x8, msg, arg_int, arg_ptr);
 1636              		.loc 1 573 0
 1637 00b8 7022     		movs	r2, #112
 1638 00ba DF3B     		subs	r3, r3, #223
 1639 00bc C254     		strb	r2, [r0, r3]
 1640              	.L122:
 574:..\u8g2\csrc/u8x8_cad.c ****     case U8X8_MSG_CAD_START_TRANSFER:
 1641              		.loc 1 574 0
 1642 00be 2F69     		ldr	r7, [r5, #16]
 1643 00c0 3300     		movs	r3, r6
 1644 00c2 2200     		movs	r2, r4
 1645 00c4 2800     		movs	r0, r5
 1646              	.LVL236:
 1647 00c6 B847     		blx	r7
 1648              	.LVL237:
 1649 00c8 10E0     		b	.L110
 1650              	.LVL238:
 1651              	.L115:
 576:..\u8g2\csrc/u8x8_cad.c ****       /* actual start is delayed, because we do not whether this is data or cmd transfer */
 1652              		.loc 1 576 0
 1653 00ca 0022     		movs	r2, #0
 1654 00cc 094B     		ldr	r3, .L125+4
 1655 00ce 5A74     		strb	r2, [r3, #17]
 1656              		.loc 1 587 0
 1657 00d0 0120     		movs	r0, #1
 1658              	.LVL239:
 578:..\u8g2\csrc/u8x8_cad.c ****     case U8X8_MSG_CAD_END_TRANSFER:
 1659              		.loc 1 578 0
 1660 00d2 0BE0     		b	.L110
 1661              	.LVL240:
 1662              	.L116:
 580:..\u8g2\csrc/u8x8_cad.c **** 	u8x8_byte_EndTransfer(u8x8);
 1663              		.loc 1 580 0
 1664 00d4 074B     		ldr	r3, .L125+4
 1665 00d6 5B7C     		ldrb	r3, [r3, #17]
ARM GAS  C:\Users\gjl\AppData\Local\Temp\ccb0p5eu.s 			page 44


 1666 00d8 002B     		cmp	r3, #0
 1667 00da 01D0     		beq	.L123
 581:..\u8g2\csrc/u8x8_cad.c ****       in_transfer = 0;
 1668              		.loc 1 581 0
 1669 00dc FFF7FEFF 		bl	u8x8_byte_EndTransfer
 1670              	.LVL241:
 1671              	.L123:
 582:..\u8g2\csrc/u8x8_cad.c ****       break;
 1672              		.loc 1 582 0
 1673 00e0 0022     		movs	r2, #0
 1674 00e2 044B     		ldr	r3, .L125+4
 1675 00e4 5A74     		strb	r2, [r3, #17]
 1676              		.loc 1 587 0
 1677 00e6 0120     		movs	r0, #1
 583:..\u8g2\csrc/u8x8_cad.c ****     default:
 1678              		.loc 1 583 0
 1679 00e8 00E0     		b	.L110
 1680              	.LVL242:
 1681              	.L124:
 585:..\u8g2\csrc/u8x8_cad.c ****   }
 1682              		.loc 1 585 0
 1683 00ea 0020     		movs	r0, #0
 1684              	.LVL243:
 1685              	.L110:
 588:..\u8g2\csrc/u8x8_cad.c **** }
 1686              		.loc 1 588 0
 1687              		@ sp needed
 1688              	.LVL244:
 1689 00ec F8BD     		pop	{r3, r4, r5, r6, r7, pc}
 1690              	.L126:
 1691 00ee C046     		.align	2
 1692              	.L125:
 1693 00f0 C0000000 		.word	.L112
 1694 00f4 00000000 		.word	.LANCHOR0
 1695              		.cfi_endproc
 1696              	.LFE15:
 1697              		.size	u8x8_cad_uc16xx_i2c, .-u8x8_cad_uc16xx_i2c
 1698              		.bss
 1699              		.align	2
 1700              		.set	.LANCHOR0,. + 0
 1701              		.type	buf.4972, %object
 1702              		.size	buf.4972, 16
 1703              	buf.4972:
 1704 0000 00000000 		.space	16
 1704      00000000 
 1704      00000000 
 1704      00000000 
 1705              		.type	in_transfer.5023, %object
 1706              		.size	in_transfer.5023, 1
 1707              	in_transfer.5023:
 1708 0010 00       		.space	1
 1709              		.type	in_transfer.5042, %object
 1710              		.size	in_transfer.5042, 1
 1711              	in_transfer.5042:
 1712 0011 00       		.space	1
 1713              		.text
 1714              	.Letext0:
ARM GAS  C:\Users\gjl\AppData\Local\Temp\ccb0p5eu.s 			page 45


 1715              		.file 2 "c:\\program files (x86)\\cypress\\psoc creator\\4.1\\psoc creator\\import\\gnu\\arm\\5.4.
 1716              		.file 3 "c:\\program files (x86)\\cypress\\psoc creator\\4.1\\psoc creator\\import\\gnu\\arm\\5.4.
 1717              		.file 4 "..\\u8g2\\csrc\\u8x8.h"