ARM GAS  C:\Users\gjl\AppData\Local\Temp\cc7ajbyQ.s 			page 1


   1              		.syntax unified
   2              		.cpu cortex-m0
   3              		.fpu softvfp
   4              		.eabi_attribute 20, 1
   5              		.eabi_attribute 21, 1
   6              		.eabi_attribute 23, 3
   7              		.eabi_attribute 24, 1
   8              		.eabi_attribute 25, 1
   9              		.eabi_attribute 26, 1
  10              		.eabi_attribute 30, 1
  11              		.eabi_attribute 34, 0
  12              		.eabi_attribute 18, 4
  13              		.thumb
  14              		.syntax unified
  15              		.file	"u8x8_d_ssd1306_128x32.c"
  16              		.text
  17              	.Ltext0:
  18              		.cfi_sections	.debug_frame
  19              		.section	.text.u8x8_d_ssd1306_128x32_generic,"ax",%progbits
  20              		.align	2
  21              		.code	16
  22              		.thumb_func
  23              		.type	u8x8_d_ssd1306_128x32_generic, %function
  24              	u8x8_d_ssd1306_128x32_generic:
  25              	.LFB0:
  26              		.file 1 "..\\u8g2\\csrc\\u8x8_d_ssd1306_128x32.c"
   1:..\u8g2\csrc/u8x8_d_ssd1306_128x32.c **** /*
   2:..\u8g2\csrc/u8x8_d_ssd1306_128x32.c **** 
   3:..\u8g2\csrc/u8x8_d_ssd1306_128x32.c ****   u8x8_d_ssd1306_128x32.c
   4:..\u8g2\csrc/u8x8_d_ssd1306_128x32.c **** 
   5:..\u8g2\csrc/u8x8_d_ssd1306_128x32.c ****   Universal 8bit Graphics Library (https://github.com/olikraus/u8g2/)
   6:..\u8g2\csrc/u8x8_d_ssd1306_128x32.c **** 
   7:..\u8g2\csrc/u8x8_d_ssd1306_128x32.c ****   Copyright (c) 2016, olikraus@gmail.com
   8:..\u8g2\csrc/u8x8_d_ssd1306_128x32.c ****   All rights reserved.
   9:..\u8g2\csrc/u8x8_d_ssd1306_128x32.c **** 
  10:..\u8g2\csrc/u8x8_d_ssd1306_128x32.c ****   Redistribution and use in source and binary forms, with or without modification, 
  11:..\u8g2\csrc/u8x8_d_ssd1306_128x32.c ****   are permitted provided that the following conditions are met:
  12:..\u8g2\csrc/u8x8_d_ssd1306_128x32.c **** 
  13:..\u8g2\csrc/u8x8_d_ssd1306_128x32.c ****   * Redistributions of source code must retain the above copyright notice, this list 
  14:..\u8g2\csrc/u8x8_d_ssd1306_128x32.c ****     of conditions and the following disclaimer.
  15:..\u8g2\csrc/u8x8_d_ssd1306_128x32.c ****     
  16:..\u8g2\csrc/u8x8_d_ssd1306_128x32.c ****   * Redistributions in binary form must reproduce the above copyright notice, this 
  17:..\u8g2\csrc/u8x8_d_ssd1306_128x32.c ****     list of conditions and the following disclaimer in the documentation and/or other 
  18:..\u8g2\csrc/u8x8_d_ssd1306_128x32.c ****     materials provided with the distribution.
  19:..\u8g2\csrc/u8x8_d_ssd1306_128x32.c **** 
  20:..\u8g2\csrc/u8x8_d_ssd1306_128x32.c ****   THIS SOFTWARE IS PROVIDED BY THE COPYRIGHT HOLDERS AND 
  21:..\u8g2\csrc/u8x8_d_ssd1306_128x32.c ****   CONTRIBUTORS "AS IS" AND ANY EXPRESS OR IMPLIED WARRANTIES, 
  22:..\u8g2\csrc/u8x8_d_ssd1306_128x32.c ****   INCLUDING, BUT NOT LIMITED TO, THE IMPLIED WARRANTIES OF 
  23:..\u8g2\csrc/u8x8_d_ssd1306_128x32.c ****   MERCHANTABILITY AND FITNESS FOR A PARTICULAR PURPOSE ARE 
  24:..\u8g2\csrc/u8x8_d_ssd1306_128x32.c ****   DISCLAIMED. IN NO EVENT SHALL THE COPYRIGHT HOLDER OR 
  25:..\u8g2\csrc/u8x8_d_ssd1306_128x32.c ****   CONTRIBUTORS BE LIABLE FOR ANY DIRECT, INDIRECT, INCIDENTAL, 
  26:..\u8g2\csrc/u8x8_d_ssd1306_128x32.c ****   SPECIAL, EXEMPLARY, OR CONSEQUENTIAL DAMAGES (INCLUDING, BUT 
  27:..\u8g2\csrc/u8x8_d_ssd1306_128x32.c ****   NOT LIMITED TO, PROCUREMENT OF SUBSTITUTE GOODS OR SERVICES; 
  28:..\u8g2\csrc/u8x8_d_ssd1306_128x32.c ****   LOSS OF USE, DATA, OR PROFITS; OR BUSINESS INTERRUPTION) HOWEVER 
  29:..\u8g2\csrc/u8x8_d_ssd1306_128x32.c ****   CAUSED AND ON ANY THEORY OF LIABILITY, WHETHER IN CONTRACT, 
  30:..\u8g2\csrc/u8x8_d_ssd1306_128x32.c ****   STRICT LIABILITY, OR TORT (INCLUDING NEGLIGENCE OR OTHERWISE) 
  31:..\u8g2\csrc/u8x8_d_ssd1306_128x32.c ****   ARISING IN ANY WAY OUT OF THE USE OF THIS SOFTWARE, EVEN IF 
ARM GAS  C:\Users\gjl\AppData\Local\Temp\cc7ajbyQ.s 			page 2


  32:..\u8g2\csrc/u8x8_d_ssd1306_128x32.c ****   ADVISED OF THE POSSIBILITY OF SUCH DAMAGE.  
  33:..\u8g2\csrc/u8x8_d_ssd1306_128x32.c ****   
  34:..\u8g2\csrc/u8x8_d_ssd1306_128x32.c **** */
  35:..\u8g2\csrc/u8x8_d_ssd1306_128x32.c **** 
  36:..\u8g2\csrc/u8x8_d_ssd1306_128x32.c **** 
  37:..\u8g2\csrc/u8x8_d_ssd1306_128x32.c **** #include "u8x8.h"
  38:..\u8g2\csrc/u8x8_d_ssd1306_128x32.c **** 
  39:..\u8g2\csrc/u8x8_d_ssd1306_128x32.c **** 
  40:..\u8g2\csrc/u8x8_d_ssd1306_128x32.c **** 
  41:..\u8g2\csrc/u8x8_d_ssd1306_128x32.c **** /* UG-2832HSWEG02 Datasheet, Section 4.4 */
  42:..\u8g2\csrc/u8x8_d_ssd1306_128x32.c **** static const uint8_t u8x8_d_ssd1306_128x32_univision_init_seq[] = {
  43:..\u8g2\csrc/u8x8_d_ssd1306_128x32.c ****     
  44:..\u8g2\csrc/u8x8_d_ssd1306_128x32.c ****   U8X8_START_TRANSFER(),             	/* enable chip, delay is part of the transfer start */
  45:..\u8g2\csrc/u8x8_d_ssd1306_128x32.c ****   
  46:..\u8g2\csrc/u8x8_d_ssd1306_128x32.c ****   
  47:..\u8g2\csrc/u8x8_d_ssd1306_128x32.c ****   U8X8_C(0x0ae),		                /* display off */
  48:..\u8g2\csrc/u8x8_d_ssd1306_128x32.c ****   U8X8_CA(0x0d5, 0x080),		/* clock divide ratio (0x00=1) and oscillator frequency (0x8) */
  49:..\u8g2\csrc/u8x8_d_ssd1306_128x32.c ****   U8X8_CA(0x0a8, 0x01f),		/* multiplex ratio */
  50:..\u8g2\csrc/u8x8_d_ssd1306_128x32.c ****   U8X8_CA(0x0d3, 0x000),		/* display offset */
  51:..\u8g2\csrc/u8x8_d_ssd1306_128x32.c ****   U8X8_C(0x040),		                /* set display start line to 0 */
  52:..\u8g2\csrc/u8x8_d_ssd1306_128x32.c ****   U8X8_CA(0x08d, 0x014),		/* [2] charge pump setting (p62): 0x014 enable, 0x010 disable */
  53:..\u8g2\csrc/u8x8_d_ssd1306_128x32.c ****   U8X8_CA(0x020, 0x000),		/* page addressing mode */
  54:..\u8g2\csrc/u8x8_d_ssd1306_128x32.c ****   
  55:..\u8g2\csrc/u8x8_d_ssd1306_128x32.c ****   U8X8_C(0x0a1),				/* segment remap a0/a1*/
  56:..\u8g2\csrc/u8x8_d_ssd1306_128x32.c ****   U8X8_C(0x0c8),				/* c0: scan dir normal, c8: reverse */
  57:..\u8g2\csrc/u8x8_d_ssd1306_128x32.c ****   // Flipmode
  58:..\u8g2\csrc/u8x8_d_ssd1306_128x32.c ****   // U8X8_C(0x0a0),				/* segment remap a0/a1*/
  59:..\u8g2\csrc/u8x8_d_ssd1306_128x32.c ****   // U8X8_C(0x0c0),				/* c0: scan dir normal, c8: reverse */
  60:..\u8g2\csrc/u8x8_d_ssd1306_128x32.c ****   
  61:..\u8g2\csrc/u8x8_d_ssd1306_128x32.c ****   U8X8_CA(0x0da, 0x002),		/* com pin HW config, sequential com pin config (bit 4), disable left/rig
  62:..\u8g2\csrc/u8x8_d_ssd1306_128x32.c ****   U8X8_CA(0x081, 0x08f),		/* [2] set contrast control */
  63:..\u8g2\csrc/u8x8_d_ssd1306_128x32.c ****   U8X8_CA(0x0d9, 0x0f1),		/* [2] pre-charge period 0x022/f1*/
  64:..\u8g2\csrc/u8x8_d_ssd1306_128x32.c ****   U8X8_CA(0x0db, 0x040),		/* vcomh deselect level */
  65:..\u8g2\csrc/u8x8_d_ssd1306_128x32.c ****   
  66:..\u8g2\csrc/u8x8_d_ssd1306_128x32.c ****   U8X8_C(0x02e),				/* Deactivate scroll */ 
  67:..\u8g2\csrc/u8x8_d_ssd1306_128x32.c ****   U8X8_C(0x0a4),				/* output ram to display */
  68:..\u8g2\csrc/u8x8_d_ssd1306_128x32.c ****   U8X8_C(0x0a6),				/* none inverted normal display mode */
  69:..\u8g2\csrc/u8x8_d_ssd1306_128x32.c ****     
  70:..\u8g2\csrc/u8x8_d_ssd1306_128x32.c ****   U8X8_END_TRANSFER(),             	/* disable chip */
  71:..\u8g2\csrc/u8x8_d_ssd1306_128x32.c ****   U8X8_END()             			/* end of sequence */
  72:..\u8g2\csrc/u8x8_d_ssd1306_128x32.c **** };
  73:..\u8g2\csrc/u8x8_d_ssd1306_128x32.c **** 
  74:..\u8g2\csrc/u8x8_d_ssd1306_128x32.c **** static const uint8_t u8x8_d_ssd1306_128x32_univision_powersave0_seq[] = {
  75:..\u8g2\csrc/u8x8_d_ssd1306_128x32.c ****   U8X8_START_TRANSFER(),             	/* enable chip, delay is part of the transfer start */
  76:..\u8g2\csrc/u8x8_d_ssd1306_128x32.c ****   U8X8_C(0x0af),		                /* display on */
  77:..\u8g2\csrc/u8x8_d_ssd1306_128x32.c ****   U8X8_END_TRANSFER(),             	/* disable chip */
  78:..\u8g2\csrc/u8x8_d_ssd1306_128x32.c ****   U8X8_END()             			/* end of sequence */
  79:..\u8g2\csrc/u8x8_d_ssd1306_128x32.c **** };
  80:..\u8g2\csrc/u8x8_d_ssd1306_128x32.c **** 
  81:..\u8g2\csrc/u8x8_d_ssd1306_128x32.c **** static const uint8_t u8x8_d_ssd1306_128x32_univision_powersave1_seq[] = {
  82:..\u8g2\csrc/u8x8_d_ssd1306_128x32.c ****   U8X8_START_TRANSFER(),             	/* enable chip, delay is part of the transfer start */
  83:..\u8g2\csrc/u8x8_d_ssd1306_128x32.c ****   U8X8_C(0x0ae),		                /* display off */
  84:..\u8g2\csrc/u8x8_d_ssd1306_128x32.c ****   U8X8_END_TRANSFER(),             	/* disable chip */
  85:..\u8g2\csrc/u8x8_d_ssd1306_128x32.c ****   U8X8_END()             			/* end of sequence */
  86:..\u8g2\csrc/u8x8_d_ssd1306_128x32.c **** };
  87:..\u8g2\csrc/u8x8_d_ssd1306_128x32.c **** 
  88:..\u8g2\csrc/u8x8_d_ssd1306_128x32.c **** static const uint8_t u8x8_d_ssd1306_128x32_univision_flip0_seq[] = {
ARM GAS  C:\Users\gjl\AppData\Local\Temp\cc7ajbyQ.s 			page 3


  89:..\u8g2\csrc/u8x8_d_ssd1306_128x32.c ****   U8X8_START_TRANSFER(),             	/* enable chip, delay is part of the transfer start */
  90:..\u8g2\csrc/u8x8_d_ssd1306_128x32.c ****   U8X8_C(0x0a1),				/* segment remap a0/a1*/
  91:..\u8g2\csrc/u8x8_d_ssd1306_128x32.c ****   U8X8_C(0x0c8),				/* c0: scan dir normal, c8: reverse */
  92:..\u8g2\csrc/u8x8_d_ssd1306_128x32.c ****   U8X8_END_TRANSFER(),             	/* disable chip */
  93:..\u8g2\csrc/u8x8_d_ssd1306_128x32.c ****   U8X8_END()             			/* end of sequence */
  94:..\u8g2\csrc/u8x8_d_ssd1306_128x32.c **** };
  95:..\u8g2\csrc/u8x8_d_ssd1306_128x32.c **** 
  96:..\u8g2\csrc/u8x8_d_ssd1306_128x32.c **** static const uint8_t u8x8_d_ssd1306_128x32_univision_flip1_seq[] = {
  97:..\u8g2\csrc/u8x8_d_ssd1306_128x32.c ****   U8X8_START_TRANSFER(),             	/* enable chip, delay is part of the transfer start */
  98:..\u8g2\csrc/u8x8_d_ssd1306_128x32.c ****   U8X8_C(0x0a0),				/* segment remap a0/a1*/
  99:..\u8g2\csrc/u8x8_d_ssd1306_128x32.c ****   U8X8_C(0x0c0),				/* c0: scan dir normal, c8: reverse */
 100:..\u8g2\csrc/u8x8_d_ssd1306_128x32.c ****   U8X8_END_TRANSFER(),             	/* disable chip */
 101:..\u8g2\csrc/u8x8_d_ssd1306_128x32.c ****   U8X8_END()             			/* end of sequence */
 102:..\u8g2\csrc/u8x8_d_ssd1306_128x32.c **** };
 103:..\u8g2\csrc/u8x8_d_ssd1306_128x32.c **** 
 104:..\u8g2\csrc/u8x8_d_ssd1306_128x32.c **** 
 105:..\u8g2\csrc/u8x8_d_ssd1306_128x32.c **** static uint8_t u8x8_d_ssd1306_128x32_generic(u8x8_t *u8x8, uint8_t msg, uint8_t arg_int, void *arg_
 106:..\u8g2\csrc/u8x8_d_ssd1306_128x32.c **** {
  27              		.loc 1 106 0
  28              		.cfi_startproc
  29              		@ args = 0, pretend = 0, frame = 0
  30              		@ frame_needed = 0, uses_anonymous_args = 0
  31              	.LVL0:
  32 0000 F8B5     		push	{r3, r4, r5, r6, r7, lr}
  33              		.cfi_def_cfa_offset 24
  34              		.cfi_offset 3, -24
  35              		.cfi_offset 4, -20
  36              		.cfi_offset 5, -16
  37              		.cfi_offset 6, -12
  38              		.cfi_offset 7, -8
  39              		.cfi_offset 14, -4
  40 0002 0400     		movs	r4, r0
  41 0004 1500     		movs	r5, r2
  42 0006 1E00     		movs	r6, r3
 107:..\u8g2\csrc/u8x8_d_ssd1306_128x32.c ****   uint8_t x, c;
 108:..\u8g2\csrc/u8x8_d_ssd1306_128x32.c ****   uint8_t *ptr;
 109:..\u8g2\csrc/u8x8_d_ssd1306_128x32.c ****   switch(msg)
  43              		.loc 1 109 0
  44 0008 0A39     		subs	r1, r1, #10
  45              	.LVL1:
  46 000a CBB2     		uxtb	r3, r1
  47              	.LVL2:
  48 000c 052B     		cmp	r3, #5
  49 000e 68D8     		bhi	.L12
  50 0010 9900     		lsls	r1, r3, #2
  51 0012 354B     		ldr	r3, .L13
  52 0014 5B58     		ldr	r3, [r3, r1]
  53 0016 9F46     		mov	pc, r3
  54              		.section	.rodata
  55              		.align	2
  56              	.L4:
  57 0000 18000000 		.word	.L3
  58 0004 28000000 		.word	.L5
  59 0008 E2000000 		.word	.L12
  60 000c 44000000 		.word	.L6
  61 0010 6C000000 		.word	.L7
  62 0014 8A000000 		.word	.L8
ARM GAS  C:\Users\gjl\AppData\Local\Temp\cc7ajbyQ.s 			page 4


  63              		.section	.text.u8x8_d_ssd1306_128x32_generic
  64              	.L3:
 110:..\u8g2\csrc/u8x8_d_ssd1306_128x32.c ****   {
 111:..\u8g2\csrc/u8x8_d_ssd1306_128x32.c ****     /* handled by the calling function
 112:..\u8g2\csrc/u8x8_d_ssd1306_128x32.c ****     case U8X8_MSG_DISPLAY_SETUP_MEMORY:
 113:..\u8g2\csrc/u8x8_d_ssd1306_128x32.c ****       u8x8_d_helper_display_setup_memory(u8x8, &u8x8_ssd1306_128x32_univision_display_info);
 114:..\u8g2\csrc/u8x8_d_ssd1306_128x32.c ****       break;
 115:..\u8g2\csrc/u8x8_d_ssd1306_128x32.c ****     */
 116:..\u8g2\csrc/u8x8_d_ssd1306_128x32.c ****     case U8X8_MSG_DISPLAY_INIT:
 117:..\u8g2\csrc/u8x8_d_ssd1306_128x32.c ****       u8x8_d_helper_display_init(u8x8);
  65              		.loc 1 117 0
  66 0018 FFF7FEFF 		bl	u8x8_d_helper_display_init
  67              	.LVL3:
 118:..\u8g2\csrc/u8x8_d_ssd1306_128x32.c ****       u8x8_cad_SendSequence(u8x8, u8x8_d_ssd1306_128x32_univision_init_seq);    
  68              		.loc 1 118 0
  69 001c 3349     		ldr	r1, .L13+4
  70 001e 2000     		movs	r0, r4
  71 0020 FFF7FEFF 		bl	u8x8_cad_SendSequence
  72              	.LVL4:
 119:..\u8g2\csrc/u8x8_d_ssd1306_128x32.c ****       break;
 120:..\u8g2\csrc/u8x8_d_ssd1306_128x32.c ****     case U8X8_MSG_DISPLAY_SET_POWER_SAVE:
 121:..\u8g2\csrc/u8x8_d_ssd1306_128x32.c ****       if ( arg_int == 0 )
 122:..\u8g2\csrc/u8x8_d_ssd1306_128x32.c **** 	u8x8_cad_SendSequence(u8x8, u8x8_d_ssd1306_128x32_univision_powersave0_seq);
 123:..\u8g2\csrc/u8x8_d_ssd1306_128x32.c ****       else
 124:..\u8g2\csrc/u8x8_d_ssd1306_128x32.c **** 	u8x8_cad_SendSequence(u8x8, u8x8_d_ssd1306_128x32_univision_powersave1_seq);
 125:..\u8g2\csrc/u8x8_d_ssd1306_128x32.c ****       break;
 126:..\u8g2\csrc/u8x8_d_ssd1306_128x32.c ****     case U8X8_MSG_DISPLAY_SET_FLIP_MODE:
 127:..\u8g2\csrc/u8x8_d_ssd1306_128x32.c ****       if ( arg_int == 0 )
 128:..\u8g2\csrc/u8x8_d_ssd1306_128x32.c ****       {
 129:..\u8g2\csrc/u8x8_d_ssd1306_128x32.c **** 	u8x8_cad_SendSequence(u8x8, u8x8_d_ssd1306_128x32_univision_flip0_seq);
 130:..\u8g2\csrc/u8x8_d_ssd1306_128x32.c **** 	u8x8->x_offset = u8x8->display_info->default_x_offset;
 131:..\u8g2\csrc/u8x8_d_ssd1306_128x32.c ****       }
 132:..\u8g2\csrc/u8x8_d_ssd1306_128x32.c ****       else
 133:..\u8g2\csrc/u8x8_d_ssd1306_128x32.c ****       {
 134:..\u8g2\csrc/u8x8_d_ssd1306_128x32.c **** 	u8x8_cad_SendSequence(u8x8, u8x8_d_ssd1306_128x32_univision_flip1_seq);
 135:..\u8g2\csrc/u8x8_d_ssd1306_128x32.c **** 	u8x8->x_offset = u8x8->display_info->flipmode_x_offset;
 136:..\u8g2\csrc/u8x8_d_ssd1306_128x32.c ****       }
 137:..\u8g2\csrc/u8x8_d_ssd1306_128x32.c ****       break;
 138:..\u8g2\csrc/u8x8_d_ssd1306_128x32.c **** #ifdef U8X8_WITH_SET_CONTRAST
 139:..\u8g2\csrc/u8x8_d_ssd1306_128x32.c ****     case U8X8_MSG_DISPLAY_SET_CONTRAST:
 140:..\u8g2\csrc/u8x8_d_ssd1306_128x32.c ****       u8x8_cad_StartTransfer(u8x8);
 141:..\u8g2\csrc/u8x8_d_ssd1306_128x32.c ****       u8x8_cad_SendCmd(u8x8, 0x081 );
 142:..\u8g2\csrc/u8x8_d_ssd1306_128x32.c ****       u8x8_cad_SendArg(u8x8, arg_int );	/* ssd1306 has range from 0 to 255 */
 143:..\u8g2\csrc/u8x8_d_ssd1306_128x32.c ****       u8x8_cad_EndTransfer(u8x8);
 144:..\u8g2\csrc/u8x8_d_ssd1306_128x32.c ****       break;
 145:..\u8g2\csrc/u8x8_d_ssd1306_128x32.c **** #endif
 146:..\u8g2\csrc/u8x8_d_ssd1306_128x32.c ****     case U8X8_MSG_DISPLAY_DRAW_TILE:
 147:..\u8g2\csrc/u8x8_d_ssd1306_128x32.c ****       u8x8_cad_StartTransfer(u8x8);
 148:..\u8g2\csrc/u8x8_d_ssd1306_128x32.c ****       x = ((u8x8_tile_t *)arg_ptr)->x_pos;    
 149:..\u8g2\csrc/u8x8_d_ssd1306_128x32.c ****       x *= 8;
 150:..\u8g2\csrc/u8x8_d_ssd1306_128x32.c ****       x += u8x8->x_offset;
 151:..\u8g2\csrc/u8x8_d_ssd1306_128x32.c ****       u8x8_cad_SendCmd(u8x8, 0x010 | (x>>4) );
 152:..\u8g2\csrc/u8x8_d_ssd1306_128x32.c ****       u8x8_cad_SendCmd(u8x8, 0x000 | ((x&15)));
 153:..\u8g2\csrc/u8x8_d_ssd1306_128x32.c ****       u8x8_cad_SendCmd(u8x8, 0x0b0 | (((u8x8_tile_t *)arg_ptr)->y_pos));
 154:..\u8g2\csrc/u8x8_d_ssd1306_128x32.c ****       
 155:..\u8g2\csrc/u8x8_d_ssd1306_128x32.c ****       do
 156:..\u8g2\csrc/u8x8_d_ssd1306_128x32.c ****       {
ARM GAS  C:\Users\gjl\AppData\Local\Temp\cc7ajbyQ.s 			page 5


 157:..\u8g2\csrc/u8x8_d_ssd1306_128x32.c **** 	c = ((u8x8_tile_t *)arg_ptr)->cnt;
 158:..\u8g2\csrc/u8x8_d_ssd1306_128x32.c **** 	ptr = ((u8x8_tile_t *)arg_ptr)->tile_ptr;
 159:..\u8g2\csrc/u8x8_d_ssd1306_128x32.c **** 	u8x8_cad_SendData(u8x8, c*8, ptr); 	/* note: SendData can not handle more than 255 bytes */
 160:..\u8g2\csrc/u8x8_d_ssd1306_128x32.c **** 	/*
 161:..\u8g2\csrc/u8x8_d_ssd1306_128x32.c **** 	do
 162:..\u8g2\csrc/u8x8_d_ssd1306_128x32.c **** 	{
 163:..\u8g2\csrc/u8x8_d_ssd1306_128x32.c **** 	  u8x8_cad_SendData(u8x8, 8, ptr);
 164:..\u8g2\csrc/u8x8_d_ssd1306_128x32.c **** 	  ptr += 8;
 165:..\u8g2\csrc/u8x8_d_ssd1306_128x32.c **** 	  c--;
 166:..\u8g2\csrc/u8x8_d_ssd1306_128x32.c **** 	} while( c > 0 );
 167:..\u8g2\csrc/u8x8_d_ssd1306_128x32.c **** 	*/
 168:..\u8g2\csrc/u8x8_d_ssd1306_128x32.c **** 	arg_int--;
 169:..\u8g2\csrc/u8x8_d_ssd1306_128x32.c ****       } while( arg_int > 0 );
 170:..\u8g2\csrc/u8x8_d_ssd1306_128x32.c ****       
 171:..\u8g2\csrc/u8x8_d_ssd1306_128x32.c ****       u8x8_cad_EndTransfer(u8x8);
 172:..\u8g2\csrc/u8x8_d_ssd1306_128x32.c ****       break;
 173:..\u8g2\csrc/u8x8_d_ssd1306_128x32.c ****     default:
 174:..\u8g2\csrc/u8x8_d_ssd1306_128x32.c ****       return 0;
 175:..\u8g2\csrc/u8x8_d_ssd1306_128x32.c ****   }
 176:..\u8g2\csrc/u8x8_d_ssd1306_128x32.c ****   return 1;
  73              		.loc 1 176 0
  74 0024 0120     		movs	r0, #1
 119:..\u8g2\csrc/u8x8_d_ssd1306_128x32.c ****       break;
  75              		.loc 1 119 0
  76 0026 5DE0     		b	.L2
  77              	.LVL5:
  78              	.L5:
 121:..\u8g2\csrc/u8x8_d_ssd1306_128x32.c **** 	u8x8_cad_SendSequence(u8x8, u8x8_d_ssd1306_128x32_univision_powersave0_seq);
  79              		.loc 1 121 0
  80 0028 002A     		cmp	r2, #0
  81 002a 05D1     		bne	.L9
 122:..\u8g2\csrc/u8x8_d_ssd1306_128x32.c ****       else
  82              		.loc 1 122 0
  83 002c 2F49     		ldr	r1, .L13+4
  84 002e 3831     		adds	r1, r1, #56
  85 0030 FFF7FEFF 		bl	u8x8_cad_SendSequence
  86              	.LVL6:
  87              		.loc 1 176 0
  88 0034 0120     		movs	r0, #1
  89 0036 55E0     		b	.L2
  90              	.LVL7:
  91              	.L9:
 124:..\u8g2\csrc/u8x8_d_ssd1306_128x32.c ****       break;
  92              		.loc 1 124 0
  93 0038 2C49     		ldr	r1, .L13+4
  94 003a 4031     		adds	r1, r1, #64
  95 003c FFF7FEFF 		bl	u8x8_cad_SendSequence
  96              	.LVL8:
  97              		.loc 1 176 0
  98 0040 0120     		movs	r0, #1
  99 0042 4FE0     		b	.L2
 100              	.LVL9:
 101              	.L6:
 127:..\u8g2\csrc/u8x8_d_ssd1306_128x32.c ****       {
 102              		.loc 1 127 0
 103 0044 002A     		cmp	r2, #0
 104 0046 08D1     		bne	.L10
ARM GAS  C:\Users\gjl\AppData\Local\Temp\cc7ajbyQ.s 			page 6


 129:..\u8g2\csrc/u8x8_d_ssd1306_128x32.c **** 	u8x8->x_offset = u8x8->display_info->default_x_offset;
 105              		.loc 1 129 0
 106 0048 2849     		ldr	r1, .L13+4
 107 004a 4831     		adds	r1, r1, #72
 108 004c FFF7FEFF 		bl	u8x8_cad_SendSequence
 109              	.LVL10:
 130:..\u8g2\csrc/u8x8_d_ssd1306_128x32.c ****       }
 110              		.loc 1 130 0
 111 0050 2368     		ldr	r3, [r4]
 112 0052 9B7C     		ldrb	r3, [r3, #18]
 113 0054 A377     		strb	r3, [r4, #30]
 114              		.loc 1 176 0
 115 0056 0120     		movs	r0, #1
 116 0058 44E0     		b	.L2
 117              	.LVL11:
 118              	.L10:
 134:..\u8g2\csrc/u8x8_d_ssd1306_128x32.c **** 	u8x8->x_offset = u8x8->display_info->flipmode_x_offset;
 119              		.loc 1 134 0
 120 005a 2449     		ldr	r1, .L13+4
 121 005c 5031     		adds	r1, r1, #80
 122 005e FFF7FEFF 		bl	u8x8_cad_SendSequence
 123              	.LVL12:
 135:..\u8g2\csrc/u8x8_d_ssd1306_128x32.c ****       }
 124              		.loc 1 135 0
 125 0062 2368     		ldr	r3, [r4]
 126 0064 DB7C     		ldrb	r3, [r3, #19]
 127 0066 A377     		strb	r3, [r4, #30]
 128              		.loc 1 176 0
 129 0068 0120     		movs	r0, #1
 130 006a 3BE0     		b	.L2
 131              	.LVL13:
 132              	.L7:
 140:..\u8g2\csrc/u8x8_d_ssd1306_128x32.c ****       u8x8_cad_SendCmd(u8x8, 0x081 );
 133              		.loc 1 140 0
 134 006c FFF7FEFF 		bl	u8x8_cad_StartTransfer
 135              	.LVL14:
 141:..\u8g2\csrc/u8x8_d_ssd1306_128x32.c ****       u8x8_cad_SendArg(u8x8, arg_int );	/* ssd1306 has range from 0 to 255 */
 136              		.loc 1 141 0
 137 0070 8121     		movs	r1, #129
 138 0072 2000     		movs	r0, r4
 139 0074 FFF7FEFF 		bl	u8x8_cad_SendCmd
 140              	.LVL15:
 142:..\u8g2\csrc/u8x8_d_ssd1306_128x32.c ****       u8x8_cad_EndTransfer(u8x8);
 141              		.loc 1 142 0
 142 0078 2900     		movs	r1, r5
 143 007a 2000     		movs	r0, r4
 144 007c FFF7FEFF 		bl	u8x8_cad_SendArg
 145              	.LVL16:
 143:..\u8g2\csrc/u8x8_d_ssd1306_128x32.c ****       break;
 146              		.loc 1 143 0
 147 0080 2000     		movs	r0, r4
 148 0082 FFF7FEFF 		bl	u8x8_cad_EndTransfer
 149              	.LVL17:
 150              		.loc 1 176 0
 151 0086 0120     		movs	r0, #1
 144:..\u8g2\csrc/u8x8_d_ssd1306_128x32.c **** #endif
 152              		.loc 1 144 0
ARM GAS  C:\Users\gjl\AppData\Local\Temp\cc7ajbyQ.s 			page 7


 153 0088 2CE0     		b	.L2
 154              	.LVL18:
 155              	.L8:
 147:..\u8g2\csrc/u8x8_d_ssd1306_128x32.c ****       x = ((u8x8_tile_t *)arg_ptr)->x_pos;    
 156              		.loc 1 147 0
 157 008a FFF7FEFF 		bl	u8x8_cad_StartTransfer
 158              	.LVL19:
 148:..\u8g2\csrc/u8x8_d_ssd1306_128x32.c ****       x *= 8;
 159              		.loc 1 148 0
 160 008e 7379     		ldrb	r3, [r6, #5]
 161              	.LVL20:
 149:..\u8g2\csrc/u8x8_d_ssd1306_128x32.c ****       x += u8x8->x_offset;
 162              		.loc 1 149 0
 163 0090 DB00     		lsls	r3, r3, #3
 164              	.LVL21:
 165 0092 DBB2     		uxtb	r3, r3
 166              	.LVL22:
 150:..\u8g2\csrc/u8x8_d_ssd1306_128x32.c ****       u8x8_cad_SendCmd(u8x8, 0x010 | (x>>4) );
 167              		.loc 1 150 0
 168 0094 A77F     		ldrb	r7, [r4, #30]
 169 0096 DB19     		adds	r3, r3, r7
 170              	.LVL23:
 171 0098 DFB2     		uxtb	r7, r3
 172              	.LVL24:
 151:..\u8g2\csrc/u8x8_d_ssd1306_128x32.c ****       u8x8_cad_SendCmd(u8x8, 0x000 | ((x&15)));
 173              		.loc 1 151 0
 174 009a 3909     		lsrs	r1, r7, #4
 175 009c 1023     		movs	r3, #16
 176 009e 1943     		orrs	r1, r3
 177 00a0 C9B2     		uxtb	r1, r1
 178 00a2 2000     		movs	r0, r4
 179 00a4 FFF7FEFF 		bl	u8x8_cad_SendCmd
 180              	.LVL25:
 152:..\u8g2\csrc/u8x8_d_ssd1306_128x32.c ****       u8x8_cad_SendCmd(u8x8, 0x0b0 | (((u8x8_tile_t *)arg_ptr)->y_pos));
 181              		.loc 1 152 0
 182 00a8 0F21     		movs	r1, #15
 183 00aa 3940     		ands	r1, r7
 184 00ac 2000     		movs	r0, r4
 185 00ae FFF7FEFF 		bl	u8x8_cad_SendCmd
 186              	.LVL26:
 153:..\u8g2\csrc/u8x8_d_ssd1306_128x32.c ****       
 187              		.loc 1 153 0
 188 00b2 B379     		ldrb	r3, [r6, #6]
 189 00b4 5021     		movs	r1, #80
 190 00b6 4942     		rsbs	r1, r1, #0
 191 00b8 1943     		orrs	r1, r3
 192 00ba C9B2     		uxtb	r1, r1
 193 00bc 2000     		movs	r0, r4
 194 00be FFF7FEFF 		bl	u8x8_cad_SendCmd
 195              	.LVL27:
 196              	.L11:
 157:..\u8g2\csrc/u8x8_d_ssd1306_128x32.c **** 	ptr = ((u8x8_tile_t *)arg_ptr)->tile_ptr;
 197              		.loc 1 157 0 discriminator 1
 198 00c2 3179     		ldrb	r1, [r6, #4]
 199              	.LVL28:
 159:..\u8g2\csrc/u8x8_d_ssd1306_128x32.c **** 	/*
 200              		.loc 1 159 0 discriminator 1
ARM GAS  C:\Users\gjl\AppData\Local\Temp\cc7ajbyQ.s 			page 8


 201 00c4 C900     		lsls	r1, r1, #3
 202              	.LVL29:
 203 00c6 C9B2     		uxtb	r1, r1
 204 00c8 3268     		ldr	r2, [r6]
 205 00ca 2000     		movs	r0, r4
 206 00cc FFF7FEFF 		bl	u8x8_cad_SendData
 207              	.LVL30:
 168:..\u8g2\csrc/u8x8_d_ssd1306_128x32.c ****       } while( arg_int > 0 );
 208              		.loc 1 168 0 discriminator 1
 209 00d0 013D     		subs	r5, r5, #1
 210              	.LVL31:
 211 00d2 EDB2     		uxtb	r5, r5
 212              	.LVL32:
 169:..\u8g2\csrc/u8x8_d_ssd1306_128x32.c ****       
 213              		.loc 1 169 0 discriminator 1
 214 00d4 002D     		cmp	r5, #0
 215 00d6 F4D1     		bne	.L11
 171:..\u8g2\csrc/u8x8_d_ssd1306_128x32.c ****       break;
 216              		.loc 1 171 0
 217 00d8 2000     		movs	r0, r4
 218 00da FFF7FEFF 		bl	u8x8_cad_EndTransfer
 219              	.LVL33:
 220              		.loc 1 176 0
 221 00de 0120     		movs	r0, #1
 172:..\u8g2\csrc/u8x8_d_ssd1306_128x32.c ****     default:
 222              		.loc 1 172 0
 223 00e0 00E0     		b	.L2
 224              	.LVL34:
 225              	.L12:
 174:..\u8g2\csrc/u8x8_d_ssd1306_128x32.c ****   }
 226              		.loc 1 174 0
 227 00e2 0020     		movs	r0, #0
 228              	.LVL35:
 229              	.L2:
 177:..\u8g2\csrc/u8x8_d_ssd1306_128x32.c **** }
 230              		.loc 1 177 0
 231              		@ sp needed
 232              	.LVL36:
 233              	.LVL37:
 234 00e4 F8BD     		pop	{r3, r4, r5, r6, r7, pc}
 235              	.L14:
 236 00e6 C046     		.align	2
 237              	.L13:
 238 00e8 00000000 		.word	.L4
 239 00ec 18000000 		.word	.LANCHOR0
 240              		.cfi_endproc
 241              	.LFE0:
 242              		.size	u8x8_d_ssd1306_128x32_generic, .-u8x8_d_ssd1306_128x32_generic
 243              		.section	.text.u8x8_d_ssd1306_128x32_univision,"ax",%progbits
 244              		.align	2
 245              		.global	u8x8_d_ssd1306_128x32_univision
 246              		.code	16
 247              		.thumb_func
 248              		.type	u8x8_d_ssd1306_128x32_univision, %function
 249              	u8x8_d_ssd1306_128x32_univision:
 250              	.LFB1:
 178:..\u8g2\csrc/u8x8_d_ssd1306_128x32.c **** 
ARM GAS  C:\Users\gjl\AppData\Local\Temp\cc7ajbyQ.s 			page 9


 179:..\u8g2\csrc/u8x8_d_ssd1306_128x32.c **** 
 180:..\u8g2\csrc/u8x8_d_ssd1306_128x32.c **** static const u8x8_display_info_t u8x8_ssd1306_128x32_univision_display_info =
 181:..\u8g2\csrc/u8x8_d_ssd1306_128x32.c **** {
 182:..\u8g2\csrc/u8x8_d_ssd1306_128x32.c ****   /* chip_enable_level = */ 0,
 183:..\u8g2\csrc/u8x8_d_ssd1306_128x32.c ****   /* chip_disable_level = */ 1,
 184:..\u8g2\csrc/u8x8_d_ssd1306_128x32.c ****   
 185:..\u8g2\csrc/u8x8_d_ssd1306_128x32.c ****   /* post_chip_enable_wait_ns = */ 20,
 186:..\u8g2\csrc/u8x8_d_ssd1306_128x32.c ****   /* pre_chip_disable_wait_ns = */ 10,
 187:..\u8g2\csrc/u8x8_d_ssd1306_128x32.c ****   /* reset_pulse_width_ms = */ 100, 	/* SSD1306: 3 us */
 188:..\u8g2\csrc/u8x8_d_ssd1306_128x32.c ****   /* post_reset_wait_ms = */ 100, /* far east OLEDs need much longer setup time */
 189:..\u8g2\csrc/u8x8_d_ssd1306_128x32.c ****   /* sda_setup_time_ns = */ 50,		/* SSD1306: 15ns, but cycle time is 100ns, so use 100/2 */
 190:..\u8g2\csrc/u8x8_d_ssd1306_128x32.c ****   /* sck_pulse_width_ns = */ 50,	/* SSD1306: 20ns, but cycle time is 100ns, so use 100/2, AVR: belo
 191:..\u8g2\csrc/u8x8_d_ssd1306_128x32.c ****   /* sck_clock_hz = */ 4000000UL,	/* since Arduino 1.6.0, the SPI bus speed in Hz. Should be  10000
 192:..\u8g2\csrc/u8x8_d_ssd1306_128x32.c ****   /* spi_mode = */ 0,		/* active high, rising edge */
 193:..\u8g2\csrc/u8x8_d_ssd1306_128x32.c ****   /* i2c_bus_clock_100kHz = */ 4,
 194:..\u8g2\csrc/u8x8_d_ssd1306_128x32.c ****   /* data_setup_time_ns = */ 40,
 195:..\u8g2\csrc/u8x8_d_ssd1306_128x32.c ****   /* write_pulse_width_ns = */ 150,	/* SSD1306: cycle time is 300ns, so use 300/2 = 150 */
 196:..\u8g2\csrc/u8x8_d_ssd1306_128x32.c ****   /* tile_width = */ 16,
 197:..\u8g2\csrc/u8x8_d_ssd1306_128x32.c ****   /* tile_hight = */ 4,
 198:..\u8g2\csrc/u8x8_d_ssd1306_128x32.c ****   /* default_x_offset = */ 0,
 199:..\u8g2\csrc/u8x8_d_ssd1306_128x32.c ****   /* flipmode_x_offset = */ 0,
 200:..\u8g2\csrc/u8x8_d_ssd1306_128x32.c ****   /* pixel_width = */ 128,
 201:..\u8g2\csrc/u8x8_d_ssd1306_128x32.c ****   /* pixel_height = */ 32
 202:..\u8g2\csrc/u8x8_d_ssd1306_128x32.c **** };
 203:..\u8g2\csrc/u8x8_d_ssd1306_128x32.c **** 
 204:..\u8g2\csrc/u8x8_d_ssd1306_128x32.c **** uint8_t u8x8_d_ssd1306_128x32_univision(u8x8_t *u8x8, uint8_t msg, uint8_t arg_int, void *arg_ptr)
 205:..\u8g2\csrc/u8x8_d_ssd1306_128x32.c **** {
 251              		.loc 1 205 0
 252              		.cfi_startproc
 253              		@ args = 0, pretend = 0, frame = 0
 254              		@ frame_needed = 0, uses_anonymous_args = 0
 255              	.LVL38:
 256 0000 10B5     		push	{r4, lr}
 257              		.cfi_def_cfa_offset 8
 258              		.cfi_offset 4, -8
 259              		.cfi_offset 14, -4
 206:..\u8g2\csrc/u8x8_d_ssd1306_128x32.c ****     if ( msg == U8X8_MSG_DISPLAY_SETUP_MEMORY )
 260              		.loc 1 206 0
 261 0002 0929     		cmp	r1, #9
 262 0004 04D1     		bne	.L16
 207:..\u8g2\csrc/u8x8_d_ssd1306_128x32.c ****     {
 208:..\u8g2\csrc/u8x8_d_ssd1306_128x32.c ****       u8x8_d_helper_display_setup_memory(u8x8, &u8x8_ssd1306_128x32_univision_display_info);
 263              		.loc 1 208 0
 264 0006 0449     		ldr	r1, .L18
 265              	.LVL39:
 266 0008 FFF7FEFF 		bl	u8x8_d_helper_display_setup_memory
 267              	.LVL40:
 209:..\u8g2\csrc/u8x8_d_ssd1306_128x32.c ****       return 1;
 268              		.loc 1 209 0
 269 000c 0120     		movs	r0, #1
 270 000e 01E0     		b	.L17
 271              	.LVL41:
 272              	.L16:
 210:..\u8g2\csrc/u8x8_d_ssd1306_128x32.c ****     }
 211:..\u8g2\csrc/u8x8_d_ssd1306_128x32.c ****     return u8x8_d_ssd1306_128x32_generic(u8x8, msg, arg_int, arg_ptr);
 273              		.loc 1 211 0
 274 0010 FFF7FEFF 		bl	u8x8_d_ssd1306_128x32_generic
ARM GAS  C:\Users\gjl\AppData\Local\Temp\cc7ajbyQ.s 			page 10


 275              	.LVL42:
 276              	.L17:
 212:..\u8g2\csrc/u8x8_d_ssd1306_128x32.c **** }
 277              		.loc 1 212 0
 278              		@ sp needed
 279 0014 10BD     		pop	{r4, pc}
 280              	.L19:
 281 0016 C046     		.align	2
 282              	.L18:
 283 0018 70000000 		.word	.LANCHOR1
 284              		.cfi_endproc
 285              	.LFE1:
 286              		.size	u8x8_d_ssd1306_128x32_univision, .-u8x8_d_ssd1306_128x32_univision
 287              		.section	.rodata
 288              		.align	2
 289              		.set	.LANCHOR0,. + 0
 290              		.type	u8x8_d_ssd1306_128x32_univision_init_seq, %object
 291              		.size	u8x8_d_ssd1306_128x32_univision_init_seq, 53
 292              	u8x8_d_ssd1306_128x32_univision_init_seq:
 293 0018 18       		.byte	24
 294 0019 15       		.byte	21
 295 001a AE       		.byte	-82
 296 001b 15       		.byte	21
 297 001c D5       		.byte	-43
 298 001d 16       		.byte	22
 299 001e 80       		.byte	-128
 300 001f 15       		.byte	21
 301 0020 A8       		.byte	-88
 302 0021 16       		.byte	22
 303 0022 1F       		.byte	31
 304 0023 15       		.byte	21
 305 0024 D3       		.byte	-45
 306 0025 16       		.byte	22
 307 0026 00       		.byte	0
 308 0027 15       		.byte	21
 309 0028 40       		.byte	64
 310 0029 15       		.byte	21
 311 002a 8D       		.byte	-115
 312 002b 16       		.byte	22
 313 002c 14       		.byte	20
 314 002d 15       		.byte	21
 315 002e 20       		.byte	32
 316 002f 16       		.byte	22
 317 0030 00       		.byte	0
 318 0031 15       		.byte	21
 319 0032 A1       		.byte	-95
 320 0033 15       		.byte	21
 321 0034 C8       		.byte	-56
 322 0035 15       		.byte	21
 323 0036 DA       		.byte	-38
 324 0037 16       		.byte	22
 325 0038 02       		.byte	2
 326 0039 15       		.byte	21
 327 003a 81       		.byte	-127
 328 003b 16       		.byte	22
 329 003c 8F       		.byte	-113
 330 003d 15       		.byte	21
ARM GAS  C:\Users\gjl\AppData\Local\Temp\cc7ajbyQ.s 			page 11


 331 003e D9       		.byte	-39
 332 003f 16       		.byte	22
 333 0040 F1       		.byte	-15
 334 0041 15       		.byte	21
 335 0042 DB       		.byte	-37
 336 0043 16       		.byte	22
 337 0044 40       		.byte	64
 338 0045 15       		.byte	21
 339 0046 2E       		.byte	46
 340 0047 15       		.byte	21
 341 0048 A4       		.byte	-92
 342 0049 15       		.byte	21
 343 004a A6       		.byte	-90
 344 004b 19       		.byte	25
 345 004c FF       		.byte	-1
 346 004d 000000   		.space	3
 347              		.type	u8x8_d_ssd1306_128x32_univision_powersave0_seq, %object
 348              		.size	u8x8_d_ssd1306_128x32_univision_powersave0_seq, 5
 349              	u8x8_d_ssd1306_128x32_univision_powersave0_seq:
 350 0050 18       		.byte	24
 351 0051 15       		.byte	21
 352 0052 AF       		.byte	-81
 353 0053 19       		.byte	25
 354 0054 FF       		.byte	-1
 355 0055 000000   		.space	3
 356              		.type	u8x8_d_ssd1306_128x32_univision_powersave1_seq, %object
 357              		.size	u8x8_d_ssd1306_128x32_univision_powersave1_seq, 5
 358              	u8x8_d_ssd1306_128x32_univision_powersave1_seq:
 359 0058 18       		.byte	24
 360 0059 15       		.byte	21
 361 005a AE       		.byte	-82
 362 005b 19       		.byte	25
 363 005c FF       		.byte	-1
 364 005d 000000   		.space	3
 365              		.type	u8x8_d_ssd1306_128x32_univision_flip0_seq, %object
 366              		.size	u8x8_d_ssd1306_128x32_univision_flip0_seq, 7
 367              	u8x8_d_ssd1306_128x32_univision_flip0_seq:
 368 0060 18       		.byte	24
 369 0061 15       		.byte	21
 370 0062 A1       		.byte	-95
 371 0063 15       		.byte	21
 372 0064 C8       		.byte	-56
 373 0065 19       		.byte	25
 374 0066 FF       		.byte	-1
 375 0067 00       		.space	1
 376              		.type	u8x8_d_ssd1306_128x32_univision_flip1_seq, %object
 377              		.size	u8x8_d_ssd1306_128x32_univision_flip1_seq, 7
 378              	u8x8_d_ssd1306_128x32_univision_flip1_seq:
 379 0068 18       		.byte	24
 380 0069 15       		.byte	21
 381 006a A0       		.byte	-96
 382 006b 15       		.byte	21
 383 006c C0       		.byte	-64
 384 006d 19       		.byte	25
 385 006e FF       		.byte	-1
 386 006f 00       		.align	2
 387              		.set	.LANCHOR1,. + 0
ARM GAS  C:\Users\gjl\AppData\Local\Temp\cc7ajbyQ.s 			page 12


 388              		.type	u8x8_ssd1306_128x32_univision_display_info, %object
 389              		.size	u8x8_ssd1306_128x32_univision_display_info, 24
 390              	u8x8_ssd1306_128x32_univision_display_info:
 391 0070 00       		.byte	0
 392 0071 01       		.byte	1
 393 0072 14       		.byte	20
 394 0073 0A       		.byte	10
 395 0074 64       		.byte	100
 396 0075 64       		.byte	100
 397 0076 32       		.byte	50
 398 0077 32       		.byte	50
 399 0078 00093D00 		.word	4000000
 400 007c 00       		.byte	0
 401 007d 04       		.byte	4
 402 007e 28       		.byte	40
 403 007f 96       		.byte	-106
 404 0080 10       		.byte	16
 405 0081 04       		.byte	4
 406 0082 00       		.byte	0
 407 0083 00       		.byte	0
 408 0084 8000     		.short	128
 409 0086 2000     		.short	32
 410              		.text
 411              	.Letext0:
 412              		.file 2 "c:\\program files (x86)\\cypress\\psoc creator\\4.1\\psoc creator\\import\\gnu\\arm\\5.4.
 413              		.file 3 "c:\\program files (x86)\\cypress\\psoc creator\\4.1\\psoc creator\\import\\gnu\\arm\\5.4.
 414              		.file 4 "..\\u8g2\\csrc\\u8x8.h"