ARM GAS  C:\Users\gjl\AppData\Local\Temp\cchNG6hU.s 			page 1


   1              		.syntax unified
   2              		.cpu cortex-m0
   3              		.fpu softvfp
   4              		.eabi_attribute 20, 1
   5              		.eabi_attribute 21, 1
   6              		.eabi_attribute 23, 3
   7              		.eabi_attribute 24, 1
   8              		.eabi_attribute 25, 1
   9              		.eabi_attribute 26, 1
  10              		.eabi_attribute 30, 1
  11              		.eabi_attribute 34, 0
  12              		.eabi_attribute 18, 4
  13              		.thumb
  14              		.syntax unified
  15              		.file	"u8x8_d_t6963.c"
  16              		.text
  17              	.Ltext0:
  18              		.cfi_sections	.debug_frame
  19              		.section	.text.u8x8_d_t6963_common,"ax",%progbits
  20              		.align	2
  21              		.global	u8x8_d_t6963_common
  22              		.code	16
  23              		.thumb_func
  24              		.type	u8x8_d_t6963_common, %function
  25              	u8x8_d_t6963_common:
  26              	.LFB0:
  27              		.file 1 "..\\u8g2\\csrc\\u8x8_d_t6963.c"
   1:..\u8g2\csrc/u8x8_d_t6963.c **** /*
   2:..\u8g2\csrc/u8x8_d_t6963.c **** 
   3:..\u8g2\csrc/u8x8_d_t6963.c ****   u8x8_d_t6963.c
   4:..\u8g2\csrc/u8x8_d_t6963.c ****   
   5:..\u8g2\csrc/u8x8_d_t6963.c ****   Universal 8bit Graphics Library (https://github.com/olikraus/u8g2/)
   6:..\u8g2\csrc/u8x8_d_t6963.c **** 
   7:..\u8g2\csrc/u8x8_d_t6963.c ****   Copyright (c) 2016, olikraus@gmail.com
   8:..\u8g2\csrc/u8x8_d_t6963.c ****   All rights reserved.
   9:..\u8g2\csrc/u8x8_d_t6963.c **** 
  10:..\u8g2\csrc/u8x8_d_t6963.c ****   Redistribution and use in source and binary forms, with or without modification, 
  11:..\u8g2\csrc/u8x8_d_t6963.c ****   are permitted provided that the following conditions are met:
  12:..\u8g2\csrc/u8x8_d_t6963.c **** 
  13:..\u8g2\csrc/u8x8_d_t6963.c ****   * Redistributions of source code must retain the above copyright notice, this list 
  14:..\u8g2\csrc/u8x8_d_t6963.c ****     of conditions and the following disclaimer.
  15:..\u8g2\csrc/u8x8_d_t6963.c ****     
  16:..\u8g2\csrc/u8x8_d_t6963.c ****   * Redistributions in binary form must reproduce the above copyright notice, this 
  17:..\u8g2\csrc/u8x8_d_t6963.c ****     list of conditions and the following disclaimer in the documentation and/or other 
  18:..\u8g2\csrc/u8x8_d_t6963.c ****     materials provided with the distribution.
  19:..\u8g2\csrc/u8x8_d_t6963.c **** 
  20:..\u8g2\csrc/u8x8_d_t6963.c ****   THIS SOFTWARE IS PROVIDED BY THE COPYRIGHT HOLDERS AND 
  21:..\u8g2\csrc/u8x8_d_t6963.c ****   CONTRIBUTORS "AS IS" AND ANY EXPRESS OR IMPLIED WARRANTIES, 
  22:..\u8g2\csrc/u8x8_d_t6963.c ****   INCLUDING, BUT NOT LIMITED TO, THE IMPLIED WARRANTIES OF 
  23:..\u8g2\csrc/u8x8_d_t6963.c ****   MERCHANTABILITY AND FITNESS FOR A PARTICULAR PURPOSE ARE 
  24:..\u8g2\csrc/u8x8_d_t6963.c ****   DISCLAIMED. IN NO EVENT SHALL THE COPYRIGHT HOLDER OR 
  25:..\u8g2\csrc/u8x8_d_t6963.c ****   CONTRIBUTORS BE LIABLE FOR ANY DIRECT, INDIRECT, INCIDENTAL, 
  26:..\u8g2\csrc/u8x8_d_t6963.c ****   SPECIAL, EXEMPLARY, OR CONSEQUENTIAL DAMAGES (INCLUDING, BUT 
  27:..\u8g2\csrc/u8x8_d_t6963.c ****   NOT LIMITED TO, PROCUREMENT OF SUBSTITUTE GOODS OR SERVICES; 
  28:..\u8g2\csrc/u8x8_d_t6963.c ****   LOSS OF USE, DATA, OR PROFITS; OR BUSINESS INTERRUPTION) HOWEVER 
  29:..\u8g2\csrc/u8x8_d_t6963.c ****   CAUSED AND ON ANY THEORY OF LIABILITY, WHETHER IN CONTRACT, 
  30:..\u8g2\csrc/u8x8_d_t6963.c ****   STRICT LIABILITY, OR TORT (INCLUDING NEGLIGENCE OR OTHERWISE) 
ARM GAS  C:\Users\gjl\AppData\Local\Temp\cchNG6hU.s 			page 2


  31:..\u8g2\csrc/u8x8_d_t6963.c ****   ARISING IN ANY WAY OUT OF THE USE OF THIS SOFTWARE, EVEN IF 
  32:..\u8g2\csrc/u8x8_d_t6963.c ****   ADVISED OF THE POSSIBILITY OF SUCH DAMAGE.  
  33:..\u8g2\csrc/u8x8_d_t6963.c **** 
  34:..\u8g2\csrc/u8x8_d_t6963.c **** 
  35:..\u8g2\csrc/u8x8_d_t6963.c ****   The t6963 controller does not support hardware graphics flip.
  36:..\u8g2\csrc/u8x8_d_t6963.c ****   Contrast adjustment is done by an external resistor --> no support for contrast adjustment
  37:..\u8g2\csrc/u8x8_d_t6963.c ****   
  38:..\u8g2\csrc/u8x8_d_t6963.c ****   
  39:..\u8g2\csrc/u8x8_d_t6963.c **** */
  40:..\u8g2\csrc/u8x8_d_t6963.c **** #include "u8x8.h"
  41:..\u8g2\csrc/u8x8_d_t6963.c **** 
  42:..\u8g2\csrc/u8x8_d_t6963.c **** 
  43:..\u8g2\csrc/u8x8_d_t6963.c **** 
  44:..\u8g2\csrc/u8x8_d_t6963.c **** static const uint8_t u8x8_d_t6963_powersave0_seq[] = {
  45:..\u8g2\csrc/u8x8_d_t6963.c ****   U8X8_START_TRANSFER(),             	/* enable chip, delay is part of the transfer start */
  46:..\u8g2\csrc/u8x8_d_t6963.c ****   U8X8_C(0x098),                            /* mode register: Display Mode, Graphics on, Text off, 
  47:..\u8g2\csrc/u8x8_d_t6963.c ****   U8X8_END_TRANSFER(),             	/* disable chip */
  48:..\u8g2\csrc/u8x8_d_t6963.c ****   U8X8_END()             			/* end of sequence */
  49:..\u8g2\csrc/u8x8_d_t6963.c **** };
  50:..\u8g2\csrc/u8x8_d_t6963.c **** 
  51:..\u8g2\csrc/u8x8_d_t6963.c **** static const uint8_t u8x8_d_t6963_powersave1_seq[] = {
  52:..\u8g2\csrc/u8x8_d_t6963.c ****   U8X8_START_TRANSFER(),             	/* enable chip, delay is part of the transfer start */
  53:..\u8g2\csrc/u8x8_d_t6963.c ****   U8X8_C(0x090),                             /* All Off */
  54:..\u8g2\csrc/u8x8_d_t6963.c ****   U8X8_END_TRANSFER(),             	/* disable chip */
  55:..\u8g2\csrc/u8x8_d_t6963.c ****   U8X8_END()             			/* end of sequence */
  56:..\u8g2\csrc/u8x8_d_t6963.c **** };
  57:..\u8g2\csrc/u8x8_d_t6963.c **** 
  58:..\u8g2\csrc/u8x8_d_t6963.c **** 
  59:..\u8g2\csrc/u8x8_d_t6963.c **** uint8_t u8x8_d_t6963_common(u8x8_t *u8x8, uint8_t msg, uint8_t arg_int, void *arg_ptr)
  60:..\u8g2\csrc/u8x8_d_t6963.c **** {
  28              		.loc 1 60 0
  29              		.cfi_startproc
  30              		@ args = 0, pretend = 0, frame = 8
  31              		@ frame_needed = 0, uses_anonymous_args = 0
  32              	.LVL0:
  33 0000 F0B5     		push	{r4, r5, r6, r7, lr}
  34              		.cfi_def_cfa_offset 20
  35              		.cfi_offset 4, -20
  36              		.cfi_offset 5, -16
  37              		.cfi_offset 6, -12
  38              		.cfi_offset 7, -8
  39              		.cfi_offset 14, -4
  40 0002 83B0     		sub	sp, sp, #12
  41              		.cfi_def_cfa_offset 32
  42 0004 0400     		movs	r4, r0
  43 0006 1D00     		movs	r5, r3
  61:..\u8g2\csrc/u8x8_d_t6963.c ****   uint8_t c, i;
  62:..\u8g2\csrc/u8x8_d_t6963.c ****   uint16_t y;
  63:..\u8g2\csrc/u8x8_d_t6963.c ****   uint8_t *ptr;
  64:..\u8g2\csrc/u8x8_d_t6963.c ****   switch(msg)
  44              		.loc 1 64 0
  45 0008 0B29     		cmp	r1, #11
  46 000a 02D0     		beq	.L3
  47 000c 0F29     		cmp	r1, #15
  48 000e 0DD0     		beq	.L4
  49 0010 40E0     		b	.L9
  50              	.L3:
ARM GAS  C:\Users\gjl\AppData\Local\Temp\cchNG6hU.s 			page 3


  65:..\u8g2\csrc/u8x8_d_t6963.c ****   {
  66:..\u8g2\csrc/u8x8_d_t6963.c ****     /* U8X8_MSG_DISPLAY_SETUP_MEMORY is handled by the calling function */
  67:..\u8g2\csrc/u8x8_d_t6963.c ****     /*
  68:..\u8g2\csrc/u8x8_d_t6963.c ****     case U8X8_MSG_DISPLAY_SETUP_MEMORY:
  69:..\u8g2\csrc/u8x8_d_t6963.c ****       break;
  70:..\u8g2\csrc/u8x8_d_t6963.c ****     case U8X8_MSG_DISPLAY_INIT:
  71:..\u8g2\csrc/u8x8_d_t6963.c ****       break;
  72:..\u8g2\csrc/u8x8_d_t6963.c ****     */
  73:..\u8g2\csrc/u8x8_d_t6963.c ****     case U8X8_MSG_DISPLAY_SET_POWER_SAVE:
  74:..\u8g2\csrc/u8x8_d_t6963.c ****       if ( arg_int == 0 )
  51              		.loc 1 74 0
  52 0012 002A     		cmp	r2, #0
  53 0014 04D1     		bne	.L5
  75:..\u8g2\csrc/u8x8_d_t6963.c **** 	u8x8_cad_SendSequence(u8x8, u8x8_d_t6963_powersave0_seq);
  54              		.loc 1 75 0
  55 0016 2149     		ldr	r1, .L10
  56              	.LVL1:
  57 0018 FFF7FEFF 		bl	u8x8_cad_SendSequence
  58              	.LVL2:
  76:..\u8g2\csrc/u8x8_d_t6963.c ****       else
  77:..\u8g2\csrc/u8x8_d_t6963.c **** 	u8x8_cad_SendSequence(u8x8, u8x8_d_t6963_powersave1_seq);
  78:..\u8g2\csrc/u8x8_d_t6963.c ****       break;
  79:..\u8g2\csrc/u8x8_d_t6963.c ****     case U8X8_MSG_DISPLAY_DRAW_TILE:
  80:..\u8g2\csrc/u8x8_d_t6963.c ****       y = (((u8x8_tile_t *)arg_ptr)->y_pos);
  81:..\u8g2\csrc/u8x8_d_t6963.c ****       y*=8;
  82:..\u8g2\csrc/u8x8_d_t6963.c ****       y*= u8x8->display_info->tile_width;
  83:..\u8g2\csrc/u8x8_d_t6963.c ****       /* x = ((u8x8_tile_t *)arg_ptr)->x_pos; x is ignored... no u8x8 support */
  84:..\u8g2\csrc/u8x8_d_t6963.c ****       //u8x8->gpio_and_delay_cb(u8x8, U8X8_MSG_DELAY_NANO, 200, NULL);	/* extra dely required */
  85:..\u8g2\csrc/u8x8_d_t6963.c ****       u8x8_cad_StartTransfer(u8x8);
  86:..\u8g2\csrc/u8x8_d_t6963.c ****       //u8x8->gpio_and_delay_cb(u8x8, U8X8_MSG_DELAY_NANO, 200, NULL);	/* extra dely required */
  87:..\u8g2\csrc/u8x8_d_t6963.c ****       /* 
  88:..\u8g2\csrc/u8x8_d_t6963.c **** 	Tile structure is reused here for the t6963, however u8x8 is not supported 
  89:..\u8g2\csrc/u8x8_d_t6963.c **** 	tile_ptr points to data which has cnt*8 bytes (same as SSD1306 tiles)
  90:..\u8g2\csrc/u8x8_d_t6963.c **** 	Buffer is expected to have 8 lines of code fitting to the t6963 internal memory
  91:..\u8g2\csrc/u8x8_d_t6963.c **** 	"cnt" includes the number of horizontal bytes. width is equal to cnt*8
  92:..\u8g2\csrc/u8x8_d_t6963.c **** 	
  93:..\u8g2\csrc/u8x8_d_t6963.c **** 	TODO: Consider arg_int, however arg_int is not used by u8g2
  94:..\u8g2\csrc/u8x8_d_t6963.c ****       */
  95:..\u8g2\csrc/u8x8_d_t6963.c ****       c = ((u8x8_tile_t *)arg_ptr)->cnt;	/* number of tiles */
  96:..\u8g2\csrc/u8x8_d_t6963.c ****       ptr = ((u8x8_tile_t *)arg_ptr)->tile_ptr;	/* data ptr to the tiles */
  97:..\u8g2\csrc/u8x8_d_t6963.c ****       for( i = 0; i < 8; i++ )
  98:..\u8g2\csrc/u8x8_d_t6963.c ****       {
  99:..\u8g2\csrc/u8x8_d_t6963.c **** 	u8x8_cad_SendArg(u8x8, y&255);
 100:..\u8g2\csrc/u8x8_d_t6963.c **** 	u8x8_cad_SendArg(u8x8, y>>8);
 101:..\u8g2\csrc/u8x8_d_t6963.c **** 	u8x8_cad_SendCmd(u8x8, 0x024 );	/* set adr */
 102:..\u8g2\csrc/u8x8_d_t6963.c **** 	u8x8_cad_SendCmd(u8x8, 0x0b0 );	/* auto write start */
 103:..\u8g2\csrc/u8x8_d_t6963.c **** 	
 104:..\u8g2\csrc/u8x8_d_t6963.c **** 	
 105:..\u8g2\csrc/u8x8_d_t6963.c **** 	//c = ((u8x8_tile_t *)arg_ptr)->cnt;	/* number of tiles */
 106:..\u8g2\csrc/u8x8_d_t6963.c **** 	u8x8_cad_SendData(u8x8, c, ptr);	/* note: SendData can not handle more than 255 bytes, send one li
 107:..\u8g2\csrc/u8x8_d_t6963.c **** 	
 108:..\u8g2\csrc/u8x8_d_t6963.c **** 	u8x8_cad_SendCmd(u8x8, 0x0b2 );	/* auto write reset */
 109:..\u8g2\csrc/u8x8_d_t6963.c **** 	ptr += u8x8->display_info->tile_width;
 110:..\u8g2\csrc/u8x8_d_t6963.c **** 	y += u8x8->display_info->tile_width;
 111:..\u8g2\csrc/u8x8_d_t6963.c ****       }
 112:..\u8g2\csrc/u8x8_d_t6963.c **** 
 113:..\u8g2\csrc/u8x8_d_t6963.c ****       u8x8_cad_EndTransfer(u8x8);
ARM GAS  C:\Users\gjl\AppData\Local\Temp\cchNG6hU.s 			page 4


 114:..\u8g2\csrc/u8x8_d_t6963.c ****       //u8x8->gpio_and_delay_cb(u8x8, U8X8_MSG_DELAY_NANO, 200, NULL);	/* extra dely required */
 115:..\u8g2\csrc/u8x8_d_t6963.c **** 
 116:..\u8g2\csrc/u8x8_d_t6963.c ****       break;
 117:..\u8g2\csrc/u8x8_d_t6963.c ****     default:
 118:..\u8g2\csrc/u8x8_d_t6963.c ****       return 0;
 119:..\u8g2\csrc/u8x8_d_t6963.c ****   }
 120:..\u8g2\csrc/u8x8_d_t6963.c ****   return 1;
  59              		.loc 1 120 0
  60 001c 0120     		movs	r0, #1
  61 001e 3AE0     		b	.L2
  62              	.LVL3:
  63              	.L5:
  77:..\u8g2\csrc/u8x8_d_t6963.c ****       break;
  64              		.loc 1 77 0
  65 0020 1E49     		ldr	r1, .L10
  66              	.LVL4:
  67 0022 0831     		adds	r1, r1, #8
  68 0024 FFF7FEFF 		bl	u8x8_cad_SendSequence
  69              	.LVL5:
  70              		.loc 1 120 0
  71 0028 0120     		movs	r0, #1
  72 002a 34E0     		b	.L2
  73              	.LVL6:
  74              	.L4:
  80:..\u8g2\csrc/u8x8_d_t6963.c ****       y*=8;
  75              		.loc 1 80 0
  76 002c 9B79     		ldrb	r3, [r3, #6]
  77              	.LVL7:
  81:..\u8g2\csrc/u8x8_d_t6963.c ****       y*= u8x8->display_info->tile_width;
  78              		.loc 1 81 0
  79 002e DB00     		lsls	r3, r3, #3
  80              	.LVL8:
  82:..\u8g2\csrc/u8x8_d_t6963.c ****       /* x = ((u8x8_tile_t *)arg_ptr)->x_pos; x is ignored... no u8x8 support */
  81              		.loc 1 82 0
  82 0030 0268     		ldr	r2, [r0]
  83              	.LVL9:
  84 0032 127C     		ldrb	r2, [r2, #16]
  85 0034 5343     		muls	r3, r2
  86              	.LVL10:
  87 0036 9FB2     		uxth	r7, r3
  88              	.LVL11:
  85:..\u8g2\csrc/u8x8_d_t6963.c ****       //u8x8->gpio_and_delay_cb(u8x8, U8X8_MSG_DELAY_NANO, 200, NULL);	/* extra dely required */
  89              		.loc 1 85 0
  90 0038 FFF7FEFF 		bl	u8x8_cad_StartTransfer
  91              	.LVL12:
  95:..\u8g2\csrc/u8x8_d_t6963.c ****       ptr = ((u8x8_tile_t *)arg_ptr)->tile_ptr;	/* data ptr to the tiles */
  92              		.loc 1 95 0
  93 003c 2B79     		ldrb	r3, [r5, #4]
  94 003e 0193     		str	r3, [sp, #4]
  95              	.LVL13:
  96:..\u8g2\csrc/u8x8_d_t6963.c ****       for( i = 0; i < 8; i++ )
  96              		.loc 1 96 0
  97 0040 2E68     		ldr	r6, [r5]
  98              	.LVL14:
  97:..\u8g2\csrc/u8x8_d_t6963.c ****       {
  99              		.loc 1 97 0
 100 0042 0025     		movs	r5, #0
ARM GAS  C:\Users\gjl\AppData\Local\Temp\cchNG6hU.s 			page 5


 101              	.LVL15:
 102 0044 1FE0     		b	.L6
 103              	.LVL16:
 104              	.L7:
  99:..\u8g2\csrc/u8x8_d_t6963.c **** 	u8x8_cad_SendArg(u8x8, y>>8);
 105              		.loc 1 99 0 discriminator 3
 106 0046 F9B2     		uxtb	r1, r7
 107 0048 2000     		movs	r0, r4
 108 004a FFF7FEFF 		bl	u8x8_cad_SendArg
 109              	.LVL17:
 100:..\u8g2\csrc/u8x8_d_t6963.c **** 	u8x8_cad_SendCmd(u8x8, 0x024 );	/* set adr */
 110              		.loc 1 100 0 discriminator 3
 111 004e 390A     		lsrs	r1, r7, #8
 112 0050 2000     		movs	r0, r4
 113 0052 FFF7FEFF 		bl	u8x8_cad_SendArg
 114              	.LVL18:
 101:..\u8g2\csrc/u8x8_d_t6963.c **** 	u8x8_cad_SendCmd(u8x8, 0x0b0 );	/* auto write start */
 115              		.loc 1 101 0 discriminator 3
 116 0056 2421     		movs	r1, #36
 117 0058 2000     		movs	r0, r4
 118 005a FFF7FEFF 		bl	u8x8_cad_SendCmd
 119              	.LVL19:
 102:..\u8g2\csrc/u8x8_d_t6963.c **** 	
 120              		.loc 1 102 0 discriminator 3
 121 005e B021     		movs	r1, #176
 122 0060 2000     		movs	r0, r4
 123 0062 FFF7FEFF 		bl	u8x8_cad_SendCmd
 124              	.LVL20:
 106:..\u8g2\csrc/u8x8_d_t6963.c **** 	
 125              		.loc 1 106 0 discriminator 3
 126 0066 3200     		movs	r2, r6
 127 0068 0199     		ldr	r1, [sp, #4]
 128 006a 2000     		movs	r0, r4
 129 006c FFF7FEFF 		bl	u8x8_cad_SendData
 130              	.LVL21:
 108:..\u8g2\csrc/u8x8_d_t6963.c **** 	ptr += u8x8->display_info->tile_width;
 131              		.loc 1 108 0 discriminator 3
 132 0070 B221     		movs	r1, #178
 133 0072 2000     		movs	r0, r4
 134 0074 FFF7FEFF 		bl	u8x8_cad_SendCmd
 135              	.LVL22:
 109:..\u8g2\csrc/u8x8_d_t6963.c **** 	y += u8x8->display_info->tile_width;
 136              		.loc 1 109 0 discriminator 3
 137 0078 2368     		ldr	r3, [r4]
 138 007a 1B7C     		ldrb	r3, [r3, #16]
 139 007c F618     		adds	r6, r6, r3
 140              	.LVL23:
 110:..\u8g2\csrc/u8x8_d_t6963.c ****       }
 141              		.loc 1 110 0 discriminator 3
 142 007e FB18     		adds	r3, r7, r3
 143 0080 9FB2     		uxth	r7, r3
 144              	.LVL24:
  97:..\u8g2\csrc/u8x8_d_t6963.c ****       {
 145              		.loc 1 97 0 discriminator 3
 146 0082 0135     		adds	r5, r5, #1
 147              	.LVL25:
 148 0084 EDB2     		uxtb	r5, r5
ARM GAS  C:\Users\gjl\AppData\Local\Temp\cchNG6hU.s 			page 6


 149              	.LVL26:
 150              	.L6:
  97:..\u8g2\csrc/u8x8_d_t6963.c ****       {
 151              		.loc 1 97 0 is_stmt 0 discriminator 1
 152 0086 072D     		cmp	r5, #7
 153 0088 DDD9     		bls	.L7
 113:..\u8g2\csrc/u8x8_d_t6963.c ****       //u8x8->gpio_and_delay_cb(u8x8, U8X8_MSG_DELAY_NANO, 200, NULL);	/* extra dely required */
 154              		.loc 1 113 0 is_stmt 1
 155 008a 2000     		movs	r0, r4
 156 008c FFF7FEFF 		bl	u8x8_cad_EndTransfer
 157              	.LVL27:
 158              		.loc 1 120 0
 159 0090 0120     		movs	r0, #1
 116:..\u8g2\csrc/u8x8_d_t6963.c ****     default:
 160              		.loc 1 116 0
 161 0092 00E0     		b	.L2
 162              	.LVL28:
 163              	.L9:
 118:..\u8g2\csrc/u8x8_d_t6963.c ****   }
 164              		.loc 1 118 0
 165 0094 0020     		movs	r0, #0
 166              	.LVL29:
 167              	.L2:
 121:..\u8g2\csrc/u8x8_d_t6963.c **** }
 168              		.loc 1 121 0
 169 0096 03B0     		add	sp, sp, #12
 170              		@ sp needed
 171              	.LVL30:
 172 0098 F0BD     		pop	{r4, r5, r6, r7, pc}
 173              	.L11:
 174 009a C046     		.align	2
 175              	.L10:
 176 009c 00000000 		.word	.LANCHOR0
 177              		.cfi_endproc
 178              	.LFE0:
 179              		.size	u8x8_d_t6963_common, .-u8x8_d_t6963_common
 180              		.section	.text.u8x8_d_t6963_240x128,"ax",%progbits
 181              		.align	2
 182              		.global	u8x8_d_t6963_240x128
 183              		.code	16
 184              		.thumb_func
 185              		.type	u8x8_d_t6963_240x128, %function
 186              	u8x8_d_t6963_240x128:
 187              	.LFB1:
 122:..\u8g2\csrc/u8x8_d_t6963.c **** 
 123:..\u8g2\csrc/u8x8_d_t6963.c **** /*=============================================*/
 124:..\u8g2\csrc/u8x8_d_t6963.c **** 
 125:..\u8g2\csrc/u8x8_d_t6963.c **** 
 126:..\u8g2\csrc/u8x8_d_t6963.c **** static const u8x8_display_info_t u8x8_t6963_240x128_display_info =
 127:..\u8g2\csrc/u8x8_d_t6963.c **** {
 128:..\u8g2\csrc/u8x8_d_t6963.c ****   /* chip_enable_level = */ 0,
 129:..\u8g2\csrc/u8x8_d_t6963.c ****   /* chip_disable_level = */ 1,
 130:..\u8g2\csrc/u8x8_d_t6963.c ****   
 131:..\u8g2\csrc/u8x8_d_t6963.c ****   /* post_chip_enable_wait_ns = */ 110,	/* T6963 Datasheet p30 */
 132:..\u8g2\csrc/u8x8_d_t6963.c ****   /* pre_chip_disable_wait_ns = */ 100,	/* T6963 Datasheet p30 */
 133:..\u8g2\csrc/u8x8_d_t6963.c ****   /* reset_pulse_width_ms = */ 1, 
 134:..\u8g2\csrc/u8x8_d_t6963.c ****   /* post_reset_wait_ms = */ 6, 
ARM GAS  C:\Users\gjl\AppData\Local\Temp\cchNG6hU.s 			page 7


 135:..\u8g2\csrc/u8x8_d_t6963.c ****   /* sda_setup_time_ns = */ 20,		
 136:..\u8g2\csrc/u8x8_d_t6963.c ****   /* sck_pulse_width_ns = */  140,	
 137:..\u8g2\csrc/u8x8_d_t6963.c ****   /* sck_clock_hz = */ 1000000UL,	/* since Arduino 1.6.0, the SPI bus speed in Hz. Should be  10000
 138:..\u8g2\csrc/u8x8_d_t6963.c ****   /* spi_mode = */ 0,		
 139:..\u8g2\csrc/u8x8_d_t6963.c ****   /* i2c_bus_clock_100kHz = */ 4,
 140:..\u8g2\csrc/u8x8_d_t6963.c ****   /* data_setup_time_ns = */ 80,
 141:..\u8g2\csrc/u8x8_d_t6963.c ****   /* write_pulse_width_ns = */ 80,
 142:..\u8g2\csrc/u8x8_d_t6963.c ****   /* tile_width = */ 30,
 143:..\u8g2\csrc/u8x8_d_t6963.c ****   /* tile_hight = */ 16,
 144:..\u8g2\csrc/u8x8_d_t6963.c ****   /* default_x_offset = */ 0,
 145:..\u8g2\csrc/u8x8_d_t6963.c ****   /* flipmode_x_offset = */ 0,
 146:..\u8g2\csrc/u8x8_d_t6963.c ****   /* pixel_width = */ 240,
 147:..\u8g2\csrc/u8x8_d_t6963.c ****   /* pixel_height = */ 128
 148:..\u8g2\csrc/u8x8_d_t6963.c **** };
 149:..\u8g2\csrc/u8x8_d_t6963.c **** 
 150:..\u8g2\csrc/u8x8_d_t6963.c **** /* 240x128 */
 151:..\u8g2\csrc/u8x8_d_t6963.c **** static const uint8_t u8x8_d_t6963_240x128_init_seq[] = {
 152:..\u8g2\csrc/u8x8_d_t6963.c ****   U8X8_DLY(100),
 153:..\u8g2\csrc/u8x8_d_t6963.c ****   U8X8_START_TRANSFER(),             	/* enable chip, delay is part of the transfer start */
 154:..\u8g2\csrc/u8x8_d_t6963.c ****   U8X8_DLY(100),
 155:..\u8g2\csrc/u8x8_d_t6963.c ****   
 156:..\u8g2\csrc/u8x8_d_t6963.c ****   U8X8_AAC(0x00,0x00,0x021),	/* low, high, set cursor pos */
 157:..\u8g2\csrc/u8x8_d_t6963.c ****   U8X8_AAC(0x00,0x00,0x022),	/* low, high, set offset */
 158:..\u8g2\csrc/u8x8_d_t6963.c ****   U8X8_AAC(0x00,0x00,0x040),	/* low, high, set text home */
 159:..\u8g2\csrc/u8x8_d_t6963.c ****   U8X8_AAC(240/8,0x00,0x041),	/* low, high, set text columns */
 160:..\u8g2\csrc/u8x8_d_t6963.c ****   U8X8_AAC(0x00,0x00,0x042),	/* low, high, graphics home */  
 161:..\u8g2\csrc/u8x8_d_t6963.c ****   U8X8_AAC(240/8,0x00,0x043),	/* low, high, graphics columns */
 162:..\u8g2\csrc/u8x8_d_t6963.c ****   U8X8_DLY(2),					/* delay 2ms */
 163:..\u8g2\csrc/u8x8_d_t6963.c ****   // mode set
 164:..\u8g2\csrc/u8x8_d_t6963.c ****   // 0x080: Internal CG, OR Mode
 165:..\u8g2\csrc/u8x8_d_t6963.c ****   // 0x081: Internal CG, EXOR Mode
 166:..\u8g2\csrc/u8x8_d_t6963.c ****   // 0x083: Internal CG, AND Mode
 167:..\u8g2\csrc/u8x8_d_t6963.c ****   // 0x088: External CG, OR Mode
 168:..\u8g2\csrc/u8x8_d_t6963.c ****   // 0x089: External CG, EXOR Mode
 169:..\u8g2\csrc/u8x8_d_t6963.c ****   // 0x08B: External CG, AND Mode
 170:..\u8g2\csrc/u8x8_d_t6963.c ****   U8X8_C(0x080),            			/* mode register: OR Mode, Internal Character Mode */
 171:..\u8g2\csrc/u8x8_d_t6963.c ****   // display mode
 172:..\u8g2\csrc/u8x8_d_t6963.c ****   // 0x090: Display off
 173:..\u8g2\csrc/u8x8_d_t6963.c ****   // 0x094: Graphic off, text on, cursor off, blink off
 174:..\u8g2\csrc/u8x8_d_t6963.c ****   // 0x096: Graphic off, text on, cursor on, blink off
 175:..\u8g2\csrc/u8x8_d_t6963.c ****   // 0x097: Graphic off, text on, cursor on, blink on
 176:..\u8g2\csrc/u8x8_d_t6963.c ****   // 0x098: Graphic on, text off, cursor off, blink off
 177:..\u8g2\csrc/u8x8_d_t6963.c ****   // 0x09a: Graphic on, text off, cursor on, blink off
 178:..\u8g2\csrc/u8x8_d_t6963.c ****   // ...
 179:..\u8g2\csrc/u8x8_d_t6963.c ****   // 0x09c: Graphic on, text on, cursor off, blink off
 180:..\u8g2\csrc/u8x8_d_t6963.c ****   // 0x09f: Graphic on, text on, cursor on, blink on
 181:..\u8g2\csrc/u8x8_d_t6963.c ****   U8X8_C(0x090),                             /* All Off */
 182:..\u8g2\csrc/u8x8_d_t6963.c ****   U8X8_AAC(0x00,0x00,0x024),	/* low, high, set adr pointer */
 183:..\u8g2\csrc/u8x8_d_t6963.c ****   
 184:..\u8g2\csrc/u8x8_d_t6963.c ****   U8X8_DLY(100),
 185:..\u8g2\csrc/u8x8_d_t6963.c ****   U8X8_END_TRANSFER(),             	/* disable chip */
 186:..\u8g2\csrc/u8x8_d_t6963.c ****   U8X8_DLY(100),
 187:..\u8g2\csrc/u8x8_d_t6963.c **** };
 188:..\u8g2\csrc/u8x8_d_t6963.c **** 
 189:..\u8g2\csrc/u8x8_d_t6963.c **** uint8_t u8x8_d_t6963_240x128(u8x8_t *u8x8, uint8_t msg, uint8_t arg_int, void *arg_ptr)
 190:..\u8g2\csrc/u8x8_d_t6963.c **** {
 188              		.loc 1 190 0
ARM GAS  C:\Users\gjl\AppData\Local\Temp\cchNG6hU.s 			page 8


 189              		.cfi_startproc
 190              		@ args = 0, pretend = 0, frame = 0
 191              		@ frame_needed = 0, uses_anonymous_args = 0
 192              	.LVL31:
 193 0000 10B5     		push	{r4, lr}
 194              		.cfi_def_cfa_offset 8
 195              		.cfi_offset 4, -8
 196              		.cfi_offset 14, -4
 197 0002 0400     		movs	r4, r0
 191:..\u8g2\csrc/u8x8_d_t6963.c ****   switch(msg)
 198              		.loc 1 191 0
 199 0004 0929     		cmp	r1, #9
 200 0006 02D0     		beq	.L14
 201 0008 0A29     		cmp	r1, #10
 202 000a 06D0     		beq	.L15
 203 000c 0EE0     		b	.L17
 204              	.L14:
 192:..\u8g2\csrc/u8x8_d_t6963.c ****   {
 193:..\u8g2\csrc/u8x8_d_t6963.c ****     case U8X8_MSG_DISPLAY_SETUP_MEMORY:
 194:..\u8g2\csrc/u8x8_d_t6963.c ****       u8x8_d_helper_display_setup_memory(u8x8, &u8x8_t6963_240x128_display_info);
 205              		.loc 1 194 0
 206 000e 0949     		ldr	r1, .L18
 207              	.LVL32:
 208 0010 1031     		adds	r1, r1, #16
 209 0012 FFF7FEFF 		bl	u8x8_d_helper_display_setup_memory
 210              	.LVL33:
 195:..\u8g2\csrc/u8x8_d_t6963.c ****       break;
 196:..\u8g2\csrc/u8x8_d_t6963.c ****     case U8X8_MSG_DISPLAY_INIT:
 197:..\u8g2\csrc/u8x8_d_t6963.c ****       u8x8_d_helper_display_init(u8x8);
 198:..\u8g2\csrc/u8x8_d_t6963.c ****       u8x8_cad_SendSequence(u8x8, u8x8_d_t6963_240x128_init_seq);
 199:..\u8g2\csrc/u8x8_d_t6963.c ****       break;
 200:..\u8g2\csrc/u8x8_d_t6963.c ****     default:
 201:..\u8g2\csrc/u8x8_d_t6963.c ****       return u8x8_d_t6963_common(u8x8, msg, arg_int, arg_ptr);
 202:..\u8g2\csrc/u8x8_d_t6963.c ****   }
 203:..\u8g2\csrc/u8x8_d_t6963.c ****   return 1;
 211              		.loc 1 203 0
 212 0016 0120     		movs	r0, #1
 195:..\u8g2\csrc/u8x8_d_t6963.c ****       break;
 213              		.loc 1 195 0
 214 0018 0AE0     		b	.L16
 215              	.LVL34:
 216              	.L15:
 197:..\u8g2\csrc/u8x8_d_t6963.c ****       u8x8_cad_SendSequence(u8x8, u8x8_d_t6963_240x128_init_seq);
 217              		.loc 1 197 0
 218 001a FFF7FEFF 		bl	u8x8_d_helper_display_init
 219              	.LVL35:
 198:..\u8g2\csrc/u8x8_d_t6963.c ****       break;
 220              		.loc 1 198 0
 221 001e 0549     		ldr	r1, .L18
 222 0020 2831     		adds	r1, r1, #40
 223 0022 2000     		movs	r0, r4
 224 0024 FFF7FEFF 		bl	u8x8_cad_SendSequence
 225              	.LVL36:
 226              		.loc 1 203 0
 227 0028 0120     		movs	r0, #1
 199:..\u8g2\csrc/u8x8_d_t6963.c ****     default:
 228              		.loc 1 199 0
ARM GAS  C:\Users\gjl\AppData\Local\Temp\cchNG6hU.s 			page 9


 229 002a 01E0     		b	.L16
 230              	.LVL37:
 231              	.L17:
 201:..\u8g2\csrc/u8x8_d_t6963.c ****   }
 232              		.loc 1 201 0
 233 002c FFF7FEFF 		bl	u8x8_d_t6963_common
 234              	.LVL38:
 235              	.L16:
 204:..\u8g2\csrc/u8x8_d_t6963.c **** }
 236              		.loc 1 204 0
 237              		@ sp needed
 238              	.LVL39:
 239 0030 10BD     		pop	{r4, pc}
 240              	.L19:
 241 0032 C046     		.align	2
 242              	.L18:
 243 0034 00000000 		.word	.LANCHOR0
 244              		.cfi_endproc
 245              	.LFE1:
 246              		.size	u8x8_d_t6963_240x128, .-u8x8_d_t6963_240x128
 247              		.section	.text.u8x8_d_t6963_240x64,"ax",%progbits
 248              		.align	2
 249              		.global	u8x8_d_t6963_240x64
 250              		.code	16
 251              		.thumb_func
 252              		.type	u8x8_d_t6963_240x64, %function
 253              	u8x8_d_t6963_240x64:
 254              	.LFB2:
 205:..\u8g2\csrc/u8x8_d_t6963.c **** 
 206:..\u8g2\csrc/u8x8_d_t6963.c **** 
 207:..\u8g2\csrc/u8x8_d_t6963.c **** 
 208:..\u8g2\csrc/u8x8_d_t6963.c **** /*=============================================*/
 209:..\u8g2\csrc/u8x8_d_t6963.c **** 
 210:..\u8g2\csrc/u8x8_d_t6963.c **** static const u8x8_display_info_t u8x8_t6963_240x64_display_info =
 211:..\u8g2\csrc/u8x8_d_t6963.c **** {
 212:..\u8g2\csrc/u8x8_d_t6963.c ****   /* chip_enable_level = */ 0,
 213:..\u8g2\csrc/u8x8_d_t6963.c ****   /* chip_disable_level = */ 1,
 214:..\u8g2\csrc/u8x8_d_t6963.c ****   
 215:..\u8g2\csrc/u8x8_d_t6963.c ****   /* post_chip_enable_wait_ns = */ 110,	/* T6963 Datasheet p30 */
 216:..\u8g2\csrc/u8x8_d_t6963.c ****   /* pre_chip_disable_wait_ns = */ 100,	/* T6963 Datasheet p30 */
 217:..\u8g2\csrc/u8x8_d_t6963.c ****   /* reset_pulse_width_ms = */ 1, 
 218:..\u8g2\csrc/u8x8_d_t6963.c ****   /* post_reset_wait_ms = */ 6, 
 219:..\u8g2\csrc/u8x8_d_t6963.c ****   /* sda_setup_time_ns = */ 20,		
 220:..\u8g2\csrc/u8x8_d_t6963.c ****   /* sck_pulse_width_ns = */  140,	
 221:..\u8g2\csrc/u8x8_d_t6963.c ****   /* sck_clock_hz = */ 1000000UL,	/* since Arduino 1.6.0, the SPI bus speed in Hz. Should be  10000
 222:..\u8g2\csrc/u8x8_d_t6963.c ****   /* spi_mode = */ 0,		
 223:..\u8g2\csrc/u8x8_d_t6963.c ****   /* i2c_bus_clock_100kHz = */ 4,
 224:..\u8g2\csrc/u8x8_d_t6963.c ****   /* data_setup_time_ns = */ 80,
 225:..\u8g2\csrc/u8x8_d_t6963.c ****   /* write_pulse_width_ns = */ 80,
 226:..\u8g2\csrc/u8x8_d_t6963.c ****   /* tile_width = */ 30,
 227:..\u8g2\csrc/u8x8_d_t6963.c ****   /* tile_hight = */ 8,
 228:..\u8g2\csrc/u8x8_d_t6963.c ****   /* default_x_offset = */ 0,
 229:..\u8g2\csrc/u8x8_d_t6963.c ****   /* flipmode_x_offset = */ 0,
 230:..\u8g2\csrc/u8x8_d_t6963.c ****   /* pixel_width = */ 240,
 231:..\u8g2\csrc/u8x8_d_t6963.c ****   /* pixel_height = */ 64
 232:..\u8g2\csrc/u8x8_d_t6963.c **** };
 233:..\u8g2\csrc/u8x8_d_t6963.c **** 
ARM GAS  C:\Users\gjl\AppData\Local\Temp\cchNG6hU.s 			page 10


 234:..\u8g2\csrc/u8x8_d_t6963.c **** 
 235:..\u8g2\csrc/u8x8_d_t6963.c **** /* 240x64 */
 236:..\u8g2\csrc/u8x8_d_t6963.c **** static const uint8_t u8x8_d_t6963_240x64_init_seq[] = {
 237:..\u8g2\csrc/u8x8_d_t6963.c ****   U8X8_DLY(100),
 238:..\u8g2\csrc/u8x8_d_t6963.c ****   U8X8_START_TRANSFER(),             	/* enable chip, delay is part of the transfer start */
 239:..\u8g2\csrc/u8x8_d_t6963.c ****   U8X8_DLY(100),
 240:..\u8g2\csrc/u8x8_d_t6963.c ****   
 241:..\u8g2\csrc/u8x8_d_t6963.c ****   U8X8_AAC(0x00,0x00,0x021),	/* low, high, set cursor pos */
 242:..\u8g2\csrc/u8x8_d_t6963.c ****   U8X8_AAC(0x00,0x00,0x022),	/* low, high, set offset */
 243:..\u8g2\csrc/u8x8_d_t6963.c ****   U8X8_AAC(0x00,0x00,0x040),	/* low, high, set text home */
 244:..\u8g2\csrc/u8x8_d_t6963.c ****   U8X8_AAC(240/8,0x00,0x041),	/* low, high, set text columns */
 245:..\u8g2\csrc/u8x8_d_t6963.c ****   U8X8_AAC(0x00,0x00,0x042),	/* low, high, graphics home */  
 246:..\u8g2\csrc/u8x8_d_t6963.c ****   U8X8_AAC(240/8,0x00,0x043),	/* low, high, graphics columns */
 247:..\u8g2\csrc/u8x8_d_t6963.c ****   U8X8_DLY(2),					/* delay 2ms */
 248:..\u8g2\csrc/u8x8_d_t6963.c ****   // mode set
 249:..\u8g2\csrc/u8x8_d_t6963.c ****   // 0x080: Internal CG, OR Mode
 250:..\u8g2\csrc/u8x8_d_t6963.c ****   // 0x081: Internal CG, EXOR Mode
 251:..\u8g2\csrc/u8x8_d_t6963.c ****   // 0x083: Internal CG, AND Mode
 252:..\u8g2\csrc/u8x8_d_t6963.c ****   // 0x088: External CG, OR Mode
 253:..\u8g2\csrc/u8x8_d_t6963.c ****   // 0x089: External CG, EXOR Mode
 254:..\u8g2\csrc/u8x8_d_t6963.c ****   // 0x08B: External CG, AND Mode
 255:..\u8g2\csrc/u8x8_d_t6963.c ****   U8X8_C(0x080),            			/* mode register: OR Mode, Internal Character Mode */
 256:..\u8g2\csrc/u8x8_d_t6963.c ****   // display mode
 257:..\u8g2\csrc/u8x8_d_t6963.c ****   // 0x090: Display off
 258:..\u8g2\csrc/u8x8_d_t6963.c ****   // 0x094: Graphic off, text on, cursor off, blink off
 259:..\u8g2\csrc/u8x8_d_t6963.c ****   // 0x096: Graphic off, text on, cursor on, blink off
 260:..\u8g2\csrc/u8x8_d_t6963.c ****   // 0x097: Graphic off, text on, cursor on, blink on
 261:..\u8g2\csrc/u8x8_d_t6963.c ****   // 0x098: Graphic on, text off, cursor off, blink off
 262:..\u8g2\csrc/u8x8_d_t6963.c ****   // 0x09a: Graphic on, text off, cursor on, blink off
 263:..\u8g2\csrc/u8x8_d_t6963.c ****   // ...
 264:..\u8g2\csrc/u8x8_d_t6963.c ****   // 0x09c: Graphic on, text on, cursor off, blink off
 265:..\u8g2\csrc/u8x8_d_t6963.c ****   // 0x09f: Graphic on, text on, cursor on, blink on
 266:..\u8g2\csrc/u8x8_d_t6963.c ****   U8X8_C(0x090),                             /* All Off */
 267:..\u8g2\csrc/u8x8_d_t6963.c ****   U8X8_AAC(0x00,0x00,0x024),	/* low, high, set adr pointer */
 268:..\u8g2\csrc/u8x8_d_t6963.c ****   
 269:..\u8g2\csrc/u8x8_d_t6963.c ****   U8X8_DLY(100),
 270:..\u8g2\csrc/u8x8_d_t6963.c ****   U8X8_END_TRANSFER(),             	/* disable chip */
 271:..\u8g2\csrc/u8x8_d_t6963.c ****   U8X8_DLY(100),
 272:..\u8g2\csrc/u8x8_d_t6963.c **** };
 273:..\u8g2\csrc/u8x8_d_t6963.c **** 
 274:..\u8g2\csrc/u8x8_d_t6963.c **** uint8_t u8x8_d_t6963_240x64(u8x8_t *u8x8, uint8_t msg, uint8_t arg_int, void *arg_ptr)
 275:..\u8g2\csrc/u8x8_d_t6963.c **** {
 255              		.loc 1 275 0
 256              		.cfi_startproc
 257              		@ args = 0, pretend = 0, frame = 0
 258              		@ frame_needed = 0, uses_anonymous_args = 0
 259              	.LVL40:
 260 0000 10B5     		push	{r4, lr}
 261              		.cfi_def_cfa_offset 8
 262              		.cfi_offset 4, -8
 263              		.cfi_offset 14, -4
 264 0002 0400     		movs	r4, r0
 276:..\u8g2\csrc/u8x8_d_t6963.c ****   switch(msg)
 265              		.loc 1 276 0
 266 0004 0929     		cmp	r1, #9
 267 0006 02D0     		beq	.L22
 268 0008 0A29     		cmp	r1, #10
ARM GAS  C:\Users\gjl\AppData\Local\Temp\cchNG6hU.s 			page 11


 269 000a 06D0     		beq	.L23
 270 000c 0EE0     		b	.L25
 271              	.L22:
 277:..\u8g2\csrc/u8x8_d_t6963.c ****   {
 278:..\u8g2\csrc/u8x8_d_t6963.c ****     case U8X8_MSG_DISPLAY_SETUP_MEMORY:
 279:..\u8g2\csrc/u8x8_d_t6963.c ****       u8x8_d_helper_display_setup_memory(u8x8, &u8x8_t6963_240x64_display_info);
 272              		.loc 1 279 0
 273 000e 0949     		ldr	r1, .L26
 274              	.LVL41:
 275 0010 6431     		adds	r1, r1, #100
 276 0012 FFF7FEFF 		bl	u8x8_d_helper_display_setup_memory
 277              	.LVL42:
 280:..\u8g2\csrc/u8x8_d_t6963.c ****       break;
 281:..\u8g2\csrc/u8x8_d_t6963.c ****     case U8X8_MSG_DISPLAY_INIT:
 282:..\u8g2\csrc/u8x8_d_t6963.c ****       u8x8_d_helper_display_init(u8x8);
 283:..\u8g2\csrc/u8x8_d_t6963.c ****       u8x8_cad_SendSequence(u8x8, u8x8_d_t6963_240x64_init_seq);
 284:..\u8g2\csrc/u8x8_d_t6963.c ****       break;
 285:..\u8g2\csrc/u8x8_d_t6963.c ****     default:
 286:..\u8g2\csrc/u8x8_d_t6963.c ****       return u8x8_d_t6963_common(u8x8, msg, arg_int, arg_ptr);
 287:..\u8g2\csrc/u8x8_d_t6963.c ****   }
 288:..\u8g2\csrc/u8x8_d_t6963.c ****   return 1;
 278              		.loc 1 288 0
 279 0016 0120     		movs	r0, #1
 280:..\u8g2\csrc/u8x8_d_t6963.c ****       break;
 280              		.loc 1 280 0
 281 0018 0AE0     		b	.L24
 282              	.LVL43:
 283              	.L23:
 282:..\u8g2\csrc/u8x8_d_t6963.c ****       u8x8_cad_SendSequence(u8x8, u8x8_d_t6963_240x64_init_seq);
 284              		.loc 1 282 0
 285 001a FFF7FEFF 		bl	u8x8_d_helper_display_init
 286              	.LVL44:
 283:..\u8g2\csrc/u8x8_d_t6963.c ****       break;
 287              		.loc 1 283 0
 288 001e 0549     		ldr	r1, .L26
 289 0020 7C31     		adds	r1, r1, #124
 290 0022 2000     		movs	r0, r4
 291 0024 FFF7FEFF 		bl	u8x8_cad_SendSequence
 292              	.LVL45:
 293              		.loc 1 288 0
 294 0028 0120     		movs	r0, #1
 284:..\u8g2\csrc/u8x8_d_t6963.c ****     default:
 295              		.loc 1 284 0
 296 002a 01E0     		b	.L24
 297              	.LVL46:
 298              	.L25:
 286:..\u8g2\csrc/u8x8_d_t6963.c ****   }
 299              		.loc 1 286 0
 300 002c FFF7FEFF 		bl	u8x8_d_t6963_common
 301              	.LVL47:
 302              	.L24:
 289:..\u8g2\csrc/u8x8_d_t6963.c **** }
 303              		.loc 1 289 0
 304              		@ sp needed
 305              	.LVL48:
 306 0030 10BD     		pop	{r4, pc}
 307              	.L27:
ARM GAS  C:\Users\gjl\AppData\Local\Temp\cchNG6hU.s 			page 12


 308 0032 C046     		.align	2
 309              	.L26:
 310 0034 00000000 		.word	.LANCHOR0
 311              		.cfi_endproc
 312              	.LFE2:
 313              		.size	u8x8_d_t6963_240x64, .-u8x8_d_t6963_240x64
 314              		.section	.text.u8x8_d_t6963_256x64,"ax",%progbits
 315              		.align	2
 316              		.global	u8x8_d_t6963_256x64
 317              		.code	16
 318              		.thumb_func
 319              		.type	u8x8_d_t6963_256x64, %function
 320              	u8x8_d_t6963_256x64:
 321              	.LFB3:
 290:..\u8g2\csrc/u8x8_d_t6963.c **** 
 291:..\u8g2\csrc/u8x8_d_t6963.c **** 
 292:..\u8g2\csrc/u8x8_d_t6963.c **** 
 293:..\u8g2\csrc/u8x8_d_t6963.c **** /*=============================================*/
 294:..\u8g2\csrc/u8x8_d_t6963.c **** 
 295:..\u8g2\csrc/u8x8_d_t6963.c **** 
 296:..\u8g2\csrc/u8x8_d_t6963.c **** 
 297:..\u8g2\csrc/u8x8_d_t6963.c **** static const u8x8_display_info_t u8x8_t6963_256x64_display_info =
 298:..\u8g2\csrc/u8x8_d_t6963.c **** {
 299:..\u8g2\csrc/u8x8_d_t6963.c ****   /* chip_enable_level = */ 0,
 300:..\u8g2\csrc/u8x8_d_t6963.c ****   /* chip_disable_level = */ 1,
 301:..\u8g2\csrc/u8x8_d_t6963.c ****   
 302:..\u8g2\csrc/u8x8_d_t6963.c ****   /* post_chip_enable_wait_ns = */ 110,	/* T6963 Datasheet p30 */
 303:..\u8g2\csrc/u8x8_d_t6963.c ****   /* pre_chip_disable_wait_ns = */ 100,	/* T6963 Datasheet p30 */
 304:..\u8g2\csrc/u8x8_d_t6963.c ****   /* reset_pulse_width_ms = */ 1, 
 305:..\u8g2\csrc/u8x8_d_t6963.c ****   /* post_reset_wait_ms = */ 6, 
 306:..\u8g2\csrc/u8x8_d_t6963.c ****   /* sda_setup_time_ns = */ 20,		
 307:..\u8g2\csrc/u8x8_d_t6963.c ****   /* sck_pulse_width_ns = */  140,	
 308:..\u8g2\csrc/u8x8_d_t6963.c ****   /* sck_clock_hz = */ 1000000UL,	/* since Arduino 1.6.0, the SPI bus speed in Hz. Should be  10000
 309:..\u8g2\csrc/u8x8_d_t6963.c ****   /* spi_mode = */ 0,		
 310:..\u8g2\csrc/u8x8_d_t6963.c ****   /* i2c_bus_clock_100kHz = */ 4,
 311:..\u8g2\csrc/u8x8_d_t6963.c ****   /* data_setup_time_ns = */ 80,
 312:..\u8g2\csrc/u8x8_d_t6963.c ****   /* write_pulse_width_ns = */ 80,
 313:..\u8g2\csrc/u8x8_d_t6963.c ****   /* tile_width = */ 32,
 314:..\u8g2\csrc/u8x8_d_t6963.c ****   /* tile_hight = */ 8,
 315:..\u8g2\csrc/u8x8_d_t6963.c ****   /* default_x_offset = */ 0,
 316:..\u8g2\csrc/u8x8_d_t6963.c ****   /* flipmode_x_offset = */ 0,
 317:..\u8g2\csrc/u8x8_d_t6963.c ****   /* pixel_width = */ 256,
 318:..\u8g2\csrc/u8x8_d_t6963.c ****   /* pixel_height = */ 64
 319:..\u8g2\csrc/u8x8_d_t6963.c **** };
 320:..\u8g2\csrc/u8x8_d_t6963.c **** 
 321:..\u8g2\csrc/u8x8_d_t6963.c **** /* 256x64 */
 322:..\u8g2\csrc/u8x8_d_t6963.c **** static const uint8_t u8x8_d_t6963_256x64_init_seq[] = {
 323:..\u8g2\csrc/u8x8_d_t6963.c ****   U8X8_DLY(100),
 324:..\u8g2\csrc/u8x8_d_t6963.c ****   U8X8_START_TRANSFER(),             	/* enable chip, delay is part of the transfer start */
 325:..\u8g2\csrc/u8x8_d_t6963.c ****   U8X8_DLY(100),
 326:..\u8g2\csrc/u8x8_d_t6963.c ****   
 327:..\u8g2\csrc/u8x8_d_t6963.c ****   U8X8_AAC(0x00,0x00,0x021),	/* low, high, set cursor pos */
 328:..\u8g2\csrc/u8x8_d_t6963.c ****   U8X8_AAC(0x00,0x00,0x022),	/* low, high, set offset */
 329:..\u8g2\csrc/u8x8_d_t6963.c ****   U8X8_AAC(0x00,0x00,0x040),	/* low, high, set text home */
 330:..\u8g2\csrc/u8x8_d_t6963.c ****   U8X8_AAC(256/8,0x00,0x041),	/* low, high, set text columns */
 331:..\u8g2\csrc/u8x8_d_t6963.c ****   U8X8_AAC(0x00,0x00,0x042),	/* low, high, graphics home */  
 332:..\u8g2\csrc/u8x8_d_t6963.c ****   U8X8_AAC(256/8,0x00,0x043),	/* low, high, graphics columns */
ARM GAS  C:\Users\gjl\AppData\Local\Temp\cchNG6hU.s 			page 13


 333:..\u8g2\csrc/u8x8_d_t6963.c ****   U8X8_DLY(2),					/* delay 2ms */
 334:..\u8g2\csrc/u8x8_d_t6963.c ****   // mode set
 335:..\u8g2\csrc/u8x8_d_t6963.c ****   // 0x080: Internal CG, OR Mode
 336:..\u8g2\csrc/u8x8_d_t6963.c ****   // 0x081: Internal CG, EXOR Mode
 337:..\u8g2\csrc/u8x8_d_t6963.c ****   // 0x083: Internal CG, AND Mode
 338:..\u8g2\csrc/u8x8_d_t6963.c ****   // 0x088: External CG, OR Mode
 339:..\u8g2\csrc/u8x8_d_t6963.c ****   // 0x089: External CG, EXOR Mode
 340:..\u8g2\csrc/u8x8_d_t6963.c ****   // 0x08B: External CG, AND Mode
 341:..\u8g2\csrc/u8x8_d_t6963.c ****   U8X8_C(0x080),            			/* mode register: OR Mode, Internal Character Mode */
 342:..\u8g2\csrc/u8x8_d_t6963.c ****   // display mode
 343:..\u8g2\csrc/u8x8_d_t6963.c ****   // 0x090: Display off
 344:..\u8g2\csrc/u8x8_d_t6963.c ****   // 0x094: Graphic off, text on, cursor off, blink off
 345:..\u8g2\csrc/u8x8_d_t6963.c ****   // 0x096: Graphic off, text on, cursor on, blink off
 346:..\u8g2\csrc/u8x8_d_t6963.c ****   // 0x097: Graphic off, text on, cursor on, blink on
 347:..\u8g2\csrc/u8x8_d_t6963.c ****   // 0x098: Graphic on, text off, cursor off, blink off
 348:..\u8g2\csrc/u8x8_d_t6963.c ****   // 0x09a: Graphic on, text off, cursor on, blink off
 349:..\u8g2\csrc/u8x8_d_t6963.c ****   // ...
 350:..\u8g2\csrc/u8x8_d_t6963.c ****   // 0x09c: Graphic on, text on, cursor off, blink off
 351:..\u8g2\csrc/u8x8_d_t6963.c ****   // 0x09f: Graphic on, text on, cursor on, blink on
 352:..\u8g2\csrc/u8x8_d_t6963.c ****   U8X8_C(0x090),                             /* All Off */
 353:..\u8g2\csrc/u8x8_d_t6963.c ****   U8X8_AAC(0x00,0x00,0x024),	/* low, high, set adr pointer */
 354:..\u8g2\csrc/u8x8_d_t6963.c ****   
 355:..\u8g2\csrc/u8x8_d_t6963.c ****   U8X8_DLY(100),
 356:..\u8g2\csrc/u8x8_d_t6963.c ****   U8X8_END_TRANSFER(),             	/* disable chip */
 357:..\u8g2\csrc/u8x8_d_t6963.c ****   U8X8_DLY(100),
 358:..\u8g2\csrc/u8x8_d_t6963.c **** };
 359:..\u8g2\csrc/u8x8_d_t6963.c **** 
 360:..\u8g2\csrc/u8x8_d_t6963.c **** uint8_t u8x8_d_t6963_256x64(u8x8_t *u8x8, uint8_t msg, uint8_t arg_int, void *arg_ptr)
 361:..\u8g2\csrc/u8x8_d_t6963.c **** {
 322              		.loc 1 361 0
 323              		.cfi_startproc
 324              		@ args = 0, pretend = 0, frame = 0
 325              		@ frame_needed = 0, uses_anonymous_args = 0
 326              	.LVL49:
 327 0000 10B5     		push	{r4, lr}
 328              		.cfi_def_cfa_offset 8
 329              		.cfi_offset 4, -8
 330              		.cfi_offset 14, -4
 331 0002 0400     		movs	r4, r0
 362:..\u8g2\csrc/u8x8_d_t6963.c ****   switch(msg)
 332              		.loc 1 362 0
 333 0004 0929     		cmp	r1, #9
 334 0006 02D0     		beq	.L30
 335 0008 0A29     		cmp	r1, #10
 336 000a 06D0     		beq	.L31
 337 000c 0EE0     		b	.L33
 338              	.L30:
 363:..\u8g2\csrc/u8x8_d_t6963.c ****   {
 364:..\u8g2\csrc/u8x8_d_t6963.c ****     case U8X8_MSG_DISPLAY_SETUP_MEMORY:
 365:..\u8g2\csrc/u8x8_d_t6963.c ****       u8x8_d_helper_display_setup_memory(u8x8, &u8x8_t6963_256x64_display_info);
 339              		.loc 1 365 0
 340 000e 0949     		ldr	r1, .L34
 341              	.LVL50:
 342 0010 3831     		adds	r1, r1, #56
 343 0012 FFF7FEFF 		bl	u8x8_d_helper_display_setup_memory
 344              	.LVL51:
 366:..\u8g2\csrc/u8x8_d_t6963.c ****       break;
ARM GAS  C:\Users\gjl\AppData\Local\Temp\cchNG6hU.s 			page 14


 367:..\u8g2\csrc/u8x8_d_t6963.c ****     case U8X8_MSG_DISPLAY_INIT:
 368:..\u8g2\csrc/u8x8_d_t6963.c ****       u8x8_d_helper_display_init(u8x8);
 369:..\u8g2\csrc/u8x8_d_t6963.c ****       u8x8_cad_SendSequence(u8x8, u8x8_d_t6963_256x64_init_seq);
 370:..\u8g2\csrc/u8x8_d_t6963.c ****       break;
 371:..\u8g2\csrc/u8x8_d_t6963.c ****     default:
 372:..\u8g2\csrc/u8x8_d_t6963.c ****       return u8x8_d_t6963_common(u8x8, msg, arg_int, arg_ptr);
 373:..\u8g2\csrc/u8x8_d_t6963.c ****   }
 374:..\u8g2\csrc/u8x8_d_t6963.c ****   return 1;
 345              		.loc 1 374 0
 346 0016 0120     		movs	r0, #1
 366:..\u8g2\csrc/u8x8_d_t6963.c ****       break;
 347              		.loc 1 366 0
 348 0018 0AE0     		b	.L32
 349              	.LVL52:
 350              	.L31:
 368:..\u8g2\csrc/u8x8_d_t6963.c ****       u8x8_cad_SendSequence(u8x8, u8x8_d_t6963_256x64_init_seq);
 351              		.loc 1 368 0
 352 001a FFF7FEFF 		bl	u8x8_d_helper_display_init
 353              	.LVL53:
 369:..\u8g2\csrc/u8x8_d_t6963.c ****       break;
 354              		.loc 1 369 0
 355 001e 0549     		ldr	r1, .L34
 356 0020 5031     		adds	r1, r1, #80
 357 0022 2000     		movs	r0, r4
 358 0024 FFF7FEFF 		bl	u8x8_cad_SendSequence
 359              	.LVL54:
 360              		.loc 1 374 0
 361 0028 0120     		movs	r0, #1
 370:..\u8g2\csrc/u8x8_d_t6963.c ****     default:
 362              		.loc 1 370 0
 363 002a 01E0     		b	.L32
 364              	.LVL55:
 365              	.L33:
 372:..\u8g2\csrc/u8x8_d_t6963.c ****   }
 366              		.loc 1 372 0
 367 002c FFF7FEFF 		bl	u8x8_d_t6963_common
 368              	.LVL56:
 369              	.L32:
 375:..\u8g2\csrc/u8x8_d_t6963.c **** }
 370              		.loc 1 375 0
 371              		@ sp needed
 372              	.LVL57:
 373 0030 10BD     		pop	{r4, pc}
 374              	.L35:
 375 0032 C046     		.align	2
 376              	.L34:
 377 0034 80000000 		.word	.LANCHOR1
 378              		.cfi_endproc
 379              	.LFE3:
 380              		.size	u8x8_d_t6963_256x64, .-u8x8_d_t6963_256x64
 381              		.section	.text.u8x8_d_t6963_128x64,"ax",%progbits
 382              		.align	2
 383              		.global	u8x8_d_t6963_128x64
 384              		.code	16
 385              		.thumb_func
 386              		.type	u8x8_d_t6963_128x64, %function
 387              	u8x8_d_t6963_128x64:
ARM GAS  C:\Users\gjl\AppData\Local\Temp\cchNG6hU.s 			page 15


 388              	.LFB4:
 376:..\u8g2\csrc/u8x8_d_t6963.c **** 
 377:..\u8g2\csrc/u8x8_d_t6963.c **** 
 378:..\u8g2\csrc/u8x8_d_t6963.c **** /*=============================================*/
 379:..\u8g2\csrc/u8x8_d_t6963.c **** 
 380:..\u8g2\csrc/u8x8_d_t6963.c **** static const u8x8_display_info_t u8x8_t6963_128x64_display_info =
 381:..\u8g2\csrc/u8x8_d_t6963.c **** {
 382:..\u8g2\csrc/u8x8_d_t6963.c ****   /* chip_enable_level = */ 1,
 383:..\u8g2\csrc/u8x8_d_t6963.c ****   /* chip_disable_level = */ 0,
 384:..\u8g2\csrc/u8x8_d_t6963.c ****   
 385:..\u8g2\csrc/u8x8_d_t6963.c ****   /* post_chip_enable_wait_ns = */ 10,	/* T6963 Datasheet p30 */
 386:..\u8g2\csrc/u8x8_d_t6963.c ****   /* pre_chip_disable_wait_ns = */ 100,	/* T6963 Datasheet p30 */
 387:..\u8g2\csrc/u8x8_d_t6963.c ****   /* reset_pulse_width_ms = */ 1, 
 388:..\u8g2\csrc/u8x8_d_t6963.c ****   /* post_reset_wait_ms = */ 6, 
 389:..\u8g2\csrc/u8x8_d_t6963.c ****   /* sda_setup_time_ns = */ 20,		
 390:..\u8g2\csrc/u8x8_d_t6963.c ****   /* sck_pulse_width_ns = */  140,	
 391:..\u8g2\csrc/u8x8_d_t6963.c ****   /* sck_clock_hz = */ 1000000UL,	/* since Arduino 1.6.0, the SPI bus speed in Hz. Should be  10000
 392:..\u8g2\csrc/u8x8_d_t6963.c ****   /* spi_mode = */ 0,		
 393:..\u8g2\csrc/u8x8_d_t6963.c ****   /* i2c_bus_clock_100kHz = */ 4,
 394:..\u8g2\csrc/u8x8_d_t6963.c ****   /* data_setup_time_ns = */ 80,
 395:..\u8g2\csrc/u8x8_d_t6963.c ****   /* write_pulse_width_ns = */ 80,
 396:..\u8g2\csrc/u8x8_d_t6963.c ****   /* tile_width = */ 16,
 397:..\u8g2\csrc/u8x8_d_t6963.c ****   /* tile_hight = */ 8,
 398:..\u8g2\csrc/u8x8_d_t6963.c ****   /* default_x_offset = */ 0,
 399:..\u8g2\csrc/u8x8_d_t6963.c ****   /* flipmode_x_offset = */ 0,
 400:..\u8g2\csrc/u8x8_d_t6963.c ****   /* pixel_width = */ 128,
 401:..\u8g2\csrc/u8x8_d_t6963.c ****   /* pixel_height = */ 64
 402:..\u8g2\csrc/u8x8_d_t6963.c **** };
 403:..\u8g2\csrc/u8x8_d_t6963.c **** 
 404:..\u8g2\csrc/u8x8_d_t6963.c **** /* 128x64 */
 405:..\u8g2\csrc/u8x8_d_t6963.c **** static const uint8_t u8x8_d_t6963_128x64_init_seq[] = {
 406:..\u8g2\csrc/u8x8_d_t6963.c ****   U8X8_DLY(100),
 407:..\u8g2\csrc/u8x8_d_t6963.c ****   U8X8_START_TRANSFER(),             	/* enable chip, delay is part of the transfer start */
 408:..\u8g2\csrc/u8x8_d_t6963.c ****   U8X8_DLY(100),
 409:..\u8g2\csrc/u8x8_d_t6963.c ****   
 410:..\u8g2\csrc/u8x8_d_t6963.c ****   U8X8_AAC(0x00,0x00,0x021),	/* low, high, set cursor pos */
 411:..\u8g2\csrc/u8x8_d_t6963.c ****   U8X8_AAC(0x00,0x00,0x022),	/* low, high, set offset */
 412:..\u8g2\csrc/u8x8_d_t6963.c ****   U8X8_AAC(0x00,0x00,0x040),	/* low, high, set text home */
 413:..\u8g2\csrc/u8x8_d_t6963.c ****   U8X8_AAC(128/8,0x00,0x041),	/* low, high, set text columns */
 414:..\u8g2\csrc/u8x8_d_t6963.c ****   U8X8_AAC(0x00,0x00,0x042),	/* low, high, graphics home */  
 415:..\u8g2\csrc/u8x8_d_t6963.c ****   U8X8_AAC(128/8,0x00,0x043),	/* low, high, graphics columns */
 416:..\u8g2\csrc/u8x8_d_t6963.c ****   U8X8_DLY(2),					/* delay 2ms */
 417:..\u8g2\csrc/u8x8_d_t6963.c ****   // mode set
 418:..\u8g2\csrc/u8x8_d_t6963.c ****   // 0x080: Internal CG, OR Mode
 419:..\u8g2\csrc/u8x8_d_t6963.c ****   // 0x081: Internal CG, EXOR Mode
 420:..\u8g2\csrc/u8x8_d_t6963.c ****   // 0x083: Internal CG, AND Mode
 421:..\u8g2\csrc/u8x8_d_t6963.c ****   // 0x088: External CG, OR Mode
 422:..\u8g2\csrc/u8x8_d_t6963.c ****   // 0x089: External CG, EXOR Mode
 423:..\u8g2\csrc/u8x8_d_t6963.c ****   // 0x08B: External CG, AND Mode
 424:..\u8g2\csrc/u8x8_d_t6963.c ****   U8X8_C(0x080),            			/* mode register: OR Mode, Internal Character Mode */
 425:..\u8g2\csrc/u8x8_d_t6963.c ****   // display mode
 426:..\u8g2\csrc/u8x8_d_t6963.c ****   // 0x090: Display off
 427:..\u8g2\csrc/u8x8_d_t6963.c ****   // 0x094: Graphic off, text on, cursor off, blink off
 428:..\u8g2\csrc/u8x8_d_t6963.c ****   // 0x096: Graphic off, text on, cursor on, blink off
 429:..\u8g2\csrc/u8x8_d_t6963.c ****   // 0x097: Graphic off, text on, cursor on, blink on
 430:..\u8g2\csrc/u8x8_d_t6963.c ****   // 0x098: Graphic on, text off, cursor off, blink off
 431:..\u8g2\csrc/u8x8_d_t6963.c ****   // 0x09a: Graphic on, text off, cursor on, blink off
ARM GAS  C:\Users\gjl\AppData\Local\Temp\cchNG6hU.s 			page 16


 432:..\u8g2\csrc/u8x8_d_t6963.c ****   // ...
 433:..\u8g2\csrc/u8x8_d_t6963.c ****   // 0x09c: Graphic on, text on, cursor off, blink off
 434:..\u8g2\csrc/u8x8_d_t6963.c ****   // 0x09f: Graphic on, text on, cursor on, blink on
 435:..\u8g2\csrc/u8x8_d_t6963.c ****   U8X8_C(0x090),                             /* All Off */
 436:..\u8g2\csrc/u8x8_d_t6963.c ****   U8X8_AAC(0x00,0x00,0x024),	/* low, high, set adr pointer */
 437:..\u8g2\csrc/u8x8_d_t6963.c ****   
 438:..\u8g2\csrc/u8x8_d_t6963.c ****   U8X8_DLY(100),
 439:..\u8g2\csrc/u8x8_d_t6963.c ****   U8X8_END_TRANSFER(),             	/* disable chip */
 440:..\u8g2\csrc/u8x8_d_t6963.c ****   U8X8_DLY(100),
 441:..\u8g2\csrc/u8x8_d_t6963.c **** };
 442:..\u8g2\csrc/u8x8_d_t6963.c **** 
 443:..\u8g2\csrc/u8x8_d_t6963.c **** uint8_t u8x8_d_t6963_128x64(u8x8_t *u8x8, uint8_t msg, uint8_t arg_int, void *arg_ptr)
 444:..\u8g2\csrc/u8x8_d_t6963.c **** {
 389              		.loc 1 444 0
 390              		.cfi_startproc
 391              		@ args = 0, pretend = 0, frame = 0
 392              		@ frame_needed = 0, uses_anonymous_args = 0
 393              	.LVL58:
 394 0000 10B5     		push	{r4, lr}
 395              		.cfi_def_cfa_offset 8
 396              		.cfi_offset 4, -8
 397              		.cfi_offset 14, -4
 398 0002 0400     		movs	r4, r0
 445:..\u8g2\csrc/u8x8_d_t6963.c ****   switch(msg)
 399              		.loc 1 445 0
 400 0004 0929     		cmp	r1, #9
 401 0006 02D0     		beq	.L38
 402 0008 0A29     		cmp	r1, #10
 403 000a 06D0     		beq	.L39
 404 000c 0EE0     		b	.L41
 405              	.L38:
 446:..\u8g2\csrc/u8x8_d_t6963.c ****   {
 447:..\u8g2\csrc/u8x8_d_t6963.c ****     case U8X8_MSG_DISPLAY_SETUP_MEMORY:
 448:..\u8g2\csrc/u8x8_d_t6963.c ****       u8x8_d_helper_display_setup_memory(u8x8, &u8x8_t6963_128x64_display_info);
 406              		.loc 1 448 0
 407 000e 0949     		ldr	r1, .L42
 408              	.LVL59:
 409 0010 0C31     		adds	r1, r1, #12
 410 0012 FFF7FEFF 		bl	u8x8_d_helper_display_setup_memory
 411              	.LVL60:
 449:..\u8g2\csrc/u8x8_d_t6963.c ****       break;
 450:..\u8g2\csrc/u8x8_d_t6963.c ****     case U8X8_MSG_DISPLAY_INIT:
 451:..\u8g2\csrc/u8x8_d_t6963.c ****       u8x8_d_helper_display_init(u8x8);
 452:..\u8g2\csrc/u8x8_d_t6963.c ****       u8x8_cad_SendSequence(u8x8, u8x8_d_t6963_128x64_init_seq);
 453:..\u8g2\csrc/u8x8_d_t6963.c ****       break;
 454:..\u8g2\csrc/u8x8_d_t6963.c ****     default:
 455:..\u8g2\csrc/u8x8_d_t6963.c ****       return u8x8_d_t6963_common(u8x8, msg, arg_int, arg_ptr);
 456:..\u8g2\csrc/u8x8_d_t6963.c ****   }
 457:..\u8g2\csrc/u8x8_d_t6963.c ****   return 1;
 412              		.loc 1 457 0
 413 0016 0120     		movs	r0, #1
 449:..\u8g2\csrc/u8x8_d_t6963.c ****       break;
 414              		.loc 1 449 0
 415 0018 0AE0     		b	.L40
 416              	.LVL61:
 417              	.L39:
 451:..\u8g2\csrc/u8x8_d_t6963.c ****       u8x8_cad_SendSequence(u8x8, u8x8_d_t6963_128x64_init_seq);
ARM GAS  C:\Users\gjl\AppData\Local\Temp\cchNG6hU.s 			page 17


 418              		.loc 1 451 0
 419 001a FFF7FEFF 		bl	u8x8_d_helper_display_init
 420              	.LVL62:
 452:..\u8g2\csrc/u8x8_d_t6963.c ****       break;
 421              		.loc 1 452 0
 422 001e 0549     		ldr	r1, .L42
 423 0020 2431     		adds	r1, r1, #36
 424 0022 2000     		movs	r0, r4
 425 0024 FFF7FEFF 		bl	u8x8_cad_SendSequence
 426              	.LVL63:
 427              		.loc 1 457 0
 428 0028 0120     		movs	r0, #1
 453:..\u8g2\csrc/u8x8_d_t6963.c ****     default:
 429              		.loc 1 453 0
 430 002a 01E0     		b	.L40
 431              	.LVL64:
 432              	.L41:
 455:..\u8g2\csrc/u8x8_d_t6963.c ****   }
 433              		.loc 1 455 0
 434 002c FFF7FEFF 		bl	u8x8_d_t6963_common
 435              	.LVL65:
 436              	.L40:
 458:..\u8g2\csrc/u8x8_d_t6963.c **** }
 437              		.loc 1 458 0
 438              		@ sp needed
 439              	.LVL66:
 440 0030 10BD     		pop	{r4, pc}
 441              	.L43:
 442 0032 C046     		.align	2
 443              	.L42:
 444 0034 00010000 		.word	.LANCHOR2
 445              		.cfi_endproc
 446              	.LFE4:
 447              		.size	u8x8_d_t6963_128x64, .-u8x8_d_t6963_128x64
 448              		.section	.rodata
 449              		.align	2
 450              		.set	.LANCHOR0,. + 0
 451              		.set	.LANCHOR1,. + 128
 452              		.set	.LANCHOR2,. + 256
 453              		.type	u8x8_d_t6963_powersave0_seq, %object
 454              		.size	u8x8_d_t6963_powersave0_seq, 5
 455              	u8x8_d_t6963_powersave0_seq:
 456 0000 18       		.byte	24
 457 0001 15       		.byte	21
 458 0002 98       		.byte	-104
 459 0003 19       		.byte	25
 460 0004 FF       		.byte	-1
 461 0005 000000   		.space	3
 462              		.type	u8x8_d_t6963_powersave1_seq, %object
 463              		.size	u8x8_d_t6963_powersave1_seq, 5
 464              	u8x8_d_t6963_powersave1_seq:
 465 0008 18       		.byte	24
 466 0009 15       		.byte	21
 467 000a 90       		.byte	-112
 468 000b 19       		.byte	25
 469 000c FF       		.byte	-1
 470 000d 000000   		.space	3
ARM GAS  C:\Users\gjl\AppData\Local\Temp\cchNG6hU.s 			page 18


 471              		.type	u8x8_t6963_240x128_display_info, %object
 472              		.size	u8x8_t6963_240x128_display_info, 24
 473              	u8x8_t6963_240x128_display_info:
 474 0010 00       		.byte	0
 475 0011 01       		.byte	1
 476 0012 6E       		.byte	110
 477 0013 64       		.byte	100
 478 0014 01       		.byte	1
 479 0015 06       		.byte	6
 480 0016 14       		.byte	20
 481 0017 8C       		.byte	-116
 482 0018 40420F00 		.word	1000000
 483 001c 00       		.byte	0
 484 001d 04       		.byte	4
 485 001e 50       		.byte	80
 486 001f 50       		.byte	80
 487 0020 1E       		.byte	30
 488 0021 10       		.byte	16
 489 0022 00       		.byte	0
 490 0023 00       		.byte	0
 491 0024 F000     		.short	240
 492 0026 8000     		.short	128
 493              		.type	u8x8_d_t6963_240x128_init_seq, %object
 494              		.size	u8x8_d_t6963_240x128_init_seq, 58
 495              	u8x8_d_t6963_240x128_init_seq:
 496 0028 FE       		.byte	-2
 497 0029 64       		.byte	100
 498 002a 18       		.byte	24
 499 002b FE       		.byte	-2
 500 002c 64       		.byte	100
 501 002d 16       		.byte	22
 502 002e 00       		.byte	0
 503 002f 16       		.byte	22
 504 0030 00       		.byte	0
 505 0031 15       		.byte	21
 506 0032 21       		.byte	33
 507 0033 16       		.byte	22
 508 0034 00       		.byte	0
 509 0035 16       		.byte	22
 510 0036 00       		.byte	0
 511 0037 15       		.byte	21
 512 0038 22       		.byte	34
 513 0039 16       		.byte	22
 514 003a 00       		.byte	0
 515 003b 16       		.byte	22
 516 003c 00       		.byte	0
 517 003d 15       		.byte	21
 518 003e 40       		.byte	64
 519 003f 16       		.byte	22
 520 0040 1E       		.byte	30
 521 0041 16       		.byte	22
 522 0042 00       		.byte	0
 523 0043 15       		.byte	21
 524 0044 41       		.byte	65
 525 0045 16       		.byte	22
 526 0046 00       		.byte	0
 527 0047 16       		.byte	22
ARM GAS  C:\Users\gjl\AppData\Local\Temp\cchNG6hU.s 			page 19


 528 0048 00       		.byte	0
 529 0049 15       		.byte	21
 530 004a 42       		.byte	66
 531 004b 16       		.byte	22
 532 004c 1E       		.byte	30
 533 004d 16       		.byte	22
 534 004e 00       		.byte	0
 535 004f 15       		.byte	21
 536 0050 43       		.byte	67
 537 0051 FE       		.byte	-2
 538 0052 02       		.byte	2
 539 0053 15       		.byte	21
 540 0054 80       		.byte	-128
 541 0055 15       		.byte	21
 542 0056 90       		.byte	-112
 543 0057 16       		.byte	22
 544 0058 00       		.byte	0
 545 0059 16       		.byte	22
 546 005a 00       		.byte	0
 547 005b 15       		.byte	21
 548 005c 24       		.byte	36
 549 005d FE       		.byte	-2
 550 005e 64       		.byte	100
 551 005f 19       		.byte	25
 552 0060 FE       		.byte	-2
 553 0061 64       		.byte	100
 554 0062 0000     		.space	2
 555              		.type	u8x8_t6963_240x64_display_info, %object
 556              		.size	u8x8_t6963_240x64_display_info, 24
 557              	u8x8_t6963_240x64_display_info:
 558 0064 00       		.byte	0
 559 0065 01       		.byte	1
 560 0066 6E       		.byte	110
 561 0067 64       		.byte	100
 562 0068 01       		.byte	1
 563 0069 06       		.byte	6
 564 006a 14       		.byte	20
 565 006b 8C       		.byte	-116
 566 006c 40420F00 		.word	1000000
 567 0070 00       		.byte	0
 568 0071 04       		.byte	4
 569 0072 50       		.byte	80
 570 0073 50       		.byte	80
 571 0074 1E       		.byte	30
 572 0075 08       		.byte	8
 573 0076 00       		.byte	0
 574 0077 00       		.byte	0
 575 0078 F000     		.short	240
 576 007a 4000     		.short	64
 577              		.type	u8x8_d_t6963_240x64_init_seq, %object
 578              		.size	u8x8_d_t6963_240x64_init_seq, 58
 579              	u8x8_d_t6963_240x64_init_seq:
 580 007c FE       		.byte	-2
 581 007d 64       		.byte	100
 582 007e 18       		.byte	24
 583 007f FE       		.byte	-2
 584 0080 64       		.byte	100
ARM GAS  C:\Users\gjl\AppData\Local\Temp\cchNG6hU.s 			page 20


 585 0081 16       		.byte	22
 586 0082 00       		.byte	0
 587 0083 16       		.byte	22
 588 0084 00       		.byte	0
 589 0085 15       		.byte	21
 590 0086 21       		.byte	33
 591 0087 16       		.byte	22
 592 0088 00       		.byte	0
 593 0089 16       		.byte	22
 594 008a 00       		.byte	0
 595 008b 15       		.byte	21
 596 008c 22       		.byte	34
 597 008d 16       		.byte	22
 598 008e 00       		.byte	0
 599 008f 16       		.byte	22
 600 0090 00       		.byte	0
 601 0091 15       		.byte	21
 602 0092 40       		.byte	64
 603 0093 16       		.byte	22
 604 0094 1E       		.byte	30
 605 0095 16       		.byte	22
 606 0096 00       		.byte	0
 607 0097 15       		.byte	21
 608 0098 41       		.byte	65
 609 0099 16       		.byte	22
 610 009a 00       		.byte	0
 611 009b 16       		.byte	22
 612 009c 00       		.byte	0
 613 009d 15       		.byte	21
 614 009e 42       		.byte	66
 615 009f 16       		.byte	22
 616 00a0 1E       		.byte	30
 617 00a1 16       		.byte	22
 618 00a2 00       		.byte	0
 619 00a3 15       		.byte	21
 620 00a4 43       		.byte	67
 621 00a5 FE       		.byte	-2
 622 00a6 02       		.byte	2
 623 00a7 15       		.byte	21
 624 00a8 80       		.byte	-128
 625 00a9 15       		.byte	21
 626 00aa 90       		.byte	-112
 627 00ab 16       		.byte	22
 628 00ac 00       		.byte	0
 629 00ad 16       		.byte	22
 630 00ae 00       		.byte	0
 631 00af 15       		.byte	21
 632 00b0 24       		.byte	36
 633 00b1 FE       		.byte	-2
 634 00b2 64       		.byte	100
 635 00b3 19       		.byte	25
 636 00b4 FE       		.byte	-2
 637 00b5 64       		.byte	100
 638 00b6 0000     		.space	2
 639              		.type	u8x8_t6963_256x64_display_info, %object
 640              		.size	u8x8_t6963_256x64_display_info, 24
 641              	u8x8_t6963_256x64_display_info:
ARM GAS  C:\Users\gjl\AppData\Local\Temp\cchNG6hU.s 			page 21


 642 00b8 00       		.byte	0
 643 00b9 01       		.byte	1
 644 00ba 6E       		.byte	110
 645 00bb 64       		.byte	100
 646 00bc 01       		.byte	1
 647 00bd 06       		.byte	6
 648 00be 14       		.byte	20
 649 00bf 8C       		.byte	-116
 650 00c0 40420F00 		.word	1000000
 651 00c4 00       		.byte	0
 652 00c5 04       		.byte	4
 653 00c6 50       		.byte	80
 654 00c7 50       		.byte	80
 655 00c8 20       		.byte	32
 656 00c9 08       		.byte	8
 657 00ca 00       		.byte	0
 658 00cb 00       		.byte	0
 659 00cc 0001     		.short	256
 660 00ce 4000     		.short	64
 661              		.type	u8x8_d_t6963_256x64_init_seq, %object
 662              		.size	u8x8_d_t6963_256x64_init_seq, 58
 663              	u8x8_d_t6963_256x64_init_seq:
 664 00d0 FE       		.byte	-2
 665 00d1 64       		.byte	100
 666 00d2 18       		.byte	24
 667 00d3 FE       		.byte	-2
 668 00d4 64       		.byte	100
 669 00d5 16       		.byte	22
 670 00d6 00       		.byte	0
 671 00d7 16       		.byte	22
 672 00d8 00       		.byte	0
 673 00d9 15       		.byte	21
 674 00da 21       		.byte	33
 675 00db 16       		.byte	22
 676 00dc 00       		.byte	0
 677 00dd 16       		.byte	22
 678 00de 00       		.byte	0
 679 00df 15       		.byte	21
 680 00e0 22       		.byte	34
 681 00e1 16       		.byte	22
 682 00e2 00       		.byte	0
 683 00e3 16       		.byte	22
 684 00e4 00       		.byte	0
 685 00e5 15       		.byte	21
 686 00e6 40       		.byte	64
 687 00e7 16       		.byte	22
 688 00e8 20       		.byte	32
 689 00e9 16       		.byte	22
 690 00ea 00       		.byte	0
 691 00eb 15       		.byte	21
 692 00ec 41       		.byte	65
 693 00ed 16       		.byte	22
 694 00ee 00       		.byte	0
 695 00ef 16       		.byte	22
 696 00f0 00       		.byte	0
 697 00f1 15       		.byte	21
 698 00f2 42       		.byte	66
ARM GAS  C:\Users\gjl\AppData\Local\Temp\cchNG6hU.s 			page 22


 699 00f3 16       		.byte	22
 700 00f4 20       		.byte	32
 701 00f5 16       		.byte	22
 702 00f6 00       		.byte	0
 703 00f7 15       		.byte	21
 704 00f8 43       		.byte	67
 705 00f9 FE       		.byte	-2
 706 00fa 02       		.byte	2
 707 00fb 15       		.byte	21
 708 00fc 80       		.byte	-128
 709 00fd 15       		.byte	21
 710 00fe 90       		.byte	-112
 711 00ff 16       		.byte	22
 712 0100 00       		.byte	0
 713 0101 16       		.byte	22
 714 0102 00       		.byte	0
 715 0103 15       		.byte	21
 716 0104 24       		.byte	36
 717 0105 FE       		.byte	-2
 718 0106 64       		.byte	100
 719 0107 19       		.byte	25
 720 0108 FE       		.byte	-2
 721 0109 64       		.byte	100
 722 010a 0000     		.space	2
 723              		.type	u8x8_t6963_128x64_display_info, %object
 724              		.size	u8x8_t6963_128x64_display_info, 24
 725              	u8x8_t6963_128x64_display_info:
 726 010c 01       		.byte	1
 727 010d 00       		.byte	0
 728 010e 0A       		.byte	10
 729 010f 64       		.byte	100
 730 0110 01       		.byte	1
 731 0111 06       		.byte	6
 732 0112 14       		.byte	20
 733 0113 8C       		.byte	-116
 734 0114 40420F00 		.word	1000000
 735 0118 00       		.byte	0
 736 0119 04       		.byte	4
 737 011a 50       		.byte	80
 738 011b 50       		.byte	80
 739 011c 10       		.byte	16
 740 011d 08       		.byte	8
 741 011e 00       		.byte	0
 742 011f 00       		.byte	0
 743 0120 8000     		.short	128
 744 0122 4000     		.short	64
 745              		.type	u8x8_d_t6963_128x64_init_seq, %object
 746              		.size	u8x8_d_t6963_128x64_init_seq, 58
 747              	u8x8_d_t6963_128x64_init_seq:
 748 0124 FE       		.byte	-2
 749 0125 64       		.byte	100
 750 0126 18       		.byte	24
 751 0127 FE       		.byte	-2
 752 0128 64       		.byte	100
 753 0129 16       		.byte	22
 754 012a 00       		.byte	0
 755 012b 16       		.byte	22
ARM GAS  C:\Users\gjl\AppData\Local\Temp\cchNG6hU.s 			page 23


 756 012c 00       		.byte	0
 757 012d 15       		.byte	21
 758 012e 21       		.byte	33
 759 012f 16       		.byte	22
 760 0130 00       		.byte	0
 761 0131 16       		.byte	22
 762 0132 00       		.byte	0
 763 0133 15       		.byte	21
 764 0134 22       		.byte	34
 765 0135 16       		.byte	22
 766 0136 00       		.byte	0
 767 0137 16       		.byte	22
 768 0138 00       		.byte	0
 769 0139 15       		.byte	21
 770 013a 40       		.byte	64
 771 013b 16       		.byte	22
 772 013c 10       		.byte	16
 773 013d 16       		.byte	22
 774 013e 00       		.byte	0
 775 013f 15       		.byte	21
 776 0140 41       		.byte	65
 777 0141 16       		.byte	22
 778 0142 00       		.byte	0
 779 0143 16       		.byte	22
 780 0144 00       		.byte	0
 781 0145 15       		.byte	21
 782 0146 42       		.byte	66
 783 0147 16       		.byte	22
 784 0148 10       		.byte	16
 785 0149 16       		.byte	22
 786 014a 00       		.byte	0
 787 014b 15       		.byte	21
 788 014c 43       		.byte	67
 789 014d FE       		.byte	-2
 790 014e 02       		.byte	2
 791 014f 15       		.byte	21
 792 0150 80       		.byte	-128
 793 0151 15       		.byte	21
 794 0152 90       		.byte	-112
 795 0153 16       		.byte	22
 796 0154 00       		.byte	0
 797 0155 16       		.byte	22
 798 0156 00       		.byte	0
 799 0157 15       		.byte	21
 800 0158 24       		.byte	36
 801 0159 FE       		.byte	-2
 802 015a 64       		.byte	100
 803 015b 19       		.byte	25
 804 015c FE       		.byte	-2
 805 015d 64       		.byte	100
 806              		.text
 807              	.Letext0:
 808              		.file 2 "c:\\program files (x86)\\cypress\\psoc creator\\4.1\\psoc creator\\import\\gnu\\arm\\5.4.
 809              		.file 3 "c:\\program files (x86)\\cypress\\psoc creator\\4.1\\psoc creator\\import\\gnu\\arm\\5.4.
 810              		.file 4 "..\\u8g2\\csrc\\u8x8.h"