ARM GAS  C:\Users\Alan\AppData\Local\Temp\ccmO1Ngx.s 			page 1


   1              		.syntax unified
   2              		.cpu cortex-m0
   3              		.fpu softvfp
   4              		.eabi_attribute 20, 1
   5              		.eabi_attribute 21, 1
   6              		.eabi_attribute 23, 3
   7              		.eabi_attribute 24, 1
   8              		.eabi_attribute 25, 1
   9              		.eabi_attribute 26, 1
  10              		.eabi_attribute 30, 1
  11              		.eabi_attribute 34, 0
  12              		.eabi_attribute 18, 4
  13              		.thumb
  14              		.syntax unified
  15              		.file	"u8x8_d_ssd1305.c"
  16              		.text
  17              	.Ltext0:
  18              		.cfi_sections	.debug_frame
  19              		.section	.text.u8x8_d_ssd1305_generic,"ax",%progbits
  20              		.align	2
  21              		.code	16
  22              		.thumb_func
  23              		.type	u8x8_d_ssd1305_generic, %function
  24              	u8x8_d_ssd1305_generic:
  25              	.LFB0:
  26              		.file 1 "..\\..\\u8g2\\csrc\\u8x8_d_ssd1305.c"
   1:..\..\u8g2\csrc/u8x8_d_ssd1305.c **** /*
   2:..\..\u8g2\csrc/u8x8_d_ssd1305.c **** 
   3:..\..\u8g2\csrc/u8x8_d_ssd1305.c ****   u8x8_d_ssd1305.c
   4:..\..\u8g2\csrc/u8x8_d_ssd1305.c **** 
   5:..\..\u8g2\csrc/u8x8_d_ssd1305.c ****   Universal 8bit Graphics Library (https://github.com/olikraus/u8g2/)
   6:..\..\u8g2\csrc/u8x8_d_ssd1305.c **** 
   7:..\..\u8g2\csrc/u8x8_d_ssd1305.c ****   Copyright (c) 2017, olikraus@gmail.com
   8:..\..\u8g2\csrc/u8x8_d_ssd1305.c ****   All rights reserved.
   9:..\..\u8g2\csrc/u8x8_d_ssd1305.c **** 
  10:..\..\u8g2\csrc/u8x8_d_ssd1305.c ****   Redistribution and use in source and binary forms, with or without modification, 
  11:..\..\u8g2\csrc/u8x8_d_ssd1305.c ****   are permitted provided that the following conditions are met:
  12:..\..\u8g2\csrc/u8x8_d_ssd1305.c **** 
  13:..\..\u8g2\csrc/u8x8_d_ssd1305.c ****   * Redistributions of source code must retain the above copyright notice, this list 
  14:..\..\u8g2\csrc/u8x8_d_ssd1305.c ****     of conditions and the following disclaimer.
  15:..\..\u8g2\csrc/u8x8_d_ssd1305.c ****     
  16:..\..\u8g2\csrc/u8x8_d_ssd1305.c ****   * Redistributions in binary form must reproduce the above copyright notice, this 
  17:..\..\u8g2\csrc/u8x8_d_ssd1305.c ****     list of conditions and the following disclaimer in the documentation and/or other 
  18:..\..\u8g2\csrc/u8x8_d_ssd1305.c ****     materials provided with the distribution.
  19:..\..\u8g2\csrc/u8x8_d_ssd1305.c **** 
  20:..\..\u8g2\csrc/u8x8_d_ssd1305.c ****   THIS SOFTWARE IS PROVIDED BY THE COPYRIGHT HOLDERS AND 
  21:..\..\u8g2\csrc/u8x8_d_ssd1305.c ****   CONTRIBUTORS "AS IS" AND ANY EXPRESS OR IMPLIED WARRANTIES, 
  22:..\..\u8g2\csrc/u8x8_d_ssd1305.c ****   INCLUDING, BUT NOT LIMITED TO, THE IMPLIED WARRANTIES OF 
  23:..\..\u8g2\csrc/u8x8_d_ssd1305.c ****   MERCHANTABILITY AND FITNESS FOR A PARTICULAR PURPOSE ARE 
  24:..\..\u8g2\csrc/u8x8_d_ssd1305.c ****   DISCLAIMED. IN NO EVENT SHALL THE COPYRIGHT HOLDER OR 
  25:..\..\u8g2\csrc/u8x8_d_ssd1305.c ****   CONTRIBUTORS BE LIABLE FOR ANY DIRECT, INDIRECT, INCIDENTAL, 
  26:..\..\u8g2\csrc/u8x8_d_ssd1305.c ****   SPECIAL, EXEMPLARY, OR CONSEQUENTIAL DAMAGES (INCLUDING, BUT 
  27:..\..\u8g2\csrc/u8x8_d_ssd1305.c ****   NOT LIMITED TO, PROCUREMENT OF SUBSTITUTE GOODS OR SERVICES; 
  28:..\..\u8g2\csrc/u8x8_d_ssd1305.c ****   LOSS OF USE, DATA, OR PROFITS; OR BUSINESS INTERRUPTION) HOWEVER 
  29:..\..\u8g2\csrc/u8x8_d_ssd1305.c ****   CAUSED AND ON ANY THEORY OF LIABILITY, WHETHER IN CONTRACT, 
  30:..\..\u8g2\csrc/u8x8_d_ssd1305.c ****   STRICT LIABILITY, OR TORT (INCLUDING NEGLIGENCE OR OTHERWISE) 
  31:..\..\u8g2\csrc/u8x8_d_ssd1305.c ****   ARISING IN ANY WAY OUT OF THE USE OF THIS SOFTWARE, EVEN IF 
ARM GAS  C:\Users\Alan\AppData\Local\Temp\ccmO1Ngx.s 			page 2


  32:..\..\u8g2\csrc/u8x8_d_ssd1305.c ****   ADVISED OF THE POSSIBILITY OF SUCH DAMAGE.  
  33:..\..\u8g2\csrc/u8x8_d_ssd1305.c ****   
  34:..\..\u8g2\csrc/u8x8_d_ssd1305.c **** */
  35:..\..\u8g2\csrc/u8x8_d_ssd1305.c **** 
  36:..\..\u8g2\csrc/u8x8_d_ssd1305.c **** 
  37:..\..\u8g2\csrc/u8x8_d_ssd1305.c **** #include "u8x8.h"
  38:..\..\u8g2\csrc/u8x8_d_ssd1305.c **** 
  39:..\..\u8g2\csrc/u8x8_d_ssd1305.c **** 
  40:..\..\u8g2\csrc/u8x8_d_ssd1305.c **** 
  41:..\..\u8g2\csrc/u8x8_d_ssd1305.c **** 
  42:..\..\u8g2\csrc/u8x8_d_ssd1305.c **** static const uint8_t u8x8_d_ssd1305_powersave0_seq[] = {
  43:..\..\u8g2\csrc/u8x8_d_ssd1305.c ****   U8X8_START_TRANSFER(),             	/* enable chip, delay is part of the transfer start */
  44:..\..\u8g2\csrc/u8x8_d_ssd1305.c ****   U8X8_C(0x0af),		                /* display on */
  45:..\..\u8g2\csrc/u8x8_d_ssd1305.c ****   U8X8_END_TRANSFER(),             	/* disable chip */
  46:..\..\u8g2\csrc/u8x8_d_ssd1305.c ****   U8X8_END()             			/* end of sequence */
  47:..\..\u8g2\csrc/u8x8_d_ssd1305.c **** };
  48:..\..\u8g2\csrc/u8x8_d_ssd1305.c **** 
  49:..\..\u8g2\csrc/u8x8_d_ssd1305.c **** static const uint8_t u8x8_d_ssd1305_powersave1_seq[] = {
  50:..\..\u8g2\csrc/u8x8_d_ssd1305.c ****   U8X8_START_TRANSFER(),             	/* enable chip, delay is part of the transfer start */
  51:..\..\u8g2\csrc/u8x8_d_ssd1305.c ****   U8X8_C(0x0ae),		                /* display off */
  52:..\..\u8g2\csrc/u8x8_d_ssd1305.c ****   U8X8_END_TRANSFER(),             	/* disable chip */
  53:..\..\u8g2\csrc/u8x8_d_ssd1305.c ****   U8X8_END()             			/* end of sequence */
  54:..\..\u8g2\csrc/u8x8_d_ssd1305.c **** };
  55:..\..\u8g2\csrc/u8x8_d_ssd1305.c **** 
  56:..\..\u8g2\csrc/u8x8_d_ssd1305.c **** static const uint8_t u8x8_d_ssd1305_128x32_flip0_seq[] = {
  57:..\..\u8g2\csrc/u8x8_d_ssd1305.c ****   U8X8_START_TRANSFER(),             	/* enable chip, delay is part of the transfer start */
  58:..\..\u8g2\csrc/u8x8_d_ssd1305.c ****   U8X8_CA(0x0d3, 32),			/* display offset to 32 */
  59:..\..\u8g2\csrc/u8x8_d_ssd1305.c ****   U8X8_C(0x0a1),				/* segment remap a0/a1*/
  60:..\..\u8g2\csrc/u8x8_d_ssd1305.c ****   U8X8_C(0x0c8),				/* c0: scan dir normal, c8: reverse */
  61:..\..\u8g2\csrc/u8x8_d_ssd1305.c ****   U8X8_END_TRANSFER(),             	/* disable chip */
  62:..\..\u8g2\csrc/u8x8_d_ssd1305.c ****   U8X8_END()             			/* end of sequence */
  63:..\..\u8g2\csrc/u8x8_d_ssd1305.c **** };
  64:..\..\u8g2\csrc/u8x8_d_ssd1305.c **** 
  65:..\..\u8g2\csrc/u8x8_d_ssd1305.c **** static const uint8_t u8x8_d_ssd1305_128x32_flip1_seq[] = {
  66:..\..\u8g2\csrc/u8x8_d_ssd1305.c ****   U8X8_START_TRANSFER(),             	/* enable chip, delay is part of the transfer start */
  67:..\..\u8g2\csrc/u8x8_d_ssd1305.c ****   U8X8_CA(0x0d3, 0),			/* display offset to  */
  68:..\..\u8g2\csrc/u8x8_d_ssd1305.c ****   U8X8_C(0x0a0),				/* segment remap a0/a1*/
  69:..\..\u8g2\csrc/u8x8_d_ssd1305.c ****   U8X8_C(0x0c0),				/* c0: scan dir normal, c8: reverse */
  70:..\..\u8g2\csrc/u8x8_d_ssd1305.c ****   U8X8_END_TRANSFER(),             	/* disable chip */
  71:..\..\u8g2\csrc/u8x8_d_ssd1305.c ****   U8X8_END()             			/* end of sequence */
  72:..\..\u8g2\csrc/u8x8_d_ssd1305.c **** };
  73:..\..\u8g2\csrc/u8x8_d_ssd1305.c **** 
  74:..\..\u8g2\csrc/u8x8_d_ssd1305.c **** 
  75:..\..\u8g2\csrc/u8x8_d_ssd1305.c **** 
  76:..\..\u8g2\csrc/u8x8_d_ssd1305.c **** static uint8_t u8x8_d_ssd1305_generic(u8x8_t *u8x8, uint8_t msg, uint8_t arg_int, void *arg_ptr)
  77:..\..\u8g2\csrc/u8x8_d_ssd1305.c **** {
  27              		.loc 1 77 0
  28              		.cfi_startproc
  29              		@ args = 0, pretend = 0, frame = 0
  30              		@ frame_needed = 0, uses_anonymous_args = 0
  31              	.LVL0:
  32 0000 F8B5     		push	{r3, r4, r5, r6, r7, lr}
  33              		.cfi_def_cfa_offset 24
  34              		.cfi_offset 3, -24
  35              		.cfi_offset 4, -20
  36              		.cfi_offset 5, -16
  37              		.cfi_offset 6, -12
ARM GAS  C:\Users\Alan\AppData\Local\Temp\ccmO1Ngx.s 			page 3


  38              		.cfi_offset 7, -8
  39              		.cfi_offset 14, -4
  40 0002 0400     		movs	r4, r0
  41 0004 1500     		movs	r5, r2
  42 0006 1E00     		movs	r6, r3
  78:..\..\u8g2\csrc/u8x8_d_ssd1305.c ****   uint8_t x, c;
  79:..\..\u8g2\csrc/u8x8_d_ssd1305.c ****   uint8_t *ptr;
  80:..\..\u8g2\csrc/u8x8_d_ssd1305.c ****   switch(msg)
  43              		.loc 1 80 0
  44 0008 0E29     		cmp	r1, #14
  45 000a 41D0     		beq	.L3
  46 000c 0F29     		cmp	r1, #15
  47 000e 02D0     		beq	.L4
  48 0010 0B29     		cmp	r1, #11
  49 0012 4CD1     		bne	.L9
  50 0014 2FE0     		b	.L5
  51              	.L4:
  81:..\..\u8g2\csrc/u8x8_d_ssd1305.c ****   {
  82:..\..\u8g2\csrc/u8x8_d_ssd1305.c ****     case U8X8_MSG_DISPLAY_DRAW_TILE:
  83:..\..\u8g2\csrc/u8x8_d_ssd1305.c ****       u8x8_cad_StartTransfer(u8x8);
  52              		.loc 1 83 0
  53 0016 FFF7FEFF 		bl	u8x8_cad_StartTransfer
  54              	.LVL1:
  84:..\..\u8g2\csrc/u8x8_d_ssd1305.c ****       x = ((u8x8_tile_t *)arg_ptr)->x_pos;    
  55              		.loc 1 84 0
  56 001a 7379     		ldrb	r3, [r6, #5]
  57              	.LVL2:
  85:..\..\u8g2\csrc/u8x8_d_ssd1305.c ****       x *= 8;
  58              		.loc 1 85 0
  59 001c DB00     		lsls	r3, r3, #3
  60              	.LVL3:
  61 001e DBB2     		uxtb	r3, r3
  62              	.LVL4:
  86:..\..\u8g2\csrc/u8x8_d_ssd1305.c ****       x += u8x8->x_offset;
  63              		.loc 1 86 0
  64 0020 A77F     		ldrb	r7, [r4, #30]
  65 0022 DB19     		adds	r3, r3, r7
  66              	.LVL5:
  67 0024 DFB2     		uxtb	r7, r3
  68              	.LVL6:
  87:..\..\u8g2\csrc/u8x8_d_ssd1305.c ****     
  88:..\..\u8g2\csrc/u8x8_d_ssd1305.c ****       u8x8_cad_SendCmd(u8x8, 0x040 );	/* set line offset to 0 */
  69              		.loc 1 88 0
  70 0026 4021     		movs	r1, #64
  71 0028 2000     		movs	r0, r4
  72 002a FFF7FEFF 		bl	u8x8_cad_SendCmd
  73              	.LVL7:
  89:..\..\u8g2\csrc/u8x8_d_ssd1305.c ****     
  90:..\..\u8g2\csrc/u8x8_d_ssd1305.c ****       u8x8_cad_SendCmd(u8x8, 0x010 | (x>>4) );
  74              		.loc 1 90 0
  75 002e 3909     		lsrs	r1, r7, #4
  76 0030 1023     		movs	r3, #16
  77 0032 1943     		orrs	r1, r3
  78 0034 C9B2     		uxtb	r1, r1
  79 0036 2000     		movs	r0, r4
  80 0038 FFF7FEFF 		bl	u8x8_cad_SendCmd
  81              	.LVL8:
ARM GAS  C:\Users\Alan\AppData\Local\Temp\ccmO1Ngx.s 			page 4


  91:..\..\u8g2\csrc/u8x8_d_ssd1305.c ****       u8x8_cad_SendArg(u8x8, 0x000 | ((x&15)));
  82              		.loc 1 91 0
  83 003c 0F21     		movs	r1, #15
  84 003e 3940     		ands	r1, r7
  85 0040 2000     		movs	r0, r4
  86 0042 FFF7FEFF 		bl	u8x8_cad_SendArg
  87              	.LVL9:
  92:..\..\u8g2\csrc/u8x8_d_ssd1305.c ****       u8x8_cad_SendArg(u8x8, 0x0b0 | (((u8x8_tile_t *)arg_ptr)->y_pos)   );
  88              		.loc 1 92 0
  89 0046 B379     		ldrb	r3, [r6, #6]
  90 0048 5021     		movs	r1, #80
  91 004a 4942     		rsbs	r1, r1, #0
  92 004c 1943     		orrs	r1, r3
  93 004e C9B2     		uxtb	r1, r1
  94 0050 2000     		movs	r0, r4
  95 0052 FFF7FEFF 		bl	u8x8_cad_SendArg
  96              	.LVL10:
  97              	.L6:
  93:..\..\u8g2\csrc/u8x8_d_ssd1305.c **** 
  94:..\..\u8g2\csrc/u8x8_d_ssd1305.c ****     
  95:..\..\u8g2\csrc/u8x8_d_ssd1305.c ****       do
  96:..\..\u8g2\csrc/u8x8_d_ssd1305.c ****       {
  97:..\..\u8g2\csrc/u8x8_d_ssd1305.c **** 	c = ((u8x8_tile_t *)arg_ptr)->cnt;
  98              		.loc 1 97 0 discriminator 1
  99 0056 3179     		ldrb	r1, [r6, #4]
 100              	.LVL11:
  98:..\..\u8g2\csrc/u8x8_d_ssd1305.c **** 	ptr = ((u8x8_tile_t *)arg_ptr)->tile_ptr;
  99:..\..\u8g2\csrc/u8x8_d_ssd1305.c **** 	u8x8_cad_SendData(u8x8, c*8, ptr); 	/* note: SendData can not handle more than 255 bytes */
 101              		.loc 1 99 0 discriminator 1
 102 0058 C900     		lsls	r1, r1, #3
 103              	.LVL12:
 104 005a C9B2     		uxtb	r1, r1
 105 005c 3268     		ldr	r2, [r6]
 106 005e 2000     		movs	r0, r4
 107 0060 FFF7FEFF 		bl	u8x8_cad_SendData
 108              	.LVL13:
 100:..\..\u8g2\csrc/u8x8_d_ssd1305.c **** 	/*
 101:..\..\u8g2\csrc/u8x8_d_ssd1305.c **** 	do
 102:..\..\u8g2\csrc/u8x8_d_ssd1305.c **** 	{
 103:..\..\u8g2\csrc/u8x8_d_ssd1305.c **** 	  u8x8_cad_SendData(u8x8, 8, ptr);
 104:..\..\u8g2\csrc/u8x8_d_ssd1305.c **** 	  ptr += 8;
 105:..\..\u8g2\csrc/u8x8_d_ssd1305.c **** 	  c--;
 106:..\..\u8g2\csrc/u8x8_d_ssd1305.c **** 	} while( c > 0 );
 107:..\..\u8g2\csrc/u8x8_d_ssd1305.c **** 	*/
 108:..\..\u8g2\csrc/u8x8_d_ssd1305.c **** 	arg_int--;
 109              		.loc 1 108 0 discriminator 1
 110 0064 013D     		subs	r5, r5, #1
 111              	.LVL14:
 112 0066 EDB2     		uxtb	r5, r5
 113              	.LVL15:
 109:..\..\u8g2\csrc/u8x8_d_ssd1305.c ****       } while( arg_int > 0 );
 114              		.loc 1 109 0 discriminator 1
 115 0068 002D     		cmp	r5, #0
 116 006a F4D1     		bne	.L6
 110:..\..\u8g2\csrc/u8x8_d_ssd1305.c ****       
 111:..\..\u8g2\csrc/u8x8_d_ssd1305.c ****       u8x8_cad_EndTransfer(u8x8);
 117              		.loc 1 111 0
ARM GAS  C:\Users\Alan\AppData\Local\Temp\ccmO1Ngx.s 			page 5


 118 006c 2000     		movs	r0, r4
 119 006e FFF7FEFF 		bl	u8x8_cad_EndTransfer
 120              	.LVL16:
 112:..\..\u8g2\csrc/u8x8_d_ssd1305.c ****       break;
 113:..\..\u8g2\csrc/u8x8_d_ssd1305.c ****     case U8X8_MSG_DISPLAY_SET_POWER_SAVE:
 114:..\..\u8g2\csrc/u8x8_d_ssd1305.c ****       if ( arg_int == 0 )
 115:..\..\u8g2\csrc/u8x8_d_ssd1305.c **** 	u8x8_cad_SendSequence(u8x8, u8x8_d_ssd1305_powersave0_seq);
 116:..\..\u8g2\csrc/u8x8_d_ssd1305.c ****       else
 117:..\..\u8g2\csrc/u8x8_d_ssd1305.c **** 	u8x8_cad_SendSequence(u8x8, u8x8_d_ssd1305_powersave1_seq);
 118:..\..\u8g2\csrc/u8x8_d_ssd1305.c ****       break;
 119:..\..\u8g2\csrc/u8x8_d_ssd1305.c **** #ifdef U8X8_WITH_SET_CONTRAST
 120:..\..\u8g2\csrc/u8x8_d_ssd1305.c ****     case U8X8_MSG_DISPLAY_SET_CONTRAST:
 121:..\..\u8g2\csrc/u8x8_d_ssd1305.c ****       u8x8_cad_StartTransfer(u8x8);
 122:..\..\u8g2\csrc/u8x8_d_ssd1305.c ****       u8x8_cad_SendCmd(u8x8, 0x081 );
 123:..\..\u8g2\csrc/u8x8_d_ssd1305.c ****       u8x8_cad_SendArg(u8x8, arg_int );	/* ssd1305 has range from 0 to 255 */
 124:..\..\u8g2\csrc/u8x8_d_ssd1305.c ****       u8x8_cad_EndTransfer(u8x8);
 125:..\..\u8g2\csrc/u8x8_d_ssd1305.c ****       break;
 126:..\..\u8g2\csrc/u8x8_d_ssd1305.c **** #endif
 127:..\..\u8g2\csrc/u8x8_d_ssd1305.c ****     default:
 128:..\..\u8g2\csrc/u8x8_d_ssd1305.c ****       return 0;
 129:..\..\u8g2\csrc/u8x8_d_ssd1305.c ****   }
 130:..\..\u8g2\csrc/u8x8_d_ssd1305.c ****   return 1;
 121              		.loc 1 130 0
 122 0072 0120     		movs	r0, #1
 112:..\..\u8g2\csrc/u8x8_d_ssd1305.c ****       break;
 123              		.loc 1 112 0
 124 0074 1CE0     		b	.L2
 125              	.LVL17:
 126              	.L5:
 114:..\..\u8g2\csrc/u8x8_d_ssd1305.c **** 	u8x8_cad_SendSequence(u8x8, u8x8_d_ssd1305_powersave0_seq);
 127              		.loc 1 114 0
 128 0076 002A     		cmp	r2, #0
 129 0078 04D1     		bne	.L7
 115:..\..\u8g2\csrc/u8x8_d_ssd1305.c ****       else
 130              		.loc 1 115 0
 131 007a 0E49     		ldr	r1, .L10
 132              	.LVL18:
 133 007c FFF7FEFF 		bl	u8x8_cad_SendSequence
 134              	.LVL19:
 135              		.loc 1 130 0
 136 0080 0120     		movs	r0, #1
 137 0082 15E0     		b	.L2
 138              	.LVL20:
 139              	.L7:
 117:..\..\u8g2\csrc/u8x8_d_ssd1305.c ****       break;
 140              		.loc 1 117 0
 141 0084 0B49     		ldr	r1, .L10
 142              	.LVL21:
 143 0086 0831     		adds	r1, r1, #8
 144 0088 FFF7FEFF 		bl	u8x8_cad_SendSequence
 145              	.LVL22:
 146              		.loc 1 130 0
 147 008c 0120     		movs	r0, #1
 148 008e 0FE0     		b	.L2
 149              	.LVL23:
 150              	.L3:
 121:..\..\u8g2\csrc/u8x8_d_ssd1305.c ****       u8x8_cad_SendCmd(u8x8, 0x081 );
ARM GAS  C:\Users\Alan\AppData\Local\Temp\ccmO1Ngx.s 			page 6


 151              		.loc 1 121 0
 152 0090 FFF7FEFF 		bl	u8x8_cad_StartTransfer
 153              	.LVL24:
 122:..\..\u8g2\csrc/u8x8_d_ssd1305.c ****       u8x8_cad_SendArg(u8x8, arg_int );	/* ssd1305 has range from 0 to 255 */
 154              		.loc 1 122 0
 155 0094 8121     		movs	r1, #129
 156 0096 2000     		movs	r0, r4
 157 0098 FFF7FEFF 		bl	u8x8_cad_SendCmd
 158              	.LVL25:
 123:..\..\u8g2\csrc/u8x8_d_ssd1305.c ****       u8x8_cad_EndTransfer(u8x8);
 159              		.loc 1 123 0
 160 009c 2900     		movs	r1, r5
 161 009e 2000     		movs	r0, r4
 162 00a0 FFF7FEFF 		bl	u8x8_cad_SendArg
 163              	.LVL26:
 124:..\..\u8g2\csrc/u8x8_d_ssd1305.c ****       break;
 164              		.loc 1 124 0
 165 00a4 2000     		movs	r0, r4
 166 00a6 FFF7FEFF 		bl	u8x8_cad_EndTransfer
 167              	.LVL27:
 168              		.loc 1 130 0
 169 00aa 0120     		movs	r0, #1
 125:..\..\u8g2\csrc/u8x8_d_ssd1305.c **** #endif
 170              		.loc 1 125 0
 171 00ac 00E0     		b	.L2
 172              	.LVL28:
 173              	.L9:
 128:..\..\u8g2\csrc/u8x8_d_ssd1305.c ****   }
 174              		.loc 1 128 0
 175 00ae 0020     		movs	r0, #0
 176              	.LVL29:
 177              	.L2:
 131:..\..\u8g2\csrc/u8x8_d_ssd1305.c **** }
 178              		.loc 1 131 0
 179              		@ sp needed
 180              	.LVL30:
 181              	.LVL31:
 182 00b0 F8BD     		pop	{r3, r4, r5, r6, r7, pc}
 183              	.L11:
 184 00b2 C046     		.align	2
 185              	.L10:
 186 00b4 00000000 		.word	.LANCHOR0
 187              		.cfi_endproc
 188              	.LFE0:
 189              		.size	u8x8_d_ssd1305_generic, .-u8x8_d_ssd1305_generic
 190              		.section	.text.u8x8_d_ssd1305_128x32_noname,"ax",%progbits
 191              		.align	2
 192              		.global	u8x8_d_ssd1305_128x32_noname
 193              		.code	16
 194              		.thumb_func
 195              		.type	u8x8_d_ssd1305_128x32_noname, %function
 196              	u8x8_d_ssd1305_128x32_noname:
 197              	.LFB1:
 132:..\..\u8g2\csrc/u8x8_d_ssd1305.c **** 
 133:..\..\u8g2\csrc/u8x8_d_ssd1305.c **** /* timing from SSD1306 */
 134:..\..\u8g2\csrc/u8x8_d_ssd1305.c **** static const u8x8_display_info_t u8x8_ssd1305_128x32_noname_display_info =
 135:..\..\u8g2\csrc/u8x8_d_ssd1305.c **** {
ARM GAS  C:\Users\Alan\AppData\Local\Temp\ccmO1Ngx.s 			page 7


 136:..\..\u8g2\csrc/u8x8_d_ssd1305.c ****   /* chip_enable_level = */ 0,
 137:..\..\u8g2\csrc/u8x8_d_ssd1305.c ****   /* chip_disable_level = */ 1,
 138:..\..\u8g2\csrc/u8x8_d_ssd1305.c ****   
 139:..\..\u8g2\csrc/u8x8_d_ssd1305.c ****   /* post_chip_enable_wait_ns = */ 20,
 140:..\..\u8g2\csrc/u8x8_d_ssd1305.c ****   /* pre_chip_disable_wait_ns = */ 10,
 141:..\..\u8g2\csrc/u8x8_d_ssd1305.c ****   /* reset_pulse_width_ms = */ 100, 	/* SSD1306: 3 us */
 142:..\..\u8g2\csrc/u8x8_d_ssd1305.c ****   /* post_reset_wait_ms = */ 100, /* far east OLEDs need much longer setup time */
 143:..\..\u8g2\csrc/u8x8_d_ssd1305.c ****   /* sda_setup_time_ns = */ 50,		/* SSD1306: 15ns, but cycle time is 100ns, so use 100/2 */
 144:..\..\u8g2\csrc/u8x8_d_ssd1305.c ****   /* sck_pulse_width_ns = */ 50,	/* SSD1306: 20ns, but cycle time is 100ns, so use 100/2, AVR: belo
 145:..\..\u8g2\csrc/u8x8_d_ssd1305.c ****   /* sck_clock_hz = */ 4000000UL,	/* since Arduino 1.6.0, the SPI bus speed in Hz. Should be  10000
 146:..\..\u8g2\csrc/u8x8_d_ssd1305.c ****   /* spi_mode = */ 0,		/* active high, rising edge */
 147:..\..\u8g2\csrc/u8x8_d_ssd1305.c ****   /* i2c_bus_clock_100kHz = */ 4,
 148:..\..\u8g2\csrc/u8x8_d_ssd1305.c ****   /* data_setup_time_ns = */ 40,
 149:..\..\u8g2\csrc/u8x8_d_ssd1305.c ****   /* write_pulse_width_ns = */ 150,	/* SSD1306: cycle time is 300ns, so use 300/2 = 150 */
 150:..\..\u8g2\csrc/u8x8_d_ssd1305.c ****   /* tile_width = */ 16,
 151:..\..\u8g2\csrc/u8x8_d_ssd1305.c ****   /* tile_hight = */ 4,
 152:..\..\u8g2\csrc/u8x8_d_ssd1305.c ****   /* default_x_offset = */ 2,
 153:..\..\u8g2\csrc/u8x8_d_ssd1305.c ****   /* flipmode_x_offset = */ 2,
 154:..\..\u8g2\csrc/u8x8_d_ssd1305.c ****   /* pixel_width = */ 128,
 155:..\..\u8g2\csrc/u8x8_d_ssd1305.c ****   /* pixel_height = */ 32
 156:..\..\u8g2\csrc/u8x8_d_ssd1305.c **** };
 157:..\..\u8g2\csrc/u8x8_d_ssd1305.c **** 
 158:..\..\u8g2\csrc/u8x8_d_ssd1305.c **** 
 159:..\..\u8g2\csrc/u8x8_d_ssd1305.c **** static const uint8_t u8x8_d_ssd1305_128x32_noname_init_seq[] = {
 160:..\..\u8g2\csrc/u8x8_d_ssd1305.c ****     
 161:..\..\u8g2\csrc/u8x8_d_ssd1305.c ****   U8X8_START_TRANSFER(),             	/* enable chip, delay is part of the transfer start */
 162:..\..\u8g2\csrc/u8x8_d_ssd1305.c ****   
 163:..\..\u8g2\csrc/u8x8_d_ssd1305.c ****   
 164:..\..\u8g2\csrc/u8x8_d_ssd1305.c ****   U8X8_C(0x0ae),		                /* display off */
 165:..\..\u8g2\csrc/u8x8_d_ssd1305.c ****   U8X8_CA(0x0d5, 0x080),		/* clock divide ratio (0x00=1) and oscillator frequency (0x8) */
 166:..\..\u8g2\csrc/u8x8_d_ssd1305.c ****   U8X8_CA(0x0a8, 0x03f),		/* multiplex ratio */
 167:..\..\u8g2\csrc/u8x8_d_ssd1305.c ****   U8X8_CA(0x0d3, 32),			/* display offset to 32 */
 168:..\..\u8g2\csrc/u8x8_d_ssd1305.c ****   U8X8_C(0x040),		        	/* set display start line to 0 */
 169:..\..\u8g2\csrc/u8x8_d_ssd1305.c ****   U8X8_CA(0x020, 0x000),		/* page addressing mode */
 170:..\..\u8g2\csrc/u8x8_d_ssd1305.c ****   
 171:..\..\u8g2\csrc/u8x8_d_ssd1305.c ****   U8X8_C(0x0a1),				/* segment remap a0/a1*/
 172:..\..\u8g2\csrc/u8x8_d_ssd1305.c ****   U8X8_C(0x0c8),				/* c0: scan dir normal, c8: reverse */
 173:..\..\u8g2\csrc/u8x8_d_ssd1305.c ****   // Flipmode
 174:..\..\u8g2\csrc/u8x8_d_ssd1305.c ****   // U8X8_C(0x0a0),				/* segment remap a0/a1*/
 175:..\..\u8g2\csrc/u8x8_d_ssd1305.c ****   // U8X8_C(0x0c0),				/* c0: scan dir normal, c8: reverse */
 176:..\..\u8g2\csrc/u8x8_d_ssd1305.c ****   
 177:..\..\u8g2\csrc/u8x8_d_ssd1305.c ****   U8X8_CA(0x0da, 0x012),		/* com pin HW config, sequential com pin config (bit 4), disable left/rig
 178:..\..\u8g2\csrc/u8x8_d_ssd1305.c **** 
 179:..\..\u8g2\csrc/u8x8_d_ssd1305.c ****   U8X8_CA(0x081, 0x0cf), 		/* [2] set contrast control */
 180:..\..\u8g2\csrc/u8x8_d_ssd1305.c ****   U8X8_CA(0x0d9, 0x0f1), 		/* [2] pre-charge period 0x022/f1*/
 181:..\..\u8g2\csrc/u8x8_d_ssd1305.c ****   U8X8_CA(0x0db, 0x040), 		/* vcomh deselect level */  
 182:..\..\u8g2\csrc/u8x8_d_ssd1305.c ****   // if vcomh is 0, then this will give the biggest range for contrast control issue #98
 183:..\..\u8g2\csrc/u8x8_d_ssd1305.c ****   // restored the old values for the noname constructor, because vcomh=0 will not work for all OLED
 184:..\..\u8g2\csrc/u8x8_d_ssd1305.c ****   
 185:..\..\u8g2\csrc/u8x8_d_ssd1305.c ****   U8X8_C(0x02e),				/* Deactivate scroll */ 
 186:..\..\u8g2\csrc/u8x8_d_ssd1305.c ****   U8X8_C(0x0a4),				/* output ram to display */
 187:..\..\u8g2\csrc/u8x8_d_ssd1305.c ****   U8X8_C(0x0a6),				/* none inverted normal display mode */
 188:..\..\u8g2\csrc/u8x8_d_ssd1305.c ****     
 189:..\..\u8g2\csrc/u8x8_d_ssd1305.c ****   U8X8_END_TRANSFER(),             	/* disable chip */
 190:..\..\u8g2\csrc/u8x8_d_ssd1305.c ****   U8X8_END()             			/* end of sequence */
 191:..\..\u8g2\csrc/u8x8_d_ssd1305.c **** };
 192:..\..\u8g2\csrc/u8x8_d_ssd1305.c **** 
ARM GAS  C:\Users\Alan\AppData\Local\Temp\ccmO1Ngx.s 			page 8


 193:..\..\u8g2\csrc/u8x8_d_ssd1305.c **** 
 194:..\..\u8g2\csrc/u8x8_d_ssd1305.c **** uint8_t u8x8_d_ssd1305_128x32_noname(u8x8_t *u8x8, uint8_t msg, uint8_t arg_int, void *arg_ptr)
 195:..\..\u8g2\csrc/u8x8_d_ssd1305.c **** {
 198              		.loc 1 195 0
 199              		.cfi_startproc
 200              		@ args = 0, pretend = 0, frame = 0
 201              		@ frame_needed = 0, uses_anonymous_args = 0
 202              	.LVL32:
 203 0000 70B5     		push	{r4, r5, r6, lr}
 204              		.cfi_def_cfa_offset 16
 205              		.cfi_offset 4, -16
 206              		.cfi_offset 5, -12
 207              		.cfi_offset 6, -8
 208              		.cfi_offset 14, -4
 209 0002 0500     		movs	r5, r0
 210 0004 0C00     		movs	r4, r1
 211 0006 1600     		movs	r6, r2
 196:..\..\u8g2\csrc/u8x8_d_ssd1305.c ****     
 197:..\..\u8g2\csrc/u8x8_d_ssd1305.c ****   if ( u8x8_d_ssd1305_generic(u8x8, msg, arg_int, arg_ptr) != 0 )
 212              		.loc 1 197 0
 213 0008 FFF7FEFF 		bl	u8x8_d_ssd1305_generic
 214              	.LVL33:
 215 000c 0028     		cmp	r0, #0
 216 000e 2DD1     		bne	.L18
 198:..\..\u8g2\csrc/u8x8_d_ssd1305.c ****     return 1;
 199:..\..\u8g2\csrc/u8x8_d_ssd1305.c ****   
 200:..\..\u8g2\csrc/u8x8_d_ssd1305.c ****   switch(msg)
 217              		.loc 1 200 0
 218 0010 0A2C     		cmp	r4, #10
 219 0012 1AD0     		beq	.L14
 220 0014 0D2C     		cmp	r4, #13
 221 0016 02D0     		beq	.L15
 222 0018 092C     		cmp	r4, #9
 223 001a 28D1     		bne	.L13
 224 001c 1FE0     		b	.L16
 225              	.L15:
 201:..\..\u8g2\csrc/u8x8_d_ssd1305.c ****   {
 202:..\..\u8g2\csrc/u8x8_d_ssd1305.c ****     case U8X8_MSG_DISPLAY_SET_FLIP_MODE:
 203:..\..\u8g2\csrc/u8x8_d_ssd1305.c ****       if ( arg_int == 0 )
 226              		.loc 1 203 0
 227 001e 002E     		cmp	r6, #0
 228 0020 09D1     		bne	.L17
 204:..\..\u8g2\csrc/u8x8_d_ssd1305.c ****       {
 205:..\..\u8g2\csrc/u8x8_d_ssd1305.c **** 	u8x8_cad_SendSequence(u8x8, u8x8_d_ssd1305_128x32_flip0_seq);
 229              		.loc 1 205 0
 230 0022 1349     		ldr	r1, .L19
 231 0024 1031     		adds	r1, r1, #16
 232 0026 2800     		movs	r0, r5
 233 0028 FFF7FEFF 		bl	u8x8_cad_SendSequence
 234              	.LVL34:
 206:..\..\u8g2\csrc/u8x8_d_ssd1305.c **** 	u8x8->x_offset = u8x8->display_info->default_x_offset;
 235              		.loc 1 206 0
 236 002c 2B68     		ldr	r3, [r5]
 237 002e 9B7C     		ldrb	r3, [r3, #18]
 238 0030 AB77     		strb	r3, [r5, #30]
 207:..\..\u8g2\csrc/u8x8_d_ssd1305.c ****       }
 208:..\..\u8g2\csrc/u8x8_d_ssd1305.c ****       else
ARM GAS  C:\Users\Alan\AppData\Local\Temp\ccmO1Ngx.s 			page 9


 209:..\..\u8g2\csrc/u8x8_d_ssd1305.c ****       {
 210:..\..\u8g2\csrc/u8x8_d_ssd1305.c **** 	u8x8_cad_SendSequence(u8x8, u8x8_d_ssd1305_128x32_flip1_seq);
 211:..\..\u8g2\csrc/u8x8_d_ssd1305.c **** 	u8x8->x_offset = u8x8->display_info->flipmode_x_offset;
 212:..\..\u8g2\csrc/u8x8_d_ssd1305.c ****       }
 213:..\..\u8g2\csrc/u8x8_d_ssd1305.c ****       break;
 214:..\..\u8g2\csrc/u8x8_d_ssd1305.c ****     case U8X8_MSG_DISPLAY_INIT:
 215:..\..\u8g2\csrc/u8x8_d_ssd1305.c ****       u8x8_d_helper_display_init(u8x8);
 216:..\..\u8g2\csrc/u8x8_d_ssd1305.c ****       u8x8_cad_SendSequence(u8x8, u8x8_d_ssd1305_128x32_noname_init_seq);    
 217:..\..\u8g2\csrc/u8x8_d_ssd1305.c ****       break;
 218:..\..\u8g2\csrc/u8x8_d_ssd1305.c ****     case U8X8_MSG_DISPLAY_SETUP_MEMORY:
 219:..\..\u8g2\csrc/u8x8_d_ssd1305.c ****       u8x8_d_helper_display_setup_memory(u8x8, &u8x8_ssd1305_128x32_noname_display_info);
 220:..\..\u8g2\csrc/u8x8_d_ssd1305.c ****       break;
 221:..\..\u8g2\csrc/u8x8_d_ssd1305.c ****     default:
 222:..\..\u8g2\csrc/u8x8_d_ssd1305.c ****       return 0;
 223:..\..\u8g2\csrc/u8x8_d_ssd1305.c ****   }
 224:..\..\u8g2\csrc/u8x8_d_ssd1305.c ****   return 1;
 239              		.loc 1 224 0
 240 0032 0120     		movs	r0, #1
 241 0034 1BE0     		b	.L13
 242              	.L17:
 210:..\..\u8g2\csrc/u8x8_d_ssd1305.c **** 	u8x8->x_offset = u8x8->display_info->flipmode_x_offset;
 243              		.loc 1 210 0
 244 0036 0E49     		ldr	r1, .L19
 245 0038 1C31     		adds	r1, r1, #28
 246 003a 2800     		movs	r0, r5
 247 003c FFF7FEFF 		bl	u8x8_cad_SendSequence
 248              	.LVL35:
 211:..\..\u8g2\csrc/u8x8_d_ssd1305.c ****       }
 249              		.loc 1 211 0
 250 0040 2B68     		ldr	r3, [r5]
 251 0042 DB7C     		ldrb	r3, [r3, #19]
 252 0044 AB77     		strb	r3, [r5, #30]
 253              		.loc 1 224 0
 254 0046 0120     		movs	r0, #1
 255 0048 11E0     		b	.L13
 256              	.L14:
 215:..\..\u8g2\csrc/u8x8_d_ssd1305.c ****       u8x8_cad_SendSequence(u8x8, u8x8_d_ssd1305_128x32_noname_init_seq);    
 257              		.loc 1 215 0
 258 004a 2800     		movs	r0, r5
 259 004c FFF7FEFF 		bl	u8x8_d_helper_display_init
 260              	.LVL36:
 216:..\..\u8g2\csrc/u8x8_d_ssd1305.c ****       break;
 261              		.loc 1 216 0
 262 0050 0749     		ldr	r1, .L19
 263 0052 2831     		adds	r1, r1, #40
 264 0054 2800     		movs	r0, r5
 265 0056 FFF7FEFF 		bl	u8x8_cad_SendSequence
 266              	.LVL37:
 267              		.loc 1 224 0
 268 005a 0120     		movs	r0, #1
 217:..\..\u8g2\csrc/u8x8_d_ssd1305.c ****     case U8X8_MSG_DISPLAY_SETUP_MEMORY:
 269              		.loc 1 217 0
 270 005c 07E0     		b	.L13
 271              	.L16:
 219:..\..\u8g2\csrc/u8x8_d_ssd1305.c ****       break;
 272              		.loc 1 219 0
 273 005e 0449     		ldr	r1, .L19
ARM GAS  C:\Users\Alan\AppData\Local\Temp\ccmO1Ngx.s 			page 10


 274 0060 5C31     		adds	r1, r1, #92
 275 0062 2800     		movs	r0, r5
 276 0064 FFF7FEFF 		bl	u8x8_d_helper_display_setup_memory
 277              	.LVL38:
 278              		.loc 1 224 0
 279 0068 0120     		movs	r0, #1
 220:..\..\u8g2\csrc/u8x8_d_ssd1305.c ****     default:
 280              		.loc 1 220 0
 281 006a 00E0     		b	.L13
 282              	.L18:
 198:..\..\u8g2\csrc/u8x8_d_ssd1305.c ****   
 283              		.loc 1 198 0
 284 006c 0120     		movs	r0, #1
 285              	.L13:
 225:..\..\u8g2\csrc/u8x8_d_ssd1305.c **** }
 286              		.loc 1 225 0
 287              		@ sp needed
 288              	.LVL39:
 289 006e 70BD     		pop	{r4, r5, r6, pc}
 290              	.L20:
 291              		.align	2
 292              	.L19:
 293 0070 00000000 		.word	.LANCHOR0
 294              		.cfi_endproc
 295              	.LFE1:
 296              		.size	u8x8_d_ssd1305_128x32_noname, .-u8x8_d_ssd1305_128x32_noname
 297              		.section	.rodata
 298              		.align	2
 299              		.set	.LANCHOR0,. + 0
 300              		.type	u8x8_d_ssd1305_powersave0_seq, %object
 301              		.size	u8x8_d_ssd1305_powersave0_seq, 5
 302              	u8x8_d_ssd1305_powersave0_seq:
 303 0000 18       		.byte	24
 304 0001 15       		.byte	21
 305 0002 AF       		.byte	-81
 306 0003 19       		.byte	25
 307 0004 FF       		.byte	-1
 308 0005 000000   		.space	3
 309              		.type	u8x8_d_ssd1305_powersave1_seq, %object
 310              		.size	u8x8_d_ssd1305_powersave1_seq, 5
 311              	u8x8_d_ssd1305_powersave1_seq:
 312 0008 18       		.byte	24
 313 0009 15       		.byte	21
 314 000a AE       		.byte	-82
 315 000b 19       		.byte	25
 316 000c FF       		.byte	-1
 317 000d 000000   		.space	3
 318              		.type	u8x8_d_ssd1305_128x32_flip0_seq, %object
 319              		.size	u8x8_d_ssd1305_128x32_flip0_seq, 11
 320              	u8x8_d_ssd1305_128x32_flip0_seq:
 321 0010 18       		.byte	24
 322 0011 15       		.byte	21
 323 0012 D3       		.byte	-45
 324 0013 16       		.byte	22
 325 0014 20       		.byte	32
 326 0015 15       		.byte	21
 327 0016 A1       		.byte	-95
ARM GAS  C:\Users\Alan\AppData\Local\Temp\ccmO1Ngx.s 			page 11


 328 0017 15       		.byte	21
 329 0018 C8       		.byte	-56
 330 0019 19       		.byte	25
 331 001a FF       		.byte	-1
 332 001b 00       		.space	1
 333              		.type	u8x8_d_ssd1305_128x32_flip1_seq, %object
 334              		.size	u8x8_d_ssd1305_128x32_flip1_seq, 11
 335              	u8x8_d_ssd1305_128x32_flip1_seq:
 336 001c 18       		.byte	24
 337 001d 15       		.byte	21
 338 001e D3       		.byte	-45
 339 001f 16       		.byte	22
 340 0020 00       		.byte	0
 341 0021 15       		.byte	21
 342 0022 A0       		.byte	-96
 343 0023 15       		.byte	21
 344 0024 C0       		.byte	-64
 345 0025 19       		.byte	25
 346 0026 FF       		.byte	-1
 347 0027 00       		.space	1
 348              		.type	u8x8_d_ssd1305_128x32_noname_init_seq, %object
 349              		.size	u8x8_d_ssd1305_128x32_noname_init_seq, 49
 350              	u8x8_d_ssd1305_128x32_noname_init_seq:
 351 0028 18       		.byte	24
 352 0029 15       		.byte	21
 353 002a AE       		.byte	-82
 354 002b 15       		.byte	21
 355 002c D5       		.byte	-43
 356 002d 16       		.byte	22
 357 002e 80       		.byte	-128
 358 002f 15       		.byte	21
 359 0030 A8       		.byte	-88
 360 0031 16       		.byte	22
 361 0032 3F       		.byte	63
 362 0033 15       		.byte	21
 363 0034 D3       		.byte	-45
 364 0035 16       		.byte	22
 365 0036 20       		.byte	32
 366 0037 15       		.byte	21
 367 0038 40       		.byte	64
 368 0039 15       		.byte	21
 369 003a 20       		.byte	32
 370 003b 16       		.byte	22
 371 003c 00       		.byte	0
 372 003d 15       		.byte	21
 373 003e A1       		.byte	-95
 374 003f 15       		.byte	21
 375 0040 C8       		.byte	-56
 376 0041 15       		.byte	21
 377 0042 DA       		.byte	-38
 378 0043 16       		.byte	22
 379 0044 12       		.byte	18
 380 0045 15       		.byte	21
 381 0046 81       		.byte	-127
 382 0047 16       		.byte	22
 383 0048 CF       		.byte	-49
 384 0049 15       		.byte	21
ARM GAS  C:\Users\Alan\AppData\Local\Temp\ccmO1Ngx.s 			page 12


 385 004a D9       		.byte	-39
 386 004b 16       		.byte	22
 387 004c F1       		.byte	-15
 388 004d 15       		.byte	21
 389 004e DB       		.byte	-37
 390 004f 16       		.byte	22
 391 0050 40       		.byte	64
 392 0051 15       		.byte	21
 393 0052 2E       		.byte	46
 394 0053 15       		.byte	21
 395 0054 A4       		.byte	-92
 396 0055 15       		.byte	21
 397 0056 A6       		.byte	-90
 398 0057 19       		.byte	25
 399 0058 FF       		.byte	-1
 400 0059 000000   		.space	3
 401              		.type	u8x8_ssd1305_128x32_noname_display_info, %object
 402              		.size	u8x8_ssd1305_128x32_noname_display_info, 24
 403              	u8x8_ssd1305_128x32_noname_display_info:
 404 005c 00       		.byte	0
 405 005d 01       		.byte	1
 406 005e 14       		.byte	20
 407 005f 0A       		.byte	10
 408 0060 64       		.byte	100
 409 0061 64       		.byte	100
 410 0062 32       		.byte	50
 411 0063 32       		.byte	50
 412 0064 00093D00 		.word	4000000
 413 0068 00       		.byte	0
 414 0069 04       		.byte	4
 415 006a 28       		.byte	40
 416 006b 96       		.byte	-106
 417 006c 10       		.byte	16
 418 006d 04       		.byte	4
 419 006e 02       		.byte	2
 420 006f 02       		.byte	2
 421 0070 8000     		.short	128
 422 0072 2000     		.short	32
 423              		.text
 424              	.Letext0:
 425              		.file 2 "c:\\program files (x86)\\cypress\\psoc creator\\4.1\\psoc creator\\import\\gnu\\arm\\5.4.
 426              		.file 3 "c:\\program files (x86)\\cypress\\psoc creator\\4.1\\psoc creator\\import\\gnu\\arm\\5.4.
 427              		.file 4 "..\\..\\u8g2\\csrc\\u8x8.h"