ARM GAS  C:\Users\gjl\AppData\Local\Temp\cch7QXDf.s 			page 1


   1              		.syntax unified
   2              		.cpu cortex-m0
   3              		.fpu softvfp
   4              		.eabi_attribute 20, 1
   5              		.eabi_attribute 21, 1
   6              		.eabi_attribute 23, 3
   7              		.eabi_attribute 24, 1
   8              		.eabi_attribute 25, 1
   9              		.eabi_attribute 26, 1
  10              		.eabi_attribute 30, 1
  11              		.eabi_attribute 34, 0
  12              		.eabi_attribute 18, 4
  13              		.thumb
  14              		.syntax unified
  15              		.file	"u8x8_d_uc1611.c"
  16              		.text
  17              	.Ltext0:
  18              		.cfi_sections	.debug_frame
  19              		.section	.text.u8x8_d_uc1611_common,"ax",%progbits
  20              		.align	2
  21              		.global	u8x8_d_uc1611_common
  22              		.code	16
  23              		.thumb_func
  24              		.type	u8x8_d_uc1611_common, %function
  25              	u8x8_d_uc1611_common:
  26              	.LFB0:
  27              		.file 1 "..\\u8g2\\csrc\\u8x8_d_uc1611.c"
   1:..\u8g2\csrc/u8x8_d_uc1611.c **** /*
   2:..\u8g2\csrc/u8x8_d_uc1611.c **** 
   3:..\u8g2\csrc/u8x8_d_uc1611.c ****   u8x8_d_uc1611.c
   4:..\u8g2\csrc/u8x8_d_uc1611.c ****   
   5:..\u8g2\csrc/u8x8_d_uc1611.c ****   Universal 8bit Graphics Library (https://github.com/olikraus/u8g2/)
   6:..\u8g2\csrc/u8x8_d_uc1611.c **** 
   7:..\u8g2\csrc/u8x8_d_uc1611.c ****   Copyright (c) 2016, olikraus@gmail.com
   8:..\u8g2\csrc/u8x8_d_uc1611.c ****   All rights reserved.
   9:..\u8g2\csrc/u8x8_d_uc1611.c **** 
  10:..\u8g2\csrc/u8x8_d_uc1611.c ****   Redistribution and use in source and binary forms, with or without modification, 
  11:..\u8g2\csrc/u8x8_d_uc1611.c ****   are permitted provided that the following conditions are met:
  12:..\u8g2\csrc/u8x8_d_uc1611.c **** 
  13:..\u8g2\csrc/u8x8_d_uc1611.c ****   * Redistributions of source code must retain the above copyright notice, this list 
  14:..\u8g2\csrc/u8x8_d_uc1611.c ****     of conditions and the following disclaimer.
  15:..\u8g2\csrc/u8x8_d_uc1611.c ****     
  16:..\u8g2\csrc/u8x8_d_uc1611.c ****   * Redistributions in binary form must reproduce the above copyright notice, this 
  17:..\u8g2\csrc/u8x8_d_uc1611.c ****     list of conditions and the following disclaimer in the documentation and/or other 
  18:..\u8g2\csrc/u8x8_d_uc1611.c ****     materials provided with the distribution.
  19:..\u8g2\csrc/u8x8_d_uc1611.c **** 
  20:..\u8g2\csrc/u8x8_d_uc1611.c ****   THIS SOFTWARE IS PROVIDED BY THE COPYRIGHT HOLDERS AND 
  21:..\u8g2\csrc/u8x8_d_uc1611.c ****   CONTRIBUTORS "AS IS" AND ANY EXPRESS OR IMPLIED WARRANTIES, 
  22:..\u8g2\csrc/u8x8_d_uc1611.c ****   INCLUDING, BUT NOT LIMITED TO, THE IMPLIED WARRANTIES OF 
  23:..\u8g2\csrc/u8x8_d_uc1611.c ****   MERCHANTABILITY AND FITNESS FOR A PARTICULAR PURPOSE ARE 
  24:..\u8g2\csrc/u8x8_d_uc1611.c ****   DISCLAIMED. IN NO EVENT SHALL THE COPYRIGHT HOLDER OR 
  25:..\u8g2\csrc/u8x8_d_uc1611.c ****   CONTRIBUTORS BE LIABLE FOR ANY DIRECT, INDIRECT, INCIDENTAL, 
  26:..\u8g2\csrc/u8x8_d_uc1611.c ****   SPECIAL, EXEMPLARY, OR CONSEQUENTIAL DAMAGES (INCLUDING, BUT 
  27:..\u8g2\csrc/u8x8_d_uc1611.c ****   NOT LIMITED TO, PROCUREMENT OF SUBSTITUTE GOODS OR SERVICES; 
  28:..\u8g2\csrc/u8x8_d_uc1611.c ****   LOSS OF USE, DATA, OR PROFITS; OR BUSINESS INTERRUPTION) HOWEVER 
  29:..\u8g2\csrc/u8x8_d_uc1611.c ****   CAUSED AND ON ANY THEORY OF LIABILITY, WHETHER IN CONTRACT, 
  30:..\u8g2\csrc/u8x8_d_uc1611.c ****   STRICT LIABILITY, OR TORT (INCLUDING NEGLIGENCE OR OTHERWISE) 
ARM GAS  C:\Users\gjl\AppData\Local\Temp\cch7QXDf.s 			page 2


  31:..\u8g2\csrc/u8x8_d_uc1611.c ****   ARISING IN ANY WAY OUT OF THE USE OF THIS SOFTWARE, EVEN IF 
  32:..\u8g2\csrc/u8x8_d_uc1611.c ****   ADVISED OF THE POSSIBILITY OF SUCH DAMAGE.  
  33:..\u8g2\csrc/u8x8_d_uc1611.c **** 
  34:..\u8g2\csrc/u8x8_d_uc1611.c **** 
  35:..\u8g2\csrc/u8x8_d_uc1611.c ****   6 Nov 2016: Not yet finished
  36:..\u8g2\csrc/u8x8_d_uc1611.c ****   
  37:..\u8g2\csrc/u8x8_d_uc1611.c **** */
  38:..\u8g2\csrc/u8x8_d_uc1611.c **** #include "u8x8.h"
  39:..\u8g2\csrc/u8x8_d_uc1611.c **** 
  40:..\u8g2\csrc/u8x8_d_uc1611.c **** 
  41:..\u8g2\csrc/u8x8_d_uc1611.c **** 
  42:..\u8g2\csrc/u8x8_d_uc1611.c **** 
  43:..\u8g2\csrc/u8x8_d_uc1611.c **** 
  44:..\u8g2\csrc/u8x8_d_uc1611.c **** static const uint8_t u8x8_d_uc1611_powersave0_seq[] = {
  45:..\u8g2\csrc/u8x8_d_uc1611.c ****   U8X8_START_TRANSFER(),             	/* enable chip, delay is part of the transfer start */
  46:..\u8g2\csrc/u8x8_d_uc1611.c ****   U8X8_C(0x0a9),		                /* display on */
  47:..\u8g2\csrc/u8x8_d_uc1611.c ****   U8X8_END_TRANSFER(),             	/* disable chip */
  48:..\u8g2\csrc/u8x8_d_uc1611.c ****   U8X8_END()             			/* end of sequence */
  49:..\u8g2\csrc/u8x8_d_uc1611.c **** };
  50:..\u8g2\csrc/u8x8_d_uc1611.c **** 
  51:..\u8g2\csrc/u8x8_d_uc1611.c **** static const uint8_t u8x8_d_uc1611_powersave1_seq[] = {
  52:..\u8g2\csrc/u8x8_d_uc1611.c ****   U8X8_START_TRANSFER(),             	/* enable chip, delay is part of the transfer start */
  53:..\u8g2\csrc/u8x8_d_uc1611.c ****   U8X8_C(0x0a8),		                /* display off, enter sleep mode */
  54:..\u8g2\csrc/u8x8_d_uc1611.c ****   U8X8_END_TRANSFER(),             	/* disable chip */
  55:..\u8g2\csrc/u8x8_d_uc1611.c ****   U8X8_END()             			/* end of sequence */
  56:..\u8g2\csrc/u8x8_d_uc1611.c **** };
  57:..\u8g2\csrc/u8x8_d_uc1611.c **** 
  58:..\u8g2\csrc/u8x8_d_uc1611.c **** static const uint8_t u8x8_d_uc1611_flip0_seq[] = {
  59:..\u8g2\csrc/u8x8_d_uc1611.c ****   U8X8_START_TRANSFER(),             	/* enable chip, delay is part of the transfer start */
  60:..\u8g2\csrc/u8x8_d_uc1611.c ****   U8X8_CA(0x0c0, 0x004),            	/* LCD Mapping */
  61:..\u8g2\csrc/u8x8_d_uc1611.c ****   U8X8_END_TRANSFER(),             	/* disable chip */
  62:..\u8g2\csrc/u8x8_d_uc1611.c ****   U8X8_END()             			/* end of sequence */
  63:..\u8g2\csrc/u8x8_d_uc1611.c **** };
  64:..\u8g2\csrc/u8x8_d_uc1611.c **** 
  65:..\u8g2\csrc/u8x8_d_uc1611.c **** static const uint8_t u8x8_d_uc1611_flip1_seq[] = {
  66:..\u8g2\csrc/u8x8_d_uc1611.c ****   U8X8_START_TRANSFER(),             	/* enable chip, delay is part of the transfer start */
  67:..\u8g2\csrc/u8x8_d_uc1611.c ****   U8X8_CA(0x0c0, 0x002),            	/* LCD Mapping */
  68:..\u8g2\csrc/u8x8_d_uc1611.c ****   U8X8_END_TRANSFER(),             	/* disable chip */
  69:..\u8g2\csrc/u8x8_d_uc1611.c ****   U8X8_END()             			/* end of sequence */
  70:..\u8g2\csrc/u8x8_d_uc1611.c **** };
  71:..\u8g2\csrc/u8x8_d_uc1611.c **** 
  72:..\u8g2\csrc/u8x8_d_uc1611.c **** 
  73:..\u8g2\csrc/u8x8_d_uc1611.c **** uint8_t u8x8_d_uc1611_common(u8x8_t *u8x8, uint8_t msg, uint8_t arg_int, void *arg_ptr)
  74:..\u8g2\csrc/u8x8_d_uc1611.c **** {
  28              		.loc 1 74 0
  29              		.cfi_startproc
  30              		@ args = 0, pretend = 0, frame = 0
  31              		@ frame_needed = 0, uses_anonymous_args = 0
  32              	.LVL0:
  33 0000 F0B5     		push	{r4, r5, r6, r7, lr}
  34              		.cfi_def_cfa_offset 20
  35              		.cfi_offset 4, -20
  36              		.cfi_offset 5, -16
  37              		.cfi_offset 6, -12
  38              		.cfi_offset 7, -8
  39              		.cfi_offset 14, -4
  40 0002 4746     		mov	r7, r8
ARM GAS  C:\Users\gjl\AppData\Local\Temp\cch7QXDf.s 			page 3


  41 0004 80B4     		push	{r7}
  42              		.cfi_def_cfa_offset 24
  43              		.cfi_offset 8, -24
  44 0006 0500     		movs	r5, r0
  45 0008 1400     		movs	r4, r2
  46 000a 1F00     		movs	r7, r3
  75:..\u8g2\csrc/u8x8_d_uc1611.c ****   uint8_t x, y, c;
  76:..\u8g2\csrc/u8x8_d_uc1611.c ****   uint8_t *ptr;
  77:..\u8g2\csrc/u8x8_d_uc1611.c ****   switch(msg)
  47              		.loc 1 77 0
  48 000c 0D29     		cmp	r1, #13
  49 000e 4DD0     		beq	.L3
  50 0010 02D8     		bhi	.L4
  51 0012 0B29     		cmp	r1, #11
  52 0014 3DD0     		beq	.L5
  53 0016 6CE0     		b	.L11
  54              	.L4:
  55 0018 0E29     		cmp	r1, #14
  56 001a 5BD0     		beq	.L6
  57 001c 0F29     		cmp	r1, #15
  58 001e 68D1     		bne	.L11
  78:..\u8g2\csrc/u8x8_d_uc1611.c ****   {
  79:..\u8g2\csrc/u8x8_d_uc1611.c ****     case U8X8_MSG_DISPLAY_DRAW_TILE:
  80:..\u8g2\csrc/u8x8_d_uc1611.c ****       u8x8_cad_StartTransfer(u8x8);
  59              		.loc 1 80 0
  60 0020 FFF7FEFF 		bl	u8x8_cad_StartTransfer
  61              	.LVL1:
  81:..\u8g2\csrc/u8x8_d_uc1611.c ****     
  82:..\u8g2\csrc/u8x8_d_uc1611.c ****       x = ((u8x8_tile_t *)arg_ptr)->x_pos;
  62              		.loc 1 82 0
  63 0024 7E79     		ldrb	r6, [r7, #5]
  64              	.LVL2:
  83:..\u8g2\csrc/u8x8_d_uc1611.c ****       x *= 8;
  65              		.loc 1 83 0
  66 0026 F600     		lsls	r6, r6, #3
  67              	.LVL3:
  68 0028 F6B2     		uxtb	r6, r6
  69              	.LVL4:
  84:..\u8g2\csrc/u8x8_d_uc1611.c ****       x += u8x8->x_offset;
  70              		.loc 1 84 0
  71 002a AB7F     		ldrb	r3, [r5, #30]
  72 002c F618     		adds	r6, r6, r3
  73              	.LVL5:
  74 002e F6B2     		uxtb	r6, r6
  75              	.LVL6:
  85:..\u8g2\csrc/u8x8_d_uc1611.c ****    
  86:..\u8g2\csrc/u8x8_d_uc1611.c ****       u8x8_cad_SendCmd(u8x8, 0x000 | ((x&15)));
  76              		.loc 1 86 0
  77 0030 0F23     		movs	r3, #15
  78 0032 9846     		mov	r8, r3
  79 0034 1900     		movs	r1, r3
  80 0036 3140     		ands	r1, r6
  81 0038 2800     		movs	r0, r5
  82 003a FFF7FEFF 		bl	u8x8_cad_SendCmd
  83              	.LVL7:
  87:..\u8g2\csrc/u8x8_d_uc1611.c ****       u8x8_cad_SendCmd(u8x8, 0x010 | (x>>4) );
  84              		.loc 1 87 0
ARM GAS  C:\Users\gjl\AppData\Local\Temp\cch7QXDf.s 			page 4


  85 003e 3609     		lsrs	r6, r6, #4
  86              	.LVL8:
  87 0040 1021     		movs	r1, #16
  88 0042 0E43     		orrs	r6, r1
  89 0044 F1B2     		uxtb	r1, r6
  90 0046 2800     		movs	r0, r5
  91 0048 FFF7FEFF 		bl	u8x8_cad_SendCmd
  92              	.LVL9:
  88:..\u8g2\csrc/u8x8_d_uc1611.c ****     
  89:..\u8g2\csrc/u8x8_d_uc1611.c ****       y = ((u8x8_tile_t *)arg_ptr)->y_pos;
  93              		.loc 1 89 0
  94 004c BE79     		ldrb	r6, [r7, #6]
  95              	.LVL10:
  90:..\u8g2\csrc/u8x8_d_uc1611.c ****       u8x8_cad_SendCmd(u8x8, 0x060 | (y&15));
  96              		.loc 1 90 0
  97 004e 4146     		mov	r1, r8
  98 0050 3140     		ands	r1, r6
  99 0052 6022     		movs	r2, #96
 100 0054 0B00     		movs	r3, r1
 101 0056 1343     		orrs	r3, r2
 102 0058 D9B2     		uxtb	r1, r3
 103 005a 2800     		movs	r0, r5
 104 005c FFF7FEFF 		bl	u8x8_cad_SendCmd
 105              	.LVL11:
  91:..\u8g2\csrc/u8x8_d_uc1611.c ****       u8x8_cad_SendCmd(u8x8, 0x070 | (y>>4));
 106              		.loc 1 91 0
 107 0060 3109     		lsrs	r1, r6, #4
 108 0062 7023     		movs	r3, #112
 109 0064 1943     		orrs	r1, r3
 110 0066 C9B2     		uxtb	r1, r1
 111 0068 2800     		movs	r0, r5
 112 006a FFF7FEFF 		bl	u8x8_cad_SendCmd
 113              	.LVL12:
  92:..\u8g2\csrc/u8x8_d_uc1611.c ****     
  93:..\u8g2\csrc/u8x8_d_uc1611.c ****       c = ((u8x8_tile_t *)arg_ptr)->cnt;
 114              		.loc 1 93 0
 115 006e 3E79     		ldrb	r6, [r7, #4]
 116              	.LVL13:
  94:..\u8g2\csrc/u8x8_d_uc1611.c ****       c *= 8;
 117              		.loc 1 94 0
 118 0070 F600     		lsls	r6, r6, #3
 119              	.LVL14:
 120 0072 F6B2     		uxtb	r6, r6
 121              	.LVL15:
  95:..\u8g2\csrc/u8x8_d_uc1611.c ****       ptr = ((u8x8_tile_t *)arg_ptr)->tile_ptr;
 122              		.loc 1 95 0
 123 0074 3F68     		ldr	r7, [r7]
 124              	.LVL16:
 125              	.L8:
  96:..\u8g2\csrc/u8x8_d_uc1611.c ****       do
  97:..\u8g2\csrc/u8x8_d_uc1611.c ****       {
  98:..\u8g2\csrc/u8x8_d_uc1611.c **** 	u8x8_cad_SendData(u8x8, c, ptr);	/* note: SendData can not handle more than 255 bytes */
 126              		.loc 1 98 0 discriminator 1
 127 0076 3A00     		movs	r2, r7
 128 0078 3100     		movs	r1, r6
 129 007a 2800     		movs	r0, r5
 130 007c FFF7FEFF 		bl	u8x8_cad_SendData
ARM GAS  C:\Users\gjl\AppData\Local\Temp\cch7QXDf.s 			page 5


 131              	.LVL17:
  99:..\u8g2\csrc/u8x8_d_uc1611.c **** 	arg_int--;
 132              		.loc 1 99 0 discriminator 1
 133 0080 013C     		subs	r4, r4, #1
 134              	.LVL18:
 135 0082 E4B2     		uxtb	r4, r4
 136              	.LVL19:
 100:..\u8g2\csrc/u8x8_d_uc1611.c ****       } while( arg_int > 0 );
 137              		.loc 1 100 0 discriminator 1
 138 0084 002C     		cmp	r4, #0
 139 0086 F6D1     		bne	.L8
 101:..\u8g2\csrc/u8x8_d_uc1611.c ****       
 102:..\u8g2\csrc/u8x8_d_uc1611.c ****       u8x8_cad_EndTransfer(u8x8);
 140              		.loc 1 102 0
 141 0088 2800     		movs	r0, r5
 142 008a FFF7FEFF 		bl	u8x8_cad_EndTransfer
 143              	.LVL20:
 103:..\u8g2\csrc/u8x8_d_uc1611.c ****       break;
 104:..\u8g2\csrc/u8x8_d_uc1611.c ****     /*	handled in the calling procedure 
 105:..\u8g2\csrc/u8x8_d_uc1611.c ****     case U8X8_MSG_DISPLAY_SETUP_MEMORY:
 106:..\u8g2\csrc/u8x8_d_uc1611.c ****       u8x8_d_helper_display_setup_memory(u8x8, &u8x8_uc1611_128x64_display_info);
 107:..\u8g2\csrc/u8x8_d_uc1611.c ****       break;
 108:..\u8g2\csrc/u8x8_d_uc1611.c ****     case U8X8_MSG_DISPLAY_INIT:
 109:..\u8g2\csrc/u8x8_d_uc1611.c ****       u8x8_d_helper_display_init(u8x8);
 110:..\u8g2\csrc/u8x8_d_uc1611.c ****       u8x8_cad_SendSequence(u8x8, u8x8_d_uc1701_dogs102_init_seq);
 111:..\u8g2\csrc/u8x8_d_uc1611.c ****       break;
 112:..\u8g2\csrc/u8x8_d_uc1611.c ****     */
 113:..\u8g2\csrc/u8x8_d_uc1611.c ****     case U8X8_MSG_DISPLAY_SET_POWER_SAVE:
 114:..\u8g2\csrc/u8x8_d_uc1611.c ****       if ( arg_int == 0 )
 115:..\u8g2\csrc/u8x8_d_uc1611.c **** 	u8x8_cad_SendSequence(u8x8, u8x8_d_uc1611_powersave0_seq);
 116:..\u8g2\csrc/u8x8_d_uc1611.c ****       else
 117:..\u8g2\csrc/u8x8_d_uc1611.c **** 	u8x8_cad_SendSequence(u8x8, u8x8_d_uc1611_powersave1_seq);
 118:..\u8g2\csrc/u8x8_d_uc1611.c ****       break;
 119:..\u8g2\csrc/u8x8_d_uc1611.c ****     case U8X8_MSG_DISPLAY_SET_FLIP_MODE:
 120:..\u8g2\csrc/u8x8_d_uc1611.c ****       if ( arg_int == 0 )
 121:..\u8g2\csrc/u8x8_d_uc1611.c ****       {
 122:..\u8g2\csrc/u8x8_d_uc1611.c **** 	u8x8_cad_SendSequence(u8x8, u8x8_d_uc1611_flip0_seq);
 123:..\u8g2\csrc/u8x8_d_uc1611.c **** 	u8x8->x_offset = u8x8->display_info->default_x_offset;
 124:..\u8g2\csrc/u8x8_d_uc1611.c ****       }
 125:..\u8g2\csrc/u8x8_d_uc1611.c ****       else
 126:..\u8g2\csrc/u8x8_d_uc1611.c ****       {
 127:..\u8g2\csrc/u8x8_d_uc1611.c **** 	u8x8_cad_SendSequence(u8x8, u8x8_d_uc1611_flip1_seq);
 128:..\u8g2\csrc/u8x8_d_uc1611.c **** 	u8x8->x_offset = u8x8->display_info->flipmode_x_offset;
 129:..\u8g2\csrc/u8x8_d_uc1611.c ****       }	
 130:..\u8g2\csrc/u8x8_d_uc1611.c ****       break;
 131:..\u8g2\csrc/u8x8_d_uc1611.c **** #ifdef U8X8_WITH_SET_CONTRAST
 132:..\u8g2\csrc/u8x8_d_uc1611.c ****     case U8X8_MSG_DISPLAY_SET_CONTRAST:
 133:..\u8g2\csrc/u8x8_d_uc1611.c ****       u8x8_cad_StartTransfer(u8x8);
 134:..\u8g2\csrc/u8x8_d_uc1611.c ****       u8x8_cad_SendCmd(u8x8, 0x081 );
 135:..\u8g2\csrc/u8x8_d_uc1611.c ****       u8x8_cad_SendArg(u8x8, arg_int  );	/* uc1611 has range from 0 to 255 */
 136:..\u8g2\csrc/u8x8_d_uc1611.c ****       u8x8_cad_EndTransfer(u8x8);
 137:..\u8g2\csrc/u8x8_d_uc1611.c ****       break;
 138:..\u8g2\csrc/u8x8_d_uc1611.c **** #endif
 139:..\u8g2\csrc/u8x8_d_uc1611.c ****     default:
 140:..\u8g2\csrc/u8x8_d_uc1611.c ****       return 0;
 141:..\u8g2\csrc/u8x8_d_uc1611.c ****   }
 142:..\u8g2\csrc/u8x8_d_uc1611.c ****   return 1;
ARM GAS  C:\Users\gjl\AppData\Local\Temp\cch7QXDf.s 			page 6


 144              		.loc 1 142 0
 145 008e 0120     		movs	r0, #1
 103:..\u8g2\csrc/u8x8_d_uc1611.c ****       break;
 146              		.loc 1 103 0
 147 0090 30E0     		b	.L2
 148              	.LVL21:
 149              	.L5:
 114:..\u8g2\csrc/u8x8_d_uc1611.c **** 	u8x8_cad_SendSequence(u8x8, u8x8_d_uc1611_powersave0_seq);
 150              		.loc 1 114 0
 151 0092 002A     		cmp	r2, #0
 152 0094 04D1     		bne	.L9
 115:..\u8g2\csrc/u8x8_d_uc1611.c ****       else
 153              		.loc 1 115 0
 154 0096 1949     		ldr	r1, .L12
 155              	.LVL22:
 156 0098 FFF7FEFF 		bl	u8x8_cad_SendSequence
 157              	.LVL23:
 158              		.loc 1 142 0
 159 009c 0120     		movs	r0, #1
 160 009e 29E0     		b	.L2
 161              	.LVL24:
 162              	.L9:
 117:..\u8g2\csrc/u8x8_d_uc1611.c ****       break;
 163              		.loc 1 117 0
 164 00a0 1649     		ldr	r1, .L12
 165              	.LVL25:
 166 00a2 0831     		adds	r1, r1, #8
 167 00a4 FFF7FEFF 		bl	u8x8_cad_SendSequence
 168              	.LVL26:
 169              		.loc 1 142 0
 170 00a8 0120     		movs	r0, #1
 171 00aa 23E0     		b	.L2
 172              	.LVL27:
 173              	.L3:
 120:..\u8g2\csrc/u8x8_d_uc1611.c ****       {
 174              		.loc 1 120 0
 175 00ac 002A     		cmp	r2, #0
 176 00ae 08D1     		bne	.L10
 122:..\u8g2\csrc/u8x8_d_uc1611.c **** 	u8x8->x_offset = u8x8->display_info->default_x_offset;
 177              		.loc 1 122 0
 178 00b0 1249     		ldr	r1, .L12
 179              	.LVL28:
 180 00b2 1031     		adds	r1, r1, #16
 181 00b4 FFF7FEFF 		bl	u8x8_cad_SendSequence
 182              	.LVL29:
 123:..\u8g2\csrc/u8x8_d_uc1611.c ****       }
 183              		.loc 1 123 0
 184 00b8 2B68     		ldr	r3, [r5]
 185 00ba 9B7C     		ldrb	r3, [r3, #18]
 186 00bc AB77     		strb	r3, [r5, #30]
 187              		.loc 1 142 0
 188 00be 0120     		movs	r0, #1
 189 00c0 18E0     		b	.L2
 190              	.LVL30:
 191              	.L10:
 127:..\u8g2\csrc/u8x8_d_uc1611.c **** 	u8x8->x_offset = u8x8->display_info->flipmode_x_offset;
 192              		.loc 1 127 0
ARM GAS  C:\Users\gjl\AppData\Local\Temp\cch7QXDf.s 			page 7


 193 00c2 0E49     		ldr	r1, .L12
 194              	.LVL31:
 195 00c4 1831     		adds	r1, r1, #24
 196 00c6 FFF7FEFF 		bl	u8x8_cad_SendSequence
 197              	.LVL32:
 128:..\u8g2\csrc/u8x8_d_uc1611.c ****       }	
 198              		.loc 1 128 0
 199 00ca 2B68     		ldr	r3, [r5]
 200 00cc DB7C     		ldrb	r3, [r3, #19]
 201 00ce AB77     		strb	r3, [r5, #30]
 202              		.loc 1 142 0
 203 00d0 0120     		movs	r0, #1
 204 00d2 0FE0     		b	.L2
 205              	.LVL33:
 206              	.L6:
 133:..\u8g2\csrc/u8x8_d_uc1611.c ****       u8x8_cad_SendCmd(u8x8, 0x081 );
 207              		.loc 1 133 0
 208 00d4 FFF7FEFF 		bl	u8x8_cad_StartTransfer
 209              	.LVL34:
 134:..\u8g2\csrc/u8x8_d_uc1611.c ****       u8x8_cad_SendArg(u8x8, arg_int  );	/* uc1611 has range from 0 to 255 */
 210              		.loc 1 134 0
 211 00d8 8121     		movs	r1, #129
 212 00da 2800     		movs	r0, r5
 213 00dc FFF7FEFF 		bl	u8x8_cad_SendCmd
 214              	.LVL35:
 135:..\u8g2\csrc/u8x8_d_uc1611.c ****       u8x8_cad_EndTransfer(u8x8);
 215              		.loc 1 135 0
 216 00e0 2100     		movs	r1, r4
 217 00e2 2800     		movs	r0, r5
 218 00e4 FFF7FEFF 		bl	u8x8_cad_SendArg
 219              	.LVL36:
 136:..\u8g2\csrc/u8x8_d_uc1611.c ****       break;
 220              		.loc 1 136 0
 221 00e8 2800     		movs	r0, r5
 222 00ea FFF7FEFF 		bl	u8x8_cad_EndTransfer
 223              	.LVL37:
 224              		.loc 1 142 0
 225 00ee 0120     		movs	r0, #1
 137:..\u8g2\csrc/u8x8_d_uc1611.c **** #endif
 226              		.loc 1 137 0
 227 00f0 00E0     		b	.L2
 228              	.LVL38:
 229              	.L11:
 140:..\u8g2\csrc/u8x8_d_uc1611.c ****   }
 230              		.loc 1 140 0
 231 00f2 0020     		movs	r0, #0
 232              	.LVL39:
 233              	.L2:
 143:..\u8g2\csrc/u8x8_d_uc1611.c **** }
 234              		.loc 1 143 0
 235              		@ sp needed
 236              	.LVL40:
 237 00f4 04BC     		pop	{r2}
 238 00f6 9046     		mov	r8, r2
 239 00f8 F0BD     		pop	{r4, r5, r6, r7, pc}
 240              	.L13:
 241 00fa C046     		.align	2
ARM GAS  C:\Users\gjl\AppData\Local\Temp\cch7QXDf.s 			page 8


 242              	.L12:
 243 00fc 00000000 		.word	.LANCHOR0
 244              		.cfi_endproc
 245              	.LFE0:
 246              		.size	u8x8_d_uc1611_common, .-u8x8_d_uc1611_common
 247              		.section	.text.u8x8_d_uc1611_ea_dogm240,"ax",%progbits
 248              		.align	2
 249              		.global	u8x8_d_uc1611_ea_dogm240
 250              		.code	16
 251              		.thumb_func
 252              		.type	u8x8_d_uc1611_ea_dogm240, %function
 253              	u8x8_d_uc1611_ea_dogm240:
 254              	.LFB1:
 144:..\u8g2\csrc/u8x8_d_uc1611.c **** 
 145:..\u8g2\csrc/u8x8_d_uc1611.c **** /*================================================*/
 146:..\u8g2\csrc/u8x8_d_uc1611.c **** /* EA DOGM240 */
 147:..\u8g2\csrc/u8x8_d_uc1611.c **** 
 148:..\u8g2\csrc/u8x8_d_uc1611.c **** 
 149:..\u8g2\csrc/u8x8_d_uc1611.c **** /*
 150:..\u8g2\csrc/u8x8_d_uc1611.c ****   UC1611 has two chip select inputs (CS0 and CS1).
 151:..\u8g2\csrc/u8x8_d_uc1611.c ****   CS0 is low active, CS1 is high active. It will depend on the display
 152:..\u8g2\csrc/u8x8_d_uc1611.c ****   module whether the display has a is low or high active chip select.
 153:..\u8g2\csrc/u8x8_d_uc1611.c **** */
 154:..\u8g2\csrc/u8x8_d_uc1611.c **** 
 155:..\u8g2\csrc/u8x8_d_uc1611.c **** static const u8x8_display_info_t u8x8_uc1611_240x64_display_info =
 156:..\u8g2\csrc/u8x8_d_uc1611.c **** {
 157:..\u8g2\csrc/u8x8_d_uc1611.c ****   /* chip_enable_level = */ 0,
 158:..\u8g2\csrc/u8x8_d_uc1611.c ****   /* chip_disable_level = */ 1,
 159:..\u8g2\csrc/u8x8_d_uc1611.c ****   
 160:..\u8g2\csrc/u8x8_d_uc1611.c ****   /* post_chip_enable_wait_ns = */ 10,	/* uc1611 datasheet, page 60, actually 0 */
 161:..\u8g2\csrc/u8x8_d_uc1611.c ****   /* pre_chip_disable_wait_ns = */ 10,	/* uc1611 datasheet, page 60, actually 0 */
 162:..\u8g2\csrc/u8x8_d_uc1611.c ****   /* reset_pulse_width_ms = */ 1, 
 163:..\u8g2\csrc/u8x8_d_uc1611.c ****   /* post_reset_wait_ms = */ 10, 	/* uc1611 datasheet, page 67 */
 164:..\u8g2\csrc/u8x8_d_uc1611.c ****   /* sda_setup_time_ns = */ 10,		/* uc1611 datasheet, page 64, actually 0 */
 165:..\u8g2\csrc/u8x8_d_uc1611.c ****   /* sck_pulse_width_ns = */ 60,	/* half of cycle time  */
 166:..\u8g2\csrc/u8x8_d_uc1611.c ****   /* sck_clock_hz = */ 8000000UL,	/* since Arduino 1.6.0, the SPI bus speed in Hz. Should be  10000
 167:..\u8g2\csrc/u8x8_d_uc1611.c ****   /* spi_mode = */ 0,		/* active high, rising edge */
 168:..\u8g2\csrc/u8x8_d_uc1611.c ****   /* i2c_bus_clock_100kHz = */ 4,
 169:..\u8g2\csrc/u8x8_d_uc1611.c ****   /* data_setup_time_ns = */ 30,	/* uc1611 datasheet, page 60 */
 170:..\u8g2\csrc/u8x8_d_uc1611.c ****   /* write_pulse_width_ns = */ 80,	/* uc1611 datasheet, page 60 */
 171:..\u8g2\csrc/u8x8_d_uc1611.c ****   /* tile_width = */ 30,		/* width of 30*8=240 pixel */
 172:..\u8g2\csrc/u8x8_d_uc1611.c ****   /* tile_hight = */ 8,
 173:..\u8g2\csrc/u8x8_d_uc1611.c ****   /* default_x_offset = */ 0,
 174:..\u8g2\csrc/u8x8_d_uc1611.c ****   /* flipmode_x_offset = */ 0,
 175:..\u8g2\csrc/u8x8_d_uc1611.c ****   /* pixel_width = */ 240,
 176:..\u8g2\csrc/u8x8_d_uc1611.c ****   /* pixel_height = */ 64
 177:..\u8g2\csrc/u8x8_d_uc1611.c **** };
 178:..\u8g2\csrc/u8x8_d_uc1611.c **** 
 179:..\u8g2\csrc/u8x8_d_uc1611.c **** static const uint8_t u8x8_d_uc1611_ea_dogm240_init_seq[] = {
 180:..\u8g2\csrc/u8x8_d_uc1611.c ****     
 181:..\u8g2\csrc/u8x8_d_uc1611.c ****   U8X8_START_TRANSFER(),             	/* enable chip, delay is part of the transfer start */
 182:..\u8g2\csrc/u8x8_d_uc1611.c ****   U8X8_C(0x02f),            			/* internal pump control */
 183:..\u8g2\csrc/u8x8_d_uc1611.c ****   U8X8_CA(0x0f1, 63),			/* set COM end */
 184:..\u8g2\csrc/u8x8_d_uc1611.c ****   U8X8_CA(0x0f2, 0x000),		/* display line start */
 185:..\u8g2\csrc/u8x8_d_uc1611.c ****   U8X8_CA(0x0f3, 63),			/* display line end */
 186:..\u8g2\csrc/u8x8_d_uc1611.c ****   U8X8_C(0x0a3),            			/* line rate */
 187:..\u8g2\csrc/u8x8_d_uc1611.c ****   U8X8_CA(0x081, 0x0a4),		/* set contrast, EA default: 0x0b7 */
ARM GAS  C:\Users\gjl\AppData\Local\Temp\cch7QXDf.s 			page 9


 188:..\u8g2\csrc/u8x8_d_uc1611.c ****   
 189:..\u8g2\csrc/u8x8_d_uc1611.c ****   //U8X8_C(0x0a9),            			/* display enable */
 190:..\u8g2\csrc/u8x8_d_uc1611.c **** 
 191:..\u8g2\csrc/u8x8_d_uc1611.c ****   U8X8_C(0x0d1),            			/* display pattern */  
 192:..\u8g2\csrc/u8x8_d_uc1611.c ****   U8X8_C(0x089),            			/* auto increment */
 193:..\u8g2\csrc/u8x8_d_uc1611.c ****   U8X8_CA(0x0c0, 0x004),            	/* LCD Mapping */
 194:..\u8g2\csrc/u8x8_d_uc1611.c ****   U8X8_C(0x000),		                /* column low nibble */
 195:..\u8g2\csrc/u8x8_d_uc1611.c ****   U8X8_C(0x010),		                /* column high nibble */  
 196:..\u8g2\csrc/u8x8_d_uc1611.c ****   U8X8_C(0x060),		                /* page adr low */
 197:..\u8g2\csrc/u8x8_d_uc1611.c ****   U8X8_C(0x070),		                /* page adr high */
 198:..\u8g2\csrc/u8x8_d_uc1611.c ****   
 199:..\u8g2\csrc/u8x8_d_uc1611.c ****   
 200:..\u8g2\csrc/u8x8_d_uc1611.c ****   U8X8_END_TRANSFER(),             	/* disable chip */
 201:..\u8g2\csrc/u8x8_d_uc1611.c ****   U8X8_END()             			/* end of sequence */
 202:..\u8g2\csrc/u8x8_d_uc1611.c **** };
 203:..\u8g2\csrc/u8x8_d_uc1611.c **** 
 204:..\u8g2\csrc/u8x8_d_uc1611.c **** uint8_t u8x8_d_uc1611_ea_dogm240(u8x8_t *u8x8, uint8_t msg, uint8_t arg_int, void *arg_ptr)
 205:..\u8g2\csrc/u8x8_d_uc1611.c **** {
 255              		.loc 1 205 0
 256              		.cfi_startproc
 257              		@ args = 0, pretend = 0, frame = 0
 258              		@ frame_needed = 0, uses_anonymous_args = 0
 259              	.LVL41:
 260 0000 70B5     		push	{r4, r5, r6, lr}
 261              		.cfi_def_cfa_offset 16
 262              		.cfi_offset 4, -16
 263              		.cfi_offset 5, -12
 264              		.cfi_offset 6, -8
 265              		.cfi_offset 14, -4
 266 0002 0500     		movs	r5, r0
 267 0004 0C00     		movs	r4, r1
 206:..\u8g2\csrc/u8x8_d_uc1611.c ****   /* call common procedure first and handle messages there */
 207:..\u8g2\csrc/u8x8_d_uc1611.c ****   if ( u8x8_d_uc1611_common(u8x8, msg, arg_int, arg_ptr) == 0 )
 268              		.loc 1 207 0
 269 0006 FFF7FEFF 		bl	u8x8_d_uc1611_common
 270              	.LVL42:
 271 000a 0028     		cmp	r0, #0
 272 000c 15D1     		bne	.L18
 208:..\u8g2\csrc/u8x8_d_uc1611.c ****   {
 209:..\u8g2\csrc/u8x8_d_uc1611.c ****     /* msg not handled, then try here */
 210:..\u8g2\csrc/u8x8_d_uc1611.c ****     switch(msg)
 273              		.loc 1 210 0
 274 000e 092C     		cmp	r4, #9
 275 0010 02D0     		beq	.L16
 276 0012 0A2C     		cmp	r4, #10
 277 0014 07D0     		beq	.L17
 278 0016 11E0     		b	.L15
 279              	.L16:
 211:..\u8g2\csrc/u8x8_d_uc1611.c ****     {
 212:..\u8g2\csrc/u8x8_d_uc1611.c ****       case U8X8_MSG_DISPLAY_SETUP_MEMORY:
 213:..\u8g2\csrc/u8x8_d_uc1611.c **** 	u8x8_d_helper_display_setup_memory(u8x8, &u8x8_uc1611_240x64_display_info);
 280              		.loc 1 213 0
 281 0018 0949     		ldr	r1, .L19
 282 001a 2031     		adds	r1, r1, #32
 283 001c 2800     		movs	r0, r5
 284 001e FFF7FEFF 		bl	u8x8_d_helper_display_setup_memory
 285              	.LVL43:
ARM GAS  C:\Users\gjl\AppData\Local\Temp\cch7QXDf.s 			page 10


 214:..\u8g2\csrc/u8x8_d_uc1611.c **** 	break;
 215:..\u8g2\csrc/u8x8_d_uc1611.c ****       case U8X8_MSG_DISPLAY_INIT:
 216:..\u8g2\csrc/u8x8_d_uc1611.c **** 	u8x8_d_helper_display_init(u8x8);
 217:..\u8g2\csrc/u8x8_d_uc1611.c **** 	u8x8_cad_SendSequence(u8x8, u8x8_d_uc1611_ea_dogm240_init_seq);
 218:..\u8g2\csrc/u8x8_d_uc1611.c **** 	break;
 219:..\u8g2\csrc/u8x8_d_uc1611.c ****       default:
 220:..\u8g2\csrc/u8x8_d_uc1611.c **** 	return 0;		/* msg unknown */
 221:..\u8g2\csrc/u8x8_d_uc1611.c ****     }
 222:..\u8g2\csrc/u8x8_d_uc1611.c ****   }
 223:..\u8g2\csrc/u8x8_d_uc1611.c ****   return 1;
 286              		.loc 1 223 0
 287 0022 0120     		movs	r0, #1
 214:..\u8g2\csrc/u8x8_d_uc1611.c **** 	break;
 288              		.loc 1 214 0
 289 0024 0AE0     		b	.L15
 290              	.L17:
 216:..\u8g2\csrc/u8x8_d_uc1611.c **** 	u8x8_cad_SendSequence(u8x8, u8x8_d_uc1611_ea_dogm240_init_seq);
 291              		.loc 1 216 0
 292 0026 2800     		movs	r0, r5
 293 0028 FFF7FEFF 		bl	u8x8_d_helper_display_init
 294              	.LVL44:
 217:..\u8g2\csrc/u8x8_d_uc1611.c **** 	break;
 295              		.loc 1 217 0
 296 002c 0449     		ldr	r1, .L19
 297 002e 3831     		adds	r1, r1, #56
 298 0030 2800     		movs	r0, r5
 299 0032 FFF7FEFF 		bl	u8x8_cad_SendSequence
 300              	.LVL45:
 301              		.loc 1 223 0
 302 0036 0120     		movs	r0, #1
 218:..\u8g2\csrc/u8x8_d_uc1611.c ****       default:
 303              		.loc 1 218 0
 304 0038 00E0     		b	.L15
 305              	.L18:
 306              		.loc 1 223 0
 307 003a 0120     		movs	r0, #1
 308              	.L15:
 224:..\u8g2\csrc/u8x8_d_uc1611.c **** }
 309              		.loc 1 224 0
 310              		@ sp needed
 311              	.LVL46:
 312 003c 70BD     		pop	{r4, r5, r6, pc}
 313              	.L20:
 314 003e C046     		.align	2
 315              	.L19:
 316 0040 00000000 		.word	.LANCHOR0
 317              		.cfi_endproc
 318              	.LFE1:
 319              		.size	u8x8_d_uc1611_ea_dogm240, .-u8x8_d_uc1611_ea_dogm240
 320              		.section	.text.u8x8_d_uc1611_ea_dogxl240,"ax",%progbits
 321              		.align	2
 322              		.global	u8x8_d_uc1611_ea_dogxl240
 323              		.code	16
 324              		.thumb_func
 325              		.type	u8x8_d_uc1611_ea_dogxl240, %function
 326              	u8x8_d_uc1611_ea_dogxl240:
 327              	.LFB2:
ARM GAS  C:\Users\gjl\AppData\Local\Temp\cch7QXDf.s 			page 11


 225:..\u8g2\csrc/u8x8_d_uc1611.c **** 
 226:..\u8g2\csrc/u8x8_d_uc1611.c **** /*================================================*/
 227:..\u8g2\csrc/u8x8_d_uc1611.c **** /* EA DOGXL240 */
 228:..\u8g2\csrc/u8x8_d_uc1611.c **** 
 229:..\u8g2\csrc/u8x8_d_uc1611.c **** static const uint8_t u8x8_d_uc1611_ea_dogxl240_init_seq[] = {
 230:..\u8g2\csrc/u8x8_d_uc1611.c ****     
 231:..\u8g2\csrc/u8x8_d_uc1611.c ****   U8X8_START_TRANSFER(),             	/* enable chip, delay is part of the transfer start */
 232:..\u8g2\csrc/u8x8_d_uc1611.c ****   U8X8_C(0x02f),            			/* internal pump control */
 233:..\u8g2\csrc/u8x8_d_uc1611.c ****   U8X8_CA(0x0f1, 0x07f),			/* set COM end */
 234:..\u8g2\csrc/u8x8_d_uc1611.c ****   U8X8_CA(0x0f2, 0x000),		/* display line start */
 235:..\u8g2\csrc/u8x8_d_uc1611.c ****   U8X8_CA(0x0f3, 127),		/* display line end */
 236:..\u8g2\csrc/u8x8_d_uc1611.c ****   U8X8_C(0x0a3),            			/* line rate */
 237:..\u8g2\csrc/u8x8_d_uc1611.c ****   U8X8_CA(0x081, 0x08f),		/* set contrast */
 238:..\u8g2\csrc/u8x8_d_uc1611.c ****   
 239:..\u8g2\csrc/u8x8_d_uc1611.c ****   //U8X8_C(0x0a9),            			/* display enable */
 240:..\u8g2\csrc/u8x8_d_uc1611.c **** 
 241:..\u8g2\csrc/u8x8_d_uc1611.c ****   U8X8_C(0x0d1),            			/* display pattern */  
 242:..\u8g2\csrc/u8x8_d_uc1611.c ****   U8X8_C(0x089),            			/* auto increment */
 243:..\u8g2\csrc/u8x8_d_uc1611.c ****   U8X8_CA(0x0c0, 0x004),            	/* LCD Mapping */
 244:..\u8g2\csrc/u8x8_d_uc1611.c ****   U8X8_C(0x000),		                /* column low nibble */
 245:..\u8g2\csrc/u8x8_d_uc1611.c ****   U8X8_C(0x010),		                /* column high nibble */  
 246:..\u8g2\csrc/u8x8_d_uc1611.c ****   U8X8_C(0x060),		                /* page adr low */
 247:..\u8g2\csrc/u8x8_d_uc1611.c ****   U8X8_C(0x070),		                /* page adr high */
 248:..\u8g2\csrc/u8x8_d_uc1611.c ****   
 249:..\u8g2\csrc/u8x8_d_uc1611.c ****   
 250:..\u8g2\csrc/u8x8_d_uc1611.c ****   U8X8_END_TRANSFER(),             	/* disable chip */
 251:..\u8g2\csrc/u8x8_d_uc1611.c ****   U8X8_END()             			/* end of sequence */
 252:..\u8g2\csrc/u8x8_d_uc1611.c **** };
 253:..\u8g2\csrc/u8x8_d_uc1611.c **** 
 254:..\u8g2\csrc/u8x8_d_uc1611.c **** static const u8x8_display_info_t u8x8_uc1611_240x128_display_info =
 255:..\u8g2\csrc/u8x8_d_uc1611.c **** {
 256:..\u8g2\csrc/u8x8_d_uc1611.c ****   /* chip_enable_level = */ 0,
 257:..\u8g2\csrc/u8x8_d_uc1611.c ****   /* chip_disable_level = */ 1,
 258:..\u8g2\csrc/u8x8_d_uc1611.c ****   
 259:..\u8g2\csrc/u8x8_d_uc1611.c ****   /* post_chip_enable_wait_ns = */ 10,	/* uc1611 datasheet, page 60, actually 0 */
 260:..\u8g2\csrc/u8x8_d_uc1611.c ****   /* pre_chip_disable_wait_ns = */ 10,	/* uc1611 datasheet, page 60, actually 0 */
 261:..\u8g2\csrc/u8x8_d_uc1611.c ****   /* reset_pulse_width_ms = */ 1, 
 262:..\u8g2\csrc/u8x8_d_uc1611.c ****   /* post_reset_wait_ms = */ 10, 	/* uc1611 datasheet, page 67 */
 263:..\u8g2\csrc/u8x8_d_uc1611.c ****   /* sda_setup_time_ns = */ 10,		/* uc1611 datasheet, page 64, actually 0 */
 264:..\u8g2\csrc/u8x8_d_uc1611.c ****   /* sck_pulse_width_ns = */ 60,	/* half of cycle time  */
 265:..\u8g2\csrc/u8x8_d_uc1611.c ****   /* sck_clock_hz = */ 8000000UL,	/* since Arduino 1.6.0, the SPI bus speed in Hz. Should be  10000
 266:..\u8g2\csrc/u8x8_d_uc1611.c ****   /* spi_mode = */ 0,		/* active high, rising edge */
 267:..\u8g2\csrc/u8x8_d_uc1611.c ****   /* i2c_bus_clock_100kHz = */ 4,
 268:..\u8g2\csrc/u8x8_d_uc1611.c ****   /* data_setup_time_ns = */ 30,	/* uc1611 datasheet, page 60 */
 269:..\u8g2\csrc/u8x8_d_uc1611.c ****   /* write_pulse_width_ns = */ 80,	/* uc1611 datasheet, page 60 */
 270:..\u8g2\csrc/u8x8_d_uc1611.c ****   /* tile_width = */ 30,		/* width of 30*8=240 pixel */
 271:..\u8g2\csrc/u8x8_d_uc1611.c ****   /* tile_hight = */ 16,
 272:..\u8g2\csrc/u8x8_d_uc1611.c ****   /* default_x_offset = */ 0,
 273:..\u8g2\csrc/u8x8_d_uc1611.c ****   /* flipmode_x_offset = */ 0,
 274:..\u8g2\csrc/u8x8_d_uc1611.c ****   /* pixel_width = */ 240,
 275:..\u8g2\csrc/u8x8_d_uc1611.c ****   /* pixel_height = */ 128
 276:..\u8g2\csrc/u8x8_d_uc1611.c **** };
 277:..\u8g2\csrc/u8x8_d_uc1611.c **** 
 278:..\u8g2\csrc/u8x8_d_uc1611.c **** uint8_t u8x8_d_uc1611_ea_dogxl240(u8x8_t *u8x8, uint8_t msg, uint8_t arg_int, void *arg_ptr)
 279:..\u8g2\csrc/u8x8_d_uc1611.c **** {
 328              		.loc 1 279 0
 329              		.cfi_startproc
ARM GAS  C:\Users\gjl\AppData\Local\Temp\cch7QXDf.s 			page 12


 330              		@ args = 0, pretend = 0, frame = 0
 331              		@ frame_needed = 0, uses_anonymous_args = 0
 332              	.LVL47:
 333 0000 70B5     		push	{r4, r5, r6, lr}
 334              		.cfi_def_cfa_offset 16
 335              		.cfi_offset 4, -16
 336              		.cfi_offset 5, -12
 337              		.cfi_offset 6, -8
 338              		.cfi_offset 14, -4
 339 0002 0500     		movs	r5, r0
 340 0004 0C00     		movs	r4, r1
 280:..\u8g2\csrc/u8x8_d_uc1611.c ****   /* call common procedure first and handle messages there */
 281:..\u8g2\csrc/u8x8_d_uc1611.c ****   if ( u8x8_d_uc1611_common(u8x8, msg, arg_int, arg_ptr) == 0 )
 341              		.loc 1 281 0
 342 0006 FFF7FEFF 		bl	u8x8_d_uc1611_common
 343              	.LVL48:
 344 000a 0028     		cmp	r0, #0
 345 000c 15D1     		bne	.L25
 282:..\u8g2\csrc/u8x8_d_uc1611.c ****   {
 283:..\u8g2\csrc/u8x8_d_uc1611.c ****     /* msg not handled, then try here */
 284:..\u8g2\csrc/u8x8_d_uc1611.c ****     switch(msg)
 346              		.loc 1 284 0
 347 000e 092C     		cmp	r4, #9
 348 0010 02D0     		beq	.L23
 349 0012 0A2C     		cmp	r4, #10
 350 0014 07D0     		beq	.L24
 351 0016 11E0     		b	.L22
 352              	.L23:
 285:..\u8g2\csrc/u8x8_d_uc1611.c ****     {
 286:..\u8g2\csrc/u8x8_d_uc1611.c ****       case U8X8_MSG_DISPLAY_SETUP_MEMORY:
 287:..\u8g2\csrc/u8x8_d_uc1611.c **** 	u8x8_d_helper_display_setup_memory(u8x8, &u8x8_uc1611_240x128_display_info);
 353              		.loc 1 287 0
 354 0018 0949     		ldr	r1, .L26
 355 001a 6031     		adds	r1, r1, #96
 356 001c 2800     		movs	r0, r5
 357 001e FFF7FEFF 		bl	u8x8_d_helper_display_setup_memory
 358              	.LVL49:
 288:..\u8g2\csrc/u8x8_d_uc1611.c **** 	break;
 289:..\u8g2\csrc/u8x8_d_uc1611.c ****       case U8X8_MSG_DISPLAY_INIT:
 290:..\u8g2\csrc/u8x8_d_uc1611.c **** 	u8x8_d_helper_display_init(u8x8);
 291:..\u8g2\csrc/u8x8_d_uc1611.c **** 	u8x8_cad_SendSequence(u8x8, u8x8_d_uc1611_ea_dogxl240_init_seq);
 292:..\u8g2\csrc/u8x8_d_uc1611.c **** 	break;
 293:..\u8g2\csrc/u8x8_d_uc1611.c ****       default:
 294:..\u8g2\csrc/u8x8_d_uc1611.c **** 	return 0;		/* msg unknown */
 295:..\u8g2\csrc/u8x8_d_uc1611.c ****     }
 296:..\u8g2\csrc/u8x8_d_uc1611.c ****   }
 297:..\u8g2\csrc/u8x8_d_uc1611.c ****   return 1;
 359              		.loc 1 297 0
 360 0022 0120     		movs	r0, #1
 288:..\u8g2\csrc/u8x8_d_uc1611.c **** 	break;
 361              		.loc 1 288 0
 362 0024 0AE0     		b	.L22
 363              	.L24:
 290:..\u8g2\csrc/u8x8_d_uc1611.c **** 	u8x8_cad_SendSequence(u8x8, u8x8_d_uc1611_ea_dogxl240_init_seq);
 364              		.loc 1 290 0
 365 0026 2800     		movs	r0, r5
 366 0028 FFF7FEFF 		bl	u8x8_d_helper_display_init
ARM GAS  C:\Users\gjl\AppData\Local\Temp\cch7QXDf.s 			page 13


 367              	.LVL50:
 291:..\u8g2\csrc/u8x8_d_uc1611.c **** 	break;
 368              		.loc 1 291 0
 369 002c 0449     		ldr	r1, .L26
 370 002e 7831     		adds	r1, r1, #120
 371 0030 2800     		movs	r0, r5
 372 0032 FFF7FEFF 		bl	u8x8_cad_SendSequence
 373              	.LVL51:
 374              		.loc 1 297 0
 375 0036 0120     		movs	r0, #1
 292:..\u8g2\csrc/u8x8_d_uc1611.c ****       default:
 376              		.loc 1 292 0
 377 0038 00E0     		b	.L22
 378              	.L25:
 379              		.loc 1 297 0
 380 003a 0120     		movs	r0, #1
 381              	.L22:
 298:..\u8g2\csrc/u8x8_d_uc1611.c **** }
 382              		.loc 1 298 0
 383              		@ sp needed
 384              	.LVL52:
 385 003c 70BD     		pop	{r4, r5, r6, pc}
 386              	.L27:
 387 003e C046     		.align	2
 388              	.L26:
 389 0040 00000000 		.word	.LANCHOR0
 390              		.cfi_endproc
 391              	.LFE2:
 392              		.size	u8x8_d_uc1611_ea_dogxl240, .-u8x8_d_uc1611_ea_dogxl240
 393              		.section	.rodata
 394              		.align	2
 395              		.set	.LANCHOR0,. + 0
 396              		.type	u8x8_d_uc1611_powersave0_seq, %object
 397              		.size	u8x8_d_uc1611_powersave0_seq, 5
 398              	u8x8_d_uc1611_powersave0_seq:
 399 0000 18       		.byte	24
 400 0001 15       		.byte	21
 401 0002 A9       		.byte	-87
 402 0003 19       		.byte	25
 403 0004 FF       		.byte	-1
 404 0005 000000   		.space	3
 405              		.type	u8x8_d_uc1611_powersave1_seq, %object
 406              		.size	u8x8_d_uc1611_powersave1_seq, 5
 407              	u8x8_d_uc1611_powersave1_seq:
 408 0008 18       		.byte	24
 409 0009 15       		.byte	21
 410 000a A8       		.byte	-88
 411 000b 19       		.byte	25
 412 000c FF       		.byte	-1
 413 000d 000000   		.space	3
 414              		.type	u8x8_d_uc1611_flip0_seq, %object
 415              		.size	u8x8_d_uc1611_flip0_seq, 7
 416              	u8x8_d_uc1611_flip0_seq:
 417 0010 18       		.byte	24
 418 0011 15       		.byte	21
 419 0012 C0       		.byte	-64
 420 0013 16       		.byte	22
ARM GAS  C:\Users\gjl\AppData\Local\Temp\cch7QXDf.s 			page 14


 421 0014 04       		.byte	4
 422 0015 19       		.byte	25
 423 0016 FF       		.byte	-1
 424 0017 00       		.space	1
 425              		.type	u8x8_d_uc1611_flip1_seq, %object
 426              		.size	u8x8_d_uc1611_flip1_seq, 7
 427              	u8x8_d_uc1611_flip1_seq:
 428 0018 18       		.byte	24
 429 0019 15       		.byte	21
 430 001a C0       		.byte	-64
 431 001b 16       		.byte	22
 432 001c 02       		.byte	2
 433 001d 19       		.byte	25
 434 001e FF       		.byte	-1
 435 001f 00       		.space	1
 436              		.type	u8x8_uc1611_240x64_display_info, %object
 437              		.size	u8x8_uc1611_240x64_display_info, 24
 438              	u8x8_uc1611_240x64_display_info:
 439 0020 00       		.byte	0
 440 0021 01       		.byte	1
 441 0022 0A       		.byte	10
 442 0023 0A       		.byte	10
 443 0024 01       		.byte	1
 444 0025 0A       		.byte	10
 445 0026 0A       		.byte	10
 446 0027 3C       		.byte	60
 447 0028 00127A00 		.word	8000000
 448 002c 00       		.byte	0
 449 002d 04       		.byte	4
 450 002e 1E       		.byte	30
 451 002f 50       		.byte	80
 452 0030 1E       		.byte	30
 453 0031 08       		.byte	8
 454 0032 00       		.byte	0
 455 0033 00       		.byte	0
 456 0034 F000     		.short	240
 457 0036 4000     		.short	64
 458              		.type	u8x8_d_uc1611_ea_dogm240_init_seq, %object
 459              		.size	u8x8_d_uc1611_ea_dogm240_init_seq, 39
 460              	u8x8_d_uc1611_ea_dogm240_init_seq:
 461 0038 18       		.byte	24
 462 0039 15       		.byte	21
 463 003a 2F       		.byte	47
 464 003b 15       		.byte	21
 465 003c F1       		.byte	-15
 466 003d 16       		.byte	22
 467 003e 3F       		.byte	63
 468 003f 15       		.byte	21
 469 0040 F2       		.byte	-14
 470 0041 16       		.byte	22
 471 0042 00       		.byte	0
 472 0043 15       		.byte	21
 473 0044 F3       		.byte	-13
 474 0045 16       		.byte	22
 475 0046 3F       		.byte	63
 476 0047 15       		.byte	21
 477 0048 A3       		.byte	-93
ARM GAS  C:\Users\gjl\AppData\Local\Temp\cch7QXDf.s 			page 15


 478 0049 15       		.byte	21
 479 004a 81       		.byte	-127
 480 004b 16       		.byte	22
 481 004c A4       		.byte	-92
 482 004d 15       		.byte	21
 483 004e D1       		.byte	-47
 484 004f 15       		.byte	21
 485 0050 89       		.byte	-119
 486 0051 15       		.byte	21
 487 0052 C0       		.byte	-64
 488 0053 16       		.byte	22
 489 0054 04       		.byte	4
 490 0055 15       		.byte	21
 491 0056 00       		.byte	0
 492 0057 15       		.byte	21
 493 0058 10       		.byte	16
 494 0059 15       		.byte	21
 495 005a 60       		.byte	96
 496 005b 15       		.byte	21
 497 005c 70       		.byte	112
 498 005d 19       		.byte	25
 499 005e FF       		.byte	-1
 500 005f 00       		.space	1
 501              		.type	u8x8_uc1611_240x128_display_info, %object
 502              		.size	u8x8_uc1611_240x128_display_info, 24
 503              	u8x8_uc1611_240x128_display_info:
 504 0060 00       		.byte	0
 505 0061 01       		.byte	1
 506 0062 0A       		.byte	10
 507 0063 0A       		.byte	10
 508 0064 01       		.byte	1
 509 0065 0A       		.byte	10
 510 0066 0A       		.byte	10
 511 0067 3C       		.byte	60
 512 0068 00127A00 		.word	8000000
 513 006c 00       		.byte	0
 514 006d 04       		.byte	4
 515 006e 1E       		.byte	30
 516 006f 50       		.byte	80
 517 0070 1E       		.byte	30
 518 0071 10       		.byte	16
 519 0072 00       		.byte	0
 520 0073 00       		.byte	0
 521 0074 F000     		.short	240
 522 0076 8000     		.short	128
 523              		.type	u8x8_d_uc1611_ea_dogxl240_init_seq, %object
 524              		.size	u8x8_d_uc1611_ea_dogxl240_init_seq, 39
 525              	u8x8_d_uc1611_ea_dogxl240_init_seq:
 526 0078 18       		.byte	24
 527 0079 15       		.byte	21
 528 007a 2F       		.byte	47
 529 007b 15       		.byte	21
 530 007c F1       		.byte	-15
 531 007d 16       		.byte	22
 532 007e 7F       		.byte	127
 533 007f 15       		.byte	21
 534 0080 F2       		.byte	-14
ARM GAS  C:\Users\gjl\AppData\Local\Temp\cch7QXDf.s 			page 16


 535 0081 16       		.byte	22
 536 0082 00       		.byte	0
 537 0083 15       		.byte	21
 538 0084 F3       		.byte	-13
 539 0085 16       		.byte	22
 540 0086 7F       		.byte	127
 541 0087 15       		.byte	21
 542 0088 A3       		.byte	-93
 543 0089 15       		.byte	21
 544 008a 81       		.byte	-127
 545 008b 16       		.byte	22
 546 008c 8F       		.byte	-113
 547 008d 15       		.byte	21
 548 008e D1       		.byte	-47
 549 008f 15       		.byte	21
 550 0090 89       		.byte	-119
 551 0091 15       		.byte	21
 552 0092 C0       		.byte	-64
 553 0093 16       		.byte	22
 554 0094 04       		.byte	4
 555 0095 15       		.byte	21
 556 0096 00       		.byte	0
 557 0097 15       		.byte	21
 558 0098 10       		.byte	16
 559 0099 15       		.byte	21
 560 009a 60       		.byte	96
 561 009b 15       		.byte	21
 562 009c 70       		.byte	112
 563 009d 19       		.byte	25
 564 009e FF       		.byte	-1
 565              		.text
 566              	.Letext0:
 567              		.file 2 "c:\\program files (x86)\\cypress\\psoc creator\\4.1\\psoc creator\\import\\gnu\\arm\\5.4.
 568              		.file 3 "c:\\program files (x86)\\cypress\\psoc creator\\4.1\\psoc creator\\import\\gnu\\arm\\5.4.
 569              		.file 4 "..\\u8g2\\csrc\\u8x8.h"