ARM GAS  C:\Users\arh\AppData\Local\Temp\cc2K1eE5.s 			page 1


   1              		.syntax unified
   2              		.cpu cortex-m0
   3              		.fpu softvfp
   4              		.eabi_attribute 20, 1
   5              		.eabi_attribute 21, 1
   6              		.eabi_attribute 23, 3
   7              		.eabi_attribute 24, 1
   8              		.eabi_attribute 25, 1
   9              		.eabi_attribute 26, 1
  10              		.eabi_attribute 30, 1
  11              		.eabi_attribute 34, 0
  12              		.eabi_attribute 18, 4
  13              		.thumb
  14              		.syntax unified
  15              		.file	"u8x8_debounce.c"
  16              		.text
  17              	.Ltext0:
  18              		.cfi_sections	.debug_frame
  19              		.section	.text.u8x8_find_first_diff,"ax",%progbits
  20              		.align	2
  21              		.code	16
  22              		.thumb_func
  23              		.type	u8x8_find_first_diff, %function
  24              	u8x8_find_first_diff:
  25              	.LFB1:
  26              		.file 1 "..\\..\\u8g2\\csrc\\u8x8_debounce.c"
   1:..\..\u8g2\csrc/u8x8_debounce.c **** /*
   2:..\..\u8g2\csrc/u8x8_debounce.c **** 
   3:..\..\u8g2\csrc/u8x8_debounce.c ****   u8x8_debounce.c
   4:..\..\u8g2\csrc/u8x8_debounce.c ****   
   5:..\..\u8g2\csrc/u8x8_debounce.c ****   Key/button simple debounce algorithm (Addon for u8x8)
   6:..\..\u8g2\csrc/u8x8_debounce.c ****   
   7:..\..\u8g2\csrc/u8x8_debounce.c ****   Universal 8bit Graphics Library (https://github.com/olikraus/u8g2/)
   8:..\..\u8g2\csrc/u8x8_debounce.c **** 
   9:..\..\u8g2\csrc/u8x8_debounce.c ****   Copyright (c) 2016, olikraus@gmail.com
  10:..\..\u8g2\csrc/u8x8_debounce.c ****   All rights reserved.
  11:..\..\u8g2\csrc/u8x8_debounce.c **** 
  12:..\..\u8g2\csrc/u8x8_debounce.c ****   Redistribution and use in source and binary forms, with or without modification, 
  13:..\..\u8g2\csrc/u8x8_debounce.c ****   are permitted provided that the following conditions are met:
  14:..\..\u8g2\csrc/u8x8_debounce.c **** 
  15:..\..\u8g2\csrc/u8x8_debounce.c ****   * Redistributions of source code must retain the above copyright notice, this list 
  16:..\..\u8g2\csrc/u8x8_debounce.c ****     of conditions and the following disclaimer.
  17:..\..\u8g2\csrc/u8x8_debounce.c ****     
  18:..\..\u8g2\csrc/u8x8_debounce.c ****   * Redistributions in binary form must reproduce the above copyright notice, this 
  19:..\..\u8g2\csrc/u8x8_debounce.c ****     list of conditions and the following disclaimer in the documentation and/or other 
  20:..\..\u8g2\csrc/u8x8_debounce.c ****     materials provided with the distribution.
  21:..\..\u8g2\csrc/u8x8_debounce.c **** 
  22:..\..\u8g2\csrc/u8x8_debounce.c ****   THIS SOFTWARE IS PROVIDED BY THE COPYRIGHT HOLDERS AND 
  23:..\..\u8g2\csrc/u8x8_debounce.c ****   CONTRIBUTORS "AS IS" AND ANY EXPRESS OR IMPLIED WARRANTIES, 
  24:..\..\u8g2\csrc/u8x8_debounce.c ****   INCLUDING, BUT NOT LIMITED TO, THE IMPLIED WARRANTIES OF 
  25:..\..\u8g2\csrc/u8x8_debounce.c ****   MERCHANTABILITY AND FITNESS FOR A PARTICULAR PURPOSE ARE 
  26:..\..\u8g2\csrc/u8x8_debounce.c ****   DISCLAIMED. IN NO EVENT SHALL THE COPYRIGHT HOLDER OR 
  27:..\..\u8g2\csrc/u8x8_debounce.c ****   CONTRIBUTORS BE LIABLE FOR ANY DIRECT, INDIRECT, INCIDENTAL, 
  28:..\..\u8g2\csrc/u8x8_debounce.c ****   SPECIAL, EXEMPLARY, OR CONSEQUENTIAL DAMAGES (INCLUDING, BUT 
  29:..\..\u8g2\csrc/u8x8_debounce.c ****   NOT LIMITED TO, PROCUREMENT OF SUBSTITUTE GOODS OR SERVICES; 
  30:..\..\u8g2\csrc/u8x8_debounce.c ****   LOSS OF USE, DATA, OR PROFITS; OR BUSINESS INTERRUPTION) HOWEVER 
  31:..\..\u8g2\csrc/u8x8_debounce.c ****   CAUSED AND ON ANY THEORY OF LIABILITY, WHETHER IN CONTRACT, 
ARM GAS  C:\Users\arh\AppData\Local\Temp\cc2K1eE5.s 			page 2


  32:..\..\u8g2\csrc/u8x8_debounce.c ****   STRICT LIABILITY, OR TORT (INCLUDING NEGLIGENCE OR OTHERWISE) 
  33:..\..\u8g2\csrc/u8x8_debounce.c ****   ARISING IN ANY WAY OUT OF THE USE OF THIS SOFTWARE, EVEN IF 
  34:..\..\u8g2\csrc/u8x8_debounce.c ****   ADVISED OF THE POSSIBILITY OF SUCH DAMAGE.  
  35:..\..\u8g2\csrc/u8x8_debounce.c ****   
  36:..\..\u8g2\csrc/u8x8_debounce.c **** */
  37:..\..\u8g2\csrc/u8x8_debounce.c **** 
  38:..\..\u8g2\csrc/u8x8_debounce.c **** #include "u8x8.h"
  39:..\..\u8g2\csrc/u8x8_debounce.c **** 
  40:..\..\u8g2\csrc/u8x8_debounce.c **** static uint8_t u8x8_read_pin_state(u8x8_t *u8x8)
  41:..\..\u8g2\csrc/u8x8_debounce.c **** {
  42:..\..\u8g2\csrc/u8x8_debounce.c ****   uint8_t i;
  43:..\..\u8g2\csrc/u8x8_debounce.c ****   uint8_t pin_state;
  44:..\..\u8g2\csrc/u8x8_debounce.c ****   
  45:..\..\u8g2\csrc/u8x8_debounce.c ****   pin_state = 255;	/* be compatible with the setup of the default pin setup, which is 255 */
  46:..\..\u8g2\csrc/u8x8_debounce.c ****   for( i = 0; i < U8X8_PIN_INPUT_CNT; i++ )
  47:..\..\u8g2\csrc/u8x8_debounce.c ****   {
  48:..\..\u8g2\csrc/u8x8_debounce.c ****     pin_state <<= 1;
  49:..\..\u8g2\csrc/u8x8_debounce.c ****     
  50:..\..\u8g2\csrc/u8x8_debounce.c ****     /* the callback function should put the return value into this variable */
  51:..\..\u8g2\csrc/u8x8_debounce.c ****     u8x8->gpio_result = 1;
  52:..\..\u8g2\csrc/u8x8_debounce.c ****     u8x8_gpio_call(u8x8, U8X8_MSG_GPIO(i+U8X8_PIN_OUTPUT_CNT), 0);
  53:..\..\u8g2\csrc/u8x8_debounce.c ****     pin_state |= u8x8->gpio_result & 1;
  54:..\..\u8g2\csrc/u8x8_debounce.c ****   }
  55:..\..\u8g2\csrc/u8x8_debounce.c ****   
  56:..\..\u8g2\csrc/u8x8_debounce.c ****   return pin_state;
  57:..\..\u8g2\csrc/u8x8_debounce.c **** }
  58:..\..\u8g2\csrc/u8x8_debounce.c **** 
  59:..\..\u8g2\csrc/u8x8_debounce.c **** /*
  60:..\..\u8g2\csrc/u8x8_debounce.c ****   return 0 to U8X8_PIN_INPUT_CNT-1 if there is a difference
  61:..\..\u8g2\csrc/u8x8_debounce.c ****   return U8X8_PIN_INPUT_CNT if there is no difference
  62:..\..\u8g2\csrc/u8x8_debounce.c **** */
  63:..\..\u8g2\csrc/u8x8_debounce.c **** static uint8_t u8x8_find_first_diff(uint8_t a, uint8_t b)
  64:..\..\u8g2\csrc/u8x8_debounce.c **** {
  27              		.loc 1 64 0
  28              		.cfi_startproc
  29              		@ args = 0, pretend = 0, frame = 0
  30              		@ frame_needed = 0, uses_anonymous_args = 0
  31              	.LVL0:
  32 0000 10B5     		push	{r4, lr}
  33              		.cfi_def_cfa_offset 8
  34              		.cfi_offset 4, -8
  35              		.cfi_offset 14, -4
  36              	.LVL1:
  65:..\..\u8g2\csrc/u8x8_debounce.c ****   uint8_t mask;
  66:..\..\u8g2\csrc/u8x8_debounce.c ****   uint8_t i;
  67:..\..\u8g2\csrc/u8x8_debounce.c ****   mask = 1;
  68:..\..\u8g2\csrc/u8x8_debounce.c ****   i = U8X8_PIN_INPUT_CNT;
  37              		.loc 1 68 0
  38 0002 0623     		movs	r3, #6
  67:..\..\u8g2\csrc/u8x8_debounce.c ****   i = U8X8_PIN_INPUT_CNT;
  39              		.loc 1 67 0
  40 0004 0122     		movs	r2, #1
  41              	.LVL2:
  42              	.L3:
  69:..\..\u8g2\csrc/u8x8_debounce.c ****   do
  70:..\..\u8g2\csrc/u8x8_debounce.c ****   {
  71:..\..\u8g2\csrc/u8x8_debounce.c ****     i--;
ARM GAS  C:\Users\arh\AppData\Local\Temp\cc2K1eE5.s 			page 3


  43              		.loc 1 71 0
  44 0006 013B     		subs	r3, r3, #1
  45              	.LVL3:
  46 0008 DBB2     		uxtb	r3, r3
  47              	.LVL4:
  72:..\..\u8g2\csrc/u8x8_debounce.c ****     if ( (a & mask) != (b & mask) )
  48              		.loc 1 72 0
  49 000a 0400     		movs	r4, r0
  50 000c 4C40     		eors	r4, r1
  51 000e 1442     		tst	r4, r2
  52 0010 05D1     		bne	.L4
  73:..\..\u8g2\csrc/u8x8_debounce.c ****       return i;
  74:..\..\u8g2\csrc/u8x8_debounce.c ****     mask <<= 1;
  53              		.loc 1 74 0
  54 0012 5200     		lsls	r2, r2, #1
  55              	.LVL5:
  56 0014 D2B2     		uxtb	r2, r2
  57              	.LVL6:
  75:..\..\u8g2\csrc/u8x8_debounce.c ****   } while( i > 0 );
  58              		.loc 1 75 0
  59 0016 002B     		cmp	r3, #0
  60 0018 F5D1     		bne	.L3
  76:..\..\u8g2\csrc/u8x8_debounce.c ****   return U8X8_PIN_INPUT_CNT;
  61              		.loc 1 76 0
  62 001a 0620     		movs	r0, #6
  63              	.LVL7:
  64 001c 00E0     		b	.L2
  65              	.LVL8:
  66              	.L4:
  73:..\..\u8g2\csrc/u8x8_debounce.c ****       return i;
  67              		.loc 1 73 0
  68 001e 1800     		movs	r0, r3
  69              	.LVL9:
  70              	.L2:
  77:..\..\u8g2\csrc/u8x8_debounce.c **** }
  71              		.loc 1 77 0
  72              		@ sp needed
  73 0020 10BD     		pop	{r4, pc}
  74              		.cfi_endproc
  75              	.LFE1:
  76              		.size	u8x8_find_first_diff, .-u8x8_find_first_diff
  77 0022 C046     		.section	.text.u8x8_read_pin_state,"ax",%progbits
  78              		.align	2
  79              		.code	16
  80              		.thumb_func
  81              		.type	u8x8_read_pin_state, %function
  82              	u8x8_read_pin_state:
  83              	.LFB0:
  41:..\..\u8g2\csrc/u8x8_debounce.c ****   uint8_t i;
  84              		.loc 1 41 0
  85              		.cfi_startproc
  86              		@ args = 0, pretend = 0, frame = 0
  87              		@ frame_needed = 0, uses_anonymous_args = 0
  88              	.LVL10:
  89 0000 F8B5     		push	{r3, r4, r5, r6, r7, lr}
  90              		.cfi_def_cfa_offset 24
  91              		.cfi_offset 3, -24
ARM GAS  C:\Users\arh\AppData\Local\Temp\cc2K1eE5.s 			page 4


  92              		.cfi_offset 4, -20
  93              		.cfi_offset 5, -16
  94              		.cfi_offset 6, -12
  95              		.cfi_offset 7, -8
  96              		.cfi_offset 14, -4
  97 0002 0600     		movs	r6, r0
  98              	.LVL11:
  45:..\..\u8g2\csrc/u8x8_debounce.c ****   for( i = 0; i < U8X8_PIN_INPUT_CNT; i++ )
  99              		.loc 1 45 0
 100 0004 FF20     		movs	r0, #255
 101              	.LVL12:
  46:..\..\u8g2\csrc/u8x8_debounce.c ****   {
 102              		.loc 1 46 0
 103 0006 0024     		movs	r4, #0
 104 0008 11E0     		b	.L6
 105              	.LVL13:
 106              	.L7:
  48:..\..\u8g2\csrc/u8x8_debounce.c ****     
 107              		.loc 1 48 0 discriminator 3
 108 000a 4000     		lsls	r0, r0, #1
 109              	.LVL14:
 110 000c C5B2     		uxtb	r5, r0
 111              	.LVL15:
  51:..\..\u8g2\csrc/u8x8_debounce.c ****     u8x8_gpio_call(u8x8, U8X8_MSG_GPIO(i+U8X8_PIN_OUTPUT_CNT), 0);
 112              		.loc 1 51 0 discriminator 3
 113 000e 2427     		movs	r7, #36
 114 0010 0123     		movs	r3, #1
 115 0012 F355     		strb	r3, [r6, r7]
  52:..\..\u8g2\csrc/u8x8_debounce.c ****     pin_state |= u8x8->gpio_result & 1;
 116              		.loc 1 52 0 discriminator 3
 117 0014 2100     		movs	r1, r4
 118 0016 5031     		adds	r1, r1, #80
 119 0018 C9B2     		uxtb	r1, r1
 120 001a 0022     		movs	r2, #0
 121 001c 3000     		movs	r0, r6
 122 001e FFF7FEFF 		bl	u8x8_gpio_call
 123              	.LVL16:
  53:..\..\u8g2\csrc/u8x8_debounce.c ****   }
 124              		.loc 1 53 0 discriminator 3
 125 0022 F35D     		ldrb	r3, [r6, r7]
 126 0024 0120     		movs	r0, #1
 127 0026 1840     		ands	r0, r3
 128 0028 2843     		orrs	r0, r5
 129              	.LVL17:
  46:..\..\u8g2\csrc/u8x8_debounce.c ****   {
 130              		.loc 1 46 0 discriminator 3
 131 002a 0134     		adds	r4, r4, #1
 132              	.LVL18:
 133 002c E4B2     		uxtb	r4, r4
 134              	.LVL19:
 135              	.L6:
  46:..\..\u8g2\csrc/u8x8_debounce.c ****   {
 136              		.loc 1 46 0 is_stmt 0 discriminator 1
 137 002e 052C     		cmp	r4, #5
 138 0030 EBD9     		bls	.L7
  57:..\..\u8g2\csrc/u8x8_debounce.c **** 
 139              		.loc 1 57 0 is_stmt 1
ARM GAS  C:\Users\arh\AppData\Local\Temp\cc2K1eE5.s 			page 5


 140              		@ sp needed
 141              	.LVL20:
 142              	.LVL21:
 143 0032 F8BD     		pop	{r3, r4, r5, r6, r7, pc}
 144              		.cfi_endproc
 145              	.LFE0:
 146              		.size	u8x8_read_pin_state, .-u8x8_read_pin_state
 147              		.section	.text.u8x8_GetMenuEvent,"ax",%progbits
 148              		.align	2
 149              		.global	u8x8_GetMenuEvent
 150              		.code	16
 151              		.thumb_func
 152              		.type	u8x8_GetMenuEvent, %function
 153              	u8x8_GetMenuEvent:
 154              	.LFB2:
  78:..\..\u8g2\csrc/u8x8_debounce.c **** 
  79:..\..\u8g2\csrc/u8x8_debounce.c **** /*
  80:..\..\u8g2\csrc/u8x8_debounce.c ****   State A:
  81:..\..\u8g2\csrc/u8x8_debounce.c ****     u8x8->debounce_last_pin_state == current_state 
  82:..\..\u8g2\csrc/u8x8_debounce.c ****       --> State A
  83:..\..\u8g2\csrc/u8x8_debounce.c ****     u8x8->debounce_last_pin_state != current_state 
  84:..\..\u8g2\csrc/u8x8_debounce.c ****       --> u8x8->debounce_last_pin_state = current_state 
  85:..\..\u8g2\csrc/u8x8_debounce.c ****       --> State B + cnt
  86:..\..\u8g2\csrc/u8x8_debounce.c **** 
  87:..\..\u8g2\csrc/u8x8_debounce.c ****   State B + cnt
  88:..\..\u8g2\csrc/u8x8_debounce.c ****     --> state--
  89:..\..\u8g2\csrc/u8x8_debounce.c **** 
  90:..\..\u8g2\csrc/u8x8_debounce.c ****   State B
  91:..\..\u8g2\csrc/u8x8_debounce.c ****     u8x8->debounce_last_pin_state == current_state 
  92:..\..\u8g2\csrc/u8x8_debounce.c ****       --> keypress detected
  93:..\..\u8g2\csrc/u8x8_debounce.c ****       --> State C
  94:..\..\u8g2\csrc/u8x8_debounce.c ****     u8x8->debounce_last_pin_state != current_state 
  95:..\..\u8g2\csrc/u8x8_debounce.c ****       --> State A
  96:..\..\u8g2\csrc/u8x8_debounce.c **** 
  97:..\..\u8g2\csrc/u8x8_debounce.c ****   State C
  98:..\..\u8g2\csrc/u8x8_debounce.c ****     u8x8->debounce_last_pin_state == current_state 
  99:..\..\u8g2\csrc/u8x8_debounce.c ****       --> State C
 100:..\..\u8g2\csrc/u8x8_debounce.c ****     u8x8->debounce_last_pin_state != current_state 
 101:..\..\u8g2\csrc/u8x8_debounce.c ****       --> State A
 102:..\..\u8g2\csrc/u8x8_debounce.c **** 
 103:..\..\u8g2\csrc/u8x8_debounce.c **** */
 104:..\..\u8g2\csrc/u8x8_debounce.c **** 
 105:..\..\u8g2\csrc/u8x8_debounce.c **** #ifdef __unix__xxxxxx_THIS_IS_DISABLED
 106:..\..\u8g2\csrc/u8x8_debounce.c **** 
 107:..\..\u8g2\csrc/u8x8_debounce.c **** #include <stdio.h>
 108:..\..\u8g2\csrc/u8x8_debounce.c **** #include <stdlib.h>
 109:..\..\u8g2\csrc/u8x8_debounce.c **** uint8_t u8x8_GetMenuEvent(u8x8_t *u8x8)
 110:..\..\u8g2\csrc/u8x8_debounce.c **** {
 111:..\..\u8g2\csrc/u8x8_debounce.c ****     int c;
 112:..\..\u8g2\csrc/u8x8_debounce.c ****     c = getc(stdin);
 113:..\..\u8g2\csrc/u8x8_debounce.c ****     switch(c)
 114:..\..\u8g2\csrc/u8x8_debounce.c ****     {
 115:..\..\u8g2\csrc/u8x8_debounce.c ****         case 'n':
 116:..\..\u8g2\csrc/u8x8_debounce.c ****             return  U8X8_MSG_GPIO_MENU_NEXT;
 117:..\..\u8g2\csrc/u8x8_debounce.c ****         case 'p':
 118:..\..\u8g2\csrc/u8x8_debounce.c ****             return  U8X8_MSG_GPIO_MENU_PREV;
 119:..\..\u8g2\csrc/u8x8_debounce.c ****         case 's':
ARM GAS  C:\Users\arh\AppData\Local\Temp\cc2K1eE5.s 			page 6


 120:..\..\u8g2\csrc/u8x8_debounce.c ****             return  U8X8_MSG_GPIO_MENU_SELECT;
 121:..\..\u8g2\csrc/u8x8_debounce.c ****         case 'h':
 122:..\..\u8g2\csrc/u8x8_debounce.c ****             return  U8X8_MSG_GPIO_MENU_HOME;
 123:..\..\u8g2\csrc/u8x8_debounce.c ****         case 'x':
 124:..\..\u8g2\csrc/u8x8_debounce.c ****             exit(0);
 125:..\..\u8g2\csrc/u8x8_debounce.c ****         default:
 126:..\..\u8g2\csrc/u8x8_debounce.c ****             puts("press n, p, s, h or x");
 127:..\..\u8g2\csrc/u8x8_debounce.c ****             break;
 128:..\..\u8g2\csrc/u8x8_debounce.c ****     }
 129:..\..\u8g2\csrc/u8x8_debounce.c ****     return 0;
 130:..\..\u8g2\csrc/u8x8_debounce.c **** }
 131:..\..\u8g2\csrc/u8x8_debounce.c **** 
 132:..\..\u8g2\csrc/u8x8_debounce.c **** 
 133:..\..\u8g2\csrc/u8x8_debounce.c **** #else  /* __unix__ */
 134:..\..\u8g2\csrc/u8x8_debounce.c **** 
 135:..\..\u8g2\csrc/u8x8_debounce.c **** 
 136:..\..\u8g2\csrc/u8x8_debounce.c **** #define U8X8_DEBOUNCE_WAIT 1
 137:..\..\u8g2\csrc/u8x8_debounce.c **** /* do debounce and return a GPIO msg which indicates the event */
 138:..\..\u8g2\csrc/u8x8_debounce.c **** /* returns 0, if there is no event */
 139:..\..\u8g2\csrc/u8x8_debounce.c **** uint8_t u8x8_GetMenuEvent(u8x8_t *u8x8)
 140:..\..\u8g2\csrc/u8x8_debounce.c **** {
 155              		.loc 1 140 0
 156              		.cfi_startproc
 157              		@ args = 0, pretend = 0, frame = 0
 158              		@ frame_needed = 0, uses_anonymous_args = 0
 159              	.LVL22:
 160 0000 10B5     		push	{r4, lr}
 161              		.cfi_def_cfa_offset 8
 162              		.cfi_offset 4, -8
 163              		.cfi_offset 14, -4
 164 0002 0400     		movs	r4, r0
 165              	.LVL23:
 141:..\..\u8g2\csrc/u8x8_debounce.c ****   uint8_t pin_state;
 142:..\..\u8g2\csrc/u8x8_debounce.c ****   uint8_t result_msg = 0;	/* invalid message */
 143:..\..\u8g2\csrc/u8x8_debounce.c ****   
 144:..\..\u8g2\csrc/u8x8_debounce.c ****   pin_state = u8x8_read_pin_state(u8x8);
 166              		.loc 1 144 0
 167 0004 FFF7FEFF 		bl	u8x8_read_pin_state
 168              	.LVL24:
 169 0008 0200     		movs	r2, r0
 170              	.LVL25:
 145:..\..\u8g2\csrc/u8x8_debounce.c ****   
 146:..\..\u8g2\csrc/u8x8_debounce.c ****   /* States A, B, C & D are encoded in the upper 4 bit*/
 147:..\..\u8g2\csrc/u8x8_debounce.c ****   switch(u8x8->debounce_state)
 171              		.loc 1 147 0
 172 000a 2723     		movs	r3, #39
 173 000c E35C     		ldrb	r3, [r4, r3]
 174 000e 102B     		cmp	r3, #16
 175 0010 0ED0     		beq	.L10
 176 0012 202B     		cmp	r3, #32
 177 0014 1CD0     		beq	.L11
 178 0016 002B     		cmp	r3, #0
 179 0018 28D1     		bne	.L17
 148:..\..\u8g2\csrc/u8x8_debounce.c ****   {
 149:..\..\u8g2\csrc/u8x8_debounce.c ****     case 0x00:	/* State A, default state */
 150:..\..\u8g2\csrc/u8x8_debounce.c ****       if ( u8x8->debounce_default_pin_state != pin_state )
 180              		.loc 1 150 0
ARM GAS  C:\Users\arh\AppData\Local\Temp\cc2K1eE5.s 			page 7


 181 001a 2533     		adds	r3, r3, #37
 182 001c E35C     		ldrb	r3, [r4, r3]
 183 001e 9842     		cmp	r0, r3
 184 0020 29D0     		beq	.L15
 151:..\..\u8g2\csrc/u8x8_debounce.c ****       {
 152:..\..\u8g2\csrc/u8x8_debounce.c **** 	u8x8->debounce_last_pin_state = pin_state;
 185              		.loc 1 152 0
 186 0022 2623     		movs	r3, #38
 187 0024 E054     		strb	r0, [r4, r3]
 153:..\..\u8g2\csrc/u8x8_debounce.c **** 	u8x8->debounce_state = 0x010 + U8X8_DEBOUNCE_WAIT;
 188              		.loc 1 153 0
 189 0026 1122     		movs	r2, #17
 190 0028 0133     		adds	r3, r3, #1
 191 002a E254     		strb	r2, [r4, r3]
 142:..\..\u8g2\csrc/u8x8_debounce.c ****   
 192              		.loc 1 142 0
 193 002c 0020     		movs	r0, #0
 194              	.LVL26:
 195 002e 25E0     		b	.L13
 196              	.LVL27:
 197              	.L10:
 154:..\..\u8g2\csrc/u8x8_debounce.c ****       }
 155:..\..\u8g2\csrc/u8x8_debounce.c ****       break;
 156:..\..\u8g2\csrc/u8x8_debounce.c ****     case 0x10:	/* State B */
 157:..\..\u8g2\csrc/u8x8_debounce.c ****       if ( u8x8->debounce_last_pin_state != pin_state )
 198              		.loc 1 157 0
 199 0030 2623     		movs	r3, #38
 200 0032 E35C     		ldrb	r3, [r4, r3]
 201 0034 9842     		cmp	r0, r3
 202 0036 04D0     		beq	.L14
 158:..\..\u8g2\csrc/u8x8_debounce.c ****       {
 159:..\..\u8g2\csrc/u8x8_debounce.c **** 	u8x8->debounce_state = 0x00;	/* back to state A */
 203              		.loc 1 159 0
 204 0038 0022     		movs	r2, #0
 205 003a 2723     		movs	r3, #39
 206 003c E254     		strb	r2, [r4, r3]
 142:..\..\u8g2\csrc/u8x8_debounce.c ****   
 207              		.loc 1 142 0
 208 003e 0020     		movs	r0, #0
 209              	.LVL28:
 210 0040 1CE0     		b	.L13
 211              	.LVL29:
 212              	.L14:
 160:..\..\u8g2\csrc/u8x8_debounce.c ****       }
 161:..\..\u8g2\csrc/u8x8_debounce.c ****       else
 162:..\..\u8g2\csrc/u8x8_debounce.c ****       {
 163:..\..\u8g2\csrc/u8x8_debounce.c **** 	/* keypress detected */
 164:..\..\u8g2\csrc/u8x8_debounce.c **** 	u8x8->debounce_last_pin_state = pin_state;
 213              		.loc 1 164 0
 214 0042 2623     		movs	r3, #38
 215 0044 E054     		strb	r0, [r4, r3]
 165:..\..\u8g2\csrc/u8x8_debounce.c **** 	//result_msg = U8X8_MSG_GPIO_MENU_NEXT;
 166:..\..\u8g2\csrc/u8x8_debounce.c **** 	u8x8->debounce_state = 0x020;	/* got to state C */	
 216              		.loc 1 166 0
 217 0046 2022     		movs	r2, #32
 218 0048 0133     		adds	r3, r3, #1
 219 004a E254     		strb	r2, [r4, r3]
ARM GAS  C:\Users\arh\AppData\Local\Temp\cc2K1eE5.s 			page 8


 142:..\..\u8g2\csrc/u8x8_debounce.c ****   
 220              		.loc 1 142 0
 221 004c 0020     		movs	r0, #0
 222              	.LVL30:
 223 004e 15E0     		b	.L13
 224              	.LVL31:
 225              	.L11:
 167:..\..\u8g2\csrc/u8x8_debounce.c ****       }
 168:..\..\u8g2\csrc/u8x8_debounce.c ****       break;
 169:..\..\u8g2\csrc/u8x8_debounce.c ****     case 0x20:	/* State C */
 170:..\..\u8g2\csrc/u8x8_debounce.c ****       /* wait until key release */
 171:..\..\u8g2\csrc/u8x8_debounce.c ****       if ( u8x8->debounce_default_pin_state == pin_state )
 226              		.loc 1 171 0
 227 0050 2523     		movs	r3, #37
 228 0052 E05C     		ldrb	r0, [r4, r3]
 229              	.LVL32:
 230 0054 8242     		cmp	r2, r0
 231 0056 10D1     		bne	.L16
 172:..\..\u8g2\csrc/u8x8_debounce.c ****       {
 173:..\..\u8g2\csrc/u8x8_debounce.c **** 	u8x8->debounce_state = 0x00;	/* back to state A */
 232              		.loc 1 173 0
 233 0058 0022     		movs	r2, #0
 234 005a 0233     		adds	r3, r3, #2
 235 005c E254     		strb	r2, [r4, r3]
 174:..\..\u8g2\csrc/u8x8_debounce.c **** 	result_msg = U8X8_MSG_GPIO(u8x8_find_first_diff(u8x8->debounce_default_pin_state, u8x8->debounce_l
 236              		.loc 1 174 0
 237 005e 013B     		subs	r3, r3, #1
 238 0060 E15C     		ldrb	r1, [r4, r3]
 239 0062 FFF7FEFF 		bl	u8x8_find_first_diff
 240              	.LVL33:
 241 0066 5030     		adds	r0, r0, #80
 242 0068 C0B2     		uxtb	r0, r0
 243              	.LVL34:
 244 006a 07E0     		b	.L13
 245              	.LVL35:
 246              	.L17:
 175:..\..\u8g2\csrc/u8x8_debounce.c ****       }
 176:..\..\u8g2\csrc/u8x8_debounce.c ****       else
 177:..\..\u8g2\csrc/u8x8_debounce.c ****       {
 178:..\..\u8g2\csrc/u8x8_debounce.c **** 	//result_msg = U8X8_MSG_GPIO_MENU_NEXT;
 179:..\..\u8g2\csrc/u8x8_debounce.c **** 	// maybe implement autorepeat here 
 180:..\..\u8g2\csrc/u8x8_debounce.c ****       }
 181:..\..\u8g2\csrc/u8x8_debounce.c ****       break;
 182:..\..\u8g2\csrc/u8x8_debounce.c ****     default:
 183:..\..\u8g2\csrc/u8x8_debounce.c ****       u8x8->debounce_state--;	/* count down, until there is a valid state */
 247              		.loc 1 183 0
 248 006c 013B     		subs	r3, r3, #1
 249 006e 2722     		movs	r2, #39
 250 0070 A354     		strb	r3, [r4, r2]
 142:..\..\u8g2\csrc/u8x8_debounce.c ****   
 251              		.loc 1 142 0
 252 0072 0020     		movs	r0, #0
 253              	.LVL36:
 184:..\..\u8g2\csrc/u8x8_debounce.c ****       break;
 254              		.loc 1 184 0
 255 0074 02E0     		b	.L13
 256              	.LVL37:
ARM GAS  C:\Users\arh\AppData\Local\Temp\cc2K1eE5.s 			page 9


 257              	.L15:
 142:..\..\u8g2\csrc/u8x8_debounce.c ****   
 258              		.loc 1 142 0
 259 0076 0020     		movs	r0, #0
 260              	.LVL38:
 261 0078 00E0     		b	.L13
 262              	.L16:
 263 007a 0020     		movs	r0, #0
 264              	.LVL39:
 265              	.L13:
 185:..\..\u8g2\csrc/u8x8_debounce.c ****   }
 186:..\..\u8g2\csrc/u8x8_debounce.c ****   return result_msg;
 187:..\..\u8g2\csrc/u8x8_debounce.c **** }
 266              		.loc 1 187 0
 267              		@ sp needed
 268              	.LVL40:
 269 007c 10BD     		pop	{r4, pc}
 270              		.cfi_endproc
 271              	.LFE2:
 272              		.size	u8x8_GetMenuEvent, .-u8x8_GetMenuEvent
 273 007e C046     		.text
 274              	.Letext0:
 275              		.file 2 "c:\\program files (x86)\\cypress\\psoc creator\\4.1\\psoc creator\\import\\gnu\\arm\\5.4.
 276              		.file 3 "c:\\program files (x86)\\cypress\\psoc creator\\4.1\\psoc creator\\import\\gnu\\arm\\5.4.
 277              		.file 4 "..\\..\\u8g2\\csrc\\u8x8.h"