ARM GAS  C:\Users\Alan\AppData\Local\Temp\ccNG9wnL.s 			page 1


   1              		.syntax unified
   2              		.cpu cortex-m0
   3              		.fpu softvfp
   4              		.eabi_attribute 20, 1
   5              		.eabi_attribute 21, 1
   6              		.eabi_attribute 23, 3
   7              		.eabi_attribute 24, 1
   8              		.eabi_attribute 25, 1
   9              		.eabi_attribute 26, 1
  10              		.eabi_attribute 30, 1
  11              		.eabi_attribute 34, 0
  12              		.eabi_attribute 18, 4
  13              		.thumb
  14              		.syntax unified
  15              		.file	"u8x8_d_ssd1327.c"
  16              		.text
  17              	.Ltext0:
  18              		.cfi_sections	.debug_frame
  19              		.section	.text.u8x8_ssd1327_8to32,"ax",%progbits
  20              		.align	2
  21              		.code	16
  22              		.thumb_func
  23              		.type	u8x8_ssd1327_8to32, %function
  24              	u8x8_ssd1327_8to32:
  25              	.LFB0:
  26              		.file 1 "..\\..\\u8g2\\csrc\\u8x8_d_ssd1327.c"
   1:..\..\u8g2\csrc/u8x8_d_ssd1327.c **** /*
   2:..\..\u8g2\csrc/u8x8_d_ssd1327.c **** 
   3:..\..\u8g2\csrc/u8x8_d_ssd1327.c ****   u8x8_d_ssd1327.c
   4:..\..\u8g2\csrc/u8x8_d_ssd1327.c **** 
   5:..\..\u8g2\csrc/u8x8_d_ssd1327.c ****   Universal 8bit Graphics Library (https://github.com/olikraus/u8g2/)
   6:..\..\u8g2\csrc/u8x8_d_ssd1327.c **** 
   7:..\..\u8g2\csrc/u8x8_d_ssd1327.c ****   Copyright (c) 2016, olikraus@gmail.com
   8:..\..\u8g2\csrc/u8x8_d_ssd1327.c ****   All rights reserved.
   9:..\..\u8g2\csrc/u8x8_d_ssd1327.c **** 
  10:..\..\u8g2\csrc/u8x8_d_ssd1327.c ****   Redistribution and use in source and binary forms, with or without modification, 
  11:..\..\u8g2\csrc/u8x8_d_ssd1327.c ****   are permitted provided that the following conditions are met:
  12:..\..\u8g2\csrc/u8x8_d_ssd1327.c **** 
  13:..\..\u8g2\csrc/u8x8_d_ssd1327.c ****   * Redistributions of source code must retain the above copyright notice, this list 
  14:..\..\u8g2\csrc/u8x8_d_ssd1327.c ****     of conditions and the following disclaimer.
  15:..\..\u8g2\csrc/u8x8_d_ssd1327.c ****     
  16:..\..\u8g2\csrc/u8x8_d_ssd1327.c ****   * Redistributions in binary form must reproduce the above copyright notice, this 
  17:..\..\u8g2\csrc/u8x8_d_ssd1327.c ****     list of conditions and the following disclaimer in the documentation and/or other 
  18:..\..\u8g2\csrc/u8x8_d_ssd1327.c ****     materials provided with the distribution.
  19:..\..\u8g2\csrc/u8x8_d_ssd1327.c **** 
  20:..\..\u8g2\csrc/u8x8_d_ssd1327.c ****   THIS SOFTWARE IS PROVIDED BY THE COPYRIGHT HOLDERS AND 
  21:..\..\u8g2\csrc/u8x8_d_ssd1327.c ****   CONTRIBUTORS "AS IS" AND ANY EXPRESS OR IMPLIED WARRANTIES, 
  22:..\..\u8g2\csrc/u8x8_d_ssd1327.c ****   INCLUDING, BUT NOT LIMITED TO, THE IMPLIED WARRANTIES OF 
  23:..\..\u8g2\csrc/u8x8_d_ssd1327.c ****   MERCHANTABILITY AND FITNESS FOR A PARTICULAR PURPOSE ARE 
  24:..\..\u8g2\csrc/u8x8_d_ssd1327.c ****   DISCLAIMED. IN NO EVENT SHALL THE COPYRIGHT HOLDER OR 
  25:..\..\u8g2\csrc/u8x8_d_ssd1327.c ****   CONTRIBUTORS BE LIABLE FOR ANY DIRECT, INDIRECT, INCIDENTAL, 
  26:..\..\u8g2\csrc/u8x8_d_ssd1327.c ****   SPECIAL, EXEMPLARY, OR CONSEQUENTIAL DAMAGES (INCLUDING, BUT 
  27:..\..\u8g2\csrc/u8x8_d_ssd1327.c ****   NOT LIMITED TO, PROCUREMENT OF SUBSTITUTE GOODS OR SERVICES; 
  28:..\..\u8g2\csrc/u8x8_d_ssd1327.c ****   LOSS OF USE, DATA, OR PROFITS; OR BUSINESS INTERRUPTION) HOWEVER 
  29:..\..\u8g2\csrc/u8x8_d_ssd1327.c ****   CAUSED AND ON ANY THEORY OF LIABILITY, WHETHER IN CONTRACT, 
  30:..\..\u8g2\csrc/u8x8_d_ssd1327.c ****   STRICT LIABILITY, OR TORT (INCLUDING NEGLIGENCE OR OTHERWISE) 
  31:..\..\u8g2\csrc/u8x8_d_ssd1327.c ****   ARISING IN ANY WAY OUT OF THE USE OF THIS SOFTWARE, EVEN IF 
ARM GAS  C:\Users\Alan\AppData\Local\Temp\ccNG9wnL.s 			page 2


  32:..\..\u8g2\csrc/u8x8_d_ssd1327.c ****   ADVISED OF THE POSSIBILITY OF SUCH DAMAGE.  
  33:..\..\u8g2\csrc/u8x8_d_ssd1327.c ****   
  34:..\..\u8g2\csrc/u8x8_d_ssd1327.c **** */
  35:..\..\u8g2\csrc/u8x8_d_ssd1327.c **** 
  36:..\..\u8g2\csrc/u8x8_d_ssd1327.c **** 
  37:..\..\u8g2\csrc/u8x8_d_ssd1327.c **** #include "u8x8.h"
  38:..\..\u8g2\csrc/u8x8_d_ssd1327.c **** 
  39:..\..\u8g2\csrc/u8x8_d_ssd1327.c **** 
  40:..\..\u8g2\csrc/u8x8_d_ssd1327.c **** static const uint8_t u8x8_d_ssd1327_96x96_powersave0_seq[] = {
  41:..\..\u8g2\csrc/u8x8_d_ssd1327.c ****   U8X8_START_TRANSFER(),             	/* enable chip, delay is part of the transfer start */
  42:..\..\u8g2\csrc/u8x8_d_ssd1327.c ****   U8X8_C(0x0af),		                /* display on */
  43:..\..\u8g2\csrc/u8x8_d_ssd1327.c ****   U8X8_END_TRANSFER(),             	/* disable chip */
  44:..\..\u8g2\csrc/u8x8_d_ssd1327.c ****   U8X8_END()             			/* end of sequence */
  45:..\..\u8g2\csrc/u8x8_d_ssd1327.c **** };
  46:..\..\u8g2\csrc/u8x8_d_ssd1327.c **** 
  47:..\..\u8g2\csrc/u8x8_d_ssd1327.c **** static const uint8_t u8x8_d_ssd1327_96x96_powersave1_seq[] = {
  48:..\..\u8g2\csrc/u8x8_d_ssd1327.c ****   U8X8_START_TRANSFER(),             	/* enable chip, delay is part of the transfer start */
  49:..\..\u8g2\csrc/u8x8_d_ssd1327.c ****   U8X8_C(0x0ae),		                /* display off */
  50:..\..\u8g2\csrc/u8x8_d_ssd1327.c ****   U8X8_END_TRANSFER(),             	/* disable chip */
  51:..\..\u8g2\csrc/u8x8_d_ssd1327.c ****   U8X8_END()             			/* end of sequence */
  52:..\..\u8g2\csrc/u8x8_d_ssd1327.c **** };
  53:..\..\u8g2\csrc/u8x8_d_ssd1327.c **** 
  54:..\..\u8g2\csrc/u8x8_d_ssd1327.c **** 
  55:..\..\u8g2\csrc/u8x8_d_ssd1327.c **** 
  56:..\..\u8g2\csrc/u8x8_d_ssd1327.c **** 
  57:..\..\u8g2\csrc/u8x8_d_ssd1327.c **** /*
  58:..\..\u8g2\csrc/u8x8_d_ssd1327.c ****   input:
  59:..\..\u8g2\csrc/u8x8_d_ssd1327.c ****     one tile (8 Bytes)
  60:..\..\u8g2\csrc/u8x8_d_ssd1327.c ****   output:
  61:..\..\u8g2\csrc/u8x8_d_ssd1327.c ****     Tile for ssd1327 (32 Bytes)
  62:..\..\u8g2\csrc/u8x8_d_ssd1327.c **** */
  63:..\..\u8g2\csrc/u8x8_d_ssd1327.c **** 
  64:..\..\u8g2\csrc/u8x8_d_ssd1327.c **** static uint8_t u8x8_ssd1327_8to32_dest_buf[32];
  65:..\..\u8g2\csrc/u8x8_d_ssd1327.c **** 
  66:..\..\u8g2\csrc/u8x8_d_ssd1327.c **** static uint8_t *u8x8_ssd1327_8to32(U8X8_UNUSED u8x8_t *u8x8, uint8_t *ptr)
  67:..\..\u8g2\csrc/u8x8_d_ssd1327.c **** {
  27              		.loc 1 67 0
  28              		.cfi_startproc
  29              		@ args = 0, pretend = 0, frame = 0
  30              		@ frame_needed = 0, uses_anonymous_args = 0
  31              	.LVL0:
  32 0000 F0B5     		push	{r4, r5, r6, r7, lr}
  33              		.cfi_def_cfa_offset 20
  34              		.cfi_offset 4, -20
  35              		.cfi_offset 5, -16
  36              		.cfi_offset 6, -12
  37              		.cfi_offset 7, -8
  38              		.cfi_offset 14, -4
  39              	.LVL1:
  68:..\..\u8g2\csrc/u8x8_d_ssd1327.c ****   uint8_t v;
  69:..\..\u8g2\csrc/u8x8_d_ssd1327.c ****   uint8_t a,b;
  70:..\..\u8g2\csrc/u8x8_d_ssd1327.c ****   uint8_t i, j;
  71:..\..\u8g2\csrc/u8x8_d_ssd1327.c ****   uint8_t *dest;
  72:..\..\u8g2\csrc/u8x8_d_ssd1327.c ****   
  73:..\..\u8g2\csrc/u8x8_d_ssd1327.c ****   for( j = 0; j < 4; j++ )
  40              		.loc 1 73 0
  41 0002 0027     		movs	r7, #0
ARM GAS  C:\Users\Alan\AppData\Local\Temp\ccNG9wnL.s 			page 3


  42 0004 1AE0     		b	.L2
  43              	.LVL2:
  44              	.L7:
  74:..\..\u8g2\csrc/u8x8_d_ssd1327.c ****   {
  75:..\..\u8g2\csrc/u8x8_d_ssd1327.c ****     dest = u8x8_ssd1327_8to32_dest_buf;
  76:..\..\u8g2\csrc/u8x8_d_ssd1327.c ****     dest += j;
  45              		.loc 1 76 0
  46 0006 0F48     		ldr	r0, .L9
  47 0008 C019     		adds	r0, r0, r7
  48              	.LVL3:
  77:..\..\u8g2\csrc/u8x8_d_ssd1327.c ****     a =*ptr;
  49              		.loc 1 77 0
  50 000a 0D78     		ldrb	r5, [r1]
  51              	.LVL4:
  78:..\..\u8g2\csrc/u8x8_d_ssd1327.c ****     ptr++;
  79:..\..\u8g2\csrc/u8x8_d_ssd1327.c ****     b = *ptr;
  52              		.loc 1 79 0
  53 000c 4C78     		ldrb	r4, [r1, #1]
  54              	.LVL5:
  80:..\..\u8g2\csrc/u8x8_d_ssd1327.c ****     ptr++;
  55              		.loc 1 80 0
  56 000e 0231     		adds	r1, r1, #2
  57              	.LVL6:
  81:..\..\u8g2\csrc/u8x8_d_ssd1327.c ****     for( i = 0; i < 8; i++ )
  58              		.loc 1 81 0
  59 0010 0023     		movs	r3, #0
  60 0012 0FE0     		b	.L3
  61              	.LVL7:
  62              	.L6:
  82:..\..\u8g2\csrc/u8x8_d_ssd1327.c ****     {
  83:..\..\u8g2\csrc/u8x8_d_ssd1327.c ****       v = 0;
  84:..\..\u8g2\csrc/u8x8_d_ssd1327.c ****       if ( a&1 ) v |= 0xf0;
  63              		.loc 1 84 0
  64 0014 EA07     		lsls	r2, r5, #31
  65 0016 01D4     		bmi	.L8
  83:..\..\u8g2\csrc/u8x8_d_ssd1327.c ****       if ( a&1 ) v |= 0xf0;
  66              		.loc 1 83 0
  67 0018 0022     		movs	r2, #0
  68 001a 00E0     		b	.L4
  69              	.L8:
  70              		.loc 1 84 0
  71 001c F022     		movs	r2, #240
  72              	.L4:
  73              	.LVL8:
  85:..\..\u8g2\csrc/u8x8_d_ssd1327.c ****       if ( b&1 ) v |= 0x0f;
  74              		.loc 1 85 0
  75 001e E607     		lsls	r6, r4, #31
  76 0020 02D5     		bpl	.L5
  77              		.loc 1 85 0 is_stmt 0 discriminator 1
  78 0022 0F26     		movs	r6, #15
  79 0024 3243     		orrs	r2, r6
  80              	.LVL9:
  81 0026 D2B2     		uxtb	r2, r2
  82              	.LVL10:
  83              	.L5:
  86:..\..\u8g2\csrc/u8x8_d_ssd1327.c ****       *dest = v;
  84              		.loc 1 86 0 is_stmt 1 discriminator 2
ARM GAS  C:\Users\Alan\AppData\Local\Temp\ccNG9wnL.s 			page 4


  85 0028 0270     		strb	r2, [r0]
  87:..\..\u8g2\csrc/u8x8_d_ssd1327.c ****       dest+=4;
  86              		.loc 1 87 0 discriminator 2
  87 002a 0430     		adds	r0, r0, #4
  88              	.LVL11:
  88:..\..\u8g2\csrc/u8x8_d_ssd1327.c ****       a >>= 1;
  89              		.loc 1 88 0 discriminator 2
  90 002c 6D08     		lsrs	r5, r5, #1
  91              	.LVL12:
  89:..\..\u8g2\csrc/u8x8_d_ssd1327.c ****       b >>= 1;
  92              		.loc 1 89 0 discriminator 2
  93 002e 6408     		lsrs	r4, r4, #1
  94              	.LVL13:
  81:..\..\u8g2\csrc/u8x8_d_ssd1327.c ****     {
  95              		.loc 1 81 0 discriminator 2
  96 0030 0133     		adds	r3, r3, #1
  97              	.LVL14:
  98 0032 DBB2     		uxtb	r3, r3
  99              	.LVL15:
 100              	.L3:
  81:..\..\u8g2\csrc/u8x8_d_ssd1327.c ****     {
 101              		.loc 1 81 0 is_stmt 0 discriminator 1
 102 0034 072B     		cmp	r3, #7
 103 0036 EDD9     		bls	.L6
  73:..\..\u8g2\csrc/u8x8_d_ssd1327.c ****   {
 104              		.loc 1 73 0 is_stmt 1 discriminator 2
 105 0038 0137     		adds	r7, r7, #1
 106              	.LVL16:
 107 003a FFB2     		uxtb	r7, r7
 108              	.LVL17:
 109              	.L2:
  73:..\..\u8g2\csrc/u8x8_d_ssd1327.c ****   {
 110              		.loc 1 73 0 is_stmt 0 discriminator 1
 111 003c 032F     		cmp	r7, #3
 112 003e E2D9     		bls	.L7
  90:..\..\u8g2\csrc/u8x8_d_ssd1327.c ****     }
  91:..\..\u8g2\csrc/u8x8_d_ssd1327.c ****   }
  92:..\..\u8g2\csrc/u8x8_d_ssd1327.c ****   
  93:..\..\u8g2\csrc/u8x8_d_ssd1327.c ****   return u8x8_ssd1327_8to32_dest_buf;
  94:..\..\u8g2\csrc/u8x8_d_ssd1327.c **** }
 113              		.loc 1 94 0 is_stmt 1
 114 0040 0048     		ldr	r0, .L9
 115              		@ sp needed
 116              	.LVL18:
 117 0042 F0BD     		pop	{r4, r5, r6, r7, pc}
 118              	.L10:
 119              		.align	2
 120              	.L9:
 121 0044 00000000 		.word	.LANCHOR0
 122              		.cfi_endproc
 123              	.LFE0:
 124              		.size	u8x8_ssd1327_8to32, .-u8x8_ssd1327_8to32
 125              		.section	.text.u8x8_d_ssd1327_96x96_generic,"ax",%progbits
 126              		.align	2
 127              		.code	16
 128              		.thumb_func
 129              		.type	u8x8_d_ssd1327_96x96_generic, %function
ARM GAS  C:\Users\Alan\AppData\Local\Temp\ccNG9wnL.s 			page 5


 130              	u8x8_d_ssd1327_96x96_generic:
 131              	.LFB1:
  95:..\..\u8g2\csrc/u8x8_d_ssd1327.c **** 
  96:..\..\u8g2\csrc/u8x8_d_ssd1327.c **** 
  97:..\..\u8g2\csrc/u8x8_d_ssd1327.c **** 
  98:..\..\u8g2\csrc/u8x8_d_ssd1327.c **** 
  99:..\..\u8g2\csrc/u8x8_d_ssd1327.c **** static uint8_t u8x8_d_ssd1327_96x96_generic(u8x8_t *u8x8, uint8_t msg, uint8_t arg_int, void *arg_p
 100:..\..\u8g2\csrc/u8x8_d_ssd1327.c **** {
 132              		.loc 1 100 0
 133              		.cfi_startproc
 134              		@ args = 0, pretend = 0, frame = 0
 135              		@ frame_needed = 0, uses_anonymous_args = 0
 136              	.LVL19:
 137 0000 F0B5     		push	{r4, r5, r6, r7, lr}
 138              		.cfi_def_cfa_offset 20
 139              		.cfi_offset 4, -20
 140              		.cfi_offset 5, -16
 141              		.cfi_offset 6, -12
 142              		.cfi_offset 7, -8
 143              		.cfi_offset 14, -4
 144 0002 5746     		mov	r7, r10
 145 0004 4E46     		mov	r6, r9
 146 0006 4546     		mov	r5, r8
 147 0008 E0B4     		push	{r5, r6, r7}
 148              		.cfi_def_cfa_offset 32
 149              		.cfi_offset 8, -32
 150              		.cfi_offset 9, -28
 151              		.cfi_offset 10, -24
 152 000a 0400     		movs	r4, r0
 153 000c 9146     		mov	r9, r2
 154 000e 9A46     		mov	r10, r3
 101:..\..\u8g2\csrc/u8x8_d_ssd1327.c ****   uint8_t x, y, c;
 102:..\..\u8g2\csrc/u8x8_d_ssd1327.c ****   uint8_t *ptr;
 103:..\..\u8g2\csrc/u8x8_d_ssd1327.c ****   switch(msg)
 155              		.loc 1 103 0
 156 0010 0E29     		cmp	r1, #14
 157 0012 10D0     		beq	.L13
 158 0014 0F29     		cmp	r1, #15
 159 0016 1DD0     		beq	.L14
 160 0018 0B29     		cmp	r1, #11
 161 001a 63D1     		bne	.L20
 104:..\..\u8g2\csrc/u8x8_d_ssd1327.c ****   {
 105:..\..\u8g2\csrc/u8x8_d_ssd1327.c ****     /* handled by the calling function
 106:..\..\u8g2\csrc/u8x8_d_ssd1327.c ****     case U8X8_MSG_DISPLAY_SETUP_MEMORY:
 107:..\..\u8g2\csrc/u8x8_d_ssd1327.c ****       u8x8_d_helper_display_setup_memory(u8x8, &u8x8_ssd1327_96x96_display_info);
 108:..\..\u8g2\csrc/u8x8_d_ssd1327.c ****       break;
 109:..\..\u8g2\csrc/u8x8_d_ssd1327.c ****     */
 110:..\..\u8g2\csrc/u8x8_d_ssd1327.c ****     /* handled by the calling function
 111:..\..\u8g2\csrc/u8x8_d_ssd1327.c ****     case U8X8_MSG_DISPLAY_INIT:
 112:..\..\u8g2\csrc/u8x8_d_ssd1327.c ****       u8x8_d_helper_display_init(u8x8);
 113:..\..\u8g2\csrc/u8x8_d_ssd1327.c ****       u8x8_cad_SendSequence(u8x8, u8x8_d_ssd1327_96x96_init_seq);    
 114:..\..\u8g2\csrc/u8x8_d_ssd1327.c ****       break;
 115:..\..\u8g2\csrc/u8x8_d_ssd1327.c ****     */
 116:..\..\u8g2\csrc/u8x8_d_ssd1327.c ****     case U8X8_MSG_DISPLAY_SET_POWER_SAVE:
 117:..\..\u8g2\csrc/u8x8_d_ssd1327.c ****       if ( arg_int == 0 )
 162              		.loc 1 117 0
 163 001c 002A     		cmp	r2, #0
ARM GAS  C:\Users\Alan\AppData\Local\Temp\ccNG9wnL.s 			page 6


 164 001e 04D1     		bne	.L16
 118:..\..\u8g2\csrc/u8x8_d_ssd1327.c **** 	u8x8_cad_SendSequence(u8x8, u8x8_d_ssd1327_96x96_powersave0_seq);
 165              		.loc 1 118 0
 166 0020 3349     		ldr	r1, .L21
 167              	.LVL20:
 168 0022 FFF7FEFF 		bl	u8x8_cad_SendSequence
 169              	.LVL21:
 119:..\..\u8g2\csrc/u8x8_d_ssd1327.c ****       else
 120:..\..\u8g2\csrc/u8x8_d_ssd1327.c **** 	u8x8_cad_SendSequence(u8x8, u8x8_d_ssd1327_96x96_powersave1_seq);
 121:..\..\u8g2\csrc/u8x8_d_ssd1327.c ****       break;
 122:..\..\u8g2\csrc/u8x8_d_ssd1327.c **** #ifdef U8X8_WITH_SET_CONTRAST
 123:..\..\u8g2\csrc/u8x8_d_ssd1327.c ****     case U8X8_MSG_DISPLAY_SET_CONTRAST:
 124:..\..\u8g2\csrc/u8x8_d_ssd1327.c ****       u8x8_cad_StartTransfer(u8x8);
 125:..\..\u8g2\csrc/u8x8_d_ssd1327.c ****       u8x8_cad_SendCmd(u8x8, 0x081 );
 126:..\..\u8g2\csrc/u8x8_d_ssd1327.c ****       u8x8_cad_SendArg(u8x8, arg_int );	/* ssd1327 has range from 0 to 255 */
 127:..\..\u8g2\csrc/u8x8_d_ssd1327.c ****       u8x8_cad_EndTransfer(u8x8);
 128:..\..\u8g2\csrc/u8x8_d_ssd1327.c ****       break;
 129:..\..\u8g2\csrc/u8x8_d_ssd1327.c **** #endif
 130:..\..\u8g2\csrc/u8x8_d_ssd1327.c ****     case U8X8_MSG_DISPLAY_DRAW_TILE:
 131:..\..\u8g2\csrc/u8x8_d_ssd1327.c ****       u8x8_cad_StartTransfer(u8x8);
 132:..\..\u8g2\csrc/u8x8_d_ssd1327.c ****       x = ((u8x8_tile_t *)arg_ptr)->x_pos;    
 133:..\..\u8g2\csrc/u8x8_d_ssd1327.c ****       x *= 4;
 134:..\..\u8g2\csrc/u8x8_d_ssd1327.c ****       x+=u8x8->x_offset/2;
 135:..\..\u8g2\csrc/u8x8_d_ssd1327.c ****     
 136:..\..\u8g2\csrc/u8x8_d_ssd1327.c ****       y = (((u8x8_tile_t *)arg_ptr)->y_pos);
 137:..\..\u8g2\csrc/u8x8_d_ssd1327.c ****       y *= 8;
 138:..\..\u8g2\csrc/u8x8_d_ssd1327.c ****     
 139:..\..\u8g2\csrc/u8x8_d_ssd1327.c ****       
 140:..\..\u8g2\csrc/u8x8_d_ssd1327.c ****       do
 141:..\..\u8g2\csrc/u8x8_d_ssd1327.c ****       {
 142:..\..\u8g2\csrc/u8x8_d_ssd1327.c **** 	c = ((u8x8_tile_t *)arg_ptr)->cnt;
 143:..\..\u8g2\csrc/u8x8_d_ssd1327.c **** 	ptr = ((u8x8_tile_t *)arg_ptr)->tile_ptr;
 144:..\..\u8g2\csrc/u8x8_d_ssd1327.c **** 
 145:..\..\u8g2\csrc/u8x8_d_ssd1327.c **** 	do
 146:..\..\u8g2\csrc/u8x8_d_ssd1327.c **** 	{
 147:..\..\u8g2\csrc/u8x8_d_ssd1327.c **** 	  u8x8_cad_SendCmd(u8x8, 0x015 );	/* set column address */
 148:..\..\u8g2\csrc/u8x8_d_ssd1327.c **** 	  u8x8_cad_SendArg(u8x8, x );	/* start */
 149:..\..\u8g2\csrc/u8x8_d_ssd1327.c **** 	  u8x8_cad_SendArg(u8x8, x+3 );	/* end */
 150:..\..\u8g2\csrc/u8x8_d_ssd1327.c **** 
 151:..\..\u8g2\csrc/u8x8_d_ssd1327.c **** 	  u8x8_cad_SendCmd(u8x8, 0x075 );	/* set row address */
 152:..\..\u8g2\csrc/u8x8_d_ssd1327.c **** 	  u8x8_cad_SendArg(u8x8, y);
 153:..\..\u8g2\csrc/u8x8_d_ssd1327.c **** 	  u8x8_cad_SendArg(u8x8, y+7);
 154:..\..\u8g2\csrc/u8x8_d_ssd1327.c **** 	  
 155:..\..\u8g2\csrc/u8x8_d_ssd1327.c **** 	  
 156:..\..\u8g2\csrc/u8x8_d_ssd1327.c **** 	  u8x8_cad_SendData(u8x8, 32, u8x8_ssd1327_8to32(u8x8, ptr));
 157:..\..\u8g2\csrc/u8x8_d_ssd1327.c **** 	  ptr += 8;
 158:..\..\u8g2\csrc/u8x8_d_ssd1327.c **** 	  x += 4;
 159:..\..\u8g2\csrc/u8x8_d_ssd1327.c **** 	  c--;
 160:..\..\u8g2\csrc/u8x8_d_ssd1327.c **** 	} while( c > 0 );
 161:..\..\u8g2\csrc/u8x8_d_ssd1327.c **** 	
 162:..\..\u8g2\csrc/u8x8_d_ssd1327.c **** 	//x += 4;
 163:..\..\u8g2\csrc/u8x8_d_ssd1327.c **** 	arg_int--;
 164:..\..\u8g2\csrc/u8x8_d_ssd1327.c ****       } while( arg_int > 0 );
 165:..\..\u8g2\csrc/u8x8_d_ssd1327.c ****       
 166:..\..\u8g2\csrc/u8x8_d_ssd1327.c ****       u8x8_cad_EndTransfer(u8x8);
 167:..\..\u8g2\csrc/u8x8_d_ssd1327.c ****       break;
 168:..\..\u8g2\csrc/u8x8_d_ssd1327.c ****     default:
ARM GAS  C:\Users\Alan\AppData\Local\Temp\ccNG9wnL.s 			page 7


 169:..\..\u8g2\csrc/u8x8_d_ssd1327.c ****       return 0;
 170:..\..\u8g2\csrc/u8x8_d_ssd1327.c ****   }
 171:..\..\u8g2\csrc/u8x8_d_ssd1327.c ****   return 1;
 170              		.loc 1 171 0
 171 0026 0120     		movs	r0, #1
 172 0028 5DE0     		b	.L12
 173              	.LVL22:
 174              	.L16:
 120:..\..\u8g2\csrc/u8x8_d_ssd1327.c ****       break;
 175              		.loc 1 120 0
 176 002a 3149     		ldr	r1, .L21
 177              	.LVL23:
 178 002c 0831     		adds	r1, r1, #8
 179 002e FFF7FEFF 		bl	u8x8_cad_SendSequence
 180              	.LVL24:
 181              		.loc 1 171 0
 182 0032 0120     		movs	r0, #1
 183 0034 57E0     		b	.L12
 184              	.LVL25:
 185              	.L13:
 124:..\..\u8g2\csrc/u8x8_d_ssd1327.c ****       u8x8_cad_SendCmd(u8x8, 0x081 );
 186              		.loc 1 124 0
 187 0036 FFF7FEFF 		bl	u8x8_cad_StartTransfer
 188              	.LVL26:
 125:..\..\u8g2\csrc/u8x8_d_ssd1327.c ****       u8x8_cad_SendArg(u8x8, arg_int );	/* ssd1327 has range from 0 to 255 */
 189              		.loc 1 125 0
 190 003a 8121     		movs	r1, #129
 191 003c 2000     		movs	r0, r4
 192 003e FFF7FEFF 		bl	u8x8_cad_SendCmd
 193              	.LVL27:
 126:..\..\u8g2\csrc/u8x8_d_ssd1327.c ****       u8x8_cad_EndTransfer(u8x8);
 194              		.loc 1 126 0
 195 0042 4946     		mov	r1, r9
 196 0044 2000     		movs	r0, r4
 197 0046 FFF7FEFF 		bl	u8x8_cad_SendArg
 198              	.LVL28:
 127:..\..\u8g2\csrc/u8x8_d_ssd1327.c ****       break;
 199              		.loc 1 127 0
 200 004a 2000     		movs	r0, r4
 201 004c FFF7FEFF 		bl	u8x8_cad_EndTransfer
 202              	.LVL29:
 203              		.loc 1 171 0
 204 0050 0120     		movs	r0, #1
 128:..\..\u8g2\csrc/u8x8_d_ssd1327.c **** #endif
 205              		.loc 1 128 0
 206 0052 48E0     		b	.L12
 207              	.LVL30:
 208              	.L14:
 131:..\..\u8g2\csrc/u8x8_d_ssd1327.c ****       x = ((u8x8_tile_t *)arg_ptr)->x_pos;    
 209              		.loc 1 131 0
 210 0054 FFF7FEFF 		bl	u8x8_cad_StartTransfer
 211              	.LVL31:
 132:..\..\u8g2\csrc/u8x8_d_ssd1327.c ****       x *= 4;
 212              		.loc 1 132 0
 213 0058 5346     		mov	r3, r10
 214 005a 5D79     		ldrb	r5, [r3, #5]
 215              	.LVL32:
ARM GAS  C:\Users\Alan\AppData\Local\Temp\ccNG9wnL.s 			page 8


 133:..\..\u8g2\csrc/u8x8_d_ssd1327.c ****       x+=u8x8->x_offset/2;
 216              		.loc 1 133 0
 217 005c AD00     		lsls	r5, r5, #2
 218              	.LVL33:
 219 005e EBB2     		uxtb	r3, r5
 220              	.LVL34:
 134:..\..\u8g2\csrc/u8x8_d_ssd1327.c ****     
 221              		.loc 1 134 0
 222 0060 A57F     		ldrb	r5, [r4, #30]
 223 0062 6D08     		lsrs	r5, r5, #1
 224 0064 5D19     		adds	r5, r3, r5
 225 0066 EDB2     		uxtb	r5, r5
 226              	.LVL35:
 136:..\..\u8g2\csrc/u8x8_d_ssd1327.c ****       y *= 8;
 227              		.loc 1 136 0
 228 0068 5346     		mov	r3, r10
 229 006a 9B79     		ldrb	r3, [r3, #6]
 230              	.LVL36:
 137:..\..\u8g2\csrc/u8x8_d_ssd1327.c ****     
 231              		.loc 1 137 0
 232 006c DB00     		lsls	r3, r3, #3
 233              	.LVL37:
 234 006e DBB2     		uxtb	r3, r3
 235 0070 9846     		mov	r8, r3
 236              	.LVL38:
 237              	.L18:
 142:..\..\u8g2\csrc/u8x8_d_ssd1327.c **** 	ptr = ((u8x8_tile_t *)arg_ptr)->tile_ptr;
 238              		.loc 1 142 0
 239 0072 5346     		mov	r3, r10
 240 0074 1E79     		ldrb	r6, [r3, #4]
 241              	.LVL39:
 143:..\..\u8g2\csrc/u8x8_d_ssd1327.c **** 
 242              		.loc 1 143 0
 243 0076 1F68     		ldr	r7, [r3]
 244              	.LVL40:
 245              	.L17:
 147:..\..\u8g2\csrc/u8x8_d_ssd1327.c **** 	  u8x8_cad_SendArg(u8x8, x );	/* start */
 246              		.loc 1 147 0 discriminator 1
 247 0078 1521     		movs	r1, #21
 248 007a 2000     		movs	r0, r4
 249 007c FFF7FEFF 		bl	u8x8_cad_SendCmd
 250              	.LVL41:
 148:..\..\u8g2\csrc/u8x8_d_ssd1327.c **** 	  u8x8_cad_SendArg(u8x8, x+3 );	/* end */
 251              		.loc 1 148 0 discriminator 1
 252 0080 2900     		movs	r1, r5
 253 0082 2000     		movs	r0, r4
 254 0084 FFF7FEFF 		bl	u8x8_cad_SendArg
 255              	.LVL42:
 149:..\..\u8g2\csrc/u8x8_d_ssd1327.c **** 
 256              		.loc 1 149 0 discriminator 1
 257 0088 E91C     		adds	r1, r5, #3
 258 008a C9B2     		uxtb	r1, r1
 259 008c 2000     		movs	r0, r4
 260 008e FFF7FEFF 		bl	u8x8_cad_SendArg
 261              	.LVL43:
 151:..\..\u8g2\csrc/u8x8_d_ssd1327.c **** 	  u8x8_cad_SendArg(u8x8, y);
 262              		.loc 1 151 0 discriminator 1
ARM GAS  C:\Users\Alan\AppData\Local\Temp\ccNG9wnL.s 			page 9


 263 0092 7521     		movs	r1, #117
 264 0094 2000     		movs	r0, r4
 265 0096 FFF7FEFF 		bl	u8x8_cad_SendCmd
 266              	.LVL44:
 152:..\..\u8g2\csrc/u8x8_d_ssd1327.c **** 	  u8x8_cad_SendArg(u8x8, y+7);
 267              		.loc 1 152 0 discriminator 1
 268 009a 4146     		mov	r1, r8
 269 009c 2000     		movs	r0, r4
 270 009e FFF7FEFF 		bl	u8x8_cad_SendArg
 271              	.LVL45:
 153:..\..\u8g2\csrc/u8x8_d_ssd1327.c **** 	  
 272              		.loc 1 153 0 discriminator 1
 273 00a2 4346     		mov	r3, r8
 274 00a4 D91D     		adds	r1, r3, #7
 275 00a6 C9B2     		uxtb	r1, r1
 276 00a8 2000     		movs	r0, r4
 277 00aa FFF7FEFF 		bl	u8x8_cad_SendArg
 278              	.LVL46:
 156:..\..\u8g2\csrc/u8x8_d_ssd1327.c **** 	  ptr += 8;
 279              		.loc 1 156 0 discriminator 1
 280 00ae 3900     		movs	r1, r7
 281 00b0 2000     		movs	r0, r4
 282 00b2 FFF7FEFF 		bl	u8x8_ssd1327_8to32
 283              	.LVL47:
 284 00b6 0200     		movs	r2, r0
 285 00b8 2021     		movs	r1, #32
 286 00ba 2000     		movs	r0, r4
 287 00bc FFF7FEFF 		bl	u8x8_cad_SendData
 288              	.LVL48:
 157:..\..\u8g2\csrc/u8x8_d_ssd1327.c **** 	  x += 4;
 289              		.loc 1 157 0 discriminator 1
 290 00c0 0837     		adds	r7, r7, #8
 291              	.LVL49:
 158:..\..\u8g2\csrc/u8x8_d_ssd1327.c **** 	  c--;
 292              		.loc 1 158 0 discriminator 1
 293 00c2 0435     		adds	r5, r5, #4
 294              	.LVL50:
 295 00c4 EDB2     		uxtb	r5, r5
 296              	.LVL51:
 159:..\..\u8g2\csrc/u8x8_d_ssd1327.c **** 	} while( c > 0 );
 297              		.loc 1 159 0 discriminator 1
 298 00c6 013E     		subs	r6, r6, #1
 299              	.LVL52:
 300 00c8 F6B2     		uxtb	r6, r6
 301              	.LVL53:
 160:..\..\u8g2\csrc/u8x8_d_ssd1327.c **** 	
 302              		.loc 1 160 0 discriminator 1
 303 00ca 002E     		cmp	r6, #0
 304 00cc D4D1     		bne	.L17
 163:..\..\u8g2\csrc/u8x8_d_ssd1327.c ****       } while( arg_int > 0 );
 305              		.loc 1 163 0
 306 00ce 4B46     		mov	r3, r9
 307 00d0 013B     		subs	r3, r3, #1
 308 00d2 DBB2     		uxtb	r3, r3
 309 00d4 9946     		mov	r9, r3
 310              	.LVL54:
 164:..\..\u8g2\csrc/u8x8_d_ssd1327.c ****       
ARM GAS  C:\Users\Alan\AppData\Local\Temp\ccNG9wnL.s 			page 10


 311              		.loc 1 164 0
 312 00d6 002B     		cmp	r3, #0
 313 00d8 CBD1     		bne	.L18
 166:..\..\u8g2\csrc/u8x8_d_ssd1327.c ****       break;
 314              		.loc 1 166 0
 315 00da 2000     		movs	r0, r4
 316 00dc FFF7FEFF 		bl	u8x8_cad_EndTransfer
 317              	.LVL55:
 318              		.loc 1 171 0
 319 00e0 0120     		movs	r0, #1
 167:..\..\u8g2\csrc/u8x8_d_ssd1327.c ****     default:
 320              		.loc 1 167 0
 321 00e2 00E0     		b	.L12
 322              	.LVL56:
 323              	.L20:
 169:..\..\u8g2\csrc/u8x8_d_ssd1327.c ****   }
 324              		.loc 1 169 0
 325 00e4 0020     		movs	r0, #0
 326              	.LVL57:
 327              	.L12:
 172:..\..\u8g2\csrc/u8x8_d_ssd1327.c **** }
 328              		.loc 1 172 0
 329              		@ sp needed
 330              	.LVL58:
 331              	.LVL59:
 332 00e6 1CBC     		pop	{r2, r3, r4}
 333 00e8 9046     		mov	r8, r2
 334 00ea 9946     		mov	r9, r3
 335 00ec A246     		mov	r10, r4
 336 00ee F0BD     		pop	{r4, r5, r6, r7, pc}
 337              	.L22:
 338              		.align	2
 339              	.L21:
 340 00f0 00000000 		.word	.LANCHOR1
 341              		.cfi_endproc
 342              	.LFE1:
 343              		.size	u8x8_d_ssd1327_96x96_generic, .-u8x8_d_ssd1327_96x96_generic
 344              		.section	.text.u8x8_d_ssd1327_seeed_96x96,"ax",%progbits
 345              		.align	2
 346              		.global	u8x8_d_ssd1327_seeed_96x96
 347              		.code	16
 348              		.thumb_func
 349              		.type	u8x8_d_ssd1327_seeed_96x96, %function
 350              	u8x8_d_ssd1327_seeed_96x96:
 351              	.LFB2:
 173:..\..\u8g2\csrc/u8x8_d_ssd1327.c **** 
 174:..\..\u8g2\csrc/u8x8_d_ssd1327.c **** /*=============================================*/
 175:..\..\u8g2\csrc/u8x8_d_ssd1327.c **** /*  Seeedstudio Grove OLED 96x96 */
 176:..\..\u8g2\csrc/u8x8_d_ssd1327.c **** 
 177:..\..\u8g2\csrc/u8x8_d_ssd1327.c **** static const u8x8_display_info_t u8x8_ssd1327_96x96_display_info =
 178:..\..\u8g2\csrc/u8x8_d_ssd1327.c **** {
 179:..\..\u8g2\csrc/u8x8_d_ssd1327.c ****   /* chip_enable_level = */ 0,
 180:..\..\u8g2\csrc/u8x8_d_ssd1327.c ****   /* chip_disable_level = */ 1,
 181:..\..\u8g2\csrc/u8x8_d_ssd1327.c ****   
 182:..\..\u8g2\csrc/u8x8_d_ssd1327.c ****   /* post_chip_enable_wait_ns = */ 20,
 183:..\..\u8g2\csrc/u8x8_d_ssd1327.c ****   /* pre_chip_disable_wait_ns = */ 10,
 184:..\..\u8g2\csrc/u8x8_d_ssd1327.c ****   /* reset_pulse_width_ms = */ 100, 	
ARM GAS  C:\Users\Alan\AppData\Local\Temp\ccNG9wnL.s 			page 11


 185:..\..\u8g2\csrc/u8x8_d_ssd1327.c ****   /* post_reset_wait_ms = */ 100, 		/**/
 186:..\..\u8g2\csrc/u8x8_d_ssd1327.c ****   /* sda_setup_time_ns = */ 100,		/* */
 187:..\..\u8g2\csrc/u8x8_d_ssd1327.c ****   /* sck_pulse_width_ns = */ 100,	/*  */
 188:..\..\u8g2\csrc/u8x8_d_ssd1327.c ****   /* sck_clock_hz = */ 4000000UL,	/* since Arduino 1.6.0, the SPI bus speed in Hz. Should be  10000
 189:..\..\u8g2\csrc/u8x8_d_ssd1327.c ****   /* spi_mode = */ 0,		/* active high, rising edge */
 190:..\..\u8g2\csrc/u8x8_d_ssd1327.c ****   /* i2c_bus_clock_100kHz = */ 1,	/* use 1 instead of 4, because the SSD1327 seems to be very slow 
 191:..\..\u8g2\csrc/u8x8_d_ssd1327.c ****   /* data_setup_time_ns = */ 40,
 192:..\..\u8g2\csrc/u8x8_d_ssd1327.c ****   /* write_pulse_width_ns = */ 60,	
 193:..\..\u8g2\csrc/u8x8_d_ssd1327.c ****   /* tile_width = */ 12,
 194:..\..\u8g2\csrc/u8x8_d_ssd1327.c ****   /* tile_hight = */ 12,
 195:..\..\u8g2\csrc/u8x8_d_ssd1327.c ****   /* default_x_offset = */ 16,
 196:..\..\u8g2\csrc/u8x8_d_ssd1327.c ****   /* flipmode_x_offset = */ 16,		
 197:..\..\u8g2\csrc/u8x8_d_ssd1327.c ****   /* pixel_width = */ 96,
 198:..\..\u8g2\csrc/u8x8_d_ssd1327.c ****   /* pixel_height = */ 96
 199:..\..\u8g2\csrc/u8x8_d_ssd1327.c **** };
 200:..\..\u8g2\csrc/u8x8_d_ssd1327.c **** 
 201:..\..\u8g2\csrc/u8x8_d_ssd1327.c **** /*  https://github.com/SeeedDocument/Grove_OLED_1.12/raw/master/resources/LY120-096096.pdf */
 202:..\..\u8g2\csrc/u8x8_d_ssd1327.c **** /*  http://www.seeedstudio.com/wiki/index.php?title=Twig_-_OLED_96x96 */
 203:..\..\u8g2\csrc/u8x8_d_ssd1327.c **** /* values from u8glib */
 204:..\..\u8g2\csrc/u8x8_d_ssd1327.c **** /*
 205:..\..\u8g2\csrc/u8x8_d_ssd1327.c ****   Re-map setting in Graphic Display Data RAM, command 0x0a0
 206:..\..\u8g2\csrc/u8x8_d_ssd1327.c ****     Bit 0: Column Address Re-map
 207:..\..\u8g2\csrc/u8x8_d_ssd1327.c ****     Bit 1: Nibble Re-map
 208:..\..\u8g2\csrc/u8x8_d_ssd1327.c ****     Bit 2: Horizontal/Vertical Address Increment
 209:..\..\u8g2\csrc/u8x8_d_ssd1327.c ****     Bit 3: Not used, must be 0
 210:..\..\u8g2\csrc/u8x8_d_ssd1327.c ****     
 211:..\..\u8g2\csrc/u8x8_d_ssd1327.c ****     Bit 4: COM Re-map
 212:..\..\u8g2\csrc/u8x8_d_ssd1327.c ****     Bit 5: Not used, must be 0
 213:..\..\u8g2\csrc/u8x8_d_ssd1327.c ****     Bit 6: COM Split Odd Even
 214:..\..\u8g2\csrc/u8x8_d_ssd1327.c ****     Bit 7: Not used, must be 0
 215:..\..\u8g2\csrc/u8x8_d_ssd1327.c **** */
 216:..\..\u8g2\csrc/u8x8_d_ssd1327.c **** 
 217:..\..\u8g2\csrc/u8x8_d_ssd1327.c **** 
 218:..\..\u8g2\csrc/u8x8_d_ssd1327.c **** static const uint8_t u8x8_d_ssd1327_96x96_init_seq[] = {
 219:..\..\u8g2\csrc/u8x8_d_ssd1327.c ****     
 220:..\..\u8g2\csrc/u8x8_d_ssd1327.c ****   U8X8_START_TRANSFER(),             	/* enable chip, delay is part of the transfer start */
 221:..\..\u8g2\csrc/u8x8_d_ssd1327.c ****   
 222:..\..\u8g2\csrc/u8x8_d_ssd1327.c ****   U8X8_CA(0x0fd, 0x012),		/* unlock display, usually not required because the display is unlocked a
 223:..\..\u8g2\csrc/u8x8_d_ssd1327.c ****   U8X8_C(0x0ae),		                /* display off */
 224:..\..\u8g2\csrc/u8x8_d_ssd1327.c ****   //U8X8_CA(0x0a8, 0x03f),		/* multiplex ratio: 0x03f * 1/64 duty */
 225:..\..\u8g2\csrc/u8x8_d_ssd1327.c ****   U8X8_CA(0x0a8, 0x05f),		/* multiplex ratio: 0x05f * 1/64 duty */
 226:..\..\u8g2\csrc/u8x8_d_ssd1327.c ****   U8X8_CA(0x0a1, 0x000),		/* display start line */
 227:..\..\u8g2\csrc/u8x8_d_ssd1327.c ****   //U8X8_CA(0x0a2, 0x04c),		/* display offset, shift mapping ram counter */
 228:..\..\u8g2\csrc/u8x8_d_ssd1327.c ****   
 229:..\..\u8g2\csrc/u8x8_d_ssd1327.c ****   U8X8_CA(0x0a2, 0x020),		/* display offset, shift mapping ram counter */
 230:..\..\u8g2\csrc/u8x8_d_ssd1327.c ****   U8X8_CA(0x0a0, 0x051),		/* remap configuration */
 231:..\..\u8g2\csrc/u8x8_d_ssd1327.c ****   
 232:..\..\u8g2\csrc/u8x8_d_ssd1327.c ****   
 233:..\..\u8g2\csrc/u8x8_d_ssd1327.c ****   U8X8_CA(0x0ab, 0x001),		/* Enable internal VDD regulator (RESET) */
 234:..\..\u8g2\csrc/u8x8_d_ssd1327.c ****   //U8X8_CA(0x081, 0x070),		/* contrast, brightness, 0..128 */
 235:..\..\u8g2\csrc/u8x8_d_ssd1327.c ****   U8X8_CA(0x081, 0x053),		/* contrast, brightness, 0..128 */
 236:..\..\u8g2\csrc/u8x8_d_ssd1327.c ****   //U8X8_CA(0x0b1, 0x055),                    /* phase length */
 237:..\..\u8g2\csrc/u8x8_d_ssd1327.c ****   U8X8_CA(0x0b1, 0x051),                    /* phase length */  
 238:..\..\u8g2\csrc/u8x8_d_ssd1327.c ****   //U8X8_CA(0x0b3, 0x091),		/* set display clock divide ratio/oscillator frequency (set clock as 13
 239:..\..\u8g2\csrc/u8x8_d_ssd1327.c ****   U8X8_CA(0x0b3, 0x001),		/* set display clock divide ratio/oscillator frequency  */			
 240:..\..\u8g2\csrc/u8x8_d_ssd1327.c ****   
 241:..\..\u8g2\csrc/u8x8_d_ssd1327.c ****   //? U8X8_CA(0x0ad, 0x002),		/* master configuration: disable embedded DC-DC, enable internal VCOM
ARM GAS  C:\Users\Alan\AppData\Local\Temp\ccNG9wnL.s 			page 12


 242:..\..\u8g2\csrc/u8x8_d_ssd1327.c ****   //? U8X8_C(0x086),				/* full current range (0x084, 0x085, 0x086) */
 243:..\..\u8g2\csrc/u8x8_d_ssd1327.c ****   
 244:..\..\u8g2\csrc/u8x8_d_ssd1327.c ****   U8X8_C(0x0b9),				/* use linear lookup table */
 245:..\..\u8g2\csrc/u8x8_d_ssd1327.c **** 
 246:..\..\u8g2\csrc/u8x8_d_ssd1327.c ****   //U8X8_CA(0x0bc, 0x010),                    /* pre-charge voltage level */
 247:..\..\u8g2\csrc/u8x8_d_ssd1327.c ****   U8X8_CA(0x0bc, 0x008),                    /* pre-charge voltage level */
 248:..\..\u8g2\csrc/u8x8_d_ssd1327.c ****   //U8X8_CA(0x0be, 0x01c),                     /* VCOMH voltage */
 249:..\..\u8g2\csrc/u8x8_d_ssd1327.c ****   U8X8_CA(0x0be, 0x007),                     /* VCOMH voltage */
 250:..\..\u8g2\csrc/u8x8_d_ssd1327.c ****   U8X8_CA(0x0b6, 0x001),		/* second precharge */
 251:..\..\u8g2\csrc/u8x8_d_ssd1327.c ****   U8X8_CA(0x0d5, 0x062),		/* enable second precharge, internal vsl (bit0 = 0) */
 252:..\..\u8g2\csrc/u8x8_d_ssd1327.c **** 
 253:..\..\u8g2\csrc/u8x8_d_ssd1327.c **** 
 254:..\..\u8g2\csrc/u8x8_d_ssd1327.c ****   
 255:..\..\u8g2\csrc/u8x8_d_ssd1327.c ****   U8X8_C(0x0a4),				/* normal display mode */
 256:..\..\u8g2\csrc/u8x8_d_ssd1327.c ****     
 257:..\..\u8g2\csrc/u8x8_d_ssd1327.c ****   U8X8_END_TRANSFER(),             	/* disable chip */
 258:..\..\u8g2\csrc/u8x8_d_ssd1327.c ****   U8X8_END()             			/* end of sequence */
 259:..\..\u8g2\csrc/u8x8_d_ssd1327.c **** };
 260:..\..\u8g2\csrc/u8x8_d_ssd1327.c **** 
 261:..\..\u8g2\csrc/u8x8_d_ssd1327.c **** 
 262:..\..\u8g2\csrc/u8x8_d_ssd1327.c **** static const uint8_t u8x8_d_ssd1327_seeed_96x96_flip0_seq[] = {
 263:..\..\u8g2\csrc/u8x8_d_ssd1327.c ****   U8X8_START_TRANSFER(),             	/* enable chip, delay is part of the transfer start */
 264:..\..\u8g2\csrc/u8x8_d_ssd1327.c ****   U8X8_CA(0x0a2, 0x020),		/* display offset, shift mapping ram counter */
 265:..\..\u8g2\csrc/u8x8_d_ssd1327.c ****   U8X8_CA(0x0a0, 0x051),		/* remap configuration */
 266:..\..\u8g2\csrc/u8x8_d_ssd1327.c ****   U8X8_END_TRANSFER(),             	/* disable chip */
 267:..\..\u8g2\csrc/u8x8_d_ssd1327.c ****   U8X8_END()             			/* end of sequence */
 268:..\..\u8g2\csrc/u8x8_d_ssd1327.c **** };
 269:..\..\u8g2\csrc/u8x8_d_ssd1327.c **** 
 270:..\..\u8g2\csrc/u8x8_d_ssd1327.c **** static const uint8_t u8x8_d_ssd1327_seeed_96x96_flip1_seq[] = {
 271:..\..\u8g2\csrc/u8x8_d_ssd1327.c ****   U8X8_START_TRANSFER(),             	/* enable chip, delay is part of the transfer start */
 272:..\..\u8g2\csrc/u8x8_d_ssd1327.c ****   U8X8_CA(0x0a2, 0x060),		/* display offset, shift mapping ram counter */
 273:..\..\u8g2\csrc/u8x8_d_ssd1327.c ****   U8X8_CA(0x0a0, 0x042),		/* remap configuration */
 274:..\..\u8g2\csrc/u8x8_d_ssd1327.c ****   U8X8_END_TRANSFER(),             	/* disable chip */
 275:..\..\u8g2\csrc/u8x8_d_ssd1327.c ****   U8X8_END()             			/* end of sequence */
 276:..\..\u8g2\csrc/u8x8_d_ssd1327.c **** };
 277:..\..\u8g2\csrc/u8x8_d_ssd1327.c **** 
 278:..\..\u8g2\csrc/u8x8_d_ssd1327.c **** 
 279:..\..\u8g2\csrc/u8x8_d_ssd1327.c **** uint8_t u8x8_d_ssd1327_seeed_96x96(u8x8_t *u8x8, uint8_t msg, uint8_t arg_int, void *arg_ptr)
 280:..\..\u8g2\csrc/u8x8_d_ssd1327.c **** {
 352              		.loc 1 280 0
 353              		.cfi_startproc
 354              		@ args = 0, pretend = 0, frame = 0
 355              		@ frame_needed = 0, uses_anonymous_args = 0
 356              	.LVL60:
 357 0000 70B5     		push	{r4, r5, r6, lr}
 358              		.cfi_def_cfa_offset 16
 359              		.cfi_offset 4, -16
 360              		.cfi_offset 5, -12
 361              		.cfi_offset 6, -8
 362              		.cfi_offset 14, -4
 363 0002 0400     		movs	r4, r0
 364 0004 0E00     		movs	r6, r1
 365 0006 1500     		movs	r5, r2
 281:..\..\u8g2\csrc/u8x8_d_ssd1327.c ****   if ( u8x8_d_ssd1327_96x96_generic(u8x8, msg, arg_int, arg_ptr) != 0 )
 366              		.loc 1 281 0
 367 0008 FFF7FEFF 		bl	u8x8_d_ssd1327_96x96_generic
 368              	.LVL61:
ARM GAS  C:\Users\Alan\AppData\Local\Temp\ccNG9wnL.s 			page 13


 369 000c 0028     		cmp	r0, #0
 370 000e 2CD1     		bne	.L28
 282:..\..\u8g2\csrc/u8x8_d_ssd1327.c ****     return 1;
 283:..\..\u8g2\csrc/u8x8_d_ssd1327.c ****   if ( msg == U8X8_MSG_DISPLAY_SETUP_MEMORY )
 371              		.loc 1 283 0
 372 0010 092E     		cmp	r6, #9
 373 0012 06D1     		bne	.L25
 284:..\..\u8g2\csrc/u8x8_d_ssd1327.c ****   {
 285:..\..\u8g2\csrc/u8x8_d_ssd1327.c ****     u8x8_d_helper_display_setup_memory(u8x8, &u8x8_ssd1327_96x96_display_info);
 374              		.loc 1 285 0
 375 0014 1649     		ldr	r1, .L29
 376 0016 1031     		adds	r1, r1, #16
 377 0018 2000     		movs	r0, r4
 378 001a FFF7FEFF 		bl	u8x8_d_helper_display_setup_memory
 379              	.LVL62:
 286:..\..\u8g2\csrc/u8x8_d_ssd1327.c ****     return 1;
 380              		.loc 1 286 0
 381 001e 0120     		movs	r0, #1
 382 0020 24E0     		b	.L24
 383              	.L25:
 287:..\..\u8g2\csrc/u8x8_d_ssd1327.c ****   }
 288:..\..\u8g2\csrc/u8x8_d_ssd1327.c ****   else if ( msg == U8X8_MSG_DISPLAY_INIT )
 384              		.loc 1 288 0
 385 0022 0A2E     		cmp	r6, #10
 386 0024 09D1     		bne	.L26
 289:..\..\u8g2\csrc/u8x8_d_ssd1327.c ****   {
 290:..\..\u8g2\csrc/u8x8_d_ssd1327.c ****     u8x8_d_helper_display_init(u8x8);
 387              		.loc 1 290 0
 388 0026 2000     		movs	r0, r4
 389 0028 FFF7FEFF 		bl	u8x8_d_helper_display_init
 390              	.LVL63:
 291:..\..\u8g2\csrc/u8x8_d_ssd1327.c ****     u8x8_cad_SendSequence(u8x8, u8x8_d_ssd1327_96x96_init_seq);    
 391              		.loc 1 291 0
 392 002c 1049     		ldr	r1, .L29
 393 002e 2831     		adds	r1, r1, #40
 394 0030 2000     		movs	r0, r4
 395 0032 FFF7FEFF 		bl	u8x8_cad_SendSequence
 396              	.LVL64:
 292:..\..\u8g2\csrc/u8x8_d_ssd1327.c ****     return 1;
 397              		.loc 1 292 0
 398 0036 0120     		movs	r0, #1
 399 0038 18E0     		b	.L24
 400              	.L26:
 293:..\..\u8g2\csrc/u8x8_d_ssd1327.c ****   }
 294:..\..\u8g2\csrc/u8x8_d_ssd1327.c ****   else if  ( msg == U8X8_MSG_DISPLAY_SET_FLIP_MODE )
 401              		.loc 1 294 0
 402 003a 0D2E     		cmp	r6, #13
 403 003c 16D1     		bne	.L24
 295:..\..\u8g2\csrc/u8x8_d_ssd1327.c ****   {
 296:..\..\u8g2\csrc/u8x8_d_ssd1327.c ****     if ( arg_int == 0 )
 404              		.loc 1 296 0
 405 003e 002D     		cmp	r5, #0
 406 0040 09D1     		bne	.L27
 297:..\..\u8g2\csrc/u8x8_d_ssd1327.c ****     {
 298:..\..\u8g2\csrc/u8x8_d_ssd1327.c ****       u8x8_cad_SendSequence(u8x8, u8x8_d_ssd1327_seeed_96x96_flip0_seq);
 407              		.loc 1 298 0
 408 0042 0B49     		ldr	r1, .L29
ARM GAS  C:\Users\Alan\AppData\Local\Temp\ccNG9wnL.s 			page 14


 409 0044 6831     		adds	r1, r1, #104
 410 0046 2000     		movs	r0, r4
 411 0048 FFF7FEFF 		bl	u8x8_cad_SendSequence
 412              	.LVL65:
 299:..\..\u8g2\csrc/u8x8_d_ssd1327.c ****       u8x8->x_offset = u8x8->display_info->default_x_offset;
 413              		.loc 1 299 0
 414 004c 2368     		ldr	r3, [r4]
 415 004e 9B7C     		ldrb	r3, [r3, #18]
 416 0050 A377     		strb	r3, [r4, #30]
 300:..\..\u8g2\csrc/u8x8_d_ssd1327.c ****     }
 301:..\..\u8g2\csrc/u8x8_d_ssd1327.c ****     else
 302:..\..\u8g2\csrc/u8x8_d_ssd1327.c ****     {
 303:..\..\u8g2\csrc/u8x8_d_ssd1327.c ****       u8x8_cad_SendSequence(u8x8, u8x8_d_ssd1327_seeed_96x96_flip1_seq);
 304:..\..\u8g2\csrc/u8x8_d_ssd1327.c ****       u8x8->x_offset = u8x8->display_info->flipmode_x_offset;
 305:..\..\u8g2\csrc/u8x8_d_ssd1327.c ****     }
 306:..\..\u8g2\csrc/u8x8_d_ssd1327.c ****     return 1;
 417              		.loc 1 306 0
 418 0052 0120     		movs	r0, #1
 419 0054 0AE0     		b	.L24
 420              	.L27:
 303:..\..\u8g2\csrc/u8x8_d_ssd1327.c ****       u8x8->x_offset = u8x8->display_info->flipmode_x_offset;
 421              		.loc 1 303 0
 422 0056 0649     		ldr	r1, .L29
 423 0058 7431     		adds	r1, r1, #116
 424 005a 2000     		movs	r0, r4
 425 005c FFF7FEFF 		bl	u8x8_cad_SendSequence
 426              	.LVL66:
 304:..\..\u8g2\csrc/u8x8_d_ssd1327.c ****     }
 427              		.loc 1 304 0
 428 0060 2368     		ldr	r3, [r4]
 429 0062 DB7C     		ldrb	r3, [r3, #19]
 430 0064 A377     		strb	r3, [r4, #30]
 431              		.loc 1 306 0
 432 0066 0120     		movs	r0, #1
 433 0068 00E0     		b	.L24
 434              	.L28:
 282:..\..\u8g2\csrc/u8x8_d_ssd1327.c ****   if ( msg == U8X8_MSG_DISPLAY_SETUP_MEMORY )
 435              		.loc 1 282 0
 436 006a 0120     		movs	r0, #1
 437              	.L24:
 307:..\..\u8g2\csrc/u8x8_d_ssd1327.c ****   }
 308:..\..\u8g2\csrc/u8x8_d_ssd1327.c ****   return 0;
 309:..\..\u8g2\csrc/u8x8_d_ssd1327.c **** }
 438              		.loc 1 309 0
 439              		@ sp needed
 440              	.LVL67:
 441 006c 70BD     		pop	{r4, r5, r6, pc}
 442              	.L30:
 443 006e C046     		.align	2
 444              	.L29:
 445 0070 00000000 		.word	.LANCHOR1
 446              		.cfi_endproc
 447              	.LFE2:
 448              		.size	u8x8_d_ssd1327_seeed_96x96, .-u8x8_d_ssd1327_seeed_96x96
 449              		.section	.rodata
 450              		.align	2
 451              		.set	.LANCHOR1,. + 0
ARM GAS  C:\Users\Alan\AppData\Local\Temp\ccNG9wnL.s 			page 15


 452              		.type	u8x8_d_ssd1327_96x96_powersave0_seq, %object
 453              		.size	u8x8_d_ssd1327_96x96_powersave0_seq, 5
 454              	u8x8_d_ssd1327_96x96_powersave0_seq:
 455 0000 18       		.byte	24
 456 0001 15       		.byte	21
 457 0002 AF       		.byte	-81
 458 0003 19       		.byte	25
 459 0004 FF       		.byte	-1
 460 0005 000000   		.space	3
 461              		.type	u8x8_d_ssd1327_96x96_powersave1_seq, %object
 462              		.size	u8x8_d_ssd1327_96x96_powersave1_seq, 5
 463              	u8x8_d_ssd1327_96x96_powersave1_seq:
 464 0008 18       		.byte	24
 465 0009 15       		.byte	21
 466 000a AE       		.byte	-82
 467 000b 19       		.byte	25
 468 000c FF       		.byte	-1
 469 000d 000000   		.space	3
 470              		.type	u8x8_ssd1327_96x96_display_info, %object
 471              		.size	u8x8_ssd1327_96x96_display_info, 24
 472              	u8x8_ssd1327_96x96_display_info:
 473 0010 00       		.byte	0
 474 0011 01       		.byte	1
 475 0012 14       		.byte	20
 476 0013 0A       		.byte	10
 477 0014 64       		.byte	100
 478 0015 64       		.byte	100
 479 0016 64       		.byte	100
 480 0017 64       		.byte	100
 481 0018 00093D00 		.word	4000000
 482 001c 00       		.byte	0
 483 001d 01       		.byte	1
 484 001e 28       		.byte	40
 485 001f 3C       		.byte	60
 486 0020 0C       		.byte	12
 487 0021 0C       		.byte	12
 488 0022 10       		.byte	16
 489 0023 10       		.byte	16
 490 0024 6000     		.short	96
 491 0026 6000     		.short	96
 492              		.type	u8x8_d_ssd1327_96x96_init_seq, %object
 493              		.size	u8x8_d_ssd1327_96x96_init_seq, 61
 494              	u8x8_d_ssd1327_96x96_init_seq:
 495 0028 18       		.byte	24
 496 0029 15       		.byte	21
 497 002a FD       		.byte	-3
 498 002b 16       		.byte	22
 499 002c 12       		.byte	18
 500 002d 15       		.byte	21
 501 002e AE       		.byte	-82
 502 002f 15       		.byte	21
 503 0030 A8       		.byte	-88
 504 0031 16       		.byte	22
 505 0032 5F       		.byte	95
 506 0033 15       		.byte	21
 507 0034 A1       		.byte	-95
 508 0035 16       		.byte	22
ARM GAS  C:\Users\Alan\AppData\Local\Temp\ccNG9wnL.s 			page 16


 509 0036 00       		.byte	0
 510 0037 15       		.byte	21
 511 0038 A2       		.byte	-94
 512 0039 16       		.byte	22
 513 003a 20       		.byte	32
 514 003b 15       		.byte	21
 515 003c A0       		.byte	-96
 516 003d 16       		.byte	22
 517 003e 51       		.byte	81
 518 003f 15       		.byte	21
 519 0040 AB       		.byte	-85
 520 0041 16       		.byte	22
 521 0042 01       		.byte	1
 522 0043 15       		.byte	21
 523 0044 81       		.byte	-127
 524 0045 16       		.byte	22
 525 0046 53       		.byte	83
 526 0047 15       		.byte	21
 527 0048 B1       		.byte	-79
 528 0049 16       		.byte	22
 529 004a 51       		.byte	81
 530 004b 15       		.byte	21
 531 004c B3       		.byte	-77
 532 004d 16       		.byte	22
 533 004e 01       		.byte	1
 534 004f 15       		.byte	21
 535 0050 B9       		.byte	-71
 536 0051 15       		.byte	21
 537 0052 BC       		.byte	-68
 538 0053 16       		.byte	22
 539 0054 08       		.byte	8
 540 0055 15       		.byte	21
 541 0056 BE       		.byte	-66
 542 0057 16       		.byte	22
 543 0058 07       		.byte	7
 544 0059 15       		.byte	21
 545 005a B6       		.byte	-74
 546 005b 16       		.byte	22
 547 005c 01       		.byte	1
 548 005d 15       		.byte	21
 549 005e D5       		.byte	-43
 550 005f 16       		.byte	22
 551 0060 62       		.byte	98
 552 0061 15       		.byte	21
 553 0062 A4       		.byte	-92
 554 0063 19       		.byte	25
 555 0064 FF       		.byte	-1
 556 0065 000000   		.space	3
 557              		.type	u8x8_d_ssd1327_seeed_96x96_flip0_seq, %object
 558              		.size	u8x8_d_ssd1327_seeed_96x96_flip0_seq, 11
 559              	u8x8_d_ssd1327_seeed_96x96_flip0_seq:
 560 0068 18       		.byte	24
 561 0069 15       		.byte	21
 562 006a A2       		.byte	-94
 563 006b 16       		.byte	22
 564 006c 20       		.byte	32
 565 006d 15       		.byte	21
ARM GAS  C:\Users\Alan\AppData\Local\Temp\ccNG9wnL.s 			page 17


 566 006e A0       		.byte	-96
 567 006f 16       		.byte	22
 568 0070 51       		.byte	81
 569 0071 19       		.byte	25
 570 0072 FF       		.byte	-1
 571 0073 00       		.space	1
 572              		.type	u8x8_d_ssd1327_seeed_96x96_flip1_seq, %object
 573              		.size	u8x8_d_ssd1327_seeed_96x96_flip1_seq, 11
 574              	u8x8_d_ssd1327_seeed_96x96_flip1_seq:
 575 0074 18       		.byte	24
 576 0075 15       		.byte	21
 577 0076 A2       		.byte	-94
 578 0077 16       		.byte	22
 579 0078 60       		.byte	96
 580 0079 15       		.byte	21
 581 007a A0       		.byte	-96
 582 007b 16       		.byte	22
 583 007c 42       		.byte	66
 584 007d 19       		.byte	25
 585 007e FF       		.byte	-1
 586              		.bss
 587              		.align	2
 588              		.set	.LANCHOR0,. + 0
 589              		.type	u8x8_ssd1327_8to32_dest_buf, %object
 590              		.size	u8x8_ssd1327_8to32_dest_buf, 32
 591              	u8x8_ssd1327_8to32_dest_buf:
 592 0000 00000000 		.space	32
 592      00000000 
 592      00000000 
 592      00000000 
 592      00000000 
 593              		.text
 594              	.Letext0:
 595              		.file 2 "c:\\program files (x86)\\cypress\\psoc creator\\4.1\\psoc creator\\import\\gnu\\arm\\5.4.
 596              		.file 3 "c:\\program files (x86)\\cypress\\psoc creator\\4.1\\psoc creator\\import\\gnu\\arm\\5.4.
 597              		.file 4 "..\\..\\u8g2\\csrc\\u8x8.h"