ARM GAS  C:\Users\Alan\AppData\Local\Temp\cczPwSYK.s 			page 1


   1              		.syntax unified
   2              		.cpu cortex-m0
   3              		.fpu softvfp
   4              		.eabi_attribute 20, 1
   5              		.eabi_attribute 21, 1
   6              		.eabi_attribute 23, 3
   7              		.eabi_attribute 24, 1
   8              		.eabi_attribute 25, 1
   9              		.eabi_attribute 26, 1
  10              		.eabi_attribute 30, 1
  11              		.eabi_attribute 34, 0
  12              		.eabi_attribute 18, 4
  13              		.thumb
  14              		.syntax unified
  15              		.file	"u8x8_d_a2printer.c"
  16              		.text
  17              	.Ltext0:
  18              		.cfi_sections	.debug_frame
  19              		.section	.text.get_delay_in_milliseconds,"ax",%progbits
  20              		.align	2
  21              		.global	get_delay_in_milliseconds
  22              		.code	16
  23              		.thumb_func
  24              		.type	get_delay_in_milliseconds, %function
  25              	get_delay_in_milliseconds:
  26              	.LFB0:
  27              		.file 1 "..\\..\\u8g2\\csrc\\u8x8_d_a2printer.c"
   1:..\..\u8g2\csrc/u8x8_d_a2printer.c **** /*
   2:..\..\u8g2\csrc/u8x8_d_a2printer.c **** 
   3:..\..\u8g2\csrc/u8x8_d_a2printer.c ****   u8x8_d_a2printer.c
   4:..\..\u8g2\csrc/u8x8_d_a2printer.c ****   
   5:..\..\u8g2\csrc/u8x8_d_a2printer.c ****   Universal 8bit Graphics Library (https://github.com/olikraus/u8g2/)
   6:..\..\u8g2\csrc/u8x8_d_a2printer.c **** 
   7:..\..\u8g2\csrc/u8x8_d_a2printer.c ****   Copyright (c) 2016, olikraus@gmail.com
   8:..\..\u8g2\csrc/u8x8_d_a2printer.c ****   All rights reserved.
   9:..\..\u8g2\csrc/u8x8_d_a2printer.c **** 
  10:..\..\u8g2\csrc/u8x8_d_a2printer.c ****   Redistribution and use in source and binary forms, with or without modification, 
  11:..\..\u8g2\csrc/u8x8_d_a2printer.c ****   are permitted provided that the following conditions are met:
  12:..\..\u8g2\csrc/u8x8_d_a2printer.c **** 
  13:..\..\u8g2\csrc/u8x8_d_a2printer.c ****   * Redistributions of source code must retain the above copyright notice, this list 
  14:..\..\u8g2\csrc/u8x8_d_a2printer.c ****     of conditions and the following disclaimer.
  15:..\..\u8g2\csrc/u8x8_d_a2printer.c ****     
  16:..\..\u8g2\csrc/u8x8_d_a2printer.c ****   * Redistributions in binary form must reproduce the above copyright notice, this 
  17:..\..\u8g2\csrc/u8x8_d_a2printer.c ****     list of conditions and the following disclaimer in the documentation and/or other 
  18:..\..\u8g2\csrc/u8x8_d_a2printer.c ****     materials provided with the distribution.
  19:..\..\u8g2\csrc/u8x8_d_a2printer.c **** 
  20:..\..\u8g2\csrc/u8x8_d_a2printer.c ****   THIS SOFTWARE IS PROVIDED BY THE COPYRIGHT HOLDERS AND 
  21:..\..\u8g2\csrc/u8x8_d_a2printer.c ****   CONTRIBUTORS "AS IS" AND ANY EXPRESS OR IMPLIED WARRANTIES, 
  22:..\..\u8g2\csrc/u8x8_d_a2printer.c ****   INCLUDING, BUT NOT LIMITED TO, THE IMPLIED WARRANTIES OF 
  23:..\..\u8g2\csrc/u8x8_d_a2printer.c ****   MERCHANTABILITY AND FITNESS FOR A PARTICULAR PURPOSE ARE 
  24:..\..\u8g2\csrc/u8x8_d_a2printer.c ****   DISCLAIMED. IN NO EVENT SHALL THE COPYRIGHT HOLDER OR 
  25:..\..\u8g2\csrc/u8x8_d_a2printer.c ****   CONTRIBUTORS BE LIABLE FOR ANY DIRECT, INDIRECT, INCIDENTAL, 
  26:..\..\u8g2\csrc/u8x8_d_a2printer.c ****   SPECIAL, EXEMPLARY, OR CONSEQUENTIAL DAMAGES (INCLUDING, BUT 
  27:..\..\u8g2\csrc/u8x8_d_a2printer.c ****   NOT LIMITED TO, PROCUREMENT OF SUBSTITUTE GOODS OR SERVICES; 
  28:..\..\u8g2\csrc/u8x8_d_a2printer.c ****   LOSS OF USE, DATA, OR PROFITS; OR BUSINESS INTERRUPTION) HOWEVER 
  29:..\..\u8g2\csrc/u8x8_d_a2printer.c ****   CAUSED AND ON ANY THEORY OF LIABILITY, WHETHER IN CONTRACT, 
  30:..\..\u8g2\csrc/u8x8_d_a2printer.c ****   STRICT LIABILITY, OR TORT (INCLUDING NEGLIGENCE OR OTHERWISE) 
ARM GAS  C:\Users\Alan\AppData\Local\Temp\cczPwSYK.s 			page 2


  31:..\..\u8g2\csrc/u8x8_d_a2printer.c ****   ARISING IN ANY WAY OUT OF THE USE OF THIS SOFTWARE, EVEN IF 
  32:..\..\u8g2\csrc/u8x8_d_a2printer.c ****   ADVISED OF THE POSSIBILITY OF SUCH DAMAGE.  
  33:..\..\u8g2\csrc/u8x8_d_a2printer.c **** 
  34:..\..\u8g2\csrc/u8x8_d_a2printer.c **** 
  35:..\..\u8g2\csrc/u8x8_d_a2printer.c ****   Use DC2 bitmap command of the A2 Micro panel termal printer
  36:..\..\u8g2\csrc/u8x8_d_a2printer.c ****   double stroke
  37:..\..\u8g2\csrc/u8x8_d_a2printer.c ****   
  38:..\..\u8g2\csrc/u8x8_d_a2printer.c ****   
  39:..\..\u8g2\csrc/u8x8_d_a2printer.c **** */
  40:..\..\u8g2\csrc/u8x8_d_a2printer.c **** 
  41:..\..\u8g2\csrc/u8x8_d_a2printer.c **** 
  42:..\..\u8g2\csrc/u8x8_d_a2printer.c **** #include "u8x8.h"
  43:..\..\u8g2\csrc/u8x8_d_a2printer.c **** 
  44:..\..\u8g2\csrc/u8x8_d_a2printer.c **** #define LINE_MIN_DELAY_MS 15
  45:..\..\u8g2\csrc/u8x8_d_a2printer.c **** /* higher values improve quality */
  46:..\..\u8g2\csrc/u8x8_d_a2printer.c **** /* however if the value is too high (>=5) then form feed does not work any more */
  47:..\..\u8g2\csrc/u8x8_d_a2printer.c **** #define LINE_EXTRA_8PIXEL_DELAY_MS 3
  48:..\..\u8g2\csrc/u8x8_d_a2printer.c **** /* this must be a power of two and between 1 and 8 */
  49:..\..\u8g2\csrc/u8x8_d_a2printer.c **** /* best quality only with 1 */
  50:..\..\u8g2\csrc/u8x8_d_a2printer.c **** #define NO_OF_LINES_TO_SEND_WITHOUT_DELAY 1
  51:..\..\u8g2\csrc/u8x8_d_a2printer.c **** 
  52:..\..\u8g2\csrc/u8x8_d_a2printer.c **** /* calculates the delay, based on the number of black pixel */
  53:..\..\u8g2\csrc/u8x8_d_a2printer.c **** /* actually only "none-zero" bytes are calculated which is, of course not so accurate, but should b
  54:..\..\u8g2\csrc/u8x8_d_a2printer.c **** uint16_t get_delay_in_milliseconds(uint8_t cnt, uint8_t *data)
  55:..\..\u8g2\csrc/u8x8_d_a2printer.c **** {
  28              		.loc 1 55 0
  29              		.cfi_startproc
  30              		@ args = 0, pretend = 0, frame = 0
  31              		@ frame_needed = 0, uses_anonymous_args = 0
  32              	.LVL0:
  33 0000 10B5     		push	{r4, lr}
  34              		.cfi_def_cfa_offset 8
  35              		.cfi_offset 4, -8
  36              		.cfi_offset 14, -4
  37 0002 0400     		movs	r4, r0
  38              	.LVL1:
  56:..\..\u8g2\csrc/u8x8_d_a2printer.c ****   uint8_t i;
  57:..\..\u8g2\csrc/u8x8_d_a2printer.c ****   uint16_t time = LINE_MIN_DELAY_MS;
  39              		.loc 1 57 0
  40 0004 0F20     		movs	r0, #15
  41              	.LVL2:
  58:..\..\u8g2\csrc/u8x8_d_a2printer.c ****   for ( i = 0; i < cnt; i++ )
  42              		.loc 1 58 0
  43 0006 0023     		movs	r3, #0
  44 0008 06E0     		b	.L2
  45              	.LVL3:
  46              	.L4:
  59:..\..\u8g2\csrc/u8x8_d_a2printer.c ****     if ( data[i] != 0 )
  47              		.loc 1 59 0
  48 000a CA5C     		ldrb	r2, [r1, r3]
  49 000c 002A     		cmp	r2, #0
  50 000e 01D0     		beq	.L3
  60:..\..\u8g2\csrc/u8x8_d_a2printer.c ****       time += LINE_EXTRA_8PIXEL_DELAY_MS;
  51              		.loc 1 60 0
  52 0010 0330     		adds	r0, r0, #3
  53              	.LVL4:
  54 0012 80B2     		uxth	r0, r0
ARM GAS  C:\Users\Alan\AppData\Local\Temp\cczPwSYK.s 			page 3


  55              	.LVL5:
  56              	.L3:
  58:..\..\u8g2\csrc/u8x8_d_a2printer.c ****   for ( i = 0; i < cnt; i++ )
  57              		.loc 1 58 0 discriminator 2
  58 0014 0133     		adds	r3, r3, #1
  59              	.LVL6:
  60 0016 DBB2     		uxtb	r3, r3
  61              	.LVL7:
  62              	.L2:
  58:..\..\u8g2\csrc/u8x8_d_a2printer.c ****   for ( i = 0; i < cnt; i++ )
  63              		.loc 1 58 0 is_stmt 0 discriminator 1
  64 0018 A342     		cmp	r3, r4
  65 001a F6D3     		bcc	.L4
  61:..\..\u8g2\csrc/u8x8_d_a2printer.c ****   return time;
  62:..\..\u8g2\csrc/u8x8_d_a2printer.c **** }
  66              		.loc 1 62 0 is_stmt 1
  67              		@ sp needed
  68 001c 10BD     		pop	{r4, pc}
  69              		.cfi_endproc
  70              	.LFE0:
  71              		.size	get_delay_in_milliseconds, .-get_delay_in_milliseconds
  72 001e C046     		.section	.text.u8x8_d_a2printer_common,"ax",%progbits
  73              		.align	2
  74              		.global	u8x8_d_a2printer_common
  75              		.code	16
  76              		.thumb_func
  77              		.type	u8x8_d_a2printer_common, %function
  78              	u8x8_d_a2printer_common:
  79              	.LFB1:
  63:..\..\u8g2\csrc/u8x8_d_a2printer.c **** 
  64:..\..\u8g2\csrc/u8x8_d_a2printer.c **** uint8_t u8x8_d_a2printer_common(u8x8_t *u8x8, uint8_t msg, U8X8_UNUSED uint8_t arg_int, void *arg_p
  65:..\..\u8g2\csrc/u8x8_d_a2printer.c **** {
  80              		.loc 1 65 0
  81              		.cfi_startproc
  82              		@ args = 0, pretend = 0, frame = 8
  83              		@ frame_needed = 0, uses_anonymous_args = 0
  84              	.LVL8:
  85 0000 F0B5     		push	{r4, r5, r6, r7, lr}
  86              		.cfi_def_cfa_offset 20
  87              		.cfi_offset 4, -20
  88              		.cfi_offset 5, -16
  89              		.cfi_offset 6, -12
  90              		.cfi_offset 7, -8
  91              		.cfi_offset 14, -4
  92 0002 4746     		mov	r7, r8
  93 0004 80B4     		push	{r7}
  94              		.cfi_def_cfa_offset 24
  95              		.cfi_offset 8, -24
  96 0006 82B0     		sub	sp, sp, #8
  97              		.cfi_def_cfa_offset 32
  98 0008 0700     		movs	r7, r0
  99 000a 1C00     		movs	r4, r3
  66:..\..\u8g2\csrc/u8x8_d_a2printer.c ****   uint8_t c, i, j;
  67:..\..\u8g2\csrc/u8x8_d_a2printer.c ****   uint8_t *ptr;
  68:..\..\u8g2\csrc/u8x8_d_a2printer.c ****   uint16_t delay_in_milliseconds;
  69:..\..\u8g2\csrc/u8x8_d_a2printer.c ****   switch(msg)
 100              		.loc 1 69 0
ARM GAS  C:\Users\Alan\AppData\Local\Temp\cczPwSYK.s 			page 4


 101 000c 0B29     		cmp	r1, #11
 102 000e 7DD0     		beq	.L15
 103 0010 0F29     		cmp	r1, #15
 104 0012 07D0     		beq	.L8
 105 0014 0A29     		cmp	r1, #10
 106 0016 01D0     		beq	.L9
  70:..\..\u8g2\csrc/u8x8_d_a2printer.c ****   {
  71:..\..\u8g2\csrc/u8x8_d_a2printer.c ****     /* U8X8_MSG_DISPLAY_SETUP_MEMORY is handled by the calling function */
  72:..\..\u8g2\csrc/u8x8_d_a2printer.c ****     /*
  73:..\..\u8g2\csrc/u8x8_d_a2printer.c ****     case U8X8_MSG_DISPLAY_SETUP_MEMORY:
  74:..\..\u8g2\csrc/u8x8_d_a2printer.c ****       break;
  75:..\..\u8g2\csrc/u8x8_d_a2printer.c ****     */
  76:..\..\u8g2\csrc/u8x8_d_a2printer.c ****     case U8X8_MSG_DISPLAY_INIT:
  77:..\..\u8g2\csrc/u8x8_d_a2printer.c ****       u8x8_d_helper_display_init(u8x8);
  78:..\..\u8g2\csrc/u8x8_d_a2printer.c ****       // no setup required
  79:..\..\u8g2\csrc/u8x8_d_a2printer.c ****       // u8x8_cad_SendSequence(u8x8, u8x8_d_a2printer_init_seq);
  80:..\..\u8g2\csrc/u8x8_d_a2printer.c ****       break;
  81:..\..\u8g2\csrc/u8x8_d_a2printer.c ****     case U8X8_MSG_DISPLAY_SET_POWER_SAVE:
  82:..\..\u8g2\csrc/u8x8_d_a2printer.c ****       // no powersave 
  83:..\..\u8g2\csrc/u8x8_d_a2printer.c ****       break;
  84:..\..\u8g2\csrc/u8x8_d_a2printer.c ****     case U8X8_MSG_DISPLAY_DRAW_TILE:
  85:..\..\u8g2\csrc/u8x8_d_a2printer.c ****       u8x8_cad_StartTransfer(u8x8);
  86:..\..\u8g2\csrc/u8x8_d_a2printer.c ****       
  87:..\..\u8g2\csrc/u8x8_d_a2printer.c ****       u8x8_cad_SendCmd(u8x8, 27);      /* ESC */
  88:..\..\u8g2\csrc/u8x8_d_a2printer.c ****       u8x8_cad_SendCmd(u8x8, 55 );      /* parameter command */
  89:..\..\u8g2\csrc/u8x8_d_a2printer.c ****       /* increasing the "max printing dots" requires a good power supply, but LINE_EXTRA_8PIXEL_DEL
  90:..\..\u8g2\csrc/u8x8_d_a2printer.c ****       u8x8_cad_SendCmd(u8x8, 0);      /* Max printing dots,Unit(8dots),Default:7(64 dots) 8*(x+1) .
  91:..\..\u8g2\csrc/u8x8_d_a2printer.c ****       u8x8_cad_SendCmd(u8x8, 200);      /* 3-255 Heating time,Unit(10us),Default:80(800us) */
  92:..\..\u8g2\csrc/u8x8_d_a2printer.c ****       u8x8_cad_SendCmd(u8x8, 2);      /* 0-255 Heating interval,Unit(10us),Default:2(20us) ... does
  93:..\..\u8g2\csrc/u8x8_d_a2printer.c ****       
  94:..\..\u8g2\csrc/u8x8_d_a2printer.c ****       //c = ((u8x8_tile_t *)arg_ptr)->cnt;	/* number of tiles */
  95:..\..\u8g2\csrc/u8x8_d_a2printer.c ****       c = u8x8->display_info->tile_width;
  96:..\..\u8g2\csrc/u8x8_d_a2printer.c ****       ptr = ((u8x8_tile_t *)arg_ptr)->tile_ptr;	/* data ptr to the tiles */
  97:..\..\u8g2\csrc/u8x8_d_a2printer.c ****     
  98:..\..\u8g2\csrc/u8x8_d_a2printer.c ****       u8x8_cad_SendCmd(u8x8, 18);      /* DC2 */
  99:..\..\u8g2\csrc/u8x8_d_a2printer.c ****       u8x8_cad_SendCmd(u8x8, 42 );      /* *  */
 100:..\..\u8g2\csrc/u8x8_d_a2printer.c ****       u8x8_cad_SendCmd(u8x8, 8 ); 	/* height */
 101:..\..\u8g2\csrc/u8x8_d_a2printer.c ****       u8x8_cad_SendCmd(u8x8, c ); 	/* c, u8x8->display_info->tile_width */
 102:..\..\u8g2\csrc/u8x8_d_a2printer.c ****       
 103:..\..\u8g2\csrc/u8x8_d_a2printer.c ****       for( j = 0; j < 8 / NO_OF_LINES_TO_SEND_WITHOUT_DELAY; j ++ )
 104:..\..\u8g2\csrc/u8x8_d_a2printer.c ****       {
 105:..\..\u8g2\csrc/u8x8_d_a2printer.c **** 
 106:..\..\u8g2\csrc/u8x8_d_a2printer.c **** 	delay_in_milliseconds = 0;
 107:..\..\u8g2\csrc/u8x8_d_a2printer.c **** 	for( i = 0; i < NO_OF_LINES_TO_SEND_WITHOUT_DELAY; i++ )
 108:..\..\u8g2\csrc/u8x8_d_a2printer.c **** 	{
 109:..\..\u8g2\csrc/u8x8_d_a2printer.c **** 	  u8x8_cad_SendData(u8x8, c, ptr);	/* c, note: SendData can not handle more than 255 bytes, send o
 110:..\..\u8g2\csrc/u8x8_d_a2printer.c **** 	  delay_in_milliseconds += get_delay_in_milliseconds(c, ptr);
 111:..\..\u8g2\csrc/u8x8_d_a2printer.c **** 	  ptr += c;
 112:..\..\u8g2\csrc/u8x8_d_a2printer.c **** 	}
 113:..\..\u8g2\csrc/u8x8_d_a2printer.c **** 	
 114:..\..\u8g2\csrc/u8x8_d_a2printer.c **** 	while( delay_in_milliseconds > 200 )
 115:..\..\u8g2\csrc/u8x8_d_a2printer.c **** 	{
 116:..\..\u8g2\csrc/u8x8_d_a2printer.c **** 	  u8x8->gpio_and_delay_cb(u8x8, U8X8_MSG_DELAY_MILLI, 200, NULL);	
 117:..\..\u8g2\csrc/u8x8_d_a2printer.c **** 	  delay_in_milliseconds -= 200;
 118:..\..\u8g2\csrc/u8x8_d_a2printer.c **** 	}
 119:..\..\u8g2\csrc/u8x8_d_a2printer.c **** 	u8x8->gpio_and_delay_cb(u8x8, U8X8_MSG_DELAY_MILLI, delay_in_milliseconds, NULL);	
 120:..\..\u8g2\csrc/u8x8_d_a2printer.c ****       }
ARM GAS  C:\Users\Alan\AppData\Local\Temp\cczPwSYK.s 			page 5


 121:..\..\u8g2\csrc/u8x8_d_a2printer.c **** 
 122:..\..\u8g2\csrc/u8x8_d_a2printer.c ****       /* set parameters back to their default values */
 123:..\..\u8g2\csrc/u8x8_d_a2printer.c ****       u8x8_cad_SendCmd(u8x8, 27);      /* ESC */
 124:..\..\u8g2\csrc/u8x8_d_a2printer.c ****       u8x8_cad_SendCmd(u8x8, 55 );      /* parameter command */
 125:..\..\u8g2\csrc/u8x8_d_a2printer.c ****       u8x8_cad_SendCmd(u8x8, 7);      /* Max printing dots,Unit(8dots),Default:7(64 dots) 8*(x+1)*/
 126:..\..\u8g2\csrc/u8x8_d_a2printer.c ****       u8x8_cad_SendCmd(u8x8, 80);      /* 3-255 Heating time,Unit(10us),Default:80(800us) */
 127:..\..\u8g2\csrc/u8x8_d_a2printer.c ****       u8x8_cad_SendCmd(u8x8, 2);      /* 0-255 Heating interval,Unit(10us),Default:2(20us)*/
 128:..\..\u8g2\csrc/u8x8_d_a2printer.c **** 
 129:..\..\u8g2\csrc/u8x8_d_a2printer.c ****       u8x8_cad_EndTransfer(u8x8);
 130:..\..\u8g2\csrc/u8x8_d_a2printer.c **** 
 131:..\..\u8g2\csrc/u8x8_d_a2printer.c ****       break;
 132:..\..\u8g2\csrc/u8x8_d_a2printer.c ****     default:
 133:..\..\u8g2\csrc/u8x8_d_a2printer.c ****       return 0;
 107              		.loc 1 133 0
 108 0018 0020     		movs	r0, #0
 109              	.LVL9:
 110 001a 78E0     		b	.L7
 111              	.LVL10:
 112              	.L9:
  77:..\..\u8g2\csrc/u8x8_d_a2printer.c ****       // no setup required
 113              		.loc 1 77 0
 114 001c FFF7FEFF 		bl	u8x8_d_helper_display_init
 115              	.LVL11:
 134:..\..\u8g2\csrc/u8x8_d_a2printer.c ****   }
 135:..\..\u8g2\csrc/u8x8_d_a2printer.c ****   return 1;
 116              		.loc 1 135 0
 117 0020 0120     		movs	r0, #1
  80:..\..\u8g2\csrc/u8x8_d_a2printer.c ****     case U8X8_MSG_DISPLAY_SET_POWER_SAVE:
 118              		.loc 1 80 0
 119 0022 74E0     		b	.L7
 120              	.LVL12:
 121              	.L8:
  85:..\..\u8g2\csrc/u8x8_d_a2printer.c ****       
 122              		.loc 1 85 0
 123 0024 FFF7FEFF 		bl	u8x8_cad_StartTransfer
 124              	.LVL13:
  87:..\..\u8g2\csrc/u8x8_d_a2printer.c ****       u8x8_cad_SendCmd(u8x8, 55 );      /* parameter command */
 125              		.loc 1 87 0
 126 0028 1B21     		movs	r1, #27
 127 002a 3800     		movs	r0, r7
 128 002c FFF7FEFF 		bl	u8x8_cad_SendCmd
 129              	.LVL14:
  88:..\..\u8g2\csrc/u8x8_d_a2printer.c ****       /* increasing the "max printing dots" requires a good power supply, but LINE_EXTRA_8PIXEL_DEL
 130              		.loc 1 88 0
 131 0030 3721     		movs	r1, #55
 132 0032 3800     		movs	r0, r7
 133 0034 FFF7FEFF 		bl	u8x8_cad_SendCmd
 134              	.LVL15:
  90:..\..\u8g2\csrc/u8x8_d_a2printer.c ****       u8x8_cad_SendCmd(u8x8, 200);      /* 3-255 Heating time,Unit(10us),Default:80(800us) */
 135              		.loc 1 90 0
 136 0038 0021     		movs	r1, #0
 137 003a 3800     		movs	r0, r7
 138 003c FFF7FEFF 		bl	u8x8_cad_SendCmd
 139              	.LVL16:
  91:..\..\u8g2\csrc/u8x8_d_a2printer.c ****       u8x8_cad_SendCmd(u8x8, 2);      /* 0-255 Heating interval,Unit(10us),Default:2(20us) ... does
 140              		.loc 1 91 0
 141 0040 C821     		movs	r1, #200
ARM GAS  C:\Users\Alan\AppData\Local\Temp\cczPwSYK.s 			page 6


 142 0042 3800     		movs	r0, r7
 143 0044 FFF7FEFF 		bl	u8x8_cad_SendCmd
 144              	.LVL17:
  92:..\..\u8g2\csrc/u8x8_d_a2printer.c ****       
 145              		.loc 1 92 0
 146 0048 0221     		movs	r1, #2
 147 004a 3800     		movs	r0, r7
 148 004c FFF7FEFF 		bl	u8x8_cad_SendCmd
 149              	.LVL18:
  95:..\..\u8g2\csrc/u8x8_d_a2printer.c ****       ptr = ((u8x8_tile_t *)arg_ptr)->tile_ptr;	/* data ptr to the tiles */
 150              		.loc 1 95 0
 151 0050 3B68     		ldr	r3, [r7]
 152 0052 1B7C     		ldrb	r3, [r3, #16]
 153 0054 1D00     		movs	r5, r3
 154 0056 0193     		str	r3, [sp, #4]
 155              	.LVL19:
  96:..\..\u8g2\csrc/u8x8_d_a2printer.c ****     
 156              		.loc 1 96 0
 157 0058 2668     		ldr	r6, [r4]
 158              	.LVL20:
  98:..\..\u8g2\csrc/u8x8_d_a2printer.c ****       u8x8_cad_SendCmd(u8x8, 42 );      /* *  */
 159              		.loc 1 98 0
 160 005a 1221     		movs	r1, #18
 161 005c 3800     		movs	r0, r7
 162 005e FFF7FEFF 		bl	u8x8_cad_SendCmd
 163              	.LVL21:
  99:..\..\u8g2\csrc/u8x8_d_a2printer.c ****       u8x8_cad_SendCmd(u8x8, 8 ); 	/* height */
 164              		.loc 1 99 0
 165 0062 2A21     		movs	r1, #42
 166 0064 3800     		movs	r0, r7
 167 0066 FFF7FEFF 		bl	u8x8_cad_SendCmd
 168              	.LVL22:
 100:..\..\u8g2\csrc/u8x8_d_a2printer.c ****       u8x8_cad_SendCmd(u8x8, c ); 	/* c, u8x8->display_info->tile_width */
 169              		.loc 1 100 0
 170 006a 0821     		movs	r1, #8
 171 006c 3800     		movs	r0, r7
 172 006e FFF7FEFF 		bl	u8x8_cad_SendCmd
 173              	.LVL23:
 101:..\..\u8g2\csrc/u8x8_d_a2printer.c ****       
 174              		.loc 1 101 0
 175 0072 2900     		movs	r1, r5
 176 0074 3800     		movs	r0, r7
 177 0076 FFF7FEFF 		bl	u8x8_cad_SendCmd
 178              	.LVL24:
 103:..\..\u8g2\csrc/u8x8_d_a2printer.c ****       {
 179              		.loc 1 103 0
 180 007a 0023     		movs	r3, #0
 181 007c 9846     		mov	r8, r3
 182 007e 29E0     		b	.L10
 183              	.LVL25:
 184              	.L11:
 109:..\..\u8g2\csrc/u8x8_d_a2printer.c **** 	  delay_in_milliseconds += get_delay_in_milliseconds(c, ptr);
 185              		.loc 1 109 0 discriminator 3
 186 0080 3200     		movs	r2, r6
 187 0082 0199     		ldr	r1, [sp, #4]
 188 0084 3800     		movs	r0, r7
 189 0086 FFF7FEFF 		bl	u8x8_cad_SendData
ARM GAS  C:\Users\Alan\AppData\Local\Temp\cczPwSYK.s 			page 7


 190              	.LVL26:
 110:..\..\u8g2\csrc/u8x8_d_a2printer.c **** 	  ptr += c;
 191              		.loc 1 110 0 discriminator 3
 192 008a 3100     		movs	r1, r6
 193 008c 0198     		ldr	r0, [sp, #4]
 194 008e FFF7FEFF 		bl	get_delay_in_milliseconds
 195              	.LVL27:
 196 0092 2418     		adds	r4, r4, r0
 197              	.LVL28:
 198 0094 A4B2     		uxth	r4, r4
 199              	.LVL29:
 111:..\..\u8g2\csrc/u8x8_d_a2printer.c **** 	}
 200              		.loc 1 111 0 discriminator 3
 201 0096 019B     		ldr	r3, [sp, #4]
 202 0098 9C46     		mov	ip, r3
 203 009a 6644     		add	r6, r6, ip
 204              	.LVL30:
 107:..\..\u8g2\csrc/u8x8_d_a2printer.c **** 	{
 205              		.loc 1 107 0 discriminator 3
 206 009c 6B1C     		adds	r3, r5, #1
 207 009e DDB2     		uxtb	r5, r3
 208              	.LVL31:
 209 00a0 01E0     		b	.L14
 210              	.LVL32:
 211              	.L16:
 212 00a2 0024     		movs	r4, #0
 213 00a4 0025     		movs	r5, #0
 214              	.L14:
 215              	.LVL33:
 107:..\..\u8g2\csrc/u8x8_d_a2printer.c **** 	{
 216              		.loc 1 107 0 is_stmt 0 discriminator 1
 217 00a6 002D     		cmp	r5, #0
 218 00a8 EAD0     		beq	.L11
 219 00aa 07E0     		b	.L12
 220              	.LVL34:
 221              	.L13:
 116:..\..\u8g2\csrc/u8x8_d_a2printer.c **** 	  delay_in_milliseconds -= 200;
 222              		.loc 1 116 0 is_stmt 1
 223 00ac 0023     		movs	r3, #0
 224 00ae C822     		movs	r2, #200
 225 00b0 2921     		movs	r1, #41
 226 00b2 3800     		movs	r0, r7
 227 00b4 7D69     		ldr	r5, [r7, #20]
 228 00b6 A847     		blx	r5
 229              	.LVL35:
 117:..\..\u8g2\csrc/u8x8_d_a2printer.c **** 	}
 230              		.loc 1 117 0
 231 00b8 C83C     		subs	r4, r4, #200
 232              	.LVL36:
 233 00ba A4B2     		uxth	r4, r4
 234              	.LVL37:
 235              	.L12:
 114:..\..\u8g2\csrc/u8x8_d_a2printer.c **** 	{
 236              		.loc 1 114 0
 237 00bc C82C     		cmp	r4, #200
 238 00be F5D8     		bhi	.L13
 119:..\..\u8g2\csrc/u8x8_d_a2printer.c ****       }
ARM GAS  C:\Users\Alan\AppData\Local\Temp\cczPwSYK.s 			page 8


 239              		.loc 1 119 0 discriminator 2
 240 00c0 E2B2     		uxtb	r2, r4
 241 00c2 0023     		movs	r3, #0
 242 00c4 2921     		movs	r1, #41
 243 00c6 3800     		movs	r0, r7
 244 00c8 7C69     		ldr	r4, [r7, #20]
 245              	.LVL38:
 246 00ca A047     		blx	r4
 247              	.LVL39:
 103:..\..\u8g2\csrc/u8x8_d_a2printer.c ****       {
 248              		.loc 1 103 0 discriminator 2
 249 00cc 4346     		mov	r3, r8
 250 00ce 0133     		adds	r3, r3, #1
 251 00d0 DBB2     		uxtb	r3, r3
 252 00d2 9846     		mov	r8, r3
 253              	.LVL40:
 254              	.L10:
 103:..\..\u8g2\csrc/u8x8_d_a2printer.c ****       {
 255              		.loc 1 103 0 is_stmt 0 discriminator 1
 256 00d4 4346     		mov	r3, r8
 257 00d6 072B     		cmp	r3, #7
 258 00d8 E3D9     		bls	.L16
 123:..\..\u8g2\csrc/u8x8_d_a2printer.c ****       u8x8_cad_SendCmd(u8x8, 55 );      /* parameter command */
 259              		.loc 1 123 0 is_stmt 1
 260 00da 1B21     		movs	r1, #27
 261 00dc 3800     		movs	r0, r7
 262 00de FFF7FEFF 		bl	u8x8_cad_SendCmd
 263              	.LVL41:
 124:..\..\u8g2\csrc/u8x8_d_a2printer.c ****       u8x8_cad_SendCmd(u8x8, 7);      /* Max printing dots,Unit(8dots),Default:7(64 dots) 8*(x+1)*/
 264              		.loc 1 124 0
 265 00e2 3721     		movs	r1, #55
 266 00e4 3800     		movs	r0, r7
 267 00e6 FFF7FEFF 		bl	u8x8_cad_SendCmd
 268              	.LVL42:
 125:..\..\u8g2\csrc/u8x8_d_a2printer.c ****       u8x8_cad_SendCmd(u8x8, 80);      /* 3-255 Heating time,Unit(10us),Default:80(800us) */
 269              		.loc 1 125 0
 270 00ea 0721     		movs	r1, #7
 271 00ec 3800     		movs	r0, r7
 272 00ee FFF7FEFF 		bl	u8x8_cad_SendCmd
 273              	.LVL43:
 126:..\..\u8g2\csrc/u8x8_d_a2printer.c ****       u8x8_cad_SendCmd(u8x8, 2);      /* 0-255 Heating interval,Unit(10us),Default:2(20us)*/
 274              		.loc 1 126 0
 275 00f2 5021     		movs	r1, #80
 276 00f4 3800     		movs	r0, r7
 277 00f6 FFF7FEFF 		bl	u8x8_cad_SendCmd
 278              	.LVL44:
 127:..\..\u8g2\csrc/u8x8_d_a2printer.c **** 
 279              		.loc 1 127 0
 280 00fa 0221     		movs	r1, #2
 281 00fc 3800     		movs	r0, r7
 282 00fe FFF7FEFF 		bl	u8x8_cad_SendCmd
 283              	.LVL45:
 129:..\..\u8g2\csrc/u8x8_d_a2printer.c **** 
 284              		.loc 1 129 0
 285 0102 3800     		movs	r0, r7
 286 0104 FFF7FEFF 		bl	u8x8_cad_EndTransfer
 287              	.LVL46:
ARM GAS  C:\Users\Alan\AppData\Local\Temp\cczPwSYK.s 			page 9


 288              		.loc 1 135 0
 289 0108 0120     		movs	r0, #1
 131:..\..\u8g2\csrc/u8x8_d_a2printer.c ****     default:
 290              		.loc 1 131 0
 291 010a 00E0     		b	.L7
 292              	.LVL47:
 293              	.L15:
 294              		.loc 1 135 0
 295 010c 0120     		movs	r0, #1
 296              	.LVL48:
 297              	.L7:
 136:..\..\u8g2\csrc/u8x8_d_a2printer.c **** }
 298              		.loc 1 136 0
 299 010e 02B0     		add	sp, sp, #8
 300              		@ sp needed
 301              	.LVL49:
 302 0110 04BC     		pop	{r2}
 303 0112 9046     		mov	r8, r2
 304 0114 F0BD     		pop	{r4, r5, r6, r7, pc}
 305              		.cfi_endproc
 306              	.LFE1:
 307              		.size	u8x8_d_a2printer_common, .-u8x8_d_a2printer_common
 308 0116 C046     		.section	.text.u8x8_d_a2printer_384x240,"ax",%progbits
 309              		.align	2
 310              		.global	u8x8_d_a2printer_384x240
 311              		.code	16
 312              		.thumb_func
 313              		.type	u8x8_d_a2printer_384x240, %function
 314              	u8x8_d_a2printer_384x240:
 315              	.LFB2:
 137:..\..\u8g2\csrc/u8x8_d_a2printer.c **** 
 138:..\..\u8g2\csrc/u8x8_d_a2printer.c **** 
 139:..\..\u8g2\csrc/u8x8_d_a2printer.c **** static const u8x8_display_info_t u8x8_a2printer_384x240_display_info =
 140:..\..\u8g2\csrc/u8x8_d_a2printer.c **** {
 141:..\..\u8g2\csrc/u8x8_d_a2printer.c ****   /* most of the settings are not required, because this is a serial RS232 printer */
 142:..\..\u8g2\csrc/u8x8_d_a2printer.c ****   
 143:..\..\u8g2\csrc/u8x8_d_a2printer.c ****   /* chip_enable_level = */ 1,
 144:..\..\u8g2\csrc/u8x8_d_a2printer.c ****   /* chip_disable_level = */ 0,
 145:..\..\u8g2\csrc/u8x8_d_a2printer.c ****   
 146:..\..\u8g2\csrc/u8x8_d_a2printer.c ****   /* post_chip_enable_wait_ns = */ 5,
 147:..\..\u8g2\csrc/u8x8_d_a2printer.c ****   /* pre_chip_disable_wait_ns = */ 5,
 148:..\..\u8g2\csrc/u8x8_d_a2printer.c ****   /* reset_pulse_width_ms = */ 1, 
 149:..\..\u8g2\csrc/u8x8_d_a2printer.c ****   /* post_reset_wait_ms = */ 6, 
 150:..\..\u8g2\csrc/u8x8_d_a2printer.c ****   /* sda_setup_time_ns = */ 20,		
 151:..\..\u8g2\csrc/u8x8_d_a2printer.c ****   /* sck_pulse_width_ns = */  140,	
 152:..\..\u8g2\csrc/u8x8_d_a2printer.c ****   /* sck_clock_hz = */ 1000000UL,	/* since Arduino 1.6.0, the SPI bus speed in Hz. Should be  10000
 153:..\..\u8g2\csrc/u8x8_d_a2printer.c ****   /* spi_mode = */ 0,		/* old: sck_takeover_edge, new: active high (bit 1), rising edge (bit 0) */
 154:..\..\u8g2\csrc/u8x8_d_a2printer.c ****   /* i2c_bus_clock_100kHz = */ 4,
 155:..\..\u8g2\csrc/u8x8_d_a2printer.c ****   /* data_setup_time_ns = */ 30,
 156:..\..\u8g2\csrc/u8x8_d_a2printer.c ****   /* write_pulse_width_ns = */ 40,
 157:..\..\u8g2\csrc/u8x8_d_a2printer.c ****   /* tile_width = */ 48,
 158:..\..\u8g2\csrc/u8x8_d_a2printer.c ****   /* tile_hight = */ 30,
 159:..\..\u8g2\csrc/u8x8_d_a2printer.c ****   /* default_x_offset = */ 0,
 160:..\..\u8g2\csrc/u8x8_d_a2printer.c ****   /* flipmode_x_offset = */ 0,
 161:..\..\u8g2\csrc/u8x8_d_a2printer.c ****   /* pixel_width = */ 384,
 162:..\..\u8g2\csrc/u8x8_d_a2printer.c ****   /* pixel_height = */ 240
 163:..\..\u8g2\csrc/u8x8_d_a2printer.c **** };
ARM GAS  C:\Users\Alan\AppData\Local\Temp\cczPwSYK.s 			page 10


 164:..\..\u8g2\csrc/u8x8_d_a2printer.c **** 
 165:..\..\u8g2\csrc/u8x8_d_a2printer.c **** uint8_t u8x8_d_a2printer_384x240(u8x8_t *u8x8, uint8_t msg, uint8_t arg_int, void *arg_ptr)
 166:..\..\u8g2\csrc/u8x8_d_a2printer.c **** {
 316              		.loc 1 166 0
 317              		.cfi_startproc
 318              		@ args = 0, pretend = 0, frame = 0
 319              		@ frame_needed = 0, uses_anonymous_args = 0
 320              	.LVL50:
 321 0000 10B5     		push	{r4, lr}
 322              		.cfi_def_cfa_offset 8
 323              		.cfi_offset 4, -8
 324              		.cfi_offset 14, -4
 167:..\..\u8g2\csrc/u8x8_d_a2printer.c ****   switch(msg)
 325              		.loc 1 167 0
 326 0002 0929     		cmp	r1, #9
 327 0004 04D1     		bne	.L21
 168:..\..\u8g2\csrc/u8x8_d_a2printer.c ****   {
 169:..\..\u8g2\csrc/u8x8_d_a2printer.c ****     case U8X8_MSG_DISPLAY_SETUP_MEMORY:
 170:..\..\u8g2\csrc/u8x8_d_a2printer.c ****       u8x8_d_helper_display_setup_memory(u8x8, &u8x8_a2printer_384x240_display_info);
 328              		.loc 1 170 0
 329 0006 0449     		ldr	r1, .L22
 330              	.LVL51:
 331 0008 FFF7FEFF 		bl	u8x8_d_helper_display_setup_memory
 332              	.LVL52:
 171:..\..\u8g2\csrc/u8x8_d_a2printer.c ****       break;
 172:..\..\u8g2\csrc/u8x8_d_a2printer.c ****     default:
 173:..\..\u8g2\csrc/u8x8_d_a2printer.c ****       return u8x8_d_a2printer_common(u8x8, msg, arg_int, arg_ptr);
 174:..\..\u8g2\csrc/u8x8_d_a2printer.c ****   }
 175:..\..\u8g2\csrc/u8x8_d_a2printer.c ****   return 1;
 333              		.loc 1 175 0
 334 000c 0120     		movs	r0, #1
 335 000e 01E0     		b	.L20
 336              	.LVL53:
 337              	.L21:
 173:..\..\u8g2\csrc/u8x8_d_a2printer.c ****   }
 338              		.loc 1 173 0
 339 0010 FFF7FEFF 		bl	u8x8_d_a2printer_common
 340              	.LVL54:
 341              	.L20:
 176:..\..\u8g2\csrc/u8x8_d_a2printer.c **** }
 342              		.loc 1 176 0
 343              		@ sp needed
 344 0014 10BD     		pop	{r4, pc}
 345              	.L23:
 346 0016 C046     		.align	2
 347              	.L22:
 348 0018 00000000 		.word	.LANCHOR0
 349              		.cfi_endproc
 350              	.LFE2:
 351              		.size	u8x8_d_a2printer_384x240, .-u8x8_d_a2printer_384x240
 352              		.section	.rodata
 353              		.align	2
 354              		.set	.LANCHOR0,. + 0
 355              		.type	u8x8_a2printer_384x240_display_info, %object
 356              		.size	u8x8_a2printer_384x240_display_info, 24
 357              	u8x8_a2printer_384x240_display_info:
 358 0000 01       		.byte	1
ARM GAS  C:\Users\Alan\AppData\Local\Temp\cczPwSYK.s 			page 11


 359 0001 00       		.byte	0
 360 0002 05       		.byte	5
 361 0003 05       		.byte	5
 362 0004 01       		.byte	1
 363 0005 06       		.byte	6
 364 0006 14       		.byte	20
 365 0007 8C       		.byte	-116
 366 0008 40420F00 		.word	1000000
 367 000c 00       		.byte	0
 368 000d 04       		.byte	4
 369 000e 1E       		.byte	30
 370 000f 28       		.byte	40
 371 0010 30       		.byte	48
 372 0011 1E       		.byte	30
 373 0012 00       		.byte	0
 374 0013 00       		.byte	0
 375 0014 8001     		.short	384
 376 0016 F000     		.short	240
 377              		.text
 378              	.Letext0:
 379              		.file 2 "c:\\program files (x86)\\cypress\\psoc creator\\4.1\\psoc creator\\import\\gnu\\arm\\5.4.
 380              		.file 3 "c:\\program files (x86)\\cypress\\psoc creator\\4.1\\psoc creator\\import\\gnu\\arm\\5.4.
 381              		.file 4 "..\\..\\u8g2\\csrc\\u8x8.h"