ARM GAS  C:\Users\gjl\AppData\Local\Temp\ccb2bm32.s 			page 1


   1              		.syntax unified
   2              		.cpu cortex-m0
   3              		.fpu softvfp
   4              		.eabi_attribute 20, 1
   5              		.eabi_attribute 21, 1
   6              		.eabi_attribute 23, 3
   7              		.eabi_attribute 24, 1
   8              		.eabi_attribute 25, 1
   9              		.eabi_attribute 26, 1
  10              		.eabi_attribute 30, 1
  11              		.eabi_attribute 34, 0
  12              		.eabi_attribute 18, 4
  13              		.thumb
  14              		.syntax unified
  15              		.file	"u8x8_d_stdio.c"
  16              		.text
  17              	.Ltext0:
  18              		.cfi_sections	.debug_frame
  19              		.section	.text.bitmap_place_tile,"ax",%progbits
  20              		.align	2
  21              		.global	bitmap_place_tile
  22              		.code	16
  23              		.thumb_func
  24              		.type	bitmap_place_tile, %function
  25              	bitmap_place_tile:
  26              	.LFB1:
  27              		.file 1 "..\\u8g2\\csrc\\u8x8_d_stdio.c"
   1:..\u8g2\csrc/u8x8_d_stdio.c **** /*
   2:..\u8g2\csrc/u8x8_d_stdio.c **** 
   3:..\u8g2\csrc/u8x8_d_stdio.c ****   u8x8_d_stdio.c
   4:..\u8g2\csrc/u8x8_d_stdio.c **** 
   5:..\u8g2\csrc/u8x8_d_stdio.c ****   Universal 8bit Graphics Library (https://github.com/olikraus/u8g2/)
   6:..\u8g2\csrc/u8x8_d_stdio.c **** 
   7:..\u8g2\csrc/u8x8_d_stdio.c ****   Copyright (c) 2016, olikraus@gmail.com
   8:..\u8g2\csrc/u8x8_d_stdio.c ****   All rights reserved.
   9:..\u8g2\csrc/u8x8_d_stdio.c **** 
  10:..\u8g2\csrc/u8x8_d_stdio.c ****   Redistribution and use in source and binary forms, with or without modification, 
  11:..\u8g2\csrc/u8x8_d_stdio.c ****   are permitted provided that the following conditions are met:
  12:..\u8g2\csrc/u8x8_d_stdio.c **** 
  13:..\u8g2\csrc/u8x8_d_stdio.c ****   * Redistributions of source code must retain the above copyright notice, this list 
  14:..\u8g2\csrc/u8x8_d_stdio.c ****     of conditions and the following disclaimer.
  15:..\u8g2\csrc/u8x8_d_stdio.c ****     
  16:..\u8g2\csrc/u8x8_d_stdio.c ****   * Redistributions in binary form must reproduce the above copyright notice, this 
  17:..\u8g2\csrc/u8x8_d_stdio.c ****     list of conditions and the following disclaimer in the documentation and/or other 
  18:..\u8g2\csrc/u8x8_d_stdio.c ****     materials provided with the distribution.
  19:..\u8g2\csrc/u8x8_d_stdio.c **** 
  20:..\u8g2\csrc/u8x8_d_stdio.c ****   THIS SOFTWARE IS PROVIDED BY THE COPYRIGHT HOLDERS AND 
  21:..\u8g2\csrc/u8x8_d_stdio.c ****   CONTRIBUTORS "AS IS" AND ANY EXPRESS OR IMPLIED WARRANTIES, 
  22:..\u8g2\csrc/u8x8_d_stdio.c ****   INCLUDING, BUT NOT LIMITED TO, THE IMPLIED WARRANTIES OF 
  23:..\u8g2\csrc/u8x8_d_stdio.c ****   MERCHANTABILITY AND FITNESS FOR A PARTICULAR PURPOSE ARE 
  24:..\u8g2\csrc/u8x8_d_stdio.c ****   DISCLAIMED. IN NO EVENT SHALL THE COPYRIGHT HOLDER OR 
  25:..\u8g2\csrc/u8x8_d_stdio.c ****   CONTRIBUTORS BE LIABLE FOR ANY DIRECT, INDIRECT, INCIDENTAL, 
  26:..\u8g2\csrc/u8x8_d_stdio.c ****   SPECIAL, EXEMPLARY, OR CONSEQUENTIAL DAMAGES (INCLUDING, BUT 
  27:..\u8g2\csrc/u8x8_d_stdio.c ****   NOT LIMITED TO, PROCUREMENT OF SUBSTITUTE GOODS OR SERVICES; 
  28:..\u8g2\csrc/u8x8_d_stdio.c ****   LOSS OF USE, DATA, OR PROFITS; OR BUSINESS INTERRUPTION) HOWEVER 
  29:..\u8g2\csrc/u8x8_d_stdio.c ****   CAUSED AND ON ANY THEORY OF LIABILITY, WHETHER IN CONTRACT, 
  30:..\u8g2\csrc/u8x8_d_stdio.c ****   STRICT LIABILITY, OR TORT (INCLUDING NEGLIGENCE OR OTHERWISE) 
ARM GAS  C:\Users\gjl\AppData\Local\Temp\ccb2bm32.s 			page 2


  31:..\u8g2\csrc/u8x8_d_stdio.c ****   ARISING IN ANY WAY OUT OF THE USE OF THIS SOFTWARE, EVEN IF 
  32:..\u8g2\csrc/u8x8_d_stdio.c ****   ADVISED OF THE POSSIBILITY OF SUCH DAMAGE.  
  33:..\u8g2\csrc/u8x8_d_stdio.c **** 
  34:..\u8g2\csrc/u8x8_d_stdio.c **** */
  35:..\u8g2\csrc/u8x8_d_stdio.c **** 
  36:..\u8g2\csrc/u8x8_d_stdio.c **** #include "u8x8.h"
  37:..\u8g2\csrc/u8x8_d_stdio.c **** 
  38:..\u8g2\csrc/u8x8_d_stdio.c **** #include <stdio.h>
  39:..\u8g2\csrc/u8x8_d_stdio.c **** 
  40:..\u8g2\csrc/u8x8_d_stdio.c **** #define W 8
  41:..\u8g2\csrc/u8x8_d_stdio.c **** #define H 2
  42:..\u8g2\csrc/u8x8_d_stdio.c **** 
  43:..\u8g2\csrc/u8x8_d_stdio.c **** uint8_t bitmap[W*H*8];
  44:..\u8g2\csrc/u8x8_d_stdio.c **** 
  45:..\u8g2\csrc/u8x8_d_stdio.c **** void bitmap_place_tile(uint8_t x, uint8_t y, uint8_t *tile)
  46:..\u8g2\csrc/u8x8_d_stdio.c **** {
  28              		.loc 1 46 0
  29              		.cfi_startproc
  30              		@ args = 0, pretend = 0, frame = 0
  31              		@ frame_needed = 0, uses_anonymous_args = 0
  32              	.LVL0:
  33 0000 70B5     		push	{r4, r5, r6, lr}
  34              		.cfi_def_cfa_offset 16
  35              		.cfi_offset 4, -16
  36              		.cfi_offset 5, -12
  37              		.cfi_offset 6, -8
  38              		.cfi_offset 14, -4
  39              	.LVL1:
  47:..\u8g2\csrc/u8x8_d_stdio.c ****   uint8_t i;
  48:..\u8g2\csrc/u8x8_d_stdio.c ****   for(i = 0; i < 8; i++ )
  40              		.loc 1 48 0
  41 0002 0024     		movs	r4, #0
  42 0004 08E0     		b	.L2
  43              	.LVL2:
  44              	.L3:
  49:..\u8g2\csrc/u8x8_d_stdio.c ****     bitmap[x*8+y*W*8+i] = tile[i];
  45              		.loc 1 49 0 discriminator 3
  46 0006 CB00     		lsls	r3, r1, #3
  47 0008 1B18     		adds	r3, r3, r0
  48 000a DB00     		lsls	r3, r3, #3
  49 000c E318     		adds	r3, r4, r3
  50 000e 165D     		ldrb	r6, [r2, r4]
  51 0010 034D     		ldr	r5, .L4
  52 0012 EE54     		strb	r6, [r5, r3]
  48:..\u8g2\csrc/u8x8_d_stdio.c ****     bitmap[x*8+y*W*8+i] = tile[i];
  53              		.loc 1 48 0 discriminator 3
  54 0014 0134     		adds	r4, r4, #1
  55              	.LVL3:
  56 0016 E4B2     		uxtb	r4, r4
  57              	.LVL4:
  58              	.L2:
  48:..\u8g2\csrc/u8x8_d_stdio.c ****     bitmap[x*8+y*W*8+i] = tile[i];
  59              		.loc 1 48 0 is_stmt 0 discriminator 1
  60 0018 072C     		cmp	r4, #7
  61 001a F4D9     		bls	.L3
  50:..\u8g2\csrc/u8x8_d_stdio.c **** }
  62              		.loc 1 50 0 is_stmt 1
ARM GAS  C:\Users\gjl\AppData\Local\Temp\ccb2bm32.s 			page 3


  63              		@ sp needed
  64              	.LVL5:
  65 001c 70BD     		pop	{r4, r5, r6, pc}
  66              	.L5:
  67 001e C046     		.align	2
  68              	.L4:
  69 0020 00000000 		.word	bitmap
  70              		.cfi_endproc
  71              	.LFE1:
  72              		.size	bitmap_place_tile, .-bitmap_place_tile
  73              		.section	.text.bitmap_show,"ax",%progbits
  74              		.align	2
  75              		.global	bitmap_show
  76              		.code	16
  77              		.thumb_func
  78              		.type	bitmap_show, %function
  79              	bitmap_show:
  80              	.LFB2:
  51:..\u8g2\csrc/u8x8_d_stdio.c **** 
  52:..\u8g2\csrc/u8x8_d_stdio.c **** void bitmap_show(void)
  53:..\u8g2\csrc/u8x8_d_stdio.c **** {
  81              		.loc 1 53 0
  82              		.cfi_startproc
  83              		@ args = 0, pretend = 0, frame = 0
  84              		@ frame_needed = 0, uses_anonymous_args = 0
  85 0000 70B5     		push	{r4, r5, r6, lr}
  86              		.cfi_def_cfa_offset 16
  87              		.cfi_offset 4, -16
  88              		.cfi_offset 5, -12
  89              		.cfi_offset 6, -8
  90              		.cfi_offset 14, -4
  91              	.LVL6:
  54:..\u8g2\csrc/u8x8_d_stdio.c ****   int x, y;
  55:..\u8g2\csrc/u8x8_d_stdio.c ****   for( y = 0; y < H*8; y++ )
  92              		.loc 1 55 0
  93 0002 0025     		movs	r5, #0
  94 0004 1CE0     		b	.L7
  95              	.LVL7:
  96              	.L10:
  56:..\u8g2\csrc/u8x8_d_stdio.c ****   {
  57:..\u8g2\csrc/u8x8_d_stdio.c ****     for( x = 0; x < W*8; x++ )
  58:..\u8g2\csrc/u8x8_d_stdio.c ****     {
  59:..\u8g2\csrc/u8x8_d_stdio.c ****       if ( (bitmap[x+(y/8)*W*8] & (1<<((y&7)))) != 0 )
  97              		.loc 1 59 0
  98 0006 EB17     		asrs	r3, r5, #31
  99 0008 0722     		movs	r2, #7
 100 000a 1340     		ands	r3, r2
 101 000c 5B19     		adds	r3, r3, r5
 102 000e DB10     		asrs	r3, r3, #3
 103 0010 9B01     		lsls	r3, r3, #6
 104 0012 E318     		adds	r3, r4, r3
 105 0014 0C49     		ldr	r1, .L13
 106 0016 CB5C     		ldrb	r3, [r1, r3]
 107 0018 2A40     		ands	r2, r5
 108 001a 1341     		asrs	r3, r3, r2
 109 001c DB07     		lsls	r3, r3, #31
 110 001e 03D5     		bpl	.L8
ARM GAS  C:\Users\gjl\AppData\Local\Temp\ccb2bm32.s 			page 4


  60:..\u8g2\csrc/u8x8_d_stdio.c ****       {
  61:..\u8g2\csrc/u8x8_d_stdio.c **** 	printf("*");
 111              		.loc 1 61 0
 112 0020 2A20     		movs	r0, #42
 113 0022 FFF7FEFF 		bl	putchar
 114              	.LVL8:
 115 0026 02E0     		b	.L9
 116              	.L8:
  62:..\u8g2\csrc/u8x8_d_stdio.c ****       }
  63:..\u8g2\csrc/u8x8_d_stdio.c ****       else
  64:..\u8g2\csrc/u8x8_d_stdio.c ****       {
  65:..\u8g2\csrc/u8x8_d_stdio.c **** 	printf(".");
 117              		.loc 1 65 0
 118 0028 2E20     		movs	r0, #46
 119 002a FFF7FEFF 		bl	putchar
 120              	.LVL9:
 121              	.L9:
  57:..\u8g2\csrc/u8x8_d_stdio.c ****     {
 122              		.loc 1 57 0 discriminator 2
 123 002e 0134     		adds	r4, r4, #1
 124              	.LVL10:
 125 0030 00E0     		b	.L11
 126              	.LVL11:
 127              	.L12:
 128 0032 0024     		movs	r4, #0
 129              	.L11:
 130              	.LVL12:
  57:..\u8g2\csrc/u8x8_d_stdio.c ****     {
 131              		.loc 1 57 0 is_stmt 0 discriminator 1
 132 0034 3F2C     		cmp	r4, #63
 133 0036 E6DD     		ble	.L10
  66:..\u8g2\csrc/u8x8_d_stdio.c ****       }
  67:..\u8g2\csrc/u8x8_d_stdio.c ****     }
  68:..\u8g2\csrc/u8x8_d_stdio.c ****     printf("\n");
 134              		.loc 1 68 0 is_stmt 1 discriminator 2
 135 0038 0A20     		movs	r0, #10
 136 003a FFF7FEFF 		bl	putchar
 137              	.LVL13:
  55:..\u8g2\csrc/u8x8_d_stdio.c ****   {
 138              		.loc 1 55 0 discriminator 2
 139 003e 0135     		adds	r5, r5, #1
 140              	.LVL14:
 141              	.L7:
  55:..\u8g2\csrc/u8x8_d_stdio.c ****   {
 142              		.loc 1 55 0 is_stmt 0 discriminator 1
 143 0040 0F2D     		cmp	r5, #15
 144 0042 F6DD     		ble	.L12
  69:..\u8g2\csrc/u8x8_d_stdio.c ****   }
  70:..\u8g2\csrc/u8x8_d_stdio.c **** }
 145              		.loc 1 70 0 is_stmt 1
 146              		@ sp needed
 147              	.LVL15:
 148 0044 70BD     		pop	{r4, r5, r6, pc}
 149              	.L14:
 150 0046 C046     		.align	2
 151              	.L13:
 152 0048 00000000 		.word	bitmap
ARM GAS  C:\Users\gjl\AppData\Local\Temp\ccb2bm32.s 			page 5


 153              		.cfi_endproc
 154              	.LFE2:
 155              		.size	bitmap_show, .-bitmap_show
 156              		.section	.text.u8x8_d_stdio,"ax",%progbits
 157              		.align	2
 158              		.global	u8x8_d_stdio
 159              		.code	16
 160              		.thumb_func
 161              		.type	u8x8_d_stdio, %function
 162              	u8x8_d_stdio:
 163              	.LFB3:
  71:..\u8g2\csrc/u8x8_d_stdio.c **** 
  72:..\u8g2\csrc/u8x8_d_stdio.c **** 
  73:..\u8g2\csrc/u8x8_d_stdio.c **** uint8_t u8x8_d_stdio(U8X8_UNUSED u8x8_t *u8x8, uint8_t msg, uint8_t arg_int, void *arg_ptr)
  74:..\u8g2\csrc/u8x8_d_stdio.c **** {
 164              		.loc 1 74 0
 165              		.cfi_startproc
 166              		@ args = 0, pretend = 0, frame = 0
 167              		@ frame_needed = 0, uses_anonymous_args = 0
 168              	.LVL16:
 169 0000 10B5     		push	{r4, lr}
 170              		.cfi_def_cfa_offset 8
 171              		.cfi_offset 4, -8
 172              		.cfi_offset 14, -4
  75:..\u8g2\csrc/u8x8_d_stdio.c ****   switch(msg)
 173              		.loc 1 75 0
 174 0002 0B29     		cmp	r1, #11
 175 0004 02D0     		beq	.L17
 176 0006 0F29     		cmp	r1, #15
 177 0008 05D0     		beq	.L18
 178 000a 09E0     		b	.L16
 179              	.L17:
  76:..\u8g2\csrc/u8x8_d_stdio.c ****   {
  77:..\u8g2\csrc/u8x8_d_stdio.c ****     case U8X8_MSG_DISPLAY_INIT:
  78:..\u8g2\csrc/u8x8_d_stdio.c ****       break;
  79:..\u8g2\csrc/u8x8_d_stdio.c ****     case U8X8_MSG_DISPLAY_SET_POWER_SAVE:
  80:..\u8g2\csrc/u8x8_d_stdio.c ****       if ( arg_int == 0 )
 180              		.loc 1 80 0
 181 000c 002A     		cmp	r2, #0
 182 000e 07D1     		bne	.L16
  81:..\u8g2\csrc/u8x8_d_stdio.c **** 	bitmap_show();
 183              		.loc 1 81 0
 184 0010 FFF7FEFF 		bl	bitmap_show
 185              	.LVL17:
 186 0014 04E0     		b	.L16
 187              	.LVL18:
 188              	.L18:
  82:..\u8g2\csrc/u8x8_d_stdio.c ****       break;
  83:..\u8g2\csrc/u8x8_d_stdio.c ****     case U8X8_MSG_DISPLAY_SET_CONTRAST:
  84:..\u8g2\csrc/u8x8_d_stdio.c ****       break;
  85:..\u8g2\csrc/u8x8_d_stdio.c ****     case U8X8_MSG_DISPLAY_DRAW_TILE:      
  86:..\u8g2\csrc/u8x8_d_stdio.c ****       bitmap_place_tile(((u8x8_tile_t *)arg_ptr)->x_pos, ((u8x8_tile_t *)arg_ptr)->y_pos, ((u8x8_ti
 189              		.loc 1 86 0
 190 0016 1A68     		ldr	r2, [r3]
 191              	.LVL19:
 192 0018 9979     		ldrb	r1, [r3, #6]
 193              	.LVL20:
ARM GAS  C:\Users\gjl\AppData\Local\Temp\ccb2bm32.s 			page 6


 194 001a 5879     		ldrb	r0, [r3, #5]
 195              	.LVL21:
 196 001c FFF7FEFF 		bl	bitmap_place_tile
 197              	.LVL22:
 198              	.L16:
  87:..\u8g2\csrc/u8x8_d_stdio.c ****       break;
  88:..\u8g2\csrc/u8x8_d_stdio.c ****     default:
  89:..\u8g2\csrc/u8x8_d_stdio.c ****       break;
  90:..\u8g2\csrc/u8x8_d_stdio.c ****   }
  91:..\u8g2\csrc/u8x8_d_stdio.c ****   return 1;
  92:..\u8g2\csrc/u8x8_d_stdio.c **** }
 199              		.loc 1 92 0
 200 0020 0120     		movs	r0, #1
 201              		@ sp needed
 202 0022 10BD     		pop	{r4, pc}
 203              		.cfi_endproc
 204              	.LFE3:
 205              		.size	u8x8_d_stdio, .-u8x8_d_stdio
 206              		.section	.text.u8x8_SetupStdio,"ax",%progbits
 207              		.align	2
 208              		.global	u8x8_SetupStdio
 209              		.code	16
 210              		.thumb_func
 211              		.type	u8x8_SetupStdio, %function
 212              	u8x8_SetupStdio:
 213              	.LFB4:
  93:..\u8g2\csrc/u8x8_d_stdio.c **** 
  94:..\u8g2\csrc/u8x8_d_stdio.c **** 
  95:..\u8g2\csrc/u8x8_d_stdio.c **** 
  96:..\u8g2\csrc/u8x8_d_stdio.c **** void u8x8_SetupStdio(u8x8_t *u8x8)
  97:..\u8g2\csrc/u8x8_d_stdio.c **** {
 214              		.loc 1 97 0
 215              		.cfi_startproc
 216              		@ args = 0, pretend = 0, frame = 0
 217              		@ frame_needed = 0, uses_anonymous_args = 0
 218              	.LVL23:
 219 0000 10B5     		push	{r4, lr}
 220              		.cfi_def_cfa_offset 8
 221              		.cfi_offset 4, -8
 222              		.cfi_offset 14, -4
 223 0002 0400     		movs	r4, r0
  98:..\u8g2\csrc/u8x8_d_stdio.c ****   u8x8_SetupDefaults(u8x8);
 224              		.loc 1 98 0
 225 0004 FFF7FEFF 		bl	u8x8_SetupDefaults
 226              	.LVL24:
  99:..\u8g2\csrc/u8x8_d_stdio.c ****   u8x8->display_cb = u8x8_d_stdio;
 227              		.loc 1 99 0
 228 0008 014B     		ldr	r3, .L20
 229 000a A360     		str	r3, [r4, #8]
 100:..\u8g2\csrc/u8x8_d_stdio.c **** }
 230              		.loc 1 100 0
 231              		@ sp needed
 232              	.LVL25:
 233 000c 10BD     		pop	{r4, pc}
 234              	.L21:
 235 000e C046     		.align	2
 236              	.L20:
ARM GAS  C:\Users\gjl\AppData\Local\Temp\ccb2bm32.s 			page 7


 237 0010 00000000 		.word	u8x8_d_stdio
 238              		.cfi_endproc
 239              	.LFE4:
 240              		.size	u8x8_SetupStdio, .-u8x8_SetupStdio
 241              		.comm	bitmap,128,4
 242              		.text
 243              	.Letext0:
 244              		.file 2 "c:\\program files (x86)\\cypress\\psoc creator\\4.1\\psoc creator\\import\\gnu\\arm\\5.4.
 245              		.file 3 "c:\\program files (x86)\\cypress\\psoc creator\\4.1\\psoc creator\\import\\gnu\\arm\\5.4.
 246              		.file 4 "..\\u8g2\\csrc\\u8x8.h"
 247              		.file 5 "<built-in>"