ARM GAS  C:\Users\gjl\AppData\Local\Temp\ccmQtU5h.s 			page 1


   1              		.syntax unified
   2              		.cpu cortex-m0
   3              		.fpu softvfp
   4              		.eabi_attribute 20, 1
   5              		.eabi_attribute 21, 1
   6              		.eabi_attribute 23, 3
   7              		.eabi_attribute 24, 1
   8              		.eabi_attribute 25, 1
   9              		.eabi_attribute 26, 1
  10              		.eabi_attribute 30, 1
  11              		.eabi_attribute 34, 0
  12              		.eabi_attribute 18, 4
  13              		.thumb
  14              		.syntax unified
  15              		.file	"u8x8_input_value.c"
  16              		.text
  17              	.Ltext0:
  18              		.cfi_sections	.debug_frame
  19              		.section	.text.u8x8_UserInterfaceInputValue,"ax",%progbits
  20              		.align	2
  21              		.global	u8x8_UserInterfaceInputValue
  22              		.code	16
  23              		.thumb_func
  24              		.type	u8x8_UserInterfaceInputValue, %function
  25              	u8x8_UserInterfaceInputValue:
  26              	.LFB0:
  27              		.file 1 "..\\u8g2\\csrc\\u8x8_input_value.c"
   1:..\u8g2\csrc/u8x8_input_value.c **** /*
   2:..\u8g2\csrc/u8x8_input_value.c **** 
   3:..\u8g2\csrc/u8x8_input_value.c ****   u8x8_input_value.c
   4:..\u8g2\csrc/u8x8_input_value.c ****   
   5:..\u8g2\csrc/u8x8_input_value.c ****   Universal 8bit Graphics Library (https://github.com/olikraus/u8g2/)
   6:..\u8g2\csrc/u8x8_input_value.c **** 
   7:..\u8g2\csrc/u8x8_input_value.c ****   Copyright (c) 2016, olikraus@gmail.com
   8:..\u8g2\csrc/u8x8_input_value.c ****   All rights reserved.
   9:..\u8g2\csrc/u8x8_input_value.c **** 
  10:..\u8g2\csrc/u8x8_input_value.c ****   Redistribution and use in source and binary forms, with or without modification, 
  11:..\u8g2\csrc/u8x8_input_value.c ****   are permitted provided that the following conditions are met:
  12:..\u8g2\csrc/u8x8_input_value.c **** 
  13:..\u8g2\csrc/u8x8_input_value.c ****   * Redistributions of source code must retain the above copyright notice, this list 
  14:..\u8g2\csrc/u8x8_input_value.c ****     of conditions and the following disclaimer.
  15:..\u8g2\csrc/u8x8_input_value.c ****     
  16:..\u8g2\csrc/u8x8_input_value.c ****   * Redistributions in binary form must reproduce the above copyright notice, this 
  17:..\u8g2\csrc/u8x8_input_value.c ****     list of conditions and the following disclaimer in the documentation and/or other 
  18:..\u8g2\csrc/u8x8_input_value.c ****     materials provided with the distribution.
  19:..\u8g2\csrc/u8x8_input_value.c **** 
  20:..\u8g2\csrc/u8x8_input_value.c ****   THIS SOFTWARE IS PROVIDED BY THE COPYRIGHT HOLDERS AND 
  21:..\u8g2\csrc/u8x8_input_value.c ****   CONTRIBUTORS "AS IS" AND ANY EXPRESS OR IMPLIED WARRANTIES, 
  22:..\u8g2\csrc/u8x8_input_value.c ****   INCLUDING, BUT NOT LIMITED TO, THE IMPLIED WARRANTIES OF 
  23:..\u8g2\csrc/u8x8_input_value.c ****   MERCHANTABILITY AND FITNESS FOR A PARTICULAR PURPOSE ARE 
  24:..\u8g2\csrc/u8x8_input_value.c ****   DISCLAIMED. IN NO EVENT SHALL THE COPYRIGHT HOLDER OR 
  25:..\u8g2\csrc/u8x8_input_value.c ****   CONTRIBUTORS BE LIABLE FOR ANY DIRECT, INDIRECT, INCIDENTAL, 
  26:..\u8g2\csrc/u8x8_input_value.c ****   SPECIAL, EXEMPLARY, OR CONSEQUENTIAL DAMAGES (INCLUDING, BUT 
  27:..\u8g2\csrc/u8x8_input_value.c ****   NOT LIMITED TO, PROCUREMENT OF SUBSTITUTE GOODS OR SERVICES; 
  28:..\u8g2\csrc/u8x8_input_value.c ****   LOSS OF USE, DATA, OR PROFITS; OR BUSINESS INTERRUPTION) HOWEVER 
  29:..\u8g2\csrc/u8x8_input_value.c ****   CAUSED AND ON ANY THEORY OF LIABILITY, WHETHER IN CONTRACT, 
  30:..\u8g2\csrc/u8x8_input_value.c ****   STRICT LIABILITY, OR TORT (INCLUDING NEGLIGENCE OR OTHERWISE) 
ARM GAS  C:\Users\gjl\AppData\Local\Temp\ccmQtU5h.s 			page 2


  31:..\u8g2\csrc/u8x8_input_value.c ****   ARISING IN ANY WAY OUT OF THE USE OF THIS SOFTWARE, EVEN IF 
  32:..\u8g2\csrc/u8x8_input_value.c ****   ADVISED OF THE POSSIBILITY OF SUCH DAMAGE.  
  33:..\u8g2\csrc/u8x8_input_value.c ****   
  34:..\u8g2\csrc/u8x8_input_value.c **** */
  35:..\u8g2\csrc/u8x8_input_value.c **** 
  36:..\u8g2\csrc/u8x8_input_value.c **** #include "u8x8.h"
  37:..\u8g2\csrc/u8x8_input_value.c **** 
  38:..\u8g2\csrc/u8x8_input_value.c **** /*
  39:..\u8g2\csrc/u8x8_input_value.c ****   return:
  40:..\u8g2\csrc/u8x8_input_value.c ****     0: value is not changed (HOME/Break Button pressed)
  41:..\u8g2\csrc/u8x8_input_value.c ****     1: value has been updated
  42:..\u8g2\csrc/u8x8_input_value.c **** */
  43:..\u8g2\csrc/u8x8_input_value.c **** 
  44:..\u8g2\csrc/u8x8_input_value.c **** uint8_t u8x8_UserInterfaceInputValue(u8x8_t *u8x8, const char *title, const char *pre, uint8_t *val
  45:..\u8g2\csrc/u8x8_input_value.c **** {
  28              		.loc 1 45 0
  29              		.cfi_startproc
  30              		@ args = 16, pretend = 0, frame = 8
  31              		@ frame_needed = 0, uses_anonymous_args = 0
  32              	.LVL0:
  33 0000 F0B5     		push	{r4, r5, r6, r7, lr}
  34              		.cfi_def_cfa_offset 20
  35              		.cfi_offset 4, -20
  36              		.cfi_offset 5, -16
  37              		.cfi_offset 6, -12
  38              		.cfi_offset 7, -8
  39              		.cfi_offset 14, -4
  40 0002 5F46     		mov	r7, fp
  41 0004 5646     		mov	r6, r10
  42 0006 4D46     		mov	r5, r9
  43 0008 4446     		mov	r4, r8
  44 000a F0B4     		push	{r4, r5, r6, r7}
  45              		.cfi_def_cfa_offset 36
  46              		.cfi_offset 8, -36
  47              		.cfi_offset 9, -32
  48              		.cfi_offset 10, -28
  49              		.cfi_offset 11, -24
  50 000c 85B0     		sub	sp, sp, #20
  51              		.cfi_def_cfa_offset 56
  52 000e 0500     		movs	r5, r0
  53 0010 0391     		str	r1, [sp, #12]
  54 0012 0292     		str	r2, [sp, #8]
  55 0014 9B46     		mov	fp, r3
  56 0016 0EAB     		add	r3, sp, #56
  57              	.LVL1:
  58 0018 1B78     		ldrb	r3, [r3]
  59              	.LVL2:
  60 001a 9A46     		mov	r10, r3
  61 001c 0FAB     		add	r3, sp, #60
  62              	.LVL3:
  63 001e 1B78     		ldrb	r3, [r3]
  64              	.LVL4:
  65 0020 9946     		mov	r9, r3
  66 0022 10AB     		add	r3, sp, #64
  67              	.LVL5:
  68 0024 1F78     		ldrb	r7, [r3]
  46:..\u8g2\csrc/u8x8_input_value.c ****   uint8_t height;
ARM GAS  C:\Users\gjl\AppData\Local\Temp\ccmQtU5h.s 			page 3


  47:..\u8g2\csrc/u8x8_input_value.c ****   uint8_t y;
  48:..\u8g2\csrc/u8x8_input_value.c ****   uint8_t width;
  49:..\u8g2\csrc/u8x8_input_value.c ****   uint8_t x;
  50:..\u8g2\csrc/u8x8_input_value.c ****   uint8_t local_value = *value;
  69              		.loc 1 50 0
  70 0026 5B46     		mov	r3, fp
  71              	.LVL6:
  72 0028 1C78     		ldrb	r4, [r3]
  73              	.LVL7:
  51:..\u8g2\csrc/u8x8_input_value.c ****   uint8_t r;
  52:..\u8g2\csrc/u8x8_input_value.c ****   uint8_t event;
  53:..\u8g2\csrc/u8x8_input_value.c **** 
  54:..\u8g2\csrc/u8x8_input_value.c ****   /* calculate overall height of the input value box */
  55:..\u8g2\csrc/u8x8_input_value.c ****   height = 1;	/* button line */
  56:..\u8g2\csrc/u8x8_input_value.c ****   height += u8x8_GetStringLineCnt(title);
  74              		.loc 1 56 0
  75 002a 0800     		movs	r0, r1
  76              	.LVL8:
  77 002c FFF7FEFF 		bl	u8x8_GetStringLineCnt
  78              	.LVL9:
  79 0030 0130     		adds	r0, r0, #1
  80 0032 C0B2     		uxtb	r0, r0
  81              	.LVL10:
  57:..\u8g2\csrc/u8x8_input_value.c ****   
  58:..\u8g2\csrc/u8x8_input_value.c ****   /* calculate offset from top */
  59:..\u8g2\csrc/u8x8_input_value.c ****   y = 0;
  60:..\u8g2\csrc/u8x8_input_value.c ****   if ( height < u8x8_GetRows(u8x8)  )
  82              		.loc 1 60 0
  83 0034 2B68     		ldr	r3, [r5]
  84 0036 5B7C     		ldrb	r3, [r3, #17]
  85 0038 9842     		cmp	r0, r3
  86 003a 04D2     		bcs	.L13
  87              	.LVL11:
  61:..\u8g2\csrc/u8x8_input_value.c ****   {
  62:..\u8g2\csrc/u8x8_input_value.c ****     y = u8x8_GetRows(u8x8);
  63:..\u8g2\csrc/u8x8_input_value.c ****     y -= height;
  88              		.loc 1 63 0
  89 003c 181A     		subs	r0, r3, r0
  90              	.LVL12:
  91 003e C0B2     		uxtb	r0, r0
  92              	.LVL13:
  64:..\u8g2\csrc/u8x8_input_value.c ****     y /= 2;
  93              		.loc 1 64 0
  94 0040 4308     		lsrs	r3, r0, #1
  95 0042 9846     		mov	r8, r3
  96              	.LVL14:
  97 0044 01E0     		b	.L2
  98              	.LVL15:
  99              	.L13:
  59:..\u8g2\csrc/u8x8_input_value.c ****   if ( height < u8x8_GetRows(u8x8)  )
 100              		.loc 1 59 0
 101 0046 0023     		movs	r3, #0
 102 0048 9846     		mov	r8, r3
 103              	.LVL16:
 104              	.L2:
  65:..\u8g2\csrc/u8x8_input_value.c ****   }
  66:..\u8g2\csrc/u8x8_input_value.c ****   
ARM GAS  C:\Users\gjl\AppData\Local\Temp\ccmQtU5h.s 			page 4


  67:..\u8g2\csrc/u8x8_input_value.c ****   /* calculate offset from left for the label */
  68:..\u8g2\csrc/u8x8_input_value.c ****   x = 0;
  69:..\u8g2\csrc/u8x8_input_value.c ****   width = u8x8_GetUTF8Len(u8x8, pre);
 105              		.loc 1 69 0
 106 004a 0299     		ldr	r1, [sp, #8]
 107 004c 2800     		movs	r0, r5
 108 004e FFF7FEFF 		bl	u8x8_GetUTF8Len
 109              	.LVL17:
  70:..\u8g2\csrc/u8x8_input_value.c ****   width += digits;
 110              		.loc 1 70 0
 111 0052 C019     		adds	r0, r0, r7
 112              	.LVL18:
 113 0054 C6B2     		uxtb	r6, r0
 114              	.LVL19:
  71:..\u8g2\csrc/u8x8_input_value.c ****   width += u8x8_GetUTF8Len(u8x8, post);
 115              		.loc 1 71 0
 116 0056 1199     		ldr	r1, [sp, #68]
 117 0058 2800     		movs	r0, r5
 118 005a FFF7FEFF 		bl	u8x8_GetUTF8Len
 119              	.LVL20:
 120 005e 3618     		adds	r6, r6, r0
 121              	.LVL21:
 122 0060 F0B2     		uxtb	r0, r6
 123              	.LVL22:
  72:..\u8g2\csrc/u8x8_input_value.c ****   if ( width < u8x8_GetCols(u8x8) )
 124              		.loc 1 72 0
 125 0062 2B68     		ldr	r3, [r5]
 126 0064 1E7C     		ldrb	r6, [r3, #16]
 127 0066 B042     		cmp	r0, r6
 128 0068 03D2     		bcs	.L14
 129              	.LVL23:
  73:..\u8g2\csrc/u8x8_input_value.c ****   {
  74:..\u8g2\csrc/u8x8_input_value.c ****     x = u8x8_GetCols(u8x8);
  75:..\u8g2\csrc/u8x8_input_value.c ****     x -= width;
 130              		.loc 1 75 0
 131 006a 361A     		subs	r6, r6, r0
 132              	.LVL24:
 133 006c F6B2     		uxtb	r6, r6
 134              	.LVL25:
  76:..\u8g2\csrc/u8x8_input_value.c ****     x /= 2;
 135              		.loc 1 76 0
 136 006e 7608     		lsrs	r6, r6, #1
 137              	.LVL26:
 138 0070 00E0     		b	.L3
 139              	.LVL27:
 140              	.L14:
  68:..\u8g2\csrc/u8x8_input_value.c ****   width = u8x8_GetUTF8Len(u8x8, pre);
 141              		.loc 1 68 0
 142 0072 0026     		movs	r6, #0
 143              	.LVL28:
 144              	.L3:
  77:..\u8g2\csrc/u8x8_input_value.c ****   }
  78:..\u8g2\csrc/u8x8_input_value.c ****   
  79:..\u8g2\csrc/u8x8_input_value.c ****   /* render */
  80:..\u8g2\csrc/u8x8_input_value.c ****   u8x8_ClearDisplay(u8x8);   /* required, because not everything is filled */
 145              		.loc 1 80 0
 146 0074 2800     		movs	r0, r5
ARM GAS  C:\Users\gjl\AppData\Local\Temp\ccmQtU5h.s 			page 5


 147              	.LVL29:
 148 0076 FFF7FEFF 		bl	u8x8_ClearDisplay
 149              	.LVL30:
  81:..\u8g2\csrc/u8x8_input_value.c ****   u8x8_SetInverseFont(u8x8, 0);  
 150              		.loc 1 81 0
 151 007a 0023     		movs	r3, #0
 152 007c EB77     		strb	r3, [r5, #31]
  82:..\u8g2\csrc/u8x8_input_value.c ****   y += u8x8_DrawUTF8Lines(u8x8, 0, y, u8x8_GetCols(u8x8), title);
 153              		.loc 1 82 0
 154 007e 2B68     		ldr	r3, [r5]
 155 0080 1B7C     		ldrb	r3, [r3, #16]
 156 0082 039A     		ldr	r2, [sp, #12]
 157 0084 0092     		str	r2, [sp]
 158 0086 4246     		mov	r2, r8
 159 0088 0021     		movs	r1, #0
 160 008a 2800     		movs	r0, r5
 161 008c FFF7FEFF 		bl	u8x8_DrawUTF8Lines
 162              	.LVL31:
 163 0090 4044     		add	r0, r0, r8
 164 0092 C3B2     		uxtb	r3, r0
 165 0094 1A00     		movs	r2, r3
 166              	.LVL32:
  83:..\u8g2\csrc/u8x8_input_value.c ****   x += u8x8_DrawUTF8(u8x8, x, y, pre);
 167              		.loc 1 83 0
 168 0096 029B     		ldr	r3, [sp, #8]
 169 0098 0292     		str	r2, [sp, #8]
 170              	.LVL33:
 171 009a 3100     		movs	r1, r6
 172 009c 2800     		movs	r0, r5
 173 009e FFF7FEFF 		bl	u8x8_DrawUTF8
 174              	.LVL34:
 175 00a2 3618     		adds	r6, r6, r0
 176              	.LVL35:
 177 00a4 F6B2     		uxtb	r6, r6
 178              	.LVL36:
  84:..\u8g2\csrc/u8x8_input_value.c ****   u8x8_DrawUTF8(u8x8, x+digits, y, post);
 179              		.loc 1 84 0
 180 00a6 B919     		adds	r1, r7, r6
 181 00a8 C9B2     		uxtb	r1, r1
 182 00aa 119B     		ldr	r3, [sp, #68]
 183 00ac 029A     		ldr	r2, [sp, #8]
 184 00ae 2800     		movs	r0, r5
 185 00b0 FFF7FEFF 		bl	u8x8_DrawUTF8
 186              	.LVL37:
  85:..\u8g2\csrc/u8x8_input_value.c ****   u8x8_SetInverseFont(u8x8, 1);
 187              		.loc 1 85 0
 188 00b4 0123     		movs	r3, #1
 189 00b6 EB77     		strb	r3, [r5, #31]
  86:..\u8g2\csrc/u8x8_input_value.c ****   
  87:..\u8g2\csrc/u8x8_input_value.c ****   /* event loop */
  88:..\u8g2\csrc/u8x8_input_value.c ****   u8x8_DrawUTF8(u8x8, x, y, u8x8_u8toa(local_value, digits));
 190              		.loc 1 88 0
 191 00b8 3900     		movs	r1, r7
 192 00ba 2000     		movs	r0, r4
 193 00bc FFF7FEFF 		bl	u8x8_u8toa
 194              	.LVL38:
 195 00c0 0300     		movs	r3, r0
ARM GAS  C:\Users\gjl\AppData\Local\Temp\ccmQtU5h.s 			page 6


 196 00c2 029A     		ldr	r2, [sp, #8]
 197 00c4 3100     		movs	r1, r6
 198 00c6 2800     		movs	r0, r5
 199 00c8 FFF7FEFF 		bl	u8x8_DrawUTF8
 200              	.LVL39:
 201              	.L4:
  89:..\u8g2\csrc/u8x8_input_value.c ****   for(;;)
  90:..\u8g2\csrc/u8x8_input_value.c ****   {
  91:..\u8g2\csrc/u8x8_input_value.c ****     event = u8x8_GetMenuEvent(u8x8);
 202              		.loc 1 91 0
 203 00cc 2800     		movs	r0, r5
 204 00ce FFF7FEFF 		bl	u8x8_GetMenuEvent
 205              	.LVL40:
  92:..\u8g2\csrc/u8x8_input_value.c ****     if ( event == U8X8_MSG_GPIO_MENU_SELECT )
 206              		.loc 1 92 0
 207 00d2 5028     		cmp	r0, #80
 208 00d4 03D1     		bne	.L5
  93:..\u8g2\csrc/u8x8_input_value.c ****     {
  94:..\u8g2\csrc/u8x8_input_value.c ****       *value = local_value;
 209              		.loc 1 94 0
 210 00d6 5B46     		mov	r3, fp
 211 00d8 1C70     		strb	r4, [r3]
 212              	.LVL41:
  95:..\u8g2\csrc/u8x8_input_value.c ****       r = 1;
 213              		.loc 1 95 0
 214 00da 4F38     		subs	r0, r0, #79
 215              	.LVL42:
  96:..\u8g2\csrc/u8x8_input_value.c ****       break;
 216              		.loc 1 96 0
 217 00dc 2CE0     		b	.L6
 218              	.LVL43:
 219              	.L5:
  97:..\u8g2\csrc/u8x8_input_value.c ****     }
  98:..\u8g2\csrc/u8x8_input_value.c ****     else if ( event == U8X8_MSG_GPIO_MENU_HOME )
 220              		.loc 1 98 0
 221 00de 5328     		cmp	r0, #83
 222 00e0 29D0     		beq	.L15
  99:..\u8g2\csrc/u8x8_input_value.c ****     {
 100:..\u8g2\csrc/u8x8_input_value.c ****       r = 0;
 101:..\u8g2\csrc/u8x8_input_value.c ****       break;
 102:..\u8g2\csrc/u8x8_input_value.c ****     }
 103:..\u8g2\csrc/u8x8_input_value.c ****     else if ( event == U8X8_MSG_GPIO_MENU_NEXT || event == U8X8_MSG_GPIO_MENU_UP )
 223              		.loc 1 103 0
 224 00e2 5128     		cmp	r0, #81
 225 00e4 01D0     		beq	.L7
 226              		.loc 1 103 0 is_stmt 0 discriminator 1
 227 00e6 5428     		cmp	r0, #84
 228 00e8 10D1     		bne	.L8
 229              	.L7:
 104:..\u8g2\csrc/u8x8_input_value.c ****     {
 105:..\u8g2\csrc/u8x8_input_value.c ****       if ( local_value >= hi )
 230              		.loc 1 105 0 is_stmt 1
 231 00ea 4C45     		cmp	r4, r9
 232 00ec 02D2     		bcs	.L16
 106:..\u8g2\csrc/u8x8_input_value.c **** 	local_value = lo;
 107:..\u8g2\csrc/u8x8_input_value.c ****       else
 108:..\u8g2\csrc/u8x8_input_value.c **** 	local_value++;
ARM GAS  C:\Users\gjl\AppData\Local\Temp\ccmQtU5h.s 			page 7


 233              		.loc 1 108 0
 234 00ee 0134     		adds	r4, r4, #1
 235              	.LVL44:
 236 00f0 E4B2     		uxtb	r4, r4
 237              	.LVL45:
 238 00f2 00E0     		b	.L9
 239              	.L16:
 106:..\u8g2\csrc/u8x8_input_value.c **** 	local_value = lo;
 240              		.loc 1 106 0
 241 00f4 5446     		mov	r4, r10
 242              	.LVL46:
 243              	.L9:
 109:..\u8g2\csrc/u8x8_input_value.c ****       u8x8_DrawUTF8(u8x8, x, y, u8x8_u8toa(local_value, digits));
 244              		.loc 1 109 0
 245 00f6 3900     		movs	r1, r7
 246 00f8 2000     		movs	r0, r4
 247              	.LVL47:
 248 00fa FFF7FEFF 		bl	u8x8_u8toa
 249              	.LVL48:
 250 00fe 0300     		movs	r3, r0
 251 0100 029A     		ldr	r2, [sp, #8]
 252 0102 3100     		movs	r1, r6
 253 0104 2800     		movs	r0, r5
 254 0106 FFF7FEFF 		bl	u8x8_DrawUTF8
 255              	.LVL49:
 256 010a DFE7     		b	.L4
 257              	.LVL50:
 258              	.L8:
 110:..\u8g2\csrc/u8x8_input_value.c ****     }
 111:..\u8g2\csrc/u8x8_input_value.c ****     else if ( event == U8X8_MSG_GPIO_MENU_PREV || event == U8X8_MSG_GPIO_MENU_DOWN )
 259              		.loc 1 111 0
 260 010c 5228     		cmp	r0, #82
 261 010e 01D0     		beq	.L11
 262              		.loc 1 111 0 is_stmt 0 discriminator 1
 263 0110 5528     		cmp	r0, #85
 264 0112 DBD1     		bne	.L4
 265              	.L11:
 112:..\u8g2\csrc/u8x8_input_value.c ****     {
 113:..\u8g2\csrc/u8x8_input_value.c ****       if ( local_value <= lo )
 266              		.loc 1 113 0 is_stmt 1
 267 0114 5445     		cmp	r4, r10
 268 0116 02D9     		bls	.L17
 114:..\u8g2\csrc/u8x8_input_value.c **** 	local_value = hi;
 115:..\u8g2\csrc/u8x8_input_value.c ****       else
 116:..\u8g2\csrc/u8x8_input_value.c **** 	local_value--;
 269              		.loc 1 116 0
 270 0118 013C     		subs	r4, r4, #1
 271              	.LVL51:
 272 011a E4B2     		uxtb	r4, r4
 273              	.LVL52:
 274 011c 00E0     		b	.L12
 275              	.L17:
 114:..\u8g2\csrc/u8x8_input_value.c **** 	local_value = hi;
 276              		.loc 1 114 0
 277 011e 4C46     		mov	r4, r9
 278              	.LVL53:
 279              	.L12:
ARM GAS  C:\Users\gjl\AppData\Local\Temp\ccmQtU5h.s 			page 8


 117:..\u8g2\csrc/u8x8_input_value.c ****       u8x8_DrawUTF8(u8x8, x, y, u8x8_u8toa(local_value, digits));
 280              		.loc 1 117 0
 281 0120 3900     		movs	r1, r7
 282 0122 2000     		movs	r0, r4
 283              	.LVL54:
 284 0124 FFF7FEFF 		bl	u8x8_u8toa
 285              	.LVL55:
 286 0128 0300     		movs	r3, r0
 287 012a 029A     		ldr	r2, [sp, #8]
 288 012c 3100     		movs	r1, r6
 289 012e 2800     		movs	r0, r5
 290 0130 FFF7FEFF 		bl	u8x8_DrawUTF8
 291              	.LVL56:
 292 0134 CAE7     		b	.L4
 293              	.LVL57:
 294              	.L15:
 100:..\u8g2\csrc/u8x8_input_value.c ****       break;
 295              		.loc 1 100 0
 296 0136 0020     		movs	r0, #0
 297              	.LVL58:
 298              	.L6:
 118:..\u8g2\csrc/u8x8_input_value.c ****     }        
 119:..\u8g2\csrc/u8x8_input_value.c ****   }
 120:..\u8g2\csrc/u8x8_input_value.c ****   
 121:..\u8g2\csrc/u8x8_input_value.c ****   u8x8_SetInverseFont(u8x8, 0);
 299              		.loc 1 121 0
 300 0138 0023     		movs	r3, #0
 301 013a EB77     		strb	r3, [r5, #31]
 122:..\u8g2\csrc/u8x8_input_value.c ****   return r;  
 123:..\u8g2\csrc/u8x8_input_value.c **** }
 302              		.loc 1 123 0
 303 013c 05B0     		add	sp, sp, #20
 304              		@ sp needed
 305              	.LVL59:
 306              	.LVL60:
 307              	.LVL61:
 308              	.LVL62:
 309 013e 3CBC     		pop	{r2, r3, r4, r5}
 310 0140 9046     		mov	r8, r2
 311 0142 9946     		mov	r9, r3
 312 0144 A246     		mov	r10, r4
 313 0146 AB46     		mov	fp, r5
 314 0148 F0BD     		pop	{r4, r5, r6, r7, pc}
 315              		.cfi_endproc
 316              	.LFE0:
 317              		.size	u8x8_UserInterfaceInputValue, .-u8x8_UserInterfaceInputValue
 318 014a C046     		.text
 319              	.Letext0:
 320              		.file 2 "c:\\program files (x86)\\cypress\\psoc creator\\4.1\\psoc creator\\import\\gnu\\arm\\5.4.
 321              		.file 3 "c:\\program files (x86)\\cypress\\psoc creator\\4.1\\psoc creator\\import\\gnu\\arm\\5.4.
 322              		.file 4 "..\\u8g2\\csrc\\u8x8.h"