ARM GAS  C:\Users\arh\AppData\Local\Temp\ccnfNqA6.s 			page 1


   1              		.syntax unified
   2              		.cpu cortex-m0
   3              		.fpu softvfp
   4              		.eabi_attribute 20, 1
   5              		.eabi_attribute 21, 1
   6              		.eabi_attribute 23, 3
   7              		.eabi_attribute 24, 1
   8              		.eabi_attribute 25, 1
   9              		.eabi_attribute 26, 1
  10              		.eabi_attribute 30, 1
  11              		.eabi_attribute 34, 0
  12              		.eabi_attribute 18, 4
  13              		.thumb
  14              		.syntax unified
  15              		.file	"u8x8_8x8.c"
  16              		.text
  17              	.Ltext0:
  18              		.cfi_sections	.debug_frame
  19              		.section	.text.u8x8_get_glyph_data,"ax",%progbits
  20              		.align	2
  21              		.code	16
  22              		.thumb_func
  23              		.type	u8x8_get_glyph_data, %function
  24              	u8x8_get_glyph_data:
  25              	.LFB1:
  26              		.file 1 "..\\..\\u8g2\\csrc\\u8x8_8x8.c"
   1:..\..\u8g2\csrc/u8x8_8x8.c **** /*
   2:..\..\u8g2\csrc/u8x8_8x8.c **** 
   3:..\..\u8g2\csrc/u8x8_8x8.c ****   u8x8_8x8.c
   4:..\..\u8g2\csrc/u8x8_8x8.c ****   
   5:..\..\u8g2\csrc/u8x8_8x8.c ****   font procedures, directly interfaces display procedures
   6:..\..\u8g2\csrc/u8x8_8x8.c ****   
   7:..\..\u8g2\csrc/u8x8_8x8.c ****   Universal 8bit Graphics Library (https://github.com/olikraus/u8g2/)
   8:..\..\u8g2\csrc/u8x8_8x8.c **** 
   9:..\..\u8g2\csrc/u8x8_8x8.c ****   Copyright (c) 2016, olikraus@gmail.com
  10:..\..\u8g2\csrc/u8x8_8x8.c ****   All rights reserved.
  11:..\..\u8g2\csrc/u8x8_8x8.c **** 
  12:..\..\u8g2\csrc/u8x8_8x8.c ****   Redistribution and use in source and binary forms, with or without modification, 
  13:..\..\u8g2\csrc/u8x8_8x8.c ****   are permitted provided that the following conditions are met:
  14:..\..\u8g2\csrc/u8x8_8x8.c **** 
  15:..\..\u8g2\csrc/u8x8_8x8.c ****   * Redistributions of source code must retain the above copyright notice, this list 
  16:..\..\u8g2\csrc/u8x8_8x8.c ****     of conditions and the following disclaimer.
  17:..\..\u8g2\csrc/u8x8_8x8.c ****     
  18:..\..\u8g2\csrc/u8x8_8x8.c ****   * Redistributions in binary form must reproduce the above copyright notice, this 
  19:..\..\u8g2\csrc/u8x8_8x8.c ****     list of conditions and the following disclaimer in the documentation and/or other 
  20:..\..\u8g2\csrc/u8x8_8x8.c ****     materials provided with the distribution.
  21:..\..\u8g2\csrc/u8x8_8x8.c **** 
  22:..\..\u8g2\csrc/u8x8_8x8.c ****   THIS SOFTWARE IS PROVIDED BY THE COPYRIGHT HOLDERS AND 
  23:..\..\u8g2\csrc/u8x8_8x8.c ****   CONTRIBUTORS "AS IS" AND ANY EXPRESS OR IMPLIED WARRANTIES, 
  24:..\..\u8g2\csrc/u8x8_8x8.c ****   INCLUDING, BUT NOT LIMITED TO, THE IMPLIED WARRANTIES OF 
  25:..\..\u8g2\csrc/u8x8_8x8.c ****   MERCHANTABILITY AND FITNESS FOR A PARTICULAR PURPOSE ARE 
  26:..\..\u8g2\csrc/u8x8_8x8.c ****   DISCLAIMED. IN NO EVENT SHALL THE COPYRIGHT HOLDER OR 
  27:..\..\u8g2\csrc/u8x8_8x8.c ****   CONTRIBUTORS BE LIABLE FOR ANY DIRECT, INDIRECT, INCIDENTAL, 
  28:..\..\u8g2\csrc/u8x8_8x8.c ****   SPECIAL, EXEMPLARY, OR CONSEQUENTIAL DAMAGES (INCLUDING, BUT 
  29:..\..\u8g2\csrc/u8x8_8x8.c ****   NOT LIMITED TO, PROCUREMENT OF SUBSTITUTE GOODS OR SERVICES; 
  30:..\..\u8g2\csrc/u8x8_8x8.c ****   LOSS OF USE, DATA, OR PROFITS; OR BUSINESS INTERRUPTION) HOWEVER 
  31:..\..\u8g2\csrc/u8x8_8x8.c ****   CAUSED AND ON ANY THEORY OF LIABILITY, WHETHER IN CONTRACT, 
ARM GAS  C:\Users\arh\AppData\Local\Temp\ccnfNqA6.s 			page 2


  32:..\..\u8g2\csrc/u8x8_8x8.c ****   STRICT LIABILITY, OR TORT (INCLUDING NEGLIGENCE OR OTHERWISE) 
  33:..\..\u8g2\csrc/u8x8_8x8.c ****   ARISING IN ANY WAY OUT OF THE USE OF THIS SOFTWARE, EVEN IF 
  34:..\..\u8g2\csrc/u8x8_8x8.c ****   ADVISED OF THE POSSIBILITY OF SUCH DAMAGE.    
  35:..\..\u8g2\csrc/u8x8_8x8.c **** 
  36:..\..\u8g2\csrc/u8x8_8x8.c **** */
  37:..\..\u8g2\csrc/u8x8_8x8.c **** 
  38:..\..\u8g2\csrc/u8x8_8x8.c **** #include "u8x8.h"
  39:..\..\u8g2\csrc/u8x8_8x8.c **** 
  40:..\..\u8g2\csrc/u8x8_8x8.c **** #if defined(ESP8266)
  41:..\..\u8g2\csrc/u8x8_8x8.c **** uint8_t u8x8_pgm_read_esp(const uint8_t * addr) 
  42:..\..\u8g2\csrc/u8x8_8x8.c **** {
  43:..\..\u8g2\csrc/u8x8_8x8.c ****     uint32_t bytes;
  44:..\..\u8g2\csrc/u8x8_8x8.c ****     bytes = *(uint32_t*)((uint32_t)addr & ~3);
  45:..\..\u8g2\csrc/u8x8_8x8.c ****     return ((uint8_t*)&bytes)[(uint32_t)addr & 3];
  46:..\..\u8g2\csrc/u8x8_8x8.c **** }
  47:..\..\u8g2\csrc/u8x8_8x8.c **** #endif
  48:..\..\u8g2\csrc/u8x8_8x8.c **** 
  49:..\..\u8g2\csrc/u8x8_8x8.c **** 
  50:..\..\u8g2\csrc/u8x8_8x8.c **** void u8x8_SetFont(u8x8_t *u8x8, const uint8_t *font_8x8)
  51:..\..\u8g2\csrc/u8x8_8x8.c **** {
  52:..\..\u8g2\csrc/u8x8_8x8.c ****   u8x8->font = font_8x8;
  53:..\..\u8g2\csrc/u8x8_8x8.c **** }
  54:..\..\u8g2\csrc/u8x8_8x8.c **** 
  55:..\..\u8g2\csrc/u8x8_8x8.c **** /*
  56:..\..\u8g2\csrc/u8x8_8x8.c ****  Args:
  57:..\..\u8g2\csrc/u8x8_8x8.c ****    u8x8: ptr to u8x8 structure
  58:..\..\u8g2\csrc/u8x8_8x8.c ****    encoding: glyph for which the data is requested (must be between 0 and 255)
  59:..\..\u8g2\csrc/u8x8_8x8.c ****    buf: pointer to 8 bytes
  60:..\..\u8g2\csrc/u8x8_8x8.c **** */
  61:..\..\u8g2\csrc/u8x8_8x8.c **** static void u8x8_get_glyph_data(u8x8_t *u8x8, uint8_t encoding, uint8_t *buf) U8X8_NOINLINE;
  62:..\..\u8g2\csrc/u8x8_8x8.c **** static void u8x8_get_glyph_data(u8x8_t *u8x8, uint8_t encoding, uint8_t *buf) 
  63:..\..\u8g2\csrc/u8x8_8x8.c **** {
  27              		.loc 1 63 0
  28              		.cfi_startproc
  29              		@ args = 0, pretend = 0, frame = 0
  30              		@ frame_needed = 0, uses_anonymous_args = 0
  31              	.LVL0:
  32 0000 10B5     		push	{r4, lr}
  33              		.cfi_def_cfa_offset 8
  34              		.cfi_offset 4, -8
  35              		.cfi_offset 14, -4
  64:..\..\u8g2\csrc/u8x8_8x8.c ****   uint8_t first, last, i;
  65:..\..\u8g2\csrc/u8x8_8x8.c ****   uint16_t offset;
  66:..\..\u8g2\csrc/u8x8_8x8.c ****   first = u8x8_pgm_read(u8x8->font+0);
  36              		.loc 1 66 0
  37 0002 8469     		ldr	r4, [r0, #24]
  38 0004 2378     		ldrb	r3, [r4]
  39              	.LVL1:
  67:..\..\u8g2\csrc/u8x8_8x8.c ****   last = u8x8_pgm_read(u8x8->font+1);
  40              		.loc 1 67 0
  41 0006 6478     		ldrb	r4, [r4, #1]
  42              	.LVL2:
  68:..\..\u8g2\csrc/u8x8_8x8.c ****   
  69:..\..\u8g2\csrc/u8x8_8x8.c ****   /* get the glyph bitmap from the font */
  70:..\..\u8g2\csrc/u8x8_8x8.c ****   if ( first <= encoding && encoding <= last )
  43              		.loc 1 70 0
  44 0008 8B42     		cmp	r3, r1
ARM GAS  C:\Users\arh\AppData\Local\Temp\ccnfNqA6.s 			page 3


  45 000a 19D8     		bhi	.L10
  46              		.loc 1 70 0 is_stmt 0 discriminator 1
  47 000c 8C42     		cmp	r4, r1
  48 000e 19D3     		bcc	.L11
  49              	.LVL3:
  71:..\..\u8g2\csrc/u8x8_8x8.c ****   {
  72:..\..\u8g2\csrc/u8x8_8x8.c ****     offset = encoding;
  73:..\..\u8g2\csrc/u8x8_8x8.c ****     offset -= first;
  50              		.loc 1 73 0 is_stmt 1
  51 0010 CB1A     		subs	r3, r1, r3
  52              	.LVL4:
  53 0012 9BB2     		uxth	r3, r3
  54              	.LVL5:
  74:..\..\u8g2\csrc/u8x8_8x8.c ****     offset *= 8;
  55              		.loc 1 74 0
  56 0014 DB00     		lsls	r3, r3, #3
  57              	.LVL6:
  58 0016 9BB2     		uxth	r3, r3
  59              	.LVL7:
  75:..\..\u8g2\csrc/u8x8_8x8.c ****     offset +=2;
  60              		.loc 1 75 0
  61 0018 0233     		adds	r3, r3, #2
  62              	.LVL8:
  63 001a 9BB2     		uxth	r3, r3
  64              	.LVL9:
  76:..\..\u8g2\csrc/u8x8_8x8.c ****     for( i = 0; i < 8; i++ )
  65              		.loc 1 76 0
  66 001c 0021     		movs	r1, #0
  67              	.LVL10:
  68 001e 06E0     		b	.L3
  69              	.LVL11:
  70              	.L4:
  77:..\..\u8g2\csrc/u8x8_8x8.c ****     {
  78:..\..\u8g2\csrc/u8x8_8x8.c ****       buf[i] = u8x8_pgm_read(u8x8->font+offset);
  71              		.loc 1 78 0 discriminator 3
  72 0020 8469     		ldr	r4, [r0, #24]
  73 0022 E45C     		ldrb	r4, [r4, r3]
  74 0024 5454     		strb	r4, [r2, r1]
  79:..\..\u8g2\csrc/u8x8_8x8.c ****       offset++;
  75              		.loc 1 79 0 discriminator 3
  76 0026 0133     		adds	r3, r3, #1
  77              	.LVL12:
  78 0028 9BB2     		uxth	r3, r3
  79              	.LVL13:
  76:..\..\u8g2\csrc/u8x8_8x8.c ****     for( i = 0; i < 8; i++ )
  80              		.loc 1 76 0 discriminator 3
  81 002a 0131     		adds	r1, r1, #1
  82              	.LVL14:
  83 002c C9B2     		uxtb	r1, r1
  84              	.LVL15:
  85              	.L3:
  76:..\..\u8g2\csrc/u8x8_8x8.c ****     for( i = 0; i < 8; i++ )
  86              		.loc 1 76 0 is_stmt 0 discriminator 1
  87 002e 0729     		cmp	r1, #7
  88 0030 F6D9     		bls	.L4
  89 0032 0AE0     		b	.L5
  90              	.LVL16:
ARM GAS  C:\Users\arh\AppData\Local\Temp\ccnfNqA6.s 			page 4


  91              	.L6:
  80:..\..\u8g2\csrc/u8x8_8x8.c ****     }
  81:..\..\u8g2\csrc/u8x8_8x8.c ****   }
  82:..\..\u8g2\csrc/u8x8_8x8.c ****   else
  83:..\..\u8g2\csrc/u8x8_8x8.c ****   {
  84:..\..\u8g2\csrc/u8x8_8x8.c ****     for( i = 0; i < 8; i++ )
  85:..\..\u8g2\csrc/u8x8_8x8.c ****     {
  86:..\..\u8g2\csrc/u8x8_8x8.c ****       buf[i] = 0;
  92              		.loc 1 86 0 is_stmt 1 discriminator 3
  93 0034 D118     		adds	r1, r2, r3
  94 0036 0024     		movs	r4, #0
  95 0038 0C70     		strb	r4, [r1]
  84:..\..\u8g2\csrc/u8x8_8x8.c ****     {
  96              		.loc 1 84 0 discriminator 3
  97 003a 0133     		adds	r3, r3, #1
  98              	.LVL17:
  99 003c DBB2     		uxtb	r3, r3
 100              	.LVL18:
 101 003e 02E0     		b	.L2
 102              	.LVL19:
 103              	.L10:
 104 0040 0023     		movs	r3, #0
 105              	.LVL20:
 106 0042 00E0     		b	.L2
 107              	.LVL21:
 108              	.L11:
 109 0044 0023     		movs	r3, #0
 110              	.LVL22:
 111              	.L2:
  84:..\..\u8g2\csrc/u8x8_8x8.c ****     {
 112              		.loc 1 84 0 is_stmt 0 discriminator 1
 113 0046 072B     		cmp	r3, #7
 114 0048 F4D9     		bls	.L6
 115              	.LVL23:
 116              	.L5:
  87:..\..\u8g2\csrc/u8x8_8x8.c ****     }
  88:..\..\u8g2\csrc/u8x8_8x8.c ****   }
  89:..\..\u8g2\csrc/u8x8_8x8.c ****   
  90:..\..\u8g2\csrc/u8x8_8x8.c ****   /* invert the bitmap if required */
  91:..\..\u8g2\csrc/u8x8_8x8.c ****   if ( u8x8->is_font_inverse_mode )
 117              		.loc 1 91 0 is_stmt 1
 118 004a C37F     		ldrb	r3, [r0, #31]
 119 004c 002B     		cmp	r3, #0
 120 004e 07D1     		bne	.L12
 121 0050 09E0     		b	.L1
 122              	.LVL24:
 123              	.L9:
  92:..\..\u8g2\csrc/u8x8_8x8.c ****   {
  93:..\..\u8g2\csrc/u8x8_8x8.c ****     for( i = 0; i < 8; i++ )
  94:..\..\u8g2\csrc/u8x8_8x8.c ****     {
  95:..\..\u8g2\csrc/u8x8_8x8.c ****       buf[i] ^= 255;
 124              		.loc 1 95 0 discriminator 3
 125 0052 D018     		adds	r0, r2, r3
 126 0054 0178     		ldrb	r1, [r0]
 127 0056 C943     		mvns	r1, r1
 128 0058 0170     		strb	r1, [r0]
  93:..\..\u8g2\csrc/u8x8_8x8.c ****     {
ARM GAS  C:\Users\arh\AppData\Local\Temp\ccnfNqA6.s 			page 5


 129              		.loc 1 93 0 discriminator 3
 130 005a 0133     		adds	r3, r3, #1
 131              	.LVL25:
 132 005c DBB2     		uxtb	r3, r3
 133              	.LVL26:
 134 005e 00E0     		b	.L7
 135              	.LVL27:
 136              	.L12:
 137 0060 0023     		movs	r3, #0
 138              	.LVL28:
 139              	.L7:
  93:..\..\u8g2\csrc/u8x8_8x8.c ****     {
 140              		.loc 1 93 0 is_stmt 0 discriminator 1
 141 0062 072B     		cmp	r3, #7
 142 0064 F5D9     		bls	.L9
 143              	.LVL29:
 144              	.L1:
  96:..\..\u8g2\csrc/u8x8_8x8.c ****     }
  97:..\..\u8g2\csrc/u8x8_8x8.c ****   }
  98:..\..\u8g2\csrc/u8x8_8x8.c ****   
  99:..\..\u8g2\csrc/u8x8_8x8.c **** }
 145              		.loc 1 99 0 is_stmt 1
 146              		@ sp needed
 147 0066 10BD     		pop	{r4, pc}
 148              		.cfi_endproc
 149              	.LFE1:
 150              		.size	u8x8_get_glyph_data, .-u8x8_get_glyph_data
 151              		.section	.text.u8x8_upscale_buf,"ax",%progbits
 152              		.align	2
 153              		.code	16
 154              		.thumb_func
 155              		.type	u8x8_upscale_buf, %function
 156              	u8x8_upscale_buf:
 157              	.LFB4:
 100:..\..\u8g2\csrc/u8x8_8x8.c **** 
 101:..\..\u8g2\csrc/u8x8_8x8.c **** void u8x8_DrawGlyph(u8x8_t *u8x8, uint8_t x, uint8_t y, uint8_t encoding)
 102:..\..\u8g2\csrc/u8x8_8x8.c **** {
 103:..\..\u8g2\csrc/u8x8_8x8.c ****   uint8_t buf[8];
 104:..\..\u8g2\csrc/u8x8_8x8.c ****   u8x8_get_glyph_data(u8x8, encoding, buf);
 105:..\..\u8g2\csrc/u8x8_8x8.c ****   u8x8_DrawTile(u8x8, x, y, 1, buf);
 106:..\..\u8g2\csrc/u8x8_8x8.c **** }
 107:..\..\u8g2\csrc/u8x8_8x8.c **** 
 108:..\..\u8g2\csrc/u8x8_8x8.c **** 
 109:..\..\u8g2\csrc/u8x8_8x8.c **** /*
 110:..\..\u8g2\csrc/u8x8_8x8.c ****   Source: http://graphics.stanford.edu/~seander/bithacks.html
 111:..\..\u8g2\csrc/u8x8_8x8.c **** 	Section: Interleave bits by Binary Magic Numbers 
 112:..\..\u8g2\csrc/u8x8_8x8.c ****    Original codes is here:
 113:..\..\u8g2\csrc/u8x8_8x8.c **** 		static const unsigned int B[] = {0x55555555, 0x33333333, 0x0F0F0F0F, 0x00FF00FF};
 114:..\..\u8g2\csrc/u8x8_8x8.c **** 		static const unsigned int S[] = {1, 2, 4, 8};
 115:..\..\u8g2\csrc/u8x8_8x8.c **** 
 116:..\..\u8g2\csrc/u8x8_8x8.c **** 		unsigned int x; // Interleave lower 16 bits of x and y, so the bits of x
 117:..\..\u8g2\csrc/u8x8_8x8.c **** 		unsigned int y; // are in the even positions and bits from y in the odd;
 118:..\..\u8g2\csrc/u8x8_8x8.c **** 		unsigned int z; // z gets the resulting 32-bit Morton Number.  
 119:..\..\u8g2\csrc/u8x8_8x8.c **** 				// x and y must initially be less than 65536.
 120:..\..\u8g2\csrc/u8x8_8x8.c **** 
 121:..\..\u8g2\csrc/u8x8_8x8.c **** 		x = (x | (x << S[3])) & B[3];
 122:..\..\u8g2\csrc/u8x8_8x8.c **** 		x = (x | (x << S[2])) & B[2];
ARM GAS  C:\Users\arh\AppData\Local\Temp\ccnfNqA6.s 			page 6


 123:..\..\u8g2\csrc/u8x8_8x8.c **** 		x = (x | (x << S[1])) & B[1];
 124:..\..\u8g2\csrc/u8x8_8x8.c **** 		x = (x | (x << S[0])) & B[0];
 125:..\..\u8g2\csrc/u8x8_8x8.c **** 
 126:..\..\u8g2\csrc/u8x8_8x8.c **** 		y = (y | (y << S[3])) & B[3];
 127:..\..\u8g2\csrc/u8x8_8x8.c **** 		y = (y | (y << S[2])) & B[2];
 128:..\..\u8g2\csrc/u8x8_8x8.c **** 		y = (y | (y << S[1])) & B[1];
 129:..\..\u8g2\csrc/u8x8_8x8.c **** 		y = (y | (y << S[0])) & B[0];
 130:..\..\u8g2\csrc/u8x8_8x8.c **** 
 131:..\..\u8g2\csrc/u8x8_8x8.c **** 		z = x | (y << 1);
 132:..\..\u8g2\csrc/u8x8_8x8.c **** */
 133:..\..\u8g2\csrc/u8x8_8x8.c **** uint16_t u8x8_upscale_byte(uint8_t x) 
 134:..\..\u8g2\csrc/u8x8_8x8.c **** {
 135:..\..\u8g2\csrc/u8x8_8x8.c **** 	uint16_t y = x;
 136:..\..\u8g2\csrc/u8x8_8x8.c **** 	y |= (y << 4);		// x = (x | (x << S[2])) & B[2];
 137:..\..\u8g2\csrc/u8x8_8x8.c **** 	y &= 0x0f0f;
 138:..\..\u8g2\csrc/u8x8_8x8.c **** 	y |= (y << 2);		// x = (x | (x << S[1])) & B[1];
 139:..\..\u8g2\csrc/u8x8_8x8.c **** 	y &= 0x3333;
 140:..\..\u8g2\csrc/u8x8_8x8.c **** 	y |= (y << 1);		// x = (x | (x << S[0])) & B[0];
 141:..\..\u8g2\csrc/u8x8_8x8.c **** 	y &= 0x5555;
 142:..\..\u8g2\csrc/u8x8_8x8.c ****   
 143:..\..\u8g2\csrc/u8x8_8x8.c **** 	y |= (y << 1);		// z = x | (y << 1);
 144:..\..\u8g2\csrc/u8x8_8x8.c **** 	return y;
 145:..\..\u8g2\csrc/u8x8_8x8.c **** }
 146:..\..\u8g2\csrc/u8x8_8x8.c **** 
 147:..\..\u8g2\csrc/u8x8_8x8.c **** static void u8x8_upscale_buf(uint8_t *src, uint8_t *dest) U8X8_NOINLINE;
 148:..\..\u8g2\csrc/u8x8_8x8.c **** static void u8x8_upscale_buf(uint8_t *src, uint8_t *dest)
 149:..\..\u8g2\csrc/u8x8_8x8.c **** {
 158              		.loc 1 149 0
 159              		.cfi_startproc
 160              		@ args = 0, pretend = 0, frame = 0
 161              		@ frame_needed = 0, uses_anonymous_args = 0
 162              		@ link register save eliminated.
 163              	.LVL30:
 150:..\..\u8g2\csrc/u8x8_8x8.c ****   uint8_t i = 4;  
 164              		.loc 1 150 0
 165 0000 0423     		movs	r3, #4
 166              	.LVL31:
 167              	.L14:
 151:..\..\u8g2\csrc/u8x8_8x8.c ****   do 
 152:..\..\u8g2\csrc/u8x8_8x8.c ****   {
 153:..\..\u8g2\csrc/u8x8_8x8.c ****     *dest++ = *src;
 168              		.loc 1 153 0 discriminator 1
 169 0002 0278     		ldrb	r2, [r0]
 170 0004 0A70     		strb	r2, [r1]
 171              	.LVL32:
 154:..\..\u8g2\csrc/u8x8_8x8.c ****     *dest++ = *src++;
 172              		.loc 1 154 0 discriminator 1
 173 0006 0278     		ldrb	r2, [r0]
 174 0008 4A70     		strb	r2, [r1, #1]
 155:..\..\u8g2\csrc/u8x8_8x8.c ****     i--;
 175              		.loc 1 155 0 discriminator 1
 176 000a 013B     		subs	r3, r3, #1
 177              	.LVL33:
 178 000c DBB2     		uxtb	r3, r3
 179              	.LVL34:
 154:..\..\u8g2\csrc/u8x8_8x8.c ****     *dest++ = *src++;
 180              		.loc 1 154 0 discriminator 1
ARM GAS  C:\Users\arh\AppData\Local\Temp\ccnfNqA6.s 			page 7


 181 000e 0130     		adds	r0, r0, #1
 182              	.LVL35:
 183 0010 0231     		adds	r1, r1, #2
 184              	.LVL36:
 156:..\..\u8g2\csrc/u8x8_8x8.c ****   } while( i > 0 );
 185              		.loc 1 156 0 discriminator 1
 186 0012 002B     		cmp	r3, #0
 187 0014 F5D1     		bne	.L14
 157:..\..\u8g2\csrc/u8x8_8x8.c **** }
 188              		.loc 1 157 0
 189              		@ sp needed
 190 0016 7047     		bx	lr
 191              		.cfi_endproc
 192              	.LFE4:
 193              		.size	u8x8_upscale_buf, .-u8x8_upscale_buf
 194              		.section	.text.u8x8_ascii_next,"ax",%progbits
 195              		.align	2
 196              		.global	u8x8_ascii_next
 197              		.code	16
 198              		.thumb_func
 199              		.type	u8x8_ascii_next, %function
 200              	u8x8_ascii_next:
 201              	.LFB7:
 158:..\..\u8g2\csrc/u8x8_8x8.c **** 
 159:..\..\u8g2\csrc/u8x8_8x8.c **** void u8x8_Draw2x2Glyph(u8x8_t *u8x8, uint8_t x, uint8_t y, uint8_t encoding)
 160:..\..\u8g2\csrc/u8x8_8x8.c **** {
 161:..\..\u8g2\csrc/u8x8_8x8.c ****   uint8_t i;
 162:..\..\u8g2\csrc/u8x8_8x8.c ****   uint16_t t;
 163:..\..\u8g2\csrc/u8x8_8x8.c ****   uint8_t buf[8];
 164:..\..\u8g2\csrc/u8x8_8x8.c ****   uint8_t buf1[8];
 165:..\..\u8g2\csrc/u8x8_8x8.c ****   uint8_t buf2[8];
 166:..\..\u8g2\csrc/u8x8_8x8.c ****   u8x8_get_glyph_data(u8x8, encoding, buf);
 167:..\..\u8g2\csrc/u8x8_8x8.c ****   for( i = 0; i < 8; i ++ )
 168:..\..\u8g2\csrc/u8x8_8x8.c ****   {
 169:..\..\u8g2\csrc/u8x8_8x8.c ****       t = u8x8_upscale_byte(buf[i]);
 170:..\..\u8g2\csrc/u8x8_8x8.c ****       buf1[i] = t >> 8;
 171:..\..\u8g2\csrc/u8x8_8x8.c ****       buf2[i] = t & 255;
 172:..\..\u8g2\csrc/u8x8_8x8.c ****   }
 173:..\..\u8g2\csrc/u8x8_8x8.c ****   u8x8_upscale_buf(buf2, buf);
 174:..\..\u8g2\csrc/u8x8_8x8.c ****   u8x8_DrawTile(u8x8, x, y, 1, buf);
 175:..\..\u8g2\csrc/u8x8_8x8.c ****   
 176:..\..\u8g2\csrc/u8x8_8x8.c ****   u8x8_upscale_buf(buf2+4, buf);
 177:..\..\u8g2\csrc/u8x8_8x8.c ****   u8x8_DrawTile(u8x8, x+1, y, 1, buf);
 178:..\..\u8g2\csrc/u8x8_8x8.c ****   
 179:..\..\u8g2\csrc/u8x8_8x8.c ****   u8x8_upscale_buf(buf1, buf);
 180:..\..\u8g2\csrc/u8x8_8x8.c ****   u8x8_DrawTile(u8x8, x, y+1, 1, buf);
 181:..\..\u8g2\csrc/u8x8_8x8.c ****   
 182:..\..\u8g2\csrc/u8x8_8x8.c ****   u8x8_upscale_buf(buf1+4, buf);
 183:..\..\u8g2\csrc/u8x8_8x8.c ****   u8x8_DrawTile(u8x8, x+1, y+1, 1, buf);  
 184:..\..\u8g2\csrc/u8x8_8x8.c **** }
 185:..\..\u8g2\csrc/u8x8_8x8.c **** 
 186:..\..\u8g2\csrc/u8x8_8x8.c **** 
 187:..\..\u8g2\csrc/u8x8_8x8.c **** /*
 188:..\..\u8g2\csrc/u8x8_8x8.c **** source: https://en.wikipedia.org/wiki/UTF-8
 189:..\..\u8g2\csrc/u8x8_8x8.c **** Bits	from 		to			bytes	Byte 1 		Byte 2 		Byte 3 		Byte 4 		Byte 5 		Byte 6
 190:..\..\u8g2\csrc/u8x8_8x8.c ****   7 	U+0000 		U+007F 		1 		0xxxxxxx
 191:..\..\u8g2\csrc/u8x8_8x8.c **** 11 	U+0080 		U+07FF 		2 		110xxxxx 	10xxxxxx
ARM GAS  C:\Users\arh\AppData\Local\Temp\ccnfNqA6.s 			page 8


 192:..\..\u8g2\csrc/u8x8_8x8.c **** 16 	U+0800 		U+FFFF 		3 		1110xxxx 	10xxxxxx 	10xxxxxx
 193:..\..\u8g2\csrc/u8x8_8x8.c **** 21 	U+10000 	U+1FFFFF 	4 		11110xxx 	10xxxxxx 	10xxxxxx 	10xxxxxx
 194:..\..\u8g2\csrc/u8x8_8x8.c **** 26 	U+200000 	U+3FFFFFF 	5 		111110xx 	10xxxxxx 	10xxxxxx 	10xxxxxx 	10xxxxxx
 195:..\..\u8g2\csrc/u8x8_8x8.c **** 31 	U+4000000 	U+7FFFFFFF 	6 		1111110x 	10xxxxxx 	10xxxxxx 	10xxxxxx 	10xxxxxx 	10xxxxxx  
 196:..\..\u8g2\csrc/u8x8_8x8.c **** 
 197:..\..\u8g2\csrc/u8x8_8x8.c **** 
 198:..\..\u8g2\csrc/u8x8_8x8.c **** */
 199:..\..\u8g2\csrc/u8x8_8x8.c **** 
 200:..\..\u8g2\csrc/u8x8_8x8.c **** /* reset the internal state machine */
 201:..\..\u8g2\csrc/u8x8_8x8.c **** void u8x8_utf8_init(u8x8_t *u8x8)
 202:..\..\u8g2\csrc/u8x8_8x8.c **** {
 203:..\..\u8g2\csrc/u8x8_8x8.c ****   u8x8->utf8_state = 0;	/* also reset during u8x8_SetupDefaults() */
 204:..\..\u8g2\csrc/u8x8_8x8.c **** }
 205:..\..\u8g2\csrc/u8x8_8x8.c **** 
 206:..\..\u8g2\csrc/u8x8_8x8.c **** uint16_t u8x8_ascii_next(U8X8_UNUSED u8x8_t *u8x8, uint8_t b)
 207:..\..\u8g2\csrc/u8x8_8x8.c **** {
 202              		.loc 1 207 0
 203              		.cfi_startproc
 204              		@ args = 0, pretend = 0, frame = 0
 205              		@ frame_needed = 0, uses_anonymous_args = 0
 206              		@ link register save eliminated.
 207              	.LVL37:
 208:..\..\u8g2\csrc/u8x8_8x8.c ****   if ( b == 0 || b == '\n' ) /* '\n' terminates the string to support the string list procedures */
 208              		.loc 1 208 0
 209 0000 0029     		cmp	r1, #0
 210 0002 03D0     		beq	.L17
 211              		.loc 1 208 0 is_stmt 0 discriminator 1
 212 0004 0A29     		cmp	r1, #10
 213 0006 03D0     		beq	.L18
 209:..\..\u8g2\csrc/u8x8_8x8.c ****     return 0x0ffff;	/* end of string detected*/
 210:..\..\u8g2\csrc/u8x8_8x8.c ****   return b;
 214              		.loc 1 210 0 is_stmt 1
 215 0008 88B2     		uxth	r0, r1
 216              	.LVL38:
 217 000a 02E0     		b	.L16
 218              	.LVL39:
 219              	.L17:
 209:..\..\u8g2\csrc/u8x8_8x8.c ****     return 0x0ffff;	/* end of string detected*/
 220              		.loc 1 209 0
 221 000c 0148     		ldr	r0, .L19
 222              	.LVL40:
 223 000e 00E0     		b	.L16
 224              	.LVL41:
 225              	.L18:
 226 0010 0048     		ldr	r0, .L19
 227              	.LVL42:
 228              	.L16:
 211:..\..\u8g2\csrc/u8x8_8x8.c **** }
 229              		.loc 1 211 0
 230              		@ sp needed
 231 0012 7047     		bx	lr
 232              	.L20:
 233              		.align	2
 234              	.L19:
 235 0014 FFFF0000 		.word	65535
 236              		.cfi_endproc
 237              	.LFE7:
ARM GAS  C:\Users\arh\AppData\Local\Temp\ccnfNqA6.s 			page 9


 238              		.size	u8x8_ascii_next, .-u8x8_ascii_next
 239              		.section	.text.u8x8_utf8_next,"ax",%progbits
 240              		.align	2
 241              		.global	u8x8_utf8_next
 242              		.code	16
 243              		.thumb_func
 244              		.type	u8x8_utf8_next, %function
 245              	u8x8_utf8_next:
 246              	.LFB8:
 212:..\..\u8g2\csrc/u8x8_8x8.c **** 
 213:..\..\u8g2\csrc/u8x8_8x8.c **** /*
 214:..\..\u8g2\csrc/u8x8_8x8.c ****   pass a byte from an utf8 encoded string to the utf8 decoder state machine
 215:..\..\u8g2\csrc/u8x8_8x8.c ****   returns 
 216:..\..\u8g2\csrc/u8x8_8x8.c ****     0x0fffe: no glyph, just continue
 217:..\..\u8g2\csrc/u8x8_8x8.c ****     0x0ffff: end of string
 218:..\..\u8g2\csrc/u8x8_8x8.c ****     anything else: The decoded encoding
 219:..\..\u8g2\csrc/u8x8_8x8.c **** */
 220:..\..\u8g2\csrc/u8x8_8x8.c **** uint16_t u8x8_utf8_next(u8x8_t *u8x8, uint8_t b)
 221:..\..\u8g2\csrc/u8x8_8x8.c **** {
 247              		.loc 1 221 0
 248              		.cfi_startproc
 249              		@ args = 0, pretend = 0, frame = 0
 250              		@ frame_needed = 0, uses_anonymous_args = 0
 251              	.LVL43:
 252 0000 10B5     		push	{r4, lr}
 253              		.cfi_def_cfa_offset 8
 254              		.cfi_offset 4, -8
 255              		.cfi_offset 14, -4
 222:..\..\u8g2\csrc/u8x8_8x8.c ****   if ( b == 0 || b == '\n' )	/* '\n' terminates the string to support the string list procedures */
 256              		.loc 1 222 0
 257 0002 0029     		cmp	r1, #0
 258 0004 41D0     		beq	.L30
 259              		.loc 1 222 0 is_stmt 0 discriminator 1
 260 0006 0A29     		cmp	r1, #10
 261 0008 41D0     		beq	.L31
 223:..\..\u8g2\csrc/u8x8_8x8.c ****     return 0x0ffff;	/* end of string detected, pending UTF8 is discarded */
 224:..\..\u8g2\csrc/u8x8_8x8.c ****   if ( u8x8->utf8_state == 0 )
 262              		.loc 1 224 0 is_stmt 1
 263 000a 2323     		movs	r3, #35
 264 000c C35C     		ldrb	r3, [r0, r3]
 265 000e 002B     		cmp	r3, #0
 266 0010 2CD1     		bne	.L23
 225:..\..\u8g2\csrc/u8x8_8x8.c ****   {
 226:..\..\u8g2\csrc/u8x8_8x8.c ****     if ( b >= 0xfc )	/* 6 byte sequence */
 267              		.loc 1 226 0
 268 0012 FB29     		cmp	r1, #251
 269 0014 05D9     		bls	.L24
 227:..\..\u8g2\csrc/u8x8_8x8.c ****     {
 228:..\..\u8g2\csrc/u8x8_8x8.c ****       u8x8->utf8_state = 5;
 270              		.loc 1 228 0
 271 0016 0522     		movs	r2, #5
 272 0018 2333     		adds	r3, r3, #35
 273 001a C254     		strb	r2, [r0, r3]
 229:..\..\u8g2\csrc/u8x8_8x8.c ****       b &= 1;
 274              		.loc 1 229 0
 275 001c 223B     		subs	r3, r3, #34
 276 001e 1940     		ands	r1, r3
ARM GAS  C:\Users\arh\AppData\Local\Temp\ccnfNqA6.s 			page 10


 277              	.LVL44:
 278 0020 21E0     		b	.L25
 279              	.L24:
 230:..\..\u8g2\csrc/u8x8_8x8.c ****     }
 231:..\..\u8g2\csrc/u8x8_8x8.c ****     else if ( b >= 0xf8 )
 280              		.loc 1 231 0
 281 0022 F729     		cmp	r1, #247
 282 0024 05D9     		bls	.L26
 232:..\..\u8g2\csrc/u8x8_8x8.c ****     {
 233:..\..\u8g2\csrc/u8x8_8x8.c ****       u8x8->utf8_state = 4;
 283              		.loc 1 233 0
 284 0026 0422     		movs	r2, #4
 285 0028 2323     		movs	r3, #35
 286 002a C254     		strb	r2, [r0, r3]
 234:..\..\u8g2\csrc/u8x8_8x8.c ****       b &= 3;
 287              		.loc 1 234 0
 288 002c 203B     		subs	r3, r3, #32
 289 002e 1940     		ands	r1, r3
 290              	.LVL45:
 291 0030 19E0     		b	.L25
 292              	.L26:
 235:..\..\u8g2\csrc/u8x8_8x8.c ****     }
 236:..\..\u8g2\csrc/u8x8_8x8.c ****     else if ( b >= 0xf0 )
 293              		.loc 1 236 0
 294 0032 EF29     		cmp	r1, #239
 295 0034 05D9     		bls	.L27
 237:..\..\u8g2\csrc/u8x8_8x8.c ****     {
 238:..\..\u8g2\csrc/u8x8_8x8.c ****       u8x8->utf8_state = 3;
 296              		.loc 1 238 0
 297 0036 0322     		movs	r2, #3
 298 0038 2323     		movs	r3, #35
 299 003a C254     		strb	r2, [r0, r3]
 239:..\..\u8g2\csrc/u8x8_8x8.c ****       b &= 7;      
 300              		.loc 1 239 0
 301 003c 1C3B     		subs	r3, r3, #28
 302 003e 1940     		ands	r1, r3
 303              	.LVL46:
 304 0040 11E0     		b	.L25
 305              	.L27:
 240:..\..\u8g2\csrc/u8x8_8x8.c ****     }
 241:..\..\u8g2\csrc/u8x8_8x8.c ****     else if ( b >= 0xe0 )
 306              		.loc 1 241 0
 307 0042 DF29     		cmp	r1, #223
 308 0044 05D9     		bls	.L28
 242:..\..\u8g2\csrc/u8x8_8x8.c ****     {
 243:..\..\u8g2\csrc/u8x8_8x8.c ****       u8x8->utf8_state = 2;
 309              		.loc 1 243 0
 310 0046 0222     		movs	r2, #2
 311 0048 2323     		movs	r3, #35
 312 004a C254     		strb	r2, [r0, r3]
 244:..\..\u8g2\csrc/u8x8_8x8.c ****       b &= 15;
 313              		.loc 1 244 0
 314 004c 143B     		subs	r3, r3, #20
 315 004e 1940     		ands	r1, r3
 316              	.LVL47:
 317 0050 09E0     		b	.L25
 318              	.L28:
ARM GAS  C:\Users\arh\AppData\Local\Temp\ccnfNqA6.s 			page 11


 245:..\..\u8g2\csrc/u8x8_8x8.c ****     }
 246:..\..\u8g2\csrc/u8x8_8x8.c ****     else if ( b >= 0xc0 )
 319              		.loc 1 246 0
 320 0052 BF29     		cmp	r1, #191
 321 0054 05D9     		bls	.L29
 247:..\..\u8g2\csrc/u8x8_8x8.c ****     {
 248:..\..\u8g2\csrc/u8x8_8x8.c ****       u8x8->utf8_state = 1;
 322              		.loc 1 248 0
 323 0056 0122     		movs	r2, #1
 324 0058 2323     		movs	r3, #35
 325 005a C254     		strb	r2, [r0, r3]
 249:..\..\u8g2\csrc/u8x8_8x8.c ****       b &= 0x01f;
 326              		.loc 1 249 0
 327 005c 043B     		subs	r3, r3, #4
 328 005e 1940     		ands	r1, r3
 329              	.LVL48:
 330 0060 01E0     		b	.L25
 331              	.L29:
 250:..\..\u8g2\csrc/u8x8_8x8.c ****     }
 251:..\..\u8g2\csrc/u8x8_8x8.c ****     else
 252:..\..\u8g2\csrc/u8x8_8x8.c ****     {
 253:..\..\u8g2\csrc/u8x8_8x8.c ****       /* do nothing, just use the value as encoding */
 254:..\..\u8g2\csrc/u8x8_8x8.c ****       return b;
 332              		.loc 1 254 0
 333 0062 89B2     		uxth	r1, r1
 334              	.LVL49:
 335 0064 14E0     		b	.L22
 336              	.LVL50:
 337              	.L25:
 255:..\..\u8g2\csrc/u8x8_8x8.c ****     }
 256:..\..\u8g2\csrc/u8x8_8x8.c ****     u8x8->encoding = b;
 338              		.loc 1 256 0
 339 0066 8183     		strh	r1, [r0, #28]
 257:..\..\u8g2\csrc/u8x8_8x8.c ****     return 0x0fffe;
 340              		.loc 1 257 0
 341 0068 0A49     		ldr	r1, .L32
 342              	.LVL51:
 343 006a 11E0     		b	.L22
 344              	.LVL52:
 345              	.L23:
 258:..\..\u8g2\csrc/u8x8_8x8.c ****   }
 259:..\..\u8g2\csrc/u8x8_8x8.c ****   else
 260:..\..\u8g2\csrc/u8x8_8x8.c ****   {
 261:..\..\u8g2\csrc/u8x8_8x8.c ****     u8x8->utf8_state--;
 346              		.loc 1 261 0
 347 006c 013B     		subs	r3, r3, #1
 348 006e DBB2     		uxtb	r3, r3
 349 0070 2322     		movs	r2, #35
 350 0072 8354     		strb	r3, [r0, r2]
 262:..\..\u8g2\csrc/u8x8_8x8.c ****     /* The case b < 0x080 (an illegal UTF8 encoding) is not checked here. */
 263:..\..\u8g2\csrc/u8x8_8x8.c ****     u8x8->encoding<<=6;
 351              		.loc 1 263 0
 352 0074 828B     		ldrh	r2, [r0, #28]
 353 0076 9201     		lsls	r2, r2, #6
 354 0078 92B2     		uxth	r2, r2
 264:..\..\u8g2\csrc/u8x8_8x8.c ****     b &= 0x03f;
 355              		.loc 1 264 0
ARM GAS  C:\Users\arh\AppData\Local\Temp\ccnfNqA6.s 			page 12


 356 007a 3F24     		movs	r4, #63
 357 007c 2140     		ands	r1, r4
 358              	.LVL53:
 265:..\..\u8g2\csrc/u8x8_8x8.c ****     u8x8->encoding |= b;
 359              		.loc 1 265 0
 360 007e 1143     		orrs	r1, r2
 361              	.LVL54:
 362 0080 8183     		strh	r1, [r0, #28]
 266:..\..\u8g2\csrc/u8x8_8x8.c ****     if ( u8x8->utf8_state != 0 )
 363              		.loc 1 266 0
 364 0082 002B     		cmp	r3, #0
 365 0084 04D0     		beq	.L22
 267:..\..\u8g2\csrc/u8x8_8x8.c ****       return 0x0fffe;	/* nothing to do yet */
 366              		.loc 1 267 0
 367 0086 0349     		ldr	r1, .L32
 368 0088 02E0     		b	.L22
 369              	.LVL55:
 370              	.L30:
 223:..\..\u8g2\csrc/u8x8_8x8.c ****   if ( u8x8->utf8_state == 0 )
 371              		.loc 1 223 0
 372 008a 0349     		ldr	r1, .L32+4
 373              	.LVL56:
 374 008c 00E0     		b	.L22
 375              	.LVL57:
 376              	.L31:
 377 008e 0249     		ldr	r1, .L32+4
 378              	.LVL58:
 379              	.L22:
 268:..\..\u8g2\csrc/u8x8_8x8.c ****   }
 269:..\..\u8g2\csrc/u8x8_8x8.c ****   return u8x8->encoding;
 270:..\..\u8g2\csrc/u8x8_8x8.c **** }
 380              		.loc 1 270 0
 381 0090 0800     		movs	r0, r1
 382              	.LVL59:
 383              		@ sp needed
 384 0092 10BD     		pop	{r4, pc}
 385              	.L33:
 386              		.align	2
 387              	.L32:
 388 0094 FEFF0000 		.word	65534
 389 0098 FFFF0000 		.word	65535
 390              		.cfi_endproc
 391              	.LFE8:
 392              		.size	u8x8_utf8_next, .-u8x8_utf8_next
 393              		.section	.text.u8x8_SetFont,"ax",%progbits
 394              		.align	2
 395              		.global	u8x8_SetFont
 396              		.code	16
 397              		.thumb_func
 398              		.type	u8x8_SetFont, %function
 399              	u8x8_SetFont:
 400              	.LFB0:
  51:..\..\u8g2\csrc/u8x8_8x8.c ****   u8x8->font = font_8x8;
 401              		.loc 1 51 0
 402              		.cfi_startproc
 403              		@ args = 0, pretend = 0, frame = 0
 404              		@ frame_needed = 0, uses_anonymous_args = 0
ARM GAS  C:\Users\arh\AppData\Local\Temp\ccnfNqA6.s 			page 13


 405              		@ link register save eliminated.
 406              	.LVL60:
  52:..\..\u8g2\csrc/u8x8_8x8.c **** }
 407              		.loc 1 52 0
 408 0000 8161     		str	r1, [r0, #24]
  53:..\..\u8g2\csrc/u8x8_8x8.c **** 
 409              		.loc 1 53 0
 410              		@ sp needed
 411 0002 7047     		bx	lr
 412              		.cfi_endproc
 413              	.LFE0:
 414              		.size	u8x8_SetFont, .-u8x8_SetFont
 415              		.section	.text.u8x8_DrawGlyph,"ax",%progbits
 416              		.align	2
 417              		.global	u8x8_DrawGlyph
 418              		.code	16
 419              		.thumb_func
 420              		.type	u8x8_DrawGlyph, %function
 421              	u8x8_DrawGlyph:
 422              	.LFB2:
 102:..\..\u8g2\csrc/u8x8_8x8.c ****   uint8_t buf[8];
 423              		.loc 1 102 0
 424              		.cfi_startproc
 425              		@ args = 0, pretend = 0, frame = 8
 426              		@ frame_needed = 0, uses_anonymous_args = 0
 427              	.LVL61:
 428 0000 F0B5     		push	{r4, r5, r6, r7, lr}
 429              		.cfi_def_cfa_offset 20
 430              		.cfi_offset 4, -20
 431              		.cfi_offset 5, -16
 432              		.cfi_offset 6, -12
 433              		.cfi_offset 7, -8
 434              		.cfi_offset 14, -4
 435 0002 85B0     		sub	sp, sp, #20
 436              		.cfi_def_cfa_offset 40
 437 0004 0400     		movs	r4, r0
 438 0006 0E00     		movs	r6, r1
 439 0008 1700     		movs	r7, r2
 104:..\..\u8g2\csrc/u8x8_8x8.c ****   u8x8_DrawTile(u8x8, x, y, 1, buf);
 440              		.loc 1 104 0
 441 000a 02AD     		add	r5, sp, #8
 442 000c 2A00     		movs	r2, r5
 443              	.LVL62:
 444 000e 1900     		movs	r1, r3
 445              	.LVL63:
 446 0010 FFF7FEFF 		bl	u8x8_get_glyph_data
 447              	.LVL64:
 105:..\..\u8g2\csrc/u8x8_8x8.c **** }
 448              		.loc 1 105 0
 449 0014 0095     		str	r5, [sp]
 450 0016 0123     		movs	r3, #1
 451 0018 3A00     		movs	r2, r7
 452 001a 3100     		movs	r1, r6
 453 001c 2000     		movs	r0, r4
 454 001e FFF7FEFF 		bl	u8x8_DrawTile
 455              	.LVL65:
 106:..\..\u8g2\csrc/u8x8_8x8.c **** 
ARM GAS  C:\Users\arh\AppData\Local\Temp\ccnfNqA6.s 			page 14


 456              		.loc 1 106 0
 457 0022 05B0     		add	sp, sp, #20
 458              		@ sp needed
 459              	.LVL66:
 460 0024 F0BD     		pop	{r4, r5, r6, r7, pc}
 461              		.cfi_endproc
 462              	.LFE2:
 463              		.size	u8x8_DrawGlyph, .-u8x8_DrawGlyph
 464 0026 C046     		.section	.text.u8x8_upscale_byte,"ax",%progbits
 465              		.align	2
 466              		.global	u8x8_upscale_byte
 467              		.code	16
 468              		.thumb_func
 469              		.type	u8x8_upscale_byte, %function
 470              	u8x8_upscale_byte:
 471              	.LFB3:
 134:..\..\u8g2\csrc/u8x8_8x8.c **** 	uint16_t y = x;
 472              		.loc 1 134 0
 473              		.cfi_startproc
 474              		@ args = 0, pretend = 0, frame = 0
 475              		@ frame_needed = 0, uses_anonymous_args = 0
 476              		@ link register save eliminated.
 477              	.LVL67:
 136:..\..\u8g2\csrc/u8x8_8x8.c **** 	y &= 0x0f0f;
 478              		.loc 1 136 0
 479 0000 0301     		lsls	r3, r0, #4
 480 0002 1843     		orrs	r0, r3
 481              	.LVL68:
 137:..\..\u8g2\csrc/u8x8_8x8.c **** 	y |= (y << 2);		// x = (x | (x << S[1])) & B[1];
 482              		.loc 1 137 0
 483 0004 064B     		ldr	r3, .L37
 484 0006 1840     		ands	r0, r3
 485              	.LVL69:
 138:..\..\u8g2\csrc/u8x8_8x8.c **** 	y &= 0x3333;
 486              		.loc 1 138 0
 487 0008 8300     		lsls	r3, r0, #2
 488 000a 1843     		orrs	r0, r3
 489              	.LVL70:
 139:..\..\u8g2\csrc/u8x8_8x8.c **** 	y |= (y << 1);		// x = (x | (x << S[0])) & B[0];
 490              		.loc 1 139 0
 491 000c 054B     		ldr	r3, .L37+4
 492 000e 1840     		ands	r0, r3
 493              	.LVL71:
 140:..\..\u8g2\csrc/u8x8_8x8.c **** 	y &= 0x5555;
 494              		.loc 1 140 0
 495 0010 4300     		lsls	r3, r0, #1
 496 0012 1843     		orrs	r0, r3
 497              	.LVL72:
 141:..\..\u8g2\csrc/u8x8_8x8.c ****   
 498              		.loc 1 141 0
 499 0014 044B     		ldr	r3, .L37+8
 500 0016 1840     		ands	r0, r3
 501              	.LVL73:
 143:..\..\u8g2\csrc/u8x8_8x8.c **** 	return y;
 502              		.loc 1 143 0
 503 0018 4300     		lsls	r3, r0, #1
 504 001a 1843     		orrs	r0, r3
ARM GAS  C:\Users\arh\AppData\Local\Temp\ccnfNqA6.s 			page 15


 505              	.LVL74:
 145:..\..\u8g2\csrc/u8x8_8x8.c **** 
 506              		.loc 1 145 0
 507              		@ sp needed
 508 001c 7047     		bx	lr
 509              	.L38:
 510 001e C046     		.align	2
 511              	.L37:
 512 0020 0F0F0000 		.word	3855
 513 0024 33330000 		.word	13107
 514 0028 55550000 		.word	21845
 515              		.cfi_endproc
 516              	.LFE3:
 517              		.size	u8x8_upscale_byte, .-u8x8_upscale_byte
 518              		.section	.text.u8x8_Draw2x2Glyph,"ax",%progbits
 519              		.align	2
 520              		.global	u8x8_Draw2x2Glyph
 521              		.code	16
 522              		.thumb_func
 523              		.type	u8x8_Draw2x2Glyph, %function
 524              	u8x8_Draw2x2Glyph:
 525              	.LFB5:
 160:..\..\u8g2\csrc/u8x8_8x8.c ****   uint8_t i;
 526              		.loc 1 160 0
 527              		.cfi_startproc
 528              		@ args = 0, pretend = 0, frame = 32
 529              		@ frame_needed = 0, uses_anonymous_args = 0
 530              	.LVL75:
 531 0000 F0B5     		push	{r4, r5, r6, r7, lr}
 532              		.cfi_def_cfa_offset 20
 533              		.cfi_offset 4, -20
 534              		.cfi_offset 5, -16
 535              		.cfi_offset 6, -12
 536              		.cfi_offset 7, -8
 537              		.cfi_offset 14, -4
 538 0002 8BB0     		sub	sp, sp, #44
 539              		.cfi_def_cfa_offset 64
 540 0004 0390     		str	r0, [sp, #12]
 541 0006 0F00     		movs	r7, r1
 542 0008 1400     		movs	r4, r2
 166:..\..\u8g2\csrc/u8x8_8x8.c ****   for( i = 0; i < 8; i ++ )
 543              		.loc 1 166 0
 544 000a 08AA     		add	r2, sp, #32
 545              	.LVL76:
 546 000c 1900     		movs	r1, r3
 547              	.LVL77:
 548 000e FFF7FEFF 		bl	u8x8_get_glyph_data
 549              	.LVL78:
 167:..\..\u8g2\csrc/u8x8_8x8.c ****   {
 550              		.loc 1 167 0
 551 0012 0025     		movs	r5, #0
 552 0014 0AE0     		b	.L40
 553              	.LVL79:
 554              	.L41:
 169:..\..\u8g2\csrc/u8x8_8x8.c ****       buf1[i] = t >> 8;
 555              		.loc 1 169 0 discriminator 3
 556 0016 08AB     		add	r3, sp, #32
ARM GAS  C:\Users\arh\AppData\Local\Temp\ccnfNqA6.s 			page 16


 557 0018 585D     		ldrb	r0, [r3, r5]
 558 001a FFF7FEFF 		bl	u8x8_upscale_byte
 559              	.LVL80:
 170:..\..\u8g2\csrc/u8x8_8x8.c ****       buf2[i] = t & 255;
 560              		.loc 1 170 0 discriminator 3
 561 001e 020A     		lsrs	r2, r0, #8
 562 0020 06AB     		add	r3, sp, #24
 563 0022 5A55     		strb	r2, [r3, r5]
 171:..\..\u8g2\csrc/u8x8_8x8.c ****   }
 564              		.loc 1 171 0 discriminator 3
 565 0024 04AB     		add	r3, sp, #16
 566 0026 5855     		strb	r0, [r3, r5]
 167:..\..\u8g2\csrc/u8x8_8x8.c ****   {
 567              		.loc 1 167 0 discriminator 3
 568 0028 0135     		adds	r5, r5, #1
 569              	.LVL81:
 570 002a EDB2     		uxtb	r5, r5
 571              	.LVL82:
 572              	.L40:
 167:..\..\u8g2\csrc/u8x8_8x8.c ****   {
 573              		.loc 1 167 0 is_stmt 0 discriminator 1
 574 002c 072D     		cmp	r5, #7
 575 002e F2D9     		bls	.L41
 173:..\..\u8g2\csrc/u8x8_8x8.c ****   u8x8_DrawTile(u8x8, x, y, 1, buf);
 576              		.loc 1 173 0 is_stmt 1
 577 0030 08AD     		add	r5, sp, #32
 578              	.LVL83:
 579 0032 2900     		movs	r1, r5
 580 0034 04A8     		add	r0, sp, #16
 581 0036 FFF7FEFF 		bl	u8x8_upscale_buf
 582              	.LVL84:
 174:..\..\u8g2\csrc/u8x8_8x8.c ****   
 583              		.loc 1 174 0
 584 003a 0095     		str	r5, [sp]
 585 003c 0123     		movs	r3, #1
 586 003e 2200     		movs	r2, r4
 587 0040 3900     		movs	r1, r7
 588 0042 0398     		ldr	r0, [sp, #12]
 589 0044 FFF7FEFF 		bl	u8x8_DrawTile
 590              	.LVL85:
 176:..\..\u8g2\csrc/u8x8_8x8.c ****   u8x8_DrawTile(u8x8, x+1, y, 1, buf);
 591              		.loc 1 176 0
 592 0048 2900     		movs	r1, r5
 593 004a 05A8     		add	r0, sp, #20
 594 004c FFF7FEFF 		bl	u8x8_upscale_buf
 595              	.LVL86:
 177:..\..\u8g2\csrc/u8x8_8x8.c ****   
 596              		.loc 1 177 0
 597 0050 7B1C     		adds	r3, r7, #1
 598 0052 DEB2     		uxtb	r6, r3
 599 0054 0095     		str	r5, [sp]
 600 0056 0123     		movs	r3, #1
 601 0058 2200     		movs	r2, r4
 602 005a 3100     		movs	r1, r6
 603 005c 0398     		ldr	r0, [sp, #12]
 604 005e FFF7FEFF 		bl	u8x8_DrawTile
 605              	.LVL87:
ARM GAS  C:\Users\arh\AppData\Local\Temp\ccnfNqA6.s 			page 17


 179:..\..\u8g2\csrc/u8x8_8x8.c ****   u8x8_DrawTile(u8x8, x, y+1, 1, buf);
 606              		.loc 1 179 0
 607 0062 2900     		movs	r1, r5
 608 0064 06A8     		add	r0, sp, #24
 609 0066 FFF7FEFF 		bl	u8x8_upscale_buf
 610              	.LVL88:
 180:..\..\u8g2\csrc/u8x8_8x8.c ****   
 611              		.loc 1 180 0
 612 006a 0134     		adds	r4, r4, #1
 613 006c E4B2     		uxtb	r4, r4
 614 006e 0095     		str	r5, [sp]
 615 0070 0123     		movs	r3, #1
 616 0072 2200     		movs	r2, r4
 617 0074 3900     		movs	r1, r7
 618 0076 0398     		ldr	r0, [sp, #12]
 619 0078 FFF7FEFF 		bl	u8x8_DrawTile
 620              	.LVL89:
 182:..\..\u8g2\csrc/u8x8_8x8.c ****   u8x8_DrawTile(u8x8, x+1, y+1, 1, buf);  
 621              		.loc 1 182 0
 622 007c 2900     		movs	r1, r5
 623 007e 07A8     		add	r0, sp, #28
 624 0080 FFF7FEFF 		bl	u8x8_upscale_buf
 625              	.LVL90:
 183:..\..\u8g2\csrc/u8x8_8x8.c **** }
 626              		.loc 1 183 0
 627 0084 0095     		str	r5, [sp]
 628 0086 0123     		movs	r3, #1
 629 0088 2200     		movs	r2, r4
 630 008a 3100     		movs	r1, r6
 631 008c 0398     		ldr	r0, [sp, #12]
 632 008e FFF7FEFF 		bl	u8x8_DrawTile
 633              	.LVL91:
 184:..\..\u8g2\csrc/u8x8_8x8.c **** 
 634              		.loc 1 184 0
 635 0092 0BB0     		add	sp, sp, #44
 636              		@ sp needed
 637 0094 F0BD     		pop	{r4, r5, r6, r7, pc}
 638              		.cfi_endproc
 639              	.LFE5:
 640              		.size	u8x8_Draw2x2Glyph, .-u8x8_Draw2x2Glyph
 641 0096 C046     		.section	.text.u8x8_utf8_init,"ax",%progbits
 642              		.align	2
 643              		.global	u8x8_utf8_init
 644              		.code	16
 645              		.thumb_func
 646              		.type	u8x8_utf8_init, %function
 647              	u8x8_utf8_init:
 648              	.LFB6:
 202:..\..\u8g2\csrc/u8x8_8x8.c ****   u8x8->utf8_state = 0;	/* also reset during u8x8_SetupDefaults() */
 649              		.loc 1 202 0
 650              		.cfi_startproc
 651              		@ args = 0, pretend = 0, frame = 0
 652              		@ frame_needed = 0, uses_anonymous_args = 0
 653              		@ link register save eliminated.
 654              	.LVL92:
 203:..\..\u8g2\csrc/u8x8_8x8.c **** }
 655              		.loc 1 203 0
ARM GAS  C:\Users\arh\AppData\Local\Temp\ccnfNqA6.s 			page 18


 656 0000 0022     		movs	r2, #0
 657 0002 2323     		movs	r3, #35
 658 0004 C254     		strb	r2, [r0, r3]
 204:..\..\u8g2\csrc/u8x8_8x8.c **** 
 659              		.loc 1 204 0
 660              		@ sp needed
 661 0006 7047     		bx	lr
 662              		.cfi_endproc
 663              	.LFE6:
 664              		.size	u8x8_utf8_init, .-u8x8_utf8_init
 665              		.section	.text.u8x8_draw_string,"ax",%progbits
 666              		.align	2
 667              		.code	16
 668              		.thumb_func
 669              		.type	u8x8_draw_string, %function
 670              	u8x8_draw_string:
 671              	.LFB9:
 271:..\..\u8g2\csrc/u8x8_8x8.c **** 
 272:..\..\u8g2\csrc/u8x8_8x8.c **** 
 273:..\..\u8g2\csrc/u8x8_8x8.c **** 
 274:..\..\u8g2\csrc/u8x8_8x8.c **** static uint8_t u8x8_draw_string(u8x8_t *u8x8, uint8_t x, uint8_t y, const char *s) U8X8_NOINLINE;
 275:..\..\u8g2\csrc/u8x8_8x8.c **** static uint8_t u8x8_draw_string(u8x8_t *u8x8, uint8_t x, uint8_t y, const char *s)
 276:..\..\u8g2\csrc/u8x8_8x8.c **** {
 672              		.loc 1 276 0
 673              		.cfi_startproc
 674              		@ args = 0, pretend = 0, frame = 8
 675              		@ frame_needed = 0, uses_anonymous_args = 0
 676              	.LVL93:
 677 0000 F0B5     		push	{r4, r5, r6, r7, lr}
 678              		.cfi_def_cfa_offset 20
 679              		.cfi_offset 4, -20
 680              		.cfi_offset 5, -16
 681              		.cfi_offset 6, -12
 682              		.cfi_offset 7, -8
 683              		.cfi_offset 14, -4
 684 0002 83B0     		sub	sp, sp, #12
 685              		.cfi_def_cfa_offset 32
 686 0004 0600     		movs	r6, r0
 687 0006 0F00     		movs	r7, r1
 688 0008 0192     		str	r2, [sp, #4]
 689 000a 1C00     		movs	r4, r3
 690              	.LVL94:
 277:..\..\u8g2\csrc/u8x8_8x8.c ****   uint16_t e;
 278:..\..\u8g2\csrc/u8x8_8x8.c ****   uint8_t cnt = 0;
 279:..\..\u8g2\csrc/u8x8_8x8.c ****   u8x8_utf8_init(u8x8);
 691              		.loc 1 279 0
 692 000c FFF7FEFF 		bl	u8x8_utf8_init
 693              	.LVL95:
 278:..\..\u8g2\csrc/u8x8_8x8.c ****   u8x8_utf8_init(u8x8);
 694              		.loc 1 278 0
 695 0010 0025     		movs	r5, #0
 696              	.LVL96:
 697              	.L44:
 280:..\..\u8g2\csrc/u8x8_8x8.c ****   for(;;)
 281:..\..\u8g2\csrc/u8x8_8x8.c ****   {
 282:..\..\u8g2\csrc/u8x8_8x8.c ****     e = u8x8->next_cb(u8x8, (uint8_t)*s);
 698              		.loc 1 282 0
ARM GAS  C:\Users\arh\AppData\Local\Temp\ccnfNqA6.s 			page 19


 699 0012 2178     		ldrb	r1, [r4]
 700 0014 3000     		movs	r0, r6
 701 0016 7368     		ldr	r3, [r6, #4]
 702 0018 9847     		blx	r3
 703              	.LVL97:
 283:..\..\u8g2\csrc/u8x8_8x8.c ****     if ( e == 0x0ffff )
 704              		.loc 1 283 0
 705 001a 0A4A     		ldr	r2, .L47
 706 001c 9042     		cmp	r0, r2
 707 001e 0ED0     		beq	.L45
 284:..\..\u8g2\csrc/u8x8_8x8.c ****       break;
 285:..\..\u8g2\csrc/u8x8_8x8.c ****     s++;
 708              		.loc 1 285 0
 709 0020 0134     		adds	r4, r4, #1
 710              	.LVL98:
 286:..\..\u8g2\csrc/u8x8_8x8.c ****     if ( e != 0x0fffe )
 711              		.loc 1 286 0
 712 0022 094A     		ldr	r2, .L47+4
 713 0024 9042     		cmp	r0, r2
 714 0026 F4D0     		beq	.L44
 287:..\..\u8g2\csrc/u8x8_8x8.c ****     {
 288:..\..\u8g2\csrc/u8x8_8x8.c ****       u8x8_DrawGlyph(u8x8, x, y, e);
 715              		.loc 1 288 0
 716 0028 C3B2     		uxtb	r3, r0
 717 002a 019A     		ldr	r2, [sp, #4]
 718 002c 3900     		movs	r1, r7
 719 002e 3000     		movs	r0, r6
 720              	.LVL99:
 721 0030 FFF7FEFF 		bl	u8x8_DrawGlyph
 722              	.LVL100:
 289:..\..\u8g2\csrc/u8x8_8x8.c ****       x++;
 723              		.loc 1 289 0
 724 0034 0137     		adds	r7, r7, #1
 725              	.LVL101:
 726 0036 FFB2     		uxtb	r7, r7
 727              	.LVL102:
 290:..\..\u8g2\csrc/u8x8_8x8.c ****       cnt++;
 728              		.loc 1 290 0
 729 0038 6B1C     		adds	r3, r5, #1
 730 003a DDB2     		uxtb	r5, r3
 731              	.LVL103:
 732 003c E9E7     		b	.L44
 733              	.LVL104:
 734              	.L45:
 291:..\..\u8g2\csrc/u8x8_8x8.c ****     }
 292:..\..\u8g2\csrc/u8x8_8x8.c ****   }
 293:..\..\u8g2\csrc/u8x8_8x8.c ****   return cnt;
 294:..\..\u8g2\csrc/u8x8_8x8.c **** }
 735              		.loc 1 294 0
 736 003e 2800     		movs	r0, r5
 737              	.LVL105:
 738 0040 03B0     		add	sp, sp, #12
 739              		@ sp needed
 740              	.LVL106:
 741              	.LVL107:
 742              	.LVL108:
 743              	.LVL109:
ARM GAS  C:\Users\arh\AppData\Local\Temp\ccnfNqA6.s 			page 20


 744 0042 F0BD     		pop	{r4, r5, r6, r7, pc}
 745              	.L48:
 746              		.align	2
 747              	.L47:
 748 0044 FFFF0000 		.word	65535
 749 0048 FEFF0000 		.word	65534
 750              		.cfi_endproc
 751              	.LFE9:
 752              		.size	u8x8_draw_string, .-u8x8_draw_string
 753              		.section	.text.u8x8_draw_2x2_string,"ax",%progbits
 754              		.align	2
 755              		.code	16
 756              		.thumb_func
 757              		.type	u8x8_draw_2x2_string, %function
 758              	u8x8_draw_2x2_string:
 759              	.LFB12:
 295:..\..\u8g2\csrc/u8x8_8x8.c **** 
 296:..\..\u8g2\csrc/u8x8_8x8.c **** 
 297:..\..\u8g2\csrc/u8x8_8x8.c **** uint8_t u8x8_DrawString(u8x8_t *u8x8, uint8_t x, uint8_t y, const char *s)
 298:..\..\u8g2\csrc/u8x8_8x8.c **** {
 299:..\..\u8g2\csrc/u8x8_8x8.c ****   u8x8->next_cb = u8x8_ascii_next;
 300:..\..\u8g2\csrc/u8x8_8x8.c ****   return u8x8_draw_string(u8x8, x, y, s);
 301:..\..\u8g2\csrc/u8x8_8x8.c **** }
 302:..\..\u8g2\csrc/u8x8_8x8.c **** 
 303:..\..\u8g2\csrc/u8x8_8x8.c **** uint8_t u8x8_DrawUTF8(u8x8_t *u8x8, uint8_t x, uint8_t y, const char *s)
 304:..\..\u8g2\csrc/u8x8_8x8.c **** {
 305:..\..\u8g2\csrc/u8x8_8x8.c ****   u8x8->next_cb = u8x8_utf8_next;
 306:..\..\u8g2\csrc/u8x8_8x8.c ****   return u8x8_draw_string(u8x8, x, y, s);
 307:..\..\u8g2\csrc/u8x8_8x8.c **** }
 308:..\..\u8g2\csrc/u8x8_8x8.c **** 
 309:..\..\u8g2\csrc/u8x8_8x8.c **** 
 310:..\..\u8g2\csrc/u8x8_8x8.c **** 
 311:..\..\u8g2\csrc/u8x8_8x8.c **** static uint8_t u8x8_draw_2x2_string(u8x8_t *u8x8, uint8_t x, uint8_t y, const char *s) U8X8_NOINLIN
 312:..\..\u8g2\csrc/u8x8_8x8.c **** static uint8_t u8x8_draw_2x2_string(u8x8_t *u8x8, uint8_t x, uint8_t y, const char *s)
 313:..\..\u8g2\csrc/u8x8_8x8.c **** {
 760              		.loc 1 313 0
 761              		.cfi_startproc
 762              		@ args = 0, pretend = 0, frame = 8
 763              		@ frame_needed = 0, uses_anonymous_args = 0
 764              	.LVL110:
 765 0000 F0B5     		push	{r4, r5, r6, r7, lr}
 766              		.cfi_def_cfa_offset 20
 767              		.cfi_offset 4, -20
 768              		.cfi_offset 5, -16
 769              		.cfi_offset 6, -12
 770              		.cfi_offset 7, -8
 771              		.cfi_offset 14, -4
 772 0002 83B0     		sub	sp, sp, #12
 773              		.cfi_def_cfa_offset 32
 774 0004 0600     		movs	r6, r0
 775 0006 0F00     		movs	r7, r1
 776 0008 0192     		str	r2, [sp, #4]
 777 000a 1C00     		movs	r4, r3
 778              	.LVL111:
 314:..\..\u8g2\csrc/u8x8_8x8.c ****   uint16_t e;
 315:..\..\u8g2\csrc/u8x8_8x8.c ****   uint8_t cnt = 0;
 316:..\..\u8g2\csrc/u8x8_8x8.c ****   u8x8_utf8_init(u8x8);
ARM GAS  C:\Users\arh\AppData\Local\Temp\ccnfNqA6.s 			page 21


 779              		.loc 1 316 0
 780 000c FFF7FEFF 		bl	u8x8_utf8_init
 781              	.LVL112:
 315:..\..\u8g2\csrc/u8x8_8x8.c ****   u8x8_utf8_init(u8x8);
 782              		.loc 1 315 0
 783 0010 0025     		movs	r5, #0
 784              	.LVL113:
 785              	.L50:
 317:..\..\u8g2\csrc/u8x8_8x8.c ****   for(;;)
 318:..\..\u8g2\csrc/u8x8_8x8.c ****   {
 319:..\..\u8g2\csrc/u8x8_8x8.c ****     e = u8x8->next_cb(u8x8, (uint8_t)*s);
 786              		.loc 1 319 0
 787 0012 2178     		ldrb	r1, [r4]
 788 0014 3000     		movs	r0, r6
 789 0016 7368     		ldr	r3, [r6, #4]
 790 0018 9847     		blx	r3
 791              	.LVL114:
 320:..\..\u8g2\csrc/u8x8_8x8.c ****     if ( e == 0x0ffff )
 792              		.loc 1 320 0
 793 001a 0A4A     		ldr	r2, .L53
 794 001c 9042     		cmp	r0, r2
 795 001e 0ED0     		beq	.L51
 321:..\..\u8g2\csrc/u8x8_8x8.c ****       break;
 322:..\..\u8g2\csrc/u8x8_8x8.c ****     s++;
 796              		.loc 1 322 0
 797 0020 0134     		adds	r4, r4, #1
 798              	.LVL115:
 323:..\..\u8g2\csrc/u8x8_8x8.c ****     if ( e != 0x0fffe )
 799              		.loc 1 323 0
 800 0022 094A     		ldr	r2, .L53+4
 801 0024 9042     		cmp	r0, r2
 802 0026 F4D0     		beq	.L50
 324:..\..\u8g2\csrc/u8x8_8x8.c ****     {
 325:..\..\u8g2\csrc/u8x8_8x8.c ****       u8x8_Draw2x2Glyph(u8x8, x, y, e);
 803              		.loc 1 325 0
 804 0028 C3B2     		uxtb	r3, r0
 805 002a 019A     		ldr	r2, [sp, #4]
 806 002c 3900     		movs	r1, r7
 807 002e 3000     		movs	r0, r6
 808              	.LVL116:
 809 0030 FFF7FEFF 		bl	u8x8_Draw2x2Glyph
 810              	.LVL117:
 326:..\..\u8g2\csrc/u8x8_8x8.c ****       x+=2;
 811              		.loc 1 326 0
 812 0034 0237     		adds	r7, r7, #2
 813              	.LVL118:
 814 0036 FFB2     		uxtb	r7, r7
 815              	.LVL119:
 327:..\..\u8g2\csrc/u8x8_8x8.c ****       cnt++;
 816              		.loc 1 327 0
 817 0038 6B1C     		adds	r3, r5, #1
 818 003a DDB2     		uxtb	r5, r3
 819              	.LVL120:
 820 003c E9E7     		b	.L50
 821              	.LVL121:
 822              	.L51:
 328:..\..\u8g2\csrc/u8x8_8x8.c ****     }
ARM GAS  C:\Users\arh\AppData\Local\Temp\ccnfNqA6.s 			page 22


 329:..\..\u8g2\csrc/u8x8_8x8.c ****   }
 330:..\..\u8g2\csrc/u8x8_8x8.c ****   return cnt;
 331:..\..\u8g2\csrc/u8x8_8x8.c **** }
 823              		.loc 1 331 0
 824 003e 2800     		movs	r0, r5
 825              	.LVL122:
 826 0040 03B0     		add	sp, sp, #12
 827              		@ sp needed
 828              	.LVL123:
 829              	.LVL124:
 830              	.LVL125:
 831              	.LVL126:
 832 0042 F0BD     		pop	{r4, r5, r6, r7, pc}
 833              	.L54:
 834              		.align	2
 835              	.L53:
 836 0044 FFFF0000 		.word	65535
 837 0048 FEFF0000 		.word	65534
 838              		.cfi_endproc
 839              	.LFE12:
 840              		.size	u8x8_draw_2x2_string, .-u8x8_draw_2x2_string
 841              		.section	.text.u8x8_DrawString,"ax",%progbits
 842              		.align	2
 843              		.global	u8x8_DrawString
 844              		.code	16
 845              		.thumb_func
 846              		.type	u8x8_DrawString, %function
 847              	u8x8_DrawString:
 848              	.LFB10:
 298:..\..\u8g2\csrc/u8x8_8x8.c ****   u8x8->next_cb = u8x8_ascii_next;
 849              		.loc 1 298 0
 850              		.cfi_startproc
 851              		@ args = 0, pretend = 0, frame = 0
 852              		@ frame_needed = 0, uses_anonymous_args = 0
 853              	.LVL127:
 854 0000 10B5     		push	{r4, lr}
 855              		.cfi_def_cfa_offset 8
 856              		.cfi_offset 4, -8
 857              		.cfi_offset 14, -4
 299:..\..\u8g2\csrc/u8x8_8x8.c ****   return u8x8_draw_string(u8x8, x, y, s);
 858              		.loc 1 299 0
 859 0002 024C     		ldr	r4, .L56
 860 0004 4460     		str	r4, [r0, #4]
 300:..\..\u8g2\csrc/u8x8_8x8.c **** }
 861              		.loc 1 300 0
 862 0006 FFF7FEFF 		bl	u8x8_draw_string
 863              	.LVL128:
 301:..\..\u8g2\csrc/u8x8_8x8.c **** 
 864              		.loc 1 301 0
 865              		@ sp needed
 866 000a 10BD     		pop	{r4, pc}
 867              	.L57:
 868              		.align	2
 869              	.L56:
 870 000c 00000000 		.word	u8x8_ascii_next
 871              		.cfi_endproc
 872              	.LFE10:
ARM GAS  C:\Users\arh\AppData\Local\Temp\ccnfNqA6.s 			page 23


 873              		.size	u8x8_DrawString, .-u8x8_DrawString
 874              		.section	.text.u8x8_DrawUTF8,"ax",%progbits
 875              		.align	2
 876              		.global	u8x8_DrawUTF8
 877              		.code	16
 878              		.thumb_func
 879              		.type	u8x8_DrawUTF8, %function
 880              	u8x8_DrawUTF8:
 881              	.LFB11:
 304:..\..\u8g2\csrc/u8x8_8x8.c ****   u8x8->next_cb = u8x8_utf8_next;
 882              		.loc 1 304 0
 883              		.cfi_startproc
 884              		@ args = 0, pretend = 0, frame = 0
 885              		@ frame_needed = 0, uses_anonymous_args = 0
 886              	.LVL129:
 887 0000 10B5     		push	{r4, lr}
 888              		.cfi_def_cfa_offset 8
 889              		.cfi_offset 4, -8
 890              		.cfi_offset 14, -4
 305:..\..\u8g2\csrc/u8x8_8x8.c ****   return u8x8_draw_string(u8x8, x, y, s);
 891              		.loc 1 305 0
 892 0002 024C     		ldr	r4, .L59
 893 0004 4460     		str	r4, [r0, #4]
 306:..\..\u8g2\csrc/u8x8_8x8.c **** }
 894              		.loc 1 306 0
 895 0006 FFF7FEFF 		bl	u8x8_draw_string
 896              	.LVL130:
 307:..\..\u8g2\csrc/u8x8_8x8.c **** 
 897              		.loc 1 307 0
 898              		@ sp needed
 899 000a 10BD     		pop	{r4, pc}
 900              	.L60:
 901              		.align	2
 902              	.L59:
 903 000c 00000000 		.word	u8x8_utf8_next
 904              		.cfi_endproc
 905              	.LFE11:
 906              		.size	u8x8_DrawUTF8, .-u8x8_DrawUTF8
 907              		.section	.text.u8x8_Draw2x2String,"ax",%progbits
 908              		.align	2
 909              		.global	u8x8_Draw2x2String
 910              		.code	16
 911              		.thumb_func
 912              		.type	u8x8_Draw2x2String, %function
 913              	u8x8_Draw2x2String:
 914              	.LFB13:
 332:..\..\u8g2\csrc/u8x8_8x8.c **** 
 333:..\..\u8g2\csrc/u8x8_8x8.c **** 
 334:..\..\u8g2\csrc/u8x8_8x8.c **** uint8_t u8x8_Draw2x2String(u8x8_t *u8x8, uint8_t x, uint8_t y, const char *s)
 335:..\..\u8g2\csrc/u8x8_8x8.c **** {
 915              		.loc 1 335 0
 916              		.cfi_startproc
 917              		@ args = 0, pretend = 0, frame = 0
 918              		@ frame_needed = 0, uses_anonymous_args = 0
 919              	.LVL131:
 920 0000 10B5     		push	{r4, lr}
 921              		.cfi_def_cfa_offset 8
ARM GAS  C:\Users\arh\AppData\Local\Temp\ccnfNqA6.s 			page 24


 922              		.cfi_offset 4, -8
 923              		.cfi_offset 14, -4
 336:..\..\u8g2\csrc/u8x8_8x8.c ****   u8x8->next_cb = u8x8_ascii_next;
 924              		.loc 1 336 0
 925 0002 024C     		ldr	r4, .L62
 926 0004 4460     		str	r4, [r0, #4]
 337:..\..\u8g2\csrc/u8x8_8x8.c ****   return u8x8_draw_2x2_string(u8x8, x, y, s);
 927              		.loc 1 337 0
 928 0006 FFF7FEFF 		bl	u8x8_draw_2x2_string
 929              	.LVL132:
 338:..\..\u8g2\csrc/u8x8_8x8.c **** }
 930              		.loc 1 338 0
 931              		@ sp needed
 932 000a 10BD     		pop	{r4, pc}
 933              	.L63:
 934              		.align	2
 935              	.L62:
 936 000c 00000000 		.word	u8x8_ascii_next
 937              		.cfi_endproc
 938              	.LFE13:
 939              		.size	u8x8_Draw2x2String, .-u8x8_Draw2x2String
 940              		.section	.text.u8x8_Draw2x2UTF8,"ax",%progbits
 941              		.align	2
 942              		.global	u8x8_Draw2x2UTF8
 943              		.code	16
 944              		.thumb_func
 945              		.type	u8x8_Draw2x2UTF8, %function
 946              	u8x8_Draw2x2UTF8:
 947              	.LFB14:
 339:..\..\u8g2\csrc/u8x8_8x8.c **** 
 340:..\..\u8g2\csrc/u8x8_8x8.c **** uint8_t u8x8_Draw2x2UTF8(u8x8_t *u8x8, uint8_t x, uint8_t y, const char *s)
 341:..\..\u8g2\csrc/u8x8_8x8.c **** {
 948              		.loc 1 341 0
 949              		.cfi_startproc
 950              		@ args = 0, pretend = 0, frame = 0
 951              		@ frame_needed = 0, uses_anonymous_args = 0
 952              	.LVL133:
 953 0000 10B5     		push	{r4, lr}
 954              		.cfi_def_cfa_offset 8
 955              		.cfi_offset 4, -8
 956              		.cfi_offset 14, -4
 342:..\..\u8g2\csrc/u8x8_8x8.c ****   u8x8->next_cb = u8x8_utf8_next;
 957              		.loc 1 342 0
 958 0002 024C     		ldr	r4, .L65
 959 0004 4460     		str	r4, [r0, #4]
 343:..\..\u8g2\csrc/u8x8_8x8.c ****   return u8x8_draw_2x2_string(u8x8, x, y, s);
 960              		.loc 1 343 0
 961 0006 FFF7FEFF 		bl	u8x8_draw_2x2_string
 962              	.LVL134:
 344:..\..\u8g2\csrc/u8x8_8x8.c **** }
 963              		.loc 1 344 0
 964              		@ sp needed
 965 000a 10BD     		pop	{r4, pc}
 966              	.L66:
 967              		.align	2
 968              	.L65:
 969 000c 00000000 		.word	u8x8_utf8_next
ARM GAS  C:\Users\arh\AppData\Local\Temp\ccnfNqA6.s 			page 25


 970              		.cfi_endproc
 971              	.LFE14:
 972              		.size	u8x8_Draw2x2UTF8, .-u8x8_Draw2x2UTF8
 973              		.section	.text.u8x8_GetUTF8Len,"ax",%progbits
 974              		.align	2
 975              		.global	u8x8_GetUTF8Len
 976              		.code	16
 977              		.thumb_func
 978              		.type	u8x8_GetUTF8Len, %function
 979              	u8x8_GetUTF8Len:
 980              	.LFB15:
 345:..\..\u8g2\csrc/u8x8_8x8.c **** 
 346:..\..\u8g2\csrc/u8x8_8x8.c **** 
 347:..\..\u8g2\csrc/u8x8_8x8.c **** 
 348:..\..\u8g2\csrc/u8x8_8x8.c **** uint8_t u8x8_GetUTF8Len(u8x8_t *u8x8, const char *s)
 349:..\..\u8g2\csrc/u8x8_8x8.c **** {
 981              		.loc 1 349 0
 982              		.cfi_startproc
 983              		@ args = 0, pretend = 0, frame = 0
 984              		@ frame_needed = 0, uses_anonymous_args = 0
 985              	.LVL135:
 986 0000 70B5     		push	{r4, r5, r6, lr}
 987              		.cfi_def_cfa_offset 16
 988              		.cfi_offset 4, -16
 989              		.cfi_offset 5, -12
 990              		.cfi_offset 6, -8
 991              		.cfi_offset 14, -4
 992 0002 0500     		movs	r5, r0
 993 0004 0C00     		movs	r4, r1
 994              	.LVL136:
 350:..\..\u8g2\csrc/u8x8_8x8.c ****   uint16_t e;
 351:..\..\u8g2\csrc/u8x8_8x8.c ****   uint8_t cnt = 0;
 352:..\..\u8g2\csrc/u8x8_8x8.c ****   u8x8_utf8_init(u8x8);
 995              		.loc 1 352 0
 996 0006 FFF7FEFF 		bl	u8x8_utf8_init
 997              	.LVL137:
 351:..\..\u8g2\csrc/u8x8_8x8.c ****   u8x8_utf8_init(u8x8);
 998              		.loc 1 351 0
 999 000a 0026     		movs	r6, #0
 1000              	.LVL138:
 1001              	.L68:
 353:..\..\u8g2\csrc/u8x8_8x8.c ****   for(;;)
 354:..\..\u8g2\csrc/u8x8_8x8.c ****   {
 355:..\..\u8g2\csrc/u8x8_8x8.c ****     e = u8x8_utf8_next(u8x8, *s);
 1002              		.loc 1 355 0
 1003 000c 2178     		ldrb	r1, [r4]
 1004 000e 2800     		movs	r0, r5
 1005 0010 FFF7FEFF 		bl	u8x8_utf8_next
 1006              	.LVL139:
 356:..\..\u8g2\csrc/u8x8_8x8.c ****     if ( e == 0x0ffff )
 1007              		.loc 1 356 0
 1008 0014 054B     		ldr	r3, .L71
 1009 0016 9842     		cmp	r0, r3
 1010 0018 06D0     		beq	.L69
 357:..\..\u8g2\csrc/u8x8_8x8.c ****       break;
 358:..\..\u8g2\csrc/u8x8_8x8.c ****     s++;
 1011              		.loc 1 358 0
ARM GAS  C:\Users\arh\AppData\Local\Temp\ccnfNqA6.s 			page 26


 1012 001a 0134     		adds	r4, r4, #1
 1013              	.LVL140:
 359:..\..\u8g2\csrc/u8x8_8x8.c ****     if ( e != 0x0fffe )
 1014              		.loc 1 359 0
 1015 001c 044B     		ldr	r3, .L71+4
 1016 001e 9842     		cmp	r0, r3
 1017 0020 F4D0     		beq	.L68
 360:..\..\u8g2\csrc/u8x8_8x8.c ****       cnt++;
 1018              		.loc 1 360 0
 1019 0022 0136     		adds	r6, r6, #1
 1020              	.LVL141:
 1021 0024 F6B2     		uxtb	r6, r6
 1022              	.LVL142:
 1023 0026 F1E7     		b	.L68
 1024              	.L69:
 361:..\..\u8g2\csrc/u8x8_8x8.c ****   }
 362:..\..\u8g2\csrc/u8x8_8x8.c ****   return cnt;
 363:..\..\u8g2\csrc/u8x8_8x8.c **** }
 1025              		.loc 1 363 0
 1026 0028 3000     		movs	r0, r6
 1027              	.LVL143:
 1028              		@ sp needed
 1029              	.LVL144:
 1030              	.LVL145:
 1031              	.LVL146:
 1032 002a 70BD     		pop	{r4, r5, r6, pc}
 1033              	.L72:
 1034              		.align	2
 1035              	.L71:
 1036 002c FFFF0000 		.word	65535
 1037 0030 FEFF0000 		.word	65534
 1038              		.cfi_endproc
 1039              	.LFE15:
 1040              		.size	u8x8_GetUTF8Len, .-u8x8_GetUTF8Len
 1041              		.text
 1042              	.Letext0:
 1043              		.file 2 "c:\\program files (x86)\\cypress\\psoc creator\\4.1\\psoc creator\\import\\gnu\\arm\\5.4.
 1044              		.file 3 "c:\\program files (x86)\\cypress\\psoc creator\\4.1\\psoc creator\\import\\gnu\\arm\\5.4.
 1045              		.file 4 "..\\..\\u8g2\\csrc\\u8x8.h"