ARM GAS  C:\Users\gjl\AppData\Local\Temp\ccQvIeTb.s 			page 1


   1              		.syntax unified
   2              		.cpu cortex-m0
   3              		.fpu softvfp
   4              		.eabi_attribute 20, 1
   5              		.eabi_attribute 21, 1
   6              		.eabi_attribute 23, 3
   7              		.eabi_attribute 24, 1
   8              		.eabi_attribute 25, 1
   9              		.eabi_attribute 26, 1
  10              		.eabi_attribute 30, 1
  11              		.eabi_attribute 34, 0
  12              		.eabi_attribute 18, 4
  13              		.thumb
  14              		.syntax unified
  15              		.file	"u8x8_d_sed1330.c"
  16              		.text
  17              	.Ltext0:
  18              		.cfi_sections	.debug_frame
  19              		.section	.text.u8x8_d_sed1330_common,"ax",%progbits
  20              		.align	2
  21              		.global	u8x8_d_sed1330_common
  22              		.code	16
  23              		.thumb_func
  24              		.type	u8x8_d_sed1330_common, %function
  25              	u8x8_d_sed1330_common:
  26              	.LFB0:
  27              		.file 1 "..\\u8g2\\csrc\\u8x8_d_sed1330.c"
   1:..\u8g2\csrc/u8x8_d_sed1330.c **** /*
   2:..\u8g2\csrc/u8x8_d_sed1330.c **** 
   3:..\u8g2\csrc/u8x8_d_sed1330.c ****   u8x8_d_sed1330.c
   4:..\u8g2\csrc/u8x8_d_sed1330.c ****   
   5:..\u8g2\csrc/u8x8_d_sed1330.c ****   Universal 8bit Graphics Library (https://github.com/olikraus/u8g2/)
   6:..\u8g2\csrc/u8x8_d_sed1330.c **** 
   7:..\u8g2\csrc/u8x8_d_sed1330.c ****   Copyright (c) 2016, olikraus@gmail.com
   8:..\u8g2\csrc/u8x8_d_sed1330.c ****   All rights reserved.
   9:..\u8g2\csrc/u8x8_d_sed1330.c **** 
  10:..\u8g2\csrc/u8x8_d_sed1330.c ****   Redistribution and use in source and binary forms, with or without modification, 
  11:..\u8g2\csrc/u8x8_d_sed1330.c ****   are permitted provided that the following conditions are met:
  12:..\u8g2\csrc/u8x8_d_sed1330.c **** 
  13:..\u8g2\csrc/u8x8_d_sed1330.c ****   * Redistributions of source code must retain the above copyright notice, this list 
  14:..\u8g2\csrc/u8x8_d_sed1330.c ****     of conditions and the following disclaimer.
  15:..\u8g2\csrc/u8x8_d_sed1330.c ****     
  16:..\u8g2\csrc/u8x8_d_sed1330.c ****   * Redistributions in binary form must reproduce the above copyright notice, this 
  17:..\u8g2\csrc/u8x8_d_sed1330.c ****     list of conditions and the following disclaimer in the documentation and/or other 
  18:..\u8g2\csrc/u8x8_d_sed1330.c ****     materials provided with the distribution.
  19:..\u8g2\csrc/u8x8_d_sed1330.c **** 
  20:..\u8g2\csrc/u8x8_d_sed1330.c ****   THIS SOFTWARE IS PROVIDED BY THE COPYRIGHT HOLDERS AND 
  21:..\u8g2\csrc/u8x8_d_sed1330.c ****   CONTRIBUTORS "AS IS" AND ANY EXPRESS OR IMPLIED WARRANTIES, 
  22:..\u8g2\csrc/u8x8_d_sed1330.c ****   INCLUDING, BUT NOT LIMITED TO, THE IMPLIED WARRANTIES OF 
  23:..\u8g2\csrc/u8x8_d_sed1330.c ****   MERCHANTABILITY AND FITNESS FOR A PARTICULAR PURPOSE ARE 
  24:..\u8g2\csrc/u8x8_d_sed1330.c ****   DISCLAIMED. IN NO EVENT SHALL THE COPYRIGHT HOLDER OR 
  25:..\u8g2\csrc/u8x8_d_sed1330.c ****   CONTRIBUTORS BE LIABLE FOR ANY DIRECT, INDIRECT, INCIDENTAL, 
  26:..\u8g2\csrc/u8x8_d_sed1330.c ****   SPECIAL, EXEMPLARY, OR CONSEQUENTIAL DAMAGES (INCLUDING, BUT 
  27:..\u8g2\csrc/u8x8_d_sed1330.c ****   NOT LIMITED TO, PROCUREMENT OF SUBSTITUTE GOODS OR SERVICES; 
  28:..\u8g2\csrc/u8x8_d_sed1330.c ****   LOSS OF USE, DATA, OR PROFITS; OR BUSINESS INTERRUPTION) HOWEVER 
  29:..\u8g2\csrc/u8x8_d_sed1330.c ****   CAUSED AND ON ANY THEORY OF LIABILITY, WHETHER IN CONTRACT, 
  30:..\u8g2\csrc/u8x8_d_sed1330.c ****   STRICT LIABILITY, OR TORT (INCLUDING NEGLIGENCE OR OTHERWISE) 
ARM GAS  C:\Users\gjl\AppData\Local\Temp\ccQvIeTb.s 			page 2


  31:..\u8g2\csrc/u8x8_d_sed1330.c ****   ARISING IN ANY WAY OUT OF THE USE OF THIS SOFTWARE, EVEN IF 
  32:..\u8g2\csrc/u8x8_d_sed1330.c ****   ADVISED OF THE POSSIBILITY OF SUCH DAMAGE.  
  33:..\u8g2\csrc/u8x8_d_sed1330.c **** 
  34:..\u8g2\csrc/u8x8_d_sed1330.c **** 
  35:..\u8g2\csrc/u8x8_d_sed1330.c ****   The device might also work with the RA8835, SED1335 and SED1336 controller.
  36:..\u8g2\csrc/u8x8_d_sed1330.c ****   The following devices might be compatible:
  37:..\u8g2\csrc/u8x8_d_sed1330.c ****     RA8835
  38:..\u8g2\csrc/u8x8_d_sed1330.c ****     SED1330
  39:..\u8g2\csrc/u8x8_d_sed1330.c ****     SED1335
  40:..\u8g2\csrc/u8x8_d_sed1330.c ****     S1D13700
  41:..\u8g2\csrc/u8x8_d_sed1330.c **** 
  42:..\u8g2\csrc/u8x8_d_sed1330.c **** 
  43:..\u8g2\csrc/u8x8_d_sed1330.c **** */
  44:..\u8g2\csrc/u8x8_d_sed1330.c **** #include "u8x8.h"
  45:..\u8g2\csrc/u8x8_d_sed1330.c **** 
  46:..\u8g2\csrc/u8x8_d_sed1330.c **** 
  47:..\u8g2\csrc/u8x8_d_sed1330.c **** 
  48:..\u8g2\csrc/u8x8_d_sed1330.c **** static const uint8_t u8x8_d_sed1330_powersave0_seq[] = {
  49:..\u8g2\csrc/u8x8_d_sed1330.c ****   U8X8_START_TRANSFER(),             	/* enable chip, delay is part of the transfer start */
  50:..\u8g2\csrc/u8x8_d_sed1330.c ****   U8X8_CA(0x040, 0x030),		/* sys init (0x040) with one arg, where 0x030 is a wild guess */
  51:..\u8g2\csrc/u8x8_d_sed1330.c ****   U8X8_CA(0x059, 0x004),               /* send display on command (hex 0x059, see p37 ) */
  52:..\u8g2\csrc/u8x8_d_sed1330.c **** 							/* display cmd has one arg: 01010100 should enable all three blocks, but disable the cursor*
  53:..\u8g2\csrc/u8x8_d_sed1330.c ****   
  54:..\u8g2\csrc/u8x8_d_sed1330.c ****   U8X8_END_TRANSFER(),             	/* disable chip */
  55:..\u8g2\csrc/u8x8_d_sed1330.c ****   U8X8_END()             			/* end of sequence */
  56:..\u8g2\csrc/u8x8_d_sed1330.c **** };
  57:..\u8g2\csrc/u8x8_d_sed1330.c **** 
  58:..\u8g2\csrc/u8x8_d_sed1330.c **** static const uint8_t u8x8_d_sed1330_powersave1_seq[] = {
  59:..\u8g2\csrc/u8x8_d_sed1330.c ****   U8X8_START_TRANSFER(),             	/* enable chip, delay is part of the transfer start */
  60:..\u8g2\csrc/u8x8_d_sed1330.c ****   U8X8_CA(0x058, 0x000),               /* send display off command (hex 0x059, see p37) and turn of
  61:..\u8g2\csrc/u8x8_d_sed1330.c ****   /* maybe send a sleep in cmd */
  62:..\u8g2\csrc/u8x8_d_sed1330.c ****   //U8X8_C(0x053)				/* sleep in: 0x053 */
  63:..\u8g2\csrc/u8x8_d_sed1330.c ****   U8X8_END_TRANSFER(),             	/* disable chip */
  64:..\u8g2\csrc/u8x8_d_sed1330.c ****   U8X8_END()             			/* end of sequence */
  65:..\u8g2\csrc/u8x8_d_sed1330.c **** };
  66:..\u8g2\csrc/u8x8_d_sed1330.c **** 
  67:..\u8g2\csrc/u8x8_d_sed1330.c **** 
  68:..\u8g2\csrc/u8x8_d_sed1330.c **** uint8_t u8x8_d_sed1330_common(u8x8_t *u8x8, uint8_t msg, uint8_t arg_int, void *arg_ptr)
  69:..\u8g2\csrc/u8x8_d_sed1330.c **** {
  28              		.loc 1 69 0
  29              		.cfi_startproc
  30              		@ args = 0, pretend = 0, frame = 8
  31              		@ frame_needed = 0, uses_anonymous_args = 0
  32              	.LVL0:
  33 0000 F0B5     		push	{r4, r5, r6, r7, lr}
  34              		.cfi_def_cfa_offset 20
  35              		.cfi_offset 4, -20
  36              		.cfi_offset 5, -16
  37              		.cfi_offset 6, -12
  38              		.cfi_offset 7, -8
  39              		.cfi_offset 14, -4
  40 0002 83B0     		sub	sp, sp, #12
  41              		.cfi_def_cfa_offset 32
  42 0004 0400     		movs	r4, r0
  43 0006 1D00     		movs	r5, r3
  70:..\u8g2\csrc/u8x8_d_sed1330.c ****   uint8_t c, i;
  71:..\u8g2\csrc/u8x8_d_sed1330.c ****   uint16_t y;
ARM GAS  C:\Users\gjl\AppData\Local\Temp\ccQvIeTb.s 			page 3


  72:..\u8g2\csrc/u8x8_d_sed1330.c ****   uint8_t *ptr;
  73:..\u8g2\csrc/u8x8_d_sed1330.c ****   switch(msg)
  44              		.loc 1 73 0
  45 0008 0B29     		cmp	r1, #11
  46 000a 02D0     		beq	.L3
  47 000c 0F29     		cmp	r1, #15
  48 000e 0DD0     		beq	.L4
  49 0010 44E0     		b	.L9
  50              	.L3:
  74:..\u8g2\csrc/u8x8_d_sed1330.c ****   {
  75:..\u8g2\csrc/u8x8_d_sed1330.c ****     /* U8X8_MSG_DISPLAY_SETUP_MEMORY is handled by the calling function */
  76:..\u8g2\csrc/u8x8_d_sed1330.c ****     /*
  77:..\u8g2\csrc/u8x8_d_sed1330.c ****     case U8X8_MSG_DISPLAY_SETUP_MEMORY:
  78:..\u8g2\csrc/u8x8_d_sed1330.c ****       break;
  79:..\u8g2\csrc/u8x8_d_sed1330.c ****     case U8X8_MSG_DISPLAY_INIT:
  80:..\u8g2\csrc/u8x8_d_sed1330.c ****       break;
  81:..\u8g2\csrc/u8x8_d_sed1330.c ****     */
  82:..\u8g2\csrc/u8x8_d_sed1330.c ****     case U8X8_MSG_DISPLAY_SET_POWER_SAVE:
  83:..\u8g2\csrc/u8x8_d_sed1330.c ****       if ( arg_int == 0 )
  51              		.loc 1 83 0
  52 0012 002A     		cmp	r2, #0
  53 0014 04D1     		bne	.L5
  84:..\u8g2\csrc/u8x8_d_sed1330.c **** 	u8x8_cad_SendSequence(u8x8, u8x8_d_sed1330_powersave0_seq);
  54              		.loc 1 84 0
  55 0016 2349     		ldr	r1, .L10
  56              	.LVL1:
  57 0018 FFF7FEFF 		bl	u8x8_cad_SendSequence
  58              	.LVL2:
  85:..\u8g2\csrc/u8x8_d_sed1330.c ****       else
  86:..\u8g2\csrc/u8x8_d_sed1330.c **** 	u8x8_cad_SendSequence(u8x8, u8x8_d_sed1330_powersave1_seq);
  87:..\u8g2\csrc/u8x8_d_sed1330.c ****       break;
  88:..\u8g2\csrc/u8x8_d_sed1330.c ****     case U8X8_MSG_DISPLAY_DRAW_TILE:
  89:..\u8g2\csrc/u8x8_d_sed1330.c ****       y = (((u8x8_tile_t *)arg_ptr)->y_pos);
  90:..\u8g2\csrc/u8x8_d_sed1330.c ****       y*=8;
  91:..\u8g2\csrc/u8x8_d_sed1330.c ****       y*= u8x8->display_info->tile_width;
  92:..\u8g2\csrc/u8x8_d_sed1330.c ****     
  93:..\u8g2\csrc/u8x8_d_sed1330.c ****       u8x8_cad_StartTransfer(u8x8);
  94:..\u8g2\csrc/u8x8_d_sed1330.c ****     
  95:..\u8g2\csrc/u8x8_d_sed1330.c ****       c = ((u8x8_tile_t *)arg_ptr)->cnt;	/* number of tiles */
  96:..\u8g2\csrc/u8x8_d_sed1330.c ****       ptr = ((u8x8_tile_t *)arg_ptr)->tile_ptr;	/* data ptr to the tiles */
  97:..\u8g2\csrc/u8x8_d_sed1330.c ****       for( i = 0; i < 8; i++ )
  98:..\u8g2\csrc/u8x8_d_sed1330.c ****       {
  99:..\u8g2\csrc/u8x8_d_sed1330.c **** 	u8x8_cad_SendCmd(u8x8, 0x046 );	/* CSRW command*/
 100:..\u8g2\csrc/u8x8_d_sed1330.c **** 	u8x8_cad_SendArg(u8x8, y&255);		/* CSRW low adr byte */
 101:..\u8g2\csrc/u8x8_d_sed1330.c **** 	u8x8_cad_SendArg(u8x8, y>>8);		/* CSRW high adr byte */
 102:..\u8g2\csrc/u8x8_d_sed1330.c **** 	u8x8_cad_SendCmd(u8x8, 0x042 );	/* MWRITE */
 103:..\u8g2\csrc/u8x8_d_sed1330.c **** 	
 104:..\u8g2\csrc/u8x8_d_sed1330.c **** 	u8x8_cad_SendData(u8x8, c, ptr);	/* note: SendData can not handle more than 255 bytes, send one li
 105:..\u8g2\csrc/u8x8_d_sed1330.c **** 	
 106:..\u8g2\csrc/u8x8_d_sed1330.c **** 	ptr += u8x8->display_info->tile_width;
 107:..\u8g2\csrc/u8x8_d_sed1330.c **** 	y += u8x8->display_info->tile_width;
 108:..\u8g2\csrc/u8x8_d_sed1330.c ****       }
 109:..\u8g2\csrc/u8x8_d_sed1330.c **** 
 110:..\u8g2\csrc/u8x8_d_sed1330.c ****       /* sometimes the display switches off... so just sent a display on command */
 111:..\u8g2\csrc/u8x8_d_sed1330.c ****       u8x8_cad_SendCmd(u8x8, 0x059 );	/* display on */
 112:..\u8g2\csrc/u8x8_d_sed1330.c ****       u8x8_cad_SendArg(u8x8, 0x004);	/* arg for display on */
 113:..\u8g2\csrc/u8x8_d_sed1330.c **** 
ARM GAS  C:\Users\gjl\AppData\Local\Temp\ccQvIeTb.s 			page 4


 114:..\u8g2\csrc/u8x8_d_sed1330.c ****       u8x8_cad_EndTransfer(u8x8);
 115:..\u8g2\csrc/u8x8_d_sed1330.c ****       //u8x8->gpio_and_delay_cb(u8x8, U8X8_MSG_DELAY_NANO, 200, NULL);	/* extra dely required */
 116:..\u8g2\csrc/u8x8_d_sed1330.c **** 
 117:..\u8g2\csrc/u8x8_d_sed1330.c ****       break;
 118:..\u8g2\csrc/u8x8_d_sed1330.c ****     default:
 119:..\u8g2\csrc/u8x8_d_sed1330.c ****       return 0;
 120:..\u8g2\csrc/u8x8_d_sed1330.c ****   }
 121:..\u8g2\csrc/u8x8_d_sed1330.c ****   return 1;
  59              		.loc 1 121 0
  60 001c 0120     		movs	r0, #1
  61 001e 3EE0     		b	.L2
  62              	.LVL3:
  63              	.L5:
  86:..\u8g2\csrc/u8x8_d_sed1330.c ****       break;
  64              		.loc 1 86 0
  65 0020 2049     		ldr	r1, .L10
  66              	.LVL4:
  67 0022 0C31     		adds	r1, r1, #12
  68 0024 FFF7FEFF 		bl	u8x8_cad_SendSequence
  69              	.LVL5:
  70              		.loc 1 121 0
  71 0028 0120     		movs	r0, #1
  72 002a 38E0     		b	.L2
  73              	.LVL6:
  74              	.L4:
  89:..\u8g2\csrc/u8x8_d_sed1330.c ****       y*=8;
  75              		.loc 1 89 0
  76 002c 9B79     		ldrb	r3, [r3, #6]
  77              	.LVL7:
  90:..\u8g2\csrc/u8x8_d_sed1330.c ****       y*= u8x8->display_info->tile_width;
  78              		.loc 1 90 0
  79 002e DB00     		lsls	r3, r3, #3
  80              	.LVL8:
  91:..\u8g2\csrc/u8x8_d_sed1330.c ****     
  81              		.loc 1 91 0
  82 0030 0268     		ldr	r2, [r0]
  83              	.LVL9:
  84 0032 127C     		ldrb	r2, [r2, #16]
  85 0034 5343     		muls	r3, r2
  86              	.LVL10:
  87 0036 9FB2     		uxth	r7, r3
  88              	.LVL11:
  93:..\u8g2\csrc/u8x8_d_sed1330.c ****     
  89              		.loc 1 93 0
  90 0038 FFF7FEFF 		bl	u8x8_cad_StartTransfer
  91              	.LVL12:
  95:..\u8g2\csrc/u8x8_d_sed1330.c ****       ptr = ((u8x8_tile_t *)arg_ptr)->tile_ptr;	/* data ptr to the tiles */
  92              		.loc 1 95 0
  93 003c 2B79     		ldrb	r3, [r5, #4]
  94 003e 0193     		str	r3, [sp, #4]
  95              	.LVL13:
  96:..\u8g2\csrc/u8x8_d_sed1330.c ****       for( i = 0; i < 8; i++ )
  96              		.loc 1 96 0
  97 0040 2E68     		ldr	r6, [r5]
  98              	.LVL14:
  97:..\u8g2\csrc/u8x8_d_sed1330.c ****       {
  99              		.loc 1 97 0
ARM GAS  C:\Users\gjl\AppData\Local\Temp\ccQvIeTb.s 			page 5


 100 0042 0025     		movs	r5, #0
 101              	.LVL15:
 102 0044 1BE0     		b	.L6
 103              	.LVL16:
 104              	.L7:
  99:..\u8g2\csrc/u8x8_d_sed1330.c **** 	u8x8_cad_SendArg(u8x8, y&255);		/* CSRW low adr byte */
 105              		.loc 1 99 0 discriminator 3
 106 0046 4621     		movs	r1, #70
 107 0048 2000     		movs	r0, r4
 108 004a FFF7FEFF 		bl	u8x8_cad_SendCmd
 109              	.LVL17:
 100:..\u8g2\csrc/u8x8_d_sed1330.c **** 	u8x8_cad_SendArg(u8x8, y>>8);		/* CSRW high adr byte */
 110              		.loc 1 100 0 discriminator 3
 111 004e F9B2     		uxtb	r1, r7
 112 0050 2000     		movs	r0, r4
 113 0052 FFF7FEFF 		bl	u8x8_cad_SendArg
 114              	.LVL18:
 101:..\u8g2\csrc/u8x8_d_sed1330.c **** 	u8x8_cad_SendCmd(u8x8, 0x042 );	/* MWRITE */
 115              		.loc 1 101 0 discriminator 3
 116 0056 390A     		lsrs	r1, r7, #8
 117 0058 2000     		movs	r0, r4
 118 005a FFF7FEFF 		bl	u8x8_cad_SendArg
 119              	.LVL19:
 102:..\u8g2\csrc/u8x8_d_sed1330.c **** 	
 120              		.loc 1 102 0 discriminator 3
 121 005e 4221     		movs	r1, #66
 122 0060 2000     		movs	r0, r4
 123 0062 FFF7FEFF 		bl	u8x8_cad_SendCmd
 124              	.LVL20:
 104:..\u8g2\csrc/u8x8_d_sed1330.c **** 	
 125              		.loc 1 104 0 discriminator 3
 126 0066 3200     		movs	r2, r6
 127 0068 0199     		ldr	r1, [sp, #4]
 128 006a 2000     		movs	r0, r4
 129 006c FFF7FEFF 		bl	u8x8_cad_SendData
 130              	.LVL21:
 106:..\u8g2\csrc/u8x8_d_sed1330.c **** 	y += u8x8->display_info->tile_width;
 131              		.loc 1 106 0 discriminator 3
 132 0070 2368     		ldr	r3, [r4]
 133 0072 1B7C     		ldrb	r3, [r3, #16]
 134 0074 F618     		adds	r6, r6, r3
 135              	.LVL22:
 107:..\u8g2\csrc/u8x8_d_sed1330.c ****       }
 136              		.loc 1 107 0 discriminator 3
 137 0076 FB18     		adds	r3, r7, r3
 138 0078 9FB2     		uxth	r7, r3
 139              	.LVL23:
  97:..\u8g2\csrc/u8x8_d_sed1330.c ****       {
 140              		.loc 1 97 0 discriminator 3
 141 007a 0135     		adds	r5, r5, #1
 142              	.LVL24:
 143 007c EDB2     		uxtb	r5, r5
 144              	.LVL25:
 145              	.L6:
  97:..\u8g2\csrc/u8x8_d_sed1330.c ****       {
 146              		.loc 1 97 0 is_stmt 0 discriminator 1
 147 007e 072D     		cmp	r5, #7
ARM GAS  C:\Users\gjl\AppData\Local\Temp\ccQvIeTb.s 			page 6


 148 0080 E1D9     		bls	.L7
 111:..\u8g2\csrc/u8x8_d_sed1330.c ****       u8x8_cad_SendArg(u8x8, 0x004);	/* arg for display on */
 149              		.loc 1 111 0 is_stmt 1
 150 0082 5921     		movs	r1, #89
 151 0084 2000     		movs	r0, r4
 152 0086 FFF7FEFF 		bl	u8x8_cad_SendCmd
 153              	.LVL26:
 112:..\u8g2\csrc/u8x8_d_sed1330.c **** 
 154              		.loc 1 112 0
 155 008a 0421     		movs	r1, #4
 156 008c 2000     		movs	r0, r4
 157 008e FFF7FEFF 		bl	u8x8_cad_SendArg
 158              	.LVL27:
 114:..\u8g2\csrc/u8x8_d_sed1330.c ****       //u8x8->gpio_and_delay_cb(u8x8, U8X8_MSG_DELAY_NANO, 200, NULL);	/* extra dely required */
 159              		.loc 1 114 0
 160 0092 2000     		movs	r0, r4
 161 0094 FFF7FEFF 		bl	u8x8_cad_EndTransfer
 162              	.LVL28:
 163              		.loc 1 121 0
 164 0098 0120     		movs	r0, #1
 117:..\u8g2\csrc/u8x8_d_sed1330.c ****     default:
 165              		.loc 1 117 0
 166 009a 00E0     		b	.L2
 167              	.LVL29:
 168              	.L9:
 119:..\u8g2\csrc/u8x8_d_sed1330.c ****   }
 169              		.loc 1 119 0
 170 009c 0020     		movs	r0, #0
 171              	.LVL30:
 172              	.L2:
 122:..\u8g2\csrc/u8x8_d_sed1330.c **** }
 173              		.loc 1 122 0
 174 009e 03B0     		add	sp, sp, #12
 175              		@ sp needed
 176              	.LVL31:
 177 00a0 F0BD     		pop	{r4, r5, r6, r7, pc}
 178              	.L11:
 179 00a2 C046     		.align	2
 180              	.L10:
 181 00a4 00000000 		.word	.LANCHOR0
 182              		.cfi_endproc
 183              	.LFE0:
 184              		.size	u8x8_d_sed1330_common, .-u8x8_d_sed1330_common
 185              		.section	.text.u8x8_d_sed1330_240x128,"ax",%progbits
 186              		.align	2
 187              		.global	u8x8_d_sed1330_240x128
 188              		.code	16
 189              		.thumb_func
 190              		.type	u8x8_d_sed1330_240x128, %function
 191              	u8x8_d_sed1330_240x128:
 192              	.LFB1:
 123:..\u8g2\csrc/u8x8_d_sed1330.c **** 
 124:..\u8g2\csrc/u8x8_d_sed1330.c **** /*=============================================*/
 125:..\u8g2\csrc/u8x8_d_sed1330.c **** 
 126:..\u8g2\csrc/u8x8_d_sed1330.c **** 
 127:..\u8g2\csrc/u8x8_d_sed1330.c **** static const u8x8_display_info_t u8x8_sed1330_240x128_display_info =
 128:..\u8g2\csrc/u8x8_d_sed1330.c **** {
ARM GAS  C:\Users\gjl\AppData\Local\Temp\ccQvIeTb.s 			page 7


 129:..\u8g2\csrc/u8x8_d_sed1330.c ****   /* chip_enable_level = */ 0,
 130:..\u8g2\csrc/u8x8_d_sed1330.c ****   /* chip_disable_level = */ 1,
 131:..\u8g2\csrc/u8x8_d_sed1330.c ****   
 132:..\u8g2\csrc/u8x8_d_sed1330.c ****   /* post_chip_enable_wait_ns = */ 30,	/* G242CX Datasheet p5 */
 133:..\u8g2\csrc/u8x8_d_sed1330.c ****   /* pre_chip_disable_wait_ns = */ 10,	/* G242CX Datasheet p5 */
 134:..\u8g2\csrc/u8x8_d_sed1330.c ****   /* reset_pulse_width_ms = */ 1, 
 135:..\u8g2\csrc/u8x8_d_sed1330.c ****   /* post_reset_wait_ms = */ 6, 
 136:..\u8g2\csrc/u8x8_d_sed1330.c ****   /* sda_setup_time_ns = */ 20,		
 137:..\u8g2\csrc/u8x8_d_sed1330.c ****   /* sck_pulse_width_ns = */  140,	
 138:..\u8g2\csrc/u8x8_d_sed1330.c ****   /* sck_clock_hz = */ 1000000UL,	/* since Arduino 1.6.0, the SPI bus speed in Hz. Should be  10000
 139:..\u8g2\csrc/u8x8_d_sed1330.c ****   /* spi_mode = */ 0,		
 140:..\u8g2\csrc/u8x8_d_sed1330.c ****   /* i2c_bus_clock_100kHz = */ 4,
 141:..\u8g2\csrc/u8x8_d_sed1330.c ****   /* data_setup_time_ns = */ 120,		/* G242CX Datasheet p5 */
 142:..\u8g2\csrc/u8x8_d_sed1330.c ****   /* write_pulse_width_ns = */ 220,		/* G242CX Datasheet p5 */
 143:..\u8g2\csrc/u8x8_d_sed1330.c ****   /* tile_width = */ 0x01e,
 144:..\u8g2\csrc/u8x8_d_sed1330.c ****   /* tile_hight = */ 16,
 145:..\u8g2\csrc/u8x8_d_sed1330.c ****   /* default_x_offset = */ 0,
 146:..\u8g2\csrc/u8x8_d_sed1330.c ****   /* flipmode_x_offset = */ 0,
 147:..\u8g2\csrc/u8x8_d_sed1330.c ****   /* pixel_width = */ 240,
 148:..\u8g2\csrc/u8x8_d_sed1330.c ****   /* pixel_height = */ 128
 149:..\u8g2\csrc/u8x8_d_sed1330.c **** };
 150:..\u8g2\csrc/u8x8_d_sed1330.c **** 
 151:..\u8g2\csrc/u8x8_d_sed1330.c **** /* 240x128 Seiko G242C */
 152:..\u8g2\csrc/u8x8_d_sed1330.c **** static const uint8_t u8x8_d_sed1330_240x128_init_seq[] = {
 153:..\u8g2\csrc/u8x8_d_sed1330.c ****   U8X8_DLY(100),
 154:..\u8g2\csrc/u8x8_d_sed1330.c ****   U8X8_START_TRANSFER(),             	/* enable chip, delay is part of the transfer start */
 155:..\u8g2\csrc/u8x8_d_sed1330.c ****   U8X8_DLY(100),
 156:..\u8g2\csrc/u8x8_d_sed1330.c **** 
 157:..\u8g2\csrc/u8x8_d_sed1330.c ****   /* system init command, see also u8x8_d_sed1330_powersave0_seq */
 158:..\u8g2\csrc/u8x8_d_sed1330.c ****   U8X8_CA(0x040, 0x030),		/* sys init (0x040) with one arg, where 0x030 is a wild guess */
 159:..\u8g2\csrc/u8x8_d_sed1330.c ****   /* system init has total 8 parameters, so 7 more are here */
 160:..\u8g2\csrc/u8x8_d_sed1330.c ****   U8X8_A(0x087),				/* no idea here... WF (topmost bit) is set to one because it is suggested in th
 161:..\u8g2\csrc/u8x8_d_sed1330.c ****   U8X8_A(0x007),				/* FY: height of a char+1, does not matter here (hopefully), because we use gra
 162:..\u8g2\csrc/u8x8_d_sed1330.c ****   U8X8_A(0x01d),				/* C/R: this could be the number of horizontal bytes - 1 (Value confirmed with 
 163:..\u8g2\csrc/u8x8_d_sed1330.c ****   U8X8_A(0x050),					/* TC/R: According to app notes fOSC=6Mhz fFF=70Hz --> TC/R = 74d*/
 164:..\u8g2\csrc/u8x8_d_sed1330.c ****   U8X8_A(0x080),				/* L/F: Lines per frame - 1, probably this is the height of the display - 1 (va
 165:..\u8g2\csrc/u8x8_d_sed1330.c ****   U8X8_A(0x01e),				/* Low byte of the virtual screen size. (Value confirmed with app notes p41)   
 166:..\u8g2\csrc/u8x8_d_sed1330.c ****   U8X8_A(0),					/* High byte of the virtual screen size, see also section 9.1.2 */
 167:..\u8g2\csrc/u8x8_d_sed1330.c **** 	
 168:..\u8g2\csrc/u8x8_d_sed1330.c ****   U8X8_C(0x044),				/* SCROLL */
 169:..\u8g2\csrc/u8x8_d_sed1330.c ****   U8X8_A(0x000),				
 170:..\u8g2\csrc/u8x8_d_sed1330.c ****   U8X8_A(0x000),				
 171:..\u8g2\csrc/u8x8_d_sed1330.c ****   U8X8_A(0x080),
 172:..\u8g2\csrc/u8x8_d_sed1330.c ****   U8X8_A(0x000),
 173:..\u8g2\csrc/u8x8_d_sed1330.c ****   U8X8_A(0x040),
 174:..\u8g2\csrc/u8x8_d_sed1330.c ****   U8X8_A(0x080),
 175:..\u8g2\csrc/u8x8_d_sed1330.c ****   U8X8_A(0x000),
 176:..\u8g2\csrc/u8x8_d_sed1330.c ****   U8X8_A(0x000),
 177:..\u8g2\csrc/u8x8_d_sed1330.c ****   U8X8_A(0x000),
 178:..\u8g2\csrc/u8x8_d_sed1330.c ****   U8X8_A(0x000),
 179:..\u8g2\csrc/u8x8_d_sed1330.c **** 	
 180:..\u8g2\csrc/u8x8_d_sed1330.c ****   U8X8_CA(0x05a, 0),			/* HDOT SCR: Horizontal dotwise scroll... set to 0 */
 181:..\u8g2\csrc/u8x8_d_sed1330.c **** 	
 182:..\u8g2\csrc/u8x8_d_sed1330.c ****   U8X8_CA(0x05b, 0x0c),			/* OVLAY: 2-layer, all graphics, OR between layer 1 and 2 */
 183:..\u8g2\csrc/u8x8_d_sed1330.c **** 
 184:..\u8g2\csrc/u8x8_d_sed1330.c **** 
 185:..\u8g2\csrc/u8x8_d_sed1330.c ****   U8X8_DLY(100),
ARM GAS  C:\Users\gjl\AppData\Local\Temp\ccQvIeTb.s 			page 8


 186:..\u8g2\csrc/u8x8_d_sed1330.c ****   U8X8_END_TRANSFER(),             	/* disable chip */
 187:..\u8g2\csrc/u8x8_d_sed1330.c ****   U8X8_DLY(100),
 188:..\u8g2\csrc/u8x8_d_sed1330.c **** };
 189:..\u8g2\csrc/u8x8_d_sed1330.c **** 
 190:..\u8g2\csrc/u8x8_d_sed1330.c **** /* RA8835 NHD-240128BZ */
 191:..\u8g2\csrc/u8x8_d_sed1330.c **** static const uint8_t u8x8_d_rh8835_nhd_240128_init_seq[] = {
 192:..\u8g2\csrc/u8x8_d_sed1330.c ****   U8X8_DLY(100),
 193:..\u8g2\csrc/u8x8_d_sed1330.c ****   U8X8_START_TRANSFER(),             	/* enable chip, delay is part of the transfer start */
 194:..\u8g2\csrc/u8x8_d_sed1330.c ****   U8X8_DLY(100),
 195:..\u8g2\csrc/u8x8_d_sed1330.c **** 
 196:..\u8g2\csrc/u8x8_d_sed1330.c ****   /* system init command, see also u8x8_d_sed1330_powersave0_seq */
 197:..\u8g2\csrc/u8x8_d_sed1330.c ****   U8X8_CA(0x040, 0x030),		/* sys init (0x040) with one arg, where 0x030 is a wild guess */
 198:..\u8g2\csrc/u8x8_d_sed1330.c ****   /* system init has total 8 parameters, so 7 more are here */
 199:..\u8g2\csrc/u8x8_d_sed1330.c ****   U8X8_A(0x087),				/* no idea here... WF (topmost bit) is set to one because it is suggested in th
 200:..\u8g2\csrc/u8x8_d_sed1330.c ****   U8X8_A(0x007),				/* FY: height of a char+1, does not matter here (hopefully), because we use gra
 201:..\u8g2\csrc/u8x8_d_sed1330.c ****   U8X8_A(0x01d),				/* C/R: this could be the number of horizontal bytes - 1 (Value confirmed with 
 202:..\u8g2\csrc/u8x8_d_sed1330.c ****   U8X8_A(0x050),					/* TC/R: According to app notes fOSC=6Mhz fFF=70Hz --> TC/R = 74d*/
 203:..\u8g2\csrc/u8x8_d_sed1330.c ****   U8X8_A(0x080),				/* L/F: Lines per frame - 1, probably this is the height of the display - 1 (va
 204:..\u8g2\csrc/u8x8_d_sed1330.c ****   U8X8_A(0x01e),				/* Low byte of the virtual screen size. (Value confirmed with app notes p41)   
 205:..\u8g2\csrc/u8x8_d_sed1330.c ****   U8X8_A(0),					/* High byte of the virtual screen size, see also section 9.1.2 */
 206:..\u8g2\csrc/u8x8_d_sed1330.c **** 
 207:..\u8g2\csrc/u8x8_d_sed1330.c ****   U8X8_C(0x044),				/* SCROLL */
 208:..\u8g2\csrc/u8x8_d_sed1330.c ****   U8X8_A(0x000),				
 209:..\u8g2\csrc/u8x8_d_sed1330.c ****   U8X8_A(0x000),				
 210:..\u8g2\csrc/u8x8_d_sed1330.c ****   U8X8_A(0x080),
 211:..\u8g2\csrc/u8x8_d_sed1330.c ****   U8X8_A(0x000),
 212:..\u8g2\csrc/u8x8_d_sed1330.c ****   U8X8_A(0x040),
 213:..\u8g2\csrc/u8x8_d_sed1330.c ****   U8X8_A(0x080),
 214:..\u8g2\csrc/u8x8_d_sed1330.c ****   U8X8_A(0x000),
 215:..\u8g2\csrc/u8x8_d_sed1330.c ****   U8X8_A(0x000),
 216:..\u8g2\csrc/u8x8_d_sed1330.c ****   U8X8_A(0x000),
 217:..\u8g2\csrc/u8x8_d_sed1330.c ****   U8X8_A(0x000),
 218:..\u8g2\csrc/u8x8_d_sed1330.c **** 	
 219:..\u8g2\csrc/u8x8_d_sed1330.c ****   //U8X8_CA(0x05a, 0),			/* HDOT SCR: Horizontal dotwise scroll... set to 0 */
 220:..\u8g2\csrc/u8x8_d_sed1330.c **** 	
 221:..\u8g2\csrc/u8x8_d_sed1330.c ****   U8X8_CA(0x05b, 0x0c),			/* OVLAY: 2-layer, all graphics, OR between layer 1 and 2 */
 222:..\u8g2\csrc/u8x8_d_sed1330.c **** 
 223:..\u8g2\csrc/u8x8_d_sed1330.c ****   //U8X8_CA(0x059, 0x04),               /* send display on command (hex 0x059, see p37 ) */
 224:..\u8g2\csrc/u8x8_d_sed1330.c ****   
 225:..\u8g2\csrc/u8x8_d_sed1330.c ****   U8X8_DLY(100),
 226:..\u8g2\csrc/u8x8_d_sed1330.c ****   U8X8_END_TRANSFER(),             	/* disable chip */
 227:..\u8g2\csrc/u8x8_d_sed1330.c ****   U8X8_DLY(100),
 228:..\u8g2\csrc/u8x8_d_sed1330.c ****   
 229:..\u8g2\csrc/u8x8_d_sed1330.c **** };
 230:..\u8g2\csrc/u8x8_d_sed1330.c **** 
 231:..\u8g2\csrc/u8x8_d_sed1330.c **** 
 232:..\u8g2\csrc/u8x8_d_sed1330.c **** uint8_t u8x8_d_sed1330_240x128(u8x8_t *u8x8, uint8_t msg, uint8_t arg_int, void *arg_ptr)
 233:..\u8g2\csrc/u8x8_d_sed1330.c **** {
 193              		.loc 1 233 0
 194              		.cfi_startproc
 195              		@ args = 0, pretend = 0, frame = 0
 196              		@ frame_needed = 0, uses_anonymous_args = 0
 197              	.LVL32:
 198 0000 10B5     		push	{r4, lr}
 199              		.cfi_def_cfa_offset 8
 200              		.cfi_offset 4, -8
 201              		.cfi_offset 14, -4
ARM GAS  C:\Users\gjl\AppData\Local\Temp\ccQvIeTb.s 			page 9


 202 0002 0400     		movs	r4, r0
 234:..\u8g2\csrc/u8x8_d_sed1330.c ****   switch(msg)
 203              		.loc 1 234 0
 204 0004 0929     		cmp	r1, #9
 205 0006 02D0     		beq	.L14
 206 0008 0A29     		cmp	r1, #10
 207 000a 06D0     		beq	.L15
 208 000c 0EE0     		b	.L17
 209              	.L14:
 235:..\u8g2\csrc/u8x8_d_sed1330.c ****   {
 236:..\u8g2\csrc/u8x8_d_sed1330.c ****     case U8X8_MSG_DISPLAY_SETUP_MEMORY:
 237:..\u8g2\csrc/u8x8_d_sed1330.c ****       u8x8_d_helper_display_setup_memory(u8x8, &u8x8_sed1330_240x128_display_info);
 210              		.loc 1 237 0
 211 000e 0949     		ldr	r1, .L18
 212              	.LVL33:
 213 0010 1431     		adds	r1, r1, #20
 214 0012 FFF7FEFF 		bl	u8x8_d_helper_display_setup_memory
 215              	.LVL34:
 238:..\u8g2\csrc/u8x8_d_sed1330.c ****       break;
 239:..\u8g2\csrc/u8x8_d_sed1330.c ****     case U8X8_MSG_DISPLAY_INIT:
 240:..\u8g2\csrc/u8x8_d_sed1330.c ****       u8x8_d_helper_display_init(u8x8);
 241:..\u8g2\csrc/u8x8_d_sed1330.c ****       u8x8_cad_SendSequence(u8x8, u8x8_d_sed1330_240x128_init_seq);
 242:..\u8g2\csrc/u8x8_d_sed1330.c ****       break;
 243:..\u8g2\csrc/u8x8_d_sed1330.c ****     default:
 244:..\u8g2\csrc/u8x8_d_sed1330.c ****       return u8x8_d_sed1330_common(u8x8, msg, arg_int, arg_ptr);
 245:..\u8g2\csrc/u8x8_d_sed1330.c ****   }
 246:..\u8g2\csrc/u8x8_d_sed1330.c ****   return 1;
 216              		.loc 1 246 0
 217 0016 0120     		movs	r0, #1
 238:..\u8g2\csrc/u8x8_d_sed1330.c ****       break;
 218              		.loc 1 238 0
 219 0018 0AE0     		b	.L16
 220              	.LVL35:
 221              	.L15:
 240:..\u8g2\csrc/u8x8_d_sed1330.c ****       u8x8_cad_SendSequence(u8x8, u8x8_d_sed1330_240x128_init_seq);
 222              		.loc 1 240 0
 223 001a FFF7FEFF 		bl	u8x8_d_helper_display_init
 224              	.LVL36:
 241:..\u8g2\csrc/u8x8_d_sed1330.c ****       break;
 225              		.loc 1 241 0
 226 001e 0549     		ldr	r1, .L18
 227 0020 2C31     		adds	r1, r1, #44
 228 0022 2000     		movs	r0, r4
 229 0024 FFF7FEFF 		bl	u8x8_cad_SendSequence
 230              	.LVL37:
 231              		.loc 1 246 0
 232 0028 0120     		movs	r0, #1
 242:..\u8g2\csrc/u8x8_d_sed1330.c ****     default:
 233              		.loc 1 242 0
 234 002a 01E0     		b	.L16
 235              	.LVL38:
 236              	.L17:
 244:..\u8g2\csrc/u8x8_d_sed1330.c ****   }
 237              		.loc 1 244 0
 238 002c FFF7FEFF 		bl	u8x8_d_sed1330_common
 239              	.LVL39:
 240              	.L16:
ARM GAS  C:\Users\gjl\AppData\Local\Temp\ccQvIeTb.s 			page 10


 247:..\u8g2\csrc/u8x8_d_sed1330.c **** }
 241              		.loc 1 247 0
 242              		@ sp needed
 243              	.LVL40:
 244 0030 10BD     		pop	{r4, pc}
 245              	.L19:
 246 0032 C046     		.align	2
 247              	.L18:
 248 0034 00000000 		.word	.LANCHOR0
 249              		.cfi_endproc
 250              	.LFE1:
 251              		.size	u8x8_d_sed1330_240x128, .-u8x8_d_sed1330_240x128
 252              		.section	.text.u8x8_d_ra8835_nhd_240x128,"ax",%progbits
 253              		.align	2
 254              		.global	u8x8_d_ra8835_nhd_240x128
 255              		.code	16
 256              		.thumb_func
 257              		.type	u8x8_d_ra8835_nhd_240x128, %function
 258              	u8x8_d_ra8835_nhd_240x128:
 259              	.LFB2:
 248:..\u8g2\csrc/u8x8_d_sed1330.c **** 
 249:..\u8g2\csrc/u8x8_d_sed1330.c **** 
 250:..\u8g2\csrc/u8x8_d_sed1330.c **** uint8_t u8x8_d_ra8835_nhd_240x128(u8x8_t *u8x8, uint8_t msg, uint8_t arg_int, void *arg_ptr)
 251:..\u8g2\csrc/u8x8_d_sed1330.c **** {
 260              		.loc 1 251 0
 261              		.cfi_startproc
 262              		@ args = 0, pretend = 0, frame = 0
 263              		@ frame_needed = 0, uses_anonymous_args = 0
 264              	.LVL41:
 265 0000 10B5     		push	{r4, lr}
 266              		.cfi_def_cfa_offset 8
 267              		.cfi_offset 4, -8
 268              		.cfi_offset 14, -4
 269 0002 0400     		movs	r4, r0
 252:..\u8g2\csrc/u8x8_d_sed1330.c ****   switch(msg)
 270              		.loc 1 252 0
 271 0004 0929     		cmp	r1, #9
 272 0006 02D0     		beq	.L22
 273 0008 0A29     		cmp	r1, #10
 274 000a 06D0     		beq	.L23
 275 000c 0EE0     		b	.L25
 276              	.L22:
 253:..\u8g2\csrc/u8x8_d_sed1330.c ****   {
 254:..\u8g2\csrc/u8x8_d_sed1330.c ****     case U8X8_MSG_DISPLAY_SETUP_MEMORY:
 255:..\u8g2\csrc/u8x8_d_sed1330.c ****       u8x8_d_helper_display_setup_memory(u8x8, &u8x8_sed1330_240x128_display_info);
 277              		.loc 1 255 0
 278 000e 0949     		ldr	r1, .L26
 279              	.LVL42:
 280 0010 1431     		adds	r1, r1, #20
 281 0012 FFF7FEFF 		bl	u8x8_d_helper_display_setup_memory
 282              	.LVL43:
 256:..\u8g2\csrc/u8x8_d_sed1330.c ****       break;
 257:..\u8g2\csrc/u8x8_d_sed1330.c ****     case U8X8_MSG_DISPLAY_INIT:
 258:..\u8g2\csrc/u8x8_d_sed1330.c ****       u8x8_d_helper_display_init(u8x8);
 259:..\u8g2\csrc/u8x8_d_sed1330.c ****       u8x8_cad_SendSequence(u8x8, u8x8_d_rh8835_nhd_240128_init_seq);
 260:..\u8g2\csrc/u8x8_d_sed1330.c ****       break;
 261:..\u8g2\csrc/u8x8_d_sed1330.c ****     default:
ARM GAS  C:\Users\gjl\AppData\Local\Temp\ccQvIeTb.s 			page 11


 262:..\u8g2\csrc/u8x8_d_sed1330.c ****       return u8x8_d_sed1330_common(u8x8, msg, arg_int, arg_ptr);
 263:..\u8g2\csrc/u8x8_d_sed1330.c ****   }
 264:..\u8g2\csrc/u8x8_d_sed1330.c ****   return 1;
 283              		.loc 1 264 0
 284 0016 0120     		movs	r0, #1
 256:..\u8g2\csrc/u8x8_d_sed1330.c ****       break;
 285              		.loc 1 256 0
 286 0018 0AE0     		b	.L24
 287              	.LVL44:
 288              	.L23:
 258:..\u8g2\csrc/u8x8_d_sed1330.c ****       u8x8_cad_SendSequence(u8x8, u8x8_d_rh8835_nhd_240128_init_seq);
 289              		.loc 1 258 0
 290 001a FFF7FEFF 		bl	u8x8_d_helper_display_init
 291              	.LVL45:
 259:..\u8g2\csrc/u8x8_d_sed1330.c ****       break;
 292              		.loc 1 259 0
 293 001e 0549     		ldr	r1, .L26
 294 0020 6831     		adds	r1, r1, #104
 295 0022 2000     		movs	r0, r4
 296 0024 FFF7FEFF 		bl	u8x8_cad_SendSequence
 297              	.LVL46:
 298              		.loc 1 264 0
 299 0028 0120     		movs	r0, #1
 260:..\u8g2\csrc/u8x8_d_sed1330.c ****     default:
 300              		.loc 1 260 0
 301 002a 01E0     		b	.L24
 302              	.LVL47:
 303              	.L25:
 262:..\u8g2\csrc/u8x8_d_sed1330.c ****   }
 304              		.loc 1 262 0
 305 002c FFF7FEFF 		bl	u8x8_d_sed1330_common
 306              	.LVL48:
 307              	.L24:
 265:..\u8g2\csrc/u8x8_d_sed1330.c **** }
 308              		.loc 1 265 0
 309              		@ sp needed
 310              	.LVL49:
 311 0030 10BD     		pop	{r4, pc}
 312              	.L27:
 313 0032 C046     		.align	2
 314              	.L26:
 315 0034 00000000 		.word	.LANCHOR0
 316              		.cfi_endproc
 317              	.LFE2:
 318              		.size	u8x8_d_ra8835_nhd_240x128, .-u8x8_d_ra8835_nhd_240x128
 319              		.section	.rodata
 320              		.align	2
 321              		.set	.LANCHOR0,. + 0
 322              		.type	u8x8_d_sed1330_powersave0_seq, %object
 323              		.size	u8x8_d_sed1330_powersave0_seq, 11
 324              	u8x8_d_sed1330_powersave0_seq:
 325 0000 18       		.byte	24
 326 0001 15       		.byte	21
 327 0002 40       		.byte	64
 328 0003 16       		.byte	22
 329 0004 30       		.byte	48
 330 0005 15       		.byte	21
ARM GAS  C:\Users\gjl\AppData\Local\Temp\ccQvIeTb.s 			page 12


 331 0006 59       		.byte	89
 332 0007 16       		.byte	22
 333 0008 04       		.byte	4
 334 0009 19       		.byte	25
 335 000a FF       		.byte	-1
 336 000b 00       		.space	1
 337              		.type	u8x8_d_sed1330_powersave1_seq, %object
 338              		.size	u8x8_d_sed1330_powersave1_seq, 7
 339              	u8x8_d_sed1330_powersave1_seq:
 340 000c 18       		.byte	24
 341 000d 15       		.byte	21
 342 000e 58       		.byte	88
 343 000f 16       		.byte	22
 344 0010 00       		.byte	0
 345 0011 19       		.byte	25
 346 0012 FF       		.byte	-1
 347 0013 00       		.space	1
 348              		.type	u8x8_sed1330_240x128_display_info, %object
 349              		.size	u8x8_sed1330_240x128_display_info, 24
 350              	u8x8_sed1330_240x128_display_info:
 351 0014 00       		.byte	0
 352 0015 01       		.byte	1
 353 0016 1E       		.byte	30
 354 0017 0A       		.byte	10
 355 0018 01       		.byte	1
 356 0019 06       		.byte	6
 357 001a 14       		.byte	20
 358 001b 8C       		.byte	-116
 359 001c 40420F00 		.word	1000000
 360 0020 00       		.byte	0
 361 0021 04       		.byte	4
 362 0022 78       		.byte	120
 363 0023 DC       		.byte	-36
 364 0024 1E       		.byte	30
 365 0025 10       		.byte	16
 366 0026 00       		.byte	0
 367 0027 00       		.byte	0
 368 0028 F000     		.short	240
 369 002a 8000     		.short	128
 370              		.type	u8x8_d_sed1330_240x128_init_seq, %object
 371              		.size	u8x8_d_sed1330_240x128_init_seq, 58
 372              	u8x8_d_sed1330_240x128_init_seq:
 373 002c FE       		.byte	-2
 374 002d 64       		.byte	100
 375 002e 18       		.byte	24
 376 002f FE       		.byte	-2
 377 0030 64       		.byte	100
 378 0031 15       		.byte	21
 379 0032 40       		.byte	64
 380 0033 16       		.byte	22
 381 0034 30       		.byte	48
 382 0035 16       		.byte	22
 383 0036 87       		.byte	-121
 384 0037 16       		.byte	22
 385 0038 07       		.byte	7
 386 0039 16       		.byte	22
 387 003a 1D       		.byte	29
ARM GAS  C:\Users\gjl\AppData\Local\Temp\ccQvIeTb.s 			page 13


 388 003b 16       		.byte	22
 389 003c 50       		.byte	80
 390 003d 16       		.byte	22
 391 003e 80       		.byte	-128
 392 003f 16       		.byte	22
 393 0040 1E       		.byte	30
 394 0041 16       		.byte	22
 395 0042 00       		.byte	0
 396 0043 15       		.byte	21
 397 0044 44       		.byte	68
 398 0045 16       		.byte	22
 399 0046 00       		.byte	0
 400 0047 16       		.byte	22
 401 0048 00       		.byte	0
 402 0049 16       		.byte	22
 403 004a 80       		.byte	-128
 404 004b 16       		.byte	22
 405 004c 00       		.byte	0
 406 004d 16       		.byte	22
 407 004e 40       		.byte	64
 408 004f 16       		.byte	22
 409 0050 80       		.byte	-128
 410 0051 16       		.byte	22
 411 0052 00       		.byte	0
 412 0053 16       		.byte	22
 413 0054 00       		.byte	0
 414 0055 16       		.byte	22
 415 0056 00       		.byte	0
 416 0057 16       		.byte	22
 417 0058 00       		.byte	0
 418 0059 15       		.byte	21
 419 005a 5A       		.byte	90
 420 005b 16       		.byte	22
 421 005c 00       		.byte	0
 422 005d 15       		.byte	21
 423 005e 5B       		.byte	91
 424 005f 16       		.byte	22
 425 0060 0C       		.byte	12
 426 0061 FE       		.byte	-2
 427 0062 64       		.byte	100
 428 0063 19       		.byte	25
 429 0064 FE       		.byte	-2
 430 0065 64       		.byte	100
 431 0066 0000     		.space	2
 432              		.type	u8x8_d_rh8835_nhd_240128_init_seq, %object
 433              		.size	u8x8_d_rh8835_nhd_240128_init_seq, 54
 434              	u8x8_d_rh8835_nhd_240128_init_seq:
 435 0068 FE       		.byte	-2
 436 0069 64       		.byte	100
 437 006a 18       		.byte	24
 438 006b FE       		.byte	-2
 439 006c 64       		.byte	100
 440 006d 15       		.byte	21
 441 006e 40       		.byte	64
 442 006f 16       		.byte	22
 443 0070 30       		.byte	48
 444 0071 16       		.byte	22
ARM GAS  C:\Users\gjl\AppData\Local\Temp\ccQvIeTb.s 			page 14


 445 0072 87       		.byte	-121
 446 0073 16       		.byte	22
 447 0074 07       		.byte	7
 448 0075 16       		.byte	22
 449 0076 1D       		.byte	29
 450 0077 16       		.byte	22
 451 0078 50       		.byte	80
 452 0079 16       		.byte	22
 453 007a 80       		.byte	-128
 454 007b 16       		.byte	22
 455 007c 1E       		.byte	30
 456 007d 16       		.byte	22
 457 007e 00       		.byte	0
 458 007f 15       		.byte	21
 459 0080 44       		.byte	68
 460 0081 16       		.byte	22
 461 0082 00       		.byte	0
 462 0083 16       		.byte	22
 463 0084 00       		.byte	0
 464 0085 16       		.byte	22
 465 0086 80       		.byte	-128
 466 0087 16       		.byte	22
 467 0088 00       		.byte	0
 468 0089 16       		.byte	22
 469 008a 40       		.byte	64
 470 008b 16       		.byte	22
 471 008c 80       		.byte	-128
 472 008d 16       		.byte	22
 473 008e 00       		.byte	0
 474 008f 16       		.byte	22
 475 0090 00       		.byte	0
 476 0091 16       		.byte	22
 477 0092 00       		.byte	0
 478 0093 16       		.byte	22
 479 0094 00       		.byte	0
 480 0095 15       		.byte	21
 481 0096 5B       		.byte	91
 482 0097 16       		.byte	22
 483 0098 0C       		.byte	12
 484 0099 FE       		.byte	-2
 485 009a 64       		.byte	100
 486 009b 19       		.byte	25
 487 009c FE       		.byte	-2
 488 009d 64       		.byte	100
 489              		.text
 490              	.Letext0:
 491              		.file 2 "c:\\program files (x86)\\cypress\\psoc creator\\4.1\\psoc creator\\import\\gnu\\arm\\5.4.
 492              		.file 3 "c:\\program files (x86)\\cypress\\psoc creator\\4.1\\psoc creator\\import\\gnu\\arm\\5.4.
 493              		.file 4 "..\\u8g2\\csrc\\u8x8.h"