ARM GAS  C:\Users\arh\AppData\Local\Temp\cc1cgAkh.s 			page 1


   1              		.syntax unified
   2              		.cpu cortex-m0
   3              		.fpu softvfp
   4              		.eabi_attribute 20, 1
   5              		.eabi_attribute 21, 1
   6              		.eabi_attribute 23, 3
   7              		.eabi_attribute 24, 1
   8              		.eabi_attribute 25, 1
   9              		.eabi_attribute 26, 1
  10              		.eabi_attribute 30, 1
  11              		.eabi_attribute 34, 0
  12              		.eabi_attribute 18, 4
  13              		.thumb
  14              		.syntax unified
  15              		.file	"u8x8_d_st7920.c"
  16              		.text
  17              	.Ltext0:
  18              		.cfi_sections	.debug_frame
  19              		.section	.text.u8x8_d_st7920_common,"ax",%progbits
  20              		.align	2
  21              		.global	u8x8_d_st7920_common
  22              		.code	16
  23              		.thumb_func
  24              		.type	u8x8_d_st7920_common, %function
  25              	u8x8_d_st7920_common:
  26              	.LFB0:
  27              		.file 1 "..\\..\\u8g2\\csrc\\u8x8_d_st7920.c"
   1:..\..\u8g2\csrc/u8x8_d_st7920.c **** /*
   2:..\..\u8g2\csrc/u8x8_d_st7920.c **** 
   3:..\..\u8g2\csrc/u8x8_d_st7920.c ****   u8x8_d_st7920.c
   4:..\..\u8g2\csrc/u8x8_d_st7920.c ****   
   5:..\..\u8g2\csrc/u8x8_d_st7920.c ****   Universal 8bit Graphics Library (https://github.com/olikraus/u8g2/)
   6:..\..\u8g2\csrc/u8x8_d_st7920.c **** 
   7:..\..\u8g2\csrc/u8x8_d_st7920.c ****   Copyright (c) 2016, olikraus@gmail.com
   8:..\..\u8g2\csrc/u8x8_d_st7920.c ****   All rights reserved.
   9:..\..\u8g2\csrc/u8x8_d_st7920.c **** 
  10:..\..\u8g2\csrc/u8x8_d_st7920.c ****   Redistribution and use in source and binary forms, with or without modification, 
  11:..\..\u8g2\csrc/u8x8_d_st7920.c ****   are permitted provided that the following conditions are met:
  12:..\..\u8g2\csrc/u8x8_d_st7920.c **** 
  13:..\..\u8g2\csrc/u8x8_d_st7920.c ****   * Redistributions of source code must retain the above copyright notice, this list 
  14:..\..\u8g2\csrc/u8x8_d_st7920.c ****     of conditions and the following disclaimer.
  15:..\..\u8g2\csrc/u8x8_d_st7920.c ****     
  16:..\..\u8g2\csrc/u8x8_d_st7920.c ****   * Redistributions in binary form must reproduce the above copyright notice, this 
  17:..\..\u8g2\csrc/u8x8_d_st7920.c ****     list of conditions and the following disclaimer in the documentation and/or other 
  18:..\..\u8g2\csrc/u8x8_d_st7920.c ****     materials provided with the distribution.
  19:..\..\u8g2\csrc/u8x8_d_st7920.c **** 
  20:..\..\u8g2\csrc/u8x8_d_st7920.c ****   THIS SOFTWARE IS PROVIDED BY THE COPYRIGHT HOLDERS AND 
  21:..\..\u8g2\csrc/u8x8_d_st7920.c ****   CONTRIBUTORS "AS IS" AND ANY EXPRESS OR IMPLIED WARRANTIES, 
  22:..\..\u8g2\csrc/u8x8_d_st7920.c ****   INCLUDING, BUT NOT LIMITED TO, THE IMPLIED WARRANTIES OF 
  23:..\..\u8g2\csrc/u8x8_d_st7920.c ****   MERCHANTABILITY AND FITNESS FOR A PARTICULAR PURPOSE ARE 
  24:..\..\u8g2\csrc/u8x8_d_st7920.c ****   DISCLAIMED. IN NO EVENT SHALL THE COPYRIGHT HOLDER OR 
  25:..\..\u8g2\csrc/u8x8_d_st7920.c ****   CONTRIBUTORS BE LIABLE FOR ANY DIRECT, INDIRECT, INCIDENTAL, 
  26:..\..\u8g2\csrc/u8x8_d_st7920.c ****   SPECIAL, EXEMPLARY, OR CONSEQUENTIAL DAMAGES (INCLUDING, BUT 
  27:..\..\u8g2\csrc/u8x8_d_st7920.c ****   NOT LIMITED TO, PROCUREMENT OF SUBSTITUTE GOODS OR SERVICES; 
  28:..\..\u8g2\csrc/u8x8_d_st7920.c ****   LOSS OF USE, DATA, OR PROFITS; OR BUSINESS INTERRUPTION) HOWEVER 
  29:..\..\u8g2\csrc/u8x8_d_st7920.c ****   CAUSED AND ON ANY THEORY OF LIABILITY, WHETHER IN CONTRACT, 
  30:..\..\u8g2\csrc/u8x8_d_st7920.c ****   STRICT LIABILITY, OR TORT (INCLUDING NEGLIGENCE OR OTHERWISE) 
ARM GAS  C:\Users\arh\AppData\Local\Temp\cc1cgAkh.s 			page 2


  31:..\..\u8g2\csrc/u8x8_d_st7920.c ****   ARISING IN ANY WAY OUT OF THE USE OF THIS SOFTWARE, EVEN IF 
  32:..\..\u8g2\csrc/u8x8_d_st7920.c ****   ADVISED OF THE POSSIBILITY OF SUCH DAMAGE.  
  33:..\..\u8g2\csrc/u8x8_d_st7920.c **** 
  34:..\..\u8g2\csrc/u8x8_d_st7920.c **** 
  35:..\..\u8g2\csrc/u8x8_d_st7920.c ****   The ST7920 controller does not support hardware graphics flip.
  36:..\..\u8g2\csrc/u8x8_d_st7920.c ****   Contrast adjustment is done by an external resistor --> no support for contrast adjustment
  37:..\..\u8g2\csrc/u8x8_d_st7920.c ****   
  38:..\..\u8g2\csrc/u8x8_d_st7920.c ****   
  39:..\..\u8g2\csrc/u8x8_d_st7920.c **** */
  40:..\..\u8g2\csrc/u8x8_d_st7920.c **** #include "u8x8.h"
  41:..\..\u8g2\csrc/u8x8_d_st7920.c **** 
  42:..\..\u8g2\csrc/u8x8_d_st7920.c **** 
  43:..\..\u8g2\csrc/u8x8_d_st7920.c **** 
  44:..\..\u8g2\csrc/u8x8_d_st7920.c **** static const uint8_t u8x8_d_st7920_init_seq[] = {
  45:..\..\u8g2\csrc/u8x8_d_st7920.c ****     
  46:..\..\u8g2\csrc/u8x8_d_st7920.c ****   U8X8_DLY(100),
  47:..\..\u8g2\csrc/u8x8_d_st7920.c ****   U8X8_START_TRANSFER(),             	/* enable chip, delay is part of the transfer start */
  48:..\..\u8g2\csrc/u8x8_d_st7920.c ****   U8X8_DLY(10),
  49:..\..\u8g2\csrc/u8x8_d_st7920.c ****   
  50:..\..\u8g2\csrc/u8x8_d_st7920.c ****   U8X8_C(0x038),            			/* 8 Bit interface (DL=1), basic instruction set (RE=0) */
  51:..\..\u8g2\csrc/u8x8_d_st7920.c ****   U8X8_C(0x008),		                /* display on, cursor & blink off; 0x08: all off */
  52:..\..\u8g2\csrc/u8x8_d_st7920.c ****   U8X8_C(0x006),		                /* Entry mode: Cursor move to right ,DDRAM address counter (AC) p
  53:..\..\u8g2\csrc/u8x8_d_st7920.c ****   U8X8_C(0x002),		                /* disable scroll, enable CGRAM adress  */
  54:..\..\u8g2\csrc/u8x8_d_st7920.c ****   U8X8_C(0x001),		                /* clear RAM, needs 1.6 ms */
  55:..\..\u8g2\csrc/u8x8_d_st7920.c ****   U8X8_DLY(4),					/* delay 2ms */
  56:..\..\u8g2\csrc/u8x8_d_st7920.c **** 
  57:..\..\u8g2\csrc/u8x8_d_st7920.c ****   
  58:..\..\u8g2\csrc/u8x8_d_st7920.c ****   U8X8_END_TRANSFER(),             	/* disable chip */
  59:..\..\u8g2\csrc/u8x8_d_st7920.c ****   U8X8_END()             			/* end of sequence */
  60:..\..\u8g2\csrc/u8x8_d_st7920.c **** };
  61:..\..\u8g2\csrc/u8x8_d_st7920.c **** 
  62:..\..\u8g2\csrc/u8x8_d_st7920.c **** static const uint8_t u8x8_d_st7920_powersave0_seq[] = {
  63:..\..\u8g2\csrc/u8x8_d_st7920.c ****   U8X8_START_TRANSFER(),             	/* enable chip, delay is part of the transfer start */
  64:..\..\u8g2\csrc/u8x8_d_st7920.c ****   U8X8_C(0x038),            			/* 8 Bit interface (DL=1), basic instruction set (RE=0) */
  65:..\..\u8g2\csrc/u8x8_d_st7920.c ****   U8X8_C(0x00c),		                /* display on, cursor & blink off */
  66:..\..\u8g2\csrc/u8x8_d_st7920.c ****   U8X8_END_TRANSFER(),             	/* disable chip */
  67:..\..\u8g2\csrc/u8x8_d_st7920.c ****   U8X8_END()             			/* end of sequence */
  68:..\..\u8g2\csrc/u8x8_d_st7920.c **** };
  69:..\..\u8g2\csrc/u8x8_d_st7920.c **** 
  70:..\..\u8g2\csrc/u8x8_d_st7920.c **** static const uint8_t u8x8_d_st7920_powersave1_seq[] = {
  71:..\..\u8g2\csrc/u8x8_d_st7920.c ****   U8X8_START_TRANSFER(),             	/* enable chip, delay is part of the transfer start */
  72:..\..\u8g2\csrc/u8x8_d_st7920.c ****   U8X8_C(0x038),            			/* 8 Bit interface (DL=1), basic instruction set (RE=0) */
  73:..\..\u8g2\csrc/u8x8_d_st7920.c ****   U8X8_C(0x008),		                /* display off */
  74:..\..\u8g2\csrc/u8x8_d_st7920.c ****   U8X8_END_TRANSFER(),             	/* disable chip */
  75:..\..\u8g2\csrc/u8x8_d_st7920.c ****   U8X8_END()             			/* end of sequence */
  76:..\..\u8g2\csrc/u8x8_d_st7920.c **** };
  77:..\..\u8g2\csrc/u8x8_d_st7920.c **** 
  78:..\..\u8g2\csrc/u8x8_d_st7920.c **** 
  79:..\..\u8g2\csrc/u8x8_d_st7920.c **** uint8_t u8x8_d_st7920_common(u8x8_t *u8x8, uint8_t msg, uint8_t arg_int, void *arg_ptr)
  80:..\..\u8g2\csrc/u8x8_d_st7920.c **** {
  28              		.loc 1 80 0
  29              		.cfi_startproc
  30              		@ args = 0, pretend = 0, frame = 8
  31              		@ frame_needed = 0, uses_anonymous_args = 0
  32              	.LVL0:
  33 0000 F0B5     		push	{r4, r5, r6, r7, lr}
  34              		.cfi_def_cfa_offset 20
ARM GAS  C:\Users\arh\AppData\Local\Temp\cc1cgAkh.s 			page 3


  35              		.cfi_offset 4, -20
  36              		.cfi_offset 5, -16
  37              		.cfi_offset 6, -12
  38              		.cfi_offset 7, -8
  39              		.cfi_offset 14, -4
  40 0002 5746     		mov	r7, r10
  41 0004 4646     		mov	r6, r8
  42 0006 C0B4     		push	{r6, r7}
  43              		.cfi_def_cfa_offset 28
  44              		.cfi_offset 8, -28
  45              		.cfi_offset 10, -24
  46 0008 83B0     		sub	sp, sp, #12
  47              		.cfi_def_cfa_offset 40
  48 000a 0190     		str	r0, [sp, #4]
  49 000c 1E00     		movs	r6, r3
  81:..\..\u8g2\csrc/u8x8_d_st7920.c ****   uint8_t x, y, c, i;
  82:..\..\u8g2\csrc/u8x8_d_st7920.c ****   uint8_t *ptr;
  83:..\..\u8g2\csrc/u8x8_d_st7920.c ****   switch(msg)
  50              		.loc 1 83 0
  51 000e 0B29     		cmp	r1, #11
  52 0010 0CD0     		beq	.L3
  53 0012 0F29     		cmp	r1, #15
  54 0014 1AD0     		beq	.L4
  55 0016 0A29     		cmp	r1, #10
  56 0018 56D1     		bne	.L11
  84:..\..\u8g2\csrc/u8x8_d_st7920.c ****   {
  85:..\..\u8g2\csrc/u8x8_d_st7920.c ****     /* U8X8_MSG_DISPLAY_SETUP_MEMORY is handled by the calling function */
  86:..\..\u8g2\csrc/u8x8_d_st7920.c ****     /*
  87:..\..\u8g2\csrc/u8x8_d_st7920.c ****     case U8X8_MSG_DISPLAY_SETUP_MEMORY:
  88:..\..\u8g2\csrc/u8x8_d_st7920.c ****       break;
  89:..\..\u8g2\csrc/u8x8_d_st7920.c ****     */
  90:..\..\u8g2\csrc/u8x8_d_st7920.c ****     case U8X8_MSG_DISPLAY_INIT:
  91:..\..\u8g2\csrc/u8x8_d_st7920.c ****       u8x8_d_helper_display_init(u8x8);
  57              		.loc 1 91 0
  58 001a 0400     		movs	r4, r0
  59 001c FFF7FEFF 		bl	u8x8_d_helper_display_init
  60              	.LVL1:
  92:..\..\u8g2\csrc/u8x8_d_st7920.c ****       u8x8_cad_SendSequence(u8x8, u8x8_d_st7920_init_seq);
  61              		.loc 1 92 0
  62 0020 2C49     		ldr	r1, .L12
  63 0022 2000     		movs	r0, r4
  64 0024 FFF7FEFF 		bl	u8x8_cad_SendSequence
  65              	.LVL2:
  93:..\..\u8g2\csrc/u8x8_d_st7920.c ****       break;
  94:..\..\u8g2\csrc/u8x8_d_st7920.c ****     case U8X8_MSG_DISPLAY_SET_POWER_SAVE:
  95:..\..\u8g2\csrc/u8x8_d_st7920.c ****       if ( arg_int == 0 )
  96:..\..\u8g2\csrc/u8x8_d_st7920.c **** 	u8x8_cad_SendSequence(u8x8, u8x8_d_st7920_powersave0_seq);
  97:..\..\u8g2\csrc/u8x8_d_st7920.c ****       else
  98:..\..\u8g2\csrc/u8x8_d_st7920.c **** 	u8x8_cad_SendSequence(u8x8, u8x8_d_st7920_powersave1_seq);
  99:..\..\u8g2\csrc/u8x8_d_st7920.c ****       break;
 100:..\..\u8g2\csrc/u8x8_d_st7920.c ****     case U8X8_MSG_DISPLAY_DRAW_TILE:
 101:..\..\u8g2\csrc/u8x8_d_st7920.c ****       y = (((u8x8_tile_t *)arg_ptr)->y_pos);
 102:..\..\u8g2\csrc/u8x8_d_st7920.c ****       y*=8;
 103:..\..\u8g2\csrc/u8x8_d_st7920.c ****       x = ((u8x8_tile_t *)arg_ptr)->x_pos;
 104:..\..\u8g2\csrc/u8x8_d_st7920.c ****       x /= 2;		/* not sure whether this is a clever idea, problem is, the ST7920 can address only e
 105:..\..\u8g2\csrc/u8x8_d_st7920.c ****     
 106:..\..\u8g2\csrc/u8x8_d_st7920.c ****       if ( y >= 32 )	/* this is the adjustment for 128x64 displays */
ARM GAS  C:\Users\arh\AppData\Local\Temp\cc1cgAkh.s 			page 4


 107:..\..\u8g2\csrc/u8x8_d_st7920.c ****       {
 108:..\..\u8g2\csrc/u8x8_d_st7920.c **** 	y-=32;
 109:..\..\u8g2\csrc/u8x8_d_st7920.c **** 	x+=8;
 110:..\..\u8g2\csrc/u8x8_d_st7920.c ****       }
 111:..\..\u8g2\csrc/u8x8_d_st7920.c ****     
 112:..\..\u8g2\csrc/u8x8_d_st7920.c ****       u8x8_cad_StartTransfer(u8x8);
 113:..\..\u8g2\csrc/u8x8_d_st7920.c ****         
 114:..\..\u8g2\csrc/u8x8_d_st7920.c **** 
 115:..\..\u8g2\csrc/u8x8_d_st7920.c ****       /* 
 116:..\..\u8g2\csrc/u8x8_d_st7920.c **** 	Tile structure is reused here for the ST7920, however u8x8 is not supported 
 117:..\..\u8g2\csrc/u8x8_d_st7920.c **** 	tile_ptr points to data which has cnt*8 bytes (same as SSD1306 tiles)
 118:..\..\u8g2\csrc/u8x8_d_st7920.c **** 	Buffer is expected to have 8 lines of code fitting to the ST7920 internal memory
 119:..\..\u8g2\csrc/u8x8_d_st7920.c **** 	"cnt" includes the number of horizontal bytes. width is equal to cnt*8
 120:..\..\u8g2\csrc/u8x8_d_st7920.c **** 	Also important: Width must be a multiple of 16 (ST7920 requirement), so cnt must be even.
 121:..\..\u8g2\csrc/u8x8_d_st7920.c **** 	
 122:..\..\u8g2\csrc/u8x8_d_st7920.c **** 	TODO: Consider arg_int, however arg_int is not used by u8g2
 123:..\..\u8g2\csrc/u8x8_d_st7920.c ****       */
 124:..\..\u8g2\csrc/u8x8_d_st7920.c ****       c = ((u8x8_tile_t *)arg_ptr)->cnt;	/* number of tiles */
 125:..\..\u8g2\csrc/u8x8_d_st7920.c ****       ptr = ((u8x8_tile_t *)arg_ptr)->tile_ptr;	/* data ptr to the tiles */
 126:..\..\u8g2\csrc/u8x8_d_st7920.c ****       /* The following byte is sent to allow the ST7920 to sync up with the data */
 127:..\..\u8g2\csrc/u8x8_d_st7920.c ****       /* it solves some issues with garbage data */
 128:..\..\u8g2\csrc/u8x8_d_st7920.c ****       u8x8_cad_SendCmd(u8x8, 0x03e );	/* enable extended mode */
 129:..\..\u8g2\csrc/u8x8_d_st7920.c ****       for( i = 0; i < 8; i++ )
 130:..\..\u8g2\csrc/u8x8_d_st7920.c ****       {
 131:..\..\u8g2\csrc/u8x8_d_st7920.c **** 	u8x8_cad_SendCmd(u8x8, 0x03e );	/* enable extended mode */
 132:..\..\u8g2\csrc/u8x8_d_st7920.c **** 	u8x8_cad_SendCmd(u8x8, 0x080 | (y+i) );      /* y pos  */
 133:..\..\u8g2\csrc/u8x8_d_st7920.c **** 	u8x8_cad_SendCmd(u8x8, 0x080 | x );      /* set x pos */
 134:..\..\u8g2\csrc/u8x8_d_st7920.c **** 	c = ((u8x8_tile_t *)arg_ptr)->cnt;	/* number of tiles */
 135:..\..\u8g2\csrc/u8x8_d_st7920.c **** 
 136:..\..\u8g2\csrc/u8x8_d_st7920.c **** 	//u8x8->gpio_and_delay_cb(u8x8, U8X8_MSG_DELAY_NANO, 200, NULL);	/* extra dely required */
 137:..\..\u8g2\csrc/u8x8_d_st7920.c **** 	u8x8_cad_SendData(u8x8, c, ptr);	/* note: SendData can not handle more than 255 bytes, send one li
 138:..\..\u8g2\csrc/u8x8_d_st7920.c **** 	ptr += c;
 139:..\..\u8g2\csrc/u8x8_d_st7920.c **** 	//u8x8->gpio_and_delay_cb(u8x8, U8X8_MSG_DELAY_NANO, 200, NULL);	/* extra dely required */
 140:..\..\u8g2\csrc/u8x8_d_st7920.c ****       }
 141:..\..\u8g2\csrc/u8x8_d_st7920.c **** 
 142:..\..\u8g2\csrc/u8x8_d_st7920.c ****       u8x8_cad_EndTransfer(u8x8);
 143:..\..\u8g2\csrc/u8x8_d_st7920.c **** 
 144:..\..\u8g2\csrc/u8x8_d_st7920.c ****       break;
 145:..\..\u8g2\csrc/u8x8_d_st7920.c ****     default:
 146:..\..\u8g2\csrc/u8x8_d_st7920.c ****       return 0;
 147:..\..\u8g2\csrc/u8x8_d_st7920.c ****   }
 148:..\..\u8g2\csrc/u8x8_d_st7920.c ****   return 1;
  66              		.loc 1 148 0
  67 0028 0120     		movs	r0, #1
  93:..\..\u8g2\csrc/u8x8_d_st7920.c ****       break;
  68              		.loc 1 93 0
  69 002a 4EE0     		b	.L2
  70              	.LVL3:
  71              	.L3:
  95:..\..\u8g2\csrc/u8x8_d_st7920.c **** 	u8x8_cad_SendSequence(u8x8, u8x8_d_st7920_powersave0_seq);
  72              		.loc 1 95 0
  73 002c 002A     		cmp	r2, #0
  74 002e 06D1     		bne	.L6
  96:..\..\u8g2\csrc/u8x8_d_st7920.c ****       else
  75              		.loc 1 96 0
  76 0030 2849     		ldr	r1, .L12
  77              	.LVL4:
ARM GAS  C:\Users\arh\AppData\Local\Temp\cc1cgAkh.s 			page 5


  78 0032 1431     		adds	r1, r1, #20
  79 0034 0198     		ldr	r0, [sp, #4]
  80              	.LVL5:
  81 0036 FFF7FEFF 		bl	u8x8_cad_SendSequence
  82              	.LVL6:
  83              		.loc 1 148 0
  84 003a 0120     		movs	r0, #1
  85 003c 45E0     		b	.L2
  86              	.LVL7:
  87              	.L6:
  98:..\..\u8g2\csrc/u8x8_d_st7920.c ****       break;
  88              		.loc 1 98 0
  89 003e 2549     		ldr	r1, .L12
  90              	.LVL8:
  91 0040 1C31     		adds	r1, r1, #28
  92 0042 0198     		ldr	r0, [sp, #4]
  93              	.LVL9:
  94 0044 FFF7FEFF 		bl	u8x8_cad_SendSequence
  95              	.LVL10:
  96              		.loc 1 148 0
  97 0048 0120     		movs	r0, #1
  98 004a 3EE0     		b	.L2
  99              	.LVL11:
 100              	.L4:
 101:..\..\u8g2\csrc/u8x8_d_st7920.c ****       y*=8;
 101              		.loc 1 101 0
 102 004c 9B79     		ldrb	r3, [r3, #6]
 103              	.LVL12:
 102:..\..\u8g2\csrc/u8x8_d_st7920.c ****       x = ((u8x8_tile_t *)arg_ptr)->x_pos;
 104              		.loc 1 102 0
 105 004e DB00     		lsls	r3, r3, #3
 106              	.LVL13:
 107 0050 DBB2     		uxtb	r3, r3
 108 0052 9846     		mov	r8, r3
 109              	.LVL14:
 103:..\..\u8g2\csrc/u8x8_d_st7920.c ****       x /= 2;		/* not sure whether this is a clever idea, problem is, the ST7920 can address only e
 110              		.loc 1 103 0
 111 0054 7379     		ldrb	r3, [r6, #5]
 112              	.LVL15:
 104:..\..\u8g2\csrc/u8x8_d_st7920.c ****     
 113              		.loc 1 104 0
 114 0056 5B08     		lsrs	r3, r3, #1
 115              	.LVL16:
 116 0058 9A46     		mov	r10, r3
 117              	.LVL17:
 106:..\..\u8g2\csrc/u8x8_d_st7920.c ****       {
 118              		.loc 1 106 0
 119 005a 4346     		mov	r3, r8
 120 005c 1F2B     		cmp	r3, #31
 121 005e 05D9     		bls	.L7
 108:..\..\u8g2\csrc/u8x8_d_st7920.c **** 	x+=8;
 122              		.loc 1 108 0
 123 0060 203B     		subs	r3, r3, #32
 124 0062 DBB2     		uxtb	r3, r3
 125 0064 9846     		mov	r8, r3
 126              	.LVL18:
 109:..\..\u8g2\csrc/u8x8_d_st7920.c ****       }
ARM GAS  C:\Users\arh\AppData\Local\Temp\cc1cgAkh.s 			page 6


 127              		.loc 1 109 0
 128 0066 0823     		movs	r3, #8
 129 0068 9C46     		mov	ip, r3
 130 006a E244     		add	r10, r10, ip
 131              	.LVL19:
 132              	.L7:
 112:..\..\u8g2\csrc/u8x8_d_st7920.c ****         
 133              		.loc 1 112 0
 134 006c 019C     		ldr	r4, [sp, #4]
 135 006e 2000     		movs	r0, r4
 136              	.LVL20:
 137 0070 FFF7FEFF 		bl	u8x8_cad_StartTransfer
 138              	.LVL21:
 125:..\..\u8g2\csrc/u8x8_d_st7920.c ****       /* The following byte is sent to allow the ST7920 to sync up with the data */
 139              		.loc 1 125 0
 140 0074 3768     		ldr	r7, [r6]
 141              	.LVL22:
 128:..\..\u8g2\csrc/u8x8_d_st7920.c ****       for( i = 0; i < 8; i++ )
 142              		.loc 1 128 0
 143 0076 3E21     		movs	r1, #62
 144 0078 2000     		movs	r0, r4
 145 007a FFF7FEFF 		bl	u8x8_cad_SendCmd
 146              	.LVL23:
 129:..\..\u8g2\csrc/u8x8_d_st7920.c ****       {
 147              		.loc 1 129 0
 148 007e 0025     		movs	r5, #0
 149 0080 1BE0     		b	.L8
 150              	.LVL24:
 151              	.L9:
 131:..\..\u8g2\csrc/u8x8_d_st7920.c **** 	u8x8_cad_SendCmd(u8x8, 0x080 | (y+i) );      /* y pos  */
 152              		.loc 1 131 0 discriminator 3
 153 0082 3E21     		movs	r1, #62
 154 0084 0198     		ldr	r0, [sp, #4]
 155 0086 FFF7FEFF 		bl	u8x8_cad_SendCmd
 156              	.LVL25:
 132:..\..\u8g2\csrc/u8x8_d_st7920.c **** 	u8x8_cad_SendCmd(u8x8, 0x080 | x );      /* set x pos */
 157              		.loc 1 132 0 discriminator 3
 158 008a 4346     		mov	r3, r8
 159 008c 5919     		adds	r1, r3, r5
 160 008e 8024     		movs	r4, #128
 161 0090 6442     		rsbs	r4, r4, #0
 162 0092 2143     		orrs	r1, r4
 163 0094 C9B2     		uxtb	r1, r1
 164 0096 0198     		ldr	r0, [sp, #4]
 165 0098 FFF7FEFF 		bl	u8x8_cad_SendCmd
 166              	.LVL26:
 133:..\..\u8g2\csrc/u8x8_d_st7920.c **** 	c = ((u8x8_tile_t *)arg_ptr)->cnt;	/* number of tiles */
 167              		.loc 1 133 0 discriminator 3
 168 009c 5346     		mov	r3, r10
 169 009e 1C43     		orrs	r4, r3
 170 00a0 E1B2     		uxtb	r1, r4
 171 00a2 0198     		ldr	r0, [sp, #4]
 172 00a4 FFF7FEFF 		bl	u8x8_cad_SendCmd
 173              	.LVL27:
 134:..\..\u8g2\csrc/u8x8_d_st7920.c **** 
 174              		.loc 1 134 0 discriminator 3
 175 00a8 3479     		ldrb	r4, [r6, #4]
ARM GAS  C:\Users\arh\AppData\Local\Temp\cc1cgAkh.s 			page 7


 176              	.LVL28:
 137:..\..\u8g2\csrc/u8x8_d_st7920.c **** 	ptr += c;
 177              		.loc 1 137 0 discriminator 3
 178 00aa 3A00     		movs	r2, r7
 179 00ac 2100     		movs	r1, r4
 180 00ae 0198     		ldr	r0, [sp, #4]
 181 00b0 FFF7FEFF 		bl	u8x8_cad_SendData
 182              	.LVL29:
 138:..\..\u8g2\csrc/u8x8_d_st7920.c **** 	//u8x8->gpio_and_delay_cb(u8x8, U8X8_MSG_DELAY_NANO, 200, NULL);	/* extra dely required */
 183              		.loc 1 138 0 discriminator 3
 184 00b4 3F19     		adds	r7, r7, r4
 185              	.LVL30:
 129:..\..\u8g2\csrc/u8x8_d_st7920.c ****       {
 186              		.loc 1 129 0 discriminator 3
 187 00b6 0135     		adds	r5, r5, #1
 188              	.LVL31:
 189 00b8 EDB2     		uxtb	r5, r5
 190              	.LVL32:
 191              	.L8:
 129:..\..\u8g2\csrc/u8x8_d_st7920.c ****       {
 192              		.loc 1 129 0 is_stmt 0 discriminator 1
 193 00ba 072D     		cmp	r5, #7
 194 00bc E1D9     		bls	.L9
 142:..\..\u8g2\csrc/u8x8_d_st7920.c **** 
 195              		.loc 1 142 0 is_stmt 1
 196 00be 0198     		ldr	r0, [sp, #4]
 197 00c0 FFF7FEFF 		bl	u8x8_cad_EndTransfer
 198              	.LVL33:
 199              		.loc 1 148 0
 200 00c4 0120     		movs	r0, #1
 144:..\..\u8g2\csrc/u8x8_d_st7920.c ****     default:
 201              		.loc 1 144 0
 202 00c6 00E0     		b	.L2
 203              	.LVL34:
 204              	.L11:
 146:..\..\u8g2\csrc/u8x8_d_st7920.c ****   }
 205              		.loc 1 146 0
 206 00c8 0020     		movs	r0, #0
 207              	.LVL35:
 208              	.L2:
 149:..\..\u8g2\csrc/u8x8_d_st7920.c **** }
 209              		.loc 1 149 0
 210 00ca 03B0     		add	sp, sp, #12
 211              		@ sp needed
 212              	.LVL36:
 213 00cc 0CBC     		pop	{r2, r3}
 214 00ce 9046     		mov	r8, r2
 215 00d0 9A46     		mov	r10, r3
 216 00d2 F0BD     		pop	{r4, r5, r6, r7, pc}
 217              	.L13:
 218              		.align	2
 219              	.L12:
 220 00d4 00000000 		.word	.LANCHOR0
 221              		.cfi_endproc
 222              	.LFE0:
 223              		.size	u8x8_d_st7920_common, .-u8x8_d_st7920_common
 224              		.section	.text.u8x8_d_st7920_192x32,"ax",%progbits
ARM GAS  C:\Users\arh\AppData\Local\Temp\cc1cgAkh.s 			page 8


 225              		.align	2
 226              		.global	u8x8_d_st7920_192x32
 227              		.code	16
 228              		.thumb_func
 229              		.type	u8x8_d_st7920_192x32, %function
 230              	u8x8_d_st7920_192x32:
 231              	.LFB1:
 150:..\..\u8g2\csrc/u8x8_d_st7920.c **** 
 151:..\..\u8g2\csrc/u8x8_d_st7920.c **** static const u8x8_display_info_t u8x8_st7920_192x32_display_info =
 152:..\..\u8g2\csrc/u8x8_d_st7920.c **** {
 153:..\..\u8g2\csrc/u8x8_d_st7920.c ****   /* chip_enable_level = */ 1,
 154:..\..\u8g2\csrc/u8x8_d_st7920.c ****   /* chip_disable_level = */ 0,
 155:..\..\u8g2\csrc/u8x8_d_st7920.c ****   
 156:..\..\u8g2\csrc/u8x8_d_st7920.c ****   /* post_chip_enable_wait_ns = */ 5,
 157:..\..\u8g2\csrc/u8x8_d_st7920.c ****   /* pre_chip_disable_wait_ns = */ 5,
 158:..\..\u8g2\csrc/u8x8_d_st7920.c ****   /* reset_pulse_width_ms = */ 1, 
 159:..\..\u8g2\csrc/u8x8_d_st7920.c ****   /* post_reset_wait_ms = */ 6, 
 160:..\..\u8g2\csrc/u8x8_d_st7920.c ****   /* sda_setup_time_ns = */ 20,		
 161:..\..\u8g2\csrc/u8x8_d_st7920.c ****   /* sck_pulse_width_ns = */  140,	/* datasheet ST7920 */
 162:..\..\u8g2\csrc/u8x8_d_st7920.c ****   /* sck_clock_hz = */ 1000000UL,	/* since Arduino 1.6.0, the SPI bus speed in Hz. Should be  10000
 163:..\..\u8g2\csrc/u8x8_d_st7920.c ****   /* spi_mode = */ 3,		/* old: sck_takeover_edge, new: active high (bit 1), rising edge (bit 0), 18
 164:..\..\u8g2\csrc/u8x8_d_st7920.c **** 	/* Arduino mode 3: aktive low clock, but use rising edge */
 165:..\..\u8g2\csrc/u8x8_d_st7920.c ****   /* i2c_bus_clock_100kHz = */ 4,
 166:..\..\u8g2\csrc/u8x8_d_st7920.c ****   /* data_setup_time_ns = */ 30,
 167:..\..\u8g2\csrc/u8x8_d_st7920.c ****   /* write_pulse_width_ns = */ 40,
 168:..\..\u8g2\csrc/u8x8_d_st7920.c ****   /* tile_width = */ 24,
 169:..\..\u8g2\csrc/u8x8_d_st7920.c ****   /* tile_hight = */ 4,
 170:..\..\u8g2\csrc/u8x8_d_st7920.c ****   /* default_x_offset = */ 0,
 171:..\..\u8g2\csrc/u8x8_d_st7920.c ****   /* flipmode_x_offset = */ 0,
 172:..\..\u8g2\csrc/u8x8_d_st7920.c ****   /* pixel_width = */ 192,
 173:..\..\u8g2\csrc/u8x8_d_st7920.c ****   /* pixel_height = */ 32
 174:..\..\u8g2\csrc/u8x8_d_st7920.c **** };
 175:..\..\u8g2\csrc/u8x8_d_st7920.c **** 
 176:..\..\u8g2\csrc/u8x8_d_st7920.c **** static const u8x8_display_info_t u8x8_st7920_128x64_display_info =
 177:..\..\u8g2\csrc/u8x8_d_st7920.c **** {
 178:..\..\u8g2\csrc/u8x8_d_st7920.c ****   /* chip_enable_level = */ 1,
 179:..\..\u8g2\csrc/u8x8_d_st7920.c ****   /* chip_disable_level = */ 0,
 180:..\..\u8g2\csrc/u8x8_d_st7920.c ****   
 181:..\..\u8g2\csrc/u8x8_d_st7920.c ****   /* post_chip_enable_wait_ns = */ 5,
 182:..\..\u8g2\csrc/u8x8_d_st7920.c ****   /* pre_chip_disable_wait_ns = */ 5,
 183:..\..\u8g2\csrc/u8x8_d_st7920.c ****   /* reset_pulse_width_ms = */ 1, 
 184:..\..\u8g2\csrc/u8x8_d_st7920.c ****   /* post_reset_wait_ms = */ 6, 
 185:..\..\u8g2\csrc/u8x8_d_st7920.c ****   /* sda_setup_time_ns = */ 20,		
 186:..\..\u8g2\csrc/u8x8_d_st7920.c ****   /* sck_pulse_width_ns = */  140,	/* datasheet ST7920 */
 187:..\..\u8g2\csrc/u8x8_d_st7920.c ****   /* sck_clock_hz = */ 1000000UL,	/* since Arduino 1.6.0, the SPI bus speed in Hz. Should be  10000
 188:..\..\u8g2\csrc/u8x8_d_st7920.c ****   /* ST7920+Due work with 1MHz but not with 2MHz, ST7920+Uno works with 2MHz */
 189:..\..\u8g2\csrc/u8x8_d_st7920.c ****   /* spi_mode = */ 3,		/* active high, rising edge, 18 Aug 16: changed from 1 to 3 which works for 
 190:..\..\u8g2\csrc/u8x8_d_st7920.c ****   /* in theory mode 3 should be correct  */
 191:..\..\u8g2\csrc/u8x8_d_st7920.c ****   /* i2c_bus_clock_100kHz = */ 4,
 192:..\..\u8g2\csrc/u8x8_d_st7920.c ****   /* data_setup_time_ns = */ 30,
 193:..\..\u8g2\csrc/u8x8_d_st7920.c ****   /* write_pulse_width_ns = */ 40,
 194:..\..\u8g2\csrc/u8x8_d_st7920.c ****   /* tile_width = */ 16,
 195:..\..\u8g2\csrc/u8x8_d_st7920.c ****   /* tile_hight = */ 8,
 196:..\..\u8g2\csrc/u8x8_d_st7920.c ****   /* default_x_offset = */ 0,
 197:..\..\u8g2\csrc/u8x8_d_st7920.c ****   /* flipmode_x_offset = */ 0,
 198:..\..\u8g2\csrc/u8x8_d_st7920.c ****   /* pixel_width = */ 128,
 199:..\..\u8g2\csrc/u8x8_d_st7920.c ****   /* pixel_height = */ 64
ARM GAS  C:\Users\arh\AppData\Local\Temp\cc1cgAkh.s 			page 9


 200:..\..\u8g2\csrc/u8x8_d_st7920.c **** };
 201:..\..\u8g2\csrc/u8x8_d_st7920.c **** 
 202:..\..\u8g2\csrc/u8x8_d_st7920.c **** uint8_t u8x8_d_st7920_192x32(u8x8_t *u8x8, uint8_t msg, uint8_t arg_int, void *arg_ptr)
 203:..\..\u8g2\csrc/u8x8_d_st7920.c **** {
 232              		.loc 1 203 0
 233              		.cfi_startproc
 234              		@ args = 0, pretend = 0, frame = 0
 235              		@ frame_needed = 0, uses_anonymous_args = 0
 236              	.LVL37:
 237 0000 10B5     		push	{r4, lr}
 238              		.cfi_def_cfa_offset 8
 239              		.cfi_offset 4, -8
 240              		.cfi_offset 14, -4
 204:..\..\u8g2\csrc/u8x8_d_st7920.c ****   switch(msg)
 241              		.loc 1 204 0
 242 0002 0929     		cmp	r1, #9
 243 0004 05D1     		bne	.L18
 205:..\..\u8g2\csrc/u8x8_d_st7920.c ****   {
 206:..\..\u8g2\csrc/u8x8_d_st7920.c ****     case U8X8_MSG_DISPLAY_SETUP_MEMORY:
 207:..\..\u8g2\csrc/u8x8_d_st7920.c ****       u8x8_d_helper_display_setup_memory(u8x8, &u8x8_st7920_192x32_display_info);
 244              		.loc 1 207 0
 245 0006 0449     		ldr	r1, .L19
 246              	.LVL38:
 247 0008 2431     		adds	r1, r1, #36
 248 000a FFF7FEFF 		bl	u8x8_d_helper_display_setup_memory
 249              	.LVL39:
 208:..\..\u8g2\csrc/u8x8_d_st7920.c ****       break;
 209:..\..\u8g2\csrc/u8x8_d_st7920.c ****     default:
 210:..\..\u8g2\csrc/u8x8_d_st7920.c ****       return u8x8_d_st7920_common(u8x8, msg, arg_int, arg_ptr);
 211:..\..\u8g2\csrc/u8x8_d_st7920.c ****   }
 212:..\..\u8g2\csrc/u8x8_d_st7920.c ****   return 1;
 250              		.loc 1 212 0
 251 000e 0120     		movs	r0, #1
 252 0010 01E0     		b	.L17
 253              	.LVL40:
 254              	.L18:
 210:..\..\u8g2\csrc/u8x8_d_st7920.c ****   }
 255              		.loc 1 210 0
 256 0012 FFF7FEFF 		bl	u8x8_d_st7920_common
 257              	.LVL41:
 258              	.L17:
 213:..\..\u8g2\csrc/u8x8_d_st7920.c **** }
 259              		.loc 1 213 0
 260              		@ sp needed
 261 0016 10BD     		pop	{r4, pc}
 262              	.L20:
 263              		.align	2
 264              	.L19:
 265 0018 00000000 		.word	.LANCHOR0
 266              		.cfi_endproc
 267              	.LFE1:
 268              		.size	u8x8_d_st7920_192x32, .-u8x8_d_st7920_192x32
 269              		.section	.text.u8x8_d_st7920_128x64,"ax",%progbits
 270              		.align	2
 271              		.global	u8x8_d_st7920_128x64
 272              		.code	16
 273              		.thumb_func
ARM GAS  C:\Users\arh\AppData\Local\Temp\cc1cgAkh.s 			page 10


 274              		.type	u8x8_d_st7920_128x64, %function
 275              	u8x8_d_st7920_128x64:
 276              	.LFB2:
 214:..\..\u8g2\csrc/u8x8_d_st7920.c **** 
 215:..\..\u8g2\csrc/u8x8_d_st7920.c **** uint8_t u8x8_d_st7920_128x64(u8x8_t *u8x8, uint8_t msg, uint8_t arg_int, void *arg_ptr)
 216:..\..\u8g2\csrc/u8x8_d_st7920.c **** {
 277              		.loc 1 216 0
 278              		.cfi_startproc
 279              		@ args = 0, pretend = 0, frame = 0
 280              		@ frame_needed = 0, uses_anonymous_args = 0
 281              	.LVL42:
 282 0000 10B5     		push	{r4, lr}
 283              		.cfi_def_cfa_offset 8
 284              		.cfi_offset 4, -8
 285              		.cfi_offset 14, -4
 217:..\..\u8g2\csrc/u8x8_d_st7920.c ****   switch(msg)
 286              		.loc 1 217 0
 287 0002 0929     		cmp	r1, #9
 288 0004 05D1     		bne	.L25
 218:..\..\u8g2\csrc/u8x8_d_st7920.c ****   {
 219:..\..\u8g2\csrc/u8x8_d_st7920.c ****     case U8X8_MSG_DISPLAY_SETUP_MEMORY:
 220:..\..\u8g2\csrc/u8x8_d_st7920.c ****       u8x8_d_helper_display_setup_memory(u8x8, &u8x8_st7920_128x64_display_info);
 289              		.loc 1 220 0
 290 0006 0449     		ldr	r1, .L26
 291              	.LVL43:
 292 0008 3C31     		adds	r1, r1, #60
 293 000a FFF7FEFF 		bl	u8x8_d_helper_display_setup_memory
 294              	.LVL44:
 221:..\..\u8g2\csrc/u8x8_d_st7920.c ****       break;
 222:..\..\u8g2\csrc/u8x8_d_st7920.c ****     default:
 223:..\..\u8g2\csrc/u8x8_d_st7920.c ****       return u8x8_d_st7920_common(u8x8, msg, arg_int, arg_ptr);
 224:..\..\u8g2\csrc/u8x8_d_st7920.c ****   }
 225:..\..\u8g2\csrc/u8x8_d_st7920.c ****   return 1;
 295              		.loc 1 225 0
 296 000e 0120     		movs	r0, #1
 297 0010 01E0     		b	.L24
 298              	.LVL45:
 299              	.L25:
 223:..\..\u8g2\csrc/u8x8_d_st7920.c ****   }
 300              		.loc 1 223 0
 301 0012 FFF7FEFF 		bl	u8x8_d_st7920_common
 302              	.LVL46:
 303              	.L24:
 226:..\..\u8g2\csrc/u8x8_d_st7920.c **** }
 304              		.loc 1 226 0
 305              		@ sp needed
 306 0016 10BD     		pop	{r4, pc}
 307              	.L27:
 308              		.align	2
 309              	.L26:
 310 0018 00000000 		.word	.LANCHOR0
 311              		.cfi_endproc
 312              	.LFE2:
 313              		.size	u8x8_d_st7920_128x64, .-u8x8_d_st7920_128x64
 314              		.section	.rodata
 315              		.align	2
 316              		.set	.LANCHOR0,. + 0
ARM GAS  C:\Users\arh\AppData\Local\Temp\cc1cgAkh.s 			page 11


 317              		.type	u8x8_d_st7920_init_seq, %object
 318              		.size	u8x8_d_st7920_init_seq, 19
 319              	u8x8_d_st7920_init_seq:
 320 0000 FE       		.byte	-2
 321 0001 64       		.byte	100
 322 0002 18       		.byte	24
 323 0003 FE       		.byte	-2
 324 0004 0A       		.byte	10
 325 0005 15       		.byte	21
 326 0006 38       		.byte	56
 327 0007 15       		.byte	21
 328 0008 08       		.byte	8
 329 0009 15       		.byte	21
 330 000a 06       		.byte	6
 331 000b 15       		.byte	21
 332 000c 02       		.byte	2
 333 000d 15       		.byte	21
 334 000e 01       		.byte	1
 335 000f FE       		.byte	-2
 336 0010 04       		.byte	4
 337 0011 19       		.byte	25
 338 0012 FF       		.byte	-1
 339 0013 00       		.space	1
 340              		.type	u8x8_d_st7920_powersave0_seq, %object
 341              		.size	u8x8_d_st7920_powersave0_seq, 7
 342              	u8x8_d_st7920_powersave0_seq:
 343 0014 18       		.byte	24
 344 0015 15       		.byte	21
 345 0016 38       		.byte	56
 346 0017 15       		.byte	21
 347 0018 0C       		.byte	12
 348 0019 19       		.byte	25
 349 001a FF       		.byte	-1
 350 001b 00       		.space	1
 351              		.type	u8x8_d_st7920_powersave1_seq, %object
 352              		.size	u8x8_d_st7920_powersave1_seq, 7
 353              	u8x8_d_st7920_powersave1_seq:
 354 001c 18       		.byte	24
 355 001d 15       		.byte	21
 356 001e 38       		.byte	56
 357 001f 15       		.byte	21
 358 0020 08       		.byte	8
 359 0021 19       		.byte	25
 360 0022 FF       		.byte	-1
 361 0023 00       		.space	1
 362              		.type	u8x8_st7920_192x32_display_info, %object
 363              		.size	u8x8_st7920_192x32_display_info, 24
 364              	u8x8_st7920_192x32_display_info:
 365 0024 01       		.byte	1
 366 0025 00       		.byte	0
 367 0026 05       		.byte	5
 368 0027 05       		.byte	5
 369 0028 01       		.byte	1
 370 0029 06       		.byte	6
 371 002a 14       		.byte	20
 372 002b 8C       		.byte	-116
 373 002c 40420F00 		.word	1000000
ARM GAS  C:\Users\arh\AppData\Local\Temp\cc1cgAkh.s 			page 12


 374 0030 03       		.byte	3
 375 0031 04       		.byte	4
 376 0032 1E       		.byte	30
 377 0033 28       		.byte	40
 378 0034 18       		.byte	24
 379 0035 04       		.byte	4
 380 0036 00       		.byte	0
 381 0037 00       		.byte	0
 382 0038 C000     		.short	192
 383 003a 2000     		.short	32
 384              		.type	u8x8_st7920_128x64_display_info, %object
 385              		.size	u8x8_st7920_128x64_display_info, 24
 386              	u8x8_st7920_128x64_display_info:
 387 003c 01       		.byte	1
 388 003d 00       		.byte	0
 389 003e 05       		.byte	5
 390 003f 05       		.byte	5
 391 0040 01       		.byte	1
 392 0041 06       		.byte	6
 393 0042 14       		.byte	20
 394 0043 8C       		.byte	-116
 395 0044 40420F00 		.word	1000000
 396 0048 03       		.byte	3
 397 0049 04       		.byte	4
 398 004a 1E       		.byte	30
 399 004b 28       		.byte	40
 400 004c 10       		.byte	16
 401 004d 08       		.byte	8
 402 004e 00       		.byte	0
 403 004f 00       		.byte	0
 404 0050 8000     		.short	128
 405 0052 4000     		.short	64
 406              		.text
 407              	.Letext0:
 408              		.file 2 "c:\\program files (x86)\\cypress\\psoc creator\\4.1\\psoc creator\\import\\gnu\\arm\\5.4.
 409              		.file 3 "c:\\program files (x86)\\cypress\\psoc creator\\4.1\\psoc creator\\import\\gnu\\arm\\5.4.
 410              		.file 4 "..\\..\\u8g2\\csrc\\u8x8.h"