ARM GAS  C:\Users\arh\AppData\Local\Temp\cccK6Gdz.s 			page 1


   1              		.syntax unified
   2              		.cpu cortex-m0
   3              		.fpu softvfp
   4              		.eabi_attribute 20, 1
   5              		.eabi_attribute 21, 1
   6              		.eabi_attribute 23, 3
   7              		.eabi_attribute 24, 1
   8              		.eabi_attribute 25, 1
   9              		.eabi_attribute 26, 1
  10              		.eabi_attribute 30, 1
  11              		.eabi_attribute 34, 0
  12              		.eabi_attribute 18, 4
  13              		.thumb
  14              		.syntax unified
  15              		.file	"u8x8_d_ls013b7dh03.c"
  16              		.text
  17              	.Ltext0:
  18              		.cfi_sections	.debug_frame
  19              		.section	.text.u8x8_d_ls013b7dh03_128x128,"ax",%progbits
  20              		.align	2
  21              		.global	u8x8_d_ls013b7dh03_128x128
  22              		.code	16
  23              		.thumb_func
  24              		.type	u8x8_d_ls013b7dh03_128x128, %function
  25              	u8x8_d_ls013b7dh03_128x128:
  26              	.LFB0:
  27              		.file 1 "..\\..\\u8g2\\csrc\\u8x8_d_ls013b7dh03.c"
   1:..\..\u8g2\csrc/u8x8_d_ls013b7dh03.c **** /*
   2:..\..\u8g2\csrc/u8x8_d_ls013b7dh03.c **** 
   3:..\..\u8g2\csrc/u8x8_d_ls013b7dh03.c ****   u8x8_d_ls013b7dh03.c
   4:..\..\u8g2\csrc/u8x8_d_ls013b7dh03.c ****   
   5:..\..\u8g2\csrc/u8x8_d_ls013b7dh03.c ****   Universal 8bit Graphics Library (https://github.com/olikraus/u8g2/)
   6:..\..\u8g2\csrc/u8x8_d_ls013b7dh03.c **** 
   7:..\..\u8g2\csrc/u8x8_d_ls013b7dh03.c ****   Copyright (c) 2016, olikraus@gmail.com
   8:..\..\u8g2\csrc/u8x8_d_ls013b7dh03.c ****   All rights reserved.
   9:..\..\u8g2\csrc/u8x8_d_ls013b7dh03.c **** 
  10:..\..\u8g2\csrc/u8x8_d_ls013b7dh03.c ****   Redistribution and use in source and binary forms, with or without modification, 
  11:..\..\u8g2\csrc/u8x8_d_ls013b7dh03.c ****   are permitted provided that the following conditions are met:
  12:..\..\u8g2\csrc/u8x8_d_ls013b7dh03.c **** 
  13:..\..\u8g2\csrc/u8x8_d_ls013b7dh03.c ****   * Redistributions of source code must retain the above copyright notice, this list 
  14:..\..\u8g2\csrc/u8x8_d_ls013b7dh03.c ****     of conditions and the following disclaimer.
  15:..\..\u8g2\csrc/u8x8_d_ls013b7dh03.c ****     
  16:..\..\u8g2\csrc/u8x8_d_ls013b7dh03.c ****   * Redistributions in binary form must reproduce the above copyright notice, this 
  17:..\..\u8g2\csrc/u8x8_d_ls013b7dh03.c ****     list of conditions and the following disclaimer in the documentation and/or other 
  18:..\..\u8g2\csrc/u8x8_d_ls013b7dh03.c ****     materials provided with the distribution.
  19:..\..\u8g2\csrc/u8x8_d_ls013b7dh03.c **** 
  20:..\..\u8g2\csrc/u8x8_d_ls013b7dh03.c ****   THIS SOFTWARE IS PROVIDED BY THE COPYRIGHT HOLDERS AND 
  21:..\..\u8g2\csrc/u8x8_d_ls013b7dh03.c ****   CONTRIBUTORS "AS IS" AND ANY EXPRESS OR IMPLIED WARRANTIES, 
  22:..\..\u8g2\csrc/u8x8_d_ls013b7dh03.c ****   INCLUDING, BUT NOT LIMITED TO, THE IMPLIED WARRANTIES OF 
  23:..\..\u8g2\csrc/u8x8_d_ls013b7dh03.c ****   MERCHANTABILITY AND FITNESS FOR A PARTICULAR PURPOSE ARE 
  24:..\..\u8g2\csrc/u8x8_d_ls013b7dh03.c ****   DISCLAIMED. IN NO EVENT SHALL THE COPYRIGHT HOLDER OR 
  25:..\..\u8g2\csrc/u8x8_d_ls013b7dh03.c ****   CONTRIBUTORS BE LIABLE FOR ANY DIRECT, INDIRECT, INCIDENTAL, 
  26:..\..\u8g2\csrc/u8x8_d_ls013b7dh03.c ****   SPECIAL, EXEMPLARY, OR CONSEQUENTIAL DAMAGES (INCLUDING, BUT 
  27:..\..\u8g2\csrc/u8x8_d_ls013b7dh03.c ****   NOT LIMITED TO, PROCUREMENT OF SUBSTITUTE GOODS OR SERVICES; 
  28:..\..\u8g2\csrc/u8x8_d_ls013b7dh03.c ****   LOSS OF USE, DATA, OR PROFITS; OR BUSINESS INTERRUPTION) HOWEVER 
  29:..\..\u8g2\csrc/u8x8_d_ls013b7dh03.c ****   CAUSED AND ON ANY THEORY OF LIABILITY, WHETHER IN CONTRACT, 
  30:..\..\u8g2\csrc/u8x8_d_ls013b7dh03.c ****   STRICT LIABILITY, OR TORT (INCLUDING NEGLIGENCE OR OTHERWISE) 
ARM GAS  C:\Users\arh\AppData\Local\Temp\cccK6Gdz.s 			page 2


  31:..\..\u8g2\csrc/u8x8_d_ls013b7dh03.c ****   ARISING IN ANY WAY OUT OF THE USE OF THIS SOFTWARE, EVEN IF 
  32:..\..\u8g2\csrc/u8x8_d_ls013b7dh03.c ****   ADVISED OF THE POSSIBILITY OF SUCH DAMAGE.  
  33:..\..\u8g2\csrc/u8x8_d_ls013b7dh03.c **** 
  34:..\..\u8g2\csrc/u8x8_d_ls013b7dh03.c **** 
  35:..\..\u8g2\csrc/u8x8_d_ls013b7dh03.c ****   The LS013B7DH02 is a simple display and controller
  36:..\..\u8g2\csrc/u8x8_d_ls013b7dh03.c ****   --> no support for contrast adjustment, flip and power down.
  37:..\..\u8g2\csrc/u8x8_d_ls013b7dh03.c **** */
  38:..\..\u8g2\csrc/u8x8_d_ls013b7dh03.c **** 
  39:..\..\u8g2\csrc/u8x8_d_ls013b7dh03.c **** #include "u8x8.h"
  40:..\..\u8g2\csrc/u8x8_d_ls013b7dh03.c **** 
  41:..\..\u8g2\csrc/u8x8_d_ls013b7dh03.c **** #define SWAP8(a) ((((a) & 0x80) >> 7) | (((a) & 0x40) >> 5) | (((a) & 0x20) >> 3) | (((a) & 0x10) >
  42:..\..\u8g2\csrc/u8x8_d_ls013b7dh03.c **** 
  43:..\..\u8g2\csrc/u8x8_d_ls013b7dh03.c **** #define LS013B7DH03_CMD_UPDATE     (0x01)
  44:..\..\u8g2\csrc/u8x8_d_ls013b7dh03.c **** #define LS013B7DH03_CMD_ALL_CLEAR  (0x04)
  45:..\..\u8g2\csrc/u8x8_d_ls013b7dh03.c **** #define LS013B7DH03_VAL_TRAILER    (0x00)
  46:..\..\u8g2\csrc/u8x8_d_ls013b7dh03.c **** 
  47:..\..\u8g2\csrc/u8x8_d_ls013b7dh03.c **** static const u8x8_display_info_t u8x8_ls013b7dh03_128x128_display_info =
  48:..\..\u8g2\csrc/u8x8_d_ls013b7dh03.c **** {
  49:..\..\u8g2\csrc/u8x8_d_ls013b7dh03.c ****   /* chip_enable_level = */ 1,
  50:..\..\u8g2\csrc/u8x8_d_ls013b7dh03.c ****   /* chip_disable_level = */ 0,
  51:..\..\u8g2\csrc/u8x8_d_ls013b7dh03.c ****   /* post_chip_enable_wait_ns = */ 50,
  52:..\..\u8g2\csrc/u8x8_d_ls013b7dh03.c ****   /* pre_chip_disable_wait_ns = */ 50,
  53:..\..\u8g2\csrc/u8x8_d_ls013b7dh03.c ****   /* reset_pulse_width_ms = */ 1,
  54:..\..\u8g2\csrc/u8x8_d_ls013b7dh03.c ****   /* post_reset_wait_ms = */ 6,
  55:..\..\u8g2\csrc/u8x8_d_ls013b7dh03.c ****   /* sda_setup_time_ns = */ 227,	/* 227 nsec according to the datasheet */		
  56:..\..\u8g2\csrc/u8x8_d_ls013b7dh03.c ****   /* sck_pulse_width_ns = */  255,	/* 450 nsec according to the datasheet */
  57:..\..\u8g2\csrc/u8x8_d_ls013b7dh03.c ****   /* sck_clock_hz = */ 1000000UL,	/* since Arduino 1.6.0, the SPI bus speed in Hz. Should be  10000
  58:..\..\u8g2\csrc/u8x8_d_ls013b7dh03.c ****   /* spi_mode = */ 2,		/* active low, rising edge */
  59:..\..\u8g2\csrc/u8x8_d_ls013b7dh03.c ****   /* i2c_bus_clock_100kHz = */ 4,
  60:..\..\u8g2\csrc/u8x8_d_ls013b7dh03.c ****   /* data_setup_time_ns = */ 100,
  61:..\..\u8g2\csrc/u8x8_d_ls013b7dh03.c ****   /* write_pulse_width_ns = */ 100,
  62:..\..\u8g2\csrc/u8x8_d_ls013b7dh03.c ****   /* tile_width = */ 16,
  63:..\..\u8g2\csrc/u8x8_d_ls013b7dh03.c ****   /* tile_hight = */ 16,
  64:..\..\u8g2\csrc/u8x8_d_ls013b7dh03.c ****   /* default_x_offset = */ 0,
  65:..\..\u8g2\csrc/u8x8_d_ls013b7dh03.c ****   /* flipmode_x_offset = */ 0,
  66:..\..\u8g2\csrc/u8x8_d_ls013b7dh03.c ****   /* pixel_width = */ 128,
  67:..\..\u8g2\csrc/u8x8_d_ls013b7dh03.c ****   /* pixel_height = */ 128
  68:..\..\u8g2\csrc/u8x8_d_ls013b7dh03.c **** };
  69:..\..\u8g2\csrc/u8x8_d_ls013b7dh03.c **** 
  70:..\..\u8g2\csrc/u8x8_d_ls013b7dh03.c **** uint8_t u8x8_d_ls013b7dh03_128x128(u8x8_t *u8x8, uint8_t msg, U8X8_UNUSED uint8_t arg_int, void *ar
  71:..\..\u8g2\csrc/u8x8_d_ls013b7dh03.c **** {
  28              		.loc 1 71 0
  29              		.cfi_startproc
  30              		@ args = 0, pretend = 0, frame = 16
  31              		@ frame_needed = 0, uses_anonymous_args = 0
  32              	.LVL0:
  33 0000 F0B5     		push	{r4, r5, r6, r7, lr}
  34              		.cfi_def_cfa_offset 20
  35              		.cfi_offset 4, -20
  36              		.cfi_offset 5, -16
  37              		.cfi_offset 6, -12
  38              		.cfi_offset 7, -8
  39              		.cfi_offset 14, -4
  40 0002 5F46     		mov	r7, fp
  41 0004 5646     		mov	r6, r10
  42 0006 4D46     		mov	r5, r9
  43 0008 4446     		mov	r4, r8
ARM GAS  C:\Users\arh\AppData\Local\Temp\cccK6Gdz.s 			page 3


  44 000a F0B4     		push	{r4, r5, r6, r7}
  45              		.cfi_def_cfa_offset 36
  46              		.cfi_offset 8, -36
  47              		.cfi_offset 9, -32
  48              		.cfi_offset 10, -28
  49              		.cfi_offset 11, -24
  50 000c 85B0     		sub	sp, sp, #20
  51              		.cfi_def_cfa_offset 56
  52 000e 0190     		str	r0, [sp, #4]
  72:..\..\u8g2\csrc/u8x8_d_ls013b7dh03.c ****   uint8_t y, c, i;
  73:..\..\u8g2\csrc/u8x8_d_ls013b7dh03.c ****   uint8_t *ptr;
  74:..\..\u8g2\csrc/u8x8_d_ls013b7dh03.c ****   switch(msg)
  53              		.loc 1 74 0
  54 0010 0A29     		cmp	r1, #10
  55 0012 0FD0     		beq	.L3
  56 0014 02D8     		bhi	.L4
  57 0016 0929     		cmp	r1, #9
  58 0018 06D0     		beq	.L5
  59 001a 03E0     		b	.L2
  60              	.L4:
  61 001c 0B29     		cmp	r1, #11
  62 001e 7FD0     		beq	.L10
  63 0020 0F29     		cmp	r1, #15
  64 0022 15D0     		beq	.L7
  65              	.L2:
  75:..\..\u8g2\csrc/u8x8_d_ls013b7dh03.c ****   {
  76:..\..\u8g2\csrc/u8x8_d_ls013b7dh03.c ****     case U8X8_MSG_DISPLAY_SETUP_MEMORY:
  77:..\..\u8g2\csrc/u8x8_d_ls013b7dh03.c ****       u8x8_d_helper_display_setup_memory(u8x8, &u8x8_ls013b7dh03_128x128_display_info);
  78:..\..\u8g2\csrc/u8x8_d_ls013b7dh03.c ****       break;
  79:..\..\u8g2\csrc/u8x8_d_ls013b7dh03.c ****     case U8X8_MSG_DISPLAY_INIT:
  80:..\..\u8g2\csrc/u8x8_d_ls013b7dh03.c ****       u8x8_d_helper_display_init(u8x8);
  81:..\..\u8g2\csrc/u8x8_d_ls013b7dh03.c **** 
  82:..\..\u8g2\csrc/u8x8_d_ls013b7dh03.c ****       /* clear screen */
  83:..\..\u8g2\csrc/u8x8_d_ls013b7dh03.c ****       u8x8_cad_SendCmd(u8x8, SWAP8(LS013B7DH03_CMD_ALL_CLEAR) );
  84:..\..\u8g2\csrc/u8x8_d_ls013b7dh03.c ****       u8x8_cad_SendCmd(u8x8, LS013B7DH03_VAL_TRAILER);
  85:..\..\u8g2\csrc/u8x8_d_ls013b7dh03.c **** 
  86:..\..\u8g2\csrc/u8x8_d_ls013b7dh03.c ****       break;
  87:..\..\u8g2\csrc/u8x8_d_ls013b7dh03.c ****     case U8X8_MSG_DISPLAY_SET_POWER_SAVE:
  88:..\..\u8g2\csrc/u8x8_d_ls013b7dh03.c ****       /* not available for the ls013b7dh03 */
  89:..\..\u8g2\csrc/u8x8_d_ls013b7dh03.c ****       break;
  90:..\..\u8g2\csrc/u8x8_d_ls013b7dh03.c ****     case U8X8_MSG_DISPLAY_DRAW_TILE:
  91:..\..\u8g2\csrc/u8x8_d_ls013b7dh03.c ****       /* each tile is 8 lines, with the data starting at the left edge */
  92:..\..\u8g2\csrc/u8x8_d_ls013b7dh03.c ****       y = ((((u8x8_tile_t *)arg_ptr)->y_pos) * 8) + 1;
  93:..\..\u8g2\csrc/u8x8_d_ls013b7dh03.c **** 
  94:..\..\u8g2\csrc/u8x8_d_ls013b7dh03.c ****       c = ((u8x8_tile_t *)arg_ptr)->cnt;
  95:..\..\u8g2\csrc/u8x8_d_ls013b7dh03.c ****       ptr = ((u8x8_tile_t *)arg_ptr)->tile_ptr;
  96:..\..\u8g2\csrc/u8x8_d_ls013b7dh03.c **** 
  97:..\..\u8g2\csrc/u8x8_d_ls013b7dh03.c ****       /* send data mode byte */
  98:..\..\u8g2\csrc/u8x8_d_ls013b7dh03.c ****       u8x8_cad_StartTransfer(u8x8);
  99:..\..\u8g2\csrc/u8x8_d_ls013b7dh03.c ****       u8x8_cad_SendCmd(u8x8, SWAP8(LS013B7DH03_CMD_UPDATE) );
 100:..\..\u8g2\csrc/u8x8_d_ls013b7dh03.c **** 
 101:..\..\u8g2\csrc/u8x8_d_ls013b7dh03.c ****       /* send 8 lines of 16 bytes (=128 pixels) */
 102:..\..\u8g2\csrc/u8x8_d_ls013b7dh03.c ****       for( i = 0; i < 8; i++ )
 103:..\..\u8g2\csrc/u8x8_d_ls013b7dh03.c ****       {
 104:..\..\u8g2\csrc/u8x8_d_ls013b7dh03.c ****         u8x8_cad_SendCmd(u8x8, SWAP8(y + i) );
 105:..\..\u8g2\csrc/u8x8_d_ls013b7dh03.c ****         u8x8_cad_SendData(u8x8, c, ptr);
 106:..\..\u8g2\csrc/u8x8_d_ls013b7dh03.c ****         u8x8_cad_SendCmd(u8x8, LS013B7DH03_VAL_TRAILER);
ARM GAS  C:\Users\arh\AppData\Local\Temp\cccK6Gdz.s 			page 4


 107:..\..\u8g2\csrc/u8x8_d_ls013b7dh03.c **** 
 108:..\..\u8g2\csrc/u8x8_d_ls013b7dh03.c ****         ptr += c;
 109:..\..\u8g2\csrc/u8x8_d_ls013b7dh03.c ****       }
 110:..\..\u8g2\csrc/u8x8_d_ls013b7dh03.c **** 
 111:..\..\u8g2\csrc/u8x8_d_ls013b7dh03.c ****       /* finish with a trailing byte */
 112:..\..\u8g2\csrc/u8x8_d_ls013b7dh03.c ****       u8x8_cad_SendCmd(u8x8, LS013B7DH03_VAL_TRAILER);
 113:..\..\u8g2\csrc/u8x8_d_ls013b7dh03.c ****       u8x8_cad_EndTransfer(u8x8);
 114:..\..\u8g2\csrc/u8x8_d_ls013b7dh03.c **** 
 115:..\..\u8g2\csrc/u8x8_d_ls013b7dh03.c ****       break;
 116:..\..\u8g2\csrc/u8x8_d_ls013b7dh03.c ****     default:
 117:..\..\u8g2\csrc/u8x8_d_ls013b7dh03.c ****       return 0;
  66              		.loc 1 117 0
  67 0024 0020     		movs	r0, #0
  68              	.LVL1:
  69 0026 7CE0     		b	.L6
  70              	.LVL2:
  71              	.L5:
  77:..\..\u8g2\csrc/u8x8_d_ls013b7dh03.c ****       break;
  72              		.loc 1 77 0
  73 0028 4149     		ldr	r1, .L11
  74              	.LVL3:
  75 002a 0198     		ldr	r0, [sp, #4]
  76              	.LVL4:
  77 002c FFF7FEFF 		bl	u8x8_d_helper_display_setup_memory
  78              	.LVL5:
 118:..\..\u8g2\csrc/u8x8_d_ls013b7dh03.c ****   }
 119:..\..\u8g2\csrc/u8x8_d_ls013b7dh03.c ****   return 1;
  79              		.loc 1 119 0
  80 0030 0120     		movs	r0, #1
  78:..\..\u8g2\csrc/u8x8_d_ls013b7dh03.c ****     case U8X8_MSG_DISPLAY_INIT:
  81              		.loc 1 78 0
  82 0032 76E0     		b	.L6
  83              	.LVL6:
  84              	.L3:
  80:..\..\u8g2\csrc/u8x8_d_ls013b7dh03.c **** 
  85              		.loc 1 80 0
  86 0034 019C     		ldr	r4, [sp, #4]
  87 0036 2000     		movs	r0, r4
  88              	.LVL7:
  89 0038 FFF7FEFF 		bl	u8x8_d_helper_display_init
  90              	.LVL8:
  83:..\..\u8g2\csrc/u8x8_d_ls013b7dh03.c ****       u8x8_cad_SendCmd(u8x8, LS013B7DH03_VAL_TRAILER);
  91              		.loc 1 83 0
  92 003c 2021     		movs	r1, #32
  93 003e 2000     		movs	r0, r4
  94 0040 FFF7FEFF 		bl	u8x8_cad_SendCmd
  95              	.LVL9:
  84:..\..\u8g2\csrc/u8x8_d_ls013b7dh03.c **** 
  96              		.loc 1 84 0
  97 0044 0021     		movs	r1, #0
  98 0046 2000     		movs	r0, r4
  99 0048 FFF7FEFF 		bl	u8x8_cad_SendCmd
 100              	.LVL10:
 101              		.loc 1 119 0
 102 004c 0120     		movs	r0, #1
  86:..\..\u8g2\csrc/u8x8_d_ls013b7dh03.c ****     case U8X8_MSG_DISPLAY_SET_POWER_SAVE:
 103              		.loc 1 86 0
ARM GAS  C:\Users\arh\AppData\Local\Temp\cccK6Gdz.s 			page 5


 104 004e 68E0     		b	.L6
 105              	.LVL11:
 106              	.L7:
  92:..\..\u8g2\csrc/u8x8_d_ls013b7dh03.c **** 
 107              		.loc 1 92 0
 108 0050 9A79     		ldrb	r2, [r3, #6]
 109              	.LVL12:
 110 0052 D200     		lsls	r2, r2, #3
 111 0054 0132     		adds	r2, r2, #1
 112 0056 D2B2     		uxtb	r2, r2
 113 0058 9046     		mov	r8, r2
 114              	.LVL13:
  94:..\..\u8g2\csrc/u8x8_d_ls013b7dh03.c ****       ptr = ((u8x8_tile_t *)arg_ptr)->tile_ptr;
 115              		.loc 1 94 0
 116 005a 1C79     		ldrb	r4, [r3, #4]
 117              	.LVL14:
  95:..\..\u8g2\csrc/u8x8_d_ls013b7dh03.c **** 
 118              		.loc 1 95 0
 119 005c 1F68     		ldr	r7, [r3]
 120              	.LVL15:
  98:..\..\u8g2\csrc/u8x8_d_ls013b7dh03.c ****       u8x8_cad_SendCmd(u8x8, SWAP8(LS013B7DH03_CMD_UPDATE) );
 121              		.loc 1 98 0
 122 005e 019D     		ldr	r5, [sp, #4]
 123 0060 2800     		movs	r0, r5
 124              	.LVL16:
 125 0062 FFF7FEFF 		bl	u8x8_cad_StartTransfer
 126              	.LVL17:
  99:..\..\u8g2\csrc/u8x8_d_ls013b7dh03.c **** 
 127              		.loc 1 99 0
 128 0066 8021     		movs	r1, #128
 129 0068 2800     		movs	r0, r5
 130 006a FFF7FEFF 		bl	u8x8_cad_SendCmd
 131              	.LVL18:
 102:..\..\u8g2\csrc/u8x8_d_ls013b7dh03.c ****       {
 132              		.loc 1 102 0
 133 006e 0026     		movs	r6, #0
 134 0070 4AE0     		b	.L8
 135              	.LVL19:
 136              	.L9:
 104:..\..\u8g2\csrc/u8x8_d_ls013b7dh03.c ****         u8x8_cad_SendData(u8x8, c, ptr);
 137              		.loc 1 104 0 discriminator 3
 138 0072 4346     		mov	r3, r8
 139 0074 9B19     		adds	r3, r3, r6
 140 0076 DA11     		asrs	r2, r3, #7
 141 0078 9346     		mov	fp, r2
 142 007a 5A11     		asrs	r2, r3, #5
 143 007c 9146     		mov	r9, r2
 144 007e DA10     		asrs	r2, r3, #3
 145 0080 9446     		mov	ip, r2
 146 0082 5910     		asrs	r1, r3, #1
 147 0084 5D00     		lsls	r5, r3, #1
 148 0086 D800     		lsls	r0, r3, #3
 149 0088 5A01     		lsls	r2, r3, #5
 150 008a 0292     		str	r2, [sp, #8]
 151 008c DB01     		lsls	r3, r3, #7
 152 008e 0393     		str	r3, [sp, #12]
 153 0090 0123     		movs	r3, #1
ARM GAS  C:\Users\arh\AppData\Local\Temp\cccK6Gdz.s 			page 6


 154 0092 9A46     		mov	r10, r3
 155 0094 5B46     		mov	r3, fp
 156 0096 5246     		mov	r2, r10
 157 0098 1340     		ands	r3, r2
 158 009a 9A46     		mov	r10, r3
 159 009c 0223     		movs	r3, #2
 160 009e 9B46     		mov	fp, r3
 161 00a0 4B46     		mov	r3, r9
 162 00a2 5A46     		mov	r2, fp
 163 00a4 1340     		ands	r3, r2
 164 00a6 9946     		mov	r9, r3
 165 00a8 5346     		mov	r3, r10
 166 00aa 4A46     		mov	r2, r9
 167 00ac 1343     		orrs	r3, r2
 168 00ae 9A46     		mov	r10, r3
 169 00b0 0423     		movs	r3, #4
 170 00b2 9946     		mov	r9, r3
 171 00b4 6346     		mov	r3, ip
 172 00b6 4A46     		mov	r2, r9
 173 00b8 1340     		ands	r3, r2
 174 00ba 9C46     		mov	ip, r3
 175 00bc 5346     		mov	r3, r10
 176 00be 6246     		mov	r2, ip
 177 00c0 1343     		orrs	r3, r2
 178 00c2 9A46     		mov	r10, r3
 179 00c4 0823     		movs	r3, #8
 180 00c6 1940     		ands	r1, r3
 181 00c8 5346     		mov	r3, r10
 182 00ca 1943     		orrs	r1, r3
 183 00cc 1023     		movs	r3, #16
 184 00ce 1D40     		ands	r5, r3
 185 00d0 2943     		orrs	r1, r5
 186 00d2 2025     		movs	r5, #32
 187 00d4 2840     		ands	r0, r5
 188 00d6 0843     		orrs	r0, r1
 189 00d8 4021     		movs	r1, #64
 190 00da 029A     		ldr	r2, [sp, #8]
 191 00dc 0A40     		ands	r2, r1
 192 00de 0100     		movs	r1, r0
 193 00e0 1143     		orrs	r1, r2
 194 00e2 039B     		ldr	r3, [sp, #12]
 195 00e4 0B43     		orrs	r3, r1
 196 00e6 D9B2     		uxtb	r1, r3
 197 00e8 019D     		ldr	r5, [sp, #4]
 198 00ea 2800     		movs	r0, r5
 199 00ec FFF7FEFF 		bl	u8x8_cad_SendCmd
 200              	.LVL20:
 105:..\..\u8g2\csrc/u8x8_d_ls013b7dh03.c ****         u8x8_cad_SendCmd(u8x8, LS013B7DH03_VAL_TRAILER);
 201              		.loc 1 105 0 discriminator 3
 202 00f0 3A00     		movs	r2, r7
 203 00f2 2100     		movs	r1, r4
 204 00f4 2800     		movs	r0, r5
 205 00f6 FFF7FEFF 		bl	u8x8_cad_SendData
 206              	.LVL21:
 106:..\..\u8g2\csrc/u8x8_d_ls013b7dh03.c **** 
 207              		.loc 1 106 0 discriminator 3
 208 00fa 0021     		movs	r1, #0
ARM GAS  C:\Users\arh\AppData\Local\Temp\cccK6Gdz.s 			page 7


 209 00fc 2800     		movs	r0, r5
 210 00fe FFF7FEFF 		bl	u8x8_cad_SendCmd
 211              	.LVL22:
 108:..\..\u8g2\csrc/u8x8_d_ls013b7dh03.c ****       }
 212              		.loc 1 108 0 discriminator 3
 213 0102 3F19     		adds	r7, r7, r4
 214              	.LVL23:
 102:..\..\u8g2\csrc/u8x8_d_ls013b7dh03.c ****       {
 215              		.loc 1 102 0 discriminator 3
 216 0104 0136     		adds	r6, r6, #1
 217              	.LVL24:
 218 0106 F6B2     		uxtb	r6, r6
 219              	.LVL25:
 220              	.L8:
 102:..\..\u8g2\csrc/u8x8_d_ls013b7dh03.c ****       {
 221              		.loc 1 102 0 is_stmt 0 discriminator 1
 222 0108 072E     		cmp	r6, #7
 223 010a B2D9     		bls	.L9
 112:..\..\u8g2\csrc/u8x8_d_ls013b7dh03.c ****       u8x8_cad_EndTransfer(u8x8);
 224              		.loc 1 112 0 is_stmt 1
 225 010c 0021     		movs	r1, #0
 226 010e 019C     		ldr	r4, [sp, #4]
 227              	.LVL26:
 228 0110 2000     		movs	r0, r4
 229 0112 FFF7FEFF 		bl	u8x8_cad_SendCmd
 230              	.LVL27:
 113:..\..\u8g2\csrc/u8x8_d_ls013b7dh03.c **** 
 231              		.loc 1 113 0
 232 0116 2000     		movs	r0, r4
 233 0118 FFF7FEFF 		bl	u8x8_cad_EndTransfer
 234              	.LVL28:
 235              		.loc 1 119 0
 236 011c 0120     		movs	r0, #1
 115:..\..\u8g2\csrc/u8x8_d_ls013b7dh03.c ****     default:
 237              		.loc 1 115 0
 238 011e 00E0     		b	.L6
 239              	.LVL29:
 240              	.L10:
 241              		.loc 1 119 0
 242 0120 0120     		movs	r0, #1
 243              	.LVL30:
 244              	.L6:
 120:..\..\u8g2\csrc/u8x8_d_ls013b7dh03.c **** }
 245              		.loc 1 120 0
 246 0122 05B0     		add	sp, sp, #20
 247              		@ sp needed
 248 0124 3CBC     		pop	{r2, r3, r4, r5}
 249 0126 9046     		mov	r8, r2
 250 0128 9946     		mov	r9, r3
 251 012a A246     		mov	r10, r4
 252 012c AB46     		mov	fp, r5
 253 012e F0BD     		pop	{r4, r5, r6, r7, pc}
 254              	.L12:
 255              		.align	2
 256              	.L11:
 257 0130 00000000 		.word	.LANCHOR0
 258              		.cfi_endproc
ARM GAS  C:\Users\arh\AppData\Local\Temp\cccK6Gdz.s 			page 8


 259              	.LFE0:
 260              		.size	u8x8_d_ls013b7dh03_128x128, .-u8x8_d_ls013b7dh03_128x128
 261              		.section	.rodata
 262              		.align	2
 263              		.set	.LANCHOR0,. + 0
 264              		.type	u8x8_ls013b7dh03_128x128_display_info, %object
 265              		.size	u8x8_ls013b7dh03_128x128_display_info, 24
 266              	u8x8_ls013b7dh03_128x128_display_info:
 267 0000 01       		.byte	1
 268 0001 00       		.byte	0
 269 0002 32       		.byte	50
 270 0003 32       		.byte	50
 271 0004 01       		.byte	1
 272 0005 06       		.byte	6
 273 0006 E3       		.byte	-29
 274 0007 FF       		.byte	-1
 275 0008 40420F00 		.word	1000000
 276 000c 02       		.byte	2
 277 000d 04       		.byte	4
 278 000e 64       		.byte	100
 279 000f 64       		.byte	100
 280 0010 10       		.byte	16
 281 0011 10       		.byte	16
 282 0012 00       		.byte	0
 283 0013 00       		.byte	0
 284 0014 8000     		.short	128
 285 0016 8000     		.short	128
 286              		.text
 287              	.Letext0:
 288              		.file 2 "c:\\program files (x86)\\cypress\\psoc creator\\4.1\\psoc creator\\import\\gnu\\arm\\5.4.
 289              		.file 3 "c:\\program files (x86)\\cypress\\psoc creator\\4.1\\psoc creator\\import\\gnu\\arm\\5.4.
 290              		.file 4 "..\\..\\u8g2\\csrc\\u8x8.h"