ARM GAS  C:\Users\Alan\AppData\Local\Temp\ccZwtWgA.s 			page 1


   1              		.syntax unified
   2              		.cpu cortex-m0
   3              		.fpu softvfp
   4              		.eabi_attribute 20, 1
   5              		.eabi_attribute 21, 1
   6              		.eabi_attribute 23, 3
   7              		.eabi_attribute 24, 1
   8              		.eabi_attribute 25, 1
   9              		.eabi_attribute 26, 1
  10              		.eabi_attribute 30, 1
  11              		.eabi_attribute 34, 0
  12              		.eabi_attribute 18, 4
  13              		.thumb
  14              		.syntax unified
  15              		.file	"u8x8_d_st75256.c"
  16              		.text
  17              	.Ltext0:
  18              		.cfi_sections	.debug_frame
  19              		.section	.text.u8x8_d_st75256_256x128_generic,"ax",%progbits
  20              		.align	2
  21              		.code	16
  22              		.thumb_func
  23              		.type	u8x8_d_st75256_256x128_generic, %function
  24              	u8x8_d_st75256_256x128_generic:
  25              	.LFB0:
  26              		.file 1 "..\\..\\u8g2\\csrc\\u8x8_d_st75256.c"
   1:..\..\u8g2\csrc/u8x8_d_st75256.c **** /*
   2:..\..\u8g2\csrc/u8x8_d_st75256.c **** 
   3:..\..\u8g2\csrc/u8x8_d_st75256.c ****   u8x8_d_st75256.c
   4:..\..\u8g2\csrc/u8x8_d_st75256.c **** 
   5:..\..\u8g2\csrc/u8x8_d_st75256.c ****   Universal 8bit Graphics Library (https://github.com/olikraus/u8g2/)
   6:..\..\u8g2\csrc/u8x8_d_st75256.c **** 
   7:..\..\u8g2\csrc/u8x8_d_st75256.c ****   Copyright (c) 2017, olikraus@gmail.com
   8:..\..\u8g2\csrc/u8x8_d_st75256.c ****   All rights reserved.
   9:..\..\u8g2\csrc/u8x8_d_st75256.c **** 
  10:..\..\u8g2\csrc/u8x8_d_st75256.c ****   Redistribution and use in source and binary forms, with or without modification, 
  11:..\..\u8g2\csrc/u8x8_d_st75256.c ****   are permitted provided that the following conditions are met:
  12:..\..\u8g2\csrc/u8x8_d_st75256.c **** 
  13:..\..\u8g2\csrc/u8x8_d_st75256.c ****   * Redistributions of source code must retain the above copyright notice, this list 
  14:..\..\u8g2\csrc/u8x8_d_st75256.c ****     of conditions and the following disclaimer.
  15:..\..\u8g2\csrc/u8x8_d_st75256.c ****     
  16:..\..\u8g2\csrc/u8x8_d_st75256.c ****   * Redistributions in binary form must reproduce the above copyright notice, this 
  17:..\..\u8g2\csrc/u8x8_d_st75256.c ****     list of conditions and the following disclaimer in the documentation and/or other 
  18:..\..\u8g2\csrc/u8x8_d_st75256.c ****     materials provided with the distribution.
  19:..\..\u8g2\csrc/u8x8_d_st75256.c **** 
  20:..\..\u8g2\csrc/u8x8_d_st75256.c ****   THIS SOFTWARE IS PROVIDED BY THE COPYRIGHT HOLDERS AND 
  21:..\..\u8g2\csrc/u8x8_d_st75256.c ****   CONTRIBUTORS "AS IS" AND ANY EXPRESS OR IMPLIED WARRANTIES, 
  22:..\..\u8g2\csrc/u8x8_d_st75256.c ****   INCLUDING, BUT NOT LIMITED TO, THE IMPLIED WARRANTIES OF 
  23:..\..\u8g2\csrc/u8x8_d_st75256.c ****   MERCHANTABILITY AND FITNESS FOR A PARTICULAR PURPOSE ARE 
  24:..\..\u8g2\csrc/u8x8_d_st75256.c ****   DISCLAIMED. IN NO EVENT SHALL THE COPYRIGHT HOLDER OR 
  25:..\..\u8g2\csrc/u8x8_d_st75256.c ****   CONTRIBUTORS BE LIABLE FOR ANY DIRECT, INDIRECT, INCIDENTAL, 
  26:..\..\u8g2\csrc/u8x8_d_st75256.c ****   SPECIAL, EXEMPLARY, OR CONSEQUENTIAL DAMAGES (INCLUDING, BUT 
  27:..\..\u8g2\csrc/u8x8_d_st75256.c ****   NOT LIMITED TO, PROCUREMENT OF SUBSTITUTE GOODS OR SERVICES; 
  28:..\..\u8g2\csrc/u8x8_d_st75256.c ****   LOSS OF USE, DATA, OR PROFITS; OR BUSINESS INTERRUPTION) HOWEVER 
  29:..\..\u8g2\csrc/u8x8_d_st75256.c ****   CAUSED AND ON ANY THEORY OF LIABILITY, WHETHER IN CONTRACT, 
  30:..\..\u8g2\csrc/u8x8_d_st75256.c ****   STRICT LIABILITY, OR TORT (INCLUDING NEGLIGENCE OR OTHERWISE) 
  31:..\..\u8g2\csrc/u8x8_d_st75256.c ****   ARISING IN ANY WAY OUT OF THE USE OF THIS SOFTWARE, EVEN IF 
ARM GAS  C:\Users\Alan\AppData\Local\Temp\ccZwtWgA.s 			page 2


  32:..\..\u8g2\csrc/u8x8_d_st75256.c ****   ADVISED OF THE POSSIBILITY OF SUCH DAMAGE.  
  33:..\..\u8g2\csrc/u8x8_d_st75256.c **** 
  34:..\..\u8g2\csrc/u8x8_d_st75256.c ****   0x030	ext 00
  35:..\..\u8g2\csrc/u8x8_d_st75256.c ****   0x031	ext 01
  36:..\..\u8g2\csrc/u8x8_d_st75256.c ****   0x038	ext 10
  37:..\..\u8g2\csrc/u8x8_d_st75256.c ****   0x039	ext 11
  38:..\..\u8g2\csrc/u8x8_d_st75256.c ****   
  39:..\..\u8g2\csrc/u8x8_d_st75256.c ****   cad 011
  40:..\..\u8g2\csrc/u8x8_d_st75256.c ****   
  41:..\..\u8g2\csrc/u8x8_d_st75256.c **** */
  42:..\..\u8g2\csrc/u8x8_d_st75256.c **** 
  43:..\..\u8g2\csrc/u8x8_d_st75256.c **** 
  44:..\..\u8g2\csrc/u8x8_d_st75256.c **** #include "u8x8.h"
  45:..\..\u8g2\csrc/u8x8_d_st75256.c **** 
  46:..\..\u8g2\csrc/u8x8_d_st75256.c **** 
  47:..\..\u8g2\csrc/u8x8_d_st75256.c **** /* not a real power down for the st75256... just a display off */
  48:..\..\u8g2\csrc/u8x8_d_st75256.c **** static const uint8_t u8x8_d_st75256_256x128_powersave0_seq[] = {
  49:..\..\u8g2\csrc/u8x8_d_st75256.c ****   U8X8_START_TRANSFER(),             	/* enable chip, delay is part of the transfer start */
  50:..\..\u8g2\csrc/u8x8_d_st75256.c ****   U8X8_C( 0x030 ),				/* select 00 commands */  
  51:..\..\u8g2\csrc/u8x8_d_st75256.c ****   U8X8_C( 0x94 ),				/* sleep out */
  52:..\..\u8g2\csrc/u8x8_d_st75256.c ****   U8X8_DLY(10),
  53:..\..\u8g2\csrc/u8x8_d_st75256.c ****   U8X8_C( 0xaf ),				/* display on */
  54:..\..\u8g2\csrc/u8x8_d_st75256.c ****   U8X8_END_TRANSFER(),             	/* disable chip */
  55:..\..\u8g2\csrc/u8x8_d_st75256.c ****   U8X8_END()             			/* end of sequence */
  56:..\..\u8g2\csrc/u8x8_d_st75256.c **** };
  57:..\..\u8g2\csrc/u8x8_d_st75256.c **** 
  58:..\..\u8g2\csrc/u8x8_d_st75256.c **** static const uint8_t u8x8_d_st75256_256x128_powersave1_seq[] = {
  59:..\..\u8g2\csrc/u8x8_d_st75256.c ****   U8X8_START_TRANSFER(),             	/* enable chip, delay is part of the transfer start */
  60:..\..\u8g2\csrc/u8x8_d_st75256.c ****   U8X8_C( 0x030 ),				/* select 00 commands */
  61:..\..\u8g2\csrc/u8x8_d_st75256.c ****   U8X8_C( 0xae ),				/* display off */
  62:..\..\u8g2\csrc/u8x8_d_st75256.c ****   U8X8_C( 0x95 ),				/* sleep in */
  63:..\..\u8g2\csrc/u8x8_d_st75256.c ****   U8X8_END_TRANSFER(),             	/* disable chip */
  64:..\..\u8g2\csrc/u8x8_d_st75256.c ****   U8X8_END()             			/* end of sequence */
  65:..\..\u8g2\csrc/u8x8_d_st75256.c **** };
  66:..\..\u8g2\csrc/u8x8_d_st75256.c **** 
  67:..\..\u8g2\csrc/u8x8_d_st75256.c **** 
  68:..\..\u8g2\csrc/u8x8_d_st75256.c **** 
  69:..\..\u8g2\csrc/u8x8_d_st75256.c **** 
  70:..\..\u8g2\csrc/u8x8_d_st75256.c **** static uint8_t u8x8_d_st75256_256x128_generic(u8x8_t *u8x8, uint8_t msg, uint8_t arg_int, void *arg
  71:..\..\u8g2\csrc/u8x8_d_st75256.c **** {
  27              		.loc 1 71 0
  28              		.cfi_startproc
  29              		@ args = 0, pretend = 0, frame = 8
  30              		@ frame_needed = 0, uses_anonymous_args = 0
  31              	.LVL0:
  32 0000 F0B5     		push	{r4, r5, r6, r7, lr}
  33              		.cfi_def_cfa_offset 20
  34              		.cfi_offset 4, -20
  35              		.cfi_offset 5, -16
  36              		.cfi_offset 6, -12
  37              		.cfi_offset 7, -8
  38              		.cfi_offset 14, -4
  39 0002 83B0     		sub	sp, sp, #12
  40              		.cfi_def_cfa_offset 32
  41 0004 0190     		str	r0, [sp, #4]
  42 0006 1600     		movs	r6, r2
  43 0008 1D00     		movs	r5, r3
ARM GAS  C:\Users\Alan\AppData\Local\Temp\ccZwtWgA.s 			page 3


  72:..\..\u8g2\csrc/u8x8_d_st75256.c ****   uint8_t x, c;
  73:..\..\u8g2\csrc/u8x8_d_st75256.c ****   uint8_t *ptr;
  74:..\..\u8g2\csrc/u8x8_d_st75256.c ****   switch(msg)
  44              		.loc 1 74 0
  45 000a 0E29     		cmp	r1, #14
  46 000c 11D0     		beq	.L3
  47 000e 0F29     		cmp	r1, #15
  48 0010 2AD0     		beq	.L4
  49 0012 0B29     		cmp	r1, #11
  50 0014 6DD1     		bne	.L10
  75:..\..\u8g2\csrc/u8x8_d_st75256.c ****   {
  76:..\..\u8g2\csrc/u8x8_d_st75256.c ****     /* handled by the calling function
  77:..\..\u8g2\csrc/u8x8_d_st75256.c ****     case U8X8_MSG_DISPLAY_SETUP_MEMORY:
  78:..\..\u8g2\csrc/u8x8_d_st75256.c ****       u8x8_d_helper_display_setup_memory(u8x8, &u8x8_st75256_256x128_display_info);
  79:..\..\u8g2\csrc/u8x8_d_st75256.c ****       break;
  80:..\..\u8g2\csrc/u8x8_d_st75256.c ****     */
  81:..\..\u8g2\csrc/u8x8_d_st75256.c ****     /* handled by the calling function
  82:..\..\u8g2\csrc/u8x8_d_st75256.c ****     case U8X8_MSG_DISPLAY_INIT:
  83:..\..\u8g2\csrc/u8x8_d_st75256.c ****       u8x8_d_helper_display_init(u8x8);
  84:..\..\u8g2\csrc/u8x8_d_st75256.c ****       u8x8_cad_SendSequence(u8x8, u8x8_d_st75256_256x128_init_seq);    
  85:..\..\u8g2\csrc/u8x8_d_st75256.c ****       break;
  86:..\..\u8g2\csrc/u8x8_d_st75256.c ****     */
  87:..\..\u8g2\csrc/u8x8_d_st75256.c ****     case U8X8_MSG_DISPLAY_SET_POWER_SAVE:
  88:..\..\u8g2\csrc/u8x8_d_st75256.c ****       if ( arg_int == 0 )
  51              		.loc 1 88 0
  52 0016 002A     		cmp	r2, #0
  53 0018 04D1     		bne	.L6
  89:..\..\u8g2\csrc/u8x8_d_st75256.c **** 	u8x8_cad_SendSequence(u8x8, u8x8_d_st75256_256x128_powersave0_seq);
  54              		.loc 1 89 0
  55 001a 3749     		ldr	r1, .L11
  56              	.LVL1:
  57 001c FFF7FEFF 		bl	u8x8_cad_SendSequence
  58              	.LVL2:
  90:..\..\u8g2\csrc/u8x8_d_st75256.c ****       else
  91:..\..\u8g2\csrc/u8x8_d_st75256.c **** 	u8x8_cad_SendSequence(u8x8, u8x8_d_st75256_256x128_powersave1_seq);
  92:..\..\u8g2\csrc/u8x8_d_st75256.c **** 
  93:..\..\u8g2\csrc/u8x8_d_st75256.c ****       break;
  94:..\..\u8g2\csrc/u8x8_d_st75256.c **** #ifdef U8X8_WITH_SET_CONTRAST
  95:..\..\u8g2\csrc/u8x8_d_st75256.c ****     case U8X8_MSG_DISPLAY_SET_CONTRAST:
  96:..\..\u8g2\csrc/u8x8_d_st75256.c **** 
  97:..\..\u8g2\csrc/u8x8_d_st75256.c ****       u8x8_cad_StartTransfer(u8x8);
  98:..\..\u8g2\csrc/u8x8_d_st75256.c ****       
  99:..\..\u8g2\csrc/u8x8_d_st75256.c ****       u8x8_cad_SendCmd(u8x8, 0x030 );
 100:..\..\u8g2\csrc/u8x8_d_st75256.c ****       u8x8_cad_SendCmd(u8x8, 0x081 );  /* there are 9 bit for the volume control */
 101:..\..\u8g2\csrc/u8x8_d_st75256.c ****       u8x8_cad_SendArg(u8x8, (arg_int & 0x1f)<<1 );	/* lower 6 bit */
 102:..\..\u8g2\csrc/u8x8_d_st75256.c ****       u8x8_cad_SendArg(u8x8, (arg_int>>5));		/* upper 3 bit */
 103:..\..\u8g2\csrc/u8x8_d_st75256.c ****       
 104:..\..\u8g2\csrc/u8x8_d_st75256.c ****       u8x8_cad_EndTransfer(u8x8);
 105:..\..\u8g2\csrc/u8x8_d_st75256.c ****       break;
 106:..\..\u8g2\csrc/u8x8_d_st75256.c **** #endif
 107:..\..\u8g2\csrc/u8x8_d_st75256.c ****     case U8X8_MSG_DISPLAY_DRAW_TILE:
 108:..\..\u8g2\csrc/u8x8_d_st75256.c ****       
 109:..\..\u8g2\csrc/u8x8_d_st75256.c ****       u8x8_cad_StartTransfer(u8x8);
 110:..\..\u8g2\csrc/u8x8_d_st75256.c ****       x = ((u8x8_tile_t *)arg_ptr)->x_pos;    
 111:..\..\u8g2\csrc/u8x8_d_st75256.c ****       x *= 8;
 112:..\..\u8g2\csrc/u8x8_d_st75256.c ****       
 113:..\..\u8g2\csrc/u8x8_d_st75256.c ****       x += u8x8->x_offset;
ARM GAS  C:\Users\Alan\AppData\Local\Temp\ccZwtWgA.s 			page 4


 114:..\..\u8g2\csrc/u8x8_d_st75256.c **** 	
 115:..\..\u8g2\csrc/u8x8_d_st75256.c ****       u8x8_cad_SendCmd(u8x8, 0x030 );	/* select command set */
 116:..\..\u8g2\csrc/u8x8_d_st75256.c ****       u8x8_cad_SendCmd(u8x8, 0x075 );	/* row */
 117:..\..\u8g2\csrc/u8x8_d_st75256.c ****       u8x8_cad_SendArg(u8x8, (((u8x8_tile_t *)arg_ptr)->y_pos));
 118:..\..\u8g2\csrc/u8x8_d_st75256.c ****       u8x8_cad_SendArg(u8x8, (((u8x8_tile_t *)arg_ptr)->y_pos));
 119:..\..\u8g2\csrc/u8x8_d_st75256.c ****       u8x8_cad_SendCmd(u8x8, 0x015 );	/* col */
 120:..\..\u8g2\csrc/u8x8_d_st75256.c ****       u8x8_cad_SendArg(u8x8, x);
 121:..\..\u8g2\csrc/u8x8_d_st75256.c ****       u8x8_cad_SendArg(u8x8, 255);
 122:..\..\u8g2\csrc/u8x8_d_st75256.c ****       u8x8_cad_SendCmd(u8x8, 0x05c );	
 123:..\..\u8g2\csrc/u8x8_d_st75256.c ****     
 124:..\..\u8g2\csrc/u8x8_d_st75256.c ****       
 125:..\..\u8g2\csrc/u8x8_d_st75256.c ****       do
 126:..\..\u8g2\csrc/u8x8_d_st75256.c ****       {
 127:..\..\u8g2\csrc/u8x8_d_st75256.c **** 	c = ((u8x8_tile_t *)arg_ptr)->cnt;
 128:..\..\u8g2\csrc/u8x8_d_st75256.c **** 	ptr = ((u8x8_tile_t *)arg_ptr)->tile_ptr;
 129:..\..\u8g2\csrc/u8x8_d_st75256.c **** 	/* SendData can not handle more than 255 bytes, treat c > 31 correctly  */
 130:..\..\u8g2\csrc/u8x8_d_st75256.c **** 	if ( c > 31 )
 131:..\..\u8g2\csrc/u8x8_d_st75256.c **** 	{
 132:..\..\u8g2\csrc/u8x8_d_st75256.c **** 	  u8x8_cad_SendData(u8x8, 248, ptr); 	
 133:..\..\u8g2\csrc/u8x8_d_st75256.c **** 	  ptr+=248;
 134:..\..\u8g2\csrc/u8x8_d_st75256.c **** 	  c -= 31;
 135:..\..\u8g2\csrc/u8x8_d_st75256.c **** 	}
 136:..\..\u8g2\csrc/u8x8_d_st75256.c **** 	u8x8_cad_SendData(u8x8, c*8, ptr); 	
 137:..\..\u8g2\csrc/u8x8_d_st75256.c **** 	arg_int--;
 138:..\..\u8g2\csrc/u8x8_d_st75256.c ****       } while( arg_int > 0 );
 139:..\..\u8g2\csrc/u8x8_d_st75256.c ****       
 140:..\..\u8g2\csrc/u8x8_d_st75256.c ****       u8x8_cad_EndTransfer(u8x8);
 141:..\..\u8g2\csrc/u8x8_d_st75256.c ****       break;
 142:..\..\u8g2\csrc/u8x8_d_st75256.c ****     default:
 143:..\..\u8g2\csrc/u8x8_d_st75256.c ****       return 0;
 144:..\..\u8g2\csrc/u8x8_d_st75256.c ****   }
 145:..\..\u8g2\csrc/u8x8_d_st75256.c ****   return 1;
  59              		.loc 1 145 0
  60 0020 0120     		movs	r0, #1
  61 0022 67E0     		b	.L2
  62              	.LVL3:
  63              	.L6:
  91:..\..\u8g2\csrc/u8x8_d_st75256.c **** 
  64              		.loc 1 91 0
  65 0024 3449     		ldr	r1, .L11
  66              	.LVL4:
  67 0026 0C31     		adds	r1, r1, #12
  68 0028 0198     		ldr	r0, [sp, #4]
  69              	.LVL5:
  70 002a FFF7FEFF 		bl	u8x8_cad_SendSequence
  71              	.LVL6:
  72              		.loc 1 145 0
  73 002e 0120     		movs	r0, #1
  74 0030 60E0     		b	.L2
  75              	.LVL7:
  76              	.L3:
  97:..\..\u8g2\csrc/u8x8_d_st75256.c ****       
  77              		.loc 1 97 0
  78 0032 019C     		ldr	r4, [sp, #4]
  79 0034 2000     		movs	r0, r4
  80              	.LVL8:
  81 0036 FFF7FEFF 		bl	u8x8_cad_StartTransfer
ARM GAS  C:\Users\Alan\AppData\Local\Temp\ccZwtWgA.s 			page 5


  82              	.LVL9:
  99:..\..\u8g2\csrc/u8x8_d_st75256.c ****       u8x8_cad_SendCmd(u8x8, 0x081 );  /* there are 9 bit for the volume control */
  83              		.loc 1 99 0
  84 003a 3021     		movs	r1, #48
  85 003c 2000     		movs	r0, r4
  86 003e FFF7FEFF 		bl	u8x8_cad_SendCmd
  87              	.LVL10:
 100:..\..\u8g2\csrc/u8x8_d_st75256.c ****       u8x8_cad_SendArg(u8x8, (arg_int & 0x1f)<<1 );	/* lower 6 bit */
  88              		.loc 1 100 0
  89 0042 8121     		movs	r1, #129
  90 0044 2000     		movs	r0, r4
  91 0046 FFF7FEFF 		bl	u8x8_cad_SendCmd
  92              	.LVL11:
 101:..\..\u8g2\csrc/u8x8_d_st75256.c ****       u8x8_cad_SendArg(u8x8, (arg_int>>5));		/* upper 3 bit */
  93              		.loc 1 101 0
  94 004a 7300     		lsls	r3, r6, #1
  95 004c 3E21     		movs	r1, #62
  96 004e 1940     		ands	r1, r3
  97 0050 2000     		movs	r0, r4
  98 0052 FFF7FEFF 		bl	u8x8_cad_SendArg
  99              	.LVL12:
 102:..\..\u8g2\csrc/u8x8_d_st75256.c ****       
 100              		.loc 1 102 0
 101 0056 7109     		lsrs	r1, r6, #5
 102 0058 2000     		movs	r0, r4
 103 005a FFF7FEFF 		bl	u8x8_cad_SendArg
 104              	.LVL13:
 104:..\..\u8g2\csrc/u8x8_d_st75256.c ****       break;
 105              		.loc 1 104 0
 106 005e 2000     		movs	r0, r4
 107 0060 FFF7FEFF 		bl	u8x8_cad_EndTransfer
 108              	.LVL14:
 109              		.loc 1 145 0
 110 0064 0120     		movs	r0, #1
 105:..\..\u8g2\csrc/u8x8_d_st75256.c **** #endif
 111              		.loc 1 105 0
 112 0066 45E0     		b	.L2
 113              	.LVL15:
 114              	.L4:
 109:..\..\u8g2\csrc/u8x8_d_st75256.c ****       x = ((u8x8_tile_t *)arg_ptr)->x_pos;    
 115              		.loc 1 109 0
 116 0068 019F     		ldr	r7, [sp, #4]
 117 006a 3800     		movs	r0, r7
 118              	.LVL16:
 119 006c FFF7FEFF 		bl	u8x8_cad_StartTransfer
 120              	.LVL17:
 110:..\..\u8g2\csrc/u8x8_d_st75256.c ****       x *= 8;
 121              		.loc 1 110 0
 122 0070 6C79     		ldrb	r4, [r5, #5]
 123              	.LVL18:
 111:..\..\u8g2\csrc/u8x8_d_st75256.c ****       
 124              		.loc 1 111 0
 125 0072 E400     		lsls	r4, r4, #3
 126              	.LVL19:
 127 0074 E4B2     		uxtb	r4, r4
 128              	.LVL20:
 113:..\..\u8g2\csrc/u8x8_d_st75256.c **** 	
ARM GAS  C:\Users\Alan\AppData\Local\Temp\ccZwtWgA.s 			page 6


 129              		.loc 1 113 0
 130 0076 BB7F     		ldrb	r3, [r7, #30]
 131 0078 E418     		adds	r4, r4, r3
 132              	.LVL21:
 133 007a E4B2     		uxtb	r4, r4
 134              	.LVL22:
 115:..\..\u8g2\csrc/u8x8_d_st75256.c ****       u8x8_cad_SendCmd(u8x8, 0x075 );	/* row */
 135              		.loc 1 115 0
 136 007c 3021     		movs	r1, #48
 137 007e 3800     		movs	r0, r7
 138 0080 FFF7FEFF 		bl	u8x8_cad_SendCmd
 139              	.LVL23:
 116:..\..\u8g2\csrc/u8x8_d_st75256.c ****       u8x8_cad_SendArg(u8x8, (((u8x8_tile_t *)arg_ptr)->y_pos));
 140              		.loc 1 116 0
 141 0084 7521     		movs	r1, #117
 142 0086 3800     		movs	r0, r7
 143 0088 FFF7FEFF 		bl	u8x8_cad_SendCmd
 144              	.LVL24:
 117:..\..\u8g2\csrc/u8x8_d_st75256.c ****       u8x8_cad_SendArg(u8x8, (((u8x8_tile_t *)arg_ptr)->y_pos));
 145              		.loc 1 117 0
 146 008c A979     		ldrb	r1, [r5, #6]
 147 008e 3800     		movs	r0, r7
 148 0090 FFF7FEFF 		bl	u8x8_cad_SendArg
 149              	.LVL25:
 118:..\..\u8g2\csrc/u8x8_d_st75256.c ****       u8x8_cad_SendCmd(u8x8, 0x015 );	/* col */
 150              		.loc 1 118 0
 151 0094 A979     		ldrb	r1, [r5, #6]
 152 0096 3800     		movs	r0, r7
 153 0098 FFF7FEFF 		bl	u8x8_cad_SendArg
 154              	.LVL26:
 119:..\..\u8g2\csrc/u8x8_d_st75256.c ****       u8x8_cad_SendArg(u8x8, x);
 155              		.loc 1 119 0
 156 009c 1521     		movs	r1, #21
 157 009e 3800     		movs	r0, r7
 158 00a0 FFF7FEFF 		bl	u8x8_cad_SendCmd
 159              	.LVL27:
 120:..\..\u8g2\csrc/u8x8_d_st75256.c ****       u8x8_cad_SendArg(u8x8, 255);
 160              		.loc 1 120 0
 161 00a4 2100     		movs	r1, r4
 162 00a6 3800     		movs	r0, r7
 163 00a8 FFF7FEFF 		bl	u8x8_cad_SendArg
 164              	.LVL28:
 121:..\..\u8g2\csrc/u8x8_d_st75256.c ****       u8x8_cad_SendCmd(u8x8, 0x05c );	
 165              		.loc 1 121 0
 166 00ac FF21     		movs	r1, #255
 167 00ae 3800     		movs	r0, r7
 168 00b0 FFF7FEFF 		bl	u8x8_cad_SendArg
 169              	.LVL29:
 122:..\..\u8g2\csrc/u8x8_d_st75256.c ****     
 170              		.loc 1 122 0
 171 00b4 5C21     		movs	r1, #92
 172 00b6 3800     		movs	r0, r7
 173 00b8 FFF7FEFF 		bl	u8x8_cad_SendCmd
 174              	.LVL30:
 175              	.L8:
 127:..\..\u8g2\csrc/u8x8_d_st75256.c **** 	ptr = ((u8x8_tile_t *)arg_ptr)->tile_ptr;
 176              		.loc 1 127 0
ARM GAS  C:\Users\Alan\AppData\Local\Temp\ccZwtWgA.s 			page 7


 177 00bc 2C79     		ldrb	r4, [r5, #4]
 178              	.LVL31:
 128:..\..\u8g2\csrc/u8x8_d_st75256.c **** 	/* SendData can not handle more than 255 bytes, treat c > 31 correctly  */
 179              		.loc 1 128 0
 180 00be 2F68     		ldr	r7, [r5]
 181              	.LVL32:
 130:..\..\u8g2\csrc/u8x8_d_st75256.c **** 	{
 182              		.loc 1 130 0
 183 00c0 1F2C     		cmp	r4, #31
 184 00c2 07D9     		bls	.L7
 132:..\..\u8g2\csrc/u8x8_d_st75256.c **** 	  ptr+=248;
 185              		.loc 1 132 0
 186 00c4 3A00     		movs	r2, r7
 187 00c6 F821     		movs	r1, #248
 188 00c8 0198     		ldr	r0, [sp, #4]
 189 00ca FFF7FEFF 		bl	u8x8_cad_SendData
 190              	.LVL33:
 133:..\..\u8g2\csrc/u8x8_d_st75256.c **** 	  c -= 31;
 191              		.loc 1 133 0
 192 00ce F837     		adds	r7, r7, #248
 193              	.LVL34:
 134:..\..\u8g2\csrc/u8x8_d_st75256.c **** 	}
 194              		.loc 1 134 0
 195 00d0 1F3C     		subs	r4, r4, #31
 196              	.LVL35:
 197 00d2 E4B2     		uxtb	r4, r4
 198              	.LVL36:
 199              	.L7:
 136:..\..\u8g2\csrc/u8x8_d_st75256.c **** 	arg_int--;
 200              		.loc 1 136 0
 201 00d4 E400     		lsls	r4, r4, #3
 202              	.LVL37:
 203 00d6 E1B2     		uxtb	r1, r4
 204 00d8 3A00     		movs	r2, r7
 205 00da 0198     		ldr	r0, [sp, #4]
 206 00dc FFF7FEFF 		bl	u8x8_cad_SendData
 207              	.LVL38:
 137:..\..\u8g2\csrc/u8x8_d_st75256.c ****       } while( arg_int > 0 );
 208              		.loc 1 137 0
 209 00e0 013E     		subs	r6, r6, #1
 210              	.LVL39:
 211 00e2 F6B2     		uxtb	r6, r6
 212              	.LVL40:
 138:..\..\u8g2\csrc/u8x8_d_st75256.c ****       
 213              		.loc 1 138 0
 214 00e4 002E     		cmp	r6, #0
 215 00e6 E9D1     		bne	.L8
 140:..\..\u8g2\csrc/u8x8_d_st75256.c ****       break;
 216              		.loc 1 140 0
 217 00e8 0198     		ldr	r0, [sp, #4]
 218 00ea FFF7FEFF 		bl	u8x8_cad_EndTransfer
 219              	.LVL41:
 220              		.loc 1 145 0
 221 00ee 0120     		movs	r0, #1
 141:..\..\u8g2\csrc/u8x8_d_st75256.c ****     default:
 222              		.loc 1 141 0
 223 00f0 00E0     		b	.L2
ARM GAS  C:\Users\Alan\AppData\Local\Temp\ccZwtWgA.s 			page 8


 224              	.LVL42:
 225              	.L10:
 143:..\..\u8g2\csrc/u8x8_d_st75256.c ****   }
 226              		.loc 1 143 0
 227 00f2 0020     		movs	r0, #0
 228              	.LVL43:
 229              	.L2:
 146:..\..\u8g2\csrc/u8x8_d_st75256.c **** }
 230              		.loc 1 146 0
 231 00f4 03B0     		add	sp, sp, #12
 232              		@ sp needed
 233              	.LVL44:
 234 00f6 F0BD     		pop	{r4, r5, r6, r7, pc}
 235              	.L12:
 236              		.align	2
 237              	.L11:
 238 00f8 00000000 		.word	.LANCHOR0
 239              		.cfi_endproc
 240              	.LFE0:
 241              		.size	u8x8_d_st75256_256x128_generic, .-u8x8_d_st75256_256x128_generic
 242              		.section	.text.u8x8_d_st75256_jlx256128,"ax",%progbits
 243              		.align	2
 244              		.global	u8x8_d_st75256_jlx256128
 245              		.code	16
 246              		.thumb_func
 247              		.type	u8x8_d_st75256_jlx256128, %function
 248              	u8x8_d_st75256_jlx256128:
 249              	.LFB1:
 147:..\..\u8g2\csrc/u8x8_d_st75256.c **** 
 148:..\..\u8g2\csrc/u8x8_d_st75256.c **** /*=============================================*/
 149:..\..\u8g2\csrc/u8x8_d_st75256.c **** 
 150:..\..\u8g2\csrc/u8x8_d_st75256.c **** static const u8x8_display_info_t u8x8_st75256_256x128_display_info =
 151:..\..\u8g2\csrc/u8x8_d_st75256.c **** {
 152:..\..\u8g2\csrc/u8x8_d_st75256.c ****   /* chip_enable_level = */ 0,
 153:..\..\u8g2\csrc/u8x8_d_st75256.c ****   /* chip_disable_level = */ 1,
 154:..\..\u8g2\csrc/u8x8_d_st75256.c ****   
 155:..\..\u8g2\csrc/u8x8_d_st75256.c ****   /* post_chip_enable_wait_ns = */ 20,
 156:..\..\u8g2\csrc/u8x8_d_st75256.c ****   /* pre_chip_disable_wait_ns = */ 20,
 157:..\..\u8g2\csrc/u8x8_d_st75256.c ****   /* reset_pulse_width_ms = */ 5, 	
 158:..\..\u8g2\csrc/u8x8_d_st75256.c ****   /* post_reset_wait_ms = */ 5, 		/**/
 159:..\..\u8g2\csrc/u8x8_d_st75256.c ****   /* sda_setup_time_ns = */ 20,		/* */
 160:..\..\u8g2\csrc/u8x8_d_st75256.c ****   /* sck_pulse_width_ns = */ 40,	/*  */
 161:..\..\u8g2\csrc/u8x8_d_st75256.c ****   /* sck_clock_hz = */ 4000000UL,	/* since Arduino 1.6.0, the SPI bus speed in Hz. Should be  10000
 162:..\..\u8g2\csrc/u8x8_d_st75256.c ****   /* spi_mode = */ 0,		/* active high, rising edge */
 163:..\..\u8g2\csrc/u8x8_d_st75256.c ****   /* i2c_bus_clock_100kHz = */ 4,	/* 400KHz */
 164:..\..\u8g2\csrc/u8x8_d_st75256.c ****   /* data_setup_time_ns = */ 15,
 165:..\..\u8g2\csrc/u8x8_d_st75256.c ****   /* write_pulse_width_ns = */ 70,	
 166:..\..\u8g2\csrc/u8x8_d_st75256.c ****   /* tile_width = */ 32,
 167:..\..\u8g2\csrc/u8x8_d_st75256.c ****   /* tile_hight = */ 16,
 168:..\..\u8g2\csrc/u8x8_d_st75256.c ****   /* default_x_offset = */ 0,	/* must be 0, because this is checked also for normal mode */
 169:..\..\u8g2\csrc/u8x8_d_st75256.c ****   /* flipmode_x_offset = */ 0,		
 170:..\..\u8g2\csrc/u8x8_d_st75256.c ****   /* pixel_width = */ 256,
 171:..\..\u8g2\csrc/u8x8_d_st75256.c ****   /* pixel_height = */ 128
 172:..\..\u8g2\csrc/u8x8_d_st75256.c **** };
 173:..\..\u8g2\csrc/u8x8_d_st75256.c **** 
 174:..\..\u8g2\csrc/u8x8_d_st75256.c **** 
 175:..\..\u8g2\csrc/u8x8_d_st75256.c **** static const uint8_t u8x8_d_st75256_256x128_init_seq[] = {
ARM GAS  C:\Users\Alan\AppData\Local\Temp\ccZwtWgA.s 			page 9


 176:..\..\u8g2\csrc/u8x8_d_st75256.c ****   U8X8_START_TRANSFER(),             	/* enable chip, delay is part of the transfer start */
 177:..\..\u8g2\csrc/u8x8_d_st75256.c ****   
 178:..\..\u8g2\csrc/u8x8_d_st75256.c ****   U8X8_DLY(120),
 179:..\..\u8g2\csrc/u8x8_d_st75256.c **** 
 180:..\..\u8g2\csrc/u8x8_d_st75256.c ****   U8X8_C( 0x030 ),				/* select 00 commands */
 181:..\..\u8g2\csrc/u8x8_d_st75256.c ****   U8X8_C( 0x06e ),				/* enable master */
 182:..\..\u8g2\csrc/u8x8_d_st75256.c **** 
 183:..\..\u8g2\csrc/u8x8_d_st75256.c ****   U8X8_C( 0x031 ),				/* select 01 commands */
 184:..\..\u8g2\csrc/u8x8_d_st75256.c ****   U8X8_CA( 0x0d7, 0x09f ),		/* disable auto read */  
 185:..\..\u8g2\csrc/u8x8_d_st75256.c ****   U8X8_DLY(20),
 186:..\..\u8g2\csrc/u8x8_d_st75256.c ****   
 187:..\..\u8g2\csrc/u8x8_d_st75256.c ****   U8X8_C( 0x031 ),				/* select 01 commands */
 188:..\..\u8g2\csrc/u8x8_d_st75256.c ****   U8X8_CA( 0x0e0, 0x000 ),		/* enable OTP read */
 189:..\..\u8g2\csrc/u8x8_d_st75256.c ****   U8X8_DLY(20),
 190:..\..\u8g2\csrc/u8x8_d_st75256.c ****   
 191:..\..\u8g2\csrc/u8x8_d_st75256.c ****   U8X8_C( 0x031 ),				/* select 01 commands */
 192:..\..\u8g2\csrc/u8x8_d_st75256.c ****   U8X8_C( 0x0e3 ),				/* OTP Upload */
 193:..\..\u8g2\csrc/u8x8_d_st75256.c ****   U8X8_DLY(20),
 194:..\..\u8g2\csrc/u8x8_d_st75256.c ****   
 195:..\..\u8g2\csrc/u8x8_d_st75256.c ****   U8X8_C( 0x031 ),				/* select 01 commands */
 196:..\..\u8g2\csrc/u8x8_d_st75256.c ****   U8X8_C( 0x0e1 ),				/* OTP controll out */
 197:..\..\u8g2\csrc/u8x8_d_st75256.c ****   U8X8_DLY(20),
 198:..\..\u8g2\csrc/u8x8_d_st75256.c ****   
 199:..\..\u8g2\csrc/u8x8_d_st75256.c ****   U8X8_C( 0x030 ),				/* select 00 commands */
 200:..\..\u8g2\csrc/u8x8_d_st75256.c ****   U8X8_C( 0x094 ),				/* sleep out */
 201:..\..\u8g2\csrc/u8x8_d_st75256.c ****   U8X8_DLY(10),
 202:..\..\u8g2\csrc/u8x8_d_st75256.c **** 
 203:..\..\u8g2\csrc/u8x8_d_st75256.c ****   U8X8_C( 0x030 ),				/* select 00 commands */
 204:..\..\u8g2\csrc/u8x8_d_st75256.c ****   U8X8_C( 0xae ),				/* display off */
 205:..\..\u8g2\csrc/u8x8_d_st75256.c ****   U8X8_DLY(10),
 206:..\..\u8g2\csrc/u8x8_d_st75256.c ****   
 207:..\..\u8g2\csrc/u8x8_d_st75256.c ****   U8X8_C( 0x030 ),				/* select 00 commands */
 208:..\..\u8g2\csrc/u8x8_d_st75256.c ****   U8X8_CA( 0x020, 0x00b ),		/* Power control: Regulator, follower & booster on */
 209:..\..\u8g2\csrc/u8x8_d_st75256.c ****   U8X8_DLY(10),
 210:..\..\u8g2\csrc/u8x8_d_st75256.c ****  
 211:..\..\u8g2\csrc/u8x8_d_st75256.c ****   U8X8_C( 0x030 ),				/* select 00 commands */
 212:..\..\u8g2\csrc/u8x8_d_st75256.c ****   U8X8_CAA( 0x81, 0x36, 0x05 ),	/* Volume control */
 213:..\..\u8g2\csrc/u8x8_d_st75256.c ****   
 214:..\..\u8g2\csrc/u8x8_d_st75256.c ****   U8X8_C( 0x031 ),				/* select 01 commands */
 215:..\..\u8g2\csrc/u8x8_d_st75256.c ****   U8X8_C( 0x020 ),				/* gray levels */
 216:..\..\u8g2\csrc/u8x8_d_st75256.c ****   U8X8_A( 0x00 ),
 217:..\..\u8g2\csrc/u8x8_d_st75256.c ****   U8X8_A( 0x00 ),
 218:..\..\u8g2\csrc/u8x8_d_st75256.c ****   U8X8_A( 0x00 ),
 219:..\..\u8g2\csrc/u8x8_d_st75256.c ****   U8X8_A( 0x17 ),
 220:..\..\u8g2\csrc/u8x8_d_st75256.c ****   U8X8_A( 0x17),
 221:..\..\u8g2\csrc/u8x8_d_st75256.c ****   U8X8_A( 0x17 ),
 222:..\..\u8g2\csrc/u8x8_d_st75256.c ****   U8X8_A( 0x00 ),
 223:..\..\u8g2\csrc/u8x8_d_st75256.c ****   U8X8_A( 0x00 ),
 224:..\..\u8g2\csrc/u8x8_d_st75256.c ****   U8X8_A( 0x1d ),
 225:..\..\u8g2\csrc/u8x8_d_st75256.c ****   U8X8_A( 0x00 ),
 226:..\..\u8g2\csrc/u8x8_d_st75256.c ****   U8X8_A( 0x00 ),
 227:..\..\u8g2\csrc/u8x8_d_st75256.c ****   U8X8_A( 0x1d ),
 228:..\..\u8g2\csrc/u8x8_d_st75256.c ****   U8X8_A( 0x1d ),
 229:..\..\u8g2\csrc/u8x8_d_st75256.c ****   U8X8_A( 0x1d ),
 230:..\..\u8g2\csrc/u8x8_d_st75256.c ****   U8X8_A( 0x00 ),
 231:..\..\u8g2\csrc/u8x8_d_st75256.c ****   U8X8_A( 0x00 ),
 232:..\..\u8g2\csrc/u8x8_d_st75256.c ****   
ARM GAS  C:\Users\Alan\AppData\Local\Temp\ccZwtWgA.s 			page 10


 233:..\..\u8g2\csrc/u8x8_d_st75256.c ****   U8X8_C( 0x031 ),				/* select 01 commands */
 234:..\..\u8g2\csrc/u8x8_d_st75256.c ****   U8X8_C( 0x032 ),				/* analog circuit set */
 235:..\..\u8g2\csrc/u8x8_d_st75256.c ****   U8X8_A( 0x000 ),				/* code example: OSC Frequency adjustment */
 236:..\..\u8g2\csrc/u8x8_d_st75256.c ****   U8X8_A( 0x001 ),				/* Frequency on booster capacitors 1 = 6KHz? */
 237:..\..\u8g2\csrc/u8x8_d_st75256.c ****   U8X8_A( 0x000 ),				/* Bias: 1: 1/13, 2: 1/12, 3: 1/11, 4:1/10, 5:1/9 */
 238:..\..\u8g2\csrc/u8x8_d_st75256.c ****   
 239:..\..\u8g2\csrc/u8x8_d_st75256.c ****   U8X8_C( 0x031 ),				/* select 01 commands */
 240:..\..\u8g2\csrc/u8x8_d_st75256.c ****   U8X8_CA( 0x051, 0x0fb ),		/* booster level x10 */
 241:..\..\u8g2\csrc/u8x8_d_st75256.c **** 
 242:..\..\u8g2\csrc/u8x8_d_st75256.c ****   U8X8_C( 0x030 ),				/* select 00 commands */ 
 243:..\..\u8g2\csrc/u8x8_d_st75256.c ****   U8X8_CA( 0x0f0, 0x011 ),		/* monochrome mode  = 0x010*/
 244:..\..\u8g2\csrc/u8x8_d_st75256.c **** 
 245:..\..\u8g2\csrc/u8x8_d_st75256.c ****   U8X8_C( 0x030 ),				/* select 00 commands */ 
 246:..\..\u8g2\csrc/u8x8_d_st75256.c ****   U8X8_C( 0xca ),				/* display control, 3 args follow  */
 247:..\..\u8g2\csrc/u8x8_d_st75256.c ****   U8X8_A( 0x00 ),				/* no clock division */
 248:..\..\u8g2\csrc/u8x8_d_st75256.c ****   U8X8_A( 0x7f ),				/* 1/128 duty value from the DS overview page*/
 249:..\..\u8g2\csrc/u8x8_d_st75256.c ****   //U8X8_A( 0x9f ),				/* 1/160 duty value from the DS example code */
 250:..\..\u8g2\csrc/u8x8_d_st75256.c ****   U8X8_A( 0x00 ),				/* nline off */ 
 251:..\..\u8g2\csrc/u8x8_d_st75256.c **** 
 252:..\..\u8g2\csrc/u8x8_d_st75256.c ****   U8X8_C( 0x030 ),				/* select 00 commands */
 253:..\..\u8g2\csrc/u8x8_d_st75256.c ****   U8X8_CA( 0xbc, 0x00 ),			/* data scan dir */
 254:..\..\u8g2\csrc/u8x8_d_st75256.c **** 
 255:..\..\u8g2\csrc/u8x8_d_st75256.c ****   U8X8_C( 0x031 ),				/* select 01 commands */
 256:..\..\u8g2\csrc/u8x8_d_st75256.c ****   U8X8_C( 0x040 ),				/* internal power */
 257:..\..\u8g2\csrc/u8x8_d_st75256.c **** 
 258:..\..\u8g2\csrc/u8x8_d_st75256.c ****   U8X8_C( 0x030 ),				/* select 00 commands */
 259:..\..\u8g2\csrc/u8x8_d_st75256.c ****   U8X8_C( 0xa6 ),				/* normal display  */
 260:..\..\u8g2\csrc/u8x8_d_st75256.c ****   U8X8_C( 0x22 ),				/* all pixel off mode  */
 261:..\..\u8g2\csrc/u8x8_d_st75256.c ****   U8X8_C( 0xaf ),				/* display on  */
 262:..\..\u8g2\csrc/u8x8_d_st75256.c **** 
 263:..\..\u8g2\csrc/u8x8_d_st75256.c ****   U8X8_C( 0x030 ),				/* select 00 commands */
 264:..\..\u8g2\csrc/u8x8_d_st75256.c ****   U8X8_CAA(0x75, 0, 16),		/* row range */
 265:..\..\u8g2\csrc/u8x8_d_st75256.c ****   U8X8_CAA(0x15, 0, 255),		/* col range */
 266:..\..\u8g2\csrc/u8x8_d_st75256.c ****   U8X8_C( 0x030 ),				/* select 00 commands */
 267:..\..\u8g2\csrc/u8x8_d_st75256.c ****   U8X8_C( 0x5c ),				/* write data to RAM  */
 268:..\..\u8g2\csrc/u8x8_d_st75256.c ****   U8X8_A( 0xff ),				/*  */
 269:..\..\u8g2\csrc/u8x8_d_st75256.c ****   U8X8_A( 0xff ),				/*  */
 270:..\..\u8g2\csrc/u8x8_d_st75256.c ****   U8X8_A( 0xff ),				/*  */
 271:..\..\u8g2\csrc/u8x8_d_st75256.c ****   U8X8_A( 0xff ),				/*  */
 272:..\..\u8g2\csrc/u8x8_d_st75256.c ****   U8X8_A( 0xff ),				/*  */
 273:..\..\u8g2\csrc/u8x8_d_st75256.c ****   U8X8_A( 0xff ),				/*  */
 274:..\..\u8g2\csrc/u8x8_d_st75256.c ****   U8X8_A( 0xff ),				/*  */
 275:..\..\u8g2\csrc/u8x8_d_st75256.c ****   U8X8_A( 0xff ),				/*  */
 276:..\..\u8g2\csrc/u8x8_d_st75256.c **** 
 277:..\..\u8g2\csrc/u8x8_d_st75256.c ****   U8X8_A( 0xff ),				/*  */
 278:..\..\u8g2\csrc/u8x8_d_st75256.c ****   U8X8_A( 0xff ),				/*  */
 279:..\..\u8g2\csrc/u8x8_d_st75256.c ****   U8X8_A( 0xff ),				/*  */
 280:..\..\u8g2\csrc/u8x8_d_st75256.c ****   U8X8_A( 0xff ),				/*  */
 281:..\..\u8g2\csrc/u8x8_d_st75256.c ****   U8X8_A( 0xff ),				/*  */
 282:..\..\u8g2\csrc/u8x8_d_st75256.c ****   U8X8_A( 0xff ),				/*  */
 283:..\..\u8g2\csrc/u8x8_d_st75256.c ****   U8X8_A( 0xff ),				/*  */
 284:..\..\u8g2\csrc/u8x8_d_st75256.c ****   U8X8_A( 0xff ),				/*  */
 285:..\..\u8g2\csrc/u8x8_d_st75256.c ****   
 286:..\..\u8g2\csrc/u8x8_d_st75256.c ****   U8X8_A( 0xff ),				/*  */
 287:..\..\u8g2\csrc/u8x8_d_st75256.c ****   U8X8_A( 0xff ),				/*  */
 288:..\..\u8g2\csrc/u8x8_d_st75256.c ****   U8X8_A( 0xff ),				/*  */
 289:..\..\u8g2\csrc/u8x8_d_st75256.c ****   U8X8_A( 0xff ),				/*  */
ARM GAS  C:\Users\Alan\AppData\Local\Temp\ccZwtWgA.s 			page 11


 290:..\..\u8g2\csrc/u8x8_d_st75256.c ****   U8X8_A( 0xff ),				/*  */
 291:..\..\u8g2\csrc/u8x8_d_st75256.c ****   U8X8_A( 0xff ),				/*  */
 292:..\..\u8g2\csrc/u8x8_d_st75256.c ****   U8X8_A( 0xff ),				/*  */
 293:..\..\u8g2\csrc/u8x8_d_st75256.c ****   U8X8_A( 0xff ),				/*  */
 294:..\..\u8g2\csrc/u8x8_d_st75256.c ****  
 295:..\..\u8g2\csrc/u8x8_d_st75256.c ****   U8X8_A( 0xaa ),				/*  */
 296:..\..\u8g2\csrc/u8x8_d_st75256.c ****   U8X8_A( 0xaa ),				/*  */
 297:..\..\u8g2\csrc/u8x8_d_st75256.c ****   U8X8_A( 0xaa ),				/*  */
 298:..\..\u8g2\csrc/u8x8_d_st75256.c ****   U8X8_A( 0xaa ),				/*  */
 299:..\..\u8g2\csrc/u8x8_d_st75256.c ****   U8X8_A( 0xaa ),				/*  */
 300:..\..\u8g2\csrc/u8x8_d_st75256.c ****   U8X8_A( 0xaa ),				/*  */
 301:..\..\u8g2\csrc/u8x8_d_st75256.c ****   U8X8_A( 0xaa ),				/*  */
 302:..\..\u8g2\csrc/u8x8_d_st75256.c ****   U8X8_A( 0xaa ),				/*  */
 303:..\..\u8g2\csrc/u8x8_d_st75256.c **** 
 304:..\..\u8g2\csrc/u8x8_d_st75256.c ****   U8X8_A( 0x55 ),				/*  */
 305:..\..\u8g2\csrc/u8x8_d_st75256.c ****   U8X8_A( 0x55 ),				/*  */
 306:..\..\u8g2\csrc/u8x8_d_st75256.c ****   U8X8_A( 0x55 ),				/*  */
 307:..\..\u8g2\csrc/u8x8_d_st75256.c ****   U8X8_A( 0x55 ),				/*  */
 308:..\..\u8g2\csrc/u8x8_d_st75256.c ****   U8X8_A( 0x55 ),				/*  */
 309:..\..\u8g2\csrc/u8x8_d_st75256.c ****   U8X8_A( 0x55 ),				/*  */
 310:..\..\u8g2\csrc/u8x8_d_st75256.c ****   U8X8_A( 0x55 ),				/*  */
 311:..\..\u8g2\csrc/u8x8_d_st75256.c ****   U8X8_A( 0x55 ),				/*  */
 312:..\..\u8g2\csrc/u8x8_d_st75256.c **** 
 313:..\..\u8g2\csrc/u8x8_d_st75256.c ****   U8X8_END_TRANSFER(),             	/* disable chip */
 314:..\..\u8g2\csrc/u8x8_d_st75256.c ****   U8X8_END()             			/* end of sequence */
 315:..\..\u8g2\csrc/u8x8_d_st75256.c **** };    
 316:..\..\u8g2\csrc/u8x8_d_st75256.c **** 
 317:..\..\u8g2\csrc/u8x8_d_st75256.c **** static const uint8_t u8x8_d_st75256_256x128_init_seq_x[] = {
 318:..\..\u8g2\csrc/u8x8_d_st75256.c ****     
 319:..\..\u8g2\csrc/u8x8_d_st75256.c ****   U8X8_START_TRANSFER(),             	/* enable chip, delay is part of the transfer start */
 320:..\..\u8g2\csrc/u8x8_d_st75256.c **** 
 321:..\..\u8g2\csrc/u8x8_d_st75256.c ****   U8X8_C( 0x030 ),				/* select 00 commands */
 322:..\..\u8g2\csrc/u8x8_d_st75256.c **** 
 323:..\..\u8g2\csrc/u8x8_d_st75256.c ****   U8X8_C( 0x094 ),				/* sleep out */
 324:..\..\u8g2\csrc/u8x8_d_st75256.c ****   U8X8_DLY(10),
 325:..\..\u8g2\csrc/u8x8_d_st75256.c ****   //U8X8_C( 0xae ),				/* display off */
 326:..\..\u8g2\csrc/u8x8_d_st75256.c **** 
 327:..\..\u8g2\csrc/u8x8_d_st75256.c ****   
 328:..\..\u8g2\csrc/u8x8_d_st75256.c ****   U8X8_C( 0x031 ),				/* select 01 commands */
 329:..\..\u8g2\csrc/u8x8_d_st75256.c ****   
 330:..\..\u8g2\csrc/u8x8_d_st75256.c ****   U8X8_C( 0x0d7 ),				/* OTP Auto Read */
 331:..\..\u8g2\csrc/u8x8_d_st75256.c ****   U8X8_A( 0x09f ),				/* ... disable */
 332:..\..\u8g2\csrc/u8x8_d_st75256.c ****   U8X8_C( 0x032 ),				/* analog circuit set */
 333:..\..\u8g2\csrc/u8x8_d_st75256.c ****   U8X8_A( 0x000 ),				/* code example: OSC Frequency adjustment */
 334:..\..\u8g2\csrc/u8x8_d_st75256.c ****   U8X8_A( 0x001 ),				/* Frequency on booster capacitors 1 = 6KHz? */
 335:..\..\u8g2\csrc/u8x8_d_st75256.c ****   U8X8_A( 0x000 ),				/* Bias: 1: 1/13, 2: 1/12, 3: 1/11, 4:1/10, 5:1/9 */
 336:..\..\u8g2\csrc/u8x8_d_st75256.c ****   U8X8_CA( 0x051, 0x0fb ),		/* booster level x10 */
 337:..\..\u8g2\csrc/u8x8_d_st75256.c **** 
 338:..\..\u8g2\csrc/u8x8_d_st75256.c ****   U8X8_C( 0x020 ),				/* gray levels */
 339:..\..\u8g2\csrc/u8x8_d_st75256.c ****   U8X8_A( 0x00 ),
 340:..\..\u8g2\csrc/u8x8_d_st75256.c ****   U8X8_A( 0x00 ),
 341:..\..\u8g2\csrc/u8x8_d_st75256.c ****   U8X8_A( 0x00 ),
 342:..\..\u8g2\csrc/u8x8_d_st75256.c ****   U8X8_A( 0x1f ),
 343:..\..\u8g2\csrc/u8x8_d_st75256.c ****   U8X8_A( 0x1f ),
 344:..\..\u8g2\csrc/u8x8_d_st75256.c ****   U8X8_A( 0x1f ),
 345:..\..\u8g2\csrc/u8x8_d_st75256.c ****   U8X8_A( 0x00 ),
 346:..\..\u8g2\csrc/u8x8_d_st75256.c ****   U8X8_A( 0x00 ),
ARM GAS  C:\Users\Alan\AppData\Local\Temp\ccZwtWgA.s 			page 12


 347:..\..\u8g2\csrc/u8x8_d_st75256.c ****   U8X8_A( 0x1f ),
 348:..\..\u8g2\csrc/u8x8_d_st75256.c ****   U8X8_A( 0x00 ),
 349:..\..\u8g2\csrc/u8x8_d_st75256.c ****   U8X8_A( 0x00 ),
 350:..\..\u8g2\csrc/u8x8_d_st75256.c ****   U8X8_A( 0x1f ),
 351:..\..\u8g2\csrc/u8x8_d_st75256.c ****   U8X8_A( 0x1f ),
 352:..\..\u8g2\csrc/u8x8_d_st75256.c ****   U8X8_A( 0x1f ),
 353:..\..\u8g2\csrc/u8x8_d_st75256.c ****   U8X8_A( 0x00 ),
 354:..\..\u8g2\csrc/u8x8_d_st75256.c ****   U8X8_A( 0x00 ),
 355:..\..\u8g2\csrc/u8x8_d_st75256.c **** /*
 356:..\..\u8g2\csrc/u8x8_d_st75256.c ****   U8X8_A( 0x01 ),
 357:..\..\u8g2\csrc/u8x8_d_st75256.c ****   U8X8_A( 0x03 ),
 358:..\..\u8g2\csrc/u8x8_d_st75256.c ****   U8X8_A( 0x05 ),
 359:..\..\u8g2\csrc/u8x8_d_st75256.c ****   U8X8_A( 0x07 ),
 360:..\..\u8g2\csrc/u8x8_d_st75256.c ****   U8X8_A( 0x09 ),
 361:..\..\u8g2\csrc/u8x8_d_st75256.c ****   U8X8_A( 0x0b ),
 362:..\..\u8g2\csrc/u8x8_d_st75256.c ****   U8X8_A( 0x0d ),
 363:..\..\u8g2\csrc/u8x8_d_st75256.c ****   U8X8_A( 0x10 ),
 364:..\..\u8g2\csrc/u8x8_d_st75256.c ****   U8X8_A( 0x11 ),
 365:..\..\u8g2\csrc/u8x8_d_st75256.c ****   U8X8_A( 0x13 ),
 366:..\..\u8g2\csrc/u8x8_d_st75256.c ****   U8X8_A( 0x15 ),
 367:..\..\u8g2\csrc/u8x8_d_st75256.c ****   U8X8_A( 0x17 ),
 368:..\..\u8g2\csrc/u8x8_d_st75256.c ****   U8X8_A( 0x19 ),
 369:..\..\u8g2\csrc/u8x8_d_st75256.c ****   U8X8_A( 0x1b ),
 370:..\..\u8g2\csrc/u8x8_d_st75256.c ****   U8X8_A( 0x1d ),
 371:..\..\u8g2\csrc/u8x8_d_st75256.c ****   U8X8_A( 0x1f ),
 372:..\..\u8g2\csrc/u8x8_d_st75256.c **** */
 373:..\..\u8g2\csrc/u8x8_d_st75256.c ****   U8X8_C( 0x030 ),				/* select 00 commands */
 374:..\..\u8g2\csrc/u8x8_d_st75256.c ****  
 375:..\..\u8g2\csrc/u8x8_d_st75256.c ****   U8X8_C( 0xca ),				/* display control, 3 args follow  */
 376:..\..\u8g2\csrc/u8x8_d_st75256.c ****   U8X8_A( 0x00 ),				/* no clock division */
 377:..\..\u8g2\csrc/u8x8_d_st75256.c ****   U8X8_A( 0x7f ),				/* 1/128 duty value from the DS overview page*/
 378:..\..\u8g2\csrc/u8x8_d_st75256.c ****   //U8X8_A( 0x9f ),				/* 1/160 duty value from the DS example code */
 379:..\..\u8g2\csrc/u8x8_d_st75256.c ****   U8X8_A( 0x00 ),				/* nline off */  
 380:..\..\u8g2\csrc/u8x8_d_st75256.c ****   U8X8_CA( 0x0f0, 0x011 ),		/* monochrome mode */
 381:..\..\u8g2\csrc/u8x8_d_st75256.c ****   //U8X8_C( 0x76 ),				/* ICON  */
 382:..\..\u8g2\csrc/u8x8_d_st75256.c **** 
 383:..\..\u8g2\csrc/u8x8_d_st75256.c ****   //U8X8_C( 0xd1 ),				/* OSC on  */
 384:..\..\u8g2\csrc/u8x8_d_st75256.c **** 
 385:..\..\u8g2\csrc/u8x8_d_st75256.c ****   U8X8_CAA( 0x81, 0x36, 0x05 ),	/* Volume control */
 386:..\..\u8g2\csrc/u8x8_d_st75256.c ****   U8X8_CA( 0x020, 0x00b ),		/* Power control: Regulator, follower & booster on */
 387:..\..\u8g2\csrc/u8x8_d_st75256.c ****   U8X8_DLY(10),
 388:..\..\u8g2\csrc/u8x8_d_st75256.c ****   U8X8_CA( 0xbc, 0x00 ),			/* data scan dir */
 389:..\..\u8g2\csrc/u8x8_d_st75256.c ****   
 390:..\..\u8g2\csrc/u8x8_d_st75256.c ****   U8X8_C( 0x030 ),				/* select 00 commands */
 391:..\..\u8g2\csrc/u8x8_d_st75256.c ****   U8X8_C( 0xa6 ),				/* normal display  */
 392:..\..\u8g2\csrc/u8x8_d_st75256.c ****   U8X8_C( 0x22 ),				/* all pixel off mode  */
 393:..\..\u8g2\csrc/u8x8_d_st75256.c ****   
 394:..\..\u8g2\csrc/u8x8_d_st75256.c ****   U8X8_C( 0x031 ),				/* select 01 commands */
 395:..\..\u8g2\csrc/u8x8_d_st75256.c ****   U8X8_C( 0x040 ),				/* internal power */
 396:..\..\u8g2\csrc/u8x8_d_st75256.c ****   
 397:..\..\u8g2\csrc/u8x8_d_st75256.c ****   U8X8_C( 0x030 ),				/* select 00 commands */
 398:..\..\u8g2\csrc/u8x8_d_st75256.c ****   U8X8_C( 0xaf ),				/* display on  */
 399:..\..\u8g2\csrc/u8x8_d_st75256.c ****   
 400:..\..\u8g2\csrc/u8x8_d_st75256.c ****   U8X8_C( 0x030 ),				/* select 00 commands */
 401:..\..\u8g2\csrc/u8x8_d_st75256.c ****   U8X8_C( 0x077 ),				/* enable ICON */
 402:..\..\u8g2\csrc/u8x8_d_st75256.c ****   U8X8_CAA( 0x015,0,255 ),		/* col */
 403:..\..\u8g2\csrc/u8x8_d_st75256.c ****   U8X8_C( 0x5c ),				/* write data to RAM  */
ARM GAS  C:\Users\Alan\AppData\Local\Temp\ccZwtWgA.s 			page 13


 404:..\..\u8g2\csrc/u8x8_d_st75256.c ****   U8X8_A( 0xff ),				/*  */
 405:..\..\u8g2\csrc/u8x8_d_st75256.c ****   U8X8_A( 0xff ),				/*  */
 406:..\..\u8g2\csrc/u8x8_d_st75256.c ****   U8X8_A( 0xff ),				/*  */
 407:..\..\u8g2\csrc/u8x8_d_st75256.c ****   U8X8_A( 0xff ),				/*  */
 408:..\..\u8g2\csrc/u8x8_d_st75256.c ****   U8X8_A( 0xff ),				/*  */
 409:..\..\u8g2\csrc/u8x8_d_st75256.c ****   U8X8_A( 0xff ),				/*  */
 410:..\..\u8g2\csrc/u8x8_d_st75256.c ****   U8X8_A( 0xff ),				/*  */
 411:..\..\u8g2\csrc/u8x8_d_st75256.c ****   U8X8_A( 0xff ),				/*  */
 412:..\..\u8g2\csrc/u8x8_d_st75256.c ****   U8X8_C( 0x076 ),				/* disable ICON */
 413:..\..\u8g2\csrc/u8x8_d_st75256.c ****   
 414:..\..\u8g2\csrc/u8x8_d_st75256.c **** 
 415:..\..\u8g2\csrc/u8x8_d_st75256.c **** 
 416:..\..\u8g2\csrc/u8x8_d_st75256.c ****   U8X8_C( 0x030 ),				/* select 00 commands */
 417:..\..\u8g2\csrc/u8x8_d_st75256.c ****   U8X8_CAA(0x75, 1, 2),		/* row range */
 418:..\..\u8g2\csrc/u8x8_d_st75256.c ****   U8X8_CAA(0x15, 0, 50),		/* col range */
 419:..\..\u8g2\csrc/u8x8_d_st75256.c ****   U8X8_C( 0x030 ),				/* select 00 commands */
 420:..\..\u8g2\csrc/u8x8_d_st75256.c ****   U8X8_C( 0x5c ),				/* write data to RAM  */
 421:..\..\u8g2\csrc/u8x8_d_st75256.c ****   U8X8_A( 0xff ),				/*  */
 422:..\..\u8g2\csrc/u8x8_d_st75256.c ****   U8X8_A( 0xfc ),				/*  */
 423:..\..\u8g2\csrc/u8x8_d_st75256.c ****   U8X8_A( 0xf0 ),				/*  */
 424:..\..\u8g2\csrc/u8x8_d_st75256.c ****   U8X8_A( 0xc0 ),				/*  */
 425:..\..\u8g2\csrc/u8x8_d_st75256.c ****   U8X8_A( 0xf0 ),				/*  */
 426:..\..\u8g2\csrc/u8x8_d_st75256.c ****   U8X8_A( 0xfc ),				/*  */
 427:..\..\u8g2\csrc/u8x8_d_st75256.c ****   U8X8_A( 0xff ),				/*  */
 428:..\..\u8g2\csrc/u8x8_d_st75256.c ****   U8X8_A( 0xfc ),				/*  */
 429:..\..\u8g2\csrc/u8x8_d_st75256.c ****   U8X8_A( 0xf0 ),				/*  */
 430:..\..\u8g2\csrc/u8x8_d_st75256.c ****   U8X8_A( 0xc0 ),				/*  */
 431:..\..\u8g2\csrc/u8x8_d_st75256.c ****   U8X8_A( 0xf0 ),				/*  */
 432:..\..\u8g2\csrc/u8x8_d_st75256.c ****   U8X8_A( 0xfc ),				/*  */
 433:..\..\u8g2\csrc/u8x8_d_st75256.c ****   U8X8_A( 0xff ),				/*  */
 434:..\..\u8g2\csrc/u8x8_d_st75256.c ****   U8X8_A( 0xff ),				/*  */
 435:..\..\u8g2\csrc/u8x8_d_st75256.c ****   U8X8_A( 0xff ),				/*  */
 436:..\..\u8g2\csrc/u8x8_d_st75256.c ****   U8X8_A( 0xff ),				/*  */
 437:..\..\u8g2\csrc/u8x8_d_st75256.c ****   U8X8_A( 0xff ),				/*  */
 438:..\..\u8g2\csrc/u8x8_d_st75256.c ****   U8X8_A( 0xff ),				/*  */
 439:..\..\u8g2\csrc/u8x8_d_st75256.c ****   U8X8_A( 0xff ),				/*  */
 440:..\..\u8g2\csrc/u8x8_d_st75256.c ****   U8X8_A( 0xff ),				/*  */
 441:..\..\u8g2\csrc/u8x8_d_st75256.c ****   U8X8_A( 0xff ),				/*  */
 442:..\..\u8g2\csrc/u8x8_d_st75256.c ****   U8X8_A( 0xff ),				/*  */
 443:..\..\u8g2\csrc/u8x8_d_st75256.c ****   U8X8_A( 0xff ),				/*  */
 444:..\..\u8g2\csrc/u8x8_d_st75256.c ****   U8X8_A( 0xff ),				/*  */
 445:..\..\u8g2\csrc/u8x8_d_st75256.c ****   U8X8_A( 0xff ),				/*  */
 446:..\..\u8g2\csrc/u8x8_d_st75256.c ****   U8X8_A( 0xff ),				/*  */
 447:..\..\u8g2\csrc/u8x8_d_st75256.c ****   U8X8_A( 0xff ),				/*  */
 448:..\..\u8g2\csrc/u8x8_d_st75256.c ****   U8X8_A( 0xff ),				/*  */
 449:..\..\u8g2\csrc/u8x8_d_st75256.c ****   U8X8_A( 0xff ),				/*  */
 450:..\..\u8g2\csrc/u8x8_d_st75256.c ****   U8X8_A( 0xff ),				/*  */
 451:..\..\u8g2\csrc/u8x8_d_st75256.c ****   U8X8_A( 0xff ),				/*  */
 452:..\..\u8g2\csrc/u8x8_d_st75256.c ****   U8X8_A( 0xff ),				/*  */
 453:..\..\u8g2\csrc/u8x8_d_st75256.c ****   
 454:..\..\u8g2\csrc/u8x8_d_st75256.c ****     
 455:..\..\u8g2\csrc/u8x8_d_st75256.c ****   U8X8_END_TRANSFER(),             	/* disable chip */
 456:..\..\u8g2\csrc/u8x8_d_st75256.c ****   U8X8_END()             			/* end of sequence */
 457:..\..\u8g2\csrc/u8x8_d_st75256.c **** };
 458:..\..\u8g2\csrc/u8x8_d_st75256.c **** 
 459:..\..\u8g2\csrc/u8x8_d_st75256.c **** 
 460:..\..\u8g2\csrc/u8x8_d_st75256.c **** static const uint8_t u8x8_d_st75256_jlx12864_flip0_seq[] = {
ARM GAS  C:\Users\Alan\AppData\Local\Temp\ccZwtWgA.s 			page 14


 461:..\..\u8g2\csrc/u8x8_d_st75256.c ****   U8X8_START_TRANSFER(),             	/* enable chip, delay is part of the transfer start */
 462:..\..\u8g2\csrc/u8x8_d_st75256.c ****   U8X8_C( 0x030 ),				/* select 00 commands */
 463:..\..\u8g2\csrc/u8x8_d_st75256.c ****   U8X8_END_TRANSFER(),             	/* disable chip */
 464:..\..\u8g2\csrc/u8x8_d_st75256.c ****   U8X8_END()             			/* end of sequence */
 465:..\..\u8g2\csrc/u8x8_d_st75256.c **** };
 466:..\..\u8g2\csrc/u8x8_d_st75256.c **** 
 467:..\..\u8g2\csrc/u8x8_d_st75256.c **** static const uint8_t u8x8_d_st75256_jlx12864_flip1_seq[] = {
 468:..\..\u8g2\csrc/u8x8_d_st75256.c ****   U8X8_START_TRANSFER(),             	/* enable chip, delay is part of the transfer start */
 469:..\..\u8g2\csrc/u8x8_d_st75256.c ****   U8X8_C( 0x030 ),				/* select 00 commands */
 470:..\..\u8g2\csrc/u8x8_d_st75256.c ****   U8X8_END_TRANSFER(),             	/* disable chip */
 471:..\..\u8g2\csrc/u8x8_d_st75256.c ****   U8X8_END()             			/* end of sequence */
 472:..\..\u8g2\csrc/u8x8_d_st75256.c **** };
 473:..\..\u8g2\csrc/u8x8_d_st75256.c **** 
 474:..\..\u8g2\csrc/u8x8_d_st75256.c **** 
 475:..\..\u8g2\csrc/u8x8_d_st75256.c **** uint8_t u8x8_d_st75256_jlx256128(u8x8_t *u8x8, uint8_t msg, uint8_t arg_int, void *arg_ptr)
 476:..\..\u8g2\csrc/u8x8_d_st75256.c **** {
 250              		.loc 1 476 0
 251              		.cfi_startproc
 252              		@ args = 0, pretend = 0, frame = 0
 253              		@ frame_needed = 0, uses_anonymous_args = 0
 254              	.LVL45:
 255 0000 70B5     		push	{r4, r5, r6, lr}
 256              		.cfi_def_cfa_offset 16
 257              		.cfi_offset 4, -16
 258              		.cfi_offset 5, -12
 259              		.cfi_offset 6, -8
 260              		.cfi_offset 14, -4
 261 0002 0400     		movs	r4, r0
 262 0004 0E00     		movs	r6, r1
 263 0006 1500     		movs	r5, r2
 477:..\..\u8g2\csrc/u8x8_d_st75256.c ****   if ( u8x8_d_st75256_256x128_generic(u8x8, msg, arg_int, arg_ptr) != 0 )
 264              		.loc 1 477 0
 265 0008 FFF7FEFF 		bl	u8x8_d_st75256_256x128_generic
 266              	.LVL46:
 267 000c 0028     		cmp	r0, #0
 268 000e 2ED1     		bne	.L19
 478:..\..\u8g2\csrc/u8x8_d_st75256.c ****     return 1;
 479:..\..\u8g2\csrc/u8x8_d_st75256.c ****   if ( msg == U8X8_MSG_DISPLAY_SETUP_MEMORY )
 269              		.loc 1 479 0
 270 0010 092E     		cmp	r6, #9
 271 0012 09D1     		bne	.L15
 480:..\..\u8g2\csrc/u8x8_d_st75256.c ****   {
 481:..\..\u8g2\csrc/u8x8_d_st75256.c ****     u8x8_SetI2CAddress(u8x8, 0x078);		/* lowest I2C adr of the ST75256 */
 272              		.loc 1 481 0
 273 0014 7822     		movs	r2, #120
 274 0016 2023     		movs	r3, #32
 275 0018 E254     		strb	r2, [r4, r3]
 482:..\..\u8g2\csrc/u8x8_d_st75256.c ****     u8x8_d_helper_display_setup_memory(u8x8, &u8x8_st75256_256x128_display_info);
 276              		.loc 1 482 0
 277 001a 1649     		ldr	r1, .L20
 278 001c 1831     		adds	r1, r1, #24
 279 001e 2000     		movs	r0, r4
 280 0020 FFF7FEFF 		bl	u8x8_d_helper_display_setup_memory
 281              	.LVL47:
 483:..\..\u8g2\csrc/u8x8_d_st75256.c ****     return 1;
 282              		.loc 1 483 0
 283 0024 0120     		movs	r0, #1
ARM GAS  C:\Users\Alan\AppData\Local\Temp\ccZwtWgA.s 			page 15


 284 0026 23E0     		b	.L14
 285              	.L15:
 484:..\..\u8g2\csrc/u8x8_d_st75256.c ****   }
 485:..\..\u8g2\csrc/u8x8_d_st75256.c ****   else if ( msg == U8X8_MSG_DISPLAY_INIT )
 286              		.loc 1 485 0
 287 0028 0A2E     		cmp	r6, #10
 288 002a 08D1     		bne	.L16
 486:..\..\u8g2\csrc/u8x8_d_st75256.c ****   {
 487:..\..\u8g2\csrc/u8x8_d_st75256.c ****     u8x8_d_helper_display_init(u8x8);
 289              		.loc 1 487 0
 290 002c 2000     		movs	r0, r4
 291 002e FFF7FEFF 		bl	u8x8_d_helper_display_init
 292              	.LVL48:
 488:..\..\u8g2\csrc/u8x8_d_st75256.c ****     u8x8_cad_SendSequence(u8x8, u8x8_d_st75256_256x128_init_seq);    
 293              		.loc 1 488 0
 294 0032 1049     		ldr	r1, .L20
 295 0034 3031     		adds	r1, r1, #48
 296 0036 2000     		movs	r0, r4
 297 0038 FFF7FEFF 		bl	u8x8_cad_SendSequence
 298              	.LVL49:
 299              	.L17:
 300 003c FEE7     		b	.L17
 301              	.L16:
 489:..\..\u8g2\csrc/u8x8_d_st75256.c ****     for(;;)
 490:..\..\u8g2\csrc/u8x8_d_st75256.c ****       ;
 491:..\..\u8g2\csrc/u8x8_d_st75256.c ****     return 1;
 492:..\..\u8g2\csrc/u8x8_d_st75256.c ****   }
 493:..\..\u8g2\csrc/u8x8_d_st75256.c ****   else if  ( msg == U8X8_MSG_DISPLAY_SET_FLIP_MODE )
 302              		.loc 1 493 0
 303 003e 0D2E     		cmp	r6, #13
 304 0040 16D1     		bne	.L14
 494:..\..\u8g2\csrc/u8x8_d_st75256.c ****   {
 495:..\..\u8g2\csrc/u8x8_d_st75256.c ****     if ( arg_int == 0 )
 305              		.loc 1 495 0
 306 0042 002D     		cmp	r5, #0
 307 0044 09D1     		bne	.L18
 496:..\..\u8g2\csrc/u8x8_d_st75256.c ****     {
 497:..\..\u8g2\csrc/u8x8_d_st75256.c ****       u8x8_cad_SendSequence(u8x8, u8x8_d_st75256_jlx12864_flip0_seq);
 308              		.loc 1 497 0
 309 0046 0C49     		ldr	r1, .L20+4
 310 0048 2C31     		adds	r1, r1, #44
 311 004a 2000     		movs	r0, r4
 312 004c FFF7FEFF 		bl	u8x8_cad_SendSequence
 313              	.LVL50:
 498:..\..\u8g2\csrc/u8x8_d_st75256.c ****       u8x8->x_offset = u8x8->display_info->default_x_offset;
 314              		.loc 1 498 0
 315 0050 2368     		ldr	r3, [r4]
 316 0052 9B7C     		ldrb	r3, [r3, #18]
 317 0054 A377     		strb	r3, [r4, #30]
 499:..\..\u8g2\csrc/u8x8_d_st75256.c ****     }
 500:..\..\u8g2\csrc/u8x8_d_st75256.c ****     else
 501:..\..\u8g2\csrc/u8x8_d_st75256.c ****     {
 502:..\..\u8g2\csrc/u8x8_d_st75256.c ****       u8x8_cad_SendSequence(u8x8, u8x8_d_st75256_jlx12864_flip1_seq);
 503:..\..\u8g2\csrc/u8x8_d_st75256.c ****       u8x8->x_offset = u8x8->display_info->flipmode_x_offset;
 504:..\..\u8g2\csrc/u8x8_d_st75256.c ****     }
 505:..\..\u8g2\csrc/u8x8_d_st75256.c ****     return 1;
 318              		.loc 1 505 0
ARM GAS  C:\Users\Alan\AppData\Local\Temp\ccZwtWgA.s 			page 16


 319 0056 0120     		movs	r0, #1
 320 0058 0AE0     		b	.L14
 321              	.L18:
 502:..\..\u8g2\csrc/u8x8_d_st75256.c ****       u8x8->x_offset = u8x8->display_info->flipmode_x_offset;
 322              		.loc 1 502 0
 323 005a 0749     		ldr	r1, .L20+4
 324 005c 3431     		adds	r1, r1, #52
 325 005e 2000     		movs	r0, r4
 326 0060 FFF7FEFF 		bl	u8x8_cad_SendSequence
 327              	.LVL51:
 503:..\..\u8g2\csrc/u8x8_d_st75256.c ****     }
 328              		.loc 1 503 0
 329 0064 2368     		ldr	r3, [r4]
 330 0066 DB7C     		ldrb	r3, [r3, #19]
 331 0068 A377     		strb	r3, [r4, #30]
 332              		.loc 1 505 0
 333 006a 0120     		movs	r0, #1
 334 006c 00E0     		b	.L14
 335              	.L19:
 478:..\..\u8g2\csrc/u8x8_d_st75256.c ****   if ( msg == U8X8_MSG_DISPLAY_SETUP_MEMORY )
 336              		.loc 1 478 0
 337 006e 0120     		movs	r0, #1
 338              	.L14:
 506:..\..\u8g2\csrc/u8x8_d_st75256.c ****   }
 507:..\..\u8g2\csrc/u8x8_d_st75256.c ****   return 0;
 508:..\..\u8g2\csrc/u8x8_d_st75256.c **** }
 339              		.loc 1 508 0
 340              		@ sp needed
 341              	.LVL52:
 342 0070 70BD     		pop	{r4, r5, r6, pc}
 343              	.L21:
 344 0072 C046     		.align	2
 345              	.L20:
 346 0074 00000000 		.word	.LANCHOR0
 347 0078 00010000 		.word	.LANCHOR1
 348              		.cfi_endproc
 349              	.LFE1:
 350              		.size	u8x8_d_st75256_jlx256128, .-u8x8_d_st75256_jlx256128
 351              		.section	.rodata
 352              		.align	2
 353              		.set	.LANCHOR0,. + 0
 354              		.set	.LANCHOR1,. + 256
 355              		.type	u8x8_d_st75256_256x128_powersave0_seq, %object
 356              		.size	u8x8_d_st75256_256x128_powersave0_seq, 11
 357              	u8x8_d_st75256_256x128_powersave0_seq:
 358 0000 18       		.byte	24
 359 0001 15       		.byte	21
 360 0002 30       		.byte	48
 361 0003 15       		.byte	21
 362 0004 94       		.byte	-108
 363 0005 FE       		.byte	-2
 364 0006 0A       		.byte	10
 365 0007 15       		.byte	21
 366 0008 AF       		.byte	-81
 367 0009 19       		.byte	25
 368 000a FF       		.byte	-1
 369 000b 00       		.space	1
ARM GAS  C:\Users\Alan\AppData\Local\Temp\ccZwtWgA.s 			page 17


 370              		.type	u8x8_d_st75256_256x128_powersave1_seq, %object
 371              		.size	u8x8_d_st75256_256x128_powersave1_seq, 9
 372              	u8x8_d_st75256_256x128_powersave1_seq:
 373 000c 18       		.byte	24
 374 000d 15       		.byte	21
 375 000e 30       		.byte	48
 376 000f 15       		.byte	21
 377 0010 AE       		.byte	-82
 378 0011 15       		.byte	21
 379 0012 95       		.byte	-107
 380 0013 19       		.byte	25
 381 0014 FF       		.byte	-1
 382 0015 000000   		.space	3
 383              		.type	u8x8_st75256_256x128_display_info, %object
 384              		.size	u8x8_st75256_256x128_display_info, 24
 385              	u8x8_st75256_256x128_display_info:
 386 0018 00       		.byte	0
 387 0019 01       		.byte	1
 388 001a 14       		.byte	20
 389 001b 14       		.byte	20
 390 001c 05       		.byte	5
 391 001d 05       		.byte	5
 392 001e 14       		.byte	20
 393 001f 28       		.byte	40
 394 0020 00093D00 		.word	4000000
 395 0024 00       		.byte	0
 396 0025 04       		.byte	4
 397 0026 0F       		.byte	15
 398 0027 46       		.byte	70
 399 0028 20       		.byte	32
 400 0029 10       		.byte	16
 401 002a 00       		.byte	0
 402 002b 00       		.byte	0
 403 002c 0001     		.short	256
 404 002e 8000     		.short	128
 405              		.type	u8x8_d_st75256_256x128_init_seq, %object
 406              		.size	u8x8_d_st75256_256x128_init_seq, 249
 407              	u8x8_d_st75256_256x128_init_seq:
 408 0030 18       		.byte	24
 409 0031 FE       		.byte	-2
 410 0032 78       		.byte	120
 411 0033 15       		.byte	21
 412 0034 30       		.byte	48
 413 0035 15       		.byte	21
 414 0036 6E       		.byte	110
 415 0037 15       		.byte	21
 416 0038 31       		.byte	49
 417 0039 15       		.byte	21
 418 003a D7       		.byte	-41
 419 003b 16       		.byte	22
 420 003c 9F       		.byte	-97
 421 003d FE       		.byte	-2
 422 003e 14       		.byte	20
 423 003f 15       		.byte	21
 424 0040 31       		.byte	49
 425 0041 15       		.byte	21
 426 0042 E0       		.byte	-32
ARM GAS  C:\Users\Alan\AppData\Local\Temp\ccZwtWgA.s 			page 18


 427 0043 16       		.byte	22
 428 0044 00       		.byte	0
 429 0045 FE       		.byte	-2
 430 0046 14       		.byte	20
 431 0047 15       		.byte	21
 432 0048 31       		.byte	49
 433 0049 15       		.byte	21
 434 004a E3       		.byte	-29
 435 004b FE       		.byte	-2
 436 004c 14       		.byte	20
 437 004d 15       		.byte	21
 438 004e 31       		.byte	49
 439 004f 15       		.byte	21
 440 0050 E1       		.byte	-31
 441 0051 FE       		.byte	-2
 442 0052 14       		.byte	20
 443 0053 15       		.byte	21
 444 0054 30       		.byte	48
 445 0055 15       		.byte	21
 446 0056 94       		.byte	-108
 447 0057 FE       		.byte	-2
 448 0058 0A       		.byte	10
 449 0059 15       		.byte	21
 450 005a 30       		.byte	48
 451 005b 15       		.byte	21
 452 005c AE       		.byte	-82
 453 005d FE       		.byte	-2
 454 005e 0A       		.byte	10
 455 005f 15       		.byte	21
 456 0060 30       		.byte	48
 457 0061 15       		.byte	21
 458 0062 20       		.byte	32
 459 0063 16       		.byte	22
 460 0064 0B       		.byte	11
 461 0065 FE       		.byte	-2
 462 0066 0A       		.byte	10
 463 0067 15       		.byte	21
 464 0068 30       		.byte	48
 465 0069 15       		.byte	21
 466 006a 81       		.byte	-127
 467 006b 16       		.byte	22
 468 006c 36       		.byte	54
 469 006d 16       		.byte	22
 470 006e 05       		.byte	5
 471 006f 15       		.byte	21
 472 0070 31       		.byte	49
 473 0071 15       		.byte	21
 474 0072 20       		.byte	32
 475 0073 16       		.byte	22
 476 0074 00       		.byte	0
 477 0075 16       		.byte	22
 478 0076 00       		.byte	0
 479 0077 16       		.byte	22
 480 0078 00       		.byte	0
 481 0079 16       		.byte	22
 482 007a 17       		.byte	23
 483 007b 16       		.byte	22
ARM GAS  C:\Users\Alan\AppData\Local\Temp\ccZwtWgA.s 			page 19


 484 007c 17       		.byte	23
 485 007d 16       		.byte	22
 486 007e 17       		.byte	23
 487 007f 16       		.byte	22
 488 0080 00       		.byte	0
 489 0081 16       		.byte	22
 490 0082 00       		.byte	0
 491 0083 16       		.byte	22
 492 0084 1D       		.byte	29
 493 0085 16       		.byte	22
 494 0086 00       		.byte	0
 495 0087 16       		.byte	22
 496 0088 00       		.byte	0
 497 0089 16       		.byte	22
 498 008a 1D       		.byte	29
 499 008b 16       		.byte	22
 500 008c 1D       		.byte	29
 501 008d 16       		.byte	22
 502 008e 1D       		.byte	29
 503 008f 16       		.byte	22
 504 0090 00       		.byte	0
 505 0091 16       		.byte	22
 506 0092 00       		.byte	0
 507 0093 15       		.byte	21
 508 0094 31       		.byte	49
 509 0095 15       		.byte	21
 510 0096 32       		.byte	50
 511 0097 16       		.byte	22
 512 0098 00       		.byte	0
 513 0099 16       		.byte	22
 514 009a 01       		.byte	1
 515 009b 16       		.byte	22
 516 009c 00       		.byte	0
 517 009d 15       		.byte	21
 518 009e 31       		.byte	49
 519 009f 15       		.byte	21
 520 00a0 51       		.byte	81
 521 00a1 16       		.byte	22
 522 00a2 FB       		.byte	-5
 523 00a3 15       		.byte	21
 524 00a4 30       		.byte	48
 525 00a5 15       		.byte	21
 526 00a6 F0       		.byte	-16
 527 00a7 16       		.byte	22
 528 00a8 11       		.byte	17
 529 00a9 15       		.byte	21
 530 00aa 30       		.byte	48
 531 00ab 15       		.byte	21
 532 00ac CA       		.byte	-54
 533 00ad 16       		.byte	22
 534 00ae 00       		.byte	0
 535 00af 16       		.byte	22
 536 00b0 7F       		.byte	127
 537 00b1 16       		.byte	22
 538 00b2 00       		.byte	0
 539 00b3 15       		.byte	21
 540 00b4 30       		.byte	48
ARM GAS  C:\Users\Alan\AppData\Local\Temp\ccZwtWgA.s 			page 20


 541 00b5 15       		.byte	21
 542 00b6 BC       		.byte	-68
 543 00b7 16       		.byte	22
 544 00b8 00       		.byte	0
 545 00b9 15       		.byte	21
 546 00ba 31       		.byte	49
 547 00bb 15       		.byte	21
 548 00bc 40       		.byte	64
 549 00bd 15       		.byte	21
 550 00be 30       		.byte	48
 551 00bf 15       		.byte	21
 552 00c0 A6       		.byte	-90
 553 00c1 15       		.byte	21
 554 00c2 22       		.byte	34
 555 00c3 15       		.byte	21
 556 00c4 AF       		.byte	-81
 557 00c5 15       		.byte	21
 558 00c6 30       		.byte	48
 559 00c7 15       		.byte	21
 560 00c8 75       		.byte	117
 561 00c9 16       		.byte	22
 562 00ca 00       		.byte	0
 563 00cb 16       		.byte	22
 564 00cc 10       		.byte	16
 565 00cd 15       		.byte	21
 566 00ce 15       		.byte	21
 567 00cf 16       		.byte	22
 568 00d0 00       		.byte	0
 569 00d1 16       		.byte	22
 570 00d2 FF       		.byte	-1
 571 00d3 15       		.byte	21
 572 00d4 30       		.byte	48
 573 00d5 15       		.byte	21
 574 00d6 5C       		.byte	92
 575 00d7 16       		.byte	22
 576 00d8 FF       		.byte	-1
 577 00d9 16       		.byte	22
 578 00da FF       		.byte	-1
 579 00db 16       		.byte	22
 580 00dc FF       		.byte	-1
 581 00dd 16       		.byte	22
 582 00de FF       		.byte	-1
 583 00df 16       		.byte	22
 584 00e0 FF       		.byte	-1
 585 00e1 16       		.byte	22
 586 00e2 FF       		.byte	-1
 587 00e3 16       		.byte	22
 588 00e4 FF       		.byte	-1
 589 00e5 16       		.byte	22
 590 00e6 FF       		.byte	-1
 591 00e7 16       		.byte	22
 592 00e8 FF       		.byte	-1
 593 00e9 16       		.byte	22
 594 00ea FF       		.byte	-1
 595 00eb 16       		.byte	22
 596 00ec FF       		.byte	-1
 597 00ed 16       		.byte	22
ARM GAS  C:\Users\Alan\AppData\Local\Temp\ccZwtWgA.s 			page 21


 598 00ee FF       		.byte	-1
 599 00ef 16       		.byte	22
 600 00f0 FF       		.byte	-1
 601 00f1 16       		.byte	22
 602 00f2 FF       		.byte	-1
 603 00f3 16       		.byte	22
 604 00f4 FF       		.byte	-1
 605 00f5 16       		.byte	22
 606 00f6 FF       		.byte	-1
 607 00f7 16       		.byte	22
 608 00f8 FF       		.byte	-1
 609 00f9 16       		.byte	22
 610 00fa FF       		.byte	-1
 611 00fb 16       		.byte	22
 612 00fc FF       		.byte	-1
 613 00fd 16       		.byte	22
 614 00fe FF       		.byte	-1
 615 00ff 16       		.byte	22
 616 0100 FF       		.byte	-1
 617 0101 16       		.byte	22
 618 0102 FF       		.byte	-1
 619 0103 16       		.byte	22
 620 0104 FF       		.byte	-1
 621 0105 16       		.byte	22
 622 0106 FF       		.byte	-1
 623 0107 16       		.byte	22
 624 0108 AA       		.byte	-86
 625 0109 16       		.byte	22
 626 010a AA       		.byte	-86
 627 010b 16       		.byte	22
 628 010c AA       		.byte	-86
 629 010d 16       		.byte	22
 630 010e AA       		.byte	-86
 631 010f 16       		.byte	22
 632 0110 AA       		.byte	-86
 633 0111 16       		.byte	22
 634 0112 AA       		.byte	-86
 635 0113 16       		.byte	22
 636 0114 AA       		.byte	-86
 637 0115 16       		.byte	22
 638 0116 AA       		.byte	-86
 639 0117 16       		.byte	22
 640 0118 55       		.byte	85
 641 0119 16       		.byte	22
 642 011a 55       		.byte	85
 643 011b 16       		.byte	22
 644 011c 55       		.byte	85
 645 011d 16       		.byte	22
 646 011e 55       		.byte	85
 647 011f 16       		.byte	22
 648 0120 55       		.byte	85
 649 0121 16       		.byte	22
 650 0122 55       		.byte	85
 651 0123 16       		.byte	22
 652 0124 55       		.byte	85
 653 0125 16       		.byte	22
 654 0126 55       		.byte	85
ARM GAS  C:\Users\Alan\AppData\Local\Temp\ccZwtWgA.s 			page 22


 655 0127 19       		.byte	25
 656 0128 FF       		.byte	-1
 657 0129 000000   		.space	3
 658              		.type	u8x8_d_st75256_jlx12864_flip0_seq, %object
 659              		.size	u8x8_d_st75256_jlx12864_flip0_seq, 5
 660              	u8x8_d_st75256_jlx12864_flip0_seq:
 661 012c 18       		.byte	24
 662 012d 15       		.byte	21
 663 012e 30       		.byte	48
 664 012f 19       		.byte	25
 665 0130 FF       		.byte	-1
 666 0131 000000   		.space	3
 667              		.type	u8x8_d_st75256_jlx12864_flip1_seq, %object
 668              		.size	u8x8_d_st75256_jlx12864_flip1_seq, 5
 669              	u8x8_d_st75256_jlx12864_flip1_seq:
 670 0134 18       		.byte	24
 671 0135 15       		.byte	21
 672 0136 30       		.byte	48
 673 0137 19       		.byte	25
 674 0138 FF       		.byte	-1
 675              		.text
 676              	.Letext0:
 677              		.file 2 "c:\\program files (x86)\\cypress\\psoc creator\\4.1\\psoc creator\\import\\gnu\\arm\\5.4.
 678              		.file 3 "c:\\program files (x86)\\cypress\\psoc creator\\4.1\\psoc creator\\import\\gnu\\arm\\5.4.
 679              		.file 4 "..\\..\\u8g2\\csrc\\u8x8.h"