ARM GAS  C:\Users\gjl\AppData\Local\Temp\ccuXqGZ3.s 			page 1


   1              		.syntax unified
   2              		.cpu cortex-m0
   3              		.fpu softvfp
   4              		.eabi_attribute 20, 1
   5              		.eabi_attribute 21, 1
   6              		.eabi_attribute 23, 3
   7              		.eabi_attribute 24, 1
   8              		.eabi_attribute 25, 1
   9              		.eabi_attribute 26, 1
  10              		.eabi_attribute 30, 1
  11              		.eabi_attribute 34, 0
  12              		.eabi_attribute 18, 4
  13              		.thumb
  14              		.syntax unified
  15              		.file	"u8x8_d_ssd1606_172x72.c"
  16              		.text
  17              	.Ltext0:
  18              		.cfi_sections	.debug_frame
  19              		.section	.text.u8x8_convert_tile_for_ssd1606,"ax",%progbits
  20              		.align	2
  21              		.code	16
  22              		.thumb_func
  23              		.type	u8x8_convert_tile_for_ssd1606, %function
  24              	u8x8_convert_tile_for_ssd1606:
  25              	.LFB0:
  26              		.file 1 "..\\u8g2\\csrc\\u8x8_d_ssd1606_172x72.c"
   1:..\u8g2\csrc/u8x8_d_ssd1606_172x72.c **** /*
   2:..\u8g2\csrc/u8x8_d_ssd1606_172x72.c **** 
   3:..\u8g2\csrc/u8x8_d_ssd1606_172x72.c ****   u8x8_d_ssd1606_172x72.c
   4:..\u8g2\csrc/u8x8_d_ssd1606_172x72.c **** 
   5:..\u8g2\csrc/u8x8_d_ssd1606_172x72.c ****   Universal 8bit Graphics Library (https://github.com/olikraus/u8g2/)
   6:..\u8g2\csrc/u8x8_d_ssd1606_172x72.c **** 
   7:..\u8g2\csrc/u8x8_d_ssd1606_172x72.c ****   Copyright (c) 2016, olikraus@gmail.com
   8:..\u8g2\csrc/u8x8_d_ssd1606_172x72.c ****   All rights reserved.
   9:..\u8g2\csrc/u8x8_d_ssd1606_172x72.c **** 
  10:..\u8g2\csrc/u8x8_d_ssd1606_172x72.c ****   Redistribution and use in source and binary forms, with or without modification, 
  11:..\u8g2\csrc/u8x8_d_ssd1606_172x72.c ****   are permitted provided that the following conditions are met:
  12:..\u8g2\csrc/u8x8_d_ssd1606_172x72.c **** 
  13:..\u8g2\csrc/u8x8_d_ssd1606_172x72.c ****   * Redistributions of source code must retain the above copyright notice, this list 
  14:..\u8g2\csrc/u8x8_d_ssd1606_172x72.c ****     of conditions and the following disclaimer.
  15:..\u8g2\csrc/u8x8_d_ssd1606_172x72.c ****     
  16:..\u8g2\csrc/u8x8_d_ssd1606_172x72.c ****   * Redistributions in binary form must reproduce the above copyright notice, this 
  17:..\u8g2\csrc/u8x8_d_ssd1606_172x72.c ****     list of conditions and the following disclaimer in the documentation and/or other 
  18:..\u8g2\csrc/u8x8_d_ssd1606_172x72.c ****     materials provided with the distribution.
  19:..\u8g2\csrc/u8x8_d_ssd1606_172x72.c **** 
  20:..\u8g2\csrc/u8x8_d_ssd1606_172x72.c ****   THIS SOFTWARE IS PROVIDED BY THE COPYRIGHT HOLDERS AND 
  21:..\u8g2\csrc/u8x8_d_ssd1606_172x72.c ****   CONTRIBUTORS "AS IS" AND ANY EXPRESS OR IMPLIED WARRANTIES, 
  22:..\u8g2\csrc/u8x8_d_ssd1606_172x72.c ****   INCLUDING, BUT NOT LIMITED TO, THE IMPLIED WARRANTIES OF 
  23:..\u8g2\csrc/u8x8_d_ssd1606_172x72.c ****   MERCHANTABILITY AND FITNESS FOR A PARTICULAR PURPOSE ARE 
  24:..\u8g2\csrc/u8x8_d_ssd1606_172x72.c ****   DISCLAIMED. IN NO EVENT SHALL THE COPYRIGHT HOLDER OR 
  25:..\u8g2\csrc/u8x8_d_ssd1606_172x72.c ****   CONTRIBUTORS BE LIABLE FOR ANY DIRECT, INDIRECT, INCIDENTAL, 
  26:..\u8g2\csrc/u8x8_d_ssd1606_172x72.c ****   SPECIAL, EXEMPLARY, OR CONSEQUENTIAL DAMAGES (INCLUDING, BUT 
  27:..\u8g2\csrc/u8x8_d_ssd1606_172x72.c ****   NOT LIMITED TO, PROCUREMENT OF SUBSTITUTE GOODS OR SERVICES; 
  28:..\u8g2\csrc/u8x8_d_ssd1606_172x72.c ****   LOSS OF USE, DATA, OR PROFITS; OR BUSINESS INTERRUPTION) HOWEVER 
  29:..\u8g2\csrc/u8x8_d_ssd1606_172x72.c ****   CAUSED AND ON ANY THEORY OF LIABILITY, WHETHER IN CONTRACT, 
  30:..\u8g2\csrc/u8x8_d_ssd1606_172x72.c ****   STRICT LIABILITY, OR TORT (INCLUDING NEGLIGENCE OR OTHERWISE) 
  31:..\u8g2\csrc/u8x8_d_ssd1606_172x72.c ****   ARISING IN ANY WAY OUT OF THE USE OF THIS SOFTWARE, EVEN IF 
ARM GAS  C:\Users\gjl\AppData\Local\Temp\ccuXqGZ3.s 			page 2


  32:..\u8g2\csrc/u8x8_d_ssd1606_172x72.c ****   ADVISED OF THE POSSIBILITY OF SUCH DAMAGE.  
  33:..\u8g2\csrc/u8x8_d_ssd1606_172x72.c ****   
  34:..\u8g2\csrc/u8x8_d_ssd1606_172x72.c ****   SSD1606: 128x180x2 
  35:..\u8g2\csrc/u8x8_d_ssd1606_172x72.c ****   two-bit, four graylevels
  36:..\u8g2\csrc/u8x8_d_ssd1606_172x72.c ****   command 
  37:..\u8g2\csrc/u8x8_d_ssd1606_172x72.c ****     0x22: assign actions
  38:..\u8g2\csrc/u8x8_d_ssd1606_172x72.c ****     0x20: execute actions
  39:..\u8g2\csrc/u8x8_d_ssd1606_172x72.c ****   
  40:..\u8g2\csrc/u8x8_d_ssd1606_172x72.c ****   action for command 0x022 are (more or less guessed)
  41:..\u8g2\csrc/u8x8_d_ssd1606_172x72.c ****     bit 7:	Enable Clock
  42:..\u8g2\csrc/u8x8_d_ssd1606_172x72.c ****     bit 6:	Enable Charge Pump
  43:..\u8g2\csrc/u8x8_d_ssd1606_172x72.c ****     bit 5:	Load Temparture Value (???)
  44:..\u8g2\csrc/u8x8_d_ssd1606_172x72.c ****     bit 4:	Load LUT (???)
  45:..\u8g2\csrc/u8x8_d_ssd1606_172x72.c ****     bit 3:	Initial Display (???)
  46:..\u8g2\csrc/u8x8_d_ssd1606_172x72.c ****     bit 2:	Pattern Display --> Requires about 945ms with the LUT from below
  47:..\u8g2\csrc/u8x8_d_ssd1606_172x72.c ****     bit 1:	Disable Charge Pump
  48:..\u8g2\csrc/u8x8_d_ssd1606_172x72.c ****     bit 0:	Disable Clock
  49:..\u8g2\csrc/u8x8_d_ssd1606_172x72.c ****     
  50:..\u8g2\csrc/u8x8_d_ssd1606_172x72.c ****     Disable Charge Pump and Clock require about 267ms
  51:..\u8g2\csrc/u8x8_d_ssd1606_172x72.c ****     Enable Charge Pump and Clock require about 10ms
  52:..\u8g2\csrc/u8x8_d_ssd1606_172x72.c **** 
  53:..\u8g2\csrc/u8x8_d_ssd1606_172x72.c ****   Notes:
  54:..\u8g2\csrc/u8x8_d_ssd1606_172x72.c ****     - Introduced a refresh display message, which copies RAM to display
  55:..\u8g2\csrc/u8x8_d_ssd1606_172x72.c ****     - Charge pump and clock are only enabled for the transfer RAM to display
  56:..\u8g2\csrc/u8x8_d_ssd1606_172x72.c ****     - U8x8 will not really work because of the two buffers in the SSD1606, however U8g2 should be o
  57:..\u8g2\csrc/u8x8_d_ssd1606_172x72.c **** 
  58:..\u8g2\csrc/u8x8_d_ssd1606_172x72.c **** */
  59:..\u8g2\csrc/u8x8_d_ssd1606_172x72.c **** 
  60:..\u8g2\csrc/u8x8_d_ssd1606_172x72.c **** 
  61:..\u8g2\csrc/u8x8_d_ssd1606_172x72.c **** #include "u8x8.h"
  62:..\u8g2\csrc/u8x8_d_ssd1606_172x72.c **** 
  63:..\u8g2\csrc/u8x8_d_ssd1606_172x72.c **** 
  64:..\u8g2\csrc/u8x8_d_ssd1606_172x72.c **** #define L(a,b,c,d) (((a)<<6)|((b)<<4)|((c)<<2)|(d))
  65:..\u8g2\csrc/u8x8_d_ssd1606_172x72.c **** 
  66:..\u8g2\csrc/u8x8_d_ssd1606_172x72.c **** 
  67:..\u8g2\csrc/u8x8_d_ssd1606_172x72.c **** /* GDE021A1, 2.1" EPD */
  68:..\u8g2\csrc/u8x8_d_ssd1606_172x72.c **** static const uint8_t u8x8_d_ssd1606_172x72_gde021a1_init_seq[] = {
  69:..\u8g2\csrc/u8x8_d_ssd1606_172x72.c ****     
  70:..\u8g2\csrc/u8x8_d_ssd1606_172x72.c ****   U8X8_START_TRANSFER(),             	/* enable chip, delay is part of the transfer start */
  71:..\u8g2\csrc/u8x8_d_ssd1606_172x72.c **** 
  72:..\u8g2\csrc/u8x8_d_ssd1606_172x72.c ****   U8X8_CA(0x10, 0x00),	/* Deep Sleep mode Control: Disable */
  73:..\u8g2\csrc/u8x8_d_ssd1606_172x72.c ****   U8X8_CA(0x11, 0x03),	/* Define data entry mode, x&y inc, x first */
  74:..\u8g2\csrc/u8x8_d_ssd1606_172x72.c ****   U8X8_CAA(0x44, 0, 31),	/* RAM x start & end, each byte has 4 pixel, 32*4=128 */
  75:..\u8g2\csrc/u8x8_d_ssd1606_172x72.c ****   U8X8_CAA(0x45, 0, 179),	/* RAM y start & end, 179 MAX */
  76:..\u8g2\csrc/u8x8_d_ssd1606_172x72.c ****   
  77:..\u8g2\csrc/u8x8_d_ssd1606_172x72.c ****   U8X8_CA(0x4e, 0),	/* set x pos, 0..31 */
  78:..\u8g2\csrc/u8x8_d_ssd1606_172x72.c ****   U8X8_CA(0x4f, 0),	/* set y pos, 0...179 */
  79:..\u8g2\csrc/u8x8_d_ssd1606_172x72.c **** 
  80:..\u8g2\csrc/u8x8_d_ssd1606_172x72.c ****   U8X8_CA(0xf0, 0x1f),	/* set booster feedback to internal */
  81:..\u8g2\csrc/u8x8_d_ssd1606_172x72.c ****   U8X8_CA(0x22, 0xc0),	/* display update seq. option: enable clk, enable CP, .... todo: this is nev
  82:..\u8g2\csrc/u8x8_d_ssd1606_172x72.c ****   
  83:..\u8g2\csrc/u8x8_d_ssd1606_172x72.c ****   U8X8_C(0x32),	/* write LUT register*/
  84:..\u8g2\csrc/u8x8_d_ssd1606_172x72.c **** 
  85:..\u8g2\csrc/u8x8_d_ssd1606_172x72.c **** #ifdef ORIGINAL_LUT
  86:..\u8g2\csrc/u8x8_d_ssd1606_172x72.c ****   
  87:..\u8g2\csrc/u8x8_d_ssd1606_172x72.c ****   /* wavefrom part of the LUT: absolute LUT... this will always force the destination color */
  88:..\u8g2\csrc/u8x8_d_ssd1606_172x72.c ****   U8X8_A4(0x00,0x00,0x00,0x55),  /* step 0 */
ARM GAS  C:\Users\gjl\AppData\Local\Temp\ccuXqGZ3.s 			page 3


  89:..\u8g2\csrc/u8x8_d_ssd1606_172x72.c ****   U8X8_A4(0x00,0x00,0x55,0x55),	/* step 1 */
  90:..\u8g2\csrc/u8x8_d_ssd1606_172x72.c ****   U8X8_A4(0x00,0x55,0x55,0x55),
  91:..\u8g2\csrc/u8x8_d_ssd1606_172x72.c ****   U8X8_A4(0xAA,0xAA,0xAA,0xAA),
  92:..\u8g2\csrc/u8x8_d_ssd1606_172x72.c ****   U8X8_A4(0x15,0x15,0x15,0x15),
  93:..\u8g2\csrc/u8x8_d_ssd1606_172x72.c ****   U8X8_A4(0x05,0x05,0x05,0x05),
  94:..\u8g2\csrc/u8x8_d_ssd1606_172x72.c ****   U8X8_A4(0x01,0x01,0x01,0x01),
  95:..\u8g2\csrc/u8x8_d_ssd1606_172x72.c ****   U8X8_A4(0x00,0x00,0x00,0x00),
  96:..\u8g2\csrc/u8x8_d_ssd1606_172x72.c ****   U8X8_A4(0x00,0x00,0x00,0x00),
  97:..\u8g2\csrc/u8x8_d_ssd1606_172x72.c ****   U8X8_A4(0x00,0x00,0x00,0x00),
  98:..\u8g2\csrc/u8x8_d_ssd1606_172x72.c ****   U8X8_A4(0x00,0x00,0x00,0x00),
  99:..\u8g2\csrc/u8x8_d_ssd1606_172x72.c ****   U8X8_A4(0x00,0x00,0x00,0x00),
 100:..\u8g2\csrc/u8x8_d_ssd1606_172x72.c ****   U8X8_A4(0x00,0x00,0x00,0x00),
 101:..\u8g2\csrc/u8x8_d_ssd1606_172x72.c ****   U8X8_A4(0x00,0x00,0x00,0x00),
 102:..\u8g2\csrc/u8x8_d_ssd1606_172x72.c ****   U8X8_A4(0x00,0x00,0x00,0x00),
 103:..\u8g2\csrc/u8x8_d_ssd1606_172x72.c ****   U8X8_A4(0x00,0x00,0x00,0x00),
 104:..\u8g2\csrc/u8x8_d_ssd1606_172x72.c ****   U8X8_A4(0x00,0x00,0x00,0x00),
 105:..\u8g2\csrc/u8x8_d_ssd1606_172x72.c ****   U8X8_A4(0x00,0x00,0x00,0x00),
 106:..\u8g2\csrc/u8x8_d_ssd1606_172x72.c ****   U8X8_A4(0x00,0x00,0x00,0x00),
 107:..\u8g2\csrc/u8x8_d_ssd1606_172x72.c ****   U8X8_A4(0x00,0x00,0x00,0x00),	/* step 19 */
 108:..\u8g2\csrc/u8x8_d_ssd1606_172x72.c ****   
 109:..\u8g2\csrc/u8x8_d_ssd1606_172x72.c ****   /* timing part of the LUT */
 110:..\u8g2\csrc/u8x8_d_ssd1606_172x72.c ****   U8X8_A8(0x22,0xFB,0x22,0x1B,0x00,0x00,0x00,0x00),
 111:..\u8g2\csrc/u8x8_d_ssd1606_172x72.c ****   U8X8_A(0x00),U8X8_A(0x00),
 112:..\u8g2\csrc/u8x8_d_ssd1606_172x72.c **** 
 113:..\u8g2\csrc/u8x8_d_ssd1606_172x72.c **** #else
 114:..\u8g2\csrc/u8x8_d_ssd1606_172x72.c **** 
 115:..\u8g2\csrc/u8x8_d_ssd1606_172x72.c ****   /* the following LUT will not change anything if the old and the new values are the same */
 116:..\u8g2\csrc/u8x8_d_ssd1606_172x72.c ****   /* 03 02 01 00	13 12 11 10 	23 22 21 20	33 32 31 30 				original */
 117:..\u8g2\csrc/u8x8_d_ssd1606_172x72.c ****   U8X8_A4(L(0, 0, 0, 0), 	L(0, 0, 0, 0), 	L(0, 0, 0, 0), 	L(0, 1, 1, 1)),		// 0x00,0x00,0x00,0x55,	
 118:..\u8g2\csrc/u8x8_d_ssd1606_172x72.c ****   U8X8_A4(L(0, 0, 0, 0), 	L(0, 0, 0, 0), 	L(1, 0, 1, 1), 	L(0, 1, 1, 1)),		// 0x00,0x00,0x55,0x55,	
 119:..\u8g2\csrc/u8x8_d_ssd1606_172x72.c ****   U8X8_A4(L(0, 0, 0, 0), 	L(1, 1, 0, 1), 	L(1, 0, 1, 1), 	L(0, 1, 1, 1)),		// 0x00,0x55,0x55,0x55,	
 120:..\u8g2\csrc/u8x8_d_ssd1606_172x72.c ****   U8X8_A4(L(2, 2, 2, 0), 	L(2, 2, 0, 2), 	L(2, 0, 2, 2), 	L(0, 2, 2, 2)),		// 0xAA,0xAA,0xAA,0xAA,	
 121:..\u8g2\csrc/u8x8_d_ssd1606_172x72.c ****   U8X8_A4(L(0, 1, 1, 0), 	L(0, 1, 0, 1), 	L(0, 0, 1, 1), 	L(0, 1, 1, 1)),		// 0x15,0x15,0x15,0x15,	
 122:..\u8g2\csrc/u8x8_d_ssd1606_172x72.c ****   U8X8_A4(L(0, 0, 1, 0), 	L(0, 0, 0, 1), 	L(0, 0, 1, 1), 	L(0, 0, 1, 1)),		// 0x05,0x05,0x05,0x05,	
 123:..\u8g2\csrc/u8x8_d_ssd1606_172x72.c ****   U8X8_A4(L(0, 0, 0, 0), 	L(0, 0, 0, 1), 	L(0, 0, 0, 1), 	L(0, 0, 0, 1)),		// 0x01,0x01,0x01,0x01,	
 124:..\u8g2\csrc/u8x8_d_ssd1606_172x72.c ****   U8X8_A4(0x00,0x00,0x00,0x00),
 125:..\u8g2\csrc/u8x8_d_ssd1606_172x72.c ****   U8X8_A4(0x00,0x00,0x00,0x00),
 126:..\u8g2\csrc/u8x8_d_ssd1606_172x72.c ****   U8X8_A4(0x00,0x00,0x00,0x00),
 127:..\u8g2\csrc/u8x8_d_ssd1606_172x72.c ****   U8X8_A4(0x00,0x00,0x00,0x00),
 128:..\u8g2\csrc/u8x8_d_ssd1606_172x72.c ****   U8X8_A4(0x00,0x00,0x00,0x00),
 129:..\u8g2\csrc/u8x8_d_ssd1606_172x72.c ****   U8X8_A4(0x00,0x00,0x00,0x00),
 130:..\u8g2\csrc/u8x8_d_ssd1606_172x72.c ****   U8X8_A4(0x00,0x00,0x00,0x00),
 131:..\u8g2\csrc/u8x8_d_ssd1606_172x72.c ****   U8X8_A4(0x00,0x00,0x00,0x00),
 132:..\u8g2\csrc/u8x8_d_ssd1606_172x72.c ****   U8X8_A4(0x00,0x00,0x00,0x00),
 133:..\u8g2\csrc/u8x8_d_ssd1606_172x72.c ****   U8X8_A4(0x00,0x00,0x00,0x00),
 134:..\u8g2\csrc/u8x8_d_ssd1606_172x72.c ****   U8X8_A4(0x00,0x00,0x00,0x00),
 135:..\u8g2\csrc/u8x8_d_ssd1606_172x72.c ****   U8X8_A4(0x00,0x00,0x00,0x00),
 136:..\u8g2\csrc/u8x8_d_ssd1606_172x72.c ****   U8X8_A4(0x00,0x00,0x00,0x00),	/* step 19 */
 137:..\u8g2\csrc/u8x8_d_ssd1606_172x72.c ****   
 138:..\u8g2\csrc/u8x8_d_ssd1606_172x72.c ****   /* timing part of the LUT */
 139:..\u8g2\csrc/u8x8_d_ssd1606_172x72.c ****   U8X8_A8(0x22,0xFB,0x22,0x1B,0x00,0x00,0x00,0x00),
 140:..\u8g2\csrc/u8x8_d_ssd1606_172x72.c ****   U8X8_A(0x00),U8X8_A(0x00),
 141:..\u8g2\csrc/u8x8_d_ssd1606_172x72.c **** 
 142:..\u8g2\csrc/u8x8_d_ssd1606_172x72.c **** #endif
 143:..\u8g2\csrc/u8x8_d_ssd1606_172x72.c ****   
 144:..\u8g2\csrc/u8x8_d_ssd1606_172x72.c ****   U8X8_CA(0x2c, 0xa0),	/* write vcom value*/
 145:..\u8g2\csrc/u8x8_d_ssd1606_172x72.c ****   U8X8_CA(0x3c, 0x63),	/* select boarder waveform */
ARM GAS  C:\Users\gjl\AppData\Local\Temp\ccuXqGZ3.s 			page 4


 146:..\u8g2\csrc/u8x8_d_ssd1606_172x72.c ****   U8X8_CA(0x22, 0xc4),	/* display update seq. option: clk -> CP -> LUT -> initial display -> patter
 147:..\u8g2\csrc/u8x8_d_ssd1606_172x72.c ****     /* 0x0c4 is mentioned in chapter 9.2 of the GDE021A1 data sheet */
 148:..\u8g2\csrc/u8x8_d_ssd1606_172x72.c ****   
 149:..\u8g2\csrc/u8x8_d_ssd1606_172x72.c ****   U8X8_END_TRANSFER(),             	/* disable chip */
 150:..\u8g2\csrc/u8x8_d_ssd1606_172x72.c ****   U8X8_END()             			/* end of sequence */
 151:..\u8g2\csrc/u8x8_d_ssd1606_172x72.c **** };
 152:..\u8g2\csrc/u8x8_d_ssd1606_172x72.c **** 
 153:..\u8g2\csrc/u8x8_d_ssd1606_172x72.c **** static const uint8_t u8x8_d_ssd1606_to_display_seq[] = {
 154:..\u8g2\csrc/u8x8_d_ssd1606_172x72.c ****   U8X8_START_TRANSFER(),             	/* enable chip, delay is part of the transfer start */
 155:..\u8g2\csrc/u8x8_d_ssd1606_172x72.c ****   
 156:..\u8g2\csrc/u8x8_d_ssd1606_172x72.c ****   
 157:..\u8g2\csrc/u8x8_d_ssd1606_172x72.c ****   //U8X8_CA(0x22, 0xc0),	/* display update seq. option: Enable clock and charge pump */
 158:..\u8g2\csrc/u8x8_d_ssd1606_172x72.c ****   //U8X8_C(0x20),	/* execute sequence */
 159:..\u8g2\csrc/u8x8_d_ssd1606_172x72.c ****   //U8X8_DLY(10),
 160:..\u8g2\csrc/u8x8_d_ssd1606_172x72.c ****   /* strange, splitting 0x0c0 does not work reliable */
 161:..\u8g2\csrc/u8x8_d_ssd1606_172x72.c ****   
 162:..\u8g2\csrc/u8x8_d_ssd1606_172x72.c ****   U8X8_CA(0x22, 0xc4),	/* display update seq. option: clk -> CP -> LUT -> initial display -> patter
 163:..\u8g2\csrc/u8x8_d_ssd1606_172x72.c ****   U8X8_C(0x20),	/* execute sequence */
 164:..\u8g2\csrc/u8x8_d_ssd1606_172x72.c ****   U8X8_DLY(250),	/* the sequence above requires about 970ms */
 165:..\u8g2\csrc/u8x8_d_ssd1606_172x72.c ****   U8X8_DLY(250),
 166:..\u8g2\csrc/u8x8_d_ssd1606_172x72.c ****   U8X8_DLY(250),
 167:..\u8g2\csrc/u8x8_d_ssd1606_172x72.c ****   U8X8_DLY(230),
 168:..\u8g2\csrc/u8x8_d_ssd1606_172x72.c ****   
 169:..\u8g2\csrc/u8x8_d_ssd1606_172x72.c ****   U8X8_CA(0x22, 0x03),	/* disable clock and charge pump */
 170:..\u8g2\csrc/u8x8_d_ssd1606_172x72.c ****   U8X8_DLY(200),		/* this requres about 270ms */
 171:..\u8g2\csrc/u8x8_d_ssd1606_172x72.c ****   U8X8_DLY(90),  
 172:..\u8g2\csrc/u8x8_d_ssd1606_172x72.c ****   
 173:..\u8g2\csrc/u8x8_d_ssd1606_172x72.c ****   U8X8_END_TRANSFER(),             	/* disable chip */
 174:..\u8g2\csrc/u8x8_d_ssd1606_172x72.c ****   U8X8_END()             			/* end of sequence */
 175:..\u8g2\csrc/u8x8_d_ssd1606_172x72.c **** };
 176:..\u8g2\csrc/u8x8_d_ssd1606_172x72.c **** 
 177:..\u8g2\csrc/u8x8_d_ssd1606_172x72.c **** static const uint8_t u8x8_d_ssd1606_172x72_powersave0_seq[] = {
 178:..\u8g2\csrc/u8x8_d_ssd1606_172x72.c ****   U8X8_START_TRANSFER(),             	/* enable chip, delay is part of the transfer start */
 179:..\u8g2\csrc/u8x8_d_ssd1606_172x72.c ****   U8X8_END_TRANSFER(),             	/* disable chip */
 180:..\u8g2\csrc/u8x8_d_ssd1606_172x72.c ****   U8X8_END()             			/* end of sequence */
 181:..\u8g2\csrc/u8x8_d_ssd1606_172x72.c **** };
 182:..\u8g2\csrc/u8x8_d_ssd1606_172x72.c **** 
 183:..\u8g2\csrc/u8x8_d_ssd1606_172x72.c **** static const uint8_t u8x8_d_ssd1606_172x72_powersave1_seq[] = {
 184:..\u8g2\csrc/u8x8_d_ssd1606_172x72.c ****   U8X8_START_TRANSFER(),             	/* enable chip, delay is part of the transfer start */
 185:..\u8g2\csrc/u8x8_d_ssd1606_172x72.c ****   U8X8_END_TRANSFER(),             	/* disable chip */
 186:..\u8g2\csrc/u8x8_d_ssd1606_172x72.c ****   U8X8_END()             			/* end of sequence */
 187:..\u8g2\csrc/u8x8_d_ssd1606_172x72.c **** };
 188:..\u8g2\csrc/u8x8_d_ssd1606_172x72.c **** 
 189:..\u8g2\csrc/u8x8_d_ssd1606_172x72.c **** static const uint8_t u8x8_d_ssd1606_172x72_flip0_seq[] = {
 190:..\u8g2\csrc/u8x8_d_ssd1606_172x72.c ****   U8X8_START_TRANSFER(),             	/* enable chip, delay is part of the transfer start */
 191:..\u8g2\csrc/u8x8_d_ssd1606_172x72.c ****   U8X8_END_TRANSFER(),             	/* disable chip */
 192:..\u8g2\csrc/u8x8_d_ssd1606_172x72.c ****   U8X8_END()             			/* end of sequence */
 193:..\u8g2\csrc/u8x8_d_ssd1606_172x72.c **** };
 194:..\u8g2\csrc/u8x8_d_ssd1606_172x72.c **** 
 195:..\u8g2\csrc/u8x8_d_ssd1606_172x72.c **** static const uint8_t u8x8_d_ssd1606_172x72_flip1_seq[] = {
 196:..\u8g2\csrc/u8x8_d_ssd1606_172x72.c ****   U8X8_START_TRANSFER(),             	/* enable chip, delay is part of the transfer start */
 197:..\u8g2\csrc/u8x8_d_ssd1606_172x72.c ****   U8X8_END_TRANSFER(),             	/* disable chip */
 198:..\u8g2\csrc/u8x8_d_ssd1606_172x72.c ****   U8X8_END()             			/* end of sequence */
 199:..\u8g2\csrc/u8x8_d_ssd1606_172x72.c **** };
 200:..\u8g2\csrc/u8x8_d_ssd1606_172x72.c **** 
 201:..\u8g2\csrc/u8x8_d_ssd1606_172x72.c **** 
 202:..\u8g2\csrc/u8x8_d_ssd1606_172x72.c **** static uint8_t *u8x8_convert_tile_for_ssd1606(uint8_t *t)
ARM GAS  C:\Users\gjl\AppData\Local\Temp\ccuXqGZ3.s 			page 5


 203:..\u8g2\csrc/u8x8_d_ssd1606_172x72.c **** {
  27              		.loc 1 203 0
  28              		.cfi_startproc
  29              		@ args = 0, pretend = 0, frame = 0
  30              		@ frame_needed = 0, uses_anonymous_args = 0
  31              	.LVL0:
  32 0000 70B5     		push	{r4, r5, r6, lr}
  33              		.cfi_def_cfa_offset 16
  34              		.cfi_offset 4, -16
  35              		.cfi_offset 5, -12
  36              		.cfi_offset 6, -8
  37              		.cfi_offset 14, -4
  38              	.LVL1:
 204:..\u8g2\csrc/u8x8_d_ssd1606_172x72.c ****   uint8_t i;
 205:..\u8g2\csrc/u8x8_d_ssd1606_172x72.c ****   uint16_t r;
 206:..\u8g2\csrc/u8x8_d_ssd1606_172x72.c ****   static uint8_t buf[16];
 207:..\u8g2\csrc/u8x8_d_ssd1606_172x72.c ****   uint8_t *pbuf = buf;
  39              		.loc 1 207 0
  40 0002 0A4D     		ldr	r5, .L4
 208:..\u8g2\csrc/u8x8_d_ssd1606_172x72.c **** 
 209:..\u8g2\csrc/u8x8_d_ssd1606_172x72.c ****   for( i = 0; i < 8; i++ )
  41              		.loc 1 209 0
  42 0004 0024     		movs	r4, #0
  43 0006 0CE0     		b	.L2
  44              	.LVL2:
  45              	.L3:
 210:..\u8g2\csrc/u8x8_d_ssd1606_172x72.c ****   {
 211:..\u8g2\csrc/u8x8_d_ssd1606_172x72.c ****     r = u8x8_upscale_byte(~(*t++));
  46              		.loc 1 211 0 discriminator 3
  47 0008 461C     		adds	r6, r0, #1
  48              	.LVL3:
  49 000a 0078     		ldrb	r0, [r0]
  50 000c C043     		mvns	r0, r0
  51 000e C0B2     		uxtb	r0, r0
  52 0010 FFF7FEFF 		bl	u8x8_upscale_byte
  53              	.LVL4:
 212:..\u8g2\csrc/u8x8_d_ssd1606_172x72.c ****     *pbuf++ = (r>>8) & 255;
  54              		.loc 1 212 0 discriminator 3
  55 0014 030A     		lsrs	r3, r0, #8
  56 0016 2B70     		strb	r3, [r5]
  57              	.LVL5:
 213:..\u8g2\csrc/u8x8_d_ssd1606_172x72.c ****     *pbuf++ = r & 255;
  58              		.loc 1 213 0 discriminator 3
  59 0018 6870     		strb	r0, [r5, #1]
 209:..\u8g2\csrc/u8x8_d_ssd1606_172x72.c ****   {
  60              		.loc 1 209 0 discriminator 3
  61 001a 0134     		adds	r4, r4, #1
  62              	.LVL6:
  63 001c E4B2     		uxtb	r4, r4
  64              	.LVL7:
  65              		.loc 1 213 0 discriminator 3
  66 001e 0235     		adds	r5, r5, #2
  67              	.LVL8:
 211:..\u8g2\csrc/u8x8_d_ssd1606_172x72.c ****     *pbuf++ = (r>>8) & 255;
  68              		.loc 1 211 0 discriminator 3
  69 0020 3000     		movs	r0, r6
  70              	.LVL9:
ARM GAS  C:\Users\gjl\AppData\Local\Temp\ccuXqGZ3.s 			page 6


  71              	.L2:
 209:..\u8g2\csrc/u8x8_d_ssd1606_172x72.c ****   {
  72              		.loc 1 209 0 discriminator 1
  73 0022 072C     		cmp	r4, #7
  74 0024 F0D9     		bls	.L3
 214:..\u8g2\csrc/u8x8_d_ssd1606_172x72.c ****   }
 215:..\u8g2\csrc/u8x8_d_ssd1606_172x72.c ****   return buf;
 216:..\u8g2\csrc/u8x8_d_ssd1606_172x72.c **** }
  75              		.loc 1 216 0
  76 0026 0148     		ldr	r0, .L4
  77              	.LVL10:
  78              		@ sp needed
  79              	.LVL11:
  80              	.LVL12:
  81 0028 70BD     		pop	{r4, r5, r6, pc}
  82              	.L5:
  83 002a C046     		.align	2
  84              	.L4:
  85 002c 00000000 		.word	.LANCHOR0
  86              		.cfi_endproc
  87              	.LFE0:
  88              		.size	u8x8_convert_tile_for_ssd1606, .-u8x8_convert_tile_for_ssd1606
  89              		.section	.text.u8x8_d_ssd1606_draw_tile,"ax",%progbits
  90              		.align	2
  91              		.code	16
  92              		.thumb_func
  93              		.type	u8x8_d_ssd1606_draw_tile, %function
  94              	u8x8_d_ssd1606_draw_tile:
  95              	.LFB1:
 217:..\u8g2\csrc/u8x8_d_ssd1606_172x72.c **** 
 218:..\u8g2\csrc/u8x8_d_ssd1606_172x72.c **** static void u8x8_d_ssd1606_draw_tile(u8x8_t *u8x8, uint8_t arg_int, void *arg_ptr) U8X8_NOINLINE;
 219:..\u8g2\csrc/u8x8_d_ssd1606_172x72.c **** static void u8x8_d_ssd1606_draw_tile(u8x8_t *u8x8, uint8_t arg_int, void *arg_ptr)
 220:..\u8g2\csrc/u8x8_d_ssd1606_172x72.c **** {
  96              		.loc 1 220 0
  97              		.cfi_startproc
  98              		@ args = 0, pretend = 0, frame = 0
  99              		@ frame_needed = 0, uses_anonymous_args = 0
 100              	.LVL13:
 101 0000 F0B5     		push	{r4, r5, r6, r7, lr}
 102              		.cfi_def_cfa_offset 20
 103              		.cfi_offset 4, -20
 104              		.cfi_offset 5, -16
 105              		.cfi_offset 6, -12
 106              		.cfi_offset 7, -8
 107              		.cfi_offset 14, -4
 108 0002 4746     		mov	r7, r8
 109 0004 80B4     		push	{r7}
 110              		.cfi_def_cfa_offset 24
 111              		.cfi_offset 8, -24
 112 0006 0600     		movs	r6, r0
 113 0008 0F00     		movs	r7, r1
 114 000a 9046     		mov	r8, r2
 221:..\u8g2\csrc/u8x8_d_ssd1606_172x72.c ****   uint8_t x, c, page;
 222:..\u8g2\csrc/u8x8_d_ssd1606_172x72.c ****   uint8_t *ptr;
 223:..\u8g2\csrc/u8x8_d_ssd1606_172x72.c ****   u8x8_cad_StartTransfer(u8x8);
 115              		.loc 1 223 0
 116 000c FFF7FEFF 		bl	u8x8_cad_StartTransfer
ARM GAS  C:\Users\gjl\AppData\Local\Temp\ccuXqGZ3.s 			page 7


 117              	.LVL14:
 224:..\u8g2\csrc/u8x8_d_ssd1606_172x72.c **** 
 225:..\u8g2\csrc/u8x8_d_ssd1606_172x72.c ****   page = u8x8->display_info->tile_height;
 118              		.loc 1 225 0
 119 0010 3368     		ldr	r3, [r6]
 120 0012 5C7C     		ldrb	r4, [r3, #17]
 121              	.LVL15:
 226:..\u8g2\csrc/u8x8_d_ssd1606_172x72.c ****   page --;
 122              		.loc 1 226 0
 123 0014 013C     		subs	r4, r4, #1
 124              	.LVL16:
 125 0016 E3B2     		uxtb	r3, r4
 126              	.LVL17:
 227:..\u8g2\csrc/u8x8_d_ssd1606_172x72.c ****   page -= (((u8x8_tile_t *)arg_ptr)->y_pos);
 127              		.loc 1 227 0
 128 0018 4246     		mov	r2, r8
 129 001a 9479     		ldrb	r4, [r2, #6]
 130 001c 1C1B     		subs	r4, r3, r4
 131 001e E4B2     		uxtb	r4, r4
 132              	.LVL18:
 228:..\u8g2\csrc/u8x8_d_ssd1606_172x72.c ****   page *= 2;
 133              		.loc 1 228 0
 134 0020 6400     		lsls	r4, r4, #1
 135              	.LVL19:
 136 0022 E4B2     		uxtb	r4, r4
 137              	.LVL20:
 229:..\u8g2\csrc/u8x8_d_ssd1606_172x72.c **** 
 230:..\u8g2\csrc/u8x8_d_ssd1606_172x72.c **** 
 231:..\u8g2\csrc/u8x8_d_ssd1606_172x72.c ****   x = ((u8x8_tile_t *)arg_ptr)->x_pos;
 138              		.loc 1 231 0
 139 0024 5579     		ldrb	r5, [r2, #5]
 140              	.LVL21:
 232:..\u8g2\csrc/u8x8_d_ssd1606_172x72.c ****   x *= 8;
 141              		.loc 1 232 0
 142 0026 ED00     		lsls	r5, r5, #3
 143              	.LVL22:
 144 0028 EDB2     		uxtb	r5, r5
 145              	.LVL23:
 233:..\u8g2\csrc/u8x8_d_ssd1606_172x72.c ****   x += u8x8->x_offset;
 146              		.loc 1 233 0
 147 002a B37F     		ldrb	r3, [r6, #30]
 148 002c ED18     		adds	r5, r5, r3
 149              	.LVL24:
 150 002e EDB2     		uxtb	r5, r5
 151              	.LVL25:
 234:..\u8g2\csrc/u8x8_d_ssd1606_172x72.c **** 
 235:..\u8g2\csrc/u8x8_d_ssd1606_172x72.c ****   u8x8_cad_SendCmd(u8x8, 0x00f );	/* scan start */
 152              		.loc 1 235 0
 153 0030 0F21     		movs	r1, #15
 154 0032 3000     		movs	r0, r6
 155 0034 FFF7FEFF 		bl	u8x8_cad_SendCmd
 156              	.LVL26:
 236:..\u8g2\csrc/u8x8_d_ssd1606_172x72.c ****   u8x8_cad_SendArg(u8x8, 0);
 157              		.loc 1 236 0
 158 0038 0021     		movs	r1, #0
 159 003a 3000     		movs	r0, r6
 160 003c FFF7FEFF 		bl	u8x8_cad_SendArg
ARM GAS  C:\Users\gjl\AppData\Local\Temp\ccuXqGZ3.s 			page 8


 161              	.LVL27:
 237:..\u8g2\csrc/u8x8_d_ssd1606_172x72.c **** 
 238:..\u8g2\csrc/u8x8_d_ssd1606_172x72.c ****   u8x8_cad_SendCmd(u8x8, 0x011 );	/* cursor increment mode */
 162              		.loc 1 238 0
 163 0040 1121     		movs	r1, #17
 164 0042 3000     		movs	r0, r6
 165 0044 FFF7FEFF 		bl	u8x8_cad_SendCmd
 166              	.LVL28:
 239:..\u8g2\csrc/u8x8_d_ssd1606_172x72.c ****   u8x8_cad_SendArg(u8x8, 3);
 167              		.loc 1 239 0
 168 0048 0321     		movs	r1, #3
 169 004a 3000     		movs	r0, r6
 170 004c FFF7FEFF 		bl	u8x8_cad_SendArg
 171              	.LVL29:
 240:..\u8g2\csrc/u8x8_d_ssd1606_172x72.c **** 
 241:..\u8g2\csrc/u8x8_d_ssd1606_172x72.c ****   u8x8_cad_SendCmd(u8x8, 0x045 );	/* window start column */
 172              		.loc 1 241 0
 173 0050 4521     		movs	r1, #69
 174 0052 3000     		movs	r0, r6
 175 0054 FFF7FEFF 		bl	u8x8_cad_SendCmd
 176              	.LVL30:
 242:..\u8g2\csrc/u8x8_d_ssd1606_172x72.c ****   u8x8_cad_SendArg(u8x8, 0);
 177              		.loc 1 242 0
 178 0058 0021     		movs	r1, #0
 179 005a 3000     		movs	r0, r6
 180 005c FFF7FEFF 		bl	u8x8_cad_SendArg
 181              	.LVL31:
 243:..\u8g2\csrc/u8x8_d_ssd1606_172x72.c ****   u8x8_cad_SendArg(u8x8, 179);		/* end of display */
 182              		.loc 1 243 0
 183 0060 B321     		movs	r1, #179
 184 0062 3000     		movs	r0, r6
 185 0064 FFF7FEFF 		bl	u8x8_cad_SendArg
 186              	.LVL32:
 244:..\u8g2\csrc/u8x8_d_ssd1606_172x72.c **** 
 245:..\u8g2\csrc/u8x8_d_ssd1606_172x72.c ****   u8x8_cad_SendCmd(u8x8, 0x044 );	/* window end page */
 187              		.loc 1 245 0
 188 0068 4421     		movs	r1, #68
 189 006a 3000     		movs	r0, r6
 190 006c FFF7FEFF 		bl	u8x8_cad_SendCmd
 191              	.LVL33:
 246:..\u8g2\csrc/u8x8_d_ssd1606_172x72.c ****   u8x8_cad_SendArg(u8x8, page);
 192              		.loc 1 246 0
 193 0070 2100     		movs	r1, r4
 194 0072 3000     		movs	r0, r6
 195 0074 FFF7FEFF 		bl	u8x8_cad_SendArg
 196              	.LVL34:
 247:..\u8g2\csrc/u8x8_d_ssd1606_172x72.c ****   u8x8_cad_SendArg(u8x8, page+1);
 197              		.loc 1 247 0
 198 0078 611C     		adds	r1, r4, #1
 199 007a C9B2     		uxtb	r1, r1
 200 007c 3000     		movs	r0, r6
 201 007e FFF7FEFF 		bl	u8x8_cad_SendArg
 202              	.LVL35:
 248:..\u8g2\csrc/u8x8_d_ssd1606_172x72.c **** 
 249:..\u8g2\csrc/u8x8_d_ssd1606_172x72.c ****   u8x8_cad_SendCmd(u8x8, 0x04f );	/* window column */
 203              		.loc 1 249 0
 204 0082 4F21     		movs	r1, #79
ARM GAS  C:\Users\gjl\AppData\Local\Temp\ccuXqGZ3.s 			page 9


 205 0084 3000     		movs	r0, r6
 206 0086 FFF7FEFF 		bl	u8x8_cad_SendCmd
 207              	.LVL36:
 250:..\u8g2\csrc/u8x8_d_ssd1606_172x72.c ****   u8x8_cad_SendArg(u8x8, x);
 208              		.loc 1 250 0
 209 008a 2900     		movs	r1, r5
 210 008c 3000     		movs	r0, r6
 211 008e FFF7FEFF 		bl	u8x8_cad_SendArg
 212              	.LVL37:
 251:..\u8g2\csrc/u8x8_d_ssd1606_172x72.c **** 
 252:..\u8g2\csrc/u8x8_d_ssd1606_172x72.c ****   u8x8_cad_SendCmd(u8x8, 0x04e );	/* window row */
 213              		.loc 1 252 0
 214 0092 4E21     		movs	r1, #78
 215 0094 3000     		movs	r0, r6
 216 0096 FFF7FEFF 		bl	u8x8_cad_SendCmd
 217              	.LVL38:
 253:..\u8g2\csrc/u8x8_d_ssd1606_172x72.c ****   u8x8_cad_SendArg(u8x8, page);
 218              		.loc 1 253 0
 219 009a 2100     		movs	r1, r4
 220 009c 3000     		movs	r0, r6
 221 009e FFF7FEFF 		bl	u8x8_cad_SendArg
 222              	.LVL39:
 254:..\u8g2\csrc/u8x8_d_ssd1606_172x72.c **** 
 255:..\u8g2\csrc/u8x8_d_ssd1606_172x72.c ****   u8x8_cad_SendCmd(u8x8, 0x024 );
 223              		.loc 1 255 0
 224 00a2 2421     		movs	r1, #36
 225 00a4 3000     		movs	r0, r6
 226 00a6 FFF7FEFF 		bl	u8x8_cad_SendCmd
 227              	.LVL40:
 228              	.L8:
 256:..\u8g2\csrc/u8x8_d_ssd1606_172x72.c ****   
 257:..\u8g2\csrc/u8x8_d_ssd1606_172x72.c ****   do
 258:..\u8g2\csrc/u8x8_d_ssd1606_172x72.c ****   {
 259:..\u8g2\csrc/u8x8_d_ssd1606_172x72.c ****     c = ((u8x8_tile_t *)arg_ptr)->cnt;
 229              		.loc 1 259 0
 230 00aa 4346     		mov	r3, r8
 231 00ac 1C79     		ldrb	r4, [r3, #4]
 232              	.LVL41:
 260:..\u8g2\csrc/u8x8_d_ssd1606_172x72.c ****     ptr = ((u8x8_tile_t *)arg_ptr)->tile_ptr;
 233              		.loc 1 260 0
 234 00ae 1D68     		ldr	r5, [r3]
 235              	.LVL42:
 236              	.L7:
 261:..\u8g2\csrc/u8x8_d_ssd1606_172x72.c ****     do
 262:..\u8g2\csrc/u8x8_d_ssd1606_172x72.c ****     {
 263:..\u8g2\csrc/u8x8_d_ssd1606_172x72.c ****       u8x8_cad_SendData(u8x8, 16, u8x8_convert_tile_for_ssd1606(ptr));
 237              		.loc 1 263 0 discriminator 1
 238 00b0 2800     		movs	r0, r5
 239 00b2 FFF7FEFF 		bl	u8x8_convert_tile_for_ssd1606
 240              	.LVL43:
 241 00b6 0200     		movs	r2, r0
 242 00b8 1021     		movs	r1, #16
 243 00ba 3000     		movs	r0, r6
 244 00bc FFF7FEFF 		bl	u8x8_cad_SendData
 245              	.LVL44:
 264:..\u8g2\csrc/u8x8_d_ssd1606_172x72.c ****       ptr += 8;
 246              		.loc 1 264 0 discriminator 1
ARM GAS  C:\Users\gjl\AppData\Local\Temp\ccuXqGZ3.s 			page 10


 247 00c0 0835     		adds	r5, r5, #8
 248              	.LVL45:
 265:..\u8g2\csrc/u8x8_d_ssd1606_172x72.c ****       x += 8;
 266:..\u8g2\csrc/u8x8_d_ssd1606_172x72.c ****       c--;
 249              		.loc 1 266 0 discriminator 1
 250 00c2 013C     		subs	r4, r4, #1
 251              	.LVL46:
 252 00c4 E4B2     		uxtb	r4, r4
 253              	.LVL47:
 267:..\u8g2\csrc/u8x8_d_ssd1606_172x72.c ****     } while( c > 0 );
 254              		.loc 1 267 0 discriminator 1
 255 00c6 002C     		cmp	r4, #0
 256 00c8 F2D1     		bne	.L7
 268:..\u8g2\csrc/u8x8_d_ssd1606_172x72.c ****     
 269:..\u8g2\csrc/u8x8_d_ssd1606_172x72.c ****     arg_int--;
 257              		.loc 1 269 0
 258 00ca 013F     		subs	r7, r7, #1
 259              	.LVL48:
 260 00cc FFB2     		uxtb	r7, r7
 261              	.LVL49:
 270:..\u8g2\csrc/u8x8_d_ssd1606_172x72.c ****   } while( arg_int > 0 );
 262              		.loc 1 270 0
 263 00ce 002F     		cmp	r7, #0
 264 00d0 EBD1     		bne	.L8
 271:..\u8g2\csrc/u8x8_d_ssd1606_172x72.c ****   
 272:..\u8g2\csrc/u8x8_d_ssd1606_172x72.c ****   u8x8_cad_EndTransfer(u8x8);
 265              		.loc 1 272 0
 266 00d2 3000     		movs	r0, r6
 267 00d4 FFF7FEFF 		bl	u8x8_cad_EndTransfer
 268              	.LVL50:
 273:..\u8g2\csrc/u8x8_d_ssd1606_172x72.c **** }
 269              		.loc 1 273 0
 270              		@ sp needed
 271              	.LVL51:
 272              	.LVL52:
 273              	.LVL53:
 274              	.LVL54:
 275              	.LVL55:
 276 00d8 04BC     		pop	{r2}
 277 00da 9046     		mov	r8, r2
 278 00dc F0BD     		pop	{r4, r5, r6, r7, pc}
 279              		.cfi_endproc
 280              	.LFE1:
 281              		.size	u8x8_d_ssd1606_draw_tile, .-u8x8_d_ssd1606_draw_tile
 282 00de C046     		.section	.text.u8x8_d_ssd1606_172x72_generic,"ax",%progbits
 283              		.align	2
 284              		.code	16
 285              		.thumb_func
 286              		.type	u8x8_d_ssd1606_172x72_generic, %function
 287              	u8x8_d_ssd1606_172x72_generic:
 288              	.LFB2:
 274:..\u8g2\csrc/u8x8_d_ssd1606_172x72.c **** 
 275:..\u8g2\csrc/u8x8_d_ssd1606_172x72.c **** 
 276:..\u8g2\csrc/u8x8_d_ssd1606_172x72.c **** static uint8_t u8x8_d_ssd1606_172x72_generic(u8x8_t *u8x8, uint8_t msg, uint8_t arg_int, void *arg_
 277:..\u8g2\csrc/u8x8_d_ssd1606_172x72.c **** {
 289              		.loc 1 277 0
 290              		.cfi_startproc
ARM GAS  C:\Users\gjl\AppData\Local\Temp\ccuXqGZ3.s 			page 11


 291              		@ args = 0, pretend = 0, frame = 0
 292              		@ frame_needed = 0, uses_anonymous_args = 0
 293              	.LVL56:
 294 0000 70B5     		push	{r4, r5, r6, lr}
 295              		.cfi_def_cfa_offset 16
 296              		.cfi_offset 4, -16
 297              		.cfi_offset 5, -12
 298              		.cfi_offset 6, -8
 299              		.cfi_offset 14, -4
 300 0002 0400     		movs	r4, r0
 301 0004 1000     		movs	r0, r2
 302              	.LVL57:
 278:..\u8g2\csrc/u8x8_d_ssd1606_172x72.c ****   switch(msg)
 303              		.loc 1 278 0
 304 0006 0A39     		subs	r1, r1, #10
 305              	.LVL58:
 306 0008 CDB2     		uxtb	r5, r1
 307 000a 062D     		cmp	r5, #6
 308 000c 03D8     		bhi	.L10
 309 000e A900     		lsls	r1, r5, #2
 310 0010 1A4A     		ldr	r2, .L17
 311              	.LVL59:
 312 0012 5258     		ldr	r2, [r2, r1]
 313 0014 9746     		mov	pc, r2
 314              		.section	.rodata
 315              		.align	2
 316              	.L12:
 317 0000 1A000000 		.word	.L11
 318 0004 78000000 		.word	.L16
 319 0008 16000000 		.word	.L10
 320 000c 78000000 		.word	.L16
 321 0010 78000000 		.word	.L16
 322 0014 5C000000 		.word	.L14
 323 0018 6A000000 		.word	.L15
 324              		.section	.text.u8x8_d_ssd1606_172x72_generic
 325              	.L10:
 279:..\u8g2\csrc/u8x8_d_ssd1606_172x72.c ****   {
 280:..\u8g2\csrc/u8x8_d_ssd1606_172x72.c ****     /* handled by the calling function
 281:..\u8g2\csrc/u8x8_d_ssd1606_172x72.c ****     case U8X8_MSG_DISPLAY_SETUP_MEMORY:
 282:..\u8g2\csrc/u8x8_d_ssd1606_172x72.c ****       u8x8_d_helper_display_setup_memory(u8x8, &u8x8_ssd1606_172x72_display_info);
 283:..\u8g2\csrc/u8x8_d_ssd1606_172x72.c ****       break;
 284:..\u8g2\csrc/u8x8_d_ssd1606_172x72.c ****     */
 285:..\u8g2\csrc/u8x8_d_ssd1606_172x72.c ****     case U8X8_MSG_DISPLAY_INIT:
 286:..\u8g2\csrc/u8x8_d_ssd1606_172x72.c **** 
 287:..\u8g2\csrc/u8x8_d_ssd1606_172x72.c ****       u8x8_d_helper_display_init(u8x8);
 288:..\u8g2\csrc/u8x8_d_ssd1606_172x72.c ****       u8x8_cad_SendSequence(u8x8, u8x8_d_ssd1606_172x72_gde021a1_init_seq);    
 289:..\u8g2\csrc/u8x8_d_ssd1606_172x72.c ****     
 290:..\u8g2\csrc/u8x8_d_ssd1606_172x72.c ****       /* special code for the SSD1606... */
 291:..\u8g2\csrc/u8x8_d_ssd1606_172x72.c ****       /* ensure that the initial buffer is clear and all eInk is set to white */
 292:..\u8g2\csrc/u8x8_d_ssd1606_172x72.c ****       /* this is done here, because the LUT will be of that kind, that it uses the previous color *
 293:..\u8g2\csrc/u8x8_d_ssd1606_172x72.c ****       /* make everything black */
 294:..\u8g2\csrc/u8x8_d_ssd1606_172x72.c ****       u8x8_FillDisplay(u8x8);		
 295:..\u8g2\csrc/u8x8_d_ssd1606_172x72.c ****       /* write content to the display */
 296:..\u8g2\csrc/u8x8_d_ssd1606_172x72.c ****       u8x8_RefreshDisplay(u8x8);
 297:..\u8g2\csrc/u8x8_d_ssd1606_172x72.c ****       /* now make everything clear */
 298:..\u8g2\csrc/u8x8_d_ssd1606_172x72.c ****       u8x8_FillDisplay(u8x8);		
 299:..\u8g2\csrc/u8x8_d_ssd1606_172x72.c ****       /* write content to the display */
ARM GAS  C:\Users\gjl\AppData\Local\Temp\ccuXqGZ3.s 			page 12


 300:..\u8g2\csrc/u8x8_d_ssd1606_172x72.c ****       u8x8_RefreshDisplay(u8x8);
 301:..\u8g2\csrc/u8x8_d_ssd1606_172x72.c ****       /* now make everything clear */
 302:..\u8g2\csrc/u8x8_d_ssd1606_172x72.c ****       u8x8_ClearDisplay(u8x8);		
 303:..\u8g2\csrc/u8x8_d_ssd1606_172x72.c ****       /* write content to the display */
 304:..\u8g2\csrc/u8x8_d_ssd1606_172x72.c ****       u8x8_RefreshDisplay(u8x8);
 305:..\u8g2\csrc/u8x8_d_ssd1606_172x72.c **** 
 306:..\u8g2\csrc/u8x8_d_ssd1606_172x72.c ****       u8x8_ClearDisplay(u8x8);		
 307:..\u8g2\csrc/u8x8_d_ssd1606_172x72.c ****       /* write content to the display */
 308:..\u8g2\csrc/u8x8_d_ssd1606_172x72.c ****       u8x8_RefreshDisplay(u8x8);
 309:..\u8g2\csrc/u8x8_d_ssd1606_172x72.c ****     
 310:..\u8g2\csrc/u8x8_d_ssd1606_172x72.c ****       break;
 311:..\u8g2\csrc/u8x8_d_ssd1606_172x72.c ****     case U8X8_MSG_DISPLAY_SET_POWER_SAVE:
 312:..\u8g2\csrc/u8x8_d_ssd1606_172x72.c **** /*
 313:..\u8g2\csrc/u8x8_d_ssd1606_172x72.c ****       if ( arg_int == 0 )
 314:..\u8g2\csrc/u8x8_d_ssd1606_172x72.c **** 	u8x8_cad_SendSequence(u8x8, u8x8_d_ssd1606_172x72_powersave0_seq);
 315:..\u8g2\csrc/u8x8_d_ssd1606_172x72.c ****       else
 316:..\u8g2\csrc/u8x8_d_ssd1606_172x72.c **** 	u8x8_cad_SendSequence(u8x8, u8x8_d_ssd1606_172x72_powersave1_seq);
 317:..\u8g2\csrc/u8x8_d_ssd1606_172x72.c **** */
 318:..\u8g2\csrc/u8x8_d_ssd1606_172x72.c ****       break;
 319:..\u8g2\csrc/u8x8_d_ssd1606_172x72.c ****     case U8X8_MSG_DISPLAY_SET_FLIP_MODE:
 320:..\u8g2\csrc/u8x8_d_ssd1606_172x72.c **** /*
 321:..\u8g2\csrc/u8x8_d_ssd1606_172x72.c ****       if ( arg_int == 0 )
 322:..\u8g2\csrc/u8x8_d_ssd1606_172x72.c ****       {
 323:..\u8g2\csrc/u8x8_d_ssd1606_172x72.c **** 	u8x8_cad_SendSequence(u8x8, u8x8_d_ssd1606_172x72_flip0_seq);
 324:..\u8g2\csrc/u8x8_d_ssd1606_172x72.c **** 	u8x8->x_offset = u8x8->display_info->default_x_offset;
 325:..\u8g2\csrc/u8x8_d_ssd1606_172x72.c ****       }
 326:..\u8g2\csrc/u8x8_d_ssd1606_172x72.c ****       else
 327:..\u8g2\csrc/u8x8_d_ssd1606_172x72.c ****       {
 328:..\u8g2\csrc/u8x8_d_ssd1606_172x72.c **** 	u8x8_cad_SendSequence(u8x8, u8x8_d_ssd1606_172x72_flip1_seq);
 329:..\u8g2\csrc/u8x8_d_ssd1606_172x72.c **** 	u8x8->x_offset = u8x8->display_info->flipmode_x_offset;
 330:..\u8g2\csrc/u8x8_d_ssd1606_172x72.c ****       }
 331:..\u8g2\csrc/u8x8_d_ssd1606_172x72.c **** */
 332:..\u8g2\csrc/u8x8_d_ssd1606_172x72.c ****       break;
 333:..\u8g2\csrc/u8x8_d_ssd1606_172x72.c **** #ifdef U8X8_WITH_SET_CONTRAST
 334:..\u8g2\csrc/u8x8_d_ssd1606_172x72.c ****     case U8X8_MSG_DISPLAY_SET_CONTRAST:
 335:..\u8g2\csrc/u8x8_d_ssd1606_172x72.c **** /*
 336:..\u8g2\csrc/u8x8_d_ssd1606_172x72.c ****       u8x8_cad_StartTransfer(u8x8);
 337:..\u8g2\csrc/u8x8_d_ssd1606_172x72.c ****       u8x8_cad_EndTransfer(u8x8);
 338:..\u8g2\csrc/u8x8_d_ssd1606_172x72.c **** */
 339:..\u8g2\csrc/u8x8_d_ssd1606_172x72.c ****       break;
 340:..\u8g2\csrc/u8x8_d_ssd1606_172x72.c **** #endif
 341:..\u8g2\csrc/u8x8_d_ssd1606_172x72.c ****     case U8X8_MSG_DISPLAY_DRAW_TILE:
 342:..\u8g2\csrc/u8x8_d_ssd1606_172x72.c ****       u8x8_d_ssd1606_draw_tile(u8x8, arg_int, arg_ptr);
 343:..\u8g2\csrc/u8x8_d_ssd1606_172x72.c ****       break;
 344:..\u8g2\csrc/u8x8_d_ssd1606_172x72.c ****     case U8X8_MSG_DISPLAY_REFRESH:
 345:..\u8g2\csrc/u8x8_d_ssd1606_172x72.c ****       u8x8_cad_SendSequence(u8x8, u8x8_d_ssd1606_to_display_seq);    
 346:..\u8g2\csrc/u8x8_d_ssd1606_172x72.c ****       break;
 347:..\u8g2\csrc/u8x8_d_ssd1606_172x72.c ****     default:
 348:..\u8g2\csrc/u8x8_d_ssd1606_172x72.c ****       return 0;
 326              		.loc 1 348 0
 327 0016 0020     		movs	r0, #0
 328 0018 2FE0     		b	.L13
 329              	.L11:
 287:..\u8g2\csrc/u8x8_d_ssd1606_172x72.c ****       u8x8_cad_SendSequence(u8x8, u8x8_d_ssd1606_172x72_gde021a1_init_seq);    
 330              		.loc 1 287 0
 331 001a 2000     		movs	r0, r4
 332 001c FFF7FEFF 		bl	u8x8_d_helper_display_init
ARM GAS  C:\Users\gjl\AppData\Local\Temp\ccuXqGZ3.s 			page 13


 333              	.LVL60:
 288:..\u8g2\csrc/u8x8_d_ssd1606_172x72.c ****     
 334              		.loc 1 288 0
 335 0020 1749     		ldr	r1, .L17+4
 336 0022 2000     		movs	r0, r4
 337 0024 FFF7FEFF 		bl	u8x8_cad_SendSequence
 338              	.LVL61:
 294:..\u8g2\csrc/u8x8_d_ssd1606_172x72.c ****       /* write content to the display */
 339              		.loc 1 294 0
 340 0028 2000     		movs	r0, r4
 341 002a FFF7FEFF 		bl	u8x8_FillDisplay
 342              	.LVL62:
 296:..\u8g2\csrc/u8x8_d_ssd1606_172x72.c ****       /* now make everything clear */
 343              		.loc 1 296 0
 344 002e 2000     		movs	r0, r4
 345 0030 FFF7FEFF 		bl	u8x8_RefreshDisplay
 346              	.LVL63:
 298:..\u8g2\csrc/u8x8_d_ssd1606_172x72.c ****       /* write content to the display */
 347              		.loc 1 298 0
 348 0034 2000     		movs	r0, r4
 349 0036 FFF7FEFF 		bl	u8x8_FillDisplay
 350              	.LVL64:
 300:..\u8g2\csrc/u8x8_d_ssd1606_172x72.c ****       /* now make everything clear */
 351              		.loc 1 300 0
 352 003a 2000     		movs	r0, r4
 353 003c FFF7FEFF 		bl	u8x8_RefreshDisplay
 354              	.LVL65:
 302:..\u8g2\csrc/u8x8_d_ssd1606_172x72.c ****       /* write content to the display */
 355              		.loc 1 302 0
 356 0040 2000     		movs	r0, r4
 357 0042 FFF7FEFF 		bl	u8x8_ClearDisplay
 358              	.LVL66:
 304:..\u8g2\csrc/u8x8_d_ssd1606_172x72.c **** 
 359              		.loc 1 304 0
 360 0046 2000     		movs	r0, r4
 361 0048 FFF7FEFF 		bl	u8x8_RefreshDisplay
 362              	.LVL67:
 306:..\u8g2\csrc/u8x8_d_ssd1606_172x72.c ****       /* write content to the display */
 363              		.loc 1 306 0
 364 004c 2000     		movs	r0, r4
 365 004e FFF7FEFF 		bl	u8x8_ClearDisplay
 366              	.LVL68:
 308:..\u8g2\csrc/u8x8_d_ssd1606_172x72.c ****     
 367              		.loc 1 308 0
 368 0052 2000     		movs	r0, r4
 369 0054 FFF7FEFF 		bl	u8x8_RefreshDisplay
 370              	.LVL69:
 349:..\u8g2\csrc/u8x8_d_ssd1606_172x72.c ****   }
 350:..\u8g2\csrc/u8x8_d_ssd1606_172x72.c ****   return 1;
 371              		.loc 1 350 0
 372 0058 0120     		movs	r0, #1
 310:..\u8g2\csrc/u8x8_d_ssd1606_172x72.c ****     case U8X8_MSG_DISPLAY_SET_POWER_SAVE:
 373              		.loc 1 310 0
 374 005a 0EE0     		b	.L13
 375              	.LVL70:
 376              	.L14:
 342:..\u8g2\csrc/u8x8_d_ssd1606_172x72.c ****       break;
ARM GAS  C:\Users\gjl\AppData\Local\Temp\ccuXqGZ3.s 			page 14


 377              		.loc 1 342 0
 378 005c 1A00     		movs	r2, r3
 379 005e 0100     		movs	r1, r0
 380 0060 2000     		movs	r0, r4
 381 0062 FFF7FEFF 		bl	u8x8_d_ssd1606_draw_tile
 382              	.LVL71:
 383              		.loc 1 350 0
 384 0066 0120     		movs	r0, #1
 343:..\u8g2\csrc/u8x8_d_ssd1606_172x72.c ****     case U8X8_MSG_DISPLAY_REFRESH:
 385              		.loc 1 343 0
 386 0068 07E0     		b	.L13
 387              	.LVL72:
 388              	.L15:
 345:..\u8g2\csrc/u8x8_d_ssd1606_172x72.c ****       break;
 389              		.loc 1 345 0
 390 006a 0649     		ldr	r1, .L17+8
 391 006c 6C31     		adds	r1, r1, #108
 392 006e 2000     		movs	r0, r4
 393 0070 FFF7FEFF 		bl	u8x8_cad_SendSequence
 394              	.LVL73:
 395              		.loc 1 350 0
 396 0074 0120     		movs	r0, #1
 346:..\u8g2\csrc/u8x8_d_ssd1606_172x72.c ****     default:
 397              		.loc 1 346 0
 398 0076 00E0     		b	.L13
 399              	.LVL74:
 400              	.L16:
 401              		.loc 1 350 0
 402 0078 0120     		movs	r0, #1
 403              	.LVL75:
 404              	.L13:
 351:..\u8g2\csrc/u8x8_d_ssd1606_172x72.c **** }
 405              		.loc 1 351 0
 406              		@ sp needed
 407              	.LVL76:
 408 007a 70BD     		pop	{r4, r5, r6, pc}
 409              	.L18:
 410              		.align	2
 411              	.L17:
 412 007c 00000000 		.word	.L12
 413 0080 1C000000 		.word	.LANCHOR1
 414 0084 9C000000 		.word	.LANCHOR2
 415              		.cfi_endproc
 416              	.LFE2:
 417              		.size	u8x8_d_ssd1606_172x72_generic, .-u8x8_d_ssd1606_172x72_generic
 418              		.section	.text.u8x8_d_ssd1606_172x72,"ax",%progbits
 419              		.align	2
 420              		.global	u8x8_d_ssd1606_172x72
 421              		.code	16
 422              		.thumb_func
 423              		.type	u8x8_d_ssd1606_172x72, %function
 424              	u8x8_d_ssd1606_172x72:
 425              	.LFB3:
 352:..\u8g2\csrc/u8x8_d_ssd1606_172x72.c **** 
 353:..\u8g2\csrc/u8x8_d_ssd1606_172x72.c **** 
 354:..\u8g2\csrc/u8x8_d_ssd1606_172x72.c **** static const u8x8_display_info_t u8x8_ssd1606_172x72_display_info =
 355:..\u8g2\csrc/u8x8_d_ssd1606_172x72.c **** {
ARM GAS  C:\Users\gjl\AppData\Local\Temp\ccuXqGZ3.s 			page 15


 356:..\u8g2\csrc/u8x8_d_ssd1606_172x72.c ****   /* chip_enable_level = */ 0,
 357:..\u8g2\csrc/u8x8_d_ssd1606_172x72.c ****   /* chip_disable_level = */ 1,
 358:..\u8g2\csrc/u8x8_d_ssd1606_172x72.c ****   
 359:..\u8g2\csrc/u8x8_d_ssd1606_172x72.c ****   /* post_chip_enable_wait_ns = */ 120,
 360:..\u8g2\csrc/u8x8_d_ssd1606_172x72.c ****   /* pre_chip_disable_wait_ns = */ 60,
 361:..\u8g2\csrc/u8x8_d_ssd1606_172x72.c ****   /* reset_pulse_width_ms = */ 100, 	
 362:..\u8g2\csrc/u8x8_d_ssd1606_172x72.c ****   /* post_reset_wait_ms = */ 100, 
 363:..\u8g2\csrc/u8x8_d_ssd1606_172x72.c ****   /* sda_setup_time_ns = */ 50,		/* SSD1606: */
 364:..\u8g2\csrc/u8x8_d_ssd1606_172x72.c ****   /* sck_pulse_width_ns = */ 100,	/* SSD1606: 100ns */
 365:..\u8g2\csrc/u8x8_d_ssd1606_172x72.c ****   /* sck_clock_hz = */ 4000000UL,	/* since Arduino 1.6.0, the SPI bus speed in Hz. Should be  10000
 366:..\u8g2\csrc/u8x8_d_ssd1606_172x72.c ****   /* spi_mode = */ 0,		/* active high, rising edge */
 367:..\u8g2\csrc/u8x8_d_ssd1606_172x72.c ****   /* i2c_bus_clock_100kHz = */ 4,
 368:..\u8g2\csrc/u8x8_d_ssd1606_172x72.c ****   /* data_setup_time_ns = */ 40,
 369:..\u8g2\csrc/u8x8_d_ssd1606_172x72.c ****   /* write_pulse_width_ns = */ 150,	
 370:..\u8g2\csrc/u8x8_d_ssd1606_172x72.c ****   /* tile_width = */ 22,		/* 22*8 = 176 */
 371:..\u8g2\csrc/u8x8_d_ssd1606_172x72.c ****   /* tile_hight = */ 9,		/* 9*8 = 72 */
 372:..\u8g2\csrc/u8x8_d_ssd1606_172x72.c ****   /* default_x_offset = */ 0,
 373:..\u8g2\csrc/u8x8_d_ssd1606_172x72.c ****   /* flipmode_x_offset = */ 0,
 374:..\u8g2\csrc/u8x8_d_ssd1606_172x72.c ****   /* pixel_width = */ 172,
 375:..\u8g2\csrc/u8x8_d_ssd1606_172x72.c ****   /* pixel_height = */ 72		
 376:..\u8g2\csrc/u8x8_d_ssd1606_172x72.c **** };
 377:..\u8g2\csrc/u8x8_d_ssd1606_172x72.c **** 
 378:..\u8g2\csrc/u8x8_d_ssd1606_172x72.c **** uint8_t u8x8_d_ssd1606_172x72(u8x8_t *u8x8, uint8_t msg, uint8_t arg_int, void *arg_ptr)
 379:..\u8g2\csrc/u8x8_d_ssd1606_172x72.c **** {
 426              		.loc 1 379 0
 427              		.cfi_startproc
 428              		@ args = 0, pretend = 0, frame = 0
 429              		@ frame_needed = 0, uses_anonymous_args = 0
 430              	.LVL77:
 431 0000 10B5     		push	{r4, lr}
 432              		.cfi_def_cfa_offset 8
 433              		.cfi_offset 4, -8
 434              		.cfi_offset 14, -4
 380:..\u8g2\csrc/u8x8_d_ssd1606_172x72.c ****     if ( msg == U8X8_MSG_DISPLAY_SETUP_MEMORY )
 435              		.loc 1 380 0
 436 0002 0929     		cmp	r1, #9
 437 0004 04D1     		bne	.L20
 381:..\u8g2\csrc/u8x8_d_ssd1606_172x72.c ****     {
 382:..\u8g2\csrc/u8x8_d_ssd1606_172x72.c ****       u8x8_d_helper_display_setup_memory(u8x8, &u8x8_ssd1606_172x72_display_info);
 438              		.loc 1 382 0
 439 0006 0449     		ldr	r1, .L22
 440              	.LVL78:
 441 0008 FFF7FEFF 		bl	u8x8_d_helper_display_setup_memory
 442              	.LVL79:
 383:..\u8g2\csrc/u8x8_d_ssd1606_172x72.c ****       return 1;
 443              		.loc 1 383 0
 444 000c 0120     		movs	r0, #1
 445 000e 01E0     		b	.L21
 446              	.LVL80:
 447              	.L20:
 384:..\u8g2\csrc/u8x8_d_ssd1606_172x72.c ****     }
 385:..\u8g2\csrc/u8x8_d_ssd1606_172x72.c ****     return u8x8_d_ssd1606_172x72_generic(u8x8, msg, arg_int, arg_ptr);
 448              		.loc 1 385 0
 449 0010 FFF7FEFF 		bl	u8x8_d_ssd1606_172x72_generic
 450              	.LVL81:
 451              	.L21:
 386:..\u8g2\csrc/u8x8_d_ssd1606_172x72.c **** }
ARM GAS  C:\Users\gjl\AppData\Local\Temp\ccuXqGZ3.s 			page 16


 452              		.loc 1 386 0
 453              		@ sp needed
 454 0014 10BD     		pop	{r4, pc}
 455              	.L23:
 456 0016 C046     		.align	2
 457              	.L22:
 458 0018 24010000 		.word	.LANCHOR3
 459              		.cfi_endproc
 460              	.LFE3:
 461              		.size	u8x8_d_ssd1606_172x72, .-u8x8_d_ssd1606_172x72
 462              		.section	.rodata
 463              		.align	2
 464              		.set	.LANCHOR1,. + 0
 465              		.set	.LANCHOR2,. + 128
 466              		.type	u8x8_d_ssd1606_172x72_gde021a1_init_seq, %object
 467              		.size	u8x8_d_ssd1606_172x72_gde021a1_init_seq, 233
 468              	u8x8_d_ssd1606_172x72_gde021a1_init_seq:
 469 001c 18       		.byte	24
 470 001d 15       		.byte	21
 471 001e 10       		.byte	16
 472 001f 16       		.byte	22
 473 0020 00       		.byte	0
 474 0021 15       		.byte	21
 475 0022 11       		.byte	17
 476 0023 16       		.byte	22
 477 0024 03       		.byte	3
 478 0025 15       		.byte	21
 479 0026 44       		.byte	68
 480 0027 16       		.byte	22
 481 0028 00       		.byte	0
 482 0029 16       		.byte	22
 483 002a 1F       		.byte	31
 484 002b 15       		.byte	21
 485 002c 45       		.byte	69
 486 002d 16       		.byte	22
 487 002e 00       		.byte	0
 488 002f 16       		.byte	22
 489 0030 B3       		.byte	-77
 490 0031 15       		.byte	21
 491 0032 4E       		.byte	78
 492 0033 16       		.byte	22
 493 0034 00       		.byte	0
 494 0035 15       		.byte	21
 495 0036 4F       		.byte	79
 496 0037 16       		.byte	22
 497 0038 00       		.byte	0
 498 0039 15       		.byte	21
 499 003a F0       		.byte	-16
 500 003b 16       		.byte	22
 501 003c 1F       		.byte	31
 502 003d 15       		.byte	21
 503 003e 22       		.byte	34
 504 003f 16       		.byte	22
 505 0040 C0       		.byte	-64
 506 0041 15       		.byte	21
 507 0042 32       		.byte	50
 508 0043 16       		.byte	22
ARM GAS  C:\Users\gjl\AppData\Local\Temp\ccuXqGZ3.s 			page 17


 509 0044 00       		.byte	0
 510 0045 16       		.byte	22
 511 0046 00       		.byte	0
 512 0047 16       		.byte	22
 513 0048 00       		.byte	0
 514 0049 16       		.byte	22
 515 004a 15       		.byte	21
 516 004b 16       		.byte	22
 517 004c 00       		.byte	0
 518 004d 16       		.byte	22
 519 004e 00       		.byte	0
 520 004f 16       		.byte	22
 521 0050 45       		.byte	69
 522 0051 16       		.byte	22
 523 0052 15       		.byte	21
 524 0053 16       		.byte	22
 525 0054 00       		.byte	0
 526 0055 16       		.byte	22
 527 0056 51       		.byte	81
 528 0057 16       		.byte	22
 529 0058 45       		.byte	69
 530 0059 16       		.byte	22
 531 005a 15       		.byte	21
 532 005b 16       		.byte	22
 533 005c A8       		.byte	-88
 534 005d 16       		.byte	22
 535 005e A2       		.byte	-94
 536 005f 16       		.byte	22
 537 0060 8A       		.byte	-118
 538 0061 16       		.byte	22
 539 0062 2A       		.byte	42
 540 0063 16       		.byte	22
 541 0064 14       		.byte	20
 542 0065 16       		.byte	22
 543 0066 11       		.byte	17
 544 0067 16       		.byte	22
 545 0068 05       		.byte	5
 546 0069 16       		.byte	22
 547 006a 15       		.byte	21
 548 006b 16       		.byte	22
 549 006c 04       		.byte	4
 550 006d 16       		.byte	22
 551 006e 01       		.byte	1
 552 006f 16       		.byte	22
 553 0070 05       		.byte	5
 554 0071 16       		.byte	22
 555 0072 05       		.byte	5
 556 0073 16       		.byte	22
 557 0074 00       		.byte	0
 558 0075 16       		.byte	22
 559 0076 01       		.byte	1
 560 0077 16       		.byte	22
 561 0078 01       		.byte	1
 562 0079 16       		.byte	22
 563 007a 01       		.byte	1
 564 007b 16       		.byte	22
 565 007c 00       		.byte	0
ARM GAS  C:\Users\gjl\AppData\Local\Temp\ccuXqGZ3.s 			page 18


 566 007d 16       		.byte	22
 567 007e 00       		.byte	0
 568 007f 16       		.byte	22
 569 0080 00       		.byte	0
 570 0081 16       		.byte	22
 571 0082 00       		.byte	0
 572 0083 16       		.byte	22
 573 0084 00       		.byte	0
 574 0085 16       		.byte	22
 575 0086 00       		.byte	0
 576 0087 16       		.byte	22
 577 0088 00       		.byte	0
 578 0089 16       		.byte	22
 579 008a 00       		.byte	0
 580 008b 16       		.byte	22
 581 008c 00       		.byte	0
 582 008d 16       		.byte	22
 583 008e 00       		.byte	0
 584 008f 16       		.byte	22
 585 0090 00       		.byte	0
 586 0091 16       		.byte	22
 587 0092 00       		.byte	0
 588 0093 16       		.byte	22
 589 0094 00       		.byte	0
 590 0095 16       		.byte	22
 591 0096 00       		.byte	0
 592 0097 16       		.byte	22
 593 0098 00       		.byte	0
 594 0099 16       		.byte	22
 595 009a 00       		.byte	0
 596 009b 16       		.byte	22
 597 009c 00       		.byte	0
 598 009d 16       		.byte	22
 599 009e 00       		.byte	0
 600 009f 16       		.byte	22
 601 00a0 00       		.byte	0
 602 00a1 16       		.byte	22
 603 00a2 00       		.byte	0
 604 00a3 16       		.byte	22
 605 00a4 00       		.byte	0
 606 00a5 16       		.byte	22
 607 00a6 00       		.byte	0
 608 00a7 16       		.byte	22
 609 00a8 00       		.byte	0
 610 00a9 16       		.byte	22
 611 00aa 00       		.byte	0
 612 00ab 16       		.byte	22
 613 00ac 00       		.byte	0
 614 00ad 16       		.byte	22
 615 00ae 00       		.byte	0
 616 00af 16       		.byte	22
 617 00b0 00       		.byte	0
 618 00b1 16       		.byte	22
 619 00b2 00       		.byte	0
 620 00b3 16       		.byte	22
 621 00b4 00       		.byte	0
 622 00b5 16       		.byte	22
ARM GAS  C:\Users\gjl\AppData\Local\Temp\ccuXqGZ3.s 			page 19


 623 00b6 00       		.byte	0
 624 00b7 16       		.byte	22
 625 00b8 00       		.byte	0
 626 00b9 16       		.byte	22
 627 00ba 00       		.byte	0
 628 00bb 16       		.byte	22
 629 00bc 00       		.byte	0
 630 00bd 16       		.byte	22
 631 00be 00       		.byte	0
 632 00bf 16       		.byte	22
 633 00c0 00       		.byte	0
 634 00c1 16       		.byte	22
 635 00c2 00       		.byte	0
 636 00c3 16       		.byte	22
 637 00c4 00       		.byte	0
 638 00c5 16       		.byte	22
 639 00c6 00       		.byte	0
 640 00c7 16       		.byte	22
 641 00c8 00       		.byte	0
 642 00c9 16       		.byte	22
 643 00ca 00       		.byte	0
 644 00cb 16       		.byte	22
 645 00cc 00       		.byte	0
 646 00cd 16       		.byte	22
 647 00ce 00       		.byte	0
 648 00cf 16       		.byte	22
 649 00d0 00       		.byte	0
 650 00d1 16       		.byte	22
 651 00d2 00       		.byte	0
 652 00d3 16       		.byte	22
 653 00d4 00       		.byte	0
 654 00d5 16       		.byte	22
 655 00d6 00       		.byte	0
 656 00d7 16       		.byte	22
 657 00d8 00       		.byte	0
 658 00d9 16       		.byte	22
 659 00da 00       		.byte	0
 660 00db 16       		.byte	22
 661 00dc 00       		.byte	0
 662 00dd 16       		.byte	22
 663 00de 00       		.byte	0
 664 00df 16       		.byte	22
 665 00e0 00       		.byte	0
 666 00e1 16       		.byte	22
 667 00e2 00       		.byte	0
 668 00e3 16       		.byte	22
 669 00e4 22       		.byte	34
 670 00e5 16       		.byte	22
 671 00e6 FB       		.byte	-5
 672 00e7 16       		.byte	22
 673 00e8 22       		.byte	34
 674 00e9 16       		.byte	22
 675 00ea 1B       		.byte	27
 676 00eb 16       		.byte	22
 677 00ec 00       		.byte	0
 678 00ed 16       		.byte	22
 679 00ee 00       		.byte	0
ARM GAS  C:\Users\gjl\AppData\Local\Temp\ccuXqGZ3.s 			page 20


 680 00ef 16       		.byte	22
 681 00f0 00       		.byte	0
 682 00f1 16       		.byte	22
 683 00f2 00       		.byte	0
 684 00f3 16       		.byte	22
 685 00f4 00       		.byte	0
 686 00f5 16       		.byte	22
 687 00f6 00       		.byte	0
 688 00f7 15       		.byte	21
 689 00f8 2C       		.byte	44
 690 00f9 16       		.byte	22
 691 00fa A0       		.byte	-96
 692 00fb 15       		.byte	21
 693 00fc 3C       		.byte	60
 694 00fd 16       		.byte	22
 695 00fe 63       		.byte	99
 696 00ff 15       		.byte	21
 697 0100 22       		.byte	34
 698 0101 16       		.byte	22
 699 0102 C4       		.byte	-60
 700 0103 19       		.byte	25
 701 0104 FF       		.byte	-1
 702 0105 000000   		.space	3
 703              		.type	u8x8_d_ssd1606_to_display_seq, %object
 704              		.size	u8x8_d_ssd1606_to_display_seq, 25
 705              	u8x8_d_ssd1606_to_display_seq:
 706 0108 18       		.byte	24
 707 0109 15       		.byte	21
 708 010a 22       		.byte	34
 709 010b 16       		.byte	22
 710 010c C4       		.byte	-60
 711 010d 15       		.byte	21
 712 010e 20       		.byte	32
 713 010f FE       		.byte	-2
 714 0110 FA       		.byte	-6
 715 0111 FE       		.byte	-2
 716 0112 FA       		.byte	-6
 717 0113 FE       		.byte	-2
 718 0114 FA       		.byte	-6
 719 0115 FE       		.byte	-2
 720 0116 E6       		.byte	-26
 721 0117 15       		.byte	21
 722 0118 22       		.byte	34
 723 0119 16       		.byte	22
 724 011a 03       		.byte	3
 725 011b FE       		.byte	-2
 726 011c C8       		.byte	-56
 727 011d FE       		.byte	-2
 728 011e 5A       		.byte	90
 729 011f 19       		.byte	25
 730 0120 FF       		.byte	-1
 731 0121 000000   		.align	2
 732              		.set	.LANCHOR3,. + 0
 733              		.type	u8x8_ssd1606_172x72_display_info, %object
 734              		.size	u8x8_ssd1606_172x72_display_info, 24
 735              	u8x8_ssd1606_172x72_display_info:
 736 0124 00       		.byte	0
ARM GAS  C:\Users\gjl\AppData\Local\Temp\ccuXqGZ3.s 			page 21


 737 0125 01       		.byte	1
 738 0126 78       		.byte	120
 739 0127 3C       		.byte	60
 740 0128 64       		.byte	100
 741 0129 64       		.byte	100
 742 012a 32       		.byte	50
 743 012b 64       		.byte	100
 744 012c 00093D00 		.word	4000000
 745 0130 00       		.byte	0
 746 0131 04       		.byte	4
 747 0132 28       		.byte	40
 748 0133 96       		.byte	-106
 749 0134 16       		.byte	22
 750 0135 09       		.byte	9
 751 0136 00       		.byte	0
 752 0137 00       		.byte	0
 753 0138 AC00     		.short	172
 754 013a 4800     		.short	72
 755              		.bss
 756              		.align	2
 757              		.set	.LANCHOR0,. + 0
 758              		.type	buf.4870, %object
 759              		.size	buf.4870, 16
 760              	buf.4870:
 761 0000 00000000 		.space	16
 761      00000000 
 761      00000000 
 761      00000000 
 762              		.text
 763              	.Letext0:
 764              		.file 2 "c:\\program files (x86)\\cypress\\psoc creator\\4.1\\psoc creator\\import\\gnu\\arm\\5.4.
 765              		.file 3 "c:\\program files (x86)\\cypress\\psoc creator\\4.1\\psoc creator\\import\\gnu\\arm\\5.4.
 766              		.file 4 "..\\u8g2\\csrc\\u8x8.h"