ARM GAS  C:\Users\Alan\AppData\Local\Temp\ccC1Xvg6.s 			page 1


   1              		.syntax unified
   2              		.cpu cortex-m0
   3              		.fpu softvfp
   4              		.eabi_attribute 20, 1
   5              		.eabi_attribute 21, 1
   6              		.eabi_attribute 23, 3
   7              		.eabi_attribute 24, 1
   8              		.eabi_attribute 25, 1
   9              		.eabi_attribute 26, 1
  10              		.eabi_attribute 30, 1
  11              		.eabi_attribute 34, 0
  12              		.eabi_attribute 18, 4
  13              		.thumb
  14              		.syntax unified
  15              		.file	"u8x8_d_ssd1325.c"
  16              		.text
  17              	.Ltext0:
  18              		.cfi_sections	.debug_frame
  19              		.section	.text.u8x8_ssd1325_8to32,"ax",%progbits
  20              		.align	2
  21              		.code	16
  22              		.thumb_func
  23              		.type	u8x8_ssd1325_8to32, %function
  24              	u8x8_ssd1325_8to32:
  25              	.LFB0:
  26              		.file 1 "..\\..\\u8g2\\csrc\\u8x8_d_ssd1325.c"
   1:..\..\u8g2\csrc/u8x8_d_ssd1325.c **** /*
   2:..\..\u8g2\csrc/u8x8_d_ssd1325.c **** 
   3:..\..\u8g2\csrc/u8x8_d_ssd1325.c ****   u8x8_d_ssd1325.c
   4:..\..\u8g2\csrc/u8x8_d_ssd1325.c **** 
   5:..\..\u8g2\csrc/u8x8_d_ssd1325.c ****   Universal 8bit Graphics Library (https://github.com/olikraus/u8g2/)
   6:..\..\u8g2\csrc/u8x8_d_ssd1325.c **** 
   7:..\..\u8g2\csrc/u8x8_d_ssd1325.c ****   Copyright (c) 2016, olikraus@gmail.com
   8:..\..\u8g2\csrc/u8x8_d_ssd1325.c ****   All rights reserved.
   9:..\..\u8g2\csrc/u8x8_d_ssd1325.c **** 
  10:..\..\u8g2\csrc/u8x8_d_ssd1325.c ****   Redistribution and use in source and binary forms, with or without modification, 
  11:..\..\u8g2\csrc/u8x8_d_ssd1325.c ****   are permitted provided that the following conditions are met:
  12:..\..\u8g2\csrc/u8x8_d_ssd1325.c **** 
  13:..\..\u8g2\csrc/u8x8_d_ssd1325.c ****   * Redistributions of source code must retain the above copyright notice, this list 
  14:..\..\u8g2\csrc/u8x8_d_ssd1325.c ****     of conditions and the following disclaimer.
  15:..\..\u8g2\csrc/u8x8_d_ssd1325.c ****     
  16:..\..\u8g2\csrc/u8x8_d_ssd1325.c ****   * Redistributions in binary form must reproduce the above copyright notice, this 
  17:..\..\u8g2\csrc/u8x8_d_ssd1325.c ****     list of conditions and the following disclaimer in the documentation and/or other 
  18:..\..\u8g2\csrc/u8x8_d_ssd1325.c ****     materials provided with the distribution.
  19:..\..\u8g2\csrc/u8x8_d_ssd1325.c **** 
  20:..\..\u8g2\csrc/u8x8_d_ssd1325.c ****   THIS SOFTWARE IS PROVIDED BY THE COPYRIGHT HOLDERS AND 
  21:..\..\u8g2\csrc/u8x8_d_ssd1325.c ****   CONTRIBUTORS "AS IS" AND ANY EXPRESS OR IMPLIED WARRANTIES, 
  22:..\..\u8g2\csrc/u8x8_d_ssd1325.c ****   INCLUDING, BUT NOT LIMITED TO, THE IMPLIED WARRANTIES OF 
  23:..\..\u8g2\csrc/u8x8_d_ssd1325.c ****   MERCHANTABILITY AND FITNESS FOR A PARTICULAR PURPOSE ARE 
  24:..\..\u8g2\csrc/u8x8_d_ssd1325.c ****   DISCLAIMED. IN NO EVENT SHALL THE COPYRIGHT HOLDER OR 
  25:..\..\u8g2\csrc/u8x8_d_ssd1325.c ****   CONTRIBUTORS BE LIABLE FOR ANY DIRECT, INDIRECT, INCIDENTAL, 
  26:..\..\u8g2\csrc/u8x8_d_ssd1325.c ****   SPECIAL, EXEMPLARY, OR CONSEQUENTIAL DAMAGES (INCLUDING, BUT 
  27:..\..\u8g2\csrc/u8x8_d_ssd1325.c ****   NOT LIMITED TO, PROCUREMENT OF SUBSTITUTE GOODS OR SERVICES; 
  28:..\..\u8g2\csrc/u8x8_d_ssd1325.c ****   LOSS OF USE, DATA, OR PROFITS; OR BUSINESS INTERRUPTION) HOWEVER 
  29:..\..\u8g2\csrc/u8x8_d_ssd1325.c ****   CAUSED AND ON ANY THEORY OF LIABILITY, WHETHER IN CONTRACT, 
  30:..\..\u8g2\csrc/u8x8_d_ssd1325.c ****   STRICT LIABILITY, OR TORT (INCLUDING NEGLIGENCE OR OTHERWISE) 
  31:..\..\u8g2\csrc/u8x8_d_ssd1325.c ****   ARISING IN ANY WAY OUT OF THE USE OF THIS SOFTWARE, EVEN IF 
ARM GAS  C:\Users\Alan\AppData\Local\Temp\ccC1Xvg6.s 			page 2


  32:..\..\u8g2\csrc/u8x8_d_ssd1325.c ****   ADVISED OF THE POSSIBILITY OF SUCH DAMAGE.  
  33:..\..\u8g2\csrc/u8x8_d_ssd1325.c ****   
  34:..\..\u8g2\csrc/u8x8_d_ssd1325.c **** */
  35:..\..\u8g2\csrc/u8x8_d_ssd1325.c **** 
  36:..\..\u8g2\csrc/u8x8_d_ssd1325.c **** 
  37:..\..\u8g2\csrc/u8x8_d_ssd1325.c **** #include "u8x8.h"
  38:..\..\u8g2\csrc/u8x8_d_ssd1325.c **** 
  39:..\..\u8g2\csrc/u8x8_d_ssd1325.c **** 
  40:..\..\u8g2\csrc/u8x8_d_ssd1325.c **** 
  41:..\..\u8g2\csrc/u8x8_d_ssd1325.c **** /* http://www.newhavendisplay.com/app_notes/OLED_2_7_12864.txt */
  42:..\..\u8g2\csrc/u8x8_d_ssd1325.c **** static const uint8_t u8x8_d_ssd1325_128x64_nhd_init_seq[] = {
  43:..\..\u8g2\csrc/u8x8_d_ssd1325.c ****     
  44:..\..\u8g2\csrc/u8x8_d_ssd1325.c ****   U8X8_START_TRANSFER(),             	/* enable chip, delay is part of the transfer start */
  45:..\..\u8g2\csrc/u8x8_d_ssd1325.c ****   
  46:..\..\u8g2\csrc/u8x8_d_ssd1325.c ****   
  47:..\..\u8g2\csrc/u8x8_d_ssd1325.c ****   U8X8_C(0x0ae),		                /* display off */
  48:..\..\u8g2\csrc/u8x8_d_ssd1325.c ****   U8X8_CA(0x0b3, 0x091),		/* set display clock divide ratio/oscillator frequency (set clock as 135 
  49:..\..\u8g2\csrc/u8x8_d_ssd1325.c ****   U8X8_CA(0x0a8, 0x03f),		/* multiplex ratio: 0x03f * 1/64 duty */
  50:..\..\u8g2\csrc/u8x8_d_ssd1325.c ****   U8X8_CA(0x0a2, 0x04c),		/* display offset, shift mapping ram counter */
  51:..\..\u8g2\csrc/u8x8_d_ssd1325.c ****   U8X8_CA(0x0a1, 0x000),		/* display start line */
  52:..\..\u8g2\csrc/u8x8_d_ssd1325.c ****   U8X8_CA(0x0ad, 0x002),		/* master configuration: disable embedded DC-DC, enable internal VCOMH */
  53:..\..\u8g2\csrc/u8x8_d_ssd1325.c ****   U8X8_CA(0x0a0, 0x052),		/* remap configuration, horizontal address increment (bit 2 = 0), enable 
  54:..\..\u8g2\csrc/u8x8_d_ssd1325.c ****   U8X8_C(0x086),				/* full current range (0x084, 0x085, 0x086) */
  55:..\..\u8g2\csrc/u8x8_d_ssd1325.c ****   U8X8_C(0x0b8),				/* set gray scale table */
  56:..\..\u8g2\csrc/u8x8_d_ssd1325.c ****     U8X8_A(0x001),				/* */
  57:..\..\u8g2\csrc/u8x8_d_ssd1325.c ****     U8X8_A(0x011),				/* */
  58:..\..\u8g2\csrc/u8x8_d_ssd1325.c ****     U8X8_A(0x022),				/* */
  59:..\..\u8g2\csrc/u8x8_d_ssd1325.c ****     U8X8_A(0x032),				/* */
  60:..\..\u8g2\csrc/u8x8_d_ssd1325.c ****     U8X8_A(0x043),				/* */
  61:..\..\u8g2\csrc/u8x8_d_ssd1325.c ****     U8X8_A(0x054),				/* */
  62:..\..\u8g2\csrc/u8x8_d_ssd1325.c ****     U8X8_A(0x065),				/* */
  63:..\..\u8g2\csrc/u8x8_d_ssd1325.c ****     U8X8_A(0x076),				/* */
  64:..\..\u8g2\csrc/u8x8_d_ssd1325.c ****     
  65:..\..\u8g2\csrc/u8x8_d_ssd1325.c ****   U8X8_CA(0x081, 0x070),		/* contrast, brightness, 0..128, Newhaven: 0x040 */
  66:..\..\u8g2\csrc/u8x8_d_ssd1325.c ****   U8X8_CA(0x0b2, 0x051),		/* frame frequency (row period) */
  67:..\..\u8g2\csrc/u8x8_d_ssd1325.c ****   U8X8_CA(0x0b1, 0x055),                    /* phase length */
  68:..\..\u8g2\csrc/u8x8_d_ssd1325.c ****   U8X8_CA(0x0bc, 0x010),                    /* pre-charge voltage level */
  69:..\..\u8g2\csrc/u8x8_d_ssd1325.c ****   U8X8_CA(0x0b4, 0x002),                    /* set pre-charge compensation level (not documented in
  70:..\..\u8g2\csrc/u8x8_d_ssd1325.c ****   U8X8_CA(0x0b0, 0x028),                    /* enable pre-charge compensation (not documented in th
  71:..\..\u8g2\csrc/u8x8_d_ssd1325.c ****   U8X8_CA(0x0be, 0x01c),                     /* VCOMH voltage */
  72:..\..\u8g2\csrc/u8x8_d_ssd1325.c ****   U8X8_CA(0x0bf, 0x002|0x00d),           /* VSL voltage level (not documented in the SDD1325 datash
  73:..\..\u8g2\csrc/u8x8_d_ssd1325.c ****   U8X8_C(0x0a4),				/* normal display mode */
  74:..\..\u8g2\csrc/u8x8_d_ssd1325.c ****     
  75:..\..\u8g2\csrc/u8x8_d_ssd1325.c ****   U8X8_CA(0x023, 0x003),		/* graphics accelleration: fill pixel */
  76:..\..\u8g2\csrc/u8x8_d_ssd1325.c ****     
  77:..\..\u8g2\csrc/u8x8_d_ssd1325.c ****   U8X8_END_TRANSFER(),             	/* disable chip */
  78:..\..\u8g2\csrc/u8x8_d_ssd1325.c ****   U8X8_END()             			/* end of sequence */
  79:..\..\u8g2\csrc/u8x8_d_ssd1325.c **** };
  80:..\..\u8g2\csrc/u8x8_d_ssd1325.c **** 
  81:..\..\u8g2\csrc/u8x8_d_ssd1325.c **** static const uint8_t u8x8_d_ssd1325_128x64_nhd_powersave0_seq[] = {
  82:..\..\u8g2\csrc/u8x8_d_ssd1325.c ****   U8X8_START_TRANSFER(),             	/* enable chip, delay is part of the transfer start */
  83:..\..\u8g2\csrc/u8x8_d_ssd1325.c ****   U8X8_C(0x0af),		                /* display on */
  84:..\..\u8g2\csrc/u8x8_d_ssd1325.c ****   U8X8_END_TRANSFER(),             	/* disable chip */
  85:..\..\u8g2\csrc/u8x8_d_ssd1325.c ****   U8X8_END()             			/* end of sequence */
  86:..\..\u8g2\csrc/u8x8_d_ssd1325.c **** };
  87:..\..\u8g2\csrc/u8x8_d_ssd1325.c **** 
  88:..\..\u8g2\csrc/u8x8_d_ssd1325.c **** static const uint8_t u8x8_d_ssd1325_128x64_nhd_powersave1_seq[] = {
ARM GAS  C:\Users\Alan\AppData\Local\Temp\ccC1Xvg6.s 			page 3


  89:..\..\u8g2\csrc/u8x8_d_ssd1325.c ****   U8X8_START_TRANSFER(),             	/* enable chip, delay is part of the transfer start */
  90:..\..\u8g2\csrc/u8x8_d_ssd1325.c ****   U8X8_C(0x0ae),		                /* display off */
  91:..\..\u8g2\csrc/u8x8_d_ssd1325.c ****   U8X8_END_TRANSFER(),             	/* disable chip */
  92:..\..\u8g2\csrc/u8x8_d_ssd1325.c ****   U8X8_END()             			/* end of sequence */
  93:..\..\u8g2\csrc/u8x8_d_ssd1325.c **** };
  94:..\..\u8g2\csrc/u8x8_d_ssd1325.c **** 
  95:..\..\u8g2\csrc/u8x8_d_ssd1325.c **** static const uint8_t u8x8_d_ssd1325_128x64_nhd_flip0_seq[] = {
  96:..\..\u8g2\csrc/u8x8_d_ssd1325.c ****   U8X8_START_TRANSFER(),             	/* enable chip, delay is part of the transfer start */
  97:..\..\u8g2\csrc/u8x8_d_ssd1325.c ****   U8X8_CA(0x0a0, 0x052),		/* remap */
  98:..\..\u8g2\csrc/u8x8_d_ssd1325.c ****   U8X8_END_TRANSFER(),             	/* disable chip */
  99:..\..\u8g2\csrc/u8x8_d_ssd1325.c ****   U8X8_END()             			/* end of sequence */
 100:..\..\u8g2\csrc/u8x8_d_ssd1325.c **** };
 101:..\..\u8g2\csrc/u8x8_d_ssd1325.c **** 
 102:..\..\u8g2\csrc/u8x8_d_ssd1325.c **** static const uint8_t u8x8_d_ssd1325_128x64_nhd_flip1_seq[] = {
 103:..\..\u8g2\csrc/u8x8_d_ssd1325.c ****   U8X8_START_TRANSFER(),             	/* enable chip, delay is part of the transfer start */
 104:..\..\u8g2\csrc/u8x8_d_ssd1325.c ****   U8X8_CA(0x0a0, 0x041),		/* remap */
 105:..\..\u8g2\csrc/u8x8_d_ssd1325.c ****   U8X8_END_TRANSFER(),             	/* disable chip */
 106:..\..\u8g2\csrc/u8x8_d_ssd1325.c ****   U8X8_END()             			/* end of sequence */
 107:..\..\u8g2\csrc/u8x8_d_ssd1325.c **** };
 108:..\..\u8g2\csrc/u8x8_d_ssd1325.c **** 
 109:..\..\u8g2\csrc/u8x8_d_ssd1325.c **** 
 110:..\..\u8g2\csrc/u8x8_d_ssd1325.c **** /*
 111:..\..\u8g2\csrc/u8x8_d_ssd1325.c ****   input:
 112:..\..\u8g2\csrc/u8x8_d_ssd1325.c ****     one tile (8 Bytes)
 113:..\..\u8g2\csrc/u8x8_d_ssd1325.c ****   output:
 114:..\..\u8g2\csrc/u8x8_d_ssd1325.c ****     Tile for SSD1325 (32 Bytes)
 115:..\..\u8g2\csrc/u8x8_d_ssd1325.c **** */
 116:..\..\u8g2\csrc/u8x8_d_ssd1325.c **** 
 117:..\..\u8g2\csrc/u8x8_d_ssd1325.c **** static uint8_t u8x8_ssd1325_8to32_dest_buf[32];
 118:..\..\u8g2\csrc/u8x8_d_ssd1325.c **** 
 119:..\..\u8g2\csrc/u8x8_d_ssd1325.c **** static uint8_t *u8x8_ssd1325_8to32(U8X8_UNUSED u8x8_t *u8x8, uint8_t *ptr)
 120:..\..\u8g2\csrc/u8x8_d_ssd1325.c **** {
  27              		.loc 1 120 0
  28              		.cfi_startproc
  29              		@ args = 0, pretend = 0, frame = 0
  30              		@ frame_needed = 0, uses_anonymous_args = 0
  31              	.LVL0:
  32 0000 F0B5     		push	{r4, r5, r6, r7, lr}
  33              		.cfi_def_cfa_offset 20
  34              		.cfi_offset 4, -20
  35              		.cfi_offset 5, -16
  36              		.cfi_offset 6, -12
  37              		.cfi_offset 7, -8
  38              		.cfi_offset 14, -4
  39              	.LVL1:
 121:..\..\u8g2\csrc/u8x8_d_ssd1325.c ****   uint8_t v;
 122:..\..\u8g2\csrc/u8x8_d_ssd1325.c ****   uint8_t a,b;
 123:..\..\u8g2\csrc/u8x8_d_ssd1325.c ****   uint8_t i, j;
 124:..\..\u8g2\csrc/u8x8_d_ssd1325.c ****   uint8_t *dest;
 125:..\..\u8g2\csrc/u8x8_d_ssd1325.c ****   
 126:..\..\u8g2\csrc/u8x8_d_ssd1325.c ****   for( j = 0; j < 4; j++ )
  40              		.loc 1 126 0
  41 0002 0027     		movs	r7, #0
  42 0004 1AE0     		b	.L2
  43              	.LVL2:
  44              	.L7:
 127:..\..\u8g2\csrc/u8x8_d_ssd1325.c ****   {
ARM GAS  C:\Users\Alan\AppData\Local\Temp\ccC1Xvg6.s 			page 4


 128:..\..\u8g2\csrc/u8x8_d_ssd1325.c ****     dest = u8x8_ssd1325_8to32_dest_buf;
 129:..\..\u8g2\csrc/u8x8_d_ssd1325.c ****     dest += j;
  45              		.loc 1 129 0
  46 0006 0F48     		ldr	r0, .L9
  47 0008 C019     		adds	r0, r0, r7
  48              	.LVL3:
 130:..\..\u8g2\csrc/u8x8_d_ssd1325.c ****     a =*ptr;
  49              		.loc 1 130 0
  50 000a 0D78     		ldrb	r5, [r1]
  51              	.LVL4:
 131:..\..\u8g2\csrc/u8x8_d_ssd1325.c ****     ptr++;
 132:..\..\u8g2\csrc/u8x8_d_ssd1325.c ****     b = *ptr;
  52              		.loc 1 132 0
  53 000c 4C78     		ldrb	r4, [r1, #1]
  54              	.LVL5:
 133:..\..\u8g2\csrc/u8x8_d_ssd1325.c ****     ptr++;
  55              		.loc 1 133 0
  56 000e 0231     		adds	r1, r1, #2
  57              	.LVL6:
 134:..\..\u8g2\csrc/u8x8_d_ssd1325.c ****     for( i = 0; i < 8; i++ )
  58              		.loc 1 134 0
  59 0010 0023     		movs	r3, #0
  60 0012 0FE0     		b	.L3
  61              	.LVL7:
  62              	.L6:
 135:..\..\u8g2\csrc/u8x8_d_ssd1325.c ****     {
 136:..\..\u8g2\csrc/u8x8_d_ssd1325.c ****       v = 0;
 137:..\..\u8g2\csrc/u8x8_d_ssd1325.c ****       if ( a&1 ) v |= 0xf0;
  63              		.loc 1 137 0
  64 0014 EA07     		lsls	r2, r5, #31
  65 0016 01D4     		bmi	.L8
 136:..\..\u8g2\csrc/u8x8_d_ssd1325.c ****       if ( a&1 ) v |= 0xf0;
  66              		.loc 1 136 0
  67 0018 0022     		movs	r2, #0
  68 001a 00E0     		b	.L4
  69              	.L8:
  70              		.loc 1 137 0
  71 001c F022     		movs	r2, #240
  72              	.L4:
  73              	.LVL8:
 138:..\..\u8g2\csrc/u8x8_d_ssd1325.c ****       if ( b&1 ) v |= 0x0f;
  74              		.loc 1 138 0
  75 001e E607     		lsls	r6, r4, #31
  76 0020 02D5     		bpl	.L5
  77              		.loc 1 138 0 is_stmt 0 discriminator 1
  78 0022 0F26     		movs	r6, #15
  79 0024 3243     		orrs	r2, r6
  80              	.LVL9:
  81 0026 D2B2     		uxtb	r2, r2
  82              	.LVL10:
  83              	.L5:
 139:..\..\u8g2\csrc/u8x8_d_ssd1325.c ****       *dest = v;
  84              		.loc 1 139 0 is_stmt 1 discriminator 2
  85 0028 0270     		strb	r2, [r0]
 140:..\..\u8g2\csrc/u8x8_d_ssd1325.c ****       dest+=4;
  86              		.loc 1 140 0 discriminator 2
  87 002a 0430     		adds	r0, r0, #4
ARM GAS  C:\Users\Alan\AppData\Local\Temp\ccC1Xvg6.s 			page 5


  88              	.LVL11:
 141:..\..\u8g2\csrc/u8x8_d_ssd1325.c ****       a >>= 1;
  89              		.loc 1 141 0 discriminator 2
  90 002c 6D08     		lsrs	r5, r5, #1
  91              	.LVL12:
 142:..\..\u8g2\csrc/u8x8_d_ssd1325.c ****       b >>= 1;
  92              		.loc 1 142 0 discriminator 2
  93 002e 6408     		lsrs	r4, r4, #1
  94              	.LVL13:
 134:..\..\u8g2\csrc/u8x8_d_ssd1325.c ****     {
  95              		.loc 1 134 0 discriminator 2
  96 0030 0133     		adds	r3, r3, #1
  97              	.LVL14:
  98 0032 DBB2     		uxtb	r3, r3
  99              	.LVL15:
 100              	.L3:
 134:..\..\u8g2\csrc/u8x8_d_ssd1325.c ****     {
 101              		.loc 1 134 0 is_stmt 0 discriminator 1
 102 0034 072B     		cmp	r3, #7
 103 0036 EDD9     		bls	.L6
 126:..\..\u8g2\csrc/u8x8_d_ssd1325.c ****   {
 104              		.loc 1 126 0 is_stmt 1 discriminator 2
 105 0038 0137     		adds	r7, r7, #1
 106              	.LVL16:
 107 003a FFB2     		uxtb	r7, r7
 108              	.LVL17:
 109              	.L2:
 126:..\..\u8g2\csrc/u8x8_d_ssd1325.c ****   {
 110              		.loc 1 126 0 is_stmt 0 discriminator 1
 111 003c 032F     		cmp	r7, #3
 112 003e E2D9     		bls	.L7
 143:..\..\u8g2\csrc/u8x8_d_ssd1325.c ****     }
 144:..\..\u8g2\csrc/u8x8_d_ssd1325.c ****   }
 145:..\..\u8g2\csrc/u8x8_d_ssd1325.c ****   
 146:..\..\u8g2\csrc/u8x8_d_ssd1325.c ****   return u8x8_ssd1325_8to32_dest_buf;
 147:..\..\u8g2\csrc/u8x8_d_ssd1325.c **** }
 113              		.loc 1 147 0 is_stmt 1
 114 0040 0048     		ldr	r0, .L9
 115              		@ sp needed
 116              	.LVL18:
 117 0042 F0BD     		pop	{r4, r5, r6, r7, pc}
 118              	.L10:
 119              		.align	2
 120              	.L9:
 121 0044 00000000 		.word	.LANCHOR0
 122              		.cfi_endproc
 123              	.LFE0:
 124              		.size	u8x8_ssd1325_8to32, .-u8x8_ssd1325_8to32
 125              		.section	.text.u8x8_d_ssd1325_128x64_generic,"ax",%progbits
 126              		.align	2
 127              		.code	16
 128              		.thumb_func
 129              		.type	u8x8_d_ssd1325_128x64_generic, %function
 130              	u8x8_d_ssd1325_128x64_generic:
 131              	.LFB1:
 148:..\..\u8g2\csrc/u8x8_d_ssd1325.c **** 
 149:..\..\u8g2\csrc/u8x8_d_ssd1325.c **** 
ARM GAS  C:\Users\Alan\AppData\Local\Temp\ccC1Xvg6.s 			page 6


 150:..\..\u8g2\csrc/u8x8_d_ssd1325.c **** 
 151:..\..\u8g2\csrc/u8x8_d_ssd1325.c **** 
 152:..\..\u8g2\csrc/u8x8_d_ssd1325.c **** static uint8_t u8x8_d_ssd1325_128x64_generic(u8x8_t *u8x8, uint8_t msg, uint8_t arg_int, void *arg_
 153:..\..\u8g2\csrc/u8x8_d_ssd1325.c **** {
 132              		.loc 1 153 0
 133              		.cfi_startproc
 134              		@ args = 0, pretend = 0, frame = 16
 135              		@ frame_needed = 0, uses_anonymous_args = 0
 136              	.LVL19:
 137 0000 F0B5     		push	{r4, r5, r6, r7, lr}
 138              		.cfi_def_cfa_offset 20
 139              		.cfi_offset 4, -20
 140              		.cfi_offset 5, -16
 141              		.cfi_offset 6, -12
 142              		.cfi_offset 7, -8
 143              		.cfi_offset 14, -4
 144 0002 5F46     		mov	r7, fp
 145 0004 5646     		mov	r6, r10
 146 0006 4D46     		mov	r5, r9
 147 0008 4446     		mov	r4, r8
 148 000a F0B4     		push	{r4, r5, r6, r7}
 149              		.cfi_def_cfa_offset 36
 150              		.cfi_offset 8, -36
 151              		.cfi_offset 9, -32
 152              		.cfi_offset 10, -28
 153              		.cfi_offset 11, -24
 154 000c 85B0     		sub	sp, sp, #20
 155              		.cfi_def_cfa_offset 56
 156 000e 0290     		str	r0, [sp, #8]
 157 0010 0392     		str	r2, [sp, #12]
 158 0012 9846     		mov	r8, r3
 154:..\..\u8g2\csrc/u8x8_d_ssd1325.c ****   uint8_t x, y, c;
 155:..\..\u8g2\csrc/u8x8_d_ssd1325.c ****   uint8_t *ptr;
 156:..\..\u8g2\csrc/u8x8_d_ssd1325.c ****   switch(msg)
 159              		.loc 1 156 0
 160 0014 0A39     		subs	r1, r1, #10
 161              	.LVL20:
 162 0016 CBB2     		uxtb	r3, r1
 163              	.LVL21:
 164 0018 052B     		cmp	r3, #5
 165 001a 00D9     		bls	.LCB176
 166 001c CEE0     		b	.L25	@long jump
 167              	.LCB176:
 168 001e 9900     		lsls	r1, r3, #2
 169 0020 6A4B     		ldr	r3, .L26
 170 0022 5B58     		ldr	r3, [r3, r1]
 171 0024 9F46     		mov	pc, r3
 172              		.section	.rodata
 173              		.align	2
 174              	.L14:
 175 0000 26000000 		.word	.L13
 176 0004 3A000000 		.word	.L15
 177 0008 BC010000 		.word	.L25
 178 000c 5C000000 		.word	.L16
 179 0010 92000000 		.word	.L17
 180 0014 B4000000 		.word	.L18
 181              		.section	.text.u8x8_d_ssd1325_128x64_generic
ARM GAS  C:\Users\Alan\AppData\Local\Temp\ccC1Xvg6.s 			page 7


 182              	.L13:
 157:..\..\u8g2\csrc/u8x8_d_ssd1325.c ****   {
 158:..\..\u8g2\csrc/u8x8_d_ssd1325.c ****     /* handled by the calling function
 159:..\..\u8g2\csrc/u8x8_d_ssd1325.c ****     case U8X8_MSG_DISPLAY_SETUP_MEMORY:
 160:..\..\u8g2\csrc/u8x8_d_ssd1325.c ****       u8x8_d_helper_display_setup_memory(u8x8, &u8x8_ssd1325_128x64_nhd_display_info);
 161:..\..\u8g2\csrc/u8x8_d_ssd1325.c ****       break;
 162:..\..\u8g2\csrc/u8x8_d_ssd1325.c ****     */
 163:..\..\u8g2\csrc/u8x8_d_ssd1325.c ****     case U8X8_MSG_DISPLAY_INIT:
 164:..\..\u8g2\csrc/u8x8_d_ssd1325.c ****       u8x8_d_helper_display_init(u8x8);
 183              		.loc 1 164 0
 184 0026 029C     		ldr	r4, [sp, #8]
 185 0028 2000     		movs	r0, r4
 186              	.LVL22:
 187 002a FFF7FEFF 		bl	u8x8_d_helper_display_init
 188              	.LVL23:
 165:..\..\u8g2\csrc/u8x8_d_ssd1325.c ****       u8x8_cad_SendSequence(u8x8, u8x8_d_ssd1325_128x64_nhd_init_seq);    
 189              		.loc 1 165 0
 190 002e 6849     		ldr	r1, .L26+4
 191 0030 2000     		movs	r0, r4
 192 0032 FFF7FEFF 		bl	u8x8_cad_SendSequence
 193              	.LVL24:
 166:..\..\u8g2\csrc/u8x8_d_ssd1325.c ****       break;
 167:..\..\u8g2\csrc/u8x8_d_ssd1325.c ****     case U8X8_MSG_DISPLAY_SET_POWER_SAVE:
 168:..\..\u8g2\csrc/u8x8_d_ssd1325.c ****       if ( arg_int == 0 )
 169:..\..\u8g2\csrc/u8x8_d_ssd1325.c **** 	u8x8_cad_SendSequence(u8x8, u8x8_d_ssd1325_128x64_nhd_powersave0_seq);
 170:..\..\u8g2\csrc/u8x8_d_ssd1325.c ****       else
 171:..\..\u8g2\csrc/u8x8_d_ssd1325.c **** 	u8x8_cad_SendSequence(u8x8, u8x8_d_ssd1325_128x64_nhd_powersave1_seq);
 172:..\..\u8g2\csrc/u8x8_d_ssd1325.c ****       break;
 173:..\..\u8g2\csrc/u8x8_d_ssd1325.c ****     case U8X8_MSG_DISPLAY_SET_FLIP_MODE:
 174:..\..\u8g2\csrc/u8x8_d_ssd1325.c ****       if ( arg_int == 0 )
 175:..\..\u8g2\csrc/u8x8_d_ssd1325.c ****       {
 176:..\..\u8g2\csrc/u8x8_d_ssd1325.c **** 	u8x8_cad_SendSequence(u8x8, u8x8_d_ssd1325_128x64_nhd_flip0_seq);
 177:..\..\u8g2\csrc/u8x8_d_ssd1325.c **** 	u8x8->x_offset = u8x8->display_info->default_x_offset;
 178:..\..\u8g2\csrc/u8x8_d_ssd1325.c ****       }
 179:..\..\u8g2\csrc/u8x8_d_ssd1325.c ****       else
 180:..\..\u8g2\csrc/u8x8_d_ssd1325.c ****       {
 181:..\..\u8g2\csrc/u8x8_d_ssd1325.c **** 	u8x8_cad_SendSequence(u8x8, u8x8_d_ssd1325_128x64_nhd_flip1_seq);
 182:..\..\u8g2\csrc/u8x8_d_ssd1325.c **** 	u8x8->x_offset = u8x8->display_info->flipmode_x_offset;
 183:..\..\u8g2\csrc/u8x8_d_ssd1325.c ****       }
 184:..\..\u8g2\csrc/u8x8_d_ssd1325.c ****       break;
 185:..\..\u8g2\csrc/u8x8_d_ssd1325.c **** #ifdef U8X8_WITH_SET_CONTRAST
 186:..\..\u8g2\csrc/u8x8_d_ssd1325.c ****     case U8X8_MSG_DISPLAY_SET_CONTRAST:
 187:..\..\u8g2\csrc/u8x8_d_ssd1325.c ****       u8x8_cad_StartTransfer(u8x8);
 188:..\..\u8g2\csrc/u8x8_d_ssd1325.c ****       u8x8_cad_SendCmd(u8x8, 0x081 );
 189:..\..\u8g2\csrc/u8x8_d_ssd1325.c ****       u8x8_cad_SendArg(u8x8, arg_int );	/* ssd1325 has range from 0 to 255 */
 190:..\..\u8g2\csrc/u8x8_d_ssd1325.c ****       u8x8_cad_EndTransfer(u8x8);
 191:..\..\u8g2\csrc/u8x8_d_ssd1325.c ****       break;
 192:..\..\u8g2\csrc/u8x8_d_ssd1325.c **** #endif
 193:..\..\u8g2\csrc/u8x8_d_ssd1325.c ****     case U8X8_MSG_DISPLAY_DRAW_TILE:
 194:..\..\u8g2\csrc/u8x8_d_ssd1325.c ****       u8x8_cad_StartTransfer(u8x8);
 195:..\..\u8g2\csrc/u8x8_d_ssd1325.c ****       x = ((u8x8_tile_t *)arg_ptr)->x_pos;    
 196:..\..\u8g2\csrc/u8x8_d_ssd1325.c ****       x *= 4;
 197:..\..\u8g2\csrc/u8x8_d_ssd1325.c ****     
 198:..\..\u8g2\csrc/u8x8_d_ssd1325.c ****       y = (((u8x8_tile_t *)arg_ptr)->y_pos);
 199:..\..\u8g2\csrc/u8x8_d_ssd1325.c ****       y *= 8;
 200:..\..\u8g2\csrc/u8x8_d_ssd1325.c ****       y += u8x8->x_offset;		/* x_offset is used as y offset for the SSD1325 */
 201:..\..\u8g2\csrc/u8x8_d_ssd1325.c ****     
ARM GAS  C:\Users\Alan\AppData\Local\Temp\ccC1Xvg6.s 			page 8


 202:..\..\u8g2\csrc/u8x8_d_ssd1325.c ****       
 203:..\..\u8g2\csrc/u8x8_d_ssd1325.c ****       do
 204:..\..\u8g2\csrc/u8x8_d_ssd1325.c ****       {
 205:..\..\u8g2\csrc/u8x8_d_ssd1325.c **** 	c = ((u8x8_tile_t *)arg_ptr)->cnt;
 206:..\..\u8g2\csrc/u8x8_d_ssd1325.c **** 	ptr = ((u8x8_tile_t *)arg_ptr)->tile_ptr;
 207:..\..\u8g2\csrc/u8x8_d_ssd1325.c **** 
 208:..\..\u8g2\csrc/u8x8_d_ssd1325.c **** 	do
 209:..\..\u8g2\csrc/u8x8_d_ssd1325.c **** 	{
 210:..\..\u8g2\csrc/u8x8_d_ssd1325.c **** 	  if ( ptr[0] | ptr[1] | ptr[2] | ptr[3] | ptr[4] | ptr[5] | ptr[6] | ptr[7] )
 211:..\..\u8g2\csrc/u8x8_d_ssd1325.c **** 	  {
 212:..\..\u8g2\csrc/u8x8_d_ssd1325.c **** 	    /* draw the tile if pattern is not zero for all bytes */
 213:..\..\u8g2\csrc/u8x8_d_ssd1325.c **** 	    u8x8_cad_SendCmd(u8x8, 0x015 );	/* set column address */
 214:..\..\u8g2\csrc/u8x8_d_ssd1325.c **** 	    u8x8_cad_SendArg(u8x8, x );	/* start */
 215:..\..\u8g2\csrc/u8x8_d_ssd1325.c **** 	    u8x8_cad_SendArg(u8x8, x+3 );	/* end */
 216:..\..\u8g2\csrc/u8x8_d_ssd1325.c **** 
 217:..\..\u8g2\csrc/u8x8_d_ssd1325.c **** 	    u8x8_cad_SendCmd(u8x8, 0x075 );	/* set row address */
 218:..\..\u8g2\csrc/u8x8_d_ssd1325.c **** 	    u8x8_cad_SendArg(u8x8, y);
 219:..\..\u8g2\csrc/u8x8_d_ssd1325.c **** 	    u8x8_cad_SendArg(u8x8, y+7);
 220:..\..\u8g2\csrc/u8x8_d_ssd1325.c **** 	    
 221:..\..\u8g2\csrc/u8x8_d_ssd1325.c **** 	    
 222:..\..\u8g2\csrc/u8x8_d_ssd1325.c **** 	    u8x8_cad_SendData(u8x8, 32, u8x8_ssd1325_8to32(u8x8, ptr));
 223:..\..\u8g2\csrc/u8x8_d_ssd1325.c **** 	  }
 224:..\..\u8g2\csrc/u8x8_d_ssd1325.c **** 	  else
 225:..\..\u8g2\csrc/u8x8_d_ssd1325.c **** 	  {
 226:..\..\u8g2\csrc/u8x8_d_ssd1325.c **** 	    /* tile is empty, use the graphics acceleration command */
 227:..\..\u8g2\csrc/u8x8_d_ssd1325.c **** 	    u8x8_cad_SendCmd(u8x8, 0x024 );	// draw rectangle
 228:..\..\u8g2\csrc/u8x8_d_ssd1325.c **** 	    u8x8_cad_SendArg(u8x8, x );	
 229:..\..\u8g2\csrc/u8x8_d_ssd1325.c **** 	    u8x8_cad_SendArg(u8x8, y );	
 230:..\..\u8g2\csrc/u8x8_d_ssd1325.c **** 	    u8x8_cad_SendArg(u8x8, x+3 );	
 231:..\..\u8g2\csrc/u8x8_d_ssd1325.c **** 	    u8x8_cad_SendArg(u8x8, y+7 );	
 232:..\..\u8g2\csrc/u8x8_d_ssd1325.c **** 	    u8x8_cad_SendArg(u8x8, 0 );	// clear	    
 233:..\..\u8g2\csrc/u8x8_d_ssd1325.c **** 	  }
 234:..\..\u8g2\csrc/u8x8_d_ssd1325.c **** 	  ptr += 8;
 235:..\..\u8g2\csrc/u8x8_d_ssd1325.c **** 	  x += 4;
 236:..\..\u8g2\csrc/u8x8_d_ssd1325.c **** 	  c--;
 237:..\..\u8g2\csrc/u8x8_d_ssd1325.c **** 	} while( c > 0 );
 238:..\..\u8g2\csrc/u8x8_d_ssd1325.c **** 	
 239:..\..\u8g2\csrc/u8x8_d_ssd1325.c **** 	//x += 4;
 240:..\..\u8g2\csrc/u8x8_d_ssd1325.c **** 	arg_int--;
 241:..\..\u8g2\csrc/u8x8_d_ssd1325.c ****       } while( arg_int > 0 );
 242:..\..\u8g2\csrc/u8x8_d_ssd1325.c ****       
 243:..\..\u8g2\csrc/u8x8_d_ssd1325.c ****       u8x8_cad_EndTransfer(u8x8);
 244:..\..\u8g2\csrc/u8x8_d_ssd1325.c ****       break;
 245:..\..\u8g2\csrc/u8x8_d_ssd1325.c ****     default:
 246:..\..\u8g2\csrc/u8x8_d_ssd1325.c ****       return 0;
 247:..\..\u8g2\csrc/u8x8_d_ssd1325.c ****   }
 248:..\..\u8g2\csrc/u8x8_d_ssd1325.c ****   return 1;
 194              		.loc 1 248 0
 195 0036 0120     		movs	r0, #1
 166:..\..\u8g2\csrc/u8x8_d_ssd1325.c ****       break;
 196              		.loc 1 166 0
 197 0038 C1E0     		b	.L12
 198              	.LVL25:
 199              	.L15:
 168:..\..\u8g2\csrc/u8x8_d_ssd1325.c **** 	u8x8_cad_SendSequence(u8x8, u8x8_d_ssd1325_128x64_nhd_powersave0_seq);
 200              		.loc 1 168 0
 201 003a 039B     		ldr	r3, [sp, #12]
ARM GAS  C:\Users\Alan\AppData\Local\Temp\ccC1Xvg6.s 			page 9


 202 003c 002B     		cmp	r3, #0
 203 003e 06D1     		bne	.L19
 169:..\..\u8g2\csrc/u8x8_d_ssd1325.c ****       else
 204              		.loc 1 169 0
 205 0040 6349     		ldr	r1, .L26+4
 206 0042 5831     		adds	r1, r1, #88
 207 0044 0298     		ldr	r0, [sp, #8]
 208              	.LVL26:
 209 0046 FFF7FEFF 		bl	u8x8_cad_SendSequence
 210              	.LVL27:
 211              		.loc 1 248 0
 212 004a 0120     		movs	r0, #1
 213 004c B7E0     		b	.L12
 214              	.LVL28:
 215              	.L19:
 171:..\..\u8g2\csrc/u8x8_d_ssd1325.c ****       break;
 216              		.loc 1 171 0
 217 004e 6049     		ldr	r1, .L26+4
 218 0050 6031     		adds	r1, r1, #96
 219 0052 0298     		ldr	r0, [sp, #8]
 220              	.LVL29:
 221 0054 FFF7FEFF 		bl	u8x8_cad_SendSequence
 222              	.LVL30:
 223              		.loc 1 248 0
 224 0058 0120     		movs	r0, #1
 225 005a B0E0     		b	.L12
 226              	.LVL31:
 227              	.L16:
 174:..\..\u8g2\csrc/u8x8_d_ssd1325.c ****       {
 228              		.loc 1 174 0
 229 005c 039B     		ldr	r3, [sp, #12]
 230 005e 002B     		cmp	r3, #0
 231 0060 0BD1     		bne	.L20
 176:..\..\u8g2\csrc/u8x8_d_ssd1325.c **** 	u8x8->x_offset = u8x8->display_info->default_x_offset;
 232              		.loc 1 176 0
 233 0062 5B49     		ldr	r1, .L26+4
 234 0064 6831     		adds	r1, r1, #104
 235 0066 029C     		ldr	r4, [sp, #8]
 236 0068 2000     		movs	r0, r4
 237              	.LVL32:
 238 006a FFF7FEFF 		bl	u8x8_cad_SendSequence
 239              	.LVL33:
 177:..\..\u8g2\csrc/u8x8_d_ssd1325.c ****       }
 240              		.loc 1 177 0
 241 006e 2368     		ldr	r3, [r4]
 242 0070 0193     		str	r3, [sp, #4]
 243 0072 9B7C     		ldrb	r3, [r3, #18]
 244 0074 A377     		strb	r3, [r4, #30]
 245              		.loc 1 248 0
 246 0076 0120     		movs	r0, #1
 247 0078 A1E0     		b	.L12
 248              	.LVL34:
 249              	.L20:
 181:..\..\u8g2\csrc/u8x8_d_ssd1325.c **** 	u8x8->x_offset = u8x8->display_info->flipmode_x_offset;
 250              		.loc 1 181 0
 251 007a 5549     		ldr	r1, .L26+4
 252 007c 7031     		adds	r1, r1, #112
ARM GAS  C:\Users\Alan\AppData\Local\Temp\ccC1Xvg6.s 			page 10


 253 007e 029C     		ldr	r4, [sp, #8]
 254 0080 2000     		movs	r0, r4
 255              	.LVL35:
 256 0082 FFF7FEFF 		bl	u8x8_cad_SendSequence
 257              	.LVL36:
 182:..\..\u8g2\csrc/u8x8_d_ssd1325.c ****       }
 258              		.loc 1 182 0
 259 0086 2368     		ldr	r3, [r4]
 260 0088 0193     		str	r3, [sp, #4]
 261 008a DB7C     		ldrb	r3, [r3, #19]
 262 008c A377     		strb	r3, [r4, #30]
 263              		.loc 1 248 0
 264 008e 0120     		movs	r0, #1
 265 0090 95E0     		b	.L12
 266              	.LVL37:
 267              	.L17:
 187:..\..\u8g2\csrc/u8x8_d_ssd1325.c ****       u8x8_cad_SendCmd(u8x8, 0x081 );
 268              		.loc 1 187 0
 269 0092 029C     		ldr	r4, [sp, #8]
 270 0094 2000     		movs	r0, r4
 271              	.LVL38:
 272 0096 FFF7FEFF 		bl	u8x8_cad_StartTransfer
 273              	.LVL39:
 188:..\..\u8g2\csrc/u8x8_d_ssd1325.c ****       u8x8_cad_SendArg(u8x8, arg_int );	/* ssd1325 has range from 0 to 255 */
 274              		.loc 1 188 0
 275 009a 8121     		movs	r1, #129
 276 009c 2000     		movs	r0, r4
 277 009e FFF7FEFF 		bl	u8x8_cad_SendCmd
 278              	.LVL40:
 189:..\..\u8g2\csrc/u8x8_d_ssd1325.c ****       u8x8_cad_EndTransfer(u8x8);
 279              		.loc 1 189 0
 280 00a2 0399     		ldr	r1, [sp, #12]
 281 00a4 2000     		movs	r0, r4
 282 00a6 FFF7FEFF 		bl	u8x8_cad_SendArg
 283              	.LVL41:
 190:..\..\u8g2\csrc/u8x8_d_ssd1325.c ****       break;
 284              		.loc 1 190 0
 285 00aa 2000     		movs	r0, r4
 286 00ac FFF7FEFF 		bl	u8x8_cad_EndTransfer
 287              	.LVL42:
 288              		.loc 1 248 0
 289 00b0 0120     		movs	r0, #1
 191:..\..\u8g2\csrc/u8x8_d_ssd1325.c **** #endif
 290              		.loc 1 191 0
 291 00b2 84E0     		b	.L12
 292              	.LVL43:
 293              	.L18:
 194:..\..\u8g2\csrc/u8x8_d_ssd1325.c ****       x = ((u8x8_tile_t *)arg_ptr)->x_pos;    
 294              		.loc 1 194 0
 295 00b4 029C     		ldr	r4, [sp, #8]
 296 00b6 2000     		movs	r0, r4
 297              	.LVL44:
 298 00b8 FFF7FEFF 		bl	u8x8_cad_StartTransfer
 299              	.LVL45:
 195:..\..\u8g2\csrc/u8x8_d_ssd1325.c ****       x *= 4;
 300              		.loc 1 195 0
 301 00bc 4346     		mov	r3, r8
ARM GAS  C:\Users\Alan\AppData\Local\Temp\ccC1Xvg6.s 			page 11


 302 00be 5E79     		ldrb	r6, [r3, #5]
 303              	.LVL46:
 196:..\..\u8g2\csrc/u8x8_d_ssd1325.c ****     
 304              		.loc 1 196 0
 305 00c0 B600     		lsls	r6, r6, #2
 306              	.LVL47:
 307 00c2 F6B2     		uxtb	r6, r6
 308              	.LVL48:
 198:..\..\u8g2\csrc/u8x8_d_ssd1325.c ****       y *= 8;
 309              		.loc 1 198 0
 310 00c4 9B79     		ldrb	r3, [r3, #6]
 311              	.LVL49:
 199:..\..\u8g2\csrc/u8x8_d_ssd1325.c ****       y += u8x8->x_offset;		/* x_offset is used as y offset for the SSD1325 */
 312              		.loc 1 199 0
 313 00c6 DB00     		lsls	r3, r3, #3
 314              	.LVL50:
 315 00c8 DBB2     		uxtb	r3, r3
 316              	.LVL51:
 200:..\..\u8g2\csrc/u8x8_d_ssd1325.c ****     
 317              		.loc 1 200 0
 318 00ca A27F     		ldrb	r2, [r4, #30]
 319 00cc 9B18     		adds	r3, r3, r2
 320              	.LVL52:
 321 00ce DCB2     		uxtb	r4, r3
 322              	.LVL53:
 323 00d0 2500     		movs	r5, r4
 324              	.LVL54:
 325              	.L24:
 205:..\..\u8g2\csrc/u8x8_d_ssd1325.c **** 	ptr = ((u8x8_tile_t *)arg_ptr)->tile_ptr;
 326              		.loc 1 205 0
 327 00d2 4346     		mov	r3, r8
 328 00d4 1C79     		ldrb	r4, [r3, #4]
 329              	.LVL55:
 206:..\..\u8g2\csrc/u8x8_d_ssd1325.c **** 
 330              		.loc 1 206 0
 331 00d6 1F68     		ldr	r7, [r3]
 332              	.LVL56:
 333 00d8 0195     		str	r5, [sp, #4]
 334              	.L23:
 210:..\..\u8g2\csrc/u8x8_d_ssd1325.c **** 	  {
 335              		.loc 1 210 0
 336 00da 3B78     		ldrb	r3, [r7]
 337 00dc 9B46     		mov	fp, r3
 338 00de 7B78     		ldrb	r3, [r7, #1]
 339 00e0 BA78     		ldrb	r2, [r7, #2]
 340 00e2 9246     		mov	r10, r2
 341 00e4 FA78     		ldrb	r2, [r7, #3]
 342 00e6 9146     		mov	r9, r2
 343 00e8 3A79     		ldrb	r2, [r7, #4]
 344 00ea 9446     		mov	ip, r2
 345 00ec 7879     		ldrb	r0, [r7, #5]
 346 00ee B979     		ldrb	r1, [r7, #6]
 347 00f0 FA79     		ldrb	r2, [r7, #7]
 348 00f2 5D46     		mov	r5, fp
 349 00f4 2B43     		orrs	r3, r5
 350 00f6 5546     		mov	r5, r10
 351 00f8 2B43     		orrs	r3, r5
ARM GAS  C:\Users\Alan\AppData\Local\Temp\ccC1Xvg6.s 			page 12


 352 00fa 4D46     		mov	r5, r9
 353 00fc 2B43     		orrs	r3, r5
 354 00fe 6546     		mov	r5, ip
 355 0100 2B43     		orrs	r3, r5
 356 0102 1843     		orrs	r0, r3
 357 0104 0143     		orrs	r1, r0
 358 0106 0A43     		orrs	r2, r1
 359 0108 27D0     		beq	.L21
 213:..\..\u8g2\csrc/u8x8_d_ssd1325.c **** 	    u8x8_cad_SendArg(u8x8, x );	/* start */
 360              		.loc 1 213 0
 361 010a 1521     		movs	r1, #21
 362 010c 029D     		ldr	r5, [sp, #8]
 363 010e 2800     		movs	r0, r5
 364 0110 FFF7FEFF 		bl	u8x8_cad_SendCmd
 365              	.LVL57:
 214:..\..\u8g2\csrc/u8x8_d_ssd1325.c **** 	    u8x8_cad_SendArg(u8x8, x+3 );	/* end */
 366              		.loc 1 214 0
 367 0114 3100     		movs	r1, r6
 368 0116 2800     		movs	r0, r5
 369 0118 FFF7FEFF 		bl	u8x8_cad_SendArg
 370              	.LVL58:
 215:..\..\u8g2\csrc/u8x8_d_ssd1325.c **** 
 371              		.loc 1 215 0
 372 011c F11C     		adds	r1, r6, #3
 373 011e C9B2     		uxtb	r1, r1
 374 0120 2800     		movs	r0, r5
 375 0122 FFF7FEFF 		bl	u8x8_cad_SendArg
 376              	.LVL59:
 217:..\..\u8g2\csrc/u8x8_d_ssd1325.c **** 	    u8x8_cad_SendArg(u8x8, y);
 377              		.loc 1 217 0
 378 0126 7521     		movs	r1, #117
 379 0128 2800     		movs	r0, r5
 380 012a FFF7FEFF 		bl	u8x8_cad_SendCmd
 381              	.LVL60:
 218:..\..\u8g2\csrc/u8x8_d_ssd1325.c **** 	    u8x8_cad_SendArg(u8x8, y+7);
 382              		.loc 1 218 0
 383 012e 019B     		ldr	r3, [sp, #4]
 384 0130 9946     		mov	r9, r3
 385 0132 1900     		movs	r1, r3
 386 0134 2800     		movs	r0, r5
 387 0136 FFF7FEFF 		bl	u8x8_cad_SendArg
 388              	.LVL61:
 219:..\..\u8g2\csrc/u8x8_d_ssd1325.c **** 	    
 389              		.loc 1 219 0
 390 013a 4B46     		mov	r3, r9
 391 013c D91D     		adds	r1, r3, #7
 392 013e C9B2     		uxtb	r1, r1
 393 0140 2800     		movs	r0, r5
 394 0142 FFF7FEFF 		bl	u8x8_cad_SendArg
 395              	.LVL62:
 222:..\..\u8g2\csrc/u8x8_d_ssd1325.c **** 	  }
 396              		.loc 1 222 0
 397 0146 3900     		movs	r1, r7
 398 0148 2800     		movs	r0, r5
 399 014a FFF7FEFF 		bl	u8x8_ssd1325_8to32
 400              	.LVL63:
 401 014e 0200     		movs	r2, r0
ARM GAS  C:\Users\Alan\AppData\Local\Temp\ccC1Xvg6.s 			page 13


 402 0150 2021     		movs	r1, #32
 403 0152 2800     		movs	r0, r5
 404 0154 FFF7FEFF 		bl	u8x8_cad_SendData
 405              	.LVL64:
 406 0158 1DE0     		b	.L22
 407              	.L21:
 227:..\..\u8g2\csrc/u8x8_d_ssd1325.c **** 	    u8x8_cad_SendArg(u8x8, x );	
 408              		.loc 1 227 0
 409 015a 2421     		movs	r1, #36
 410 015c 029D     		ldr	r5, [sp, #8]
 411 015e 2800     		movs	r0, r5
 412 0160 FFF7FEFF 		bl	u8x8_cad_SendCmd
 413              	.LVL65:
 228:..\..\u8g2\csrc/u8x8_d_ssd1325.c **** 	    u8x8_cad_SendArg(u8x8, y );	
 414              		.loc 1 228 0
 415 0164 3100     		movs	r1, r6
 416 0166 2800     		movs	r0, r5
 417 0168 FFF7FEFF 		bl	u8x8_cad_SendArg
 418              	.LVL66:
 229:..\..\u8g2\csrc/u8x8_d_ssd1325.c **** 	    u8x8_cad_SendArg(u8x8, x+3 );	
 419              		.loc 1 229 0
 420 016c 019B     		ldr	r3, [sp, #4]
 421 016e 9946     		mov	r9, r3
 422 0170 1900     		movs	r1, r3
 423 0172 2800     		movs	r0, r5
 424 0174 FFF7FEFF 		bl	u8x8_cad_SendArg
 425              	.LVL67:
 230:..\..\u8g2\csrc/u8x8_d_ssd1325.c **** 	    u8x8_cad_SendArg(u8x8, y+7 );	
 426              		.loc 1 230 0
 427 0178 F11C     		adds	r1, r6, #3
 428 017a C9B2     		uxtb	r1, r1
 429 017c 2800     		movs	r0, r5
 430 017e FFF7FEFF 		bl	u8x8_cad_SendArg
 431              	.LVL68:
 231:..\..\u8g2\csrc/u8x8_d_ssd1325.c **** 	    u8x8_cad_SendArg(u8x8, 0 );	// clear	    
 432              		.loc 1 231 0
 433 0182 4B46     		mov	r3, r9
 434 0184 D91D     		adds	r1, r3, #7
 435 0186 C9B2     		uxtb	r1, r1
 436 0188 2800     		movs	r0, r5
 437 018a FFF7FEFF 		bl	u8x8_cad_SendArg
 438              	.LVL69:
 232:..\..\u8g2\csrc/u8x8_d_ssd1325.c **** 	  }
 439              		.loc 1 232 0
 440 018e 0021     		movs	r1, #0
 441 0190 2800     		movs	r0, r5
 442 0192 FFF7FEFF 		bl	u8x8_cad_SendArg
 443              	.LVL70:
 444              	.L22:
 234:..\..\u8g2\csrc/u8x8_d_ssd1325.c **** 	  x += 4;
 445              		.loc 1 234 0
 446 0196 0837     		adds	r7, r7, #8
 447              	.LVL71:
 235:..\..\u8g2\csrc/u8x8_d_ssd1325.c **** 	  c--;
 448              		.loc 1 235 0
 449 0198 0436     		adds	r6, r6, #4
 450              	.LVL72:
ARM GAS  C:\Users\Alan\AppData\Local\Temp\ccC1Xvg6.s 			page 14


 451 019a F6B2     		uxtb	r6, r6
 452              	.LVL73:
 236:..\..\u8g2\csrc/u8x8_d_ssd1325.c **** 	} while( c > 0 );
 453              		.loc 1 236 0
 454 019c 013C     		subs	r4, r4, #1
 455              	.LVL74:
 456 019e E4B2     		uxtb	r4, r4
 457              	.LVL75:
 237:..\..\u8g2\csrc/u8x8_d_ssd1325.c **** 	
 458              		.loc 1 237 0
 459 01a0 002C     		cmp	r4, #0
 460 01a2 9AD1     		bne	.L23
 461 01a4 019D     		ldr	r5, [sp, #4]
 240:..\..\u8g2\csrc/u8x8_d_ssd1325.c ****       } while( arg_int > 0 );
 462              		.loc 1 240 0
 463 01a6 039B     		ldr	r3, [sp, #12]
 464 01a8 013B     		subs	r3, r3, #1
 465 01aa DBB2     		uxtb	r3, r3
 466 01ac 0393     		str	r3, [sp, #12]
 467              	.LVL76:
 241:..\..\u8g2\csrc/u8x8_d_ssd1325.c ****       
 468              		.loc 1 241 0
 469 01ae 002B     		cmp	r3, #0
 470 01b0 8FD1     		bne	.L24
 243:..\..\u8g2\csrc/u8x8_d_ssd1325.c ****       break;
 471              		.loc 1 243 0
 472 01b2 0298     		ldr	r0, [sp, #8]
 473 01b4 FFF7FEFF 		bl	u8x8_cad_EndTransfer
 474              	.LVL77:
 475              		.loc 1 248 0
 476 01b8 0120     		movs	r0, #1
 244:..\..\u8g2\csrc/u8x8_d_ssd1325.c ****     default:
 477              		.loc 1 244 0
 478 01ba 00E0     		b	.L12
 479              	.LVL78:
 480              	.L25:
 246:..\..\u8g2\csrc/u8x8_d_ssd1325.c ****   }
 481              		.loc 1 246 0
 482 01bc 0020     		movs	r0, #0
 483              	.LVL79:
 484              	.L12:
 249:..\..\u8g2\csrc/u8x8_d_ssd1325.c **** }
 485              		.loc 1 249 0
 486 01be 05B0     		add	sp, sp, #20
 487              		@ sp needed
 488              	.LVL80:
 489 01c0 3CBC     		pop	{r2, r3, r4, r5}
 490 01c2 9046     		mov	r8, r2
 491 01c4 9946     		mov	r9, r3
 492 01c6 A246     		mov	r10, r4
 493 01c8 AB46     		mov	fp, r5
 494 01ca F0BD     		pop	{r4, r5, r6, r7, pc}
 495              	.L27:
 496              		.align	2
 497              	.L26:
 498 01cc 00000000 		.word	.L14
 499 01d0 18000000 		.word	.LANCHOR1
ARM GAS  C:\Users\Alan\AppData\Local\Temp\ccC1Xvg6.s 			page 15


 500              		.cfi_endproc
 501              	.LFE1:
 502              		.size	u8x8_d_ssd1325_128x64_generic, .-u8x8_d_ssd1325_128x64_generic
 503              		.section	.text.u8x8_d_ssd1325_nhd_128x64,"ax",%progbits
 504              		.align	2
 505              		.global	u8x8_d_ssd1325_nhd_128x64
 506              		.code	16
 507              		.thumb_func
 508              		.type	u8x8_d_ssd1325_nhd_128x64, %function
 509              	u8x8_d_ssd1325_nhd_128x64:
 510              	.LFB2:
 250:..\..\u8g2\csrc/u8x8_d_ssd1325.c **** 
 251:..\..\u8g2\csrc/u8x8_d_ssd1325.c **** 
 252:..\..\u8g2\csrc/u8x8_d_ssd1325.c **** static const u8x8_display_info_t u8x8_nhd_ssd1325_128x64_display_info =
 253:..\..\u8g2\csrc/u8x8_d_ssd1325.c **** {
 254:..\..\u8g2\csrc/u8x8_d_ssd1325.c ****   /* chip_enable_level = */ 0,
 255:..\..\u8g2\csrc/u8x8_d_ssd1325.c ****   /* chip_disable_level = */ 1,
 256:..\..\u8g2\csrc/u8x8_d_ssd1325.c ****   
 257:..\..\u8g2\csrc/u8x8_d_ssd1325.c ****   /* post_chip_enable_wait_ns = */ 20,
 258:..\..\u8g2\csrc/u8x8_d_ssd1325.c ****   /* pre_chip_disable_wait_ns = */ 10,
 259:..\..\u8g2\csrc/u8x8_d_ssd1325.c ****   /* reset_pulse_width_ms = */ 100, 	
 260:..\..\u8g2\csrc/u8x8_d_ssd1325.c ****   /* post_reset_wait_ms = */ 100, 		/**/
 261:..\..\u8g2\csrc/u8x8_d_ssd1325.c ****   /* sda_setup_time_ns = */ 100,		/* SSD1325  */
 262:..\..\u8g2\csrc/u8x8_d_ssd1325.c ****   /* sck_pulse_width_ns = */ 100,	/* SSD1325  */
 263:..\..\u8g2\csrc/u8x8_d_ssd1325.c ****   /* sck_clock_hz = */ 4000000UL,	/* since Arduino 1.6.0, the SPI bus speed in Hz. Should be  10000
 264:..\..\u8g2\csrc/u8x8_d_ssd1325.c ****   /* spi_mode = */ 0,		/* active high, rising edge */
 265:..\..\u8g2\csrc/u8x8_d_ssd1325.c ****   /* i2c_bus_clock_100kHz = */ 4,
 266:..\..\u8g2\csrc/u8x8_d_ssd1325.c ****   /* data_setup_time_ns = */ 40,
 267:..\..\u8g2\csrc/u8x8_d_ssd1325.c ****   /* write_pulse_width_ns = */ 60,	/* SSD1325 */
 268:..\..\u8g2\csrc/u8x8_d_ssd1325.c ****   /* tile_width = */ 16,
 269:..\..\u8g2\csrc/u8x8_d_ssd1325.c ****   /* tile_hight = */ 8,
 270:..\..\u8g2\csrc/u8x8_d_ssd1325.c ****   /* default_x_offset = */ 0,		/* x_offset is used as y offset for the SSD1325 */
 271:..\..\u8g2\csrc/u8x8_d_ssd1325.c ****   /* flipmode_x_offset = */ 8,		/* x_offset is used as y offset for the SSD1325 */
 272:..\..\u8g2\csrc/u8x8_d_ssd1325.c ****   /* pixel_width = */ 128,
 273:..\..\u8g2\csrc/u8x8_d_ssd1325.c ****   /* pixel_height = */ 64
 274:..\..\u8g2\csrc/u8x8_d_ssd1325.c **** };
 275:..\..\u8g2\csrc/u8x8_d_ssd1325.c **** 
 276:..\..\u8g2\csrc/u8x8_d_ssd1325.c **** uint8_t u8x8_d_ssd1325_nhd_128x64(u8x8_t *u8x8, uint8_t msg, uint8_t arg_int, void *arg_ptr)
 277:..\..\u8g2\csrc/u8x8_d_ssd1325.c **** {
 511              		.loc 1 277 0
 512              		.cfi_startproc
 513              		@ args = 0, pretend = 0, frame = 0
 514              		@ frame_needed = 0, uses_anonymous_args = 0
 515              	.LVL81:
 516 0000 10B5     		push	{r4, lr}
 517              		.cfi_def_cfa_offset 8
 518              		.cfi_offset 4, -8
 519              		.cfi_offset 14, -4
 278:..\..\u8g2\csrc/u8x8_d_ssd1325.c ****     if ( msg == U8X8_MSG_DISPLAY_SETUP_MEMORY )
 520              		.loc 1 278 0
 521 0002 0929     		cmp	r1, #9
 522 0004 04D1     		bne	.L29
 279:..\..\u8g2\csrc/u8x8_d_ssd1325.c ****     {
 280:..\..\u8g2\csrc/u8x8_d_ssd1325.c ****       u8x8_d_helper_display_setup_memory(u8x8, &u8x8_nhd_ssd1325_128x64_display_info);
 523              		.loc 1 280 0
 524 0006 0449     		ldr	r1, .L31
 525              	.LVL82:
ARM GAS  C:\Users\Alan\AppData\Local\Temp\ccC1Xvg6.s 			page 16


 526 0008 FFF7FEFF 		bl	u8x8_d_helper_display_setup_memory
 527              	.LVL83:
 281:..\..\u8g2\csrc/u8x8_d_ssd1325.c ****       return 1;
 528              		.loc 1 281 0
 529 000c 0120     		movs	r0, #1
 530 000e 01E0     		b	.L30
 531              	.LVL84:
 532              	.L29:
 282:..\..\u8g2\csrc/u8x8_d_ssd1325.c ****     }
 283:..\..\u8g2\csrc/u8x8_d_ssd1325.c ****     return u8x8_d_ssd1325_128x64_generic(u8x8, msg, arg_int, arg_ptr);
 533              		.loc 1 283 0
 534 0010 FFF7FEFF 		bl	u8x8_d_ssd1325_128x64_generic
 535              	.LVL85:
 536              	.L30:
 284:..\..\u8g2\csrc/u8x8_d_ssd1325.c **** }
 537              		.loc 1 284 0
 538              		@ sp needed
 539 0014 10BD     		pop	{r4, pc}
 540              	.L32:
 541 0016 C046     		.align	2
 542              	.L31:
 543 0018 90000000 		.word	.LANCHOR2
 544              		.cfi_endproc
 545              	.LFE2:
 546              		.size	u8x8_d_ssd1325_nhd_128x64, .-u8x8_d_ssd1325_nhd_128x64
 547              		.section	.rodata
 548              		.align	2
 549              		.set	.LANCHOR1,. + 0
 550              		.type	u8x8_d_ssd1325_128x64_nhd_init_seq, %object
 551              		.size	u8x8_d_ssd1325_128x64_nhd_init_seq, 87
 552              	u8x8_d_ssd1325_128x64_nhd_init_seq:
 553 0018 18       		.byte	24
 554 0019 15       		.byte	21
 555 001a AE       		.byte	-82
 556 001b 15       		.byte	21
 557 001c B3       		.byte	-77
 558 001d 16       		.byte	22
 559 001e 91       		.byte	-111
 560 001f 15       		.byte	21
 561 0020 A8       		.byte	-88
 562 0021 16       		.byte	22
 563 0022 3F       		.byte	63
 564 0023 15       		.byte	21
 565 0024 A2       		.byte	-94
 566 0025 16       		.byte	22
 567 0026 4C       		.byte	76
 568 0027 15       		.byte	21
 569 0028 A1       		.byte	-95
 570 0029 16       		.byte	22
 571 002a 00       		.byte	0
 572 002b 15       		.byte	21
 573 002c AD       		.byte	-83
 574 002d 16       		.byte	22
 575 002e 02       		.byte	2
 576 002f 15       		.byte	21
 577 0030 A0       		.byte	-96
 578 0031 16       		.byte	22
ARM GAS  C:\Users\Alan\AppData\Local\Temp\ccC1Xvg6.s 			page 17


 579 0032 52       		.byte	82
 580 0033 15       		.byte	21
 581 0034 86       		.byte	-122
 582 0035 15       		.byte	21
 583 0036 B8       		.byte	-72
 584 0037 16       		.byte	22
 585 0038 01       		.byte	1
 586 0039 16       		.byte	22
 587 003a 11       		.byte	17
 588 003b 16       		.byte	22
 589 003c 22       		.byte	34
 590 003d 16       		.byte	22
 591 003e 32       		.byte	50
 592 003f 16       		.byte	22
 593 0040 43       		.byte	67
 594 0041 16       		.byte	22
 595 0042 54       		.byte	84
 596 0043 16       		.byte	22
 597 0044 65       		.byte	101
 598 0045 16       		.byte	22
 599 0046 76       		.byte	118
 600 0047 15       		.byte	21
 601 0048 81       		.byte	-127
 602 0049 16       		.byte	22
 603 004a 70       		.byte	112
 604 004b 15       		.byte	21
 605 004c B2       		.byte	-78
 606 004d 16       		.byte	22
 607 004e 51       		.byte	81
 608 004f 15       		.byte	21
 609 0050 B1       		.byte	-79
 610 0051 16       		.byte	22
 611 0052 55       		.byte	85
 612 0053 15       		.byte	21
 613 0054 BC       		.byte	-68
 614 0055 16       		.byte	22
 615 0056 10       		.byte	16
 616 0057 15       		.byte	21
 617 0058 B4       		.byte	-76
 618 0059 16       		.byte	22
 619 005a 02       		.byte	2
 620 005b 15       		.byte	21
 621 005c B0       		.byte	-80
 622 005d 16       		.byte	22
 623 005e 28       		.byte	40
 624 005f 15       		.byte	21
 625 0060 BE       		.byte	-66
 626 0061 16       		.byte	22
 627 0062 1C       		.byte	28
 628 0063 15       		.byte	21
 629 0064 BF       		.byte	-65
 630 0065 16       		.byte	22
 631 0066 0F       		.byte	15
 632 0067 15       		.byte	21
 633 0068 A4       		.byte	-92
 634 0069 15       		.byte	21
 635 006a 23       		.byte	35
ARM GAS  C:\Users\Alan\AppData\Local\Temp\ccC1Xvg6.s 			page 18


 636 006b 16       		.byte	22
 637 006c 03       		.byte	3
 638 006d 19       		.byte	25
 639 006e FF       		.byte	-1
 640 006f 00       		.space	1
 641              		.type	u8x8_d_ssd1325_128x64_nhd_powersave0_seq, %object
 642              		.size	u8x8_d_ssd1325_128x64_nhd_powersave0_seq, 5
 643              	u8x8_d_ssd1325_128x64_nhd_powersave0_seq:
 644 0070 18       		.byte	24
 645 0071 15       		.byte	21
 646 0072 AF       		.byte	-81
 647 0073 19       		.byte	25
 648 0074 FF       		.byte	-1
 649 0075 000000   		.space	3
 650              		.type	u8x8_d_ssd1325_128x64_nhd_powersave1_seq, %object
 651              		.size	u8x8_d_ssd1325_128x64_nhd_powersave1_seq, 5
 652              	u8x8_d_ssd1325_128x64_nhd_powersave1_seq:
 653 0078 18       		.byte	24
 654 0079 15       		.byte	21
 655 007a AE       		.byte	-82
 656 007b 19       		.byte	25
 657 007c FF       		.byte	-1
 658 007d 000000   		.space	3
 659              		.type	u8x8_d_ssd1325_128x64_nhd_flip0_seq, %object
 660              		.size	u8x8_d_ssd1325_128x64_nhd_flip0_seq, 7
 661              	u8x8_d_ssd1325_128x64_nhd_flip0_seq:
 662 0080 18       		.byte	24
 663 0081 15       		.byte	21
 664 0082 A0       		.byte	-96
 665 0083 16       		.byte	22
 666 0084 52       		.byte	82
 667 0085 19       		.byte	25
 668 0086 FF       		.byte	-1
 669 0087 00       		.space	1
 670              		.type	u8x8_d_ssd1325_128x64_nhd_flip1_seq, %object
 671              		.size	u8x8_d_ssd1325_128x64_nhd_flip1_seq, 7
 672              	u8x8_d_ssd1325_128x64_nhd_flip1_seq:
 673 0088 18       		.byte	24
 674 0089 15       		.byte	21
 675 008a A0       		.byte	-96
 676 008b 16       		.byte	22
 677 008c 41       		.byte	65
 678 008d 19       		.byte	25
 679 008e FF       		.byte	-1
 680 008f 00       		.align	2
 681              		.set	.LANCHOR2,. + 0
 682              		.type	u8x8_nhd_ssd1325_128x64_display_info, %object
 683              		.size	u8x8_nhd_ssd1325_128x64_display_info, 24
 684              	u8x8_nhd_ssd1325_128x64_display_info:
 685 0090 00       		.byte	0
 686 0091 01       		.byte	1
 687 0092 14       		.byte	20
 688 0093 0A       		.byte	10
 689 0094 64       		.byte	100
 690 0095 64       		.byte	100
 691 0096 64       		.byte	100
 692 0097 64       		.byte	100
ARM GAS  C:\Users\Alan\AppData\Local\Temp\ccC1Xvg6.s 			page 19


 693 0098 00093D00 		.word	4000000
 694 009c 00       		.byte	0
 695 009d 04       		.byte	4
 696 009e 28       		.byte	40
 697 009f 3C       		.byte	60
 698 00a0 10       		.byte	16
 699 00a1 08       		.byte	8
 700 00a2 00       		.byte	0
 701 00a3 08       		.byte	8
 702 00a4 8000     		.short	128
 703 00a6 4000     		.short	64
 704              		.bss
 705              		.align	2
 706              		.set	.LANCHOR0,. + 0
 707              		.type	u8x8_ssd1325_8to32_dest_buf, %object
 708              		.size	u8x8_ssd1325_8to32_dest_buf, 32
 709              	u8x8_ssd1325_8to32_dest_buf:
 710 0000 00000000 		.space	32
 710      00000000 
 710      00000000 
 710      00000000 
 710      00000000 
 711              		.text
 712              	.Letext0:
 713              		.file 2 "c:\\program files (x86)\\cypress\\psoc creator\\4.1\\psoc creator\\import\\gnu\\arm\\5.4.
 714              		.file 3 "c:\\program files (x86)\\cypress\\psoc creator\\4.1\\psoc creator\\import\\gnu\\arm\\5.4.
 715              		.file 4 "..\\..\\u8g2\\csrc\\u8x8.h"