ARM GAS  C:\Users\gjl\AppData\Local\Temp\ccYv5RMb.s 			page 1


   1              		.syntax unified
   2              		.cpu cortex-m0
   3              		.fpu softvfp
   4              		.eabi_attribute 20, 1
   5              		.eabi_attribute 21, 1
   6              		.eabi_attribute 23, 3
   7              		.eabi_attribute 24, 1
   8              		.eabi_attribute 25, 1
   9              		.eabi_attribute 26, 1
  10              		.eabi_attribute 30, 1
  11              		.eabi_attribute 34, 0
  12              		.eabi_attribute 18, 4
  13              		.thumb
  14              		.syntax unified
  15              		.file	"u8x8_message.c"
  16              		.text
  17              	.Ltext0:
  18              		.cfi_sections	.debug_frame
  19              		.section	.text.u8x8_draw_button_line,"ax",%progbits
  20              		.align	2
  21              		.global	u8x8_draw_button_line
  22              		.code	16
  23              		.thumb_func
  24              		.type	u8x8_draw_button_line, %function
  25              	u8x8_draw_button_line:
  26              	.LFB0:
  27              		.file 1 "..\\u8g2\\csrc\\u8x8_message.c"
   1:..\u8g2\csrc/u8x8_message.c **** /*
   2:..\u8g2\csrc/u8x8_message.c **** 
   3:..\u8g2\csrc/u8x8_message.c ****   u8x8_message.c
   4:..\u8g2\csrc/u8x8_message.c ****   
   5:..\u8g2\csrc/u8x8_message.c ****   Universal 8bit Graphics Library (https://github.com/olikraus/u8g2/)
   6:..\u8g2\csrc/u8x8_message.c **** 
   7:..\u8g2\csrc/u8x8_message.c ****   Copyright (c) 2016, olikraus@gmail.com
   8:..\u8g2\csrc/u8x8_message.c ****   All rights reserved.
   9:..\u8g2\csrc/u8x8_message.c **** 
  10:..\u8g2\csrc/u8x8_message.c ****   Redistribution and use in source and binary forms, with or without modification, 
  11:..\u8g2\csrc/u8x8_message.c ****   are permitted provided that the following conditions are met:
  12:..\u8g2\csrc/u8x8_message.c **** 
  13:..\u8g2\csrc/u8x8_message.c ****   * Redistributions of source code must retain the above copyright notice, this list 
  14:..\u8g2\csrc/u8x8_message.c ****     of conditions and the following disclaimer.
  15:..\u8g2\csrc/u8x8_message.c ****     
  16:..\u8g2\csrc/u8x8_message.c ****   * Redistributions in binary form must reproduce the above copyright notice, this 
  17:..\u8g2\csrc/u8x8_message.c ****     list of conditions and the following disclaimer in the documentation and/or other 
  18:..\u8g2\csrc/u8x8_message.c ****     materials provided with the distribution.
  19:..\u8g2\csrc/u8x8_message.c **** 
  20:..\u8g2\csrc/u8x8_message.c ****   THIS SOFTWARE IS PROVIDED BY THE COPYRIGHT HOLDERS AND 
  21:..\u8g2\csrc/u8x8_message.c ****   CONTRIBUTORS "AS IS" AND ANY EXPRESS OR IMPLIED WARRANTIES, 
  22:..\u8g2\csrc/u8x8_message.c ****   INCLUDING, BUT NOT LIMITED TO, THE IMPLIED WARRANTIES OF 
  23:..\u8g2\csrc/u8x8_message.c ****   MERCHANTABILITY AND FITNESS FOR A PARTICULAR PURPOSE ARE 
  24:..\u8g2\csrc/u8x8_message.c ****   DISCLAIMED. IN NO EVENT SHALL THE COPYRIGHT HOLDER OR 
  25:..\u8g2\csrc/u8x8_message.c ****   CONTRIBUTORS BE LIABLE FOR ANY DIRECT, INDIRECT, INCIDENTAL, 
  26:..\u8g2\csrc/u8x8_message.c ****   SPECIAL, EXEMPLARY, OR CONSEQUENTIAL DAMAGES (INCLUDING, BUT 
  27:..\u8g2\csrc/u8x8_message.c ****   NOT LIMITED TO, PROCUREMENT OF SUBSTITUTE GOODS OR SERVICES; 
  28:..\u8g2\csrc/u8x8_message.c ****   LOSS OF USE, DATA, OR PROFITS; OR BUSINESS INTERRUPTION) HOWEVER 
  29:..\u8g2\csrc/u8x8_message.c ****   CAUSED AND ON ANY THEORY OF LIABILITY, WHETHER IN CONTRACT, 
  30:..\u8g2\csrc/u8x8_message.c ****   STRICT LIABILITY, OR TORT (INCLUDING NEGLIGENCE OR OTHERWISE) 
ARM GAS  C:\Users\gjl\AppData\Local\Temp\ccYv5RMb.s 			page 2


  31:..\u8g2\csrc/u8x8_message.c ****   ARISING IN ANY WAY OUT OF THE USE OF THIS SOFTWARE, EVEN IF 
  32:..\u8g2\csrc/u8x8_message.c ****   ADVISED OF THE POSSIBILITY OF SUCH DAMAGE.  
  33:..\u8g2\csrc/u8x8_message.c ****   
  34:..\u8g2\csrc/u8x8_message.c **** */
  35:..\u8g2\csrc/u8x8_message.c **** 
  36:..\u8g2\csrc/u8x8_message.c **** #include "u8x8.h"
  37:..\u8g2\csrc/u8x8_message.c **** 
  38:..\u8g2\csrc/u8x8_message.c **** uint8_t u8x8_draw_button_line(u8x8_t *u8x8, uint8_t y, uint8_t w, uint8_t cursor, const char *s)
  39:..\u8g2\csrc/u8x8_message.c **** {
  28              		.loc 1 39 0
  29              		.cfi_startproc
  30              		@ args = 4, pretend = 0, frame = 8
  31              		@ frame_needed = 0, uses_anonymous_args = 0
  32              	.LVL0:
  33 0000 F0B5     		push	{r4, r5, r6, r7, lr}
  34              		.cfi_def_cfa_offset 20
  35              		.cfi_offset 4, -20
  36              		.cfi_offset 5, -16
  37              		.cfi_offset 6, -12
  38              		.cfi_offset 7, -8
  39              		.cfi_offset 14, -4
  40 0002 5F46     		mov	r7, fp
  41 0004 4646     		mov	r6, r8
  42 0006 C0B4     		push	{r6, r7}
  43              		.cfi_def_cfa_offset 28
  44              		.cfi_offset 8, -28
  45              		.cfi_offset 11, -24
  46 0008 83B0     		sub	sp, sp, #12
  47              		.cfi_def_cfa_offset 40
  48 000a 0500     		movs	r5, r0
  49 000c 0091     		str	r1, [sp]
  50 000e 9046     		mov	r8, r2
  51 0010 9B46     		mov	fp, r3
  40:..\u8g2\csrc/u8x8_message.c ****   uint8_t i;
  41:..\u8g2\csrc/u8x8_message.c ****   uint8_t cnt;
  42:..\u8g2\csrc/u8x8_message.c ****   uint8_t total;
  43:..\u8g2\csrc/u8x8_message.c ****   uint8_t d;
  44:..\u8g2\csrc/u8x8_message.c ****   uint8_t x;
  45:..\u8g2\csrc/u8x8_message.c ****   cnt = u8x8_GetStringLineCnt(s);
  52              		.loc 1 45 0
  53 0012 0A98     		ldr	r0, [sp, #40]
  54              	.LVL1:
  55 0014 FFF7FEFF 		bl	u8x8_GetStringLineCnt
  56              	.LVL2:
  57 0018 0190     		str	r0, [sp, #4]
  58 001a 0600     		movs	r6, r0
  59              	.LVL3:
  46:..\u8g2\csrc/u8x8_message.c ****   
  47:..\u8g2\csrc/u8x8_message.c ****   /* calculate the width of the button */
  48:..\u8g2\csrc/u8x8_message.c ****   total = 0;
  60              		.loc 1 48 0
  61 001c 0027     		movs	r7, #0
  49:..\u8g2\csrc/u8x8_message.c ****   for( i = 0; i < cnt; i++ )
  62              		.loc 1 49 0
  63 001e 0024     		movs	r4, #0
  64 0020 0BE0     		b	.L2
  65              	.LVL4:
ARM GAS  C:\Users\gjl\AppData\Local\Temp\ccYv5RMb.s 			page 3


  66              	.L3:
  50:..\u8g2\csrc/u8x8_message.c ****   {
  51:..\u8g2\csrc/u8x8_message.c ****     total += u8x8_GetUTF8Len(u8x8, u8x8_GetStringLineStart(i, s));
  67              		.loc 1 51 0 discriminator 3
  68 0022 0A99     		ldr	r1, [sp, #40]
  69 0024 2000     		movs	r0, r4
  70 0026 FFF7FEFF 		bl	u8x8_GetStringLineStart
  71              	.LVL5:
  72 002a 0100     		movs	r1, r0
  73 002c 2800     		movs	r0, r5
  74 002e FFF7FEFF 		bl	u8x8_GetUTF8Len
  75              	.LVL6:
  76 0032 3818     		adds	r0, r7, r0
  77 0034 C7B2     		uxtb	r7, r0
  78              	.LVL7:
  49:..\u8g2\csrc/u8x8_message.c ****   for( i = 0; i < cnt; i++ )
  79              		.loc 1 49 0 discriminator 3
  80 0036 631C     		adds	r3, r4, #1
  81 0038 DCB2     		uxtb	r4, r3
  82              	.LVL8:
  83              	.L2:
  49:..\u8g2\csrc/u8x8_message.c ****   for( i = 0; i < cnt; i++ )
  84              		.loc 1 49 0 is_stmt 0 discriminator 1
  85 003a B442     		cmp	r4, r6
  86 003c F1D3     		bcc	.L3
  52:..\u8g2\csrc/u8x8_message.c ****   }
  53:..\u8g2\csrc/u8x8_message.c ****   total += (cnt-1);	/* had one space between the buttons */
  87              		.loc 1 53 0 is_stmt 1
  88 003e 019B     		ldr	r3, [sp, #4]
  89 0040 FB18     		adds	r3, r7, r3
  90 0042 DBB2     		uxtb	r3, r3
  91 0044 013B     		subs	r3, r3, #1
  92 0046 DBB2     		uxtb	r3, r3
  93              	.LVL9:
  54:..\u8g2\csrc/u8x8_message.c ****   
  55:..\u8g2\csrc/u8x8_message.c ****   /* calculate the left offset */
  56:..\u8g2\csrc/u8x8_message.c ****   d = 0;
  57:..\u8g2\csrc/u8x8_message.c ****   if ( total < w )
  94              		.loc 1 57 0
  95 0048 4345     		cmp	r3, r8
  96 004a 04D2     		bcs	.L8
  97              	.LVL10:
  58:..\u8g2\csrc/u8x8_message.c ****   {
  59:..\u8g2\csrc/u8x8_message.c ****     d = w;
  60:..\u8g2\csrc/u8x8_message.c ****     d -= total;
  98              		.loc 1 60 0
  99 004c 4246     		mov	r2, r8
 100 004e D41A     		subs	r4, r2, r3
 101              	.LVL11:
 102 0050 E4B2     		uxtb	r4, r4
 103              	.LVL12:
  61:..\u8g2\csrc/u8x8_message.c ****     d /= 2;
 104              		.loc 1 61 0
 105 0052 6408     		lsrs	r4, r4, #1
 106              	.LVL13:
 107 0054 00E0     		b	.L4
 108              	.LVL14:
ARM GAS  C:\Users\gjl\AppData\Local\Temp\ccYv5RMb.s 			page 4


 109              	.L8:
  56:..\u8g2\csrc/u8x8_message.c ****   if ( total < w )
 110              		.loc 1 56 0
 111 0056 0024     		movs	r4, #0
 112              	.LVL15:
 113              	.L4:
  62:..\u8g2\csrc/u8x8_message.c ****   }
  63:..\u8g2\csrc/u8x8_message.c ****   
  64:..\u8g2\csrc/u8x8_message.c ****   /* draw the buttons */
  65:..\u8g2\csrc/u8x8_message.c ****   x = d;
  66:..\u8g2\csrc/u8x8_message.c ****   u8x8_SetInverseFont(u8x8, 0);
 114              		.loc 1 66 0
 115 0058 0023     		movs	r3, #0
 116              	.LVL16:
 117 005a EB77     		strb	r3, [r5, #31]
 118              	.LVL17:
  67:..\u8g2\csrc/u8x8_message.c ****   for( i = 0; i < cnt; i++ )
 119              		.loc 1 67 0
 120 005c 0027     		movs	r7, #0
 121              	.LVL18:
 122 005e 1BE0     		b	.L5
 123              	.LVL19:
 124              	.L7:
  68:..\u8g2\csrc/u8x8_message.c ****   {
  69:..\u8g2\csrc/u8x8_message.c ****     if ( i == cursor )
 125              		.loc 1 69 0
 126 0060 5F45     		cmp	r7, fp
 127 0062 01D1     		bne	.L6
  70:..\u8g2\csrc/u8x8_message.c ****       u8x8_SetInverseFont(u8x8, 1);
 128              		.loc 1 70 0
 129 0064 0123     		movs	r3, #1
 130 0066 EB77     		strb	r3, [r5, #31]
 131              	.L6:
  71:..\u8g2\csrc/u8x8_message.c ****       
  72:..\u8g2\csrc/u8x8_message.c ****     x+=u8x8_DrawUTF8(u8x8, x, y, u8x8_GetStringLineStart(i, s));
 132              		.loc 1 72 0 discriminator 2
 133 0068 0A99     		ldr	r1, [sp, #40]
 134 006a 3800     		movs	r0, r7
 135 006c FFF7FEFF 		bl	u8x8_GetStringLineStart
 136              	.LVL20:
 137 0070 0300     		movs	r3, r0
 138 0072 009A     		ldr	r2, [sp]
 139 0074 2100     		movs	r1, r4
 140 0076 2800     		movs	r0, r5
 141 0078 FFF7FEFF 		bl	u8x8_DrawUTF8
 142              	.LVL21:
 143 007c 2418     		adds	r4, r4, r0
 144              	.LVL22:
 145 007e E4B2     		uxtb	r4, r4
 146              	.LVL23:
  73:..\u8g2\csrc/u8x8_message.c ****     u8x8_SetInverseFont(u8x8, 0);
 147              		.loc 1 73 0 discriminator 2
 148 0080 0023     		movs	r3, #0
 149 0082 EB77     		strb	r3, [r5, #31]
  74:..\u8g2\csrc/u8x8_message.c ****     x+=u8x8_DrawUTF8(u8x8, x, y, " ");
 150              		.loc 1 74 0 discriminator 2
 151 0084 084B     		ldr	r3, .L9
ARM GAS  C:\Users\gjl\AppData\Local\Temp\ccYv5RMb.s 			page 5


 152 0086 009A     		ldr	r2, [sp]
 153 0088 2100     		movs	r1, r4
 154 008a 2800     		movs	r0, r5
 155 008c FFF7FEFF 		bl	u8x8_DrawUTF8
 156              	.LVL24:
 157 0090 2018     		adds	r0, r4, r0
 158 0092 C4B2     		uxtb	r4, r0
 159              	.LVL25:
  67:..\u8g2\csrc/u8x8_message.c ****   {
 160              		.loc 1 67 0 discriminator 2
 161 0094 7B1C     		adds	r3, r7, #1
 162 0096 DFB2     		uxtb	r7, r3
 163              	.LVL26:
 164              	.L5:
  67:..\u8g2\csrc/u8x8_message.c ****   {
 165              		.loc 1 67 0 is_stmt 0 discriminator 1
 166 0098 B742     		cmp	r7, r6
 167 009a E1D3     		bcc	.L7
  75:..\u8g2\csrc/u8x8_message.c ****   }
  76:..\u8g2\csrc/u8x8_message.c ****   
  77:..\u8g2\csrc/u8x8_message.c ****   /* return the number of buttons */
  78:..\u8g2\csrc/u8x8_message.c ****   return cnt;
  79:..\u8g2\csrc/u8x8_message.c **** }
 168              		.loc 1 79 0 is_stmt 1
 169 009c 0198     		ldr	r0, [sp, #4]
 170 009e 03B0     		add	sp, sp, #12
 171              		@ sp needed
 172              	.LVL27:
 173              	.LVL28:
 174              	.LVL29:
 175 00a0 0CBC     		pop	{r2, r3}
 176 00a2 9046     		mov	r8, r2
 177 00a4 9B46     		mov	fp, r3
 178 00a6 F0BD     		pop	{r4, r5, r6, r7, pc}
 179              	.L10:
 180              		.align	2
 181              	.L9:
 182 00a8 00000000 		.word	.LC0
 183              		.cfi_endproc
 184              	.LFE0:
 185              		.size	u8x8_draw_button_line, .-u8x8_draw_button_line
 186              		.section	.text.u8x8_UserInterfaceMessage,"ax",%progbits
 187              		.align	2
 188              		.global	u8x8_UserInterfaceMessage
 189              		.code	16
 190              		.thumb_func
 191              		.type	u8x8_UserInterfaceMessage, %function
 192              	u8x8_UserInterfaceMessage:
 193              	.LFB1:
  80:..\u8g2\csrc/u8x8_message.c **** 
  81:..\u8g2\csrc/u8x8_message.c **** /*
  82:..\u8g2\csrc/u8x8_message.c ****   title1:	Multiple lines,separated by '\n'
  83:..\u8g2\csrc/u8x8_message.c ****   title2:	A single line/string which is terminated by '\0' or '\n' . "title2" accepts the return va
  84:..\u8g2\csrc/u8x8_message.c ****   title3:	Multiple lines,separated by '\n'
  85:..\u8g2\csrc/u8x8_message.c ****   buttons:	one more more buttons separated by '\n' and terminated with '\0'
  86:..\u8g2\csrc/u8x8_message.c **** */
  87:..\u8g2\csrc/u8x8_message.c **** 
ARM GAS  C:\Users\gjl\AppData\Local\Temp\ccYv5RMb.s 			page 6


  88:..\u8g2\csrc/u8x8_message.c **** uint8_t u8x8_UserInterfaceMessage(u8x8_t *u8x8, const char *title1, const char *title2, const char 
  89:..\u8g2\csrc/u8x8_message.c **** {
 194              		.loc 1 89 0
 195              		.cfi_startproc
 196              		@ args = 4, pretend = 0, frame = 8
 197              		@ frame_needed = 0, uses_anonymous_args = 0
 198              	.LVL30:
 199 0000 F0B5     		push	{r4, r5, r6, r7, lr}
 200              		.cfi_def_cfa_offset 20
 201              		.cfi_offset 4, -20
 202              		.cfi_offset 5, -16
 203              		.cfi_offset 6, -12
 204              		.cfi_offset 7, -8
 205              		.cfi_offset 14, -4
 206 0002 85B0     		sub	sp, sp, #20
 207              		.cfi_def_cfa_offset 40
 208 0004 0600     		movs	r6, r0
 209 0006 0391     		str	r1, [sp, #12]
 210 0008 1400     		movs	r4, r2
 211 000a 0293     		str	r3, [sp, #8]
 212 000c 0A9F     		ldr	r7, [sp, #40]
 213              	.LVL31:
  90:..\u8g2\csrc/u8x8_message.c ****   uint8_t height;
  91:..\u8g2\csrc/u8x8_message.c ****   uint8_t y;
  92:..\u8g2\csrc/u8x8_message.c ****   uint8_t cursor = 0;
  93:..\u8g2\csrc/u8x8_message.c ****   uint8_t button_cnt;
  94:..\u8g2\csrc/u8x8_message.c ****   uint8_t event;
  95:..\u8g2\csrc/u8x8_message.c **** 
  96:..\u8g2\csrc/u8x8_message.c ****   u8x8_SetInverseFont(u8x8, 0);
 214              		.loc 1 96 0
 215 000e 0023     		movs	r3, #0
 216              	.LVL32:
 217 0010 C377     		strb	r3, [r0, #31]
 218              	.LVL33:
  97:..\u8g2\csrc/u8x8_message.c ****   
  98:..\u8g2\csrc/u8x8_message.c ****   /* calculate overall height of the message box */
  99:..\u8g2\csrc/u8x8_message.c ****   height = 1;	/* button line */
 100:..\u8g2\csrc/u8x8_message.c ****   height += u8x8_GetStringLineCnt(title1);
 219              		.loc 1 100 0
 220 0012 0800     		movs	r0, r1
 221              	.LVL34:
 222 0014 FFF7FEFF 		bl	u8x8_GetStringLineCnt
 223              	.LVL35:
 224 0018 431C     		adds	r3, r0, #1
 225 001a DDB2     		uxtb	r5, r3
 226              	.LVL36:
 101:..\u8g2\csrc/u8x8_message.c ****   if ( title2 != NULL )
 227              		.loc 1 101 0
 228 001c 002C     		cmp	r4, #0
 229 001e 01D0     		beq	.L12
 102:..\u8g2\csrc/u8x8_message.c ****     height ++;
 230              		.loc 1 102 0
 231 0020 0230     		adds	r0, r0, #2
 232 0022 C5B2     		uxtb	r5, r0
 233              	.LVL37:
 234              	.L12:
 103:..\u8g2\csrc/u8x8_message.c ****   height += u8x8_GetStringLineCnt(title3);
ARM GAS  C:\Users\gjl\AppData\Local\Temp\ccYv5RMb.s 			page 7


 235              		.loc 1 103 0
 236 0024 0298     		ldr	r0, [sp, #8]
 237 0026 FFF7FEFF 		bl	u8x8_GetStringLineCnt
 238              	.LVL38:
 239 002a 2818     		adds	r0, r5, r0
 240 002c C0B2     		uxtb	r0, r0
 241              	.LVL39:
 104:..\u8g2\csrc/u8x8_message.c ****   
 105:..\u8g2\csrc/u8x8_message.c ****   /* calculate offset from top */
 106:..\u8g2\csrc/u8x8_message.c ****   y = 0;
 107:..\u8g2\csrc/u8x8_message.c ****   if ( height < u8x8_GetRows(u8x8)  )
 242              		.loc 1 107 0
 243 002e 3368     		ldr	r3, [r6]
 244 0030 5B7C     		ldrb	r3, [r3, #17]
 245 0032 9842     		cmp	r0, r3
 246 0034 03D2     		bcs	.L24
 247              	.LVL40:
 108:..\u8g2\csrc/u8x8_message.c ****   {
 109:..\u8g2\csrc/u8x8_message.c ****     y = u8x8_GetRows(u8x8);
 110:..\u8g2\csrc/u8x8_message.c ****     y -= height;
 248              		.loc 1 110 0
 249 0036 181A     		subs	r0, r3, r0
 250              	.LVL41:
 251 0038 C0B2     		uxtb	r0, r0
 252              	.LVL42:
 111:..\u8g2\csrc/u8x8_message.c ****     y /= 2;
 253              		.loc 1 111 0
 254 003a 4508     		lsrs	r5, r0, #1
 255              	.LVL43:
 256 003c 00E0     		b	.L13
 257              	.LVL44:
 258              	.L24:
 106:..\u8g2\csrc/u8x8_message.c ****   if ( height < u8x8_GetRows(u8x8)  )
 259              		.loc 1 106 0
 260 003e 0025     		movs	r5, #0
 261              	.LVL45:
 262              	.L13:
 112:..\u8g2\csrc/u8x8_message.c ****   }
 113:..\u8g2\csrc/u8x8_message.c **** 
 114:..\u8g2\csrc/u8x8_message.c ****   /* draw message box */
 115:..\u8g2\csrc/u8x8_message.c ****   
 116:..\u8g2\csrc/u8x8_message.c ****   u8x8_ClearDisplay(u8x8);   /* required, because not everything is filled */
 263              		.loc 1 116 0
 264 0040 3000     		movs	r0, r6
 265 0042 FFF7FEFF 		bl	u8x8_ClearDisplay
 266              	.LVL46:
 117:..\u8g2\csrc/u8x8_message.c ****   
 118:..\u8g2\csrc/u8x8_message.c ****   y += u8x8_DrawUTF8Lines(u8x8, 0, y, u8x8_GetCols(u8x8), title1);
 267              		.loc 1 118 0
 268 0046 3368     		ldr	r3, [r6]
 269 0048 1B7C     		ldrb	r3, [r3, #16]
 270 004a 039A     		ldr	r2, [sp, #12]
 271 004c 0092     		str	r2, [sp]
 272 004e 2A00     		movs	r2, r5
 273 0050 0021     		movs	r1, #0
 274 0052 3000     		movs	r0, r6
 275 0054 FFF7FEFF 		bl	u8x8_DrawUTF8Lines
ARM GAS  C:\Users\gjl\AppData\Local\Temp\ccYv5RMb.s 			page 8


 276              	.LVL47:
 277 0058 2818     		adds	r0, r5, r0
 278 005a C5B2     		uxtb	r5, r0
 279              	.LVL48:
 119:..\u8g2\csrc/u8x8_message.c ****   if ( title2 != NULL )
 280              		.loc 1 119 0
 281 005c 002C     		cmp	r4, #0
 282 005e 09D0     		beq	.L14
 120:..\u8g2\csrc/u8x8_message.c ****   {
 121:..\u8g2\csrc/u8x8_message.c ****     u8x8_DrawUTF8Line(u8x8, 0, y, u8x8_GetCols(u8x8), title2);
 283              		.loc 1 121 0
 284 0060 3368     		ldr	r3, [r6]
 285 0062 1B7C     		ldrb	r3, [r3, #16]
 286 0064 0094     		str	r4, [sp]
 287 0066 2A00     		movs	r2, r5
 288 0068 0021     		movs	r1, #0
 289 006a 3000     		movs	r0, r6
 290 006c FFF7FEFF 		bl	u8x8_DrawUTF8Line
 291              	.LVL49:
 122:..\u8g2\csrc/u8x8_message.c ****     y++;
 292              		.loc 1 122 0
 293 0070 0135     		adds	r5, r5, #1
 294              	.LVL50:
 295 0072 EDB2     		uxtb	r5, r5
 296              	.LVL51:
 297              	.L14:
 123:..\u8g2\csrc/u8x8_message.c ****   }
 124:..\u8g2\csrc/u8x8_message.c ****   y += u8x8_DrawUTF8Lines(u8x8, 0, y, u8x8_GetCols(u8x8), title3);
 298              		.loc 1 124 0
 299 0074 3368     		ldr	r3, [r6]
 300 0076 1B7C     		ldrb	r3, [r3, #16]
 301 0078 029A     		ldr	r2, [sp, #8]
 302 007a 0092     		str	r2, [sp]
 303 007c 2A00     		movs	r2, r5
 304 007e 0021     		movs	r1, #0
 305 0080 3000     		movs	r0, r6
 306 0082 FFF7FEFF 		bl	u8x8_DrawUTF8Lines
 307              	.LVL52:
 308 0086 2D18     		adds	r5, r5, r0
 309              	.LVL53:
 310 0088 EBB2     		uxtb	r3, r5
 311 008a 1900     		movs	r1, r3
 312 008c 0293     		str	r3, [sp, #8]
 313              	.LVL54:
 125:..\u8g2\csrc/u8x8_message.c **** 
 126:..\u8g2\csrc/u8x8_message.c ****   button_cnt = u8x8_draw_button_line(u8x8, y, u8x8_GetCols(u8x8), cursor, buttons);
 314              		.loc 1 126 0
 315 008e 3368     		ldr	r3, [r6]
 316 0090 1A7C     		ldrb	r2, [r3, #16]
 317 0092 0097     		str	r7, [sp]
 318 0094 0023     		movs	r3, #0
 319 0096 3000     		movs	r0, r6
 320 0098 FFF7FEFF 		bl	u8x8_draw_button_line
 321              	.LVL55:
 322 009c 0500     		movs	r5, r0
 323              	.LVL56:
  92:..\u8g2\csrc/u8x8_message.c ****   uint8_t button_cnt;
ARM GAS  C:\Users\gjl\AppData\Local\Temp\ccYv5RMb.s 			page 9


 324              		.loc 1 92 0
 325 009e 0024     		movs	r4, #0
 326              	.LVL57:
 327              	.L15:
 127:..\u8g2\csrc/u8x8_message.c ****   
 128:..\u8g2\csrc/u8x8_message.c ****   for(;;)
 129:..\u8g2\csrc/u8x8_message.c ****   {
 130:..\u8g2\csrc/u8x8_message.c ****     event = u8x8_GetMenuEvent(u8x8);
 328              		.loc 1 130 0
 329 00a0 3000     		movs	r0, r6
 330 00a2 FFF7FEFF 		bl	u8x8_GetMenuEvent
 331              	.LVL58:
 131:..\u8g2\csrc/u8x8_message.c ****     if ( event == U8X8_MSG_GPIO_MENU_SELECT )
 332              		.loc 1 131 0
 333 00a6 5028     		cmp	r0, #80
 334 00a8 02D1     		bne	.L16
 132:..\u8g2\csrc/u8x8_message.c ****       return cursor+1;
 335              		.loc 1 132 0
 336 00aa 0134     		adds	r4, r4, #1
 337              	.LVL59:
 338 00ac E0B2     		uxtb	r0, r4
 339              	.LVL60:
 340 00ae 26E0     		b	.L17
 341              	.LVL61:
 342              	.L16:
 133:..\u8g2\csrc/u8x8_message.c ****     else if ( event == U8X8_MSG_GPIO_MENU_HOME )
 343              		.loc 1 133 0
 344 00b0 5328     		cmp	r0, #83
 345 00b2 23D0     		beq	.L25
 134:..\u8g2\csrc/u8x8_message.c ****       break;
 135:..\u8g2\csrc/u8x8_message.c ****     else if ( event == U8X8_MSG_GPIO_MENU_NEXT || event == U8X8_MSG_GPIO_MENU_UP )
 346              		.loc 1 135 0
 347 00b4 5128     		cmp	r0, #81
 348 00b6 01D0     		beq	.L18
 349              		.loc 1 135 0 is_stmt 0 discriminator 1
 350 00b8 5428     		cmp	r0, #84
 351 00ba 0DD1     		bne	.L19
 352              	.L18:
 136:..\u8g2\csrc/u8x8_message.c ****     {
 137:..\u8g2\csrc/u8x8_message.c ****       cursor++;
 353              		.loc 1 137 0 is_stmt 1
 354 00bc 0134     		adds	r4, r4, #1
 355              	.LVL62:
 356 00be E4B2     		uxtb	r4, r4
 357              	.LVL63:
 138:..\u8g2\csrc/u8x8_message.c ****       if ( cursor >= button_cnt )
 358              		.loc 1 138 0
 359 00c0 A542     		cmp	r5, r4
 360 00c2 00D8     		bhi	.L20
 139:..\u8g2\csrc/u8x8_message.c **** 	cursor = 0;
 361              		.loc 1 139 0
 362 00c4 0024     		movs	r4, #0
 363              	.LVL64:
 364              	.L20:
 140:..\u8g2\csrc/u8x8_message.c ****       u8x8_draw_button_line(u8x8, y, u8x8_GetCols(u8x8), cursor, buttons);
 365              		.loc 1 140 0
 366 00c6 3368     		ldr	r3, [r6]
ARM GAS  C:\Users\gjl\AppData\Local\Temp\ccYv5RMb.s 			page 10


 367 00c8 1A7C     		ldrb	r2, [r3, #16]
 368 00ca 0097     		str	r7, [sp]
 369 00cc 2300     		movs	r3, r4
 370 00ce 0299     		ldr	r1, [sp, #8]
 371 00d0 3000     		movs	r0, r6
 372              	.LVL65:
 373 00d2 FFF7FEFF 		bl	u8x8_draw_button_line
 374              	.LVL66:
 375 00d6 E3E7     		b	.L15
 376              	.LVL67:
 377              	.L19:
 141:..\u8g2\csrc/u8x8_message.c ****     }
 142:..\u8g2\csrc/u8x8_message.c ****     else if ( event == U8X8_MSG_GPIO_MENU_PREV || event == U8X8_MSG_GPIO_MENU_DOWN  )
 378              		.loc 1 142 0
 379 00d8 5228     		cmp	r0, #82
 380 00da 01D0     		beq	.L22
 381              		.loc 1 142 0 is_stmt 0 discriminator 1
 382 00dc 5528     		cmp	r0, #85
 383 00de DFD1     		bne	.L15
 384              	.L22:
 143:..\u8g2\csrc/u8x8_message.c ****     {
 144:..\u8g2\csrc/u8x8_message.c ****       if ( cursor == 0 )
 385              		.loc 1 144 0 is_stmt 1
 386 00e0 002C     		cmp	r4, #0
 387 00e2 00D1     		bne	.L23
 145:..\u8g2\csrc/u8x8_message.c **** 	cursor = button_cnt;
 388              		.loc 1 145 0
 389 00e4 2C00     		movs	r4, r5
 390              	.LVL68:
 391              	.L23:
 146:..\u8g2\csrc/u8x8_message.c ****       cursor--;
 392              		.loc 1 146 0
 393 00e6 013C     		subs	r4, r4, #1
 394              	.LVL69:
 395 00e8 E4B2     		uxtb	r4, r4
 396              	.LVL70:
 147:..\u8g2\csrc/u8x8_message.c ****       u8x8_draw_button_line(u8x8, y, u8x8_GetCols(u8x8), cursor, buttons);
 397              		.loc 1 147 0
 398 00ea 3368     		ldr	r3, [r6]
 399 00ec 1A7C     		ldrb	r2, [r3, #16]
 400 00ee 0097     		str	r7, [sp]
 401 00f0 2300     		movs	r3, r4
 402 00f2 0299     		ldr	r1, [sp, #8]
 403 00f4 3000     		movs	r0, r6
 404              	.LVL71:
 405 00f6 FFF7FEFF 		bl	u8x8_draw_button_line
 406              	.LVL72:
 407 00fa D1E7     		b	.L15
 408              	.LVL73:
 409              	.L25:
 148:..\u8g2\csrc/u8x8_message.c ****     }    
 149:..\u8g2\csrc/u8x8_message.c ****   }  
 150:..\u8g2\csrc/u8x8_message.c ****   return 0;
 410              		.loc 1 150 0
 411 00fc 0020     		movs	r0, #0
 412              	.LVL74:
 413              	.L17:
ARM GAS  C:\Users\gjl\AppData\Local\Temp\ccYv5RMb.s 			page 11


 151:..\u8g2\csrc/u8x8_message.c **** }
 414              		.loc 1 151 0
 415 00fe 05B0     		add	sp, sp, #20
 416              		@ sp needed
 417              	.LVL75:
 418              	.LVL76:
 419 0100 F0BD     		pop	{r4, r5, r6, r7, pc}
 420              		.cfi_endproc
 421              	.LFE1:
 422              		.size	u8x8_UserInterfaceMessage, .-u8x8_UserInterfaceMessage
 423 0102 C046     		.section	.rodata.str1.4,"aMS",%progbits,1
 424              		.align	2
 425              	.LC0:
 426 0000 2000     		.ascii	" \000"
 427              		.text
 428              	.Letext0:
 429              		.file 2 "c:\\program files (x86)\\cypress\\psoc creator\\4.1\\psoc creator\\import\\gnu\\arm\\5.4.
 430              		.file 3 "c:\\program files (x86)\\cypress\\psoc creator\\4.1\\psoc creator\\import\\gnu\\arm\\5.4.
 431              		.file 4 "..\\u8g2\\csrc\\u8x8.h"