ARM GAS  C:\Users\Alan\AppData\Local\Temp\ccgAQQWY.s 			page 1


   1              		.syntax unified
   2              		.cpu cortex-m0
   3              		.fpu softvfp
   4              		.eabi_attribute 20, 1
   5              		.eabi_attribute 21, 1
   6              		.eabi_attribute 23, 3
   7              		.eabi_attribute 24, 1
   8              		.eabi_attribute 25, 1
   9              		.eabi_attribute 26, 1
  10              		.eabi_attribute 30, 1
  11              		.eabi_attribute 34, 0
  12              		.eabi_attribute 18, 4
  13              		.thumb
  14              		.syntax unified
  15              		.file	"u8x8_byte.c"
  16              		.text
  17              	.Ltext0:
  18              		.cfi_sections	.debug_frame
  19              		.section	.text.i2c_delay,"ax",%progbits
  20              		.align	2
  21              		.code	16
  22              		.thumb_func
  23              		.type	i2c_delay, %function
  24              	i2c_delay:
  25              	.LFB11:
  26              		.file 1 "..\\..\\u8g2\\csrc\\u8x8_byte.c"
   1:..\..\u8g2\csrc/u8x8_byte.c **** /*
   2:..\..\u8g2\csrc/u8x8_byte.c **** 
   3:..\..\u8g2\csrc/u8x8_byte.c ****   u8x8_byte.c 
   4:..\..\u8g2\csrc/u8x8_byte.c ****   
   5:..\..\u8g2\csrc/u8x8_byte.c ****   Universal 8bit Graphics Library (https://github.com/olikraus/u8g2/)
   6:..\..\u8g2\csrc/u8x8_byte.c **** 
   7:..\..\u8g2\csrc/u8x8_byte.c ****   Copyright (c) 2016, olikraus@gmail.com
   8:..\..\u8g2\csrc/u8x8_byte.c ****   All rights reserved.
   9:..\..\u8g2\csrc/u8x8_byte.c **** 
  10:..\..\u8g2\csrc/u8x8_byte.c ****   Redistribution and use in source and binary forms, with or without modification, 
  11:..\..\u8g2\csrc/u8x8_byte.c ****   are permitted provided that the following conditions are met:
  12:..\..\u8g2\csrc/u8x8_byte.c **** 
  13:..\..\u8g2\csrc/u8x8_byte.c ****   * Redistributions of source code must retain the above copyright notice, this list 
  14:..\..\u8g2\csrc/u8x8_byte.c ****     of conditions and the following disclaimer.
  15:..\..\u8g2\csrc/u8x8_byte.c ****     
  16:..\..\u8g2\csrc/u8x8_byte.c ****   * Redistributions in binary form must reproduce the above copyright notice, this 
  17:..\..\u8g2\csrc/u8x8_byte.c ****     list of conditions and the following disclaimer in the documentation and/or other 
  18:..\..\u8g2\csrc/u8x8_byte.c ****     materials provided with the distribution.
  19:..\..\u8g2\csrc/u8x8_byte.c **** 
  20:..\..\u8g2\csrc/u8x8_byte.c ****   THIS SOFTWARE IS PROVIDED BY THE COPYRIGHT HOLDERS AND 
  21:..\..\u8g2\csrc/u8x8_byte.c ****   CONTRIBUTORS "AS IS" AND ANY EXPRESS OR IMPLIED WARRANTIES, 
  22:..\..\u8g2\csrc/u8x8_byte.c ****   INCLUDING, BUT NOT LIMITED TO, THE IMPLIED WARRANTIES OF 
  23:..\..\u8g2\csrc/u8x8_byte.c ****   MERCHANTABILITY AND FITNESS FOR A PARTICULAR PURPOSE ARE 
  24:..\..\u8g2\csrc/u8x8_byte.c ****   DISCLAIMED. IN NO EVENT SHALL THE COPYRIGHT HOLDER OR 
  25:..\..\u8g2\csrc/u8x8_byte.c ****   CONTRIBUTORS BE LIABLE FOR ANY DIRECT, INDIRECT, INCIDENTAL, 
  26:..\..\u8g2\csrc/u8x8_byte.c ****   SPECIAL, EXEMPLARY, OR CONSEQUENTIAL DAMAGES (INCLUDING, BUT 
  27:..\..\u8g2\csrc/u8x8_byte.c ****   NOT LIMITED TO, PROCUREMENT OF SUBSTITUTE GOODS OR SERVICES; 
  28:..\..\u8g2\csrc/u8x8_byte.c ****   LOSS OF USE, DATA, OR PROFITS; OR BUSINESS INTERRUPTION) HOWEVER 
  29:..\..\u8g2\csrc/u8x8_byte.c ****   CAUSED AND ON ANY THEORY OF LIABILITY, WHETHER IN CONTRACT, 
  30:..\..\u8g2\csrc/u8x8_byte.c ****   STRICT LIABILITY, OR TORT (INCLUDING NEGLIGENCE OR OTHERWISE) 
  31:..\..\u8g2\csrc/u8x8_byte.c ****   ARISING IN ANY WAY OUT OF THE USE OF THIS SOFTWARE, EVEN IF 
ARM GAS  C:\Users\Alan\AppData\Local\Temp\ccgAQQWY.s 			page 2


  32:..\..\u8g2\csrc/u8x8_byte.c ****   ADVISED OF THE POSSIBILITY OF SUCH DAMAGE.  
  33:..\..\u8g2\csrc/u8x8_byte.c ****   
  34:..\..\u8g2\csrc/u8x8_byte.c ****   
  35:..\..\u8g2\csrc/u8x8_byte.c **** */
  36:..\..\u8g2\csrc/u8x8_byte.c **** 
  37:..\..\u8g2\csrc/u8x8_byte.c **** #include "u8x8.h"
  38:..\..\u8g2\csrc/u8x8_byte.c **** 
  39:..\..\u8g2\csrc/u8x8_byte.c **** uint8_t u8x8_byte_SetDC(u8x8_t *u8x8, uint8_t dc)
  40:..\..\u8g2\csrc/u8x8_byte.c **** {
  41:..\..\u8g2\csrc/u8x8_byte.c ****   return u8x8->byte_cb(u8x8, U8X8_MSG_BYTE_SET_DC, dc, NULL);
  42:..\..\u8g2\csrc/u8x8_byte.c **** }
  43:..\..\u8g2\csrc/u8x8_byte.c **** 
  44:..\..\u8g2\csrc/u8x8_byte.c **** uint8_t u8x8_byte_SendBytes(u8x8_t *u8x8, uint8_t cnt, uint8_t *data)
  45:..\..\u8g2\csrc/u8x8_byte.c **** {
  46:..\..\u8g2\csrc/u8x8_byte.c ****   return u8x8->byte_cb(u8x8, U8X8_MSG_BYTE_SEND, cnt, (void *)data);
  47:..\..\u8g2\csrc/u8x8_byte.c **** }
  48:..\..\u8g2\csrc/u8x8_byte.c **** 
  49:..\..\u8g2\csrc/u8x8_byte.c **** uint8_t u8x8_byte_SendByte(u8x8_t *u8x8, uint8_t byte)
  50:..\..\u8g2\csrc/u8x8_byte.c **** {
  51:..\..\u8g2\csrc/u8x8_byte.c ****   return u8x8_byte_SendBytes(u8x8, 1, &byte);
  52:..\..\u8g2\csrc/u8x8_byte.c **** }
  53:..\..\u8g2\csrc/u8x8_byte.c **** 
  54:..\..\u8g2\csrc/u8x8_byte.c **** uint8_t u8x8_byte_StartTransfer(u8x8_t *u8x8)
  55:..\..\u8g2\csrc/u8x8_byte.c **** {
  56:..\..\u8g2\csrc/u8x8_byte.c ****   return u8x8->byte_cb(u8x8, U8X8_MSG_BYTE_START_TRANSFER, 0, NULL);
  57:..\..\u8g2\csrc/u8x8_byte.c **** }
  58:..\..\u8g2\csrc/u8x8_byte.c **** 
  59:..\..\u8g2\csrc/u8x8_byte.c **** uint8_t u8x8_byte_EndTransfer(u8x8_t *u8x8)
  60:..\..\u8g2\csrc/u8x8_byte.c **** {
  61:..\..\u8g2\csrc/u8x8_byte.c ****   return u8x8->byte_cb(u8x8, U8X8_MSG_BYTE_END_TRANSFER, 0, NULL);
  62:..\..\u8g2\csrc/u8x8_byte.c **** }
  63:..\..\u8g2\csrc/u8x8_byte.c **** 
  64:..\..\u8g2\csrc/u8x8_byte.c **** 
  65:..\..\u8g2\csrc/u8x8_byte.c **** /*
  66:..\..\u8g2\csrc/u8x8_byte.c ****   Uses:
  67:..\..\u8g2\csrc/u8x8_byte.c ****     u8x8->display_info->sda_setup_time_ns
  68:..\..\u8g2\csrc/u8x8_byte.c ****     u8x8->display_info->sck_pulse_width_ns
  69:..\..\u8g2\csrc/u8x8_byte.c ****     u8x8->display_info->spi_mode
  70:..\..\u8g2\csrc/u8x8_byte.c ****     u8x8->display_info->chip_disable_level
  71:..\..\u8g2\csrc/u8x8_byte.c ****     u8x8->display_info->chip_enable_level
  72:..\..\u8g2\csrc/u8x8_byte.c ****     u8x8->display_info->post_chip_enable_wait_ns
  73:..\..\u8g2\csrc/u8x8_byte.c ****     u8x8->display_info->pre_chip_disable_wait_ns
  74:..\..\u8g2\csrc/u8x8_byte.c ****   Calls to GPIO and DELAY:
  75:..\..\u8g2\csrc/u8x8_byte.c ****     U8X8_MSG_DELAY_NANO
  76:..\..\u8g2\csrc/u8x8_byte.c ****     U8X8_MSG_GPIO_DC
  77:..\..\u8g2\csrc/u8x8_byte.c ****     U8X8_MSG_GPIO_CS
  78:..\..\u8g2\csrc/u8x8_byte.c ****     U8X8_MSG_GPIO_CLOCK
  79:..\..\u8g2\csrc/u8x8_byte.c ****     U8X8_MSG_GPIO_DATA
  80:..\..\u8g2\csrc/u8x8_byte.c ****   Handles:
  81:..\..\u8g2\csrc/u8x8_byte.c ****     U8X8_MSG_BYTE_INIT
  82:..\..\u8g2\csrc/u8x8_byte.c ****     U8X8_MSG_BYTE_SEND
  83:..\..\u8g2\csrc/u8x8_byte.c ****     U8X8_MSG_BYTE_SET_DC
  84:..\..\u8g2\csrc/u8x8_byte.c ****     U8X8_MSG_BYTE_START_TRANSFER
  85:..\..\u8g2\csrc/u8x8_byte.c ****     U8X8_MSG_BYTE_END_TRANSFER
  86:..\..\u8g2\csrc/u8x8_byte.c **** */
  87:..\..\u8g2\csrc/u8x8_byte.c **** 
  88:..\..\u8g2\csrc/u8x8_byte.c **** uint8_t u8x8_byte_4wire_sw_spi(u8x8_t *u8x8, uint8_t msg, uint8_t arg_int, void *arg_ptr)
ARM GAS  C:\Users\Alan\AppData\Local\Temp\ccgAQQWY.s 			page 3


  89:..\..\u8g2\csrc/u8x8_byte.c **** {
  90:..\..\u8g2\csrc/u8x8_byte.c ****   uint8_t i, b;
  91:..\..\u8g2\csrc/u8x8_byte.c ****   uint8_t *data;
  92:..\..\u8g2\csrc/u8x8_byte.c ****   uint8_t takeover_edge = u8x8_GetSPIClockPhase(u8x8);
  93:..\..\u8g2\csrc/u8x8_byte.c ****   uint8_t not_takeover_edge = 1 - takeover_edge;
  94:..\..\u8g2\csrc/u8x8_byte.c ****  
  95:..\..\u8g2\csrc/u8x8_byte.c ****   switch(msg)
  96:..\..\u8g2\csrc/u8x8_byte.c ****   {
  97:..\..\u8g2\csrc/u8x8_byte.c ****     case U8X8_MSG_BYTE_SEND:
  98:..\..\u8g2\csrc/u8x8_byte.c ****       data = (uint8_t *)arg_ptr;
  99:..\..\u8g2\csrc/u8x8_byte.c ****       while( arg_int > 0 )
 100:..\..\u8g2\csrc/u8x8_byte.c ****       {
 101:..\..\u8g2\csrc/u8x8_byte.c **** 	b = *data;
 102:..\..\u8g2\csrc/u8x8_byte.c **** 	data++;
 103:..\..\u8g2\csrc/u8x8_byte.c **** 	arg_int--;
 104:..\..\u8g2\csrc/u8x8_byte.c **** 	for( i = 0; i < 8; i++ )
 105:..\..\u8g2\csrc/u8x8_byte.c **** 	{
 106:..\..\u8g2\csrc/u8x8_byte.c **** 	  if ( b & 128 )
 107:..\..\u8g2\csrc/u8x8_byte.c **** 	    u8x8_gpio_SetSPIData(u8x8, 1);
 108:..\..\u8g2\csrc/u8x8_byte.c **** 	  else
 109:..\..\u8g2\csrc/u8x8_byte.c **** 	    u8x8_gpio_SetSPIData(u8x8, 0);
 110:..\..\u8g2\csrc/u8x8_byte.c **** 	  b <<= 1;
 111:..\..\u8g2\csrc/u8x8_byte.c **** 	  
 112:..\..\u8g2\csrc/u8x8_byte.c **** 	  u8x8_gpio_SetSPIClock(u8x8, not_takeover_edge);
 113:..\..\u8g2\csrc/u8x8_byte.c **** 	  u8x8_gpio_Delay(u8x8, U8X8_MSG_DELAY_NANO, u8x8->display_info->sda_setup_time_ns);
 114:..\..\u8g2\csrc/u8x8_byte.c **** 	  u8x8_gpio_SetSPIClock(u8x8, takeover_edge);
 115:..\..\u8g2\csrc/u8x8_byte.c **** 	  u8x8_gpio_Delay(u8x8, U8X8_MSG_DELAY_NANO, u8x8->display_info->sck_pulse_width_ns);
 116:..\..\u8g2\csrc/u8x8_byte.c **** 	}    
 117:..\..\u8g2\csrc/u8x8_byte.c ****       }
 118:..\..\u8g2\csrc/u8x8_byte.c ****       break;
 119:..\..\u8g2\csrc/u8x8_byte.c ****       
 120:..\..\u8g2\csrc/u8x8_byte.c ****     case U8X8_MSG_BYTE_INIT:
 121:..\..\u8g2\csrc/u8x8_byte.c ****       /* disable chipselect */
 122:..\..\u8g2\csrc/u8x8_byte.c ****       u8x8_gpio_SetCS(u8x8, u8x8->display_info->chip_disable_level);
 123:..\..\u8g2\csrc/u8x8_byte.c ****       /* no wait required here */
 124:..\..\u8g2\csrc/u8x8_byte.c ****       
 125:..\..\u8g2\csrc/u8x8_byte.c ****       /* for SPI: setup correct level of the clock signal */
 126:..\..\u8g2\csrc/u8x8_byte.c ****       u8x8_gpio_SetSPIClock(u8x8, u8x8_GetSPIClockPhase(u8x8));
 127:..\..\u8g2\csrc/u8x8_byte.c ****       break;
 128:..\..\u8g2\csrc/u8x8_byte.c ****     case U8X8_MSG_BYTE_SET_DC:
 129:..\..\u8g2\csrc/u8x8_byte.c ****       u8x8_gpio_SetDC(u8x8, arg_int);
 130:..\..\u8g2\csrc/u8x8_byte.c ****       break;
 131:..\..\u8g2\csrc/u8x8_byte.c ****     case U8X8_MSG_BYTE_START_TRANSFER:
 132:..\..\u8g2\csrc/u8x8_byte.c ****       u8x8_gpio_SetCS(u8x8, u8x8->display_info->chip_enable_level);  
 133:..\..\u8g2\csrc/u8x8_byte.c ****       u8x8->gpio_and_delay_cb(u8x8, U8X8_MSG_DELAY_NANO, u8x8->display_info->post_chip_enable_wait_
 134:..\..\u8g2\csrc/u8x8_byte.c ****       break;
 135:..\..\u8g2\csrc/u8x8_byte.c ****     case U8X8_MSG_BYTE_END_TRANSFER:
 136:..\..\u8g2\csrc/u8x8_byte.c ****       u8x8->gpio_and_delay_cb(u8x8, U8X8_MSG_DELAY_NANO, u8x8->display_info->pre_chip_disable_wait_
 137:..\..\u8g2\csrc/u8x8_byte.c ****       u8x8_gpio_SetCS(u8x8, u8x8->display_info->chip_disable_level);
 138:..\..\u8g2\csrc/u8x8_byte.c ****       break;
 139:..\..\u8g2\csrc/u8x8_byte.c ****     default:
 140:..\..\u8g2\csrc/u8x8_byte.c ****       return 0;
 141:..\..\u8g2\csrc/u8x8_byte.c ****   }
 142:..\..\u8g2\csrc/u8x8_byte.c ****   return 1;
 143:..\..\u8g2\csrc/u8x8_byte.c **** }
 144:..\..\u8g2\csrc/u8x8_byte.c **** 
 145:..\..\u8g2\csrc/u8x8_byte.c **** /*=========================================*/
ARM GAS  C:\Users\Alan\AppData\Local\Temp\ccgAQQWY.s 			page 4


 146:..\..\u8g2\csrc/u8x8_byte.c **** 
 147:..\..\u8g2\csrc/u8x8_byte.c **** uint8_t u8x8_byte_8bit_6800mode(u8x8_t *u8x8, uint8_t msg, uint8_t arg_int, void *arg_ptr)
 148:..\..\u8g2\csrc/u8x8_byte.c **** {
 149:..\..\u8g2\csrc/u8x8_byte.c ****   uint8_t i, b;
 150:..\..\u8g2\csrc/u8x8_byte.c ****   uint8_t *data;
 151:..\..\u8g2\csrc/u8x8_byte.c ****  
 152:..\..\u8g2\csrc/u8x8_byte.c ****   switch(msg)
 153:..\..\u8g2\csrc/u8x8_byte.c ****   {
 154:..\..\u8g2\csrc/u8x8_byte.c ****     case U8X8_MSG_BYTE_SEND:
 155:..\..\u8g2\csrc/u8x8_byte.c ****       data = (uint8_t *)arg_ptr;
 156:..\..\u8g2\csrc/u8x8_byte.c ****       while( arg_int > 0 )
 157:..\..\u8g2\csrc/u8x8_byte.c ****       {
 158:..\..\u8g2\csrc/u8x8_byte.c **** 	b = *data;
 159:..\..\u8g2\csrc/u8x8_byte.c **** 	data++;
 160:..\..\u8g2\csrc/u8x8_byte.c **** 	arg_int--;
 161:..\..\u8g2\csrc/u8x8_byte.c **** 	for( i = U8X8_MSG_GPIO_D0; i <= U8X8_MSG_GPIO_D7; i++ )
 162:..\..\u8g2\csrc/u8x8_byte.c **** 	{
 163:..\..\u8g2\csrc/u8x8_byte.c **** 	  u8x8_gpio_call(u8x8, i, b&1);
 164:..\..\u8g2\csrc/u8x8_byte.c **** 	  b >>= 1;
 165:..\..\u8g2\csrc/u8x8_byte.c **** 	}    
 166:..\..\u8g2\csrc/u8x8_byte.c **** 	
 167:..\..\u8g2\csrc/u8x8_byte.c **** 	u8x8_gpio_Delay(u8x8, U8X8_MSG_DELAY_NANO, u8x8->display_info->data_setup_time_ns);
 168:..\..\u8g2\csrc/u8x8_byte.c **** 	u8x8_gpio_call(u8x8, U8X8_MSG_GPIO_E, 1);
 169:..\..\u8g2\csrc/u8x8_byte.c **** 	u8x8_gpio_Delay(u8x8, U8X8_MSG_DELAY_NANO, u8x8->display_info->write_pulse_width_ns);
 170:..\..\u8g2\csrc/u8x8_byte.c **** 	u8x8_gpio_call(u8x8, U8X8_MSG_GPIO_E, 0);
 171:..\..\u8g2\csrc/u8x8_byte.c ****       }
 172:..\..\u8g2\csrc/u8x8_byte.c ****       break;
 173:..\..\u8g2\csrc/u8x8_byte.c ****       
 174:..\..\u8g2\csrc/u8x8_byte.c ****     case U8X8_MSG_BYTE_INIT:
 175:..\..\u8g2\csrc/u8x8_byte.c ****       /* disable chipselect */
 176:..\..\u8g2\csrc/u8x8_byte.c ****       u8x8_gpio_SetCS(u8x8, u8x8->display_info->chip_disable_level);    
 177:..\..\u8g2\csrc/u8x8_byte.c ****       /* ensure that the enable signal is high */
 178:..\..\u8g2\csrc/u8x8_byte.c ****       u8x8_gpio_call(u8x8, U8X8_MSG_GPIO_E, 0);
 179:..\..\u8g2\csrc/u8x8_byte.c ****       break;
 180:..\..\u8g2\csrc/u8x8_byte.c ****     case U8X8_MSG_BYTE_SET_DC:
 181:..\..\u8g2\csrc/u8x8_byte.c ****       u8x8_gpio_SetDC(u8x8, arg_int);
 182:..\..\u8g2\csrc/u8x8_byte.c ****       break;
 183:..\..\u8g2\csrc/u8x8_byte.c ****     case U8X8_MSG_BYTE_START_TRANSFER:
 184:..\..\u8g2\csrc/u8x8_byte.c ****       u8x8_gpio_SetCS(u8x8, u8x8->display_info->chip_enable_level);  
 185:..\..\u8g2\csrc/u8x8_byte.c ****       u8x8->gpio_and_delay_cb(u8x8, U8X8_MSG_DELAY_NANO, u8x8->display_info->post_chip_enable_wait_
 186:..\..\u8g2\csrc/u8x8_byte.c ****       break;
 187:..\..\u8g2\csrc/u8x8_byte.c ****     case U8X8_MSG_BYTE_END_TRANSFER:
 188:..\..\u8g2\csrc/u8x8_byte.c ****       u8x8->gpio_and_delay_cb(u8x8, U8X8_MSG_DELAY_NANO, u8x8->display_info->pre_chip_disable_wait_
 189:..\..\u8g2\csrc/u8x8_byte.c ****       u8x8_gpio_SetCS(u8x8, u8x8->display_info->chip_disable_level);
 190:..\..\u8g2\csrc/u8x8_byte.c ****       break;
 191:..\..\u8g2\csrc/u8x8_byte.c ****     default:
 192:..\..\u8g2\csrc/u8x8_byte.c ****       return 0;
 193:..\..\u8g2\csrc/u8x8_byte.c ****   }
 194:..\..\u8g2\csrc/u8x8_byte.c ****   return 1;
 195:..\..\u8g2\csrc/u8x8_byte.c **** }
 196:..\..\u8g2\csrc/u8x8_byte.c **** 
 197:..\..\u8g2\csrc/u8x8_byte.c **** uint8_t u8x8_byte_8bit_8080mode(u8x8_t *u8x8, uint8_t msg, uint8_t arg_int, void *arg_ptr)
 198:..\..\u8g2\csrc/u8x8_byte.c **** {
 199:..\..\u8g2\csrc/u8x8_byte.c ****   uint8_t i, b;
 200:..\..\u8g2\csrc/u8x8_byte.c ****   uint8_t *data;
 201:..\..\u8g2\csrc/u8x8_byte.c ****  
 202:..\..\u8g2\csrc/u8x8_byte.c ****   switch(msg)
ARM GAS  C:\Users\Alan\AppData\Local\Temp\ccgAQQWY.s 			page 5


 203:..\..\u8g2\csrc/u8x8_byte.c ****   {
 204:..\..\u8g2\csrc/u8x8_byte.c ****     case U8X8_MSG_BYTE_SEND:
 205:..\..\u8g2\csrc/u8x8_byte.c ****       data = (uint8_t *)arg_ptr;
 206:..\..\u8g2\csrc/u8x8_byte.c ****       while( arg_int > 0 )
 207:..\..\u8g2\csrc/u8x8_byte.c ****       {
 208:..\..\u8g2\csrc/u8x8_byte.c **** 	b = *data;
 209:..\..\u8g2\csrc/u8x8_byte.c **** 	data++;
 210:..\..\u8g2\csrc/u8x8_byte.c **** 	arg_int--;
 211:..\..\u8g2\csrc/u8x8_byte.c **** 	for( i = U8X8_MSG_GPIO_D0; i <= U8X8_MSG_GPIO_D7; i++ )
 212:..\..\u8g2\csrc/u8x8_byte.c **** 	{
 213:..\..\u8g2\csrc/u8x8_byte.c **** 	  u8x8_gpio_call(u8x8, i, b&1);
 214:..\..\u8g2\csrc/u8x8_byte.c **** 	  b >>= 1;
 215:..\..\u8g2\csrc/u8x8_byte.c **** 	}    
 216:..\..\u8g2\csrc/u8x8_byte.c **** 	
 217:..\..\u8g2\csrc/u8x8_byte.c **** 	u8x8_gpio_Delay(u8x8, U8X8_MSG_DELAY_NANO, u8x8->display_info->data_setup_time_ns);
 218:..\..\u8g2\csrc/u8x8_byte.c **** 	u8x8_gpio_call(u8x8, U8X8_MSG_GPIO_E, 0);
 219:..\..\u8g2\csrc/u8x8_byte.c **** 	u8x8_gpio_Delay(u8x8, U8X8_MSG_DELAY_NANO, u8x8->display_info->write_pulse_width_ns);
 220:..\..\u8g2\csrc/u8x8_byte.c **** 	u8x8_gpio_call(u8x8, U8X8_MSG_GPIO_E, 1);
 221:..\..\u8g2\csrc/u8x8_byte.c ****       }
 222:..\..\u8g2\csrc/u8x8_byte.c ****       break;
 223:..\..\u8g2\csrc/u8x8_byte.c ****       
 224:..\..\u8g2\csrc/u8x8_byte.c ****     case U8X8_MSG_BYTE_INIT:
 225:..\..\u8g2\csrc/u8x8_byte.c ****       /* disable chipselect */
 226:..\..\u8g2\csrc/u8x8_byte.c ****       u8x8_gpio_SetCS(u8x8, u8x8->display_info->chip_disable_level);    
 227:..\..\u8g2\csrc/u8x8_byte.c ****       /* ensure that the enable signal is high */
 228:..\..\u8g2\csrc/u8x8_byte.c ****       u8x8_gpio_call(u8x8, U8X8_MSG_GPIO_E, 1);
 229:..\..\u8g2\csrc/u8x8_byte.c ****       break;
 230:..\..\u8g2\csrc/u8x8_byte.c ****     case U8X8_MSG_BYTE_SET_DC:
 231:..\..\u8g2\csrc/u8x8_byte.c ****       u8x8_gpio_SetDC(u8x8, arg_int);
 232:..\..\u8g2\csrc/u8x8_byte.c ****       break;
 233:..\..\u8g2\csrc/u8x8_byte.c ****     case U8X8_MSG_BYTE_START_TRANSFER:
 234:..\..\u8g2\csrc/u8x8_byte.c ****       u8x8_gpio_SetCS(u8x8, u8x8->display_info->chip_enable_level);  
 235:..\..\u8g2\csrc/u8x8_byte.c ****       u8x8->gpio_and_delay_cb(u8x8, U8X8_MSG_DELAY_NANO, u8x8->display_info->post_chip_enable_wait_
 236:..\..\u8g2\csrc/u8x8_byte.c ****       break;
 237:..\..\u8g2\csrc/u8x8_byte.c ****     case U8X8_MSG_BYTE_END_TRANSFER:
 238:..\..\u8g2\csrc/u8x8_byte.c ****       u8x8->gpio_and_delay_cb(u8x8, U8X8_MSG_DELAY_NANO, u8x8->display_info->pre_chip_disable_wait_
 239:..\..\u8g2\csrc/u8x8_byte.c ****       u8x8_gpio_SetCS(u8x8, u8x8->display_info->chip_disable_level);
 240:..\..\u8g2\csrc/u8x8_byte.c ****       break;
 241:..\..\u8g2\csrc/u8x8_byte.c ****     default:
 242:..\..\u8g2\csrc/u8x8_byte.c ****       return 0;
 243:..\..\u8g2\csrc/u8x8_byte.c ****   }
 244:..\..\u8g2\csrc/u8x8_byte.c ****   return 1;
 245:..\..\u8g2\csrc/u8x8_byte.c **** }
 246:..\..\u8g2\csrc/u8x8_byte.c **** 
 247:..\..\u8g2\csrc/u8x8_byte.c **** /*=========================================*/
 248:..\..\u8g2\csrc/u8x8_byte.c **** 
 249:..\..\u8g2\csrc/u8x8_byte.c **** uint8_t u8x8_byte_3wire_sw_spi(u8x8_t *u8x8, uint8_t msg, uint8_t arg_int, void *arg_ptr)
 250:..\..\u8g2\csrc/u8x8_byte.c **** {
 251:..\..\u8g2\csrc/u8x8_byte.c ****   uint8_t i;
 252:..\..\u8g2\csrc/u8x8_byte.c ****   uint8_t *data;
 253:..\..\u8g2\csrc/u8x8_byte.c ****   uint8_t takeover_edge = u8x8_GetSPIClockPhase(u8x8);
 254:..\..\u8g2\csrc/u8x8_byte.c ****   uint8_t not_takeover_edge = 1 - takeover_edge;
 255:..\..\u8g2\csrc/u8x8_byte.c ****   uint16_t b;
 256:..\..\u8g2\csrc/u8x8_byte.c ****   static uint8_t last_dc;
 257:..\..\u8g2\csrc/u8x8_byte.c ****  
 258:..\..\u8g2\csrc/u8x8_byte.c ****   switch(msg)
 259:..\..\u8g2\csrc/u8x8_byte.c ****   {
ARM GAS  C:\Users\Alan\AppData\Local\Temp\ccgAQQWY.s 			page 6


 260:..\..\u8g2\csrc/u8x8_byte.c ****     case U8X8_MSG_BYTE_SEND:
 261:..\..\u8g2\csrc/u8x8_byte.c ****       data = (uint8_t *)arg_ptr;
 262:..\..\u8g2\csrc/u8x8_byte.c ****       while( arg_int > 0 )
 263:..\..\u8g2\csrc/u8x8_byte.c ****       {
 264:..\..\u8g2\csrc/u8x8_byte.c **** 	b = *data;
 265:..\..\u8g2\csrc/u8x8_byte.c **** 	if ( last_dc != 0 )
 266:..\..\u8g2\csrc/u8x8_byte.c **** 	  b |= 256;
 267:..\..\u8g2\csrc/u8x8_byte.c **** 	data++;
 268:..\..\u8g2\csrc/u8x8_byte.c **** 	arg_int--;
 269:..\..\u8g2\csrc/u8x8_byte.c **** 	for( i = 0; i < 9; i++ )
 270:..\..\u8g2\csrc/u8x8_byte.c **** 	{
 271:..\..\u8g2\csrc/u8x8_byte.c **** 	  if ( b & 256 )
 272:..\..\u8g2\csrc/u8x8_byte.c **** 	    u8x8_gpio_SetSPIData(u8x8, 1);
 273:..\..\u8g2\csrc/u8x8_byte.c **** 	  else
 274:..\..\u8g2\csrc/u8x8_byte.c **** 	    u8x8_gpio_SetSPIData(u8x8, 0);
 275:..\..\u8g2\csrc/u8x8_byte.c **** 	  b <<= 1;
 276:..\..\u8g2\csrc/u8x8_byte.c **** 	  
 277:..\..\u8g2\csrc/u8x8_byte.c **** 	  u8x8_gpio_SetSPIClock(u8x8, not_takeover_edge);
 278:..\..\u8g2\csrc/u8x8_byte.c **** 	  u8x8_gpio_Delay(u8x8, U8X8_MSG_DELAY_NANO, u8x8->display_info->sda_setup_time_ns);
 279:..\..\u8g2\csrc/u8x8_byte.c **** 	  u8x8_gpio_SetSPIClock(u8x8, takeover_edge);
 280:..\..\u8g2\csrc/u8x8_byte.c **** 	  u8x8_gpio_Delay(u8x8, U8X8_MSG_DELAY_NANO, u8x8->display_info->sck_pulse_width_ns);
 281:..\..\u8g2\csrc/u8x8_byte.c **** 	}    
 282:..\..\u8g2\csrc/u8x8_byte.c ****       }
 283:..\..\u8g2\csrc/u8x8_byte.c ****       break;
 284:..\..\u8g2\csrc/u8x8_byte.c ****       
 285:..\..\u8g2\csrc/u8x8_byte.c ****     case U8X8_MSG_BYTE_INIT:
 286:..\..\u8g2\csrc/u8x8_byte.c ****       /* disable chipselect */
 287:..\..\u8g2\csrc/u8x8_byte.c ****       u8x8_gpio_SetCS(u8x8, u8x8->display_info->chip_disable_level);
 288:..\..\u8g2\csrc/u8x8_byte.c ****       /* no wait required here */
 289:..\..\u8g2\csrc/u8x8_byte.c ****       
 290:..\..\u8g2\csrc/u8x8_byte.c ****       /* for SPI: setup correct level of the clock signal */
 291:..\..\u8g2\csrc/u8x8_byte.c ****       u8x8_gpio_SetSPIClock(u8x8, u8x8_GetSPIClockPhase(u8x8));
 292:..\..\u8g2\csrc/u8x8_byte.c ****       break;
 293:..\..\u8g2\csrc/u8x8_byte.c ****     case U8X8_MSG_BYTE_SET_DC:
 294:..\..\u8g2\csrc/u8x8_byte.c ****       last_dc = arg_int;
 295:..\..\u8g2\csrc/u8x8_byte.c ****       break;
 296:..\..\u8g2\csrc/u8x8_byte.c ****     case U8X8_MSG_BYTE_START_TRANSFER:
 297:..\..\u8g2\csrc/u8x8_byte.c ****       u8x8_gpio_SetCS(u8x8, u8x8->display_info->chip_enable_level);  
 298:..\..\u8g2\csrc/u8x8_byte.c ****       u8x8->gpio_and_delay_cb(u8x8, U8X8_MSG_DELAY_NANO, u8x8->display_info->post_chip_enable_wait_
 299:..\..\u8g2\csrc/u8x8_byte.c ****       break;
 300:..\..\u8g2\csrc/u8x8_byte.c ****     case U8X8_MSG_BYTE_END_TRANSFER:
 301:..\..\u8g2\csrc/u8x8_byte.c ****       u8x8->gpio_and_delay_cb(u8x8, U8X8_MSG_DELAY_NANO, u8x8->display_info->pre_chip_disable_wait_
 302:..\..\u8g2\csrc/u8x8_byte.c ****       u8x8_gpio_SetCS(u8x8, u8x8->display_info->chip_disable_level);
 303:..\..\u8g2\csrc/u8x8_byte.c ****       break;
 304:..\..\u8g2\csrc/u8x8_byte.c ****     default:
 305:..\..\u8g2\csrc/u8x8_byte.c ****       return 0;
 306:..\..\u8g2\csrc/u8x8_byte.c ****   }
 307:..\..\u8g2\csrc/u8x8_byte.c ****   return 1;
 308:..\..\u8g2\csrc/u8x8_byte.c **** }
 309:..\..\u8g2\csrc/u8x8_byte.c **** 
 310:..\..\u8g2\csrc/u8x8_byte.c **** /*=========================================*/
 311:..\..\u8g2\csrc/u8x8_byte.c **** 
 312:..\..\u8g2\csrc/u8x8_byte.c **** void u8x8_byte_set_ks0108_cs(u8x8_t *u8x8, uint8_t arg)
 313:..\..\u8g2\csrc/u8x8_byte.c **** {
 314:..\..\u8g2\csrc/u8x8_byte.c ****   u8x8_gpio_SetCS(u8x8, arg&1);
 315:..\..\u8g2\csrc/u8x8_byte.c ****   arg = arg >> 1;
 316:..\..\u8g2\csrc/u8x8_byte.c ****   u8x8_gpio_call(u8x8, U8X8_MSG_GPIO_CS1, arg&1);
ARM GAS  C:\Users\Alan\AppData\Local\Temp\ccgAQQWY.s 			page 7


 317:..\..\u8g2\csrc/u8x8_byte.c ****   arg = arg >> 2;
 318:..\..\u8g2\csrc/u8x8_byte.c ****   u8x8_gpio_call(u8x8, U8X8_MSG_GPIO_CS2, arg&1);
 319:..\..\u8g2\csrc/u8x8_byte.c **** }
 320:..\..\u8g2\csrc/u8x8_byte.c **** 
 321:..\..\u8g2\csrc/u8x8_byte.c **** /* 6800 mode */
 322:..\..\u8g2\csrc/u8x8_byte.c **** uint8_t u8x8_byte_ks0108(u8x8_t *u8x8, uint8_t msg, uint8_t arg_int, void *arg_ptr)
 323:..\..\u8g2\csrc/u8x8_byte.c **** {
 324:..\..\u8g2\csrc/u8x8_byte.c ****   uint8_t i, b;
 325:..\..\u8g2\csrc/u8x8_byte.c ****   uint8_t *data;
 326:..\..\u8g2\csrc/u8x8_byte.c ****  
 327:..\..\u8g2\csrc/u8x8_byte.c ****   switch(msg)
 328:..\..\u8g2\csrc/u8x8_byte.c ****   {
 329:..\..\u8g2\csrc/u8x8_byte.c ****     case U8X8_MSG_BYTE_SEND:
 330:..\..\u8g2\csrc/u8x8_byte.c ****       data = (uint8_t *)arg_ptr;
 331:..\..\u8g2\csrc/u8x8_byte.c ****       while( arg_int > 0 )
 332:..\..\u8g2\csrc/u8x8_byte.c ****       {
 333:..\..\u8g2\csrc/u8x8_byte.c **** 	b = *data;
 334:..\..\u8g2\csrc/u8x8_byte.c **** 	data++;
 335:..\..\u8g2\csrc/u8x8_byte.c **** 	arg_int--;
 336:..\..\u8g2\csrc/u8x8_byte.c **** 	for( i = U8X8_MSG_GPIO_D0; i <= U8X8_MSG_GPIO_D7; i++ )
 337:..\..\u8g2\csrc/u8x8_byte.c **** 	{
 338:..\..\u8g2\csrc/u8x8_byte.c **** 	  u8x8_gpio_call(u8x8, i, b&1);
 339:..\..\u8g2\csrc/u8x8_byte.c **** 	  b >>= 1;
 340:..\..\u8g2\csrc/u8x8_byte.c **** 	}    
 341:..\..\u8g2\csrc/u8x8_byte.c **** 	
 342:..\..\u8g2\csrc/u8x8_byte.c **** 	u8x8_gpio_Delay(u8x8, U8X8_MSG_DELAY_NANO, u8x8->display_info->data_setup_time_ns);
 343:..\..\u8g2\csrc/u8x8_byte.c **** 	u8x8_gpio_call(u8x8, U8X8_MSG_GPIO_E, 1);
 344:..\..\u8g2\csrc/u8x8_byte.c **** 	u8x8_gpio_Delay(u8x8, U8X8_MSG_DELAY_NANO, u8x8->display_info->write_pulse_width_ns);
 345:..\..\u8g2\csrc/u8x8_byte.c **** 	u8x8_gpio_call(u8x8, U8X8_MSG_GPIO_E, 0);
 346:..\..\u8g2\csrc/u8x8_byte.c ****       }
 347:..\..\u8g2\csrc/u8x8_byte.c ****       break;
 348:..\..\u8g2\csrc/u8x8_byte.c ****       
 349:..\..\u8g2\csrc/u8x8_byte.c ****     case U8X8_MSG_BYTE_INIT:
 350:..\..\u8g2\csrc/u8x8_byte.c ****       /* disable chipselect */
 351:..\..\u8g2\csrc/u8x8_byte.c ****       u8x8_gpio_SetCS(u8x8, u8x8->display_info->chip_disable_level);    
 352:..\..\u8g2\csrc/u8x8_byte.c ****       /* ensure that the enable signal is low */
 353:..\..\u8g2\csrc/u8x8_byte.c ****       u8x8_gpio_call(u8x8, U8X8_MSG_GPIO_E, 0);
 354:..\..\u8g2\csrc/u8x8_byte.c ****       break;
 355:..\..\u8g2\csrc/u8x8_byte.c ****     case U8X8_MSG_BYTE_SET_DC:
 356:..\..\u8g2\csrc/u8x8_byte.c ****       u8x8_gpio_SetDC(u8x8, arg_int);
 357:..\..\u8g2\csrc/u8x8_byte.c ****       break;
 358:..\..\u8g2\csrc/u8x8_byte.c ****     case U8X8_MSG_BYTE_START_TRANSFER:
 359:..\..\u8g2\csrc/u8x8_byte.c ****       /* expects 3 bits in arg_int for the chip select lines */ 
 360:..\..\u8g2\csrc/u8x8_byte.c ****       u8x8_byte_set_ks0108_cs(u8x8, arg_int);
 361:..\..\u8g2\csrc/u8x8_byte.c ****       u8x8->gpio_and_delay_cb(u8x8, U8X8_MSG_DELAY_NANO, u8x8->display_info->post_chip_enable_wait_
 362:..\..\u8g2\csrc/u8x8_byte.c ****       break;
 363:..\..\u8g2\csrc/u8x8_byte.c ****     case U8X8_MSG_BYTE_END_TRANSFER:
 364:..\..\u8g2\csrc/u8x8_byte.c ****       u8x8->gpio_and_delay_cb(u8x8, U8X8_MSG_DELAY_NANO, u8x8->display_info->pre_chip_disable_wait_
 365:..\..\u8g2\csrc/u8x8_byte.c ****       u8x8_byte_set_ks0108_cs(u8x8, arg_int);
 366:..\..\u8g2\csrc/u8x8_byte.c ****       break;
 367:..\..\u8g2\csrc/u8x8_byte.c ****     default:
 368:..\..\u8g2\csrc/u8x8_byte.c ****       return 0;
 369:..\..\u8g2\csrc/u8x8_byte.c ****   }
 370:..\..\u8g2\csrc/u8x8_byte.c ****   return 1;
 371:..\..\u8g2\csrc/u8x8_byte.c **** }
 372:..\..\u8g2\csrc/u8x8_byte.c **** 
 373:..\..\u8g2\csrc/u8x8_byte.c **** 
ARM GAS  C:\Users\Alan\AppData\Local\Temp\ccgAQQWY.s 			page 8


 374:..\..\u8g2\csrc/u8x8_byte.c **** /*=========================================*/
 375:..\..\u8g2\csrc/u8x8_byte.c **** 
 376:..\..\u8g2\csrc/u8x8_byte.c **** 
 377:..\..\u8g2\csrc/u8x8_byte.c **** /*
 378:..\..\u8g2\csrc/u8x8_byte.c ****   software i2c,
 379:..\..\u8g2\csrc/u8x8_byte.c ****   ignores ACK response (which is anyway not provided by some displays)
 380:..\..\u8g2\csrc/u8x8_byte.c ****   also does not allow reading from the device
 381:..\..\u8g2\csrc/u8x8_byte.c **** */
 382:..\..\u8g2\csrc/u8x8_byte.c **** static void i2c_delay(u8x8_t *u8x8) U8X8_NOINLINE;
 383:..\..\u8g2\csrc/u8x8_byte.c **** static void i2c_delay(u8x8_t *u8x8)
 384:..\..\u8g2\csrc/u8x8_byte.c **** {
  27              		.loc 1 384 0
  28              		.cfi_startproc
  29              		@ args = 0, pretend = 0, frame = 0
  30              		@ frame_needed = 0, uses_anonymous_args = 0
  31              	.LVL0:
  32 0000 10B5     		push	{r4, lr}
  33              		.cfi_def_cfa_offset 8
  34              		.cfi_offset 4, -8
  35              		.cfi_offset 14, -4
 385:..\..\u8g2\csrc/u8x8_byte.c ****   //u8x8_gpio_Delay(u8x8, U8X8_MSG_DELAY_10MICRO, u8x8->display_info->i2c_bus_clock_100kHz);
 386:..\..\u8g2\csrc/u8x8_byte.c ****   u8x8_gpio_Delay(u8x8, U8X8_MSG_DELAY_I2C, u8x8->display_info->i2c_bus_clock_100kHz);
  36              		.loc 1 386 0
  37 0002 0368     		ldr	r3, [r0]
  38 0004 5A7B     		ldrb	r2, [r3, #13]
  39 0006 2D21     		movs	r1, #45
  40 0008 FFF7FEFF 		bl	u8x8_gpio_call
  41              	.LVL1:
 387:..\..\u8g2\csrc/u8x8_byte.c **** }
  42              		.loc 1 387 0
  43              		@ sp needed
  44 000c 10BD     		pop	{r4, pc}
  45              		.cfi_endproc
  46              	.LFE11:
  47              		.size	i2c_delay, .-i2c_delay
  48 000e C046     		.section	.text.i2c_init,"ax",%progbits
  49              		.align	2
  50              		.code	16
  51              		.thumb_func
  52              		.type	i2c_init, %function
  53              	i2c_init:
  54              	.LFB12:
 388:..\..\u8g2\csrc/u8x8_byte.c **** 
 389:..\..\u8g2\csrc/u8x8_byte.c **** static void i2c_init(u8x8_t *u8x8)
 390:..\..\u8g2\csrc/u8x8_byte.c **** {
  55              		.loc 1 390 0
  56              		.cfi_startproc
  57              		@ args = 0, pretend = 0, frame = 0
  58              		@ frame_needed = 0, uses_anonymous_args = 0
  59              	.LVL2:
  60 0000 10B5     		push	{r4, lr}
  61              		.cfi_def_cfa_offset 8
  62              		.cfi_offset 4, -8
  63              		.cfi_offset 14, -4
  64 0002 0400     		movs	r4, r0
 391:..\..\u8g2\csrc/u8x8_byte.c ****   u8x8_gpio_SetI2CClock(u8x8, 1);
  65              		.loc 1 391 0
ARM GAS  C:\Users\Alan\AppData\Local\Temp\ccgAQQWY.s 			page 9


  66 0004 0122     		movs	r2, #1
  67 0006 4C21     		movs	r1, #76
  68 0008 FFF7FEFF 		bl	u8x8_gpio_call
  69              	.LVL3:
 392:..\..\u8g2\csrc/u8x8_byte.c ****   u8x8_gpio_SetI2CData(u8x8, 1);
  70              		.loc 1 392 0
  71 000c 0122     		movs	r2, #1
  72 000e 4D21     		movs	r1, #77
  73 0010 2000     		movs	r0, r4
  74 0012 FFF7FEFF 		bl	u8x8_gpio_call
  75              	.LVL4:
 393:..\..\u8g2\csrc/u8x8_byte.c ****   
 394:..\..\u8g2\csrc/u8x8_byte.c ****   i2c_delay(u8x8);
  76              		.loc 1 394 0
  77 0016 2000     		movs	r0, r4
  78 0018 FFF7FEFF 		bl	i2c_delay
  79              	.LVL5:
 395:..\..\u8g2\csrc/u8x8_byte.c **** }
  80              		.loc 1 395 0
  81              		@ sp needed
  82              	.LVL6:
  83 001c 10BD     		pop	{r4, pc}
  84              		.cfi_endproc
  85              	.LFE12:
  86              		.size	i2c_init, .-i2c_init
  87 001e C046     		.section	.text.i2c_read_scl_and_delay,"ax",%progbits
  88              		.align	2
  89              		.code	16
  90              		.thumb_func
  91              		.type	i2c_read_scl_and_delay, %function
  92              	i2c_read_scl_and_delay:
  93              	.LFB13:
 396:..\..\u8g2\csrc/u8x8_byte.c **** 
 397:..\..\u8g2\csrc/u8x8_byte.c **** /* actually, the scl line is not observed, so this procedure does not return a value */
 398:..\..\u8g2\csrc/u8x8_byte.c **** 
 399:..\..\u8g2\csrc/u8x8_byte.c **** static void i2c_read_scl_and_delay(u8x8_t *u8x8)
 400:..\..\u8g2\csrc/u8x8_byte.c **** {
  94              		.loc 1 400 0
  95              		.cfi_startproc
  96              		@ args = 0, pretend = 0, frame = 0
  97              		@ frame_needed = 0, uses_anonymous_args = 0
  98              	.LVL7:
  99 0000 10B5     		push	{r4, lr}
 100              		.cfi_def_cfa_offset 8
 101              		.cfi_offset 4, -8
 102              		.cfi_offset 14, -4
 103 0002 0400     		movs	r4, r0
 401:..\..\u8g2\csrc/u8x8_byte.c ****   /* set as input (line will be high) */
 402:..\..\u8g2\csrc/u8x8_byte.c ****   u8x8_gpio_SetI2CClock(u8x8, 1);
 104              		.loc 1 402 0
 105 0004 0122     		movs	r2, #1
 106 0006 4C21     		movs	r1, #76
 107 0008 FFF7FEFF 		bl	u8x8_gpio_call
 108              	.LVL8:
 403:..\..\u8g2\csrc/u8x8_byte.c **** 
 404:..\..\u8g2\csrc/u8x8_byte.c ****   i2c_delay(u8x8);
 109              		.loc 1 404 0
ARM GAS  C:\Users\Alan\AppData\Local\Temp\ccgAQQWY.s 			page 10


 110 000c 2000     		movs	r0, r4
 111 000e FFF7FEFF 		bl	i2c_delay
 112              	.LVL9:
 405:..\..\u8g2\csrc/u8x8_byte.c **** }
 113              		.loc 1 405 0
 114              		@ sp needed
 115              	.LVL10:
 116 0012 10BD     		pop	{r4, pc}
 117              		.cfi_endproc
 118              	.LFE13:
 119              		.size	i2c_read_scl_and_delay, .-i2c_read_scl_and_delay
 120              		.section	.text.i2c_read_sda,"ax",%progbits
 121              		.align	2
 122              		.code	16
 123              		.thumb_func
 124              		.type	i2c_read_sda, %function
 125              	i2c_read_sda:
 126              	.LFB15:
 406:..\..\u8g2\csrc/u8x8_byte.c **** 
 407:..\..\u8g2\csrc/u8x8_byte.c **** static void i2c_clear_scl(u8x8_t *u8x8)
 408:..\..\u8g2\csrc/u8x8_byte.c **** {
 409:..\..\u8g2\csrc/u8x8_byte.c ****   u8x8_gpio_SetI2CClock(u8x8, 0);
 410:..\..\u8g2\csrc/u8x8_byte.c **** }
 411:..\..\u8g2\csrc/u8x8_byte.c **** 
 412:..\..\u8g2\csrc/u8x8_byte.c **** static void i2c_read_sda(u8x8_t *u8x8)
 413:..\..\u8g2\csrc/u8x8_byte.c **** {
 127              		.loc 1 413 0
 128              		.cfi_startproc
 129              		@ args = 0, pretend = 0, frame = 0
 130              		@ frame_needed = 0, uses_anonymous_args = 0
 131              	.LVL11:
 132 0000 10B5     		push	{r4, lr}
 133              		.cfi_def_cfa_offset 8
 134              		.cfi_offset 4, -8
 135              		.cfi_offset 14, -4
 414:..\..\u8g2\csrc/u8x8_byte.c ****   /* set as input (line will be high) */
 415:..\..\u8g2\csrc/u8x8_byte.c ****   u8x8_gpio_SetI2CData(u8x8, 1);
 136              		.loc 1 415 0
 137 0002 0122     		movs	r2, #1
 138 0004 4D21     		movs	r1, #77
 139 0006 FFF7FEFF 		bl	u8x8_gpio_call
 140              	.LVL12:
 416:..\..\u8g2\csrc/u8x8_byte.c **** }
 141              		.loc 1 416 0
 142              		@ sp needed
 143 000a 10BD     		pop	{r4, pc}
 144              		.cfi_endproc
 145              	.LFE15:
 146              		.size	i2c_read_sda, .-i2c_read_sda
 147              		.section	.text.i2c_clear_sda,"ax",%progbits
 148              		.align	2
 149              		.code	16
 150              		.thumb_func
 151              		.type	i2c_clear_sda, %function
 152              	i2c_clear_sda:
 153              	.LFB16:
 417:..\..\u8g2\csrc/u8x8_byte.c **** 
ARM GAS  C:\Users\Alan\AppData\Local\Temp\ccgAQQWY.s 			page 11


 418:..\..\u8g2\csrc/u8x8_byte.c **** static void i2c_clear_sda(u8x8_t *u8x8)
 419:..\..\u8g2\csrc/u8x8_byte.c **** {
 154              		.loc 1 419 0
 155              		.cfi_startproc
 156              		@ args = 0, pretend = 0, frame = 0
 157              		@ frame_needed = 0, uses_anonymous_args = 0
 158              	.LVL13:
 159 0000 10B5     		push	{r4, lr}
 160              		.cfi_def_cfa_offset 8
 161              		.cfi_offset 4, -8
 162              		.cfi_offset 14, -4
 420:..\..\u8g2\csrc/u8x8_byte.c ****   /* set open collector and drive low */
 421:..\..\u8g2\csrc/u8x8_byte.c ****   u8x8_gpio_SetI2CData(u8x8, 0);
 163              		.loc 1 421 0
 164 0002 0022     		movs	r2, #0
 165 0004 4D21     		movs	r1, #77
 166 0006 FFF7FEFF 		bl	u8x8_gpio_call
 167              	.LVL14:
 422:..\..\u8g2\csrc/u8x8_byte.c **** }
 168              		.loc 1 422 0
 169              		@ sp needed
 170 000a 10BD     		pop	{r4, pc}
 171              		.cfi_endproc
 172              	.LFE16:
 173              		.size	i2c_clear_sda, .-i2c_clear_sda
 174              		.section	.text.i2c_stop,"ax",%progbits
 175              		.align	2
 176              		.code	16
 177              		.thumb_func
 178              		.type	i2c_stop, %function
 179              	i2c_stop:
 180              	.LFB18:
 423:..\..\u8g2\csrc/u8x8_byte.c **** 
 424:..\..\u8g2\csrc/u8x8_byte.c **** static void i2c_start(u8x8_t *u8x8)
 425:..\..\u8g2\csrc/u8x8_byte.c **** {
 426:..\..\u8g2\csrc/u8x8_byte.c ****   if ( u8x8->i2c_started != 0 )
 427:..\..\u8g2\csrc/u8x8_byte.c ****   {
 428:..\..\u8g2\csrc/u8x8_byte.c ****     /* if already started: do restart */
 429:..\..\u8g2\csrc/u8x8_byte.c ****     i2c_read_sda(u8x8);     /* SDA = 1 */
 430:..\..\u8g2\csrc/u8x8_byte.c ****     i2c_delay(u8x8);
 431:..\..\u8g2\csrc/u8x8_byte.c ****     i2c_read_scl_and_delay(u8x8);
 432:..\..\u8g2\csrc/u8x8_byte.c ****   }
 433:..\..\u8g2\csrc/u8x8_byte.c ****   i2c_read_sda(u8x8);
 434:..\..\u8g2\csrc/u8x8_byte.c ****   /* send the start condition, both lines go from 1 to 0 */
 435:..\..\u8g2\csrc/u8x8_byte.c ****   i2c_clear_sda(u8x8);
 436:..\..\u8g2\csrc/u8x8_byte.c ****   i2c_delay(u8x8);
 437:..\..\u8g2\csrc/u8x8_byte.c ****   i2c_clear_scl(u8x8);
 438:..\..\u8g2\csrc/u8x8_byte.c ****   u8x8->i2c_started = 1;
 439:..\..\u8g2\csrc/u8x8_byte.c **** }
 440:..\..\u8g2\csrc/u8x8_byte.c **** 
 441:..\..\u8g2\csrc/u8x8_byte.c **** 
 442:..\..\u8g2\csrc/u8x8_byte.c **** static void i2c_stop(u8x8_t *u8x8)
 443:..\..\u8g2\csrc/u8x8_byte.c **** {
 181              		.loc 1 443 0
 182              		.cfi_startproc
 183              		@ args = 0, pretend = 0, frame = 0
 184              		@ frame_needed = 0, uses_anonymous_args = 0
ARM GAS  C:\Users\Alan\AppData\Local\Temp\ccgAQQWY.s 			page 12


 185              	.LVL15:
 186 0000 10B5     		push	{r4, lr}
 187              		.cfi_def_cfa_offset 8
 188              		.cfi_offset 4, -8
 189              		.cfi_offset 14, -4
 190 0002 0400     		movs	r4, r0
 444:..\..\u8g2\csrc/u8x8_byte.c ****   /* set SDA to 0 */
 445:..\..\u8g2\csrc/u8x8_byte.c ****   i2c_clear_sda(u8x8);  
 191              		.loc 1 445 0
 192 0004 FFF7FEFF 		bl	i2c_clear_sda
 193              	.LVL16:
 446:..\..\u8g2\csrc/u8x8_byte.c ****   i2c_delay(u8x8);
 194              		.loc 1 446 0
 195 0008 2000     		movs	r0, r4
 196 000a FFF7FEFF 		bl	i2c_delay
 197              	.LVL17:
 447:..\..\u8g2\csrc/u8x8_byte.c ****  
 448:..\..\u8g2\csrc/u8x8_byte.c ****   /* now release all lines */
 449:..\..\u8g2\csrc/u8x8_byte.c ****   i2c_read_scl_and_delay(u8x8);
 198              		.loc 1 449 0
 199 000e 2000     		movs	r0, r4
 200 0010 FFF7FEFF 		bl	i2c_read_scl_and_delay
 201              	.LVL18:
 450:..\..\u8g2\csrc/u8x8_byte.c ****  
 451:..\..\u8g2\csrc/u8x8_byte.c ****   /* set SDA to 1 */
 452:..\..\u8g2\csrc/u8x8_byte.c ****   i2c_read_sda(u8x8);
 202              		.loc 1 452 0
 203 0014 2000     		movs	r0, r4
 204 0016 FFF7FEFF 		bl	i2c_read_sda
 205              	.LVL19:
 453:..\..\u8g2\csrc/u8x8_byte.c ****   i2c_delay(u8x8);
 206              		.loc 1 453 0
 207 001a 2000     		movs	r0, r4
 208 001c FFF7FEFF 		bl	i2c_delay
 209              	.LVL20:
 454:..\..\u8g2\csrc/u8x8_byte.c ****   u8x8->i2c_started = 0;
 210              		.loc 1 454 0
 211 0020 0022     		movs	r2, #0
 212 0022 2123     		movs	r3, #33
 213 0024 E254     		strb	r2, [r4, r3]
 455:..\..\u8g2\csrc/u8x8_byte.c **** }
 214              		.loc 1 455 0
 215              		@ sp needed
 216              	.LVL21:
 217 0026 10BD     		pop	{r4, pc}
 218              		.cfi_endproc
 219              	.LFE18:
 220              		.size	i2c_stop, .-i2c_stop
 221              		.section	.text.i2c_clear_scl,"ax",%progbits
 222              		.align	2
 223              		.code	16
 224              		.thumb_func
 225              		.type	i2c_clear_scl, %function
 226              	i2c_clear_scl:
 227              	.LFB14:
 408:..\..\u8g2\csrc/u8x8_byte.c ****   u8x8_gpio_SetI2CClock(u8x8, 0);
 228              		.loc 1 408 0
ARM GAS  C:\Users\Alan\AppData\Local\Temp\ccgAQQWY.s 			page 13


 229              		.cfi_startproc
 230              		@ args = 0, pretend = 0, frame = 0
 231              		@ frame_needed = 0, uses_anonymous_args = 0
 232              	.LVL22:
 233 0000 10B5     		push	{r4, lr}
 234              		.cfi_def_cfa_offset 8
 235              		.cfi_offset 4, -8
 236              		.cfi_offset 14, -4
 409:..\..\u8g2\csrc/u8x8_byte.c **** }
 237              		.loc 1 409 0
 238 0002 0022     		movs	r2, #0
 239 0004 4C21     		movs	r1, #76
 240 0006 FFF7FEFF 		bl	u8x8_gpio_call
 241              	.LVL23:
 410:..\..\u8g2\csrc/u8x8_byte.c **** 
 242              		.loc 1 410 0
 243              		@ sp needed
 244 000a 10BD     		pop	{r4, pc}
 245              		.cfi_endproc
 246              	.LFE14:
 247              		.size	i2c_clear_scl, .-i2c_clear_scl
 248              		.section	.text.i2c_start,"ax",%progbits
 249              		.align	2
 250              		.code	16
 251              		.thumb_func
 252              		.type	i2c_start, %function
 253              	i2c_start:
 254              	.LFB17:
 425:..\..\u8g2\csrc/u8x8_byte.c ****   if ( u8x8->i2c_started != 0 )
 255              		.loc 1 425 0
 256              		.cfi_startproc
 257              		@ args = 0, pretend = 0, frame = 0
 258              		@ frame_needed = 0, uses_anonymous_args = 0
 259              	.LVL24:
 260 0000 10B5     		push	{r4, lr}
 261              		.cfi_def_cfa_offset 8
 262              		.cfi_offset 4, -8
 263              		.cfi_offset 14, -4
 264 0002 0400     		movs	r4, r0
 426:..\..\u8g2\csrc/u8x8_byte.c ****   {
 265              		.loc 1 426 0
 266 0004 2123     		movs	r3, #33
 267 0006 C35C     		ldrb	r3, [r0, r3]
 268 0008 002B     		cmp	r3, #0
 269 000a 07D0     		beq	.L9
 429:..\..\u8g2\csrc/u8x8_byte.c ****     i2c_delay(u8x8);
 270              		.loc 1 429 0
 271 000c FFF7FEFF 		bl	i2c_read_sda
 272              	.LVL25:
 430:..\..\u8g2\csrc/u8x8_byte.c ****     i2c_read_scl_and_delay(u8x8);
 273              		.loc 1 430 0
 274 0010 2000     		movs	r0, r4
 275 0012 FFF7FEFF 		bl	i2c_delay
 276              	.LVL26:
 431:..\..\u8g2\csrc/u8x8_byte.c ****   }
 277              		.loc 1 431 0
 278 0016 2000     		movs	r0, r4
ARM GAS  C:\Users\Alan\AppData\Local\Temp\ccgAQQWY.s 			page 14


 279 0018 FFF7FEFF 		bl	i2c_read_scl_and_delay
 280              	.LVL27:
 281              	.L9:
 433:..\..\u8g2\csrc/u8x8_byte.c ****   /* send the start condition, both lines go from 1 to 0 */
 282              		.loc 1 433 0
 283 001c 2000     		movs	r0, r4
 284 001e FFF7FEFF 		bl	i2c_read_sda
 285              	.LVL28:
 435:..\..\u8g2\csrc/u8x8_byte.c ****   i2c_delay(u8x8);
 286              		.loc 1 435 0
 287 0022 2000     		movs	r0, r4
 288 0024 FFF7FEFF 		bl	i2c_clear_sda
 289              	.LVL29:
 436:..\..\u8g2\csrc/u8x8_byte.c ****   i2c_clear_scl(u8x8);
 290              		.loc 1 436 0
 291 0028 2000     		movs	r0, r4
 292 002a FFF7FEFF 		bl	i2c_delay
 293              	.LVL30:
 437:..\..\u8g2\csrc/u8x8_byte.c ****   u8x8->i2c_started = 1;
 294              		.loc 1 437 0
 295 002e 2000     		movs	r0, r4
 296 0030 FFF7FEFF 		bl	i2c_clear_scl
 297              	.LVL31:
 438:..\..\u8g2\csrc/u8x8_byte.c **** }
 298              		.loc 1 438 0
 299 0034 0122     		movs	r2, #1
 300 0036 2123     		movs	r3, #33
 301 0038 E254     		strb	r2, [r4, r3]
 439:..\..\u8g2\csrc/u8x8_byte.c **** 
 302              		.loc 1 439 0
 303              		@ sp needed
 304              	.LVL32:
 305 003a 10BD     		pop	{r4, pc}
 306              		.cfi_endproc
 307              	.LFE17:
 308              		.size	i2c_start, .-i2c_start
 309              		.section	.text.i2c_write_bit,"ax",%progbits
 310              		.align	2
 311              		.code	16
 312              		.thumb_func
 313              		.type	i2c_write_bit, %function
 314              	i2c_write_bit:
 315              	.LFB19:
 456:..\..\u8g2\csrc/u8x8_byte.c **** 
 457:..\..\u8g2\csrc/u8x8_byte.c **** static void i2c_write_bit(u8x8_t *u8x8, uint8_t val)
 458:..\..\u8g2\csrc/u8x8_byte.c **** {
 316              		.loc 1 458 0
 317              		.cfi_startproc
 318              		@ args = 0, pretend = 0, frame = 0
 319              		@ frame_needed = 0, uses_anonymous_args = 0
 320              	.LVL33:
 321 0000 10B5     		push	{r4, lr}
 322              		.cfi_def_cfa_offset 8
 323              		.cfi_offset 4, -8
 324              		.cfi_offset 14, -4
 325 0002 0400     		movs	r4, r0
 459:..\..\u8g2\csrc/u8x8_byte.c ****   if (val)
ARM GAS  C:\Users\Alan\AppData\Local\Temp\ccgAQQWY.s 			page 15


 326              		.loc 1 459 0
 327 0004 0029     		cmp	r1, #0
 328 0006 02D0     		beq	.L11
 460:..\..\u8g2\csrc/u8x8_byte.c ****     i2c_read_sda(u8x8);
 329              		.loc 1 460 0
 330 0008 FFF7FEFF 		bl	i2c_read_sda
 331              	.LVL34:
 332 000c 01E0     		b	.L12
 333              	.LVL35:
 334              	.L11:
 461:..\..\u8g2\csrc/u8x8_byte.c ****   else
 462:..\..\u8g2\csrc/u8x8_byte.c ****     i2c_clear_sda(u8x8);
 335              		.loc 1 462 0
 336 000e FFF7FEFF 		bl	i2c_clear_sda
 337              	.LVL36:
 338              	.L12:
 463:..\..\u8g2\csrc/u8x8_byte.c ****  
 464:..\..\u8g2\csrc/u8x8_byte.c ****   i2c_delay(u8x8);
 339              		.loc 1 464 0
 340 0012 2000     		movs	r0, r4
 341 0014 FFF7FEFF 		bl	i2c_delay
 342              	.LVL37:
 465:..\..\u8g2\csrc/u8x8_byte.c ****   i2c_read_scl_and_delay(u8x8);
 343              		.loc 1 465 0
 344 0018 2000     		movs	r0, r4
 345 001a FFF7FEFF 		bl	i2c_read_scl_and_delay
 346              	.LVL38:
 466:..\..\u8g2\csrc/u8x8_byte.c ****   i2c_clear_scl(u8x8);
 347              		.loc 1 466 0
 348 001e 2000     		movs	r0, r4
 349 0020 FFF7FEFF 		bl	i2c_clear_scl
 350              	.LVL39:
 467:..\..\u8g2\csrc/u8x8_byte.c **** }
 351              		.loc 1 467 0
 352              		@ sp needed
 353              	.LVL40:
 354 0024 10BD     		pop	{r4, pc}
 355              		.cfi_endproc
 356              	.LFE19:
 357              		.size	i2c_write_bit, .-i2c_write_bit
 358 0026 C046     		.section	.text.i2c_read_bit,"ax",%progbits
 359              		.align	2
 360              		.code	16
 361              		.thumb_func
 362              		.type	i2c_read_bit, %function
 363              	i2c_read_bit:
 364              	.LFB20:
 468:..\..\u8g2\csrc/u8x8_byte.c **** 
 469:..\..\u8g2\csrc/u8x8_byte.c **** static void i2c_read_bit(u8x8_t *u8x8)
 470:..\..\u8g2\csrc/u8x8_byte.c **** {
 365              		.loc 1 470 0
 366              		.cfi_startproc
 367              		@ args = 0, pretend = 0, frame = 0
 368              		@ frame_needed = 0, uses_anonymous_args = 0
 369              	.LVL41:
 370 0000 10B5     		push	{r4, lr}
 371              		.cfi_def_cfa_offset 8
ARM GAS  C:\Users\Alan\AppData\Local\Temp\ccgAQQWY.s 			page 16


 372              		.cfi_offset 4, -8
 373              		.cfi_offset 14, -4
 374 0002 0400     		movs	r4, r0
 471:..\..\u8g2\csrc/u8x8_byte.c ****   //uint8_t val;
 472:..\..\u8g2\csrc/u8x8_byte.c ****   /* do not drive SDA */
 473:..\..\u8g2\csrc/u8x8_byte.c ****   i2c_read_sda(u8x8);
 375              		.loc 1 473 0
 376 0004 FFF7FEFF 		bl	i2c_read_sda
 377              	.LVL42:
 474:..\..\u8g2\csrc/u8x8_byte.c ****   i2c_delay(u8x8);
 378              		.loc 1 474 0
 379 0008 2000     		movs	r0, r4
 380 000a FFF7FEFF 		bl	i2c_delay
 381              	.LVL43:
 475:..\..\u8g2\csrc/u8x8_byte.c ****   i2c_read_scl_and_delay(u8x8);
 382              		.loc 1 475 0
 383 000e 2000     		movs	r0, r4
 384 0010 FFF7FEFF 		bl	i2c_read_scl_and_delay
 385              	.LVL44:
 476:..\..\u8g2\csrc/u8x8_byte.c ****   i2c_read_sda(u8x8);
 386              		.loc 1 476 0
 387 0014 2000     		movs	r0, r4
 388 0016 FFF7FEFF 		bl	i2c_read_sda
 389              	.LVL45:
 477:..\..\u8g2\csrc/u8x8_byte.c ****   i2c_delay(u8x8);
 390              		.loc 1 477 0
 391 001a 2000     		movs	r0, r4
 392 001c FFF7FEFF 		bl	i2c_delay
 393              	.LVL46:
 478:..\..\u8g2\csrc/u8x8_byte.c ****   i2c_clear_scl(u8x8);
 394              		.loc 1 478 0
 395 0020 2000     		movs	r0, r4
 396 0022 FFF7FEFF 		bl	i2c_clear_scl
 397              	.LVL47:
 479:..\..\u8g2\csrc/u8x8_byte.c ****   //return val;
 480:..\..\u8g2\csrc/u8x8_byte.c **** }
 398              		.loc 1 480 0
 399              		@ sp needed
 400              	.LVL48:
 401 0026 10BD     		pop	{r4, pc}
 402              		.cfi_endproc
 403              	.LFE20:
 404              		.size	i2c_read_bit, .-i2c_read_bit
 405              		.section	.text.i2c_write_byte,"ax",%progbits
 406              		.align	2
 407              		.code	16
 408              		.thumb_func
 409              		.type	i2c_write_byte, %function
 410              	i2c_write_byte:
 411              	.LFB21:
 481:..\..\u8g2\csrc/u8x8_byte.c **** 
 482:..\..\u8g2\csrc/u8x8_byte.c **** static void i2c_write_byte(u8x8_t *u8x8, uint8_t b)
 483:..\..\u8g2\csrc/u8x8_byte.c **** {
 412              		.loc 1 483 0
 413              		.cfi_startproc
 414              		@ args = 0, pretend = 0, frame = 0
 415              		@ frame_needed = 0, uses_anonymous_args = 0
ARM GAS  C:\Users\Alan\AppData\Local\Temp\ccgAQQWY.s 			page 17


 416              	.LVL49:
 417 0000 70B5     		push	{r4, r5, r6, lr}
 418              		.cfi_def_cfa_offset 16
 419              		.cfi_offset 4, -16
 420              		.cfi_offset 5, -12
 421              		.cfi_offset 6, -8
 422              		.cfi_offset 14, -4
 423 0002 0500     		movs	r5, r0
 424 0004 0C00     		movs	r4, r1
 484:..\..\u8g2\csrc/u8x8_byte.c ****   i2c_write_bit(u8x8, b & 128);
 425              		.loc 1 484 0
 426 0006 7F23     		movs	r3, #127
 427 0008 9943     		bics	r1, r3
 428              	.LVL50:
 429 000a FFF7FEFF 		bl	i2c_write_bit
 430              	.LVL51:
 485:..\..\u8g2\csrc/u8x8_byte.c ****   i2c_write_bit(u8x8, b & 64);
 431              		.loc 1 485 0
 432 000e 4021     		movs	r1, #64
 433 0010 2140     		ands	r1, r4
 434 0012 2800     		movs	r0, r5
 435 0014 FFF7FEFF 		bl	i2c_write_bit
 436              	.LVL52:
 486:..\..\u8g2\csrc/u8x8_byte.c ****   i2c_write_bit(u8x8, b & 32);
 437              		.loc 1 486 0
 438 0018 2021     		movs	r1, #32
 439 001a 2140     		ands	r1, r4
 440 001c 2800     		movs	r0, r5
 441 001e FFF7FEFF 		bl	i2c_write_bit
 442              	.LVL53:
 487:..\..\u8g2\csrc/u8x8_byte.c ****   i2c_write_bit(u8x8, b & 16);
 443              		.loc 1 487 0
 444 0022 1021     		movs	r1, #16
 445 0024 2140     		ands	r1, r4
 446 0026 2800     		movs	r0, r5
 447 0028 FFF7FEFF 		bl	i2c_write_bit
 448              	.LVL54:
 488:..\..\u8g2\csrc/u8x8_byte.c ****   i2c_write_bit(u8x8, b & 8);
 449              		.loc 1 488 0
 450 002c 0821     		movs	r1, #8
 451 002e 2140     		ands	r1, r4
 452 0030 2800     		movs	r0, r5
 453 0032 FFF7FEFF 		bl	i2c_write_bit
 454              	.LVL55:
 489:..\..\u8g2\csrc/u8x8_byte.c ****   i2c_write_bit(u8x8, b & 4);
 455              		.loc 1 489 0
 456 0036 0421     		movs	r1, #4
 457 0038 2140     		ands	r1, r4
 458 003a 2800     		movs	r0, r5
 459 003c FFF7FEFF 		bl	i2c_write_bit
 460              	.LVL56:
 490:..\..\u8g2\csrc/u8x8_byte.c ****   i2c_write_bit(u8x8, b & 2);
 461              		.loc 1 490 0
 462 0040 0221     		movs	r1, #2
 463 0042 2140     		ands	r1, r4
 464 0044 2800     		movs	r0, r5
 465 0046 FFF7FEFF 		bl	i2c_write_bit
ARM GAS  C:\Users\Alan\AppData\Local\Temp\ccgAQQWY.s 			page 18


 466              	.LVL57:
 491:..\..\u8g2\csrc/u8x8_byte.c ****   i2c_write_bit(u8x8, b & 1);
 467              		.loc 1 491 0
 468 004a 0121     		movs	r1, #1
 469 004c 2140     		ands	r1, r4
 470 004e 2800     		movs	r0, r5
 471 0050 FFF7FEFF 		bl	i2c_write_bit
 472              	.LVL58:
 492:..\..\u8g2\csrc/u8x8_byte.c ****     
 493:..\..\u8g2\csrc/u8x8_byte.c ****   /* read ack from client */
 494:..\..\u8g2\csrc/u8x8_byte.c ****   /* 0: ack was given by client */
 495:..\..\u8g2\csrc/u8x8_byte.c ****   /* 1: nothing happend during ack cycle */  
 496:..\..\u8g2\csrc/u8x8_byte.c ****   i2c_read_bit(u8x8);
 473              		.loc 1 496 0
 474 0054 2800     		movs	r0, r5
 475 0056 FFF7FEFF 		bl	i2c_read_bit
 476              	.LVL59:
 497:..\..\u8g2\csrc/u8x8_byte.c **** }
 477              		.loc 1 497 0
 478              		@ sp needed
 479              	.LVL60:
 480 005a 70BD     		pop	{r4, r5, r6, pc}
 481              		.cfi_endproc
 482              	.LFE21:
 483              		.size	i2c_write_byte, .-i2c_write_byte
 484              		.section	.text.u8x8_byte_SetDC,"ax",%progbits
 485              		.align	2
 486              		.global	u8x8_byte_SetDC
 487              		.code	16
 488              		.thumb_func
 489              		.type	u8x8_byte_SetDC, %function
 490              	u8x8_byte_SetDC:
 491              	.LFB0:
  40:..\..\u8g2\csrc/u8x8_byte.c ****   return u8x8->byte_cb(u8x8, U8X8_MSG_BYTE_SET_DC, dc, NULL);
 492              		.loc 1 40 0
 493              		.cfi_startproc
 494              		@ args = 0, pretend = 0, frame = 0
 495              		@ frame_needed = 0, uses_anonymous_args = 0
 496              	.LVL61:
 497 0000 10B5     		push	{r4, lr}
 498              		.cfi_def_cfa_offset 8
 499              		.cfi_offset 4, -8
 500              		.cfi_offset 14, -4
 501 0002 0A00     		movs	r2, r1
  41:..\..\u8g2\csrc/u8x8_byte.c **** }
 502              		.loc 1 41 0
 503 0004 0469     		ldr	r4, [r0, #16]
 504 0006 0023     		movs	r3, #0
 505 0008 2021     		movs	r1, #32
 506              	.LVL62:
 507 000a A047     		blx	r4
 508              	.LVL63:
  42:..\..\u8g2\csrc/u8x8_byte.c **** 
 509              		.loc 1 42 0
 510              		@ sp needed
 511 000c 10BD     		pop	{r4, pc}
 512              		.cfi_endproc
ARM GAS  C:\Users\Alan\AppData\Local\Temp\ccgAQQWY.s 			page 19


 513              	.LFE0:
 514              		.size	u8x8_byte_SetDC, .-u8x8_byte_SetDC
 515 000e C046     		.section	.text.u8x8_byte_SendBytes,"ax",%progbits
 516              		.align	2
 517              		.global	u8x8_byte_SendBytes
 518              		.code	16
 519              		.thumb_func
 520              		.type	u8x8_byte_SendBytes, %function
 521              	u8x8_byte_SendBytes:
 522              	.LFB1:
  45:..\..\u8g2\csrc/u8x8_byte.c ****   return u8x8->byte_cb(u8x8, U8X8_MSG_BYTE_SEND, cnt, (void *)data);
 523              		.loc 1 45 0
 524              		.cfi_startproc
 525              		@ args = 0, pretend = 0, frame = 0
 526              		@ frame_needed = 0, uses_anonymous_args = 0
 527              	.LVL64:
 528 0000 10B5     		push	{r4, lr}
 529              		.cfi_def_cfa_offset 8
 530              		.cfi_offset 4, -8
 531              		.cfi_offset 14, -4
 532 0002 1300     		movs	r3, r2
  46:..\..\u8g2\csrc/u8x8_byte.c **** }
 533              		.loc 1 46 0
 534 0004 0469     		ldr	r4, [r0, #16]
 535 0006 0A00     		movs	r2, r1
 536              	.LVL65:
 537 0008 1721     		movs	r1, #23
 538              	.LVL66:
 539 000a A047     		blx	r4
 540              	.LVL67:
  47:..\..\u8g2\csrc/u8x8_byte.c **** 
 541              		.loc 1 47 0
 542              		@ sp needed
 543 000c 10BD     		pop	{r4, pc}
 544              		.cfi_endproc
 545              	.LFE1:
 546              		.size	u8x8_byte_SendBytes, .-u8x8_byte_SendBytes
 547 000e C046     		.section	.text.u8x8_byte_SendByte,"ax",%progbits
 548              		.align	2
 549              		.global	u8x8_byte_SendByte
 550              		.code	16
 551              		.thumb_func
 552              		.type	u8x8_byte_SendByte, %function
 553              	u8x8_byte_SendByte:
 554              	.LFB2:
  50:..\..\u8g2\csrc/u8x8_byte.c ****   return u8x8_byte_SendBytes(u8x8, 1, &byte);
 555              		.loc 1 50 0
 556              		.cfi_startproc
 557              		@ args = 0, pretend = 0, frame = 8
 558              		@ frame_needed = 0, uses_anonymous_args = 0
 559              	.LVL68:
 560 0000 00B5     		push	{lr}
 561              		.cfi_def_cfa_offset 4
 562              		.cfi_offset 14, -4
 563 0002 83B0     		sub	sp, sp, #12
 564              		.cfi_def_cfa_offset 16
 565 0004 6B46     		mov	r3, sp
ARM GAS  C:\Users\Alan\AppData\Local\Temp\ccgAQQWY.s 			page 20


 566 0006 DA1D     		adds	r2, r3, #7
 567 0008 1170     		strb	r1, [r2]
  51:..\..\u8g2\csrc/u8x8_byte.c **** }
 568              		.loc 1 51 0
 569 000a 0121     		movs	r1, #1
 570              	.LVL69:
 571 000c FFF7FEFF 		bl	u8x8_byte_SendBytes
 572              	.LVL70:
  52:..\..\u8g2\csrc/u8x8_byte.c **** 
 573              		.loc 1 52 0
 574 0010 03B0     		add	sp, sp, #12
 575              	.LVL71:
 576              		@ sp needed
 577 0012 00BD     		pop	{pc}
 578              		.cfi_endproc
 579              	.LFE2:
 580              		.size	u8x8_byte_SendByte, .-u8x8_byte_SendByte
 581              		.section	.text.u8x8_byte_StartTransfer,"ax",%progbits
 582              		.align	2
 583              		.global	u8x8_byte_StartTransfer
 584              		.code	16
 585              		.thumb_func
 586              		.type	u8x8_byte_StartTransfer, %function
 587              	u8x8_byte_StartTransfer:
 588              	.LFB3:
  55:..\..\u8g2\csrc/u8x8_byte.c ****   return u8x8->byte_cb(u8x8, U8X8_MSG_BYTE_START_TRANSFER, 0, NULL);
 589              		.loc 1 55 0
 590              		.cfi_startproc
 591              		@ args = 0, pretend = 0, frame = 0
 592              		@ frame_needed = 0, uses_anonymous_args = 0
 593              	.LVL72:
 594 0000 10B5     		push	{r4, lr}
 595              		.cfi_def_cfa_offset 8
 596              		.cfi_offset 4, -8
 597              		.cfi_offset 14, -4
  56:..\..\u8g2\csrc/u8x8_byte.c **** }
 598              		.loc 1 56 0
 599 0002 0469     		ldr	r4, [r0, #16]
 600 0004 0023     		movs	r3, #0
 601 0006 0022     		movs	r2, #0
 602 0008 1821     		movs	r1, #24
 603 000a A047     		blx	r4
 604              	.LVL73:
  57:..\..\u8g2\csrc/u8x8_byte.c **** 
 605              		.loc 1 57 0
 606              		@ sp needed
 607 000c 10BD     		pop	{r4, pc}
 608              		.cfi_endproc
 609              	.LFE3:
 610              		.size	u8x8_byte_StartTransfer, .-u8x8_byte_StartTransfer
 611 000e C046     		.section	.text.u8x8_byte_EndTransfer,"ax",%progbits
 612              		.align	2
 613              		.global	u8x8_byte_EndTransfer
 614              		.code	16
 615              		.thumb_func
 616              		.type	u8x8_byte_EndTransfer, %function
 617              	u8x8_byte_EndTransfer:
ARM GAS  C:\Users\Alan\AppData\Local\Temp\ccgAQQWY.s 			page 21


 618              	.LFB4:
  60:..\..\u8g2\csrc/u8x8_byte.c ****   return u8x8->byte_cb(u8x8, U8X8_MSG_BYTE_END_TRANSFER, 0, NULL);
 619              		.loc 1 60 0
 620              		.cfi_startproc
 621              		@ args = 0, pretend = 0, frame = 0
 622              		@ frame_needed = 0, uses_anonymous_args = 0
 623              	.LVL74:
 624 0000 10B5     		push	{r4, lr}
 625              		.cfi_def_cfa_offset 8
 626              		.cfi_offset 4, -8
 627              		.cfi_offset 14, -4
  61:..\..\u8g2\csrc/u8x8_byte.c **** }
 628              		.loc 1 61 0
 629 0002 0469     		ldr	r4, [r0, #16]
 630 0004 0023     		movs	r3, #0
 631 0006 0022     		movs	r2, #0
 632 0008 1921     		movs	r1, #25
 633 000a A047     		blx	r4
 634              	.LVL75:
  62:..\..\u8g2\csrc/u8x8_byte.c **** 
 635              		.loc 1 62 0
 636              		@ sp needed
 637 000c 10BD     		pop	{r4, pc}
 638              		.cfi_endproc
 639              	.LFE4:
 640              		.size	u8x8_byte_EndTransfer, .-u8x8_byte_EndTransfer
 641 000e C046     		.section	.text.u8x8_byte_4wire_sw_spi,"ax",%progbits
 642              		.align	2
 643              		.global	u8x8_byte_4wire_sw_spi
 644              		.code	16
 645              		.thumb_func
 646              		.type	u8x8_byte_4wire_sw_spi, %function
 647              	u8x8_byte_4wire_sw_spi:
 648              	.LFB5:
  89:..\..\u8g2\csrc/u8x8_byte.c ****   uint8_t i, b;
 649              		.loc 1 89 0
 650              		.cfi_startproc
 651              		@ args = 0, pretend = 0, frame = 8
 652              		@ frame_needed = 0, uses_anonymous_args = 0
 653              	.LVL76:
 654 0000 F0B5     		push	{r4, r5, r6, r7, lr}
 655              		.cfi_def_cfa_offset 20
 656              		.cfi_offset 4, -20
 657              		.cfi_offset 5, -16
 658              		.cfi_offset 6, -12
 659              		.cfi_offset 7, -8
 660              		.cfi_offset 14, -4
 661 0002 5746     		mov	r7, r10
 662 0004 4E46     		mov	r6, r9
 663 0006 C0B4     		push	{r6, r7}
 664              		.cfi_def_cfa_offset 28
 665              		.cfi_offset 9, -28
 666              		.cfi_offset 10, -24
 667 0008 83B0     		sub	sp, sp, #12
 668              		.cfi_def_cfa_offset 40
 669 000a 0400     		movs	r4, r0
 670 000c 9146     		mov	r9, r2
ARM GAS  C:\Users\Alan\AppData\Local\Temp\ccgAQQWY.s 			page 22


 671 000e 9A46     		mov	r10, r3
  92:..\..\u8g2\csrc/u8x8_byte.c ****   uint8_t not_takeover_edge = 1 - takeover_edge;
 672              		.loc 1 92 0
 673 0010 0368     		ldr	r3, [r0]
 674              	.LVL77:
 675 0012 1A7B     		ldrb	r2, [r3, #12]
 676              	.LVL78:
 677 0014 0127     		movs	r7, #1
 678 0016 1740     		ands	r7, r2
 679              	.LVL79:
  93:..\..\u8g2\csrc/u8x8_byte.c ****  
 680              		.loc 1 93 0
 681 0018 0126     		movs	r6, #1
 682 001a F61B     		subs	r6, r6, r7
 683 001c F2B2     		uxtb	r2, r6
 684 001e 0192     		str	r2, [sp, #4]
 685              	.LVL80:
  95:..\..\u8g2\csrc/u8x8_byte.c ****   {
 686              		.loc 1 95 0
 687 0020 1439     		subs	r1, r1, #20
 688              	.LVL81:
 689 0022 CAB2     		uxtb	r2, r1
 690 0024 0C2A     		cmp	r2, #12
 691 0026 6BD8     		bhi	.L33
 692 0028 9100     		lsls	r1, r2, #2
 693 002a 384A     		ldr	r2, .L34
 694 002c 5258     		ldr	r2, [r2, r1]
 695 002e 9746     		mov	pc, r2
 696              		.section	.rodata
 697              		.align	2
 698              	.L23:
 699 0000 A4000000 		.word	.L22
 700 0004 00010000 		.word	.L33
 701 0008 00010000 		.word	.L33
 702 000c 9A000000 		.word	.L24
 703 0010 CC000000 		.word	.L25
 704 0014 E6000000 		.word	.L26
 705 0018 00010000 		.word	.L33
 706 001c 00010000 		.word	.L33
 707 0020 00010000 		.word	.L33
 708 0024 00010000 		.word	.L33
 709 0028 00010000 		.word	.L33
 710 002c 00010000 		.word	.L33
 711 0030 C0000000 		.word	.L27
 712              		.section	.text.u8x8_byte_4wire_sw_spi
 713              	.LVL82:
 714              	.L32:
 101:..\..\u8g2\csrc/u8x8_byte.c **** 	data++;
 715              		.loc 1 101 0
 716 0030 5346     		mov	r3, r10
 717 0032 1E78     		ldrb	r6, [r3]
 718              	.LVL83:
 102:..\..\u8g2\csrc/u8x8_byte.c **** 	arg_int--;
 719              		.loc 1 102 0
 720 0034 0123     		movs	r3, #1
 721 0036 9C46     		mov	ip, r3
 722 0038 E244     		add	r10, r10, ip
ARM GAS  C:\Users\Alan\AppData\Local\Temp\ccgAQQWY.s 			page 23


 723              	.LVL84:
 103:..\..\u8g2\csrc/u8x8_byte.c **** 	for( i = 0; i < 8; i++ )
 724              		.loc 1 103 0
 725 003a 4B46     		mov	r3, r9
 726 003c 013B     		subs	r3, r3, #1
 727 003e DBB2     		uxtb	r3, r3
 728 0040 9946     		mov	r9, r3
 729              	.LVL85:
 104:..\..\u8g2\csrc/u8x8_byte.c **** 	{
 730              		.loc 1 104 0
 731 0042 0025     		movs	r5, #0
 732 0044 27E0     		b	.L28
 733              	.LVL86:
 734              	.L31:
 106:..\..\u8g2\csrc/u8x8_byte.c **** 	    u8x8_gpio_SetSPIData(u8x8, 1);
 735              		.loc 1 106 0
 736 0046 73B2     		sxtb	r3, r6
 737 0048 002B     		cmp	r3, #0
 738 004a 05DA     		bge	.L29
 107:..\..\u8g2\csrc/u8x8_byte.c **** 	  else
 739              		.loc 1 107 0
 740 004c 0122     		movs	r2, #1
 741 004e 4121     		movs	r1, #65
 742 0050 2000     		movs	r0, r4
 743 0052 FFF7FEFF 		bl	u8x8_gpio_call
 744              	.LVL87:
 745 0056 04E0     		b	.L30
 746              	.L29:
 109:..\..\u8g2\csrc/u8x8_byte.c **** 	  b <<= 1;
 747              		.loc 1 109 0
 748 0058 0022     		movs	r2, #0
 749 005a 4121     		movs	r1, #65
 750 005c 2000     		movs	r0, r4
 751 005e FFF7FEFF 		bl	u8x8_gpio_call
 752              	.LVL88:
 753              	.L30:
 110:..\..\u8g2\csrc/u8x8_byte.c **** 	  
 754              		.loc 1 110 0 discriminator 2
 755 0062 7300     		lsls	r3, r6, #1
 756 0064 DEB2     		uxtb	r6, r3
 757              	.LVL89:
 112:..\..\u8g2\csrc/u8x8_byte.c **** 	  u8x8_gpio_Delay(u8x8, U8X8_MSG_DELAY_NANO, u8x8->display_info->sda_setup_time_ns);
 758              		.loc 1 112 0 discriminator 2
 759 0066 019A     		ldr	r2, [sp, #4]
 760 0068 4021     		movs	r1, #64
 761 006a 2000     		movs	r0, r4
 762 006c FFF7FEFF 		bl	u8x8_gpio_call
 763              	.LVL90:
 113:..\..\u8g2\csrc/u8x8_byte.c **** 	  u8x8_gpio_SetSPIClock(u8x8, takeover_edge);
 764              		.loc 1 113 0 discriminator 2
 765 0070 2368     		ldr	r3, [r4]
 766 0072 9A79     		ldrb	r2, [r3, #6]
 767 0074 2C21     		movs	r1, #44
 768 0076 2000     		movs	r0, r4
 769 0078 FFF7FEFF 		bl	u8x8_gpio_call
 770              	.LVL91:
 114:..\..\u8g2\csrc/u8x8_byte.c **** 	  u8x8_gpio_Delay(u8x8, U8X8_MSG_DELAY_NANO, u8x8->display_info->sck_pulse_width_ns);
ARM GAS  C:\Users\Alan\AppData\Local\Temp\ccgAQQWY.s 			page 24


 771              		.loc 1 114 0 discriminator 2
 772 007c 3A00     		movs	r2, r7
 773 007e 4021     		movs	r1, #64
 774 0080 2000     		movs	r0, r4
 775 0082 FFF7FEFF 		bl	u8x8_gpio_call
 776              	.LVL92:
 115:..\..\u8g2\csrc/u8x8_byte.c **** 	}    
 777              		.loc 1 115 0 discriminator 2
 778 0086 2368     		ldr	r3, [r4]
 779 0088 DA79     		ldrb	r2, [r3, #7]
 780 008a 2C21     		movs	r1, #44
 781 008c 2000     		movs	r0, r4
 782 008e FFF7FEFF 		bl	u8x8_gpio_call
 783              	.LVL93:
 104:..\..\u8g2\csrc/u8x8_byte.c **** 	{
 784              		.loc 1 104 0 discriminator 2
 785 0092 0135     		adds	r5, r5, #1
 786              	.LVL94:
 787 0094 EDB2     		uxtb	r5, r5
 788              	.LVL95:
 789              	.L28:
 104:..\..\u8g2\csrc/u8x8_byte.c **** 	{
 790              		.loc 1 104 0 is_stmt 0 discriminator 1
 791 0096 072D     		cmp	r5, #7
 792 0098 D5D9     		bls	.L31
 793              	.LVL96:
 794              	.L24:
  99:..\..\u8g2\csrc/u8x8_byte.c ****       {
 795              		.loc 1 99 0 is_stmt 1
 796 009a 4B46     		mov	r3, r9
 797 009c 002B     		cmp	r3, #0
 798 009e C7D1     		bne	.L32
 142:..\..\u8g2\csrc/u8x8_byte.c **** }
 799              		.loc 1 142 0
 800 00a0 0120     		movs	r0, #1
 801 00a2 2EE0     		b	.L21
 802              	.LVL97:
 803              	.L22:
 122:..\..\u8g2\csrc/u8x8_byte.c ****       /* no wait required here */
 804              		.loc 1 122 0
 805 00a4 5A78     		ldrb	r2, [r3, #1]
 806 00a6 4921     		movs	r1, #73
 807 00a8 FFF7FEFF 		bl	u8x8_gpio_call
 808              	.LVL98:
 126:..\..\u8g2\csrc/u8x8_byte.c ****       break;
 809              		.loc 1 126 0
 810 00ac 2368     		ldr	r3, [r4]
 811 00ae 1B7B     		ldrb	r3, [r3, #12]
 812 00b0 0122     		movs	r2, #1
 813 00b2 1A40     		ands	r2, r3
 814 00b4 4021     		movs	r1, #64
 815 00b6 2000     		movs	r0, r4
 816 00b8 FFF7FEFF 		bl	u8x8_gpio_call
 817              	.LVL99:
 142:..\..\u8g2\csrc/u8x8_byte.c **** }
 818              		.loc 1 142 0
 819 00bc 0120     		movs	r0, #1
ARM GAS  C:\Users\Alan\AppData\Local\Temp\ccgAQQWY.s 			page 25


 127:..\..\u8g2\csrc/u8x8_byte.c ****     case U8X8_MSG_BYTE_SET_DC:
 820              		.loc 1 127 0
 821 00be 20E0     		b	.L21
 822              	.LVL100:
 823              	.L27:
 129:..\..\u8g2\csrc/u8x8_byte.c ****       break;
 824              		.loc 1 129 0
 825 00c0 4A46     		mov	r2, r9
 826 00c2 4A21     		movs	r1, #74
 827 00c4 FFF7FEFF 		bl	u8x8_gpio_call
 828              	.LVL101:
 142:..\..\u8g2\csrc/u8x8_byte.c **** }
 829              		.loc 1 142 0
 830 00c8 0120     		movs	r0, #1
 130:..\..\u8g2\csrc/u8x8_byte.c ****     case U8X8_MSG_BYTE_START_TRANSFER:
 831              		.loc 1 130 0
 832 00ca 1AE0     		b	.L21
 833              	.LVL102:
 834              	.L25:
 132:..\..\u8g2\csrc/u8x8_byte.c ****       u8x8->gpio_and_delay_cb(u8x8, U8X8_MSG_DELAY_NANO, u8x8->display_info->post_chip_enable_wait_
 835              		.loc 1 132 0
 836 00cc 1A78     		ldrb	r2, [r3]
 837 00ce 4921     		movs	r1, #73
 838 00d0 FFF7FEFF 		bl	u8x8_gpio_call
 839              	.LVL103:
 133:..\..\u8g2\csrc/u8x8_byte.c ****       break;
 840              		.loc 1 133 0
 841 00d4 6569     		ldr	r5, [r4, #20]
 842 00d6 2368     		ldr	r3, [r4]
 843 00d8 9A78     		ldrb	r2, [r3, #2]
 844 00da 0023     		movs	r3, #0
 845 00dc 2C21     		movs	r1, #44
 846 00de 2000     		movs	r0, r4
 847 00e0 A847     		blx	r5
 848              	.LVL104:
 142:..\..\u8g2\csrc/u8x8_byte.c **** }
 849              		.loc 1 142 0
 850 00e2 0120     		movs	r0, #1
 134:..\..\u8g2\csrc/u8x8_byte.c ****     case U8X8_MSG_BYTE_END_TRANSFER:
 851              		.loc 1 134 0
 852 00e4 0DE0     		b	.L21
 853              	.LVL105:
 854              	.L26:
 136:..\..\u8g2\csrc/u8x8_byte.c ****       u8x8_gpio_SetCS(u8x8, u8x8->display_info->chip_disable_level);
 855              		.loc 1 136 0
 856 00e6 DA78     		ldrb	r2, [r3, #3]
 857 00e8 0023     		movs	r3, #0
 858 00ea 2C21     		movs	r1, #44
 859 00ec 4569     		ldr	r5, [r0, #20]
 860 00ee A847     		blx	r5
 861              	.LVL106:
 137:..\..\u8g2\csrc/u8x8_byte.c ****       break;
 862              		.loc 1 137 0
 863 00f0 2368     		ldr	r3, [r4]
 864 00f2 5A78     		ldrb	r2, [r3, #1]
 865 00f4 4921     		movs	r1, #73
 866 00f6 2000     		movs	r0, r4
ARM GAS  C:\Users\Alan\AppData\Local\Temp\ccgAQQWY.s 			page 26


 867 00f8 FFF7FEFF 		bl	u8x8_gpio_call
 868              	.LVL107:
 142:..\..\u8g2\csrc/u8x8_byte.c **** }
 869              		.loc 1 142 0
 870 00fc 0120     		movs	r0, #1
 138:..\..\u8g2\csrc/u8x8_byte.c ****     default:
 871              		.loc 1 138 0
 872 00fe 00E0     		b	.L21
 873              	.LVL108:
 874              	.L33:
 140:..\..\u8g2\csrc/u8x8_byte.c ****   }
 875              		.loc 1 140 0
 876 0100 0020     		movs	r0, #0
 877              	.LVL109:
 878              	.L21:
 143:..\..\u8g2\csrc/u8x8_byte.c **** 
 879              		.loc 1 143 0
 880 0102 03B0     		add	sp, sp, #12
 881              		@ sp needed
 882              	.LVL110:
 883              	.LVL111:
 884 0104 0CBC     		pop	{r2, r3}
 885 0106 9146     		mov	r9, r2
 886 0108 9A46     		mov	r10, r3
 887 010a F0BD     		pop	{r4, r5, r6, r7, pc}
 888              	.L35:
 889              		.align	2
 890              	.L34:
 891 010c 00000000 		.word	.L23
 892              		.cfi_endproc
 893              	.LFE5:
 894              		.size	u8x8_byte_4wire_sw_spi, .-u8x8_byte_4wire_sw_spi
 895              		.section	.text.u8x8_byte_8bit_6800mode,"ax",%progbits
 896              		.align	2
 897              		.global	u8x8_byte_8bit_6800mode
 898              		.code	16
 899              		.thumb_func
 900              		.type	u8x8_byte_8bit_6800mode, %function
 901              	u8x8_byte_8bit_6800mode:
 902              	.LFB6:
 148:..\..\u8g2\csrc/u8x8_byte.c ****   uint8_t i, b;
 903              		.loc 1 148 0
 904              		.cfi_startproc
 905              		@ args = 0, pretend = 0, frame = 0
 906              		@ frame_needed = 0, uses_anonymous_args = 0
 907              	.LVL112:
 908 0000 F0B5     		push	{r4, r5, r6, r7, lr}
 909              		.cfi_def_cfa_offset 20
 910              		.cfi_offset 4, -20
 911              		.cfi_offset 5, -16
 912              		.cfi_offset 6, -12
 913              		.cfi_offset 7, -8
 914              		.cfi_offset 14, -4
 915 0002 4746     		mov	r7, r8
 916 0004 80B4     		push	{r7}
 917              		.cfi_def_cfa_offset 24
 918              		.cfi_offset 8, -24
ARM GAS  C:\Users\Alan\AppData\Local\Temp\ccgAQQWY.s 			page 27


 919 0006 0600     		movs	r6, r0
 920 0008 1700     		movs	r7, r2
 921 000a 9846     		mov	r8, r3
 152:..\..\u8g2\csrc/u8x8_byte.c ****   {
 922              		.loc 1 152 0
 923 000c 1439     		subs	r1, r1, #20
 924              	.LVL113:
 925 000e CBB2     		uxtb	r3, r1
 926              	.LVL114:
 927 0010 0C2B     		cmp	r3, #12
 928 0012 5ED8     		bhi	.L47
 929 0014 9900     		lsls	r1, r3, #2
 930 0016 314B     		ldr	r3, .L48
 931 0018 5B58     		ldr	r3, [r3, r1]
 932 001a 9F46     		mov	pc, r3
 933              		.section	.rodata
 934              		.align	2
 935              	.L39:
 936 0034 78000000 		.word	.L38
 937 0038 D2000000 		.word	.L47
 938 003c D2000000 		.word	.L47
 939 0040 70000000 		.word	.L40
 940 0044 9A000000 		.word	.L41
 941 0048 B6000000 		.word	.L42
 942 004c D2000000 		.word	.L47
 943 0050 D2000000 		.word	.L47
 944 0054 D2000000 		.word	.L47
 945 0058 D2000000 		.word	.L47
 946 005c D2000000 		.word	.L47
 947 0060 D2000000 		.word	.L47
 948 0064 90000000 		.word	.L43
 949              		.section	.text.u8x8_byte_8bit_6800mode
 950              	.LVL115:
 951              	.L46:
 158:..\..\u8g2\csrc/u8x8_byte.c **** 	data++;
 952              		.loc 1 158 0
 953 001c 4346     		mov	r3, r8
 954 001e 1D78     		ldrb	r5, [r3]
 955              	.LVL116:
 159:..\..\u8g2\csrc/u8x8_byte.c **** 	arg_int--;
 956              		.loc 1 159 0
 957 0020 0123     		movs	r3, #1
 958 0022 9C46     		mov	ip, r3
 959 0024 E044     		add	r8, r8, ip
 960              	.LVL117:
 160:..\..\u8g2\csrc/u8x8_byte.c **** 	for( i = U8X8_MSG_GPIO_D0; i <= U8X8_MSG_GPIO_D7; i++ )
 961              		.loc 1 160 0
 962 0026 013F     		subs	r7, r7, #1
 963              	.LVL118:
 964 0028 FFB2     		uxtb	r7, r7
 965              	.LVL119:
 161:..\..\u8g2\csrc/u8x8_byte.c **** 	{
 966              		.loc 1 161 0
 967 002a 4024     		movs	r4, #64
 968 002c 08E0     		b	.L44
 969              	.LVL120:
 970              	.L45:
ARM GAS  C:\Users\Alan\AppData\Local\Temp\ccgAQQWY.s 			page 28


 163:..\..\u8g2\csrc/u8x8_byte.c **** 	  b >>= 1;
 971              		.loc 1 163 0 discriminator 3
 972 002e 0122     		movs	r2, #1
 973 0030 2A40     		ands	r2, r5
 974 0032 2100     		movs	r1, r4
 975 0034 3000     		movs	r0, r6
 976 0036 FFF7FEFF 		bl	u8x8_gpio_call
 977              	.LVL121:
 164:..\..\u8g2\csrc/u8x8_byte.c **** 	}    
 978              		.loc 1 164 0 discriminator 3
 979 003a 6D08     		lsrs	r5, r5, #1
 980              	.LVL122:
 161:..\..\u8g2\csrc/u8x8_byte.c **** 	{
 981              		.loc 1 161 0 discriminator 3
 982 003c 0134     		adds	r4, r4, #1
 983              	.LVL123:
 984 003e E4B2     		uxtb	r4, r4
 985              	.LVL124:
 986              	.L44:
 161:..\..\u8g2\csrc/u8x8_byte.c **** 	{
 987              		.loc 1 161 0 is_stmt 0 discriminator 1
 988 0040 472C     		cmp	r4, #71
 989 0042 F4D9     		bls	.L45
 167:..\..\u8g2\csrc/u8x8_byte.c **** 	u8x8_gpio_call(u8x8, U8X8_MSG_GPIO_E, 1);
 990              		.loc 1 167 0 is_stmt 1
 991 0044 3368     		ldr	r3, [r6]
 992 0046 9A7B     		ldrb	r2, [r3, #14]
 993 0048 2C21     		movs	r1, #44
 994 004a 3000     		movs	r0, r6
 995 004c FFF7FEFF 		bl	u8x8_gpio_call
 996              	.LVL125:
 168:..\..\u8g2\csrc/u8x8_byte.c **** 	u8x8_gpio_Delay(u8x8, U8X8_MSG_DELAY_NANO, u8x8->display_info->write_pulse_width_ns);
 997              		.loc 1 168 0
 998 0050 0122     		movs	r2, #1
 999 0052 4821     		movs	r1, #72
 1000 0054 3000     		movs	r0, r6
 1001 0056 FFF7FEFF 		bl	u8x8_gpio_call
 1002              	.LVL126:
 169:..\..\u8g2\csrc/u8x8_byte.c **** 	u8x8_gpio_call(u8x8, U8X8_MSG_GPIO_E, 0);
 1003              		.loc 1 169 0
 1004 005a 3368     		ldr	r3, [r6]
 1005 005c DA7B     		ldrb	r2, [r3, #15]
 1006 005e 2C21     		movs	r1, #44
 1007 0060 3000     		movs	r0, r6
 1008 0062 FFF7FEFF 		bl	u8x8_gpio_call
 1009              	.LVL127:
 170:..\..\u8g2\csrc/u8x8_byte.c ****       }
 1010              		.loc 1 170 0
 1011 0066 0022     		movs	r2, #0
 1012 0068 4821     		movs	r1, #72
 1013 006a 3000     		movs	r0, r6
 1014 006c FFF7FEFF 		bl	u8x8_gpio_call
 1015              	.LVL128:
 1016              	.L40:
 156:..\..\u8g2\csrc/u8x8_byte.c ****       {
 1017              		.loc 1 156 0
 1018 0070 002F     		cmp	r7, #0
ARM GAS  C:\Users\Alan\AppData\Local\Temp\ccgAQQWY.s 			page 29


 1019 0072 D3D1     		bne	.L46
 194:..\..\u8g2\csrc/u8x8_byte.c **** }
 1020              		.loc 1 194 0
 1021 0074 0120     		movs	r0, #1
 1022 0076 2DE0     		b	.L37
 1023              	.LVL129:
 1024              	.L38:
 176:..\..\u8g2\csrc/u8x8_byte.c ****       /* ensure that the enable signal is high */
 1025              		.loc 1 176 0
 1026 0078 0368     		ldr	r3, [r0]
 1027 007a 5A78     		ldrb	r2, [r3, #1]
 1028              	.LVL130:
 1029 007c 4921     		movs	r1, #73
 1030 007e FFF7FEFF 		bl	u8x8_gpio_call
 1031              	.LVL131:
 178:..\..\u8g2\csrc/u8x8_byte.c ****       break;
 1032              		.loc 1 178 0
 1033 0082 0022     		movs	r2, #0
 1034 0084 4821     		movs	r1, #72
 1035 0086 3000     		movs	r0, r6
 1036 0088 FFF7FEFF 		bl	u8x8_gpio_call
 1037              	.LVL132:
 194:..\..\u8g2\csrc/u8x8_byte.c **** }
 1038              		.loc 1 194 0
 1039 008c 0120     		movs	r0, #1
 179:..\..\u8g2\csrc/u8x8_byte.c ****     case U8X8_MSG_BYTE_SET_DC:
 1040              		.loc 1 179 0
 1041 008e 21E0     		b	.L37
 1042              	.LVL133:
 1043              	.L43:
 181:..\..\u8g2\csrc/u8x8_byte.c ****       break;
 1044              		.loc 1 181 0
 1045 0090 4A21     		movs	r1, #74
 1046 0092 FFF7FEFF 		bl	u8x8_gpio_call
 1047              	.LVL134:
 194:..\..\u8g2\csrc/u8x8_byte.c **** }
 1048              		.loc 1 194 0
 1049 0096 0120     		movs	r0, #1
 182:..\..\u8g2\csrc/u8x8_byte.c ****     case U8X8_MSG_BYTE_START_TRANSFER:
 1050              		.loc 1 182 0
 1051 0098 1CE0     		b	.L37
 1052              	.LVL135:
 1053              	.L41:
 184:..\..\u8g2\csrc/u8x8_byte.c ****       u8x8->gpio_and_delay_cb(u8x8, U8X8_MSG_DELAY_NANO, u8x8->display_info->post_chip_enable_wait_
 1054              		.loc 1 184 0
 1055 009a 0368     		ldr	r3, [r0]
 1056 009c 1A78     		ldrb	r2, [r3]
 1057              	.LVL136:
 1058 009e 4921     		movs	r1, #73
 1059 00a0 FFF7FEFF 		bl	u8x8_gpio_call
 1060              	.LVL137:
 185:..\..\u8g2\csrc/u8x8_byte.c ****       break;
 1061              		.loc 1 185 0
 1062 00a4 7469     		ldr	r4, [r6, #20]
 1063 00a6 3368     		ldr	r3, [r6]
 1064 00a8 9A78     		ldrb	r2, [r3, #2]
 1065 00aa 0023     		movs	r3, #0
ARM GAS  C:\Users\Alan\AppData\Local\Temp\ccgAQQWY.s 			page 30


 1066 00ac 2C21     		movs	r1, #44
 1067 00ae 3000     		movs	r0, r6
 1068 00b0 A047     		blx	r4
 1069              	.LVL138:
 194:..\..\u8g2\csrc/u8x8_byte.c **** }
 1070              		.loc 1 194 0
 1071 00b2 0120     		movs	r0, #1
 186:..\..\u8g2\csrc/u8x8_byte.c ****     case U8X8_MSG_BYTE_END_TRANSFER:
 1072              		.loc 1 186 0
 1073 00b4 0EE0     		b	.L37
 1074              	.LVL139:
 1075              	.L42:
 188:..\..\u8g2\csrc/u8x8_byte.c ****       u8x8_gpio_SetCS(u8x8, u8x8->display_info->chip_disable_level);
 1076              		.loc 1 188 0
 1077 00b6 0368     		ldr	r3, [r0]
 1078 00b8 DA78     		ldrb	r2, [r3, #3]
 1079              	.LVL140:
 1080 00ba 0023     		movs	r3, #0
 1081 00bc 2C21     		movs	r1, #44
 1082 00be 4469     		ldr	r4, [r0, #20]
 1083 00c0 A047     		blx	r4
 1084              	.LVL141:
 189:..\..\u8g2\csrc/u8x8_byte.c ****       break;
 1085              		.loc 1 189 0
 1086 00c2 3368     		ldr	r3, [r6]
 1087 00c4 5A78     		ldrb	r2, [r3, #1]
 1088 00c6 4921     		movs	r1, #73
 1089 00c8 3000     		movs	r0, r6
 1090 00ca FFF7FEFF 		bl	u8x8_gpio_call
 1091              	.LVL142:
 194:..\..\u8g2\csrc/u8x8_byte.c **** }
 1092              		.loc 1 194 0
 1093 00ce 0120     		movs	r0, #1
 190:..\..\u8g2\csrc/u8x8_byte.c ****     default:
 1094              		.loc 1 190 0
 1095 00d0 00E0     		b	.L37
 1096              	.LVL143:
 1097              	.L47:
 192:..\..\u8g2\csrc/u8x8_byte.c ****   }
 1098              		.loc 1 192 0
 1099 00d2 0020     		movs	r0, #0
 1100              	.LVL144:
 1101              	.L37:
 195:..\..\u8g2\csrc/u8x8_byte.c **** 
 1102              		.loc 1 195 0
 1103              		@ sp needed
 1104              	.LVL145:
 1105 00d4 04BC     		pop	{r2}
 1106 00d6 9046     		mov	r8, r2
 1107 00d8 F0BD     		pop	{r4, r5, r6, r7, pc}
 1108              	.L49:
 1109 00da C046     		.align	2
 1110              	.L48:
 1111 00dc 34000000 		.word	.L39
 1112              		.cfi_endproc
 1113              	.LFE6:
 1114              		.size	u8x8_byte_8bit_6800mode, .-u8x8_byte_8bit_6800mode
ARM GAS  C:\Users\Alan\AppData\Local\Temp\ccgAQQWY.s 			page 31


 1115              		.section	.text.u8x8_byte_8bit_8080mode,"ax",%progbits
 1116              		.align	2
 1117              		.global	u8x8_byte_8bit_8080mode
 1118              		.code	16
 1119              		.thumb_func
 1120              		.type	u8x8_byte_8bit_8080mode, %function
 1121              	u8x8_byte_8bit_8080mode:
 1122              	.LFB7:
 198:..\..\u8g2\csrc/u8x8_byte.c ****   uint8_t i, b;
 1123              		.loc 1 198 0
 1124              		.cfi_startproc
 1125              		@ args = 0, pretend = 0, frame = 0
 1126              		@ frame_needed = 0, uses_anonymous_args = 0
 1127              	.LVL146:
 1128 0000 F0B5     		push	{r4, r5, r6, r7, lr}
 1129              		.cfi_def_cfa_offset 20
 1130              		.cfi_offset 4, -20
 1131              		.cfi_offset 5, -16
 1132              		.cfi_offset 6, -12
 1133              		.cfi_offset 7, -8
 1134              		.cfi_offset 14, -4
 1135 0002 4746     		mov	r7, r8
 1136 0004 80B4     		push	{r7}
 1137              		.cfi_def_cfa_offset 24
 1138              		.cfi_offset 8, -24
 1139 0006 0600     		movs	r6, r0
 1140 0008 1700     		movs	r7, r2
 1141 000a 9846     		mov	r8, r3
 202:..\..\u8g2\csrc/u8x8_byte.c ****   {
 1142              		.loc 1 202 0
 1143 000c 1439     		subs	r1, r1, #20
 1144              	.LVL147:
 1145 000e CBB2     		uxtb	r3, r1
 1146              	.LVL148:
 1147 0010 0C2B     		cmp	r3, #12
 1148 0012 5ED8     		bhi	.L61
 1149 0014 9900     		lsls	r1, r3, #2
 1150 0016 314B     		ldr	r3, .L62
 1151 0018 5B58     		ldr	r3, [r3, r1]
 1152 001a 9F46     		mov	pc, r3
 1153              		.section	.rodata
 1154              		.align	2
 1155              	.L53:
 1156 0068 78000000 		.word	.L52
 1157 006c D2000000 		.word	.L61
 1158 0070 D2000000 		.word	.L61
 1159 0074 70000000 		.word	.L54
 1160 0078 9A000000 		.word	.L55
 1161 007c B6000000 		.word	.L56
 1162 0080 D2000000 		.word	.L61
 1163 0084 D2000000 		.word	.L61
 1164 0088 D2000000 		.word	.L61
 1165 008c D2000000 		.word	.L61
 1166 0090 D2000000 		.word	.L61
 1167 0094 D2000000 		.word	.L61
 1168 0098 90000000 		.word	.L57
 1169              		.section	.text.u8x8_byte_8bit_8080mode
ARM GAS  C:\Users\Alan\AppData\Local\Temp\ccgAQQWY.s 			page 32


 1170              	.LVL149:
 1171              	.L60:
 208:..\..\u8g2\csrc/u8x8_byte.c **** 	data++;
 1172              		.loc 1 208 0
 1173 001c 4346     		mov	r3, r8
 1174 001e 1D78     		ldrb	r5, [r3]
 1175              	.LVL150:
 209:..\..\u8g2\csrc/u8x8_byte.c **** 	arg_int--;
 1176              		.loc 1 209 0
 1177 0020 0123     		movs	r3, #1
 1178 0022 9C46     		mov	ip, r3
 1179 0024 E044     		add	r8, r8, ip
 1180              	.LVL151:
 210:..\..\u8g2\csrc/u8x8_byte.c **** 	for( i = U8X8_MSG_GPIO_D0; i <= U8X8_MSG_GPIO_D7; i++ )
 1181              		.loc 1 210 0
 1182 0026 013F     		subs	r7, r7, #1
 1183              	.LVL152:
 1184 0028 FFB2     		uxtb	r7, r7
 1185              	.LVL153:
 211:..\..\u8g2\csrc/u8x8_byte.c **** 	{
 1186              		.loc 1 211 0
 1187 002a 4024     		movs	r4, #64
 1188 002c 08E0     		b	.L58
 1189              	.LVL154:
 1190              	.L59:
 213:..\..\u8g2\csrc/u8x8_byte.c **** 	  b >>= 1;
 1191              		.loc 1 213 0 discriminator 3
 1192 002e 0122     		movs	r2, #1
 1193 0030 2A40     		ands	r2, r5
 1194 0032 2100     		movs	r1, r4
 1195 0034 3000     		movs	r0, r6
 1196 0036 FFF7FEFF 		bl	u8x8_gpio_call
 1197              	.LVL155:
 214:..\..\u8g2\csrc/u8x8_byte.c **** 	}    
 1198              		.loc 1 214 0 discriminator 3
 1199 003a 6D08     		lsrs	r5, r5, #1
 1200              	.LVL156:
 211:..\..\u8g2\csrc/u8x8_byte.c **** 	{
 1201              		.loc 1 211 0 discriminator 3
 1202 003c 0134     		adds	r4, r4, #1
 1203              	.LVL157:
 1204 003e E4B2     		uxtb	r4, r4
 1205              	.LVL158:
 1206              	.L58:
 211:..\..\u8g2\csrc/u8x8_byte.c **** 	{
 1207              		.loc 1 211 0 is_stmt 0 discriminator 1
 1208 0040 472C     		cmp	r4, #71
 1209 0042 F4D9     		bls	.L59
 217:..\..\u8g2\csrc/u8x8_byte.c **** 	u8x8_gpio_call(u8x8, U8X8_MSG_GPIO_E, 0);
 1210              		.loc 1 217 0 is_stmt 1
 1211 0044 3368     		ldr	r3, [r6]
 1212 0046 9A7B     		ldrb	r2, [r3, #14]
 1213 0048 2C21     		movs	r1, #44
 1214 004a 3000     		movs	r0, r6
 1215 004c FFF7FEFF 		bl	u8x8_gpio_call
 1216              	.LVL159:
 218:..\..\u8g2\csrc/u8x8_byte.c **** 	u8x8_gpio_Delay(u8x8, U8X8_MSG_DELAY_NANO, u8x8->display_info->write_pulse_width_ns);
ARM GAS  C:\Users\Alan\AppData\Local\Temp\ccgAQQWY.s 			page 33


 1217              		.loc 1 218 0
 1218 0050 0022     		movs	r2, #0
 1219 0052 4821     		movs	r1, #72
 1220 0054 3000     		movs	r0, r6
 1221 0056 FFF7FEFF 		bl	u8x8_gpio_call
 1222              	.LVL160:
 219:..\..\u8g2\csrc/u8x8_byte.c **** 	u8x8_gpio_call(u8x8, U8X8_MSG_GPIO_E, 1);
 1223              		.loc 1 219 0
 1224 005a 3368     		ldr	r3, [r6]
 1225 005c DA7B     		ldrb	r2, [r3, #15]
 1226 005e 2C21     		movs	r1, #44
 1227 0060 3000     		movs	r0, r6
 1228 0062 FFF7FEFF 		bl	u8x8_gpio_call
 1229              	.LVL161:
 220:..\..\u8g2\csrc/u8x8_byte.c ****       }
 1230              		.loc 1 220 0
 1231 0066 0122     		movs	r2, #1
 1232 0068 4821     		movs	r1, #72
 1233 006a 3000     		movs	r0, r6
 1234 006c FFF7FEFF 		bl	u8x8_gpio_call
 1235              	.LVL162:
 1236              	.L54:
 206:..\..\u8g2\csrc/u8x8_byte.c ****       {
 1237              		.loc 1 206 0
 1238 0070 002F     		cmp	r7, #0
 1239 0072 D3D1     		bne	.L60
 244:..\..\u8g2\csrc/u8x8_byte.c **** }
 1240              		.loc 1 244 0
 1241 0074 0120     		movs	r0, #1
 1242 0076 2DE0     		b	.L51
 1243              	.LVL163:
 1244              	.L52:
 226:..\..\u8g2\csrc/u8x8_byte.c ****       /* ensure that the enable signal is high */
 1245              		.loc 1 226 0
 1246 0078 0368     		ldr	r3, [r0]
 1247 007a 5A78     		ldrb	r2, [r3, #1]
 1248              	.LVL164:
 1249 007c 4921     		movs	r1, #73
 1250 007e FFF7FEFF 		bl	u8x8_gpio_call
 1251              	.LVL165:
 228:..\..\u8g2\csrc/u8x8_byte.c ****       break;
 1252              		.loc 1 228 0
 1253 0082 0122     		movs	r2, #1
 1254 0084 4821     		movs	r1, #72
 1255 0086 3000     		movs	r0, r6
 1256 0088 FFF7FEFF 		bl	u8x8_gpio_call
 1257              	.LVL166:
 244:..\..\u8g2\csrc/u8x8_byte.c **** }
 1258              		.loc 1 244 0
 1259 008c 0120     		movs	r0, #1
 229:..\..\u8g2\csrc/u8x8_byte.c ****     case U8X8_MSG_BYTE_SET_DC:
 1260              		.loc 1 229 0
 1261 008e 21E0     		b	.L51
 1262              	.LVL167:
 1263              	.L57:
 231:..\..\u8g2\csrc/u8x8_byte.c ****       break;
 1264              		.loc 1 231 0
ARM GAS  C:\Users\Alan\AppData\Local\Temp\ccgAQQWY.s 			page 34


 1265 0090 4A21     		movs	r1, #74
 1266 0092 FFF7FEFF 		bl	u8x8_gpio_call
 1267              	.LVL168:
 244:..\..\u8g2\csrc/u8x8_byte.c **** }
 1268              		.loc 1 244 0
 1269 0096 0120     		movs	r0, #1
 232:..\..\u8g2\csrc/u8x8_byte.c ****     case U8X8_MSG_BYTE_START_TRANSFER:
 1270              		.loc 1 232 0
 1271 0098 1CE0     		b	.L51
 1272              	.LVL169:
 1273              	.L55:
 234:..\..\u8g2\csrc/u8x8_byte.c ****       u8x8->gpio_and_delay_cb(u8x8, U8X8_MSG_DELAY_NANO, u8x8->display_info->post_chip_enable_wait_
 1274              		.loc 1 234 0
 1275 009a 0368     		ldr	r3, [r0]
 1276 009c 1A78     		ldrb	r2, [r3]
 1277              	.LVL170:
 1278 009e 4921     		movs	r1, #73
 1279 00a0 FFF7FEFF 		bl	u8x8_gpio_call
 1280              	.LVL171:
 235:..\..\u8g2\csrc/u8x8_byte.c ****       break;
 1281              		.loc 1 235 0
 1282 00a4 7469     		ldr	r4, [r6, #20]
 1283 00a6 3368     		ldr	r3, [r6]
 1284 00a8 9A78     		ldrb	r2, [r3, #2]
 1285 00aa 0023     		movs	r3, #0
 1286 00ac 2C21     		movs	r1, #44
 1287 00ae 3000     		movs	r0, r6
 1288 00b0 A047     		blx	r4
 1289              	.LVL172:
 244:..\..\u8g2\csrc/u8x8_byte.c **** }
 1290              		.loc 1 244 0
 1291 00b2 0120     		movs	r0, #1
 236:..\..\u8g2\csrc/u8x8_byte.c ****     case U8X8_MSG_BYTE_END_TRANSFER:
 1292              		.loc 1 236 0
 1293 00b4 0EE0     		b	.L51
 1294              	.LVL173:
 1295              	.L56:
 238:..\..\u8g2\csrc/u8x8_byte.c ****       u8x8_gpio_SetCS(u8x8, u8x8->display_info->chip_disable_level);
 1296              		.loc 1 238 0
 1297 00b6 0368     		ldr	r3, [r0]
 1298 00b8 DA78     		ldrb	r2, [r3, #3]
 1299              	.LVL174:
 1300 00ba 0023     		movs	r3, #0
 1301 00bc 2C21     		movs	r1, #44
 1302 00be 4469     		ldr	r4, [r0, #20]
 1303 00c0 A047     		blx	r4
 1304              	.LVL175:
 239:..\..\u8g2\csrc/u8x8_byte.c ****       break;
 1305              		.loc 1 239 0
 1306 00c2 3368     		ldr	r3, [r6]
 1307 00c4 5A78     		ldrb	r2, [r3, #1]
 1308 00c6 4921     		movs	r1, #73
 1309 00c8 3000     		movs	r0, r6
 1310 00ca FFF7FEFF 		bl	u8x8_gpio_call
 1311              	.LVL176:
 244:..\..\u8g2\csrc/u8x8_byte.c **** }
 1312              		.loc 1 244 0
ARM GAS  C:\Users\Alan\AppData\Local\Temp\ccgAQQWY.s 			page 35


 1313 00ce 0120     		movs	r0, #1
 240:..\..\u8g2\csrc/u8x8_byte.c ****     default:
 1314              		.loc 1 240 0
 1315 00d0 00E0     		b	.L51
 1316              	.LVL177:
 1317              	.L61:
 242:..\..\u8g2\csrc/u8x8_byte.c ****   }
 1318              		.loc 1 242 0
 1319 00d2 0020     		movs	r0, #0
 1320              	.LVL178:
 1321              	.L51:
 245:..\..\u8g2\csrc/u8x8_byte.c **** 
 1322              		.loc 1 245 0
 1323              		@ sp needed
 1324              	.LVL179:
 1325 00d4 04BC     		pop	{r2}
 1326 00d6 9046     		mov	r8, r2
 1327 00d8 F0BD     		pop	{r4, r5, r6, r7, pc}
 1328              	.L63:
 1329 00da C046     		.align	2
 1330              	.L62:
 1331 00dc 68000000 		.word	.L53
 1332              		.cfi_endproc
 1333              	.LFE7:
 1334              		.size	u8x8_byte_8bit_8080mode, .-u8x8_byte_8bit_8080mode
 1335              		.section	.text.u8x8_byte_3wire_sw_spi,"ax",%progbits
 1336              		.align	2
 1337              		.global	u8x8_byte_3wire_sw_spi
 1338              		.code	16
 1339              		.thumb_func
 1340              		.type	u8x8_byte_3wire_sw_spi, %function
 1341              	u8x8_byte_3wire_sw_spi:
 1342              	.LFB8:
 250:..\..\u8g2\csrc/u8x8_byte.c ****   uint8_t i;
 1343              		.loc 1 250 0
 1344              		.cfi_startproc
 1345              		@ args = 0, pretend = 0, frame = 8
 1346              		@ frame_needed = 0, uses_anonymous_args = 0
 1347              	.LVL180:
 1348 0000 F0B5     		push	{r4, r5, r6, r7, lr}
 1349              		.cfi_def_cfa_offset 20
 1350              		.cfi_offset 4, -20
 1351              		.cfi_offset 5, -16
 1352              		.cfi_offset 6, -12
 1353              		.cfi_offset 7, -8
 1354              		.cfi_offset 14, -4
 1355 0002 5746     		mov	r7, r10
 1356 0004 4E46     		mov	r6, r9
 1357 0006 C0B4     		push	{r6, r7}
 1358              		.cfi_def_cfa_offset 28
 1359              		.cfi_offset 9, -28
 1360              		.cfi_offset 10, -24
 1361 0008 83B0     		sub	sp, sp, #12
 1362              		.cfi_def_cfa_offset 40
 1363 000a 0400     		movs	r4, r0
 1364 000c 9146     		mov	r9, r2
 1365 000e 9A46     		mov	r10, r3
ARM GAS  C:\Users\Alan\AppData\Local\Temp\ccgAQQWY.s 			page 36


 253:..\..\u8g2\csrc/u8x8_byte.c ****   uint8_t not_takeover_edge = 1 - takeover_edge;
 1366              		.loc 1 253 0
 1367 0010 0368     		ldr	r3, [r0]
 1368              	.LVL181:
 1369 0012 1A7B     		ldrb	r2, [r3, #12]
 1370              	.LVL182:
 1371 0014 0127     		movs	r7, #1
 1372 0016 1740     		ands	r7, r2
 1373              	.LVL183:
 254:..\..\u8g2\csrc/u8x8_byte.c ****   uint16_t b;
 1374              		.loc 1 254 0
 1375 0018 0126     		movs	r6, #1
 1376 001a F61B     		subs	r6, r6, r7
 1377 001c F2B2     		uxtb	r2, r6
 1378 001e 0192     		str	r2, [sp, #4]
 1379              	.LVL184:
 258:..\..\u8g2\csrc/u8x8_byte.c ****   {
 1380              		.loc 1 258 0
 1381 0020 1439     		subs	r1, r1, #20
 1382              	.LVL185:
 1383 0022 CAB2     		uxtb	r2, r1
 1384 0024 0C2A     		cmp	r2, #12
 1385 0026 70D8     		bhi	.L78
 1386 0028 9100     		lsls	r1, r2, #2
 1387 002a 3B4A     		ldr	r2, .L79
 1388 002c 5258     		ldr	r2, [r2, r1]
 1389 002e 9746     		mov	pc, r2
 1390              		.section	.rodata
 1391              		.align	2
 1392              	.L67:
 1393 009c B0000000 		.word	.L66
 1394 00a0 0A010000 		.word	.L78
 1395 00a4 0A010000 		.word	.L78
 1396 00a8 A6000000 		.word	.L68
 1397 00ac D6000000 		.word	.L69
 1398 00b0 F0000000 		.word	.L70
 1399 00b4 0A010000 		.word	.L78
 1400 00b8 0A010000 		.word	.L78
 1401 00bc 0A010000 		.word	.L78
 1402 00c0 0A010000 		.word	.L78
 1403 00c4 0A010000 		.word	.L78
 1404 00c8 0A010000 		.word	.L78
 1405 00cc CC000000 		.word	.L71
 1406              		.section	.text.u8x8_byte_3wire_sw_spi
 1407              	.LVL186:
 1408              	.L77:
 264:..\..\u8g2\csrc/u8x8_byte.c **** 	if ( last_dc != 0 )
 1409              		.loc 1 264 0
 1410 0030 5346     		mov	r3, r10
 1411 0032 1E78     		ldrb	r6, [r3]
 1412              	.LVL187:
 265:..\..\u8g2\csrc/u8x8_byte.c **** 	  b |= 256;
 1413              		.loc 1 265 0
 1414 0034 394B     		ldr	r3, .L79+4
 1415 0036 1B78     		ldrb	r3, [r3]
 1416 0038 002B     		cmp	r3, #0
 1417 003a 02D0     		beq	.L72
ARM GAS  C:\Users\Alan\AppData\Local\Temp\ccgAQQWY.s 			page 37


 266:..\..\u8g2\csrc/u8x8_byte.c **** 	data++;
 1418              		.loc 1 266 0
 1419 003c 8023     		movs	r3, #128
 1420 003e 5B00     		lsls	r3, r3, #1
 1421 0040 1E43     		orrs	r6, r3
 1422              	.LVL188:
 1423              	.L72:
 267:..\..\u8g2\csrc/u8x8_byte.c **** 	arg_int--;
 1424              		.loc 1 267 0
 1425 0042 0123     		movs	r3, #1
 1426 0044 9C46     		mov	ip, r3
 1427 0046 E244     		add	r10, r10, ip
 1428              	.LVL189:
 268:..\..\u8g2\csrc/u8x8_byte.c **** 	for( i = 0; i < 9; i++ )
 1429              		.loc 1 268 0
 1430 0048 4B46     		mov	r3, r9
 1431 004a 013B     		subs	r3, r3, #1
 1432 004c DBB2     		uxtb	r3, r3
 1433 004e 9946     		mov	r9, r3
 1434              	.LVL190:
 269:..\..\u8g2\csrc/u8x8_byte.c **** 	{
 1435              		.loc 1 269 0
 1436 0050 0025     		movs	r5, #0
 1437 0052 26E0     		b	.L73
 1438              	.LVL191:
 1439              	.L76:
 271:..\..\u8g2\csrc/u8x8_byte.c **** 	    u8x8_gpio_SetSPIData(u8x8, 1);
 1440              		.loc 1 271 0
 1441 0054 F305     		lsls	r3, r6, #23
 1442 0056 05D5     		bpl	.L74
 272:..\..\u8g2\csrc/u8x8_byte.c **** 	  else
 1443              		.loc 1 272 0
 1444 0058 0122     		movs	r2, #1
 1445 005a 4121     		movs	r1, #65
 1446 005c 2000     		movs	r0, r4
 1447 005e FFF7FEFF 		bl	u8x8_gpio_call
 1448              	.LVL192:
 1449 0062 04E0     		b	.L75
 1450              	.L74:
 274:..\..\u8g2\csrc/u8x8_byte.c **** 	  b <<= 1;
 1451              		.loc 1 274 0
 1452 0064 0022     		movs	r2, #0
 1453 0066 4121     		movs	r1, #65
 1454 0068 2000     		movs	r0, r4
 1455 006a FFF7FEFF 		bl	u8x8_gpio_call
 1456              	.LVL193:
 1457              	.L75:
 275:..\..\u8g2\csrc/u8x8_byte.c **** 	  
 1458              		.loc 1 275 0 discriminator 2
 1459 006e 7300     		lsls	r3, r6, #1
 1460 0070 9EB2     		uxth	r6, r3
 1461              	.LVL194:
 277:..\..\u8g2\csrc/u8x8_byte.c **** 	  u8x8_gpio_Delay(u8x8, U8X8_MSG_DELAY_NANO, u8x8->display_info->sda_setup_time_ns);
 1462              		.loc 1 277 0 discriminator 2
 1463 0072 019A     		ldr	r2, [sp, #4]
 1464 0074 4021     		movs	r1, #64
 1465 0076 2000     		movs	r0, r4
ARM GAS  C:\Users\Alan\AppData\Local\Temp\ccgAQQWY.s 			page 38


 1466 0078 FFF7FEFF 		bl	u8x8_gpio_call
 1467              	.LVL195:
 278:..\..\u8g2\csrc/u8x8_byte.c **** 	  u8x8_gpio_SetSPIClock(u8x8, takeover_edge);
 1468              		.loc 1 278 0 discriminator 2
 1469 007c 2368     		ldr	r3, [r4]
 1470 007e 9A79     		ldrb	r2, [r3, #6]
 1471 0080 2C21     		movs	r1, #44
 1472 0082 2000     		movs	r0, r4
 1473 0084 FFF7FEFF 		bl	u8x8_gpio_call
 1474              	.LVL196:
 279:..\..\u8g2\csrc/u8x8_byte.c **** 	  u8x8_gpio_Delay(u8x8, U8X8_MSG_DELAY_NANO, u8x8->display_info->sck_pulse_width_ns);
 1475              		.loc 1 279 0 discriminator 2
 1476 0088 3A00     		movs	r2, r7
 1477 008a 4021     		movs	r1, #64
 1478 008c 2000     		movs	r0, r4
 1479 008e FFF7FEFF 		bl	u8x8_gpio_call
 1480              	.LVL197:
 280:..\..\u8g2\csrc/u8x8_byte.c **** 	}    
 1481              		.loc 1 280 0 discriminator 2
 1482 0092 2368     		ldr	r3, [r4]
 1483 0094 DA79     		ldrb	r2, [r3, #7]
 1484 0096 2C21     		movs	r1, #44
 1485 0098 2000     		movs	r0, r4
 1486 009a FFF7FEFF 		bl	u8x8_gpio_call
 1487              	.LVL198:
 269:..\..\u8g2\csrc/u8x8_byte.c **** 	{
 1488              		.loc 1 269 0 discriminator 2
 1489 009e 0135     		adds	r5, r5, #1
 1490              	.LVL199:
 1491 00a0 EDB2     		uxtb	r5, r5
 1492              	.LVL200:
 1493              	.L73:
 269:..\..\u8g2\csrc/u8x8_byte.c **** 	{
 1494              		.loc 1 269 0 is_stmt 0 discriminator 1
 1495 00a2 082D     		cmp	r5, #8
 1496 00a4 D6D9     		bls	.L76
 1497              	.LVL201:
 1498              	.L68:
 262:..\..\u8g2\csrc/u8x8_byte.c ****       {
 1499              		.loc 1 262 0 is_stmt 1
 1500 00a6 4B46     		mov	r3, r9
 1501 00a8 002B     		cmp	r3, #0
 1502 00aa C1D1     		bne	.L77
 307:..\..\u8g2\csrc/u8x8_byte.c **** }
 1503              		.loc 1 307 0
 1504 00ac 0120     		movs	r0, #1
 1505 00ae 2DE0     		b	.L65
 1506              	.LVL202:
 1507              	.L66:
 287:..\..\u8g2\csrc/u8x8_byte.c ****       /* no wait required here */
 1508              		.loc 1 287 0
 1509 00b0 5A78     		ldrb	r2, [r3, #1]
 1510 00b2 4921     		movs	r1, #73
 1511 00b4 FFF7FEFF 		bl	u8x8_gpio_call
 1512              	.LVL203:
 291:..\..\u8g2\csrc/u8x8_byte.c ****       break;
 1513              		.loc 1 291 0
ARM GAS  C:\Users\Alan\AppData\Local\Temp\ccgAQQWY.s 			page 39


 1514 00b8 2368     		ldr	r3, [r4]
 1515 00ba 1B7B     		ldrb	r3, [r3, #12]
 1516 00bc 0122     		movs	r2, #1
 1517 00be 1A40     		ands	r2, r3
 1518 00c0 4021     		movs	r1, #64
 1519 00c2 2000     		movs	r0, r4
 1520 00c4 FFF7FEFF 		bl	u8x8_gpio_call
 1521              	.LVL204:
 307:..\..\u8g2\csrc/u8x8_byte.c **** }
 1522              		.loc 1 307 0
 1523 00c8 0120     		movs	r0, #1
 292:..\..\u8g2\csrc/u8x8_byte.c ****     case U8X8_MSG_BYTE_SET_DC:
 1524              		.loc 1 292 0
 1525 00ca 1FE0     		b	.L65
 1526              	.LVL205:
 1527              	.L71:
 294:..\..\u8g2\csrc/u8x8_byte.c ****       break;
 1528              		.loc 1 294 0
 1529 00cc 134B     		ldr	r3, .L79+4
 1530 00ce 4A46     		mov	r2, r9
 1531 00d0 1A70     		strb	r2, [r3]
 307:..\..\u8g2\csrc/u8x8_byte.c **** }
 1532              		.loc 1 307 0
 1533 00d2 0120     		movs	r0, #1
 1534              	.LVL206:
 295:..\..\u8g2\csrc/u8x8_byte.c ****     case U8X8_MSG_BYTE_START_TRANSFER:
 1535              		.loc 1 295 0
 1536 00d4 1AE0     		b	.L65
 1537              	.LVL207:
 1538              	.L69:
 297:..\..\u8g2\csrc/u8x8_byte.c ****       u8x8->gpio_and_delay_cb(u8x8, U8X8_MSG_DELAY_NANO, u8x8->display_info->post_chip_enable_wait_
 1539              		.loc 1 297 0
 1540 00d6 1A78     		ldrb	r2, [r3]
 1541 00d8 4921     		movs	r1, #73
 1542 00da FFF7FEFF 		bl	u8x8_gpio_call
 1543              	.LVL208:
 298:..\..\u8g2\csrc/u8x8_byte.c ****       break;
 1544              		.loc 1 298 0
 1545 00de 6569     		ldr	r5, [r4, #20]
 1546 00e0 2368     		ldr	r3, [r4]
 1547 00e2 9A78     		ldrb	r2, [r3, #2]
 1548 00e4 0023     		movs	r3, #0
 1549 00e6 2C21     		movs	r1, #44
 1550 00e8 2000     		movs	r0, r4
 1551 00ea A847     		blx	r5
 1552              	.LVL209:
 307:..\..\u8g2\csrc/u8x8_byte.c **** }
 1553              		.loc 1 307 0
 1554 00ec 0120     		movs	r0, #1
 299:..\..\u8g2\csrc/u8x8_byte.c ****     case U8X8_MSG_BYTE_END_TRANSFER:
 1555              		.loc 1 299 0
 1556 00ee 0DE0     		b	.L65
 1557              	.LVL210:
 1558              	.L70:
 301:..\..\u8g2\csrc/u8x8_byte.c ****       u8x8_gpio_SetCS(u8x8, u8x8->display_info->chip_disable_level);
 1559              		.loc 1 301 0
 1560 00f0 DA78     		ldrb	r2, [r3, #3]
ARM GAS  C:\Users\Alan\AppData\Local\Temp\ccgAQQWY.s 			page 40


 1561 00f2 0023     		movs	r3, #0
 1562 00f4 2C21     		movs	r1, #44
 1563 00f6 4569     		ldr	r5, [r0, #20]
 1564 00f8 A847     		blx	r5
 1565              	.LVL211:
 302:..\..\u8g2\csrc/u8x8_byte.c ****       break;
 1566              		.loc 1 302 0
 1567 00fa 2368     		ldr	r3, [r4]
 1568 00fc 5A78     		ldrb	r2, [r3, #1]
 1569 00fe 4921     		movs	r1, #73
 1570 0100 2000     		movs	r0, r4
 1571 0102 FFF7FEFF 		bl	u8x8_gpio_call
 1572              	.LVL212:
 307:..\..\u8g2\csrc/u8x8_byte.c **** }
 1573              		.loc 1 307 0
 1574 0106 0120     		movs	r0, #1
 303:..\..\u8g2\csrc/u8x8_byte.c ****     default:
 1575              		.loc 1 303 0
 1576 0108 00E0     		b	.L65
 1577              	.LVL213:
 1578              	.L78:
 305:..\..\u8g2\csrc/u8x8_byte.c ****   }
 1579              		.loc 1 305 0
 1580 010a 0020     		movs	r0, #0
 1581              	.LVL214:
 1582              	.L65:
 308:..\..\u8g2\csrc/u8x8_byte.c **** 
 1583              		.loc 1 308 0
 1584 010c 03B0     		add	sp, sp, #12
 1585              		@ sp needed
 1586              	.LVL215:
 1587              	.LVL216:
 1588 010e 0CBC     		pop	{r2, r3}
 1589 0110 9146     		mov	r9, r2
 1590 0112 9A46     		mov	r10, r3
 1591 0114 F0BD     		pop	{r4, r5, r6, r7, pc}
 1592              	.L80:
 1593 0116 C046     		.align	2
 1594              	.L79:
 1595 0118 9C000000 		.word	.L67
 1596 011c 00000000 		.word	.LANCHOR0
 1597              		.cfi_endproc
 1598              	.LFE8:
 1599              		.size	u8x8_byte_3wire_sw_spi, .-u8x8_byte_3wire_sw_spi
 1600              		.section	.text.u8x8_byte_set_ks0108_cs,"ax",%progbits
 1601              		.align	2
 1602              		.global	u8x8_byte_set_ks0108_cs
 1603              		.code	16
 1604              		.thumb_func
 1605              		.type	u8x8_byte_set_ks0108_cs, %function
 1606              	u8x8_byte_set_ks0108_cs:
 1607              	.LFB9:
 313:..\..\u8g2\csrc/u8x8_byte.c ****   u8x8_gpio_SetCS(u8x8, arg&1);
 1608              		.loc 1 313 0
 1609              		.cfi_startproc
 1610              		@ args = 0, pretend = 0, frame = 0
 1611              		@ frame_needed = 0, uses_anonymous_args = 0
ARM GAS  C:\Users\Alan\AppData\Local\Temp\ccgAQQWY.s 			page 41


 1612              	.LVL217:
 1613 0000 70B5     		push	{r4, r5, r6, lr}
 1614              		.cfi_def_cfa_offset 16
 1615              		.cfi_offset 4, -16
 1616              		.cfi_offset 5, -12
 1617              		.cfi_offset 6, -8
 1618              		.cfi_offset 14, -4
 1619 0002 0500     		movs	r5, r0
 1620 0004 0C00     		movs	r4, r1
 314:..\..\u8g2\csrc/u8x8_byte.c ****   arg = arg >> 1;
 1621              		.loc 1 314 0
 1622 0006 0126     		movs	r6, #1
 1623 0008 3200     		movs	r2, r6
 1624 000a 0A40     		ands	r2, r1
 1625 000c 4921     		movs	r1, #73
 1626              	.LVL218:
 1627 000e FFF7FEFF 		bl	u8x8_gpio_call
 1628              	.LVL219:
 315:..\..\u8g2\csrc/u8x8_byte.c ****   u8x8_gpio_call(u8x8, U8X8_MSG_GPIO_CS1, arg&1);
 1629              		.loc 1 315 0
 1630 0012 6408     		lsrs	r4, r4, #1
 1631              	.LVL220:
 316:..\..\u8g2\csrc/u8x8_byte.c ****   arg = arg >> 2;
 1632              		.loc 1 316 0
 1633 0014 3200     		movs	r2, r6
 1634 0016 2240     		ands	r2, r4
 1635 0018 4E21     		movs	r1, #78
 1636 001a 2800     		movs	r0, r5
 1637 001c FFF7FEFF 		bl	u8x8_gpio_call
 1638              	.LVL221:
 317:..\..\u8g2\csrc/u8x8_byte.c ****   u8x8_gpio_call(u8x8, U8X8_MSG_GPIO_CS2, arg&1);
 1639              		.loc 1 317 0
 1640 0020 A208     		lsrs	r2, r4, #2
 1641              	.LVL222:
 318:..\..\u8g2\csrc/u8x8_byte.c **** }
 1642              		.loc 1 318 0
 1643 0022 3240     		ands	r2, r6
 1644              	.LVL223:
 1645 0024 4F21     		movs	r1, #79
 1646 0026 2800     		movs	r0, r5
 1647 0028 FFF7FEFF 		bl	u8x8_gpio_call
 1648              	.LVL224:
 319:..\..\u8g2\csrc/u8x8_byte.c **** 
 1649              		.loc 1 319 0
 1650              		@ sp needed
 1651              	.LVL225:
 1652              	.LVL226:
 1653 002c 70BD     		pop	{r4, r5, r6, pc}
 1654              		.cfi_endproc
 1655              	.LFE9:
 1656              		.size	u8x8_byte_set_ks0108_cs, .-u8x8_byte_set_ks0108_cs
 1657 002e C046     		.section	.text.u8x8_byte_ks0108,"ax",%progbits
 1658              		.align	2
 1659              		.global	u8x8_byte_ks0108
 1660              		.code	16
 1661              		.thumb_func
 1662              		.type	u8x8_byte_ks0108, %function
ARM GAS  C:\Users\Alan\AppData\Local\Temp\ccgAQQWY.s 			page 42


 1663              	u8x8_byte_ks0108:
 1664              	.LFB10:
 323:..\..\u8g2\csrc/u8x8_byte.c ****   uint8_t i, b;
 1665              		.loc 1 323 0
 1666              		.cfi_startproc
 1667              		@ args = 0, pretend = 0, frame = 0
 1668              		@ frame_needed = 0, uses_anonymous_args = 0
 1669              	.LVL227:
 1670 0000 F0B5     		push	{r4, r5, r6, r7, lr}
 1671              		.cfi_def_cfa_offset 20
 1672              		.cfi_offset 4, -20
 1673              		.cfi_offset 5, -16
 1674              		.cfi_offset 6, -12
 1675              		.cfi_offset 7, -8
 1676              		.cfi_offset 14, -4
 1677 0002 4746     		mov	r7, r8
 1678 0004 80B4     		push	{r7}
 1679              		.cfi_def_cfa_offset 24
 1680              		.cfi_offset 8, -24
 1681 0006 0600     		movs	r6, r0
 1682 0008 1700     		movs	r7, r2
 1683 000a 9846     		mov	r8, r3
 327:..\..\u8g2\csrc/u8x8_byte.c ****   {
 1684              		.loc 1 327 0
 1685 000c 1439     		subs	r1, r1, #20
 1686              	.LVL228:
 1687 000e CBB2     		uxtb	r3, r1
 1688              	.LVL229:
 1689 0010 0C2B     		cmp	r3, #12
 1690 0012 5AD8     		bhi	.L93
 1691 0014 9900     		lsls	r1, r3, #2
 1692 0016 2F4B     		ldr	r3, .L94
 1693 0018 5B58     		ldr	r3, [r3, r1]
 1694 001a 9F46     		mov	pc, r3
 1695              		.section	.rodata
 1696              		.align	2
 1697              	.L85:
 1698 00d0 78000000 		.word	.L84
 1699 00d4 CA000000 		.word	.L93
 1700 00d8 CA000000 		.word	.L93
 1701 00dc 70000000 		.word	.L86
 1702 00e0 9A000000 		.word	.L87
 1703 00e4 B2000000 		.word	.L88
 1704 00e8 CA000000 		.word	.L93
 1705 00ec CA000000 		.word	.L93
 1706 00f0 CA000000 		.word	.L93
 1707 00f4 CA000000 		.word	.L93
 1708 00f8 CA000000 		.word	.L93
 1709 00fc CA000000 		.word	.L93
 1710 0100 90000000 		.word	.L89
 1711              		.section	.text.u8x8_byte_ks0108
 1712              	.LVL230:
 1713              	.L92:
 333:..\..\u8g2\csrc/u8x8_byte.c **** 	data++;
 1714              		.loc 1 333 0
 1715 001c 4346     		mov	r3, r8
 1716 001e 1D78     		ldrb	r5, [r3]
ARM GAS  C:\Users\Alan\AppData\Local\Temp\ccgAQQWY.s 			page 43


 1717              	.LVL231:
 334:..\..\u8g2\csrc/u8x8_byte.c **** 	arg_int--;
 1718              		.loc 1 334 0
 1719 0020 0123     		movs	r3, #1
 1720 0022 9C46     		mov	ip, r3
 1721 0024 E044     		add	r8, r8, ip
 1722              	.LVL232:
 335:..\..\u8g2\csrc/u8x8_byte.c **** 	for( i = U8X8_MSG_GPIO_D0; i <= U8X8_MSG_GPIO_D7; i++ )
 1723              		.loc 1 335 0
 1724 0026 013F     		subs	r7, r7, #1
 1725              	.LVL233:
 1726 0028 FFB2     		uxtb	r7, r7
 1727              	.LVL234:
 336:..\..\u8g2\csrc/u8x8_byte.c **** 	{
 1728              		.loc 1 336 0
 1729 002a 4024     		movs	r4, #64
 1730 002c 08E0     		b	.L90
 1731              	.LVL235:
 1732              	.L91:
 338:..\..\u8g2\csrc/u8x8_byte.c **** 	  b >>= 1;
 1733              		.loc 1 338 0 discriminator 3
 1734 002e 0122     		movs	r2, #1
 1735 0030 2A40     		ands	r2, r5
 1736 0032 2100     		movs	r1, r4
 1737 0034 3000     		movs	r0, r6
 1738 0036 FFF7FEFF 		bl	u8x8_gpio_call
 1739              	.LVL236:
 339:..\..\u8g2\csrc/u8x8_byte.c **** 	}    
 1740              		.loc 1 339 0 discriminator 3
 1741 003a 6D08     		lsrs	r5, r5, #1
 1742              	.LVL237:
 336:..\..\u8g2\csrc/u8x8_byte.c **** 	{
 1743              		.loc 1 336 0 discriminator 3
 1744 003c 0134     		adds	r4, r4, #1
 1745              	.LVL238:
 1746 003e E4B2     		uxtb	r4, r4
 1747              	.LVL239:
 1748              	.L90:
 336:..\..\u8g2\csrc/u8x8_byte.c **** 	{
 1749              		.loc 1 336 0 is_stmt 0 discriminator 1
 1750 0040 472C     		cmp	r4, #71
 1751 0042 F4D9     		bls	.L91
 342:..\..\u8g2\csrc/u8x8_byte.c **** 	u8x8_gpio_call(u8x8, U8X8_MSG_GPIO_E, 1);
 1752              		.loc 1 342 0 is_stmt 1
 1753 0044 3368     		ldr	r3, [r6]
 1754 0046 9A7B     		ldrb	r2, [r3, #14]
 1755 0048 2C21     		movs	r1, #44
 1756 004a 3000     		movs	r0, r6
 1757 004c FFF7FEFF 		bl	u8x8_gpio_call
 1758              	.LVL240:
 343:..\..\u8g2\csrc/u8x8_byte.c **** 	u8x8_gpio_Delay(u8x8, U8X8_MSG_DELAY_NANO, u8x8->display_info->write_pulse_width_ns);
 1759              		.loc 1 343 0
 1760 0050 0122     		movs	r2, #1
 1761 0052 4821     		movs	r1, #72
 1762 0054 3000     		movs	r0, r6
 1763 0056 FFF7FEFF 		bl	u8x8_gpio_call
 1764              	.LVL241:
ARM GAS  C:\Users\Alan\AppData\Local\Temp\ccgAQQWY.s 			page 44


 344:..\..\u8g2\csrc/u8x8_byte.c **** 	u8x8_gpio_call(u8x8, U8X8_MSG_GPIO_E, 0);
 1765              		.loc 1 344 0
 1766 005a 3368     		ldr	r3, [r6]
 1767 005c DA7B     		ldrb	r2, [r3, #15]
 1768 005e 2C21     		movs	r1, #44
 1769 0060 3000     		movs	r0, r6
 1770 0062 FFF7FEFF 		bl	u8x8_gpio_call
 1771              	.LVL242:
 345:..\..\u8g2\csrc/u8x8_byte.c ****       }
 1772              		.loc 1 345 0
 1773 0066 0022     		movs	r2, #0
 1774 0068 4821     		movs	r1, #72
 1775 006a 3000     		movs	r0, r6
 1776 006c FFF7FEFF 		bl	u8x8_gpio_call
 1777              	.LVL243:
 1778              	.L86:
 331:..\..\u8g2\csrc/u8x8_byte.c ****       {
 1779              		.loc 1 331 0
 1780 0070 002F     		cmp	r7, #0
 1781 0072 D3D1     		bne	.L92
 370:..\..\u8g2\csrc/u8x8_byte.c **** }
 1782              		.loc 1 370 0
 1783 0074 0120     		movs	r0, #1
 1784 0076 29E0     		b	.L83
 1785              	.LVL244:
 1786              	.L84:
 351:..\..\u8g2\csrc/u8x8_byte.c ****       /* ensure that the enable signal is low */
 1787              		.loc 1 351 0
 1788 0078 0368     		ldr	r3, [r0]
 1789 007a 5A78     		ldrb	r2, [r3, #1]
 1790              	.LVL245:
 1791 007c 4921     		movs	r1, #73
 1792 007e FFF7FEFF 		bl	u8x8_gpio_call
 1793              	.LVL246:
 353:..\..\u8g2\csrc/u8x8_byte.c ****       break;
 1794              		.loc 1 353 0
 1795 0082 0022     		movs	r2, #0
 1796 0084 4821     		movs	r1, #72
 1797 0086 3000     		movs	r0, r6
 1798 0088 FFF7FEFF 		bl	u8x8_gpio_call
 1799              	.LVL247:
 370:..\..\u8g2\csrc/u8x8_byte.c **** }
 1800              		.loc 1 370 0
 1801 008c 0120     		movs	r0, #1
 354:..\..\u8g2\csrc/u8x8_byte.c ****     case U8X8_MSG_BYTE_SET_DC:
 1802              		.loc 1 354 0
 1803 008e 1DE0     		b	.L83
 1804              	.LVL248:
 1805              	.L89:
 356:..\..\u8g2\csrc/u8x8_byte.c ****       break;
 1806              		.loc 1 356 0
 1807 0090 4A21     		movs	r1, #74
 1808 0092 FFF7FEFF 		bl	u8x8_gpio_call
 1809              	.LVL249:
 370:..\..\u8g2\csrc/u8x8_byte.c **** }
 1810              		.loc 1 370 0
 1811 0096 0120     		movs	r0, #1
ARM GAS  C:\Users\Alan\AppData\Local\Temp\ccgAQQWY.s 			page 45


 357:..\..\u8g2\csrc/u8x8_byte.c ****     case U8X8_MSG_BYTE_START_TRANSFER:
 1812              		.loc 1 357 0
 1813 0098 18E0     		b	.L83
 1814              	.LVL250:
 1815              	.L87:
 360:..\..\u8g2\csrc/u8x8_byte.c ****       u8x8->gpio_and_delay_cb(u8x8, U8X8_MSG_DELAY_NANO, u8x8->display_info->post_chip_enable_wait_
 1816              		.loc 1 360 0
 1817 009a 1100     		movs	r1, r2
 1818 009c FFF7FEFF 		bl	u8x8_byte_set_ks0108_cs
 1819              	.LVL251:
 361:..\..\u8g2\csrc/u8x8_byte.c ****       break;
 1820              		.loc 1 361 0
 1821 00a0 7469     		ldr	r4, [r6, #20]
 1822 00a2 3368     		ldr	r3, [r6]
 1823 00a4 9A78     		ldrb	r2, [r3, #2]
 1824 00a6 0023     		movs	r3, #0
 1825 00a8 2C21     		movs	r1, #44
 1826 00aa 3000     		movs	r0, r6
 1827 00ac A047     		blx	r4
 1828              	.LVL252:
 370:..\..\u8g2\csrc/u8x8_byte.c **** }
 1829              		.loc 1 370 0
 1830 00ae 0120     		movs	r0, #1
 362:..\..\u8g2\csrc/u8x8_byte.c ****     case U8X8_MSG_BYTE_END_TRANSFER:
 1831              		.loc 1 362 0
 1832 00b0 0CE0     		b	.L83
 1833              	.LVL253:
 1834              	.L88:
 364:..\..\u8g2\csrc/u8x8_byte.c ****       u8x8_byte_set_ks0108_cs(u8x8, arg_int);
 1835              		.loc 1 364 0
 1836 00b2 0368     		ldr	r3, [r0]
 1837 00b4 DA78     		ldrb	r2, [r3, #3]
 1838              	.LVL254:
 1839 00b6 0023     		movs	r3, #0
 1840 00b8 2C21     		movs	r1, #44
 1841 00ba 4469     		ldr	r4, [r0, #20]
 1842 00bc A047     		blx	r4
 1843              	.LVL255:
 365:..\..\u8g2\csrc/u8x8_byte.c ****       break;
 1844              		.loc 1 365 0
 1845 00be 3900     		movs	r1, r7
 1846 00c0 3000     		movs	r0, r6
 1847 00c2 FFF7FEFF 		bl	u8x8_byte_set_ks0108_cs
 1848              	.LVL256:
 370:..\..\u8g2\csrc/u8x8_byte.c **** }
 1849              		.loc 1 370 0
 1850 00c6 0120     		movs	r0, #1
 366:..\..\u8g2\csrc/u8x8_byte.c ****     default:
 1851              		.loc 1 366 0
 1852 00c8 00E0     		b	.L83
 1853              	.LVL257:
 1854              	.L93:
 368:..\..\u8g2\csrc/u8x8_byte.c ****   }
 1855              		.loc 1 368 0
 1856 00ca 0020     		movs	r0, #0
 1857              	.LVL258:
 1858              	.L83:
ARM GAS  C:\Users\Alan\AppData\Local\Temp\ccgAQQWY.s 			page 46


 371:..\..\u8g2\csrc/u8x8_byte.c **** 
 1859              		.loc 1 371 0
 1860              		@ sp needed
 1861              	.LVL259:
 1862 00cc 04BC     		pop	{r2}
 1863 00ce 9046     		mov	r8, r2
 1864 00d0 F0BD     		pop	{r4, r5, r6, r7, pc}
 1865              	.L95:
 1866 00d2 C046     		.align	2
 1867              	.L94:
 1868 00d4 D0000000 		.word	.L85
 1869              		.cfi_endproc
 1870              	.LFE10:
 1871              		.size	u8x8_byte_ks0108, .-u8x8_byte_ks0108
 1872              		.section	.text.u8x8_byte_sw_i2c,"ax",%progbits
 1873              		.align	2
 1874              		.global	u8x8_byte_sw_i2c
 1875              		.code	16
 1876              		.thumb_func
 1877              		.type	u8x8_byte_sw_i2c, %function
 1878              	u8x8_byte_sw_i2c:
 1879              	.LFB22:
 498:..\..\u8g2\csrc/u8x8_byte.c **** 
 499:..\..\u8g2\csrc/u8x8_byte.c **** 
 500:..\..\u8g2\csrc/u8x8_byte.c **** 
 501:..\..\u8g2\csrc/u8x8_byte.c **** #ifdef OBSOLETE_HANDLED_BY_CAD_PROCEDURE
 502:..\..\u8g2\csrc/u8x8_byte.c **** uint8_t u8x8_byte_ssd13xx_sw_i2c(u8x8_t *u8x8, uint8_t msg, uint8_t arg_int, void *arg_ptr)
 503:..\..\u8g2\csrc/u8x8_byte.c **** {
 504:..\..\u8g2\csrc/u8x8_byte.c ****   uint8_t *data;
 505:..\..\u8g2\csrc/u8x8_byte.c ****   static uint8_t last_dc = 0;
 506:..\..\u8g2\csrc/u8x8_byte.c ****   static uint8_t is_send_dc = 0;	/* instruction, whether i2c-start including dc has to be sent */
 507:..\..\u8g2\csrc/u8x8_byte.c ****  
 508:..\..\u8g2\csrc/u8x8_byte.c ****   switch(msg)
 509:..\..\u8g2\csrc/u8x8_byte.c ****   {
 510:..\..\u8g2\csrc/u8x8_byte.c ****     case U8X8_MSG_BYTE_SEND:
 511:..\..\u8g2\csrc/u8x8_byte.c ****       data = (uint8_t *)arg_ptr;
 512:..\..\u8g2\csrc/u8x8_byte.c ****     
 513:..\..\u8g2\csrc/u8x8_byte.c ****       if ( is_send_dc != 0 )
 514:..\..\u8g2\csrc/u8x8_byte.c ****       {
 515:..\..\u8g2\csrc/u8x8_byte.c **** 	
 516:..\..\u8g2\csrc/u8x8_byte.c **** 	i2c_start(u8x8);
 517:..\..\u8g2\csrc/u8x8_byte.c **** 	i2c_write_byte(u8x8, 0x078);		/* write slave adr and read/write bit */
 518:..\..\u8g2\csrc/u8x8_byte.c **** 	
 519:..\..\u8g2\csrc/u8x8_byte.c **** 	if ( last_dc == 0 )
 520:..\..\u8g2\csrc/u8x8_byte.c **** 	  i2c_write_byte(u8x8, 0);
 521:..\..\u8g2\csrc/u8x8_byte.c **** 	else
 522:..\..\u8g2\csrc/u8x8_byte.c **** 	  i2c_write_byte(u8x8, 0x040);
 523:..\..\u8g2\csrc/u8x8_byte.c **** 	is_send_dc = 0;
 524:..\..\u8g2\csrc/u8x8_byte.c ****       }
 525:..\..\u8g2\csrc/u8x8_byte.c ****     
 526:..\..\u8g2\csrc/u8x8_byte.c ****       while( arg_int > 0 )
 527:..\..\u8g2\csrc/u8x8_byte.c ****       {
 528:..\..\u8g2\csrc/u8x8_byte.c **** 	i2c_write_byte(u8x8, *data);
 529:..\..\u8g2\csrc/u8x8_byte.c **** 	data++;
 530:..\..\u8g2\csrc/u8x8_byte.c **** 	arg_int--;
 531:..\..\u8g2\csrc/u8x8_byte.c ****       }
 532:..\..\u8g2\csrc/u8x8_byte.c ****       
ARM GAS  C:\Users\Alan\AppData\Local\Temp\ccgAQQWY.s 			page 47


 533:..\..\u8g2\csrc/u8x8_byte.c ****       break;
 534:..\..\u8g2\csrc/u8x8_byte.c ****       
 535:..\..\u8g2\csrc/u8x8_byte.c ****     case U8X8_MSG_BYTE_INIT:
 536:..\..\u8g2\csrc/u8x8_byte.c ****       i2c_init(u8x8);
 537:..\..\u8g2\csrc/u8x8_byte.c ****       break;
 538:..\..\u8g2\csrc/u8x8_byte.c ****     case U8X8_MSG_BYTE_SET_DC:
 539:..\..\u8g2\csrc/u8x8_byte.c ****       if ( last_dc != arg_int )
 540:..\..\u8g2\csrc/u8x8_byte.c ****       {
 541:..\..\u8g2\csrc/u8x8_byte.c **** 	last_dc = arg_int;
 542:..\..\u8g2\csrc/u8x8_byte.c **** 	is_send_dc = 1;
 543:..\..\u8g2\csrc/u8x8_byte.c ****       }
 544:..\..\u8g2\csrc/u8x8_byte.c ****       break;
 545:..\..\u8g2\csrc/u8x8_byte.c ****     case U8X8_MSG_BYTE_START_TRANSFER:
 546:..\..\u8g2\csrc/u8x8_byte.c ****       last_dc = 0;
 547:..\..\u8g2\csrc/u8x8_byte.c ****       is_send_dc = 1;
 548:..\..\u8g2\csrc/u8x8_byte.c ****       break;
 549:..\..\u8g2\csrc/u8x8_byte.c ****     case U8X8_MSG_BYTE_END_TRANSFER:
 550:..\..\u8g2\csrc/u8x8_byte.c ****       i2c_stop(u8x8);
 551:..\..\u8g2\csrc/u8x8_byte.c ****       break;
 552:..\..\u8g2\csrc/u8x8_byte.c ****     default:
 553:..\..\u8g2\csrc/u8x8_byte.c ****       return 0;
 554:..\..\u8g2\csrc/u8x8_byte.c ****   }
 555:..\..\u8g2\csrc/u8x8_byte.c ****   return 1;
 556:..\..\u8g2\csrc/u8x8_byte.c **** }
 557:..\..\u8g2\csrc/u8x8_byte.c **** #endif
 558:..\..\u8g2\csrc/u8x8_byte.c **** 
 559:..\..\u8g2\csrc/u8x8_byte.c **** uint8_t u8x8_byte_sw_i2c(u8x8_t *u8x8, uint8_t msg, uint8_t arg_int, void *arg_ptr)
 560:..\..\u8g2\csrc/u8x8_byte.c **** {
 1880              		.loc 1 560 0
 1881              		.cfi_startproc
 1882              		@ args = 0, pretend = 0, frame = 0
 1883              		@ frame_needed = 0, uses_anonymous_args = 0
 1884              	.LVL260:
 1885 0000 70B5     		push	{r4, r5, r6, lr}
 1886              		.cfi_def_cfa_offset 16
 1887              		.cfi_offset 4, -16
 1888              		.cfi_offset 5, -12
 1889              		.cfi_offset 6, -8
 1890              		.cfi_offset 14, -4
 1891 0002 0500     		movs	r5, r0
 1892 0004 1400     		movs	r4, r2
 1893 0006 1E00     		movs	r6, r3
 561:..\..\u8g2\csrc/u8x8_byte.c ****   uint8_t *data;
 562:..\..\u8g2\csrc/u8x8_byte.c ****  
 563:..\..\u8g2\csrc/u8x8_byte.c ****   switch(msg)
 1894              		.loc 1 563 0
 1895 0008 1439     		subs	r1, r1, #20
 1896              	.LVL261:
 1897 000a CBB2     		uxtb	r3, r1
 1898              	.LVL262:
 1899 000c 0C2B     		cmp	r3, #12
 1900 000e 03D8     		bhi	.L97
 1901 0010 9900     		lsls	r1, r3, #2
 1902 0012 114B     		ldr	r3, .L106
 1903 0014 5B58     		ldr	r3, [r3, r1]
 1904 0016 9F46     		mov	pc, r3
 1905              		.section	.rodata
ARM GAS  C:\Users\Alan\AppData\Local\Temp\ccgAQQWY.s 			page 48


 1906              		.align	2
 1907              	.L99:
 1908 0104 32000000 		.word	.L98
 1909 0108 18000000 		.word	.L97
 1910 010c 18000000 		.word	.L97
 1911 0110 2A000000 		.word	.L100
 1912 0114 3A000000 		.word	.L101
 1913 0118 4C000000 		.word	.L102
 1914 011c 18000000 		.word	.L97
 1915 0120 18000000 		.word	.L97
 1916 0124 18000000 		.word	.L97
 1917 0128 18000000 		.word	.L97
 1918 012c 18000000 		.word	.L97
 1919 0130 18000000 		.word	.L97
 1920 0134 54000000 		.word	.L105
 1921              		.section	.text.u8x8_byte_sw_i2c
 1922              	.L97:
 564:..\..\u8g2\csrc/u8x8_byte.c ****   {
 565:..\..\u8g2\csrc/u8x8_byte.c ****     case U8X8_MSG_BYTE_SEND:
 566:..\..\u8g2\csrc/u8x8_byte.c ****       data = (uint8_t *)arg_ptr;
 567:..\..\u8g2\csrc/u8x8_byte.c ****       
 568:..\..\u8g2\csrc/u8x8_byte.c ****       while( arg_int > 0 )
 569:..\..\u8g2\csrc/u8x8_byte.c ****       {
 570:..\..\u8g2\csrc/u8x8_byte.c **** 	i2c_write_byte(u8x8, *data);
 571:..\..\u8g2\csrc/u8x8_byte.c **** 	data++;
 572:..\..\u8g2\csrc/u8x8_byte.c **** 	arg_int--;
 573:..\..\u8g2\csrc/u8x8_byte.c ****       }
 574:..\..\u8g2\csrc/u8x8_byte.c ****       
 575:..\..\u8g2\csrc/u8x8_byte.c ****       break;
 576:..\..\u8g2\csrc/u8x8_byte.c ****       
 577:..\..\u8g2\csrc/u8x8_byte.c ****     case U8X8_MSG_BYTE_INIT:
 578:..\..\u8g2\csrc/u8x8_byte.c ****       i2c_init(u8x8);
 579:..\..\u8g2\csrc/u8x8_byte.c ****       break;
 580:..\..\u8g2\csrc/u8x8_byte.c ****     case U8X8_MSG_BYTE_SET_DC:
 581:..\..\u8g2\csrc/u8x8_byte.c ****       break;
 582:..\..\u8g2\csrc/u8x8_byte.c ****     case U8X8_MSG_BYTE_START_TRANSFER:
 583:..\..\u8g2\csrc/u8x8_byte.c ****       i2c_start(u8x8);
 584:..\..\u8g2\csrc/u8x8_byte.c ****       i2c_write_byte(u8x8, u8x8_GetI2CAddress(u8x8));
 585:..\..\u8g2\csrc/u8x8_byte.c ****       //i2c_write_byte(u8x8, 0x078);
 586:..\..\u8g2\csrc/u8x8_byte.c ****       break;
 587:..\..\u8g2\csrc/u8x8_byte.c ****     case U8X8_MSG_BYTE_END_TRANSFER:
 588:..\..\u8g2\csrc/u8x8_byte.c ****       i2c_stop(u8x8);
 589:..\..\u8g2\csrc/u8x8_byte.c ****       break;
 590:..\..\u8g2\csrc/u8x8_byte.c ****     default:
 591:..\..\u8g2\csrc/u8x8_byte.c ****       return 0;
 1923              		.loc 1 591 0
 1924 0018 0020     		movs	r0, #0
 1925              	.LVL263:
 1926 001a 1CE0     		b	.L103
 1927              	.LVL264:
 1928              	.L104:
 570:..\..\u8g2\csrc/u8x8_byte.c **** 	data++;
 1929              		.loc 1 570 0
 1930 001c 3178     		ldrb	r1, [r6]
 1931 001e 2800     		movs	r0, r5
 1932 0020 FFF7FEFF 		bl	i2c_write_byte
 1933              	.LVL265:
ARM GAS  C:\Users\Alan\AppData\Local\Temp\ccgAQQWY.s 			page 49


 571:..\..\u8g2\csrc/u8x8_byte.c **** 	arg_int--;
 1934              		.loc 1 571 0
 1935 0024 0136     		adds	r6, r6, #1
 1936              	.LVL266:
 572:..\..\u8g2\csrc/u8x8_byte.c ****       }
 1937              		.loc 1 572 0
 1938 0026 013C     		subs	r4, r4, #1
 1939              	.LVL267:
 1940 0028 E4B2     		uxtb	r4, r4
 1941              	.LVL268:
 1942              	.L100:
 568:..\..\u8g2\csrc/u8x8_byte.c ****       {
 1943              		.loc 1 568 0
 1944 002a 002C     		cmp	r4, #0
 1945 002c F6D1     		bne	.L104
 592:..\..\u8g2\csrc/u8x8_byte.c ****   }
 593:..\..\u8g2\csrc/u8x8_byte.c ****   return 1;
 1946              		.loc 1 593 0
 1947 002e 0120     		movs	r0, #1
 1948 0030 11E0     		b	.L103
 1949              	.LVL269:
 1950              	.L98:
 578:..\..\u8g2\csrc/u8x8_byte.c ****       break;
 1951              		.loc 1 578 0
 1952 0032 FFF7FEFF 		bl	i2c_init
 1953              	.LVL270:
 1954              		.loc 1 593 0
 1955 0036 0120     		movs	r0, #1
 579:..\..\u8g2\csrc/u8x8_byte.c ****     case U8X8_MSG_BYTE_SET_DC:
 1956              		.loc 1 579 0
 1957 0038 0DE0     		b	.L103
 1958              	.LVL271:
 1959              	.L101:
 583:..\..\u8g2\csrc/u8x8_byte.c ****       i2c_write_byte(u8x8, u8x8_GetI2CAddress(u8x8));
 1960              		.loc 1 583 0
 1961 003a FFF7FEFF 		bl	i2c_start
 1962              	.LVL272:
 584:..\..\u8g2\csrc/u8x8_byte.c ****       //i2c_write_byte(u8x8, 0x078);
 1963              		.loc 1 584 0
 1964 003e 2023     		movs	r3, #32
 1965 0040 E95C     		ldrb	r1, [r5, r3]
 1966 0042 2800     		movs	r0, r5
 1967 0044 FFF7FEFF 		bl	i2c_write_byte
 1968              	.LVL273:
 1969              		.loc 1 593 0
 1970 0048 0120     		movs	r0, #1
 586:..\..\u8g2\csrc/u8x8_byte.c ****     case U8X8_MSG_BYTE_END_TRANSFER:
 1971              		.loc 1 586 0
 1972 004a 04E0     		b	.L103
 1973              	.LVL274:
 1974              	.L102:
 588:..\..\u8g2\csrc/u8x8_byte.c ****       break;
 1975              		.loc 1 588 0
 1976 004c FFF7FEFF 		bl	i2c_stop
 1977              	.LVL275:
 1978              		.loc 1 593 0
 1979 0050 0120     		movs	r0, #1
ARM GAS  C:\Users\Alan\AppData\Local\Temp\ccgAQQWY.s 			page 50


 589:..\..\u8g2\csrc/u8x8_byte.c ****     default:
 1980              		.loc 1 589 0
 1981 0052 00E0     		b	.L103
 1982              	.LVL276:
 1983              	.L105:
 1984              		.loc 1 593 0
 1985 0054 0120     		movs	r0, #1
 1986              	.LVL277:
 1987              	.L103:
 594:..\..\u8g2\csrc/u8x8_byte.c **** }
 1988              		.loc 1 594 0
 1989              		@ sp needed
 1990              	.LVL278:
 1991 0056 70BD     		pop	{r4, r5, r6, pc}
 1992              	.L107:
 1993              		.align	2
 1994              	.L106:
 1995 0058 04010000 		.word	.L99
 1996              		.cfi_endproc
 1997              	.LFE22:
 1998              		.size	u8x8_byte_sw_i2c, .-u8x8_byte_sw_i2c
 1999              		.bss
 2000              		.set	.LANCHOR0,. + 0
 2001              		.type	last_dc.4957, %object
 2002              		.size	last_dc.4957, 1
 2003              	last_dc.4957:
 2004 0000 00       		.space	1
 2005              		.text
 2006              	.Letext0:
 2007              		.file 2 "c:\\program files (x86)\\cypress\\psoc creator\\4.1\\psoc creator\\import\\gnu\\arm\\5.4.
 2008              		.file 3 "c:\\program files (x86)\\cypress\\psoc creator\\4.1\\psoc creator\\import\\gnu\\arm\\5.4.
 2009              		.file 4 "..\\..\\u8g2\\csrc\\u8x8.h"