ARM GAS  C:\Users\Alan\AppData\Local\Temp\ccWWTBGW.s 			page 1


   1              		.syntax unified
   2              		.cpu cortex-m0
   3              		.fpu softvfp
   4              		.eabi_attribute 20, 1
   5              		.eabi_attribute 21, 1
   6              		.eabi_attribute 23, 3
   7              		.eabi_attribute 24, 1
   8              		.eabi_attribute 25, 1
   9              		.eabi_attribute 26, 1
  10              		.eabi_attribute 30, 1
  11              		.eabi_attribute 34, 0
  12              		.eabi_attribute 18, 4
  13              		.thumb
  14              		.syntax unified
  15              		.file	"u8x8_d_ssd1306_64x48.c"
  16              		.text
  17              	.Ltext0:
  18              		.cfi_sections	.debug_frame
  19              		.section	.text.u8x8_d_ssd1306_64x48_generic,"ax",%progbits
  20              		.align	2
  21              		.code	16
  22              		.thumb_func
  23              		.type	u8x8_d_ssd1306_64x48_generic, %function
  24              	u8x8_d_ssd1306_64x48_generic:
  25              	.LFB0:
  26              		.file 1 "..\\..\\u8g2\\csrc\\u8x8_d_ssd1306_64x48.c"
   1:..\..\u8g2\csrc/u8x8_d_ssd1306_64x48.c **** /*
   2:..\..\u8g2\csrc/u8x8_d_ssd1306_64x48.c **** 
   3:..\..\u8g2\csrc/u8x8_d_ssd1306_64x48.c ****   u8x8_d_ssd1306_64x48.c
   4:..\..\u8g2\csrc/u8x8_d_ssd1306_64x48.c **** 
   5:..\..\u8g2\csrc/u8x8_d_ssd1306_64x48.c ****   Universal 8bit Graphics Library (https://github.com/olikraus/u8g2/)
   6:..\..\u8g2\csrc/u8x8_d_ssd1306_64x48.c **** 
   7:..\..\u8g2\csrc/u8x8_d_ssd1306_64x48.c ****   Copyright (c) 2016, olikraus@gmail.com
   8:..\..\u8g2\csrc/u8x8_d_ssd1306_64x48.c ****   All rights reserved.
   9:..\..\u8g2\csrc/u8x8_d_ssd1306_64x48.c **** 
  10:..\..\u8g2\csrc/u8x8_d_ssd1306_64x48.c ****   Redistribution and use in source and binary forms, with or without modification, 
  11:..\..\u8g2\csrc/u8x8_d_ssd1306_64x48.c ****   are permitted provided that the following conditions are met:
  12:..\..\u8g2\csrc/u8x8_d_ssd1306_64x48.c **** 
  13:..\..\u8g2\csrc/u8x8_d_ssd1306_64x48.c ****   * Redistributions of source code must retain the above copyright notice, this list 
  14:..\..\u8g2\csrc/u8x8_d_ssd1306_64x48.c ****     of conditions and the following disclaimer.
  15:..\..\u8g2\csrc/u8x8_d_ssd1306_64x48.c ****     
  16:..\..\u8g2\csrc/u8x8_d_ssd1306_64x48.c ****   * Redistributions in binary form must reproduce the above copyright notice, this 
  17:..\..\u8g2\csrc/u8x8_d_ssd1306_64x48.c ****     list of conditions and the following disclaimer in the documentation and/or other 
  18:..\..\u8g2\csrc/u8x8_d_ssd1306_64x48.c ****     materials provided with the distribution.
  19:..\..\u8g2\csrc/u8x8_d_ssd1306_64x48.c **** 
  20:..\..\u8g2\csrc/u8x8_d_ssd1306_64x48.c ****   THIS SOFTWARE IS PROVIDED BY THE COPYRIGHT HOLDERS AND 
  21:..\..\u8g2\csrc/u8x8_d_ssd1306_64x48.c ****   CONTRIBUTORS "AS IS" AND ANY EXPRESS OR IMPLIED WARRANTIES, 
  22:..\..\u8g2\csrc/u8x8_d_ssd1306_64x48.c ****   INCLUDING, BUT NOT LIMITED TO, THE IMPLIED WARRANTIES OF 
  23:..\..\u8g2\csrc/u8x8_d_ssd1306_64x48.c ****   MERCHANTABILITY AND FITNESS FOR A PARTICULAR PURPOSE ARE 
  24:..\..\u8g2\csrc/u8x8_d_ssd1306_64x48.c ****   DISCLAIMED. IN NO EVENT SHALL THE COPYRIGHT HOLDER OR 
  25:..\..\u8g2\csrc/u8x8_d_ssd1306_64x48.c ****   CONTRIBUTORS BE LIABLE FOR ANY DIRECT, INDIRECT, INCIDENTAL, 
  26:..\..\u8g2\csrc/u8x8_d_ssd1306_64x48.c ****   SPECIAL, EXEMPLARY, OR CONSEQUENTIAL DAMAGES (INCLUDING, BUT 
  27:..\..\u8g2\csrc/u8x8_d_ssd1306_64x48.c ****   NOT LIMITED TO, PROCUREMENT OF SUBSTITUTE GOODS OR SERVICES; 
  28:..\..\u8g2\csrc/u8x8_d_ssd1306_64x48.c ****   LOSS OF USE, DATA, OR PROFITS; OR BUSINESS INTERRUPTION) HOWEVER 
  29:..\..\u8g2\csrc/u8x8_d_ssd1306_64x48.c ****   CAUSED AND ON ANY THEORY OF LIABILITY, WHETHER IN CONTRACT, 
  30:..\..\u8g2\csrc/u8x8_d_ssd1306_64x48.c ****   STRICT LIABILITY, OR TORT (INCLUDING NEGLIGENCE OR OTHERWISE) 
  31:..\..\u8g2\csrc/u8x8_d_ssd1306_64x48.c ****   ARISING IN ANY WAY OUT OF THE USE OF THIS SOFTWARE, EVEN IF 
ARM GAS  C:\Users\Alan\AppData\Local\Temp\ccWWTBGW.s 			page 2


  32:..\..\u8g2\csrc/u8x8_d_ssd1306_64x48.c ****   ADVISED OF THE POSSIBILITY OF SUCH DAMAGE.  
  33:..\..\u8g2\csrc/u8x8_d_ssd1306_64x48.c ****   
  34:..\..\u8g2\csrc/u8x8_d_ssd1306_64x48.c **** */
  35:..\..\u8g2\csrc/u8x8_d_ssd1306_64x48.c **** 
  36:..\..\u8g2\csrc/u8x8_d_ssd1306_64x48.c **** 
  37:..\..\u8g2\csrc/u8x8_d_ssd1306_64x48.c **** #include "u8x8.h"
  38:..\..\u8g2\csrc/u8x8_d_ssd1306_64x48.c **** 
  39:..\..\u8g2\csrc/u8x8_d_ssd1306_64x48.c **** 
  40:..\..\u8g2\csrc/u8x8_d_ssd1306_64x48.c **** 
  41:..\..\u8g2\csrc/u8x8_d_ssd1306_64x48.c **** /* EastRising 0.66 OLED */
  42:..\..\u8g2\csrc/u8x8_d_ssd1306_64x48.c **** static const uint8_t u8x8_d_ssd1306_64x48_er_init_seq[] = {
  43:..\..\u8g2\csrc/u8x8_d_ssd1306_64x48.c ****     
  44:..\..\u8g2\csrc/u8x8_d_ssd1306_64x48.c ****   U8X8_START_TRANSFER(),             	/* enable chip, delay is part of the transfer start */
  45:..\..\u8g2\csrc/u8x8_d_ssd1306_64x48.c ****   
  46:..\..\u8g2\csrc/u8x8_d_ssd1306_64x48.c ****   
  47:..\..\u8g2\csrc/u8x8_d_ssd1306_64x48.c ****   U8X8_C(0x0ae),		                /* display off */
  48:..\..\u8g2\csrc/u8x8_d_ssd1306_64x48.c ****   U8X8_CA(0x0d5, 0x080),		/* clock divide ratio (0x00=1) and oscillator frequency (0x8) */
  49:..\..\u8g2\csrc/u8x8_d_ssd1306_64x48.c ****   U8X8_CA(0x0a8, 0x02f),		/* multiplex ratio, 0.66 OLED: changed from 0x1f to 0x2f */
  50:..\..\u8g2\csrc/u8x8_d_ssd1306_64x48.c ****   U8X8_CA(0x0d3, 0x000),		/* display offset, 0.66 OLED  */
  51:..\..\u8g2\csrc/u8x8_d_ssd1306_64x48.c ****   U8X8_C(0x040),		                /* set display start line to 0, 0.66 OLED */
  52:..\..\u8g2\csrc/u8x8_d_ssd1306_64x48.c ****   U8X8_CA(0x08d, 0x014),		/* [2] charge pump setting (p62): 0x014 enable, 0x010 disable, 0.66 OLED 
  53:..\..\u8g2\csrc/u8x8_d_ssd1306_64x48.c ****   U8X8_CA(0x020, 0x000),		/* page addressing mode */
  54:..\..\u8g2\csrc/u8x8_d_ssd1306_64x48.c ****   
  55:..\..\u8g2\csrc/u8x8_d_ssd1306_64x48.c ****   U8X8_C(0x0a1),				/* segment remap a0/a1, 0.66 OLED  */
  56:..\..\u8g2\csrc/u8x8_d_ssd1306_64x48.c ****   U8X8_C(0x0c8),				/* c0: scan dir normal, c8: reverse, 0.66 OLED  */
  57:..\..\u8g2\csrc/u8x8_d_ssd1306_64x48.c ****   // Flipmode
  58:..\..\u8g2\csrc/u8x8_d_ssd1306_64x48.c ****   // U8X8_C(0x0a0),				/* segment remap a0/a1*/
  59:..\..\u8g2\csrc/u8x8_d_ssd1306_64x48.c ****   // U8X8_C(0x0c0),				/* c0: scan dir normal, c8: reverse */
  60:..\..\u8g2\csrc/u8x8_d_ssd1306_64x48.c ****   
  61:..\..\u8g2\csrc/u8x8_d_ssd1306_64x48.c ****   U8X8_CA(0x0da, 0x012),		/* com pin HW config, sequential com pin config (bit 4), disable left/rig
  62:..\..\u8g2\csrc/u8x8_d_ssd1306_64x48.c ****   U8X8_CA(0x081, 0x0cf),		/* [2] set contrast control, 0.66 OLED datasheet: 0xcf */
  63:..\..\u8g2\csrc/u8x8_d_ssd1306_64x48.c ****   U8X8_CA(0x0d9, 0x022),		/* [2] pre-charge period 0x022/f1, 0.66 OLED datasheet: 0x22 */
  64:..\..\u8g2\csrc/u8x8_d_ssd1306_64x48.c ****   U8X8_CA(0x0db, 0x000),		/* vcomh deselect level, 0.66 OLED datasheet: 0x00 */
  65:..\..\u8g2\csrc/u8x8_d_ssd1306_64x48.c ****   
  66:..\..\u8g2\csrc/u8x8_d_ssd1306_64x48.c ****   U8X8_C(0x02e),				/* Deactivate scroll */ 
  67:..\..\u8g2\csrc/u8x8_d_ssd1306_64x48.c ****   U8X8_C(0x0a4),				/* output ram to display */
  68:..\..\u8g2\csrc/u8x8_d_ssd1306_64x48.c ****   U8X8_C(0x0a6),				/* none inverted normal display mode */
  69:..\..\u8g2\csrc/u8x8_d_ssd1306_64x48.c ****     
  70:..\..\u8g2\csrc/u8x8_d_ssd1306_64x48.c ****   U8X8_END_TRANSFER(),             	/* disable chip */
  71:..\..\u8g2\csrc/u8x8_d_ssd1306_64x48.c ****   U8X8_END()             			/* end of sequence */
  72:..\..\u8g2\csrc/u8x8_d_ssd1306_64x48.c **** };
  73:..\..\u8g2\csrc/u8x8_d_ssd1306_64x48.c **** 
  74:..\..\u8g2\csrc/u8x8_d_ssd1306_64x48.c **** static const uint8_t u8x8_d_ssd1306_64x48_powersave0_seq[] = {
  75:..\..\u8g2\csrc/u8x8_d_ssd1306_64x48.c ****   U8X8_START_TRANSFER(),             	/* enable chip, delay is part of the transfer start */
  76:..\..\u8g2\csrc/u8x8_d_ssd1306_64x48.c ****   U8X8_C(0x0af),		                /* display on */
  77:..\..\u8g2\csrc/u8x8_d_ssd1306_64x48.c ****   U8X8_END_TRANSFER(),             	/* disable chip */
  78:..\..\u8g2\csrc/u8x8_d_ssd1306_64x48.c ****   U8X8_END()             			/* end of sequence */
  79:..\..\u8g2\csrc/u8x8_d_ssd1306_64x48.c **** };
  80:..\..\u8g2\csrc/u8x8_d_ssd1306_64x48.c **** 
  81:..\..\u8g2\csrc/u8x8_d_ssd1306_64x48.c **** static const uint8_t u8x8_d_ssd1306_64x48_powersave1_seq[] = {
  82:..\..\u8g2\csrc/u8x8_d_ssd1306_64x48.c ****   U8X8_START_TRANSFER(),             	/* enable chip, delay is part of the transfer start */
  83:..\..\u8g2\csrc/u8x8_d_ssd1306_64x48.c ****   U8X8_C(0x0ae),		                /* display off */
  84:..\..\u8g2\csrc/u8x8_d_ssd1306_64x48.c ****   U8X8_END_TRANSFER(),             	/* disable chip */
  85:..\..\u8g2\csrc/u8x8_d_ssd1306_64x48.c ****   U8X8_END()             			/* end of sequence */
  86:..\..\u8g2\csrc/u8x8_d_ssd1306_64x48.c **** };
  87:..\..\u8g2\csrc/u8x8_d_ssd1306_64x48.c **** 
  88:..\..\u8g2\csrc/u8x8_d_ssd1306_64x48.c **** static const uint8_t u8x8_d_ssd1306_64x48_flip0_seq[] = {
ARM GAS  C:\Users\Alan\AppData\Local\Temp\ccWWTBGW.s 			page 3


  89:..\..\u8g2\csrc/u8x8_d_ssd1306_64x48.c ****   U8X8_START_TRANSFER(),             	/* enable chip, delay is part of the transfer start */
  90:..\..\u8g2\csrc/u8x8_d_ssd1306_64x48.c ****   U8X8_C(0x0a1),				/* segment remap a0/a1*/
  91:..\..\u8g2\csrc/u8x8_d_ssd1306_64x48.c ****   U8X8_C(0x0c8),				/* c0: scan dir normal, c8: reverse */
  92:..\..\u8g2\csrc/u8x8_d_ssd1306_64x48.c ****   U8X8_END_TRANSFER(),             	/* disable chip */
  93:..\..\u8g2\csrc/u8x8_d_ssd1306_64x48.c ****   U8X8_END()             			/* end of sequence */
  94:..\..\u8g2\csrc/u8x8_d_ssd1306_64x48.c **** };
  95:..\..\u8g2\csrc/u8x8_d_ssd1306_64x48.c **** 
  96:..\..\u8g2\csrc/u8x8_d_ssd1306_64x48.c **** static const uint8_t u8x8_d_ssd1306_64x48_flip1_seq[] = {
  97:..\..\u8g2\csrc/u8x8_d_ssd1306_64x48.c ****   U8X8_START_TRANSFER(),             	/* enable chip, delay is part of the transfer start */
  98:..\..\u8g2\csrc/u8x8_d_ssd1306_64x48.c ****   U8X8_C(0x0a0),				/* segment remap a0/a1*/
  99:..\..\u8g2\csrc/u8x8_d_ssd1306_64x48.c ****   U8X8_C(0x0c0),				/* c0: scan dir normal, c8: reverse */
 100:..\..\u8g2\csrc/u8x8_d_ssd1306_64x48.c ****   U8X8_END_TRANSFER(),             	/* disable chip */
 101:..\..\u8g2\csrc/u8x8_d_ssd1306_64x48.c ****   U8X8_END()             			/* end of sequence */
 102:..\..\u8g2\csrc/u8x8_d_ssd1306_64x48.c **** };
 103:..\..\u8g2\csrc/u8x8_d_ssd1306_64x48.c **** 
 104:..\..\u8g2\csrc/u8x8_d_ssd1306_64x48.c **** 
 105:..\..\u8g2\csrc/u8x8_d_ssd1306_64x48.c **** static uint8_t u8x8_d_ssd1306_64x48_generic(u8x8_t *u8x8, uint8_t msg, uint8_t arg_int, void *arg_p
 106:..\..\u8g2\csrc/u8x8_d_ssd1306_64x48.c **** {
  27              		.loc 1 106 0
  28              		.cfi_startproc
  29              		@ args = 0, pretend = 0, frame = 0
  30              		@ frame_needed = 0, uses_anonymous_args = 0
  31              	.LVL0:
  32 0000 F8B5     		push	{r3, r4, r5, r6, r7, lr}
  33              		.cfi_def_cfa_offset 24
  34              		.cfi_offset 3, -24
  35              		.cfi_offset 4, -20
  36              		.cfi_offset 5, -16
  37              		.cfi_offset 6, -12
  38              		.cfi_offset 7, -8
  39              		.cfi_offset 14, -4
  40 0002 0400     		movs	r4, r0
  41 0004 1500     		movs	r5, r2
  42 0006 1E00     		movs	r6, r3
 107:..\..\u8g2\csrc/u8x8_d_ssd1306_64x48.c ****   uint8_t x, c;
 108:..\..\u8g2\csrc/u8x8_d_ssd1306_64x48.c ****   uint8_t *ptr;
 109:..\..\u8g2\csrc/u8x8_d_ssd1306_64x48.c ****   switch(msg)
  43              		.loc 1 109 0
  44 0008 0D29     		cmp	r1, #13
  45 000a 15D0     		beq	.L3
  46 000c 02D8     		bhi	.L4
  47 000e 0B29     		cmp	r1, #11
  48 0010 05D0     		beq	.L5
  49 0012 60E0     		b	.L11
  50              	.L4:
  51 0014 0E29     		cmp	r1, #14
  52 0016 23D0     		beq	.L6
  53 0018 0F29     		cmp	r1, #15
  54 001a 30D0     		beq	.L7
  55 001c 5BE0     		b	.L11
  56              	.L5:
 110:..\..\u8g2\csrc/u8x8_d_ssd1306_64x48.c ****   {
 111:..\..\u8g2\csrc/u8x8_d_ssd1306_64x48.c ****     /* handled by the calling function
 112:..\..\u8g2\csrc/u8x8_d_ssd1306_64x48.c ****     case U8X8_MSG_DISPLAY_SETUP_MEMORY:
 113:..\..\u8g2\csrc/u8x8_d_ssd1306_64x48.c ****       u8x8_d_helper_display_setup_memory(u8x8, &u8x8_ssd1306_64x48_display_info);
 114:..\..\u8g2\csrc/u8x8_d_ssd1306_64x48.c ****       break;
 115:..\..\u8g2\csrc/u8x8_d_ssd1306_64x48.c ****     case U8X8_MSG_DISPLAY_INIT:
ARM GAS  C:\Users\Alan\AppData\Local\Temp\ccWWTBGW.s 			page 4


 116:..\..\u8g2\csrc/u8x8_d_ssd1306_64x48.c ****       u8x8_d_helper_display_init(u8x8);
 117:..\..\u8g2\csrc/u8x8_d_ssd1306_64x48.c ****       u8x8_cad_SendSequence(u8x8, u8x8_d_ssd1306_64x48_er_init_seq);    
 118:..\..\u8g2\csrc/u8x8_d_ssd1306_64x48.c ****       break;
 119:..\..\u8g2\csrc/u8x8_d_ssd1306_64x48.c ****     */
 120:..\..\u8g2\csrc/u8x8_d_ssd1306_64x48.c ****     case U8X8_MSG_DISPLAY_SET_POWER_SAVE:
 121:..\..\u8g2\csrc/u8x8_d_ssd1306_64x48.c ****       if ( arg_int == 0 )
  57              		.loc 1 121 0
  58 001e 002A     		cmp	r2, #0
  59 0020 04D1     		bne	.L8
 122:..\..\u8g2\csrc/u8x8_d_ssd1306_64x48.c **** 	u8x8_cad_SendSequence(u8x8, u8x8_d_ssd1306_64x48_powersave0_seq);
  60              		.loc 1 122 0
  61 0022 2E49     		ldr	r1, .L12
  62              	.LVL1:
  63 0024 FFF7FEFF 		bl	u8x8_cad_SendSequence
  64              	.LVL2:
 123:..\..\u8g2\csrc/u8x8_d_ssd1306_64x48.c ****       else
 124:..\..\u8g2\csrc/u8x8_d_ssd1306_64x48.c **** 	u8x8_cad_SendSequence(u8x8, u8x8_d_ssd1306_64x48_powersave1_seq);
 125:..\..\u8g2\csrc/u8x8_d_ssd1306_64x48.c ****       break;
 126:..\..\u8g2\csrc/u8x8_d_ssd1306_64x48.c ****     case U8X8_MSG_DISPLAY_SET_FLIP_MODE:
 127:..\..\u8g2\csrc/u8x8_d_ssd1306_64x48.c ****       if ( arg_int == 0 )
 128:..\..\u8g2\csrc/u8x8_d_ssd1306_64x48.c ****       {
 129:..\..\u8g2\csrc/u8x8_d_ssd1306_64x48.c **** 	u8x8_cad_SendSequence(u8x8, u8x8_d_ssd1306_64x48_flip0_seq);
 130:..\..\u8g2\csrc/u8x8_d_ssd1306_64x48.c **** 	u8x8->x_offset = u8x8->display_info->default_x_offset;
 131:..\..\u8g2\csrc/u8x8_d_ssd1306_64x48.c ****       }
 132:..\..\u8g2\csrc/u8x8_d_ssd1306_64x48.c ****       else
 133:..\..\u8g2\csrc/u8x8_d_ssd1306_64x48.c ****       {
 134:..\..\u8g2\csrc/u8x8_d_ssd1306_64x48.c **** 	u8x8_cad_SendSequence(u8x8, u8x8_d_ssd1306_64x48_flip1_seq);
 135:..\..\u8g2\csrc/u8x8_d_ssd1306_64x48.c **** 	u8x8->x_offset = u8x8->display_info->flipmode_x_offset;
 136:..\..\u8g2\csrc/u8x8_d_ssd1306_64x48.c ****       }
 137:..\..\u8g2\csrc/u8x8_d_ssd1306_64x48.c ****       break;
 138:..\..\u8g2\csrc/u8x8_d_ssd1306_64x48.c **** #ifdef U8X8_WITH_SET_CONTRAST
 139:..\..\u8g2\csrc/u8x8_d_ssd1306_64x48.c ****     case U8X8_MSG_DISPLAY_SET_CONTRAST:
 140:..\..\u8g2\csrc/u8x8_d_ssd1306_64x48.c ****       u8x8_cad_StartTransfer(u8x8);
 141:..\..\u8g2\csrc/u8x8_d_ssd1306_64x48.c ****       u8x8_cad_SendCmd(u8x8, 0x081 );
 142:..\..\u8g2\csrc/u8x8_d_ssd1306_64x48.c ****       u8x8_cad_SendArg(u8x8, arg_int );	/* ssd1306 has range from 0 to 255 */
 143:..\..\u8g2\csrc/u8x8_d_ssd1306_64x48.c ****       u8x8_cad_EndTransfer(u8x8);
 144:..\..\u8g2\csrc/u8x8_d_ssd1306_64x48.c ****       break;
 145:..\..\u8g2\csrc/u8x8_d_ssd1306_64x48.c **** #endif
 146:..\..\u8g2\csrc/u8x8_d_ssd1306_64x48.c ****     case U8X8_MSG_DISPLAY_DRAW_TILE:
 147:..\..\u8g2\csrc/u8x8_d_ssd1306_64x48.c ****       u8x8_cad_StartTransfer(u8x8);
 148:..\..\u8g2\csrc/u8x8_d_ssd1306_64x48.c ****       x = ((u8x8_tile_t *)arg_ptr)->x_pos;    
 149:..\..\u8g2\csrc/u8x8_d_ssd1306_64x48.c ****       x *= 8;
 150:..\..\u8g2\csrc/u8x8_d_ssd1306_64x48.c ****       x += u8x8->x_offset;
 151:..\..\u8g2\csrc/u8x8_d_ssd1306_64x48.c ****       u8x8_cad_SendCmd(u8x8, 0x010 | (x>>4) );
 152:..\..\u8g2\csrc/u8x8_d_ssd1306_64x48.c ****       u8x8_cad_SendCmd(u8x8, 0x000 | ((x&15)));
 153:..\..\u8g2\csrc/u8x8_d_ssd1306_64x48.c ****       u8x8_cad_SendCmd(u8x8, 0x0b0 | (((u8x8_tile_t *)arg_ptr)->y_pos));
 154:..\..\u8g2\csrc/u8x8_d_ssd1306_64x48.c ****       
 155:..\..\u8g2\csrc/u8x8_d_ssd1306_64x48.c ****       do
 156:..\..\u8g2\csrc/u8x8_d_ssd1306_64x48.c ****       {
 157:..\..\u8g2\csrc/u8x8_d_ssd1306_64x48.c **** 	c = ((u8x8_tile_t *)arg_ptr)->cnt;
 158:..\..\u8g2\csrc/u8x8_d_ssd1306_64x48.c **** 	ptr = ((u8x8_tile_t *)arg_ptr)->tile_ptr;
 159:..\..\u8g2\csrc/u8x8_d_ssd1306_64x48.c **** 	u8x8_cad_SendData(u8x8, c*8, ptr); 	/* note: SendData can not handle more than 255 bytes */
 160:..\..\u8g2\csrc/u8x8_d_ssd1306_64x48.c **** 	arg_int--;
 161:..\..\u8g2\csrc/u8x8_d_ssd1306_64x48.c ****       } while( arg_int > 0 );
 162:..\..\u8g2\csrc/u8x8_d_ssd1306_64x48.c ****       
 163:..\..\u8g2\csrc/u8x8_d_ssd1306_64x48.c ****       u8x8_cad_EndTransfer(u8x8);
 164:..\..\u8g2\csrc/u8x8_d_ssd1306_64x48.c ****       break;
ARM GAS  C:\Users\Alan\AppData\Local\Temp\ccWWTBGW.s 			page 5


 165:..\..\u8g2\csrc/u8x8_d_ssd1306_64x48.c ****     default:
 166:..\..\u8g2\csrc/u8x8_d_ssd1306_64x48.c ****       return 0;
 167:..\..\u8g2\csrc/u8x8_d_ssd1306_64x48.c ****   }
 168:..\..\u8g2\csrc/u8x8_d_ssd1306_64x48.c ****   return 1;
  65              		.loc 1 168 0
  66 0028 0120     		movs	r0, #1
  67 002a 55E0     		b	.L2
  68              	.LVL3:
  69              	.L8:
 124:..\..\u8g2\csrc/u8x8_d_ssd1306_64x48.c ****       break;
  70              		.loc 1 124 0
  71 002c 2B49     		ldr	r1, .L12
  72              	.LVL4:
  73 002e 0831     		adds	r1, r1, #8
  74 0030 FFF7FEFF 		bl	u8x8_cad_SendSequence
  75              	.LVL5:
  76              		.loc 1 168 0
  77 0034 0120     		movs	r0, #1
  78 0036 4FE0     		b	.L2
  79              	.LVL6:
  80              	.L3:
 127:..\..\u8g2\csrc/u8x8_d_ssd1306_64x48.c ****       {
  81              		.loc 1 127 0
  82 0038 002A     		cmp	r2, #0
  83 003a 08D1     		bne	.L9
 129:..\..\u8g2\csrc/u8x8_d_ssd1306_64x48.c **** 	u8x8->x_offset = u8x8->display_info->default_x_offset;
  84              		.loc 1 129 0
  85 003c 2749     		ldr	r1, .L12
  86              	.LVL7:
  87 003e 1031     		adds	r1, r1, #16
  88 0040 FFF7FEFF 		bl	u8x8_cad_SendSequence
  89              	.LVL8:
 130:..\..\u8g2\csrc/u8x8_d_ssd1306_64x48.c ****       }
  90              		.loc 1 130 0
  91 0044 2368     		ldr	r3, [r4]
  92 0046 9B7C     		ldrb	r3, [r3, #18]
  93 0048 A377     		strb	r3, [r4, #30]
  94              		.loc 1 168 0
  95 004a 0120     		movs	r0, #1
  96 004c 44E0     		b	.L2
  97              	.LVL9:
  98              	.L9:
 134:..\..\u8g2\csrc/u8x8_d_ssd1306_64x48.c **** 	u8x8->x_offset = u8x8->display_info->flipmode_x_offset;
  99              		.loc 1 134 0
 100 004e 2349     		ldr	r1, .L12
 101              	.LVL10:
 102 0050 1831     		adds	r1, r1, #24
 103 0052 FFF7FEFF 		bl	u8x8_cad_SendSequence
 104              	.LVL11:
 135:..\..\u8g2\csrc/u8x8_d_ssd1306_64x48.c ****       }
 105              		.loc 1 135 0
 106 0056 2368     		ldr	r3, [r4]
 107 0058 DB7C     		ldrb	r3, [r3, #19]
 108 005a A377     		strb	r3, [r4, #30]
 109              		.loc 1 168 0
 110 005c 0120     		movs	r0, #1
 111 005e 3BE0     		b	.L2
ARM GAS  C:\Users\Alan\AppData\Local\Temp\ccWWTBGW.s 			page 6


 112              	.LVL12:
 113              	.L6:
 140:..\..\u8g2\csrc/u8x8_d_ssd1306_64x48.c ****       u8x8_cad_SendCmd(u8x8, 0x081 );
 114              		.loc 1 140 0
 115 0060 FFF7FEFF 		bl	u8x8_cad_StartTransfer
 116              	.LVL13:
 141:..\..\u8g2\csrc/u8x8_d_ssd1306_64x48.c ****       u8x8_cad_SendArg(u8x8, arg_int );	/* ssd1306 has range from 0 to 255 */
 117              		.loc 1 141 0
 118 0064 8121     		movs	r1, #129
 119 0066 2000     		movs	r0, r4
 120 0068 FFF7FEFF 		bl	u8x8_cad_SendCmd
 121              	.LVL14:
 142:..\..\u8g2\csrc/u8x8_d_ssd1306_64x48.c ****       u8x8_cad_EndTransfer(u8x8);
 122              		.loc 1 142 0
 123 006c 2900     		movs	r1, r5
 124 006e 2000     		movs	r0, r4
 125 0070 FFF7FEFF 		bl	u8x8_cad_SendArg
 126              	.LVL15:
 143:..\..\u8g2\csrc/u8x8_d_ssd1306_64x48.c ****       break;
 127              		.loc 1 143 0
 128 0074 2000     		movs	r0, r4
 129 0076 FFF7FEFF 		bl	u8x8_cad_EndTransfer
 130              	.LVL16:
 131              		.loc 1 168 0
 132 007a 0120     		movs	r0, #1
 144:..\..\u8g2\csrc/u8x8_d_ssd1306_64x48.c **** #endif
 133              		.loc 1 144 0
 134 007c 2CE0     		b	.L2
 135              	.LVL17:
 136              	.L7:
 147:..\..\u8g2\csrc/u8x8_d_ssd1306_64x48.c ****       x = ((u8x8_tile_t *)arg_ptr)->x_pos;    
 137              		.loc 1 147 0
 138 007e FFF7FEFF 		bl	u8x8_cad_StartTransfer
 139              	.LVL18:
 148:..\..\u8g2\csrc/u8x8_d_ssd1306_64x48.c ****       x *= 8;
 140              		.loc 1 148 0
 141 0082 7379     		ldrb	r3, [r6, #5]
 142              	.LVL19:
 149:..\..\u8g2\csrc/u8x8_d_ssd1306_64x48.c ****       x += u8x8->x_offset;
 143              		.loc 1 149 0
 144 0084 DB00     		lsls	r3, r3, #3
 145              	.LVL20:
 146 0086 DBB2     		uxtb	r3, r3
 147              	.LVL21:
 150:..\..\u8g2\csrc/u8x8_d_ssd1306_64x48.c ****       u8x8_cad_SendCmd(u8x8, 0x010 | (x>>4) );
 148              		.loc 1 150 0
 149 0088 A77F     		ldrb	r7, [r4, #30]
 150 008a DB19     		adds	r3, r3, r7
 151              	.LVL22:
 152 008c DFB2     		uxtb	r7, r3
 153              	.LVL23:
 151:..\..\u8g2\csrc/u8x8_d_ssd1306_64x48.c ****       u8x8_cad_SendCmd(u8x8, 0x000 | ((x&15)));
 154              		.loc 1 151 0
 155 008e 3909     		lsrs	r1, r7, #4
 156 0090 1023     		movs	r3, #16
 157 0092 1943     		orrs	r1, r3
 158 0094 C9B2     		uxtb	r1, r1
ARM GAS  C:\Users\Alan\AppData\Local\Temp\ccWWTBGW.s 			page 7


 159 0096 2000     		movs	r0, r4
 160 0098 FFF7FEFF 		bl	u8x8_cad_SendCmd
 161              	.LVL24:
 152:..\..\u8g2\csrc/u8x8_d_ssd1306_64x48.c ****       u8x8_cad_SendCmd(u8x8, 0x0b0 | (((u8x8_tile_t *)arg_ptr)->y_pos));
 162              		.loc 1 152 0
 163 009c 0F21     		movs	r1, #15
 164 009e 3940     		ands	r1, r7
 165 00a0 2000     		movs	r0, r4
 166 00a2 FFF7FEFF 		bl	u8x8_cad_SendCmd
 167              	.LVL25:
 153:..\..\u8g2\csrc/u8x8_d_ssd1306_64x48.c ****       
 168              		.loc 1 153 0
 169 00a6 B379     		ldrb	r3, [r6, #6]
 170 00a8 5021     		movs	r1, #80
 171 00aa 4942     		rsbs	r1, r1, #0
 172 00ac 1943     		orrs	r1, r3
 173 00ae C9B2     		uxtb	r1, r1
 174 00b0 2000     		movs	r0, r4
 175 00b2 FFF7FEFF 		bl	u8x8_cad_SendCmd
 176              	.LVL26:
 177              	.L10:
 157:..\..\u8g2\csrc/u8x8_d_ssd1306_64x48.c **** 	ptr = ((u8x8_tile_t *)arg_ptr)->tile_ptr;
 178              		.loc 1 157 0 discriminator 1
 179 00b6 3179     		ldrb	r1, [r6, #4]
 180              	.LVL27:
 159:..\..\u8g2\csrc/u8x8_d_ssd1306_64x48.c **** 	arg_int--;
 181              		.loc 1 159 0 discriminator 1
 182 00b8 C900     		lsls	r1, r1, #3
 183              	.LVL28:
 184 00ba C9B2     		uxtb	r1, r1
 185 00bc 3268     		ldr	r2, [r6]
 186 00be 2000     		movs	r0, r4
 187 00c0 FFF7FEFF 		bl	u8x8_cad_SendData
 188              	.LVL29:
 160:..\..\u8g2\csrc/u8x8_d_ssd1306_64x48.c ****       } while( arg_int > 0 );
 189              		.loc 1 160 0 discriminator 1
 190 00c4 013D     		subs	r5, r5, #1
 191              	.LVL30:
 192 00c6 EDB2     		uxtb	r5, r5
 193              	.LVL31:
 161:..\..\u8g2\csrc/u8x8_d_ssd1306_64x48.c ****       
 194              		.loc 1 161 0 discriminator 1
 195 00c8 002D     		cmp	r5, #0
 196 00ca F4D1     		bne	.L10
 163:..\..\u8g2\csrc/u8x8_d_ssd1306_64x48.c ****       break;
 197              		.loc 1 163 0
 198 00cc 2000     		movs	r0, r4
 199 00ce FFF7FEFF 		bl	u8x8_cad_EndTransfer
 200              	.LVL32:
 201              		.loc 1 168 0
 202 00d2 0120     		movs	r0, #1
 164:..\..\u8g2\csrc/u8x8_d_ssd1306_64x48.c ****     default:
 203              		.loc 1 164 0
 204 00d4 00E0     		b	.L2
 205              	.LVL33:
 206              	.L11:
 166:..\..\u8g2\csrc/u8x8_d_ssd1306_64x48.c ****   }
ARM GAS  C:\Users\Alan\AppData\Local\Temp\ccWWTBGW.s 			page 8


 207              		.loc 1 166 0
 208 00d6 0020     		movs	r0, #0
 209              	.LVL34:
 210              	.L2:
 169:..\..\u8g2\csrc/u8x8_d_ssd1306_64x48.c **** }
 211              		.loc 1 169 0
 212              		@ sp needed
 213              	.LVL35:
 214              	.LVL36:
 215 00d8 F8BD     		pop	{r3, r4, r5, r6, r7, pc}
 216              	.L13:
 217 00da C046     		.align	2
 218              	.L12:
 219 00dc 00000000 		.word	.LANCHOR0
 220              		.cfi_endproc
 221              	.LFE0:
 222              		.size	u8x8_d_ssd1306_64x48_generic, .-u8x8_d_ssd1306_64x48_generic
 223              		.section	.text.u8x8_d_ssd1306_64x48_er,"ax",%progbits
 224              		.align	2
 225              		.global	u8x8_d_ssd1306_64x48_er
 226              		.code	16
 227              		.thumb_func
 228              		.type	u8x8_d_ssd1306_64x48_er, %function
 229              	u8x8_d_ssd1306_64x48_er:
 230              	.LFB1:
 170:..\..\u8g2\csrc/u8x8_d_ssd1306_64x48.c **** 
 171:..\..\u8g2\csrc/u8x8_d_ssd1306_64x48.c **** 
 172:..\..\u8g2\csrc/u8x8_d_ssd1306_64x48.c **** static const u8x8_display_info_t u8x8_ssd1306_64x48_display_info =
 173:..\..\u8g2\csrc/u8x8_d_ssd1306_64x48.c **** {
 174:..\..\u8g2\csrc/u8x8_d_ssd1306_64x48.c ****   /* chip_enable_level = */ 0,
 175:..\..\u8g2\csrc/u8x8_d_ssd1306_64x48.c ****   /* chip_disable_level = */ 1,
 176:..\..\u8g2\csrc/u8x8_d_ssd1306_64x48.c ****   
 177:..\..\u8g2\csrc/u8x8_d_ssd1306_64x48.c ****   /* post_chip_enable_wait_ns = */ 20,
 178:..\..\u8g2\csrc/u8x8_d_ssd1306_64x48.c ****   /* pre_chip_disable_wait_ns = */ 10,
 179:..\..\u8g2\csrc/u8x8_d_ssd1306_64x48.c ****   /* reset_pulse_width_ms = */ 100, 	/* SSD1306: 3 us */
 180:..\..\u8g2\csrc/u8x8_d_ssd1306_64x48.c ****   /* post_reset_wait_ms = */ 100, /* far east OLEDs need much longer setup time */
 181:..\..\u8g2\csrc/u8x8_d_ssd1306_64x48.c ****   /* sda_setup_time_ns = */ 50,		/* SSD1306: 15ns, but cycle time is 100ns, so use 100/2 */
 182:..\..\u8g2\csrc/u8x8_d_ssd1306_64x48.c ****   /* sck_pulse_width_ns = */ 50,	/* SSD1306: 20ns, but cycle time is 100ns, so use 100/2, AVR: belo
 183:..\..\u8g2\csrc/u8x8_d_ssd1306_64x48.c ****   /* sck_clock_hz = */ 4000000UL,	/* since Arduino 1.6.0, the SPI bus speed in Hz. Should be  10000
 184:..\..\u8g2\csrc/u8x8_d_ssd1306_64x48.c ****   /* spi_mode = */ 0,		/* active high, rising edge */
 185:..\..\u8g2\csrc/u8x8_d_ssd1306_64x48.c ****   /* i2c_bus_clock_100kHz = */ 4,
 186:..\..\u8g2\csrc/u8x8_d_ssd1306_64x48.c ****   /* data_setup_time_ns = */ 40,
 187:..\..\u8g2\csrc/u8x8_d_ssd1306_64x48.c ****   /* write_pulse_width_ns = */ 150,	/* SSD1306: cycle time is 300ns, so use 300/2 = 150 */
 188:..\..\u8g2\csrc/u8x8_d_ssd1306_64x48.c ****   /* tile_width = */ 8,
 189:..\..\u8g2\csrc/u8x8_d_ssd1306_64x48.c ****   /* tile_hight = */ 6,
 190:..\..\u8g2\csrc/u8x8_d_ssd1306_64x48.c ****   /* default_x_offset = */ 32,
 191:..\..\u8g2\csrc/u8x8_d_ssd1306_64x48.c ****   /* flipmode_x_offset = */ 32,
 192:..\..\u8g2\csrc/u8x8_d_ssd1306_64x48.c ****   /* pixel_width = */ 64,
 193:..\..\u8g2\csrc/u8x8_d_ssd1306_64x48.c ****   /* pixel_height = */ 48
 194:..\..\u8g2\csrc/u8x8_d_ssd1306_64x48.c **** };
 195:..\..\u8g2\csrc/u8x8_d_ssd1306_64x48.c **** 
 196:..\..\u8g2\csrc/u8x8_d_ssd1306_64x48.c **** /* East Rising 0.66" OLED */
 197:..\..\u8g2\csrc/u8x8_d_ssd1306_64x48.c **** uint8_t u8x8_d_ssd1306_64x48_er(u8x8_t *u8x8, uint8_t msg, uint8_t arg_int, void *arg_ptr)
 198:..\..\u8g2\csrc/u8x8_d_ssd1306_64x48.c **** {
 231              		.loc 1 198 0
 232              		.cfi_startproc
 233              		@ args = 0, pretend = 0, frame = 0
ARM GAS  C:\Users\Alan\AppData\Local\Temp\ccWWTBGW.s 			page 9


 234              		@ frame_needed = 0, uses_anonymous_args = 0
 235              	.LVL37:
 236 0000 10B5     		push	{r4, lr}
 237              		.cfi_def_cfa_offset 8
 238              		.cfi_offset 4, -8
 239              		.cfi_offset 14, -4
 240 0002 0400     		movs	r4, r0
 199:..\..\u8g2\csrc/u8x8_d_ssd1306_64x48.c ****     if ( msg == U8X8_MSG_DISPLAY_SETUP_MEMORY )
 241              		.loc 1 199 0
 242 0004 0929     		cmp	r1, #9
 243 0006 05D1     		bne	.L15
 200:..\..\u8g2\csrc/u8x8_d_ssd1306_64x48.c ****     {
 201:..\..\u8g2\csrc/u8x8_d_ssd1306_64x48.c ****       u8x8_d_helper_display_setup_memory(u8x8, &u8x8_ssd1306_64x48_display_info);
 244              		.loc 1 201 0
 245 0008 0949     		ldr	r1, .L18
 246              	.LVL38:
 247 000a 2031     		adds	r1, r1, #32
 248 000c FFF7FEFF 		bl	u8x8_d_helper_display_setup_memory
 249              	.LVL39:
 202:..\..\u8g2\csrc/u8x8_d_ssd1306_64x48.c ****       return 1;
 250              		.loc 1 202 0
 251 0010 0120     		movs	r0, #1
 252 0012 0CE0     		b	.L16
 253              	.LVL40:
 254              	.L15:
 203:..\..\u8g2\csrc/u8x8_d_ssd1306_64x48.c ****     }
 204:..\..\u8g2\csrc/u8x8_d_ssd1306_64x48.c ****     else if ( msg == U8X8_MSG_DISPLAY_INIT )
 255              		.loc 1 204 0
 256 0014 0A29     		cmp	r1, #10
 257 0016 08D1     		bne	.L17
 205:..\..\u8g2\csrc/u8x8_d_ssd1306_64x48.c ****     {
 206:..\..\u8g2\csrc/u8x8_d_ssd1306_64x48.c ****       u8x8_d_helper_display_init(u8x8);
 258              		.loc 1 206 0
 259 0018 FFF7FEFF 		bl	u8x8_d_helper_display_init
 260              	.LVL41:
 207:..\..\u8g2\csrc/u8x8_d_ssd1306_64x48.c ****       u8x8_cad_SendSequence(u8x8, u8x8_d_ssd1306_64x48_er_init_seq);    
 261              		.loc 1 207 0
 262 001c 0449     		ldr	r1, .L18
 263 001e 3831     		adds	r1, r1, #56
 264 0020 2000     		movs	r0, r4
 265 0022 FFF7FEFF 		bl	u8x8_cad_SendSequence
 266              	.LVL42:
 208:..\..\u8g2\csrc/u8x8_d_ssd1306_64x48.c ****       return 1;
 267              		.loc 1 208 0
 268 0026 0120     		movs	r0, #1
 269 0028 01E0     		b	.L16
 270              	.LVL43:
 271              	.L17:
 209:..\..\u8g2\csrc/u8x8_d_ssd1306_64x48.c ****     }
 210:..\..\u8g2\csrc/u8x8_d_ssd1306_64x48.c ****     return u8x8_d_ssd1306_64x48_generic(u8x8, msg, arg_int, arg_ptr);
 272              		.loc 1 210 0
 273 002a FFF7FEFF 		bl	u8x8_d_ssd1306_64x48_generic
 274              	.LVL44:
 275              	.L16:
 211:..\..\u8g2\csrc/u8x8_d_ssd1306_64x48.c **** }
 276              		.loc 1 211 0
 277              		@ sp needed
ARM GAS  C:\Users\Alan\AppData\Local\Temp\ccWWTBGW.s 			page 10


 278              	.LVL45:
 279 002e 10BD     		pop	{r4, pc}
 280              	.L19:
 281              		.align	2
 282              	.L18:
 283 0030 00000000 		.word	.LANCHOR0
 284              		.cfi_endproc
 285              	.LFE1:
 286              		.size	u8x8_d_ssd1306_64x48_er, .-u8x8_d_ssd1306_64x48_er
 287              		.section	.rodata
 288              		.align	2
 289              		.set	.LANCHOR0,. + 0
 290              		.type	u8x8_d_ssd1306_64x48_powersave0_seq, %object
 291              		.size	u8x8_d_ssd1306_64x48_powersave0_seq, 5
 292              	u8x8_d_ssd1306_64x48_powersave0_seq:
 293 0000 18       		.byte	24
 294 0001 15       		.byte	21
 295 0002 AF       		.byte	-81
 296 0003 19       		.byte	25
 297 0004 FF       		.byte	-1
 298 0005 000000   		.space	3
 299              		.type	u8x8_d_ssd1306_64x48_powersave1_seq, %object
 300              		.size	u8x8_d_ssd1306_64x48_powersave1_seq, 5
 301              	u8x8_d_ssd1306_64x48_powersave1_seq:
 302 0008 18       		.byte	24
 303 0009 15       		.byte	21
 304 000a AE       		.byte	-82
 305 000b 19       		.byte	25
 306 000c FF       		.byte	-1
 307 000d 000000   		.space	3
 308              		.type	u8x8_d_ssd1306_64x48_flip0_seq, %object
 309              		.size	u8x8_d_ssd1306_64x48_flip0_seq, 7
 310              	u8x8_d_ssd1306_64x48_flip0_seq:
 311 0010 18       		.byte	24
 312 0011 15       		.byte	21
 313 0012 A1       		.byte	-95
 314 0013 15       		.byte	21
 315 0014 C8       		.byte	-56
 316 0015 19       		.byte	25
 317 0016 FF       		.byte	-1
 318 0017 00       		.space	1
 319              		.type	u8x8_d_ssd1306_64x48_flip1_seq, %object
 320              		.size	u8x8_d_ssd1306_64x48_flip1_seq, 7
 321              	u8x8_d_ssd1306_64x48_flip1_seq:
 322 0018 18       		.byte	24
 323 0019 15       		.byte	21
 324 001a A0       		.byte	-96
 325 001b 15       		.byte	21
 326 001c C0       		.byte	-64
 327 001d 19       		.byte	25
 328 001e FF       		.byte	-1
 329 001f 00       		.space	1
 330              		.type	u8x8_ssd1306_64x48_display_info, %object
 331              		.size	u8x8_ssd1306_64x48_display_info, 24
 332              	u8x8_ssd1306_64x48_display_info:
 333 0020 00       		.byte	0
 334 0021 01       		.byte	1
ARM GAS  C:\Users\Alan\AppData\Local\Temp\ccWWTBGW.s 			page 11


 335 0022 14       		.byte	20
 336 0023 0A       		.byte	10
 337 0024 64       		.byte	100
 338 0025 64       		.byte	100
 339 0026 32       		.byte	50
 340 0027 32       		.byte	50
 341 0028 00093D00 		.word	4000000
 342 002c 00       		.byte	0
 343 002d 04       		.byte	4
 344 002e 28       		.byte	40
 345 002f 96       		.byte	-106
 346 0030 08       		.byte	8
 347 0031 06       		.byte	6
 348 0032 20       		.byte	32
 349 0033 20       		.byte	32
 350 0034 4000     		.short	64
 351 0036 3000     		.short	48
 352              		.type	u8x8_d_ssd1306_64x48_er_init_seq, %object
 353              		.size	u8x8_d_ssd1306_64x48_er_init_seq, 53
 354              	u8x8_d_ssd1306_64x48_er_init_seq:
 355 0038 18       		.byte	24
 356 0039 15       		.byte	21
 357 003a AE       		.byte	-82
 358 003b 15       		.byte	21
 359 003c D5       		.byte	-43
 360 003d 16       		.byte	22
 361 003e 80       		.byte	-128
 362 003f 15       		.byte	21
 363 0040 A8       		.byte	-88
 364 0041 16       		.byte	22
 365 0042 2F       		.byte	47
 366 0043 15       		.byte	21
 367 0044 D3       		.byte	-45
 368 0045 16       		.byte	22
 369 0046 00       		.byte	0
 370 0047 15       		.byte	21
 371 0048 40       		.byte	64
 372 0049 15       		.byte	21
 373 004a 8D       		.byte	-115
 374 004b 16       		.byte	22
 375 004c 14       		.byte	20
 376 004d 15       		.byte	21
 377 004e 20       		.byte	32
 378 004f 16       		.byte	22
 379 0050 00       		.byte	0
 380 0051 15       		.byte	21
 381 0052 A1       		.byte	-95
 382 0053 15       		.byte	21
 383 0054 C8       		.byte	-56
 384 0055 15       		.byte	21
 385 0056 DA       		.byte	-38
 386 0057 16       		.byte	22
 387 0058 12       		.byte	18
 388 0059 15       		.byte	21
 389 005a 81       		.byte	-127
 390 005b 16       		.byte	22
 391 005c CF       		.byte	-49
ARM GAS  C:\Users\Alan\AppData\Local\Temp\ccWWTBGW.s 			page 12


 392 005d 15       		.byte	21
 393 005e D9       		.byte	-39
 394 005f 16       		.byte	22
 395 0060 22       		.byte	34
 396 0061 15       		.byte	21
 397 0062 DB       		.byte	-37
 398 0063 16       		.byte	22
 399 0064 00       		.byte	0
 400 0065 15       		.byte	21
 401 0066 2E       		.byte	46
 402 0067 15       		.byte	21
 403 0068 A4       		.byte	-92
 404 0069 15       		.byte	21
 405 006a A6       		.byte	-90
 406 006b 19       		.byte	25
 407 006c FF       		.byte	-1
 408              		.text
 409              	.Letext0:
 410              		.file 2 "c:\\program files (x86)\\cypress\\psoc creator\\4.1\\psoc creator\\import\\gnu\\arm\\5.4.
 411              		.file 3 "c:\\program files (x86)\\cypress\\psoc creator\\4.1\\psoc creator\\import\\gnu\\arm\\5.4.
 412              		.file 4 "..\\..\\u8g2\\csrc\\u8x8.h"