ARM GAS  C:\Users\arh\AppData\Local\Temp\ccLlhgbi.s 			page 1


   1              		.syntax unified
   2              		.cpu cortex-m0
   3              		.fpu softvfp
   4              		.eabi_attribute 20, 1
   5              		.eabi_attribute 21, 1
   6              		.eabi_attribute 23, 3
   7              		.eabi_attribute 24, 1
   8              		.eabi_attribute 25, 1
   9              		.eabi_attribute 26, 1
  10              		.eabi_attribute 30, 1
  11              		.eabi_attribute 34, 0
  12              		.eabi_attribute 18, 4
  13              		.thumb
  14              		.syntax unified
  15              		.file	"u8x8_string.c"
  16              		.text
  17              	.Ltext0:
  18              		.cfi_sections	.debug_frame
  19              		.section	.text.u8x8_GetStringLineCnt,"ax",%progbits
  20              		.align	2
  21              		.global	u8x8_GetStringLineCnt
  22              		.code	16
  23              		.thumb_func
  24              		.type	u8x8_GetStringLineCnt, %function
  25              	u8x8_GetStringLineCnt:
  26              	.LFB0:
  27              		.file 1 "..\\..\\u8g2\\csrc\\u8x8_string.c"
   1:..\..\u8g2\csrc/u8x8_string.c **** /*
   2:..\..\u8g2\csrc/u8x8_string.c **** 
   3:..\..\u8g2\csrc/u8x8_string.c ****   u8x8_string.c
   4:..\..\u8g2\csrc/u8x8_string.c ****   
   5:..\..\u8g2\csrc/u8x8_string.c ****   string line procedures
   6:..\..\u8g2\csrc/u8x8_string.c ****   
   7:..\..\u8g2\csrc/u8x8_string.c ****   Universal 8bit Graphics Library (https://github.com/olikraus/u8g2/)
   8:..\..\u8g2\csrc/u8x8_string.c **** 
   9:..\..\u8g2\csrc/u8x8_string.c ****   Copyright (c) 2016, olikraus@gmail.com
  10:..\..\u8g2\csrc/u8x8_string.c ****   All rights reserved.
  11:..\..\u8g2\csrc/u8x8_string.c **** 
  12:..\..\u8g2\csrc/u8x8_string.c ****   Redistribution and use in source and binary forms, with or without modification, 
  13:..\..\u8g2\csrc/u8x8_string.c ****   are permitted provided that the following conditions are met:
  14:..\..\u8g2\csrc/u8x8_string.c **** 
  15:..\..\u8g2\csrc/u8x8_string.c ****   * Redistributions of source code must retain the above copyright notice, this list 
  16:..\..\u8g2\csrc/u8x8_string.c ****     of conditions and the following disclaimer.
  17:..\..\u8g2\csrc/u8x8_string.c ****     
  18:..\..\u8g2\csrc/u8x8_string.c ****   * Redistributions in binary form must reproduce the above copyright notice, this 
  19:..\..\u8g2\csrc/u8x8_string.c ****     list of conditions and the following disclaimer in the documentation and/or other 
  20:..\..\u8g2\csrc/u8x8_string.c ****     materials provided with the distribution.
  21:..\..\u8g2\csrc/u8x8_string.c **** 
  22:..\..\u8g2\csrc/u8x8_string.c ****   THIS SOFTWARE IS PROVIDED BY THE COPYRIGHT HOLDERS AND 
  23:..\..\u8g2\csrc/u8x8_string.c ****   CONTRIBUTORS "AS IS" AND ANY EXPRESS OR IMPLIED WARRANTIES, 
  24:..\..\u8g2\csrc/u8x8_string.c ****   INCLUDING, BUT NOT LIMITED TO, THE IMPLIED WARRANTIES OF 
  25:..\..\u8g2\csrc/u8x8_string.c ****   MERCHANTABILITY AND FITNESS FOR A PARTICULAR PURPOSE ARE 
  26:..\..\u8g2\csrc/u8x8_string.c ****   DISCLAIMED. IN NO EVENT SHALL THE COPYRIGHT HOLDER OR 
  27:..\..\u8g2\csrc/u8x8_string.c ****   CONTRIBUTORS BE LIABLE FOR ANY DIRECT, INDIRECT, INCIDENTAL, 
  28:..\..\u8g2\csrc/u8x8_string.c ****   SPECIAL, EXEMPLARY, OR CONSEQUENTIAL DAMAGES (INCLUDING, BUT 
  29:..\..\u8g2\csrc/u8x8_string.c ****   NOT LIMITED TO, PROCUREMENT OF SUBSTITUTE GOODS OR SERVICES; 
  30:..\..\u8g2\csrc/u8x8_string.c ****   LOSS OF USE, DATA, OR PROFITS; OR BUSINESS INTERRUPTION) HOWEVER 
ARM GAS  C:\Users\arh\AppData\Local\Temp\ccLlhgbi.s 			page 2


  31:..\..\u8g2\csrc/u8x8_string.c ****   CAUSED AND ON ANY THEORY OF LIABILITY, WHETHER IN CONTRACT, 
  32:..\..\u8g2\csrc/u8x8_string.c ****   STRICT LIABILITY, OR TORT (INCLUDING NEGLIGENCE OR OTHERWISE) 
  33:..\..\u8g2\csrc/u8x8_string.c ****   ARISING IN ANY WAY OUT OF THE USE OF THIS SOFTWARE, EVEN IF 
  34:..\..\u8g2\csrc/u8x8_string.c ****   ADVISED OF THE POSSIBILITY OF SUCH DAMAGE.    
  35:..\..\u8g2\csrc/u8x8_string.c **** 
  36:..\..\u8g2\csrc/u8x8_string.c **** */
  37:..\..\u8g2\csrc/u8x8_string.c **** 
  38:..\..\u8g2\csrc/u8x8_string.c **** #include "u8x8.h"
  39:..\..\u8g2\csrc/u8x8_string.c **** 
  40:..\..\u8g2\csrc/u8x8_string.c **** uint8_t u8x8_GetStringLineCnt(const char *str)
  41:..\..\u8g2\csrc/u8x8_string.c **** {
  28              		.loc 1 41 0
  29              		.cfi_startproc
  30              		@ args = 0, pretend = 0, frame = 0
  31              		@ frame_needed = 0, uses_anonymous_args = 0
  32              		@ link register save eliminated.
  33              	.LVL0:
  42:..\..\u8g2\csrc/u8x8_string.c ****   char e;
  43:..\..\u8g2\csrc/u8x8_string.c ****   uint8_t line_cnt = 1;
  44:..\..\u8g2\csrc/u8x8_string.c ****   if ( str == NULL )
  34              		.loc 1 44 0
  35 0000 0028     		cmp	r0, #0
  36 0002 09D0     		beq	.L5
  37 0004 0122     		movs	r2, #1
  38              	.LVL1:
  39              	.L3:
  45:..\..\u8g2\csrc/u8x8_string.c ****     return 0;
  46:..\..\u8g2\csrc/u8x8_string.c ****   for(;;)
  47:..\..\u8g2\csrc/u8x8_string.c ****   {
  48:..\..\u8g2\csrc/u8x8_string.c ****     e = *str;
  40              		.loc 1 48 0
  41 0006 0378     		ldrb	r3, [r0]
  42              	.LVL2:
  49:..\..\u8g2\csrc/u8x8_string.c ****     if ( e == '\0' )
  43              		.loc 1 49 0
  44 0008 002B     		cmp	r3, #0
  45 000a 07D0     		beq	.L6
  50:..\..\u8g2\csrc/u8x8_string.c ****       break;
  51:..\..\u8g2\csrc/u8x8_string.c ****     str++;
  46              		.loc 1 51 0
  47 000c 0130     		adds	r0, r0, #1
  48              	.LVL3:
  52:..\..\u8g2\csrc/u8x8_string.c ****     if ( e == '\n' )
  49              		.loc 1 52 0
  50 000e 0A2B     		cmp	r3, #10
  51 0010 F9D1     		bne	.L3
  53:..\..\u8g2\csrc/u8x8_string.c ****       line_cnt++;
  52              		.loc 1 53 0
  53 0012 0132     		adds	r2, r2, #1
  54              	.LVL4:
  55 0014 D2B2     		uxtb	r2, r2
  56              	.LVL5:
  57 0016 F6E7     		b	.L3
  58              	.LVL6:
  59              	.L5:
  45:..\..\u8g2\csrc/u8x8_string.c ****   for(;;)
  60              		.loc 1 45 0
ARM GAS  C:\Users\arh\AppData\Local\Temp\ccLlhgbi.s 			page 3


  61 0018 0020     		movs	r0, #0
  62              	.LVL7:
  63 001a 00E0     		b	.L2
  64              	.LVL8:
  65              	.L6:
  54:..\..\u8g2\csrc/u8x8_string.c ****   }
  55:..\..\u8g2\csrc/u8x8_string.c ****   return line_cnt;
  66              		.loc 1 55 0
  67 001c 1000     		movs	r0, r2
  68              	.LVL9:
  69              	.L2:
  56:..\..\u8g2\csrc/u8x8_string.c **** }
  70              		.loc 1 56 0
  71              		@ sp needed
  72 001e 7047     		bx	lr
  73              		.cfi_endproc
  74              	.LFE0:
  75              		.size	u8x8_GetStringLineCnt, .-u8x8_GetStringLineCnt
  76              		.section	.text.u8x8_GetStringLineStart,"ax",%progbits
  77              		.align	2
  78              		.global	u8x8_GetStringLineStart
  79              		.code	16
  80              		.thumb_func
  81              		.type	u8x8_GetStringLineStart, %function
  82              	u8x8_GetStringLineStart:
  83              	.LFB1:
  57:..\..\u8g2\csrc/u8x8_string.c **** 
  58:..\..\u8g2\csrc/u8x8_string.c **** 
  59:..\..\u8g2\csrc/u8x8_string.c **** /*
  60:..\..\u8g2\csrc/u8x8_string.c ****     Assumes strings, separated by '\n' in "str".
  61:..\..\u8g2\csrc/u8x8_string.c ****     Returns the string at index "line_idx". First strng has line_idx = 0
  62:..\..\u8g2\csrc/u8x8_string.c ****     Example:
  63:..\..\u8g2\csrc/u8x8_string.c ****       Returns "xyz" for line_idx = 1 with str = "abc\nxyz"
  64:..\..\u8g2\csrc/u8x8_string.c ****     Support both UTF8 and normal strings.
  65:..\..\u8g2\csrc/u8x8_string.c **** */
  66:..\..\u8g2\csrc/u8x8_string.c **** const char *u8x8_GetStringLineStart(uint8_t line_idx, const char *str )
  67:..\..\u8g2\csrc/u8x8_string.c **** {
  84              		.loc 1 67 0
  85              		.cfi_startproc
  86              		@ args = 0, pretend = 0, frame = 0
  87              		@ frame_needed = 0, uses_anonymous_args = 0
  88              		@ link register save eliminated.
  89              	.LVL10:
  68:..\..\u8g2\csrc/u8x8_string.c ****   char e;
  69:..\..\u8g2\csrc/u8x8_string.c ****   uint8_t line_cnt = 1;
  70:..\..\u8g2\csrc/u8x8_string.c ****   
  71:..\..\u8g2\csrc/u8x8_string.c ****   if ( line_idx == 0 )
  90              		.loc 1 71 0
  91 0000 0028     		cmp	r0, #0
  92 0002 0BD0     		beq	.L11
  93 0004 0122     		movs	r2, #1
  94              	.LVL11:
  95              	.L9:
  72:..\..\u8g2\csrc/u8x8_string.c ****     return str;
  73:..\..\u8g2\csrc/u8x8_string.c **** 
  74:..\..\u8g2\csrc/u8x8_string.c ****   for(;;)
  75:..\..\u8g2\csrc/u8x8_string.c ****   {
ARM GAS  C:\Users\arh\AppData\Local\Temp\ccLlhgbi.s 			page 4


  76:..\..\u8g2\csrc/u8x8_string.c ****     e = *str;
  96              		.loc 1 76 0
  97 0006 0B78     		ldrb	r3, [r1]
  98              	.LVL12:
  77:..\..\u8g2\csrc/u8x8_string.c ****     if ( e == '\0' )
  99              		.loc 1 77 0
 100 0008 002B     		cmp	r3, #0
 101 000a 09D0     		beq	.L12
  78:..\..\u8g2\csrc/u8x8_string.c ****       break;
  79:..\..\u8g2\csrc/u8x8_string.c ****     str++;
 102              		.loc 1 79 0
 103 000c 0131     		adds	r1, r1, #1
 104              	.LVL13:
  80:..\..\u8g2\csrc/u8x8_string.c ****     if ( e == '\n' )
 105              		.loc 1 80 0
 106 000e 0A2B     		cmp	r3, #10
 107 0010 F9D1     		bne	.L9
  81:..\..\u8g2\csrc/u8x8_string.c ****     {
  82:..\..\u8g2\csrc/u8x8_string.c ****       if ( line_cnt == line_idx )
 108              		.loc 1 82 0
 109 0012 8242     		cmp	r2, r0
 110 0014 06D0     		beq	.L13
  83:..\..\u8g2\csrc/u8x8_string.c **** 	return str;
  84:..\..\u8g2\csrc/u8x8_string.c ****       line_cnt++;
 111              		.loc 1 84 0
 112 0016 0132     		adds	r2, r2, #1
 113              	.LVL14:
 114 0018 D2B2     		uxtb	r2, r2
 115              	.LVL15:
 116 001a F4E7     		b	.L9
 117              	.LVL16:
 118              	.L11:
  72:..\..\u8g2\csrc/u8x8_string.c **** 
 119              		.loc 1 72 0
 120 001c 0800     		movs	r0, r1
 121              	.LVL17:
 122 001e 02E0     		b	.L8
 123              	.LVL18:
 124              	.L12:
  85:..\..\u8g2\csrc/u8x8_string.c ****     }
  86:..\..\u8g2\csrc/u8x8_string.c ****   }
  87:..\..\u8g2\csrc/u8x8_string.c ****   return NULL;	/* line not found */
 125              		.loc 1 87 0
 126 0020 0020     		movs	r0, #0
 127              	.LVL19:
 128 0022 00E0     		b	.L8
 129              	.LVL20:
 130              	.L13:
  83:..\..\u8g2\csrc/u8x8_string.c ****       line_cnt++;
 131              		.loc 1 83 0
 132 0024 0800     		movs	r0, r1
 133              	.LVL21:
 134              	.L8:
  88:..\..\u8g2\csrc/u8x8_string.c **** }
 135              		.loc 1 88 0
 136              		@ sp needed
 137 0026 7047     		bx	lr
ARM GAS  C:\Users\arh\AppData\Local\Temp\ccLlhgbi.s 			page 5


 138              		.cfi_endproc
 139              	.LFE1:
 140              		.size	u8x8_GetStringLineStart, .-u8x8_GetStringLineStart
 141              		.section	.text.u8x8_CopyStringLine,"ax",%progbits
 142              		.align	2
 143              		.global	u8x8_CopyStringLine
 144              		.code	16
 145              		.thumb_func
 146              		.type	u8x8_CopyStringLine, %function
 147              	u8x8_CopyStringLine:
 148              	.LFB2:
  89:..\..\u8g2\csrc/u8x8_string.c **** 
  90:..\..\u8g2\csrc/u8x8_string.c **** /* copy until first '\n' or '\0' in str */
  91:..\..\u8g2\csrc/u8x8_string.c **** /* Important: There is no string overflow check, ensure */
  92:..\..\u8g2\csrc/u8x8_string.c **** /* that the destination buffer is large enough */
  93:..\..\u8g2\csrc/u8x8_string.c **** void u8x8_CopyStringLine(char *dest, uint8_t line_idx, const char *str)
  94:..\..\u8g2\csrc/u8x8_string.c **** {
 149              		.loc 1 94 0
 150              		.cfi_startproc
 151              		@ args = 0, pretend = 0, frame = 0
 152              		@ frame_needed = 0, uses_anonymous_args = 0
 153              	.LVL22:
 154 0000 10B5     		push	{r4, lr}
 155              		.cfi_def_cfa_offset 8
 156              		.cfi_offset 4, -8
 157              		.cfi_offset 14, -4
 158 0002 0400     		movs	r4, r0
 159 0004 0800     		movs	r0, r1
 160              	.LVL23:
  95:..\..\u8g2\csrc/u8x8_string.c ****   if ( dest == NULL )
 161              		.loc 1 95 0
 162 0006 002C     		cmp	r4, #0
 163 0008 0FD0     		beq	.L14
  96:..\..\u8g2\csrc/u8x8_string.c ****     return;
  97:..\..\u8g2\csrc/u8x8_string.c ****   str = u8x8_GetStringLineStart( line_idx, str );
 164              		.loc 1 97 0
 165 000a 1100     		movs	r1, r2
 166              	.LVL24:
 167 000c FFF7FEFF 		bl	u8x8_GetStringLineStart
 168              	.LVL25:
  98:..\..\u8g2\csrc/u8x8_string.c ****   if ( str != NULL )
 169              		.loc 1 98 0
 170 0010 0028     		cmp	r0, #0
 171 0012 08D0     		beq	.L16
 172              	.L17:
  99:..\..\u8g2\csrc/u8x8_string.c ****   {
 100:..\..\u8g2\csrc/u8x8_string.c ****     for(;;)
 101:..\..\u8g2\csrc/u8x8_string.c ****     {
 102:..\..\u8g2\csrc/u8x8_string.c ****       if ( *str == '\n' || *str == '\0' )
 173              		.loc 1 102 0
 174 0014 0378     		ldrb	r3, [r0]
 175 0016 0A2B     		cmp	r3, #10
 176 0018 05D0     		beq	.L16
 177              		.loc 1 102 0 is_stmt 0 discriminator 1
 178 001a 002B     		cmp	r3, #0
 179 001c 03D0     		beq	.L16
 103:..\..\u8g2\csrc/u8x8_string.c **** 	break;
ARM GAS  C:\Users\arh\AppData\Local\Temp\ccLlhgbi.s 			page 6


 104:..\..\u8g2\csrc/u8x8_string.c ****       *dest = *str;
 180              		.loc 1 104 0 is_stmt 1
 181 001e 2370     		strb	r3, [r4]
 105:..\..\u8g2\csrc/u8x8_string.c ****       dest++;
 182              		.loc 1 105 0
 183 0020 0134     		adds	r4, r4, #1
 184              	.LVL26:
 106:..\..\u8g2\csrc/u8x8_string.c ****       str++;
 185              		.loc 1 106 0
 186 0022 0130     		adds	r0, r0, #1
 187              	.LVL27:
 107:..\..\u8g2\csrc/u8x8_string.c ****     }
 188              		.loc 1 107 0
 189 0024 F6E7     		b	.L17
 190              	.L16:
 108:..\..\u8g2\csrc/u8x8_string.c ****   }
 109:..\..\u8g2\csrc/u8x8_string.c ****   *dest = '\0';
 191              		.loc 1 109 0
 192 0026 0023     		movs	r3, #0
 193 0028 2370     		strb	r3, [r4]
 194              	.LVL28:
 195              	.L14:
 110:..\..\u8g2\csrc/u8x8_string.c **** }
 196              		.loc 1 110 0
 197              		@ sp needed
 198              	.LVL29:
 199 002a 10BD     		pop	{r4, pc}
 200              		.cfi_endproc
 201              	.LFE2:
 202              		.size	u8x8_CopyStringLine, .-u8x8_CopyStringLine
 203              		.section	.text.u8x8_DrawUTF8Line,"ax",%progbits
 204              		.align	2
 205              		.global	u8x8_DrawUTF8Line
 206              		.code	16
 207              		.thumb_func
 208              		.type	u8x8_DrawUTF8Line, %function
 209              	u8x8_DrawUTF8Line:
 210              	.LFB3:
 111:..\..\u8g2\csrc/u8x8_string.c **** 
 112:..\..\u8g2\csrc/u8x8_string.c **** /*
 113:..\..\u8g2\csrc/u8x8_string.c ****   Draw a string
 114:..\..\u8g2\csrc/u8x8_string.c ****   Extend the string to size "w"
 115:..\..\u8g2\csrc/u8x8_string.c ****   Center the string within "w"
 116:..\..\u8g2\csrc/u8x8_string.c ****   return the size of the string
 117:..\..\u8g2\csrc/u8x8_string.c **** 
 118:..\..\u8g2\csrc/u8x8_string.c **** */
 119:..\..\u8g2\csrc/u8x8_string.c **** uint8_t u8x8_DrawUTF8Line(u8x8_t *u8x8, uint8_t x, uint8_t y, uint8_t w, const char *s)
 120:..\..\u8g2\csrc/u8x8_string.c **** {
 211              		.loc 1 120 0
 212              		.cfi_startproc
 213              		@ args = 4, pretend = 0, frame = 8
 214              		@ frame_needed = 0, uses_anonymous_args = 0
 215              	.LVL30:
 216 0000 F0B5     		push	{r4, r5, r6, r7, lr}
 217              		.cfi_def_cfa_offset 20
 218              		.cfi_offset 4, -20
 219              		.cfi_offset 5, -16
ARM GAS  C:\Users\arh\AppData\Local\Temp\ccLlhgbi.s 			page 7


 220              		.cfi_offset 6, -12
 221              		.cfi_offset 7, -8
 222              		.cfi_offset 14, -4
 223 0002 4746     		mov	r7, r8
 224 0004 80B4     		push	{r7}
 225              		.cfi_def_cfa_offset 24
 226              		.cfi_offset 8, -24
 227 0006 82B0     		sub	sp, sp, #8
 228              		.cfi_def_cfa_offset 32
 229 0008 0500     		movs	r5, r0
 230 000a 0F00     		movs	r7, r1
 231 000c 0192     		str	r2, [sp, #4]
 232 000e 9846     		mov	r8, r3
 233              	.LVL31:
 121:..\..\u8g2\csrc/u8x8_string.c ****   uint8_t d, lw;
 122:..\..\u8g2\csrc/u8x8_string.c ****   uint8_t cx, dx;
 123:..\..\u8g2\csrc/u8x8_string.c ****     
 124:..\..\u8g2\csrc/u8x8_string.c ****   d = 0;
 125:..\..\u8g2\csrc/u8x8_string.c ****   
 126:..\..\u8g2\csrc/u8x8_string.c ****   lw = u8x8_GetUTF8Len(u8x8, s);
 234              		.loc 1 126 0
 235 0010 0899     		ldr	r1, [sp, #32]
 236              	.LVL32:
 237 0012 FFF7FEFF 		bl	u8x8_GetUTF8Len
 238              	.LVL33:
 127:..\..\u8g2\csrc/u8x8_string.c ****   if ( lw < w )
 239              		.loc 1 127 0
 240 0016 4045     		cmp	r0, r8
 241 0018 04D2     		bcs	.L24
 242              	.LVL34:
 128:..\..\u8g2\csrc/u8x8_string.c ****   {
 129:..\..\u8g2\csrc/u8x8_string.c ****     d = w;
 130:..\..\u8g2\csrc/u8x8_string.c ****     d -=lw;
 243              		.loc 1 130 0
 244 001a 4346     		mov	r3, r8
 245 001c 181A     		subs	r0, r3, r0
 246              	.LVL35:
 247 001e C0B2     		uxtb	r0, r0
 248              	.LVL36:
 131:..\..\u8g2\csrc/u8x8_string.c ****     d /= 2;
 249              		.loc 1 131 0
 250 0020 4008     		lsrs	r0, r0, #1
 251              	.LVL37:
 252 0022 00E0     		b	.L19
 253              	.LVL38:
 254              	.L24:
 124:..\..\u8g2\csrc/u8x8_string.c ****   
 255              		.loc 1 124 0
 256 0024 0020     		movs	r0, #0
 257              	.LVL39:
 258              	.L19:
 132:..\..\u8g2\csrc/u8x8_string.c ****   }
 133:..\..\u8g2\csrc/u8x8_string.c ****     
 134:..\..\u8g2\csrc/u8x8_string.c ****   cx = x;
 135:..\..\u8g2\csrc/u8x8_string.c ****   dx = cx + d;
 259              		.loc 1 135 0
 260 0026 C019     		adds	r0, r0, r7
ARM GAS  C:\Users\arh\AppData\Local\Temp\ccLlhgbi.s 			page 8


 261              	.LVL40:
 262 0028 C6B2     		uxtb	r6, r0
 263              	.LVL41:
 134:..\..\u8g2\csrc/u8x8_string.c ****   dx = cx + d;
 264              		.loc 1 134 0
 265 002a 3C00     		movs	r4, r7
 136:..\..\u8g2\csrc/u8x8_string.c ****   while( cx < dx )
 266              		.loc 1 136 0
 267 002c 07E0     		b	.L20
 268              	.LVL42:
 269              	.L21:
 137:..\..\u8g2\csrc/u8x8_string.c ****   {
 138:..\..\u8g2\csrc/u8x8_string.c ****     u8x8_DrawUTF8(u8x8, cx, y, " ");
 270              		.loc 1 138 0
 271 002e 134B     		ldr	r3, .L25
 272 0030 019A     		ldr	r2, [sp, #4]
 273 0032 2100     		movs	r1, r4
 274 0034 2800     		movs	r0, r5
 275 0036 FFF7FEFF 		bl	u8x8_DrawUTF8
 276              	.LVL43:
 139:..\..\u8g2\csrc/u8x8_string.c ****     cx++;
 277              		.loc 1 139 0
 278 003a 0134     		adds	r4, r4, #1
 279              	.LVL44:
 280 003c E4B2     		uxtb	r4, r4
 281              	.LVL45:
 282              	.L20:
 136:..\..\u8g2\csrc/u8x8_string.c ****   while( cx < dx )
 283              		.loc 1 136 0
 284 003e B442     		cmp	r4, r6
 285 0040 F5D3     		bcc	.L21
 140:..\..\u8g2\csrc/u8x8_string.c ****   }
 141:..\..\u8g2\csrc/u8x8_string.c ****   cx += u8x8_DrawUTF8(u8x8, cx, y, s);
 286              		.loc 1 141 0
 287 0042 089B     		ldr	r3, [sp, #32]
 288 0044 019A     		ldr	r2, [sp, #4]
 289 0046 2100     		movs	r1, r4
 290 0048 2800     		movs	r0, r5
 291 004a FFF7FEFF 		bl	u8x8_DrawUTF8
 292              	.LVL46:
 293 004e 2018     		adds	r0, r4, r0
 294 0050 C4B2     		uxtb	r4, r0
 295              	.LVL47:
 142:..\..\u8g2\csrc/u8x8_string.c ****   dx = x + w;
 296              		.loc 1 142 0
 297 0052 4346     		mov	r3, r8
 298 0054 DB19     		adds	r3, r3, r7
 299 0056 DEB2     		uxtb	r6, r3
 300              	.LVL48:
 143:..\..\u8g2\csrc/u8x8_string.c ****   while( cx < dx )
 301              		.loc 1 143 0
 302 0058 07E0     		b	.L22
 303              	.L23:
 144:..\..\u8g2\csrc/u8x8_string.c ****   {
 145:..\..\u8g2\csrc/u8x8_string.c ****     u8x8_DrawUTF8(u8x8, cx, y, " ");
 304              		.loc 1 145 0
 305 005a 084B     		ldr	r3, .L25
ARM GAS  C:\Users\arh\AppData\Local\Temp\ccLlhgbi.s 			page 9


 306 005c 019A     		ldr	r2, [sp, #4]
 307 005e 2100     		movs	r1, r4
 308 0060 2800     		movs	r0, r5
 309 0062 FFF7FEFF 		bl	u8x8_DrawUTF8
 310              	.LVL49:
 146:..\..\u8g2\csrc/u8x8_string.c ****     cx++;
 311              		.loc 1 146 0
 312 0066 0134     		adds	r4, r4, #1
 313              	.LVL50:
 314 0068 E4B2     		uxtb	r4, r4
 315              	.LVL51:
 316              	.L22:
 143:..\..\u8g2\csrc/u8x8_string.c ****   while( cx < dx )
 317              		.loc 1 143 0
 318 006a B442     		cmp	r4, r6
 319 006c F5D3     		bcc	.L23
 147:..\..\u8g2\csrc/u8x8_string.c ****   }
 148:..\..\u8g2\csrc/u8x8_string.c ****   cx -= x;
 320              		.loc 1 148 0
 321 006e E01B     		subs	r0, r4, r7
 322 0070 C0B2     		uxtb	r0, r0
 323              	.LVL52:
 149:..\..\u8g2\csrc/u8x8_string.c ****   return cx;
 150:..\..\u8g2\csrc/u8x8_string.c **** }
 324              		.loc 1 150 0
 325 0072 02B0     		add	sp, sp, #8
 326              		@ sp needed
 327              	.LVL53:
 328              	.LVL54:
 329              	.LVL55:
 330 0074 04BC     		pop	{r2}
 331 0076 9046     		mov	r8, r2
 332 0078 F0BD     		pop	{r4, r5, r6, r7, pc}
 333              	.L26:
 334 007a C046     		.align	2
 335              	.L25:
 336 007c 00000000 		.word	.LC0
 337              		.cfi_endproc
 338              	.LFE3:
 339              		.size	u8x8_DrawUTF8Line, .-u8x8_DrawUTF8Line
 340              		.section	.text.u8x8_DrawUTF8Lines,"ax",%progbits
 341              		.align	2
 342              		.global	u8x8_DrawUTF8Lines
 343              		.code	16
 344              		.thumb_func
 345              		.type	u8x8_DrawUTF8Lines, %function
 346              	u8x8_DrawUTF8Lines:
 347              	.LFB4:
 151:..\..\u8g2\csrc/u8x8_string.c **** 
 152:..\..\u8g2\csrc/u8x8_string.c **** /*
 153:..\..\u8g2\csrc/u8x8_string.c ****   draw several lines at position x,y.
 154:..\..\u8g2\csrc/u8x8_string.c ****   lines are stored in s and must be separated with '\n'.
 155:..\..\u8g2\csrc/u8x8_string.c ****   lines can be centered with respect to "w" 
 156:..\..\u8g2\csrc/u8x8_string.c ****   if s == NULL nothing is drawn and 0 is returned
 157:..\..\u8g2\csrc/u8x8_string.c ****   returns the number of lines in s
 158:..\..\u8g2\csrc/u8x8_string.c **** */
 159:..\..\u8g2\csrc/u8x8_string.c **** uint8_t u8x8_DrawUTF8Lines(u8x8_t *u8x8, uint8_t x, uint8_t y, uint8_t w, const char *s)
ARM GAS  C:\Users\arh\AppData\Local\Temp\ccLlhgbi.s 			page 10


 160:..\..\u8g2\csrc/u8x8_string.c **** {
 348              		.loc 1 160 0
 349              		.cfi_startproc
 350              		@ args = 4, pretend = 0, frame = 16
 351              		@ frame_needed = 0, uses_anonymous_args = 0
 352              	.LVL56:
 353 0000 F0B5     		push	{r4, r5, r6, r7, lr}
 354              		.cfi_def_cfa_offset 20
 355              		.cfi_offset 4, -20
 356              		.cfi_offset 5, -16
 357              		.cfi_offset 6, -12
 358              		.cfi_offset 7, -8
 359              		.cfi_offset 14, -4
 360 0002 87B0     		sub	sp, sp, #28
 361              		.cfi_def_cfa_offset 48
 362 0004 0600     		movs	r6, r0
 363 0006 0391     		str	r1, [sp, #12]
 364 0008 1500     		movs	r5, r2
 365 000a 0493     		str	r3, [sp, #16]
 161:..\..\u8g2\csrc/u8x8_string.c ****   uint8_t i;
 162:..\..\u8g2\csrc/u8x8_string.c ****   uint8_t cnt;
 163:..\..\u8g2\csrc/u8x8_string.c ****   cnt = u8x8_GetStringLineCnt(s);
 366              		.loc 1 163 0
 367 000c 0C98     		ldr	r0, [sp, #48]
 368              	.LVL57:
 369 000e FFF7FEFF 		bl	u8x8_GetStringLineCnt
 370              	.LVL58:
 371 0012 0590     		str	r0, [sp, #20]
 372 0014 0400     		movs	r4, r0
 373              	.LVL59:
 164:..\..\u8g2\csrc/u8x8_string.c ****   for( i = 0; i < cnt; i++ )
 374              		.loc 1 164 0
 375 0016 0027     		movs	r7, #0
 376 0018 0EE0     		b	.L28
 377              	.LVL60:
 378              	.L29:
 165:..\..\u8g2\csrc/u8x8_string.c ****   {
 166:..\..\u8g2\csrc/u8x8_string.c ****     u8x8_DrawUTF8Line(u8x8, x, y, w, u8x8_GetStringLineStart(i, s));
 379              		.loc 1 166 0 discriminator 3
 380 001a 0C99     		ldr	r1, [sp, #48]
 381 001c 3800     		movs	r0, r7
 382 001e FFF7FEFF 		bl	u8x8_GetStringLineStart
 383              	.LVL61:
 384 0022 0090     		str	r0, [sp]
 385 0024 049B     		ldr	r3, [sp, #16]
 386 0026 2A00     		movs	r2, r5
 387 0028 0399     		ldr	r1, [sp, #12]
 388 002a 3000     		movs	r0, r6
 389 002c FFF7FEFF 		bl	u8x8_DrawUTF8Line
 390              	.LVL62:
 167:..\..\u8g2\csrc/u8x8_string.c ****     y++;
 391              		.loc 1 167 0 discriminator 3
 392 0030 6B1C     		adds	r3, r5, #1
 393 0032 DDB2     		uxtb	r5, r3
 394              	.LVL63:
 164:..\..\u8g2\csrc/u8x8_string.c ****   for( i = 0; i < cnt; i++ )
 395              		.loc 1 164 0 discriminator 3
ARM GAS  C:\Users\arh\AppData\Local\Temp\ccLlhgbi.s 			page 11


 396 0034 7B1C     		adds	r3, r7, #1
 397 0036 DFB2     		uxtb	r7, r3
 398              	.LVL64:
 399              	.L28:
 164:..\..\u8g2\csrc/u8x8_string.c ****   for( i = 0; i < cnt; i++ )
 400              		.loc 1 164 0 is_stmt 0 discriminator 1
 401 0038 A742     		cmp	r7, r4
 402 003a EED3     		bcc	.L29
 168:..\..\u8g2\csrc/u8x8_string.c ****   }
 169:..\..\u8g2\csrc/u8x8_string.c ****   return cnt;
 170:..\..\u8g2\csrc/u8x8_string.c **** }
 403              		.loc 1 170 0 is_stmt 1
 404 003c 0598     		ldr	r0, [sp, #20]
 405 003e 07B0     		add	sp, sp, #28
 406              		@ sp needed
 407              	.LVL65:
 408              	.LVL66:
 409              	.LVL67:
 410 0040 F0BD     		pop	{r4, r5, r6, r7, pc}
 411              		.cfi_endproc
 412              	.LFE4:
 413              		.size	u8x8_DrawUTF8Lines, .-u8x8_DrawUTF8Lines
 414 0042 C046     		.section	.rodata.str1.4,"aMS",%progbits,1
 415              		.align	2
 416              	.LC0:
 417 0000 2000     		.ascii	" \000"
 418              		.text
 419              	.Letext0:
 420              		.file 2 "c:\\program files (x86)\\cypress\\psoc creator\\4.1\\psoc creator\\import\\gnu\\arm\\5.4.
 421              		.file 3 "c:\\program files (x86)\\cypress\\psoc creator\\4.1\\psoc creator\\import\\gnu\\arm\\5.4.
 422              		.file 4 "..\\..\\u8g2\\csrc\\u8x8.h"