ARM GAS  C:\Users\arh\AppData\Local\Temp\ccJD0jv6.s 			page 1


   1              		.syntax unified
   2              		.cpu cortex-m0
   3              		.fpu softvfp
   4              		.eabi_attribute 20, 1
   5              		.eabi_attribute 21, 1
   6              		.eabi_attribute 23, 3
   7              		.eabi_attribute 24, 1
   8              		.eabi_attribute 25, 1
   9              		.eabi_attribute 26, 1
  10              		.eabi_attribute 30, 1
  11              		.eabi_attribute 34, 0
  12              		.eabi_attribute 18, 4
  13              		.thumb
  14              		.syntax unified
  15              		.file	"u8x8_d_ks0108.c"
  16              		.text
  17              	.Ltext0:
  18              		.cfi_sections	.debug_frame
  19              		.section	.text.u8x8_ks0108_out,"ax",%progbits
  20              		.align	2
  21              		.code	16
  22              		.thumb_func
  23              		.type	u8x8_ks0108_out, %function
  24              	u8x8_ks0108_out:
  25              	.LFB0:
  26              		.file 1 "..\\..\\u8g2\\csrc\\u8x8_d_ks0108.c"
   1:..\..\u8g2\csrc/u8x8_d_ks0108.c **** /*
   2:..\..\u8g2\csrc/u8x8_d_ks0108.c **** 
   3:..\..\u8g2\csrc/u8x8_d_ks0108.c ****   u8x8_d_ks0108.c 
   4:..\..\u8g2\csrc/u8x8_d_ks0108.c ****   
   5:..\..\u8g2\csrc/u8x8_d_ks0108.c ****   The classic 5V LCD
   6:..\..\u8g2\csrc/u8x8_d_ks0108.c ****   
   7:..\..\u8g2\csrc/u8x8_d_ks0108.c ****   Universal 8bit Graphics Library (https://github.com/olikraus/u8g2/)
   8:..\..\u8g2\csrc/u8x8_d_ks0108.c **** 
   9:..\..\u8g2\csrc/u8x8_d_ks0108.c ****   Copyright (c) 2016, olikraus@gmail.com
  10:..\..\u8g2\csrc/u8x8_d_ks0108.c ****   All rights reserved.
  11:..\..\u8g2\csrc/u8x8_d_ks0108.c **** 
  12:..\..\u8g2\csrc/u8x8_d_ks0108.c ****   Redistribution and use in source and binary forms, with or without modification, 
  13:..\..\u8g2\csrc/u8x8_d_ks0108.c ****   are permitted provided that the following conditions are met:
  14:..\..\u8g2\csrc/u8x8_d_ks0108.c **** 
  15:..\..\u8g2\csrc/u8x8_d_ks0108.c ****   * Redistributions of source code must retain the above copyright notice, this list 
  16:..\..\u8g2\csrc/u8x8_d_ks0108.c ****     of conditions and the following disclaimer.
  17:..\..\u8g2\csrc/u8x8_d_ks0108.c ****     
  18:..\..\u8g2\csrc/u8x8_d_ks0108.c ****   * Redistributions in binary form must reproduce the above copyright notice, this 
  19:..\..\u8g2\csrc/u8x8_d_ks0108.c ****     list of conditions and the following disclaimer in the documentation and/or other 
  20:..\..\u8g2\csrc/u8x8_d_ks0108.c ****     materials provided with the distribution.
  21:..\..\u8g2\csrc/u8x8_d_ks0108.c **** 
  22:..\..\u8g2\csrc/u8x8_d_ks0108.c ****   THIS SOFTWARE IS PROVIDED BY THE COPYRIGHT HOLDERS AND 
  23:..\..\u8g2\csrc/u8x8_d_ks0108.c ****   CONTRIBUTORS "AS IS" AND ANY EXPRESS OR IMPLIED WARRANTIES, 
  24:..\..\u8g2\csrc/u8x8_d_ks0108.c ****   INCLUDING, BUT NOT LIMITED TO, THE IMPLIED WARRANTIES OF 
  25:..\..\u8g2\csrc/u8x8_d_ks0108.c ****   MERCHANTABILITY AND FITNESS FOR A PARTICULAR PURPOSE ARE 
  26:..\..\u8g2\csrc/u8x8_d_ks0108.c ****   DISCLAIMED. IN NO EVENT SHALL THE COPYRIGHT HOLDER OR 
  27:..\..\u8g2\csrc/u8x8_d_ks0108.c ****   CONTRIBUTORS BE LIABLE FOR ANY DIRECT, INDIRECT, INCIDENTAL, 
  28:..\..\u8g2\csrc/u8x8_d_ks0108.c ****   SPECIAL, EXEMPLARY, OR CONSEQUENTIAL DAMAGES (INCLUDING, BUT 
  29:..\..\u8g2\csrc/u8x8_d_ks0108.c ****   NOT LIMITED TO, PROCUREMENT OF SUBSTITUTE GOODS OR SERVICES; 
  30:..\..\u8g2\csrc/u8x8_d_ks0108.c ****   LOSS OF USE, DATA, OR PROFITS; OR BUSINESS INTERRUPTION) HOWEVER 
  31:..\..\u8g2\csrc/u8x8_d_ks0108.c ****   CAUSED AND ON ANY THEORY OF LIABILITY, WHETHER IN CONTRACT, 
ARM GAS  C:\Users\arh\AppData\Local\Temp\ccJD0jv6.s 			page 2


  32:..\..\u8g2\csrc/u8x8_d_ks0108.c ****   STRICT LIABILITY, OR TORT (INCLUDING NEGLIGENCE OR OTHERWISE) 
  33:..\..\u8g2\csrc/u8x8_d_ks0108.c ****   ARISING IN ANY WAY OUT OF THE USE OF THIS SOFTWARE, EVEN IF 
  34:..\..\u8g2\csrc/u8x8_d_ks0108.c ****   ADVISED OF THE POSSIBILITY OF SUCH DAMAGE.  
  35:..\..\u8g2\csrc/u8x8_d_ks0108.c **** 
  36:..\..\u8g2\csrc/u8x8_d_ks0108.c ****   
  37:..\..\u8g2\csrc/u8x8_d_ks0108.c **** */
  38:..\..\u8g2\csrc/u8x8_d_ks0108.c **** #include "u8x8.h"
  39:..\..\u8g2\csrc/u8x8_d_ks0108.c **** 
  40:..\..\u8g2\csrc/u8x8_d_ks0108.c **** 
  41:..\..\u8g2\csrc/u8x8_d_ks0108.c **** 
  42:..\..\u8g2\csrc/u8x8_d_ks0108.c **** 
  43:..\..\u8g2\csrc/u8x8_d_ks0108.c **** static const uint8_t u8x8_d_ks0108_init_seq[] = {
  44:..\..\u8g2\csrc/u8x8_d_ks0108.c ****   U8X8_C(0x0c0),		                /* satart at the top  */  
  45:..\..\u8g2\csrc/u8x8_d_ks0108.c ****   U8X8_END()             			/* end of sequence */
  46:..\..\u8g2\csrc/u8x8_d_ks0108.c **** };
  47:..\..\u8g2\csrc/u8x8_d_ks0108.c **** 
  48:..\..\u8g2\csrc/u8x8_d_ks0108.c **** static const uint8_t u8x8_d_ks0108_powersave0_seq[] = {
  49:..\..\u8g2\csrc/u8x8_d_ks0108.c ****   U8X8_C(0x03f),		                /* display on */
  50:..\..\u8g2\csrc/u8x8_d_ks0108.c ****   U8X8_END()             			/* end of sequence */
  51:..\..\u8g2\csrc/u8x8_d_ks0108.c **** };
  52:..\..\u8g2\csrc/u8x8_d_ks0108.c **** 
  53:..\..\u8g2\csrc/u8x8_d_ks0108.c **** static const uint8_t u8x8_d_ks0108_powersave1_seq[] = {
  54:..\..\u8g2\csrc/u8x8_d_ks0108.c ****   U8X8_C(0x03e),		                /* display off */
  55:..\..\u8g2\csrc/u8x8_d_ks0108.c ****   U8X8_END()             			/* end of sequence */
  56:..\..\u8g2\csrc/u8x8_d_ks0108.c **** };
  57:..\..\u8g2\csrc/u8x8_d_ks0108.c **** 
  58:..\..\u8g2\csrc/u8x8_d_ks0108.c **** 
  59:..\..\u8g2\csrc/u8x8_d_ks0108.c **** struct u8x8_ks0108_vars
  60:..\..\u8g2\csrc/u8x8_d_ks0108.c **** {
  61:..\..\u8g2\csrc/u8x8_d_ks0108.c ****   uint8_t *ptr;
  62:..\..\u8g2\csrc/u8x8_d_ks0108.c ****   uint8_t x;
  63:..\..\u8g2\csrc/u8x8_d_ks0108.c ****   uint8_t c;
  64:..\..\u8g2\csrc/u8x8_d_ks0108.c ****   uint8_t arg_int;
  65:..\..\u8g2\csrc/u8x8_d_ks0108.c **** };
  66:..\..\u8g2\csrc/u8x8_d_ks0108.c **** 
  67:..\..\u8g2\csrc/u8x8_d_ks0108.c **** static void u8x8_ks0108_out(u8x8_t *u8x8, struct u8x8_ks0108_vars *v, void *arg_ptr)
  68:..\..\u8g2\csrc/u8x8_d_ks0108.c **** {
  27              		.loc 1 68 0
  28              		.cfi_startproc
  29              		@ args = 0, pretend = 0, frame = 0
  30              		@ frame_needed = 0, uses_anonymous_args = 0
  31              	.LVL0:
  32 0000 F8B5     		push	{r3, r4, r5, r6, r7, lr}
  33              		.cfi_def_cfa_offset 24
  34              		.cfi_offset 3, -24
  35              		.cfi_offset 4, -20
  36              		.cfi_offset 5, -16
  37              		.cfi_offset 6, -12
  38              		.cfi_offset 7, -8
  39              		.cfi_offset 14, -4
  40 0002 0500     		movs	r5, r0
  41 0004 0E00     		movs	r6, r1
  42 0006 1700     		movs	r7, r2
  69:..\..\u8g2\csrc/u8x8_d_ks0108.c ****   uint8_t cnt;
  70:..\..\u8g2\csrc/u8x8_d_ks0108.c ****   u8x8_cad_SendCmd(u8x8, 0x040 | ((v->x << 3) & 63) );
  43              		.loc 1 70 0
  44 0008 0979     		ldrb	r1, [r1, #4]
ARM GAS  C:\Users\arh\AppData\Local\Temp\ccJD0jv6.s 			page 3


  45              	.LVL1:
  46 000a C900     		lsls	r1, r1, #3
  47 000c 3F23     		movs	r3, #63
  48 000e 1940     		ands	r1, r3
  49 0010 4023     		movs	r3, #64
  50 0012 1943     		orrs	r1, r3
  51 0014 C9B2     		uxtb	r1, r1
  52 0016 FFF7FEFF 		bl	u8x8_cad_SendCmd
  53              	.LVL2:
  71:..\..\u8g2\csrc/u8x8_d_ks0108.c ****   u8x8_cad_SendCmd(u8x8, 0x0b8 | (((u8x8_tile_t *)arg_ptr)->y_pos));
  54              		.loc 1 71 0
  55 001a BB79     		ldrb	r3, [r7, #6]
  56 001c 4821     		movs	r1, #72
  57 001e 4942     		rsbs	r1, r1, #0
  58 0020 1943     		orrs	r1, r3
  59 0022 C9B2     		uxtb	r1, r1
  60 0024 2800     		movs	r0, r5
  61 0026 FFF7FEFF 		bl	u8x8_cad_SendCmd
  62              	.LVL3:
  72:..\..\u8g2\csrc/u8x8_d_ks0108.c ****   
  73:..\..\u8g2\csrc/u8x8_d_ks0108.c ****   while( v->arg_int > 0 )
  63              		.loc 1 73 0
  64 002a 27E0     		b	.L2
  65              	.L6:
  74:..\..\u8g2\csrc/u8x8_d_ks0108.c ****   {
  75:..\..\u8g2\csrc/u8x8_d_ks0108.c ****       /* calculate tiles to next boundary (end or chip limit) */
  76:..\..\u8g2\csrc/u8x8_d_ks0108.c ****       cnt = v->x;
  66              		.loc 1 76 0
  67 002c 3379     		ldrb	r3, [r6, #4]
  68              	.LVL4:
  77:..\..\u8g2\csrc/u8x8_d_ks0108.c ****       cnt += 8;
  69              		.loc 1 77 0
  70 002e 1900     		movs	r1, r3
  71 0030 0831     		adds	r1, r1, #8
  72 0032 C9B2     		uxtb	r1, r1
  73              	.LVL5:
  78:..\..\u8g2\csrc/u8x8_d_ks0108.c ****       cnt &= 0x0f8;
  74              		.loc 1 78 0
  75 0034 0722     		movs	r2, #7
  76 0036 9143     		bics	r1, r2
  77              	.LVL6:
  79:..\..\u8g2\csrc/u8x8_d_ks0108.c ****       cnt -= v->x;
  78              		.loc 1 79 0
  79 0038 C91A     		subs	r1, r1, r3
  80              	.LVL7:
  81 003a C9B2     		uxtb	r1, r1
  82              	.LVL8:
  80:..\..\u8g2\csrc/u8x8_d_ks0108.c ****             
  81:..\..\u8g2\csrc/u8x8_d_ks0108.c ****       if ( cnt > v->c )
  83              		.loc 1 81 0
  84 003c 7279     		ldrb	r2, [r6, #5]
  85 003e 9142     		cmp	r1, r2
  86 0040 00D9     		bls	.L3
  82:..\..\u8g2\csrc/u8x8_d_ks0108.c **** 	cnt = v->c;
  87              		.loc 1 82 0
  88 0042 1100     		movs	r1, r2
  89              	.LVL9:
ARM GAS  C:\Users\arh\AppData\Local\Temp\ccJD0jv6.s 			page 4


  90              	.L3:
  83:..\..\u8g2\csrc/u8x8_d_ks0108.c ****     
  84:..\..\u8g2\csrc/u8x8_d_ks0108.c ****       /* of cours we still could use cnt=1 here... */
  85:..\..\u8g2\csrc/u8x8_d_ks0108.c ****       /* but setting cnt to 1 is not very efficient */
  86:..\..\u8g2\csrc/u8x8_d_ks0108.c ****       //cnt = 1;
  87:..\..\u8g2\csrc/u8x8_d_ks0108.c ****     
  88:..\..\u8g2\csrc/u8x8_d_ks0108.c ****       v->x +=cnt;
  91              		.loc 1 88 0
  92 0044 CB18     		adds	r3, r1, r3
  93 0046 3371     		strb	r3, [r6, #4]
  89:..\..\u8g2\csrc/u8x8_d_ks0108.c ****       v->c-=cnt;
  94              		.loc 1 89 0
  95 0048 521A     		subs	r2, r2, r1
  96 004a 7271     		strb	r2, [r6, #5]
  90:..\..\u8g2\csrc/u8x8_d_ks0108.c ****       cnt<<=3;
  97              		.loc 1 90 0
  98 004c C900     		lsls	r1, r1, #3
  99              	.LVL10:
 100 004e CCB2     		uxtb	r4, r1
 101              	.LVL11:
  91:..\..\u8g2\csrc/u8x8_d_ks0108.c ****       u8x8_cad_SendData(u8x8, cnt, v->ptr);	/* note: SendData can not handle more than 255 bytes */
 102              		.loc 1 91 0
 103 0050 3268     		ldr	r2, [r6]
 104 0052 2100     		movs	r1, r4
 105 0054 2800     		movs	r0, r5
 106 0056 FFF7FEFF 		bl	u8x8_cad_SendData
 107              	.LVL12:
  92:..\..\u8g2\csrc/u8x8_d_ks0108.c ****       v->ptr += cnt;
 108              		.loc 1 92 0
 109 005a 3368     		ldr	r3, [r6]
 110 005c 9C46     		mov	ip, r3
 111 005e 6444     		add	r4, r4, ip
 112              	.LVL13:
 113 0060 3460     		str	r4, [r6]
  93:..\..\u8g2\csrc/u8x8_d_ks0108.c ****     
  94:..\..\u8g2\csrc/u8x8_d_ks0108.c ****       if ( v->c == 0 )
 114              		.loc 1 94 0
 115 0062 7379     		ldrb	r3, [r6, #5]
 116 0064 002B     		cmp	r3, #0
 117 0066 06D1     		bne	.L4
  95:..\..\u8g2\csrc/u8x8_d_ks0108.c ****       {
  96:..\..\u8g2\csrc/u8x8_d_ks0108.c **** 	v->ptr = ((u8x8_tile_t *)arg_ptr)->tile_ptr;
 118              		.loc 1 96 0
 119 0068 3B68     		ldr	r3, [r7]
 120 006a 3360     		str	r3, [r6]
  97:..\..\u8g2\csrc/u8x8_d_ks0108.c **** 	v->c = ((u8x8_tile_t *)arg_ptr)->cnt;
 121              		.loc 1 97 0
 122 006c 3B79     		ldrb	r3, [r7, #4]
 123 006e 7371     		strb	r3, [r6, #5]
  98:..\..\u8g2\csrc/u8x8_d_ks0108.c **** 	v->arg_int--;
 124              		.loc 1 98 0
 125 0070 B379     		ldrb	r3, [r6, #6]
 126 0072 013B     		subs	r3, r3, #1
 127 0074 B371     		strb	r3, [r6, #6]
 128              	.L4:
  99:..\..\u8g2\csrc/u8x8_d_ks0108.c ****       }
 100:..\..\u8g2\csrc/u8x8_d_ks0108.c ****       if ( ((v->x) & 7) == 0 )
ARM GAS  C:\Users\arh\AppData\Local\Temp\ccJD0jv6.s 			page 5


 129              		.loc 1 100 0
 130 0076 3379     		ldrb	r3, [r6, #4]
 131 0078 5B07     		lsls	r3, r3, #29
 132 007a 02D0     		beq	.L1
 133              	.L2:
  73:..\..\u8g2\csrc/u8x8_d_ks0108.c ****   {
 134              		.loc 1 73 0
 135 007c B379     		ldrb	r3, [r6, #6]
 136 007e 002B     		cmp	r3, #0
 137 0080 D4D1     		bne	.L6
 138              	.L1:
 101:..\..\u8g2\csrc/u8x8_d_ks0108.c **** 	break;       
 102:..\..\u8g2\csrc/u8x8_d_ks0108.c ****   } 
 103:..\..\u8g2\csrc/u8x8_d_ks0108.c **** }
 139              		.loc 1 103 0
 140              		@ sp needed
 141              	.LVL14:
 142              	.LVL15:
 143              	.LVL16:
 144 0082 F8BD     		pop	{r3, r4, r5, r6, r7, pc}
 145              		.cfi_endproc
 146              	.LFE0:
 147              		.size	u8x8_ks0108_out, .-u8x8_ks0108_out
 148              		.section	.text.u8x8_d_ks0108_128x64,"ax",%progbits
 149              		.align	2
 150              		.global	u8x8_d_ks0108_128x64
 151              		.code	16
 152              		.thumb_func
 153              		.type	u8x8_d_ks0108_128x64, %function
 154              	u8x8_d_ks0108_128x64:
 155              	.LFB1:
 104:..\..\u8g2\csrc/u8x8_d_ks0108.c **** 
 105:..\..\u8g2\csrc/u8x8_d_ks0108.c **** 
 106:..\..\u8g2\csrc/u8x8_d_ks0108.c **** static const u8x8_display_info_t u8x8_ks0108_128x64_display_info =
 107:..\..\u8g2\csrc/u8x8_d_ks0108.c **** {
 108:..\..\u8g2\csrc/u8x8_d_ks0108.c ****   /* chip_enable_level = */ 0,		/* KS0108: Not used */
 109:..\..\u8g2\csrc/u8x8_d_ks0108.c ****   /* chip_disable_level = */ 1,		/* KS0108: Not used */
 110:..\..\u8g2\csrc/u8x8_d_ks0108.c ****   
 111:..\..\u8g2\csrc/u8x8_d_ks0108.c ****   /* post_chip_enable_wait_ns = */ 100,
 112:..\..\u8g2\csrc/u8x8_d_ks0108.c ****   /* pre_chip_disable_wait_ns = */ 20,
 113:..\..\u8g2\csrc/u8x8_d_ks0108.c ****   /* reset_pulse_width_ms = */ 1, 
 114:..\..\u8g2\csrc/u8x8_d_ks0108.c ****   /* post_reset_wait_ms = */ 6, 		/* could be faster for the KS0108 */
 115:..\..\u8g2\csrc/u8x8_d_ks0108.c ****   /* sda_setup_time_ns = */ 12,		
 116:..\..\u8g2\csrc/u8x8_d_ks0108.c ****   /* sck_pulse_width_ns = */ 75,	/* KS0108: Not used */
 117:..\..\u8g2\csrc/u8x8_d_ks0108.c ****   /* sck_clock_hz = */ 4000000UL,	/* KS0108: Not used */
 118:..\..\u8g2\csrc/u8x8_d_ks0108.c ****   /* spi_mode = */ 0,				/* active high, rising edge */
 119:..\..\u8g2\csrc/u8x8_d_ks0108.c ****   /* i2c_bus_clock_100kHz = */ 4,	/* KS0108: Not used */
 120:..\..\u8g2\csrc/u8x8_d_ks0108.c ****   /* data_setup_time_ns = */ 200,
 121:..\..\u8g2\csrc/u8x8_d_ks0108.c ****   /* write_pulse_width_ns = */ 200,	/* KS0108: actially 450 ns */
 122:..\..\u8g2\csrc/u8x8_d_ks0108.c ****   /* tile_width = */ 16,		/* width of 16*8=128 pixel */
 123:..\..\u8g2\csrc/u8x8_d_ks0108.c ****   /* tile_hight = */ 8,
 124:..\..\u8g2\csrc/u8x8_d_ks0108.c ****   /* default_x_offset = */ 0,
 125:..\..\u8g2\csrc/u8x8_d_ks0108.c ****   /* flipmode_x_offset = */ 0,
 126:..\..\u8g2\csrc/u8x8_d_ks0108.c ****   /* pixel_width = */ 128,
 127:..\..\u8g2\csrc/u8x8_d_ks0108.c ****   /* pixel_height = */ 64
 128:..\..\u8g2\csrc/u8x8_d_ks0108.c **** };
 129:..\..\u8g2\csrc/u8x8_d_ks0108.c **** 
ARM GAS  C:\Users\arh\AppData\Local\Temp\ccJD0jv6.s 			page 6


 130:..\..\u8g2\csrc/u8x8_d_ks0108.c **** uint8_t u8x8_d_ks0108_128x64(u8x8_t *u8x8, uint8_t msg, uint8_t arg_int, void *arg_ptr)
 131:..\..\u8g2\csrc/u8x8_d_ks0108.c **** {
 156              		.loc 1 131 0
 157              		.cfi_startproc
 158              		@ args = 0, pretend = 0, frame = 8
 159              		@ frame_needed = 0, uses_anonymous_args = 0
 160              	.LVL17:
 161 0000 70B5     		push	{r4, r5, r6, lr}
 162              		.cfi_def_cfa_offset 16
 163              		.cfi_offset 4, -16
 164              		.cfi_offset 5, -12
 165              		.cfi_offset 6, -8
 166              		.cfi_offset 14, -4
 167 0002 82B0     		sub	sp, sp, #8
 168              		.cfi_def_cfa_offset 24
 169 0004 0400     		movs	r4, r0
 170 0006 1D00     		movs	r5, r3
 132:..\..\u8g2\csrc/u8x8_d_ks0108.c ****   struct u8x8_ks0108_vars v;
 133:..\..\u8g2\csrc/u8x8_d_ks0108.c ****   switch(msg)
 171              		.loc 1 133 0
 172 0008 0A29     		cmp	r1, #10
 173 000a 0DD0     		beq	.L10
 174 000c 02D8     		bhi	.L11
 175 000e 0929     		cmp	r1, #9
 176 0010 05D0     		beq	.L12
 177 0012 AAE0     		b	.L17
 178              	.L11:
 179 0014 0B29     		cmp	r1, #11
 180 0016 2DD0     		beq	.L13
 181 0018 0F29     		cmp	r1, #15
 182 001a 73D0     		beq	.L14
 183 001c A5E0     		b	.L17
 184              	.L12:
 134:..\..\u8g2\csrc/u8x8_d_ks0108.c ****   {
 135:..\..\u8g2\csrc/u8x8_d_ks0108.c ****     case U8X8_MSG_DISPLAY_SETUP_MEMORY:
 136:..\..\u8g2\csrc/u8x8_d_ks0108.c ****       u8x8_d_helper_display_setup_memory(u8x8, &u8x8_ks0108_128x64_display_info);
 185              		.loc 1 136 0
 186 001e 5549     		ldr	r1, .L19
 187              	.LVL18:
 188 0020 FFF7FEFF 		bl	u8x8_d_helper_display_setup_memory
 189              	.LVL19:
 137:..\..\u8g2\csrc/u8x8_d_ks0108.c ****       break;
 138:..\..\u8g2\csrc/u8x8_d_ks0108.c ****     case U8X8_MSG_DISPLAY_INIT:
 139:..\..\u8g2\csrc/u8x8_d_ks0108.c ****       u8x8_d_helper_display_init(u8x8);
 140:..\..\u8g2\csrc/u8x8_d_ks0108.c ****     
 141:..\..\u8g2\csrc/u8x8_d_ks0108.c ****       u8x8->cad_cb(u8x8, U8X8_MSG_CAD_START_TRANSFER, 1, NULL);
 142:..\..\u8g2\csrc/u8x8_d_ks0108.c ****       u8x8_cad_SendSequence(u8x8, u8x8_d_ks0108_init_seq);
 143:..\..\u8g2\csrc/u8x8_d_ks0108.c ****       u8x8->cad_cb(u8x8, U8X8_MSG_CAD_END_TRANSFER, 0, NULL);
 144:..\..\u8g2\csrc/u8x8_d_ks0108.c ****     
 145:..\..\u8g2\csrc/u8x8_d_ks0108.c ****       u8x8->cad_cb(u8x8, U8X8_MSG_CAD_START_TRANSFER, 2, NULL);
 146:..\..\u8g2\csrc/u8x8_d_ks0108.c ****       u8x8_cad_SendSequence(u8x8, u8x8_d_ks0108_init_seq);
 147:..\..\u8g2\csrc/u8x8_d_ks0108.c ****       u8x8->cad_cb(u8x8, U8X8_MSG_CAD_END_TRANSFER, 0, NULL);
 148:..\..\u8g2\csrc/u8x8_d_ks0108.c ****       break;
 149:..\..\u8g2\csrc/u8x8_d_ks0108.c ****     case U8X8_MSG_DISPLAY_SET_POWER_SAVE:
 150:..\..\u8g2\csrc/u8x8_d_ks0108.c ****       
 151:..\..\u8g2\csrc/u8x8_d_ks0108.c ****       if ( arg_int == 0 )
 152:..\..\u8g2\csrc/u8x8_d_ks0108.c ****       {
ARM GAS  C:\Users\arh\AppData\Local\Temp\ccJD0jv6.s 			page 7


 153:..\..\u8g2\csrc/u8x8_d_ks0108.c **** 	u8x8->cad_cb(u8x8, U8X8_MSG_CAD_START_TRANSFER, 1, NULL);
 154:..\..\u8g2\csrc/u8x8_d_ks0108.c **** 	u8x8_cad_SendSequence(u8x8, u8x8_d_ks0108_powersave0_seq);
 155:..\..\u8g2\csrc/u8x8_d_ks0108.c **** 	u8x8->cad_cb(u8x8, U8X8_MSG_CAD_END_TRANSFER, 0, NULL);
 156:..\..\u8g2\csrc/u8x8_d_ks0108.c **** 
 157:..\..\u8g2\csrc/u8x8_d_ks0108.c **** 	u8x8->cad_cb(u8x8, U8X8_MSG_CAD_START_TRANSFER, 2, NULL);
 158:..\..\u8g2\csrc/u8x8_d_ks0108.c **** 	u8x8_cad_SendSequence(u8x8, u8x8_d_ks0108_powersave0_seq);
 159:..\..\u8g2\csrc/u8x8_d_ks0108.c **** 	u8x8->cad_cb(u8x8, U8X8_MSG_CAD_END_TRANSFER, 0, NULL);
 160:..\..\u8g2\csrc/u8x8_d_ks0108.c **** 	
 161:..\..\u8g2\csrc/u8x8_d_ks0108.c ****       }
 162:..\..\u8g2\csrc/u8x8_d_ks0108.c ****       else
 163:..\..\u8g2\csrc/u8x8_d_ks0108.c ****       {
 164:..\..\u8g2\csrc/u8x8_d_ks0108.c **** 	u8x8->cad_cb(u8x8, U8X8_MSG_CAD_START_TRANSFER, 1, NULL);
 165:..\..\u8g2\csrc/u8x8_d_ks0108.c **** 	u8x8_cad_SendSequence(u8x8, u8x8_d_ks0108_powersave1_seq);
 166:..\..\u8g2\csrc/u8x8_d_ks0108.c **** 	u8x8->cad_cb(u8x8, U8X8_MSG_CAD_END_TRANSFER, 0, NULL);
 167:..\..\u8g2\csrc/u8x8_d_ks0108.c **** 	
 168:..\..\u8g2\csrc/u8x8_d_ks0108.c **** 	u8x8->cad_cb(u8x8, U8X8_MSG_CAD_START_TRANSFER, 2, NULL);
 169:..\..\u8g2\csrc/u8x8_d_ks0108.c **** 	u8x8_cad_SendSequence(u8x8, u8x8_d_ks0108_powersave1_seq);
 170:..\..\u8g2\csrc/u8x8_d_ks0108.c **** 	u8x8->cad_cb(u8x8, U8X8_MSG_CAD_END_TRANSFER, 0, NULL);
 171:..\..\u8g2\csrc/u8x8_d_ks0108.c **** 	
 172:..\..\u8g2\csrc/u8x8_d_ks0108.c ****       }
 173:..\..\u8g2\csrc/u8x8_d_ks0108.c ****       break;
 174:..\..\u8g2\csrc/u8x8_d_ks0108.c **** // The KS0108 can not mirror the cols and rows, use U8g2 for rotation
 175:..\..\u8g2\csrc/u8x8_d_ks0108.c **** //    case U8X8_MSG_DISPLAY_SET_FLIP_MODE:
 176:..\..\u8g2\csrc/u8x8_d_ks0108.c **** //      break;
 177:..\..\u8g2\csrc/u8x8_d_ks0108.c **** // The KS0108 has no internal contrast command
 178:..\..\u8g2\csrc/u8x8_d_ks0108.c **** //    case U8X8_MSG_DISPLAY_SET_CONTRAST:
 179:..\..\u8g2\csrc/u8x8_d_ks0108.c **** //      break;
 180:..\..\u8g2\csrc/u8x8_d_ks0108.c ****     case U8X8_MSG_DISPLAY_DRAW_TILE:
 181:..\..\u8g2\csrc/u8x8_d_ks0108.c **** 
 182:..\..\u8g2\csrc/u8x8_d_ks0108.c ****       v.ptr = ((u8x8_tile_t *)arg_ptr)->tile_ptr;
 183:..\..\u8g2\csrc/u8x8_d_ks0108.c ****       v.x = ((u8x8_tile_t *)arg_ptr)->x_pos;
 184:..\..\u8g2\csrc/u8x8_d_ks0108.c ****       v.c = ((u8x8_tile_t *)arg_ptr)->cnt;
 185:..\..\u8g2\csrc/u8x8_d_ks0108.c ****       v.arg_int = arg_int;    
 186:..\..\u8g2\csrc/u8x8_d_ks0108.c ****       
 187:..\..\u8g2\csrc/u8x8_d_ks0108.c ****       
 188:..\..\u8g2\csrc/u8x8_d_ks0108.c ****       if ( v.x < 8 )
 189:..\..\u8g2\csrc/u8x8_d_ks0108.c ****       {
 190:..\..\u8g2\csrc/u8x8_d_ks0108.c **** 	u8x8->cad_cb(u8x8, U8X8_MSG_CAD_START_TRANSFER, 1, NULL);
 191:..\..\u8g2\csrc/u8x8_d_ks0108.c **** 	u8x8_ks0108_out(u8x8, &v, arg_ptr);
 192:..\..\u8g2\csrc/u8x8_d_ks0108.c **** 	u8x8->cad_cb(u8x8, U8X8_MSG_CAD_END_TRANSFER, 0, NULL);
 193:..\..\u8g2\csrc/u8x8_d_ks0108.c ****       }
 194:..\..\u8g2\csrc/u8x8_d_ks0108.c ****       if ( v.x < 16 )
 195:..\..\u8g2\csrc/u8x8_d_ks0108.c ****       {
 196:..\..\u8g2\csrc/u8x8_d_ks0108.c **** 	u8x8->cad_cb(u8x8, U8X8_MSG_CAD_START_TRANSFER, 2, NULL);
 197:..\..\u8g2\csrc/u8x8_d_ks0108.c **** 	u8x8_ks0108_out(u8x8, &v, arg_ptr);
 198:..\..\u8g2\csrc/u8x8_d_ks0108.c **** 	u8x8->cad_cb(u8x8, U8X8_MSG_CAD_END_TRANSFER, 0, NULL);
 199:..\..\u8g2\csrc/u8x8_d_ks0108.c ****       }
 200:..\..\u8g2\csrc/u8x8_d_ks0108.c ****       //if ( v.x < 24 )
 201:..\..\u8g2\csrc/u8x8_d_ks0108.c ****       //{
 202:..\..\u8g2\csrc/u8x8_d_ks0108.c **** 	//u8x8->cad_cb(u8x8, U8X8_MSG_CAD_START_TRANSFER, 4, NULL);
 203:..\..\u8g2\csrc/u8x8_d_ks0108.c **** 	//u8x8_ks0108_out(u8x8, &v, arg_ptr);
 204:..\..\u8g2\csrc/u8x8_d_ks0108.c **** 	//u8x8->cad_cb(u8x8, U8X8_MSG_CAD_END_TRANSFER, 0, NULL);
 205:..\..\u8g2\csrc/u8x8_d_ks0108.c ****       //}    
 206:..\..\u8g2\csrc/u8x8_d_ks0108.c ****       break;
 207:..\..\u8g2\csrc/u8x8_d_ks0108.c ****     default:
 208:..\..\u8g2\csrc/u8x8_d_ks0108.c ****       return 0;
 209:..\..\u8g2\csrc/u8x8_d_ks0108.c ****   }
ARM GAS  C:\Users\arh\AppData\Local\Temp\ccJD0jv6.s 			page 8


 210:..\..\u8g2\csrc/u8x8_d_ks0108.c ****   return 1;
 190              		.loc 1 210 0
 191 0024 0120     		movs	r0, #1
 137:..\..\u8g2\csrc/u8x8_d_ks0108.c ****       break;
 192              		.loc 1 137 0
 193 0026 A3E0     		b	.L9
 194              	.LVL20:
 195              	.L10:
 139:..\..\u8g2\csrc/u8x8_d_ks0108.c ****     
 196              		.loc 1 139 0
 197 0028 FFF7FEFF 		bl	u8x8_d_helper_display_init
 198              	.LVL21:
 141:..\..\u8g2\csrc/u8x8_d_ks0108.c ****       u8x8_cad_SendSequence(u8x8, u8x8_d_ks0108_init_seq);
 199              		.loc 1 141 0
 200 002c 0023     		movs	r3, #0
 201 002e 0122     		movs	r2, #1
 202 0030 1821     		movs	r1, #24
 203 0032 2000     		movs	r0, r4
 204 0034 E568     		ldr	r5, [r4, #12]
 205              	.LVL22:
 206 0036 A847     		blx	r5
 207              	.LVL23:
 142:..\..\u8g2\csrc/u8x8_d_ks0108.c ****       u8x8->cad_cb(u8x8, U8X8_MSG_CAD_END_TRANSFER, 0, NULL);
 208              		.loc 1 142 0
 209 0038 4E4D     		ldr	r5, .L19
 210 003a 1835     		adds	r5, r5, #24
 211 003c 2900     		movs	r1, r5
 212 003e 2000     		movs	r0, r4
 213 0040 FFF7FEFF 		bl	u8x8_cad_SendSequence
 214              	.LVL24:
 143:..\..\u8g2\csrc/u8x8_d_ks0108.c ****     
 215              		.loc 1 143 0
 216 0044 0023     		movs	r3, #0
 217 0046 0022     		movs	r2, #0
 218 0048 1921     		movs	r1, #25
 219 004a 2000     		movs	r0, r4
 220 004c E668     		ldr	r6, [r4, #12]
 221 004e B047     		blx	r6
 222              	.LVL25:
 145:..\..\u8g2\csrc/u8x8_d_ks0108.c ****       u8x8_cad_SendSequence(u8x8, u8x8_d_ks0108_init_seq);
 223              		.loc 1 145 0
 224 0050 0023     		movs	r3, #0
 225 0052 0222     		movs	r2, #2
 226 0054 1821     		movs	r1, #24
 227 0056 2000     		movs	r0, r4
 228 0058 E668     		ldr	r6, [r4, #12]
 229 005a B047     		blx	r6
 230              	.LVL26:
 146:..\..\u8g2\csrc/u8x8_d_ks0108.c ****       u8x8->cad_cb(u8x8, U8X8_MSG_CAD_END_TRANSFER, 0, NULL);
 231              		.loc 1 146 0
 232 005c 2900     		movs	r1, r5
 233 005e 2000     		movs	r0, r4
 234 0060 FFF7FEFF 		bl	u8x8_cad_SendSequence
 235              	.LVL27:
 147:..\..\u8g2\csrc/u8x8_d_ks0108.c ****       break;
 236              		.loc 1 147 0
 237 0064 E568     		ldr	r5, [r4, #12]
ARM GAS  C:\Users\arh\AppData\Local\Temp\ccJD0jv6.s 			page 9


 238 0066 0023     		movs	r3, #0
 239 0068 0022     		movs	r2, #0
 240 006a 1921     		movs	r1, #25
 241 006c 2000     		movs	r0, r4
 242 006e A847     		blx	r5
 243              	.LVL28:
 244              		.loc 1 210 0
 245 0070 0120     		movs	r0, #1
 148:..\..\u8g2\csrc/u8x8_d_ks0108.c ****     case U8X8_MSG_DISPLAY_SET_POWER_SAVE:
 246              		.loc 1 148 0
 247 0072 7DE0     		b	.L9
 248              	.LVL29:
 249              	.L13:
 151:..\..\u8g2\csrc/u8x8_d_ks0108.c ****       {
 250              		.loc 1 151 0
 251 0074 002A     		cmp	r2, #0
 252 0076 22D1     		bne	.L15
 153:..\..\u8g2\csrc/u8x8_d_ks0108.c **** 	u8x8_cad_SendSequence(u8x8, u8x8_d_ks0108_powersave0_seq);
 253              		.loc 1 153 0
 254 0078 0023     		movs	r3, #0
 255              	.LVL30:
 256 007a 0132     		adds	r2, r2, #1
 257              	.LVL31:
 258 007c 1821     		movs	r1, #24
 259              	.LVL32:
 260 007e C568     		ldr	r5, [r0, #12]
 261              	.LVL33:
 262 0080 A847     		blx	r5
 263              	.LVL34:
 154:..\..\u8g2\csrc/u8x8_d_ks0108.c **** 	u8x8->cad_cb(u8x8, U8X8_MSG_CAD_END_TRANSFER, 0, NULL);
 264              		.loc 1 154 0
 265 0082 3C4D     		ldr	r5, .L19
 266 0084 1C35     		adds	r5, r5, #28
 267 0086 2900     		movs	r1, r5
 268 0088 2000     		movs	r0, r4
 269 008a FFF7FEFF 		bl	u8x8_cad_SendSequence
 270              	.LVL35:
 155:..\..\u8g2\csrc/u8x8_d_ks0108.c **** 
 271              		.loc 1 155 0
 272 008e 0023     		movs	r3, #0
 273 0090 0022     		movs	r2, #0
 274 0092 1921     		movs	r1, #25
 275 0094 2000     		movs	r0, r4
 276 0096 E668     		ldr	r6, [r4, #12]
 277 0098 B047     		blx	r6
 278              	.LVL36:
 157:..\..\u8g2\csrc/u8x8_d_ks0108.c **** 	u8x8_cad_SendSequence(u8x8, u8x8_d_ks0108_powersave0_seq);
 279              		.loc 1 157 0
 280 009a 0023     		movs	r3, #0
 281 009c 0222     		movs	r2, #2
 282 009e 1821     		movs	r1, #24
 283 00a0 2000     		movs	r0, r4
 284 00a2 E668     		ldr	r6, [r4, #12]
 285 00a4 B047     		blx	r6
 286              	.LVL37:
 158:..\..\u8g2\csrc/u8x8_d_ks0108.c **** 	u8x8->cad_cb(u8x8, U8X8_MSG_CAD_END_TRANSFER, 0, NULL);
 287              		.loc 1 158 0
ARM GAS  C:\Users\arh\AppData\Local\Temp\ccJD0jv6.s 			page 10


 288 00a6 2900     		movs	r1, r5
 289 00a8 2000     		movs	r0, r4
 290 00aa FFF7FEFF 		bl	u8x8_cad_SendSequence
 291              	.LVL38:
 159:..\..\u8g2\csrc/u8x8_d_ks0108.c **** 	
 292              		.loc 1 159 0
 293 00ae E568     		ldr	r5, [r4, #12]
 294 00b0 0023     		movs	r3, #0
 295 00b2 0022     		movs	r2, #0
 296 00b4 1921     		movs	r1, #25
 297 00b6 2000     		movs	r0, r4
 298 00b8 A847     		blx	r5
 299              	.LVL39:
 300              		.loc 1 210 0
 301 00ba 0120     		movs	r0, #1
 302 00bc 58E0     		b	.L9
 303              	.LVL40:
 304              	.L15:
 164:..\..\u8g2\csrc/u8x8_d_ks0108.c **** 	u8x8_cad_SendSequence(u8x8, u8x8_d_ks0108_powersave1_seq);
 305              		.loc 1 164 0
 306 00be 0023     		movs	r3, #0
 307              	.LVL41:
 308 00c0 0122     		movs	r2, #1
 309              	.LVL42:
 310 00c2 1821     		movs	r1, #24
 311              	.LVL43:
 312 00c4 C568     		ldr	r5, [r0, #12]
 313              	.LVL44:
 314 00c6 A847     		blx	r5
 315              	.LVL45:
 165:..\..\u8g2\csrc/u8x8_d_ks0108.c **** 	u8x8->cad_cb(u8x8, U8X8_MSG_CAD_END_TRANSFER, 0, NULL);
 316              		.loc 1 165 0
 317 00c8 2A4D     		ldr	r5, .L19
 318 00ca 2035     		adds	r5, r5, #32
 319 00cc 2900     		movs	r1, r5
 320 00ce 2000     		movs	r0, r4
 321 00d0 FFF7FEFF 		bl	u8x8_cad_SendSequence
 322              	.LVL46:
 166:..\..\u8g2\csrc/u8x8_d_ks0108.c **** 	
 323              		.loc 1 166 0
 324 00d4 0023     		movs	r3, #0
 325 00d6 0022     		movs	r2, #0
 326 00d8 1921     		movs	r1, #25
 327 00da 2000     		movs	r0, r4
 328 00dc E668     		ldr	r6, [r4, #12]
 329 00de B047     		blx	r6
 330              	.LVL47:
 168:..\..\u8g2\csrc/u8x8_d_ks0108.c **** 	u8x8_cad_SendSequence(u8x8, u8x8_d_ks0108_powersave1_seq);
 331              		.loc 1 168 0
 332 00e0 0023     		movs	r3, #0
 333 00e2 0222     		movs	r2, #2
 334 00e4 1821     		movs	r1, #24
 335 00e6 2000     		movs	r0, r4
 336 00e8 E668     		ldr	r6, [r4, #12]
 337 00ea B047     		blx	r6
 338              	.LVL48:
 169:..\..\u8g2\csrc/u8x8_d_ks0108.c **** 	u8x8->cad_cb(u8x8, U8X8_MSG_CAD_END_TRANSFER, 0, NULL);
ARM GAS  C:\Users\arh\AppData\Local\Temp\ccJD0jv6.s 			page 11


 339              		.loc 1 169 0
 340 00ec 2900     		movs	r1, r5
 341 00ee 2000     		movs	r0, r4
 342 00f0 FFF7FEFF 		bl	u8x8_cad_SendSequence
 343              	.LVL49:
 170:..\..\u8g2\csrc/u8x8_d_ks0108.c **** 	
 344              		.loc 1 170 0
 345 00f4 E568     		ldr	r5, [r4, #12]
 346 00f6 0023     		movs	r3, #0
 347 00f8 0022     		movs	r2, #0
 348 00fa 1921     		movs	r1, #25
 349 00fc 2000     		movs	r0, r4
 350 00fe A847     		blx	r5
 351              	.LVL50:
 352              		.loc 1 210 0
 353 0100 0120     		movs	r0, #1
 354 0102 35E0     		b	.L9
 355              	.LVL51:
 356              	.L14:
 182:..\..\u8g2\csrc/u8x8_d_ks0108.c ****       v.x = ((u8x8_tile_t *)arg_ptr)->x_pos;
 357              		.loc 1 182 0
 358 0104 1B68     		ldr	r3, [r3]
 359              	.LVL52:
 360 0106 0093     		str	r3, [sp]
 183:..\..\u8g2\csrc/u8x8_d_ks0108.c ****       v.c = ((u8x8_tile_t *)arg_ptr)->cnt;
 361              		.loc 1 183 0
 362 0108 6B79     		ldrb	r3, [r5, #5]
 363 010a 6946     		mov	r1, sp
 364              	.LVL53:
 365 010c 0B71     		strb	r3, [r1, #4]
 184:..\..\u8g2\csrc/u8x8_d_ks0108.c ****       v.arg_int = arg_int;    
 366              		.loc 1 184 0
 367 010e 2979     		ldrb	r1, [r5, #4]
 368 0110 6846     		mov	r0, sp
 369              	.LVL54:
 370 0112 4171     		strb	r1, [r0, #5]
 185:..\..\u8g2\csrc/u8x8_d_ks0108.c ****       
 371              		.loc 1 185 0
 372 0114 8271     		strb	r2, [r0, #6]
 188:..\..\u8g2\csrc/u8x8_d_ks0108.c ****       {
 373              		.loc 1 188 0
 374 0116 072B     		cmp	r3, #7
 375 0118 10D8     		bhi	.L16
 190:..\..\u8g2\csrc/u8x8_d_ks0108.c **** 	u8x8_ks0108_out(u8x8, &v, arg_ptr);
 376              		.loc 1 190 0
 377 011a 0023     		movs	r3, #0
 378 011c 0122     		movs	r2, #1
 379              	.LVL55:
 380 011e 1821     		movs	r1, #24
 381 0120 2000     		movs	r0, r4
 382              	.LVL56:
 383 0122 E668     		ldr	r6, [r4, #12]
 384 0124 B047     		blx	r6
 385              	.LVL57:
 191:..\..\u8g2\csrc/u8x8_d_ks0108.c **** 	u8x8->cad_cb(u8x8, U8X8_MSG_CAD_END_TRANSFER, 0, NULL);
 386              		.loc 1 191 0
 387 0126 2A00     		movs	r2, r5
ARM GAS  C:\Users\arh\AppData\Local\Temp\ccJD0jv6.s 			page 12


 388 0128 6946     		mov	r1, sp
 389 012a 2000     		movs	r0, r4
 390 012c FFF7FEFF 		bl	u8x8_ks0108_out
 391              	.LVL58:
 192:..\..\u8g2\csrc/u8x8_d_ks0108.c ****       }
 392              		.loc 1 192 0
 393 0130 0023     		movs	r3, #0
 394 0132 0022     		movs	r2, #0
 395 0134 1921     		movs	r1, #25
 396 0136 2000     		movs	r0, r4
 397 0138 E668     		ldr	r6, [r4, #12]
 398 013a B047     		blx	r6
 399              	.LVL59:
 400              	.L16:
 194:..\..\u8g2\csrc/u8x8_d_ks0108.c ****       {
 401              		.loc 1 194 0
 402 013c 6B46     		mov	r3, sp
 403 013e 1B79     		ldrb	r3, [r3, #4]
 404 0140 0F2B     		cmp	r3, #15
 405 0142 14D8     		bhi	.L18
 196:..\..\u8g2\csrc/u8x8_d_ks0108.c **** 	u8x8_ks0108_out(u8x8, &v, arg_ptr);
 406              		.loc 1 196 0
 407 0144 0023     		movs	r3, #0
 408 0146 0222     		movs	r2, #2
 409 0148 1821     		movs	r1, #24
 410 014a 2000     		movs	r0, r4
 411 014c E668     		ldr	r6, [r4, #12]
 412 014e B047     		blx	r6
 413              	.LVL60:
 197:..\..\u8g2\csrc/u8x8_d_ks0108.c **** 	u8x8->cad_cb(u8x8, U8X8_MSG_CAD_END_TRANSFER, 0, NULL);
 414              		.loc 1 197 0
 415 0150 2A00     		movs	r2, r5
 416 0152 6946     		mov	r1, sp
 417 0154 2000     		movs	r0, r4
 418 0156 FFF7FEFF 		bl	u8x8_ks0108_out
 419              	.LVL61:
 198:..\..\u8g2\csrc/u8x8_d_ks0108.c ****       }
 420              		.loc 1 198 0
 421 015a E568     		ldr	r5, [r4, #12]
 422              	.LVL62:
 423 015c 0023     		movs	r3, #0
 424 015e 0022     		movs	r2, #0
 425 0160 1921     		movs	r1, #25
 426 0162 2000     		movs	r0, r4
 427 0164 A847     		blx	r5
 428              	.LVL63:
 429              		.loc 1 210 0
 430 0166 0120     		movs	r0, #1
 431 0168 02E0     		b	.L9
 432              	.LVL64:
 433              	.L17:
 208:..\..\u8g2\csrc/u8x8_d_ks0108.c ****   }
 434              		.loc 1 208 0
 435 016a 0020     		movs	r0, #0
 436              	.LVL65:
 437 016c 00E0     		b	.L9
 438              	.LVL66:
ARM GAS  C:\Users\arh\AppData\Local\Temp\ccJD0jv6.s 			page 13


 439              	.L18:
 440              		.loc 1 210 0
 441 016e 0120     		movs	r0, #1
 442              	.LVL67:
 443              	.L9:
 211:..\..\u8g2\csrc/u8x8_d_ks0108.c **** }
 444              		.loc 1 211 0
 445 0170 02B0     		add	sp, sp, #8
 446              		@ sp needed
 447              	.LVL68:
 448 0172 70BD     		pop	{r4, r5, r6, pc}
 449              	.L20:
 450              		.align	2
 451              	.L19:
 452 0174 00000000 		.word	.LANCHOR0
 453              		.cfi_endproc
 454              	.LFE1:
 455              		.size	u8x8_d_ks0108_128x64, .-u8x8_d_ks0108_128x64
 456              		.section	.text.u8x8_d_ks0108_erm19264,"ax",%progbits
 457              		.align	2
 458              		.global	u8x8_d_ks0108_erm19264
 459              		.code	16
 460              		.thumb_func
 461              		.type	u8x8_d_ks0108_erm19264, %function
 462              	u8x8_d_ks0108_erm19264:
 463              	.LFB2:
 212:..\..\u8g2\csrc/u8x8_d_ks0108.c **** 
 213:..\..\u8g2\csrc/u8x8_d_ks0108.c **** /* east rising (buydisplay.com) ERM19264 */
 214:..\..\u8g2\csrc/u8x8_d_ks0108.c **** /* left: 011, middle: 101, right: 110, no chip select: 111 */
 215:..\..\u8g2\csrc/u8x8_d_ks0108.c **** uint8_t u8x8_d_ks0108_erm19264(u8x8_t *u8x8, uint8_t msg, uint8_t arg_int, void *arg_ptr)
 216:..\..\u8g2\csrc/u8x8_d_ks0108.c **** {
 464              		.loc 1 216 0
 465              		.cfi_startproc
 466              		@ args = 0, pretend = 0, frame = 8
 467              		@ frame_needed = 0, uses_anonymous_args = 0
 468              	.LVL69:
 469 0000 70B5     		push	{r4, r5, r6, lr}
 470              		.cfi_def_cfa_offset 16
 471              		.cfi_offset 4, -16
 472              		.cfi_offset 5, -12
 473              		.cfi_offset 6, -8
 474              		.cfi_offset 14, -4
 475 0002 82B0     		sub	sp, sp, #8
 476              		.cfi_def_cfa_offset 24
 477 0004 0400     		movs	r4, r0
 478 0006 1D00     		movs	r5, r3
 217:..\..\u8g2\csrc/u8x8_d_ks0108.c ****   struct u8x8_ks0108_vars v;
 218:..\..\u8g2\csrc/u8x8_d_ks0108.c ****   switch(msg)
 479              		.loc 1 218 0
 480 0008 0A29     		cmp	r1, #10
 481 000a 0ED0     		beq	.L23
 482 000c 02D8     		bhi	.L24
 483 000e 0929     		cmp	r1, #9
 484 0010 06D0     		beq	.L25
 485 0012 F0E0     		b	.L31
 486              	.L24:
 487 0014 0B29     		cmp	r1, #11
ARM GAS  C:\Users\arh\AppData\Local\Temp\ccJD0jv6.s 			page 14


 488 0016 3ED0     		beq	.L26
 489 0018 0F29     		cmp	r1, #15
 490 001a 00D1     		bne	.LCB487
 491 001c A3E0     		b	.L27	@long jump
 492              	.LCB487:
 493 001e EAE0     		b	.L31
 494              	.L25:
 219:..\..\u8g2\csrc/u8x8_d_ks0108.c ****   {
 220:..\..\u8g2\csrc/u8x8_d_ks0108.c ****     case U8X8_MSG_DISPLAY_SETUP_MEMORY:
 221:..\..\u8g2\csrc/u8x8_d_ks0108.c ****       u8x8_d_helper_display_setup_memory(u8x8, &u8x8_ks0108_128x64_display_info);
 495              		.loc 1 221 0
 496 0020 7749     		ldr	r1, .L33
 497              	.LVL70:
 498 0022 FFF7FEFF 		bl	u8x8_d_helper_display_setup_memory
 499              	.LVL71:
 222:..\..\u8g2\csrc/u8x8_d_ks0108.c ****       break;
 223:..\..\u8g2\csrc/u8x8_d_ks0108.c ****     case U8X8_MSG_DISPLAY_INIT:
 224:..\..\u8g2\csrc/u8x8_d_ks0108.c ****       u8x8_d_helper_display_init(u8x8);
 225:..\..\u8g2\csrc/u8x8_d_ks0108.c ****     
 226:..\..\u8g2\csrc/u8x8_d_ks0108.c ****       u8x8->cad_cb(u8x8, U8X8_MSG_CAD_START_TRANSFER, 3, NULL);
 227:..\..\u8g2\csrc/u8x8_d_ks0108.c ****       u8x8_cad_SendSequence(u8x8, u8x8_d_ks0108_init_seq);
 228:..\..\u8g2\csrc/u8x8_d_ks0108.c ****       u8x8->cad_cb(u8x8, U8X8_MSG_CAD_END_TRANSFER, 7, NULL);
 229:..\..\u8g2\csrc/u8x8_d_ks0108.c ****     
 230:..\..\u8g2\csrc/u8x8_d_ks0108.c ****       u8x8->cad_cb(u8x8, U8X8_MSG_CAD_START_TRANSFER, 5, NULL);
 231:..\..\u8g2\csrc/u8x8_d_ks0108.c ****       u8x8_cad_SendSequence(u8x8, u8x8_d_ks0108_init_seq);
 232:..\..\u8g2\csrc/u8x8_d_ks0108.c ****       u8x8->cad_cb(u8x8, U8X8_MSG_CAD_END_TRANSFER, 7, NULL);
 233:..\..\u8g2\csrc/u8x8_d_ks0108.c ****     
 234:..\..\u8g2\csrc/u8x8_d_ks0108.c ****       u8x8->cad_cb(u8x8, U8X8_MSG_CAD_START_TRANSFER, 6, NULL);
 235:..\..\u8g2\csrc/u8x8_d_ks0108.c ****       u8x8_cad_SendSequence(u8x8, u8x8_d_ks0108_init_seq);
 236:..\..\u8g2\csrc/u8x8_d_ks0108.c ****       u8x8->cad_cb(u8x8, U8X8_MSG_CAD_END_TRANSFER, 7, NULL);
 237:..\..\u8g2\csrc/u8x8_d_ks0108.c ****       break;
 238:..\..\u8g2\csrc/u8x8_d_ks0108.c ****     case U8X8_MSG_DISPLAY_SET_POWER_SAVE:
 239:..\..\u8g2\csrc/u8x8_d_ks0108.c ****       
 240:..\..\u8g2\csrc/u8x8_d_ks0108.c ****       if ( arg_int == 0 )
 241:..\..\u8g2\csrc/u8x8_d_ks0108.c ****       {
 242:..\..\u8g2\csrc/u8x8_d_ks0108.c **** 	u8x8->cad_cb(u8x8, U8X8_MSG_CAD_START_TRANSFER, 3, NULL);
 243:..\..\u8g2\csrc/u8x8_d_ks0108.c **** 	u8x8_cad_SendSequence(u8x8, u8x8_d_ks0108_powersave0_seq);
 244:..\..\u8g2\csrc/u8x8_d_ks0108.c **** 	u8x8->cad_cb(u8x8, U8X8_MSG_CAD_END_TRANSFER, 7, NULL);
 245:..\..\u8g2\csrc/u8x8_d_ks0108.c **** 
 246:..\..\u8g2\csrc/u8x8_d_ks0108.c **** 	u8x8->cad_cb(u8x8, U8X8_MSG_CAD_START_TRANSFER, 5, NULL);
 247:..\..\u8g2\csrc/u8x8_d_ks0108.c **** 	u8x8_cad_SendSequence(u8x8, u8x8_d_ks0108_powersave0_seq);
 248:..\..\u8g2\csrc/u8x8_d_ks0108.c **** 	u8x8->cad_cb(u8x8, U8X8_MSG_CAD_END_TRANSFER, 7, NULL);
 249:..\..\u8g2\csrc/u8x8_d_ks0108.c **** 
 250:..\..\u8g2\csrc/u8x8_d_ks0108.c **** 	u8x8->cad_cb(u8x8, U8X8_MSG_CAD_START_TRANSFER, 6, NULL);
 251:..\..\u8g2\csrc/u8x8_d_ks0108.c **** 	u8x8_cad_SendSequence(u8x8, u8x8_d_ks0108_powersave0_seq);
 252:..\..\u8g2\csrc/u8x8_d_ks0108.c **** 	u8x8->cad_cb(u8x8, U8X8_MSG_CAD_END_TRANSFER, 7, NULL);
 253:..\..\u8g2\csrc/u8x8_d_ks0108.c **** 	
 254:..\..\u8g2\csrc/u8x8_d_ks0108.c ****       }
 255:..\..\u8g2\csrc/u8x8_d_ks0108.c ****       else
 256:..\..\u8g2\csrc/u8x8_d_ks0108.c ****       {
 257:..\..\u8g2\csrc/u8x8_d_ks0108.c **** 	u8x8->cad_cb(u8x8, U8X8_MSG_CAD_START_TRANSFER, 3, NULL);
 258:..\..\u8g2\csrc/u8x8_d_ks0108.c **** 	u8x8_cad_SendSequence(u8x8, u8x8_d_ks0108_powersave1_seq);
 259:..\..\u8g2\csrc/u8x8_d_ks0108.c **** 	u8x8->cad_cb(u8x8, U8X8_MSG_CAD_END_TRANSFER, 7, NULL);
 260:..\..\u8g2\csrc/u8x8_d_ks0108.c **** 
 261:..\..\u8g2\csrc/u8x8_d_ks0108.c **** 	u8x8->cad_cb(u8x8, U8X8_MSG_CAD_START_TRANSFER, 5, NULL);
 262:..\..\u8g2\csrc/u8x8_d_ks0108.c **** 	u8x8_cad_SendSequence(u8x8, u8x8_d_ks0108_powersave1_seq);
 263:..\..\u8g2\csrc/u8x8_d_ks0108.c **** 	u8x8->cad_cb(u8x8, U8X8_MSG_CAD_END_TRANSFER, 7, NULL);
ARM GAS  C:\Users\arh\AppData\Local\Temp\ccJD0jv6.s 			page 15


 264:..\..\u8g2\csrc/u8x8_d_ks0108.c **** 
 265:..\..\u8g2\csrc/u8x8_d_ks0108.c **** 	u8x8->cad_cb(u8x8, U8X8_MSG_CAD_START_TRANSFER, 6, NULL);
 266:..\..\u8g2\csrc/u8x8_d_ks0108.c **** 	u8x8_cad_SendSequence(u8x8, u8x8_d_ks0108_powersave1_seq);
 267:..\..\u8g2\csrc/u8x8_d_ks0108.c **** 	u8x8->cad_cb(u8x8, U8X8_MSG_CAD_END_TRANSFER, 7, NULL);
 268:..\..\u8g2\csrc/u8x8_d_ks0108.c **** 	
 269:..\..\u8g2\csrc/u8x8_d_ks0108.c ****       }
 270:..\..\u8g2\csrc/u8x8_d_ks0108.c ****       break;
 271:..\..\u8g2\csrc/u8x8_d_ks0108.c **** // The KS0108 can not mirror the cols and rows, use U8g2 for rotation
 272:..\..\u8g2\csrc/u8x8_d_ks0108.c **** //    case U8X8_MSG_DISPLAY_SET_FLIP_MODE:
 273:..\..\u8g2\csrc/u8x8_d_ks0108.c **** //      break;
 274:..\..\u8g2\csrc/u8x8_d_ks0108.c **** // The KS0108 has no internal contrast command
 275:..\..\u8g2\csrc/u8x8_d_ks0108.c **** //    case U8X8_MSG_DISPLAY_SET_CONTRAST:
 276:..\..\u8g2\csrc/u8x8_d_ks0108.c **** //      break;
 277:..\..\u8g2\csrc/u8x8_d_ks0108.c ****     case U8X8_MSG_DISPLAY_DRAW_TILE:
 278:..\..\u8g2\csrc/u8x8_d_ks0108.c **** 
 279:..\..\u8g2\csrc/u8x8_d_ks0108.c ****       v.ptr = ((u8x8_tile_t *)arg_ptr)->tile_ptr;
 280:..\..\u8g2\csrc/u8x8_d_ks0108.c ****       v.x = ((u8x8_tile_t *)arg_ptr)->x_pos;
 281:..\..\u8g2\csrc/u8x8_d_ks0108.c ****       v.c = ((u8x8_tile_t *)arg_ptr)->cnt;
 282:..\..\u8g2\csrc/u8x8_d_ks0108.c ****       v.arg_int = arg_int;    
 283:..\..\u8g2\csrc/u8x8_d_ks0108.c ****       
 284:..\..\u8g2\csrc/u8x8_d_ks0108.c ****       
 285:..\..\u8g2\csrc/u8x8_d_ks0108.c ****       if ( v.x < 8 )
 286:..\..\u8g2\csrc/u8x8_d_ks0108.c ****       {
 287:..\..\u8g2\csrc/u8x8_d_ks0108.c **** 	u8x8->cad_cb(u8x8, U8X8_MSG_CAD_START_TRANSFER, 3, NULL);
 288:..\..\u8g2\csrc/u8x8_d_ks0108.c **** 	u8x8_ks0108_out(u8x8, &v, arg_ptr);
 289:..\..\u8g2\csrc/u8x8_d_ks0108.c **** 	u8x8->cad_cb(u8x8, U8X8_MSG_CAD_END_TRANSFER, 7, NULL);
 290:..\..\u8g2\csrc/u8x8_d_ks0108.c ****       }
 291:..\..\u8g2\csrc/u8x8_d_ks0108.c ****       if ( v.x < 16 )
 292:..\..\u8g2\csrc/u8x8_d_ks0108.c ****       {
 293:..\..\u8g2\csrc/u8x8_d_ks0108.c **** 	u8x8->cad_cb(u8x8, U8X8_MSG_CAD_START_TRANSFER, 5, NULL);
 294:..\..\u8g2\csrc/u8x8_d_ks0108.c **** 	u8x8_ks0108_out(u8x8, &v, arg_ptr);
 295:..\..\u8g2\csrc/u8x8_d_ks0108.c **** 	u8x8->cad_cb(u8x8, U8X8_MSG_CAD_END_TRANSFER, 7, NULL);
 296:..\..\u8g2\csrc/u8x8_d_ks0108.c ****       }
 297:..\..\u8g2\csrc/u8x8_d_ks0108.c ****       if ( v.x < 24 )
 298:..\..\u8g2\csrc/u8x8_d_ks0108.c ****       {
 299:..\..\u8g2\csrc/u8x8_d_ks0108.c **** 	u8x8->cad_cb(u8x8, U8X8_MSG_CAD_START_TRANSFER, 6, NULL);
 300:..\..\u8g2\csrc/u8x8_d_ks0108.c **** 	u8x8_ks0108_out(u8x8, &v, arg_ptr);
 301:..\..\u8g2\csrc/u8x8_d_ks0108.c **** 	u8x8->cad_cb(u8x8, U8X8_MSG_CAD_END_TRANSFER, 7, NULL);
 302:..\..\u8g2\csrc/u8x8_d_ks0108.c ****       }    
 303:..\..\u8g2\csrc/u8x8_d_ks0108.c ****       break;
 304:..\..\u8g2\csrc/u8x8_d_ks0108.c ****     default:
 305:..\..\u8g2\csrc/u8x8_d_ks0108.c ****       return 0;
 306:..\..\u8g2\csrc/u8x8_d_ks0108.c ****   }
 307:..\..\u8g2\csrc/u8x8_d_ks0108.c ****   return 1;
 500              		.loc 1 307 0
 501 0026 0120     		movs	r0, #1
 222:..\..\u8g2\csrc/u8x8_d_ks0108.c ****       break;
 502              		.loc 1 222 0
 503 0028 E8E0     		b	.L22
 504              	.LVL72:
 505              	.L23:
 224:..\..\u8g2\csrc/u8x8_d_ks0108.c ****     
 506              		.loc 1 224 0
 507 002a FFF7FEFF 		bl	u8x8_d_helper_display_init
 508              	.LVL73:
 226:..\..\u8g2\csrc/u8x8_d_ks0108.c ****       u8x8_cad_SendSequence(u8x8, u8x8_d_ks0108_init_seq);
 509              		.loc 1 226 0
ARM GAS  C:\Users\arh\AppData\Local\Temp\ccJD0jv6.s 			page 16


 510 002e 0023     		movs	r3, #0
 511 0030 0322     		movs	r2, #3
 512 0032 1821     		movs	r1, #24
 513 0034 2000     		movs	r0, r4
 514 0036 E568     		ldr	r5, [r4, #12]
 515              	.LVL74:
 516 0038 A847     		blx	r5
 517              	.LVL75:
 227:..\..\u8g2\csrc/u8x8_d_ks0108.c ****       u8x8->cad_cb(u8x8, U8X8_MSG_CAD_END_TRANSFER, 7, NULL);
 518              		.loc 1 227 0
 519 003a 714D     		ldr	r5, .L33
 520 003c 1835     		adds	r5, r5, #24
 521 003e 2900     		movs	r1, r5
 522 0040 2000     		movs	r0, r4
 523 0042 FFF7FEFF 		bl	u8x8_cad_SendSequence
 524              	.LVL76:
 228:..\..\u8g2\csrc/u8x8_d_ks0108.c ****     
 525              		.loc 1 228 0
 526 0046 0023     		movs	r3, #0
 527 0048 0722     		movs	r2, #7
 528 004a 1921     		movs	r1, #25
 529 004c 2000     		movs	r0, r4
 530 004e E668     		ldr	r6, [r4, #12]
 531 0050 B047     		blx	r6
 532              	.LVL77:
 230:..\..\u8g2\csrc/u8x8_d_ks0108.c ****       u8x8_cad_SendSequence(u8x8, u8x8_d_ks0108_init_seq);
 533              		.loc 1 230 0
 534 0052 0023     		movs	r3, #0
 535 0054 0522     		movs	r2, #5
 536 0056 1821     		movs	r1, #24
 537 0058 2000     		movs	r0, r4
 538 005a E668     		ldr	r6, [r4, #12]
 539 005c B047     		blx	r6
 540              	.LVL78:
 231:..\..\u8g2\csrc/u8x8_d_ks0108.c ****       u8x8->cad_cb(u8x8, U8X8_MSG_CAD_END_TRANSFER, 7, NULL);
 541              		.loc 1 231 0
 542 005e 2900     		movs	r1, r5
 543 0060 2000     		movs	r0, r4
 544 0062 FFF7FEFF 		bl	u8x8_cad_SendSequence
 545              	.LVL79:
 232:..\..\u8g2\csrc/u8x8_d_ks0108.c ****     
 546              		.loc 1 232 0
 547 0066 0023     		movs	r3, #0
 548 0068 0722     		movs	r2, #7
 549 006a 1921     		movs	r1, #25
 550 006c 2000     		movs	r0, r4
 551 006e E668     		ldr	r6, [r4, #12]
 552 0070 B047     		blx	r6
 553              	.LVL80:
 234:..\..\u8g2\csrc/u8x8_d_ks0108.c ****       u8x8_cad_SendSequence(u8x8, u8x8_d_ks0108_init_seq);
 554              		.loc 1 234 0
 555 0072 0023     		movs	r3, #0
 556 0074 0622     		movs	r2, #6
 557 0076 1821     		movs	r1, #24
 558 0078 2000     		movs	r0, r4
 559 007a E668     		ldr	r6, [r4, #12]
 560 007c B047     		blx	r6
ARM GAS  C:\Users\arh\AppData\Local\Temp\ccJD0jv6.s 			page 17


 561              	.LVL81:
 235:..\..\u8g2\csrc/u8x8_d_ks0108.c ****       u8x8->cad_cb(u8x8, U8X8_MSG_CAD_END_TRANSFER, 7, NULL);
 562              		.loc 1 235 0
 563 007e 2900     		movs	r1, r5
 564 0080 2000     		movs	r0, r4
 565 0082 FFF7FEFF 		bl	u8x8_cad_SendSequence
 566              	.LVL82:
 236:..\..\u8g2\csrc/u8x8_d_ks0108.c ****       break;
 567              		.loc 1 236 0
 568 0086 E568     		ldr	r5, [r4, #12]
 569 0088 0023     		movs	r3, #0
 570 008a 0722     		movs	r2, #7
 571 008c 1921     		movs	r1, #25
 572 008e 2000     		movs	r0, r4
 573 0090 A847     		blx	r5
 574              	.LVL83:
 575              		.loc 1 307 0
 576 0092 0120     		movs	r0, #1
 237:..\..\u8g2\csrc/u8x8_d_ks0108.c ****     case U8X8_MSG_DISPLAY_SET_POWER_SAVE:
 577              		.loc 1 237 0
 578 0094 B2E0     		b	.L22
 579              	.LVL84:
 580              	.L26:
 240:..\..\u8g2\csrc/u8x8_d_ks0108.c ****       {
 581              		.loc 1 240 0
 582 0096 002A     		cmp	r2, #0
 583 0098 32D1     		bne	.L28
 242:..\..\u8g2\csrc/u8x8_d_ks0108.c **** 	u8x8_cad_SendSequence(u8x8, u8x8_d_ks0108_powersave0_seq);
 584              		.loc 1 242 0
 585 009a 0023     		movs	r3, #0
 586              	.LVL85:
 587 009c 0332     		adds	r2, r2, #3
 588              	.LVL86:
 589 009e 1821     		movs	r1, #24
 590              	.LVL87:
 591 00a0 C568     		ldr	r5, [r0, #12]
 592              	.LVL88:
 593 00a2 A847     		blx	r5
 594              	.LVL89:
 243:..\..\u8g2\csrc/u8x8_d_ks0108.c **** 	u8x8->cad_cb(u8x8, U8X8_MSG_CAD_END_TRANSFER, 7, NULL);
 595              		.loc 1 243 0
 596 00a4 564D     		ldr	r5, .L33
 597 00a6 1C35     		adds	r5, r5, #28
 598 00a8 2900     		movs	r1, r5
 599 00aa 2000     		movs	r0, r4
 600 00ac FFF7FEFF 		bl	u8x8_cad_SendSequence
 601              	.LVL90:
 244:..\..\u8g2\csrc/u8x8_d_ks0108.c **** 
 602              		.loc 1 244 0
 603 00b0 0023     		movs	r3, #0
 604 00b2 0722     		movs	r2, #7
 605 00b4 1921     		movs	r1, #25
 606 00b6 2000     		movs	r0, r4
 607 00b8 E668     		ldr	r6, [r4, #12]
 608 00ba B047     		blx	r6
 609              	.LVL91:
 246:..\..\u8g2\csrc/u8x8_d_ks0108.c **** 	u8x8_cad_SendSequence(u8x8, u8x8_d_ks0108_powersave0_seq);
ARM GAS  C:\Users\arh\AppData\Local\Temp\ccJD0jv6.s 			page 18


 610              		.loc 1 246 0
 611 00bc 0023     		movs	r3, #0
 612 00be 0522     		movs	r2, #5
 613 00c0 1821     		movs	r1, #24
 614 00c2 2000     		movs	r0, r4
 615 00c4 E668     		ldr	r6, [r4, #12]
 616 00c6 B047     		blx	r6
 617              	.LVL92:
 247:..\..\u8g2\csrc/u8x8_d_ks0108.c **** 	u8x8->cad_cb(u8x8, U8X8_MSG_CAD_END_TRANSFER, 7, NULL);
 618              		.loc 1 247 0
 619 00c8 2900     		movs	r1, r5
 620 00ca 2000     		movs	r0, r4
 621 00cc FFF7FEFF 		bl	u8x8_cad_SendSequence
 622              	.LVL93:
 248:..\..\u8g2\csrc/u8x8_d_ks0108.c **** 
 623              		.loc 1 248 0
 624 00d0 0023     		movs	r3, #0
 625 00d2 0722     		movs	r2, #7
 626 00d4 1921     		movs	r1, #25
 627 00d6 2000     		movs	r0, r4
 628 00d8 E668     		ldr	r6, [r4, #12]
 629 00da B047     		blx	r6
 630              	.LVL94:
 250:..\..\u8g2\csrc/u8x8_d_ks0108.c **** 	u8x8_cad_SendSequence(u8x8, u8x8_d_ks0108_powersave0_seq);
 631              		.loc 1 250 0
 632 00dc 0023     		movs	r3, #0
 633 00de 0622     		movs	r2, #6
 634 00e0 1821     		movs	r1, #24
 635 00e2 2000     		movs	r0, r4
 636 00e4 E668     		ldr	r6, [r4, #12]
 637 00e6 B047     		blx	r6
 638              	.LVL95:
 251:..\..\u8g2\csrc/u8x8_d_ks0108.c **** 	u8x8->cad_cb(u8x8, U8X8_MSG_CAD_END_TRANSFER, 7, NULL);
 639              		.loc 1 251 0
 640 00e8 2900     		movs	r1, r5
 641 00ea 2000     		movs	r0, r4
 642 00ec FFF7FEFF 		bl	u8x8_cad_SendSequence
 643              	.LVL96:
 252:..\..\u8g2\csrc/u8x8_d_ks0108.c **** 	
 644              		.loc 1 252 0
 645 00f0 E568     		ldr	r5, [r4, #12]
 646 00f2 0023     		movs	r3, #0
 647 00f4 0722     		movs	r2, #7
 648 00f6 1921     		movs	r1, #25
 649 00f8 2000     		movs	r0, r4
 650 00fa A847     		blx	r5
 651              	.LVL97:
 652              		.loc 1 307 0
 653 00fc 0120     		movs	r0, #1
 654 00fe 7DE0     		b	.L22
 655              	.LVL98:
 656              	.L28:
 257:..\..\u8g2\csrc/u8x8_d_ks0108.c **** 	u8x8_cad_SendSequence(u8x8, u8x8_d_ks0108_powersave1_seq);
 657              		.loc 1 257 0
 658 0100 0023     		movs	r3, #0
 659              	.LVL99:
 660 0102 0322     		movs	r2, #3
ARM GAS  C:\Users\arh\AppData\Local\Temp\ccJD0jv6.s 			page 19


 661              	.LVL100:
 662 0104 1821     		movs	r1, #24
 663              	.LVL101:
 664 0106 C568     		ldr	r5, [r0, #12]
 665              	.LVL102:
 666 0108 A847     		blx	r5
 667              	.LVL103:
 258:..\..\u8g2\csrc/u8x8_d_ks0108.c **** 	u8x8->cad_cb(u8x8, U8X8_MSG_CAD_END_TRANSFER, 7, NULL);
 668              		.loc 1 258 0
 669 010a 3D4D     		ldr	r5, .L33
 670 010c 2035     		adds	r5, r5, #32
 671 010e 2900     		movs	r1, r5
 672 0110 2000     		movs	r0, r4
 673 0112 FFF7FEFF 		bl	u8x8_cad_SendSequence
 674              	.LVL104:
 259:..\..\u8g2\csrc/u8x8_d_ks0108.c **** 
 675              		.loc 1 259 0
 676 0116 0023     		movs	r3, #0
 677 0118 0722     		movs	r2, #7
 678 011a 1921     		movs	r1, #25
 679 011c 2000     		movs	r0, r4
 680 011e E668     		ldr	r6, [r4, #12]
 681 0120 B047     		blx	r6
 682              	.LVL105:
 261:..\..\u8g2\csrc/u8x8_d_ks0108.c **** 	u8x8_cad_SendSequence(u8x8, u8x8_d_ks0108_powersave1_seq);
 683              		.loc 1 261 0
 684 0122 0023     		movs	r3, #0
 685 0124 0522     		movs	r2, #5
 686 0126 1821     		movs	r1, #24
 687 0128 2000     		movs	r0, r4
 688 012a E668     		ldr	r6, [r4, #12]
 689 012c B047     		blx	r6
 690              	.LVL106:
 262:..\..\u8g2\csrc/u8x8_d_ks0108.c **** 	u8x8->cad_cb(u8x8, U8X8_MSG_CAD_END_TRANSFER, 7, NULL);
 691              		.loc 1 262 0
 692 012e 2900     		movs	r1, r5
 693 0130 2000     		movs	r0, r4
 694 0132 FFF7FEFF 		bl	u8x8_cad_SendSequence
 695              	.LVL107:
 263:..\..\u8g2\csrc/u8x8_d_ks0108.c **** 
 696              		.loc 1 263 0
 697 0136 0023     		movs	r3, #0
 698 0138 0722     		movs	r2, #7
 699 013a 1921     		movs	r1, #25
 700 013c 2000     		movs	r0, r4
 701 013e E668     		ldr	r6, [r4, #12]
 702 0140 B047     		blx	r6
 703              	.LVL108:
 265:..\..\u8g2\csrc/u8x8_d_ks0108.c **** 	u8x8_cad_SendSequence(u8x8, u8x8_d_ks0108_powersave1_seq);
 704              		.loc 1 265 0
 705 0142 0023     		movs	r3, #0
 706 0144 0622     		movs	r2, #6
 707 0146 1821     		movs	r1, #24
 708 0148 2000     		movs	r0, r4
 709 014a E668     		ldr	r6, [r4, #12]
 710 014c B047     		blx	r6
 711              	.LVL109:
ARM GAS  C:\Users\arh\AppData\Local\Temp\ccJD0jv6.s 			page 20


 266:..\..\u8g2\csrc/u8x8_d_ks0108.c **** 	u8x8->cad_cb(u8x8, U8X8_MSG_CAD_END_TRANSFER, 7, NULL);
 712              		.loc 1 266 0
 713 014e 2900     		movs	r1, r5
 714 0150 2000     		movs	r0, r4
 715 0152 FFF7FEFF 		bl	u8x8_cad_SendSequence
 716              	.LVL110:
 267:..\..\u8g2\csrc/u8x8_d_ks0108.c **** 	
 717              		.loc 1 267 0
 718 0156 E568     		ldr	r5, [r4, #12]
 719 0158 0023     		movs	r3, #0
 720 015a 0722     		movs	r2, #7
 721 015c 1921     		movs	r1, #25
 722 015e 2000     		movs	r0, r4
 723 0160 A847     		blx	r5
 724              	.LVL111:
 725              		.loc 1 307 0
 726 0162 0120     		movs	r0, #1
 727 0164 4AE0     		b	.L22
 728              	.LVL112:
 729              	.L27:
 279:..\..\u8g2\csrc/u8x8_d_ks0108.c ****       v.x = ((u8x8_tile_t *)arg_ptr)->x_pos;
 730              		.loc 1 279 0
 731 0166 1B68     		ldr	r3, [r3]
 732              	.LVL113:
 733 0168 0093     		str	r3, [sp]
 280:..\..\u8g2\csrc/u8x8_d_ks0108.c ****       v.c = ((u8x8_tile_t *)arg_ptr)->cnt;
 734              		.loc 1 280 0
 735 016a 6B79     		ldrb	r3, [r5, #5]
 736 016c 6946     		mov	r1, sp
 737              	.LVL114:
 738 016e 0B71     		strb	r3, [r1, #4]
 281:..\..\u8g2\csrc/u8x8_d_ks0108.c ****       v.arg_int = arg_int;    
 739              		.loc 1 281 0
 740 0170 2979     		ldrb	r1, [r5, #4]
 741 0172 6846     		mov	r0, sp
 742              	.LVL115:
 743 0174 4171     		strb	r1, [r0, #5]
 282:..\..\u8g2\csrc/u8x8_d_ks0108.c ****       
 744              		.loc 1 282 0
 745 0176 8271     		strb	r2, [r0, #6]
 285:..\..\u8g2\csrc/u8x8_d_ks0108.c ****       {
 746              		.loc 1 285 0
 747 0178 072B     		cmp	r3, #7
 748 017a 10D8     		bhi	.L29
 287:..\..\u8g2\csrc/u8x8_d_ks0108.c **** 	u8x8_ks0108_out(u8x8, &v, arg_ptr);
 749              		.loc 1 287 0
 750 017c 0023     		movs	r3, #0
 751 017e 0322     		movs	r2, #3
 752              	.LVL116:
 753 0180 1821     		movs	r1, #24
 754 0182 2000     		movs	r0, r4
 755              	.LVL117:
 756 0184 E668     		ldr	r6, [r4, #12]
 757 0186 B047     		blx	r6
 758              	.LVL118:
 288:..\..\u8g2\csrc/u8x8_d_ks0108.c **** 	u8x8->cad_cb(u8x8, U8X8_MSG_CAD_END_TRANSFER, 7, NULL);
 759              		.loc 1 288 0
ARM GAS  C:\Users\arh\AppData\Local\Temp\ccJD0jv6.s 			page 21


 760 0188 2A00     		movs	r2, r5
 761 018a 6946     		mov	r1, sp
 762 018c 2000     		movs	r0, r4
 763 018e FFF7FEFF 		bl	u8x8_ks0108_out
 764              	.LVL119:
 289:..\..\u8g2\csrc/u8x8_d_ks0108.c ****       }
 765              		.loc 1 289 0
 766 0192 0023     		movs	r3, #0
 767 0194 0722     		movs	r2, #7
 768 0196 1921     		movs	r1, #25
 769 0198 2000     		movs	r0, r4
 770 019a E668     		ldr	r6, [r4, #12]
 771 019c B047     		blx	r6
 772              	.LVL120:
 773              	.L29:
 291:..\..\u8g2\csrc/u8x8_d_ks0108.c ****       {
 774              		.loc 1 291 0
 775 019e 6B46     		mov	r3, sp
 776 01a0 1B79     		ldrb	r3, [r3, #4]
 777 01a2 0F2B     		cmp	r3, #15
 778 01a4 10D8     		bhi	.L30
 293:..\..\u8g2\csrc/u8x8_d_ks0108.c **** 	u8x8_ks0108_out(u8x8, &v, arg_ptr);
 779              		.loc 1 293 0
 780 01a6 0023     		movs	r3, #0
 781 01a8 0522     		movs	r2, #5
 782 01aa 1821     		movs	r1, #24
 783 01ac 2000     		movs	r0, r4
 784 01ae E668     		ldr	r6, [r4, #12]
 785 01b0 B047     		blx	r6
 786              	.LVL121:
 294:..\..\u8g2\csrc/u8x8_d_ks0108.c **** 	u8x8->cad_cb(u8x8, U8X8_MSG_CAD_END_TRANSFER, 7, NULL);
 787              		.loc 1 294 0
 788 01b2 2A00     		movs	r2, r5
 789 01b4 6946     		mov	r1, sp
 790 01b6 2000     		movs	r0, r4
 791 01b8 FFF7FEFF 		bl	u8x8_ks0108_out
 792              	.LVL122:
 295:..\..\u8g2\csrc/u8x8_d_ks0108.c ****       }
 793              		.loc 1 295 0
 794 01bc 0023     		movs	r3, #0
 795 01be 0722     		movs	r2, #7
 796 01c0 1921     		movs	r1, #25
 797 01c2 2000     		movs	r0, r4
 798 01c4 E668     		ldr	r6, [r4, #12]
 799 01c6 B047     		blx	r6
 800              	.LVL123:
 801              	.L30:
 297:..\..\u8g2\csrc/u8x8_d_ks0108.c ****       {
 802              		.loc 1 297 0
 803 01c8 6B46     		mov	r3, sp
 804 01ca 1B79     		ldrb	r3, [r3, #4]
 805 01cc 172B     		cmp	r3, #23
 806 01ce 14D8     		bhi	.L32
 299:..\..\u8g2\csrc/u8x8_d_ks0108.c **** 	u8x8_ks0108_out(u8x8, &v, arg_ptr);
 807              		.loc 1 299 0
 808 01d0 0023     		movs	r3, #0
 809 01d2 0622     		movs	r2, #6
ARM GAS  C:\Users\arh\AppData\Local\Temp\ccJD0jv6.s 			page 22


 810 01d4 1821     		movs	r1, #24
 811 01d6 2000     		movs	r0, r4
 812 01d8 E668     		ldr	r6, [r4, #12]
 813 01da B047     		blx	r6
 814              	.LVL124:
 300:..\..\u8g2\csrc/u8x8_d_ks0108.c **** 	u8x8->cad_cb(u8x8, U8X8_MSG_CAD_END_TRANSFER, 7, NULL);
 815              		.loc 1 300 0
 816 01dc 2A00     		movs	r2, r5
 817 01de 6946     		mov	r1, sp
 818 01e0 2000     		movs	r0, r4
 819 01e2 FFF7FEFF 		bl	u8x8_ks0108_out
 820              	.LVL125:
 301:..\..\u8g2\csrc/u8x8_d_ks0108.c ****       }    
 821              		.loc 1 301 0
 822 01e6 E568     		ldr	r5, [r4, #12]
 823              	.LVL126:
 824 01e8 0023     		movs	r3, #0
 825 01ea 0722     		movs	r2, #7
 826 01ec 1921     		movs	r1, #25
 827 01ee 2000     		movs	r0, r4
 828 01f0 A847     		blx	r5
 829              	.LVL127:
 830              		.loc 1 307 0
 831 01f2 0120     		movs	r0, #1
 832 01f4 02E0     		b	.L22
 833              	.LVL128:
 834              	.L31:
 305:..\..\u8g2\csrc/u8x8_d_ks0108.c ****   }
 835              		.loc 1 305 0
 836 01f6 0020     		movs	r0, #0
 837              	.LVL129:
 838 01f8 00E0     		b	.L22
 839              	.LVL130:
 840              	.L32:
 841              		.loc 1 307 0
 842 01fa 0120     		movs	r0, #1
 843              	.LVL131:
 844              	.L22:
 308:..\..\u8g2\csrc/u8x8_d_ks0108.c **** }
 845              		.loc 1 308 0
 846 01fc 02B0     		add	sp, sp, #8
 847              		@ sp needed
 848              	.LVL132:
 849 01fe 70BD     		pop	{r4, r5, r6, pc}
 850              	.L34:
 851              		.align	2
 852              	.L33:
 853 0200 00000000 		.word	.LANCHOR0
 854              		.cfi_endproc
 855              	.LFE2:
 856              		.size	u8x8_d_ks0108_erm19264, .-u8x8_d_ks0108_erm19264
 857              		.section	.rodata
 858              		.align	2
 859              		.set	.LANCHOR0,. + 0
 860              		.type	u8x8_ks0108_128x64_display_info, %object
 861              		.size	u8x8_ks0108_128x64_display_info, 24
 862              	u8x8_ks0108_128x64_display_info:
ARM GAS  C:\Users\arh\AppData\Local\Temp\ccJD0jv6.s 			page 23


 863 0000 00       		.byte	0
 864 0001 01       		.byte	1
 865 0002 64       		.byte	100
 866 0003 14       		.byte	20
 867 0004 01       		.byte	1
 868 0005 06       		.byte	6
 869 0006 0C       		.byte	12
 870 0007 4B       		.byte	75
 871 0008 00093D00 		.word	4000000
 872 000c 00       		.byte	0
 873 000d 04       		.byte	4
 874 000e C8       		.byte	-56
 875 000f C8       		.byte	-56
 876 0010 10       		.byte	16
 877 0011 08       		.byte	8
 878 0012 00       		.byte	0
 879 0013 00       		.byte	0
 880 0014 8000     		.short	128
 881 0016 4000     		.short	64
 882              		.type	u8x8_d_ks0108_init_seq, %object
 883              		.size	u8x8_d_ks0108_init_seq, 3
 884              	u8x8_d_ks0108_init_seq:
 885 0018 15       		.byte	21
 886 0019 C0       		.byte	-64
 887 001a FF       		.byte	-1
 888 001b 00       		.space	1
 889              		.type	u8x8_d_ks0108_powersave0_seq, %object
 890              		.size	u8x8_d_ks0108_powersave0_seq, 3
 891              	u8x8_d_ks0108_powersave0_seq:
 892 001c 15       		.byte	21
 893 001d 3F       		.byte	63
 894 001e FF       		.byte	-1
 895 001f 00       		.space	1
 896              		.type	u8x8_d_ks0108_powersave1_seq, %object
 897              		.size	u8x8_d_ks0108_powersave1_seq, 3
 898              	u8x8_d_ks0108_powersave1_seq:
 899 0020 15       		.byte	21
 900 0021 3E       		.byte	62
 901 0022 FF       		.byte	-1
 902              		.text
 903              	.Letext0:
 904              		.file 2 "c:\\program files (x86)\\cypress\\psoc creator\\4.1\\psoc creator\\import\\gnu\\arm\\5.4.
 905              		.file 3 "c:\\program files (x86)\\cypress\\psoc creator\\4.1\\psoc creator\\import\\gnu\\arm\\5.4.
 906              		.file 4 "..\\..\\u8g2\\csrc\\u8x8.h"