ARM GAS  C:\Users\Alan\AppData\Local\Temp\ccosRq0F.s 			page 1


   1              		.syntax unified
   2              		.cpu cortex-m0
   3              		.fpu softvfp
   4              		.eabi_attribute 20, 1
   5              		.eabi_attribute 21, 1
   6              		.eabi_attribute 23, 3
   7              		.eabi_attribute 24, 1
   8              		.eabi_attribute 25, 1
   9              		.eabi_attribute 26, 1
  10              		.eabi_attribute 30, 1
  11              		.eabi_attribute 34, 0
  12              		.eabi_attribute 18, 4
  13              		.thumb
  14              		.syntax unified
  15              		.file	"u8x8_u8toa.c"
  16              		.text
  17              	.Ltext0:
  18              		.cfi_sections	.debug_frame
  19              		.section	.text.u8x8_u8toap,"ax",%progbits
  20              		.align	2
  21              		.global	u8x8_u8toap
  22              		.code	16
  23              		.thumb_func
  24              		.type	u8x8_u8toap, %function
  25              	u8x8_u8toap:
  26              	.LFB0:
  27              		.file 1 "..\\..\\u8g2\\csrc\\u8x8_u8toa.c"
   1:..\..\u8g2\csrc/u8x8_u8toa.c **** /*
   2:..\..\u8g2\csrc/u8x8_u8toa.c **** 
   3:..\..\u8g2\csrc/u8x8_u8toa.c ****   u8x8_u8toa.c
   4:..\..\u8g2\csrc/u8x8_u8toa.c **** 
   5:..\..\u8g2\csrc/u8x8_u8toa.c ****   Universal 8bit Graphics Library (https://github.com/olikraus/u8g2/)
   6:..\..\u8g2\csrc/u8x8_u8toa.c **** 
   7:..\..\u8g2\csrc/u8x8_u8toa.c ****   Copyright (c) 2016, olikraus@gmail.com
   8:..\..\u8g2\csrc/u8x8_u8toa.c ****   All rights reserved.
   9:..\..\u8g2\csrc/u8x8_u8toa.c **** 
  10:..\..\u8g2\csrc/u8x8_u8toa.c ****   Redistribution and use in source and binary forms, with or without modification, 
  11:..\..\u8g2\csrc/u8x8_u8toa.c ****   are permitted provided that the following conditions are met:
  12:..\..\u8g2\csrc/u8x8_u8toa.c **** 
  13:..\..\u8g2\csrc/u8x8_u8toa.c ****   * Redistributions of source code must retain the above copyright notice, this list 
  14:..\..\u8g2\csrc/u8x8_u8toa.c ****     of conditions and the following disclaimer.
  15:..\..\u8g2\csrc/u8x8_u8toa.c ****     
  16:..\..\u8g2\csrc/u8x8_u8toa.c ****   * Redistributions in binary form must reproduce the above copyright notice, this 
  17:..\..\u8g2\csrc/u8x8_u8toa.c ****     list of conditions and the following disclaimer in the documentation and/or other 
  18:..\..\u8g2\csrc/u8x8_u8toa.c ****     materials provided with the distribution.
  19:..\..\u8g2\csrc/u8x8_u8toa.c **** 
  20:..\..\u8g2\csrc/u8x8_u8toa.c ****   THIS SOFTWARE IS PROVIDED BY THE COPYRIGHT HOLDERS AND 
  21:..\..\u8g2\csrc/u8x8_u8toa.c ****   CONTRIBUTORS "AS IS" AND ANY EXPRESS OR IMPLIED WARRANTIES, 
  22:..\..\u8g2\csrc/u8x8_u8toa.c ****   INCLUDING, BUT NOT LIMITED TO, THE IMPLIED WARRANTIES OF 
  23:..\..\u8g2\csrc/u8x8_u8toa.c ****   MERCHANTABILITY AND FITNESS FOR A PARTICULAR PURPOSE ARE 
  24:..\..\u8g2\csrc/u8x8_u8toa.c ****   DISCLAIMED. IN NO EVENT SHALL THE COPYRIGHT HOLDER OR 
  25:..\..\u8g2\csrc/u8x8_u8toa.c ****   CONTRIBUTORS BE LIABLE FOR ANY DIRECT, INDIRECT, INCIDENTAL, 
  26:..\..\u8g2\csrc/u8x8_u8toa.c ****   SPECIAL, EXEMPLARY, OR CONSEQUENTIAL DAMAGES (INCLUDING, BUT 
  27:..\..\u8g2\csrc/u8x8_u8toa.c ****   NOT LIMITED TO, PROCUREMENT OF SUBSTITUTE GOODS OR SERVICES; 
  28:..\..\u8g2\csrc/u8x8_u8toa.c ****   LOSS OF USE, DATA, OR PROFITS; OR BUSINESS INTERRUPTION) HOWEVER 
  29:..\..\u8g2\csrc/u8x8_u8toa.c ****   CAUSED AND ON ANY THEORY OF LIABILITY, WHETHER IN CONTRACT, 
  30:..\..\u8g2\csrc/u8x8_u8toa.c ****   STRICT LIABILITY, OR TORT (INCLUDING NEGLIGENCE OR OTHERWISE) 
ARM GAS  C:\Users\Alan\AppData\Local\Temp\ccosRq0F.s 			page 2


  31:..\..\u8g2\csrc/u8x8_u8toa.c ****   ARISING IN ANY WAY OUT OF THE USE OF THIS SOFTWARE, EVEN IF 
  32:..\..\u8g2\csrc/u8x8_u8toa.c ****   ADVISED OF THE POSSIBILITY OF SUCH DAMAGE.  
  33:..\..\u8g2\csrc/u8x8_u8toa.c ****   
  34:..\..\u8g2\csrc/u8x8_u8toa.c **** */
  35:..\..\u8g2\csrc/u8x8_u8toa.c **** 
  36:..\..\u8g2\csrc/u8x8_u8toa.c **** 
  37:..\..\u8g2\csrc/u8x8_u8toa.c **** #include "u8x8.h"
  38:..\..\u8g2\csrc/u8x8_u8toa.c **** 
  39:..\..\u8g2\csrc/u8x8_u8toa.c **** static const unsigned char u8x8_u8toa_tab[3]  = { 100, 10, 1 } ;
  40:..\..\u8g2\csrc/u8x8_u8toa.c **** const char *u8x8_u8toap(char * dest, uint8_t v)
  41:..\..\u8g2\csrc/u8x8_u8toa.c **** {
  28              		.loc 1 41 0
  29              		.cfi_startproc
  30              		@ args = 0, pretend = 0, frame = 0
  31              		@ frame_needed = 0, uses_anonymous_args = 0
  32              	.LVL0:
  33 0000 30B5     		push	{r4, r5, lr}
  34              		.cfi_def_cfa_offset 12
  35              		.cfi_offset 4, -12
  36              		.cfi_offset 5, -8
  37              		.cfi_offset 14, -4
  38              	.LVL1:
  42:..\..\u8g2\csrc/u8x8_u8toa.c ****   uint8_t pos;
  43:..\..\u8g2\csrc/u8x8_u8toa.c ****   uint8_t d;
  44:..\..\u8g2\csrc/u8x8_u8toa.c ****   uint8_t c;
  45:..\..\u8g2\csrc/u8x8_u8toa.c ****   for( pos = 0; pos < 3; pos++ )
  39              		.loc 1 45 0
  40 0002 0024     		movs	r4, #0
  41 0004 0DE0     		b	.L2
  42              	.LVL2:
  43              	.L5:
  46:..\..\u8g2\csrc/u8x8_u8toa.c ****   {
  47:..\..\u8g2\csrc/u8x8_u8toa.c ****       d = '0';
  48:..\..\u8g2\csrc/u8x8_u8toa.c ****       c = *(u8x8_u8toa_tab+pos);
  44              		.loc 1 48 0
  45 0006 2500     		movs	r5, r4
  46 0008 084B     		ldr	r3, .L6
  47 000a 1A5D     		ldrb	r2, [r3, r4]
  48              	.LVL3:
  47:..\..\u8g2\csrc/u8x8_u8toa.c ****       c = *(u8x8_u8toa_tab+pos);
  49              		.loc 1 47 0
  50 000c 3023     		movs	r3, #48
  49:..\..\u8g2\csrc/u8x8_u8toa.c ****       while( v >= c )
  51              		.loc 1 49 0
  52 000e 03E0     		b	.L3
  53              	.LVL4:
  54              	.L4:
  50:..\..\u8g2\csrc/u8x8_u8toa.c ****       {
  51:..\..\u8g2\csrc/u8x8_u8toa.c **** 	v -= c;
  55              		.loc 1 51 0
  56 0010 891A     		subs	r1, r1, r2
  57              	.LVL5:
  58 0012 C9B2     		uxtb	r1, r1
  59              	.LVL6:
  52:..\..\u8g2\csrc/u8x8_u8toa.c **** 	d++;
  60              		.loc 1 52 0
  61 0014 0133     		adds	r3, r3, #1
ARM GAS  C:\Users\Alan\AppData\Local\Temp\ccosRq0F.s 			page 3


  62              	.LVL7:
  63 0016 DBB2     		uxtb	r3, r3
  64              	.LVL8:
  65              	.L3:
  49:..\..\u8g2\csrc/u8x8_u8toa.c ****       while( v >= c )
  66              		.loc 1 49 0
  67 0018 9142     		cmp	r1, r2
  68 001a F9D2     		bcs	.L4
  53:..\..\u8g2\csrc/u8x8_u8toa.c ****       }
  54:..\..\u8g2\csrc/u8x8_u8toa.c ****       dest[pos] = d;
  69              		.loc 1 54 0 discriminator 2
  70 001c 4355     		strb	r3, [r0, r5]
  45:..\..\u8g2\csrc/u8x8_u8toa.c ****   {
  71              		.loc 1 45 0 discriminator 2
  72 001e 0134     		adds	r4, r4, #1
  73              	.LVL9:
  74 0020 E4B2     		uxtb	r4, r4
  75              	.LVL10:
  76              	.L2:
  45:..\..\u8g2\csrc/u8x8_u8toa.c ****   {
  77              		.loc 1 45 0 is_stmt 0 discriminator 1
  78 0022 022C     		cmp	r4, #2
  79 0024 EFD9     		bls	.L5
  55:..\..\u8g2\csrc/u8x8_u8toa.c ****   }  
  56:..\..\u8g2\csrc/u8x8_u8toa.c ****   dest[3] = '\0';
  80              		.loc 1 56 0 is_stmt 1
  81 0026 0023     		movs	r3, #0
  82 0028 C370     		strb	r3, [r0, #3]
  57:..\..\u8g2\csrc/u8x8_u8toa.c ****   return dest;
  58:..\..\u8g2\csrc/u8x8_u8toa.c **** }
  83              		.loc 1 58 0
  84              		@ sp needed
  85              	.LVL11:
  86 002a 30BD     		pop	{r4, r5, pc}
  87              	.L7:
  88              		.align	2
  89              	.L6:
  90 002c 00000000 		.word	.LANCHOR0
  91              		.cfi_endproc
  92              	.LFE0:
  93              		.size	u8x8_u8toap, .-u8x8_u8toap
  94              		.section	.text.u8x8_u8toa,"ax",%progbits
  95              		.align	2
  96              		.global	u8x8_u8toa
  97              		.code	16
  98              		.thumb_func
  99              		.type	u8x8_u8toa, %function
 100              	u8x8_u8toa:
 101              	.LFB1:
  59:..\..\u8g2\csrc/u8x8_u8toa.c **** 
  60:..\..\u8g2\csrc/u8x8_u8toa.c **** /* v = value, d = number of digits */
  61:..\..\u8g2\csrc/u8x8_u8toa.c **** const char *u8x8_u8toa(uint8_t v, uint8_t d)
  62:..\..\u8g2\csrc/u8x8_u8toa.c **** {
 102              		.loc 1 62 0
 103              		.cfi_startproc
 104              		@ args = 0, pretend = 0, frame = 0
 105              		@ frame_needed = 0, uses_anonymous_args = 0
ARM GAS  C:\Users\Alan\AppData\Local\Temp\ccosRq0F.s 			page 4


 106              	.LVL12:
 107 0000 10B5     		push	{r4, lr}
 108              		.cfi_def_cfa_offset 8
 109              		.cfi_offset 4, -8
 110              		.cfi_offset 14, -4
  63:..\..\u8g2\csrc/u8x8_u8toa.c ****   static char buf[4];
  64:..\..\u8g2\csrc/u8x8_u8toa.c ****   d = 3-d;
 111              		.loc 1 64 0
 112 0002 0323     		movs	r3, #3
 113 0004 5C1A     		subs	r4, r3, r1
 114 0006 E4B2     		uxtb	r4, r4
 115              	.LVL13:
  65:..\..\u8g2\csrc/u8x8_u8toa.c ****   return u8x8_u8toap(buf, v) + d;
 116              		.loc 1 65 0
 117 0008 0100     		movs	r1, r0
 118 000a 0248     		ldr	r0, .L9
 119              	.LVL14:
 120 000c FFF7FEFF 		bl	u8x8_u8toap
 121              	.LVL15:
 122 0010 0019     		adds	r0, r0, r4
  66:..\..\u8g2\csrc/u8x8_u8toa.c **** }
 123              		.loc 1 66 0
 124              		@ sp needed
 125              	.LVL16:
 126 0012 10BD     		pop	{r4, pc}
 127              	.L10:
 128              		.align	2
 129              	.L9:
 130 0014 00000000 		.word	.LANCHOR1
 131              		.cfi_endproc
 132              	.LFE1:
 133              		.size	u8x8_u8toa, .-u8x8_u8toa
 134              		.section	.rodata
 135              		.align	2
 136              		.set	.LANCHOR0,. + 0
 137              		.type	u8x8_u8toa_tab, %object
 138              		.size	u8x8_u8toa_tab, 3
 139              	u8x8_u8toa_tab:
 140 0000 64       		.byte	100
 141 0001 0A       		.byte	10
 142 0002 01       		.byte	1
 143              		.bss
 144              		.align	2
 145              		.set	.LANCHOR1,. + 0
 146              		.type	buf.4877, %object
 147              		.size	buf.4877, 4
 148              	buf.4877:
 149 0000 00000000 		.space	4
 150              		.text
 151              	.Letext0:
 152              		.file 2 "c:\\program files (x86)\\cypress\\psoc creator\\4.1\\psoc creator\\import\\gnu\\arm\\5.4.
 153              		.file 3 "c:\\program files (x86)\\cypress\\psoc creator\\4.1\\psoc creator\\import\\gnu\\arm\\5.4.