ARM GAS  C:\Users\arh\AppData\Local\Temp\cc51Twqz.s 			page 1


   1              		.syntax unified
   2              		.cpu cortex-m0
   3              		.fpu softvfp
   4              		.eabi_attribute 20, 1
   5              		.eabi_attribute 21, 1
   6              		.eabi_attribute 23, 3
   7              		.eabi_attribute 24, 1
   8              		.eabi_attribute 25, 1
   9              		.eabi_attribute 26, 1
  10              		.eabi_attribute 30, 1
  11              		.eabi_attribute 34, 0
  12              		.eabi_attribute 18, 4
  13              		.thumb
  14              		.syntax unified
  15              		.file	"u8x8_d_ssd1306_128x64_noname.c"
  16              		.text
  17              	.Ltext0:
  18              		.cfi_sections	.debug_frame
  19              		.section	.text.u8x8_d_ssd1306_sh1106_generic,"ax",%progbits
  20              		.align	2
  21              		.code	16
  22              		.thumb_func
  23              		.type	u8x8_d_ssd1306_sh1106_generic, %function
  24              	u8x8_d_ssd1306_sh1106_generic:
  25              	.LFB0:
  26              		.file 1 "..\\..\\u8g2\\csrc\\u8x8_d_ssd1306_128x64_noname.c"
   1:..\..\u8g2\csrc/u8x8_d_ssd1306_128x64_noname.c **** /*
   2:..\..\u8g2\csrc/u8x8_d_ssd1306_128x64_noname.c **** 
   3:..\..\u8g2\csrc/u8x8_d_ssd1306_128x64_noname.c ****   u8x8_d_ssd1306_128x64_noname.c
   4:..\..\u8g2\csrc/u8x8_d_ssd1306_128x64_noname.c **** 
   5:..\..\u8g2\csrc/u8x8_d_ssd1306_128x64_noname.c ****   Universal 8bit Graphics Library (https://github.com/olikraus/u8g2/)
   6:..\..\u8g2\csrc/u8x8_d_ssd1306_128x64_noname.c **** 
   7:..\..\u8g2\csrc/u8x8_d_ssd1306_128x64_noname.c ****   Copyright (c) 2016, olikraus@gmail.com
   8:..\..\u8g2\csrc/u8x8_d_ssd1306_128x64_noname.c ****   All rights reserved.
   9:..\..\u8g2\csrc/u8x8_d_ssd1306_128x64_noname.c **** 
  10:..\..\u8g2\csrc/u8x8_d_ssd1306_128x64_noname.c ****   Redistribution and use in source and binary forms, with or without modification, 
  11:..\..\u8g2\csrc/u8x8_d_ssd1306_128x64_noname.c ****   are permitted provided that the following conditions are met:
  12:..\..\u8g2\csrc/u8x8_d_ssd1306_128x64_noname.c **** 
  13:..\..\u8g2\csrc/u8x8_d_ssd1306_128x64_noname.c ****   * Redistributions of source code must retain the above copyright notice, this list 
  14:..\..\u8g2\csrc/u8x8_d_ssd1306_128x64_noname.c ****     of conditions and the following disclaimer.
  15:..\..\u8g2\csrc/u8x8_d_ssd1306_128x64_noname.c ****     
  16:..\..\u8g2\csrc/u8x8_d_ssd1306_128x64_noname.c ****   * Redistributions in binary form must reproduce the above copyright notice, this 
  17:..\..\u8g2\csrc/u8x8_d_ssd1306_128x64_noname.c ****     list of conditions and the following disclaimer in the documentation and/or other 
  18:..\..\u8g2\csrc/u8x8_d_ssd1306_128x64_noname.c ****     materials provided with the distribution.
  19:..\..\u8g2\csrc/u8x8_d_ssd1306_128x64_noname.c **** 
  20:..\..\u8g2\csrc/u8x8_d_ssd1306_128x64_noname.c ****   THIS SOFTWARE IS PROVIDED BY THE COPYRIGHT HOLDERS AND 
  21:..\..\u8g2\csrc/u8x8_d_ssd1306_128x64_noname.c ****   CONTRIBUTORS "AS IS" AND ANY EXPRESS OR IMPLIED WARRANTIES, 
  22:..\..\u8g2\csrc/u8x8_d_ssd1306_128x64_noname.c ****   INCLUDING, BUT NOT LIMITED TO, THE IMPLIED WARRANTIES OF 
  23:..\..\u8g2\csrc/u8x8_d_ssd1306_128x64_noname.c ****   MERCHANTABILITY AND FITNESS FOR A PARTICULAR PURPOSE ARE 
  24:..\..\u8g2\csrc/u8x8_d_ssd1306_128x64_noname.c ****   DISCLAIMED. IN NO EVENT SHALL THE COPYRIGHT HOLDER OR 
  25:..\..\u8g2\csrc/u8x8_d_ssd1306_128x64_noname.c ****   CONTRIBUTORS BE LIABLE FOR ANY DIRECT, INDIRECT, INCIDENTAL, 
  26:..\..\u8g2\csrc/u8x8_d_ssd1306_128x64_noname.c ****   SPECIAL, EXEMPLARY, OR CONSEQUENTIAL DAMAGES (INCLUDING, BUT 
  27:..\..\u8g2\csrc/u8x8_d_ssd1306_128x64_noname.c ****   NOT LIMITED TO, PROCUREMENT OF SUBSTITUTE GOODS OR SERVICES; 
  28:..\..\u8g2\csrc/u8x8_d_ssd1306_128x64_noname.c ****   LOSS OF USE, DATA, OR PROFITS; OR BUSINESS INTERRUPTION) HOWEVER 
  29:..\..\u8g2\csrc/u8x8_d_ssd1306_128x64_noname.c ****   CAUSED AND ON ANY THEORY OF LIABILITY, WHETHER IN CONTRACT, 
  30:..\..\u8g2\csrc/u8x8_d_ssd1306_128x64_noname.c ****   STRICT LIABILITY, OR TORT (INCLUDING NEGLIGENCE OR OTHERWISE) 
  31:..\..\u8g2\csrc/u8x8_d_ssd1306_128x64_noname.c ****   ARISING IN ANY WAY OUT OF THE USE OF THIS SOFTWARE, EVEN IF 
ARM GAS  C:\Users\arh\AppData\Local\Temp\cc51Twqz.s 			page 2


  32:..\..\u8g2\csrc/u8x8_d_ssd1306_128x64_noname.c ****   ADVISED OF THE POSSIBILITY OF SUCH DAMAGE.  
  33:..\..\u8g2\csrc/u8x8_d_ssd1306_128x64_noname.c ****   
  34:..\..\u8g2\csrc/u8x8_d_ssd1306_128x64_noname.c **** */
  35:..\..\u8g2\csrc/u8x8_d_ssd1306_128x64_noname.c **** 
  36:..\..\u8g2\csrc/u8x8_d_ssd1306_128x64_noname.c **** 
  37:..\..\u8g2\csrc/u8x8_d_ssd1306_128x64_noname.c **** #include "u8x8.h"
  38:..\..\u8g2\csrc/u8x8_d_ssd1306_128x64_noname.c **** 
  39:..\..\u8g2\csrc/u8x8_d_ssd1306_128x64_noname.c **** 
  40:..\..\u8g2\csrc/u8x8_d_ssd1306_128x64_noname.c **** 
  41:..\..\u8g2\csrc/u8x8_d_ssd1306_128x64_noname.c **** /* more or less generic setup of all these small OLEDs */
  42:..\..\u8g2\csrc/u8x8_d_ssd1306_128x64_noname.c **** static const uint8_t u8x8_d_ssd1306_128x64_noname_init_seq[] = {
  43:..\..\u8g2\csrc/u8x8_d_ssd1306_128x64_noname.c ****     
  44:..\..\u8g2\csrc/u8x8_d_ssd1306_128x64_noname.c ****   U8X8_START_TRANSFER(),             	/* enable chip, delay is part of the transfer start */
  45:..\..\u8g2\csrc/u8x8_d_ssd1306_128x64_noname.c ****   
  46:..\..\u8g2\csrc/u8x8_d_ssd1306_128x64_noname.c ****   
  47:..\..\u8g2\csrc/u8x8_d_ssd1306_128x64_noname.c ****   U8X8_C(0x0ae),		                /* display off */
  48:..\..\u8g2\csrc/u8x8_d_ssd1306_128x64_noname.c ****   U8X8_CA(0x0d5, 0x080),		/* clock divide ratio (0x00=1) and oscillator frequency (0x8) */
  49:..\..\u8g2\csrc/u8x8_d_ssd1306_128x64_noname.c ****   U8X8_CA(0x0a8, 0x03f),		/* multiplex ratio */
  50:..\..\u8g2\csrc/u8x8_d_ssd1306_128x64_noname.c ****   U8X8_CA(0x0d3, 0x000),		/* display offset */
  51:..\..\u8g2\csrc/u8x8_d_ssd1306_128x64_noname.c ****   U8X8_C(0x040),		                /* set display start line to 0 */
  52:..\..\u8g2\csrc/u8x8_d_ssd1306_128x64_noname.c ****   U8X8_CA(0x08d, 0x014),		/* [2] charge pump setting (p62): 0x014 enable, 0x010 disable */
  53:..\..\u8g2\csrc/u8x8_d_ssd1306_128x64_noname.c ****   U8X8_CA(0x020, 0x000),		/* page addressing mode */
  54:..\..\u8g2\csrc/u8x8_d_ssd1306_128x64_noname.c ****   
  55:..\..\u8g2\csrc/u8x8_d_ssd1306_128x64_noname.c ****   U8X8_C(0x0a1),				/* segment remap a0/a1*/
  56:..\..\u8g2\csrc/u8x8_d_ssd1306_128x64_noname.c ****   U8X8_C(0x0c8),				/* c0: scan dir normal, c8: reverse */
  57:..\..\u8g2\csrc/u8x8_d_ssd1306_128x64_noname.c ****   // Flipmode
  58:..\..\u8g2\csrc/u8x8_d_ssd1306_128x64_noname.c ****   // U8X8_C(0x0a0),				/* segment remap a0/a1*/
  59:..\..\u8g2\csrc/u8x8_d_ssd1306_128x64_noname.c ****   // U8X8_C(0x0c0),				/* c0: scan dir normal, c8: reverse */
  60:..\..\u8g2\csrc/u8x8_d_ssd1306_128x64_noname.c ****   
  61:..\..\u8g2\csrc/u8x8_d_ssd1306_128x64_noname.c ****   U8X8_CA(0x0da, 0x012),		/* com pin HW config, sequential com pin config (bit 4), disable left/rig
  62:..\..\u8g2\csrc/u8x8_d_ssd1306_128x64_noname.c **** 
  63:..\..\u8g2\csrc/u8x8_d_ssd1306_128x64_noname.c ****   U8X8_CA(0x081, 0x0cf), 		/* [2] set contrast control */
  64:..\..\u8g2\csrc/u8x8_d_ssd1306_128x64_noname.c ****   U8X8_CA(0x0d9, 0x0f1), 		/* [2] pre-charge period 0x022/f1*/
  65:..\..\u8g2\csrc/u8x8_d_ssd1306_128x64_noname.c ****   U8X8_CA(0x0db, 0x040), 		/* vcomh deselect level */  
  66:..\..\u8g2\csrc/u8x8_d_ssd1306_128x64_noname.c ****   // if vcomh is 0, then this will give the biggest range for contrast control issue #98
  67:..\..\u8g2\csrc/u8x8_d_ssd1306_128x64_noname.c ****   // restored the old values for the noname constructor, because vcomh=0 will not work for all OLED
  68:..\..\u8g2\csrc/u8x8_d_ssd1306_128x64_noname.c ****   
  69:..\..\u8g2\csrc/u8x8_d_ssd1306_128x64_noname.c ****   U8X8_C(0x02e),				/* Deactivate scroll */ 
  70:..\..\u8g2\csrc/u8x8_d_ssd1306_128x64_noname.c ****   U8X8_C(0x0a4),				/* output ram to display */
  71:..\..\u8g2\csrc/u8x8_d_ssd1306_128x64_noname.c ****   U8X8_C(0x0a6),				/* none inverted normal display mode */
  72:..\..\u8g2\csrc/u8x8_d_ssd1306_128x64_noname.c ****     
  73:..\..\u8g2\csrc/u8x8_d_ssd1306_128x64_noname.c ****   U8X8_END_TRANSFER(),             	/* disable chip */
  74:..\..\u8g2\csrc/u8x8_d_ssd1306_128x64_noname.c ****   U8X8_END()             			/* end of sequence */
  75:..\..\u8g2\csrc/u8x8_d_ssd1306_128x64_noname.c **** };
  76:..\..\u8g2\csrc/u8x8_d_ssd1306_128x64_noname.c **** 
  77:..\..\u8g2\csrc/u8x8_d_ssd1306_128x64_noname.c **** /* this setup maximizes the brightness range, that can be set with setContrast() */
  78:..\..\u8g2\csrc/u8x8_d_ssd1306_128x64_noname.c **** /* Drawback: VCOMH deselect level is set to 0, which das not work so good with all OLEDs, issue #11
  79:..\..\u8g2\csrc/u8x8_d_ssd1306_128x64_noname.c **** static const uint8_t u8x8_d_ssd1306_128x64_vcomh0_init_seq[] = {
  80:..\..\u8g2\csrc/u8x8_d_ssd1306_128x64_noname.c ****     
  81:..\..\u8g2\csrc/u8x8_d_ssd1306_128x64_noname.c ****   U8X8_START_TRANSFER(),             	/* enable chip, delay is part of the transfer start */
  82:..\..\u8g2\csrc/u8x8_d_ssd1306_128x64_noname.c ****   
  83:..\..\u8g2\csrc/u8x8_d_ssd1306_128x64_noname.c ****   
  84:..\..\u8g2\csrc/u8x8_d_ssd1306_128x64_noname.c ****   U8X8_C(0x0ae),		                /* display off */
  85:..\..\u8g2\csrc/u8x8_d_ssd1306_128x64_noname.c ****   U8X8_CA(0x0d5, 0x080),		/* clock divide ratio (0x00=1) and oscillator frequency (0x8) */
  86:..\..\u8g2\csrc/u8x8_d_ssd1306_128x64_noname.c ****   U8X8_CA(0x0a8, 0x03f),		/* multiplex ratio */
  87:..\..\u8g2\csrc/u8x8_d_ssd1306_128x64_noname.c ****   U8X8_CA(0x0d3, 0x000),		/* display offset */
  88:..\..\u8g2\csrc/u8x8_d_ssd1306_128x64_noname.c ****   U8X8_C(0x040),		                /* set display start line to 0 */
ARM GAS  C:\Users\arh\AppData\Local\Temp\cc51Twqz.s 			page 3


  89:..\..\u8g2\csrc/u8x8_d_ssd1306_128x64_noname.c ****   U8X8_CA(0x08d, 0x014),		/* [2] charge pump setting (p62): 0x014 enable, 0x010 disable */
  90:..\..\u8g2\csrc/u8x8_d_ssd1306_128x64_noname.c ****   U8X8_CA(0x020, 0x000),		/* page addressing mode */
  91:..\..\u8g2\csrc/u8x8_d_ssd1306_128x64_noname.c ****   
  92:..\..\u8g2\csrc/u8x8_d_ssd1306_128x64_noname.c ****   U8X8_C(0x0a1),				/* segment remap a0/a1*/
  93:..\..\u8g2\csrc/u8x8_d_ssd1306_128x64_noname.c ****   U8X8_C(0x0c8),				/* c0: scan dir normal, c8: reverse */
  94:..\..\u8g2\csrc/u8x8_d_ssd1306_128x64_noname.c ****   // Flipmode
  95:..\..\u8g2\csrc/u8x8_d_ssd1306_128x64_noname.c ****   // U8X8_C(0x0a0),				/* segment remap a0/a1*/
  96:..\..\u8g2\csrc/u8x8_d_ssd1306_128x64_noname.c ****   // U8X8_C(0x0c0),				/* c0: scan dir normal, c8: reverse */
  97:..\..\u8g2\csrc/u8x8_d_ssd1306_128x64_noname.c ****   
  98:..\..\u8g2\csrc/u8x8_d_ssd1306_128x64_noname.c ****   U8X8_CA(0x0da, 0x012),		/* com pin HW config, sequential com pin config (bit 4), disable left/rig
  99:..\..\u8g2\csrc/u8x8_d_ssd1306_128x64_noname.c ****   U8X8_CA(0x081, 0x0ef),		/* [2] set contrast control,  */
 100:..\..\u8g2\csrc/u8x8_d_ssd1306_128x64_noname.c ****   U8X8_CA(0x0d9, 0x0a1),		/* [2] pre-charge period 0x022/f1*/
 101:..\..\u8g2\csrc/u8x8_d_ssd1306_128x64_noname.c ****   U8X8_CA(0x0db, 0x000),		/* vcomh deselect level 0x000 .. 0x070, low nibble always 0 */
 102:..\..\u8g2\csrc/u8x8_d_ssd1306_128x64_noname.c ****   // if vcomh is 0, then this will give the biggest range for contrast control issue #98
 103:..\..\u8g2\csrc/u8x8_d_ssd1306_128x64_noname.c ****   
 104:..\..\u8g2\csrc/u8x8_d_ssd1306_128x64_noname.c ****   U8X8_C(0x02e),				/* Deactivate scroll */ 
 105:..\..\u8g2\csrc/u8x8_d_ssd1306_128x64_noname.c ****   U8X8_C(0x0a4),				/* output ram to display */
 106:..\..\u8g2\csrc/u8x8_d_ssd1306_128x64_noname.c ****   U8X8_C(0x0a6),				/* none inverted normal display mode */
 107:..\..\u8g2\csrc/u8x8_d_ssd1306_128x64_noname.c ****     
 108:..\..\u8g2\csrc/u8x8_d_ssd1306_128x64_noname.c ****   U8X8_END_TRANSFER(),             	/* disable chip */
 109:..\..\u8g2\csrc/u8x8_d_ssd1306_128x64_noname.c ****   U8X8_END()             			/* end of sequence */
 110:..\..\u8g2\csrc/u8x8_d_ssd1306_128x64_noname.c **** };
 111:..\..\u8g2\csrc/u8x8_d_ssd1306_128x64_noname.c **** 
 112:..\..\u8g2\csrc/u8x8_d_ssd1306_128x64_noname.c **** static const uint8_t u8x8_d_ssd1306_128x64_noname_powersave0_seq[] = {
 113:..\..\u8g2\csrc/u8x8_d_ssd1306_128x64_noname.c ****   U8X8_START_TRANSFER(),             	/* enable chip, delay is part of the transfer start */
 114:..\..\u8g2\csrc/u8x8_d_ssd1306_128x64_noname.c ****   U8X8_C(0x0af),		                /* display on */
 115:..\..\u8g2\csrc/u8x8_d_ssd1306_128x64_noname.c ****   U8X8_END_TRANSFER(),             	/* disable chip */
 116:..\..\u8g2\csrc/u8x8_d_ssd1306_128x64_noname.c ****   U8X8_END()             			/* end of sequence */
 117:..\..\u8g2\csrc/u8x8_d_ssd1306_128x64_noname.c **** };
 118:..\..\u8g2\csrc/u8x8_d_ssd1306_128x64_noname.c **** 
 119:..\..\u8g2\csrc/u8x8_d_ssd1306_128x64_noname.c **** static const uint8_t u8x8_d_ssd1306_128x64_noname_powersave1_seq[] = {
 120:..\..\u8g2\csrc/u8x8_d_ssd1306_128x64_noname.c ****   U8X8_START_TRANSFER(),             	/* enable chip, delay is part of the transfer start */
 121:..\..\u8g2\csrc/u8x8_d_ssd1306_128x64_noname.c ****   U8X8_C(0x0ae),		                /* display off */
 122:..\..\u8g2\csrc/u8x8_d_ssd1306_128x64_noname.c ****   U8X8_END_TRANSFER(),             	/* disable chip */
 123:..\..\u8g2\csrc/u8x8_d_ssd1306_128x64_noname.c ****   U8X8_END()             			/* end of sequence */
 124:..\..\u8g2\csrc/u8x8_d_ssd1306_128x64_noname.c **** };
 125:..\..\u8g2\csrc/u8x8_d_ssd1306_128x64_noname.c **** 
 126:..\..\u8g2\csrc/u8x8_d_ssd1306_128x64_noname.c **** static const uint8_t u8x8_d_ssd1306_128x64_noname_flip0_seq[] = {
 127:..\..\u8g2\csrc/u8x8_d_ssd1306_128x64_noname.c ****   U8X8_START_TRANSFER(),             	/* enable chip, delay is part of the transfer start */
 128:..\..\u8g2\csrc/u8x8_d_ssd1306_128x64_noname.c ****   U8X8_C(0x0a1),				/* segment remap a0/a1*/
 129:..\..\u8g2\csrc/u8x8_d_ssd1306_128x64_noname.c ****   U8X8_C(0x0c8),				/* c0: scan dir normal, c8: reverse */
 130:..\..\u8g2\csrc/u8x8_d_ssd1306_128x64_noname.c ****   U8X8_END_TRANSFER(),             	/* disable chip */
 131:..\..\u8g2\csrc/u8x8_d_ssd1306_128x64_noname.c ****   U8X8_END()             			/* end of sequence */
 132:..\..\u8g2\csrc/u8x8_d_ssd1306_128x64_noname.c **** };
 133:..\..\u8g2\csrc/u8x8_d_ssd1306_128x64_noname.c **** 
 134:..\..\u8g2\csrc/u8x8_d_ssd1306_128x64_noname.c **** static const uint8_t u8x8_d_ssd1306_128x64_noname_flip1_seq[] = {
 135:..\..\u8g2\csrc/u8x8_d_ssd1306_128x64_noname.c ****   U8X8_START_TRANSFER(),             	/* enable chip, delay is part of the transfer start */
 136:..\..\u8g2\csrc/u8x8_d_ssd1306_128x64_noname.c ****   U8X8_C(0x0a0),				/* segment remap a0/a1*/
 137:..\..\u8g2\csrc/u8x8_d_ssd1306_128x64_noname.c ****   U8X8_C(0x0c0),				/* c0: scan dir normal, c8: reverse */
 138:..\..\u8g2\csrc/u8x8_d_ssd1306_128x64_noname.c ****   U8X8_END_TRANSFER(),             	/* disable chip */
 139:..\..\u8g2\csrc/u8x8_d_ssd1306_128x64_noname.c ****   U8X8_END()             			/* end of sequence */
 140:..\..\u8g2\csrc/u8x8_d_ssd1306_128x64_noname.c **** };
 141:..\..\u8g2\csrc/u8x8_d_ssd1306_128x64_noname.c **** 
 142:..\..\u8g2\csrc/u8x8_d_ssd1306_128x64_noname.c **** 
 143:..\..\u8g2\csrc/u8x8_d_ssd1306_128x64_noname.c **** static uint8_t u8x8_d_ssd1306_sh1106_generic(u8x8_t *u8x8, uint8_t msg, uint8_t arg_int, void *arg_
 144:..\..\u8g2\csrc/u8x8_d_ssd1306_128x64_noname.c **** {
  27              		.loc 1 144 0
ARM GAS  C:\Users\arh\AppData\Local\Temp\cc51Twqz.s 			page 4


  28              		.cfi_startproc
  29              		@ args = 0, pretend = 0, frame = 0
  30              		@ frame_needed = 0, uses_anonymous_args = 0
  31              	.LVL0:
  32 0000 F8B5     		push	{r3, r4, r5, r6, r7, lr}
  33              		.cfi_def_cfa_offset 24
  34              		.cfi_offset 3, -24
  35              		.cfi_offset 4, -20
  36              		.cfi_offset 5, -16
  37              		.cfi_offset 6, -12
  38              		.cfi_offset 7, -8
  39              		.cfi_offset 14, -4
  40 0002 0400     		movs	r4, r0
  41 0004 1500     		movs	r5, r2
  42 0006 1E00     		movs	r6, r3
 145:..\..\u8g2\csrc/u8x8_d_ssd1306_128x64_noname.c ****   uint8_t x, c;
 146:..\..\u8g2\csrc/u8x8_d_ssd1306_128x64_noname.c ****   uint8_t *ptr;
 147:..\..\u8g2\csrc/u8x8_d_ssd1306_128x64_noname.c ****   switch(msg)
  43              		.loc 1 147 0
  44 0008 0D29     		cmp	r1, #13
  45 000a 15D0     		beq	.L3
  46 000c 02D8     		bhi	.L4
  47 000e 0B29     		cmp	r1, #11
  48 0010 05D0     		beq	.L5
  49 0012 64E0     		b	.L11
  50              	.L4:
  51 0014 0E29     		cmp	r1, #14
  52 0016 23D0     		beq	.L6
  53 0018 0F29     		cmp	r1, #15
  54 001a 30D0     		beq	.L7
  55 001c 5FE0     		b	.L11
  56              	.L5:
 148:..\..\u8g2\csrc/u8x8_d_ssd1306_128x64_noname.c ****   {
 149:..\..\u8g2\csrc/u8x8_d_ssd1306_128x64_noname.c ****     /* handled by the calling function
 150:..\..\u8g2\csrc/u8x8_d_ssd1306_128x64_noname.c ****     case U8X8_MSG_DISPLAY_SETUP_MEMORY:
 151:..\..\u8g2\csrc/u8x8_d_ssd1306_128x64_noname.c ****       u8x8_d_helper_display_setup_memory(u8x8, &u8x8_ssd1306_128x64_noname_display_info);
 152:..\..\u8g2\csrc/u8x8_d_ssd1306_128x64_noname.c ****       break;
 153:..\..\u8g2\csrc/u8x8_d_ssd1306_128x64_noname.c ****     */
 154:..\..\u8g2\csrc/u8x8_d_ssd1306_128x64_noname.c ****     /* handled by the calling function
 155:..\..\u8g2\csrc/u8x8_d_ssd1306_128x64_noname.c ****     case U8X8_MSG_DISPLAY_INIT:
 156:..\..\u8g2\csrc/u8x8_d_ssd1306_128x64_noname.c ****       u8x8_d_helper_display_init(u8x8);
 157:..\..\u8g2\csrc/u8x8_d_ssd1306_128x64_noname.c ****       u8x8_cad_SendSequence(u8x8, u8x8_d_ssd1306_128x64_noname_init_seq);    
 158:..\..\u8g2\csrc/u8x8_d_ssd1306_128x64_noname.c ****       break;
 159:..\..\u8g2\csrc/u8x8_d_ssd1306_128x64_noname.c ****     */
 160:..\..\u8g2\csrc/u8x8_d_ssd1306_128x64_noname.c ****     case U8X8_MSG_DISPLAY_SET_POWER_SAVE:
 161:..\..\u8g2\csrc/u8x8_d_ssd1306_128x64_noname.c ****       if ( arg_int == 0 )
  57              		.loc 1 161 0
  58 001e 002A     		cmp	r2, #0
  59 0020 04D1     		bne	.L8
 162:..\..\u8g2\csrc/u8x8_d_ssd1306_128x64_noname.c **** 	u8x8_cad_SendSequence(u8x8, u8x8_d_ssd1306_128x64_noname_powersave0_seq);
  60              		.loc 1 162 0
  61 0022 3049     		ldr	r1, .L12
  62              	.LVL1:
  63 0024 FFF7FEFF 		bl	u8x8_cad_SendSequence
  64              	.LVL2:
 163:..\..\u8g2\csrc/u8x8_d_ssd1306_128x64_noname.c ****       else
 164:..\..\u8g2\csrc/u8x8_d_ssd1306_128x64_noname.c **** 	u8x8_cad_SendSequence(u8x8, u8x8_d_ssd1306_128x64_noname_powersave1_seq);
ARM GAS  C:\Users\arh\AppData\Local\Temp\cc51Twqz.s 			page 5


 165:..\..\u8g2\csrc/u8x8_d_ssd1306_128x64_noname.c ****       break;
 166:..\..\u8g2\csrc/u8x8_d_ssd1306_128x64_noname.c ****     case U8X8_MSG_DISPLAY_SET_FLIP_MODE:
 167:..\..\u8g2\csrc/u8x8_d_ssd1306_128x64_noname.c ****       if ( arg_int == 0 )
 168:..\..\u8g2\csrc/u8x8_d_ssd1306_128x64_noname.c ****       {
 169:..\..\u8g2\csrc/u8x8_d_ssd1306_128x64_noname.c **** 	u8x8_cad_SendSequence(u8x8, u8x8_d_ssd1306_128x64_noname_flip0_seq);
 170:..\..\u8g2\csrc/u8x8_d_ssd1306_128x64_noname.c **** 	u8x8->x_offset = u8x8->display_info->default_x_offset;
 171:..\..\u8g2\csrc/u8x8_d_ssd1306_128x64_noname.c ****       }
 172:..\..\u8g2\csrc/u8x8_d_ssd1306_128x64_noname.c ****       else
 173:..\..\u8g2\csrc/u8x8_d_ssd1306_128x64_noname.c ****       {
 174:..\..\u8g2\csrc/u8x8_d_ssd1306_128x64_noname.c **** 	u8x8_cad_SendSequence(u8x8, u8x8_d_ssd1306_128x64_noname_flip1_seq);
 175:..\..\u8g2\csrc/u8x8_d_ssd1306_128x64_noname.c **** 	u8x8->x_offset = u8x8->display_info->flipmode_x_offset;
 176:..\..\u8g2\csrc/u8x8_d_ssd1306_128x64_noname.c ****       }
 177:..\..\u8g2\csrc/u8x8_d_ssd1306_128x64_noname.c ****       break;
 178:..\..\u8g2\csrc/u8x8_d_ssd1306_128x64_noname.c **** #ifdef U8X8_WITH_SET_CONTRAST
 179:..\..\u8g2\csrc/u8x8_d_ssd1306_128x64_noname.c ****     case U8X8_MSG_DISPLAY_SET_CONTRAST:
 180:..\..\u8g2\csrc/u8x8_d_ssd1306_128x64_noname.c ****       u8x8_cad_StartTransfer(u8x8);
 181:..\..\u8g2\csrc/u8x8_d_ssd1306_128x64_noname.c ****       u8x8_cad_SendCmd(u8x8, 0x081 );
 182:..\..\u8g2\csrc/u8x8_d_ssd1306_128x64_noname.c ****       u8x8_cad_SendArg(u8x8, arg_int );	/* ssd1306 has range from 0 to 255 */
 183:..\..\u8g2\csrc/u8x8_d_ssd1306_128x64_noname.c ****       u8x8_cad_EndTransfer(u8x8);
 184:..\..\u8g2\csrc/u8x8_d_ssd1306_128x64_noname.c ****       break;
 185:..\..\u8g2\csrc/u8x8_d_ssd1306_128x64_noname.c **** #endif
 186:..\..\u8g2\csrc/u8x8_d_ssd1306_128x64_noname.c ****     case U8X8_MSG_DISPLAY_DRAW_TILE:
 187:..\..\u8g2\csrc/u8x8_d_ssd1306_128x64_noname.c ****       u8x8_cad_StartTransfer(u8x8);
 188:..\..\u8g2\csrc/u8x8_d_ssd1306_128x64_noname.c ****       x = ((u8x8_tile_t *)arg_ptr)->x_pos;    
 189:..\..\u8g2\csrc/u8x8_d_ssd1306_128x64_noname.c ****       x *= 8;
 190:..\..\u8g2\csrc/u8x8_d_ssd1306_128x64_noname.c ****       x += u8x8->x_offset;
 191:..\..\u8g2\csrc/u8x8_d_ssd1306_128x64_noname.c ****     
 192:..\..\u8g2\csrc/u8x8_d_ssd1306_128x64_noname.c ****       u8x8_cad_SendCmd(u8x8, 0x040 );	/* set line offset to 0 */
 193:..\..\u8g2\csrc/u8x8_d_ssd1306_128x64_noname.c ****     
 194:..\..\u8g2\csrc/u8x8_d_ssd1306_128x64_noname.c ****       u8x8_cad_SendCmd(u8x8, 0x010 | (x>>4) );
 195:..\..\u8g2\csrc/u8x8_d_ssd1306_128x64_noname.c ****       u8x8_cad_SendArg(u8x8, 0x000 | ((x&15)));					/* probably wrong, should be SendCmd */
 196:..\..\u8g2\csrc/u8x8_d_ssd1306_128x64_noname.c ****       u8x8_cad_SendArg(u8x8, 0x0b0 | (((u8x8_tile_t *)arg_ptr)->y_pos));	/* probably wrong, should 
 197:..\..\u8g2\csrc/u8x8_d_ssd1306_128x64_noname.c **** 
 198:..\..\u8g2\csrc/u8x8_d_ssd1306_128x64_noname.c ****     
 199:..\..\u8g2\csrc/u8x8_d_ssd1306_128x64_noname.c ****       do
 200:..\..\u8g2\csrc/u8x8_d_ssd1306_128x64_noname.c ****       {
 201:..\..\u8g2\csrc/u8x8_d_ssd1306_128x64_noname.c **** 	c = ((u8x8_tile_t *)arg_ptr)->cnt;
 202:..\..\u8g2\csrc/u8x8_d_ssd1306_128x64_noname.c **** 	ptr = ((u8x8_tile_t *)arg_ptr)->tile_ptr;
 203:..\..\u8g2\csrc/u8x8_d_ssd1306_128x64_noname.c **** 	u8x8_cad_SendData(u8x8, c*8, ptr); 	/* note: SendData can not handle more than 255 bytes */
 204:..\..\u8g2\csrc/u8x8_d_ssd1306_128x64_noname.c **** 	/*
 205:..\..\u8g2\csrc/u8x8_d_ssd1306_128x64_noname.c **** 	do
 206:..\..\u8g2\csrc/u8x8_d_ssd1306_128x64_noname.c **** 	{
 207:..\..\u8g2\csrc/u8x8_d_ssd1306_128x64_noname.c **** 	  u8x8_cad_SendData(u8x8, 8, ptr);
 208:..\..\u8g2\csrc/u8x8_d_ssd1306_128x64_noname.c **** 	  ptr += 8;
 209:..\..\u8g2\csrc/u8x8_d_ssd1306_128x64_noname.c **** 	  c--;
 210:..\..\u8g2\csrc/u8x8_d_ssd1306_128x64_noname.c **** 	} while( c > 0 );
 211:..\..\u8g2\csrc/u8x8_d_ssd1306_128x64_noname.c **** 	*/
 212:..\..\u8g2\csrc/u8x8_d_ssd1306_128x64_noname.c **** 	arg_int--;
 213:..\..\u8g2\csrc/u8x8_d_ssd1306_128x64_noname.c ****       } while( arg_int > 0 );
 214:..\..\u8g2\csrc/u8x8_d_ssd1306_128x64_noname.c ****       
 215:..\..\u8g2\csrc/u8x8_d_ssd1306_128x64_noname.c ****       u8x8_cad_EndTransfer(u8x8);
 216:..\..\u8g2\csrc/u8x8_d_ssd1306_128x64_noname.c ****       break;
 217:..\..\u8g2\csrc/u8x8_d_ssd1306_128x64_noname.c ****     default:
 218:..\..\u8g2\csrc/u8x8_d_ssd1306_128x64_noname.c ****       return 0;
 219:..\..\u8g2\csrc/u8x8_d_ssd1306_128x64_noname.c ****   }
 220:..\..\u8g2\csrc/u8x8_d_ssd1306_128x64_noname.c ****   return 1;
  65              		.loc 1 220 0
ARM GAS  C:\Users\arh\AppData\Local\Temp\cc51Twqz.s 			page 6


  66 0028 0120     		movs	r0, #1
  67 002a 59E0     		b	.L2
  68              	.LVL3:
  69              	.L8:
 164:..\..\u8g2\csrc/u8x8_d_ssd1306_128x64_noname.c ****       break;
  70              		.loc 1 164 0
  71 002c 2D49     		ldr	r1, .L12
  72              	.LVL4:
  73 002e 0831     		adds	r1, r1, #8
  74 0030 FFF7FEFF 		bl	u8x8_cad_SendSequence
  75              	.LVL5:
  76              		.loc 1 220 0
  77 0034 0120     		movs	r0, #1
  78 0036 53E0     		b	.L2
  79              	.LVL6:
  80              	.L3:
 167:..\..\u8g2\csrc/u8x8_d_ssd1306_128x64_noname.c ****       {
  81              		.loc 1 167 0
  82 0038 002A     		cmp	r2, #0
  83 003a 08D1     		bne	.L9
 169:..\..\u8g2\csrc/u8x8_d_ssd1306_128x64_noname.c **** 	u8x8->x_offset = u8x8->display_info->default_x_offset;
  84              		.loc 1 169 0
  85 003c 2949     		ldr	r1, .L12
  86              	.LVL7:
  87 003e 1031     		adds	r1, r1, #16
  88 0040 FFF7FEFF 		bl	u8x8_cad_SendSequence
  89              	.LVL8:
 170:..\..\u8g2\csrc/u8x8_d_ssd1306_128x64_noname.c ****       }
  90              		.loc 1 170 0
  91 0044 2368     		ldr	r3, [r4]
  92 0046 9B7C     		ldrb	r3, [r3, #18]
  93 0048 A377     		strb	r3, [r4, #30]
  94              		.loc 1 220 0
  95 004a 0120     		movs	r0, #1
  96 004c 48E0     		b	.L2
  97              	.LVL9:
  98              	.L9:
 174:..\..\u8g2\csrc/u8x8_d_ssd1306_128x64_noname.c **** 	u8x8->x_offset = u8x8->display_info->flipmode_x_offset;
  99              		.loc 1 174 0
 100 004e 2549     		ldr	r1, .L12
 101              	.LVL10:
 102 0050 1831     		adds	r1, r1, #24
 103 0052 FFF7FEFF 		bl	u8x8_cad_SendSequence
 104              	.LVL11:
 175:..\..\u8g2\csrc/u8x8_d_ssd1306_128x64_noname.c ****       }
 105              		.loc 1 175 0
 106 0056 2368     		ldr	r3, [r4]
 107 0058 DB7C     		ldrb	r3, [r3, #19]
 108 005a A377     		strb	r3, [r4, #30]
 109              		.loc 1 220 0
 110 005c 0120     		movs	r0, #1
 111 005e 3FE0     		b	.L2
 112              	.LVL12:
 113              	.L6:
 180:..\..\u8g2\csrc/u8x8_d_ssd1306_128x64_noname.c ****       u8x8_cad_SendCmd(u8x8, 0x081 );
 114              		.loc 1 180 0
 115 0060 FFF7FEFF 		bl	u8x8_cad_StartTransfer
ARM GAS  C:\Users\arh\AppData\Local\Temp\cc51Twqz.s 			page 7


 116              	.LVL13:
 181:..\..\u8g2\csrc/u8x8_d_ssd1306_128x64_noname.c ****       u8x8_cad_SendArg(u8x8, arg_int );	/* ssd1306 has range from 0 to 255 */
 117              		.loc 1 181 0
 118 0064 8121     		movs	r1, #129
 119 0066 2000     		movs	r0, r4
 120 0068 FFF7FEFF 		bl	u8x8_cad_SendCmd
 121              	.LVL14:
 182:..\..\u8g2\csrc/u8x8_d_ssd1306_128x64_noname.c ****       u8x8_cad_EndTransfer(u8x8);
 122              		.loc 1 182 0
 123 006c 2900     		movs	r1, r5
 124 006e 2000     		movs	r0, r4
 125 0070 FFF7FEFF 		bl	u8x8_cad_SendArg
 126              	.LVL15:
 183:..\..\u8g2\csrc/u8x8_d_ssd1306_128x64_noname.c ****       break;
 127              		.loc 1 183 0
 128 0074 2000     		movs	r0, r4
 129 0076 FFF7FEFF 		bl	u8x8_cad_EndTransfer
 130              	.LVL16:
 131              		.loc 1 220 0
 132 007a 0120     		movs	r0, #1
 184:..\..\u8g2\csrc/u8x8_d_ssd1306_128x64_noname.c **** #endif
 133              		.loc 1 184 0
 134 007c 30E0     		b	.L2
 135              	.LVL17:
 136              	.L7:
 187:..\..\u8g2\csrc/u8x8_d_ssd1306_128x64_noname.c ****       x = ((u8x8_tile_t *)arg_ptr)->x_pos;    
 137              		.loc 1 187 0
 138 007e FFF7FEFF 		bl	u8x8_cad_StartTransfer
 139              	.LVL18:
 188:..\..\u8g2\csrc/u8x8_d_ssd1306_128x64_noname.c ****       x *= 8;
 140              		.loc 1 188 0
 141 0082 7379     		ldrb	r3, [r6, #5]
 142              	.LVL19:
 189:..\..\u8g2\csrc/u8x8_d_ssd1306_128x64_noname.c ****       x += u8x8->x_offset;
 143              		.loc 1 189 0
 144 0084 DB00     		lsls	r3, r3, #3
 145              	.LVL20:
 146 0086 DBB2     		uxtb	r3, r3
 147              	.LVL21:
 190:..\..\u8g2\csrc/u8x8_d_ssd1306_128x64_noname.c ****     
 148              		.loc 1 190 0
 149 0088 A77F     		ldrb	r7, [r4, #30]
 150 008a DB19     		adds	r3, r3, r7
 151              	.LVL22:
 152 008c DFB2     		uxtb	r7, r3
 153              	.LVL23:
 192:..\..\u8g2\csrc/u8x8_d_ssd1306_128x64_noname.c ****     
 154              		.loc 1 192 0
 155 008e 4021     		movs	r1, #64
 156 0090 2000     		movs	r0, r4
 157 0092 FFF7FEFF 		bl	u8x8_cad_SendCmd
 158              	.LVL24:
 194:..\..\u8g2\csrc/u8x8_d_ssd1306_128x64_noname.c ****       u8x8_cad_SendArg(u8x8, 0x000 | ((x&15)));					/* probably wrong, should be SendCmd */
 159              		.loc 1 194 0
 160 0096 3909     		lsrs	r1, r7, #4
 161 0098 1023     		movs	r3, #16
 162 009a 1943     		orrs	r1, r3
ARM GAS  C:\Users\arh\AppData\Local\Temp\cc51Twqz.s 			page 8


 163 009c C9B2     		uxtb	r1, r1
 164 009e 2000     		movs	r0, r4
 165 00a0 FFF7FEFF 		bl	u8x8_cad_SendCmd
 166              	.LVL25:
 195:..\..\u8g2\csrc/u8x8_d_ssd1306_128x64_noname.c ****       u8x8_cad_SendArg(u8x8, 0x0b0 | (((u8x8_tile_t *)arg_ptr)->y_pos));	/* probably wrong, should 
 167              		.loc 1 195 0
 168 00a4 0F21     		movs	r1, #15
 169 00a6 3940     		ands	r1, r7
 170 00a8 2000     		movs	r0, r4
 171 00aa FFF7FEFF 		bl	u8x8_cad_SendArg
 172              	.LVL26:
 196:..\..\u8g2\csrc/u8x8_d_ssd1306_128x64_noname.c **** 
 173              		.loc 1 196 0
 174 00ae B379     		ldrb	r3, [r6, #6]
 175 00b0 5021     		movs	r1, #80
 176 00b2 4942     		rsbs	r1, r1, #0
 177 00b4 1943     		orrs	r1, r3
 178 00b6 C9B2     		uxtb	r1, r1
 179 00b8 2000     		movs	r0, r4
 180 00ba FFF7FEFF 		bl	u8x8_cad_SendArg
 181              	.LVL27:
 182              	.L10:
 201:..\..\u8g2\csrc/u8x8_d_ssd1306_128x64_noname.c **** 	ptr = ((u8x8_tile_t *)arg_ptr)->tile_ptr;
 183              		.loc 1 201 0 discriminator 1
 184 00be 3179     		ldrb	r1, [r6, #4]
 185              	.LVL28:
 203:..\..\u8g2\csrc/u8x8_d_ssd1306_128x64_noname.c **** 	/*
 186              		.loc 1 203 0 discriminator 1
 187 00c0 C900     		lsls	r1, r1, #3
 188              	.LVL29:
 189 00c2 C9B2     		uxtb	r1, r1
 190 00c4 3268     		ldr	r2, [r6]
 191 00c6 2000     		movs	r0, r4
 192 00c8 FFF7FEFF 		bl	u8x8_cad_SendData
 193              	.LVL30:
 212:..\..\u8g2\csrc/u8x8_d_ssd1306_128x64_noname.c ****       } while( arg_int > 0 );
 194              		.loc 1 212 0 discriminator 1
 195 00cc 013D     		subs	r5, r5, #1
 196              	.LVL31:
 197 00ce EDB2     		uxtb	r5, r5
 198              	.LVL32:
 213:..\..\u8g2\csrc/u8x8_d_ssd1306_128x64_noname.c ****       
 199              		.loc 1 213 0 discriminator 1
 200 00d0 002D     		cmp	r5, #0
 201 00d2 F4D1     		bne	.L10
 215:..\..\u8g2\csrc/u8x8_d_ssd1306_128x64_noname.c ****       break;
 202              		.loc 1 215 0
 203 00d4 2000     		movs	r0, r4
 204 00d6 FFF7FEFF 		bl	u8x8_cad_EndTransfer
 205              	.LVL33:
 206              		.loc 1 220 0
 207 00da 0120     		movs	r0, #1
 216:..\..\u8g2\csrc/u8x8_d_ssd1306_128x64_noname.c ****     default:
 208              		.loc 1 216 0
 209 00dc 00E0     		b	.L2
 210              	.LVL34:
 211              	.L11:
ARM GAS  C:\Users\arh\AppData\Local\Temp\cc51Twqz.s 			page 9


 218:..\..\u8g2\csrc/u8x8_d_ssd1306_128x64_noname.c ****   }
 212              		.loc 1 218 0
 213 00de 0020     		movs	r0, #0
 214              	.LVL35:
 215              	.L2:
 221:..\..\u8g2\csrc/u8x8_d_ssd1306_128x64_noname.c **** }
 216              		.loc 1 221 0
 217              		@ sp needed
 218              	.LVL36:
 219              	.LVL37:
 220 00e0 F8BD     		pop	{r3, r4, r5, r6, r7, pc}
 221              	.L13:
 222 00e2 C046     		.align	2
 223              	.L12:
 224 00e4 00000000 		.word	.LANCHOR0
 225              		.cfi_endproc
 226              	.LFE0:
 227              		.size	u8x8_d_ssd1306_sh1106_generic, .-u8x8_d_ssd1306_sh1106_generic
 228              		.section	.text.u8x8_d_ssd1306_128x64_noname,"ax",%progbits
 229              		.align	2
 230              		.global	u8x8_d_ssd1306_128x64_noname
 231              		.code	16
 232              		.thumb_func
 233              		.type	u8x8_d_ssd1306_128x64_noname, %function
 234              	u8x8_d_ssd1306_128x64_noname:
 235              	.LFB1:
 222:..\..\u8g2\csrc/u8x8_d_ssd1306_128x64_noname.c **** 
 223:..\..\u8g2\csrc/u8x8_d_ssd1306_128x64_noname.c **** 
 224:..\..\u8g2\csrc/u8x8_d_ssd1306_128x64_noname.c **** static const u8x8_display_info_t u8x8_ssd1306_128x64_noname_display_info =
 225:..\..\u8g2\csrc/u8x8_d_ssd1306_128x64_noname.c **** {
 226:..\..\u8g2\csrc/u8x8_d_ssd1306_128x64_noname.c ****   /* chip_enable_level = */ 0,
 227:..\..\u8g2\csrc/u8x8_d_ssd1306_128x64_noname.c ****   /* chip_disable_level = */ 1,
 228:..\..\u8g2\csrc/u8x8_d_ssd1306_128x64_noname.c ****   
 229:..\..\u8g2\csrc/u8x8_d_ssd1306_128x64_noname.c ****   /* post_chip_enable_wait_ns = */ 20,
 230:..\..\u8g2\csrc/u8x8_d_ssd1306_128x64_noname.c ****   /* pre_chip_disable_wait_ns = */ 10,
 231:..\..\u8g2\csrc/u8x8_d_ssd1306_128x64_noname.c ****   /* reset_pulse_width_ms = */ 100, 	/* SSD1306: 3 us */
 232:..\..\u8g2\csrc/u8x8_d_ssd1306_128x64_noname.c ****   /* post_reset_wait_ms = */ 100, /* far east OLEDs need much longer setup time */
 233:..\..\u8g2\csrc/u8x8_d_ssd1306_128x64_noname.c ****   /* sda_setup_time_ns = */ 50,		/* SSD1306: 15ns, but cycle time is 100ns, so use 100/2 */
 234:..\..\u8g2\csrc/u8x8_d_ssd1306_128x64_noname.c ****   /* sck_pulse_width_ns = */ 50,	/* SSD1306: 20ns, but cycle time is 100ns, so use 100/2, AVR: belo
 235:..\..\u8g2\csrc/u8x8_d_ssd1306_128x64_noname.c ****   /* sck_clock_hz = */ 4000000UL,	/* since Arduino 1.6.0, the SPI bus speed in Hz. Should be  10000
 236:..\..\u8g2\csrc/u8x8_d_ssd1306_128x64_noname.c ****   /* spi_mode = */ 0,		/* active high, rising edge */
 237:..\..\u8g2\csrc/u8x8_d_ssd1306_128x64_noname.c ****   /* i2c_bus_clock_100kHz = */ 4,
 238:..\..\u8g2\csrc/u8x8_d_ssd1306_128x64_noname.c ****   /* data_setup_time_ns = */ 40,
 239:..\..\u8g2\csrc/u8x8_d_ssd1306_128x64_noname.c ****   /* write_pulse_width_ns = */ 150,	/* SSD1306: cycle time is 300ns, so use 300/2 = 150 */
 240:..\..\u8g2\csrc/u8x8_d_ssd1306_128x64_noname.c ****   /* tile_width = */ 16,
 241:..\..\u8g2\csrc/u8x8_d_ssd1306_128x64_noname.c ****   /* tile_hight = */ 8,
 242:..\..\u8g2\csrc/u8x8_d_ssd1306_128x64_noname.c ****   /* default_x_offset = */ 0,
 243:..\..\u8g2\csrc/u8x8_d_ssd1306_128x64_noname.c ****   /* flipmode_x_offset = */ 0,
 244:..\..\u8g2\csrc/u8x8_d_ssd1306_128x64_noname.c ****   /* pixel_width = */ 128,
 245:..\..\u8g2\csrc/u8x8_d_ssd1306_128x64_noname.c ****   /* pixel_height = */ 64
 246:..\..\u8g2\csrc/u8x8_d_ssd1306_128x64_noname.c **** };
 247:..\..\u8g2\csrc/u8x8_d_ssd1306_128x64_noname.c **** 
 248:..\..\u8g2\csrc/u8x8_d_ssd1306_128x64_noname.c **** uint8_t u8x8_d_ssd1306_128x64_noname(u8x8_t *u8x8, uint8_t msg, uint8_t arg_int, void *arg_ptr)
 249:..\..\u8g2\csrc/u8x8_d_ssd1306_128x64_noname.c **** {
 236              		.loc 1 249 0
 237              		.cfi_startproc
 238              		@ args = 0, pretend = 0, frame = 0
ARM GAS  C:\Users\arh\AppData\Local\Temp\cc51Twqz.s 			page 10


 239              		@ frame_needed = 0, uses_anonymous_args = 0
 240              	.LVL38:
 241 0000 70B5     		push	{r4, r5, r6, lr}
 242              		.cfi_def_cfa_offset 16
 243              		.cfi_offset 4, -16
 244              		.cfi_offset 5, -12
 245              		.cfi_offset 6, -8
 246              		.cfi_offset 14, -4
 247 0002 0500     		movs	r5, r0
 248 0004 0C00     		movs	r4, r1
 250:..\..\u8g2\csrc/u8x8_d_ssd1306_128x64_noname.c ****     
 251:..\..\u8g2\csrc/u8x8_d_ssd1306_128x64_noname.c ****   if ( u8x8_d_ssd1306_sh1106_generic(u8x8, msg, arg_int, arg_ptr) != 0 )
 249              		.loc 1 251 0
 250 0006 FFF7FEFF 		bl	u8x8_d_ssd1306_sh1106_generic
 251              	.LVL39:
 252 000a 0028     		cmp	r0, #0
 253 000c 14D1     		bne	.L18
 252:..\..\u8g2\csrc/u8x8_d_ssd1306_128x64_noname.c ****     return 1;
 253:..\..\u8g2\csrc/u8x8_d_ssd1306_128x64_noname.c ****   
 254:..\..\u8g2\csrc/u8x8_d_ssd1306_128x64_noname.c ****   switch(msg)
 254              		.loc 1 254 0
 255 000e 092C     		cmp	r4, #9
 256 0010 0BD0     		beq	.L16
 257 0012 0A2C     		cmp	r4, #10
 258 0014 11D1     		bne	.L15
 255:..\..\u8g2\csrc/u8x8_d_ssd1306_128x64_noname.c ****   {
 256:..\..\u8g2\csrc/u8x8_d_ssd1306_128x64_noname.c ****     case U8X8_MSG_DISPLAY_INIT:
 257:..\..\u8g2\csrc/u8x8_d_ssd1306_128x64_noname.c ****       u8x8_d_helper_display_init(u8x8);
 259              		.loc 1 257 0
 260 0016 2800     		movs	r0, r5
 261 0018 FFF7FEFF 		bl	u8x8_d_helper_display_init
 262              	.LVL40:
 258:..\..\u8g2\csrc/u8x8_d_ssd1306_128x64_noname.c ****       u8x8_cad_SendSequence(u8x8, u8x8_d_ssd1306_128x64_noname_init_seq);    
 263              		.loc 1 258 0
 264 001c 0749     		ldr	r1, .L19
 265 001e 2031     		adds	r1, r1, #32
 266 0020 2800     		movs	r0, r5
 267 0022 FFF7FEFF 		bl	u8x8_cad_SendSequence
 268              	.LVL41:
 259:..\..\u8g2\csrc/u8x8_d_ssd1306_128x64_noname.c ****       break;
 260:..\..\u8g2\csrc/u8x8_d_ssd1306_128x64_noname.c ****     case U8X8_MSG_DISPLAY_SETUP_MEMORY:
 261:..\..\u8g2\csrc/u8x8_d_ssd1306_128x64_noname.c ****       u8x8_d_helper_display_setup_memory(u8x8, &u8x8_ssd1306_128x64_noname_display_info);
 262:..\..\u8g2\csrc/u8x8_d_ssd1306_128x64_noname.c ****       break;
 263:..\..\u8g2\csrc/u8x8_d_ssd1306_128x64_noname.c ****     default:
 264:..\..\u8g2\csrc/u8x8_d_ssd1306_128x64_noname.c ****       return 0;
 265:..\..\u8g2\csrc/u8x8_d_ssd1306_128x64_noname.c ****   }
 266:..\..\u8g2\csrc/u8x8_d_ssd1306_128x64_noname.c ****   return 1;
 269              		.loc 1 266 0
 270 0026 0120     		movs	r0, #1
 259:..\..\u8g2\csrc/u8x8_d_ssd1306_128x64_noname.c ****       break;
 271              		.loc 1 259 0
 272 0028 07E0     		b	.L15
 273              	.L16:
 261:..\..\u8g2\csrc/u8x8_d_ssd1306_128x64_noname.c ****       break;
 274              		.loc 1 261 0
 275 002a 0449     		ldr	r1, .L19
 276 002c 5831     		adds	r1, r1, #88
ARM GAS  C:\Users\arh\AppData\Local\Temp\cc51Twqz.s 			page 11


 277 002e 2800     		movs	r0, r5
 278 0030 FFF7FEFF 		bl	u8x8_d_helper_display_setup_memory
 279              	.LVL42:
 280              		.loc 1 266 0
 281 0034 0120     		movs	r0, #1
 262:..\..\u8g2\csrc/u8x8_d_ssd1306_128x64_noname.c ****     default:
 282              		.loc 1 262 0
 283 0036 00E0     		b	.L15
 284              	.L18:
 252:..\..\u8g2\csrc/u8x8_d_ssd1306_128x64_noname.c ****   
 285              		.loc 1 252 0
 286 0038 0120     		movs	r0, #1
 287              	.L15:
 267:..\..\u8g2\csrc/u8x8_d_ssd1306_128x64_noname.c **** }
 288              		.loc 1 267 0
 289              		@ sp needed
 290              	.LVL43:
 291 003a 70BD     		pop	{r4, r5, r6, pc}
 292              	.L20:
 293              		.align	2
 294              	.L19:
 295 003c 00000000 		.word	.LANCHOR0
 296              		.cfi_endproc
 297              	.LFE1:
 298              		.size	u8x8_d_ssd1306_128x64_noname, .-u8x8_d_ssd1306_128x64_noname
 299              		.section	.text.u8x8_d_ssd1306_128x64_vcomh0,"ax",%progbits
 300              		.align	2
 301              		.global	u8x8_d_ssd1306_128x64_vcomh0
 302              		.code	16
 303              		.thumb_func
 304              		.type	u8x8_d_ssd1306_128x64_vcomh0, %function
 305              	u8x8_d_ssd1306_128x64_vcomh0:
 306              	.LFB2:
 268:..\..\u8g2\csrc/u8x8_d_ssd1306_128x64_noname.c **** 
 269:..\..\u8g2\csrc/u8x8_d_ssd1306_128x64_noname.c **** uint8_t u8x8_d_ssd1306_128x64_vcomh0(u8x8_t *u8x8, uint8_t msg, uint8_t arg_int, void *arg_ptr)
 270:..\..\u8g2\csrc/u8x8_d_ssd1306_128x64_noname.c **** {
 307              		.loc 1 270 0
 308              		.cfi_startproc
 309              		@ args = 0, pretend = 0, frame = 0
 310              		@ frame_needed = 0, uses_anonymous_args = 0
 311              	.LVL44:
 312 0000 70B5     		push	{r4, r5, r6, lr}
 313              		.cfi_def_cfa_offset 16
 314              		.cfi_offset 4, -16
 315              		.cfi_offset 5, -12
 316              		.cfi_offset 6, -8
 317              		.cfi_offset 14, -4
 318 0002 0500     		movs	r5, r0
 319 0004 0C00     		movs	r4, r1
 271:..\..\u8g2\csrc/u8x8_d_ssd1306_128x64_noname.c ****     
 272:..\..\u8g2\csrc/u8x8_d_ssd1306_128x64_noname.c ****   if ( u8x8_d_ssd1306_sh1106_generic(u8x8, msg, arg_int, arg_ptr) != 0 )
 320              		.loc 1 272 0
 321 0006 FFF7FEFF 		bl	u8x8_d_ssd1306_sh1106_generic
 322              	.LVL45:
 323 000a 0028     		cmp	r0, #0
 324 000c 14D1     		bne	.L25
 273:..\..\u8g2\csrc/u8x8_d_ssd1306_128x64_noname.c ****     return 1;
ARM GAS  C:\Users\arh\AppData\Local\Temp\cc51Twqz.s 			page 12


 274:..\..\u8g2\csrc/u8x8_d_ssd1306_128x64_noname.c ****   
 275:..\..\u8g2\csrc/u8x8_d_ssd1306_128x64_noname.c ****   switch(msg)
 325              		.loc 1 275 0
 326 000e 092C     		cmp	r4, #9
 327 0010 0BD0     		beq	.L23
 328 0012 0A2C     		cmp	r4, #10
 329 0014 11D1     		bne	.L22
 276:..\..\u8g2\csrc/u8x8_d_ssd1306_128x64_noname.c ****   {
 277:..\..\u8g2\csrc/u8x8_d_ssd1306_128x64_noname.c ****     case U8X8_MSG_DISPLAY_INIT:
 278:..\..\u8g2\csrc/u8x8_d_ssd1306_128x64_noname.c ****       u8x8_d_helper_display_init(u8x8);
 330              		.loc 1 278 0
 331 0016 2800     		movs	r0, r5
 332 0018 FFF7FEFF 		bl	u8x8_d_helper_display_init
 333              	.LVL46:
 279:..\..\u8g2\csrc/u8x8_d_ssd1306_128x64_noname.c ****       u8x8_cad_SendSequence(u8x8, u8x8_d_ssd1306_128x64_vcomh0_init_seq);    
 334              		.loc 1 279 0
 335 001c 0749     		ldr	r1, .L26
 336 001e 7031     		adds	r1, r1, #112
 337 0020 2800     		movs	r0, r5
 338 0022 FFF7FEFF 		bl	u8x8_cad_SendSequence
 339              	.LVL47:
 280:..\..\u8g2\csrc/u8x8_d_ssd1306_128x64_noname.c ****       break;
 281:..\..\u8g2\csrc/u8x8_d_ssd1306_128x64_noname.c ****     case U8X8_MSG_DISPLAY_SETUP_MEMORY:
 282:..\..\u8g2\csrc/u8x8_d_ssd1306_128x64_noname.c ****       u8x8_d_helper_display_setup_memory(u8x8, &u8x8_ssd1306_128x64_noname_display_info);
 283:..\..\u8g2\csrc/u8x8_d_ssd1306_128x64_noname.c ****       break;
 284:..\..\u8g2\csrc/u8x8_d_ssd1306_128x64_noname.c ****     default:
 285:..\..\u8g2\csrc/u8x8_d_ssd1306_128x64_noname.c ****       return 0;
 286:..\..\u8g2\csrc/u8x8_d_ssd1306_128x64_noname.c ****   }
 287:..\..\u8g2\csrc/u8x8_d_ssd1306_128x64_noname.c ****   return 1;
 340              		.loc 1 287 0
 341 0026 0120     		movs	r0, #1
 280:..\..\u8g2\csrc/u8x8_d_ssd1306_128x64_noname.c ****       break;
 342              		.loc 1 280 0
 343 0028 07E0     		b	.L22
 344              	.L23:
 282:..\..\u8g2\csrc/u8x8_d_ssd1306_128x64_noname.c ****       break;
 345              		.loc 1 282 0
 346 002a 0449     		ldr	r1, .L26
 347 002c 5831     		adds	r1, r1, #88
 348 002e 2800     		movs	r0, r5
 349 0030 FFF7FEFF 		bl	u8x8_d_helper_display_setup_memory
 350              	.LVL48:
 351              		.loc 1 287 0
 352 0034 0120     		movs	r0, #1
 283:..\..\u8g2\csrc/u8x8_d_ssd1306_128x64_noname.c ****     default:
 353              		.loc 1 283 0
 354 0036 00E0     		b	.L22
 355              	.L25:
 273:..\..\u8g2\csrc/u8x8_d_ssd1306_128x64_noname.c ****   
 356              		.loc 1 273 0
 357 0038 0120     		movs	r0, #1
 358              	.L22:
 288:..\..\u8g2\csrc/u8x8_d_ssd1306_128x64_noname.c **** }
 359              		.loc 1 288 0
 360              		@ sp needed
 361              	.LVL49:
 362 003a 70BD     		pop	{r4, r5, r6, pc}
ARM GAS  C:\Users\arh\AppData\Local\Temp\cc51Twqz.s 			page 13


 363              	.L27:
 364              		.align	2
 365              	.L26:
 366 003c 00000000 		.word	.LANCHOR0
 367              		.cfi_endproc
 368              	.LFE2:
 369              		.size	u8x8_d_ssd1306_128x64_vcomh0, .-u8x8_d_ssd1306_128x64_vcomh0
 370              		.section	.text.u8x8_d_sh1106_128x64_noname,"ax",%progbits
 371              		.align	2
 372              		.global	u8x8_d_sh1106_128x64_noname
 373              		.code	16
 374              		.thumb_func
 375              		.type	u8x8_d_sh1106_128x64_noname, %function
 376              	u8x8_d_sh1106_128x64_noname:
 377              	.LFB3:
 289:..\..\u8g2\csrc/u8x8_d_ssd1306_128x64_noname.c **** 
 290:..\..\u8g2\csrc/u8x8_d_ssd1306_128x64_noname.c **** 
 291:..\..\u8g2\csrc/u8x8_d_ssd1306_128x64_noname.c **** static const u8x8_display_info_t u8x8_sh1106_128x64_noname_display_info =
 292:..\..\u8g2\csrc/u8x8_d_ssd1306_128x64_noname.c **** {
 293:..\..\u8g2\csrc/u8x8_d_ssd1306_128x64_noname.c ****   /* chip_enable_level = */ 0,
 294:..\..\u8g2\csrc/u8x8_d_ssd1306_128x64_noname.c ****   /* chip_disable_level = */ 1,
 295:..\..\u8g2\csrc/u8x8_d_ssd1306_128x64_noname.c ****   
 296:..\..\u8g2\csrc/u8x8_d_ssd1306_128x64_noname.c ****   /* post_chip_enable_wait_ns = */ 20,
 297:..\..\u8g2\csrc/u8x8_d_ssd1306_128x64_noname.c ****   /* pre_chip_disable_wait_ns = */ 10,
 298:..\..\u8g2\csrc/u8x8_d_ssd1306_128x64_noname.c ****   /* reset_pulse_width_ms = */ 100, 	/* SSD1306: 3 us */
 299:..\..\u8g2\csrc/u8x8_d_ssd1306_128x64_noname.c ****   /* post_reset_wait_ms = */ 100, /* far east OLEDs need much longer setup time */
 300:..\..\u8g2\csrc/u8x8_d_ssd1306_128x64_noname.c ****   /* sda_setup_time_ns = */ 50,		/* SSD1306: 15ns, but cycle time is 100ns, so use 100/2 */
 301:..\..\u8g2\csrc/u8x8_d_ssd1306_128x64_noname.c ****   /* sck_pulse_width_ns = */ 50,	/* SSD1306: 20ns, but cycle time is 100ns, so use 100/2, AVR: belo
 302:..\..\u8g2\csrc/u8x8_d_ssd1306_128x64_noname.c ****   /* sck_clock_hz = */ 4000000UL,	/* since Arduino 1.6.0, the SPI bus speed in Hz. Should be  10000
 303:..\..\u8g2\csrc/u8x8_d_ssd1306_128x64_noname.c ****   /* spi_mode = */ 3,		/* active low (clock is high by default), rising edge, this seems to be a di
 304:..\..\u8g2\csrc/u8x8_d_ssd1306_128x64_noname.c ****   /* i2c_bus_clock_100kHz = */ 4,
 305:..\..\u8g2\csrc/u8x8_d_ssd1306_128x64_noname.c ****   /* data_setup_time_ns = */ 40,
 306:..\..\u8g2\csrc/u8x8_d_ssd1306_128x64_noname.c ****   /* write_pulse_width_ns = */ 150,	/* SSD1306: cycle time is 300ns, so use 300/2 = 150 */
 307:..\..\u8g2\csrc/u8x8_d_ssd1306_128x64_noname.c ****   /* tile_width = */ 16,
 308:..\..\u8g2\csrc/u8x8_d_ssd1306_128x64_noname.c ****   /* tile_hight = */ 8,
 309:..\..\u8g2\csrc/u8x8_d_ssd1306_128x64_noname.c ****   /* default_x_offset = */ 2,
 310:..\..\u8g2\csrc/u8x8_d_ssd1306_128x64_noname.c ****   /* flipmode_x_offset = */ 2,
 311:..\..\u8g2\csrc/u8x8_d_ssd1306_128x64_noname.c ****   /* pixel_width = */ 128,
 312:..\..\u8g2\csrc/u8x8_d_ssd1306_128x64_noname.c ****   /* pixel_height = */ 64
 313:..\..\u8g2\csrc/u8x8_d_ssd1306_128x64_noname.c **** };
 314:..\..\u8g2\csrc/u8x8_d_ssd1306_128x64_noname.c **** 
 315:..\..\u8g2\csrc/u8x8_d_ssd1306_128x64_noname.c **** uint8_t u8x8_d_sh1106_128x64_noname(u8x8_t *u8x8, uint8_t msg, uint8_t arg_int, void *arg_ptr)
 316:..\..\u8g2\csrc/u8x8_d_ssd1306_128x64_noname.c **** {
 378              		.loc 1 316 0
 379              		.cfi_startproc
 380              		@ args = 0, pretend = 0, frame = 0
 381              		@ frame_needed = 0, uses_anonymous_args = 0
 382              	.LVL50:
 383 0000 70B5     		push	{r4, r5, r6, lr}
 384              		.cfi_def_cfa_offset 16
 385              		.cfi_offset 4, -16
 386              		.cfi_offset 5, -12
 387              		.cfi_offset 6, -8
 388              		.cfi_offset 14, -4
 389 0002 0500     		movs	r5, r0
 390 0004 0C00     		movs	r4, r1
 317:..\..\u8g2\csrc/u8x8_d_ssd1306_128x64_noname.c ****   if ( u8x8_d_ssd1306_sh1106_generic(u8x8, msg, arg_int, arg_ptr) != 0 )
ARM GAS  C:\Users\arh\AppData\Local\Temp\cc51Twqz.s 			page 14


 391              		.loc 1 317 0
 392 0006 FFF7FEFF 		bl	u8x8_d_ssd1306_sh1106_generic
 393              	.LVL51:
 394 000a 0028     		cmp	r0, #0
 395 000c 14D1     		bne	.L32
 318:..\..\u8g2\csrc/u8x8_d_ssd1306_128x64_noname.c ****     return 1;
 319:..\..\u8g2\csrc/u8x8_d_ssd1306_128x64_noname.c ****   
 320:..\..\u8g2\csrc/u8x8_d_ssd1306_128x64_noname.c ****   switch(msg)
 396              		.loc 1 320 0
 397 000e 092C     		cmp	r4, #9
 398 0010 0BD0     		beq	.L30
 399 0012 0A2C     		cmp	r4, #10
 400 0014 11D1     		bne	.L29
 321:..\..\u8g2\csrc/u8x8_d_ssd1306_128x64_noname.c ****   {
 322:..\..\u8g2\csrc/u8x8_d_ssd1306_128x64_noname.c ****     case U8X8_MSG_DISPLAY_INIT:
 323:..\..\u8g2\csrc/u8x8_d_ssd1306_128x64_noname.c ****       u8x8_d_helper_display_init(u8x8);
 401              		.loc 1 323 0
 402 0016 2800     		movs	r0, r5
 403 0018 FFF7FEFF 		bl	u8x8_d_helper_display_init
 404              	.LVL52:
 324:..\..\u8g2\csrc/u8x8_d_ssd1306_128x64_noname.c ****       u8x8_cad_SendSequence(u8x8, u8x8_d_ssd1306_128x64_noname_init_seq);    
 405              		.loc 1 324 0
 406 001c 0749     		ldr	r1, .L33
 407 001e 2031     		adds	r1, r1, #32
 408 0020 2800     		movs	r0, r5
 409 0022 FFF7FEFF 		bl	u8x8_cad_SendSequence
 410              	.LVL53:
 325:..\..\u8g2\csrc/u8x8_d_ssd1306_128x64_noname.c ****       break;
 326:..\..\u8g2\csrc/u8x8_d_ssd1306_128x64_noname.c ****     case U8X8_MSG_DISPLAY_SETUP_MEMORY:
 327:..\..\u8g2\csrc/u8x8_d_ssd1306_128x64_noname.c ****       u8x8_d_helper_display_setup_memory(u8x8, &u8x8_sh1106_128x64_noname_display_info);
 328:..\..\u8g2\csrc/u8x8_d_ssd1306_128x64_noname.c ****       break;
 329:..\..\u8g2\csrc/u8x8_d_ssd1306_128x64_noname.c ****     default:
 330:..\..\u8g2\csrc/u8x8_d_ssd1306_128x64_noname.c ****       return 0;
 331:..\..\u8g2\csrc/u8x8_d_ssd1306_128x64_noname.c ****   }
 332:..\..\u8g2\csrc/u8x8_d_ssd1306_128x64_noname.c ****   return 1;
 411              		.loc 1 332 0
 412 0026 0120     		movs	r0, #1
 325:..\..\u8g2\csrc/u8x8_d_ssd1306_128x64_noname.c ****       break;
 413              		.loc 1 325 0
 414 0028 07E0     		b	.L29
 415              	.L30:
 327:..\..\u8g2\csrc/u8x8_d_ssd1306_128x64_noname.c ****       break;
 416              		.loc 1 327 0
 417 002a 0549     		ldr	r1, .L33+4
 418 002c 2831     		adds	r1, r1, #40
 419 002e 2800     		movs	r0, r5
 420 0030 FFF7FEFF 		bl	u8x8_d_helper_display_setup_memory
 421              	.LVL54:
 422              		.loc 1 332 0
 423 0034 0120     		movs	r0, #1
 328:..\..\u8g2\csrc/u8x8_d_ssd1306_128x64_noname.c ****     default:
 424              		.loc 1 328 0
 425 0036 00E0     		b	.L29
 426              	.L32:
 318:..\..\u8g2\csrc/u8x8_d_ssd1306_128x64_noname.c ****   
 427              		.loc 1 318 0
 428 0038 0120     		movs	r0, #1
ARM GAS  C:\Users\arh\AppData\Local\Temp\cc51Twqz.s 			page 15


 429              	.L29:
 333:..\..\u8g2\csrc/u8x8_d_ssd1306_128x64_noname.c ****     
 334:..\..\u8g2\csrc/u8x8_d_ssd1306_128x64_noname.c **** }
 430              		.loc 1 334 0
 431              		@ sp needed
 432              	.LVL55:
 433 003a 70BD     		pop	{r4, r5, r6, pc}
 434              	.L34:
 435              		.align	2
 436              	.L33:
 437 003c 00000000 		.word	.LANCHOR0
 438 0040 80000000 		.word	.LANCHOR1
 439              		.cfi_endproc
 440              	.LFE3:
 441              		.size	u8x8_d_sh1106_128x64_noname, .-u8x8_d_sh1106_128x64_noname
 442              		.section	.text.u8x8_d_sh1106_128x64_vcomh0,"ax",%progbits
 443              		.align	2
 444              		.global	u8x8_d_sh1106_128x64_vcomh0
 445              		.code	16
 446              		.thumb_func
 447              		.type	u8x8_d_sh1106_128x64_vcomh0, %function
 448              	u8x8_d_sh1106_128x64_vcomh0:
 449              	.LFB4:
 335:..\..\u8g2\csrc/u8x8_d_ssd1306_128x64_noname.c **** 
 336:..\..\u8g2\csrc/u8x8_d_ssd1306_128x64_noname.c **** uint8_t u8x8_d_sh1106_128x64_vcomh0(u8x8_t *u8x8, uint8_t msg, uint8_t arg_int, void *arg_ptr)
 337:..\..\u8g2\csrc/u8x8_d_ssd1306_128x64_noname.c **** {
 450              		.loc 1 337 0
 451              		.cfi_startproc
 452              		@ args = 0, pretend = 0, frame = 0
 453              		@ frame_needed = 0, uses_anonymous_args = 0
 454              	.LVL56:
 455 0000 70B5     		push	{r4, r5, r6, lr}
 456              		.cfi_def_cfa_offset 16
 457              		.cfi_offset 4, -16
 458              		.cfi_offset 5, -12
 459              		.cfi_offset 6, -8
 460              		.cfi_offset 14, -4
 461 0002 0500     		movs	r5, r0
 462 0004 0C00     		movs	r4, r1
 338:..\..\u8g2\csrc/u8x8_d_ssd1306_128x64_noname.c ****   if ( u8x8_d_ssd1306_sh1106_generic(u8x8, msg, arg_int, arg_ptr) != 0 )
 463              		.loc 1 338 0
 464 0006 FFF7FEFF 		bl	u8x8_d_ssd1306_sh1106_generic
 465              	.LVL57:
 466 000a 0028     		cmp	r0, #0
 467 000c 14D1     		bne	.L39
 339:..\..\u8g2\csrc/u8x8_d_ssd1306_128x64_noname.c ****     return 1;
 340:..\..\u8g2\csrc/u8x8_d_ssd1306_128x64_noname.c ****   
 341:..\..\u8g2\csrc/u8x8_d_ssd1306_128x64_noname.c ****   switch(msg)
 468              		.loc 1 341 0
 469 000e 092C     		cmp	r4, #9
 470 0010 0BD0     		beq	.L37
 471 0012 0A2C     		cmp	r4, #10
 472 0014 11D1     		bne	.L36
 342:..\..\u8g2\csrc/u8x8_d_ssd1306_128x64_noname.c ****   {
 343:..\..\u8g2\csrc/u8x8_d_ssd1306_128x64_noname.c ****     case U8X8_MSG_DISPLAY_INIT:
 344:..\..\u8g2\csrc/u8x8_d_ssd1306_128x64_noname.c ****       u8x8_d_helper_display_init(u8x8);
 473              		.loc 1 344 0
ARM GAS  C:\Users\arh\AppData\Local\Temp\cc51Twqz.s 			page 16


 474 0016 2800     		movs	r0, r5
 475 0018 FFF7FEFF 		bl	u8x8_d_helper_display_init
 476              	.LVL58:
 345:..\..\u8g2\csrc/u8x8_d_ssd1306_128x64_noname.c ****       u8x8_cad_SendSequence(u8x8, u8x8_d_ssd1306_128x64_vcomh0_init_seq);    
 477              		.loc 1 345 0
 478 001c 0749     		ldr	r1, .L40
 479 001e 7031     		adds	r1, r1, #112
 480 0020 2800     		movs	r0, r5
 481 0022 FFF7FEFF 		bl	u8x8_cad_SendSequence
 482              	.LVL59:
 346:..\..\u8g2\csrc/u8x8_d_ssd1306_128x64_noname.c ****       break;
 347:..\..\u8g2\csrc/u8x8_d_ssd1306_128x64_noname.c ****     case U8X8_MSG_DISPLAY_SETUP_MEMORY:
 348:..\..\u8g2\csrc/u8x8_d_ssd1306_128x64_noname.c ****       u8x8_d_helper_display_setup_memory(u8x8, &u8x8_sh1106_128x64_noname_display_info);
 349:..\..\u8g2\csrc/u8x8_d_ssd1306_128x64_noname.c ****       break;
 350:..\..\u8g2\csrc/u8x8_d_ssd1306_128x64_noname.c ****     default:
 351:..\..\u8g2\csrc/u8x8_d_ssd1306_128x64_noname.c ****       return 0;
 352:..\..\u8g2\csrc/u8x8_d_ssd1306_128x64_noname.c ****   }
 353:..\..\u8g2\csrc/u8x8_d_ssd1306_128x64_noname.c ****   return 1;
 483              		.loc 1 353 0
 484 0026 0120     		movs	r0, #1
 346:..\..\u8g2\csrc/u8x8_d_ssd1306_128x64_noname.c ****       break;
 485              		.loc 1 346 0
 486 0028 07E0     		b	.L36
 487              	.L37:
 348:..\..\u8g2\csrc/u8x8_d_ssd1306_128x64_noname.c ****       break;
 488              		.loc 1 348 0
 489 002a 0549     		ldr	r1, .L40+4
 490 002c 2831     		adds	r1, r1, #40
 491 002e 2800     		movs	r0, r5
 492 0030 FFF7FEFF 		bl	u8x8_d_helper_display_setup_memory
 493              	.LVL60:
 494              		.loc 1 353 0
 495 0034 0120     		movs	r0, #1
 349:..\..\u8g2\csrc/u8x8_d_ssd1306_128x64_noname.c ****     default:
 496              		.loc 1 349 0
 497 0036 00E0     		b	.L36
 498              	.L39:
 339:..\..\u8g2\csrc/u8x8_d_ssd1306_128x64_noname.c ****   
 499              		.loc 1 339 0
 500 0038 0120     		movs	r0, #1
 501              	.L36:
 354:..\..\u8g2\csrc/u8x8_d_ssd1306_128x64_noname.c ****     
 355:..\..\u8g2\csrc/u8x8_d_ssd1306_128x64_noname.c **** }
 502              		.loc 1 355 0
 503              		@ sp needed
 504              	.LVL61:
 505 003a 70BD     		pop	{r4, r5, r6, pc}
 506              	.L41:
 507              		.align	2
 508              	.L40:
 509 003c 00000000 		.word	.LANCHOR0
 510 0040 80000000 		.word	.LANCHOR1
 511              		.cfi_endproc
 512              	.LFE4:
 513              		.size	u8x8_d_sh1106_128x64_vcomh0, .-u8x8_d_sh1106_128x64_vcomh0
 514              		.section	.rodata
 515              		.align	2
ARM GAS  C:\Users\arh\AppData\Local\Temp\cc51Twqz.s 			page 17


 516              		.set	.LANCHOR0,. + 0
 517              		.set	.LANCHOR1,. + 128
 518              		.type	u8x8_d_ssd1306_128x64_noname_powersave0_seq, %object
 519              		.size	u8x8_d_ssd1306_128x64_noname_powersave0_seq, 5
 520              	u8x8_d_ssd1306_128x64_noname_powersave0_seq:
 521 0000 18       		.byte	24
 522 0001 15       		.byte	21
 523 0002 AF       		.byte	-81
 524 0003 19       		.byte	25
 525 0004 FF       		.byte	-1
 526 0005 000000   		.space	3
 527              		.type	u8x8_d_ssd1306_128x64_noname_powersave1_seq, %object
 528              		.size	u8x8_d_ssd1306_128x64_noname_powersave1_seq, 5
 529              	u8x8_d_ssd1306_128x64_noname_powersave1_seq:
 530 0008 18       		.byte	24
 531 0009 15       		.byte	21
 532 000a AE       		.byte	-82
 533 000b 19       		.byte	25
 534 000c FF       		.byte	-1
 535 000d 000000   		.space	3
 536              		.type	u8x8_d_ssd1306_128x64_noname_flip0_seq, %object
 537              		.size	u8x8_d_ssd1306_128x64_noname_flip0_seq, 7
 538              	u8x8_d_ssd1306_128x64_noname_flip0_seq:
 539 0010 18       		.byte	24
 540 0011 15       		.byte	21
 541 0012 A1       		.byte	-95
 542 0013 15       		.byte	21
 543 0014 C8       		.byte	-56
 544 0015 19       		.byte	25
 545 0016 FF       		.byte	-1
 546 0017 00       		.space	1
 547              		.type	u8x8_d_ssd1306_128x64_noname_flip1_seq, %object
 548              		.size	u8x8_d_ssd1306_128x64_noname_flip1_seq, 7
 549              	u8x8_d_ssd1306_128x64_noname_flip1_seq:
 550 0018 18       		.byte	24
 551 0019 15       		.byte	21
 552 001a A0       		.byte	-96
 553 001b 15       		.byte	21
 554 001c C0       		.byte	-64
 555 001d 19       		.byte	25
 556 001e FF       		.byte	-1
 557 001f 00       		.space	1
 558              		.type	u8x8_d_ssd1306_128x64_noname_init_seq, %object
 559              		.size	u8x8_d_ssd1306_128x64_noname_init_seq, 53
 560              	u8x8_d_ssd1306_128x64_noname_init_seq:
 561 0020 18       		.byte	24
 562 0021 15       		.byte	21
 563 0022 AE       		.byte	-82
 564 0023 15       		.byte	21
 565 0024 D5       		.byte	-43
 566 0025 16       		.byte	22
 567 0026 80       		.byte	-128
 568 0027 15       		.byte	21
 569 0028 A8       		.byte	-88
 570 0029 16       		.byte	22
 571 002a 3F       		.byte	63
 572 002b 15       		.byte	21
ARM GAS  C:\Users\arh\AppData\Local\Temp\cc51Twqz.s 			page 18


 573 002c D3       		.byte	-45
 574 002d 16       		.byte	22
 575 002e 00       		.byte	0
 576 002f 15       		.byte	21
 577 0030 40       		.byte	64
 578 0031 15       		.byte	21
 579 0032 8D       		.byte	-115
 580 0033 16       		.byte	22
 581 0034 14       		.byte	20
 582 0035 15       		.byte	21
 583 0036 20       		.byte	32
 584 0037 16       		.byte	22
 585 0038 00       		.byte	0
 586 0039 15       		.byte	21
 587 003a A1       		.byte	-95
 588 003b 15       		.byte	21
 589 003c C8       		.byte	-56
 590 003d 15       		.byte	21
 591 003e DA       		.byte	-38
 592 003f 16       		.byte	22
 593 0040 12       		.byte	18
 594 0041 15       		.byte	21
 595 0042 81       		.byte	-127
 596 0043 16       		.byte	22
 597 0044 CF       		.byte	-49
 598 0045 15       		.byte	21
 599 0046 D9       		.byte	-39
 600 0047 16       		.byte	22
 601 0048 F1       		.byte	-15
 602 0049 15       		.byte	21
 603 004a DB       		.byte	-37
 604 004b 16       		.byte	22
 605 004c 40       		.byte	64
 606 004d 15       		.byte	21
 607 004e 2E       		.byte	46
 608 004f 15       		.byte	21
 609 0050 A4       		.byte	-92
 610 0051 15       		.byte	21
 611 0052 A6       		.byte	-90
 612 0053 19       		.byte	25
 613 0054 FF       		.byte	-1
 614 0055 000000   		.space	3
 615              		.type	u8x8_ssd1306_128x64_noname_display_info, %object
 616              		.size	u8x8_ssd1306_128x64_noname_display_info, 24
 617              	u8x8_ssd1306_128x64_noname_display_info:
 618 0058 00       		.byte	0
 619 0059 01       		.byte	1
 620 005a 14       		.byte	20
 621 005b 0A       		.byte	10
 622 005c 64       		.byte	100
 623 005d 64       		.byte	100
 624 005e 32       		.byte	50
 625 005f 32       		.byte	50
 626 0060 00093D00 		.word	4000000
 627 0064 00       		.byte	0
 628 0065 04       		.byte	4
 629 0066 28       		.byte	40
ARM GAS  C:\Users\arh\AppData\Local\Temp\cc51Twqz.s 			page 19


 630 0067 96       		.byte	-106
 631 0068 10       		.byte	16
 632 0069 08       		.byte	8
 633 006a 00       		.byte	0
 634 006b 00       		.byte	0
 635 006c 8000     		.short	128
 636 006e 4000     		.short	64
 637              		.type	u8x8_d_ssd1306_128x64_vcomh0_init_seq, %object
 638              		.size	u8x8_d_ssd1306_128x64_vcomh0_init_seq, 53
 639              	u8x8_d_ssd1306_128x64_vcomh0_init_seq:
 640 0070 18       		.byte	24
 641 0071 15       		.byte	21
 642 0072 AE       		.byte	-82
 643 0073 15       		.byte	21
 644 0074 D5       		.byte	-43
 645 0075 16       		.byte	22
 646 0076 80       		.byte	-128
 647 0077 15       		.byte	21
 648 0078 A8       		.byte	-88
 649 0079 16       		.byte	22
 650 007a 3F       		.byte	63
 651 007b 15       		.byte	21
 652 007c D3       		.byte	-45
 653 007d 16       		.byte	22
 654 007e 00       		.byte	0
 655 007f 15       		.byte	21
 656 0080 40       		.byte	64
 657 0081 15       		.byte	21
 658 0082 8D       		.byte	-115
 659 0083 16       		.byte	22
 660 0084 14       		.byte	20
 661 0085 15       		.byte	21
 662 0086 20       		.byte	32
 663 0087 16       		.byte	22
 664 0088 00       		.byte	0
 665 0089 15       		.byte	21
 666 008a A1       		.byte	-95
 667 008b 15       		.byte	21
 668 008c C8       		.byte	-56
 669 008d 15       		.byte	21
 670 008e DA       		.byte	-38
 671 008f 16       		.byte	22
 672 0090 12       		.byte	18
 673 0091 15       		.byte	21
 674 0092 81       		.byte	-127
 675 0093 16       		.byte	22
 676 0094 EF       		.byte	-17
 677 0095 15       		.byte	21
 678 0096 D9       		.byte	-39
 679 0097 16       		.byte	22
 680 0098 A1       		.byte	-95
 681 0099 15       		.byte	21
 682 009a DB       		.byte	-37
 683 009b 16       		.byte	22
 684 009c 00       		.byte	0
 685 009d 15       		.byte	21
 686 009e 2E       		.byte	46
ARM GAS  C:\Users\arh\AppData\Local\Temp\cc51Twqz.s 			page 20


 687 009f 15       		.byte	21
 688 00a0 A4       		.byte	-92
 689 00a1 15       		.byte	21
 690 00a2 A6       		.byte	-90
 691 00a3 19       		.byte	25
 692 00a4 FF       		.byte	-1
 693 00a5 000000   		.space	3
 694              		.type	u8x8_sh1106_128x64_noname_display_info, %object
 695              		.size	u8x8_sh1106_128x64_noname_display_info, 24
 696              	u8x8_sh1106_128x64_noname_display_info:
 697 00a8 00       		.byte	0
 698 00a9 01       		.byte	1
 699 00aa 14       		.byte	20
 700 00ab 0A       		.byte	10
 701 00ac 64       		.byte	100
 702 00ad 64       		.byte	100
 703 00ae 32       		.byte	50
 704 00af 32       		.byte	50
 705 00b0 00093D00 		.word	4000000
 706 00b4 03       		.byte	3
 707 00b5 04       		.byte	4
 708 00b6 28       		.byte	40
 709 00b7 96       		.byte	-106
 710 00b8 10       		.byte	16
 711 00b9 08       		.byte	8
 712 00ba 02       		.byte	2
 713 00bb 02       		.byte	2
 714 00bc 8000     		.short	128
 715 00be 4000     		.short	64
 716              		.text
 717              	.Letext0:
 718              		.file 2 "c:\\program files (x86)\\cypress\\psoc creator\\4.1\\psoc creator\\import\\gnu\\arm\\5.4.
 719              		.file 3 "c:\\program files (x86)\\cypress\\psoc creator\\4.1\\psoc creator\\import\\gnu\\arm\\5.4.
 720              		.file 4 "..\\..\\u8g2\\csrc\\u8x8.h"