ARM GAS  C:\Users\arh\AppData\Local\Temp\ccmCaonO.s 			page 1


   1              		.syntax unified
   2              		.cpu cortex-m0
   3              		.fpu softvfp
   4              		.eabi_attribute 20, 1
   5              		.eabi_attribute 21, 1
   6              		.eabi_attribute 23, 3
   7              		.eabi_attribute 24, 1
   8              		.eabi_attribute 25, 1
   9              		.eabi_attribute 26, 1
  10              		.eabi_attribute 30, 1
  11              		.eabi_attribute 34, 0
  12              		.eabi_attribute 18, 4
  13              		.thumb
  14              		.syntax unified
  15              		.file	"u8x8_d_st7565.c"
  16              		.text
  17              	.Ltext0:
  18              		.cfi_sections	.debug_frame
  19              		.section	.text.u8x8_d_st7565_common,"ax",%progbits
  20              		.align	2
  21              		.global	u8x8_d_st7565_common
  22              		.code	16
  23              		.thumb_func
  24              		.type	u8x8_d_st7565_common, %function
  25              	u8x8_d_st7565_common:
  26              	.LFB0:
  27              		.file 1 "..\\..\\u8g2\\csrc\\u8x8_d_st7565.c"
   1:..\..\u8g2\csrc/u8x8_d_st7565.c **** /*
   2:..\..\u8g2\csrc/u8x8_d_st7565.c **** 
   3:..\..\u8g2\csrc/u8x8_d_st7565.c ****   u8x8_d_st7565.c
   4:..\..\u8g2\csrc/u8x8_d_st7565.c ****   also includes support for nt7534 
   5:..\..\u8g2\csrc/u8x8_d_st7565.c ****   
   6:..\..\u8g2\csrc/u8x8_d_st7565.c ****   Universal 8bit Graphics Library (https://github.com/olikraus/u8g2/)
   7:..\..\u8g2\csrc/u8x8_d_st7565.c **** 
   8:..\..\u8g2\csrc/u8x8_d_st7565.c ****   Copyright (c) 2016, olikraus@gmail.com
   9:..\..\u8g2\csrc/u8x8_d_st7565.c ****   All rights reserved.
  10:..\..\u8g2\csrc/u8x8_d_st7565.c **** 
  11:..\..\u8g2\csrc/u8x8_d_st7565.c ****   Redistribution and use in source and binary forms, with or without modification, 
  12:..\..\u8g2\csrc/u8x8_d_st7565.c ****   are permitted provided that the following conditions are met:
  13:..\..\u8g2\csrc/u8x8_d_st7565.c **** 
  14:..\..\u8g2\csrc/u8x8_d_st7565.c ****   * Redistributions of source code must retain the above copyright notice, this list 
  15:..\..\u8g2\csrc/u8x8_d_st7565.c ****     of conditions and the following disclaimer.
  16:..\..\u8g2\csrc/u8x8_d_st7565.c ****     
  17:..\..\u8g2\csrc/u8x8_d_st7565.c ****   * Redistributions in binary form must reproduce the above copyright notice, this 
  18:..\..\u8g2\csrc/u8x8_d_st7565.c ****     list of conditions and the following disclaimer in the documentation and/or other 
  19:..\..\u8g2\csrc/u8x8_d_st7565.c ****     materials provided with the distribution.
  20:..\..\u8g2\csrc/u8x8_d_st7565.c **** 
  21:..\..\u8g2\csrc/u8x8_d_st7565.c ****   THIS SOFTWARE IS PROVIDED BY THE COPYRIGHT HOLDERS AND 
  22:..\..\u8g2\csrc/u8x8_d_st7565.c ****   CONTRIBUTORS "AS IS" AND ANY EXPRESS OR IMPLIED WARRANTIES, 
  23:..\..\u8g2\csrc/u8x8_d_st7565.c ****   INCLUDING, BUT NOT LIMITED TO, THE IMPLIED WARRANTIES OF 
  24:..\..\u8g2\csrc/u8x8_d_st7565.c ****   MERCHANTABILITY AND FITNESS FOR A PARTICULAR PURPOSE ARE 
  25:..\..\u8g2\csrc/u8x8_d_st7565.c ****   DISCLAIMED. IN NO EVENT SHALL THE COPYRIGHT HOLDER OR 
  26:..\..\u8g2\csrc/u8x8_d_st7565.c ****   CONTRIBUTORS BE LIABLE FOR ANY DIRECT, INDIRECT, INCIDENTAL, 
  27:..\..\u8g2\csrc/u8x8_d_st7565.c ****   SPECIAL, EXEMPLARY, OR CONSEQUENTIAL DAMAGES (INCLUDING, BUT 
  28:..\..\u8g2\csrc/u8x8_d_st7565.c ****   NOT LIMITED TO, PROCUREMENT OF SUBSTITUTE GOODS OR SERVICES; 
  29:..\..\u8g2\csrc/u8x8_d_st7565.c ****   LOSS OF USE, DATA, OR PROFITS; OR BUSINESS INTERRUPTION) HOWEVER 
  30:..\..\u8g2\csrc/u8x8_d_st7565.c ****   CAUSED AND ON ANY THEORY OF LIABILITY, WHETHER IN CONTRACT, 
ARM GAS  C:\Users\arh\AppData\Local\Temp\ccmCaonO.s 			page 2


  31:..\..\u8g2\csrc/u8x8_d_st7565.c ****   STRICT LIABILITY, OR TORT (INCLUDING NEGLIGENCE OR OTHERWISE) 
  32:..\..\u8g2\csrc/u8x8_d_st7565.c ****   ARISING IN ANY WAY OUT OF THE USE OF THIS SOFTWARE, EVEN IF 
  33:..\..\u8g2\csrc/u8x8_d_st7565.c ****   ADVISED OF THE POSSIBILITY OF SUCH DAMAGE.  
  34:..\..\u8g2\csrc/u8x8_d_st7565.c **** 
  35:..\..\u8g2\csrc/u8x8_d_st7565.c ****   
  36:..\..\u8g2\csrc/u8x8_d_st7565.c **** */
  37:..\..\u8g2\csrc/u8x8_d_st7565.c **** #include "u8x8.h"
  38:..\..\u8g2\csrc/u8x8_d_st7565.c **** 
  39:..\..\u8g2\csrc/u8x8_d_st7565.c **** 
  40:..\..\u8g2\csrc/u8x8_d_st7565.c **** 
  41:..\..\u8g2\csrc/u8x8_d_st7565.c **** 
  42:..\..\u8g2\csrc/u8x8_d_st7565.c **** 
  43:..\..\u8g2\csrc/u8x8_d_st7565.c **** static const uint8_t u8x8_d_st7565_powersave0_seq[] = {
  44:..\..\u8g2\csrc/u8x8_d_st7565.c ****   U8X8_START_TRANSFER(),             	/* enable chip, delay is part of the transfer start */
  45:..\..\u8g2\csrc/u8x8_d_st7565.c ****   U8X8_C(0x0a4),		                /* all pixel off, issue 142 */
  46:..\..\u8g2\csrc/u8x8_d_st7565.c ****   U8X8_C(0x0af),		                /* display on */
  47:..\..\u8g2\csrc/u8x8_d_st7565.c ****   U8X8_END_TRANSFER(),             	/* disable chip */
  48:..\..\u8g2\csrc/u8x8_d_st7565.c ****   U8X8_END()             			/* end of sequence */
  49:..\..\u8g2\csrc/u8x8_d_st7565.c **** };
  50:..\..\u8g2\csrc/u8x8_d_st7565.c **** 
  51:..\..\u8g2\csrc/u8x8_d_st7565.c **** static const uint8_t u8x8_d_st7565_powersave1_seq[] = {
  52:..\..\u8g2\csrc/u8x8_d_st7565.c ****   U8X8_START_TRANSFER(),             	/* enable chip, delay is part of the transfer start */
  53:..\..\u8g2\csrc/u8x8_d_st7565.c ****   U8X8_C(0x0ae),		                /* display off */
  54:..\..\u8g2\csrc/u8x8_d_st7565.c ****   U8X8_C(0x0a5),		                /* enter powersafe: all pixel on, issue 142 */
  55:..\..\u8g2\csrc/u8x8_d_st7565.c ****   U8X8_END_TRANSFER(),             	/* disable chip */
  56:..\..\u8g2\csrc/u8x8_d_st7565.c ****   U8X8_END()             			/* end of sequence */
  57:..\..\u8g2\csrc/u8x8_d_st7565.c **** };
  58:..\..\u8g2\csrc/u8x8_d_st7565.c **** 
  59:..\..\u8g2\csrc/u8x8_d_st7565.c **** static const uint8_t u8x8_d_st7565_flip0_seq[] = {
  60:..\..\u8g2\csrc/u8x8_d_st7565.c ****   U8X8_START_TRANSFER(),             	/* enable chip, delay is part of the transfer start */
  61:..\..\u8g2\csrc/u8x8_d_st7565.c ****   U8X8_C(0x0a1),				/* segment remap a0/a1*/
  62:..\..\u8g2\csrc/u8x8_d_st7565.c ****   U8X8_C(0x0c0),				/* c0: scan dir normal, c8: reverse */
  63:..\..\u8g2\csrc/u8x8_d_st7565.c ****   U8X8_END_TRANSFER(),             	/* disable chip */
  64:..\..\u8g2\csrc/u8x8_d_st7565.c ****   U8X8_END()             			/* end of sequence */
  65:..\..\u8g2\csrc/u8x8_d_st7565.c **** };
  66:..\..\u8g2\csrc/u8x8_d_st7565.c **** 
  67:..\..\u8g2\csrc/u8x8_d_st7565.c **** static const uint8_t u8x8_d_st7565_flip1_seq[] = {
  68:..\..\u8g2\csrc/u8x8_d_st7565.c ****   U8X8_START_TRANSFER(),             	/* enable chip, delay is part of the transfer start */
  69:..\..\u8g2\csrc/u8x8_d_st7565.c ****   U8X8_C(0x0a0),				/* segment remap a0/a1*/
  70:..\..\u8g2\csrc/u8x8_d_st7565.c ****   U8X8_C(0x0c8),				/* c0: scan dir normal, c8: reverse */
  71:..\..\u8g2\csrc/u8x8_d_st7565.c ****   U8X8_END_TRANSFER(),             	/* disable chip */
  72:..\..\u8g2\csrc/u8x8_d_st7565.c ****   U8X8_END()             			/* end of sequence */
  73:..\..\u8g2\csrc/u8x8_d_st7565.c **** };
  74:..\..\u8g2\csrc/u8x8_d_st7565.c **** 
  75:..\..\u8g2\csrc/u8x8_d_st7565.c **** static const uint8_t u8x8_d_st7565_zflip0_seq[] = {
  76:..\..\u8g2\csrc/u8x8_d_st7565.c ****   U8X8_START_TRANSFER(),             	/* enable chip, delay is part of the transfer start */
  77:..\..\u8g2\csrc/u8x8_d_st7565.c ****   U8X8_C(0x0a1),				/* segment remap a0/a1*/
  78:..\..\u8g2\csrc/u8x8_d_st7565.c ****   U8X8_C(0x0c8),				/* c0: scan dir normal, c8: reverse */
  79:..\..\u8g2\csrc/u8x8_d_st7565.c ****   U8X8_END_TRANSFER(),             	/* disable chip */
  80:..\..\u8g2\csrc/u8x8_d_st7565.c ****   U8X8_END()             			/* end of sequence */
  81:..\..\u8g2\csrc/u8x8_d_st7565.c **** };
  82:..\..\u8g2\csrc/u8x8_d_st7565.c **** 
  83:..\..\u8g2\csrc/u8x8_d_st7565.c **** static const uint8_t u8x8_d_st7565_zflip1_seq[] = {
  84:..\..\u8g2\csrc/u8x8_d_st7565.c ****   U8X8_START_TRANSFER(),             	/* enable chip, delay is part of the transfer start */
  85:..\..\u8g2\csrc/u8x8_d_st7565.c ****   U8X8_C(0x0a0),				/* segment remap a0/a1*/
  86:..\..\u8g2\csrc/u8x8_d_st7565.c ****   U8X8_C(0x0c0),				/* c0: scan dir normal, c8: reverse */
  87:..\..\u8g2\csrc/u8x8_d_st7565.c ****   U8X8_END_TRANSFER(),             	/* disable chip */
ARM GAS  C:\Users\arh\AppData\Local\Temp\ccmCaonO.s 			page 3


  88:..\..\u8g2\csrc/u8x8_d_st7565.c ****   U8X8_END()             			/* end of sequence */
  89:..\..\u8g2\csrc/u8x8_d_st7565.c **** };
  90:..\..\u8g2\csrc/u8x8_d_st7565.c **** 
  91:..\..\u8g2\csrc/u8x8_d_st7565.c **** static const u8x8_display_info_t u8x8_st7565_128x64_display_info =
  92:..\..\u8g2\csrc/u8x8_d_st7565.c **** {
  93:..\..\u8g2\csrc/u8x8_d_st7565.c ****   /* chip_enable_level = */ 0,
  94:..\..\u8g2\csrc/u8x8_d_st7565.c ****   /* chip_disable_level = */ 1,
  95:..\..\u8g2\csrc/u8x8_d_st7565.c ****   
  96:..\..\u8g2\csrc/u8x8_d_st7565.c ****   /* post_chip_enable_wait_ns = */ 150,	/* st7565 datasheet, table 26, tcsh */
  97:..\..\u8g2\csrc/u8x8_d_st7565.c ****   /* pre_chip_disable_wait_ns = */ 50,	/* st7565 datasheet, table 26, tcss */
  98:..\..\u8g2\csrc/u8x8_d_st7565.c ****   /* reset_pulse_width_ms = */ 1, 
  99:..\..\u8g2\csrc/u8x8_d_st7565.c ****   /* post_reset_wait_ms = */ 1, 
 100:..\..\u8g2\csrc/u8x8_d_st7565.c ****   /* sda_setup_time_ns = */ 50,		/* st7565 datasheet, table 26, tsds */
 101:..\..\u8g2\csrc/u8x8_d_st7565.c ****   /* sck_pulse_width_ns = */ 120,	/* half of cycle time (100ns according to datasheet), AVR: below 
 102:..\..\u8g2\csrc/u8x8_d_st7565.c ****   /* sck_clock_hz = */ 4000000UL,	/* since Arduino 1.6.0, the SPI bus speed in Hz. Should be  10000
 103:..\..\u8g2\csrc/u8x8_d_st7565.c ****   /* spi_mode = */ 0,		/* active high, rising edge */
 104:..\..\u8g2\csrc/u8x8_d_st7565.c ****   /* i2c_bus_clock_100kHz = */ 4,
 105:..\..\u8g2\csrc/u8x8_d_st7565.c ****   /* data_setup_time_ns = */ 40,	/* st7565 datasheet, table 24, tds8 */
 106:..\..\u8g2\csrc/u8x8_d_st7565.c ****   /* write_pulse_width_ns = */ 80,	/* st7565 datasheet, table 24, tcclw */
 107:..\..\u8g2\csrc/u8x8_d_st7565.c ****   /* tile_width = */ 16,		/* width of 16*8=128 pixel */
 108:..\..\u8g2\csrc/u8x8_d_st7565.c ****   /* tile_hight = */ 8,
 109:..\..\u8g2\csrc/u8x8_d_st7565.c ****   /* default_x_offset = */ 0,
 110:..\..\u8g2\csrc/u8x8_d_st7565.c ****   /* flipmode_x_offset = */ 4,
 111:..\..\u8g2\csrc/u8x8_d_st7565.c ****   /* pixel_width = */ 128,
 112:..\..\u8g2\csrc/u8x8_d_st7565.c ****   /* pixel_height = */ 64
 113:..\..\u8g2\csrc/u8x8_d_st7565.c **** };
 114:..\..\u8g2\csrc/u8x8_d_st7565.c **** 
 115:..\..\u8g2\csrc/u8x8_d_st7565.c **** uint8_t u8x8_d_st7565_common(u8x8_t *u8x8, uint8_t msg, uint8_t arg_int, void *arg_ptr)
 116:..\..\u8g2\csrc/u8x8_d_st7565.c **** {
  28              		.loc 1 116 0
  29              		.cfi_startproc
  30              		@ args = 0, pretend = 0, frame = 0
  31              		@ frame_needed = 0, uses_anonymous_args = 0
  32              	.LVL0:
  33 0000 F0B5     		push	{r4, r5, r6, r7, lr}
  34              		.cfi_def_cfa_offset 20
  35              		.cfi_offset 4, -20
  36              		.cfi_offset 5, -16
  37              		.cfi_offset 6, -12
  38              		.cfi_offset 7, -8
  39              		.cfi_offset 14, -4
  40 0002 4746     		mov	r7, r8
  41 0004 80B4     		push	{r7}
  42              		.cfi_def_cfa_offset 24
  43              		.cfi_offset 8, -24
  44 0006 0500     		movs	r5, r0
  45 0008 1400     		movs	r4, r2
  46 000a 1F00     		movs	r7, r3
 117:..\..\u8g2\csrc/u8x8_d_st7565.c ****   uint8_t x, c;
 118:..\..\u8g2\csrc/u8x8_d_st7565.c ****   uint8_t *ptr;
 119:..\..\u8g2\csrc/u8x8_d_st7565.c ****   switch(msg)
  47              		.loc 1 119 0
  48 000c 0E29     		cmp	r1, #14
  49 000e 4AD0     		beq	.L3
  50 0010 0F29     		cmp	r1, #15
  51 0012 02D0     		beq	.L4
  52 0014 0B29     		cmp	r1, #11
ARM GAS  C:\Users\arh\AppData\Local\Temp\ccmCaonO.s 			page 4


  53 0016 55D1     		bne	.L10
  54 0018 38E0     		b	.L5
  55              	.L4:
 120:..\..\u8g2\csrc/u8x8_d_st7565.c ****   {
 121:..\..\u8g2\csrc/u8x8_d_st7565.c ****     case U8X8_MSG_DISPLAY_DRAW_TILE:
 122:..\..\u8g2\csrc/u8x8_d_st7565.c ****       u8x8_cad_StartTransfer(u8x8);
  56              		.loc 1 122 0
  57 001a FFF7FEFF 		bl	u8x8_cad_StartTransfer
  58              	.LVL1:
 123:..\..\u8g2\csrc/u8x8_d_st7565.c ****     
 124:..\..\u8g2\csrc/u8x8_d_st7565.c ****       x = ((u8x8_tile_t *)arg_ptr)->x_pos;
  59              		.loc 1 124 0
  60 001e 7B79     		ldrb	r3, [r7, #5]
  61              	.LVL2:
 125:..\..\u8g2\csrc/u8x8_d_st7565.c ****       x *= 8;
  62              		.loc 1 125 0
  63 0020 DB00     		lsls	r3, r3, #3
  64              	.LVL3:
  65 0022 DBB2     		uxtb	r3, r3
  66              	.LVL4:
 126:..\..\u8g2\csrc/u8x8_d_st7565.c ****       x += u8x8->x_offset;
  67              		.loc 1 126 0
  68 0024 AE7F     		ldrb	r6, [r5, #30]
  69 0026 9B19     		adds	r3, r3, r6
  70              	.LVL5:
  71 0028 DBB2     		uxtb	r3, r3
  72 002a 9846     		mov	r8, r3
  73              	.LVL6:
 127:..\..\u8g2\csrc/u8x8_d_st7565.c ****       u8x8_cad_SendCmd(u8x8, 0x010 | (x>>4) );
  74              		.loc 1 127 0
  75 002c 1909     		lsrs	r1, r3, #4
  76 002e 1023     		movs	r3, #16
  77              	.LVL7:
  78 0030 1943     		orrs	r1, r3
  79 0032 C9B2     		uxtb	r1, r1
  80 0034 2800     		movs	r0, r5
  81 0036 FFF7FEFF 		bl	u8x8_cad_SendCmd
  82              	.LVL8:
 128:..\..\u8g2\csrc/u8x8_d_st7565.c ****       u8x8_cad_SendCmd(u8x8, 0x000 | ((x&15)));
  83              		.loc 1 128 0
  84 003a 0F21     		movs	r1, #15
  85 003c 4346     		mov	r3, r8
  86 003e 1940     		ands	r1, r3
  87 0040 2800     		movs	r0, r5
  88 0042 FFF7FEFF 		bl	u8x8_cad_SendCmd
  89              	.LVL9:
 129:..\..\u8g2\csrc/u8x8_d_st7565.c ****       u8x8_cad_SendCmd(u8x8, 0x0b0 | (((u8x8_tile_t *)arg_ptr)->y_pos));
  90              		.loc 1 129 0
  91 0046 BB79     		ldrb	r3, [r7, #6]
  92 0048 5021     		movs	r1, #80
  93 004a 4942     		rsbs	r1, r1, #0
  94 004c 1943     		orrs	r1, r3
  95 004e C9B2     		uxtb	r1, r1
  96 0050 2800     		movs	r0, r5
  97 0052 FFF7FEFF 		bl	u8x8_cad_SendCmd
  98              	.LVL10:
 130:..\..\u8g2\csrc/u8x8_d_st7565.c ****     
ARM GAS  C:\Users\arh\AppData\Local\Temp\ccmCaonO.s 			page 5


 131:..\..\u8g2\csrc/u8x8_d_st7565.c ****       c = ((u8x8_tile_t *)arg_ptr)->cnt;
  99              		.loc 1 131 0
 100 0056 3E79     		ldrb	r6, [r7, #4]
 101              	.LVL11:
 132:..\..\u8g2\csrc/u8x8_d_st7565.c ****       c *= 8;
 102              		.loc 1 132 0
 103 0058 F600     		lsls	r6, r6, #3
 104              	.LVL12:
 105 005a F6B2     		uxtb	r6, r6
 106              	.LVL13:
 133:..\..\u8g2\csrc/u8x8_d_st7565.c ****       ptr = ((u8x8_tile_t *)arg_ptr)->tile_ptr;
 107              		.loc 1 133 0
 108 005c 3F68     		ldr	r7, [r7]
 109              	.LVL14:
 134:..\..\u8g2\csrc/u8x8_d_st7565.c ****       /* 
 135:..\..\u8g2\csrc/u8x8_d_st7565.c **** 	The following if condition checks the hardware limits of the st7565 
 136:..\..\u8g2\csrc/u8x8_d_st7565.c **** 	controller: It is not allowed to write beyond the display limits.
 137:..\..\u8g2\csrc/u8x8_d_st7565.c **** 	This is in fact an issue within flip mode.
 138:..\..\u8g2\csrc/u8x8_d_st7565.c ****       */
 139:..\..\u8g2\csrc/u8x8_d_st7565.c ****       if ( c + x > 132u )
 110              		.loc 1 139 0
 111 005e 4346     		mov	r3, r8
 112 0060 F318     		adds	r3, r6, r3
 113 0062 842B     		cmp	r3, #132
 114 0064 04D9     		bls	.L7
 115              	.LVL15:
 140:..\..\u8g2\csrc/u8x8_d_st7565.c ****       {
 141:..\..\u8g2\csrc/u8x8_d_st7565.c **** 	c = 132u;
 142:..\..\u8g2\csrc/u8x8_d_st7565.c **** 	c -= x;
 116              		.loc 1 142 0
 117 0066 7C26     		movs	r6, #124
 118 0068 7642     		rsbs	r6, r6, #0
 119 006a 4346     		mov	r3, r8
 120 006c F61A     		subs	r6, r6, r3
 121 006e F6B2     		uxtb	r6, r6
 122              	.LVL16:
 123              	.L7:
 143:..\..\u8g2\csrc/u8x8_d_st7565.c ****       }
 144:..\..\u8g2\csrc/u8x8_d_st7565.c ****       do
 145:..\..\u8g2\csrc/u8x8_d_st7565.c ****       {
 146:..\..\u8g2\csrc/u8x8_d_st7565.c **** 	u8x8_cad_SendData(u8x8, c, ptr);	/* note: SendData can not handle more than 255 bytes */
 124              		.loc 1 146 0 discriminator 1
 125 0070 3A00     		movs	r2, r7
 126 0072 3100     		movs	r1, r6
 127 0074 2800     		movs	r0, r5
 128 0076 FFF7FEFF 		bl	u8x8_cad_SendData
 129              	.LVL17:
 147:..\..\u8g2\csrc/u8x8_d_st7565.c **** 	arg_int--;
 130              		.loc 1 147 0 discriminator 1
 131 007a 013C     		subs	r4, r4, #1
 132              	.LVL18:
 133 007c E4B2     		uxtb	r4, r4
 134              	.LVL19:
 148:..\..\u8g2\csrc/u8x8_d_st7565.c ****       } while( arg_int > 0 );
 135              		.loc 1 148 0 discriminator 1
 136 007e 002C     		cmp	r4, #0
 137 0080 F6D1     		bne	.L7
ARM GAS  C:\Users\arh\AppData\Local\Temp\ccmCaonO.s 			page 6


 149:..\..\u8g2\csrc/u8x8_d_st7565.c ****       
 150:..\..\u8g2\csrc/u8x8_d_st7565.c ****       u8x8_cad_EndTransfer(u8x8);
 138              		.loc 1 150 0
 139 0082 2800     		movs	r0, r5
 140 0084 FFF7FEFF 		bl	u8x8_cad_EndTransfer
 141              	.LVL20:
 151:..\..\u8g2\csrc/u8x8_d_st7565.c ****       break;
 152:..\..\u8g2\csrc/u8x8_d_st7565.c ****     /*	handled in the calling procedure 
 153:..\..\u8g2\csrc/u8x8_d_st7565.c ****     case U8X8_MSG_DISPLAY_SETUP_MEMORY:
 154:..\..\u8g2\csrc/u8x8_d_st7565.c ****       u8x8_d_helper_display_setup_memory(u8x8, &u8x8_st7565_128x64_display_info);
 155:..\..\u8g2\csrc/u8x8_d_st7565.c ****       break;
 156:..\..\u8g2\csrc/u8x8_d_st7565.c ****     case U8X8_MSG_DISPLAY_INIT:
 157:..\..\u8g2\csrc/u8x8_d_st7565.c ****       u8x8_d_helper_display_init(u8x8);
 158:..\..\u8g2\csrc/u8x8_d_st7565.c ****       u8x8_cad_SendSequence(u8x8, u8x8_d_uc1701_dogs102_init_seq);
 159:..\..\u8g2\csrc/u8x8_d_st7565.c ****       break;
 160:..\..\u8g2\csrc/u8x8_d_st7565.c ****     */
 161:..\..\u8g2\csrc/u8x8_d_st7565.c ****     case U8X8_MSG_DISPLAY_SET_POWER_SAVE:
 162:..\..\u8g2\csrc/u8x8_d_st7565.c ****       if ( arg_int == 0 )
 163:..\..\u8g2\csrc/u8x8_d_st7565.c **** 	u8x8_cad_SendSequence(u8x8, u8x8_d_st7565_powersave0_seq);
 164:..\..\u8g2\csrc/u8x8_d_st7565.c ****       else
 165:..\..\u8g2\csrc/u8x8_d_st7565.c **** 	u8x8_cad_SendSequence(u8x8, u8x8_d_st7565_powersave1_seq);
 166:..\..\u8g2\csrc/u8x8_d_st7565.c ****       break;
 167:..\..\u8g2\csrc/u8x8_d_st7565.c **** #ifdef U8X8_WITH_SET_CONTRAST
 168:..\..\u8g2\csrc/u8x8_d_st7565.c ****     case U8X8_MSG_DISPLAY_SET_CONTRAST:
 169:..\..\u8g2\csrc/u8x8_d_st7565.c ****       u8x8_cad_StartTransfer(u8x8);
 170:..\..\u8g2\csrc/u8x8_d_st7565.c ****       u8x8_cad_SendCmd(u8x8, 0x081 );
 171:..\..\u8g2\csrc/u8x8_d_st7565.c ****       u8x8_cad_SendArg(u8x8, arg_int >> 2 );	/* st7565 has range from 0 to 63 */
 172:..\..\u8g2\csrc/u8x8_d_st7565.c ****       u8x8_cad_EndTransfer(u8x8);
 173:..\..\u8g2\csrc/u8x8_d_st7565.c ****       break;
 174:..\..\u8g2\csrc/u8x8_d_st7565.c **** #endif
 175:..\..\u8g2\csrc/u8x8_d_st7565.c ****     default:
 176:..\..\u8g2\csrc/u8x8_d_st7565.c ****       return 0;
 177:..\..\u8g2\csrc/u8x8_d_st7565.c ****   }
 178:..\..\u8g2\csrc/u8x8_d_st7565.c ****   return 1;
 142              		.loc 1 178 0
 143 0088 0120     		movs	r0, #1
 151:..\..\u8g2\csrc/u8x8_d_st7565.c ****       break;
 144              		.loc 1 151 0
 145 008a 1CE0     		b	.L2
 146              	.LVL21:
 147              	.L5:
 162:..\..\u8g2\csrc/u8x8_d_st7565.c **** 	u8x8_cad_SendSequence(u8x8, u8x8_d_st7565_powersave0_seq);
 148              		.loc 1 162 0
 149 008c 002A     		cmp	r2, #0
 150 008e 04D1     		bne	.L8
 163:..\..\u8g2\csrc/u8x8_d_st7565.c ****       else
 151              		.loc 1 163 0
 152 0090 0E49     		ldr	r1, .L11
 153              	.LVL22:
 154 0092 FFF7FEFF 		bl	u8x8_cad_SendSequence
 155              	.LVL23:
 156              		.loc 1 178 0
 157 0096 0120     		movs	r0, #1
 158 0098 15E0     		b	.L2
 159              	.LVL24:
 160              	.L8:
 165:..\..\u8g2\csrc/u8x8_d_st7565.c ****       break;
ARM GAS  C:\Users\arh\AppData\Local\Temp\ccmCaonO.s 			page 7


 161              		.loc 1 165 0
 162 009a 0C49     		ldr	r1, .L11
 163              	.LVL25:
 164 009c 0831     		adds	r1, r1, #8
 165 009e FFF7FEFF 		bl	u8x8_cad_SendSequence
 166              	.LVL26:
 167              		.loc 1 178 0
 168 00a2 0120     		movs	r0, #1
 169 00a4 0FE0     		b	.L2
 170              	.LVL27:
 171              	.L3:
 169:..\..\u8g2\csrc/u8x8_d_st7565.c ****       u8x8_cad_SendCmd(u8x8, 0x081 );
 172              		.loc 1 169 0
 173 00a6 FFF7FEFF 		bl	u8x8_cad_StartTransfer
 174              	.LVL28:
 170:..\..\u8g2\csrc/u8x8_d_st7565.c ****       u8x8_cad_SendArg(u8x8, arg_int >> 2 );	/* st7565 has range from 0 to 63 */
 175              		.loc 1 170 0
 176 00aa 8121     		movs	r1, #129
 177 00ac 2800     		movs	r0, r5
 178 00ae FFF7FEFF 		bl	u8x8_cad_SendCmd
 179              	.LVL29:
 171:..\..\u8g2\csrc/u8x8_d_st7565.c ****       u8x8_cad_EndTransfer(u8x8);
 180              		.loc 1 171 0
 181 00b2 A108     		lsrs	r1, r4, #2
 182 00b4 2800     		movs	r0, r5
 183 00b6 FFF7FEFF 		bl	u8x8_cad_SendArg
 184              	.LVL30:
 172:..\..\u8g2\csrc/u8x8_d_st7565.c ****       break;
 185              		.loc 1 172 0
 186 00ba 2800     		movs	r0, r5
 187 00bc FFF7FEFF 		bl	u8x8_cad_EndTransfer
 188              	.LVL31:
 189              		.loc 1 178 0
 190 00c0 0120     		movs	r0, #1
 173:..\..\u8g2\csrc/u8x8_d_st7565.c **** #endif
 191              		.loc 1 173 0
 192 00c2 00E0     		b	.L2
 193              	.LVL32:
 194              	.L10:
 176:..\..\u8g2\csrc/u8x8_d_st7565.c ****   }
 195              		.loc 1 176 0
 196 00c4 0020     		movs	r0, #0
 197              	.LVL33:
 198              	.L2:
 179:..\..\u8g2\csrc/u8x8_d_st7565.c **** }
 199              		.loc 1 179 0
 200              		@ sp needed
 201              	.LVL34:
 202 00c6 04BC     		pop	{r2}
 203 00c8 9046     		mov	r8, r2
 204 00ca F0BD     		pop	{r4, r5, r6, r7, pc}
 205              	.L12:
 206              		.align	2
 207              	.L11:
 208 00cc 00000000 		.word	.LANCHOR0
 209              		.cfi_endproc
 210              	.LFE0:
ARM GAS  C:\Users\arh\AppData\Local\Temp\ccmCaonO.s 			page 8


 211              		.size	u8x8_d_st7565_common, .-u8x8_d_st7565_common
 212              		.section	.text.u8x8_d_st7565_ea_dogm128,"ax",%progbits
 213              		.align	2
 214              		.global	u8x8_d_st7565_ea_dogm128
 215              		.code	16
 216              		.thumb_func
 217              		.type	u8x8_d_st7565_ea_dogm128, %function
 218              	u8x8_d_st7565_ea_dogm128:
 219              	.LFB1:
 180:..\..\u8g2\csrc/u8x8_d_st7565.c **** 
 181:..\..\u8g2\csrc/u8x8_d_st7565.c **** /*================================================*/
 182:..\..\u8g2\csrc/u8x8_d_st7565.c **** /* DOGM128 */
 183:..\..\u8g2\csrc/u8x8_d_st7565.c **** 
 184:..\..\u8g2\csrc/u8x8_d_st7565.c **** static const uint8_t u8x8_d_st7565_dogm128_init_seq[] = {
 185:..\..\u8g2\csrc/u8x8_d_st7565.c ****     
 186:..\..\u8g2\csrc/u8x8_d_st7565.c ****   U8X8_START_TRANSFER(),             	/* enable chip, delay is part of the transfer start */
 187:..\..\u8g2\csrc/u8x8_d_st7565.c ****   
 188:..\..\u8g2\csrc/u8x8_d_st7565.c ****   U8X8_C(0x0e2),            			/* soft reset */
 189:..\..\u8g2\csrc/u8x8_d_st7565.c ****   U8X8_C(0x0ae),		                /* display off */
 190:..\..\u8g2\csrc/u8x8_d_st7565.c ****   U8X8_C(0x040),		                /* set display start line to 0 */
 191:..\..\u8g2\csrc/u8x8_d_st7565.c ****   
 192:..\..\u8g2\csrc/u8x8_d_st7565.c ****   U8X8_C(0x0a1),		                /* ADC set to reverse */
 193:..\..\u8g2\csrc/u8x8_d_st7565.c ****   U8X8_C(0x0c0),		                /* common output mode */
 194:..\..\u8g2\csrc/u8x8_d_st7565.c ****   // Flipmode
 195:..\..\u8g2\csrc/u8x8_d_st7565.c ****   // U8X8_C(0x0a0),		                /* ADC set to reverse */
 196:..\..\u8g2\csrc/u8x8_d_st7565.c ****   // U8X8_C(0x0c8),		                /* common output mode */
 197:..\..\u8g2\csrc/u8x8_d_st7565.c ****   
 198:..\..\u8g2\csrc/u8x8_d_st7565.c ****   U8X8_C(0x0a6),		                /* display normal, bit val 0: LCD pixel off. */
 199:..\..\u8g2\csrc/u8x8_d_st7565.c ****   U8X8_C(0x0a2),		                /* LCD bias 1/9 */
 200:..\..\u8g2\csrc/u8x8_d_st7565.c ****   U8X8_C(0x02f),		                /* all power  control circuits on */
 201:..\..\u8g2\csrc/u8x8_d_st7565.c ****   U8X8_CA(0x0f8, 0x000),		/* set booster ratio to 4x */
 202:..\..\u8g2\csrc/u8x8_d_st7565.c ****   U8X8_C(0x027),		                /* regulator, booster and follower */
 203:..\..\u8g2\csrc/u8x8_d_st7565.c ****   U8X8_CA(0x081, 0x018),		/* set contrast, contrast value, EA default: 0x016 */
 204:..\..\u8g2\csrc/u8x8_d_st7565.c ****   
 205:..\..\u8g2\csrc/u8x8_d_st7565.c ****   U8X8_C(0x0ae),		                /* display off */
 206:..\..\u8g2\csrc/u8x8_d_st7565.c ****   U8X8_C(0x0a5),		                /* enter powersafe: all pixel on, issue 142 */
 207:..\..\u8g2\csrc/u8x8_d_st7565.c ****   
 208:..\..\u8g2\csrc/u8x8_d_st7565.c ****   U8X8_END_TRANSFER(),             	/* disable chip */
 209:..\..\u8g2\csrc/u8x8_d_st7565.c ****   U8X8_END()             			/* end of sequence */
 210:..\..\u8g2\csrc/u8x8_d_st7565.c **** };
 211:..\..\u8g2\csrc/u8x8_d_st7565.c **** 
 212:..\..\u8g2\csrc/u8x8_d_st7565.c **** uint8_t u8x8_d_st7565_ea_dogm128(u8x8_t *u8x8, uint8_t msg, uint8_t arg_int, void *arg_ptr)
 213:..\..\u8g2\csrc/u8x8_d_st7565.c **** {
 220              		.loc 1 213 0
 221              		.cfi_startproc
 222              		@ args = 0, pretend = 0, frame = 0
 223              		@ frame_needed = 0, uses_anonymous_args = 0
 224              	.LVL35:
 225 0000 70B5     		push	{r4, r5, r6, lr}
 226              		.cfi_def_cfa_offset 16
 227              		.cfi_offset 4, -16
 228              		.cfi_offset 5, -12
 229              		.cfi_offset 6, -8
 230              		.cfi_offset 14, -4
 231 0002 0500     		movs	r5, r0
 232 0004 0C00     		movs	r4, r1
 233 0006 1600     		movs	r6, r2
ARM GAS  C:\Users\arh\AppData\Local\Temp\ccmCaonO.s 			page 9


 214:..\..\u8g2\csrc/u8x8_d_st7565.c ****   /* call common procedure first and handle messages there */
 215:..\..\u8g2\csrc/u8x8_d_st7565.c ****   if ( u8x8_d_st7565_common(u8x8, msg, arg_int, arg_ptr) == 0 )
 234              		.loc 1 215 0
 235 0008 FFF7FEFF 		bl	u8x8_d_st7565_common
 236              	.LVL36:
 237 000c 0028     		cmp	r0, #0
 238 000e 2CD1     		bne	.L19
 216:..\..\u8g2\csrc/u8x8_d_st7565.c ****   {
 217:..\..\u8g2\csrc/u8x8_d_st7565.c ****     /* msg not handled, then try here */
 218:..\..\u8g2\csrc/u8x8_d_st7565.c ****     switch(msg)
 239              		.loc 1 218 0
 240 0010 0A2C     		cmp	r4, #10
 241 0012 0AD0     		beq	.L15
 242 0014 0D2C     		cmp	r4, #13
 243 0016 12D0     		beq	.L16
 244 0018 092C     		cmp	r4, #9
 245 001a 27D1     		bne	.L14
 219:..\..\u8g2\csrc/u8x8_d_st7565.c ****     {
 220:..\..\u8g2\csrc/u8x8_d_st7565.c ****       case U8X8_MSG_DISPLAY_SETUP_MEMORY:
 221:..\..\u8g2\csrc/u8x8_d_st7565.c **** 	u8x8_d_helper_display_setup_memory(u8x8, &u8x8_st7565_128x64_display_info);
 246              		.loc 1 221 0
 247 001c 1449     		ldr	r1, .L20
 248 001e 1031     		adds	r1, r1, #16
 249 0020 2800     		movs	r0, r5
 250 0022 FFF7FEFF 		bl	u8x8_d_helper_display_setup_memory
 251              	.LVL37:
 222:..\..\u8g2\csrc/u8x8_d_st7565.c **** 	break;
 223:..\..\u8g2\csrc/u8x8_d_st7565.c ****       case U8X8_MSG_DISPLAY_INIT:
 224:..\..\u8g2\csrc/u8x8_d_st7565.c **** 	u8x8_d_helper_display_init(u8x8);
 225:..\..\u8g2\csrc/u8x8_d_st7565.c **** 	u8x8_cad_SendSequence(u8x8, u8x8_d_st7565_dogm128_init_seq);
 226:..\..\u8g2\csrc/u8x8_d_st7565.c **** 	break;
 227:..\..\u8g2\csrc/u8x8_d_st7565.c ****       case U8X8_MSG_DISPLAY_SET_FLIP_MODE:
 228:..\..\u8g2\csrc/u8x8_d_st7565.c **** 	if ( arg_int == 0 )
 229:..\..\u8g2\csrc/u8x8_d_st7565.c **** 	{
 230:..\..\u8g2\csrc/u8x8_d_st7565.c **** 	  u8x8_cad_SendSequence(u8x8, u8x8_d_st7565_flip0_seq);
 231:..\..\u8g2\csrc/u8x8_d_st7565.c **** 	  u8x8->x_offset = u8x8->display_info->default_x_offset;
 232:..\..\u8g2\csrc/u8x8_d_st7565.c **** 	}
 233:..\..\u8g2\csrc/u8x8_d_st7565.c **** 	else
 234:..\..\u8g2\csrc/u8x8_d_st7565.c **** 	{
 235:..\..\u8g2\csrc/u8x8_d_st7565.c **** 	  u8x8_cad_SendSequence(u8x8, u8x8_d_st7565_flip1_seq);
 236:..\..\u8g2\csrc/u8x8_d_st7565.c **** 	  u8x8->x_offset = u8x8->display_info->flipmode_x_offset;
 237:..\..\u8g2\csrc/u8x8_d_st7565.c **** 	}	
 238:..\..\u8g2\csrc/u8x8_d_st7565.c **** 	break;
 239:..\..\u8g2\csrc/u8x8_d_st7565.c ****       default:
 240:..\..\u8g2\csrc/u8x8_d_st7565.c **** 	return 0;		/* msg unknown */
 241:..\..\u8g2\csrc/u8x8_d_st7565.c ****     }
 242:..\..\u8g2\csrc/u8x8_d_st7565.c ****   }
 243:..\..\u8g2\csrc/u8x8_d_st7565.c ****   return 1;
 252              		.loc 1 243 0
 253 0026 0120     		movs	r0, #1
 222:..\..\u8g2\csrc/u8x8_d_st7565.c **** 	break;
 254              		.loc 1 222 0
 255 0028 20E0     		b	.L14
 256              	.L15:
 224:..\..\u8g2\csrc/u8x8_d_st7565.c **** 	u8x8_cad_SendSequence(u8x8, u8x8_d_st7565_dogm128_init_seq);
 257              		.loc 1 224 0
 258 002a 2800     		movs	r0, r5
ARM GAS  C:\Users\arh\AppData\Local\Temp\ccmCaonO.s 			page 10


 259 002c FFF7FEFF 		bl	u8x8_d_helper_display_init
 260              	.LVL38:
 225:..\..\u8g2\csrc/u8x8_d_st7565.c **** 	break;
 261              		.loc 1 225 0
 262 0030 0F49     		ldr	r1, .L20
 263 0032 2831     		adds	r1, r1, #40
 264 0034 2800     		movs	r0, r5
 265 0036 FFF7FEFF 		bl	u8x8_cad_SendSequence
 266              	.LVL39:
 267              		.loc 1 243 0
 268 003a 0120     		movs	r0, #1
 226:..\..\u8g2\csrc/u8x8_d_st7565.c ****       case U8X8_MSG_DISPLAY_SET_FLIP_MODE:
 269              		.loc 1 226 0
 270 003c 16E0     		b	.L14
 271              	.L16:
 228:..\..\u8g2\csrc/u8x8_d_st7565.c **** 	{
 272              		.loc 1 228 0
 273 003e 002E     		cmp	r6, #0
 274 0040 09D1     		bne	.L18
 230:..\..\u8g2\csrc/u8x8_d_st7565.c **** 	  u8x8->x_offset = u8x8->display_info->default_x_offset;
 275              		.loc 1 230 0
 276 0042 0B49     		ldr	r1, .L20
 277 0044 4C31     		adds	r1, r1, #76
 278 0046 2800     		movs	r0, r5
 279 0048 FFF7FEFF 		bl	u8x8_cad_SendSequence
 280              	.LVL40:
 231:..\..\u8g2\csrc/u8x8_d_st7565.c **** 	}
 281              		.loc 1 231 0
 282 004c 2B68     		ldr	r3, [r5]
 283 004e 9B7C     		ldrb	r3, [r3, #18]
 284 0050 AB77     		strb	r3, [r5, #30]
 285              		.loc 1 243 0
 286 0052 0120     		movs	r0, #1
 287 0054 0AE0     		b	.L14
 288              	.L18:
 235:..\..\u8g2\csrc/u8x8_d_st7565.c **** 	  u8x8->x_offset = u8x8->display_info->flipmode_x_offset;
 289              		.loc 1 235 0
 290 0056 0649     		ldr	r1, .L20
 291 0058 5431     		adds	r1, r1, #84
 292 005a 2800     		movs	r0, r5
 293 005c FFF7FEFF 		bl	u8x8_cad_SendSequence
 294              	.LVL41:
 236:..\..\u8g2\csrc/u8x8_d_st7565.c **** 	}	
 295              		.loc 1 236 0
 296 0060 2B68     		ldr	r3, [r5]
 297 0062 DB7C     		ldrb	r3, [r3, #19]
 298 0064 AB77     		strb	r3, [r5, #30]
 299              		.loc 1 243 0
 300 0066 0120     		movs	r0, #1
 301 0068 00E0     		b	.L14
 302              	.L19:
 303 006a 0120     		movs	r0, #1
 304              	.L14:
 244:..\..\u8g2\csrc/u8x8_d_st7565.c **** }
 305              		.loc 1 244 0
 306              		@ sp needed
 307              	.LVL42:
ARM GAS  C:\Users\arh\AppData\Local\Temp\ccmCaonO.s 			page 11


 308 006c 70BD     		pop	{r4, r5, r6, pc}
 309              	.L21:
 310 006e C046     		.align	2
 311              	.L20:
 312 0070 00000000 		.word	.LANCHOR0
 313              		.cfi_endproc
 314              	.LFE1:
 315              		.size	u8x8_d_st7565_ea_dogm128, .-u8x8_d_st7565_ea_dogm128
 316              		.section	.text.u8x8_d_st7565_zolen_128x64,"ax",%progbits
 317              		.align	2
 318              		.global	u8x8_d_st7565_zolen_128x64
 319              		.code	16
 320              		.thumb_func
 321              		.type	u8x8_d_st7565_zolen_128x64, %function
 322              	u8x8_d_st7565_zolen_128x64:
 323              	.LFB2:
 245:..\..\u8g2\csrc/u8x8_d_st7565.c **** 
 246:..\..\u8g2\csrc/u8x8_d_st7565.c **** /*================================================*/
 247:..\..\u8g2\csrc/u8x8_d_st7565.c **** /* ZOLEN 128x64  */
 248:..\..\u8g2\csrc/u8x8_d_st7565.c **** 
 249:..\..\u8g2\csrc/u8x8_d_st7565.c **** static const uint8_t u8x8_d_st7565_zolen_128x64_init_seq[] = {
 250:..\..\u8g2\csrc/u8x8_d_st7565.c ****     
 251:..\..\u8g2\csrc/u8x8_d_st7565.c ****   U8X8_START_TRANSFER(),             	/* enable chip, delay is part of the transfer start */
 252:..\..\u8g2\csrc/u8x8_d_st7565.c ****   
 253:..\..\u8g2\csrc/u8x8_d_st7565.c ****   U8X8_C(0x0e2),            			/* soft reset */
 254:..\..\u8g2\csrc/u8x8_d_st7565.c ****   U8X8_C(0x0ae),		                /* display off */
 255:..\..\u8g2\csrc/u8x8_d_st7565.c ****   U8X8_C(0x040),		                /* set display start line to 0 */
 256:..\..\u8g2\csrc/u8x8_d_st7565.c ****   
 257:..\..\u8g2\csrc/u8x8_d_st7565.c ****   U8X8_C(0x0a1),		                /* ADC set to reverse */
 258:..\..\u8g2\csrc/u8x8_d_st7565.c ****   U8X8_C(0x0c8),		                /* common output mode */
 259:..\..\u8g2\csrc/u8x8_d_st7565.c ****   // Flipmode
 260:..\..\u8g2\csrc/u8x8_d_st7565.c ****   // U8X8_C(0x0a0),		                /* ADC set to reverse */
 261:..\..\u8g2\csrc/u8x8_d_st7565.c ****   // U8X8_C(0x0c0),		                /* common output mode */
 262:..\..\u8g2\csrc/u8x8_d_st7565.c ****   
 263:..\..\u8g2\csrc/u8x8_d_st7565.c ****   U8X8_C(0x0a6),		                /* display normal, bit val 0: LCD pixel off. */
 264:..\..\u8g2\csrc/u8x8_d_st7565.c ****   U8X8_C(0x0a2),		                /* LCD bias 1/9 */
 265:..\..\u8g2\csrc/u8x8_d_st7565.c ****   U8X8_C(0x02f),		                /* all power  control circuits on */
 266:..\..\u8g2\csrc/u8x8_d_st7565.c ****   U8X8_CA(0x0f8, 0x000),		/* set booster ratio to 4x */
 267:..\..\u8g2\csrc/u8x8_d_st7565.c ****   U8X8_C(0x027),		                /* regulator, booster and follower */
 268:..\..\u8g2\csrc/u8x8_d_st7565.c ****   U8X8_CA(0x081, 0x007),		/* set contrast, contrast value, EA default: 0x016 */
 269:..\..\u8g2\csrc/u8x8_d_st7565.c ****   
 270:..\..\u8g2\csrc/u8x8_d_st7565.c ****   U8X8_C(0x0ae),		                /* display off */
 271:..\..\u8g2\csrc/u8x8_d_st7565.c ****   U8X8_C(0x0a5),		                /* enter powersafe: all pixel on, issue 142 */
 272:..\..\u8g2\csrc/u8x8_d_st7565.c ****   
 273:..\..\u8g2\csrc/u8x8_d_st7565.c ****   U8X8_END_TRANSFER(),             	/* disable chip */
 274:..\..\u8g2\csrc/u8x8_d_st7565.c ****   U8X8_END()             			/* end of sequence */
 275:..\..\u8g2\csrc/u8x8_d_st7565.c **** };
 276:..\..\u8g2\csrc/u8x8_d_st7565.c **** 
 277:..\..\u8g2\csrc/u8x8_d_st7565.c **** uint8_t u8x8_d_st7565_zolen_128x64(u8x8_t *u8x8, uint8_t msg, uint8_t arg_int, void *arg_ptr)
 278:..\..\u8g2\csrc/u8x8_d_st7565.c **** {
 324              		.loc 1 278 0
 325              		.cfi_startproc
 326              		@ args = 0, pretend = 0, frame = 0
 327              		@ frame_needed = 0, uses_anonymous_args = 0
 328              	.LVL43:
 329 0000 70B5     		push	{r4, r5, r6, lr}
 330              		.cfi_def_cfa_offset 16
ARM GAS  C:\Users\arh\AppData\Local\Temp\ccmCaonO.s 			page 12


 331              		.cfi_offset 4, -16
 332              		.cfi_offset 5, -12
 333              		.cfi_offset 6, -8
 334              		.cfi_offset 14, -4
 335 0002 0500     		movs	r5, r0
 336 0004 0C00     		movs	r4, r1
 337 0006 1600     		movs	r6, r2
 279:..\..\u8g2\csrc/u8x8_d_st7565.c ****   /* call common procedure first and handle messages there */
 280:..\..\u8g2\csrc/u8x8_d_st7565.c ****   if ( u8x8_d_st7565_common(u8x8, msg, arg_int, arg_ptr) == 0 )
 338              		.loc 1 280 0
 339 0008 FFF7FEFF 		bl	u8x8_d_st7565_common
 340              	.LVL44:
 341 000c 0028     		cmp	r0, #0
 342 000e 2BD1     		bne	.L28
 281:..\..\u8g2\csrc/u8x8_d_st7565.c ****   {
 282:..\..\u8g2\csrc/u8x8_d_st7565.c ****     /* msg not handled, then try here */
 283:..\..\u8g2\csrc/u8x8_d_st7565.c ****     switch(msg)
 343              		.loc 1 283 0
 344 0010 0A2C     		cmp	r4, #10
 345 0012 0AD0     		beq	.L24
 346 0014 0D2C     		cmp	r4, #13
 347 0016 12D0     		beq	.L25
 348 0018 092C     		cmp	r4, #9
 349 001a 26D1     		bne	.L23
 284:..\..\u8g2\csrc/u8x8_d_st7565.c ****     {
 285:..\..\u8g2\csrc/u8x8_d_st7565.c ****       case U8X8_MSG_DISPLAY_SETUP_MEMORY:
 286:..\..\u8g2\csrc/u8x8_d_st7565.c **** 	u8x8_d_helper_display_setup_memory(u8x8, &u8x8_st7565_128x64_display_info);
 350              		.loc 1 286 0
 351 001c 1349     		ldr	r1, .L29
 352 001e 1031     		adds	r1, r1, #16
 353 0020 2800     		movs	r0, r5
 354 0022 FFF7FEFF 		bl	u8x8_d_helper_display_setup_memory
 355              	.LVL45:
 287:..\..\u8g2\csrc/u8x8_d_st7565.c **** 	break;
 288:..\..\u8g2\csrc/u8x8_d_st7565.c ****       case U8X8_MSG_DISPLAY_INIT:
 289:..\..\u8g2\csrc/u8x8_d_st7565.c **** 	u8x8_d_helper_display_init(u8x8);
 290:..\..\u8g2\csrc/u8x8_d_st7565.c **** 	u8x8_cad_SendSequence(u8x8, u8x8_d_st7565_zolen_128x64_init_seq);
 291:..\..\u8g2\csrc/u8x8_d_st7565.c **** 	break;
 292:..\..\u8g2\csrc/u8x8_d_st7565.c ****       case U8X8_MSG_DISPLAY_SET_FLIP_MODE:
 293:..\..\u8g2\csrc/u8x8_d_st7565.c **** 	if ( arg_int == 0 )
 294:..\..\u8g2\csrc/u8x8_d_st7565.c **** 	{
 295:..\..\u8g2\csrc/u8x8_d_st7565.c **** 	  u8x8_cad_SendSequence(u8x8, u8x8_d_st7565_zflip0_seq);
 296:..\..\u8g2\csrc/u8x8_d_st7565.c **** 	  u8x8->x_offset = u8x8->display_info->default_x_offset;
 297:..\..\u8g2\csrc/u8x8_d_st7565.c **** 	}
 298:..\..\u8g2\csrc/u8x8_d_st7565.c **** 	else
 299:..\..\u8g2\csrc/u8x8_d_st7565.c **** 	{
 300:..\..\u8g2\csrc/u8x8_d_st7565.c **** 	  u8x8_cad_SendSequence(u8x8, u8x8_d_st7565_zflip1_seq);
 301:..\..\u8g2\csrc/u8x8_d_st7565.c **** 	  u8x8->x_offset = u8x8->display_info->flipmode_x_offset;
 302:..\..\u8g2\csrc/u8x8_d_st7565.c **** 	}	
 303:..\..\u8g2\csrc/u8x8_d_st7565.c **** 	break;
 304:..\..\u8g2\csrc/u8x8_d_st7565.c ****       default:
 305:..\..\u8g2\csrc/u8x8_d_st7565.c **** 	return 0;		/* msg unknown */
 306:..\..\u8g2\csrc/u8x8_d_st7565.c ****     }
 307:..\..\u8g2\csrc/u8x8_d_st7565.c ****   }
 308:..\..\u8g2\csrc/u8x8_d_st7565.c ****   return 1;
 356              		.loc 1 308 0
 357 0026 0120     		movs	r0, #1
ARM GAS  C:\Users\arh\AppData\Local\Temp\ccmCaonO.s 			page 13


 287:..\..\u8g2\csrc/u8x8_d_st7565.c **** 	break;
 358              		.loc 1 287 0
 359 0028 1FE0     		b	.L23
 360              	.L24:
 289:..\..\u8g2\csrc/u8x8_d_st7565.c **** 	u8x8_cad_SendSequence(u8x8, u8x8_d_st7565_zolen_128x64_init_seq);
 361              		.loc 1 289 0
 362 002a 2800     		movs	r0, r5
 363 002c FFF7FEFF 		bl	u8x8_d_helper_display_init
 364              	.LVL46:
 290:..\..\u8g2\csrc/u8x8_d_st7565.c **** 	break;
 365              		.loc 1 290 0
 366 0030 0E49     		ldr	r1, .L29
 367 0032 5C31     		adds	r1, r1, #92
 368 0034 2800     		movs	r0, r5
 369 0036 FFF7FEFF 		bl	u8x8_cad_SendSequence
 370              	.LVL47:
 371              		.loc 1 308 0
 372 003a 0120     		movs	r0, #1
 291:..\..\u8g2\csrc/u8x8_d_st7565.c ****       case U8X8_MSG_DISPLAY_SET_FLIP_MODE:
 373              		.loc 1 291 0
 374 003c 15E0     		b	.L23
 375              	.L25:
 293:..\..\u8g2\csrc/u8x8_d_st7565.c **** 	{
 376              		.loc 1 293 0
 377 003e 002E     		cmp	r6, #0
 378 0040 08D1     		bne	.L27
 295:..\..\u8g2\csrc/u8x8_d_st7565.c **** 	  u8x8->x_offset = u8x8->display_info->default_x_offset;
 379              		.loc 1 295 0
 380 0042 0B49     		ldr	r1, .L29+4
 381 0044 2800     		movs	r0, r5
 382 0046 FFF7FEFF 		bl	u8x8_cad_SendSequence
 383              	.LVL48:
 296:..\..\u8g2\csrc/u8x8_d_st7565.c **** 	}
 384              		.loc 1 296 0
 385 004a 2B68     		ldr	r3, [r5]
 386 004c 9B7C     		ldrb	r3, [r3, #18]
 387 004e AB77     		strb	r3, [r5, #30]
 388              		.loc 1 308 0
 389 0050 0120     		movs	r0, #1
 390 0052 0AE0     		b	.L23
 391              	.L27:
 300:..\..\u8g2\csrc/u8x8_d_st7565.c **** 	  u8x8->x_offset = u8x8->display_info->flipmode_x_offset;
 392              		.loc 1 300 0
 393 0054 0649     		ldr	r1, .L29+4
 394 0056 0831     		adds	r1, r1, #8
 395 0058 2800     		movs	r0, r5
 396 005a FFF7FEFF 		bl	u8x8_cad_SendSequence
 397              	.LVL49:
 301:..\..\u8g2\csrc/u8x8_d_st7565.c **** 	}	
 398              		.loc 1 301 0
 399 005e 2B68     		ldr	r3, [r5]
 400 0060 DB7C     		ldrb	r3, [r3, #19]
 401 0062 AB77     		strb	r3, [r5, #30]
 402              		.loc 1 308 0
 403 0064 0120     		movs	r0, #1
 404 0066 00E0     		b	.L23
 405              	.L28:
ARM GAS  C:\Users\arh\AppData\Local\Temp\ccmCaonO.s 			page 14


 406 0068 0120     		movs	r0, #1
 407              	.L23:
 309:..\..\u8g2\csrc/u8x8_d_st7565.c **** }
 408              		.loc 1 309 0
 409              		@ sp needed
 410              	.LVL50:
 411 006a 70BD     		pop	{r4, r5, r6, pc}
 412              	.L30:
 413              		.align	2
 414              	.L29:
 415 006c 00000000 		.word	.LANCHOR0
 416 0070 80000000 		.word	.LANCHOR1
 417              		.cfi_endproc
 418              	.LFE2:
 419              		.size	u8x8_d_st7565_zolen_128x64, .-u8x8_d_st7565_zolen_128x64
 420              		.section	.text.u8x8_d_st7565_nhd_c12832,"ax",%progbits
 421              		.align	2
 422              		.global	u8x8_d_st7565_nhd_c12832
 423              		.code	16
 424              		.thumb_func
 425              		.type	u8x8_d_st7565_nhd_c12832, %function
 426              	u8x8_d_st7565_nhd_c12832:
 427              	.LFB3:
 310:..\..\u8g2\csrc/u8x8_d_st7565.c **** 
 311:..\..\u8g2\csrc/u8x8_d_st7565.c **** 
 312:..\..\u8g2\csrc/u8x8_d_st7565.c **** 
 313:..\..\u8g2\csrc/u8x8_d_st7565.c **** /*================================================*/
 314:..\..\u8g2\csrc/u8x8_d_st7565.c **** /* NHD-C12832 */
 315:..\..\u8g2\csrc/u8x8_d_st7565.c **** 
 316:..\..\u8g2\csrc/u8x8_d_st7565.c **** static const u8x8_display_info_t u8x8_st7565_128x32_display_info =
 317:..\..\u8g2\csrc/u8x8_d_st7565.c **** {
 318:..\..\u8g2\csrc/u8x8_d_st7565.c ****   /* chip_enable_level = */ 0,
 319:..\..\u8g2\csrc/u8x8_d_st7565.c ****   /* chip_disable_level = */ 1,
 320:..\..\u8g2\csrc/u8x8_d_st7565.c ****   
 321:..\..\u8g2\csrc/u8x8_d_st7565.c ****   /* post_chip_enable_wait_ns = */ 150,	/* st7565 datasheet, table 26, tcsh */
 322:..\..\u8g2\csrc/u8x8_d_st7565.c ****   /* pre_chip_disable_wait_ns = */ 50,	/* st7565 datasheet, table 26, tcss */
 323:..\..\u8g2\csrc/u8x8_d_st7565.c ****   /* reset_pulse_width_ms = */ 1, 
 324:..\..\u8g2\csrc/u8x8_d_st7565.c ****   /* post_reset_wait_ms = */ 1, 
 325:..\..\u8g2\csrc/u8x8_d_st7565.c ****   /* sda_setup_time_ns = */ 50,		/* st7565 datasheet, table 26, tsds */
 326:..\..\u8g2\csrc/u8x8_d_st7565.c ****   /* sck_pulse_width_ns = */ 120,	/* half of cycle time (100ns according to datasheet), AVR: below 
 327:..\..\u8g2\csrc/u8x8_d_st7565.c ****   /* sck_clock_hz = */ 4000000UL,	/* since Arduino 1.6.0, the SPI bus speed in Hz. Should be  10000
 328:..\..\u8g2\csrc/u8x8_d_st7565.c ****   /* spi_mode = */ 0,		/* active high, rising edge */
 329:..\..\u8g2\csrc/u8x8_d_st7565.c ****   /* i2c_bus_clock_100kHz = */ 4,
 330:..\..\u8g2\csrc/u8x8_d_st7565.c ****   /* data_setup_time_ns = */ 40,	/* st7565 datasheet, table 24, tds8 */
 331:..\..\u8g2\csrc/u8x8_d_st7565.c ****   /* write_pulse_width_ns = */ 80,	/* st7565 datasheet, table 24, tcclw */
 332:..\..\u8g2\csrc/u8x8_d_st7565.c ****   /* tile_width = */ 16,		/* width of 16*8=128 pixel */
 333:..\..\u8g2\csrc/u8x8_d_st7565.c ****   /* tile_hight = */ 4,
 334:..\..\u8g2\csrc/u8x8_d_st7565.c ****   /* default_x_offset = */ 4,
 335:..\..\u8g2\csrc/u8x8_d_st7565.c ****   /* flipmode_x_offset = */ 0,
 336:..\..\u8g2\csrc/u8x8_d_st7565.c ****   /* pixel_width = */ 128,
 337:..\..\u8g2\csrc/u8x8_d_st7565.c ****   /* pixel_height = */ 32
 338:..\..\u8g2\csrc/u8x8_d_st7565.c **** };
 339:..\..\u8g2\csrc/u8x8_d_st7565.c **** 
 340:..\..\u8g2\csrc/u8x8_d_st7565.c **** 
 341:..\..\u8g2\csrc/u8x8_d_st7565.c **** static const uint8_t u8x8_d_st7565_nhd_c12832_init_seq[] = {
 342:..\..\u8g2\csrc/u8x8_d_st7565.c ****     
 343:..\..\u8g2\csrc/u8x8_d_st7565.c ****   U8X8_START_TRANSFER(),             	/* enable chip, delay is part of the transfer start */
ARM GAS  C:\Users\arh\AppData\Local\Temp\ccmCaonO.s 			page 15


 344:..\..\u8g2\csrc/u8x8_d_st7565.c ****   
 345:..\..\u8g2\csrc/u8x8_d_st7565.c ****   U8X8_C(0x0e2),            			/* soft reset */
 346:..\..\u8g2\csrc/u8x8_d_st7565.c ****   U8X8_C(0x0ae),		                /* display off */
 347:..\..\u8g2\csrc/u8x8_d_st7565.c ****   U8X8_C(0x040),		                /* set display start line to 0 */
 348:..\..\u8g2\csrc/u8x8_d_st7565.c ****   
 349:..\..\u8g2\csrc/u8x8_d_st7565.c ****   U8X8_C(0x0a1),		                /* ADC set to reverse */
 350:..\..\u8g2\csrc/u8x8_d_st7565.c ****   U8X8_C(0x0c0),		                /* common output mode */
 351:..\..\u8g2\csrc/u8x8_d_st7565.c ****   // Flipmode
 352:..\..\u8g2\csrc/u8x8_d_st7565.c ****   //U8X8_C(0x0a0),		                /* ADC set to reverse */
 353:..\..\u8g2\csrc/u8x8_d_st7565.c ****   //U8X8_C(0x0c8),		                /* common output mode */
 354:..\..\u8g2\csrc/u8x8_d_st7565.c ****   
 355:..\..\u8g2\csrc/u8x8_d_st7565.c ****   U8X8_C(0x0a6),		                /* display normal, bit val 0: LCD pixel off. */
 356:..\..\u8g2\csrc/u8x8_d_st7565.c ****   U8X8_C(0x0a2),		                /* LCD bias 1/9 */
 357:..\..\u8g2\csrc/u8x8_d_st7565.c ****   U8X8_C(0x02f),		                /* all power  control circuits on */
 358:..\..\u8g2\csrc/u8x8_d_st7565.c ****   U8X8_CA(0x0f8, 0x000),		/* set booster ratio to 4x */
 359:..\..\u8g2\csrc/u8x8_d_st7565.c ****   U8X8_C(0x023),		                /* set V0 voltage resistor ratio to large*/
 360:..\..\u8g2\csrc/u8x8_d_st7565.c ****   U8X8_CA(0x081, 0x00a),		/* set contrast, contrast value NHD C12832 */
 361:..\..\u8g2\csrc/u8x8_d_st7565.c ****   
 362:..\..\u8g2\csrc/u8x8_d_st7565.c ****   U8X8_C(0x0ae),		                /* display off */
 363:..\..\u8g2\csrc/u8x8_d_st7565.c ****   U8X8_C(0x0a5),		                /* enter powersafe: all pixel on, issue 142 */
 364:..\..\u8g2\csrc/u8x8_d_st7565.c ****   
 365:..\..\u8g2\csrc/u8x8_d_st7565.c ****   U8X8_END_TRANSFER(),             	/* disable chip */
 366:..\..\u8g2\csrc/u8x8_d_st7565.c ****   U8X8_END()             			/* end of sequence */
 367:..\..\u8g2\csrc/u8x8_d_st7565.c **** };
 368:..\..\u8g2\csrc/u8x8_d_st7565.c **** 
 369:..\..\u8g2\csrc/u8x8_d_st7565.c **** uint8_t u8x8_d_st7565_nhd_c12832(u8x8_t *u8x8, uint8_t msg, uint8_t arg_int, void *arg_ptr)
 370:..\..\u8g2\csrc/u8x8_d_st7565.c **** {
 428              		.loc 1 370 0
 429              		.cfi_startproc
 430              		@ args = 0, pretend = 0, frame = 0
 431              		@ frame_needed = 0, uses_anonymous_args = 0
 432              	.LVL51:
 433 0000 70B5     		push	{r4, r5, r6, lr}
 434              		.cfi_def_cfa_offset 16
 435              		.cfi_offset 4, -16
 436              		.cfi_offset 5, -12
 437              		.cfi_offset 6, -8
 438              		.cfi_offset 14, -4
 439 0002 0500     		movs	r5, r0
 440 0004 0C00     		movs	r4, r1
 441 0006 1600     		movs	r6, r2
 371:..\..\u8g2\csrc/u8x8_d_st7565.c ****   /* call common procedure first and handle messages there */
 372:..\..\u8g2\csrc/u8x8_d_st7565.c ****   if ( u8x8_d_st7565_common(u8x8, msg, arg_int, arg_ptr) == 0 )
 442              		.loc 1 372 0
 443 0008 FFF7FEFF 		bl	u8x8_d_st7565_common
 444              	.LVL52:
 445 000c 0028     		cmp	r0, #0
 446 000e 2CD1     		bne	.L37
 373:..\..\u8g2\csrc/u8x8_d_st7565.c ****   {
 374:..\..\u8g2\csrc/u8x8_d_st7565.c ****     /* msg not handled, then try here */
 375:..\..\u8g2\csrc/u8x8_d_st7565.c ****     switch(msg)
 447              		.loc 1 375 0
 448 0010 0A2C     		cmp	r4, #10
 449 0012 0AD0     		beq	.L33
 450 0014 0D2C     		cmp	r4, #13
 451 0016 12D0     		beq	.L34
 452 0018 092C     		cmp	r4, #9
ARM GAS  C:\Users\arh\AppData\Local\Temp\ccmCaonO.s 			page 16


 453 001a 27D1     		bne	.L32
 376:..\..\u8g2\csrc/u8x8_d_st7565.c ****     {
 377:..\..\u8g2\csrc/u8x8_d_st7565.c ****       case U8X8_MSG_DISPLAY_SETUP_MEMORY:
 378:..\..\u8g2\csrc/u8x8_d_st7565.c **** 	u8x8_d_helper_display_setup_memory(u8x8, &u8x8_st7565_128x32_display_info);
 454              		.loc 1 378 0
 455 001c 1449     		ldr	r1, .L38
 456 001e 1031     		adds	r1, r1, #16
 457 0020 2800     		movs	r0, r5
 458 0022 FFF7FEFF 		bl	u8x8_d_helper_display_setup_memory
 459              	.LVL53:
 379:..\..\u8g2\csrc/u8x8_d_st7565.c **** 	break;
 380:..\..\u8g2\csrc/u8x8_d_st7565.c ****       case U8X8_MSG_DISPLAY_INIT:
 381:..\..\u8g2\csrc/u8x8_d_st7565.c **** 	u8x8_d_helper_display_init(u8x8);
 382:..\..\u8g2\csrc/u8x8_d_st7565.c **** 	u8x8_cad_SendSequence(u8x8, u8x8_d_st7565_nhd_c12832_init_seq);
 383:..\..\u8g2\csrc/u8x8_d_st7565.c **** 	break;
 384:..\..\u8g2\csrc/u8x8_d_st7565.c ****       case U8X8_MSG_DISPLAY_SET_FLIP_MODE:
 385:..\..\u8g2\csrc/u8x8_d_st7565.c **** 	if ( arg_int == 0 )
 386:..\..\u8g2\csrc/u8x8_d_st7565.c **** 	{
 387:..\..\u8g2\csrc/u8x8_d_st7565.c **** 	  u8x8_cad_SendSequence(u8x8, u8x8_d_st7565_flip0_seq);
 388:..\..\u8g2\csrc/u8x8_d_st7565.c **** 	  u8x8->x_offset = u8x8->display_info->default_x_offset;
 389:..\..\u8g2\csrc/u8x8_d_st7565.c **** 	}
 390:..\..\u8g2\csrc/u8x8_d_st7565.c **** 	else
 391:..\..\u8g2\csrc/u8x8_d_st7565.c **** 	{
 392:..\..\u8g2\csrc/u8x8_d_st7565.c **** 	  u8x8_cad_SendSequence(u8x8, u8x8_d_st7565_flip1_seq);
 393:..\..\u8g2\csrc/u8x8_d_st7565.c **** 	  u8x8->x_offset = u8x8->display_info->flipmode_x_offset;
 394:..\..\u8g2\csrc/u8x8_d_st7565.c **** 	}	
 395:..\..\u8g2\csrc/u8x8_d_st7565.c **** 	break;
 396:..\..\u8g2\csrc/u8x8_d_st7565.c ****       default:
 397:..\..\u8g2\csrc/u8x8_d_st7565.c **** 	return 0;		/* msg unknown */
 398:..\..\u8g2\csrc/u8x8_d_st7565.c ****     }
 399:..\..\u8g2\csrc/u8x8_d_st7565.c ****   }
 400:..\..\u8g2\csrc/u8x8_d_st7565.c ****   return 1;
 460              		.loc 1 400 0
 461 0026 0120     		movs	r0, #1
 379:..\..\u8g2\csrc/u8x8_d_st7565.c **** 	break;
 462              		.loc 1 379 0
 463 0028 20E0     		b	.L32
 464              	.L33:
 381:..\..\u8g2\csrc/u8x8_d_st7565.c **** 	u8x8_cad_SendSequence(u8x8, u8x8_d_st7565_nhd_c12832_init_seq);
 465              		.loc 1 381 0
 466 002a 2800     		movs	r0, r5
 467 002c FFF7FEFF 		bl	u8x8_d_helper_display_init
 468              	.LVL54:
 382:..\..\u8g2\csrc/u8x8_d_st7565.c **** 	break;
 469              		.loc 1 382 0
 470 0030 0F49     		ldr	r1, .L38
 471 0032 2831     		adds	r1, r1, #40
 472 0034 2800     		movs	r0, r5
 473 0036 FFF7FEFF 		bl	u8x8_cad_SendSequence
 474              	.LVL55:
 475              		.loc 1 400 0
 476 003a 0120     		movs	r0, #1
 383:..\..\u8g2\csrc/u8x8_d_st7565.c ****       case U8X8_MSG_DISPLAY_SET_FLIP_MODE:
 477              		.loc 1 383 0
 478 003c 16E0     		b	.L32
 479              	.L34:
 385:..\..\u8g2\csrc/u8x8_d_st7565.c **** 	{
ARM GAS  C:\Users\arh\AppData\Local\Temp\ccmCaonO.s 			page 17


 480              		.loc 1 385 0
 481 003e 002E     		cmp	r6, #0
 482 0040 09D1     		bne	.L36
 387:..\..\u8g2\csrc/u8x8_d_st7565.c **** 	  u8x8->x_offset = u8x8->display_info->default_x_offset;
 483              		.loc 1 387 0
 484 0042 0C49     		ldr	r1, .L38+4
 485 0044 4C31     		adds	r1, r1, #76
 486 0046 2800     		movs	r0, r5
 487 0048 FFF7FEFF 		bl	u8x8_cad_SendSequence
 488              	.LVL56:
 388:..\..\u8g2\csrc/u8x8_d_st7565.c **** 	}
 489              		.loc 1 388 0
 490 004c 2B68     		ldr	r3, [r5]
 491 004e 9B7C     		ldrb	r3, [r3, #18]
 492 0050 AB77     		strb	r3, [r5, #30]
 493              		.loc 1 400 0
 494 0052 0120     		movs	r0, #1
 495 0054 0AE0     		b	.L32
 496              	.L36:
 392:..\..\u8g2\csrc/u8x8_d_st7565.c **** 	  u8x8->x_offset = u8x8->display_info->flipmode_x_offset;
 497              		.loc 1 392 0
 498 0056 0749     		ldr	r1, .L38+4
 499 0058 5431     		adds	r1, r1, #84
 500 005a 2800     		movs	r0, r5
 501 005c FFF7FEFF 		bl	u8x8_cad_SendSequence
 502              	.LVL57:
 393:..\..\u8g2\csrc/u8x8_d_st7565.c **** 	}	
 503              		.loc 1 393 0
 504 0060 2B68     		ldr	r3, [r5]
 505 0062 DB7C     		ldrb	r3, [r3, #19]
 506 0064 AB77     		strb	r3, [r5, #30]
 507              		.loc 1 400 0
 508 0066 0120     		movs	r0, #1
 509 0068 00E0     		b	.L32
 510              	.L37:
 511 006a 0120     		movs	r0, #1
 512              	.L32:
 401:..\..\u8g2\csrc/u8x8_d_st7565.c **** }
 513              		.loc 1 401 0
 514              		@ sp needed
 515              	.LVL58:
 516 006c 70BD     		pop	{r4, r5, r6, pc}
 517              	.L39:
 518 006e C046     		.align	2
 519              	.L38:
 520 0070 80000000 		.word	.LANCHOR1
 521 0074 00000000 		.word	.LANCHOR0
 522              		.cfi_endproc
 523              	.LFE3:
 524              		.size	u8x8_d_st7565_nhd_c12832, .-u8x8_d_st7565_nhd_c12832
 525              		.section	.text.u8x8_d_st7565_nhd_c12864,"ax",%progbits
 526              		.align	2
 527              		.global	u8x8_d_st7565_nhd_c12864
 528              		.code	16
 529              		.thumb_func
 530              		.type	u8x8_d_st7565_nhd_c12864, %function
 531              	u8x8_d_st7565_nhd_c12864:
ARM GAS  C:\Users\arh\AppData\Local\Temp\ccmCaonO.s 			page 18


 532              	.LFB4:
 402:..\..\u8g2\csrc/u8x8_d_st7565.c **** 
 403:..\..\u8g2\csrc/u8x8_d_st7565.c **** /*================================================*/
 404:..\..\u8g2\csrc/u8x8_d_st7565.c **** /* NHD-C12864 */
 405:..\..\u8g2\csrc/u8x8_d_st7565.c **** 
 406:..\..\u8g2\csrc/u8x8_d_st7565.c **** static const u8x8_display_info_t u8x8_st7565_nhd_c12864_display_info =
 407:..\..\u8g2\csrc/u8x8_d_st7565.c **** {
 408:..\..\u8g2\csrc/u8x8_d_st7565.c ****   /* chip_enable_level = */ 0,
 409:..\..\u8g2\csrc/u8x8_d_st7565.c ****   /* chip_disable_level = */ 1,
 410:..\..\u8g2\csrc/u8x8_d_st7565.c ****   
 411:..\..\u8g2\csrc/u8x8_d_st7565.c ****   /* post_chip_enable_wait_ns = */ 150,	/* st7565 datasheet, table 26, tcsh */
 412:..\..\u8g2\csrc/u8x8_d_st7565.c ****   /* pre_chip_disable_wait_ns = */ 50,	/* st7565 datasheet, table 26, tcss */
 413:..\..\u8g2\csrc/u8x8_d_st7565.c ****   /* reset_pulse_width_ms = */ 1, 
 414:..\..\u8g2\csrc/u8x8_d_st7565.c ****   /* post_reset_wait_ms = */ 1, 
 415:..\..\u8g2\csrc/u8x8_d_st7565.c ****   /* sda_setup_time_ns = */ 50,		/* st7565 datasheet, table 26, tsds */
 416:..\..\u8g2\csrc/u8x8_d_st7565.c ****   /* sck_pulse_width_ns = */ 120,	/* half of cycle time (100ns according to datasheet), AVR: below 
 417:..\..\u8g2\csrc/u8x8_d_st7565.c ****   /* sck_clock_hz = */ 4000000UL,	/* since Arduino 1.6.0, the SPI bus speed in Hz. Should be  10000
 418:..\..\u8g2\csrc/u8x8_d_st7565.c ****   /* spi_mode = */ 0,		/* active high, rising edge */
 419:..\..\u8g2\csrc/u8x8_d_st7565.c ****   /* i2c_bus_clock_100kHz = */ 4,
 420:..\..\u8g2\csrc/u8x8_d_st7565.c ****   /* data_setup_time_ns = */ 40,	/* st7565 datasheet, table 24, tds8 */
 421:..\..\u8g2\csrc/u8x8_d_st7565.c ****   /* write_pulse_width_ns = */ 80,	/* st7565 datasheet, table 24, tcclw */
 422:..\..\u8g2\csrc/u8x8_d_st7565.c ****   /* tile_width = */ 16,		/* width of 16*8=128 pixel */
 423:..\..\u8g2\csrc/u8x8_d_st7565.c ****   /* tile_hight = */ 8,
 424:..\..\u8g2\csrc/u8x8_d_st7565.c ****   /* default_x_offset = */ 4,
 425:..\..\u8g2\csrc/u8x8_d_st7565.c ****   /* flipmode_x_offset = */ 0,
 426:..\..\u8g2\csrc/u8x8_d_st7565.c ****   /* pixel_width = */ 128,
 427:..\..\u8g2\csrc/u8x8_d_st7565.c ****   /* pixel_height = */ 64
 428:..\..\u8g2\csrc/u8x8_d_st7565.c **** };
 429:..\..\u8g2\csrc/u8x8_d_st7565.c **** 
 430:..\..\u8g2\csrc/u8x8_d_st7565.c **** 
 431:..\..\u8g2\csrc/u8x8_d_st7565.c **** static const uint8_t u8x8_d_st7565_nhd_c12864_init_seq[] = {
 432:..\..\u8g2\csrc/u8x8_d_st7565.c ****     
 433:..\..\u8g2\csrc/u8x8_d_st7565.c ****   U8X8_START_TRANSFER(),             	/* enable chip, delay is part of the transfer start */
 434:..\..\u8g2\csrc/u8x8_d_st7565.c ****   
 435:..\..\u8g2\csrc/u8x8_d_st7565.c ****   U8X8_C(0x0e2),            			/* soft reset */
 436:..\..\u8g2\csrc/u8x8_d_st7565.c ****   U8X8_C(0x0ae),		                /* display off */
 437:..\..\u8g2\csrc/u8x8_d_st7565.c ****   U8X8_C(0x040),		                /* set display start line to 0 */
 438:..\..\u8g2\csrc/u8x8_d_st7565.c ****   
 439:..\..\u8g2\csrc/u8x8_d_st7565.c ****   U8X8_C(0x0a1),		                /* ADC set to reverse */
 440:..\..\u8g2\csrc/u8x8_d_st7565.c ****   U8X8_C(0x0c0),		                /* common output mode */
 441:..\..\u8g2\csrc/u8x8_d_st7565.c ****   // Flipmode
 442:..\..\u8g2\csrc/u8x8_d_st7565.c ****   //U8X8_C(0x0a0),		                /* ADC set to reverse */
 443:..\..\u8g2\csrc/u8x8_d_st7565.c ****   //U8X8_C(0x0c8),		                /* common output mode */
 444:..\..\u8g2\csrc/u8x8_d_st7565.c ****   
 445:..\..\u8g2\csrc/u8x8_d_st7565.c ****   U8X8_C(0x0a6),		                /* display normal, bit val 0: LCD pixel off. */
 446:..\..\u8g2\csrc/u8x8_d_st7565.c ****   U8X8_C(0x0a2),		                /* LCD bias 1/9 */
 447:..\..\u8g2\csrc/u8x8_d_st7565.c ****   U8X8_C(0x02f),		                /* all power  control circuits on */
 448:..\..\u8g2\csrc/u8x8_d_st7565.c ****   U8X8_CA(0x0f8, 0x000),		/* set booster ratio to 4x */
 449:..\..\u8g2\csrc/u8x8_d_st7565.c ****   U8X8_C(0x023),		                /* set V0 voltage resistor ratio to large*/
 450:..\..\u8g2\csrc/u8x8_d_st7565.c ****   U8X8_CA(0x081, 0x00a),		/* set contrast, contrast value NHD C12832 */
 451:..\..\u8g2\csrc/u8x8_d_st7565.c ****   
 452:..\..\u8g2\csrc/u8x8_d_st7565.c ****   U8X8_C(0x0ae),		                /* display off */
 453:..\..\u8g2\csrc/u8x8_d_st7565.c ****   U8X8_C(0x0a5),		                /* enter powersafe: all pixel on, issue 142 */
 454:..\..\u8g2\csrc/u8x8_d_st7565.c ****   
 455:..\..\u8g2\csrc/u8x8_d_st7565.c ****   U8X8_END_TRANSFER(),             	/* disable chip */
 456:..\..\u8g2\csrc/u8x8_d_st7565.c ****   U8X8_END()             			/* end of sequence */
 457:..\..\u8g2\csrc/u8x8_d_st7565.c **** };
ARM GAS  C:\Users\arh\AppData\Local\Temp\ccmCaonO.s 			page 19


 458:..\..\u8g2\csrc/u8x8_d_st7565.c **** 
 459:..\..\u8g2\csrc/u8x8_d_st7565.c **** uint8_t u8x8_d_st7565_nhd_c12864(u8x8_t *u8x8, uint8_t msg, uint8_t arg_int, void *arg_ptr)
 460:..\..\u8g2\csrc/u8x8_d_st7565.c **** {
 533              		.loc 1 460 0
 534              		.cfi_startproc
 535              		@ args = 0, pretend = 0, frame = 0
 536              		@ frame_needed = 0, uses_anonymous_args = 0
 537              	.LVL59:
 538 0000 70B5     		push	{r4, r5, r6, lr}
 539              		.cfi_def_cfa_offset 16
 540              		.cfi_offset 4, -16
 541              		.cfi_offset 5, -12
 542              		.cfi_offset 6, -8
 543              		.cfi_offset 14, -4
 544 0002 0500     		movs	r5, r0
 545 0004 0C00     		movs	r4, r1
 546 0006 1600     		movs	r6, r2
 461:..\..\u8g2\csrc/u8x8_d_st7565.c ****   /* call common procedure first and handle messages there */
 462:..\..\u8g2\csrc/u8x8_d_st7565.c ****   if ( u8x8_d_st7565_common(u8x8, msg, arg_int, arg_ptr) == 0 )
 547              		.loc 1 462 0
 548 0008 FFF7FEFF 		bl	u8x8_d_st7565_common
 549              	.LVL60:
 550 000c 0028     		cmp	r0, #0
 551 000e 2CD1     		bne	.L46
 463:..\..\u8g2\csrc/u8x8_d_st7565.c ****   {
 464:..\..\u8g2\csrc/u8x8_d_st7565.c ****     /* msg not handled, then try here */
 465:..\..\u8g2\csrc/u8x8_d_st7565.c ****     switch(msg)
 552              		.loc 1 465 0
 553 0010 0A2C     		cmp	r4, #10
 554 0012 0AD0     		beq	.L42
 555 0014 0D2C     		cmp	r4, #13
 556 0016 12D0     		beq	.L43
 557 0018 092C     		cmp	r4, #9
 558 001a 27D1     		bne	.L41
 466:..\..\u8g2\csrc/u8x8_d_st7565.c ****     {
 467:..\..\u8g2\csrc/u8x8_d_st7565.c ****       case U8X8_MSG_DISPLAY_SETUP_MEMORY:
 468:..\..\u8g2\csrc/u8x8_d_st7565.c **** 	u8x8_d_helper_display_setup_memory(u8x8, &u8x8_st7565_nhd_c12864_display_info);
 559              		.loc 1 468 0
 560 001c 1449     		ldr	r1, .L47
 561 001e 4C31     		adds	r1, r1, #76
 562 0020 2800     		movs	r0, r5
 563 0022 FFF7FEFF 		bl	u8x8_d_helper_display_setup_memory
 564              	.LVL61:
 469:..\..\u8g2\csrc/u8x8_d_st7565.c **** 	break;
 470:..\..\u8g2\csrc/u8x8_d_st7565.c ****       case U8X8_MSG_DISPLAY_INIT:
 471:..\..\u8g2\csrc/u8x8_d_st7565.c **** 	u8x8_d_helper_display_init(u8x8);
 472:..\..\u8g2\csrc/u8x8_d_st7565.c **** 	u8x8_cad_SendSequence(u8x8, u8x8_d_st7565_nhd_c12864_init_seq);
 473:..\..\u8g2\csrc/u8x8_d_st7565.c **** 	break;
 474:..\..\u8g2\csrc/u8x8_d_st7565.c ****       case U8X8_MSG_DISPLAY_SET_FLIP_MODE:
 475:..\..\u8g2\csrc/u8x8_d_st7565.c **** 	if ( arg_int == 0 )
 476:..\..\u8g2\csrc/u8x8_d_st7565.c **** 	{
 477:..\..\u8g2\csrc/u8x8_d_st7565.c **** 	  u8x8_cad_SendSequence(u8x8, u8x8_d_st7565_flip0_seq);
 478:..\..\u8g2\csrc/u8x8_d_st7565.c **** 	  u8x8->x_offset = u8x8->display_info->default_x_offset;
 479:..\..\u8g2\csrc/u8x8_d_st7565.c **** 	}
 480:..\..\u8g2\csrc/u8x8_d_st7565.c **** 	else
 481:..\..\u8g2\csrc/u8x8_d_st7565.c **** 	{
 482:..\..\u8g2\csrc/u8x8_d_st7565.c **** 	  u8x8_cad_SendSequence(u8x8, u8x8_d_st7565_flip1_seq);
ARM GAS  C:\Users\arh\AppData\Local\Temp\ccmCaonO.s 			page 20


 483:..\..\u8g2\csrc/u8x8_d_st7565.c **** 	  u8x8->x_offset = u8x8->display_info->flipmode_x_offset;
 484:..\..\u8g2\csrc/u8x8_d_st7565.c **** 	}	
 485:..\..\u8g2\csrc/u8x8_d_st7565.c **** 	break;
 486:..\..\u8g2\csrc/u8x8_d_st7565.c ****       default:
 487:..\..\u8g2\csrc/u8x8_d_st7565.c **** 	return 0;		/* msg unknown */
 488:..\..\u8g2\csrc/u8x8_d_st7565.c ****     }
 489:..\..\u8g2\csrc/u8x8_d_st7565.c ****   }
 490:..\..\u8g2\csrc/u8x8_d_st7565.c ****   return 1;
 565              		.loc 1 490 0
 566 0026 0120     		movs	r0, #1
 469:..\..\u8g2\csrc/u8x8_d_st7565.c **** 	break;
 567              		.loc 1 469 0
 568 0028 20E0     		b	.L41
 569              	.L42:
 471:..\..\u8g2\csrc/u8x8_d_st7565.c **** 	u8x8_cad_SendSequence(u8x8, u8x8_d_st7565_nhd_c12864_init_seq);
 570              		.loc 1 471 0
 571 002a 2800     		movs	r0, r5
 572 002c FFF7FEFF 		bl	u8x8_d_helper_display_init
 573              	.LVL62:
 472:..\..\u8g2\csrc/u8x8_d_st7565.c **** 	break;
 574              		.loc 1 472 0
 575 0030 0F49     		ldr	r1, .L47
 576 0032 6431     		adds	r1, r1, #100
 577 0034 2800     		movs	r0, r5
 578 0036 FFF7FEFF 		bl	u8x8_cad_SendSequence
 579              	.LVL63:
 580              		.loc 1 490 0
 581 003a 0120     		movs	r0, #1
 473:..\..\u8g2\csrc/u8x8_d_st7565.c ****       case U8X8_MSG_DISPLAY_SET_FLIP_MODE:
 582              		.loc 1 473 0
 583 003c 16E0     		b	.L41
 584              	.L43:
 475:..\..\u8g2\csrc/u8x8_d_st7565.c **** 	{
 585              		.loc 1 475 0
 586 003e 002E     		cmp	r6, #0
 587 0040 09D1     		bne	.L45
 477:..\..\u8g2\csrc/u8x8_d_st7565.c **** 	  u8x8->x_offset = u8x8->display_info->default_x_offset;
 588              		.loc 1 477 0
 589 0042 0C49     		ldr	r1, .L47+4
 590 0044 4C31     		adds	r1, r1, #76
 591 0046 2800     		movs	r0, r5
 592 0048 FFF7FEFF 		bl	u8x8_cad_SendSequence
 593              	.LVL64:
 478:..\..\u8g2\csrc/u8x8_d_st7565.c **** 	}
 594              		.loc 1 478 0
 595 004c 2B68     		ldr	r3, [r5]
 596 004e 9B7C     		ldrb	r3, [r3, #18]
 597 0050 AB77     		strb	r3, [r5, #30]
 598              		.loc 1 490 0
 599 0052 0120     		movs	r0, #1
 600 0054 0AE0     		b	.L41
 601              	.L45:
 482:..\..\u8g2\csrc/u8x8_d_st7565.c **** 	  u8x8->x_offset = u8x8->display_info->flipmode_x_offset;
 602              		.loc 1 482 0
 603 0056 0749     		ldr	r1, .L47+4
 604 0058 5431     		adds	r1, r1, #84
 605 005a 2800     		movs	r0, r5
ARM GAS  C:\Users\arh\AppData\Local\Temp\ccmCaonO.s 			page 21


 606 005c FFF7FEFF 		bl	u8x8_cad_SendSequence
 607              	.LVL65:
 483:..\..\u8g2\csrc/u8x8_d_st7565.c **** 	}	
 608              		.loc 1 483 0
 609 0060 2B68     		ldr	r3, [r5]
 610 0062 DB7C     		ldrb	r3, [r3, #19]
 611 0064 AB77     		strb	r3, [r5, #30]
 612              		.loc 1 490 0
 613 0066 0120     		movs	r0, #1
 614 0068 00E0     		b	.L41
 615              	.L46:
 616 006a 0120     		movs	r0, #1
 617              	.L41:
 491:..\..\u8g2\csrc/u8x8_d_st7565.c **** }
 618              		.loc 1 491 0
 619              		@ sp needed
 620              	.LVL66:
 621 006c 70BD     		pop	{r4, r5, r6, pc}
 622              	.L48:
 623 006e C046     		.align	2
 624              	.L47:
 625 0070 80000000 		.word	.LANCHOR1
 626 0074 00000000 		.word	.LANCHOR0
 627              		.cfi_endproc
 628              	.LFE4:
 629              		.size	u8x8_d_st7565_nhd_c12864, .-u8x8_d_st7565_nhd_c12864
 630              		.section	.text.u8x8_d_st7565_lm6059,"ax",%progbits
 631              		.align	2
 632              		.global	u8x8_d_st7565_lm6059
 633              		.code	16
 634              		.thumb_func
 635              		.type	u8x8_d_st7565_lm6059, %function
 636              	u8x8_d_st7565_lm6059:
 637              	.LFB5:
 492:..\..\u8g2\csrc/u8x8_d_st7565.c **** 
 493:..\..\u8g2\csrc/u8x8_d_st7565.c **** /*================================================*/
 494:..\..\u8g2\csrc/u8x8_d_st7565.c **** /* LM6059 (Adafruit)... probably this is a ST7567 display */
 495:..\..\u8g2\csrc/u8x8_d_st7565.c **** 
 496:..\..\u8g2\csrc/u8x8_d_st7565.c **** static const uint8_t u8x8_d_st7565_lm6059_init_seq[] = {
 497:..\..\u8g2\csrc/u8x8_d_st7565.c ****     
 498:..\..\u8g2\csrc/u8x8_d_st7565.c ****   U8X8_START_TRANSFER(),             	/* enable chip, delay is part of the transfer start */
 499:..\..\u8g2\csrc/u8x8_d_st7565.c ****   
 500:..\..\u8g2\csrc/u8x8_d_st7565.c ****   U8X8_C(0x0e2),            			/* soft reset */
 501:..\..\u8g2\csrc/u8x8_d_st7565.c ****   U8X8_C(0x0ae),		                /* display off */
 502:..\..\u8g2\csrc/u8x8_d_st7565.c ****   U8X8_C(0x060),		                /* set display start line to ... */
 503:..\..\u8g2\csrc/u8x8_d_st7565.c ****   
 504:..\..\u8g2\csrc/u8x8_d_st7565.c ****   U8X8_C(0x0a0),		                /* ADC set to reverse */
 505:..\..\u8g2\csrc/u8x8_d_st7565.c ****   U8X8_C(0x0c8),		                /* common output mode */
 506:..\..\u8g2\csrc/u8x8_d_st7565.c ****   //U8X8_C(0x0a1),		                /* ADC set to reverse */
 507:..\..\u8g2\csrc/u8x8_d_st7565.c ****   //U8X8_C(0x0c0),		                /* common output mode */
 508:..\..\u8g2\csrc/u8x8_d_st7565.c ****   // Flipmode
 509:..\..\u8g2\csrc/u8x8_d_st7565.c ****   // U8X8_C(0x0a0),		                /* ADC set to reverse */
 510:..\..\u8g2\csrc/u8x8_d_st7565.c ****   // U8X8_C(0x0c8),		                /* common output mode */
 511:..\..\u8g2\csrc/u8x8_d_st7565.c ****   
 512:..\..\u8g2\csrc/u8x8_d_st7565.c ****   U8X8_C(0x0a6),		                /* display normal, bit val 0: LCD pixel off. */
 513:..\..\u8g2\csrc/u8x8_d_st7565.c ****   U8X8_C(0x0a3),		                /* LCD bias 1/9 */
 514:..\..\u8g2\csrc/u8x8_d_st7565.c ****   U8X8_C(0x02f),		                /* all power  control circuits on */
ARM GAS  C:\Users\arh\AppData\Local\Temp\ccmCaonO.s 			page 22


 515:..\..\u8g2\csrc/u8x8_d_st7565.c ****   U8X8_CA(0x0f8, 0x000),		/* set booster ratio to 4x (ST7567 feature)*/
 516:..\..\u8g2\csrc/u8x8_d_st7565.c ****   U8X8_C(0x027),		                /* regulator, booster and follower */
 517:..\..\u8g2\csrc/u8x8_d_st7565.c ****   U8X8_CA(0x081, 0x018),		/* set contrast, contrast value, EA default: 0x016 */
 518:..\..\u8g2\csrc/u8x8_d_st7565.c ****   
 519:..\..\u8g2\csrc/u8x8_d_st7565.c ****   U8X8_C(0x0ae),		                /* display off */
 520:..\..\u8g2\csrc/u8x8_d_st7565.c ****   U8X8_C(0x0a5),		                /* enter powersafe: all pixel on, issue 142 */
 521:..\..\u8g2\csrc/u8x8_d_st7565.c ****   
 522:..\..\u8g2\csrc/u8x8_d_st7565.c ****   U8X8_END_TRANSFER(),             	/* disable chip */
 523:..\..\u8g2\csrc/u8x8_d_st7565.c ****   U8X8_END()             			/* end of sequence */
 524:..\..\u8g2\csrc/u8x8_d_st7565.c **** };
 525:..\..\u8g2\csrc/u8x8_d_st7565.c **** 
 526:..\..\u8g2\csrc/u8x8_d_st7565.c **** static const u8x8_display_info_t u8x8_st7565_lm6059_display_info =
 527:..\..\u8g2\csrc/u8x8_d_st7565.c **** {
 528:..\..\u8g2\csrc/u8x8_d_st7565.c ****   /* chip_enable_level = */ 0,
 529:..\..\u8g2\csrc/u8x8_d_st7565.c ****   /* chip_disable_level = */ 1,
 530:..\..\u8g2\csrc/u8x8_d_st7565.c ****   
 531:..\..\u8g2\csrc/u8x8_d_st7565.c ****   /* post_chip_enable_wait_ns = */ 150,	/* st7565 datasheet, table 26, tcsh */
 532:..\..\u8g2\csrc/u8x8_d_st7565.c ****   /* pre_chip_disable_wait_ns = */ 50,	/* st7565 datasheet, table 26, tcss */
 533:..\..\u8g2\csrc/u8x8_d_st7565.c ****   /* reset_pulse_width_ms = */ 1, 
 534:..\..\u8g2\csrc/u8x8_d_st7565.c ****   /* post_reset_wait_ms = */ 1, 
 535:..\..\u8g2\csrc/u8x8_d_st7565.c ****   /* sda_setup_time_ns = */ 50,		/* st7565 datasheet, table 26, tsds */
 536:..\..\u8g2\csrc/u8x8_d_st7565.c ****   /* sck_pulse_width_ns = */ 120,	/* half of cycle time (100ns according to datasheet), AVR: below 
 537:..\..\u8g2\csrc/u8x8_d_st7565.c ****   /* sck_clock_hz = */ 4000000UL,	/* since Arduino 1.6.0, the SPI bus speed in Hz. Should be  10000
 538:..\..\u8g2\csrc/u8x8_d_st7565.c ****   /* spi_mode = */ 0,		/* active high, rising edge */
 539:..\..\u8g2\csrc/u8x8_d_st7565.c ****   /* i2c_bus_clock_100kHz = */ 4,
 540:..\..\u8g2\csrc/u8x8_d_st7565.c ****   /* data_setup_time_ns = */ 40,	/* st7565 datasheet, table 24, tds8 */
 541:..\..\u8g2\csrc/u8x8_d_st7565.c ****   /* write_pulse_width_ns = */ 80,	/* st7565 datasheet, table 24, tcclw */
 542:..\..\u8g2\csrc/u8x8_d_st7565.c ****   /* tile_width = */ 16,		/* width of 16*8=128 pixel */
 543:..\..\u8g2\csrc/u8x8_d_st7565.c ****   /* tile_hight = */ 8,
 544:..\..\u8g2\csrc/u8x8_d_st7565.c ****   /* default_x_offset = */ 1,	/* not sure... */
 545:..\..\u8g2\csrc/u8x8_d_st7565.c ****   /* flipmode_x_offset = */ 3,
 546:..\..\u8g2\csrc/u8x8_d_st7565.c ****   /* pixel_width = */ 128,
 547:..\..\u8g2\csrc/u8x8_d_st7565.c ****   /* pixel_height = */ 64
 548:..\..\u8g2\csrc/u8x8_d_st7565.c **** };
 549:..\..\u8g2\csrc/u8x8_d_st7565.c **** 
 550:..\..\u8g2\csrc/u8x8_d_st7565.c **** uint8_t u8x8_d_st7565_lm6059(u8x8_t *u8x8, uint8_t msg, uint8_t arg_int, void *arg_ptr)
 551:..\..\u8g2\csrc/u8x8_d_st7565.c **** {
 638              		.loc 1 551 0
 639              		.cfi_startproc
 640              		@ args = 0, pretend = 0, frame = 0
 641              		@ frame_needed = 0, uses_anonymous_args = 0
 642              	.LVL67:
 643 0000 70B5     		push	{r4, r5, r6, lr}
 644              		.cfi_def_cfa_offset 16
 645              		.cfi_offset 4, -16
 646              		.cfi_offset 5, -12
 647              		.cfi_offset 6, -8
 648              		.cfi_offset 14, -4
 649 0002 0500     		movs	r5, r0
 650 0004 0C00     		movs	r4, r1
 651 0006 1600     		movs	r6, r2
 552:..\..\u8g2\csrc/u8x8_d_st7565.c ****   /* call common procedure first and handle messages there */
 553:..\..\u8g2\csrc/u8x8_d_st7565.c ****   if ( u8x8_d_st7565_common(u8x8, msg, arg_int, arg_ptr) == 0 )
 652              		.loc 1 553 0
 653 0008 FFF7FEFF 		bl	u8x8_d_st7565_common
 654              	.LVL68:
 655 000c 0028     		cmp	r0, #0
ARM GAS  C:\Users\arh\AppData\Local\Temp\ccmCaonO.s 			page 23


 656 000e 2CD1     		bne	.L55
 554:..\..\u8g2\csrc/u8x8_d_st7565.c ****   {
 555:..\..\u8g2\csrc/u8x8_d_st7565.c ****     /* msg not handled, then try here */
 556:..\..\u8g2\csrc/u8x8_d_st7565.c ****     switch(msg)
 657              		.loc 1 556 0
 658 0010 0A2C     		cmp	r4, #10
 659 0012 0AD0     		beq	.L51
 660 0014 0D2C     		cmp	r4, #13
 661 0016 12D0     		beq	.L52
 662 0018 092C     		cmp	r4, #9
 663 001a 27D1     		bne	.L50
 557:..\..\u8g2\csrc/u8x8_d_st7565.c ****     {
 558:..\..\u8g2\csrc/u8x8_d_st7565.c ****       case U8X8_MSG_DISPLAY_SETUP_MEMORY:
 559:..\..\u8g2\csrc/u8x8_d_st7565.c **** 	u8x8_d_helper_display_setup_memory(u8x8, &u8x8_st7565_lm6059_display_info);
 664              		.loc 1 559 0
 665 001c 1449     		ldr	r1, .L56
 666 001e 0831     		adds	r1, r1, #8
 667 0020 2800     		movs	r0, r5
 668 0022 FFF7FEFF 		bl	u8x8_d_helper_display_setup_memory
 669              	.LVL69:
 560:..\..\u8g2\csrc/u8x8_d_st7565.c **** 	break;
 561:..\..\u8g2\csrc/u8x8_d_st7565.c ****       case U8X8_MSG_DISPLAY_INIT:
 562:..\..\u8g2\csrc/u8x8_d_st7565.c **** 	u8x8_d_helper_display_init(u8x8);
 563:..\..\u8g2\csrc/u8x8_d_st7565.c **** 	u8x8_cad_SendSequence(u8x8, u8x8_d_st7565_lm6059_init_seq);
 564:..\..\u8g2\csrc/u8x8_d_st7565.c **** 	break;
 565:..\..\u8g2\csrc/u8x8_d_st7565.c ****       case U8X8_MSG_DISPLAY_SET_FLIP_MODE:
 566:..\..\u8g2\csrc/u8x8_d_st7565.c **** 	if ( arg_int == 0 )
 567:..\..\u8g2\csrc/u8x8_d_st7565.c **** 	{
 568:..\..\u8g2\csrc/u8x8_d_st7565.c **** 	  u8x8_cad_SendSequence(u8x8, u8x8_d_st7565_flip1_seq);
 569:..\..\u8g2\csrc/u8x8_d_st7565.c **** 	  u8x8->x_offset = u8x8->display_info->default_x_offset;
 570:..\..\u8g2\csrc/u8x8_d_st7565.c **** 	}
 571:..\..\u8g2\csrc/u8x8_d_st7565.c **** 	else
 572:..\..\u8g2\csrc/u8x8_d_st7565.c **** 	{
 573:..\..\u8g2\csrc/u8x8_d_st7565.c **** 	  u8x8_cad_SendSequence(u8x8, u8x8_d_st7565_flip0_seq);
 574:..\..\u8g2\csrc/u8x8_d_st7565.c **** 	  u8x8->x_offset = u8x8->display_info->flipmode_x_offset;
 575:..\..\u8g2\csrc/u8x8_d_st7565.c **** 	}	
 576:..\..\u8g2\csrc/u8x8_d_st7565.c **** 	break;
 577:..\..\u8g2\csrc/u8x8_d_st7565.c ****       default:
 578:..\..\u8g2\csrc/u8x8_d_st7565.c **** 	return 0;		/* msg unknown */
 579:..\..\u8g2\csrc/u8x8_d_st7565.c ****     }
 580:..\..\u8g2\csrc/u8x8_d_st7565.c ****   }
 581:..\..\u8g2\csrc/u8x8_d_st7565.c ****   return 1;
 670              		.loc 1 581 0
 671 0026 0120     		movs	r0, #1
 560:..\..\u8g2\csrc/u8x8_d_st7565.c **** 	break;
 672              		.loc 1 560 0
 673 0028 20E0     		b	.L50
 674              	.L51:
 562:..\..\u8g2\csrc/u8x8_d_st7565.c **** 	u8x8_cad_SendSequence(u8x8, u8x8_d_st7565_lm6059_init_seq);
 675              		.loc 1 562 0
 676 002a 2800     		movs	r0, r5
 677 002c FFF7FEFF 		bl	u8x8_d_helper_display_init
 678              	.LVL70:
 563:..\..\u8g2\csrc/u8x8_d_st7565.c **** 	break;
 679              		.loc 1 563 0
 680 0030 0F49     		ldr	r1, .L56
 681 0032 2031     		adds	r1, r1, #32
ARM GAS  C:\Users\arh\AppData\Local\Temp\ccmCaonO.s 			page 24


 682 0034 2800     		movs	r0, r5
 683 0036 FFF7FEFF 		bl	u8x8_cad_SendSequence
 684              	.LVL71:
 685              		.loc 1 581 0
 686 003a 0120     		movs	r0, #1
 564:..\..\u8g2\csrc/u8x8_d_st7565.c ****       case U8X8_MSG_DISPLAY_SET_FLIP_MODE:
 687              		.loc 1 564 0
 688 003c 16E0     		b	.L50
 689              	.L52:
 566:..\..\u8g2\csrc/u8x8_d_st7565.c **** 	{
 690              		.loc 1 566 0
 691 003e 002E     		cmp	r6, #0
 692 0040 09D1     		bne	.L54
 568:..\..\u8g2\csrc/u8x8_d_st7565.c **** 	  u8x8->x_offset = u8x8->display_info->default_x_offset;
 693              		.loc 1 568 0
 694 0042 0C49     		ldr	r1, .L56+4
 695 0044 5431     		adds	r1, r1, #84
 696 0046 2800     		movs	r0, r5
 697 0048 FFF7FEFF 		bl	u8x8_cad_SendSequence
 698              	.LVL72:
 569:..\..\u8g2\csrc/u8x8_d_st7565.c **** 	}
 699              		.loc 1 569 0
 700 004c 2B68     		ldr	r3, [r5]
 701 004e 9B7C     		ldrb	r3, [r3, #18]
 702 0050 AB77     		strb	r3, [r5, #30]
 703              		.loc 1 581 0
 704 0052 0120     		movs	r0, #1
 705 0054 0AE0     		b	.L50
 706              	.L54:
 573:..\..\u8g2\csrc/u8x8_d_st7565.c **** 	  u8x8->x_offset = u8x8->display_info->flipmode_x_offset;
 707              		.loc 1 573 0
 708 0056 0749     		ldr	r1, .L56+4
 709 0058 4C31     		adds	r1, r1, #76
 710 005a 2800     		movs	r0, r5
 711 005c FFF7FEFF 		bl	u8x8_cad_SendSequence
 712              	.LVL73:
 574:..\..\u8g2\csrc/u8x8_d_st7565.c **** 	}	
 713              		.loc 1 574 0
 714 0060 2B68     		ldr	r3, [r5]
 715 0062 DB7C     		ldrb	r3, [r3, #19]
 716 0064 AB77     		strb	r3, [r5, #30]
 717              		.loc 1 581 0
 718 0066 0120     		movs	r0, #1
 719 0068 00E0     		b	.L50
 720              	.L55:
 721 006a 0120     		movs	r0, #1
 722              	.L50:
 582:..\..\u8g2\csrc/u8x8_d_st7565.c **** }
 723              		.loc 1 582 0
 724              		@ sp needed
 725              	.LVL74:
 726 006c 70BD     		pop	{r4, r5, r6, pc}
 727              	.L57:
 728 006e C046     		.align	2
 729              	.L56:
 730 0070 00010000 		.word	.LANCHOR2
 731 0074 00000000 		.word	.LANCHOR0
ARM GAS  C:\Users\arh\AppData\Local\Temp\ccmCaonO.s 			page 25


 732              		.cfi_endproc
 733              	.LFE5:
 734              		.size	u8x8_d_st7565_lm6059, .-u8x8_d_st7565_lm6059
 735              		.section	.text.u8x8_d_st7565_erc12864,"ax",%progbits
 736              		.align	2
 737              		.global	u8x8_d_st7565_erc12864
 738              		.code	16
 739              		.thumb_func
 740              		.type	u8x8_d_st7565_erc12864, %function
 741              	u8x8_d_st7565_erc12864:
 742              	.LFB6:
 583:..\..\u8g2\csrc/u8x8_d_st7565.c **** 
 584:..\..\u8g2\csrc/u8x8_d_st7565.c **** 
 585:..\..\u8g2\csrc/u8x8_d_st7565.c **** /*================================================*/
 586:..\..\u8g2\csrc/u8x8_d_st7565.c **** /* ERC12864-1 (buydisplay.com) */
 587:..\..\u8g2\csrc/u8x8_d_st7565.c **** 
 588:..\..\u8g2\csrc/u8x8_d_st7565.c **** static const uint8_t u8x8_d_st7565_erc12864_init_seq[] = {
 589:..\..\u8g2\csrc/u8x8_d_st7565.c ****     
 590:..\..\u8g2\csrc/u8x8_d_st7565.c ****   U8X8_START_TRANSFER(),             	/* enable chip, delay is part of the transfer start */
 591:..\..\u8g2\csrc/u8x8_d_st7565.c ****   
 592:..\..\u8g2\csrc/u8x8_d_st7565.c ****   U8X8_C(0x0e2),            			/* soft reset */
 593:..\..\u8g2\csrc/u8x8_d_st7565.c ****   U8X8_C(0x0ae),		                /* display off */
 594:..\..\u8g2\csrc/u8x8_d_st7565.c ****   U8X8_C(0x040),		                /* set display start line to ... */
 595:..\..\u8g2\csrc/u8x8_d_st7565.c ****   
 596:..\..\u8g2\csrc/u8x8_d_st7565.c ****   U8X8_C(0x0a0),		                /* ADC set to reverse */
 597:..\..\u8g2\csrc/u8x8_d_st7565.c ****   U8X8_C(0x0c8),		                /* common output mode */
 598:..\..\u8g2\csrc/u8x8_d_st7565.c ****   //U8X8_C(0x0a1),		                /* ADC set to reverse */
 599:..\..\u8g2\csrc/u8x8_d_st7565.c ****   //U8X8_C(0x0c0),		                /* common output mode */
 600:..\..\u8g2\csrc/u8x8_d_st7565.c ****   // Flipmode
 601:..\..\u8g2\csrc/u8x8_d_st7565.c ****   // U8X8_C(0x0a0),		                /* ADC set to reverse */
 602:..\..\u8g2\csrc/u8x8_d_st7565.c ****   // U8X8_C(0x0c8),		                /* common output mode */
 603:..\..\u8g2\csrc/u8x8_d_st7565.c ****   
 604:..\..\u8g2\csrc/u8x8_d_st7565.c ****   U8X8_C(0x0a6),		                /* display normal, bit val 0: LCD pixel off. */
 605:..\..\u8g2\csrc/u8x8_d_st7565.c ****   U8X8_C(0x0a3),		                /* LCD bias 1/9 */
 606:..\..\u8g2\csrc/u8x8_d_st7565.c ****   U8X8_C(0x02f),		                /* all power  control circuits on */
 607:..\..\u8g2\csrc/u8x8_d_st7565.c ****   U8X8_CA(0x0f8, 0x000),		/* set booster ratio to 4x (ST7567 feature)*/
 608:..\..\u8g2\csrc/u8x8_d_st7565.c ****   U8X8_C(0x027),		                /* regulator, booster and follower */
 609:..\..\u8g2\csrc/u8x8_d_st7565.c ****   U8X8_CA(0x081, 0x018),		/* set contrast, contrast value, EA default: 0x016 */
 610:..\..\u8g2\csrc/u8x8_d_st7565.c ****   
 611:..\..\u8g2\csrc/u8x8_d_st7565.c ****   U8X8_C(0x0ae),		                /* display off */
 612:..\..\u8g2\csrc/u8x8_d_st7565.c ****   U8X8_C(0x0a5),		                /* enter powersafe: all pixel on, issue 142 */
 613:..\..\u8g2\csrc/u8x8_d_st7565.c ****   
 614:..\..\u8g2\csrc/u8x8_d_st7565.c ****   U8X8_END_TRANSFER(),             	/* disable chip */
 615:..\..\u8g2\csrc/u8x8_d_st7565.c ****   U8X8_END()             			/* end of sequence */
 616:..\..\u8g2\csrc/u8x8_d_st7565.c **** };
 617:..\..\u8g2\csrc/u8x8_d_st7565.c **** 
 618:..\..\u8g2\csrc/u8x8_d_st7565.c **** static const u8x8_display_info_t u8x8_st7565_erc12864_display_info =
 619:..\..\u8g2\csrc/u8x8_d_st7565.c **** {
 620:..\..\u8g2\csrc/u8x8_d_st7565.c ****   /* chip_enable_level = */ 0,
 621:..\..\u8g2\csrc/u8x8_d_st7565.c ****   /* chip_disable_level = */ 1,
 622:..\..\u8g2\csrc/u8x8_d_st7565.c ****   
 623:..\..\u8g2\csrc/u8x8_d_st7565.c ****   /* post_chip_enable_wait_ns = */ 150,	/* st7565 datasheet, table 26, tcsh */
 624:..\..\u8g2\csrc/u8x8_d_st7565.c ****   /* pre_chip_disable_wait_ns = */ 50,	/* st7565 datasheet, table 26, tcss */
 625:..\..\u8g2\csrc/u8x8_d_st7565.c ****   /* reset_pulse_width_ms = */ 1, 
 626:..\..\u8g2\csrc/u8x8_d_st7565.c ****   /* post_reset_wait_ms = */ 1, 
 627:..\..\u8g2\csrc/u8x8_d_st7565.c ****   /* sda_setup_time_ns = */ 50,		/* st7565 datasheet, table 26, tsds */
 628:..\..\u8g2\csrc/u8x8_d_st7565.c ****   /* sck_pulse_width_ns = */ 120,	/* half of cycle time (100ns according to datasheet), AVR: below 
ARM GAS  C:\Users\arh\AppData\Local\Temp\ccmCaonO.s 			page 26


 629:..\..\u8g2\csrc/u8x8_d_st7565.c ****   /* sck_clock_hz = */ 4000000UL,	/* since Arduino 1.6.0, the SPI bus speed in Hz. Should be  10000
 630:..\..\u8g2\csrc/u8x8_d_st7565.c ****   /* spi_mode = */ 0,		/* active high, rising edge */
 631:..\..\u8g2\csrc/u8x8_d_st7565.c ****   /* i2c_bus_clock_100kHz = */ 4,
 632:..\..\u8g2\csrc/u8x8_d_st7565.c ****   /* data_setup_time_ns = */ 40,	/* st7565 datasheet, table 24, tds8 */
 633:..\..\u8g2\csrc/u8x8_d_st7565.c ****   /* write_pulse_width_ns = */ 80,	/* st7565 datasheet, table 24, tcclw */
 634:..\..\u8g2\csrc/u8x8_d_st7565.c ****   /* tile_width = */ 16,		/* width of 16*8=128 pixel */
 635:..\..\u8g2\csrc/u8x8_d_st7565.c ****   /* tile_hight = */ 8,
 636:..\..\u8g2\csrc/u8x8_d_st7565.c ****   /* default_x_offset = */ 0,
 637:..\..\u8g2\csrc/u8x8_d_st7565.c ****   /* flipmode_x_offset = */ 4,
 638:..\..\u8g2\csrc/u8x8_d_st7565.c ****   /* pixel_width = */ 128,
 639:..\..\u8g2\csrc/u8x8_d_st7565.c ****   /* pixel_height = */ 64
 640:..\..\u8g2\csrc/u8x8_d_st7565.c **** };
 641:..\..\u8g2\csrc/u8x8_d_st7565.c **** 
 642:..\..\u8g2\csrc/u8x8_d_st7565.c **** uint8_t u8x8_d_st7565_erc12864(u8x8_t *u8x8, uint8_t msg, uint8_t arg_int, void *arg_ptr)
 643:..\..\u8g2\csrc/u8x8_d_st7565.c **** {
 743              		.loc 1 643 0
 744              		.cfi_startproc
 745              		@ args = 0, pretend = 0, frame = 0
 746              		@ frame_needed = 0, uses_anonymous_args = 0
 747              	.LVL75:
 748 0000 70B5     		push	{r4, r5, r6, lr}
 749              		.cfi_def_cfa_offset 16
 750              		.cfi_offset 4, -16
 751              		.cfi_offset 5, -12
 752              		.cfi_offset 6, -8
 753              		.cfi_offset 14, -4
 754 0002 0500     		movs	r5, r0
 755 0004 0C00     		movs	r4, r1
 756 0006 1600     		movs	r6, r2
 644:..\..\u8g2\csrc/u8x8_d_st7565.c ****   /* call common procedure first and handle messages there */
 645:..\..\u8g2\csrc/u8x8_d_st7565.c ****   if ( u8x8_d_st7565_common(u8x8, msg, arg_int, arg_ptr) == 0 )
 757              		.loc 1 645 0
 758 0008 FFF7FEFF 		bl	u8x8_d_st7565_common
 759              	.LVL76:
 760 000c 0028     		cmp	r0, #0
 761 000e 2CD1     		bne	.L64
 646:..\..\u8g2\csrc/u8x8_d_st7565.c ****   {
 647:..\..\u8g2\csrc/u8x8_d_st7565.c ****     /* msg not handled, then try here */
 648:..\..\u8g2\csrc/u8x8_d_st7565.c ****     switch(msg)
 762              		.loc 1 648 0
 763 0010 0A2C     		cmp	r4, #10
 764 0012 0AD0     		beq	.L60
 765 0014 0D2C     		cmp	r4, #13
 766 0016 12D0     		beq	.L61
 767 0018 092C     		cmp	r4, #9
 768 001a 27D1     		bne	.L59
 649:..\..\u8g2\csrc/u8x8_d_st7565.c ****     {
 650:..\..\u8g2\csrc/u8x8_d_st7565.c ****       case U8X8_MSG_DISPLAY_SETUP_MEMORY:
 651:..\..\u8g2\csrc/u8x8_d_st7565.c **** 	u8x8_d_helper_display_setup_memory(u8x8, &u8x8_st7565_erc12864_display_info);
 769              		.loc 1 651 0
 770 001c 1449     		ldr	r1, .L65
 771 001e 4431     		adds	r1, r1, #68
 772 0020 2800     		movs	r0, r5
 773 0022 FFF7FEFF 		bl	u8x8_d_helper_display_setup_memory
 774              	.LVL77:
 652:..\..\u8g2\csrc/u8x8_d_st7565.c **** 	break;
 653:..\..\u8g2\csrc/u8x8_d_st7565.c ****       case U8X8_MSG_DISPLAY_INIT:
ARM GAS  C:\Users\arh\AppData\Local\Temp\ccmCaonO.s 			page 27


 654:..\..\u8g2\csrc/u8x8_d_st7565.c **** 	u8x8_d_helper_display_init(u8x8);
 655:..\..\u8g2\csrc/u8x8_d_st7565.c **** 	u8x8_cad_SendSequence(u8x8, u8x8_d_st7565_erc12864_init_seq);
 656:..\..\u8g2\csrc/u8x8_d_st7565.c **** 	break;
 657:..\..\u8g2\csrc/u8x8_d_st7565.c ****       case U8X8_MSG_DISPLAY_SET_FLIP_MODE:
 658:..\..\u8g2\csrc/u8x8_d_st7565.c **** 	if ( arg_int == 0 )
 659:..\..\u8g2\csrc/u8x8_d_st7565.c **** 	{
 660:..\..\u8g2\csrc/u8x8_d_st7565.c **** 	  u8x8_cad_SendSequence(u8x8, u8x8_d_st7565_flip1_seq);
 661:..\..\u8g2\csrc/u8x8_d_st7565.c **** 	  u8x8->x_offset = u8x8->display_info->default_x_offset;
 662:..\..\u8g2\csrc/u8x8_d_st7565.c **** 	}
 663:..\..\u8g2\csrc/u8x8_d_st7565.c **** 	else
 664:..\..\u8g2\csrc/u8x8_d_st7565.c **** 	{
 665:..\..\u8g2\csrc/u8x8_d_st7565.c **** 	  u8x8_cad_SendSequence(u8x8, u8x8_d_st7565_flip0_seq);
 666:..\..\u8g2\csrc/u8x8_d_st7565.c **** 	  u8x8->x_offset = u8x8->display_info->flipmode_x_offset;
 667:..\..\u8g2\csrc/u8x8_d_st7565.c **** 	}	
 668:..\..\u8g2\csrc/u8x8_d_st7565.c **** 	break;
 669:..\..\u8g2\csrc/u8x8_d_st7565.c ****       default:
 670:..\..\u8g2\csrc/u8x8_d_st7565.c **** 	return 0;		/* msg unknown */
 671:..\..\u8g2\csrc/u8x8_d_st7565.c ****     }
 672:..\..\u8g2\csrc/u8x8_d_st7565.c ****   }
 673:..\..\u8g2\csrc/u8x8_d_st7565.c ****   return 1;
 775              		.loc 1 673 0
 776 0026 0120     		movs	r0, #1
 652:..\..\u8g2\csrc/u8x8_d_st7565.c **** 	break;
 777              		.loc 1 652 0
 778 0028 20E0     		b	.L59
 779              	.L60:
 654:..\..\u8g2\csrc/u8x8_d_st7565.c **** 	u8x8_cad_SendSequence(u8x8, u8x8_d_st7565_erc12864_init_seq);
 780              		.loc 1 654 0
 781 002a 2800     		movs	r0, r5
 782 002c FFF7FEFF 		bl	u8x8_d_helper_display_init
 783              	.LVL78:
 655:..\..\u8g2\csrc/u8x8_d_st7565.c **** 	break;
 784              		.loc 1 655 0
 785 0030 0F49     		ldr	r1, .L65
 786 0032 5C31     		adds	r1, r1, #92
 787 0034 2800     		movs	r0, r5
 788 0036 FFF7FEFF 		bl	u8x8_cad_SendSequence
 789              	.LVL79:
 790              		.loc 1 673 0
 791 003a 0120     		movs	r0, #1
 656:..\..\u8g2\csrc/u8x8_d_st7565.c ****       case U8X8_MSG_DISPLAY_SET_FLIP_MODE:
 792              		.loc 1 656 0
 793 003c 16E0     		b	.L59
 794              	.L61:
 658:..\..\u8g2\csrc/u8x8_d_st7565.c **** 	{
 795              		.loc 1 658 0
 796 003e 002E     		cmp	r6, #0
 797 0040 09D1     		bne	.L63
 660:..\..\u8g2\csrc/u8x8_d_st7565.c **** 	  u8x8->x_offset = u8x8->display_info->default_x_offset;
 798              		.loc 1 660 0
 799 0042 0C49     		ldr	r1, .L65+4
 800 0044 5431     		adds	r1, r1, #84
 801 0046 2800     		movs	r0, r5
 802 0048 FFF7FEFF 		bl	u8x8_cad_SendSequence
 803              	.LVL80:
 661:..\..\u8g2\csrc/u8x8_d_st7565.c **** 	}
 804              		.loc 1 661 0
ARM GAS  C:\Users\arh\AppData\Local\Temp\ccmCaonO.s 			page 28


 805 004c 2B68     		ldr	r3, [r5]
 806 004e 9B7C     		ldrb	r3, [r3, #18]
 807 0050 AB77     		strb	r3, [r5, #30]
 808              		.loc 1 673 0
 809 0052 0120     		movs	r0, #1
 810 0054 0AE0     		b	.L59
 811              	.L63:
 665:..\..\u8g2\csrc/u8x8_d_st7565.c **** 	  u8x8->x_offset = u8x8->display_info->flipmode_x_offset;
 812              		.loc 1 665 0
 813 0056 0749     		ldr	r1, .L65+4
 814 0058 4C31     		adds	r1, r1, #76
 815 005a 2800     		movs	r0, r5
 816 005c FFF7FEFF 		bl	u8x8_cad_SendSequence
 817              	.LVL81:
 666:..\..\u8g2\csrc/u8x8_d_st7565.c **** 	}	
 818              		.loc 1 666 0
 819 0060 2B68     		ldr	r3, [r5]
 820 0062 DB7C     		ldrb	r3, [r3, #19]
 821 0064 AB77     		strb	r3, [r5, #30]
 822              		.loc 1 673 0
 823 0066 0120     		movs	r0, #1
 824 0068 00E0     		b	.L59
 825              	.L64:
 826 006a 0120     		movs	r0, #1
 827              	.L59:
 674:..\..\u8g2\csrc/u8x8_d_st7565.c **** }
 828              		.loc 1 674 0
 829              		@ sp needed
 830              	.LVL82:
 831 006c 70BD     		pop	{r4, r5, r6, pc}
 832              	.L66:
 833 006e C046     		.align	2
 834              	.L65:
 835 0070 00010000 		.word	.LANCHOR2
 836 0074 00000000 		.word	.LANCHOR0
 837              		.cfi_endproc
 838              	.LFE6:
 839              		.size	u8x8_d_st7565_erc12864, .-u8x8_d_st7565_erc12864
 840              		.section	.text.u8x8_d_nt7534_tg12864r,"ax",%progbits
 841              		.align	2
 842              		.global	u8x8_d_nt7534_tg12864r
 843              		.code	16
 844              		.thumb_func
 845              		.type	u8x8_d_nt7534_tg12864r, %function
 846              	u8x8_d_nt7534_tg12864r:
 847              	.LFB7:
 675:..\..\u8g2\csrc/u8x8_d_st7565.c **** 
 676:..\..\u8g2\csrc/u8x8_d_st7565.c **** 
 677:..\..\u8g2\csrc/u8x8_d_st7565.c **** /*================================================*/
 678:..\..\u8g2\csrc/u8x8_d_st7565.c **** /* NT7534, TG12864R */
 679:..\..\u8g2\csrc/u8x8_d_st7565.c **** /* The NT7534 has an extended command set for the ST7565, however this is not used. */
 680:..\..\u8g2\csrc/u8x8_d_st7565.c **** /* The TG12864R display is also shifted in lines, like the LM6059/Adafruit display */
 681:..\..\u8g2\csrc/u8x8_d_st7565.c **** /* However contrast seems to be different */
 682:..\..\u8g2\csrc/u8x8_d_st7565.c **** 
 683:..\..\u8g2\csrc/u8x8_d_st7565.c **** static const uint8_t u8x8_d_nt7534_tg12864r_init_seq[] = {
 684:..\..\u8g2\csrc/u8x8_d_st7565.c ****     
 685:..\..\u8g2\csrc/u8x8_d_st7565.c ****   U8X8_START_TRANSFER(),             	/* enable chip, delay is part of the transfer start */
ARM GAS  C:\Users\arh\AppData\Local\Temp\ccmCaonO.s 			page 29


 686:..\..\u8g2\csrc/u8x8_d_st7565.c ****   
 687:..\..\u8g2\csrc/u8x8_d_st7565.c ****   U8X8_C(0x0e2),            			/* soft reset */
 688:..\..\u8g2\csrc/u8x8_d_st7565.c ****   U8X8_C(0x0ae),		                /* display off */
 689:..\..\u8g2\csrc/u8x8_d_st7565.c ****   U8X8_C(0x060),		                /* set display start line to ... */
 690:..\..\u8g2\csrc/u8x8_d_st7565.c ****   
 691:..\..\u8g2\csrc/u8x8_d_st7565.c ****   U8X8_C(0x0a0),		                /* ADC set to reverse */
 692:..\..\u8g2\csrc/u8x8_d_st7565.c ****   U8X8_C(0x0c8),		                /* common output mode */
 693:..\..\u8g2\csrc/u8x8_d_st7565.c ****   // Flipmode
 694:..\..\u8g2\csrc/u8x8_d_st7565.c ****   //U8X8_C(0x0a1),		                /* ADC set to reverse */
 695:..\..\u8g2\csrc/u8x8_d_st7565.c ****   //U8X8_C(0x0c0),		                /* common output mode */
 696:..\..\u8g2\csrc/u8x8_d_st7565.c ****   
 697:..\..\u8g2\csrc/u8x8_d_st7565.c ****   U8X8_C(0x0a6),		                /* display normal, bit val 0: LCD pixel off. */
 698:..\..\u8g2\csrc/u8x8_d_st7565.c ****   U8X8_C(0x0a3),		                /* LCD bias 1/9 */
 699:..\..\u8g2\csrc/u8x8_d_st7565.c ****   U8X8_C(0x02f),		                /* all power  control circuits on */
 700:..\..\u8g2\csrc/u8x8_d_st7565.c ****   //U8X8_CA(0x0f8, 0x000),		/* set booster ratio to 4x (ST7567 feature)*/
 701:..\..\u8g2\csrc/u8x8_d_st7565.c ****   U8X8_C(0x027),		                /* regulator, booster and follower */
 702:..\..\u8g2\csrc/u8x8_d_st7565.c ****   U8X8_CA(0x081, 0x009),		/* set contrast, contrast value, EA default: 0x016 */
 703:..\..\u8g2\csrc/u8x8_d_st7565.c ****   
 704:..\..\u8g2\csrc/u8x8_d_st7565.c ****   U8X8_C(0x0ae),		                /* display off */
 705:..\..\u8g2\csrc/u8x8_d_st7565.c ****   U8X8_C(0x0a5),		                /* enter powersafe: all pixel on, issue 142 */
 706:..\..\u8g2\csrc/u8x8_d_st7565.c ****   
 707:..\..\u8g2\csrc/u8x8_d_st7565.c ****   U8X8_END_TRANSFER(),             	/* disable chip */
 708:..\..\u8g2\csrc/u8x8_d_st7565.c ****   U8X8_END()             			/* end of sequence */
 709:..\..\u8g2\csrc/u8x8_d_st7565.c **** };
 710:..\..\u8g2\csrc/u8x8_d_st7565.c **** 
 711:..\..\u8g2\csrc/u8x8_d_st7565.c **** uint8_t u8x8_d_nt7534_tg12864r(u8x8_t *u8x8, uint8_t msg, uint8_t arg_int, void *arg_ptr)
 712:..\..\u8g2\csrc/u8x8_d_st7565.c **** {
 848              		.loc 1 712 0
 849              		.cfi_startproc
 850              		@ args = 0, pretend = 0, frame = 0
 851              		@ frame_needed = 0, uses_anonymous_args = 0
 852              	.LVL83:
 853 0000 70B5     		push	{r4, r5, r6, lr}
 854              		.cfi_def_cfa_offset 16
 855              		.cfi_offset 4, -16
 856              		.cfi_offset 5, -12
 857              		.cfi_offset 6, -8
 858              		.cfi_offset 14, -4
 859 0002 0500     		movs	r5, r0
 860 0004 0C00     		movs	r4, r1
 861 0006 1600     		movs	r6, r2
 713:..\..\u8g2\csrc/u8x8_d_st7565.c ****   /* call common procedure first and handle messages there */
 714:..\..\u8g2\csrc/u8x8_d_st7565.c ****   if ( u8x8_d_st7565_common(u8x8, msg, arg_int, arg_ptr) == 0 )
 862              		.loc 1 714 0
 863 0008 FFF7FEFF 		bl	u8x8_d_st7565_common
 864              	.LVL84:
 865 000c 0028     		cmp	r0, #0
 866 000e 2BD1     		bne	.L73
 715:..\..\u8g2\csrc/u8x8_d_st7565.c ****   {
 716:..\..\u8g2\csrc/u8x8_d_st7565.c ****     /* msg not handled, then try here */
 717:..\..\u8g2\csrc/u8x8_d_st7565.c ****     switch(msg)
 867              		.loc 1 717 0
 868 0010 0A2C     		cmp	r4, #10
 869 0012 0AD0     		beq	.L69
 870 0014 0D2C     		cmp	r4, #13
 871 0016 11D0     		beq	.L70
 872 0018 092C     		cmp	r4, #9
ARM GAS  C:\Users\arh\AppData\Local\Temp\ccmCaonO.s 			page 30


 873 001a 26D1     		bne	.L68
 718:..\..\u8g2\csrc/u8x8_d_st7565.c ****     {
 719:..\..\u8g2\csrc/u8x8_d_st7565.c ****       case U8X8_MSG_DISPLAY_SETUP_MEMORY:
 720:..\..\u8g2\csrc/u8x8_d_st7565.c **** 	/* reuse the LM6059 data structure... this display seems to have similar shifts and offsets */
 721:..\..\u8g2\csrc/u8x8_d_st7565.c **** 	u8x8_d_helper_display_setup_memory(u8x8, &u8x8_st7565_lm6059_display_info);
 874              		.loc 1 721 0
 875 001c 1349     		ldr	r1, .L74
 876 001e 0831     		adds	r1, r1, #8
 877 0020 2800     		movs	r0, r5
 878 0022 FFF7FEFF 		bl	u8x8_d_helper_display_setup_memory
 879              	.LVL85:
 722:..\..\u8g2\csrc/u8x8_d_st7565.c **** 	break;
 723:..\..\u8g2\csrc/u8x8_d_st7565.c ****       case U8X8_MSG_DISPLAY_INIT:
 724:..\..\u8g2\csrc/u8x8_d_st7565.c **** 	u8x8_d_helper_display_init(u8x8);
 725:..\..\u8g2\csrc/u8x8_d_st7565.c ****       
 726:..\..\u8g2\csrc/u8x8_d_st7565.c **** 	//u8x8_cad_SendSequence(u8x8, u8x8_d_st7565_lm6059_init_seq);
 727:..\..\u8g2\csrc/u8x8_d_st7565.c **** 	u8x8_cad_SendSequence(u8x8, u8x8_d_nt7534_tg12864r_init_seq);
 728:..\..\u8g2\csrc/u8x8_d_st7565.c **** 	break;
 729:..\..\u8g2\csrc/u8x8_d_st7565.c ****       case U8X8_MSG_DISPLAY_SET_FLIP_MODE:
 730:..\..\u8g2\csrc/u8x8_d_st7565.c **** 	if ( arg_int == 0 )
 731:..\..\u8g2\csrc/u8x8_d_st7565.c **** 	{
 732:..\..\u8g2\csrc/u8x8_d_st7565.c **** 	  u8x8_cad_SendSequence(u8x8, u8x8_d_st7565_flip1_seq);
 733:..\..\u8g2\csrc/u8x8_d_st7565.c **** 	  u8x8->x_offset = u8x8->display_info->default_x_offset;
 734:..\..\u8g2\csrc/u8x8_d_st7565.c **** 	}
 735:..\..\u8g2\csrc/u8x8_d_st7565.c **** 	else
 736:..\..\u8g2\csrc/u8x8_d_st7565.c **** 	{
 737:..\..\u8g2\csrc/u8x8_d_st7565.c **** 	  u8x8_cad_SendSequence(u8x8, u8x8_d_st7565_flip0_seq);
 738:..\..\u8g2\csrc/u8x8_d_st7565.c **** 	  u8x8->x_offset = u8x8->display_info->flipmode_x_offset;
 739:..\..\u8g2\csrc/u8x8_d_st7565.c **** 	}	
 740:..\..\u8g2\csrc/u8x8_d_st7565.c **** 	break;
 741:..\..\u8g2\csrc/u8x8_d_st7565.c ****       default:
 742:..\..\u8g2\csrc/u8x8_d_st7565.c **** 	return 0;		/* msg unknown */
 743:..\..\u8g2\csrc/u8x8_d_st7565.c ****     }
 744:..\..\u8g2\csrc/u8x8_d_st7565.c ****   }
 745:..\..\u8g2\csrc/u8x8_d_st7565.c ****   return 1;
 880              		.loc 1 745 0
 881 0026 0120     		movs	r0, #1
 722:..\..\u8g2\csrc/u8x8_d_st7565.c **** 	break;
 882              		.loc 1 722 0
 883 0028 1FE0     		b	.L68
 884              	.L69:
 724:..\..\u8g2\csrc/u8x8_d_st7565.c ****       
 885              		.loc 1 724 0
 886 002a 2800     		movs	r0, r5
 887 002c FFF7FEFF 		bl	u8x8_d_helper_display_init
 888              	.LVL86:
 727:..\..\u8g2\csrc/u8x8_d_st7565.c **** 	break;
 889              		.loc 1 727 0
 890 0030 0F49     		ldr	r1, .L74+4
 891 0032 2800     		movs	r0, r5
 892 0034 FFF7FEFF 		bl	u8x8_cad_SendSequence
 893              	.LVL87:
 894              		.loc 1 745 0
 895 0038 0120     		movs	r0, #1
 728:..\..\u8g2\csrc/u8x8_d_st7565.c ****       case U8X8_MSG_DISPLAY_SET_FLIP_MODE:
 896              		.loc 1 728 0
 897 003a 16E0     		b	.L68
ARM GAS  C:\Users\arh\AppData\Local\Temp\ccmCaonO.s 			page 31


 898              	.L70:
 730:..\..\u8g2\csrc/u8x8_d_st7565.c **** 	{
 899              		.loc 1 730 0
 900 003c 002E     		cmp	r6, #0
 901 003e 09D1     		bne	.L72
 732:..\..\u8g2\csrc/u8x8_d_st7565.c **** 	  u8x8->x_offset = u8x8->display_info->default_x_offset;
 902              		.loc 1 732 0
 903 0040 0C49     		ldr	r1, .L74+8
 904 0042 5431     		adds	r1, r1, #84
 905 0044 2800     		movs	r0, r5
 906 0046 FFF7FEFF 		bl	u8x8_cad_SendSequence
 907              	.LVL88:
 733:..\..\u8g2\csrc/u8x8_d_st7565.c **** 	}
 908              		.loc 1 733 0
 909 004a 2B68     		ldr	r3, [r5]
 910 004c 9B7C     		ldrb	r3, [r3, #18]
 911 004e AB77     		strb	r3, [r5, #30]
 912              		.loc 1 745 0
 913 0050 0120     		movs	r0, #1
 914 0052 0AE0     		b	.L68
 915              	.L72:
 737:..\..\u8g2\csrc/u8x8_d_st7565.c **** 	  u8x8->x_offset = u8x8->display_info->flipmode_x_offset;
 916              		.loc 1 737 0
 917 0054 0749     		ldr	r1, .L74+8
 918 0056 4C31     		adds	r1, r1, #76
 919 0058 2800     		movs	r0, r5
 920 005a FFF7FEFF 		bl	u8x8_cad_SendSequence
 921              	.LVL89:
 738:..\..\u8g2\csrc/u8x8_d_st7565.c **** 	}	
 922              		.loc 1 738 0
 923 005e 2B68     		ldr	r3, [r5]
 924 0060 DB7C     		ldrb	r3, [r3, #19]
 925 0062 AB77     		strb	r3, [r5, #30]
 926              		.loc 1 745 0
 927 0064 0120     		movs	r0, #1
 928 0066 00E0     		b	.L68
 929              	.L73:
 930 0068 0120     		movs	r0, #1
 931              	.L68:
 746:..\..\u8g2\csrc/u8x8_d_st7565.c **** }
 932              		.loc 1 746 0
 933              		@ sp needed
 934              	.LVL90:
 935 006a 70BD     		pop	{r4, r5, r6, pc}
 936              	.L75:
 937              		.align	2
 938              	.L74:
 939 006c 00010000 		.word	.LANCHOR2
 940 0070 80010000 		.word	.LANCHOR3
 941 0074 00000000 		.word	.LANCHOR0
 942              		.cfi_endproc
 943              	.LFE7:
 944              		.size	u8x8_d_nt7534_tg12864r, .-u8x8_d_nt7534_tg12864r
 945              		.section	.text.u8x8_d_st7565_ea_dogm132,"ax",%progbits
 946              		.align	2
 947              		.global	u8x8_d_st7565_ea_dogm132
 948              		.code	16
ARM GAS  C:\Users\arh\AppData\Local\Temp\ccmCaonO.s 			page 32


 949              		.thumb_func
 950              		.type	u8x8_d_st7565_ea_dogm132, %function
 951              	u8x8_d_st7565_ea_dogm132:
 952              	.LFB8:
 747:..\..\u8g2\csrc/u8x8_d_st7565.c **** 
 748:..\..\u8g2\csrc/u8x8_d_st7565.c **** 
 749:..\..\u8g2\csrc/u8x8_d_st7565.c **** /*================================================*/
 750:..\..\u8g2\csrc/u8x8_d_st7565.c **** /* EA DOGM132 */
 751:..\..\u8g2\csrc/u8x8_d_st7565.c **** 
 752:..\..\u8g2\csrc/u8x8_d_st7565.c **** static const u8x8_display_info_t u8x8_st7565_dogm132_display_info =
 753:..\..\u8g2\csrc/u8x8_d_st7565.c **** {
 754:..\..\u8g2\csrc/u8x8_d_st7565.c ****   /* chip_enable_level = */ 0,
 755:..\..\u8g2\csrc/u8x8_d_st7565.c ****   /* chip_disable_level = */ 1,
 756:..\..\u8g2\csrc/u8x8_d_st7565.c ****   
 757:..\..\u8g2\csrc/u8x8_d_st7565.c ****   /* post_chip_enable_wait_ns = */ 150,	/* st7565 datasheet, table 26, tcsh */
 758:..\..\u8g2\csrc/u8x8_d_st7565.c ****   /* pre_chip_disable_wait_ns = */ 50,	/* st7565 datasheet, table 26, tcss */
 759:..\..\u8g2\csrc/u8x8_d_st7565.c ****   /* reset_pulse_width_ms = */ 1, 
 760:..\..\u8g2\csrc/u8x8_d_st7565.c ****   /* post_reset_wait_ms = */ 1, 
 761:..\..\u8g2\csrc/u8x8_d_st7565.c ****   /* sda_setup_time_ns = */ 50,		/* st7565 datasheet, table 26, tsds */
 762:..\..\u8g2\csrc/u8x8_d_st7565.c ****   /* sck_pulse_width_ns = */ 120,	/* half of cycle time (100ns according to datasheet), AVR: below 
 763:..\..\u8g2\csrc/u8x8_d_st7565.c ****   /* sck_clock_hz = */ 4000000UL,	/* since Arduino 1.6.0, the SPI bus speed in Hz. Should be  10000
 764:..\..\u8g2\csrc/u8x8_d_st7565.c ****   /* spi_mode = */ 0,		/* active high, rising edge */
 765:..\..\u8g2\csrc/u8x8_d_st7565.c ****   /* i2c_bus_clock_100kHz = */ 4,
 766:..\..\u8g2\csrc/u8x8_d_st7565.c ****   /* data_setup_time_ns = */ 40,	/* st7565 datasheet, table 24, tds8 */
 767:..\..\u8g2\csrc/u8x8_d_st7565.c ****   /* write_pulse_width_ns = */ 80,	/* st7565 datasheet, table 24, tcclw */
 768:..\..\u8g2\csrc/u8x8_d_st7565.c ****   /* tile_width = */ 17,		/* width of 16*8=136 pixel */
 769:..\..\u8g2\csrc/u8x8_d_st7565.c ****   /* tile_hight = */ 4,
 770:..\..\u8g2\csrc/u8x8_d_st7565.c ****   /* default_x_offset = */ 0,
 771:..\..\u8g2\csrc/u8x8_d_st7565.c ****   /* flipmode_x_offset = */ 0,
 772:..\..\u8g2\csrc/u8x8_d_st7565.c ****   /* pixel_width = */ 132,
 773:..\..\u8g2\csrc/u8x8_d_st7565.c ****   /* pixel_height = */ 32
 774:..\..\u8g2\csrc/u8x8_d_st7565.c **** };
 775:..\..\u8g2\csrc/u8x8_d_st7565.c **** 
 776:..\..\u8g2\csrc/u8x8_d_st7565.c **** 
 777:..\..\u8g2\csrc/u8x8_d_st7565.c **** static const uint8_t u8x8_d_st7565_dogm132_init_seq[] = {
 778:..\..\u8g2\csrc/u8x8_d_st7565.c ****     
 779:..\..\u8g2\csrc/u8x8_d_st7565.c ****   U8X8_START_TRANSFER(),             	/* enable chip, delay is part of the transfer start */
 780:..\..\u8g2\csrc/u8x8_d_st7565.c ****   
 781:..\..\u8g2\csrc/u8x8_d_st7565.c ****   U8X8_C(0x0e2),            			/* soft reset */
 782:..\..\u8g2\csrc/u8x8_d_st7565.c ****   U8X8_C(0x0ae),		                /* display off */
 783:..\..\u8g2\csrc/u8x8_d_st7565.c ****   U8X8_C(0x040),		                /* set display start line to 0 */
 784:..\..\u8g2\csrc/u8x8_d_st7565.c ****   
 785:..\..\u8g2\csrc/u8x8_d_st7565.c ****   U8X8_C(0x0a1),		                /* ADC set to reverse */
 786:..\..\u8g2\csrc/u8x8_d_st7565.c ****   U8X8_C(0x0c0),		                /* common output mode */
 787:..\..\u8g2\csrc/u8x8_d_st7565.c ****   // Flipmode
 788:..\..\u8g2\csrc/u8x8_d_st7565.c ****   //U8X8_C(0x0a0),		                /* ADC set to reverse */
 789:..\..\u8g2\csrc/u8x8_d_st7565.c ****   //U8X8_C(0x0c8),		                /* common output mode */
 790:..\..\u8g2\csrc/u8x8_d_st7565.c ****   
 791:..\..\u8g2\csrc/u8x8_d_st7565.c ****   U8X8_C(0x0a6),		                /* display normal, bit val 0: LCD pixel off. */
 792:..\..\u8g2\csrc/u8x8_d_st7565.c ****   U8X8_C(0x0a2),		                /* LCD bias 1/9 */
 793:..\..\u8g2\csrc/u8x8_d_st7565.c ****   U8X8_C(0x02f),		                /* all power  control circuits on */
 794:..\..\u8g2\csrc/u8x8_d_st7565.c ****   U8X8_CA(0x0f8, 0x000),		/* set booster ratio to 4x */
 795:..\..\u8g2\csrc/u8x8_d_st7565.c ****   U8X8_C(0x023),		                /* set V0 voltage resistor ratio to large*/
 796:..\..\u8g2\csrc/u8x8_d_st7565.c ****   U8X8_CA(0x081, 0x01f),		/* set contrast, contrast value EA DOGM132 */
 797:..\..\u8g2\csrc/u8x8_d_st7565.c ****   
 798:..\..\u8g2\csrc/u8x8_d_st7565.c ****   U8X8_C(0x0ae),		                /* display off */
 799:..\..\u8g2\csrc/u8x8_d_st7565.c ****   U8X8_C(0x0a5),		                /* enter powersafe: all pixel on, issue 142 */
ARM GAS  C:\Users\arh\AppData\Local\Temp\ccmCaonO.s 			page 33


 800:..\..\u8g2\csrc/u8x8_d_st7565.c ****   
 801:..\..\u8g2\csrc/u8x8_d_st7565.c ****   U8X8_END_TRANSFER(),             	/* disable chip */
 802:..\..\u8g2\csrc/u8x8_d_st7565.c ****   U8X8_END()             			/* end of sequence */
 803:..\..\u8g2\csrc/u8x8_d_st7565.c **** };
 804:..\..\u8g2\csrc/u8x8_d_st7565.c **** 
 805:..\..\u8g2\csrc/u8x8_d_st7565.c **** uint8_t u8x8_d_st7565_ea_dogm132(u8x8_t *u8x8, uint8_t msg, uint8_t arg_int, void *arg_ptr)
 806:..\..\u8g2\csrc/u8x8_d_st7565.c **** {
 953              		.loc 1 806 0
 954              		.cfi_startproc
 955              		@ args = 0, pretend = 0, frame = 0
 956              		@ frame_needed = 0, uses_anonymous_args = 0
 957              	.LVL91:
 958 0000 70B5     		push	{r4, r5, r6, lr}
 959              		.cfi_def_cfa_offset 16
 960              		.cfi_offset 4, -16
 961              		.cfi_offset 5, -12
 962              		.cfi_offset 6, -8
 963              		.cfi_offset 14, -4
 964 0002 0500     		movs	r5, r0
 965 0004 0C00     		movs	r4, r1
 966 0006 1600     		movs	r6, r2
 807:..\..\u8g2\csrc/u8x8_d_st7565.c ****   /* call common procedure first and handle messages there */
 808:..\..\u8g2\csrc/u8x8_d_st7565.c ****   if ( u8x8_d_st7565_common(u8x8, msg, arg_int, arg_ptr) == 0 )
 967              		.loc 1 808 0
 968 0008 FFF7FEFF 		bl	u8x8_d_st7565_common
 969              	.LVL92:
 970 000c 0028     		cmp	r0, #0
 971 000e 2CD1     		bne	.L82
 809:..\..\u8g2\csrc/u8x8_d_st7565.c ****   {
 810:..\..\u8g2\csrc/u8x8_d_st7565.c ****     /* msg not handled, then try here */
 811:..\..\u8g2\csrc/u8x8_d_st7565.c ****     switch(msg)
 972              		.loc 1 811 0
 973 0010 0A2C     		cmp	r4, #10
 974 0012 0AD0     		beq	.L78
 975 0014 0D2C     		cmp	r4, #13
 976 0016 12D0     		beq	.L79
 977 0018 092C     		cmp	r4, #9
 978 001a 27D1     		bne	.L77
 812:..\..\u8g2\csrc/u8x8_d_st7565.c ****     {
 813:..\..\u8g2\csrc/u8x8_d_st7565.c ****       case U8X8_MSG_DISPLAY_SETUP_MEMORY:
 814:..\..\u8g2\csrc/u8x8_d_st7565.c **** 	u8x8_d_helper_display_setup_memory(u8x8, &u8x8_st7565_dogm132_display_info);
 979              		.loc 1 814 0
 980 001c 1449     		ldr	r1, .L83
 981 001e 2031     		adds	r1, r1, #32
 982 0020 2800     		movs	r0, r5
 983 0022 FFF7FEFF 		bl	u8x8_d_helper_display_setup_memory
 984              	.LVL93:
 815:..\..\u8g2\csrc/u8x8_d_st7565.c **** 	break;
 816:..\..\u8g2\csrc/u8x8_d_st7565.c ****       case U8X8_MSG_DISPLAY_INIT:
 817:..\..\u8g2\csrc/u8x8_d_st7565.c **** 	u8x8_d_helper_display_init(u8x8);
 818:..\..\u8g2\csrc/u8x8_d_st7565.c **** 	u8x8_cad_SendSequence(u8x8, u8x8_d_st7565_dogm132_init_seq);
 819:..\..\u8g2\csrc/u8x8_d_st7565.c **** 	break;
 820:..\..\u8g2\csrc/u8x8_d_st7565.c ****       case U8X8_MSG_DISPLAY_SET_FLIP_MODE:
 821:..\..\u8g2\csrc/u8x8_d_st7565.c **** 	if ( arg_int == 0 )
 822:..\..\u8g2\csrc/u8x8_d_st7565.c **** 	{
 823:..\..\u8g2\csrc/u8x8_d_st7565.c **** 	  u8x8_cad_SendSequence(u8x8, u8x8_d_st7565_flip0_seq);
 824:..\..\u8g2\csrc/u8x8_d_st7565.c **** 	  u8x8->x_offset = u8x8->display_info->default_x_offset;
ARM GAS  C:\Users\arh\AppData\Local\Temp\ccmCaonO.s 			page 34


 825:..\..\u8g2\csrc/u8x8_d_st7565.c **** 	}
 826:..\..\u8g2\csrc/u8x8_d_st7565.c **** 	else
 827:..\..\u8g2\csrc/u8x8_d_st7565.c **** 	{
 828:..\..\u8g2\csrc/u8x8_d_st7565.c **** 	  u8x8_cad_SendSequence(u8x8, u8x8_d_st7565_flip1_seq);
 829:..\..\u8g2\csrc/u8x8_d_st7565.c **** 	  u8x8->x_offset = u8x8->display_info->flipmode_x_offset;
 830:..\..\u8g2\csrc/u8x8_d_st7565.c **** 	}	
 831:..\..\u8g2\csrc/u8x8_d_st7565.c **** 	break;
 832:..\..\u8g2\csrc/u8x8_d_st7565.c ****       default:
 833:..\..\u8g2\csrc/u8x8_d_st7565.c **** 	return 0;		/* msg unknown */
 834:..\..\u8g2\csrc/u8x8_d_st7565.c ****     }
 835:..\..\u8g2\csrc/u8x8_d_st7565.c ****   }
 836:..\..\u8g2\csrc/u8x8_d_st7565.c ****   return 1;
 985              		.loc 1 836 0
 986 0026 0120     		movs	r0, #1
 815:..\..\u8g2\csrc/u8x8_d_st7565.c **** 	break;
 987              		.loc 1 815 0
 988 0028 20E0     		b	.L77
 989              	.L78:
 817:..\..\u8g2\csrc/u8x8_d_st7565.c **** 	u8x8_cad_SendSequence(u8x8, u8x8_d_st7565_dogm132_init_seq);
 990              		.loc 1 817 0
 991 002a 2800     		movs	r0, r5
 992 002c FFF7FEFF 		bl	u8x8_d_helper_display_init
 993              	.LVL94:
 818:..\..\u8g2\csrc/u8x8_d_st7565.c **** 	break;
 994              		.loc 1 818 0
 995 0030 0F49     		ldr	r1, .L83
 996 0032 3831     		adds	r1, r1, #56
 997 0034 2800     		movs	r0, r5
 998 0036 FFF7FEFF 		bl	u8x8_cad_SendSequence
 999              	.LVL95:
 1000              		.loc 1 836 0
 1001 003a 0120     		movs	r0, #1
 819:..\..\u8g2\csrc/u8x8_d_st7565.c ****       case U8X8_MSG_DISPLAY_SET_FLIP_MODE:
 1002              		.loc 1 819 0
 1003 003c 16E0     		b	.L77
 1004              	.L79:
 821:..\..\u8g2\csrc/u8x8_d_st7565.c **** 	{
 1005              		.loc 1 821 0
 1006 003e 002E     		cmp	r6, #0
 1007 0040 09D1     		bne	.L81
 823:..\..\u8g2\csrc/u8x8_d_st7565.c **** 	  u8x8->x_offset = u8x8->display_info->default_x_offset;
 1008              		.loc 1 823 0
 1009 0042 0C49     		ldr	r1, .L83+4
 1010 0044 4C31     		adds	r1, r1, #76
 1011 0046 2800     		movs	r0, r5
 1012 0048 FFF7FEFF 		bl	u8x8_cad_SendSequence
 1013              	.LVL96:
 824:..\..\u8g2\csrc/u8x8_d_st7565.c **** 	}
 1014              		.loc 1 824 0
 1015 004c 2B68     		ldr	r3, [r5]
 1016 004e 9B7C     		ldrb	r3, [r3, #18]
 1017 0050 AB77     		strb	r3, [r5, #30]
 1018              		.loc 1 836 0
 1019 0052 0120     		movs	r0, #1
 1020 0054 0AE0     		b	.L77
 1021              	.L81:
 828:..\..\u8g2\csrc/u8x8_d_st7565.c **** 	  u8x8->x_offset = u8x8->display_info->flipmode_x_offset;
ARM GAS  C:\Users\arh\AppData\Local\Temp\ccmCaonO.s 			page 35


 1022              		.loc 1 828 0
 1023 0056 0749     		ldr	r1, .L83+4
 1024 0058 5431     		adds	r1, r1, #84
 1025 005a 2800     		movs	r0, r5
 1026 005c FFF7FEFF 		bl	u8x8_cad_SendSequence
 1027              	.LVL97:
 829:..\..\u8g2\csrc/u8x8_d_st7565.c **** 	}	
 1028              		.loc 1 829 0
 1029 0060 2B68     		ldr	r3, [r5]
 1030 0062 DB7C     		ldrb	r3, [r3, #19]
 1031 0064 AB77     		strb	r3, [r5, #30]
 1032              		.loc 1 836 0
 1033 0066 0120     		movs	r0, #1
 1034 0068 00E0     		b	.L77
 1035              	.L82:
 1036 006a 0120     		movs	r0, #1
 1037              	.L77:
 837:..\..\u8g2\csrc/u8x8_d_st7565.c **** }
 1038              		.loc 1 837 0
 1039              		@ sp needed
 1040              	.LVL98:
 1041 006c 70BD     		pop	{r4, r5, r6, pc}
 1042              	.L84:
 1043 006e C046     		.align	2
 1044              	.L83:
 1045 0070 80010000 		.word	.LANCHOR3
 1046 0074 00000000 		.word	.LANCHOR0
 1047              		.cfi_endproc
 1048              	.LFE8:
 1049              		.size	u8x8_d_st7565_ea_dogm132, .-u8x8_d_st7565_ea_dogm132
 1050              		.section	.rodata
 1051              		.align	2
 1052              		.set	.LANCHOR0,. + 0
 1053              		.set	.LANCHOR1,. + 128
 1054              		.set	.LANCHOR2,. + 256
 1055              		.set	.LANCHOR3,. + 384
 1056              		.type	u8x8_d_st7565_powersave0_seq, %object
 1057              		.size	u8x8_d_st7565_powersave0_seq, 7
 1058              	u8x8_d_st7565_powersave0_seq:
 1059 0000 18       		.byte	24
 1060 0001 15       		.byte	21
 1061 0002 A4       		.byte	-92
 1062 0003 15       		.byte	21
 1063 0004 AF       		.byte	-81
 1064 0005 19       		.byte	25
 1065 0006 FF       		.byte	-1
 1066 0007 00       		.space	1
 1067              		.type	u8x8_d_st7565_powersave1_seq, %object
 1068              		.size	u8x8_d_st7565_powersave1_seq, 7
 1069              	u8x8_d_st7565_powersave1_seq:
 1070 0008 18       		.byte	24
 1071 0009 15       		.byte	21
 1072 000a AE       		.byte	-82
 1073 000b 15       		.byte	21
 1074 000c A5       		.byte	-91
 1075 000d 19       		.byte	25
 1076 000e FF       		.byte	-1
ARM GAS  C:\Users\arh\AppData\Local\Temp\ccmCaonO.s 			page 36


 1077 000f 00       		.space	1
 1078              		.type	u8x8_st7565_128x64_display_info, %object
 1079              		.size	u8x8_st7565_128x64_display_info, 24
 1080              	u8x8_st7565_128x64_display_info:
 1081 0010 00       		.byte	0
 1082 0011 01       		.byte	1
 1083 0012 96       		.byte	-106
 1084 0013 32       		.byte	50
 1085 0014 01       		.byte	1
 1086 0015 01       		.byte	1
 1087 0016 32       		.byte	50
 1088 0017 78       		.byte	120
 1089 0018 00093D00 		.word	4000000
 1090 001c 00       		.byte	0
 1091 001d 04       		.byte	4
 1092 001e 28       		.byte	40
 1093 001f 50       		.byte	80
 1094 0020 10       		.byte	16
 1095 0021 08       		.byte	8
 1096 0022 00       		.byte	0
 1097 0023 04       		.byte	4
 1098 0024 8000     		.short	128
 1099 0026 4000     		.short	64
 1100              		.type	u8x8_d_st7565_dogm128_init_seq, %object
 1101              		.size	u8x8_d_st7565_dogm128_init_seq, 33
 1102              	u8x8_d_st7565_dogm128_init_seq:
 1103 0028 18       		.byte	24
 1104 0029 15       		.byte	21
 1105 002a E2       		.byte	-30
 1106 002b 15       		.byte	21
 1107 002c AE       		.byte	-82
 1108 002d 15       		.byte	21
 1109 002e 40       		.byte	64
 1110 002f 15       		.byte	21
 1111 0030 A1       		.byte	-95
 1112 0031 15       		.byte	21
 1113 0032 C0       		.byte	-64
 1114 0033 15       		.byte	21
 1115 0034 A6       		.byte	-90
 1116 0035 15       		.byte	21
 1117 0036 A2       		.byte	-94
 1118 0037 15       		.byte	21
 1119 0038 2F       		.byte	47
 1120 0039 15       		.byte	21
 1121 003a F8       		.byte	-8
 1122 003b 16       		.byte	22
 1123 003c 00       		.byte	0
 1124 003d 15       		.byte	21
 1125 003e 27       		.byte	39
 1126 003f 15       		.byte	21
 1127 0040 81       		.byte	-127
 1128 0041 16       		.byte	22
 1129 0042 18       		.byte	24
 1130 0043 15       		.byte	21
 1131 0044 AE       		.byte	-82
 1132 0045 15       		.byte	21
 1133 0046 A5       		.byte	-91
ARM GAS  C:\Users\arh\AppData\Local\Temp\ccmCaonO.s 			page 37


 1134 0047 19       		.byte	25
 1135 0048 FF       		.byte	-1
 1136 0049 000000   		.space	3
 1137              		.type	u8x8_d_st7565_flip0_seq, %object
 1138              		.size	u8x8_d_st7565_flip0_seq, 7
 1139              	u8x8_d_st7565_flip0_seq:
 1140 004c 18       		.byte	24
 1141 004d 15       		.byte	21
 1142 004e A1       		.byte	-95
 1143 004f 15       		.byte	21
 1144 0050 C0       		.byte	-64
 1145 0051 19       		.byte	25
 1146 0052 FF       		.byte	-1
 1147 0053 00       		.space	1
 1148              		.type	u8x8_d_st7565_flip1_seq, %object
 1149              		.size	u8x8_d_st7565_flip1_seq, 7
 1150              	u8x8_d_st7565_flip1_seq:
 1151 0054 18       		.byte	24
 1152 0055 15       		.byte	21
 1153 0056 A0       		.byte	-96
 1154 0057 15       		.byte	21
 1155 0058 C8       		.byte	-56
 1156 0059 19       		.byte	25
 1157 005a FF       		.byte	-1
 1158 005b 00       		.space	1
 1159              		.type	u8x8_d_st7565_zolen_128x64_init_seq, %object
 1160              		.size	u8x8_d_st7565_zolen_128x64_init_seq, 33
 1161              	u8x8_d_st7565_zolen_128x64_init_seq:
 1162 005c 18       		.byte	24
 1163 005d 15       		.byte	21
 1164 005e E2       		.byte	-30
 1165 005f 15       		.byte	21
 1166 0060 AE       		.byte	-82
 1167 0061 15       		.byte	21
 1168 0062 40       		.byte	64
 1169 0063 15       		.byte	21
 1170 0064 A1       		.byte	-95
 1171 0065 15       		.byte	21
 1172 0066 C8       		.byte	-56
 1173 0067 15       		.byte	21
 1174 0068 A6       		.byte	-90
 1175 0069 15       		.byte	21
 1176 006a A2       		.byte	-94
 1177 006b 15       		.byte	21
 1178 006c 2F       		.byte	47
 1179 006d 15       		.byte	21
 1180 006e F8       		.byte	-8
 1181 006f 16       		.byte	22
 1182 0070 00       		.byte	0
 1183 0071 15       		.byte	21
 1184 0072 27       		.byte	39
 1185 0073 15       		.byte	21
 1186 0074 81       		.byte	-127
 1187 0075 16       		.byte	22
 1188 0076 07       		.byte	7
 1189 0077 15       		.byte	21
 1190 0078 AE       		.byte	-82
ARM GAS  C:\Users\arh\AppData\Local\Temp\ccmCaonO.s 			page 38


 1191 0079 15       		.byte	21
 1192 007a A5       		.byte	-91
 1193 007b 19       		.byte	25
 1194 007c FF       		.byte	-1
 1195 007d 000000   		.space	3
 1196              		.type	u8x8_d_st7565_zflip0_seq, %object
 1197              		.size	u8x8_d_st7565_zflip0_seq, 7
 1198              	u8x8_d_st7565_zflip0_seq:
 1199 0080 18       		.byte	24
 1200 0081 15       		.byte	21
 1201 0082 A1       		.byte	-95
 1202 0083 15       		.byte	21
 1203 0084 C8       		.byte	-56
 1204 0085 19       		.byte	25
 1205 0086 FF       		.byte	-1
 1206 0087 00       		.space	1
 1207              		.type	u8x8_d_st7565_zflip1_seq, %object
 1208              		.size	u8x8_d_st7565_zflip1_seq, 7
 1209              	u8x8_d_st7565_zflip1_seq:
 1210 0088 18       		.byte	24
 1211 0089 15       		.byte	21
 1212 008a A0       		.byte	-96
 1213 008b 15       		.byte	21
 1214 008c C0       		.byte	-64
 1215 008d 19       		.byte	25
 1216 008e FF       		.byte	-1
 1217 008f 00       		.space	1
 1218              		.type	u8x8_st7565_128x32_display_info, %object
 1219              		.size	u8x8_st7565_128x32_display_info, 24
 1220              	u8x8_st7565_128x32_display_info:
 1221 0090 00       		.byte	0
 1222 0091 01       		.byte	1
 1223 0092 96       		.byte	-106
 1224 0093 32       		.byte	50
 1225 0094 01       		.byte	1
 1226 0095 01       		.byte	1
 1227 0096 32       		.byte	50
 1228 0097 78       		.byte	120
 1229 0098 00093D00 		.word	4000000
 1230 009c 00       		.byte	0
 1231 009d 04       		.byte	4
 1232 009e 28       		.byte	40
 1233 009f 50       		.byte	80
 1234 00a0 10       		.byte	16
 1235 00a1 04       		.byte	4
 1236 00a2 04       		.byte	4
 1237 00a3 00       		.byte	0
 1238 00a4 8000     		.short	128
 1239 00a6 2000     		.short	32
 1240              		.type	u8x8_d_st7565_nhd_c12832_init_seq, %object
 1241              		.size	u8x8_d_st7565_nhd_c12832_init_seq, 33
 1242              	u8x8_d_st7565_nhd_c12832_init_seq:
 1243 00a8 18       		.byte	24
 1244 00a9 15       		.byte	21
 1245 00aa E2       		.byte	-30
 1246 00ab 15       		.byte	21
 1247 00ac AE       		.byte	-82
ARM GAS  C:\Users\arh\AppData\Local\Temp\ccmCaonO.s 			page 39


 1248 00ad 15       		.byte	21
 1249 00ae 40       		.byte	64
 1250 00af 15       		.byte	21
 1251 00b0 A1       		.byte	-95
 1252 00b1 15       		.byte	21
 1253 00b2 C0       		.byte	-64
 1254 00b3 15       		.byte	21
 1255 00b4 A6       		.byte	-90
 1256 00b5 15       		.byte	21
 1257 00b6 A2       		.byte	-94
 1258 00b7 15       		.byte	21
 1259 00b8 2F       		.byte	47
 1260 00b9 15       		.byte	21
 1261 00ba F8       		.byte	-8
 1262 00bb 16       		.byte	22
 1263 00bc 00       		.byte	0
 1264 00bd 15       		.byte	21
 1265 00be 23       		.byte	35
 1266 00bf 15       		.byte	21
 1267 00c0 81       		.byte	-127
 1268 00c1 16       		.byte	22
 1269 00c2 0A       		.byte	10
 1270 00c3 15       		.byte	21
 1271 00c4 AE       		.byte	-82
 1272 00c5 15       		.byte	21
 1273 00c6 A5       		.byte	-91
 1274 00c7 19       		.byte	25
 1275 00c8 FF       		.byte	-1
 1276 00c9 000000   		.space	3
 1277              		.type	u8x8_st7565_nhd_c12864_display_info, %object
 1278              		.size	u8x8_st7565_nhd_c12864_display_info, 24
 1279              	u8x8_st7565_nhd_c12864_display_info:
 1280 00cc 00       		.byte	0
 1281 00cd 01       		.byte	1
 1282 00ce 96       		.byte	-106
 1283 00cf 32       		.byte	50
 1284 00d0 01       		.byte	1
 1285 00d1 01       		.byte	1
 1286 00d2 32       		.byte	50
 1287 00d3 78       		.byte	120
 1288 00d4 00093D00 		.word	4000000
 1289 00d8 00       		.byte	0
 1290 00d9 04       		.byte	4
 1291 00da 28       		.byte	40
 1292 00db 50       		.byte	80
 1293 00dc 10       		.byte	16
 1294 00dd 08       		.byte	8
 1295 00de 04       		.byte	4
 1296 00df 00       		.byte	0
 1297 00e0 8000     		.short	128
 1298 00e2 4000     		.short	64
 1299              		.type	u8x8_d_st7565_nhd_c12864_init_seq, %object
 1300              		.size	u8x8_d_st7565_nhd_c12864_init_seq, 33
 1301              	u8x8_d_st7565_nhd_c12864_init_seq:
 1302 00e4 18       		.byte	24
 1303 00e5 15       		.byte	21
 1304 00e6 E2       		.byte	-30
ARM GAS  C:\Users\arh\AppData\Local\Temp\ccmCaonO.s 			page 40


 1305 00e7 15       		.byte	21
 1306 00e8 AE       		.byte	-82
 1307 00e9 15       		.byte	21
 1308 00ea 40       		.byte	64
 1309 00eb 15       		.byte	21
 1310 00ec A1       		.byte	-95
 1311 00ed 15       		.byte	21
 1312 00ee C0       		.byte	-64
 1313 00ef 15       		.byte	21
 1314 00f0 A6       		.byte	-90
 1315 00f1 15       		.byte	21
 1316 00f2 A2       		.byte	-94
 1317 00f3 15       		.byte	21
 1318 00f4 2F       		.byte	47
 1319 00f5 15       		.byte	21
 1320 00f6 F8       		.byte	-8
 1321 00f7 16       		.byte	22
 1322 00f8 00       		.byte	0
 1323 00f9 15       		.byte	21
 1324 00fa 23       		.byte	35
 1325 00fb 15       		.byte	21
 1326 00fc 81       		.byte	-127
 1327 00fd 16       		.byte	22
 1328 00fe 0A       		.byte	10
 1329 00ff 15       		.byte	21
 1330 0100 AE       		.byte	-82
 1331 0101 15       		.byte	21
 1332 0102 A5       		.byte	-91
 1333 0103 19       		.byte	25
 1334 0104 FF       		.byte	-1
 1335 0105 000000   		.space	3
 1336              		.type	u8x8_st7565_lm6059_display_info, %object
 1337              		.size	u8x8_st7565_lm6059_display_info, 24
 1338              	u8x8_st7565_lm6059_display_info:
 1339 0108 00       		.byte	0
 1340 0109 01       		.byte	1
 1341 010a 96       		.byte	-106
 1342 010b 32       		.byte	50
 1343 010c 01       		.byte	1
 1344 010d 01       		.byte	1
 1345 010e 32       		.byte	50
 1346 010f 78       		.byte	120
 1347 0110 00093D00 		.word	4000000
 1348 0114 00       		.byte	0
 1349 0115 04       		.byte	4
 1350 0116 28       		.byte	40
 1351 0117 50       		.byte	80
 1352 0118 10       		.byte	16
 1353 0119 08       		.byte	8
 1354 011a 01       		.byte	1
 1355 011b 03       		.byte	3
 1356 011c 8000     		.short	128
 1357 011e 4000     		.short	64
 1358              		.type	u8x8_d_st7565_lm6059_init_seq, %object
 1359              		.size	u8x8_d_st7565_lm6059_init_seq, 33
 1360              	u8x8_d_st7565_lm6059_init_seq:
 1361 0120 18       		.byte	24
ARM GAS  C:\Users\arh\AppData\Local\Temp\ccmCaonO.s 			page 41


 1362 0121 15       		.byte	21
 1363 0122 E2       		.byte	-30
 1364 0123 15       		.byte	21
 1365 0124 AE       		.byte	-82
 1366 0125 15       		.byte	21
 1367 0126 60       		.byte	96
 1368 0127 15       		.byte	21
 1369 0128 A0       		.byte	-96
 1370 0129 15       		.byte	21
 1371 012a C8       		.byte	-56
 1372 012b 15       		.byte	21
 1373 012c A6       		.byte	-90
 1374 012d 15       		.byte	21
 1375 012e A3       		.byte	-93
 1376 012f 15       		.byte	21
 1377 0130 2F       		.byte	47
 1378 0131 15       		.byte	21
 1379 0132 F8       		.byte	-8
 1380 0133 16       		.byte	22
 1381 0134 00       		.byte	0
 1382 0135 15       		.byte	21
 1383 0136 27       		.byte	39
 1384 0137 15       		.byte	21
 1385 0138 81       		.byte	-127
 1386 0139 16       		.byte	22
 1387 013a 18       		.byte	24
 1388 013b 15       		.byte	21
 1389 013c AE       		.byte	-82
 1390 013d 15       		.byte	21
 1391 013e A5       		.byte	-91
 1392 013f 19       		.byte	25
 1393 0140 FF       		.byte	-1
 1394 0141 000000   		.space	3
 1395              		.type	u8x8_st7565_erc12864_display_info, %object
 1396              		.size	u8x8_st7565_erc12864_display_info, 24
 1397              	u8x8_st7565_erc12864_display_info:
 1398 0144 00       		.byte	0
 1399 0145 01       		.byte	1
 1400 0146 96       		.byte	-106
 1401 0147 32       		.byte	50
 1402 0148 01       		.byte	1
 1403 0149 01       		.byte	1
 1404 014a 32       		.byte	50
 1405 014b 78       		.byte	120
 1406 014c 00093D00 		.word	4000000
 1407 0150 00       		.byte	0
 1408 0151 04       		.byte	4
 1409 0152 28       		.byte	40
 1410 0153 50       		.byte	80
 1411 0154 10       		.byte	16
 1412 0155 08       		.byte	8
 1413 0156 00       		.byte	0
 1414 0157 04       		.byte	4
 1415 0158 8000     		.short	128
 1416 015a 4000     		.short	64
 1417              		.type	u8x8_d_st7565_erc12864_init_seq, %object
 1418              		.size	u8x8_d_st7565_erc12864_init_seq, 33
ARM GAS  C:\Users\arh\AppData\Local\Temp\ccmCaonO.s 			page 42


 1419              	u8x8_d_st7565_erc12864_init_seq:
 1420 015c 18       		.byte	24
 1421 015d 15       		.byte	21
 1422 015e E2       		.byte	-30
 1423 015f 15       		.byte	21
 1424 0160 AE       		.byte	-82
 1425 0161 15       		.byte	21
 1426 0162 40       		.byte	64
 1427 0163 15       		.byte	21
 1428 0164 A0       		.byte	-96
 1429 0165 15       		.byte	21
 1430 0166 C8       		.byte	-56
 1431 0167 15       		.byte	21
 1432 0168 A6       		.byte	-90
 1433 0169 15       		.byte	21
 1434 016a A3       		.byte	-93
 1435 016b 15       		.byte	21
 1436 016c 2F       		.byte	47
 1437 016d 15       		.byte	21
 1438 016e F8       		.byte	-8
 1439 016f 16       		.byte	22
 1440 0170 00       		.byte	0
 1441 0171 15       		.byte	21
 1442 0172 27       		.byte	39
 1443 0173 15       		.byte	21
 1444 0174 81       		.byte	-127
 1445 0175 16       		.byte	22
 1446 0176 18       		.byte	24
 1447 0177 15       		.byte	21
 1448 0178 AE       		.byte	-82
 1449 0179 15       		.byte	21
 1450 017a A5       		.byte	-91
 1451 017b 19       		.byte	25
 1452 017c FF       		.byte	-1
 1453 017d 000000   		.space	3
 1454              		.type	u8x8_d_nt7534_tg12864r_init_seq, %object
 1455              		.size	u8x8_d_nt7534_tg12864r_init_seq, 29
 1456              	u8x8_d_nt7534_tg12864r_init_seq:
 1457 0180 18       		.byte	24
 1458 0181 15       		.byte	21
 1459 0182 E2       		.byte	-30
 1460 0183 15       		.byte	21
 1461 0184 AE       		.byte	-82
 1462 0185 15       		.byte	21
 1463 0186 60       		.byte	96
 1464 0187 15       		.byte	21
 1465 0188 A0       		.byte	-96
 1466 0189 15       		.byte	21
 1467 018a C8       		.byte	-56
 1468 018b 15       		.byte	21
 1469 018c A6       		.byte	-90
 1470 018d 15       		.byte	21
 1471 018e A3       		.byte	-93
 1472 018f 15       		.byte	21
 1473 0190 2F       		.byte	47
 1474 0191 15       		.byte	21
 1475 0192 27       		.byte	39
ARM GAS  C:\Users\arh\AppData\Local\Temp\ccmCaonO.s 			page 43


 1476 0193 15       		.byte	21
 1477 0194 81       		.byte	-127
 1478 0195 16       		.byte	22
 1479 0196 09       		.byte	9
 1480 0197 15       		.byte	21
 1481 0198 AE       		.byte	-82
 1482 0199 15       		.byte	21
 1483 019a A5       		.byte	-91
 1484 019b 19       		.byte	25
 1485 019c FF       		.byte	-1
 1486 019d 000000   		.space	3
 1487              		.type	u8x8_st7565_dogm132_display_info, %object
 1488              		.size	u8x8_st7565_dogm132_display_info, 24
 1489              	u8x8_st7565_dogm132_display_info:
 1490 01a0 00       		.byte	0
 1491 01a1 01       		.byte	1
 1492 01a2 96       		.byte	-106
 1493 01a3 32       		.byte	50
 1494 01a4 01       		.byte	1
 1495 01a5 01       		.byte	1
 1496 01a6 32       		.byte	50
 1497 01a7 78       		.byte	120
 1498 01a8 00093D00 		.word	4000000
 1499 01ac 00       		.byte	0
 1500 01ad 04       		.byte	4
 1501 01ae 28       		.byte	40
 1502 01af 50       		.byte	80
 1503 01b0 11       		.byte	17
 1504 01b1 04       		.byte	4
 1505 01b2 00       		.byte	0
 1506 01b3 00       		.byte	0
 1507 01b4 8400     		.short	132
 1508 01b6 2000     		.short	32
 1509              		.type	u8x8_d_st7565_dogm132_init_seq, %object
 1510              		.size	u8x8_d_st7565_dogm132_init_seq, 33
 1511              	u8x8_d_st7565_dogm132_init_seq:
 1512 01b8 18       		.byte	24
 1513 01b9 15       		.byte	21
 1514 01ba E2       		.byte	-30
 1515 01bb 15       		.byte	21
 1516 01bc AE       		.byte	-82
 1517 01bd 15       		.byte	21
 1518 01be 40       		.byte	64
 1519 01bf 15       		.byte	21
 1520 01c0 A1       		.byte	-95
 1521 01c1 15       		.byte	21
 1522 01c2 C0       		.byte	-64
 1523 01c3 15       		.byte	21
 1524 01c4 A6       		.byte	-90
 1525 01c5 15       		.byte	21
 1526 01c6 A2       		.byte	-94
 1527 01c7 15       		.byte	21
 1528 01c8 2F       		.byte	47
 1529 01c9 15       		.byte	21
 1530 01ca F8       		.byte	-8
 1531 01cb 16       		.byte	22
 1532 01cc 00       		.byte	0
ARM GAS  C:\Users\arh\AppData\Local\Temp\ccmCaonO.s 			page 44


 1533 01cd 15       		.byte	21
 1534 01ce 23       		.byte	35
 1535 01cf 15       		.byte	21
 1536 01d0 81       		.byte	-127
 1537 01d1 16       		.byte	22
 1538 01d2 1F       		.byte	31
 1539 01d3 15       		.byte	21
 1540 01d4 AE       		.byte	-82
 1541 01d5 15       		.byte	21
 1542 01d6 A5       		.byte	-91
 1543 01d7 19       		.byte	25
 1544 01d8 FF       		.byte	-1
 1545              		.text
 1546              	.Letext0:
 1547              		.file 2 "c:\\program files (x86)\\cypress\\psoc creator\\4.1\\psoc creator\\import\\gnu\\arm\\5.4.
 1548              		.file 3 "c:\\program files (x86)\\cypress\\psoc creator\\4.1\\psoc creator\\import\\gnu\\arm\\5.4.
 1549              		.file 4 "..\\..\\u8g2\\csrc\\u8x8.h"