ARM GAS  C:\Users\Alan\AppData\Local\Temp\cc5cflMF.s 			page 1


   1              		.syntax unified
   2              		.cpu cortex-m0
   3              		.fpu softvfp
   4              		.eabi_attribute 20, 1
   5              		.eabi_attribute 21, 1
   6              		.eabi_attribute 23, 3
   7              		.eabi_attribute 24, 1
   8              		.eabi_attribute 25, 1
   9              		.eabi_attribute 26, 1
  10              		.eabi_attribute 30, 1
  11              		.eabi_attribute 34, 0
  12              		.eabi_attribute 18, 4
  13              		.thumb
  14              		.syntax unified
  15              		.file	"u8x8_d_uc1604.c"
  16              		.text
  17              	.Ltext0:
  18              		.cfi_sections	.debug_frame
  19              		.section	.text.u8x8_d_uc1604_common,"ax",%progbits
  20              		.align	2
  21              		.global	u8x8_d_uc1604_common
  22              		.code	16
  23              		.thumb_func
  24              		.type	u8x8_d_uc1604_common, %function
  25              	u8x8_d_uc1604_common:
  26              	.LFB0:
  27              		.file 1 "..\\..\\u8g2\\csrc\\u8x8_d_uc1604.c"
   1:..\..\u8g2\csrc/u8x8_d_uc1604.c **** /*
   2:..\..\u8g2\csrc/u8x8_d_uc1604.c **** 
   3:..\..\u8g2\csrc/u8x8_d_uc1604.c ****   u8x8_d_uc1604.c
   4:..\..\u8g2\csrc/u8x8_d_uc1604.c ****   
   5:..\..\u8g2\csrc/u8x8_d_uc1604.c ****   Universal 8bit Graphics Library (https://github.com/olikraus/u8g2/)
   6:..\..\u8g2\csrc/u8x8_d_uc1604.c **** 
   7:..\..\u8g2\csrc/u8x8_d_uc1604.c ****   Copyright (c) 2016, olikraus@gmail.com
   8:..\..\u8g2\csrc/u8x8_d_uc1604.c ****   All rights reserved.
   9:..\..\u8g2\csrc/u8x8_d_uc1604.c **** 
  10:..\..\u8g2\csrc/u8x8_d_uc1604.c ****   Redistribution and use in source and binary forms, with or without modification, 
  11:..\..\u8g2\csrc/u8x8_d_uc1604.c ****   are permitted provided that the following conditions are met:
  12:..\..\u8g2\csrc/u8x8_d_uc1604.c **** 
  13:..\..\u8g2\csrc/u8x8_d_uc1604.c ****   * Redistributions of source code must retain the above copyright notice, this list 
  14:..\..\u8g2\csrc/u8x8_d_uc1604.c ****     of conditions and the following disclaimer.
  15:..\..\u8g2\csrc/u8x8_d_uc1604.c ****     
  16:..\..\u8g2\csrc/u8x8_d_uc1604.c ****   * Redistributions in binary form must reproduce the above copyright notice, this 
  17:..\..\u8g2\csrc/u8x8_d_uc1604.c ****     list of conditions and the following disclaimer in the documentation and/or other 
  18:..\..\u8g2\csrc/u8x8_d_uc1604.c ****     materials provided with the distribution.
  19:..\..\u8g2\csrc/u8x8_d_uc1604.c **** 
  20:..\..\u8g2\csrc/u8x8_d_uc1604.c ****   THIS SOFTWARE IS PROVIDED BY THE COPYRIGHT HOLDERS AND 
  21:..\..\u8g2\csrc/u8x8_d_uc1604.c ****   CONTRIBUTORS "AS IS" AND ANY EXPRESS OR IMPLIED WARRANTIES, 
  22:..\..\u8g2\csrc/u8x8_d_uc1604.c ****   INCLUDING, BUT NOT LIMITED TO, THE IMPLIED WARRANTIES OF 
  23:..\..\u8g2\csrc/u8x8_d_uc1604.c ****   MERCHANTABILITY AND FITNESS FOR A PARTICULAR PURPOSE ARE 
  24:..\..\u8g2\csrc/u8x8_d_uc1604.c ****   DISCLAIMED. IN NO EVENT SHALL THE COPYRIGHT HOLDER OR 
  25:..\..\u8g2\csrc/u8x8_d_uc1604.c ****   CONTRIBUTORS BE LIABLE FOR ANY DIRECT, INDIRECT, INCIDENTAL, 
  26:..\..\u8g2\csrc/u8x8_d_uc1604.c ****   SPECIAL, EXEMPLARY, OR CONSEQUENTIAL DAMAGES (INCLUDING, BUT 
  27:..\..\u8g2\csrc/u8x8_d_uc1604.c ****   NOT LIMITED TO, PROCUREMENT OF SUBSTITUTE GOODS OR SERVICES; 
  28:..\..\u8g2\csrc/u8x8_d_uc1604.c ****   LOSS OF USE, DATA, OR PROFITS; OR BUSINESS INTERRUPTION) HOWEVER 
  29:..\..\u8g2\csrc/u8x8_d_uc1604.c ****   CAUSED AND ON ANY THEORY OF LIABILITY, WHETHER IN CONTRACT, 
  30:..\..\u8g2\csrc/u8x8_d_uc1604.c ****   STRICT LIABILITY, OR TORT (INCLUDING NEGLIGENCE OR OTHERWISE) 
ARM GAS  C:\Users\Alan\AppData\Local\Temp\cc5cflMF.s 			page 2


  31:..\..\u8g2\csrc/u8x8_d_uc1604.c ****   ARISING IN ANY WAY OUT OF THE USE OF THIS SOFTWARE, EVEN IF 
  32:..\..\u8g2\csrc/u8x8_d_uc1604.c ****   ADVISED OF THE POSSIBILITY OF SUCH DAMAGE.  
  33:..\..\u8g2\csrc/u8x8_d_uc1604.c **** 
  34:..\..\u8g2\csrc/u8x8_d_uc1604.c **** 
  35:..\..\u8g2\csrc/u8x8_d_uc1604.c ****   
  36:..\..\u8g2\csrc/u8x8_d_uc1604.c **** */
  37:..\..\u8g2\csrc/u8x8_d_uc1604.c **** #include "u8x8.h"
  38:..\..\u8g2\csrc/u8x8_d_uc1604.c **** 
  39:..\..\u8g2\csrc/u8x8_d_uc1604.c **** 
  40:..\..\u8g2\csrc/u8x8_d_uc1604.c **** 
  41:..\..\u8g2\csrc/u8x8_d_uc1604.c **** 
  42:..\..\u8g2\csrc/u8x8_d_uc1604.c **** 
  43:..\..\u8g2\csrc/u8x8_d_uc1604.c **** static const uint8_t u8x8_d_uc1604_powersave0_seq[] = {
  44:..\..\u8g2\csrc/u8x8_d_uc1604.c ****   U8X8_START_TRANSFER(),             	/* enable chip, delay is part of the transfer start */
  45:..\..\u8g2\csrc/u8x8_d_uc1604.c ****   U8X8_DLY(20),			
  46:..\..\u8g2\csrc/u8x8_d_uc1604.c ****   U8X8_C(0x0af),		                /* display on */
  47:..\..\u8g2\csrc/u8x8_d_uc1604.c ****   U8X8_DLY(20),				/* during setup, it seems that the startup is more reliable when sending this cm
  48:..\..\u8g2\csrc/u8x8_d_uc1604.c ****   U8X8_C(0x0af),		                /* display on */
  49:..\..\u8g2\csrc/u8x8_d_uc1604.c ****   U8X8_DLY(50),				/* startup takes some time */
  50:..\..\u8g2\csrc/u8x8_d_uc1604.c ****   U8X8_END_TRANSFER(),             	/* disable chip */
  51:..\..\u8g2\csrc/u8x8_d_uc1604.c ****   U8X8_END()             			/* end of sequence */
  52:..\..\u8g2\csrc/u8x8_d_uc1604.c **** };
  53:..\..\u8g2\csrc/u8x8_d_uc1604.c **** 
  54:..\..\u8g2\csrc/u8x8_d_uc1604.c **** static const uint8_t u8x8_d_uc1604_powersave1_seq[] = {
  55:..\..\u8g2\csrc/u8x8_d_uc1604.c ****   U8X8_START_TRANSFER(),             	/* enable chip, delay is part of the transfer start */
  56:..\..\u8g2\csrc/u8x8_d_uc1604.c ****   U8X8_C(0x0ae),		                /* display off, enter sleep mode */
  57:..\..\u8g2\csrc/u8x8_d_uc1604.c ****   U8X8_END_TRANSFER(),             	/* disable chip */
  58:..\..\u8g2\csrc/u8x8_d_uc1604.c ****   U8X8_END()             			/* end of sequence */
  59:..\..\u8g2\csrc/u8x8_d_uc1604.c **** };
  60:..\..\u8g2\csrc/u8x8_d_uc1604.c **** 
  61:..\..\u8g2\csrc/u8x8_d_uc1604.c **** static const uint8_t u8x8_d_uc1604_flip0_seq[] = {
  62:..\..\u8g2\csrc/u8x8_d_uc1604.c ****   U8X8_START_TRANSFER(),             	/* enable chip, delay is part of the transfer start */
  63:..\..\u8g2\csrc/u8x8_d_uc1604.c ****   U8X8_C(0x0c4),            			/* LCD Mapping */
  64:..\..\u8g2\csrc/u8x8_d_uc1604.c ****   U8X8_END_TRANSFER(),             	/* disable chip */
  65:..\..\u8g2\csrc/u8x8_d_uc1604.c ****   U8X8_END()             			/* end of sequence */
  66:..\..\u8g2\csrc/u8x8_d_uc1604.c **** };
  67:..\..\u8g2\csrc/u8x8_d_uc1604.c **** 
  68:..\..\u8g2\csrc/u8x8_d_uc1604.c **** static const uint8_t u8x8_d_uc1604_flip1_seq[] = {
  69:..\..\u8g2\csrc/u8x8_d_uc1604.c ****   U8X8_START_TRANSFER(),             	/* enable chip, delay is part of the transfer start */
  70:..\..\u8g2\csrc/u8x8_d_uc1604.c ****   U8X8_C(0x0c2),            			/* LCD Mapping */
  71:..\..\u8g2\csrc/u8x8_d_uc1604.c ****   U8X8_END_TRANSFER(),             	/* disable chip */
  72:..\..\u8g2\csrc/u8x8_d_uc1604.c ****   U8X8_END()             			/* end of sequence */
  73:..\..\u8g2\csrc/u8x8_d_uc1604.c **** };
  74:..\..\u8g2\csrc/u8x8_d_uc1604.c **** 
  75:..\..\u8g2\csrc/u8x8_d_uc1604.c **** 
  76:..\..\u8g2\csrc/u8x8_d_uc1604.c **** uint8_t u8x8_d_uc1604_common(u8x8_t *u8x8, uint8_t msg, uint8_t arg_int, void *arg_ptr)
  77:..\..\u8g2\csrc/u8x8_d_uc1604.c **** {
  28              		.loc 1 77 0
  29              		.cfi_startproc
  30              		@ args = 0, pretend = 0, frame = 0
  31              		@ frame_needed = 0, uses_anonymous_args = 0
  32              	.LVL0:
  33 0000 F0B5     		push	{r4, r5, r6, r7, lr}
  34              		.cfi_def_cfa_offset 20
  35              		.cfi_offset 4, -20
  36              		.cfi_offset 5, -16
  37              		.cfi_offset 6, -12
ARM GAS  C:\Users\Alan\AppData\Local\Temp\cc5cflMF.s 			page 3


  38              		.cfi_offset 7, -8
  39              		.cfi_offset 14, -4
  40 0002 4746     		mov	r7, r8
  41 0004 80B4     		push	{r7}
  42              		.cfi_def_cfa_offset 24
  43              		.cfi_offset 8, -24
  44 0006 0500     		movs	r5, r0
  45 0008 1400     		movs	r4, r2
  46 000a 1F00     		movs	r7, r3
  78:..\..\u8g2\csrc/u8x8_d_uc1604.c ****   uint8_t x, y, c;
  79:..\..\u8g2\csrc/u8x8_d_uc1604.c ****   uint8_t *ptr;
  80:..\..\u8g2\csrc/u8x8_d_uc1604.c ****   switch(msg)
  47              		.loc 1 80 0
  48 000c 0D29     		cmp	r1, #13
  49 000e 45D0     		beq	.L3
  50 0010 02D8     		bhi	.L4
  51 0012 0B29     		cmp	r1, #11
  52 0014 35D0     		beq	.L5
  53 0016 64E0     		b	.L11
  54              	.L4:
  55 0018 0E29     		cmp	r1, #14
  56 001a 53D0     		beq	.L6
  57 001c 0F29     		cmp	r1, #15
  58 001e 60D1     		bne	.L11
  81:..\..\u8g2\csrc/u8x8_d_uc1604.c ****   {
  82:..\..\u8g2\csrc/u8x8_d_uc1604.c ****     case U8X8_MSG_DISPLAY_DRAW_TILE:
  83:..\..\u8g2\csrc/u8x8_d_uc1604.c ****       u8x8_cad_StartTransfer(u8x8);
  59              		.loc 1 83 0
  60 0020 FFF7FEFF 		bl	u8x8_cad_StartTransfer
  61              	.LVL1:
  84:..\..\u8g2\csrc/u8x8_d_uc1604.c ****     
  85:..\..\u8g2\csrc/u8x8_d_uc1604.c ****       x = ((u8x8_tile_t *)arg_ptr)->x_pos;
  62              		.loc 1 85 0
  63 0024 7B79     		ldrb	r3, [r7, #5]
  64              	.LVL2:
  86:..\..\u8g2\csrc/u8x8_d_uc1604.c ****       x *= 8;
  65              		.loc 1 86 0
  66 0026 DB00     		lsls	r3, r3, #3
  67              	.LVL3:
  68 0028 DBB2     		uxtb	r3, r3
  69 002a 9846     		mov	r8, r3
  70              	.LVL4:
  87:..\..\u8g2\csrc/u8x8_d_uc1604.c ****    
  88:..\..\u8g2\csrc/u8x8_d_uc1604.c ****       u8x8_cad_SendCmd(u8x8, 0x000 | ((x&15)));
  71              		.loc 1 88 0
  72 002c 0F26     		movs	r6, #15
  73 002e 1900     		movs	r1, r3
  74 0030 3140     		ands	r1, r6
  75 0032 2800     		movs	r0, r5
  76 0034 FFF7FEFF 		bl	u8x8_cad_SendCmd
  77              	.LVL5:
  89:..\..\u8g2\csrc/u8x8_d_uc1604.c ****       u8x8_cad_SendCmd(u8x8, 0x010 | (x>>4) );
  78              		.loc 1 89 0
  79 0038 4346     		mov	r3, r8
  80 003a 1909     		lsrs	r1, r3, #4
  81 003c 1023     		movs	r3, #16
  82 003e 1943     		orrs	r1, r3
ARM GAS  C:\Users\Alan\AppData\Local\Temp\cc5cflMF.s 			page 4


  83 0040 C9B2     		uxtb	r1, r1
  84 0042 2800     		movs	r0, r5
  85 0044 FFF7FEFF 		bl	u8x8_cad_SendCmd
  86              	.LVL6:
  90:..\..\u8g2\csrc/u8x8_d_uc1604.c ****     
  91:..\..\u8g2\csrc/u8x8_d_uc1604.c ****       y = ((u8x8_tile_t *)arg_ptr)->y_pos;
  87              		.loc 1 91 0
  88 0048 B979     		ldrb	r1, [r7, #6]
  89              	.LVL7:
  92:..\..\u8g2\csrc/u8x8_d_uc1604.c ****       y += u8x8->x_offset;
  90              		.loc 1 92 0
  91 004a AB7F     		ldrb	r3, [r5, #30]
  92 004c C918     		adds	r1, r1, r3
  93              	.LVL8:
  93:..\..\u8g2\csrc/u8x8_d_uc1604.c ****       u8x8_cad_SendCmd(u8x8, 0x0b0 | (y&15));
  94              		.loc 1 93 0
  95 004e 0E40     		ands	r6, r1
  96 0050 5021     		movs	r1, #80
  97              	.LVL9:
  98 0052 4942     		rsbs	r1, r1, #0
  99 0054 0E43     		orrs	r6, r1
 100 0056 F1B2     		uxtb	r1, r6
 101 0058 2800     		movs	r0, r5
 102 005a FFF7FEFF 		bl	u8x8_cad_SendCmd
 103              	.LVL10:
  94:..\..\u8g2\csrc/u8x8_d_uc1604.c ****     
  95:..\..\u8g2\csrc/u8x8_d_uc1604.c ****       c = ((u8x8_tile_t *)arg_ptr)->cnt;
 104              		.loc 1 95 0
 105 005e 3E79     		ldrb	r6, [r7, #4]
 106              	.LVL11:
  96:..\..\u8g2\csrc/u8x8_d_uc1604.c ****       c *= 8;
 107              		.loc 1 96 0
 108 0060 F600     		lsls	r6, r6, #3
 109              	.LVL12:
 110 0062 F6B2     		uxtb	r6, r6
 111              	.LVL13:
  97:..\..\u8g2\csrc/u8x8_d_uc1604.c ****       ptr = ((u8x8_tile_t *)arg_ptr)->tile_ptr;
 112              		.loc 1 97 0
 113 0064 3F68     		ldr	r7, [r7]
 114              	.LVL14:
 115              	.L8:
  98:..\..\u8g2\csrc/u8x8_d_uc1604.c ****       do
  99:..\..\u8g2\csrc/u8x8_d_uc1604.c ****       {
 100:..\..\u8g2\csrc/u8x8_d_uc1604.c **** 	u8x8_cad_SendData(u8x8, c, ptr);	/* note: SendData can not handle more than 255 bytes */
 116              		.loc 1 100 0 discriminator 1
 117 0066 3A00     		movs	r2, r7
 118 0068 3100     		movs	r1, r6
 119 006a 2800     		movs	r0, r5
 120 006c FFF7FEFF 		bl	u8x8_cad_SendData
 121              	.LVL15:
 101:..\..\u8g2\csrc/u8x8_d_uc1604.c **** 	arg_int--;
 122              		.loc 1 101 0 discriminator 1
 123 0070 013C     		subs	r4, r4, #1
 124              	.LVL16:
 125 0072 E4B2     		uxtb	r4, r4
 126              	.LVL17:
 102:..\..\u8g2\csrc/u8x8_d_uc1604.c ****       } while( arg_int > 0 );
ARM GAS  C:\Users\Alan\AppData\Local\Temp\cc5cflMF.s 			page 5


 127              		.loc 1 102 0 discriminator 1
 128 0074 002C     		cmp	r4, #0
 129 0076 F6D1     		bne	.L8
 103:..\..\u8g2\csrc/u8x8_d_uc1604.c ****       
 104:..\..\u8g2\csrc/u8x8_d_uc1604.c ****       u8x8_cad_EndTransfer(u8x8);
 130              		.loc 1 104 0
 131 0078 2800     		movs	r0, r5
 132 007a FFF7FEFF 		bl	u8x8_cad_EndTransfer
 133              	.LVL18:
 105:..\..\u8g2\csrc/u8x8_d_uc1604.c ****       break;
 106:..\..\u8g2\csrc/u8x8_d_uc1604.c ****     /*	handled in the calling procedure 
 107:..\..\u8g2\csrc/u8x8_d_uc1604.c ****     case U8X8_MSG_DISPLAY_SETUP_MEMORY:
 108:..\..\u8g2\csrc/u8x8_d_uc1604.c ****       u8x8_d_helper_display_setup_memory(u8x8, &u8x8_uc1604_128x64_display_info);
 109:..\..\u8g2\csrc/u8x8_d_uc1604.c ****       break;
 110:..\..\u8g2\csrc/u8x8_d_uc1604.c ****     case U8X8_MSG_DISPLAY_INIT:
 111:..\..\u8g2\csrc/u8x8_d_uc1604.c ****       u8x8_d_helper_display_init(u8x8);
 112:..\..\u8g2\csrc/u8x8_d_uc1604.c ****       u8x8_cad_SendSequence(u8x8, u8x8_d_uc1701_dogs102_init_seq);
 113:..\..\u8g2\csrc/u8x8_d_uc1604.c ****       break;
 114:..\..\u8g2\csrc/u8x8_d_uc1604.c ****     */
 115:..\..\u8g2\csrc/u8x8_d_uc1604.c ****     case U8X8_MSG_DISPLAY_SET_POWER_SAVE:
 116:..\..\u8g2\csrc/u8x8_d_uc1604.c ****       if ( arg_int == 0 )
 117:..\..\u8g2\csrc/u8x8_d_uc1604.c **** 	u8x8_cad_SendSequence(u8x8, u8x8_d_uc1604_powersave0_seq);
 118:..\..\u8g2\csrc/u8x8_d_uc1604.c ****       else
 119:..\..\u8g2\csrc/u8x8_d_uc1604.c **** 	u8x8_cad_SendSequence(u8x8, u8x8_d_uc1604_powersave1_seq);
 120:..\..\u8g2\csrc/u8x8_d_uc1604.c ****       break;
 121:..\..\u8g2\csrc/u8x8_d_uc1604.c ****     case U8X8_MSG_DISPLAY_SET_FLIP_MODE:
 122:..\..\u8g2\csrc/u8x8_d_uc1604.c ****       if ( arg_int == 0 )
 123:..\..\u8g2\csrc/u8x8_d_uc1604.c ****       {
 124:..\..\u8g2\csrc/u8x8_d_uc1604.c **** 	u8x8_cad_SendSequence(u8x8, u8x8_d_uc1604_flip0_seq);
 125:..\..\u8g2\csrc/u8x8_d_uc1604.c **** 	u8x8->x_offset = u8x8->display_info->default_x_offset;
 126:..\..\u8g2\csrc/u8x8_d_uc1604.c ****       }
 127:..\..\u8g2\csrc/u8x8_d_uc1604.c ****       else
 128:..\..\u8g2\csrc/u8x8_d_uc1604.c ****       {
 129:..\..\u8g2\csrc/u8x8_d_uc1604.c **** 	u8x8_cad_SendSequence(u8x8, u8x8_d_uc1604_flip1_seq);
 130:..\..\u8g2\csrc/u8x8_d_uc1604.c **** 	u8x8->x_offset = u8x8->display_info->flipmode_x_offset;
 131:..\..\u8g2\csrc/u8x8_d_uc1604.c ****       }	
 132:..\..\u8g2\csrc/u8x8_d_uc1604.c ****       break;
 133:..\..\u8g2\csrc/u8x8_d_uc1604.c **** #ifdef U8X8_WITH_SET_CONTRAST
 134:..\..\u8g2\csrc/u8x8_d_uc1604.c ****     case U8X8_MSG_DISPLAY_SET_CONTRAST:
 135:..\..\u8g2\csrc/u8x8_d_uc1604.c ****       u8x8_cad_StartTransfer(u8x8);
 136:..\..\u8g2\csrc/u8x8_d_uc1604.c ****       u8x8_cad_SendCmd(u8x8, 0x081 );
 137:..\..\u8g2\csrc/u8x8_d_uc1604.c ****       u8x8_cad_SendArg(u8x8, arg_int  );	/* uc1604 has range from 0 to 255 */
 138:..\..\u8g2\csrc/u8x8_d_uc1604.c ****       u8x8_cad_EndTransfer(u8x8);
 139:..\..\u8g2\csrc/u8x8_d_uc1604.c ****       break;
 140:..\..\u8g2\csrc/u8x8_d_uc1604.c **** #endif
 141:..\..\u8g2\csrc/u8x8_d_uc1604.c ****     default:
 142:..\..\u8g2\csrc/u8x8_d_uc1604.c ****       return 0;
 143:..\..\u8g2\csrc/u8x8_d_uc1604.c ****   }
 144:..\..\u8g2\csrc/u8x8_d_uc1604.c ****   return 1;
 134              		.loc 1 144 0
 135 007e 0120     		movs	r0, #1
 105:..\..\u8g2\csrc/u8x8_d_uc1604.c ****       break;
 136              		.loc 1 105 0
 137 0080 30E0     		b	.L2
 138              	.LVL19:
 139              	.L5:
 116:..\..\u8g2\csrc/u8x8_d_uc1604.c **** 	u8x8_cad_SendSequence(u8x8, u8x8_d_uc1604_powersave0_seq);
ARM GAS  C:\Users\Alan\AppData\Local\Temp\cc5cflMF.s 			page 6


 140              		.loc 1 116 0
 141 0082 002A     		cmp	r2, #0
 142 0084 04D1     		bne	.L9
 117:..\..\u8g2\csrc/u8x8_d_uc1604.c ****       else
 143              		.loc 1 117 0
 144 0086 1949     		ldr	r1, .L12
 145              	.LVL20:
 146 0088 FFF7FEFF 		bl	u8x8_cad_SendSequence
 147              	.LVL21:
 148              		.loc 1 144 0
 149 008c 0120     		movs	r0, #1
 150 008e 29E0     		b	.L2
 151              	.LVL22:
 152              	.L9:
 119:..\..\u8g2\csrc/u8x8_d_uc1604.c ****       break;
 153              		.loc 1 119 0
 154 0090 1649     		ldr	r1, .L12
 155              	.LVL23:
 156 0092 1031     		adds	r1, r1, #16
 157 0094 FFF7FEFF 		bl	u8x8_cad_SendSequence
 158              	.LVL24:
 159              		.loc 1 144 0
 160 0098 0120     		movs	r0, #1
 161 009a 23E0     		b	.L2
 162              	.LVL25:
 163              	.L3:
 122:..\..\u8g2\csrc/u8x8_d_uc1604.c ****       {
 164              		.loc 1 122 0
 165 009c 002A     		cmp	r2, #0
 166 009e 08D1     		bne	.L10
 124:..\..\u8g2\csrc/u8x8_d_uc1604.c **** 	u8x8->x_offset = u8x8->display_info->default_x_offset;
 167              		.loc 1 124 0
 168 00a0 1249     		ldr	r1, .L12
 169              	.LVL26:
 170 00a2 1831     		adds	r1, r1, #24
 171 00a4 FFF7FEFF 		bl	u8x8_cad_SendSequence
 172              	.LVL27:
 125:..\..\u8g2\csrc/u8x8_d_uc1604.c ****       }
 173              		.loc 1 125 0
 174 00a8 2B68     		ldr	r3, [r5]
 175 00aa 9B7C     		ldrb	r3, [r3, #18]
 176 00ac AB77     		strb	r3, [r5, #30]
 177              		.loc 1 144 0
 178 00ae 0120     		movs	r0, #1
 179 00b0 18E0     		b	.L2
 180              	.LVL28:
 181              	.L10:
 129:..\..\u8g2\csrc/u8x8_d_uc1604.c **** 	u8x8->x_offset = u8x8->display_info->flipmode_x_offset;
 182              		.loc 1 129 0
 183 00b2 0E49     		ldr	r1, .L12
 184              	.LVL29:
 185 00b4 2031     		adds	r1, r1, #32
 186 00b6 FFF7FEFF 		bl	u8x8_cad_SendSequence
 187              	.LVL30:
 130:..\..\u8g2\csrc/u8x8_d_uc1604.c ****       }	
 188              		.loc 1 130 0
 189 00ba 2B68     		ldr	r3, [r5]
ARM GAS  C:\Users\Alan\AppData\Local\Temp\cc5cflMF.s 			page 7


 190 00bc DB7C     		ldrb	r3, [r3, #19]
 191 00be AB77     		strb	r3, [r5, #30]
 192              		.loc 1 144 0
 193 00c0 0120     		movs	r0, #1
 194 00c2 0FE0     		b	.L2
 195              	.LVL31:
 196              	.L6:
 135:..\..\u8g2\csrc/u8x8_d_uc1604.c ****       u8x8_cad_SendCmd(u8x8, 0x081 );
 197              		.loc 1 135 0
 198 00c4 FFF7FEFF 		bl	u8x8_cad_StartTransfer
 199              	.LVL32:
 136:..\..\u8g2\csrc/u8x8_d_uc1604.c ****       u8x8_cad_SendArg(u8x8, arg_int  );	/* uc1604 has range from 0 to 255 */
 200              		.loc 1 136 0
 201 00c8 8121     		movs	r1, #129
 202 00ca 2800     		movs	r0, r5
 203 00cc FFF7FEFF 		bl	u8x8_cad_SendCmd
 204              	.LVL33:
 137:..\..\u8g2\csrc/u8x8_d_uc1604.c ****       u8x8_cad_EndTransfer(u8x8);
 205              		.loc 1 137 0
 206 00d0 2100     		movs	r1, r4
 207 00d2 2800     		movs	r0, r5
 208 00d4 FFF7FEFF 		bl	u8x8_cad_SendArg
 209              	.LVL34:
 138:..\..\u8g2\csrc/u8x8_d_uc1604.c ****       break;
 210              		.loc 1 138 0
 211 00d8 2800     		movs	r0, r5
 212 00da FFF7FEFF 		bl	u8x8_cad_EndTransfer
 213              	.LVL35:
 214              		.loc 1 144 0
 215 00de 0120     		movs	r0, #1
 139:..\..\u8g2\csrc/u8x8_d_uc1604.c **** #endif
 216              		.loc 1 139 0
 217 00e0 00E0     		b	.L2
 218              	.LVL36:
 219              	.L11:
 142:..\..\u8g2\csrc/u8x8_d_uc1604.c ****   }
 220              		.loc 1 142 0
 221 00e2 0020     		movs	r0, #0
 222              	.LVL37:
 223              	.L2:
 145:..\..\u8g2\csrc/u8x8_d_uc1604.c **** }
 224              		.loc 1 145 0
 225              		@ sp needed
 226              	.LVL38:
 227 00e4 04BC     		pop	{r2}
 228 00e6 9046     		mov	r8, r2
 229 00e8 F0BD     		pop	{r4, r5, r6, r7, pc}
 230              	.L13:
 231 00ea C046     		.align	2
 232              	.L12:
 233 00ec 00000000 		.word	.LANCHOR0
 234              		.cfi_endproc
 235              	.LFE0:
 236              		.size	u8x8_d_uc1604_common, .-u8x8_d_uc1604_common
 237              		.section	.text.u8x8_d_uc1604_jlx19264,"ax",%progbits
 238              		.align	2
 239              		.global	u8x8_d_uc1604_jlx19264
ARM GAS  C:\Users\Alan\AppData\Local\Temp\cc5cflMF.s 			page 8


 240              		.code	16
 241              		.thumb_func
 242              		.type	u8x8_d_uc1604_jlx19264, %function
 243              	u8x8_d_uc1604_jlx19264:
 244              	.LFB1:
 146:..\..\u8g2\csrc/u8x8_d_uc1604.c **** 
 147:..\..\u8g2\csrc/u8x8_d_uc1604.c **** /*================================================*/
 148:..\..\u8g2\csrc/u8x8_d_uc1604.c **** /* JLX19264 */
 149:..\..\u8g2\csrc/u8x8_d_uc1604.c **** 
 150:..\..\u8g2\csrc/u8x8_d_uc1604.c **** /* 
 151:..\..\u8g2\csrc/u8x8_d_uc1604.c ****   timings from uc1608 
 152:..\..\u8g2\csrc/u8x8_d_uc1604.c **** 
 153:..\..\u8g2\csrc/u8x8_d_uc1604.c ****   UC1604 has two chip select inputs (CS0 and CS1).
 154:..\..\u8g2\csrc/u8x8_d_uc1604.c ****   CS0 is low active, CS1 is high active. It will depend on the display
 155:..\..\u8g2\csrc/u8x8_d_uc1604.c ****   module whether the display has a is low or high active chip select.
 156:..\..\u8g2\csrc/u8x8_d_uc1604.c **** 
 157:..\..\u8g2\csrc/u8x8_d_uc1604.c **** */
 158:..\..\u8g2\csrc/u8x8_d_uc1604.c **** static const u8x8_display_info_t u8x8_uc1604_192x64_display_info =
 159:..\..\u8g2\csrc/u8x8_d_uc1604.c **** {
 160:..\..\u8g2\csrc/u8x8_d_uc1604.c ****   /* chip_enable_level = */ 0,	/* JLX19264G uses CS0, which is low active CS*/
 161:..\..\u8g2\csrc/u8x8_d_uc1604.c ****   /* chip_disable_level = */ 1,
 162:..\..\u8g2\csrc/u8x8_d_uc1604.c ****   
 163:..\..\u8g2\csrc/u8x8_d_uc1604.c ****   /* post_chip_enable_wait_ns = */ 20,	
 164:..\..\u8g2\csrc/u8x8_d_uc1604.c ****   /* pre_chip_disable_wait_ns = */ 20,	
 165:..\..\u8g2\csrc/u8x8_d_uc1604.c ****   /* reset_pulse_width_ms = */ 1, 	
 166:..\..\u8g2\csrc/u8x8_d_uc1604.c ****   /* post_reset_wait_ms = */ 10, 	
 167:..\..\u8g2\csrc/u8x8_d_uc1604.c ****   /* sda_setup_time_ns = */ 30,		
 168:..\..\u8g2\csrc/u8x8_d_uc1604.c ****   /* sck_pulse_width_ns = */ 65,	/* half of cycle time  */
 169:..\..\u8g2\csrc/u8x8_d_uc1604.c ****   /* sck_clock_hz = */ 8000000UL,	/* since Arduino 1.6.0, the SPI bus speed in Hz. Should be  10000
 170:..\..\u8g2\csrc/u8x8_d_uc1604.c ****   /* spi_mode = */ 0,		/* active high, rising edge */
 171:..\..\u8g2\csrc/u8x8_d_uc1604.c ****   /* i2c_bus_clock_100kHz = */ 4,
 172:..\..\u8g2\csrc/u8x8_d_uc1604.c ****   /* data_setup_time_ns = */ 30,	
 173:..\..\u8g2\csrc/u8x8_d_uc1604.c ****   /* write_pulse_width_ns = */ 35,	
 174:..\..\u8g2\csrc/u8x8_d_uc1604.c ****   /* tile_width = */ 24,		/* width of 24*8=192 pixel */
 175:..\..\u8g2\csrc/u8x8_d_uc1604.c ****   /* tile_hight = */ 8,
 176:..\..\u8g2\csrc/u8x8_d_uc1604.c ****   /* default_x_offset = */ 0,	/* reused as y page offset */
 177:..\..\u8g2\csrc/u8x8_d_uc1604.c ****   /* flipmode_x_offset = */ 0,	/* reused as y page offset */
 178:..\..\u8g2\csrc/u8x8_d_uc1604.c ****   /* pixel_width = */ 192,
 179:..\..\u8g2\csrc/u8x8_d_uc1604.c ****   /* pixel_height = */ 64
 180:..\..\u8g2\csrc/u8x8_d_uc1604.c **** };
 181:..\..\u8g2\csrc/u8x8_d_uc1604.c **** 
 182:..\..\u8g2\csrc/u8x8_d_uc1604.c **** static const uint8_t u8x8_d_uc1604_jlx19264_init_seq[] = {
 183:..\..\u8g2\csrc/u8x8_d_uc1604.c ****     
 184:..\..\u8g2\csrc/u8x8_d_uc1604.c ****   U8X8_START_TRANSFER(),             	/* enable chip, delay is part of the transfer start */
 185:..\..\u8g2\csrc/u8x8_d_uc1604.c **** 
 186:..\..\u8g2\csrc/u8x8_d_uc1604.c ****   U8X8_C(0x0e2),            			/* soft reset */
 187:..\..\u8g2\csrc/u8x8_d_uc1604.c ****   U8X8_DLY(200),
 188:..\..\u8g2\csrc/u8x8_d_uc1604.c ****   U8X8_DLY(200),
 189:..\..\u8g2\csrc/u8x8_d_uc1604.c **** 
 190:..\..\u8g2\csrc/u8x8_d_uc1604.c ****   U8X8_C(0x02f),            			/* power on, Bit 2 PC2=1 (internal charge pump), Bits 0/1: cap of pa
 191:..\..\u8g2\csrc/u8x8_d_uc1604.c ****   U8X8_DLY(200),
 192:..\..\u8g2\csrc/u8x8_d_uc1604.c ****   U8X8_DLY(200),
 193:..\..\u8g2\csrc/u8x8_d_uc1604.c ****   
 194:..\..\u8g2\csrc/u8x8_d_uc1604.c ****   U8X8_CA(0x081, 0x052),		/* set contrast, JLX19264G suggestion: 0x045 */
 195:..\..\u8g2\csrc/u8x8_d_uc1604.c ****   U8X8_C(0x0eb),            			/* LCD bias Bits 0/1: 00=6 01=7, 10=8, 11=9 */
 196:..\..\u8g2\csrc/u8x8_d_uc1604.c **** 
 197:..\..\u8g2\csrc/u8x8_d_uc1604.c ****   
ARM GAS  C:\Users\Alan\AppData\Local\Temp\cc5cflMF.s 			page 9


 198:..\..\u8g2\csrc/u8x8_d_uc1604.c ****   //U8X8_C(0x023),            			/* Bit 0/1: Temp compenstation, Bit 2: Multiplex Rate 0=96, 1=128 
 199:..\..\u8g2\csrc/u8x8_d_uc1604.c ****   //U8X8_C(0x027),            			/* Bit 0/1: Temp compenstation, Bit 2: Multiplex Rate 0=96, 1=128 
 200:..\..\u8g2\csrc/u8x8_d_uc1604.c **** 
 201:..\..\u8g2\csrc/u8x8_d_uc1604.c ****   U8X8_C(0x0c4),            			/* Map control, Bit 2: MY=1, Bit 1: MX=0 */
 202:..\..\u8g2\csrc/u8x8_d_uc1604.c ****   U8X8_C(0x0a0),            			/* 0xa0: 76Hz FPS, controller default: 0x0a1: 95Hz FPS */
 203:..\..\u8g2\csrc/u8x8_d_uc1604.c ****   
 204:..\..\u8g2\csrc/u8x8_d_uc1604.c ****   
 205:..\..\u8g2\csrc/u8x8_d_uc1604.c ****   U8X8_C(0x040),            			/* set scroll line to 0 */
 206:..\..\u8g2\csrc/u8x8_d_uc1604.c ****   U8X8_C(0x089),            			/* RAM access control (controller default: 0x089)*/
 207:..\..\u8g2\csrc/u8x8_d_uc1604.c ****   
 208:..\..\u8g2\csrc/u8x8_d_uc1604.c ****   
 209:..\..\u8g2\csrc/u8x8_d_uc1604.c ****   U8X8_C(0x000),		                /* column low nibble */
 210:..\..\u8g2\csrc/u8x8_d_uc1604.c ****   U8X8_C(0x010),		                /* column high nibble */  
 211:..\..\u8g2\csrc/u8x8_d_uc1604.c ****   U8X8_C(0x0b0),		                /* page adr  */
 212:..\..\u8g2\csrc/u8x8_d_uc1604.c ****   
 213:..\..\u8g2\csrc/u8x8_d_uc1604.c ****   
 214:..\..\u8g2\csrc/u8x8_d_uc1604.c ****   U8X8_END_TRANSFER(),             	/* disable chip */
 215:..\..\u8g2\csrc/u8x8_d_uc1604.c ****   U8X8_END()             			/* end of sequence */
 216:..\..\u8g2\csrc/u8x8_d_uc1604.c **** };
 217:..\..\u8g2\csrc/u8x8_d_uc1604.c **** 
 218:..\..\u8g2\csrc/u8x8_d_uc1604.c **** uint8_t u8x8_d_uc1604_jlx19264(u8x8_t *u8x8, uint8_t msg, uint8_t arg_int, void *arg_ptr)
 219:..\..\u8g2\csrc/u8x8_d_uc1604.c **** {
 245              		.loc 1 219 0
 246              		.cfi_startproc
 247              		@ args = 0, pretend = 0, frame = 0
 248              		@ frame_needed = 0, uses_anonymous_args = 0
 249              	.LVL39:
 250 0000 70B5     		push	{r4, r5, r6, lr}
 251              		.cfi_def_cfa_offset 16
 252              		.cfi_offset 4, -16
 253              		.cfi_offset 5, -12
 254              		.cfi_offset 6, -8
 255              		.cfi_offset 14, -4
 256 0002 0500     		movs	r5, r0
 257 0004 0C00     		movs	r4, r1
 220:..\..\u8g2\csrc/u8x8_d_uc1604.c ****   /* call common procedure first and handle messages there */
 221:..\..\u8g2\csrc/u8x8_d_uc1604.c ****   if ( u8x8_d_uc1604_common(u8x8, msg, arg_int, arg_ptr) == 0 )
 258              		.loc 1 221 0
 259 0006 FFF7FEFF 		bl	u8x8_d_uc1604_common
 260              	.LVL40:
 261 000a 0028     		cmp	r0, #0
 262 000c 15D1     		bne	.L18
 222:..\..\u8g2\csrc/u8x8_d_uc1604.c ****   {
 223:..\..\u8g2\csrc/u8x8_d_uc1604.c ****     /* msg not handled, then try here */
 224:..\..\u8g2\csrc/u8x8_d_uc1604.c ****     switch(msg)
 263              		.loc 1 224 0
 264 000e 092C     		cmp	r4, #9
 265 0010 02D0     		beq	.L16
 266 0012 0A2C     		cmp	r4, #10
 267 0014 07D0     		beq	.L17
 268 0016 11E0     		b	.L15
 269              	.L16:
 225:..\..\u8g2\csrc/u8x8_d_uc1604.c ****     {
 226:..\..\u8g2\csrc/u8x8_d_uc1604.c ****       case U8X8_MSG_DISPLAY_SETUP_MEMORY:
 227:..\..\u8g2\csrc/u8x8_d_uc1604.c **** 	u8x8_d_helper_display_setup_memory(u8x8, &u8x8_uc1604_192x64_display_info);
 270              		.loc 1 227 0
 271 0018 0949     		ldr	r1, .L19
ARM GAS  C:\Users\Alan\AppData\Local\Temp\cc5cflMF.s 			page 10


 272 001a 2831     		adds	r1, r1, #40
 273 001c 2800     		movs	r0, r5
 274 001e FFF7FEFF 		bl	u8x8_d_helper_display_setup_memory
 275              	.LVL41:
 228:..\..\u8g2\csrc/u8x8_d_uc1604.c **** 	break;
 229:..\..\u8g2\csrc/u8x8_d_uc1604.c ****       case U8X8_MSG_DISPLAY_INIT:
 230:..\..\u8g2\csrc/u8x8_d_uc1604.c **** 	u8x8_d_helper_display_init(u8x8);
 231:..\..\u8g2\csrc/u8x8_d_uc1604.c **** 	u8x8_cad_SendSequence(u8x8, u8x8_d_uc1604_jlx19264_init_seq);
 232:..\..\u8g2\csrc/u8x8_d_uc1604.c **** 	break;
 233:..\..\u8g2\csrc/u8x8_d_uc1604.c ****       default:
 234:..\..\u8g2\csrc/u8x8_d_uc1604.c **** 	return 0;		/* msg unknown */
 235:..\..\u8g2\csrc/u8x8_d_uc1604.c ****     }
 236:..\..\u8g2\csrc/u8x8_d_uc1604.c ****   }
 237:..\..\u8g2\csrc/u8x8_d_uc1604.c ****   return 1;
 276              		.loc 1 237 0
 277 0022 0120     		movs	r0, #1
 228:..\..\u8g2\csrc/u8x8_d_uc1604.c **** 	break;
 278              		.loc 1 228 0
 279 0024 0AE0     		b	.L15
 280              	.L17:
 230:..\..\u8g2\csrc/u8x8_d_uc1604.c **** 	u8x8_cad_SendSequence(u8x8, u8x8_d_uc1604_jlx19264_init_seq);
 281              		.loc 1 230 0
 282 0026 2800     		movs	r0, r5
 283 0028 FFF7FEFF 		bl	u8x8_d_helper_display_init
 284              	.LVL42:
 231:..\..\u8g2\csrc/u8x8_d_uc1604.c **** 	break;
 285              		.loc 1 231 0
 286 002c 0449     		ldr	r1, .L19
 287 002e 4031     		adds	r1, r1, #64
 288 0030 2800     		movs	r0, r5
 289 0032 FFF7FEFF 		bl	u8x8_cad_SendSequence
 290              	.LVL43:
 291              		.loc 1 237 0
 292 0036 0120     		movs	r0, #1
 232:..\..\u8g2\csrc/u8x8_d_uc1604.c ****       default:
 293              		.loc 1 232 0
 294 0038 00E0     		b	.L15
 295              	.L18:
 296              		.loc 1 237 0
 297 003a 0120     		movs	r0, #1
 298              	.L15:
 238:..\..\u8g2\csrc/u8x8_d_uc1604.c **** }
 299              		.loc 1 238 0
 300              		@ sp needed
 301              	.LVL44:
 302 003c 70BD     		pop	{r4, r5, r6, pc}
 303              	.L20:
 304 003e C046     		.align	2
 305              	.L19:
 306 0040 00000000 		.word	.LANCHOR0
 307              		.cfi_endproc
 308              	.LFE1:
 309              		.size	u8x8_d_uc1604_jlx19264, .-u8x8_d_uc1604_jlx19264
 310              		.section	.rodata
 311              		.align	2
 312              		.set	.LANCHOR0,. + 0
 313              		.type	u8x8_d_uc1604_powersave0_seq, %object
ARM GAS  C:\Users\Alan\AppData\Local\Temp\cc5cflMF.s 			page 11


 314              		.size	u8x8_d_uc1604_powersave0_seq, 13
 315              	u8x8_d_uc1604_powersave0_seq:
 316 0000 18       		.byte	24
 317 0001 FE       		.byte	-2
 318 0002 14       		.byte	20
 319 0003 15       		.byte	21
 320 0004 AF       		.byte	-81
 321 0005 FE       		.byte	-2
 322 0006 14       		.byte	20
 323 0007 15       		.byte	21
 324 0008 AF       		.byte	-81
 325 0009 FE       		.byte	-2
 326 000a 32       		.byte	50
 327 000b 19       		.byte	25
 328 000c FF       		.byte	-1
 329 000d 000000   		.space	3
 330              		.type	u8x8_d_uc1604_powersave1_seq, %object
 331              		.size	u8x8_d_uc1604_powersave1_seq, 5
 332              	u8x8_d_uc1604_powersave1_seq:
 333 0010 18       		.byte	24
 334 0011 15       		.byte	21
 335 0012 AE       		.byte	-82
 336 0013 19       		.byte	25
 337 0014 FF       		.byte	-1
 338 0015 000000   		.space	3
 339              		.type	u8x8_d_uc1604_flip0_seq, %object
 340              		.size	u8x8_d_uc1604_flip0_seq, 5
 341              	u8x8_d_uc1604_flip0_seq:
 342 0018 18       		.byte	24
 343 0019 15       		.byte	21
 344 001a C4       		.byte	-60
 345 001b 19       		.byte	25
 346 001c FF       		.byte	-1
 347 001d 000000   		.space	3
 348              		.type	u8x8_d_uc1604_flip1_seq, %object
 349              		.size	u8x8_d_uc1604_flip1_seq, 5
 350              	u8x8_d_uc1604_flip1_seq:
 351 0020 18       		.byte	24
 352 0021 15       		.byte	21
 353 0022 C2       		.byte	-62
 354 0023 19       		.byte	25
 355 0024 FF       		.byte	-1
 356 0025 000000   		.space	3
 357              		.type	u8x8_uc1604_192x64_display_info, %object
 358              		.size	u8x8_uc1604_192x64_display_info, 24
 359              	u8x8_uc1604_192x64_display_info:
 360 0028 00       		.byte	0
 361 0029 01       		.byte	1
 362 002a 14       		.byte	20
 363 002b 14       		.byte	20
 364 002c 01       		.byte	1
 365 002d 0A       		.byte	10
 366 002e 1E       		.byte	30
 367 002f 41       		.byte	65
 368 0030 00127A00 		.word	8000000
 369 0034 00       		.byte	0
 370 0035 04       		.byte	4
ARM GAS  C:\Users\Alan\AppData\Local\Temp\cc5cflMF.s 			page 12


 371 0036 1E       		.byte	30
 372 0037 23       		.byte	35
 373 0038 18       		.byte	24
 374 0039 08       		.byte	8
 375 003a 00       		.byte	0
 376 003b 00       		.byte	0
 377 003c C000     		.short	192
 378 003e 4000     		.short	64
 379              		.type	u8x8_d_uc1604_jlx19264_init_seq, %object
 380              		.size	u8x8_d_uc1604_jlx19264_init_seq, 35
 381              	u8x8_d_uc1604_jlx19264_init_seq:
 382 0040 18       		.byte	24
 383 0041 15       		.byte	21
 384 0042 E2       		.byte	-30
 385 0043 FE       		.byte	-2
 386 0044 C8       		.byte	-56
 387 0045 FE       		.byte	-2
 388 0046 C8       		.byte	-56
 389 0047 15       		.byte	21
 390 0048 2F       		.byte	47
 391 0049 FE       		.byte	-2
 392 004a C8       		.byte	-56
 393 004b FE       		.byte	-2
 394 004c C8       		.byte	-56
 395 004d 15       		.byte	21
 396 004e 81       		.byte	-127
 397 004f 16       		.byte	22
 398 0050 52       		.byte	82
 399 0051 15       		.byte	21
 400 0052 EB       		.byte	-21
 401 0053 15       		.byte	21
 402 0054 C4       		.byte	-60
 403 0055 15       		.byte	21
 404 0056 A0       		.byte	-96
 405 0057 15       		.byte	21
 406 0058 40       		.byte	64
 407 0059 15       		.byte	21
 408 005a 89       		.byte	-119
 409 005b 15       		.byte	21
 410 005c 00       		.byte	0
 411 005d 15       		.byte	21
 412 005e 10       		.byte	16
 413 005f 15       		.byte	21
 414 0060 B0       		.byte	-80
 415 0061 19       		.byte	25
 416 0062 FF       		.byte	-1
 417              		.text
 418              	.Letext0:
 419              		.file 2 "c:\\program files (x86)\\cypress\\psoc creator\\4.1\\psoc creator\\import\\gnu\\arm\\5.4.
 420              		.file 3 "c:\\program files (x86)\\cypress\\psoc creator\\4.1\\psoc creator\\import\\gnu\\arm\\5.4.
 421              		.file 4 "..\\..\\u8g2\\csrc\\u8x8.h"