ARM GAS  C:\Users\Greg\AppData\Local\Temp\cceDExAc.s 			page 1


   1              		.cpu cortex-m0plus
   2              		.fpu softvfp
   3              		.eabi_attribute 20, 1
   4              		.eabi_attribute 21, 1
   5              		.eabi_attribute 23, 3
   6              		.eabi_attribute 24, 1
   7              		.eabi_attribute 25, 1
   8              		.eabi_attribute 26, 1
   9              		.eabi_attribute 30, 1
  10              		.eabi_attribute 34, 0
  11              		.eabi_attribute 18, 4
  12              		.code	16
  13              		.file	"CSD_Filter.c"
  14              		.text
  15              	.Ltext0:
  16              		.cfi_sections	.debug_frame
  17              		.section	.text.CSD_FtInitializeBaselineChannel,"ax",%progbits
  18              		.align	2
  19              		.global	CSD_FtInitializeBaselineChannel
  20              		.code	16
  21              		.thumb_func
  22              		.type	CSD_FtInitializeBaselineChannel, %function
  23              	CSD_FtInitializeBaselineChannel:
  24              	.LFB10:
  25              		.file 1 "Generated_Source\\PSoC4\\CSD_Filter.c"
   1:Generated_Source\PSoC4/CSD_Filter.c **** /***************************************************************************//**
   2:Generated_Source\PSoC4/CSD_Filter.c **** * \file     CSD_Filter.c
   3:Generated_Source\PSoC4/CSD_Filter.c **** * \version  3.10
   4:Generated_Source\PSoC4/CSD_Filter.c **** *
   5:Generated_Source\PSoC4/CSD_Filter.c **** * \brief    This file contains the implementation source code to implement all 
   6:Generated_Source\PSoC4/CSD_Filter.c **** *           firmware filters.
   7:Generated_Source\PSoC4/CSD_Filter.c **** *
   8:Generated_Source\PSoC4/CSD_Filter.c **** * \see      CapSense P4 v3.10 Datasheet
   9:Generated_Source\PSoC4/CSD_Filter.c **** * 
  10:Generated_Source\PSoC4/CSD_Filter.c **** *//*****************************************************************************
  11:Generated_Source\PSoC4/CSD_Filter.c **** * Copyright (2016), Cypress Semiconductor Corporation.
  12:Generated_Source\PSoC4/CSD_Filter.c **** ********************************************************************************
  13:Generated_Source\PSoC4/CSD_Filter.c **** * This software is owned by Cypress Semiconductor Corporation (Cypress) and is
  14:Generated_Source\PSoC4/CSD_Filter.c **** * protected by and subject to worldwide patent protection (United States and
  15:Generated_Source\PSoC4/CSD_Filter.c **** * foreign), United States copyright laws and international treaty provisions.
  16:Generated_Source\PSoC4/CSD_Filter.c **** * Cypress hereby grants to licensee a personal, non-exclusive, non-transferable
  17:Generated_Source\PSoC4/CSD_Filter.c **** * license to copy, use, modify, create derivative works of, and compile the
  18:Generated_Source\PSoC4/CSD_Filter.c **** * Cypress Source Code and derivative works for the sole purpose of creating
  19:Generated_Source\PSoC4/CSD_Filter.c **** * custom software in support of licensee product to be used only in conjunction
  20:Generated_Source\PSoC4/CSD_Filter.c **** * with a Cypress integrated circuit as specified in the applicable agreement.
  21:Generated_Source\PSoC4/CSD_Filter.c **** * Any reproduction, modification, translation, compilation, or representation of
  22:Generated_Source\PSoC4/CSD_Filter.c **** * this software except as specified above is prohibited without the express
  23:Generated_Source\PSoC4/CSD_Filter.c **** * written permission of Cypress.
  24:Generated_Source\PSoC4/CSD_Filter.c **** *
  25:Generated_Source\PSoC4/CSD_Filter.c **** * Disclaimer: CYPRESS MAKES NO WARRANTY OF ANY KIND, EXPRESS OR IMPLIED, WITH
  26:Generated_Source\PSoC4/CSD_Filter.c **** * REGARD TO THIS MATERIAL, INCLUDING, BUT NOT LIMITED TO, THE IMPLIED
  27:Generated_Source\PSoC4/CSD_Filter.c **** * WARRANTIES OF MERCHANTABILITY AND FITNESS FOR A PARTICULAR PURPOSE.
  28:Generated_Source\PSoC4/CSD_Filter.c **** * Cypress reserves the right to make changes without further notice to the
  29:Generated_Source\PSoC4/CSD_Filter.c **** * materials described herein. Cypress does not assume any liability arising out
  30:Generated_Source\PSoC4/CSD_Filter.c **** * of the application or use of any product or circuit described herein. Cypress
  31:Generated_Source\PSoC4/CSD_Filter.c **** * does not authorize its products for use as critical components in life-support
  32:Generated_Source\PSoC4/CSD_Filter.c **** * systems where a malfunction or failure may reasonably be expected to result in
ARM GAS  C:\Users\Greg\AppData\Local\Temp\cceDExAc.s 			page 2


  33:Generated_Source\PSoC4/CSD_Filter.c **** * significant injury to the user. The inclusion of Cypress' product in a life-
  34:Generated_Source\PSoC4/CSD_Filter.c **** * support systems application implies that the manufacturer assumes all risk of
  35:Generated_Source\PSoC4/CSD_Filter.c **** * such use and in doing so indemnifies Cypress against all charges. Use may be
  36:Generated_Source\PSoC4/CSD_Filter.c **** * limited by and subject to the applicable Cypress software license agreement.
  37:Generated_Source\PSoC4/CSD_Filter.c **** *******************************************************************************/
  38:Generated_Source\PSoC4/CSD_Filter.c **** 
  39:Generated_Source\PSoC4/CSD_Filter.c **** #include "CSD_Filter.h"
  40:Generated_Source\PSoC4/CSD_Filter.c **** #include "CSD_Configuration.h"
  41:Generated_Source\PSoC4/CSD_Filter.c **** 
  42:Generated_Source\PSoC4/CSD_Filter.c **** #if (0 != (CSD_CSD_AUTOTUNE & CSD_CSD_SS_TH_EN))
  43:Generated_Source\PSoC4/CSD_Filter.c ****     #include "CSD_SmartSense_LL.h"
  44:Generated_Source\PSoC4/CSD_Filter.c **** #endif /* (0 != (CSD_CSD_AUTOTUNE & CSD_CSD_SS_TH_EN)) */
  45:Generated_Source\PSoC4/CSD_Filter.c **** 
  46:Generated_Source\PSoC4/CSD_Filter.c **** #if (CSD_ENABLE == CSD_SELF_TEST_EN)
  47:Generated_Source\PSoC4/CSD_Filter.c ****     #include "CSD_SelfTest.h"
  48:Generated_Source\PSoC4/CSD_Filter.c **** #endif
  49:Generated_Source\PSoC4/CSD_Filter.c **** 
  50:Generated_Source\PSoC4/CSD_Filter.c **** /*******************************************************************************
  51:Generated_Source\PSoC4/CSD_Filter.c **** * Function Name: CSD_FtInitialize
  52:Generated_Source\PSoC4/CSD_Filter.c **** ****************************************************************************//**
  53:Generated_Source\PSoC4/CSD_Filter.c **** *
  54:Generated_Source\PSoC4/CSD_Filter.c **** * \brief
  55:Generated_Source\PSoC4/CSD_Filter.c **** *    Initializes all the firmware filter history, except the baseline filter.
  56:Generated_Source\PSoC4/CSD_Filter.c **** *
  57:Generated_Source\PSoC4/CSD_Filter.c **** * \details
  58:Generated_Source\PSoC4/CSD_Filter.c **** *    Initializes all the firmware filter history, except the baseline filter.
  59:Generated_Source\PSoC4/CSD_Filter.c **** *
  60:Generated_Source\PSoC4/CSD_Filter.c **** *******************************************************************************/
  61:Generated_Source\PSoC4/CSD_Filter.c **** void CSD_FtInitialize(void)
  62:Generated_Source\PSoC4/CSD_Filter.c **** {
  63:Generated_Source\PSoC4/CSD_Filter.c ****     uint32 widgetId;
  64:Generated_Source\PSoC4/CSD_Filter.c ****     uint32 sensorId;
  65:Generated_Source\PSoC4/CSD_Filter.c ****     uint32 sensorsNumber;
  66:Generated_Source\PSoC4/CSD_Filter.c **** 
  67:Generated_Source\PSoC4/CSD_Filter.c ****     CSD_FLASH_WD_STRUCT const *ptrWidget;
  68:Generated_Source\PSoC4/CSD_Filter.c ****     CSD_RAM_SNS_STRUCT *ptrSensor = NULL;
  69:Generated_Source\PSoC4/CSD_Filter.c ****     CSD_PTR_FILTER_VARIANT ptrFilterHistObj;
  70:Generated_Source\PSoC4/CSD_Filter.c ****     
  71:Generated_Source\PSoC4/CSD_Filter.c ****     #if CSD_CSD_AUTOTUNE & CSD_CSD_SS_TH_EN
  72:Generated_Source\PSoC4/CSD_Filter.c ****         CSD_RAM_WD_BASE_STRUCT *ptrWidgetRam;
  73:Generated_Source\PSoC4/CSD_Filter.c ****         SMARTSENSE_CSD_NOISE_ENVELOPE_STRUCT *ptrNoiseEnvelope = NULL;
  74:Generated_Source\PSoC4/CSD_Filter.c ****     #endif /* #if CSD_CSD_AUTOTUNE & CSD_CSD_SS_TH_EN */
  75:Generated_Source\PSoC4/CSD_Filter.c ****     
  76:Generated_Source\PSoC4/CSD_Filter.c ****     for (widgetId = CSD_TOTAL_WIDGETS; widgetId-- > 0u;)
  77:Generated_Source\PSoC4/CSD_Filter.c ****     {
  78:Generated_Source\PSoC4/CSD_Filter.c ****         ptrWidget = &CSD_dsFlash.wdgtArray[widgetId];
  79:Generated_Source\PSoC4/CSD_Filter.c ****         
  80:Generated_Source\PSoC4/CSD_Filter.c ****         #if CSD_CSD_AUTOTUNE & CSD_CSD_SS_TH_EN
  81:Generated_Source\PSoC4/CSD_Filter.c ****             ptrWidgetRam = ptrWidget->ptr2WdgtRam;
  82:Generated_Source\PSoC4/CSD_Filter.c ****         #endif /* #if CSD_CSD_AUTOTUNE & CSD_CSD_SS_TH_EN */
  83:Generated_Source\PSoC4/CSD_Filter.c **** 
  84:Generated_Source\PSoC4/CSD_Filter.c ****         /* Find total amount of sensors in specified widget */   
  85:Generated_Source\PSoC4/CSD_Filter.c ****         sensorsNumber = CSD_GET_SNS_CNT_BY_PTR(ptrWidget);    
  86:Generated_Source\PSoC4/CSD_Filter.c ****     
  87:Generated_Source\PSoC4/CSD_Filter.c ****         for (sensorId = sensorsNumber; sensorId-- > 0u;) 
  88:Generated_Source\PSoC4/CSD_Filter.c ****         {
  89:Generated_Source\PSoC4/CSD_Filter.c ****             /* Find pointer to specified sensor object */
ARM GAS  C:\Users\Greg\AppData\Local\Temp\cceDExAc.s 			page 3


  90:Generated_Source\PSoC4/CSD_Filter.c ****             ptrSensor = ptrWidget->ptr2SnsRam;
  91:Generated_Source\PSoC4/CSD_Filter.c ****             ptrSensor = &ptrSensor[sensorId];
  92:Generated_Source\PSoC4/CSD_Filter.c ****                         
  93:Generated_Source\PSoC4/CSD_Filter.c ****             /* Find pointer to to specified filter sensor object */
  94:Generated_Source\PSoC4/CSD_Filter.c ****             ptrFilterHistObj.ptr = ptrWidget->ptr2FltrHistory;
  95:Generated_Source\PSoC4/CSD_Filter.c **** 
  96:Generated_Source\PSoC4/CSD_Filter.c ****             #if CSD_CSD_AUTOTUNE & CSD_CSD_SS_TH_EN
  97:Generated_Source\PSoC4/CSD_Filter.c ****                 /* Find pointer to specified noise envelope sensor object */
  98:Generated_Source\PSoC4/CSD_Filter.c ****                 ptrNoiseEnvelope = ptrWidget->ptr2NoiseEnvlp;
  99:Generated_Source\PSoC4/CSD_Filter.c ****                 ptrNoiseEnvelope = &ptrNoiseEnvelope[sensorId];    
 100:Generated_Source\PSoC4/CSD_Filter.c ****             #endif /* #if CSD_CSD_AUTOTUNE & CSD_CSD_SS_TH_EN */
 101:Generated_Source\PSoC4/CSD_Filter.c ****             
 102:Generated_Source\PSoC4/CSD_Filter.c ****             if ((CSD_WD_TYPE_ENUM)ptrWidget->wdgtType != CSD_WD_PROXIMITY_E)
 103:Generated_Source\PSoC4/CSD_Filter.c ****             {
 104:Generated_Source\PSoC4/CSD_Filter.c ****                 #if (CSD_REGULAR_SENSOR_EN)             
 105:Generated_Source\PSoC4/CSD_Filter.c ****                     ptrFilterHistObj.ptrRegular = &ptrFilterHistObj.ptrRegular[sensorId];
 106:Generated_Source\PSoC4/CSD_Filter.c ****                 #endif /* (CSD_REGULAR_SENSOR_EN) */
 107:Generated_Source\PSoC4/CSD_Filter.c ****             }
 108:Generated_Source\PSoC4/CSD_Filter.c ****             else
 109:Generated_Source\PSoC4/CSD_Filter.c ****             {
 110:Generated_Source\PSoC4/CSD_Filter.c ****                 #if (CSD_PROXIMITY_SENSOR_EN)             
 111:Generated_Source\PSoC4/CSD_Filter.c ****                     ptrFilterHistObj.ptrProx = &ptrFilterHistObj.ptrProx[sensorId];
 112:Generated_Source\PSoC4/CSD_Filter.c ****                 #endif /* (CSD_PROXIMITY_SENSOR_EN) */
 113:Generated_Source\PSoC4/CSD_Filter.c ****             }
 114:Generated_Source\PSoC4/CSD_Filter.c ****             
 115:Generated_Source\PSoC4/CSD_Filter.c ****             #if (CSD_REGULAR_RC_IIR_FILTER_EN || CSD_PROX_RC_IIR_FILTER_EN)
 116:Generated_Source\PSoC4/CSD_Filter.c ****                 CSD_InitializeIIRInternal(ptrFilterHistObj, ptrSensor, (uint32)ptrWidget->wdgtType)
 117:Generated_Source\PSoC4/CSD_Filter.c ****             #endif /* (CSD_REGULAR_RC_IIR_FILTER_EN || CSD_PROX_RC_IIR_FILTER_EN) */               
 118:Generated_Source\PSoC4/CSD_Filter.c **** 
 119:Generated_Source\PSoC4/CSD_Filter.c ****             #if (CSD_REGULAR_RC_MEDIAN_FILTER_EN || CSD_PROX_RC_MEDIAN_FILTER_EN)
 120:Generated_Source\PSoC4/CSD_Filter.c ****                 CSD_InitializeMedianInternal(ptrFilterHistObj, ptrSensor, (uint32)ptrWidget->wdgtTy
 121:Generated_Source\PSoC4/CSD_Filter.c ****             #endif /* (CSD_REGULAR_RC_MEDIAN_FILTER_EN || CSD_PROX_RC_MEDIAN_FILTER_EN) */
 122:Generated_Source\PSoC4/CSD_Filter.c **** 
 123:Generated_Source\PSoC4/CSD_Filter.c ****             #if (CSD_REGULAR_RC_AVERAGE_FILTER_EN || CSD_PROX_RC_AVERAGE_FILTER_EN)
 124:Generated_Source\PSoC4/CSD_Filter.c ****                 CSD_InitializeAverageInternal(ptrFilterHistObj, ptrSensor, (uint32)ptrWidget->wdgtT
 125:Generated_Source\PSoC4/CSD_Filter.c ****             #endif /* (CSD_REGULAR_RC_AVERAGE_FILTER_EN || CSD_PROX_RC_AVERAGE_FILTER_EN) */
 126:Generated_Source\PSoC4/CSD_Filter.c ****             
 127:Generated_Source\PSoC4/CSD_Filter.c ****             #if (CSD_CSD_AUTOTUNE & CSD_CSD_SS_TH_EN)
 128:Generated_Source\PSoC4/CSD_Filter.c ****                 if (CSD_SENSE_METHOD_CSD_E ==
 129:Generated_Source\PSoC4/CSD_Filter.c ****                     CSD_GET_SENSE_METHOD(&CSD_dsFlash.wdgtArray[widgetId]))
 130:Generated_Source\PSoC4/CSD_Filter.c ****                 {
 131:Generated_Source\PSoC4/CSD_Filter.c ****                     SmartSense_InitializeNoiseEnvelope(ptrSensor->raw[0u], ptrWidgetRam->sigPFC, pt
 132:Generated_Source\PSoC4/CSD_Filter.c ****                 }
 133:Generated_Source\PSoC4/CSD_Filter.c ****             #endif /* #if CSD_CSD_AUTOTUNE & CSD_CSD_SS_TH_EN */
 134:Generated_Source\PSoC4/CSD_Filter.c ****         }
 135:Generated_Source\PSoC4/CSD_Filter.c ****     }   
 136:Generated_Source\PSoC4/CSD_Filter.c **** }
 137:Generated_Source\PSoC4/CSD_Filter.c **** 
 138:Generated_Source\PSoC4/CSD_Filter.c **** 
 139:Generated_Source\PSoC4/CSD_Filter.c **** /*******************************************************************************
 140:Generated_Source\PSoC4/CSD_Filter.c **** * Function Name: CSD_UpdateAllBaselines
 141:Generated_Source\PSoC4/CSD_Filter.c **** ****************************************************************************//**
 142:Generated_Source\PSoC4/CSD_Filter.c **** *
 143:Generated_Source\PSoC4/CSD_Filter.c **** * \brief    
 144:Generated_Source\PSoC4/CSD_Filter.c **** *  Updates the baseline for all sensors in all widgets.
 145:Generated_Source\PSoC4/CSD_Filter.c **** *
 146:Generated_Source\PSoC4/CSD_Filter.c **** * \details
ARM GAS  C:\Users\Greg\AppData\Local\Temp\cceDExAc.s 			page 4


 147:Generated_Source\PSoC4/CSD_Filter.c **** *  Updates the baseline for all sensors in all widgets. Baseline updating is a 
 148:Generated_Source\PSoC4/CSD_Filter.c **** *  part of data processing performed by the process functions. So, no need to 
 149:Generated_Source\PSoC4/CSD_Filter.c **** *  call this function except a specific process flow is implemented.
 150:Generated_Source\PSoC4/CSD_Filter.c **** *  
 151:Generated_Source\PSoC4/CSD_Filter.c **** *  This function ignores the value of the wdgtEnable register. Multiple calling 
 152:Generated_Source\PSoC4/CSD_Filter.c **** *  of this function (or any other function with a baseline updating task) 
 153:Generated_Source\PSoC4/CSD_Filter.c **** *  without scanning leads to unexpected behavior.
 154:Generated_Source\PSoC4/CSD_Filter.c **** *
 155:Generated_Source\PSoC4/CSD_Filter.c **** *  If Self-test library is enabled this function executes baseline duplication
 156:Generated_Source\PSoC4/CSD_Filter.c **** *  test. Refer to CSD_CheckBaselineDuplication() for details.
 157:Generated_Source\PSoC4/CSD_Filter.c **** *
 158:Generated_Source\PSoC4/CSD_Filter.c **** * \return   
 159:Generated_Source\PSoC4/CSD_Filter.c **** *  Returns the status of the update baseline operation of all widgets:
 160:Generated_Source\PSoC4/CSD_Filter.c **** *  - CYRET_SUCCESS if operation was successfully completed
 161:Generated_Source\PSoC4/CSD_Filter.c **** *  - CYRET_BAD_DATA if baseline processing failed
 162:Generated_Source\PSoC4/CSD_Filter.c **** *
 163:Generated_Source\PSoC4/CSD_Filter.c **** *******************************************************************************/
 164:Generated_Source\PSoC4/CSD_Filter.c **** cystatus CSD_UpdateAllBaselines(void)
 165:Generated_Source\PSoC4/CSD_Filter.c **** {
 166:Generated_Source\PSoC4/CSD_Filter.c ****     uint32 widgetId; 
 167:Generated_Source\PSoC4/CSD_Filter.c ****     cystatus bslnStatus = CYRET_SUCCESS;
 168:Generated_Source\PSoC4/CSD_Filter.c ****     
 169:Generated_Source\PSoC4/CSD_Filter.c ****     for(widgetId = CSD_TOTAL_WIDGETS; widgetId-- > 0u;)
 170:Generated_Source\PSoC4/CSD_Filter.c ****     {            
 171:Generated_Source\PSoC4/CSD_Filter.c ****         bslnStatus |= CSD_UpdateWidgetBaseline(widgetId);       
 172:Generated_Source\PSoC4/CSD_Filter.c ****     }      
 173:Generated_Source\PSoC4/CSD_Filter.c ****     
 174:Generated_Source\PSoC4/CSD_Filter.c ****     return(bslnStatus);
 175:Generated_Source\PSoC4/CSD_Filter.c **** }
 176:Generated_Source\PSoC4/CSD_Filter.c ****   
 177:Generated_Source\PSoC4/CSD_Filter.c **** 
 178:Generated_Source\PSoC4/CSD_Filter.c **** /*******************************************************************************
 179:Generated_Source\PSoC4/CSD_Filter.c **** * Function Name: CSD_UpdateWidgetBaseline
 180:Generated_Source\PSoC4/CSD_Filter.c **** ****************************************************************************//**
 181:Generated_Source\PSoC4/CSD_Filter.c **** *
 182:Generated_Source\PSoC4/CSD_Filter.c **** * \brief    
 183:Generated_Source\PSoC4/CSD_Filter.c **** *  Updates the baseline for all sensors in a widget specified by input parameter.
 184:Generated_Source\PSoC4/CSD_Filter.c **** *
 185:Generated_Source\PSoC4/CSD_Filter.c **** * \details  
 186:Generated_Source\PSoC4/CSD_Filter.c **** *  This function performs exactly the same tasks as 
 187:Generated_Source\PSoC4/CSD_Filter.c **** *  CSD_UpdateAllBaselines(), but only for a specified widget.
 188:Generated_Source\PSoC4/CSD_Filter.c **** *  
 189:Generated_Source\PSoC4/CSD_Filter.c **** *  This function ignores the value of the wdgtEnable register. Multiple calling
 190:Generated_Source\PSoC4/CSD_Filter.c **** *  of this function (or any other function with a baseline updating task) 
 191:Generated_Source\PSoC4/CSD_Filter.c **** *  without scanning leads to unexpected behavior.
 192:Generated_Source\PSoC4/CSD_Filter.c **** *
 193:Generated_Source\PSoC4/CSD_Filter.c **** *  If Self-test library is enabled this function executes baseline duplication
 194:Generated_Source\PSoC4/CSD_Filter.c **** *  test. Refer to CSD_CheckBaselineDuplication() for details.
 195:Generated_Source\PSoC4/CSD_Filter.c **** *
 196:Generated_Source\PSoC4/CSD_Filter.c **** * \param widgetId 
 197:Generated_Source\PSoC4/CSD_Filter.c **** *  Specify the ID number of the widget to update the baseline of all sensors
 198:Generated_Source\PSoC4/CSD_Filter.c **** *  in the widget.
 199:Generated_Source\PSoC4/CSD_Filter.c **** *  A macro for the widget ID can be found in the 
 200:Generated_Source\PSoC4/CSD_Filter.c **** *  CSD Configuration header file defined as 
 201:Generated_Source\PSoC4/CSD_Filter.c **** *  CSD_<WidgetName>_WDGT_ID.
 202:Generated_Source\PSoC4/CSD_Filter.c **** *
 203:Generated_Source\PSoC4/CSD_Filter.c **** * \return   
ARM GAS  C:\Users\Greg\AppData\Local\Temp\cceDExAc.s 			page 5


 204:Generated_Source\PSoC4/CSD_Filter.c **** *  Returns the status of the specified widget update baseline operation:
 205:Generated_Source\PSoC4/CSD_Filter.c **** *  - CYRET_SUCCESS if operation was successfully completed
 206:Generated_Source\PSoC4/CSD_Filter.c **** *  - CYRET_BAD_DATA if baseline processing failed
 207:Generated_Source\PSoC4/CSD_Filter.c **** *
 208:Generated_Source\PSoC4/CSD_Filter.c **** *******************************************************************************/
 209:Generated_Source\PSoC4/CSD_Filter.c **** cystatus CSD_UpdateWidgetBaseline(uint32 widgetId)
 210:Generated_Source\PSoC4/CSD_Filter.c **** {
 211:Generated_Source\PSoC4/CSD_Filter.c ****     uint32 sensorId;       
 212:Generated_Source\PSoC4/CSD_Filter.c ****     uint32 sensorsNumber;  
 213:Generated_Source\PSoC4/CSD_Filter.c **** 
 214:Generated_Source\PSoC4/CSD_Filter.c ****     CSD_FLASH_WD_STRUCT const *ptrWidget = &CSD_dsFlash.wdgtArray[widgetId];    
 215:Generated_Source\PSoC4/CSD_Filter.c ****     cystatus bslnStatus = CYRET_SUCCESS;    
 216:Generated_Source\PSoC4/CSD_Filter.c ****     
 217:Generated_Source\PSoC4/CSD_Filter.c ****     /* Find total amount of sensors in specified widget */   
 218:Generated_Source\PSoC4/CSD_Filter.c ****     sensorsNumber = CSD_GET_SNS_CNT_BY_PTR(ptrWidget);    
 219:Generated_Source\PSoC4/CSD_Filter.c ****     
 220:Generated_Source\PSoC4/CSD_Filter.c ****     for(sensorId = sensorsNumber; sensorId-- > 0u;)
 221:Generated_Source\PSoC4/CSD_Filter.c ****     {
 222:Generated_Source\PSoC4/CSD_Filter.c ****         bslnStatus |= CSD_UpdateSensorBaseline(widgetId, sensorId);    
 223:Generated_Source\PSoC4/CSD_Filter.c ****     }
 224:Generated_Source\PSoC4/CSD_Filter.c **** 
 225:Generated_Source\PSoC4/CSD_Filter.c ****     return(bslnStatus);
 226:Generated_Source\PSoC4/CSD_Filter.c **** }
 227:Generated_Source\PSoC4/CSD_Filter.c **** 
 228:Generated_Source\PSoC4/CSD_Filter.c **** 
 229:Generated_Source\PSoC4/CSD_Filter.c **** /*******************************************************************************
 230:Generated_Source\PSoC4/CSD_Filter.c **** * Function Name: CSD_UpdateSensorBaseline
 231:Generated_Source\PSoC4/CSD_Filter.c **** ****************************************************************************//**
 232:Generated_Source\PSoC4/CSD_Filter.c **** *
 233:Generated_Source\PSoC4/CSD_Filter.c **** * \brief    
 234:Generated_Source\PSoC4/CSD_Filter.c **** *  Updates the baseline for a sensor in a widget specified by input parameters.
 235:Generated_Source\PSoC4/CSD_Filter.c **** *
 236:Generated_Source\PSoC4/CSD_Filter.c **** * \details  
 237:Generated_Source\PSoC4/CSD_Filter.c **** *  This function performs exactly the same tasks as
 238:Generated_Source\PSoC4/CSD_Filter.c **** *  CSD_UpdateAllBaselines() and 
 239:Generated_Source\PSoC4/CSD_Filter.c **** *  CSD_UpdateWidgetBaseline() but only for a specified sensor.
 240:Generated_Source\PSoC4/CSD_Filter.c **** *  
 241:Generated_Source\PSoC4/CSD_Filter.c **** *  This function ignores the value of the wdgtEnable register. Multiple calling 
 242:Generated_Source\PSoC4/CSD_Filter.c **** *  of this function (or any other function with a baseline updating task) 
 243:Generated_Source\PSoC4/CSD_Filter.c **** *  without scanning leads to unexpected behavior.
 244:Generated_Source\PSoC4/CSD_Filter.c **** *
 245:Generated_Source\PSoC4/CSD_Filter.c **** *  If Self-test library is enabled this function executes baseline duplication
 246:Generated_Source\PSoC4/CSD_Filter.c **** *  test. Refer to CSD_CheckBaselineDuplication() for details.
 247:Generated_Source\PSoC4/CSD_Filter.c **** *
 248:Generated_Source\PSoC4/CSD_Filter.c **** * \param   widgetId 
 249:Generated_Source\PSoC4/CSD_Filter.c **** *  Specify the ID number of the widget to update the baseline of the sensor 
 250:Generated_Source\PSoC4/CSD_Filter.c **** *  specified by the sensorId argument.
 251:Generated_Source\PSoC4/CSD_Filter.c **** *  A macro for the widget ID can be found in the CSD Configuration header 
 252:Generated_Source\PSoC4/CSD_Filter.c **** *  file defined as CSD_<WidgetName>_WDGT_ID. 
 253:Generated_Source\PSoC4/CSD_Filter.c **** *
 254:Generated_Source\PSoC4/CSD_Filter.c **** * \param   sensorId 
 255:Generated_Source\PSoC4/CSD_Filter.c **** *  Specify the ID number of the sensor within the widget to update its baseline.
 256:Generated_Source\PSoC4/CSD_Filter.c **** *  A macro for the sensor ID within a specified widget can be found in the 
 257:Generated_Source\PSoC4/CSD_Filter.c **** *  CSD Configuration header file defined as 
 258:Generated_Source\PSoC4/CSD_Filter.c **** *  CSD_<WidgetName>_SNS<SensorNumber>_ID
 259:Generated_Source\PSoC4/CSD_Filter.c **** *
 260:Generated_Source\PSoC4/CSD_Filter.c **** * \return   
ARM GAS  C:\Users\Greg\AppData\Local\Temp\cceDExAc.s 			page 6


 261:Generated_Source\PSoC4/CSD_Filter.c **** *  Returns the status of the specified sensor update baseline operation:
 262:Generated_Source\PSoC4/CSD_Filter.c **** *  - CYRET_SUCCESS if operation was successfully completed
 263:Generated_Source\PSoC4/CSD_Filter.c **** *  - CYRET_BAD_DATA if baseline processing failed
 264:Generated_Source\PSoC4/CSD_Filter.c **** *
 265:Generated_Source\PSoC4/CSD_Filter.c **** *******************************************************************************/
 266:Generated_Source\PSoC4/CSD_Filter.c **** cystatus CSD_UpdateSensorBaseline(uint32 widgetId, uint32 sensorId)
 267:Generated_Source\PSoC4/CSD_Filter.c **** {    
 268:Generated_Source\PSoC4/CSD_Filter.c ****     uint32 result = CYRET_SUCCESS;
 269:Generated_Source\PSoC4/CSD_Filter.c ****     
 270:Generated_Source\PSoC4/CSD_Filter.c ****     CSD_RAM_SNS_STRUCT *ptrSensor = NULL;    
 271:Generated_Source\PSoC4/CSD_Filter.c ****     CSD_FLASH_WD_STRUCT const *ptrWidget = &CSD_dsFlash.wdgtArray[widgetId];    
 272:Generated_Source\PSoC4/CSD_Filter.c ****     CSD_RAM_WD_BASE_STRUCT *ptrWidgetRam = ptrWidget->ptr2WdgtRam;   
 273:Generated_Source\PSoC4/CSD_Filter.c **** 
 274:Generated_Source\PSoC4/CSD_Filter.c ****     /* Find pointer to specified sensor object */     
 275:Generated_Source\PSoC4/CSD_Filter.c ****     ptrSensor = ptrWidget->ptr2SnsRam;
 276:Generated_Source\PSoC4/CSD_Filter.c ****     ptrSensor = &ptrSensor[sensorId];
 277:Generated_Source\PSoC4/CSD_Filter.c ****     result = CSD_FtUpdateBaseline(ptrWidgetRam, ptrSensor, (uint32)ptrWidget->wdgtType);
 278:Generated_Source\PSoC4/CSD_Filter.c ****     
 279:Generated_Source\PSoC4/CSD_Filter.c ****     #if (CSD_ENABLE == CSD_TST_BSLN_DUPLICATION_EN)
 280:Generated_Source\PSoC4/CSD_Filter.c ****         if (CYRET_SUCCESS != result)
 281:Generated_Source\PSoC4/CSD_Filter.c ****         {
 282:Generated_Source\PSoC4/CSD_Filter.c ****             result = CYRET_BAD_DATA;
 283:Generated_Source\PSoC4/CSD_Filter.c ****             CSD_UpdateTestResultBaselineDuplication(widgetId, sensorId);           
 284:Generated_Source\PSoC4/CSD_Filter.c ****         }
 285:Generated_Source\PSoC4/CSD_Filter.c ****     #endif /* (CSD_ENABLE == CSD_TST_BSLN_DUPLICATION_EN) */
 286:Generated_Source\PSoC4/CSD_Filter.c **** 
 287:Generated_Source\PSoC4/CSD_Filter.c ****     return result;
 288:Generated_Source\PSoC4/CSD_Filter.c **** }
 289:Generated_Source\PSoC4/CSD_Filter.c **** 
 290:Generated_Source\PSoC4/CSD_Filter.c **** /*******************************************************************************
 291:Generated_Source\PSoC4/CSD_Filter.c **** * Function Name: CSD_FtUpdateBaseline
 292:Generated_Source\PSoC4/CSD_Filter.c **** ****************************************************************************//**
 293:Generated_Source\PSoC4/CSD_Filter.c **** *
 294:Generated_Source\PSoC4/CSD_Filter.c **** * \brief
 295:Generated_Source\PSoC4/CSD_Filter.c **** *  Updates the baseline for a sensor specified by an input parameter.
 296:Generated_Source\PSoC4/CSD_Filter.c **** *
 297:Generated_Source\PSoC4/CSD_Filter.c **** * \details
 298:Generated_Source\PSoC4/CSD_Filter.c **** *  Check a matching of present baseline and its inverse duplication. If they 
 299:Generated_Source\PSoC4/CSD_Filter.c **** *  match then updates the baseline for a sensor specified by an input parameter.  
 300:Generated_Source\PSoC4/CSD_Filter.c **** *  If don't match the function return CSD_TST_BSLN_DUPLICATION
 301:Generated_Source\PSoC4/CSD_Filter.c **** *  result and don't update baseline.
 302:Generated_Source\PSoC4/CSD_Filter.c **** *
 303:Generated_Source\PSoC4/CSD_Filter.c **** * \param    ptrWidgetRam
 304:Generated_Source\PSoC4/CSD_Filter.c **** *  The pointer to the widget RAM structure where all the widget parameters
 305:Generated_Source\PSoC4/CSD_Filter.c **** *  are stored.
 306:Generated_Source\PSoC4/CSD_Filter.c **** *
 307:Generated_Source\PSoC4/CSD_Filter.c **** * \param    ptrSensor
 308:Generated_Source\PSoC4/CSD_Filter.c **** *  The pointer to the sensor RAM structure where all the sensor parameters
 309:Generated_Source\PSoC4/CSD_Filter.c **** *  are stored.
 310:Generated_Source\PSoC4/CSD_Filter.c **** *
 311:Generated_Source\PSoC4/CSD_Filter.c **** * \param    wdType
 312:Generated_Source\PSoC4/CSD_Filter.c **** *  Specifies the type of a widget.
 313:Generated_Source\PSoC4/CSD_Filter.c **** *
 314:Generated_Source\PSoC4/CSD_Filter.c **** * \return   
 315:Generated_Source\PSoC4/CSD_Filter.c **** *  Returns a status indicating whether the baseline has been updated:
 316:Generated_Source\PSoC4/CSD_Filter.c **** *  - CYRET_SUCCESS if baseline updating was successful;
 317:Generated_Source\PSoC4/CSD_Filter.c **** *  - CSD_PROCESS_BASELINE_FAILED if present sensor's any channel
ARM GAS  C:\Users\Greg\AppData\Local\Temp\cceDExAc.s 			page 7


 318:Generated_Source\PSoC4/CSD_Filter.c **** *    baseline and its inversion doesn't matched
 319:Generated_Source\PSoC4/CSD_Filter.c **** *
 320:Generated_Source\PSoC4/CSD_Filter.c **** *******************************************************************************/
 321:Generated_Source\PSoC4/CSD_Filter.c **** uint32 CSD_FtUpdateBaseline(
 322:Generated_Source\PSoC4/CSD_Filter.c ****                                 CSD_RAM_WD_BASE_STRUCT *ptrWidgetRam,
 323:Generated_Source\PSoC4/CSD_Filter.c ****                                 CSD_RAM_SNS_STRUCT *ptrSensor, 
 324:Generated_Source\PSoC4/CSD_Filter.c ****                                 uint32 wdType)
 325:Generated_Source\PSoC4/CSD_Filter.c **** {         
 326:Generated_Source\PSoC4/CSD_Filter.c ****     uint32 sign;
 327:Generated_Source\PSoC4/CSD_Filter.c ****     uint32 difference;        
 328:Generated_Source\PSoC4/CSD_Filter.c ****     uint32 channel;
 329:Generated_Source\PSoC4/CSD_Filter.c ****     uint32 result = CYRET_SUCCESS;
 330:Generated_Source\PSoC4/CSD_Filter.c ****     
 331:Generated_Source\PSoC4/CSD_Filter.c ****     #if (CSD_TOTAL_WIDGETS)  
 332:Generated_Source\PSoC4/CSD_Filter.c ****         uint32 history;
 333:Generated_Source\PSoC4/CSD_Filter.c ****     #endif /* (CSD_TOTAL_WIDGETS) */    
 334:Generated_Source\PSoC4/CSD_Filter.c ****     
 335:Generated_Source\PSoC4/CSD_Filter.c ****     /* Apply baseline to every channel in sensor */
 336:Generated_Source\PSoC4/CSD_Filter.c ****     for(channel = CSD_NUM_SCAN_FREQS; channel-- > 0u;) 
 337:Generated_Source\PSoC4/CSD_Filter.c ****     {               
 338:Generated_Source\PSoC4/CSD_Filter.c ****         #if (CSD_ENABLE == CSD_TST_BSLN_DUPLICATION_EN)
 339:Generated_Source\PSoC4/CSD_Filter.c ****             if (ptrSensor->bslnInv[channel] != ((uint16) ~(ptrSensor->bsln[channel])))
 340:Generated_Source\PSoC4/CSD_Filter.c ****             {
 341:Generated_Source\PSoC4/CSD_Filter.c ****                 result = CSD_PROCESS_BASELINE_FAILED;
 342:Generated_Source\PSoC4/CSD_Filter.c ****             }
 343:Generated_Source\PSoC4/CSD_Filter.c ****             else
 344:Generated_Source\PSoC4/CSD_Filter.c ****             {
 345:Generated_Source\PSoC4/CSD_Filter.c ****         #endif /* (CSD_ENABLE == CSD_TST_BSLN_DUPLICATION_EN) */
 346:Generated_Source\PSoC4/CSD_Filter.c **** 
 347:Generated_Source\PSoC4/CSD_Filter.c ****         /* Calculate signal value and its sign */
 348:Generated_Source\PSoC4/CSD_Filter.c ****         if(ptrSensor->raw[channel] >= ptrSensor->bsln[channel])
 349:Generated_Source\PSoC4/CSD_Filter.c ****         {
 350:Generated_Source\PSoC4/CSD_Filter.c ****             difference = (uint32)ptrSensor->raw[channel] - (uint32)ptrSensor->bsln[channel];
 351:Generated_Source\PSoC4/CSD_Filter.c ****             sign = 1u;
 352:Generated_Source\PSoC4/CSD_Filter.c ****             ptrSensor->negBslnRstCnt[channel] = 0u;
 353:Generated_Source\PSoC4/CSD_Filter.c ****         }
 354:Generated_Source\PSoC4/CSD_Filter.c ****         else
 355:Generated_Source\PSoC4/CSD_Filter.c ****         {
 356:Generated_Source\PSoC4/CSD_Filter.c ****             difference = (uint32)ptrSensor->bsln[channel] - (uint32)ptrSensor->raw[channel];
 357:Generated_Source\PSoC4/CSD_Filter.c ****             sign = 0u;
 358:Generated_Source\PSoC4/CSD_Filter.c ****         }     
 359:Generated_Source\PSoC4/CSD_Filter.c ****         
 360:Generated_Source\PSoC4/CSD_Filter.c ****         /* Reset baseline if condition is met */ 
 361:Generated_Source\PSoC4/CSD_Filter.c ****         if((sign == 0u) && (difference > (uint32) ptrWidgetRam->nNoiseTh))
 362:Generated_Source\PSoC4/CSD_Filter.c ****         {
 363:Generated_Source\PSoC4/CSD_Filter.c ****             if(ptrSensor->negBslnRstCnt[channel] >= ptrWidgetRam->lowBslnRst)
 364:Generated_Source\PSoC4/CSD_Filter.c ****             {                
 365:Generated_Source\PSoC4/CSD_Filter.c ****                 CSD_FtInitializeBaselineChannel(ptrSensor, wdType, channel);             
 366:Generated_Source\PSoC4/CSD_Filter.c ****             }
 367:Generated_Source\PSoC4/CSD_Filter.c ****             else
 368:Generated_Source\PSoC4/CSD_Filter.c ****             {
 369:Generated_Source\PSoC4/CSD_Filter.c ****                 ptrSensor->negBslnRstCnt[channel]++;
 370:Generated_Source\PSoC4/CSD_Filter.c ****             }
 371:Generated_Source\PSoC4/CSD_Filter.c ****         }
 372:Generated_Source\PSoC4/CSD_Filter.c ****         else
 373:Generated_Source\PSoC4/CSD_Filter.c ****         {
 374:Generated_Source\PSoC4/CSD_Filter.c ****             #if (!CSD_SENSOR_AUTO_RESET_EN)
ARM GAS  C:\Users\Greg\AppData\Local\Temp\cceDExAc.s 			page 8


 375:Generated_Source\PSoC4/CSD_Filter.c ****                 /* Update baseline only if signal is in range between noiseThreshold and negativeno
 376:Generated_Source\PSoC4/CSD_Filter.c ****                 if ((difference <= (uint32)ptrWidgetRam->noiseTh) ||
 377:Generated_Source\PSoC4/CSD_Filter.c ****                     ((difference < (uint32) ptrWidgetRam->nNoiseTh) && (sign == 0u)))
 378:Generated_Source\PSoC4/CSD_Filter.c ****                 {
 379:Generated_Source\PSoC4/CSD_Filter.c ****             #endif /* (CSD_CSD_AUTO_RESET == CSD_CSD_AUTO_RESET_DISABLE) */
 380:Generated_Source\PSoC4/CSD_Filter.c ****             
 381:Generated_Source\PSoC4/CSD_Filter.c ****             #if (CSD_BASELINE_TYPE == CSD_IIR_BASELINE)  
 382:Generated_Source\PSoC4/CSD_Filter.c ****                 /* Calculate baseline value */
 383:Generated_Source\PSoC4/CSD_Filter.c ****                 if ((CSD_WD_TYPE_ENUM)wdType != CSD_WD_PROXIMITY_E)
 384:Generated_Source\PSoC4/CSD_Filter.c ****                 {
 385:Generated_Source\PSoC4/CSD_Filter.c ****                     #if (CSD_REGULAR_SENSOR_EN) 
 386:Generated_Source\PSoC4/CSD_Filter.c ****                         #if (CSD_REGULAR_IIR_BL_TYPE == CSD_IIR_FILTER_PERFORMANCE)                
 387:Generated_Source\PSoC4/CSD_Filter.c ****                             history = (uint32) ptrSensor->bsln[channel] << 8u; 
 388:Generated_Source\PSoC4/CSD_Filter.c ****                             history |= ptrSensor->bslnExt[channel];
 389:Generated_Source\PSoC4/CSD_Filter.c ****                         #else
 390:Generated_Source\PSoC4/CSD_Filter.c ****                             history = ptrSensor->bsln[channel];                                    
 391:Generated_Source\PSoC4/CSD_Filter.c ****                         #endif /* (CSD_REGULAR_IIR_BL_TYPE == CSD_IIR_FILTER_PERFORMANCE) */       
 392:Generated_Source\PSoC4/CSD_Filter.c ****                     
 393:Generated_Source\PSoC4/CSD_Filter.c ****                         history =  CSD_FtIIR1stOrder(
 394:Generated_Source\PSoC4/CSD_Filter.c ****                                         (uint32)ptrSensor->raw[channel],
 395:Generated_Source\PSoC4/CSD_Filter.c ****                                         history, 
 396:Generated_Source\PSoC4/CSD_Filter.c ****                                         CSD_REGULAR_IIR_BL_N, 
 397:Generated_Source\PSoC4/CSD_Filter.c ****                                         CSD_REGULAR_IIR_BL_SHIFT);
 398:Generated_Source\PSoC4/CSD_Filter.c ****                                                    
 399:Generated_Source\PSoC4/CSD_Filter.c ****                         #if (CSD_REGULAR_IIR_BL_TYPE == CSD_IIR_FILTER_PERFORMANCE)                
 400:Generated_Source\PSoC4/CSD_Filter.c ****                             ptrSensor->bsln[channel] = LO16(history >> 8u);
 401:Generated_Source\PSoC4/CSD_Filter.c ****                             ptrSensor->bslnExt[channel] = LO8(history);
 402:Generated_Source\PSoC4/CSD_Filter.c ****                         #else
 403:Generated_Source\PSoC4/CSD_Filter.c ****                             ptrSensor->bsln[channel] = LO16(history);
 404:Generated_Source\PSoC4/CSD_Filter.c ****                         #endif /* (CSD_REGULAR_IIR_BL_TYPE == CSD_IIR_FILTER_PERFORMANCE) */
 405:Generated_Source\PSoC4/CSD_Filter.c ****                     #endif /* (CSD_REGULAR_SENSOR_EN) */
 406:Generated_Source\PSoC4/CSD_Filter.c ****                 }
 407:Generated_Source\PSoC4/CSD_Filter.c ****                 else 
 408:Generated_Source\PSoC4/CSD_Filter.c ****                 {
 409:Generated_Source\PSoC4/CSD_Filter.c ****                     #if (CSD_PROXIMITY_SENSOR_EN)     
 410:Generated_Source\PSoC4/CSD_Filter.c ****                         #if (CSD_PROX_IIR_BL_TYPE == CSD_IIR_FILTER_PERFORMANCE)                   
 411:Generated_Source\PSoC4/CSD_Filter.c ****                             history = (uint32) ptrSensor->bsln[channel] << 8u; 
 412:Generated_Source\PSoC4/CSD_Filter.c ****                             history |= ptrSensor->bslnExt[channel];
 413:Generated_Source\PSoC4/CSD_Filter.c ****                         #else
 414:Generated_Source\PSoC4/CSD_Filter.c ****                             history = (uint32) ptrSensor->bsln[channel];                           
 415:Generated_Source\PSoC4/CSD_Filter.c ****                         #endif /* (CSD_PROX_IIR_BL_TYPE == CSD_IIR_FILTER_PERFORMANCE) */ 
 416:Generated_Source\PSoC4/CSD_Filter.c ****                         
 417:Generated_Source\PSoC4/CSD_Filter.c ****                         history = CSD_FtIIR1stOrder((uint32)ptrSensor->raw[channel], history, CSD_P
 418:Generated_Source\PSoC4/CSD_Filter.c ****                         
 419:Generated_Source\PSoC4/CSD_Filter.c ****                         #if (CSD_PROX_IIR_BL_TYPE == CSD_IIR_FILTER_PERFORMANCE)                   
 420:Generated_Source\PSoC4/CSD_Filter.c ****                             ptrSensor->bsln[channel] = LO16(history >> 8u);
 421:Generated_Source\PSoC4/CSD_Filter.c ****                             ptrSensor->bslnExt[channel] = LO8(history);
 422:Generated_Source\PSoC4/CSD_Filter.c ****                         #else
 423:Generated_Source\PSoC4/CSD_Filter.c ****                             ptrSensor->bsln[channel] = LO16(history);
 424:Generated_Source\PSoC4/CSD_Filter.c ****                         #endif /* (CSD_PROX_IIR_BL_TYPE == CSD_IIR_FILTER_PERFORMANCE) */        
 425:Generated_Source\PSoC4/CSD_Filter.c ****                     #endif /* (CSD_PROX_SENSOR_EN)   */
 426:Generated_Source\PSoC4/CSD_Filter.c ****                 }
 427:Generated_Source\PSoC4/CSD_Filter.c ****             #else /* (CSD_CSD_BASELINE_TYPE == CSD_IIR_BASELINE)  */
 428:Generated_Source\PSoC4/CSD_Filter.c ****                 
 429:Generated_Source\PSoC4/CSD_Filter.c ****                 /******************************************************************
 430:Generated_Source\PSoC4/CSD_Filter.c ****                 * This is the place where the bucket algorithm should be implemented.
 431:Generated_Source\PSoC4/CSD_Filter.c ****                 * The bucket method will be implemented in future component version.
ARM GAS  C:\Users\Greg\AppData\Local\Temp\cceDExAc.s 			page 9


 432:Generated_Source\PSoC4/CSD_Filter.c ****                 *******************************************************************/
 433:Generated_Source\PSoC4/CSD_Filter.c ****                 
 434:Generated_Source\PSoC4/CSD_Filter.c ****             #endif /* (CSD_CSD_BASELINE_TYPE == CSD_IIR_BASELINE)  */
 435:Generated_Source\PSoC4/CSD_Filter.c ****                     
 436:Generated_Source\PSoC4/CSD_Filter.c ****             #if (!CSD_SENSOR_AUTO_RESET_EN)
 437:Generated_Source\PSoC4/CSD_Filter.c ****                 }
 438:Generated_Source\PSoC4/CSD_Filter.c ****             #endif /* (!CSD_SENSOR_AUTO_RESET_EN) */
 439:Generated_Source\PSoC4/CSD_Filter.c ****         }
 440:Generated_Source\PSoC4/CSD_Filter.c ****                 
 441:Generated_Source\PSoC4/CSD_Filter.c ****         #if (CSD_ENABLE == CSD_TST_BSLN_DUPLICATION_EN)
 442:Generated_Source\PSoC4/CSD_Filter.c ****             /* Update baseline inversion of every channel in sensor */    
 443:Generated_Source\PSoC4/CSD_Filter.c ****             ptrSensor->bslnInv[channel] = ~(ptrSensor->bsln[channel]);
 444:Generated_Source\PSoC4/CSD_Filter.c ****             }
 445:Generated_Source\PSoC4/CSD_Filter.c ****         #endif /* (CSD_ENABLE == CSD_TST_BSLN_DUPLICATION_EN) */
 446:Generated_Source\PSoC4/CSD_Filter.c **** 
 447:Generated_Source\PSoC4/CSD_Filter.c ****     }
 448:Generated_Source\PSoC4/CSD_Filter.c ****     return result;    
 449:Generated_Source\PSoC4/CSD_Filter.c **** }
 450:Generated_Source\PSoC4/CSD_Filter.c **** 
 451:Generated_Source\PSoC4/CSD_Filter.c **** 
 452:Generated_Source\PSoC4/CSD_Filter.c **** /*******************************************************************************
 453:Generated_Source\PSoC4/CSD_Filter.c **** * Function Name: CSD_InitializeAllBaselines
 454:Generated_Source\PSoC4/CSD_Filter.c **** ****************************************************************************//**
 455:Generated_Source\PSoC4/CSD_Filter.c **** *
 456:Generated_Source\PSoC4/CSD_Filter.c **** * \brief    
 457:Generated_Source\PSoC4/CSD_Filter.c **** *  Initializes (or re-initialize) the baseline of all sensors of all widgets.
 458:Generated_Source\PSoC4/CSD_Filter.c **** *
 459:Generated_Source\PSoC4/CSD_Filter.c **** * \details  
 460:Generated_Source\PSoC4/CSD_Filter.c **** *  Initializes the baseline for all sensors of all widgets. Also, this function
 461:Generated_Source\PSoC4/CSD_Filter.c **** *  can be used to re-initialize baselines. CSD_Start() calls this 
 462:Generated_Source\PSoC4/CSD_Filter.c **** *  API as part of CSD operation initialization.
 463:Generated_Source\PSoC4/CSD_Filter.c **** *
 464:Generated_Source\PSoC4/CSD_Filter.c **** *******************************************************************************/
 465:Generated_Source\PSoC4/CSD_Filter.c **** void CSD_InitializeAllBaselines(void)
 466:Generated_Source\PSoC4/CSD_Filter.c **** {
 467:Generated_Source\PSoC4/CSD_Filter.c ****     uint32 widgetId;    
 468:Generated_Source\PSoC4/CSD_Filter.c ****     
 469:Generated_Source\PSoC4/CSD_Filter.c ****     for(widgetId = CSD_TOTAL_WIDGETS; widgetId-- > 0u;)
 470:Generated_Source\PSoC4/CSD_Filter.c ****     {
 471:Generated_Source\PSoC4/CSD_Filter.c ****         CSD_InitializeWidgetBaseline(widgetId); 
 472:Generated_Source\PSoC4/CSD_Filter.c ****     }
 473:Generated_Source\PSoC4/CSD_Filter.c **** }
 474:Generated_Source\PSoC4/CSD_Filter.c **** 
 475:Generated_Source\PSoC4/CSD_Filter.c **** 
 476:Generated_Source\PSoC4/CSD_Filter.c **** /*******************************************************************************
 477:Generated_Source\PSoC4/CSD_Filter.c **** * Function Name: CSD_InitializeWidgetBaseline
 478:Generated_Source\PSoC4/CSD_Filter.c **** ****************************************************************************//**
 479:Generated_Source\PSoC4/CSD_Filter.c **** *
 480:Generated_Source\PSoC4/CSD_Filter.c **** * \brief    
 481:Generated_Source\PSoC4/CSD_Filter.c **** *  Initializes (or re-initialize) the baseline of all sensors in a widget 
 482:Generated_Source\PSoC4/CSD_Filter.c **** *  specified by input parameter. 
 483:Generated_Source\PSoC4/CSD_Filter.c **** *
 484:Generated_Source\PSoC4/CSD_Filter.c **** * \details  
 485:Generated_Source\PSoC4/CSD_Filter.c **** *  Initializes (or re-initializes) the baseline for all sensors of the 
 486:Generated_Source\PSoC4/CSD_Filter.c **** *  specified widget.
 487:Generated_Source\PSoC4/CSD_Filter.c **** *
 488:Generated_Source\PSoC4/CSD_Filter.c **** * \param  widgetId 
ARM GAS  C:\Users\Greg\AppData\Local\Temp\cceDExAc.s 			page 10


 489:Generated_Source\PSoC4/CSD_Filter.c **** *  Specify the ID number of a widget to initialize the baseline of all sensors
 490:Generated_Source\PSoC4/CSD_Filter.c **** *  in the widget. 
 491:Generated_Source\PSoC4/CSD_Filter.c **** *  A macro for the widget ID can be found in the 
 492:Generated_Source\PSoC4/CSD_Filter.c **** *  CSD Configuration header file defined as 
 493:Generated_Source\PSoC4/CSD_Filter.c **** *  CSD_<WidgetName>_WDGT_ID.
 494:Generated_Source\PSoC4/CSD_Filter.c **** *
 495:Generated_Source\PSoC4/CSD_Filter.c **** *******************************************************************************/
 496:Generated_Source\PSoC4/CSD_Filter.c **** void CSD_InitializeWidgetBaseline(uint32 widgetId)
 497:Generated_Source\PSoC4/CSD_Filter.c **** {   
 498:Generated_Source\PSoC4/CSD_Filter.c ****     uint32 sensorId;
 499:Generated_Source\PSoC4/CSD_Filter.c ****     uint32 sensorsNumber;
 500:Generated_Source\PSoC4/CSD_Filter.c ****   
 501:Generated_Source\PSoC4/CSD_Filter.c ****     CSD_FLASH_WD_STRUCT const *ptrWidget = &CSD_dsFlash.wdgtArray[widgetId];
 502:Generated_Source\PSoC4/CSD_Filter.c **** 
 503:Generated_Source\PSoC4/CSD_Filter.c ****     /* Find total amount of sensors in specified widget */   
 504:Generated_Source\PSoC4/CSD_Filter.c ****     sensorsNumber = CSD_GET_SNS_CNT_BY_PTR(ptrWidget);    
 505:Generated_Source\PSoC4/CSD_Filter.c ****     
 506:Generated_Source\PSoC4/CSD_Filter.c ****     for(sensorId = sensorsNumber; sensorId-- > 0u;)
 507:Generated_Source\PSoC4/CSD_Filter.c ****     {
 508:Generated_Source\PSoC4/CSD_Filter.c ****         CSD_InitializeSensorBaseline(widgetId, sensorId);   
 509:Generated_Source\PSoC4/CSD_Filter.c ****     }
 510:Generated_Source\PSoC4/CSD_Filter.c **** }
 511:Generated_Source\PSoC4/CSD_Filter.c **** 
 512:Generated_Source\PSoC4/CSD_Filter.c **** 
 513:Generated_Source\PSoC4/CSD_Filter.c **** /*******************************************************************************
 514:Generated_Source\PSoC4/CSD_Filter.c **** * Function Name: CSD_InitializeSensorBaseline
 515:Generated_Source\PSoC4/CSD_Filter.c **** ****************************************************************************//**
 516:Generated_Source\PSoC4/CSD_Filter.c **** *
 517:Generated_Source\PSoC4/CSD_Filter.c **** * \brief
 518:Generated_Source\PSoC4/CSD_Filter.c **** *  Initializes (or re-initialize) the baseline of a sensor in a widget specified
 519:Generated_Source\PSoC4/CSD_Filter.c **** *  by input parameters.
 520:Generated_Source\PSoC4/CSD_Filter.c **** *
 521:Generated_Source\PSoC4/CSD_Filter.c **** * \details  
 522:Generated_Source\PSoC4/CSD_Filter.c **** *  Initializes (or re-initializes) the baseline for a specified sensor within
 523:Generated_Source\PSoC4/CSD_Filter.c **** *  a specified widget.
 524:Generated_Source\PSoC4/CSD_Filter.c **** *
 525:Generated_Source\PSoC4/CSD_Filter.c **** * \param    widgetId 
 526:Generated_Source\PSoC4/CSD_Filter.c **** *  Specify the ID number of a widget to initialize the baseline of all sensors
 527:Generated_Source\PSoC4/CSD_Filter.c **** *  in the widget.
 528:Generated_Source\PSoC4/CSD_Filter.c **** *  A macro for the widget ID can be found in the 
 529:Generated_Source\PSoC4/CSD_Filter.c **** *  CSD Configuration header file defined as 
 530:Generated_Source\PSoC4/CSD_Filter.c **** *  CSD_<WidgetName>_WDGT_ID.
 531:Generated_Source\PSoC4/CSD_Filter.c **** *  
 532:Generated_Source\PSoC4/CSD_Filter.c **** * \param    sensorId 
 533:Generated_Source\PSoC4/CSD_Filter.c **** *  Specify the ID number of the sensor within the widget to initialize its 
 534:Generated_Source\PSoC4/CSD_Filter.c **** *  baseline.
 535:Generated_Source\PSoC4/CSD_Filter.c **** *  A macro for the sensor ID within a specified widget can be found in the 
 536:Generated_Source\PSoC4/CSD_Filter.c **** *  CSD Configuration header file defined as 
 537:Generated_Source\PSoC4/CSD_Filter.c **** *  CSD_<WidgetName>_SNS<SensorNumber>_ID
 538:Generated_Source\PSoC4/CSD_Filter.c **** *
 539:Generated_Source\PSoC4/CSD_Filter.c **** *******************************************************************************/
 540:Generated_Source\PSoC4/CSD_Filter.c **** void CSD_InitializeSensorBaseline(uint32 widgetId, uint32 sensorId)
 541:Generated_Source\PSoC4/CSD_Filter.c **** {      
 542:Generated_Source\PSoC4/CSD_Filter.c ****     CSD_RAM_SNS_STRUCT *ptrSensor = NULL;    
 543:Generated_Source\PSoC4/CSD_Filter.c ****     CSD_FLASH_WD_STRUCT const *ptrWidget = NULL;
 544:Generated_Source\PSoC4/CSD_Filter.c ****     ptrWidget = &CSD_dsFlash.wdgtArray[widgetId];
 545:Generated_Source\PSoC4/CSD_Filter.c **** 
ARM GAS  C:\Users\Greg\AppData\Local\Temp\cceDExAc.s 			page 11


 546:Generated_Source\PSoC4/CSD_Filter.c ****     /* Find pointer to specified sensor object */     
 547:Generated_Source\PSoC4/CSD_Filter.c ****     ptrSensor = ptrWidget->ptr2SnsRam;
 548:Generated_Source\PSoC4/CSD_Filter.c ****     ptrSensor = &ptrSensor[sensorId];
 549:Generated_Source\PSoC4/CSD_Filter.c **** 
 550:Generated_Source\PSoC4/CSD_Filter.c ****     CSD_FtInitializeBaseline(ptrSensor, (uint32)ptrWidget->wdgtType);
 551:Generated_Source\PSoC4/CSD_Filter.c **** }
 552:Generated_Source\PSoC4/CSD_Filter.c **** 
 553:Generated_Source\PSoC4/CSD_Filter.c **** 
 554:Generated_Source\PSoC4/CSD_Filter.c **** /*******************************************************************************
 555:Generated_Source\PSoC4/CSD_Filter.c **** * Function Name: CSD_FtInitializeBaseline
 556:Generated_Source\PSoC4/CSD_Filter.c **** ****************************************************************************//**
 557:Generated_Source\PSoC4/CSD_Filter.c **** *
 558:Generated_Source\PSoC4/CSD_Filter.c **** * \brief    Initializes the baseline history for a sensor indicated by an input
 559:Generated_Source\PSoC4/CSD_Filter.c **** *           parameter.
 560:Generated_Source\PSoC4/CSD_Filter.c **** *
 561:Generated_Source\PSoC4/CSD_Filter.c **** * \details  Initializes the baseline history for a sensor indicated by an input
 562:Generated_Source\PSoC4/CSD_Filter.c **** *           parameter.
 563:Generated_Source\PSoC4/CSD_Filter.c **** *
 564:Generated_Source\PSoC4/CSD_Filter.c **** * \param    *ptrSensor The pointer to the sensor RAM object.
 565:Generated_Source\PSoC4/CSD_Filter.c **** * \param    wdType     Specifies the type of a widget.
 566:Generated_Source\PSoC4/CSD_Filter.c **** *
 567:Generated_Source\PSoC4/CSD_Filter.c **** *******************************************************************************/
 568:Generated_Source\PSoC4/CSD_Filter.c **** CY_INLINE void CSD_FtInitializeBaseline(CSD_RAM_SNS_STRUCT *ptrSensor, uint32 wdType) 
 569:Generated_Source\PSoC4/CSD_Filter.c **** {
 570:Generated_Source\PSoC4/CSD_Filter.c ****     uint32 channel;
 571:Generated_Source\PSoC4/CSD_Filter.c **** 
 572:Generated_Source\PSoC4/CSD_Filter.c ****     /* Apply baseline initialization to every channel in sensor */    
 573:Generated_Source\PSoC4/CSD_Filter.c ****     for(channel = CSD_NUM_SCAN_FREQS; channel-- > 0u;) 
 574:Generated_Source\PSoC4/CSD_Filter.c ****     {
 575:Generated_Source\PSoC4/CSD_Filter.c ****         CSD_FtInitializeBaselineChannel(ptrSensor, wdType, channel); 
 576:Generated_Source\PSoC4/CSD_Filter.c ****     }
 577:Generated_Source\PSoC4/CSD_Filter.c **** }
 578:Generated_Source\PSoC4/CSD_Filter.c **** 
 579:Generated_Source\PSoC4/CSD_Filter.c **** 
 580:Generated_Source\PSoC4/CSD_Filter.c **** /*******************************************************************************
 581:Generated_Source\PSoC4/CSD_Filter.c **** * Function Name: CSD_FtInitializeBaselineChannel
 582:Generated_Source\PSoC4/CSD_Filter.c **** ****************************************************************************//**
 583:Generated_Source\PSoC4/CSD_Filter.c **** *
 584:Generated_Source\PSoC4/CSD_Filter.c **** * \brief    Initializes the baseline history for a sensor indicated by an input
 585:Generated_Source\PSoC4/CSD_Filter.c **** *           parameter.
 586:Generated_Source\PSoC4/CSD_Filter.c **** *
 587:Generated_Source\PSoC4/CSD_Filter.c **** * \details  Initializes the baseline history for a sensor indicated by an input
 588:Generated_Source\PSoC4/CSD_Filter.c **** *           parameter.
 589:Generated_Source\PSoC4/CSD_Filter.c **** *
 590:Generated_Source\PSoC4/CSD_Filter.c **** * \param    *ptrSensor The pointer to the sensor RAM object.
 591:Generated_Source\PSoC4/CSD_Filter.c **** * \param    wdType     Specifies the type of a widget.
 592:Generated_Source\PSoC4/CSD_Filter.c **** * \param    channel    Specifies the number of the channel to be initialized.
 593:Generated_Source\PSoC4/CSD_Filter.c **** *
 594:Generated_Source\PSoC4/CSD_Filter.c **** *******************************************************************************/
 595:Generated_Source\PSoC4/CSD_Filter.c **** void CSD_FtInitializeBaselineChannel(CSD_RAM_SNS_STRUCT *ptrSensor, uint32 wdType, uint32 channel) 
 596:Generated_Source\PSoC4/CSD_Filter.c **** {
  26              		.loc 1 596 0
  27              		.cfi_startproc
  28              	.LVL0:
 597:Generated_Source\PSoC4/CSD_Filter.c ****     #if (CSD_BASELINE_TYPE == CSD_IIR_BASELINE)  
 598:Generated_Source\PSoC4/CSD_Filter.c ****         if ((CSD_WD_TYPE_ENUM)wdType != CSD_WD_PROXIMITY_E)
  29              		.loc 1 598 0
ARM GAS  C:\Users\Greg\AppData\Local\Temp\cceDExAc.s 			page 12


  30 0000 C9B2     		uxtb	r1, r1
  31              	.LVL1:
  32 0002 0629     		cmp	r1, #6
  33 0004 02D0     		beq	.L2
 599:Generated_Source\PSoC4/CSD_Filter.c ****         {
 600:Generated_Source\PSoC4/CSD_Filter.c ****             #if (CSD_REGULAR_SENSOR_EN)
 601:Generated_Source\PSoC4/CSD_Filter.c ****                 #if (CSD_REGULAR_IIR_BL_TYPE == CSD_IIR_FILTER_PERFORMANCE)                    
 602:Generated_Source\PSoC4/CSD_Filter.c ****                     ptrSensor->bslnExt[channel] = 0u;                
  34              		.loc 1 602 0
  35 0006 8318     		add	r3, r0, r2
  36 0008 0021     		mov	r1, #0
  37 000a 1971     		strb	r1, [r3, #4]
  38              	.L2:
 603:Generated_Source\PSoC4/CSD_Filter.c ****                 #endif /* (CSD_REGULAR_IIR_BL_TYPE == CSD_IIR_FILTER_PERFORMANCE) */
 604:Generated_Source\PSoC4/CSD_Filter.c ****             #endif /* (CSD_REGULAR_SENSOR_EN) */
 605:Generated_Source\PSoC4/CSD_Filter.c ****         }
 606:Generated_Source\PSoC4/CSD_Filter.c ****         else
 607:Generated_Source\PSoC4/CSD_Filter.c ****         {
 608:Generated_Source\PSoC4/CSD_Filter.c ****             #if (CSD_PROXIMITY_SENSOR_EN)     
 609:Generated_Source\PSoC4/CSD_Filter.c ****                 #if (CSD_PROX_IIR_BL_TYPE == CSD_IIR_FILTER_PERFORMANCE)                   
 610:Generated_Source\PSoC4/CSD_Filter.c ****                     ptrSensor->bslnExt[channel] = 0u;               
 611:Generated_Source\PSoC4/CSD_Filter.c ****                 #endif /* (CSD_PROX_IIR_BL_TYPE == CSD_IIR_FILTER_PERFORMANCE) */
 612:Generated_Source\PSoC4/CSD_Filter.c ****             #endif /* (CSD_PROX_SENSOR_EN) */
 613:Generated_Source\PSoC4/CSD_Filter.c ****         }
 614:Generated_Source\PSoC4/CSD_Filter.c ****     #else
 615:Generated_Source\PSoC4/CSD_Filter.c ****         /* CSD_BASELINE_TYPE == CSD_BUCKET_BASELINE */        
 616:Generated_Source\PSoC4/CSD_Filter.c ****         ptrSensor->bslnExt[channel] = 0u;        
 617:Generated_Source\PSoC4/CSD_Filter.c ****     #endif /* (CSD_BASELINE_TYPE == CSD_IIR_BASELINE) */      
 618:Generated_Source\PSoC4/CSD_Filter.c ****     
 619:Generated_Source\PSoC4/CSD_Filter.c ****     ptrSensor->bsln[channel] = ptrSensor->raw[channel]; 
  39              		.loc 1 619 0
  40 000c 5300     		lsl	r3, r2, #1
  41 000e 195A     		ldrh	r1, [r3, r0]
  42 0010 C318     		add	r3, r0, r3
  43 0012 5980     		strh	r1, [r3, #2]
 620:Generated_Source\PSoC4/CSD_Filter.c ****     
 621:Generated_Source\PSoC4/CSD_Filter.c ****     #if (CSD_ENABLE == CSD_TST_BSLN_DUPLICATION_EN)
 622:Generated_Source\PSoC4/CSD_Filter.c ****     /* Update baseline inversion of the channel in sensor */    
 623:Generated_Source\PSoC4/CSD_Filter.c ****         ptrSensor->bslnInv[channel] = ~(ptrSensor->bsln[channel]);
 624:Generated_Source\PSoC4/CSD_Filter.c ****     #endif /* (CSD_ENABLE == CSD_TST_BSLN_DUPLICATION_EN) */
 625:Generated_Source\PSoC4/CSD_Filter.c **** 
 626:Generated_Source\PSoC4/CSD_Filter.c ****     ptrSensor->negBslnRstCnt[channel] = 0u;
  44              		.loc 1 626 0
  45 0014 8218     		add	r2, r0, r2
  46              	.LVL2:
  47 0016 0023     		mov	r3, #0
  48 0018 1372     		strb	r3, [r2, #8]
 627:Generated_Source\PSoC4/CSD_Filter.c **** }
  49              		.loc 1 627 0
  50              		@ sp needed
  51 001a 7047     		bx	lr
  52              		.cfi_endproc
  53              	.LFE10:
  54              		.size	CSD_FtInitializeBaselineChannel, .-CSD_FtInitializeBaselineChannel
  55              		.section	.text.CSD_FtInitializeBaseline,"ax",%progbits
  56              		.align	2
  57              		.global	CSD_FtInitializeBaseline
ARM GAS  C:\Users\Greg\AppData\Local\Temp\cceDExAc.s 			page 13


  58              		.code	16
  59              		.thumb_func
  60              		.type	CSD_FtInitializeBaseline, %function
  61              	CSD_FtInitializeBaseline:
  62              	.LFB9:
 569:Generated_Source\PSoC4/CSD_Filter.c ****     uint32 channel;
  63              		.loc 1 569 0
  64              		.cfi_startproc
  65              	.LVL3:
  66 0000 70B5     		push	{r4, r5, r6, lr}
  67              		.cfi_def_cfa_offset 16
  68              		.cfi_offset 4, -16
  69              		.cfi_offset 5, -12
  70              		.cfi_offset 6, -8
  71              		.cfi_offset 14, -4
  72 0002 061C     		mov	r6, r0
  73 0004 0D1C     		mov	r5, r1
  74              	.LVL4:
 573:Generated_Source\PSoC4/CSD_Filter.c ****     {
  75              		.loc 1 573 0
  76 0006 0123     		mov	r3, #1
  77 0008 05E0     		b	.L4
  78              	.LVL5:
  79              	.L5:
 575:Generated_Source\PSoC4/CSD_Filter.c ****     }
  80              		.loc 1 575 0
  81 000a 301C     		mov	r0, r6
  82 000c 291C     		mov	r1, r5
  83 000e 221C     		mov	r2, r4
  84 0010 FFF7FEFF 		bl	CSD_FtInitializeBaselineChannel
  85              	.LVL6:
 573:Generated_Source\PSoC4/CSD_Filter.c ****     {
  86              		.loc 1 573 0
  87 0014 231C     		mov	r3, r4
  88              	.LVL7:
  89              	.L4:
 573:Generated_Source\PSoC4/CSD_Filter.c ****     {
  90              		.loc 1 573 0 is_stmt 0 discriminator 1
  91 0016 5C1E     		sub	r4, r3, #1
  92              	.LVL8:
  93 0018 002B     		cmp	r3, #0
  94 001a F6D1     		bne	.L5
 577:Generated_Source\PSoC4/CSD_Filter.c **** 
  95              		.loc 1 577 0 is_stmt 1
  96              		@ sp needed
  97              	.LVL9:
  98              	.LVL10:
  99              	.LVL11:
 100 001c 70BD     		pop	{r4, r5, r6, pc}
 101              		.cfi_endproc
 102              	.LFE9:
 103              		.size	CSD_FtInitializeBaseline, .-CSD_FtInitializeBaseline
 104 001e C046     		.section	.text.CSD_InitializeSensorBaseline,"ax",%progbits
 105              		.align	2
 106              		.global	CSD_InitializeSensorBaseline
 107              		.code	16
 108              		.thumb_func
ARM GAS  C:\Users\Greg\AppData\Local\Temp\cceDExAc.s 			page 14


 109              		.type	CSD_InitializeSensorBaseline, %function
 110              	CSD_InitializeSensorBaseline:
 111              	.LFB8:
 541:Generated_Source\PSoC4/CSD_Filter.c ****     CSD_RAM_SNS_STRUCT *ptrSensor = NULL;    
 112              		.loc 1 541 0
 113              		.cfi_startproc
 114              	.LVL12:
 115 0000 70B5     		push	{r4, r5, r6, lr}
 116              		.cfi_def_cfa_offset 16
 117              		.cfi_offset 4, -16
 118              		.cfi_offset 5, -12
 119              		.cfi_offset 6, -8
 120              		.cfi_offset 14, -4
 121              	.LVL13:
 547:Generated_Source\PSoC4/CSD_Filter.c ****     ptrSensor = &ptrSensor[sensorId];
 122              		.loc 1 547 0
 123 0002 0D4D     		ldr	r5, .L9
 124 0004 C300     		lsl	r3, r0, #3
 125 0006 1A1A     		sub	r2, r3, r0
 126 0008 9200     		lsl	r2, r2, #2
 127 000a AA18     		add	r2, r5, r2
 128 000c 9468     		ldr	r4, [r2, #8]
 129              	.LVL14:
 548:Generated_Source\PSoC4/CSD_Filter.c **** 
 130              		.loc 1 548 0
 131 000e 8A00     		lsl	r2, r1, #2
 132 0010 5118     		add	r1, r2, r1
 133              	.LVL15:
 134 0012 4900     		lsl	r1, r1, #1
 135 0014 6418     		add	r4, r4, r1
 136              	.LVL16:
 550:Generated_Source\PSoC4/CSD_Filter.c **** }
 137              		.loc 1 550 0
 138 0016 181A     		sub	r0, r3, r0
 139              	.LVL17:
 140 0018 8000     		lsl	r0, r0, #2
 141 001a 2818     		add	r0, r5, r0
 142 001c 067E     		ldrb	r6, [r0, #24]
 143              	.LVL18:
 144              	.LBB4:
 145              	.LBB5:
 573:Generated_Source\PSoC4/CSD_Filter.c ****     {
 146              		.loc 1 573 0
 147 001e 0123     		mov	r3, #1
 148 0020 05E0     		b	.L7
 149              	.LVL19:
 150              	.L8:
 575:Generated_Source\PSoC4/CSD_Filter.c ****     }
 151              		.loc 1 575 0
 152 0022 201C     		mov	r0, r4
 153 0024 311C     		mov	r1, r6
 154 0026 2A1C     		mov	r2, r5
 155 0028 FFF7FEFF 		bl	CSD_FtInitializeBaselineChannel
 156              	.LVL20:
 573:Generated_Source\PSoC4/CSD_Filter.c ****     {
 157              		.loc 1 573 0
 158 002c 2B1C     		mov	r3, r5
ARM GAS  C:\Users\Greg\AppData\Local\Temp\cceDExAc.s 			page 15


 159              	.LVL21:
 160              	.L7:
 161 002e 5D1E     		sub	r5, r3, #1
 162              	.LVL22:
 163 0030 002B     		cmp	r3, #0
 164 0032 F6D1     		bne	.L8
 165              	.LBE5:
 166              	.LBE4:
 551:Generated_Source\PSoC4/CSD_Filter.c **** 
 167              		.loc 1 551 0
 168              		@ sp needed
 169              	.LVL23:
 170              	.LVL24:
 171              	.LVL25:
 172 0034 70BD     		pop	{r4, r5, r6, pc}
 173              	.L10:
 174 0036 C046     		.align	2
 175              	.L9:
 176 0038 00000000 		.word	CSD_dsFlash
 177              		.cfi_endproc
 178              	.LFE8:
 179              		.size	CSD_InitializeSensorBaseline, .-CSD_InitializeSensorBaseline
 180              		.section	.text.CSD_InitializeWidgetBaseline,"ax",%progbits
 181              		.align	2
 182              		.global	CSD_InitializeWidgetBaseline
 183              		.code	16
 184              		.thumb_func
 185              		.type	CSD_InitializeWidgetBaseline, %function
 186              	CSD_InitializeWidgetBaseline:
 187              	.LFB7:
 497:Generated_Source\PSoC4/CSD_Filter.c ****     uint32 sensorId;
 188              		.loc 1 497 0
 189              		.cfi_startproc
 190              	.LVL26:
 191 0000 38B5     		push	{r3, r4, r5, lr}
 192              		.cfi_def_cfa_offset 16
 193              		.cfi_offset 3, -16
 194              		.cfi_offset 4, -12
 195              		.cfi_offset 5, -8
 196              		.cfi_offset 14, -4
 197 0002 051C     		mov	r5, r0
 198              	.LVL27:
 504:Generated_Source\PSoC4/CSD_Filter.c ****     
 199              		.loc 1 504 0
 200 0004 C300     		lsl	r3, r0, #3
 201 0006 1B1A     		sub	r3, r3, r0
 202 0008 9B00     		lsl	r3, r3, #2
 203 000a 064A     		ldr	r2, .L14
 204 000c D318     		add	r3, r2, r3
 205 000e DB8A     		ldrh	r3, [r3, #22]
 206              	.LVL28:
 506:Generated_Source\PSoC4/CSD_Filter.c ****     {
 207              		.loc 1 506 0
 208 0010 04E0     		b	.L12
 209              	.LVL29:
 210              	.L13:
 508:Generated_Source\PSoC4/CSD_Filter.c ****     }
ARM GAS  C:\Users\Greg\AppData\Local\Temp\cceDExAc.s 			page 16


 211              		.loc 1 508 0
 212 0012 281C     		mov	r0, r5
 213 0014 211C     		mov	r1, r4
 214 0016 FFF7FEFF 		bl	CSD_InitializeSensorBaseline
 215              	.LVL30:
 506:Generated_Source\PSoC4/CSD_Filter.c ****     {
 216              		.loc 1 506 0
 217 001a 231C     		mov	r3, r4
 218              	.LVL31:
 219              	.L12:
 506:Generated_Source\PSoC4/CSD_Filter.c ****     {
 220              		.loc 1 506 0 is_stmt 0 discriminator 1
 221 001c 5C1E     		sub	r4, r3, #1
 222              	.LVL32:
 223 001e 002B     		cmp	r3, #0
 224 0020 F7D1     		bne	.L13
 510:Generated_Source\PSoC4/CSD_Filter.c **** 
 225              		.loc 1 510 0 is_stmt 1
 226              		@ sp needed
 227              	.LVL33:
 228              	.LVL34:
 229 0022 38BD     		pop	{r3, r4, r5, pc}
 230              	.L15:
 231              		.align	2
 232              	.L14:
 233 0024 00000000 		.word	CSD_dsFlash
 234              		.cfi_endproc
 235              	.LFE7:
 236              		.size	CSD_InitializeWidgetBaseline, .-CSD_InitializeWidgetBaseline
 237              		.section	.text.CSD_InitializeAllBaselines,"ax",%progbits
 238              		.align	2
 239              		.global	CSD_InitializeAllBaselines
 240              		.code	16
 241              		.thumb_func
 242              		.type	CSD_InitializeAllBaselines, %function
 243              	CSD_InitializeAllBaselines:
 244              	.LFB6:
 466:Generated_Source\PSoC4/CSD_Filter.c ****     uint32 widgetId;    
 245              		.loc 1 466 0
 246              		.cfi_startproc
 247 0000 10B5     		push	{r4, lr}
 248              		.cfi_def_cfa_offset 8
 249              		.cfi_offset 4, -8
 250              		.cfi_offset 14, -4
 251              	.LVL35:
 469:Generated_Source\PSoC4/CSD_Filter.c ****     {
 252              		.loc 1 469 0
 253 0002 0123     		mov	r3, #1
 254 0004 03E0     		b	.L17
 255              	.LVL36:
 256              	.L18:
 471:Generated_Source\PSoC4/CSD_Filter.c ****     }
 257              		.loc 1 471 0
 258 0006 201C     		mov	r0, r4
 259 0008 FFF7FEFF 		bl	CSD_InitializeWidgetBaseline
 260              	.LVL37:
 469:Generated_Source\PSoC4/CSD_Filter.c ****     {
ARM GAS  C:\Users\Greg\AppData\Local\Temp\cceDExAc.s 			page 17


 261              		.loc 1 469 0
 262 000c 231C     		mov	r3, r4
 263              	.LVL38:
 264              	.L17:
 469:Generated_Source\PSoC4/CSD_Filter.c ****     {
 265              		.loc 1 469 0 is_stmt 0 discriminator 1
 266 000e 5C1E     		sub	r4, r3, #1
 267              	.LVL39:
 268 0010 002B     		cmp	r3, #0
 269 0012 F8D1     		bne	.L18
 473:Generated_Source\PSoC4/CSD_Filter.c **** 
 270              		.loc 1 473 0 is_stmt 1
 271              		@ sp needed
 272              	.LVL40:
 273 0014 10BD     		pop	{r4, pc}
 274              		.cfi_endproc
 275              	.LFE6:
 276              		.size	CSD_InitializeAllBaselines, .-CSD_InitializeAllBaselines
 277 0016 C046     		.section	.text.CSD_InitializeIIRInternal,"ax",%progbits
 278              		.align	2
 279              		.global	CSD_InitializeIIRInternal
 280              		.code	16
 281              		.thumb_func
 282              		.type	CSD_InitializeIIRInternal, %function
 283              	CSD_InitializeIIRInternal:
 284              	.LFB13:
 628:Generated_Source\PSoC4/CSD_Filter.c **** 
 629:Generated_Source\PSoC4/CSD_Filter.c **** 
 630:Generated_Source\PSoC4/CSD_Filter.c **** #if (CSD_REGULAR_RC_IIR_FILTER_EN || CSD_PROX_RC_IIR_FILTER_EN)
 631:Generated_Source\PSoC4/CSD_Filter.c **** 
 632:Generated_Source\PSoC4/CSD_Filter.c **** /*******************************************************************************
 633:Generated_Source\PSoC4/CSD_Filter.c **** * Function Name: CSD_InitializeIIR
 634:Generated_Source\PSoC4/CSD_Filter.c **** ****************************************************************************//**
 635:Generated_Source\PSoC4/CSD_Filter.c **** *
 636:Generated_Source\PSoC4/CSD_Filter.c **** * \brief    Initialize the IIR filter history.
 637:Generated_Source\PSoC4/CSD_Filter.c **** *
 638:Generated_Source\PSoC4/CSD_Filter.c **** * \details  Initialize the IIR filter history.
 639:Generated_Source\PSoC4/CSD_Filter.c **** *
 640:Generated_Source\PSoC4/CSD_Filter.c **** * \param    widgetId Specifies the ID number of the widget.
 641:Generated_Source\PSoC4/CSD_Filter.c **** * \param    sensorId Specifies the ID number of the sensor in the widget.
 642:Generated_Source\PSoC4/CSD_Filter.c **** *
 643:Generated_Source\PSoC4/CSD_Filter.c **** *******************************************************************************/
 644:Generated_Source\PSoC4/CSD_Filter.c **** void CSD_InitializeIIR(uint32 widgetId, uint32 sensorId)
 645:Generated_Source\PSoC4/CSD_Filter.c **** {   
 646:Generated_Source\PSoC4/CSD_Filter.c ****     CSD_FLASH_WD_STRUCT const *ptrWidget = &CSD_dsFlash.wdgtArray[widgetId];      
 647:Generated_Source\PSoC4/CSD_Filter.c ****     CSD_RAM_SNS_STRUCT *ptrSensor = NULL;    
 648:Generated_Source\PSoC4/CSD_Filter.c ****     CSD_PTR_FILTER_VARIANT ptrFilterHistObj; 
 649:Generated_Source\PSoC4/CSD_Filter.c ****               
 650:Generated_Source\PSoC4/CSD_Filter.c ****     /* Find pointer to specified sensor object */     
 651:Generated_Source\PSoC4/CSD_Filter.c ****     ptrSensor = ptrWidget->ptr2SnsRam;
 652:Generated_Source\PSoC4/CSD_Filter.c ****     ptrSensor = &ptrSensor[sensorId];
 653:Generated_Source\PSoC4/CSD_Filter.c ****         
 654:Generated_Source\PSoC4/CSD_Filter.c ****     /* Find pointer to specified filter sensor object */     
 655:Generated_Source\PSoC4/CSD_Filter.c ****     ptrFilterHistObj.ptr = ptrWidget->ptr2FltrHistory;
 656:Generated_Source\PSoC4/CSD_Filter.c ****     
 657:Generated_Source\PSoC4/CSD_Filter.c ****     if ((CSD_WD_TYPE_ENUM)ptrWidget->wdgtType != CSD_WD_PROXIMITY_E)
 658:Generated_Source\PSoC4/CSD_Filter.c ****     {
ARM GAS  C:\Users\Greg\AppData\Local\Temp\cceDExAc.s 			page 18


 659:Generated_Source\PSoC4/CSD_Filter.c ****         #if (CSD_REGULAR_SENSOR_EN)
 660:Generated_Source\PSoC4/CSD_Filter.c ****             ptrFilterHistObj.ptrRegular = &ptrFilterHistObj.ptrRegular[sensorId];
 661:Generated_Source\PSoC4/CSD_Filter.c ****         #endif /* (CSD_REGULAR_SENSOR_EN) */
 662:Generated_Source\PSoC4/CSD_Filter.c ****     }
 663:Generated_Source\PSoC4/CSD_Filter.c ****     else
 664:Generated_Source\PSoC4/CSD_Filter.c ****     {
 665:Generated_Source\PSoC4/CSD_Filter.c ****         #if (CSD_PROXIMITY_SENSOR_EN)
 666:Generated_Source\PSoC4/CSD_Filter.c ****             ptrFilterHistObj.ptrProx = &ptrFilterHistObj.ptrProx[sensorId];
 667:Generated_Source\PSoC4/CSD_Filter.c ****         #endif /* (CSD_PROXIMITY_SENSOR_EN) */
 668:Generated_Source\PSoC4/CSD_Filter.c ****     }    
 669:Generated_Source\PSoC4/CSD_Filter.c ****     
 670:Generated_Source\PSoC4/CSD_Filter.c ****     CSD_InitializeIIRInternal(ptrFilterHistObj, ptrSensor, (uint32)ptrWidget->wdgtType);
 671:Generated_Source\PSoC4/CSD_Filter.c **** }
 672:Generated_Source\PSoC4/CSD_Filter.c **** 
 673:Generated_Source\PSoC4/CSD_Filter.c **** 
 674:Generated_Source\PSoC4/CSD_Filter.c **** /*******************************************************************************
 675:Generated_Source\PSoC4/CSD_Filter.c **** * Function Name: CSD_RunIIR
 676:Generated_Source\PSoC4/CSD_Filter.c **** ****************************************************************************//**
 677:Generated_Source\PSoC4/CSD_Filter.c **** *
 678:Generated_Source\PSoC4/CSD_Filter.c **** * \brief    Executes the IIR filter algorithm on a sensor indicated by an input
 679:Generated_Source\PSoC4/CSD_Filter.c **** *           parameter. 
 680:Generated_Source\PSoC4/CSD_Filter.c **** *
 681:Generated_Source\PSoC4/CSD_Filter.c **** * \details  Executes the IIR filter algorithm on a sensor indicated by an input
 682:Generated_Source\PSoC4/CSD_Filter.c **** *           parameter. 
 683:Generated_Source\PSoC4/CSD_Filter.c **** *
 684:Generated_Source\PSoC4/CSD_Filter.c **** * \param    widgetId Specifies the ID number of the widget.
 685:Generated_Source\PSoC4/CSD_Filter.c **** * \param    sensorId Specifies the ID number of the sensor in the widget.
 686:Generated_Source\PSoC4/CSD_Filter.c **** *
 687:Generated_Source\PSoC4/CSD_Filter.c **** *******************************************************************************/
 688:Generated_Source\PSoC4/CSD_Filter.c **** void CSD_RunIIR(uint32 widgetId, uint32 sensorId)
 689:Generated_Source\PSoC4/CSD_Filter.c **** {
 690:Generated_Source\PSoC4/CSD_Filter.c ****     CSD_FLASH_WD_STRUCT const *ptrWidget = &CSD_dsFlash.wdgtArray[widgetId];      
 691:Generated_Source\PSoC4/CSD_Filter.c ****     CSD_RAM_SNS_STRUCT *ptrSensor = NULL;    
 692:Generated_Source\PSoC4/CSD_Filter.c ****     CSD_PTR_FILTER_VARIANT ptrFilterHistObj; 
 693:Generated_Source\PSoC4/CSD_Filter.c ****               
 694:Generated_Source\PSoC4/CSD_Filter.c ****     /* Find pointer to specified sensor object */     
 695:Generated_Source\PSoC4/CSD_Filter.c ****     ptrSensor = ptrWidget->ptr2SnsRam;
 696:Generated_Source\PSoC4/CSD_Filter.c ****     ptrSensor = &ptrSensor[sensorId];
 697:Generated_Source\PSoC4/CSD_Filter.c ****         
 698:Generated_Source\PSoC4/CSD_Filter.c ****     /* Find pointer to specified filter sensor object */     
 699:Generated_Source\PSoC4/CSD_Filter.c ****     ptrFilterHistObj.ptr = ptrWidget->ptr2FltrHistory;
 700:Generated_Source\PSoC4/CSD_Filter.c ****     
 701:Generated_Source\PSoC4/CSD_Filter.c ****     if ((CSD_WD_TYPE_ENUM)ptrWidget->wdgtType != CSD_WD_PROXIMITY_E)
 702:Generated_Source\PSoC4/CSD_Filter.c ****     {
 703:Generated_Source\PSoC4/CSD_Filter.c ****         #if (CSD_REGULAR_SENSOR_EN)
 704:Generated_Source\PSoC4/CSD_Filter.c ****             ptrFilterHistObj.ptrRegular = &ptrFilterHistObj.ptrRegular[sensorId];
 705:Generated_Source\PSoC4/CSD_Filter.c ****         #endif /* (CSD_REGULAR_SENSOR_EN) */
 706:Generated_Source\PSoC4/CSD_Filter.c ****     }
 707:Generated_Source\PSoC4/CSD_Filter.c ****     else
 708:Generated_Source\PSoC4/CSD_Filter.c ****     {
 709:Generated_Source\PSoC4/CSD_Filter.c ****         #if (CSD_PROXIMITY_SENSOR_EN)
 710:Generated_Source\PSoC4/CSD_Filter.c ****             ptrFilterHistObj.ptrProx = &ptrFilterHistObj.ptrProx[sensorId];
 711:Generated_Source\PSoC4/CSD_Filter.c ****         #endif /* (CSD_PROXIMITY_SENSOR_EN) */
 712:Generated_Source\PSoC4/CSD_Filter.c ****     }    
 713:Generated_Source\PSoC4/CSD_Filter.c ****     
 714:Generated_Source\PSoC4/CSD_Filter.c ****     CSD_RunIIRInternal(ptrFilterHistObj, ptrSensor, (uint32)ptrWidget->wdgtType);
 715:Generated_Source\PSoC4/CSD_Filter.c **** }
ARM GAS  C:\Users\Greg\AppData\Local\Temp\cceDExAc.s 			page 19


 716:Generated_Source\PSoC4/CSD_Filter.c ****     
 717:Generated_Source\PSoC4/CSD_Filter.c **** /*******************************************************************************
 718:Generated_Source\PSoC4/CSD_Filter.c **** * Function Name: CSD_InitializeIIRInternal
 719:Generated_Source\PSoC4/CSD_Filter.c **** ****************************************************************************//**
 720:Generated_Source\PSoC4/CSD_Filter.c **** *
 721:Generated_Source\PSoC4/CSD_Filter.c **** * \brief    Initializes the IIR filter history.
 722:Generated_Source\PSoC4/CSD_Filter.c **** *
 723:Generated_Source\PSoC4/CSD_Filter.c **** * \details  Initializes the IIR filter history.
 724:Generated_Source\PSoC4/CSD_Filter.c **** *
 725:Generated_Source\PSoC4/CSD_Filter.c **** * \param    ptrFilterHistObj The pointer to the filter RAM object of the sensor.
 726:Generated_Source\PSoC4/CSD_Filter.c **** * \param    ptrSensorObj     The pointer to the sensor RAM object of the sensor.
 727:Generated_Source\PSoC4/CSD_Filter.c **** * \param    wdType           Specifies the type of a widget.                                  
 728:Generated_Source\PSoC4/CSD_Filter.c **** *
 729:Generated_Source\PSoC4/CSD_Filter.c **** *******************************************************************************/
 730:Generated_Source\PSoC4/CSD_Filter.c **** void CSD_InitializeIIRInternal(CSD_PTR_FILTER_VARIANT ptrFilterHistObj,
 731:Generated_Source\PSoC4/CSD_Filter.c ****                                             CSD_RAM_SNS_STRUCT *ptrSensorObj, uint32 wdType)
 732:Generated_Source\PSoC4/CSD_Filter.c **** {
 285              		.loc 1 732 0
 286              		.cfi_startproc
 287              	.LVL41:
 288 0000 30B5     		push	{r4, r5, lr}
 289              		.cfi_def_cfa_offset 12
 290              		.cfi_offset 4, -12
 291              		.cfi_offset 5, -8
 292              		.cfi_offset 14, -4
 293              	.LVL42:
 733:Generated_Source\PSoC4/CSD_Filter.c ****     uint32 channel;
 734:Generated_Source\PSoC4/CSD_Filter.c **** 
 735:Generated_Source\PSoC4/CSD_Filter.c ****     for(channel = CSD_NUM_SCAN_FREQS; channel-- > 0u;)
 294              		.loc 1 735 0
 295 0002 0123     		mov	r3, #1
 296 0004 06E0     		b	.L20
 297              	.LVL43:
 298              	.L22:
 736:Generated_Source\PSoC4/CSD_Filter.c ****     {
 737:Generated_Source\PSoC4/CSD_Filter.c ****         if ((CSD_WD_TYPE_ENUM)wdType != CSD_WD_PROXIMITY_E)
 299              		.loc 1 737 0
 300 0006 D3B2     		uxtb	r3, r2
 301 0008 062B     		cmp	r3, #6
 302 000a 02D0     		beq	.L21
 738:Generated_Source\PSoC4/CSD_Filter.c ****         {
 739:Generated_Source\PSoC4/CSD_Filter.c ****             #if (CSD_REGULAR_SENSOR_EN && CSD_REGULAR_RC_IIR_FILTER_EN)
 740:Generated_Source\PSoC4/CSD_Filter.c ****                 #if (CSD_REGULAR_IIR_RC_TYPE == CSD_IIR_FILTER_PERFORMANCE)
 741:Generated_Source\PSoC4/CSD_Filter.c ****                     ptrFilterHistObj.ptrRegular->regularChannel[channel].iirHistory = ptrSensorObj-
 742:Generated_Source\PSoC4/CSD_Filter.c ****                     ptrFilterHistObj.ptrRegular->regularChannel[channel].iirHistoryLow = 0u;
 743:Generated_Source\PSoC4/CSD_Filter.c ****                 #else
 744:Generated_Source\PSoC4/CSD_Filter.c ****                     ptrFilterHistObj.ptrRegular->regularChannel[channel].iirHistory = ptrSensorObj-
 303              		.loc 1 744 0
 304 000c 6300     		lsl	r3, r4, #1
 305 000e 5D5A     		ldrh	r5, [r3, r1]
 306 0010 1D52     		strh	r5, [r3, r0]
 307              	.L21:
 732:Generated_Source\PSoC4/CSD_Filter.c ****     uint32 channel;
 308              		.loc 1 732 0 discriminator 1
 309 0012 231C     		mov	r3, r4
 310              	.LVL44:
 311              	.L20:
ARM GAS  C:\Users\Greg\AppData\Local\Temp\cceDExAc.s 			page 20


 735:Generated_Source\PSoC4/CSD_Filter.c ****     {
 312              		.loc 1 735 0 discriminator 1
 313 0014 5C1E     		sub	r4, r3, #1
 314              	.LVL45:
 315 0016 002B     		cmp	r3, #0
 316 0018 F5D1     		bne	.L22
 745:Generated_Source\PSoC4/CSD_Filter.c ****                 #endif /* (CSD_REGULAR_IIR_RC_TYPE == CSD_IIR_FILTER_PERFORMANCE) */
 746:Generated_Source\PSoC4/CSD_Filter.c ****             #endif /* (CSD_REGULAR_SENSOR_EN) */    
 747:Generated_Source\PSoC4/CSD_Filter.c ****         }
 748:Generated_Source\PSoC4/CSD_Filter.c ****         else
 749:Generated_Source\PSoC4/CSD_Filter.c ****         {
 750:Generated_Source\PSoC4/CSD_Filter.c ****             #if (CSD_PROXIMITY_SENSOR_EN && CSD_PROX_RC_IIR_FILTER_EN)
 751:Generated_Source\PSoC4/CSD_Filter.c ****                 #if (CSD_PROX_IIR_RC_TYPE == CSD_IIR_FILTER_PERFORMANCE)
 752:Generated_Source\PSoC4/CSD_Filter.c ****                     ptrFilterHistObj.ptrProx->proxChannel[channel].iirHistory = ptrSensorObj->raw[c
 753:Generated_Source\PSoC4/CSD_Filter.c ****                     ptrFilterHistObj.ptrProx->proxChannel[channel].iirHistoryLow = 0u;    
 754:Generated_Source\PSoC4/CSD_Filter.c ****                 #else
 755:Generated_Source\PSoC4/CSD_Filter.c ****                     ptrFilterHistObj.ptrProx->proxChannel[channel].iirHistory = ptrSensorObj->raw[c
 756:Generated_Source\PSoC4/CSD_Filter.c ****                 #endif /* (CSD_PROX_IIR_RC_TYPE == CSD_IIR_FILTER_PERFORMANCE) */
 757:Generated_Source\PSoC4/CSD_Filter.c ****             #endif /* (CSD_PROX_SENSOR_EN) */
 758:Generated_Source\PSoC4/CSD_Filter.c ****         }    
 759:Generated_Source\PSoC4/CSD_Filter.c ****     }    
 760:Generated_Source\PSoC4/CSD_Filter.c **** }
 317              		.loc 1 760 0
 318              		@ sp needed
 319              	.LVL46:
 320 001a 30BD     		pop	{r4, r5, pc}
 321              		.cfi_endproc
 322              	.LFE13:
 323              		.size	CSD_InitializeIIRInternal, .-CSD_InitializeIIRInternal
 324              		.section	.text.CSD_FtInitialize,"ax",%progbits
 325              		.align	2
 326              		.global	CSD_FtInitialize
 327              		.code	16
 328              		.thumb_func
 329              		.type	CSD_FtInitialize, %function
 330              	CSD_FtInitialize:
 331              	.LFB1:
  62:Generated_Source\PSoC4/CSD_Filter.c ****     uint32 widgetId;
 332              		.loc 1 62 0
 333              		.cfi_startproc
 334 0000 70B5     		push	{r4, r5, r6, lr}
 335              		.cfi_def_cfa_offset 16
 336              		.cfi_offset 4, -16
 337              		.cfi_offset 5, -12
 338              		.cfi_offset 6, -8
 339              		.cfi_offset 14, -4
 340              	.LVL47:
  76:Generated_Source\PSoC4/CSD_Filter.c ****     {
 341              		.loc 1 76 0
 342 0002 0123     		mov	r3, #1
 343 0004 1FE0     		b	.L24
 344              	.LVL48:
 345              	.L28:
  85:Generated_Source\PSoC4/CSD_Filter.c ****     
 346              		.loc 1 85 0
 347 0006 EB00     		lsl	r3, r5, #3
 348 0008 5B1B     		sub	r3, r3, r5
ARM GAS  C:\Users\Greg\AppData\Local\Temp\cceDExAc.s 			page 21


 349 000a 9B00     		lsl	r3, r3, #2
 350 000c 104A     		ldr	r2, .L29
 351 000e D318     		add	r3, r2, r3
 352 0010 DB8A     		ldrh	r3, [r3, #22]
 353              	.LVL49:
  87:Generated_Source\PSoC4/CSD_Filter.c ****         {
 354              		.loc 1 87 0
 355 0012 14E0     		b	.L25
 356              	.LVL50:
 357              	.L27:
  90:Generated_Source\PSoC4/CSD_Filter.c ****             ptrSensor = &ptrSensor[sensorId];
 358              		.loc 1 90 0
 359 0014 EB00     		lsl	r3, r5, #3
 360 0016 5B1B     		sub	r3, r3, r5
 361 0018 9B00     		lsl	r3, r3, #2
 362 001a 0D4A     		ldr	r2, .L29
 363 001c D318     		add	r3, r2, r3
 364              	.LVL51:
  91:Generated_Source\PSoC4/CSD_Filter.c ****                         
 365              		.loc 1 91 0
 366 001e A100     		lsl	r1, r4, #2
 367 0020 0919     		add	r1, r1, r4
 368 0022 4900     		lsl	r1, r1, #1
 369 0024 9A68     		ldr	r2, [r3, #8]
 370 0026 9446     		mov	ip, r2
 371 0028 6144     		add	r1, r1, ip
 372              	.LVL52:
  94:Generated_Source\PSoC4/CSD_Filter.c **** 
 373              		.loc 1 94 0
 374 002a DE68     		ldr	r6, [r3, #12]
 375 002c 301C     		mov	r0, r6
 376              	.LVL53:
 102:Generated_Source\PSoC4/CSD_Filter.c ****             {
 377              		.loc 1 102 0
 378 002e 1A7E     		ldrb	r2, [r3, #24]
 379 0030 062A     		cmp	r2, #6
 380 0032 01D0     		beq	.L26
 105:Generated_Source\PSoC4/CSD_Filter.c ****                 #endif /* (CSD_REGULAR_SENSOR_EN) */
 381              		.loc 1 105 0
 382 0034 6000     		lsl	r0, r4, #1
 383 0036 3018     		add	r0, r6, r0
 384              	.L26:
 116:Generated_Source\PSoC4/CSD_Filter.c ****             #endif /* (CSD_REGULAR_RC_IIR_FILTER_EN || CSD_PROX_RC_IIR_FILTER_EN) */               
 385              		.loc 1 116 0
 386 0038 FFF7FEFF 		bl	CSD_InitializeIIRInternal
 387              	.LVL54:
  87:Generated_Source\PSoC4/CSD_Filter.c ****         {
 388              		.loc 1 87 0
 389 003c 231C     		mov	r3, r4
 390              	.LVL55:
 391              	.L25:
  87:Generated_Source\PSoC4/CSD_Filter.c ****         {
 392              		.loc 1 87 0 is_stmt 0 discriminator 1
 393 003e 5C1E     		sub	r4, r3, #1
 394              	.LVL56:
 395 0040 002B     		cmp	r3, #0
 396 0042 E7D1     		bne	.L27
ARM GAS  C:\Users\Greg\AppData\Local\Temp\cceDExAc.s 			page 22


  76:Generated_Source\PSoC4/CSD_Filter.c ****     {
 397              		.loc 1 76 0 is_stmt 1
 398 0044 2B1C     		mov	r3, r5
 399              	.LVL57:
 400              	.L24:
  76:Generated_Source\PSoC4/CSD_Filter.c ****     {
 401              		.loc 1 76 0 is_stmt 0 discriminator 1
 402 0046 5D1E     		sub	r5, r3, #1
 403              	.LVL58:
 404 0048 002B     		cmp	r3, #0
 405 004a DCD1     		bne	.L28
 136:Generated_Source\PSoC4/CSD_Filter.c **** 
 406              		.loc 1 136 0 is_stmt 1
 407              		@ sp needed
 408              	.LVL59:
 409 004c 70BD     		pop	{r4, r5, r6, pc}
 410              	.L30:
 411 004e C046     		.align	2
 412              	.L29:
 413 0050 00000000 		.word	CSD_dsFlash
 414              		.cfi_endproc
 415              	.LFE1:
 416              		.size	CSD_FtInitialize, .-CSD_FtInitialize
 417              		.section	.text.CSD_InitializeIIR,"ax",%progbits
 418              		.align	2
 419              		.global	CSD_InitializeIIR
 420              		.code	16
 421              		.thumb_func
 422              		.type	CSD_InitializeIIR, %function
 423              	CSD_InitializeIIR:
 424              	.LFB11:
 645:Generated_Source\PSoC4/CSD_Filter.c ****     CSD_FLASH_WD_STRUCT const *ptrWidget = &CSD_dsFlash.wdgtArray[widgetId];      
 425              		.loc 1 645 0
 426              		.cfi_startproc
 427              	.LVL60:
 428 0000 F8B5     		push	{r3, r4, r5, r6, r7, lr}
 429              		.cfi_def_cfa_offset 24
 430              		.cfi_offset 3, -24
 431              		.cfi_offset 4, -20
 432              		.cfi_offset 5, -16
 433              		.cfi_offset 6, -12
 434              		.cfi_offset 7, -8
 435              		.cfi_offset 14, -4
 436              	.LVL61:
 651:Generated_Source\PSoC4/CSD_Filter.c ****     ptrSensor = &ptrSensor[sensorId];
 437              		.loc 1 651 0
 438 0002 0D4E     		ldr	r6, .L33
 439 0004 C200     		lsl	r2, r0, #3
 440 0006 141A     		sub	r4, r2, r0
 441 0008 A400     		lsl	r4, r4, #2
 442 000a 3519     		add	r5, r6, r4
 443              	.LVL62:
 652:Generated_Source\PSoC4/CSD_Filter.c ****         
 444              		.loc 1 652 0
 445 000c 8C00     		lsl	r4, r1, #2
 446 000e 6418     		add	r4, r4, r1
 447 0010 6400     		lsl	r4, r4, #1
ARM GAS  C:\Users\Greg\AppData\Local\Temp\cceDExAc.s 			page 23


 448 0012 AB68     		ldr	r3, [r5, #8]
 449 0014 9C46     		mov	ip, r3
 450 0016 6444     		add	r4, r4, ip
 451              	.LVL63:
 655:Generated_Source\PSoC4/CSD_Filter.c ****     
 452              		.loc 1 655 0
 453 0018 EF68     		ldr	r7, [r5, #12]
 454 001a 3D1C     		mov	r5, r7
 455              	.LVL64:
 657:Generated_Source\PSoC4/CSD_Filter.c ****     {
 456              		.loc 1 657 0
 457 001c 131A     		sub	r3, r2, r0
 458 001e 9B00     		lsl	r3, r3, #2
 459 0020 F318     		add	r3, r6, r3
 460 0022 1A7E     		ldrb	r2, [r3, #24]
 461 0024 062A     		cmp	r2, #6
 462 0026 01D0     		beq	.L32
 660:Generated_Source\PSoC4/CSD_Filter.c ****         #endif /* (CSD_REGULAR_SENSOR_EN) */
 463              		.loc 1 660 0
 464 0028 4900     		lsl	r1, r1, #1
 465              	.LVL65:
 466 002a 7D18     		add	r5, r7, r1
 467              	.L32:
 468              	.LVL66:
 670:Generated_Source\PSoC4/CSD_Filter.c **** }
 469              		.loc 1 670 0
 470 002c 281C     		mov	r0, r5
 471              	.LVL67:
 472 002e 211C     		mov	r1, r4
 473 0030 FFF7FEFF 		bl	CSD_InitializeIIRInternal
 474              	.LVL68:
 671:Generated_Source\PSoC4/CSD_Filter.c **** 
 475              		.loc 1 671 0
 476              		@ sp needed
 477              	.LVL69:
 478              	.LVL70:
 479              	.LVL71:
 480 0034 F8BD     		pop	{r3, r4, r5, r6, r7, pc}
 481              	.L34:
 482 0036 C046     		.align	2
 483              	.L33:
 484 0038 00000000 		.word	CSD_dsFlash
 485              		.cfi_endproc
 486              	.LFE11:
 487              		.size	CSD_InitializeIIR, .-CSD_InitializeIIR
 488              		.section	.text.CSD_FtIIR1stOrder,"ax",%progbits
 489              		.align	2
 490              		.global	CSD_FtIIR1stOrder
 491              		.code	16
 492              		.thumb_func
 493              		.type	CSD_FtIIR1stOrder, %function
 494              	CSD_FtIIR1stOrder:
 495              	.LFB17:
 761:Generated_Source\PSoC4/CSD_Filter.c ****  
 762:Generated_Source\PSoC4/CSD_Filter.c **** 
 763:Generated_Source\PSoC4/CSD_Filter.c **** /*******************************************************************************
 764:Generated_Source\PSoC4/CSD_Filter.c **** * Function Name: CSD_RunIIRInternal
ARM GAS  C:\Users\Greg\AppData\Local\Temp\cceDExAc.s 			page 24


 765:Generated_Source\PSoC4/CSD_Filter.c **** ****************************************************************************//**
 766:Generated_Source\PSoC4/CSD_Filter.c **** *
 767:Generated_Source\PSoC4/CSD_Filter.c **** * \brief    Run the IIR filter.
 768:Generated_Source\PSoC4/CSD_Filter.c **** *
 769:Generated_Source\PSoC4/CSD_Filter.c **** * \details  Run the IIR filter.
 770:Generated_Source\PSoC4/CSD_Filter.c **** *
 771:Generated_Source\PSoC4/CSD_Filter.c **** * \param    ptrFilterHistObj The pointer to the filter RAM object of the sensor.
 772:Generated_Source\PSoC4/CSD_Filter.c **** * \param    ptrSensorObj     The pointer to the sensor RAM object of the sensor.
 773:Generated_Source\PSoC4/CSD_Filter.c **** * \param    wdType           Specifies the type of a widget.
 774:Generated_Source\PSoC4/CSD_Filter.c **** *
 775:Generated_Source\PSoC4/CSD_Filter.c **** *******************************************************************************/    
 776:Generated_Source\PSoC4/CSD_Filter.c **** void CSD_RunIIRInternal(CSD_PTR_FILTER_VARIANT ptrFilterHistObj, 
 777:Generated_Source\PSoC4/CSD_Filter.c ****                                      CSD_RAM_SNS_STRUCT *ptrSensorObj, uint32 wdType)
 778:Generated_Source\PSoC4/CSD_Filter.c **** {        
 779:Generated_Source\PSoC4/CSD_Filter.c ****     uint32 channel;
 780:Generated_Source\PSoC4/CSD_Filter.c ****     uint32 temp;
 781:Generated_Source\PSoC4/CSD_Filter.c **** 
 782:Generated_Source\PSoC4/CSD_Filter.c ****     for(channel = CSD_NUM_SCAN_FREQS; channel-- > 0u;)
 783:Generated_Source\PSoC4/CSD_Filter.c ****     {
 784:Generated_Source\PSoC4/CSD_Filter.c ****         if ((CSD_WD_TYPE_ENUM)wdType != CSD_WD_PROXIMITY_E)
 785:Generated_Source\PSoC4/CSD_Filter.c ****         {
 786:Generated_Source\PSoC4/CSD_Filter.c ****             #if (CSD_REGULAR_SENSOR_EN && CSD_REGULAR_RC_IIR_FILTER_EN)
 787:Generated_Source\PSoC4/CSD_Filter.c ****                 #if (CSD_REGULAR_IIR_RC_TYPE == CSD_IIR_FILTER_PERFORMANCE)
 788:Generated_Source\PSoC4/CSD_Filter.c ****                     temp = ((uint32)ptrFilterHistObj.ptrRegular->regularChannel[channel].iirHistory
 789:Generated_Source\PSoC4/CSD_Filter.c ****                     temp |= ptrFilterHistObj.ptrRegular->regularChannel[channel].iirHistoryLow;
 790:Generated_Source\PSoC4/CSD_Filter.c ****                     temp = CSD_FtIIR1stOrder((uint32)ptrSensorObj->raw[channel],
 791:Generated_Source\PSoC4/CSD_Filter.c ****                                                         temp,
 792:Generated_Source\PSoC4/CSD_Filter.c ****                                                         CSD_REGULAR_IIR_RC_N,
 793:Generated_Source\PSoC4/CSD_Filter.c ****                                                         CSD_REGULAR_IIR_RC_SHIFT);
 794:Generated_Source\PSoC4/CSD_Filter.c ****                     ptrFilterHistObj.ptrRegular->regularChannel[channel].iirHistory = LO16(temp >>C
 795:Generated_Source\PSoC4/CSD_Filter.c ****                     ptrFilterHistObj.ptrRegular->regularChannel[channel].iirHistoryLow = LO8(temp);
 796:Generated_Source\PSoC4/CSD_Filter.c ****                     ptrSensorObj->raw[channel] = LO16(temp >>CSD_REGULAR_IIR_RC_SHIFT);
 797:Generated_Source\PSoC4/CSD_Filter.c ****                 #else
 798:Generated_Source\PSoC4/CSD_Filter.c ****                     temp =CSD_FtIIR1stOrder((uint32)ptrSensorObj->raw[channel],
 799:Generated_Source\PSoC4/CSD_Filter.c ****                                                         (uint32)ptrFilterHistObj.ptrRegular->regula
 800:Generated_Source\PSoC4/CSD_Filter.c ****                                                         CSD_REGULAR_IIR_RC_N,
 801:Generated_Source\PSoC4/CSD_Filter.c ****                                                         CSD_REGULAR_IIR_RC_SHIFT);
 802:Generated_Source\PSoC4/CSD_Filter.c ****                     ptrFilterHistObj.ptrRegular->regularChannel[channel].iirHistory = LO16(temp);
 803:Generated_Source\PSoC4/CSD_Filter.c ****                     ptrSensorObj->raw[channel] = LO16(temp >>CSD_REGULAR_IIR_RC_SHIFT);
 804:Generated_Source\PSoC4/CSD_Filter.c ****                 #endif /* (CSD_REGULAR_IIR_RC_TYPE == CSD_IIR_FILTER_PERFORMANCE) */
 805:Generated_Source\PSoC4/CSD_Filter.c ****             #endif /* (CSD_REGULAR_SENSOR_EN) */    
 806:Generated_Source\PSoC4/CSD_Filter.c ****         }
 807:Generated_Source\PSoC4/CSD_Filter.c ****         else
 808:Generated_Source\PSoC4/CSD_Filter.c ****         {
 809:Generated_Source\PSoC4/CSD_Filter.c ****             #if (CSD_PROXIMITY_SENSOR_EN && CSD_PROX_RC_IIR_FILTER_EN)
 810:Generated_Source\PSoC4/CSD_Filter.c ****                 #if (CSD_PROX_IIR_RC_TYPE == CSD_IIR_FILTER_PERFORMANCE)
 811:Generated_Source\PSoC4/CSD_Filter.c ****                     temp =  ptrFilterHistObj.ptrProx->proxChannel[channel].iirHistory << CSD_PROX_I
 812:Generated_Source\PSoC4/CSD_Filter.c ****                     temp |= ptrFilterHistObj.ptrProx->proxChannel[channel].iirHistoryLow;
 813:Generated_Source\PSoC4/CSD_Filter.c ****                     temp =CSD_FtIIR1stOrder((uint32)ptrSensorObj->raw[channel],
 814:Generated_Source\PSoC4/CSD_Filter.c ****                                                         temp,
 815:Generated_Source\PSoC4/CSD_Filter.c ****                                                         CSD_PROX_IIR_RC_N,
 816:Generated_Source\PSoC4/CSD_Filter.c ****                                                         CSD_PROX_IIR_RC_SHIFT);
 817:Generated_Source\PSoC4/CSD_Filter.c ****                     ptrFilterHistObj.ptrProx->proxChannel[channel].iirHistory = LO16(temp >>CSD_PRO
 818:Generated_Source\PSoC4/CSD_Filter.c ****                     ptrFilterHistObj.ptrProx->proxChannel[channel].iirHistoryLow = LO8(temp);
 819:Generated_Source\PSoC4/CSD_Filter.c ****                     ptrSensorObj->raw[channel] = LO16(temp >>CSD_PROX_IIR_RC_SHIFT);
 820:Generated_Source\PSoC4/CSD_Filter.c ****                 #else
 821:Generated_Source\PSoC4/CSD_Filter.c ****                     temp =CSD_FtIIR1stOrder((uint32)ptrSensorObj->raw[channel],
ARM GAS  C:\Users\Greg\AppData\Local\Temp\cceDExAc.s 			page 25


 822:Generated_Source\PSoC4/CSD_Filter.c ****                                                         (uint32)ptrFilterHistObj.ptrProx->proxChann
 823:Generated_Source\PSoC4/CSD_Filter.c ****                                                         CSD_PROX_IIR_RC_N,
 824:Generated_Source\PSoC4/CSD_Filter.c ****                                                         CSD_PROX_IIR_RC_SHIFT);
 825:Generated_Source\PSoC4/CSD_Filter.c ****                     ptrFilterHistObj.ptrProx->proxChannel[channel].iirHistory = LO16(temp);
 826:Generated_Source\PSoC4/CSD_Filter.c ****                     ptrSensorObj->raw[channel] = LO16(temp >>CSD_PROX_IIR_RC_SHIFT);
 827:Generated_Source\PSoC4/CSD_Filter.c ****                 #endif /* (CSD_PROX_IIR_RC_TYPE == CSD_IIR_FILTER_PERFORMANCE) */
 828:Generated_Source\PSoC4/CSD_Filter.c ****             #endif /* (CSD_PROX_SENSOR_EN) */
 829:Generated_Source\PSoC4/CSD_Filter.c ****         }    
 830:Generated_Source\PSoC4/CSD_Filter.c ****     }        
 831:Generated_Source\PSoC4/CSD_Filter.c **** }    
 832:Generated_Source\PSoC4/CSD_Filter.c **** #endif /* #if (CSD_REGULAR_RC_IIR_FILTER_EN || CSD_PROX_RC_IIR_FILTER_EN) */
 833:Generated_Source\PSoC4/CSD_Filter.c **** 
 834:Generated_Source\PSoC4/CSD_Filter.c **** 
 835:Generated_Source\PSoC4/CSD_Filter.c **** #if (CSD_REGULAR_RC_MEDIAN_FILTER_EN || CSD_PROX_RC_MEDIAN_FILTER_EN)
 836:Generated_Source\PSoC4/CSD_Filter.c **** 
 837:Generated_Source\PSoC4/CSD_Filter.c **** /*******************************************************************************
 838:Generated_Source\PSoC4/CSD_Filter.c **** * Function Name: CSD_InitializeMedian
 839:Generated_Source\PSoC4/CSD_Filter.c **** ****************************************************************************//**
 840:Generated_Source\PSoC4/CSD_Filter.c **** *
 841:Generated_Source\PSoC4/CSD_Filter.c **** * \brief    Initializes the Median filter history.
 842:Generated_Source\PSoC4/CSD_Filter.c **** *
 843:Generated_Source\PSoC4/CSD_Filter.c **** * \details  Initializes the Median filter history.
 844:Generated_Source\PSoC4/CSD_Filter.c **** *
 845:Generated_Source\PSoC4/CSD_Filter.c **** * \param    widgetId Specifies the ID number of the widget.
 846:Generated_Source\PSoC4/CSD_Filter.c **** * \param    sensorId Specifies the ID number of the sensor in the widget.
 847:Generated_Source\PSoC4/CSD_Filter.c **** *
 848:Generated_Source\PSoC4/CSD_Filter.c **** *******************************************************************************/
 849:Generated_Source\PSoC4/CSD_Filter.c **** void CSD_InitializeMedian(uint32 widgetId, uint32 sensorId)
 850:Generated_Source\PSoC4/CSD_Filter.c **** {
 851:Generated_Source\PSoC4/CSD_Filter.c ****     CSD_FLASH_WD_STRUCT const *ptrWidget = &CSD_dsFlash.wdgtArray[widgetId];      
 852:Generated_Source\PSoC4/CSD_Filter.c ****     CSD_RAM_SNS_STRUCT *ptrSensor = NULL;    
 853:Generated_Source\PSoC4/CSD_Filter.c ****     CSD_PTR_FILTER_VARIANT ptrFilterHistObj; 
 854:Generated_Source\PSoC4/CSD_Filter.c ****               
 855:Generated_Source\PSoC4/CSD_Filter.c ****     /* Find pointer to specified sensor object */     
 856:Generated_Source\PSoC4/CSD_Filter.c ****     ptrSensor = ptrWidget->ptr2SnsRam;
 857:Generated_Source\PSoC4/CSD_Filter.c ****     ptrSensor = &ptrSensor[sensorId];
 858:Generated_Source\PSoC4/CSD_Filter.c ****     
 859:Generated_Source\PSoC4/CSD_Filter.c ****     /* Find pointer to specified filter sensor object */     
 860:Generated_Source\PSoC4/CSD_Filter.c ****     ptrFilterHistObj.ptr = ptrWidget->ptr2FltrHistory;
 861:Generated_Source\PSoC4/CSD_Filter.c ****     
 862:Generated_Source\PSoC4/CSD_Filter.c ****     if ((CSD_WD_TYPE_ENUM)ptrWidget->wdgtType != CSD_WD_PROXIMITY_E)
 863:Generated_Source\PSoC4/CSD_Filter.c ****     {
 864:Generated_Source\PSoC4/CSD_Filter.c ****         #if (CSD_REGULAR_SENSOR_EN)
 865:Generated_Source\PSoC4/CSD_Filter.c ****             ptrFilterHistObj.ptrRegular = &ptrFilterHistObj.ptrRegular[sensorId];
 866:Generated_Source\PSoC4/CSD_Filter.c ****         #endif /* (CSD_REGULAR_SENSOR_EN) */
 867:Generated_Source\PSoC4/CSD_Filter.c ****     }
 868:Generated_Source\PSoC4/CSD_Filter.c ****     else
 869:Generated_Source\PSoC4/CSD_Filter.c ****     {
 870:Generated_Source\PSoC4/CSD_Filter.c ****         #if (CSD_PROXIMITY_SENSOR_EN)
 871:Generated_Source\PSoC4/CSD_Filter.c ****             ptrFilterHistObj.ptrProx = &ptrFilterHistObj.ptrProx[sensorId];
 872:Generated_Source\PSoC4/CSD_Filter.c ****         #endif /* (CSD_PROXIMITY_SENSOR_EN) */
 873:Generated_Source\PSoC4/CSD_Filter.c ****     }
 874:Generated_Source\PSoC4/CSD_Filter.c ****     
 875:Generated_Source\PSoC4/CSD_Filter.c ****     CSD_InitializeMedianInternal(ptrFilterHistObj, ptrSensor, (uint32)ptrWidget->wdgtType);
 876:Generated_Source\PSoC4/CSD_Filter.c **** }     
 877:Generated_Source\PSoC4/CSD_Filter.c **** 
 878:Generated_Source\PSoC4/CSD_Filter.c **** 
ARM GAS  C:\Users\Greg\AppData\Local\Temp\cceDExAc.s 			page 26


 879:Generated_Source\PSoC4/CSD_Filter.c **** /*******************************************************************************
 880:Generated_Source\PSoC4/CSD_Filter.c **** * Function Name: CSD_RunMedian
 881:Generated_Source\PSoC4/CSD_Filter.c **** ****************************************************************************//**
 882:Generated_Source\PSoC4/CSD_Filter.c **** *
 883:Generated_Source\PSoC4/CSD_Filter.c **** * \brief    Executes the Median filter algorithm on a sensor indicated by an input 
 884:Generated_Source\PSoC4/CSD_Filter.c **** *           parameter. 
 885:Generated_Source\PSoC4/CSD_Filter.c **** *
 886:Generated_Source\PSoC4/CSD_Filter.c **** * \details  Executes the Median filter algorithm on a sensor indicated by an input 
 887:Generated_Source\PSoC4/CSD_Filter.c **** *           parameter. 
 888:Generated_Source\PSoC4/CSD_Filter.c **** *
 889:Generated_Source\PSoC4/CSD_Filter.c **** * \param    widgetId Specifies the ID number of the widget.
 890:Generated_Source\PSoC4/CSD_Filter.c **** * \param    sensorId Specifies the ID number of the sensor in the widget.
 891:Generated_Source\PSoC4/CSD_Filter.c **** *
 892:Generated_Source\PSoC4/CSD_Filter.c **** *******************************************************************************/
 893:Generated_Source\PSoC4/CSD_Filter.c **** void CSD_RunMedian(uint32 widgetId, uint32 sensorId)
 894:Generated_Source\PSoC4/CSD_Filter.c **** {
 895:Generated_Source\PSoC4/CSD_Filter.c ****     CSD_FLASH_WD_STRUCT const *ptrWidget = &CSD_dsFlash.wdgtArray[widgetId];      
 896:Generated_Source\PSoC4/CSD_Filter.c ****     CSD_RAM_SNS_STRUCT *ptrSensor = NULL;    
 897:Generated_Source\PSoC4/CSD_Filter.c ****     CSD_PTR_FILTER_VARIANT ptrFilterHistObj; 
 898:Generated_Source\PSoC4/CSD_Filter.c ****               
 899:Generated_Source\PSoC4/CSD_Filter.c ****     /* Find pointer to specified sensor object */     
 900:Generated_Source\PSoC4/CSD_Filter.c ****     ptrSensor = ptrWidget->ptr2SnsRam;
 901:Generated_Source\PSoC4/CSD_Filter.c ****     ptrSensor = &ptrSensor[sensorId];
 902:Generated_Source\PSoC4/CSD_Filter.c ****     
 903:Generated_Source\PSoC4/CSD_Filter.c ****     /* Find pointer to specified filter sensor object */     
 904:Generated_Source\PSoC4/CSD_Filter.c ****     ptrFilterHistObj.ptr = ptrWidget->ptr2FltrHistory;
 905:Generated_Source\PSoC4/CSD_Filter.c ****     
 906:Generated_Source\PSoC4/CSD_Filter.c ****     if ((CSD_WD_TYPE_ENUM)ptrWidget->wdgtType != CSD_WD_PROXIMITY_E)
 907:Generated_Source\PSoC4/CSD_Filter.c ****     {
 908:Generated_Source\PSoC4/CSD_Filter.c ****         #if (CSD_REGULAR_SENSOR_EN)
 909:Generated_Source\PSoC4/CSD_Filter.c ****             ptrFilterHistObj.ptrRegular = &ptrFilterHistObj.ptrRegular[sensorId];
 910:Generated_Source\PSoC4/CSD_Filter.c ****         #endif /* (CSD_REGULAR_SENSOR_EN) */
 911:Generated_Source\PSoC4/CSD_Filter.c ****     }
 912:Generated_Source\PSoC4/CSD_Filter.c ****     else
 913:Generated_Source\PSoC4/CSD_Filter.c ****     {
 914:Generated_Source\PSoC4/CSD_Filter.c ****         #if (CSD_PROXIMITY_SENSOR_EN)
 915:Generated_Source\PSoC4/CSD_Filter.c ****             ptrFilterHistObj.ptrProx = &ptrFilterHistObj.ptrProx[sensorId];
 916:Generated_Source\PSoC4/CSD_Filter.c ****         #endif /* (CSD_PROXIMITY_SENSOR_EN) */
 917:Generated_Source\PSoC4/CSD_Filter.c ****     }
 918:Generated_Source\PSoC4/CSD_Filter.c ****     
 919:Generated_Source\PSoC4/CSD_Filter.c ****     CSD_RunMedianInternal(ptrFilterHistObj, ptrSensor, (uint32)ptrWidget->wdgtType);
 920:Generated_Source\PSoC4/CSD_Filter.c **** }
 921:Generated_Source\PSoC4/CSD_Filter.c ****    
 922:Generated_Source\PSoC4/CSD_Filter.c **** 
 923:Generated_Source\PSoC4/CSD_Filter.c **** /*******************************************************************************
 924:Generated_Source\PSoC4/CSD_Filter.c **** * Function Name: CSD_InitializeMedianInternal
 925:Generated_Source\PSoC4/CSD_Filter.c **** ****************************************************************************//**
 926:Generated_Source\PSoC4/CSD_Filter.c **** *
 927:Generated_Source\PSoC4/CSD_Filter.c **** * \brief    Initializes the Median filter.
 928:Generated_Source\PSoC4/CSD_Filter.c **** *
 929:Generated_Source\PSoC4/CSD_Filter.c **** * \details  Initializes the Median filter.
 930:Generated_Source\PSoC4/CSD_Filter.c **** *
 931:Generated_Source\PSoC4/CSD_Filter.c **** * \param    ptrFilterHistObj The pointer to the filter RAM object of the sensor.
 932:Generated_Source\PSoC4/CSD_Filter.c **** * \param    ptrSensorObj     The pointer to the sensor RAM object of the sensor.
 933:Generated_Source\PSoC4/CSD_Filter.c **** * \param    wdType           Specifies the type of a widget.
 934:Generated_Source\PSoC4/CSD_Filter.c **** *
 935:Generated_Source\PSoC4/CSD_Filter.c **** *******************************************************************************/
ARM GAS  C:\Users\Greg\AppData\Local\Temp\cceDExAc.s 			page 27


 936:Generated_Source\PSoC4/CSD_Filter.c **** void CSD_InitializeMedianInternal(CSD_PTR_FILTER_VARIANT ptrFilterHistObj,
 937:Generated_Source\PSoC4/CSD_Filter.c ****                                                CSD_RAM_SNS_STRUCT *ptrSensorObj, uint32 wdType)
 938:Generated_Source\PSoC4/CSD_Filter.c **** {
 939:Generated_Source\PSoC4/CSD_Filter.c ****     uint32 channel;
 940:Generated_Source\PSoC4/CSD_Filter.c **** 
 941:Generated_Source\PSoC4/CSD_Filter.c ****     for(channel = CSD_NUM_SCAN_FREQS; channel-- > 0u;)
 942:Generated_Source\PSoC4/CSD_Filter.c ****     {
 943:Generated_Source\PSoC4/CSD_Filter.c ****         if ((CSD_WD_TYPE_ENUM)wdType != CSD_WD_PROXIMITY_E)
 944:Generated_Source\PSoC4/CSD_Filter.c ****         {
 945:Generated_Source\PSoC4/CSD_Filter.c ****             #if (CSD_REGULAR_SENSOR_EN && CSD_REGULAR_RC_MEDIAN_FILTER_EN)
 946:Generated_Source\PSoC4/CSD_Filter.c ****                 ptrFilterHistObj.ptrRegular->regularChannel[channel].medHistory[0u] = ptrSensorObj-
 947:Generated_Source\PSoC4/CSD_Filter.c ****                 ptrFilterHistObj.ptrRegular->regularChannel[channel].medHistory[1u] = ptrSensorObj-
 948:Generated_Source\PSoC4/CSD_Filter.c ****             #endif /* (CSD_REGULAR_SENSOR_EN) */
 949:Generated_Source\PSoC4/CSD_Filter.c ****         }
 950:Generated_Source\PSoC4/CSD_Filter.c ****         else
 951:Generated_Source\PSoC4/CSD_Filter.c ****         {
 952:Generated_Source\PSoC4/CSD_Filter.c ****             #if (CSD_PROXIMITY_SENSOR_EN && CSD_PROX_RC_MEDIAN_FILTER_EN)
 953:Generated_Source\PSoC4/CSD_Filter.c ****                 ptrFilterHistObj.ptrProx->proxChannel[channel].medHistory[0u] = ptrSensorObj->raw[c
 954:Generated_Source\PSoC4/CSD_Filter.c ****                 ptrFilterHistObj.ptrProx->proxChannel[channel].medHistory[1u] = ptrSensorObj->raw[c
 955:Generated_Source\PSoC4/CSD_Filter.c ****             #endif /* (CSD_PROXIMITY_SENSOR_EN) */               
 956:Generated_Source\PSoC4/CSD_Filter.c ****         }
 957:Generated_Source\PSoC4/CSD_Filter.c ****     }
 958:Generated_Source\PSoC4/CSD_Filter.c **** }
 959:Generated_Source\PSoC4/CSD_Filter.c **** 
 960:Generated_Source\PSoC4/CSD_Filter.c **** 
 961:Generated_Source\PSoC4/CSD_Filter.c **** /*******************************************************************************
 962:Generated_Source\PSoC4/CSD_Filter.c **** * Function Name: CSD_RunMedianInternal
 963:Generated_Source\PSoC4/CSD_Filter.c **** ****************************************************************************//**
 964:Generated_Source\PSoC4/CSD_Filter.c **** *
 965:Generated_Source\PSoC4/CSD_Filter.c **** * \brief    Runs the Median filter.
 966:Generated_Source\PSoC4/CSD_Filter.c **** *
 967:Generated_Source\PSoC4/CSD_Filter.c **** * \details  Runs the Median filter.
 968:Generated_Source\PSoC4/CSD_Filter.c **** *
 969:Generated_Source\PSoC4/CSD_Filter.c **** * \param    ptrFilterHistObj The pointer to the filter RAM object of the sensor.
 970:Generated_Source\PSoC4/CSD_Filter.c **** * \param    ptrSensorObj     The pointer to the sensor RAM object of the sensor.
 971:Generated_Source\PSoC4/CSD_Filter.c **** * \param    wdType           Specifies the type of a widget.
 972:Generated_Source\PSoC4/CSD_Filter.c **** *
 973:Generated_Source\PSoC4/CSD_Filter.c **** *******************************************************************************/
 974:Generated_Source\PSoC4/CSD_Filter.c **** void CSD_RunMedianInternal(CSD_PTR_FILTER_VARIANT ptrFilterHistObj,
 975:Generated_Source\PSoC4/CSD_Filter.c ****                                         CSD_RAM_SNS_STRUCT *ptrSensorObj, uint32 wdType)
 976:Generated_Source\PSoC4/CSD_Filter.c **** {
 977:Generated_Source\PSoC4/CSD_Filter.c ****     uint32 channel;
 978:Generated_Source\PSoC4/CSD_Filter.c ****     
 979:Generated_Source\PSoC4/CSD_Filter.c ****     #if ((CSD_REGULAR_SENSOR_EN && CSD_REGULAR_RC_MEDIAN_FILTER_EN) || \
 980:Generated_Source\PSoC4/CSD_Filter.c ****          (CSD_PROXIMITY_SENSOR_EN && CSD_PROX_RC_MEDIAN_FILTER_EN))
 981:Generated_Source\PSoC4/CSD_Filter.c ****         uint32 temp;
 982:Generated_Source\PSoC4/CSD_Filter.c ****     #endif
 983:Generated_Source\PSoC4/CSD_Filter.c ****     
 984:Generated_Source\PSoC4/CSD_Filter.c ****     for(channel = CSD_NUM_SCAN_FREQS; channel-- > 0u;)
 985:Generated_Source\PSoC4/CSD_Filter.c ****     {    
 986:Generated_Source\PSoC4/CSD_Filter.c ****         if ((CSD_WD_TYPE_ENUM)wdType != CSD_WD_PROXIMITY_E)
 987:Generated_Source\PSoC4/CSD_Filter.c ****         {                                             
 988:Generated_Source\PSoC4/CSD_Filter.c ****             #if (CSD_REGULAR_SENSOR_EN && CSD_REGULAR_RC_MEDIAN_FILTER_EN)
 989:Generated_Source\PSoC4/CSD_Filter.c ****                 temp = CSD_FtMedian((uint32)ptrSensorObj->raw[channel],\
 990:Generated_Source\PSoC4/CSD_Filter.c ****                                                  (uint32)ptrFilterHistObj.ptrRegular->regularChanne
 991:Generated_Source\PSoC4/CSD_Filter.c ****                                                  (uint32)ptrFilterHistObj.ptrRegular->regularChanne
 992:Generated_Source\PSoC4/CSD_Filter.c ****                 ptrFilterHistObj.ptrRegular->regularChannel[channel].medHistory[1u] = \
ARM GAS  C:\Users\Greg\AppData\Local\Temp\cceDExAc.s 			page 28


 993:Generated_Source\PSoC4/CSD_Filter.c ****                 ptrFilterHistObj.ptrRegular->regularChannel[channel].medHistory[0u];
 994:Generated_Source\PSoC4/CSD_Filter.c ****                 ptrFilterHistObj.ptrRegular->regularChannel[channel].medHistory[0u] = ptrSensorObj-
 995:Generated_Source\PSoC4/CSD_Filter.c ****                 ptrSensorObj->raw[channel] = LO16(temp);
 996:Generated_Source\PSoC4/CSD_Filter.c ****             #endif /* (CSD_REGULAR_SENSOR_EN) */     
 997:Generated_Source\PSoC4/CSD_Filter.c ****         }
 998:Generated_Source\PSoC4/CSD_Filter.c ****         else 
 999:Generated_Source\PSoC4/CSD_Filter.c ****         {                   
1000:Generated_Source\PSoC4/CSD_Filter.c ****             #if (CSD_PROXIMITY_SENSOR_EN && CSD_PROX_RC_MEDIAN_FILTER_EN)
1001:Generated_Source\PSoC4/CSD_Filter.c ****                 temp = CSD_FtMedian((uint32)ptrSensorObj->raw[channel],\
1002:Generated_Source\PSoC4/CSD_Filter.c ****                                                  (uint32)ptrFilterHistObj.ptrProx->proxChannel[chan
1003:Generated_Source\PSoC4/CSD_Filter.c ****                                                  (uint32)ptrFilterHistObj.ptrProx->proxChannel[chan
1004:Generated_Source\PSoC4/CSD_Filter.c ****                 ptrFilterHistObj.ptrProx->proxChannel[channel].medHistory[1u] = \
1005:Generated_Source\PSoC4/CSD_Filter.c ****                 ptrFilterHistObj.ptrProx->proxChannel[channel].medHistory[0u];
1006:Generated_Source\PSoC4/CSD_Filter.c ****                 ptrFilterHistObj.ptrProx->proxChannel[channel].medHistory[0u] = ptrSensorObj->raw[c
1007:Generated_Source\PSoC4/CSD_Filter.c ****                 ptrSensorObj->raw[channel] = LO16(temp);
1008:Generated_Source\PSoC4/CSD_Filter.c ****             #endif /* (CSD_PROXIMITY_SENSOR_EN) */               
1009:Generated_Source\PSoC4/CSD_Filter.c ****         }
1010:Generated_Source\PSoC4/CSD_Filter.c ****     }
1011:Generated_Source\PSoC4/CSD_Filter.c **** }
1012:Generated_Source\PSoC4/CSD_Filter.c **** #endif /* (CSD_REGULAR_RC_MEDIAN_FILTER_EN || CSD_PROX_RC_MEDIAN_FILTER_EN) */
1013:Generated_Source\PSoC4/CSD_Filter.c **** 
1014:Generated_Source\PSoC4/CSD_Filter.c **** 
1015:Generated_Source\PSoC4/CSD_Filter.c **** #if (CSD_REGULAR_RC_AVERAGE_FILTER_EN || CSD_PROX_RC_AVERAGE_FILTER_EN)
1016:Generated_Source\PSoC4/CSD_Filter.c **** 
1017:Generated_Source\PSoC4/CSD_Filter.c **** /*******************************************************************************
1018:Generated_Source\PSoC4/CSD_Filter.c **** * Function Name: CSD_InitializeAverage
1019:Generated_Source\PSoC4/CSD_Filter.c **** ****************************************************************************//**
1020:Generated_Source\PSoC4/CSD_Filter.c **** *
1021:Generated_Source\PSoC4/CSD_Filter.c **** * \brief    Initializes the average filter history.
1022:Generated_Source\PSoC4/CSD_Filter.c **** *
1023:Generated_Source\PSoC4/CSD_Filter.c **** * \details  Initializes the average filter history.
1024:Generated_Source\PSoC4/CSD_Filter.c **** *
1025:Generated_Source\PSoC4/CSD_Filter.c **** * \param    widgetId Specifies the ID number of the widget.
1026:Generated_Source\PSoC4/CSD_Filter.c **** * \param    sensorId Specifies the ID number of the sensor in the widget.
1027:Generated_Source\PSoC4/CSD_Filter.c **** *
1028:Generated_Source\PSoC4/CSD_Filter.c **** *******************************************************************************/
1029:Generated_Source\PSoC4/CSD_Filter.c **** void CSD_InitializeAverage(uint32 widgetId, uint32 sensorId)
1030:Generated_Source\PSoC4/CSD_Filter.c **** {
1031:Generated_Source\PSoC4/CSD_Filter.c ****     CSD_FLASH_WD_STRUCT const *ptrWidget = &CSD_dsFlash.wdgtArray[widgetId];      
1032:Generated_Source\PSoC4/CSD_Filter.c ****     CSD_RAM_SNS_STRUCT *ptrSensor = NULL;
1033:Generated_Source\PSoC4/CSD_Filter.c ****     CSD_PTR_FILTER_VARIANT ptrFilterHistObj;
1034:Generated_Source\PSoC4/CSD_Filter.c **** 
1035:Generated_Source\PSoC4/CSD_Filter.c ****     /* Find pointer to specified sensor object */
1036:Generated_Source\PSoC4/CSD_Filter.c ****     ptrSensor = ptrWidget->ptr2SnsRam;
1037:Generated_Source\PSoC4/CSD_Filter.c ****     ptrSensor = &ptrSensor[sensorId];
1038:Generated_Source\PSoC4/CSD_Filter.c ****     
1039:Generated_Source\PSoC4/CSD_Filter.c ****     /* Find pointer to specified filter sensor object */
1040:Generated_Source\PSoC4/CSD_Filter.c ****     ptrFilterHistObj.ptr = ptrWidget->ptr2FltrHistory;
1041:Generated_Source\PSoC4/CSD_Filter.c **** 
1042:Generated_Source\PSoC4/CSD_Filter.c ****     if ((CSD_WD_TYPE_ENUM)ptrWidget->wdgtType != CSD_WD_PROXIMITY_E)
1043:Generated_Source\PSoC4/CSD_Filter.c ****     {
1044:Generated_Source\PSoC4/CSD_Filter.c ****         #if (CSD_REGULAR_SENSOR_EN)
1045:Generated_Source\PSoC4/CSD_Filter.c ****             ptrFilterHistObj.ptrRegular = &ptrFilterHistObj.ptrRegular[sensorId];
1046:Generated_Source\PSoC4/CSD_Filter.c ****         #endif /* (CSD_REGULAR_SENSOR_EN) */
1047:Generated_Source\PSoC4/CSD_Filter.c ****     }
1048:Generated_Source\PSoC4/CSD_Filter.c ****     else
1049:Generated_Source\PSoC4/CSD_Filter.c ****     {
ARM GAS  C:\Users\Greg\AppData\Local\Temp\cceDExAc.s 			page 29


1050:Generated_Source\PSoC4/CSD_Filter.c ****         #if (CSD_PROXIMITY_SENSOR_EN)
1051:Generated_Source\PSoC4/CSD_Filter.c ****             ptrFilterHistObj.ptrProx = &ptrFilterHistObj.ptrProx[sensorId];
1052:Generated_Source\PSoC4/CSD_Filter.c ****         #endif /* (CSD_PROXIMITY_SENSOR_EN) */
1053:Generated_Source\PSoC4/CSD_Filter.c ****     }
1054:Generated_Source\PSoC4/CSD_Filter.c **** 
1055:Generated_Source\PSoC4/CSD_Filter.c ****     CSD_InitializeAverageInternal(ptrFilterHistObj, ptrSensor, (uint32)ptrWidget->wdgtType);
1056:Generated_Source\PSoC4/CSD_Filter.c **** }
1057:Generated_Source\PSoC4/CSD_Filter.c **** 
1058:Generated_Source\PSoC4/CSD_Filter.c **** 
1059:Generated_Source\PSoC4/CSD_Filter.c **** /*******************************************************************************
1060:Generated_Source\PSoC4/CSD_Filter.c **** * Function Name: CSD_RunAverage
1061:Generated_Source\PSoC4/CSD_Filter.c **** ****************************************************************************//**
1062:Generated_Source\PSoC4/CSD_Filter.c **** *
1063:Generated_Source\PSoC4/CSD_Filter.c **** * \brief    Executes the average filter algorithm on a sensor indicated by an input 
1064:Generated_Source\PSoC4/CSD_Filter.c **** *           parameter. 
1065:Generated_Source\PSoC4/CSD_Filter.c **** *
1066:Generated_Source\PSoC4/CSD_Filter.c **** * \details  Executes the average filter algorithm on a sensor indicated by an input 
1067:Generated_Source\PSoC4/CSD_Filter.c **** *           parameter. 
1068:Generated_Source\PSoC4/CSD_Filter.c **** *
1069:Generated_Source\PSoC4/CSD_Filter.c **** * \param    widgetId Specifies the ID number of the widget.
1070:Generated_Source\PSoC4/CSD_Filter.c **** * \param    sensorId Specifies the ID number of the sensor in the widget.
1071:Generated_Source\PSoC4/CSD_Filter.c **** *
1072:Generated_Source\PSoC4/CSD_Filter.c **** *******************************************************************************/
1073:Generated_Source\PSoC4/CSD_Filter.c **** void CSD_RunAverage(uint32 widgetId, uint32 sensorId)
1074:Generated_Source\PSoC4/CSD_Filter.c **** {
1075:Generated_Source\PSoC4/CSD_Filter.c ****     CSD_FLASH_WD_STRUCT const *ptrWidget = &CSD_dsFlash.wdgtArray[widgetId];      
1076:Generated_Source\PSoC4/CSD_Filter.c ****     CSD_RAM_SNS_STRUCT *ptrSensor = NULL;    
1077:Generated_Source\PSoC4/CSD_Filter.c ****     CSD_PTR_FILTER_VARIANT ptrFilterHistObj; 
1078:Generated_Source\PSoC4/CSD_Filter.c ****               
1079:Generated_Source\PSoC4/CSD_Filter.c ****     /* Find pointer to specified sensor object */     
1080:Generated_Source\PSoC4/CSD_Filter.c ****     ptrSensor = ptrWidget->ptr2SnsRam;
1081:Generated_Source\PSoC4/CSD_Filter.c ****     ptrSensor = &ptrSensor[sensorId];
1082:Generated_Source\PSoC4/CSD_Filter.c ****     
1083:Generated_Source\PSoC4/CSD_Filter.c ****     /* Find pointer to specified filter sensor object */     
1084:Generated_Source\PSoC4/CSD_Filter.c ****     ptrFilterHistObj.ptr = ptrWidget->ptr2FltrHistory;
1085:Generated_Source\PSoC4/CSD_Filter.c ****     
1086:Generated_Source\PSoC4/CSD_Filter.c ****     if ((CSD_WD_TYPE_ENUM)ptrWidget->wdgtType != CSD_WD_PROXIMITY_E)
1087:Generated_Source\PSoC4/CSD_Filter.c ****     {
1088:Generated_Source\PSoC4/CSD_Filter.c ****         #if (CSD_REGULAR_SENSOR_EN)
1089:Generated_Source\PSoC4/CSD_Filter.c ****             ptrFilterHistObj.ptrRegular = &ptrFilterHistObj.ptrRegular[sensorId];
1090:Generated_Source\PSoC4/CSD_Filter.c ****         #endif /* (CSD_REGULAR_SENSOR_EN) */
1091:Generated_Source\PSoC4/CSD_Filter.c ****     }
1092:Generated_Source\PSoC4/CSD_Filter.c ****     else
1093:Generated_Source\PSoC4/CSD_Filter.c ****     {
1094:Generated_Source\PSoC4/CSD_Filter.c ****         #if (CSD_PROXIMITY_SENSOR_EN)
1095:Generated_Source\PSoC4/CSD_Filter.c ****             ptrFilterHistObj.ptrProx = &ptrFilterHistObj.ptrProx[sensorId];
1096:Generated_Source\PSoC4/CSD_Filter.c ****         #endif /* (CSD_PROXIMITY_SENSOR_EN) */
1097:Generated_Source\PSoC4/CSD_Filter.c ****     }
1098:Generated_Source\PSoC4/CSD_Filter.c ****     
1099:Generated_Source\PSoC4/CSD_Filter.c ****     CSD_RunAverageInternal(ptrFilterHistObj, ptrSensor, (uint32)ptrWidget->wdgtType);
1100:Generated_Source\PSoC4/CSD_Filter.c **** }
1101:Generated_Source\PSoC4/CSD_Filter.c **** 
1102:Generated_Source\PSoC4/CSD_Filter.c **** 
1103:Generated_Source\PSoC4/CSD_Filter.c **** /*******************************************************************************
1104:Generated_Source\PSoC4/CSD_Filter.c **** * Function Name: CSD_InitializeAverageInternal
1105:Generated_Source\PSoC4/CSD_Filter.c **** ****************************************************************************//**
1106:Generated_Source\PSoC4/CSD_Filter.c **** *
ARM GAS  C:\Users\Greg\AppData\Local\Temp\cceDExAc.s 			page 30


1107:Generated_Source\PSoC4/CSD_Filter.c **** * \brief    Initializes the average filter.
1108:Generated_Source\PSoC4/CSD_Filter.c **** *
1109:Generated_Source\PSoC4/CSD_Filter.c **** * \details  Initializes the average filter.
1110:Generated_Source\PSoC4/CSD_Filter.c **** *
1111:Generated_Source\PSoC4/CSD_Filter.c **** * \param    ptrFilterHistObj The pointer to the filter RAM object of the sensor.
1112:Generated_Source\PSoC4/CSD_Filter.c **** * \param    ptrSensorObj     The pointer to the sensor RAM object of the sensor.
1113:Generated_Source\PSoC4/CSD_Filter.c **** * \param    wdType           Specifies the type of a widget.
1114:Generated_Source\PSoC4/CSD_Filter.c **** *
1115:Generated_Source\PSoC4/CSD_Filter.c **** *******************************************************************************/
1116:Generated_Source\PSoC4/CSD_Filter.c **** void CSD_InitializeAverageInternal(CSD_PTR_FILTER_VARIANT ptrFilterHistObj,\
1117:Generated_Source\PSoC4/CSD_Filter.c ****                                                   CSD_RAM_SNS_STRUCT *ptrSensorObj, uint32 wdType)
1118:Generated_Source\PSoC4/CSD_Filter.c **** {
1119:Generated_Source\PSoC4/CSD_Filter.c ****     uint32 channel;
1120:Generated_Source\PSoC4/CSD_Filter.c **** 
1121:Generated_Source\PSoC4/CSD_Filter.c ****     for(channel = CSD_NUM_SCAN_FREQS; channel-- > 0u;)
1122:Generated_Source\PSoC4/CSD_Filter.c ****     {
1123:Generated_Source\PSoC4/CSD_Filter.c ****         if ((CSD_WD_TYPE_ENUM)wdType != CSD_WD_PROXIMITY_E)
1124:Generated_Source\PSoC4/CSD_Filter.c ****         {
1125:Generated_Source\PSoC4/CSD_Filter.c ****             #if (CSD_REGULAR_SENSOR_EN && CSD_REGULAR_RC_AVERAGE_FILTER_EN)
1126:Generated_Source\PSoC4/CSD_Filter.c ****                 ptrFilterHistObj.ptrRegular->regularChannel[channel].avgHistory[0] = ptrSensorObj->
1127:Generated_Source\PSoC4/CSD_Filter.c ****                 #if (CSD_REGULAR_AVERAGE_LEN == CSD_AVERAGE_FILTER_LEN_4)
1128:Generated_Source\PSoC4/CSD_Filter.c ****                     ptrFilterHistObj.ptrRegular->regularChannel[channel].avgHistory[1u] = ptrSensor
1129:Generated_Source\PSoC4/CSD_Filter.c ****                     ptrFilterHistObj.ptrRegular->regularChannel[channel].avgHistory[2u] = ptrSensor
1130:Generated_Source\PSoC4/CSD_Filter.c ****                 #endif /* CSD_REGULAR_AVERAGE_LEN == CSD_AVERAGE_FILTER_LEN_4 */
1131:Generated_Source\PSoC4/CSD_Filter.c ****             #endif /* (CSD_REGULAR_SENSOR_EN) */      
1132:Generated_Source\PSoC4/CSD_Filter.c ****         }
1133:Generated_Source\PSoC4/CSD_Filter.c ****         else
1134:Generated_Source\PSoC4/CSD_Filter.c ****         {
1135:Generated_Source\PSoC4/CSD_Filter.c ****             #if (CSD_PROXIMITY_SENSOR_EN && CSD_PROX_RC_AVERAGE_FILTER_EN)
1136:Generated_Source\PSoC4/CSD_Filter.c ****                 ptrFilterHistObj.ptrProx->proxChannel[channel].avgHistory[0] = ptrSensorObj->raw[ch
1137:Generated_Source\PSoC4/CSD_Filter.c ****                     #if (CSD_PROX_AVERAGE_LEN == CSD_AVERAGE_FILTER_LEN_4)
1138:Generated_Source\PSoC4/CSD_Filter.c ****                         ptrFilterHistObj.ptrProx->proxChannel[channel].avgHistory[1u] = ptrSensorOb
1139:Generated_Source\PSoC4/CSD_Filter.c ****                         ptrFilterHistObj.ptrProx->proxChannel[channel].avgHistory[2u] = ptrSensorOb
1140:Generated_Source\PSoC4/CSD_Filter.c ****                     #endif /* CSD_REGULAR_AVERAGE_LEN == CSD_AVERAGE_FILTER_LEN_4 */
1141:Generated_Source\PSoC4/CSD_Filter.c ****             #endif /* (CSD_PROXIMITY_SENSOR_EN) */
1142:Generated_Source\PSoC4/CSD_Filter.c ****         }
1143:Generated_Source\PSoC4/CSD_Filter.c ****     }
1144:Generated_Source\PSoC4/CSD_Filter.c **** }
1145:Generated_Source\PSoC4/CSD_Filter.c **** 
1146:Generated_Source\PSoC4/CSD_Filter.c **** 
1147:Generated_Source\PSoC4/CSD_Filter.c **** /*******************************************************************************
1148:Generated_Source\PSoC4/CSD_Filter.c **** * Function Name: CSD_RunAverageInternal
1149:Generated_Source\PSoC4/CSD_Filter.c **** ****************************************************************************//**
1150:Generated_Source\PSoC4/CSD_Filter.c **** *
1151:Generated_Source\PSoC4/CSD_Filter.c **** * \brief    Runs the average filter.
1152:Generated_Source\PSoC4/CSD_Filter.c **** *
1153:Generated_Source\PSoC4/CSD_Filter.c **** * \details  Runs the average filter.
1154:Generated_Source\PSoC4/CSD_Filter.c **** *
1155:Generated_Source\PSoC4/CSD_Filter.c **** * \param    ptrFilterHistObj The pointer to the filter RAM object of the sensor.
1156:Generated_Source\PSoC4/CSD_Filter.c **** * \param    ptrSensorObj     The pointer to the sensor RAM object of the sensor.
1157:Generated_Source\PSoC4/CSD_Filter.c **** * \param    wdType           Specifies the type of a widget.
1158:Generated_Source\PSoC4/CSD_Filter.c **** *
1159:Generated_Source\PSoC4/CSD_Filter.c **** *******************************************************************************/
1160:Generated_Source\PSoC4/CSD_Filter.c **** void CSD_RunAverageInternal(CSD_PTR_FILTER_VARIANT ptrFilterHistObj,\
1161:Generated_Source\PSoC4/CSD_Filter.c ****                                            CSD_RAM_SNS_STRUCT *ptrSensorObj, uint32 wdType)
1162:Generated_Source\PSoC4/CSD_Filter.c **** {
1163:Generated_Source\PSoC4/CSD_Filter.c ****     uint32 channel;
ARM GAS  C:\Users\Greg\AppData\Local\Temp\cceDExAc.s 			page 31


1164:Generated_Source\PSoC4/CSD_Filter.c ****     uint32 temp;
1165:Generated_Source\PSoC4/CSD_Filter.c **** 
1166:Generated_Source\PSoC4/CSD_Filter.c ****     for(channel = CSD_NUM_SCAN_FREQS; channel-- > 0u;)
1167:Generated_Source\PSoC4/CSD_Filter.c ****     {
1168:Generated_Source\PSoC4/CSD_Filter.c ****         if ((CSD_WD_TYPE_ENUM)wdType != CSD_WD_PROXIMITY_E)
1169:Generated_Source\PSoC4/CSD_Filter.c ****         {
1170:Generated_Source\PSoC4/CSD_Filter.c ****             #if (CSD_REGULAR_SENSOR_EN && CSD_REGULAR_RC_AVERAGE_FILTER_EN)
1171:Generated_Source\PSoC4/CSD_Filter.c ****                 #if (CSD_REGULAR_AVERAGE_LEN == CSD_AVERAGE_FILTER_LEN_2)
1172:Generated_Source\PSoC4/CSD_Filter.c ****                     temp = ((uint32)ptrSensorObj->raw[channel] + 
1173:Generated_Source\PSoC4/CSD_Filter.c ****                             (uint32)ptrFilterHistObj.ptrRegular->regularChannel[channel].avgHistory
1174:Generated_Source\PSoC4/CSD_Filter.c ****                     ptrFilterHistObj.ptrRegular->regularChannel[channel].avgHistory[0] = ptrSensorO
1175:Generated_Source\PSoC4/CSD_Filter.c ****                     ptrSensorObj->raw[channel] = LO16(temp);
1176:Generated_Source\PSoC4/CSD_Filter.c ****                 #else
1177:Generated_Source\PSoC4/CSD_Filter.c ****                     temp = ((uint32)ptrSensorObj->raw[channel] + 
1178:Generated_Source\PSoC4/CSD_Filter.c ****                             (uint32)ptrFilterHistObj.ptrRegular->regularChannel[channel].avgHistory
1179:Generated_Source\PSoC4/CSD_Filter.c ****                             (uint32)ptrFilterHistObj.ptrRegular->regularChannel[channel].avgHistory
1180:Generated_Source\PSoC4/CSD_Filter.c ****                             (uint32)ptrFilterHistObj.ptrRegular->regularChannel[channel].avgHistory
1181:Generated_Source\PSoC4/CSD_Filter.c **** 
1182:Generated_Source\PSoC4/CSD_Filter.c ****                     ptrFilterHistObj.ptrRegular->regularChannel[channel].avgHistory[2u] =
1183:Generated_Source\PSoC4/CSD_Filter.c ****                     ptrFilterHistObj.ptrRegular->regularChannel[channel].avgHistory[1u];
1184:Generated_Source\PSoC4/CSD_Filter.c ****                     ptrFilterHistObj.ptrRegular->regularChannel[channel].avgHistory[1u] =
1185:Generated_Source\PSoC4/CSD_Filter.c ****                     ptrFilterHistObj.ptrRegular->regularChannel[channel].avgHistory[0];
1186:Generated_Source\PSoC4/CSD_Filter.c ****                     ptrFilterHistObj.ptrRegular->regularChannel[channel].avgHistory[0] = ptrSensorO
1187:Generated_Source\PSoC4/CSD_Filter.c ****                     ptrSensorObj->raw[channel] = LO16(temp);
1188:Generated_Source\PSoC4/CSD_Filter.c ****                 #endif /* CSD_REGULAR_AVERAGE_LEN == CSD_AVERAGE_FILTER_LEN_4 */
1189:Generated_Source\PSoC4/CSD_Filter.c ****             #endif /* (CSD_REGULAR_SENSOR_EN) */
1190:Generated_Source\PSoC4/CSD_Filter.c ****         }
1191:Generated_Source\PSoC4/CSD_Filter.c ****         else 
1192:Generated_Source\PSoC4/CSD_Filter.c ****         {
1193:Generated_Source\PSoC4/CSD_Filter.c ****             #if (CSD_PROXIMITY_SENSOR_EN && CSD_PROX_RC_AVERAGE_FILTER_EN)
1194:Generated_Source\PSoC4/CSD_Filter.c ****                 #if (CSD_PROX_AVERAGE_LEN == CSD_AVERAGE_FILTER_LEN_2)     
1195:Generated_Source\PSoC4/CSD_Filter.c ****                     temp = ((uint32)ptrSensorObj->raw[channel] + 
1196:Generated_Source\PSoC4/CSD_Filter.c ****                             (uint32)ptrFilterHistObj.ptrProx->proxChannel[channel].avgHistory[0]) >
1197:Generated_Source\PSoC4/CSD_Filter.c ****                     ptrFilterHistObj.ptrProx->proxChannel[channel].avgHistory[0] = ptrSensorObj->ra
1198:Generated_Source\PSoC4/CSD_Filter.c ****                     ptrSensorObj->raw[channel] = LO16(temp);
1199:Generated_Source\PSoC4/CSD_Filter.c ****                 #else
1200:Generated_Source\PSoC4/CSD_Filter.c ****                     temp = ((uint32)ptrSensorObj->raw[channel] + 
1201:Generated_Source\PSoC4/CSD_Filter.c ****                             (uint32)ptrFilterHistObj.ptrProx->proxChannel[channel].avgHistory[0] +
1202:Generated_Source\PSoC4/CSD_Filter.c ****                             (uint32)ptrFilterHistObj.ptrProx->proxChannel[channel].avgHistory[1u] +
1203:Generated_Source\PSoC4/CSD_Filter.c ****                             (uint32)ptrFilterHistObj.ptrProx->proxChannel[channel].avgHistory[2u]) 
1204:Generated_Source\PSoC4/CSD_Filter.c ****                     
1205:Generated_Source\PSoC4/CSD_Filter.c ****                     ptrFilterHistObj.ptrProx->proxChannel[channel].avgHistory[2u] =
1206:Generated_Source\PSoC4/CSD_Filter.c ****                     ptrFilterHistObj.ptrProx->proxChannel[channel].avgHistory[1u];
1207:Generated_Source\PSoC4/CSD_Filter.c ****                     ptrFilterHistObj.ptrProx->proxChannel[channel].avgHistory[1u] =
1208:Generated_Source\PSoC4/CSD_Filter.c ****                     ptrFilterHistObj.ptrProx->proxChannel[channel].avgHistory[0];
1209:Generated_Source\PSoC4/CSD_Filter.c ****                     ptrFilterHistObj.ptrProx->proxChannel[channel].avgHistory[0] = ptrSensorObj->ra
1210:Generated_Source\PSoC4/CSD_Filter.c ****                     ptrSensorObj->raw[channel] = LO16(temp);
1211:Generated_Source\PSoC4/CSD_Filter.c ****                 #endif /* CSD_PROX_AVERAGE_LEN == CSD_AVERAGE_FILTER_LEN_4 */
1212:Generated_Source\PSoC4/CSD_Filter.c ****             #endif /* (CSD_PROXIMITY_SENSOR_EN) */
1213:Generated_Source\PSoC4/CSD_Filter.c ****         }
1214:Generated_Source\PSoC4/CSD_Filter.c ****     }
1215:Generated_Source\PSoC4/CSD_Filter.c **** }
1216:Generated_Source\PSoC4/CSD_Filter.c **** #endif /* (CSD_REGULAR_RC_AVERAGE_FILTER_EN || CSD_PROX_RC_AVERAGE_FILTER_EN) */
1217:Generated_Source\PSoC4/CSD_Filter.c **** 
1218:Generated_Source\PSoC4/CSD_Filter.c **** 
1219:Generated_Source\PSoC4/CSD_Filter.c **** #if ((CSD_REGULAR_RC_FILTER_EN || CSD_PROX_RC_FILTER_EN))
1220:Generated_Source\PSoC4/CSD_Filter.c **** /*******************************************************************************
ARM GAS  C:\Users\Greg\AppData\Local\Temp\cceDExAc.s 			page 32


1221:Generated_Source\PSoC4/CSD_Filter.c **** * Function Name: CSD_FtRunEnabledFilters
1222:Generated_Source\PSoC4/CSD_Filter.c **** ****************************************************************************//**
1223:Generated_Source\PSoC4/CSD_Filter.c **** *
1224:Generated_Source\PSoC4/CSD_Filter.c **** * \brief    Runs all enabled filters.
1225:Generated_Source\PSoC4/CSD_Filter.c **** *
1226:Generated_Source\PSoC4/CSD_Filter.c **** * \details  Runs all enabled filters.
1227:Generated_Source\PSoC4/CSD_Filter.c **** *
1228:Generated_Source\PSoC4/CSD_Filter.c **** * \param    widgetId Specifies the ID number of a widget to update the IIR filter history.*
1229:Generated_Source\PSoC4/CSD_Filter.c **** * \param    sensorId Specifies the ID number of a sensor in the widget to update the IIR 
1230:Generated_Source\PSoC4/CSD_Filter.c **** *           filter history.
1231:Generated_Source\PSoC4/CSD_Filter.c **** *
1232:Generated_Source\PSoC4/CSD_Filter.c **** *******************************************************************************/
1233:Generated_Source\PSoC4/CSD_Filter.c **** void CSD_FtRunEnabledFilters(uint32 widgetId, uint32 sensorId)
1234:Generated_Source\PSoC4/CSD_Filter.c **** {
1235:Generated_Source\PSoC4/CSD_Filter.c ****     CSD_FLASH_WD_STRUCT const *ptrWidget = &CSD_dsFlash.wdgtArray[widgetId];      
1236:Generated_Source\PSoC4/CSD_Filter.c ****     CSD_RAM_SNS_STRUCT *ptrSensor = NULL;    
1237:Generated_Source\PSoC4/CSD_Filter.c ****     CSD_PTR_FILTER_VARIANT ptrFilterHistObj; 
1238:Generated_Source\PSoC4/CSD_Filter.c ****               
1239:Generated_Source\PSoC4/CSD_Filter.c ****     /* Find pointer to specified sensor object */     
1240:Generated_Source\PSoC4/CSD_Filter.c ****     ptrSensor = ptrWidget->ptr2SnsRam;
1241:Generated_Source\PSoC4/CSD_Filter.c ****     ptrSensor = &ptrSensor[sensorId];
1242:Generated_Source\PSoC4/CSD_Filter.c ****     
1243:Generated_Source\PSoC4/CSD_Filter.c ****     /* Find pointer to specified filter sensor object */     
1244:Generated_Source\PSoC4/CSD_Filter.c ****     ptrFilterHistObj.ptr = ptrWidget->ptr2FltrHistory;
1245:Generated_Source\PSoC4/CSD_Filter.c ****     
1246:Generated_Source\PSoC4/CSD_Filter.c ****     if ((CSD_WD_TYPE_ENUM)ptrWidget->wdgtType != CSD_WD_PROXIMITY_E)
1247:Generated_Source\PSoC4/CSD_Filter.c ****     {
1248:Generated_Source\PSoC4/CSD_Filter.c ****         #if (CSD_REGULAR_SENSOR_EN)
1249:Generated_Source\PSoC4/CSD_Filter.c ****             ptrFilterHistObj.ptrRegular = &ptrFilterHistObj.ptrRegular[sensorId];
1250:Generated_Source\PSoC4/CSD_Filter.c ****         #endif /* (CSD_REGULAR_SENSOR_EN) */
1251:Generated_Source\PSoC4/CSD_Filter.c ****     }
1252:Generated_Source\PSoC4/CSD_Filter.c ****     else
1253:Generated_Source\PSoC4/CSD_Filter.c ****     {
1254:Generated_Source\PSoC4/CSD_Filter.c ****         #if (CSD_PROXIMITY_SENSOR_EN)
1255:Generated_Source\PSoC4/CSD_Filter.c ****             ptrFilterHistObj.ptrProx = &ptrFilterHistObj.ptrProx[sensorId];
1256:Generated_Source\PSoC4/CSD_Filter.c ****         #endif /* (CSD_PROXIMITY_SENSOR_EN) */
1257:Generated_Source\PSoC4/CSD_Filter.c ****     }
1258:Generated_Source\PSoC4/CSD_Filter.c ****     
1259:Generated_Source\PSoC4/CSD_Filter.c ****     CSD_FtRunEnabledFiltersInternal(ptrFilterHistObj, ptrSensor, (uint32)ptrWidget->wdgtType);
1260:Generated_Source\PSoC4/CSD_Filter.c **** }
1261:Generated_Source\PSoC4/CSD_Filter.c **** 
1262:Generated_Source\PSoC4/CSD_Filter.c **** 
1263:Generated_Source\PSoC4/CSD_Filter.c **** /*******************************************************************************
1264:Generated_Source\PSoC4/CSD_Filter.c **** * Function Name: CSD_FtRunEnabledFiltersInternal
1265:Generated_Source\PSoC4/CSD_Filter.c **** ****************************************************************************//**
1266:Generated_Source\PSoC4/CSD_Filter.c **** *
1267:Generated_Source\PSoC4/CSD_Filter.c **** * \brief    Runs all enabled filters.
1268:Generated_Source\PSoC4/CSD_Filter.c **** *
1269:Generated_Source\PSoC4/CSD_Filter.c **** * \details  Runs all enabled filters.
1270:Generated_Source\PSoC4/CSD_Filter.c **** *
1271:Generated_Source\PSoC4/CSD_Filter.c **** * \param    ptrFilterHistObj The pointer to the filter RAM object of the sensor.
1272:Generated_Source\PSoC4/CSD_Filter.c **** * \param    ptrSensorObj     The pointer to the sensor RAM object of the sensor.
1273:Generated_Source\PSoC4/CSD_Filter.c **** * \param    wdType           Specifies the type of a widget.
1274:Generated_Source\PSoC4/CSD_Filter.c **** *
1275:Generated_Source\PSoC4/CSD_Filter.c **** *******************************************************************************/
1276:Generated_Source\PSoC4/CSD_Filter.c **** void CSD_FtRunEnabledFiltersInternal(CSD_PTR_FILTER_VARIANT ptrFilterHistObj, 
1277:Generated_Source\PSoC4/CSD_Filter.c ****                                                   CSD_RAM_SNS_STRUCT *ptrSensorObj, uint32 wdType)
ARM GAS  C:\Users\Greg\AppData\Local\Temp\cceDExAc.s 			page 33


1278:Generated_Source\PSoC4/CSD_Filter.c **** {
1279:Generated_Source\PSoC4/CSD_Filter.c ****     #if (CSD_REGULAR_RC_MEDIAN_FILTER_EN || CSD_PROX_RC_MEDIAN_FILTER_EN)
1280:Generated_Source\PSoC4/CSD_Filter.c ****         CSD_RunMedianInternal(ptrFilterHistObj, ptrSensorObj, wdType);
1281:Generated_Source\PSoC4/CSD_Filter.c ****     #endif /* (CSD_REGULAR_RC_MEDIAN_FILTER_EN || CSD_PROX_RC_MEDIAN_FILTER_EN) */
1282:Generated_Source\PSoC4/CSD_Filter.c ****     
1283:Generated_Source\PSoC4/CSD_Filter.c ****     #if (CSD_REGULAR_RC_IIR_FILTER_EN || CSD_PROX_RC_IIR_FILTER_EN)    
1284:Generated_Source\PSoC4/CSD_Filter.c ****         CSD_RunIIRInternal(ptrFilterHistObj, ptrSensorObj, wdType);
1285:Generated_Source\PSoC4/CSD_Filter.c ****     #endif /* (CSD_REGULAR_RC_IIR_FILTER_EN || CSD_PROX_RC_IIR_FILTER_EN) */ 
1286:Generated_Source\PSoC4/CSD_Filter.c **** 
1287:Generated_Source\PSoC4/CSD_Filter.c ****     #if (CSD_REGULAR_RC_AVERAGE_FILTER_EN || CSD_PROX_RC_AVERAGE_FILTER_EN)
1288:Generated_Source\PSoC4/CSD_Filter.c ****         CSD_RunAverageInternal(ptrFilterHistObj, ptrSensorObj, wdType);
1289:Generated_Source\PSoC4/CSD_Filter.c ****     #endif /* (CSD_REGULAR_RC_AVERAGE_FILTER_EN || CSD_PROX_RC_AVERAGE_FILTER_EN) */            
1290:Generated_Source\PSoC4/CSD_Filter.c **** }
1291:Generated_Source\PSoC4/CSD_Filter.c **** #endif /* (CSD_REGULAR_RC_FILTER_EN || CSD_PROX_RC_FILTER_EN) */
1292:Generated_Source\PSoC4/CSD_Filter.c **** 
1293:Generated_Source\PSoC4/CSD_Filter.c **** 
1294:Generated_Source\PSoC4/CSD_Filter.c **** #if (CSD_CSD_AUTOTUNE & CSD_CSD_SS_TH_EN)
1295:Generated_Source\PSoC4/CSD_Filter.c **** /*******************************************************************************
1296:Generated_Source\PSoC4/CSD_Filter.c **** * Function Name: CSD_RunNoiseEnvelope
1297:Generated_Source\PSoC4/CSD_Filter.c **** ****************************************************************************//**
1298:Generated_Source\PSoC4/CSD_Filter.c **** *
1299:Generated_Source\PSoC4/CSD_Filter.c **** * \brief    Executes the noise envelope  filter algorithm on a sensor indicated by 
1300:Generated_Source\PSoC4/CSD_Filter.c **** *           an input parameter to measure the pk-to-pk noise in the sensor raw count.
1301:Generated_Source\PSoC4/CSD_Filter.c **** *
1302:Generated_Source\PSoC4/CSD_Filter.c **** * \details  Executes the noise envelope  filter algorithm on a sensor indicated by 
1303:Generated_Source\PSoC4/CSD_Filter.c **** *           an input parameter to measure the pk-to-pk noise in the sensor raw count.
1304:Generated_Source\PSoC4/CSD_Filter.c **** *
1305:Generated_Source\PSoC4/CSD_Filter.c **** * \param    widgetId Specifies the ID number of the widget.
1306:Generated_Source\PSoC4/CSD_Filter.c **** * \param    sensorId Specifies the ID number of the sensor in the widget.
1307:Generated_Source\PSoC4/CSD_Filter.c **** *
1308:Generated_Source\PSoC4/CSD_Filter.c **** *******************************************************************************/
1309:Generated_Source\PSoC4/CSD_Filter.c **** void CSD_RunNoiseEnvelope(uint32 widgetId, uint32 sensorId)
1310:Generated_Source\PSoC4/CSD_Filter.c **** {
1311:Generated_Source\PSoC4/CSD_Filter.c ****     CSD_FLASH_WD_STRUCT const *ptrWidget = &CSD_dsFlash.wdgtArray[widgetId];
1312:Generated_Source\PSoC4/CSD_Filter.c ****     CSD_RAM_WD_BASE_STRUCT *ptrWidgetRam = ptrWidget->ptr2WdgtRam;
1313:Generated_Source\PSoC4/CSD_Filter.c ****     CSD_RAM_SNS_STRUCT *ptrSensor = NULL;    
1314:Generated_Source\PSoC4/CSD_Filter.c ****     SMARTSENSE_CSD_NOISE_ENVELOPE_STRUCT *ptrNoiseEnvelope = NULL;
1315:Generated_Source\PSoC4/CSD_Filter.c **** 
1316:Generated_Source\PSoC4/CSD_Filter.c ****     /* Find pointer to specified sensor object */
1317:Generated_Source\PSoC4/CSD_Filter.c ****     ptrSensor = ptrWidget->ptr2SnsRam;
1318:Generated_Source\PSoC4/CSD_Filter.c ****     ptrSensor = &ptrSensor[sensorId];
1319:Generated_Source\PSoC4/CSD_Filter.c ****     
1320:Generated_Source\PSoC4/CSD_Filter.c ****     /* Find pointer to specified filter sensor object */
1321:Generated_Source\PSoC4/CSD_Filter.c ****     ptrNoiseEnvelope = ptrWidget->ptr2NoiseEnvlp;
1322:Generated_Source\PSoC4/CSD_Filter.c ****     ptrNoiseEnvelope = &ptrNoiseEnvelope[sensorId];    
1323:Generated_Source\PSoC4/CSD_Filter.c **** 
1324:Generated_Source\PSoC4/CSD_Filter.c ****     SmartSense_RunNoiseEnvelope(ptrSensor->raw[0u], ptrWidgetRam->sigPFC, ptrNoiseEnvelope);
1325:Generated_Source\PSoC4/CSD_Filter.c **** }
1326:Generated_Source\PSoC4/CSD_Filter.c **** 
1327:Generated_Source\PSoC4/CSD_Filter.c **** 
1328:Generated_Source\PSoC4/CSD_Filter.c **** /*******************************************************************************
1329:Generated_Source\PSoC4/CSD_Filter.c **** * Function Name: CSD_InitializeNoiseEnvelope
1330:Generated_Source\PSoC4/CSD_Filter.c **** ****************************************************************************//**
1331:Generated_Source\PSoC4/CSD_Filter.c **** *
1332:Generated_Source\PSoC4/CSD_Filter.c **** * \brief    Initializes the noise-envelope filter
1333:Generated_Source\PSoC4/CSD_Filter.c **** *
1334:Generated_Source\PSoC4/CSD_Filter.c **** * \details  Initializes the noise-envelope filter
ARM GAS  C:\Users\Greg\AppData\Local\Temp\cceDExAc.s 			page 34


1335:Generated_Source\PSoC4/CSD_Filter.c **** *
1336:Generated_Source\PSoC4/CSD_Filter.c **** * \param    widgetId Specifies the ID number of the widget.
1337:Generated_Source\PSoC4/CSD_Filter.c **** * \param    sensorId Specifies the ID number of the sensor in the widget.
1338:Generated_Source\PSoC4/CSD_Filter.c **** *
1339:Generated_Source\PSoC4/CSD_Filter.c **** *******************************************************************************/
1340:Generated_Source\PSoC4/CSD_Filter.c **** void CSD_InitializeNoiseEnvelope(uint32 widgetId, uint32 sensorId)
1341:Generated_Source\PSoC4/CSD_Filter.c **** {
1342:Generated_Source\PSoC4/CSD_Filter.c ****     CSD_FLASH_WD_STRUCT const *ptrWidget = &CSD_dsFlash.wdgtArray[widgetId];
1343:Generated_Source\PSoC4/CSD_Filter.c ****     CSD_RAM_WD_BASE_STRUCT *ptrWidgetRam = ptrWidget->ptr2WdgtRam;
1344:Generated_Source\PSoC4/CSD_Filter.c ****     CSD_RAM_SNS_STRUCT *ptrSensor = NULL;    
1345:Generated_Source\PSoC4/CSD_Filter.c ****     SMARTSENSE_CSD_NOISE_ENVELOPE_STRUCT *ptrNoiseEnvelope = NULL;
1346:Generated_Source\PSoC4/CSD_Filter.c **** 
1347:Generated_Source\PSoC4/CSD_Filter.c ****     /* Find pointer to specified sensor object */
1348:Generated_Source\PSoC4/CSD_Filter.c ****     ptrSensor = ptrWidget->ptr2SnsRam;
1349:Generated_Source\PSoC4/CSD_Filter.c ****     ptrSensor = &ptrSensor[sensorId];
1350:Generated_Source\PSoC4/CSD_Filter.c ****     
1351:Generated_Source\PSoC4/CSD_Filter.c ****     /* Find pointer to specified filter sensor object */
1352:Generated_Source\PSoC4/CSD_Filter.c ****     ptrNoiseEnvelope = ptrWidget->ptr2NoiseEnvlp;
1353:Generated_Source\PSoC4/CSD_Filter.c ****     ptrNoiseEnvelope = &ptrNoiseEnvelope[sensorId];    
1354:Generated_Source\PSoC4/CSD_Filter.c **** 
1355:Generated_Source\PSoC4/CSD_Filter.c ****     SmartSense_InitializeNoiseEnvelope(ptrSensor->raw[0u], ptrWidgetRam->sigPFC, ptrNoiseEnvelope);
1356:Generated_Source\PSoC4/CSD_Filter.c **** }
1357:Generated_Source\PSoC4/CSD_Filter.c **** #endif /* #if CSD_CSD_AUTOTUNE & CSD_CSD_SS_TH_EN */
1358:Generated_Source\PSoC4/CSD_Filter.c **** 
1359:Generated_Source\PSoC4/CSD_Filter.c **** 
1360:Generated_Source\PSoC4/CSD_Filter.c **** #if (CSD_POS_MEDIAN_FILTER_EN || CSD_REGULAR_RC_MEDIAN_FILTER_EN || CSD_PROX_RC_MEDIAN_FILTER_EN)
1361:Generated_Source\PSoC4/CSD_Filter.c **** /*******************************************************************************
1362:Generated_Source\PSoC4/CSD_Filter.c **** * Function Name: CSD_FtMedian
1363:Generated_Source\PSoC4/CSD_Filter.c **** ****************************************************************************//**
1364:Generated_Source\PSoC4/CSD_Filter.c **** *
1365:Generated_Source\PSoC4/CSD_Filter.c **** * \brief    Return the median value from the three passed arguments.
1366:Generated_Source\PSoC4/CSD_Filter.c **** *
1367:Generated_Source\PSoC4/CSD_Filter.c **** * \details  Return the median value from the three passed arguments.
1368:Generated_Source\PSoC4/CSD_Filter.c **** *
1369:Generated_Source\PSoC4/CSD_Filter.c **** * \param    x1 The first value to be compared.
1370:Generated_Source\PSoC4/CSD_Filter.c **** * \param    x2 The second value to be compared.
1371:Generated_Source\PSoC4/CSD_Filter.c **** * \param    x3 The third value to be compared.
1372:Generated_Source\PSoC4/CSD_Filter.c **** *
1373:Generated_Source\PSoC4/CSD_Filter.c **** * \return   Returns the median value of input arguments.
1374:Generated_Source\PSoC4/CSD_Filter.c **** *
1375:Generated_Source\PSoC4/CSD_Filter.c **** *******************************************************************************/
1376:Generated_Source\PSoC4/CSD_Filter.c **** uint32 CSD_FtMedian(uint32 x1, uint32 x2, uint32 x3)
1377:Generated_Source\PSoC4/CSD_Filter.c **** {
1378:Generated_Source\PSoC4/CSD_Filter.c ****     uint32 tmp;
1379:Generated_Source\PSoC4/CSD_Filter.c **** 
1380:Generated_Source\PSoC4/CSD_Filter.c ****     if (x1 > x2)
1381:Generated_Source\PSoC4/CSD_Filter.c ****     {
1382:Generated_Source\PSoC4/CSD_Filter.c ****         tmp = x2;
1383:Generated_Source\PSoC4/CSD_Filter.c ****         x2 = x1;
1384:Generated_Source\PSoC4/CSD_Filter.c ****         x1 = tmp;
1385:Generated_Source\PSoC4/CSD_Filter.c ****     }
1386:Generated_Source\PSoC4/CSD_Filter.c **** 
1387:Generated_Source\PSoC4/CSD_Filter.c ****     if (x2 > x3)
1388:Generated_Source\PSoC4/CSD_Filter.c ****     {
1389:Generated_Source\PSoC4/CSD_Filter.c ****         x2 = x3;
1390:Generated_Source\PSoC4/CSD_Filter.c ****     }
1391:Generated_Source\PSoC4/CSD_Filter.c **** 
ARM GAS  C:\Users\Greg\AppData\Local\Temp\cceDExAc.s 			page 35


1392:Generated_Source\PSoC4/CSD_Filter.c ****     return ((x1 > x2) ? x1 : x2);
1393:Generated_Source\PSoC4/CSD_Filter.c **** }
1394:Generated_Source\PSoC4/CSD_Filter.c **** #endif /*CSD_POS_MEDIAN_FILTER_EN || CSD_REGULAR_RC_MEDIAN_FILTER_EN || CSD_PROX_RC_MEDIAN_FILTER_E
1395:Generated_Source\PSoC4/CSD_Filter.c **** 
1396:Generated_Source\PSoC4/CSD_Filter.c **** 
1397:Generated_Source\PSoC4/CSD_Filter.c **** /*******************************************************************************
1398:Generated_Source\PSoC4/CSD_Filter.c **** * Function Name: CSD_FtIIR1stOrder
1399:Generated_Source\PSoC4/CSD_Filter.c **** ****************************************************************************//**
1400:Generated_Source\PSoC4/CSD_Filter.c **** *
1401:Generated_Source\PSoC4/CSD_Filter.c **** * \brief    Return the filtered data by the IIR 1-st order algorithm
1402:Generated_Source\PSoC4/CSD_Filter.c **** *
1403:Generated_Source\PSoC4/CSD_Filter.c **** * \details  Return the filtered data by the IIR 1-st order algorithm
1404:Generated_Source\PSoC4/CSD_Filter.c **** *
1405:Generated_Source\PSoC4/CSD_Filter.c **** * \param    input      The data to be filtered.
1406:Generated_Source\PSoC4/CSD_Filter.c **** * \param    prevOutput The previous filtered data.
1407:Generated_Source\PSoC4/CSD_Filter.c **** * \param    n          The IIR filter coefficient (n/256).
1408:Generated_Source\PSoC4/CSD_Filter.c **** * \param    shift      The parameter is used to shift input data to have free LSB 
1409:Generated_Source\PSoC4/CSD_Filter.c **** *                       bits for a fraction storage of the filter output calculation.
1410:Generated_Source\PSoC4/CSD_Filter.c **** *
1411:Generated_Source\PSoC4/CSD_Filter.c **** * \return   Returns the filtered data.
1412:Generated_Source\PSoC4/CSD_Filter.c **** *
1413:Generated_Source\PSoC4/CSD_Filter.c **** *******************************************************************************/
1414:Generated_Source\PSoC4/CSD_Filter.c **** uint32 CSD_FtIIR1stOrder(uint32 input, uint32 prevOutput, uint32 n, uint32 shift)
1415:Generated_Source\PSoC4/CSD_Filter.c **** {   
 496              		.loc 1 1415 0
 497              		.cfi_startproc
 498              	.LVL72:
1416:Generated_Source\PSoC4/CSD_Filter.c ****     uint32 output;
1417:Generated_Source\PSoC4/CSD_Filter.c ****    
1418:Generated_Source\PSoC4/CSD_Filter.c ****     /*
1419:Generated_Source\PSoC4/CSD_Filter.c ****     * n - IIR filter coefficient (n/256)
1420:Generated_Source\PSoC4/CSD_Filter.c ****     * shift - Used to shift input data to have free LSB bits
1421:Generated_Source\PSoC4/CSD_Filter.c ****     * for fraction storage of filter output calculation
1422:Generated_Source\PSoC4/CSD_Filter.c ****     */
1423:Generated_Source\PSoC4/CSD_Filter.c ****     output = ((n * (input << shift)) + ((CSD_IIR_COEFFICIENT_K - n) * prevOutput)) >> 8u;
 499              		.loc 1 1423 0
 500 0000 9840     		lsl	r0, r0, r3
 501              	.LVL73:
 502 0002 031C     		mov	r3, r0
 503              	.LVL74:
 504 0004 5343     		mul	r3, r2
 505 0006 8020     		mov	r0, #128
 506 0008 4000     		lsl	r0, r0, #1
 507 000a 801A     		sub	r0, r0, r2
 508 000c 4143     		mul	r1, r0
 509              	.LVL75:
 510 000e 5818     		add	r0, r3, r1
 511 0010 000A     		lsr	r0, r0, #8
 512              	.LVL76:
1424:Generated_Source\PSoC4/CSD_Filter.c ****     
1425:Generated_Source\PSoC4/CSD_Filter.c ****     /* Shift operation of output will be done in upper level API if needed */
1426:Generated_Source\PSoC4/CSD_Filter.c ****     return output;
1427:Generated_Source\PSoC4/CSD_Filter.c **** }
 513              		.loc 1 1427 0
 514              		@ sp needed
 515 0012 7047     		bx	lr
 516              		.cfi_endproc
ARM GAS  C:\Users\Greg\AppData\Local\Temp\cceDExAc.s 			page 36


 517              	.LFE17:
 518              		.size	CSD_FtIIR1stOrder, .-CSD_FtIIR1stOrder
 519              		.section	.text.CSD_FtUpdateBaseline,"ax",%progbits
 520              		.align	2
 521              		.global	CSD_FtUpdateBaseline
 522              		.code	16
 523              		.thumb_func
 524              		.type	CSD_FtUpdateBaseline, %function
 525              	CSD_FtUpdateBaseline:
 526              	.LFB5:
 325:Generated_Source\PSoC4/CSD_Filter.c ****     uint32 sign;
 527              		.loc 1 325 0
 528              		.cfi_startproc
 529              	.LVL77:
 530 0000 F0B5     		push	{r4, r5, r6, r7, lr}
 531              		.cfi_def_cfa_offset 20
 532              		.cfi_offset 4, -20
 533              		.cfi_offset 5, -16
 534              		.cfi_offset 6, -12
 535              		.cfi_offset 7, -8
 536              		.cfi_offset 14, -4
 537 0002 83B0     		sub	sp, sp, #12
 538              		.cfi_def_cfa_offset 32
 539 0004 071C     		mov	r7, r0
 540 0006 0E1C     		mov	r6, r1
 541 0008 0192     		str	r2, [sp, #4]
 542              	.LVL78:
 336:Generated_Source\PSoC4/CSD_Filter.c ****     {               
 543              		.loc 1 336 0
 544 000a 0123     		mov	r3, #1
 545 000c 3BE0     		b	.L37
 546              	.LVL79:
 547              	.L44:
 348:Generated_Source\PSoC4/CSD_Filter.c ****         {
 548              		.loc 1 348 0
 549 000e 6300     		lsl	r3, r4, #1
 550 0010 985B     		ldrh	r0, [r3, r6]
 551 0012 F318     		add	r3, r6, r3
 552 0014 5988     		ldrh	r1, [r3, #2]
 553 0016 8842     		cmp	r0, r1
 554 0018 05D3     		bcc	.L38
 350:Generated_Source\PSoC4/CSD_Filter.c ****             sign = 1u;
 555              		.loc 1 350 0
 556 001a 431A     		sub	r3, r0, r1
 557              	.LVL80:
 352:Generated_Source\PSoC4/CSD_Filter.c ****         }
 558              		.loc 1 352 0
 559 001c 3219     		add	r2, r6, r4
 560 001e 0025     		mov	r5, #0
 561 0020 1572     		strb	r5, [r2, #8]
 351:Generated_Source\PSoC4/CSD_Filter.c ****             ptrSensor->negBslnRstCnt[channel] = 0u;
 562              		.loc 1 351 0
 563 0022 0122     		mov	r2, #1
 564 0024 01E0     		b	.L39
 565              	.LVL81:
 566              	.L38:
 356:Generated_Source\PSoC4/CSD_Filter.c ****             sign = 0u;
ARM GAS  C:\Users\Greg\AppData\Local\Temp\cceDExAc.s 			page 37


 567              		.loc 1 356 0
 568 0026 0B1A     		sub	r3, r1, r0
 569              	.LVL82:
 357:Generated_Source\PSoC4/CSD_Filter.c ****         }     
 570              		.loc 1 357 0
 571 0028 0022     		mov	r2, #0
 572              	.LVL83:
 573              	.L39:
 361:Generated_Source\PSoC4/CSD_Filter.c ****         {
 574              		.loc 1 361 0
 575 002a 002A     		cmp	r2, #0
 576 002c 11D1     		bne	.L40
 361:Generated_Source\PSoC4/CSD_Filter.c ****         {
 577              		.loc 1 361 0 is_stmt 0 discriminator 1
 578 002e 7D79     		ldrb	r5, [r7, #5]
 579 0030 9D42     		cmp	r5, r3
 580 0032 0ED2     		bcs	.L40
 363:Generated_Source\PSoC4/CSD_Filter.c ****             {                
 581              		.loc 1 363 0 is_stmt 1
 582 0034 3319     		add	r3, r6, r4
 583              	.LVL84:
 584 0036 1B7A     		ldrb	r3, [r3, #8]
 585 0038 3A7A     		ldrb	r2, [r7, #8]
 586              	.LVL85:
 587 003a 9342     		cmp	r3, r2
 588 003c 05D3     		bcc	.L41
 365:Generated_Source\PSoC4/CSD_Filter.c ****             }
 589              		.loc 1 365 0
 590 003e 301C     		mov	r0, r6
 591 0040 0199     		ldr	r1, [sp, #4]
 592 0042 221C     		mov	r2, r4
 593 0044 FFF7FEFF 		bl	CSD_FtInitializeBaselineChannel
 594              	.LVL86:
 595 0048 1CE0     		b	.L42
 596              	.L41:
 369:Generated_Source\PSoC4/CSD_Filter.c ****             }
 597              		.loc 1 369 0
 598 004a 3219     		add	r2, r6, r4
 599 004c 0133     		add	r3, r3, #1
 600 004e 1372     		strb	r3, [r2, #8]
 601 0050 18E0     		b	.L42
 602              	.LVL87:
 603              	.L40:
 376:Generated_Source\PSoC4/CSD_Filter.c ****                     ((difference < (uint32) ptrWidgetRam->nNoiseTh) && (sign == 0u)))
 604              		.loc 1 376 0
 605 0052 3D79     		ldrb	r5, [r7, #4]
 606 0054 9D42     		cmp	r5, r3
 607 0056 04D2     		bcs	.L43
 377:Generated_Source\PSoC4/CSD_Filter.c ****                 {
 608              		.loc 1 377 0 discriminator 1
 609 0058 7D79     		ldrb	r5, [r7, #5]
 376:Generated_Source\PSoC4/CSD_Filter.c ****                     ((difference < (uint32) ptrWidgetRam->nNoiseTh) && (sign == 0u)))
 610              		.loc 1 376 0 discriminator 1
 611 005a 9D42     		cmp	r5, r3
 612 005c 12D9     		bls	.L42
 377:Generated_Source\PSoC4/CSD_Filter.c ****                 {
 613              		.loc 1 377 0
ARM GAS  C:\Users\Greg\AppData\Local\Temp\cceDExAc.s 			page 38


 614 005e 002A     		cmp	r2, #0
 615 0060 10D1     		bne	.L42
 616              	.L43:
 383:Generated_Source\PSoC4/CSD_Filter.c ****                 {
 617              		.loc 1 383 0
 618 0062 6B46     		mov	r3, sp
 619              	.LVL88:
 620 0064 1B79     		ldrb	r3, [r3, #4]
 621 0066 062B     		cmp	r3, #6
 622 0068 0CD0     		beq	.L42
 387:Generated_Source\PSoC4/CSD_Filter.c ****                             history |= ptrSensor->bslnExt[channel];
 623              		.loc 1 387 0
 624 006a 0902     		lsl	r1, r1, #8
 625              	.LVL89:
 388:Generated_Source\PSoC4/CSD_Filter.c ****                         #else
 626              		.loc 1 388 0
 627 006c 3519     		add	r5, r6, r4
 628 006e 2B79     		ldrb	r3, [r5, #4]
 629 0070 1943     		orr	r1, r3
 630              	.LVL90:
 393:Generated_Source\PSoC4/CSD_Filter.c ****                                         (uint32)ptrSensor->raw[channel],
 631              		.loc 1 393 0
 632 0072 0122     		mov	r2, #1
 633              	.LVL91:
 634 0074 0823     		mov	r3, #8
 635 0076 FFF7FEFF 		bl	CSD_FtIIR1stOrder
 636              	.LVL92:
 400:Generated_Source\PSoC4/CSD_Filter.c ****                             ptrSensor->bslnExt[channel] = LO8(history);
 637              		.loc 1 400 0
 638 007a 020A     		lsr	r2, r0, #8
 639 007c 6300     		lsl	r3, r4, #1
 640 007e F318     		add	r3, r6, r3
 641 0080 5A80     		strh	r2, [r3, #2]
 401:Generated_Source\PSoC4/CSD_Filter.c ****                         #else
 642              		.loc 1 401 0
 643 0082 2871     		strb	r0, [r5, #4]
 644              	.LVL93:
 645              	.L42:
 646 0084 231C     		mov	r3, r4
 647              	.LVL94:
 648              	.L37:
 336:Generated_Source\PSoC4/CSD_Filter.c ****     {               
 649              		.loc 1 336 0 discriminator 1
 650 0086 5C1E     		sub	r4, r3, #1
 651              	.LVL95:
 652 0088 002B     		cmp	r3, #0
 653 008a C0D1     		bne	.L44
 449:Generated_Source\PSoC4/CSD_Filter.c **** 
 654              		.loc 1 449 0
 655 008c 0020     		mov	r0, #0
 656 008e 03B0     		add	sp, sp, #12
 657              		@ sp needed
 658              	.LVL96:
 659              	.LVL97:
 660              	.LVL98:
 661 0090 F0BD     		pop	{r4, r5, r6, r7, pc}
 662              		.cfi_endproc
ARM GAS  C:\Users\Greg\AppData\Local\Temp\cceDExAc.s 			page 39


 663              	.LFE5:
 664              		.size	CSD_FtUpdateBaseline, .-CSD_FtUpdateBaseline
 665 0092 C046     		.section	.text.CSD_UpdateSensorBaseline,"ax",%progbits
 666              		.align	2
 667              		.global	CSD_UpdateSensorBaseline
 668              		.code	16
 669              		.thumb_func
 670              		.type	CSD_UpdateSensorBaseline, %function
 671              	CSD_UpdateSensorBaseline:
 672              	.LFB4:
 267:Generated_Source\PSoC4/CSD_Filter.c ****     uint32 result = CYRET_SUCCESS;
 673              		.loc 1 267 0
 674              		.cfi_startproc
 675              	.LVL99:
 676 0000 70B5     		push	{r4, r5, r6, lr}
 677              		.cfi_def_cfa_offset 16
 678              		.cfi_offset 4, -16
 679              		.cfi_offset 5, -12
 680              		.cfi_offset 6, -8
 681              		.cfi_offset 14, -4
 682              	.LVL100:
 272:Generated_Source\PSoC4/CSD_Filter.c **** 
 683              		.loc 1 272 0
 684 0002 094D     		ldr	r5, .L46
 685 0004 C200     		lsl	r2, r0, #3
 686 0006 141A     		sub	r4, r2, r0
 687 0008 A400     		lsl	r4, r4, #2
 688 000a 2C19     		add	r4, r5, r4
 689 000c 6668     		ldr	r6, [r4, #4]
 690              	.LVL101:
 275:Generated_Source\PSoC4/CSD_Filter.c ****     ptrSensor = &ptrSensor[sensorId];
 691              		.loc 1 275 0
 692 000e A368     		ldr	r3, [r4, #8]
 693              	.LVL102:
 276:Generated_Source\PSoC4/CSD_Filter.c ****     result = CSD_FtUpdateBaseline(ptrWidgetRam, ptrSensor, (uint32)ptrWidget->wdgtType);
 694              		.loc 1 276 0
 695 0010 8C00     		lsl	r4, r1, #2
 696 0012 6118     		add	r1, r4, r1
 697              	.LVL103:
 698 0014 4900     		lsl	r1, r1, #1
 699 0016 5918     		add	r1, r3, r1
 700              	.LVL104:
 277:Generated_Source\PSoC4/CSD_Filter.c ****     
 701              		.loc 1 277 0
 702 0018 131A     		sub	r3, r2, r0
 703 001a 9B00     		lsl	r3, r3, #2
 704 001c EB18     		add	r3, r5, r3
 705 001e 1A7E     		ldrb	r2, [r3, #24]
 706 0020 301C     		mov	r0, r6
 707              	.LVL105:
 708 0022 FFF7FEFF 		bl	CSD_FtUpdateBaseline
 709              	.LVL106:
 288:Generated_Source\PSoC4/CSD_Filter.c **** 
 710              		.loc 1 288 0
 711              		@ sp needed
 712              	.LVL107:
 713              	.LVL108:
ARM GAS  C:\Users\Greg\AppData\Local\Temp\cceDExAc.s 			page 40


 714              	.LVL109:
 715 0026 70BD     		pop	{r4, r5, r6, pc}
 716              	.L47:
 717              		.align	2
 718              	.L46:
 719 0028 00000000 		.word	CSD_dsFlash
 720              		.cfi_endproc
 721              	.LFE4:
 722              		.size	CSD_UpdateSensorBaseline, .-CSD_UpdateSensorBaseline
 723              		.section	.text.CSD_UpdateWidgetBaseline,"ax",%progbits
 724              		.align	2
 725              		.global	CSD_UpdateWidgetBaseline
 726              		.code	16
 727              		.thumb_func
 728              		.type	CSD_UpdateWidgetBaseline, %function
 729              	CSD_UpdateWidgetBaseline:
 730              	.LFB3:
 210:Generated_Source\PSoC4/CSD_Filter.c ****     uint32 sensorId;       
 731              		.loc 1 210 0
 732              		.cfi_startproc
 733              	.LVL110:
 734 0000 70B5     		push	{r4, r5, r6, lr}
 735              		.cfi_def_cfa_offset 16
 736              		.cfi_offset 4, -16
 737              		.cfi_offset 5, -12
 738              		.cfi_offset 6, -8
 739              		.cfi_offset 14, -4
 740 0002 061C     		mov	r6, r0
 741              	.LVL111:
 218:Generated_Source\PSoC4/CSD_Filter.c ****     
 742              		.loc 1 218 0
 743 0004 C300     		lsl	r3, r0, #3
 744 0006 1B1A     		sub	r3, r3, r0
 745 0008 9B00     		lsl	r3, r3, #2
 746 000a 084A     		ldr	r2, .L51
 747 000c D318     		add	r3, r2, r3
 748 000e DB8A     		ldrh	r3, [r3, #22]
 749              	.LVL112:
 215:Generated_Source\PSoC4/CSD_Filter.c ****     
 750              		.loc 1 215 0
 751 0010 0025     		mov	r5, #0
 220:Generated_Source\PSoC4/CSD_Filter.c ****     {
 752              		.loc 1 220 0
 753 0012 05E0     		b	.L49
 754              	.LVL113:
 755              	.L50:
 222:Generated_Source\PSoC4/CSD_Filter.c ****     }
 756              		.loc 1 222 0
 757 0014 301C     		mov	r0, r6
 758 0016 211C     		mov	r1, r4
 759 0018 FFF7FEFF 		bl	CSD_UpdateSensorBaseline
 760              	.LVL114:
 761 001c 0543     		orr	r5, r0
 762              	.LVL115:
 220:Generated_Source\PSoC4/CSD_Filter.c ****     {
 763              		.loc 1 220 0
 764 001e 231C     		mov	r3, r4
ARM GAS  C:\Users\Greg\AppData\Local\Temp\cceDExAc.s 			page 41


 765              	.LVL116:
 766              	.L49:
 220:Generated_Source\PSoC4/CSD_Filter.c ****     {
 767              		.loc 1 220 0 is_stmt 0 discriminator 1
 768 0020 5C1E     		sub	r4, r3, #1
 769              	.LVL117:
 770 0022 002B     		cmp	r3, #0
 771 0024 F6D1     		bne	.L50
 226:Generated_Source\PSoC4/CSD_Filter.c **** 
 772              		.loc 1 226 0 is_stmt 1
 773 0026 281C     		mov	r0, r5
 774              		@ sp needed
 775              	.LVL118:
 776              	.LVL119:
 777              	.LVL120:
 778 0028 70BD     		pop	{r4, r5, r6, pc}
 779              	.L52:
 780 002a C046     		.align	2
 781              	.L51:
 782 002c 00000000 		.word	CSD_dsFlash
 783              		.cfi_endproc
 784              	.LFE3:
 785              		.size	CSD_UpdateWidgetBaseline, .-CSD_UpdateWidgetBaseline
 786              		.section	.text.CSD_UpdateAllBaselines,"ax",%progbits
 787              		.align	2
 788              		.global	CSD_UpdateAllBaselines
 789              		.code	16
 790              		.thumb_func
 791              		.type	CSD_UpdateAllBaselines, %function
 792              	CSD_UpdateAllBaselines:
 793              	.LFB2:
 165:Generated_Source\PSoC4/CSD_Filter.c ****     uint32 widgetId; 
 794              		.loc 1 165 0
 795              		.cfi_startproc
 796 0000 38B5     		push	{r3, r4, r5, lr}
 797              		.cfi_def_cfa_offset 16
 798              		.cfi_offset 3, -16
 799              		.cfi_offset 4, -12
 800              		.cfi_offset 5, -8
 801              		.cfi_offset 14, -4
 802              	.LVL121:
 167:Generated_Source\PSoC4/CSD_Filter.c ****     
 803              		.loc 1 167 0
 804 0002 0024     		mov	r4, #0
 169:Generated_Source\PSoC4/CSD_Filter.c ****     {            
 805              		.loc 1 169 0
 806 0004 0123     		mov	r3, #1
 807 0006 04E0     		b	.L54
 808              	.LVL122:
 809              	.L55:
 171:Generated_Source\PSoC4/CSD_Filter.c ****     }      
 810              		.loc 1 171 0
 811 0008 281C     		mov	r0, r5
 812 000a FFF7FEFF 		bl	CSD_UpdateWidgetBaseline
 813              	.LVL123:
 814 000e 0443     		orr	r4, r0
 815              	.LVL124:
ARM GAS  C:\Users\Greg\AppData\Local\Temp\cceDExAc.s 			page 42


 169:Generated_Source\PSoC4/CSD_Filter.c ****     {            
 816              		.loc 1 169 0
 817 0010 2B1C     		mov	r3, r5
 818              	.LVL125:
 819              	.L54:
 169:Generated_Source\PSoC4/CSD_Filter.c ****     {            
 820              		.loc 1 169 0 is_stmt 0 discriminator 1
 821 0012 5D1E     		sub	r5, r3, #1
 822              	.LVL126:
 823 0014 002B     		cmp	r3, #0
 824 0016 F7D1     		bne	.L55
 175:Generated_Source\PSoC4/CSD_Filter.c ****   
 825              		.loc 1 175 0 is_stmt 1
 826 0018 201C     		mov	r0, r4
 827              		@ sp needed
 828              	.LVL127:
 829              	.LVL128:
 830 001a 38BD     		pop	{r3, r4, r5, pc}
 831              		.cfi_endproc
 832              	.LFE2:
 833              		.size	CSD_UpdateAllBaselines, .-CSD_UpdateAllBaselines
 834              		.section	.text.CSD_RunIIRInternal,"ax",%progbits
 835              		.align	2
 836              		.global	CSD_RunIIRInternal
 837              		.code	16
 838              		.thumb_func
 839              		.type	CSD_RunIIRInternal, %function
 840              	CSD_RunIIRInternal:
 841              	.LFB14:
 778:Generated_Source\PSoC4/CSD_Filter.c ****     uint32 channel;
 842              		.loc 1 778 0
 843              		.cfi_startproc
 844              	.LVL129:
 845 0000 F0B5     		push	{r4, r5, r6, r7, lr}
 846              		.cfi_def_cfa_offset 20
 847              		.cfi_offset 4, -20
 848              		.cfi_offset 5, -16
 849              		.cfi_offset 6, -12
 850              		.cfi_offset 7, -8
 851              		.cfi_offset 14, -4
 852 0002 83B0     		sub	sp, sp, #12
 853              		.cfi_def_cfa_offset 32
 854 0004 061C     		mov	r6, r0
 855 0006 0F1C     		mov	r7, r1
 856 0008 0192     		str	r2, [sp, #4]
 857              	.LVL130:
 782:Generated_Source\PSoC4/CSD_Filter.c ****     {
 858              		.loc 1 782 0
 859 000a 0123     		mov	r3, #1
 860 000c 0EE0     		b	.L57
 861              	.LVL131:
 862              	.L59:
 784:Generated_Source\PSoC4/CSD_Filter.c ****         {
 863              		.loc 1 784 0
 864 000e 6B46     		mov	r3, sp
 865 0010 1B79     		ldrb	r3, [r3, #4]
 866 0012 062B     		cmp	r3, #6
ARM GAS  C:\Users\Greg\AppData\Local\Temp\cceDExAc.s 			page 43


 867 0014 09D0     		beq	.L58
 798:Generated_Source\PSoC4/CSD_Filter.c ****                                                         (uint32)ptrFilterHistObj.ptrRegular->regula
 868              		.loc 1 798 0
 869 0016 6500     		lsl	r5, r4, #1
 870 0018 E85B     		ldrh	r0, [r5, r7]
 871              	.LVL132:
 799:Generated_Source\PSoC4/CSD_Filter.c ****                                                         CSD_REGULAR_IIR_RC_N,
 872              		.loc 1 799 0
 873 001a A95B     		ldrh	r1, [r5, r6]
 798:Generated_Source\PSoC4/CSD_Filter.c ****                                                         (uint32)ptrFilterHistObj.ptrRegular->regula
 874              		.loc 1 798 0
 875 001c 8022     		mov	r2, #128
 876 001e 0023     		mov	r3, #0
 877 0020 FFF7FEFF 		bl	CSD_FtIIR1stOrder
 878              	.LVL133:
 802:Generated_Source\PSoC4/CSD_Filter.c ****                     ptrSensorObj->raw[channel] = LO16(temp >>CSD_REGULAR_IIR_RC_SHIFT);
 879              		.loc 1 802 0
 880 0024 80B2     		uxth	r0, r0
 881              	.LVL134:
 882 0026 A853     		strh	r0, [r5, r6]
 803:Generated_Source\PSoC4/CSD_Filter.c ****                 #endif /* (CSD_REGULAR_IIR_RC_TYPE == CSD_IIR_FILTER_PERFORMANCE) */
 883              		.loc 1 803 0
 884 0028 E853     		strh	r0, [r5, r7]
 885              	.L58:
 778:Generated_Source\PSoC4/CSD_Filter.c ****     uint32 channel;
 886              		.loc 1 778 0 discriminator 1
 887 002a 231C     		mov	r3, r4
 888              	.LVL135:
 889              	.L57:
 782:Generated_Source\PSoC4/CSD_Filter.c ****     {
 890              		.loc 1 782 0 discriminator 1
 891 002c 5C1E     		sub	r4, r3, #1
 892              	.LVL136:
 893 002e 002B     		cmp	r3, #0
 894 0030 EDD1     		bne	.L59
 831:Generated_Source\PSoC4/CSD_Filter.c **** #endif /* #if (CSD_REGULAR_RC_IIR_FILTER_EN || CSD_PROX_RC_IIR_FILTER_EN) */
 895              		.loc 1 831 0
 896 0032 03B0     		add	sp, sp, #12
 897              		@ sp needed
 898              	.LVL137:
 899              	.LVL138:
 900 0034 F0BD     		pop	{r4, r5, r6, r7, pc}
 901              		.cfi_endproc
 902              	.LFE14:
 903              		.size	CSD_RunIIRInternal, .-CSD_RunIIRInternal
 904 0036 C046     		.section	.text.CSD_RunIIR,"ax",%progbits
 905              		.align	2
 906              		.global	CSD_RunIIR
 907              		.code	16
 908              		.thumb_func
 909              		.type	CSD_RunIIR, %function
 910              	CSD_RunIIR:
 911              	.LFB12:
 689:Generated_Source\PSoC4/CSD_Filter.c ****     CSD_FLASH_WD_STRUCT const *ptrWidget = &CSD_dsFlash.wdgtArray[widgetId];      
 912              		.loc 1 689 0
 913              		.cfi_startproc
 914              	.LVL139:
ARM GAS  C:\Users\Greg\AppData\Local\Temp\cceDExAc.s 			page 44


 915 0000 F8B5     		push	{r3, r4, r5, r6, r7, lr}
 916              		.cfi_def_cfa_offset 24
 917              		.cfi_offset 3, -24
 918              		.cfi_offset 4, -20
 919              		.cfi_offset 5, -16
 920              		.cfi_offset 6, -12
 921              		.cfi_offset 7, -8
 922              		.cfi_offset 14, -4
 923              	.LVL140:
 695:Generated_Source\PSoC4/CSD_Filter.c ****     ptrSensor = &ptrSensor[sensorId];
 924              		.loc 1 695 0
 925 0002 0D4E     		ldr	r6, .L62
 926 0004 C200     		lsl	r2, r0, #3
 927 0006 141A     		sub	r4, r2, r0
 928 0008 A400     		lsl	r4, r4, #2
 929 000a 3519     		add	r5, r6, r4
 930              	.LVL141:
 696:Generated_Source\PSoC4/CSD_Filter.c ****         
 931              		.loc 1 696 0
 932 000c 8C00     		lsl	r4, r1, #2
 933 000e 6418     		add	r4, r4, r1
 934 0010 6400     		lsl	r4, r4, #1
 935 0012 AB68     		ldr	r3, [r5, #8]
 936 0014 9C46     		mov	ip, r3
 937 0016 6444     		add	r4, r4, ip
 938              	.LVL142:
 699:Generated_Source\PSoC4/CSD_Filter.c ****     
 939              		.loc 1 699 0
 940 0018 EF68     		ldr	r7, [r5, #12]
 941 001a 3D1C     		mov	r5, r7
 942              	.LVL143:
 701:Generated_Source\PSoC4/CSD_Filter.c ****     {
 943              		.loc 1 701 0
 944 001c 131A     		sub	r3, r2, r0
 945 001e 9B00     		lsl	r3, r3, #2
 946 0020 F318     		add	r3, r6, r3
 947 0022 1A7E     		ldrb	r2, [r3, #24]
 948 0024 062A     		cmp	r2, #6
 949 0026 01D0     		beq	.L61
 704:Generated_Source\PSoC4/CSD_Filter.c ****         #endif /* (CSD_REGULAR_SENSOR_EN) */
 950              		.loc 1 704 0
 951 0028 4900     		lsl	r1, r1, #1
 952              	.LVL144:
 953 002a 7D18     		add	r5, r7, r1
 954              	.L61:
 955              	.LVL145:
 714:Generated_Source\PSoC4/CSD_Filter.c **** }
 956              		.loc 1 714 0
 957 002c 281C     		mov	r0, r5
 958              	.LVL146:
 959 002e 211C     		mov	r1, r4
 960 0030 FFF7FEFF 		bl	CSD_RunIIRInternal
 961              	.LVL147:
 715:Generated_Source\PSoC4/CSD_Filter.c ****     
 962              		.loc 1 715 0
 963              		@ sp needed
 964              	.LVL148:
ARM GAS  C:\Users\Greg\AppData\Local\Temp\cceDExAc.s 			page 45


 965              	.LVL149:
 966              	.LVL150:
 967 0034 F8BD     		pop	{r3, r4, r5, r6, r7, pc}
 968              	.L63:
 969 0036 C046     		.align	2
 970              	.L62:
 971 0038 00000000 		.word	CSD_dsFlash
 972              		.cfi_endproc
 973              	.LFE12:
 974              		.size	CSD_RunIIR, .-CSD_RunIIR
 975              		.section	.text.CSD_FtRunEnabledFiltersInternal,"ax",%progbits
 976              		.align	2
 977              		.global	CSD_FtRunEnabledFiltersInternal
 978              		.code	16
 979              		.thumb_func
 980              		.type	CSD_FtRunEnabledFiltersInternal, %function
 981              	CSD_FtRunEnabledFiltersInternal:
 982              	.LFB16:
1278:Generated_Source\PSoC4/CSD_Filter.c ****     #if (CSD_REGULAR_RC_MEDIAN_FILTER_EN || CSD_PROX_RC_MEDIAN_FILTER_EN)
 983              		.loc 1 1278 0
 984              		.cfi_startproc
 985              	.LVL151:
 986 0000 08B5     		push	{r3, lr}
 987              		.cfi_def_cfa_offset 8
 988              		.cfi_offset 3, -8
 989              		.cfi_offset 14, -4
1284:Generated_Source\PSoC4/CSD_Filter.c ****     #endif /* (CSD_REGULAR_RC_IIR_FILTER_EN || CSD_PROX_RC_IIR_FILTER_EN) */ 
 990              		.loc 1 1284 0
 991 0002 FFF7FEFF 		bl	CSD_RunIIRInternal
 992              	.LVL152:
1290:Generated_Source\PSoC4/CSD_Filter.c **** #endif /* (CSD_REGULAR_RC_FILTER_EN || CSD_PROX_RC_FILTER_EN) */
 993              		.loc 1 1290 0
 994              		@ sp needed
 995 0006 08BD     		pop	{r3, pc}
 996              		.cfi_endproc
 997              	.LFE16:
 998              		.size	CSD_FtRunEnabledFiltersInternal, .-CSD_FtRunEnabledFiltersInternal
 999              		.section	.text.CSD_FtRunEnabledFilters,"ax",%progbits
 1000              		.align	2
 1001              		.global	CSD_FtRunEnabledFilters
 1002              		.code	16
 1003              		.thumb_func
 1004              		.type	CSD_FtRunEnabledFilters, %function
 1005              	CSD_FtRunEnabledFilters:
 1006              	.LFB15:
1234:Generated_Source\PSoC4/CSD_Filter.c ****     CSD_FLASH_WD_STRUCT const *ptrWidget = &CSD_dsFlash.wdgtArray[widgetId];      
 1007              		.loc 1 1234 0
 1008              		.cfi_startproc
 1009              	.LVL153:
 1010 0000 F8B5     		push	{r3, r4, r5, r6, r7, lr}
 1011              		.cfi_def_cfa_offset 24
 1012              		.cfi_offset 3, -24
 1013              		.cfi_offset 4, -20
 1014              		.cfi_offset 5, -16
 1015              		.cfi_offset 6, -12
 1016              		.cfi_offset 7, -8
 1017              		.cfi_offset 14, -4
ARM GAS  C:\Users\Greg\AppData\Local\Temp\cceDExAc.s 			page 46


 1018              	.LVL154:
1240:Generated_Source\PSoC4/CSD_Filter.c ****     ptrSensor = &ptrSensor[sensorId];
 1019              		.loc 1 1240 0
 1020 0002 0D4E     		ldr	r6, .L67
 1021 0004 C200     		lsl	r2, r0, #3
 1022 0006 141A     		sub	r4, r2, r0
 1023 0008 A400     		lsl	r4, r4, #2
 1024 000a 3519     		add	r5, r6, r4
 1025              	.LVL155:
1241:Generated_Source\PSoC4/CSD_Filter.c ****     
 1026              		.loc 1 1241 0
 1027 000c 8C00     		lsl	r4, r1, #2
 1028 000e 6418     		add	r4, r4, r1
 1029 0010 6400     		lsl	r4, r4, #1
 1030 0012 AB68     		ldr	r3, [r5, #8]
 1031 0014 9C46     		mov	ip, r3
 1032 0016 6444     		add	r4, r4, ip
 1033              	.LVL156:
1244:Generated_Source\PSoC4/CSD_Filter.c ****     
 1034              		.loc 1 1244 0
 1035 0018 EF68     		ldr	r7, [r5, #12]
 1036 001a 3D1C     		mov	r5, r7
 1037              	.LVL157:
1246:Generated_Source\PSoC4/CSD_Filter.c ****     {
 1038              		.loc 1 1246 0
 1039 001c 131A     		sub	r3, r2, r0
 1040 001e 9B00     		lsl	r3, r3, #2
 1041 0020 F318     		add	r3, r6, r3
 1042 0022 1A7E     		ldrb	r2, [r3, #24]
 1043 0024 062A     		cmp	r2, #6
 1044 0026 01D0     		beq	.L66
1249:Generated_Source\PSoC4/CSD_Filter.c ****         #endif /* (CSD_REGULAR_SENSOR_EN) */
 1045              		.loc 1 1249 0
 1046 0028 4900     		lsl	r1, r1, #1
 1047              	.LVL158:
 1048 002a 7D18     		add	r5, r7, r1
 1049              	.L66:
 1050              	.LVL159:
1259:Generated_Source\PSoC4/CSD_Filter.c **** }
 1051              		.loc 1 1259 0
 1052 002c 281C     		mov	r0, r5
 1053              	.LVL160:
 1054 002e 211C     		mov	r1, r4
 1055 0030 FFF7FEFF 		bl	CSD_FtRunEnabledFiltersInternal
 1056              	.LVL161:
1260:Generated_Source\PSoC4/CSD_Filter.c **** 
 1057              		.loc 1 1260 0
 1058              		@ sp needed
 1059              	.LVL162:
 1060              	.LVL163:
 1061              	.LVL164:
 1062 0034 F8BD     		pop	{r3, r4, r5, r6, r7, pc}
 1063              	.L68:
 1064 0036 C046     		.align	2
 1065              	.L67:
 1066 0038 00000000 		.word	CSD_dsFlash
 1067              		.cfi_endproc
ARM GAS  C:\Users\Greg\AppData\Local\Temp\cceDExAc.s 			page 47


 1068              	.LFE15:
 1069              		.size	CSD_FtRunEnabledFilters, .-CSD_FtRunEnabledFilters
 1070              		.text
 1071              	.Letext0:
 1072              		.file 2 "Generated_Source\\PSoC4\\cytypes.h"
 1073              		.file 3 "Generated_Source\\PSoC4\\CSD_Configuration.h"
 1074              		.file 4 "Generated_Source\\PSoC4\\CSD_Structure.h"
 1075              		.section	.debug_info,"",%progbits
 1076              	.Ldebug_info0:
 1077 0000 6B0B0000 		.4byte	0xb6b
 1078 0004 0400     		.2byte	0x4
 1079 0006 00000000 		.4byte	.Ldebug_abbrev0
 1080 000a 04       		.byte	0x4
 1081 000b 01       		.uleb128 0x1
 1082 000c EA050000 		.4byte	.LASF98
 1083 0010 01       		.byte	0x1
 1084 0011 00000000 		.4byte	.LASF99
 1085 0015 09010000 		.4byte	.LASF100
 1086 0019 00000000 		.4byte	.Ldebug_ranges0+0
 1087 001d 00000000 		.4byte	0
 1088 0021 00000000 		.4byte	.Ldebug_line0
 1089 0025 02       		.uleb128 0x2
 1090 0026 01       		.byte	0x1
 1091 0027 06       		.byte	0x6
 1092 0028 E2000000 		.4byte	.LASF0
 1093 002c 02       		.uleb128 0x2
 1094 002d 01       		.byte	0x1
 1095 002e 08       		.byte	0x8
 1096 002f 41040000 		.4byte	.LASF1
 1097 0033 02       		.uleb128 0x2
 1098 0034 02       		.byte	0x2
 1099 0035 05       		.byte	0x5
 1100 0036 4F040000 		.4byte	.LASF2
 1101 003a 02       		.uleb128 0x2
 1102 003b 02       		.byte	0x2
 1103 003c 07       		.byte	0x7
 1104 003d 79020000 		.4byte	.LASF3
 1105 0041 02       		.uleb128 0x2
 1106 0042 04       		.byte	0x4
 1107 0043 05       		.byte	0x5
 1108 0044 00010000 		.4byte	.LASF4
 1109 0048 02       		.uleb128 0x2
 1110 0049 04       		.byte	0x4
 1111 004a 07       		.byte	0x7
 1112 004b 14020000 		.4byte	.LASF5
 1113 004f 02       		.uleb128 0x2
 1114 0050 08       		.byte	0x8
 1115 0051 05       		.byte	0x5
 1116 0052 D4000000 		.4byte	.LASF6
 1117 0056 02       		.uleb128 0x2
 1118 0057 08       		.byte	0x8
 1119 0058 07       		.byte	0x7
 1120 0059 6C000000 		.4byte	.LASF7
 1121 005d 03       		.uleb128 0x3
 1122 005e 04       		.byte	0x4
 1123 005f 05       		.byte	0x5
 1124 0060 696E7400 		.ascii	"int\000"
ARM GAS  C:\Users\Greg\AppData\Local\Temp\cceDExAc.s 			page 48


 1125 0064 02       		.uleb128 0x2
 1126 0065 04       		.byte	0x4
 1127 0066 07       		.byte	0x7
 1128 0067 07020000 		.4byte	.LASF8
 1129 006b 04       		.uleb128 0x4
 1130 006c 6B010000 		.4byte	.LASF9
 1131 0070 02       		.byte	0x2
 1132 0071 B901     		.2byte	0x1b9
 1133 0073 2C000000 		.4byte	0x2c
 1134 0077 04       		.uleb128 0x4
 1135 0078 24000000 		.4byte	.LASF10
 1136 007c 02       		.byte	0x2
 1137 007d BA01     		.2byte	0x1ba
 1138 007f 3A000000 		.4byte	0x3a
 1139 0083 04       		.uleb128 0x4
 1140 0084 AA010000 		.4byte	.LASF11
 1141 0088 02       		.byte	0x2
 1142 0089 BB01     		.2byte	0x1bb
 1143 008b 48000000 		.4byte	0x48
 1144 008f 02       		.uleb128 0x2
 1145 0090 04       		.byte	0x4
 1146 0091 04       		.byte	0x4
 1147 0092 F1030000 		.4byte	.LASF12
 1148 0096 02       		.uleb128 0x2
 1149 0097 08       		.byte	0x8
 1150 0098 04       		.byte	0x4
 1151 0099 84010000 		.4byte	.LASF13
 1152 009d 02       		.uleb128 0x2
 1153 009e 01       		.byte	0x1
 1154 009f 08       		.byte	0x8
 1155 00a0 BE040000 		.4byte	.LASF14
 1156 00a4 04       		.uleb128 0x4
 1157 00a5 6C050000 		.4byte	.LASF15
 1158 00a9 02       		.byte	0x2
 1159 00aa 5B02     		.2byte	0x25b
 1160 00ac 48000000 		.4byte	0x48
 1161 00b0 02       		.uleb128 0x2
 1162 00b1 04       		.byte	0x4
 1163 00b2 07       		.byte	0x7
 1164 00b3 3F030000 		.4byte	.LASF16
 1165 00b7 05       		.uleb128 0x5
 1166 00b8 04       		.byte	0x4
 1167 00b9 06       		.uleb128 0x6
 1168 00ba B1010000 		.4byte	.LASF17
 1169 00be 03       		.byte	0x3
 1170 00bf D8       		.byte	0xd8
 1171 00c0 77000000 		.4byte	0x77
 1172 00c4 06       		.uleb128 0x6
 1173 00c5 26020000 		.4byte	.LASF18
 1174 00c9 03       		.byte	0x3
 1175 00ca DC       		.byte	0xdc
 1176 00cb 6B000000 		.4byte	0x6b
 1177 00cf 07       		.uleb128 0x7
 1178 00d0 01       		.byte	0x1
 1179 00d1 04       		.byte	0x4
 1180 00d2 4F       		.byte	0x4f
 1181 00d3 FC000000 		.4byte	0xfc
ARM GAS  C:\Users\Greg\AppData\Local\Temp\cceDExAc.s 			page 49


 1182 00d7 08       		.uleb128 0x8
 1183 00d8 8B010000 		.4byte	.LASF19
 1184 00dc 01       		.sleb128 1
 1185 00dd 08       		.uleb128 0x8
 1186 00de D5040000 		.4byte	.LASF20
 1187 00e2 02       		.sleb128 2
 1188 00e3 08       		.uleb128 0x8
 1189 00e4 C1050000 		.4byte	.LASF21
 1190 00e8 03       		.sleb128 3
 1191 00e9 08       		.uleb128 0x8
 1192 00ea 75040000 		.4byte	.LASF22
 1193 00ee 04       		.sleb128 4
 1194 00ef 08       		.uleb128 0x8
 1195 00f0 EE000000 		.4byte	.LASF23
 1196 00f4 05       		.sleb128 5
 1197 00f5 08       		.uleb128 0x8
 1198 00f6 AE000000 		.4byte	.LASF24
 1199 00fa 06       		.sleb128 6
 1200 00fb 00       		.byte	0
 1201 00fc 06       		.uleb128 0x6
 1202 00fd 89030000 		.4byte	.LASF25
 1203 0101 04       		.byte	0x4
 1204 0102 56       		.byte	0x56
 1205 0103 CF000000 		.4byte	0xcf
 1206 0107 09       		.uleb128 0x9
 1207 0108 0E       		.byte	0xe
 1208 0109 04       		.byte	0x4
 1209 010a 7C       		.byte	0x7c
 1210 010b 94010000 		.4byte	0x194
 1211 010f 0A       		.uleb128 0xa
 1212 0110 A8040000 		.4byte	.LASF26
 1213 0114 04       		.byte	0x4
 1214 0115 82       		.byte	0x82
 1215 0116 77000000 		.4byte	0x77
 1216 011a 00       		.byte	0
 1217 011b 0A       		.uleb128 0xa
 1218 011c 9B050000 		.4byte	.LASF27
 1219 0120 04       		.byte	0x4
 1220 0121 87       		.byte	0x87
 1221 0122 B9000000 		.4byte	0xb9
 1222 0126 02       		.byte	0x2
 1223 0127 0A       		.uleb128 0xa
 1224 0128 7C060000 		.4byte	.LASF28
 1225 012c 04       		.byte	0x4
 1226 012d 8C       		.byte	0x8c
 1227 012e 6B000000 		.4byte	0x6b
 1228 0132 04       		.byte	0x4
 1229 0133 0A       		.uleb128 0xa
 1230 0134 77030000 		.4byte	.LASF29
 1231 0138 04       		.byte	0x4
 1232 0139 91       		.byte	0x91
 1233 013a 6B000000 		.4byte	0x6b
 1234 013e 05       		.byte	0x5
 1235 013f 0A       		.uleb128 0xa
 1236 0140 36040000 		.4byte	.LASF30
 1237 0144 04       		.byte	0x4
 1238 0145 96       		.byte	0x96
ARM GAS  C:\Users\Greg\AppData\Local\Temp\cceDExAc.s 			page 50


 1239 0146 6B000000 		.4byte	0x6b
 1240 014a 06       		.byte	0x6
 1241 014b 0A       		.uleb128 0xa
 1242 014c CA040000 		.4byte	.LASF31
 1243 0150 04       		.byte	0x4
 1244 0151 9B       		.byte	0x9b
 1245 0152 6B000000 		.4byte	0x6b
 1246 0156 07       		.byte	0x7
 1247 0157 0A       		.uleb128 0xa
 1248 0158 4E020000 		.4byte	.LASF32
 1249 015c 04       		.byte	0x4
 1250 015d A1       		.byte	0xa1
 1251 015e C4000000 		.4byte	0xc4
 1252 0162 08       		.byte	0x8
 1253 0163 0A       		.uleb128 0xa
 1254 0164 08040000 		.4byte	.LASF33
 1255 0168 04       		.byte	0x4
 1256 0169 A6       		.byte	0xa6
 1257 016a 6B000000 		.4byte	0x6b
 1258 016e 09       		.byte	0x9
 1259 016f 0A       		.uleb128 0xa
 1260 0170 2F030000 		.4byte	.LASF34
 1261 0174 04       		.byte	0x4
 1262 0175 AD       		.byte	0xad
 1263 0176 94010000 		.4byte	0x194
 1264 017a 0A       		.byte	0xa
 1265 017b 0A       		.uleb128 0xa
 1266 017c C3040000 		.4byte	.LASF35
 1267 0180 04       		.byte	0x4
 1268 0181 B4       		.byte	0xb4
 1269 0182 6B000000 		.4byte	0x6b
 1270 0186 0B       		.byte	0xb
 1271 0187 0A       		.uleb128 0xa
 1272 0188 5F050000 		.4byte	.LASF36
 1273 018c 04       		.byte	0x4
 1274 018d B9       		.byte	0xb9
 1275 018e 6B000000 		.4byte	0x6b
 1276 0192 0C       		.byte	0xc
 1277 0193 00       		.byte	0
 1278 0194 0B       		.uleb128 0xb
 1279 0195 6B000000 		.4byte	0x6b
 1280 0199 A4010000 		.4byte	0x1a4
 1281 019d 0C       		.uleb128 0xc
 1282 019e B0000000 		.4byte	0xb0
 1283 01a2 00       		.byte	0
 1284 01a3 00       		.byte	0
 1285 01a4 06       		.uleb128 0x6
 1286 01a5 08030000 		.4byte	.LASF37
 1287 01a9 04       		.byte	0x4
 1288 01aa BA       		.byte	0xba
 1289 01ab 07010000 		.4byte	0x107
 1290 01af 0D       		.uleb128 0xd
 1291 01b0 0A       		.byte	0xa
 1292 01b1 04       		.byte	0x4
 1293 01b2 0F01     		.2byte	0x10f
 1294 01b4 07020000 		.4byte	0x207
 1295 01b8 0E       		.uleb128 0xe
ARM GAS  C:\Users\Greg\AppData\Local\Temp\cceDExAc.s 			page 51


 1296 01b9 72617700 		.ascii	"raw\000"
 1297 01bd 04       		.byte	0x4
 1298 01be 1401     		.2byte	0x114
 1299 01c0 07020000 		.4byte	0x207
 1300 01c4 00       		.byte	0
 1301 01c5 0F       		.uleb128 0xf
 1302 01c6 02020000 		.4byte	.LASF38
 1303 01ca 04       		.byte	0x4
 1304 01cb 1901     		.2byte	0x119
 1305 01cd 07020000 		.4byte	0x207
 1306 01d1 02       		.byte	0x2
 1307 01d2 0F       		.uleb128 0xf
 1308 01d3 DC010000 		.4byte	.LASF39
 1309 01d7 04       		.byte	0x4
 1310 01d8 1F01     		.2byte	0x11f
 1311 01da 94010000 		.4byte	0x194
 1312 01de 04       		.byte	0x4
 1313 01df 0F       		.uleb128 0xf
 1314 01e0 A9000000 		.4byte	.LASF40
 1315 01e4 04       		.byte	0x4
 1316 01e5 2401     		.2byte	0x124
 1317 01e7 B9000000 		.4byte	0xb9
 1318 01eb 06       		.byte	0x6
 1319 01ec 0F       		.uleb128 0xf
 1320 01ed F5040000 		.4byte	.LASF41
 1321 01f1 04       		.byte	0x4
 1322 01f2 2901     		.2byte	0x129
 1323 01f4 17020000 		.4byte	0x217
 1324 01f8 08       		.byte	0x8
 1325 01f9 0F       		.uleb128 0xf
 1326 01fa EC040000 		.4byte	.LASF42
 1327 01fe 04       		.byte	0x4
 1328 01ff 2F01     		.2byte	0x12f
 1329 0201 94010000 		.4byte	0x194
 1330 0205 09       		.byte	0x9
 1331 0206 00       		.byte	0
 1332 0207 0B       		.uleb128 0xb
 1333 0208 77000000 		.4byte	0x77
 1334 020c 17020000 		.4byte	0x217
 1335 0210 0C       		.uleb128 0xc
 1336 0211 B0000000 		.4byte	0xb0
 1337 0215 00       		.byte	0
 1338 0216 00       		.byte	0
 1339 0217 0B       		.uleb128 0xb
 1340 0218 C4000000 		.4byte	0xc4
 1341 021c 27020000 		.4byte	0x227
 1342 0220 0C       		.uleb128 0xc
 1343 0221 B0000000 		.4byte	0xb0
 1344 0225 00       		.byte	0
 1345 0226 00       		.byte	0
 1346 0227 04       		.uleb128 0x4
 1347 0228 71010000 		.4byte	.LASF43
 1348 022c 04       		.byte	0x4
 1349 022d 3001     		.2byte	0x130
 1350 022f AF010000 		.4byte	0x1af
 1351 0233 0D       		.uleb128 0xd
 1352 0234 1C       		.byte	0x1c
ARM GAS  C:\Users\Greg\AppData\Local\Temp\cceDExAc.s 			page 52


 1353 0235 04       		.byte	0x4
 1354 0236 FE01     		.2byte	0x1fe
 1355 0238 B2020000 		.4byte	0x2b2
 1356 023c 0F       		.uleb128 0xf
 1357 023d 9C000000 		.4byte	.LASF44
 1358 0241 04       		.byte	0x4
 1359 0242 0702     		.2byte	0x207
 1360 0244 B2020000 		.4byte	0x2b2
 1361 0248 00       		.byte	0
 1362 0249 0F       		.uleb128 0xf
 1363 024a EA020000 		.4byte	.LASF45
 1364 024e 04       		.byte	0x4
 1365 024f 0D02     		.2byte	0x20d
 1366 0251 B7000000 		.4byte	0xb7
 1367 0255 04       		.byte	0x4
 1368 0256 0F       		.uleb128 0xf
 1369 0257 5A010000 		.4byte	.LASF46
 1370 025b 04       		.byte	0x4
 1371 025c 1302     		.2byte	0x213
 1372 025e B9020000 		.4byte	0x2b9
 1373 0262 08       		.byte	0x8
 1374 0263 0F       		.uleb128 0xf
 1375 0264 65040000 		.4byte	.LASF47
 1376 0268 04       		.byte	0x4
 1377 0269 1802     		.2byte	0x218
 1378 026b B7000000 		.4byte	0xb7
 1379 026f 0C       		.byte	0xc
 1380 0270 0F       		.uleb128 0xf
 1381 0271 0F050000 		.4byte	.LASF48
 1382 0275 04       		.byte	0x4
 1383 0276 1F02     		.2byte	0x21f
 1384 0278 BF020000 		.4byte	0x2bf
 1385 027c 10       		.byte	0x10
 1386 027d 0F       		.uleb128 0xf
 1387 027e 6A030000 		.4byte	.LASF49
 1388 0282 04       		.byte	0x4
 1389 0283 2402     		.2byte	0x224
 1390 0285 77000000 		.4byte	0x77
 1391 0289 14       		.byte	0x14
 1392 028a 0F       		.uleb128 0xf
 1393 028b 03050000 		.4byte	.LASF50
 1394 028f 04       		.byte	0x4
 1395 0290 2B02     		.2byte	0x22b
 1396 0292 77000000 		.4byte	0x77
 1397 0296 16       		.byte	0x16
 1398 0297 0F       		.uleb128 0xf
 1399 0298 80030000 		.4byte	.LASF51
 1400 029c 04       		.byte	0x4
 1401 029d 3602     		.2byte	0x236
 1402 029f 6B000000 		.4byte	0x6b
 1403 02a3 18       		.byte	0x18
 1404 02a4 0F       		.uleb128 0xf
 1405 02a5 37030000 		.4byte	.LASF52
 1406 02a9 04       		.byte	0x4
 1407 02aa 3E02     		.2byte	0x23e
 1408 02ac 6B000000 		.4byte	0x6b
 1409 02b0 19       		.byte	0x19
ARM GAS  C:\Users\Greg\AppData\Local\Temp\cceDExAc.s 			page 53


 1410 02b1 00       		.byte	0
 1411 02b2 10       		.uleb128 0x10
 1412 02b3 04       		.byte	0x4
 1413 02b4 B8020000 		.4byte	0x2b8
 1414 02b8 11       		.uleb128 0x11
 1415 02b9 10       		.uleb128 0x10
 1416 02ba 04       		.byte	0x4
 1417 02bb 27020000 		.4byte	0x227
 1418 02bf 10       		.uleb128 0x10
 1419 02c0 04       		.byte	0x4
 1420 02c1 6B000000 		.4byte	0x6b
 1421 02c5 04       		.uleb128 0x4
 1422 02c6 94040000 		.4byte	.LASF53
 1423 02ca 04       		.byte	0x4
 1424 02cb 3F02     		.2byte	0x23f
 1425 02cd 33020000 		.4byte	0x233
 1426 02d1 0D       		.uleb128 0xd
 1427 02d2 1C       		.byte	0x1c
 1428 02d3 04       		.byte	0x4
 1429 02d4 4502     		.2byte	0x245
 1430 02d6 E8020000 		.4byte	0x2e8
 1431 02da 0F       		.uleb128 0xf
 1432 02db 50050000 		.4byte	.LASF54
 1433 02df 04       		.byte	0x4
 1434 02e0 4A02     		.2byte	0x24a
 1435 02e2 E8020000 		.4byte	0x2e8
 1436 02e6 00       		.byte	0
 1437 02e7 00       		.byte	0
 1438 02e8 0B       		.uleb128 0xb
 1439 02e9 C5020000 		.4byte	0x2c5
 1440 02ed F8020000 		.4byte	0x2f8
 1441 02f1 0C       		.uleb128 0xc
 1442 02f2 B0000000 		.4byte	0xb0
 1443 02f6 00       		.byte	0
 1444 02f7 00       		.byte	0
 1445 02f8 04       		.uleb128 0x4
 1446 02f9 3F050000 		.4byte	.LASF55
 1447 02fd 04       		.byte	0x4
 1448 02fe 4B02     		.2byte	0x24b
 1449 0300 D1020000 		.4byte	0x2d1
 1450 0304 0D       		.uleb128 0xd
 1451 0305 02       		.byte	0x2
 1452 0306 04       		.byte	0x4
 1453 0307 8002     		.2byte	0x280
 1454 0309 1B030000 		.4byte	0x31b
 1455 030d 0F       		.uleb128 0xf
 1456 030e F7010000 		.4byte	.LASF56
 1457 0312 04       		.byte	0x4
 1458 0313 8502     		.2byte	0x285
 1459 0315 77000000 		.4byte	0x77
 1460 0319 00       		.byte	0
 1461 031a 00       		.byte	0
 1462 031b 04       		.uleb128 0x4
 1463 031c 59020000 		.4byte	.LASF57
 1464 0320 04       		.byte	0x4
 1465 0321 8602     		.2byte	0x286
 1466 0323 04030000 		.4byte	0x304
ARM GAS  C:\Users\Greg\AppData\Local\Temp\cceDExAc.s 			page 54


 1467 0327 0D       		.uleb128 0xd
 1468 0328 02       		.byte	0x2
 1469 0329 04       		.byte	0x4
 1470 032a 8B02     		.2byte	0x28b
 1471 032c 3E030000 		.4byte	0x33e
 1472 0330 0F       		.uleb128 0xf
 1473 0331 27040000 		.4byte	.LASF58
 1474 0335 04       		.byte	0x4
 1475 0336 9002     		.2byte	0x290
 1476 0338 3E030000 		.4byte	0x33e
 1477 033c 00       		.byte	0
 1478 033d 00       		.byte	0
 1479 033e 0B       		.uleb128 0xb
 1480 033f 1B030000 		.4byte	0x31b
 1481 0343 4E030000 		.4byte	0x34e
 1482 0347 0C       		.uleb128 0xc
 1483 0348 B0000000 		.4byte	0xb0
 1484 034c 00       		.byte	0
 1485 034d 00       		.byte	0
 1486 034e 04       		.uleb128 0x4
 1487 034f C4010000 		.4byte	.LASF59
 1488 0353 04       		.byte	0x4
 1489 0354 9102     		.2byte	0x291
 1490 0356 27030000 		.4byte	0x327
 1491 035a 12       		.uleb128 0x12
 1492 035b 04       		.byte	0x4
 1493 035c 04       		.byte	0x4
 1494 035d 9602     		.2byte	0x296
 1495 035f 7C030000 		.4byte	0x37c
 1496 0363 13       		.uleb128 0x13
 1497 0364 70747200 		.ascii	"ptr\000"
 1498 0368 04       		.byte	0x4
 1499 0369 9B02     		.2byte	0x29b
 1500 036b B7000000 		.4byte	0xb7
 1501 036f 14       		.uleb128 0x14
 1502 0370 D8050000 		.4byte	.LASF60
 1503 0374 04       		.byte	0x4
 1504 0375 A002     		.2byte	0x2a0
 1505 0377 7C030000 		.4byte	0x37c
 1506 037b 00       		.byte	0
 1507 037c 10       		.uleb128 0x10
 1508 037d 04       		.byte	0x4
 1509 037e 4E030000 		.4byte	0x34e
 1510 0382 04       		.uleb128 0x4
 1511 0383 8C020000 		.4byte	.LASF61
 1512 0387 04       		.byte	0x4
 1513 0388 A102     		.2byte	0x2a1
 1514 038a 5A030000 		.4byte	0x35a
 1515 038e 15       		.uleb128 0x15
 1516 038f D1020000 		.4byte	.LASF101
 1517 0393 01       		.byte	0x1
 1518 0394 3802     		.2byte	0x238
 1519 0396 03       		.byte	0x3
 1520 0397 C0030000 		.4byte	0x3c0
 1521 039b 16       		.uleb128 0x16
 1522 039c 86050000 		.4byte	.LASF62
 1523 03a0 01       		.byte	0x1
ARM GAS  C:\Users\Greg\AppData\Local\Temp\cceDExAc.s 			page 55


 1524 03a1 3802     		.2byte	0x238
 1525 03a3 B9020000 		.4byte	0x2b9
 1526 03a7 16       		.uleb128 0x16
 1527 03a8 F6020000 		.4byte	.LASF63
 1528 03ac 01       		.byte	0x1
 1529 03ad 3802     		.2byte	0x238
 1530 03af 83000000 		.4byte	0x83
 1531 03b3 17       		.uleb128 0x17
 1532 03b4 8C040000 		.4byte	.LASF64
 1533 03b8 01       		.byte	0x1
 1534 03b9 3A02     		.2byte	0x23a
 1535 03bb 83000000 		.4byte	0x83
 1536 03bf 00       		.byte	0
 1537 03c0 18       		.uleb128 0x18
 1538 03c1 1F050000 		.4byte	.LASF65
 1539 03c5 01       		.byte	0x1
 1540 03c6 5302     		.2byte	0x253
 1541 03c8 00000000 		.4byte	.LFB10
 1542 03cc 1C000000 		.4byte	.LFE10-.LFB10
 1543 03d0 01       		.uleb128 0x1
 1544 03d1 9C       		.byte	0x9c
 1545 03d2 05040000 		.4byte	0x405
 1546 03d6 19       		.uleb128 0x19
 1547 03d7 86050000 		.4byte	.LASF62
 1548 03db 01       		.byte	0x1
 1549 03dc 5302     		.2byte	0x253
 1550 03de B9020000 		.4byte	0x2b9
 1551 03e2 01       		.uleb128 0x1
 1552 03e3 50       		.byte	0x50
 1553 03e4 1A       		.uleb128 0x1a
 1554 03e5 F6020000 		.4byte	.LASF63
 1555 03e9 01       		.byte	0x1
 1556 03ea 5302     		.2byte	0x253
 1557 03ec 83000000 		.4byte	0x83
 1558 03f0 00000000 		.4byte	.LLST0
 1559 03f4 1A       		.uleb128 0x1a
 1560 03f5 8C040000 		.4byte	.LASF64
 1561 03f9 01       		.byte	0x1
 1562 03fa 5302     		.2byte	0x253
 1563 03fc 83000000 		.4byte	0x83
 1564 0400 21000000 		.4byte	.LLST1
 1565 0404 00       		.byte	0
 1566 0405 1B       		.uleb128 0x1b
 1567 0406 8E030000 		.4byte	0x38e
 1568 040a 00000000 		.4byte	.LFB9
 1569 040e 1E000000 		.4byte	.LFE9-.LFB9
 1570 0412 01       		.uleb128 0x1
 1571 0413 9C       		.byte	0x9c
 1572 0414 50040000 		.4byte	0x450
 1573 0418 1C       		.uleb128 0x1c
 1574 0419 9B030000 		.4byte	0x39b
 1575 041d 42000000 		.4byte	.LLST2
 1576 0421 1C       		.uleb128 0x1c
 1577 0422 A7030000 		.4byte	0x3a7
 1578 0426 6E000000 		.4byte	.LLST3
 1579 042a 1D       		.uleb128 0x1d
 1580 042b B3030000 		.4byte	0x3b3
ARM GAS  C:\Users\Greg\AppData\Local\Temp\cceDExAc.s 			page 56


 1581 042f 9A000000 		.4byte	.LLST4
 1582 0433 1E       		.uleb128 0x1e
 1583 0434 14000000 		.4byte	.LVL6
 1584 0438 C0030000 		.4byte	0x3c0
 1585 043c 1F       		.uleb128 0x1f
 1586 043d 01       		.uleb128 0x1
 1587 043e 52       		.byte	0x52
 1588 043f 02       		.uleb128 0x2
 1589 0440 74       		.byte	0x74
 1590 0441 00       		.sleb128 0
 1591 0442 1F       		.uleb128 0x1f
 1592 0443 01       		.uleb128 0x1
 1593 0444 51       		.byte	0x51
 1594 0445 02       		.uleb128 0x2
 1595 0446 75       		.byte	0x75
 1596 0447 00       		.sleb128 0
 1597 0448 1F       		.uleb128 0x1f
 1598 0449 01       		.uleb128 0x1
 1599 044a 50       		.byte	0x50
 1600 044b 02       		.uleb128 0x2
 1601 044c 76       		.byte	0x76
 1602 044d 00       		.sleb128 0
 1603 044e 00       		.byte	0
 1604 044f 00       		.byte	0
 1605 0450 18       		.uleb128 0x18
 1606 0451 A4050000 		.4byte	.LASF66
 1607 0455 01       		.byte	0x1
 1608 0456 1C02     		.2byte	0x21c
 1609 0458 00000000 		.4byte	.LFB8
 1610 045c 3C000000 		.4byte	.LFE8-.LFB8
 1611 0460 01       		.uleb128 0x1
 1612 0461 9C       		.byte	0x9c
 1613 0462 F5040000 		.4byte	0x4f5
 1614 0466 1A       		.uleb128 0x1a
 1615 0467 1F030000 		.4byte	.LASF67
 1616 046b 01       		.byte	0x1
 1617 046c 1C02     		.2byte	0x21c
 1618 046e 83000000 		.4byte	0x83
 1619 0472 DC000000 		.4byte	.LLST5
 1620 0476 1A       		.uleb128 0x1a
 1621 0477 A1010000 		.4byte	.LASF68
 1622 047b 01       		.byte	0x1
 1623 047c 1C02     		.2byte	0x21c
 1624 047e 83000000 		.4byte	0x83
 1625 0482 FD000000 		.4byte	.LLST6
 1626 0486 20       		.uleb128 0x20
 1627 0487 86050000 		.4byte	.LASF62
 1628 048b 01       		.byte	0x1
 1629 048c 1E02     		.2byte	0x21e
 1630 048e B9020000 		.4byte	0x2b9
 1631 0492 1E010000 		.4byte	.LLST7
 1632 0496 17       		.uleb128 0x17
 1633 0497 48030000 		.4byte	.LASF69
 1634 049b 01       		.byte	0x1
 1635 049c 1F02     		.2byte	0x21f
 1636 049e F5040000 		.4byte	0x4f5
 1637 04a2 21       		.uleb128 0x21
ARM GAS  C:\Users\Greg\AppData\Local\Temp\cceDExAc.s 			page 57


 1638 04a3 8E030000 		.4byte	0x38e
 1639 04a7 1E000000 		.4byte	.LBB4
 1640 04ab 16000000 		.4byte	.LBE4-.LBB4
 1641 04af 01       		.byte	0x1
 1642 04b0 2602     		.2byte	0x226
 1643 04b2 1C       		.uleb128 0x1c
 1644 04b3 A7030000 		.4byte	0x3a7
 1645 04b7 3D010000 		.4byte	.LLST8
 1646 04bb 1C       		.uleb128 0x1c
 1647 04bc 9B030000 		.4byte	0x39b
 1648 04c0 50010000 		.4byte	.LLST9
 1649 04c4 22       		.uleb128 0x22
 1650 04c5 1E000000 		.4byte	.LBB5
 1651 04c9 16000000 		.4byte	.LBE5-.LBB5
 1652 04cd 1D       		.uleb128 0x1d
 1653 04ce B3030000 		.4byte	0x3b3
 1654 04d2 63010000 		.4byte	.LLST10
 1655 04d6 1E       		.uleb128 0x1e
 1656 04d7 2C000000 		.4byte	.LVL20
 1657 04db C0030000 		.4byte	0x3c0
 1658 04df 1F       		.uleb128 0x1f
 1659 04e0 01       		.uleb128 0x1
 1660 04e1 52       		.byte	0x52
 1661 04e2 02       		.uleb128 0x2
 1662 04e3 75       		.byte	0x75
 1663 04e4 00       		.sleb128 0
 1664 04e5 1F       		.uleb128 0x1f
 1665 04e6 01       		.uleb128 0x1
 1666 04e7 51       		.byte	0x51
 1667 04e8 02       		.uleb128 0x2
 1668 04e9 76       		.byte	0x76
 1669 04ea 00       		.sleb128 0
 1670 04eb 1F       		.uleb128 0x1f
 1671 04ec 01       		.uleb128 0x1
 1672 04ed 50       		.byte	0x50
 1673 04ee 02       		.uleb128 0x2
 1674 04ef 74       		.byte	0x74
 1675 04f0 00       		.sleb128 0
 1676 04f1 00       		.byte	0
 1677 04f2 00       		.byte	0
 1678 04f3 00       		.byte	0
 1679 04f4 00       		.byte	0
 1680 04f5 10       		.uleb128 0x10
 1681 04f6 04       		.byte	0x4
 1682 04f7 FB040000 		.4byte	0x4fb
 1683 04fb 23       		.uleb128 0x23
 1684 04fc C5020000 		.4byte	0x2c5
 1685 0500 18       		.uleb128 0x18
 1686 0501 BA030000 		.4byte	.LASF70
 1687 0505 01       		.byte	0x1
 1688 0506 F001     		.2byte	0x1f0
 1689 0508 00000000 		.4byte	.LFB7
 1690 050c 28000000 		.4byte	.LFE7-.LFB7
 1691 0510 01       		.uleb128 0x1
 1692 0511 9C       		.byte	0x9c
 1693 0512 69050000 		.4byte	0x569
 1694 0516 1A       		.uleb128 0x1a
ARM GAS  C:\Users\Greg\AppData\Local\Temp\cceDExAc.s 			page 58


 1695 0517 1F030000 		.4byte	.LASF67
 1696 051b 01       		.byte	0x1
 1697 051c F001     		.2byte	0x1f0
 1698 051e 83000000 		.4byte	0x83
 1699 0522 A5010000 		.4byte	.LLST11
 1700 0526 20       		.uleb128 0x20
 1701 0527 A1010000 		.4byte	.LASF68
 1702 052b 01       		.byte	0x1
 1703 052c F201     		.2byte	0x1f2
 1704 052e 83000000 		.4byte	0x83
 1705 0532 D1010000 		.4byte	.LLST12
 1706 0536 20       		.uleb128 0x20
 1707 0537 E4010000 		.4byte	.LASF71
 1708 053b 01       		.byte	0x1
 1709 053c F301     		.2byte	0x1f3
 1710 053e 83000000 		.4byte	0x83
 1711 0542 12020000 		.4byte	.LLST13
 1712 0546 17       		.uleb128 0x17
 1713 0547 48030000 		.4byte	.LASF69
 1714 054b 01       		.byte	0x1
 1715 054c F501     		.2byte	0x1f5
 1716 054e F5040000 		.4byte	0x4f5
 1717 0552 1E       		.uleb128 0x1e
 1718 0553 1A000000 		.4byte	.LVL30
 1719 0557 50040000 		.4byte	0x450
 1720 055b 1F       		.uleb128 0x1f
 1721 055c 01       		.uleb128 0x1
 1722 055d 51       		.byte	0x51
 1723 055e 02       		.uleb128 0x2
 1724 055f 74       		.byte	0x74
 1725 0560 00       		.sleb128 0
 1726 0561 1F       		.uleb128 0x1f
 1727 0562 01       		.uleb128 0x1
 1728 0563 50       		.byte	0x50
 1729 0564 02       		.uleb128 0x2
 1730 0565 75       		.byte	0x75
 1731 0566 00       		.sleb128 0
 1732 0567 00       		.byte	0
 1733 0568 00       		.byte	0
 1734 0569 18       		.uleb128 0x18
 1735 056a 84060000 		.4byte	.LASF72
 1736 056e 01       		.byte	0x1
 1737 056f D101     		.2byte	0x1d1
 1738 0571 00000000 		.4byte	.LFB6
 1739 0575 16000000 		.4byte	.LFE6-.LFB6
 1740 0579 01       		.uleb128 0x1
 1741 057a 9C       		.byte	0x9c
 1742 057b A0050000 		.4byte	0x5a0
 1743 057f 20       		.uleb128 0x20
 1744 0580 1F030000 		.4byte	.LASF67
 1745 0584 01       		.byte	0x1
 1746 0585 D301     		.2byte	0x1d3
 1747 0587 83000000 		.4byte	0x83
 1748 058b 25020000 		.4byte	.LLST14
 1749 058f 1E       		.uleb128 0x1e
 1750 0590 0C000000 		.4byte	.LVL37
 1751 0594 00050000 		.4byte	0x500
ARM GAS  C:\Users\Greg\AppData\Local\Temp\cceDExAc.s 			page 59


 1752 0598 1F       		.uleb128 0x1f
 1753 0599 01       		.uleb128 0x1
 1754 059a 50       		.byte	0x50
 1755 059b 02       		.uleb128 0x2
 1756 059c 74       		.byte	0x74
 1757 059d 00       		.sleb128 0
 1758 059e 00       		.byte	0
 1759 059f 00       		.byte	0
 1760 05a0 18       		.uleb128 0x18
 1761 05a1 D7030000 		.4byte	.LASF73
 1762 05a5 01       		.byte	0x1
 1763 05a6 DA02     		.2byte	0x2da
 1764 05a8 00000000 		.4byte	.LFB13
 1765 05ac 1C000000 		.4byte	.LFE13-.LFB13
 1766 05b0 01       		.uleb128 0x1
 1767 05b1 9C       		.byte	0x9c
 1768 05b2 F1050000 		.4byte	0x5f1
 1769 05b6 19       		.uleb128 0x19
 1770 05b7 75050000 		.4byte	.LASF74
 1771 05bb 01       		.byte	0x1
 1772 05bc DA02     		.2byte	0x2da
 1773 05be 82030000 		.4byte	0x382
 1774 05c2 01       		.uleb128 0x1
 1775 05c3 50       		.byte	0x50
 1776 05c4 19       		.uleb128 0x19
 1777 05c5 1A040000 		.4byte	.LASF75
 1778 05c9 01       		.byte	0x1
 1779 05ca DB02     		.2byte	0x2db
 1780 05cc B9020000 		.4byte	0x2b9
 1781 05d0 01       		.uleb128 0x1
 1782 05d1 51       		.byte	0x51
 1783 05d2 19       		.uleb128 0x19
 1784 05d3 F6020000 		.4byte	.LASF63
 1785 05d7 01       		.byte	0x1
 1786 05d8 DB02     		.2byte	0x2db
 1787 05da 83000000 		.4byte	0x83
 1788 05de 01       		.uleb128 0x1
 1789 05df 52       		.byte	0x52
 1790 05e0 20       		.uleb128 0x20
 1791 05e1 8C040000 		.4byte	.LASF64
 1792 05e5 01       		.byte	0x1
 1793 05e6 DD02     		.2byte	0x2dd
 1794 05e8 83000000 		.4byte	0x83
 1795 05ec 67020000 		.4byte	.LLST15
 1796 05f0 00       		.byte	0
 1797 05f1 24       		.uleb128 0x24
 1798 05f2 F7030000 		.4byte	.LASF76
 1799 05f6 01       		.byte	0x1
 1800 05f7 3D       		.byte	0x3d
 1801 05f8 00000000 		.4byte	.LFB1
 1802 05fc 54000000 		.4byte	.LFE1-.LFB1
 1803 0600 01       		.uleb128 0x1
 1804 0601 9C       		.byte	0x9c
 1805 0602 62060000 		.4byte	0x662
 1806 0606 25       		.uleb128 0x25
 1807 0607 1F030000 		.4byte	.LASF67
 1808 060b 01       		.byte	0x1
ARM GAS  C:\Users\Greg\AppData\Local\Temp\cceDExAc.s 			page 60


 1809 060c 3F       		.byte	0x3f
 1810 060d 83000000 		.4byte	0x83
 1811 0611 A9020000 		.4byte	.LLST16
 1812 0615 25       		.uleb128 0x25
 1813 0616 A1010000 		.4byte	.LASF68
 1814 061a 01       		.byte	0x1
 1815 061b 40       		.byte	0x40
 1816 061c 83000000 		.4byte	0x83
 1817 0620 EB020000 		.4byte	.LLST17
 1818 0624 25       		.uleb128 0x25
 1819 0625 E4010000 		.4byte	.LASF71
 1820 0629 01       		.byte	0x1
 1821 062a 41       		.byte	0x41
 1822 062b 83000000 		.4byte	0x83
 1823 062f 1F030000 		.4byte	.LLST18
 1824 0633 26       		.uleb128 0x26
 1825 0634 48030000 		.4byte	.LASF69
 1826 0638 01       		.byte	0x1
 1827 0639 43       		.byte	0x43
 1828 063a F5040000 		.4byte	0x4f5
 1829 063e 25       		.uleb128 0x25
 1830 063f 86050000 		.4byte	.LASF62
 1831 0643 01       		.byte	0x1
 1832 0644 44       		.byte	0x44
 1833 0645 B9020000 		.4byte	0x2b9
 1834 0649 32030000 		.4byte	.LLST19
 1835 064d 26       		.uleb128 0x26
 1836 064e 75050000 		.4byte	.LASF74
 1837 0652 01       		.byte	0x1
 1838 0653 45       		.byte	0x45
 1839 0654 82030000 		.4byte	0x382
 1840 0658 27       		.uleb128 0x27
 1841 0659 3C000000 		.4byte	.LVL54
 1842 065d A0050000 		.4byte	0x5a0
 1843 0661 00       		.byte	0
 1844 0662 18       		.uleb128 0x18
 1845 0663 38000000 		.4byte	.LASF77
 1846 0667 01       		.byte	0x1
 1847 0668 8402     		.2byte	0x284
 1848 066a 00000000 		.4byte	.LFB11
 1849 066e 3C000000 		.4byte	.LFE11-.LFB11
 1850 0672 01       		.uleb128 0x1
 1851 0673 9C       		.byte	0x9c
 1852 0674 DB060000 		.4byte	0x6db
 1853 0678 1A       		.uleb128 0x1a
 1854 0679 1F030000 		.4byte	.LASF67
 1855 067d 01       		.byte	0x1
 1856 067e 8402     		.2byte	0x284
 1857 0680 83000000 		.4byte	0x83
 1858 0684 5D030000 		.4byte	.LLST20
 1859 0688 1A       		.uleb128 0x1a
 1860 0689 A1010000 		.4byte	.LASF68
 1861 068d 01       		.byte	0x1
 1862 068e 8402     		.2byte	0x284
 1863 0690 83000000 		.4byte	0x83
 1864 0694 7E030000 		.4byte	.LLST21
 1865 0698 17       		.uleb128 0x17
ARM GAS  C:\Users\Greg\AppData\Local\Temp\cceDExAc.s 			page 61


 1866 0699 48030000 		.4byte	.LASF69
 1867 069d 01       		.byte	0x1
 1868 069e 8602     		.2byte	0x286
 1869 06a0 F5040000 		.4byte	0x4f5
 1870 06a4 20       		.uleb128 0x20
 1871 06a5 86050000 		.4byte	.LASF62
 1872 06a9 01       		.byte	0x1
 1873 06aa 8702     		.2byte	0x287
 1874 06ac B9020000 		.4byte	0x2b9
 1875 06b0 9F030000 		.4byte	.LLST22
 1876 06b4 20       		.uleb128 0x20
 1877 06b5 75050000 		.4byte	.LASF74
 1878 06b9 01       		.byte	0x1
 1879 06ba 8802     		.2byte	0x288
 1880 06bc 82030000 		.4byte	0x382
 1881 06c0 F2030000 		.4byte	.LLST23
 1882 06c4 1E       		.uleb128 0x1e
 1883 06c5 34000000 		.4byte	.LVL68
 1884 06c9 A0050000 		.4byte	0x5a0
 1885 06cd 1F       		.uleb128 0x1f
 1886 06ce 01       		.uleb128 0x1
 1887 06cf 51       		.byte	0x51
 1888 06d0 02       		.uleb128 0x2
 1889 06d1 74       		.byte	0x74
 1890 06d2 00       		.sleb128 0
 1891 06d3 1F       		.uleb128 0x1f
 1892 06d4 01       		.uleb128 0x1
 1893 06d5 50       		.byte	0x50
 1894 06d6 02       		.uleb128 0x2
 1895 06d7 75       		.byte	0x75
 1896 06d8 00       		.sleb128 0
 1897 06d9 00       		.byte	0
 1898 06da 00       		.byte	0
 1899 06db 28       		.uleb128 0x28
 1900 06dc 3C020000 		.4byte	.LASF82
 1901 06e0 01       		.byte	0x1
 1902 06e1 8605     		.2byte	0x586
 1903 06e3 83000000 		.4byte	0x83
 1904 06e7 00000000 		.4byte	.LFB17
 1905 06eb 14000000 		.4byte	.LFE17-.LFB17
 1906 06ef 01       		.uleb128 0x1
 1907 06f0 9C       		.byte	0x9c
 1908 06f1 40070000 		.4byte	0x740
 1909 06f5 1A       		.uleb128 0x1a
 1910 06f6 65010000 		.4byte	.LASF78
 1911 06fa 01       		.byte	0x1
 1912 06fb 8605     		.2byte	0x586
 1913 06fd 83000000 		.4byte	0x83
 1914 0701 05040000 		.4byte	.LLST24
 1915 0705 1A       		.uleb128 0x1a
 1916 0706 90050000 		.4byte	.LASF79
 1917 070a 01       		.byte	0x1
 1918 070b 8605     		.2byte	0x586
 1919 070d 83000000 		.4byte	0x83
 1920 0711 26040000 		.4byte	.LLST25
 1921 0715 29       		.uleb128 0x29
 1922 0716 6E00     		.ascii	"n\000"
ARM GAS  C:\Users\Greg\AppData\Local\Temp\cceDExAc.s 			page 62


 1923 0718 01       		.byte	0x1
 1924 0719 8605     		.2byte	0x586
 1925 071b 83000000 		.4byte	0x83
 1926 071f 01       		.uleb128 0x1
 1927 0720 52       		.byte	0x52
 1928 0721 1A       		.uleb128 0x1a
 1929 0722 9B010000 		.4byte	.LASF80
 1930 0726 01       		.byte	0x1
 1931 0727 8605     		.2byte	0x586
 1932 0729 83000000 		.4byte	0x83
 1933 072d 47040000 		.4byte	.LLST26
 1934 0731 2A       		.uleb128 0x2a
 1935 0732 28030000 		.4byte	.LASF81
 1936 0736 01       		.byte	0x1
 1937 0737 8805     		.2byte	0x588
 1938 0739 83000000 		.4byte	0x83
 1939 073d 01       		.uleb128 0x1
 1940 073e 50       		.byte	0x50
 1941 073f 00       		.byte	0
 1942 0740 28       		.uleb128 0x28
 1943 0741 A3020000 		.4byte	.LASF83
 1944 0745 01       		.byte	0x1
 1945 0746 4101     		.2byte	0x141
 1946 0748 83000000 		.4byte	0x83
 1947 074c 00000000 		.4byte	.LFB5
 1948 0750 92000000 		.4byte	.LFE5-.LFB5
 1949 0754 01       		.uleb128 0x1
 1950 0755 9C       		.byte	0x9c
 1951 0756 0D080000 		.4byte	0x80d
 1952 075a 1A       		.uleb128 0x1a
 1953 075b 2B000000 		.4byte	.LASF84
 1954 075f 01       		.byte	0x1
 1955 0760 4201     		.2byte	0x142
 1956 0762 0D080000 		.4byte	0x80d
 1957 0766 68040000 		.4byte	.LLST27
 1958 076a 1A       		.uleb128 0x1a
 1959 076b 86050000 		.4byte	.LASF62
 1960 076f 01       		.byte	0x1
 1961 0770 4301     		.2byte	0x143
 1962 0772 B9020000 		.4byte	0x2b9
 1963 0776 94040000 		.4byte	.LLST28
 1964 077a 1A       		.uleb128 0x1a
 1965 077b F6020000 		.4byte	.LASF63
 1966 077f 01       		.byte	0x1
 1967 0780 4401     		.2byte	0x144
 1968 0782 83000000 		.4byte	0x83
 1969 0786 C0040000 		.4byte	.LLST29
 1970 078a 20       		.uleb128 0x20
 1971 078b 5A050000 		.4byte	.LASF85
 1972 078f 01       		.byte	0x1
 1973 0790 4601     		.2byte	0x146
 1974 0792 83000000 		.4byte	0x83
 1975 0796 E1040000 		.4byte	.LLST30
 1976 079a 20       		.uleb128 0x20
 1977 079b 61000000 		.4byte	.LASF86
 1978 079f 01       		.byte	0x1
 1979 07a0 4701     		.2byte	0x147
ARM GAS  C:\Users\Greg\AppData\Local\Temp\cceDExAc.s 			page 63


 1980 07a2 83000000 		.4byte	0x83
 1981 07a6 17050000 		.4byte	.LLST31
 1982 07aa 20       		.uleb128 0x20
 1983 07ab 8C040000 		.4byte	.LASF64
 1984 07af 01       		.byte	0x1
 1985 07b0 4801     		.2byte	0x148
 1986 07b2 83000000 		.4byte	0x83
 1987 07b6 40050000 		.4byte	.LLST32
 1988 07ba 2B       		.uleb128 0x2b
 1989 07bb E3050000 		.4byte	.LASF87
 1990 07bf 01       		.byte	0x1
 1991 07c0 4901     		.2byte	0x149
 1992 07c2 83000000 		.4byte	0x83
 1993 07c6 00       		.byte	0
 1994 07c7 20       		.uleb128 0x20
 1995 07c8 12040000 		.4byte	.LASF88
 1996 07cc 01       		.byte	0x1
 1997 07cd 4C01     		.2byte	0x14c
 1998 07cf 83000000 		.4byte	0x83
 1999 07d3 82050000 		.4byte	.LLST33
 2000 07d7 2C       		.uleb128 0x2c
 2001 07d8 48000000 		.4byte	.LVL86
 2002 07dc C0030000 		.4byte	0x3c0
 2003 07e0 F8070000 		.4byte	0x7f8
 2004 07e4 1F       		.uleb128 0x1f
 2005 07e5 01       		.uleb128 0x1
 2006 07e6 52       		.byte	0x52
 2007 07e7 02       		.uleb128 0x2
 2008 07e8 74       		.byte	0x74
 2009 07e9 00       		.sleb128 0
 2010 07ea 1F       		.uleb128 0x1f
 2011 07eb 01       		.uleb128 0x1
 2012 07ec 51       		.byte	0x51
 2013 07ed 03       		.uleb128 0x3
 2014 07ee 91       		.byte	0x91
 2015 07ef 64       		.sleb128 -28
 2016 07f0 06       		.byte	0x6
 2017 07f1 1F       		.uleb128 0x1f
 2018 07f2 01       		.uleb128 0x1
 2019 07f3 50       		.byte	0x50
 2020 07f4 02       		.uleb128 0x2
 2021 07f5 76       		.byte	0x76
 2022 07f6 00       		.sleb128 0
 2023 07f7 00       		.byte	0
 2024 07f8 1E       		.uleb128 0x1e
 2025 07f9 7A000000 		.4byte	.LVL92
 2026 07fd DB060000 		.4byte	0x6db
 2027 0801 1F       		.uleb128 0x1f
 2028 0802 01       		.uleb128 0x1
 2029 0803 53       		.byte	0x53
 2030 0804 01       		.uleb128 0x1
 2031 0805 38       		.byte	0x38
 2032 0806 1F       		.uleb128 0x1f
 2033 0807 01       		.uleb128 0x1
 2034 0808 52       		.byte	0x52
 2035 0809 01       		.uleb128 0x1
 2036 080a 31       		.byte	0x31
ARM GAS  C:\Users\Greg\AppData\Local\Temp\cceDExAc.s 			page 64


 2037 080b 00       		.byte	0
 2038 080c 00       		.byte	0
 2039 080d 10       		.uleb128 0x10
 2040 080e 04       		.byte	0x4
 2041 080f A4010000 		.4byte	0x1a4
 2042 0813 28       		.uleb128 0x28
 2043 0814 83000000 		.4byte	.LASF89
 2044 0818 01       		.byte	0x1
 2045 0819 0A01     		.2byte	0x10a
 2046 081b A4000000 		.4byte	0xa4
 2047 081f 00000000 		.4byte	.LFB4
 2048 0823 2C000000 		.4byte	.LFE4-.LFB4
 2049 0827 01       		.uleb128 0x1
 2050 0828 9C       		.byte	0x9c
 2051 0829 D1080000 		.4byte	0x8d1
 2052 082d 1A       		.uleb128 0x1a
 2053 082e 1F030000 		.4byte	.LASF67
 2054 0832 01       		.byte	0x1
 2055 0833 0A01     		.2byte	0x10a
 2056 0835 83000000 		.4byte	0x83
 2057 0839 A0050000 		.4byte	.LLST34
 2058 083d 1A       		.uleb128 0x1a
 2059 083e A1010000 		.4byte	.LASF68
 2060 0842 01       		.byte	0x1
 2061 0843 0A01     		.2byte	0x10a
 2062 0845 83000000 		.4byte	0x83
 2063 0849 C1050000 		.4byte	.LLST35
 2064 084d 20       		.uleb128 0x20
 2065 084e E3050000 		.4byte	.LASF87
 2066 0852 01       		.byte	0x1
 2067 0853 0C01     		.2byte	0x10c
 2068 0855 83000000 		.4byte	0x83
 2069 0859 E2050000 		.4byte	.LLST36
 2070 085d 20       		.uleb128 0x20
 2071 085e 86050000 		.4byte	.LASF62
 2072 0862 01       		.byte	0x1
 2073 0863 0E01     		.2byte	0x10e
 2074 0865 B9020000 		.4byte	0x2b9
 2075 0869 01060000 		.4byte	.LLST37
 2076 086d 17       		.uleb128 0x17
 2077 086e 48030000 		.4byte	.LASF69
 2078 0872 01       		.byte	0x1
 2079 0873 0F01     		.2byte	0x10f
 2080 0875 F5040000 		.4byte	0x4f5
 2081 0879 20       		.uleb128 0x20
 2082 087a 2B000000 		.4byte	.LASF84
 2083 087e 01       		.byte	0x1
 2084 087f 1001     		.2byte	0x110
 2085 0881 0D080000 		.4byte	0x80d
 2086 0885 78060000 		.4byte	.LLST38
 2087 0889 1E       		.uleb128 0x1e
 2088 088a 26000000 		.4byte	.LVL106
 2089 088e 40070000 		.4byte	0x740
 2090 0892 1F       		.uleb128 0x1f
 2091 0893 01       		.uleb128 0x1
 2092 0894 52       		.byte	0x52
 2093 0895 15       		.uleb128 0x15
ARM GAS  C:\Users\Greg\AppData\Local\Temp\cceDExAc.s 			page 65


 2094 0896 F3       		.byte	0xf3
 2095 0897 01       		.uleb128 0x1
 2096 0898 50       		.byte	0x50
 2097 0899 33       		.byte	0x33
 2098 089a 24       		.byte	0x24
 2099 089b F3       		.byte	0xf3
 2100 089c 01       		.uleb128 0x1
 2101 089d 50       		.byte	0x50
 2102 089e 1C       		.byte	0x1c
 2103 089f 32       		.byte	0x32
 2104 08a0 24       		.byte	0x24
 2105 08a1 75       		.byte	0x75
 2106 08a2 00       		.sleb128 0
 2107 08a3 22       		.byte	0x22
 2108 08a4 23       		.byte	0x23
 2109 08a5 18       		.uleb128 0x18
 2110 08a6 94       		.byte	0x94
 2111 08a7 01       		.byte	0x1
 2112 08a8 08       		.byte	0x8
 2113 08a9 FF       		.byte	0xff
 2114 08aa 1A       		.byte	0x1a
 2115 08ab 1F       		.uleb128 0x1f
 2116 08ac 01       		.uleb128 0x1
 2117 08ad 51       		.byte	0x51
 2118 08ae 1A       		.uleb128 0x1a
 2119 08af 74       		.byte	0x74
 2120 08b0 00       		.sleb128 0
 2121 08b1 F3       		.byte	0xf3
 2122 08b2 01       		.uleb128 0x1
 2123 08b3 51       		.byte	0x51
 2124 08b4 22       		.byte	0x22
 2125 08b5 31       		.byte	0x31
 2126 08b6 24       		.byte	0x24
 2127 08b7 F3       		.byte	0xf3
 2128 08b8 01       		.uleb128 0x1
 2129 08b9 50       		.byte	0x50
 2130 08ba 33       		.byte	0x33
 2131 08bb 24       		.byte	0x24
 2132 08bc F3       		.byte	0xf3
 2133 08bd 01       		.uleb128 0x1
 2134 08be 50       		.byte	0x50
 2135 08bf 1C       		.byte	0x1c
 2136 08c0 32       		.byte	0x32
 2137 08c1 24       		.byte	0x24
 2138 08c2 75       		.byte	0x75
 2139 08c3 00       		.sleb128 0
 2140 08c4 22       		.byte	0x22
 2141 08c5 23       		.byte	0x23
 2142 08c6 08       		.uleb128 0x8
 2143 08c7 06       		.byte	0x6
 2144 08c8 22       		.byte	0x22
 2145 08c9 1F       		.uleb128 0x1f
 2146 08ca 01       		.uleb128 0x1
 2147 08cb 50       		.byte	0x50
 2148 08cc 02       		.uleb128 0x2
 2149 08cd 76       		.byte	0x76
 2150 08ce 00       		.sleb128 0
ARM GAS  C:\Users\Greg\AppData\Local\Temp\cceDExAc.s 			page 66


 2151 08cf 00       		.byte	0
 2152 08d0 00       		.byte	0
 2153 08d1 2D       		.uleb128 0x2d
 2154 08d2 B8020000 		.4byte	.LASF90
 2155 08d6 01       		.byte	0x1
 2156 08d7 D1       		.byte	0xd1
 2157 08d8 A4000000 		.4byte	0xa4
 2158 08dc 00000000 		.4byte	.LFB3
 2159 08e0 30000000 		.4byte	.LFE3-.LFB3
 2160 08e4 01       		.uleb128 0x1
 2161 08e5 9C       		.byte	0x9c
 2162 08e6 48090000 		.4byte	0x948
 2163 08ea 2E       		.uleb128 0x2e
 2164 08eb 1F030000 		.4byte	.LASF67
 2165 08ef 01       		.byte	0x1
 2166 08f0 D1       		.byte	0xd1
 2167 08f1 83000000 		.4byte	0x83
 2168 08f5 8B060000 		.4byte	.LLST39
 2169 08f9 25       		.uleb128 0x25
 2170 08fa A1010000 		.4byte	.LASF68
 2171 08fe 01       		.byte	0x1
 2172 08ff D3       		.byte	0xd3
 2173 0900 83000000 		.4byte	0x83
 2174 0904 B7060000 		.4byte	.LLST40
 2175 0908 25       		.uleb128 0x25
 2176 0909 E4010000 		.4byte	.LASF71
 2177 090d 01       		.byte	0x1
 2178 090e D4       		.byte	0xd4
 2179 090f 83000000 		.4byte	0x83
 2180 0913 F8060000 		.4byte	.LLST41
 2181 0917 26       		.uleb128 0x26
 2182 0918 48030000 		.4byte	.LASF69
 2183 091c 01       		.byte	0x1
 2184 091d D6       		.byte	0xd6
 2185 091e F5040000 		.4byte	0x4f5
 2186 0922 25       		.uleb128 0x25
 2187 0923 FD020000 		.4byte	.LASF91
 2188 0927 01       		.byte	0x1
 2189 0928 D7       		.byte	0xd7
 2190 0929 A4000000 		.4byte	0xa4
 2191 092d 0B070000 		.4byte	.LLST42
 2192 0931 1E       		.uleb128 0x1e
 2193 0932 1C000000 		.4byte	.LVL114
 2194 0936 13080000 		.4byte	0x813
 2195 093a 1F       		.uleb128 0x1f
 2196 093b 01       		.uleb128 0x1
 2197 093c 51       		.byte	0x51
 2198 093d 02       		.uleb128 0x2
 2199 093e 74       		.byte	0x74
 2200 093f 00       		.sleb128 0
 2201 0940 1F       		.uleb128 0x1f
 2202 0941 01       		.uleb128 0x1
 2203 0942 50       		.byte	0x50
 2204 0943 02       		.uleb128 0x2
 2205 0944 76       		.byte	0x76
 2206 0945 00       		.sleb128 0
 2207 0946 00       		.byte	0
ARM GAS  C:\Users\Greg\AppData\Local\Temp\cceDExAc.s 			page 67


 2208 0947 00       		.byte	0
 2209 0948 2D       		.uleb128 0x2d
 2210 0949 4A000000 		.4byte	.LASF92
 2211 094d 01       		.byte	0x1
 2212 094e A4       		.byte	0xa4
 2213 094f A4000000 		.4byte	0xa4
 2214 0953 00000000 		.4byte	.LFB2
 2215 0957 1C000000 		.4byte	.LFE2-.LFB2
 2216 095b 01       		.uleb128 0x1
 2217 095c 9C       		.byte	0x9c
 2218 095d 90090000 		.4byte	0x990
 2219 0961 25       		.uleb128 0x25
 2220 0962 1F030000 		.4byte	.LASF67
 2221 0966 01       		.byte	0x1
 2222 0967 A6       		.byte	0xa6
 2223 0968 83000000 		.4byte	0x83
 2224 096c 35070000 		.4byte	.LLST43
 2225 0970 25       		.uleb128 0x25
 2226 0971 FD020000 		.4byte	.LASF91
 2227 0975 01       		.byte	0x1
 2228 0976 A7       		.byte	0xa7
 2229 0977 A4000000 		.4byte	0xa4
 2230 097b 77070000 		.4byte	.LLST44
 2231 097f 1E       		.uleb128 0x1e
 2232 0980 0E000000 		.4byte	.LVL123
 2233 0984 D1080000 		.4byte	0x8d1
 2234 0988 1F       		.uleb128 0x1f
 2235 0989 01       		.uleb128 0x1
 2236 098a 50       		.byte	0x50
 2237 098b 02       		.uleb128 0x2
 2238 098c 75       		.byte	0x75
 2239 098d 00       		.sleb128 0
 2240 098e 00       		.byte	0
 2241 098f 00       		.byte	0
 2242 0990 18       		.uleb128 0x18
 2243 0991 C1000000 		.4byte	.LASF93
 2244 0995 01       		.byte	0x1
 2245 0996 0803     		.2byte	0x308
 2246 0998 00000000 		.4byte	.LFB14
 2247 099c 36000000 		.4byte	.LFE14-.LFB14
 2248 09a0 01       		.uleb128 0x1
 2249 09a1 9C       		.byte	0x9c
 2250 09a2 0C0A0000 		.4byte	0xa0c
 2251 09a6 1A       		.uleb128 0x1a
 2252 09a7 75050000 		.4byte	.LASF74
 2253 09ab 01       		.byte	0x1
 2254 09ac 0803     		.2byte	0x308
 2255 09ae 82030000 		.4byte	0x382
 2256 09b2 A1070000 		.4byte	.LLST45
 2257 09b6 1A       		.uleb128 0x1a
 2258 09b7 1A040000 		.4byte	.LASF75
 2259 09bb 01       		.byte	0x1
 2260 09bc 0903     		.2byte	0x309
 2261 09be B9020000 		.4byte	0x2b9
 2262 09c2 BF070000 		.4byte	.LLST46
 2263 09c6 1A       		.uleb128 0x1a
 2264 09c7 F6020000 		.4byte	.LASF63
ARM GAS  C:\Users\Greg\AppData\Local\Temp\cceDExAc.s 			page 68


 2265 09cb 01       		.byte	0x1
 2266 09cc 0903     		.2byte	0x309
 2267 09ce 83000000 		.4byte	0x83
 2268 09d2 EB070000 		.4byte	.LLST47
 2269 09d6 20       		.uleb128 0x20
 2270 09d7 8C040000 		.4byte	.LASF64
 2271 09db 01       		.byte	0x1
 2272 09dc 0B03     		.2byte	0x30b
 2273 09de 83000000 		.4byte	0x83
 2274 09e2 0A080000 		.4byte	.LLST48
 2275 09e6 20       		.uleb128 0x20
 2276 09e7 F2010000 		.4byte	.LASF94
 2277 09eb 01       		.byte	0x1
 2278 09ec 0C03     		.2byte	0x30c
 2279 09ee 83000000 		.4byte	0x83
 2280 09f2 4C080000 		.4byte	.LLST49
 2281 09f6 1E       		.uleb128 0x1e
 2282 09f7 24000000 		.4byte	.LVL133
 2283 09fb DB060000 		.4byte	0x6db
 2284 09ff 1F       		.uleb128 0x1f
 2285 0a00 01       		.uleb128 0x1
 2286 0a01 53       		.byte	0x53
 2287 0a02 01       		.uleb128 0x1
 2288 0a03 30       		.byte	0x30
 2289 0a04 1F       		.uleb128 0x1f
 2290 0a05 01       		.uleb128 0x1
 2291 0a06 52       		.byte	0x52
 2292 0a07 02       		.uleb128 0x2
 2293 0a08 08       		.byte	0x8
 2294 0a09 80       		.byte	0x80
 2295 0a0a 00       		.byte	0
 2296 0a0b 00       		.byte	0
 2297 0a0c 18       		.uleb128 0x18
 2298 0a0d B3040000 		.4byte	.LASF95
 2299 0a11 01       		.byte	0x1
 2300 0a12 B002     		.2byte	0x2b0
 2301 0a14 00000000 		.4byte	.LFB12
 2302 0a18 3C000000 		.4byte	.LFE12-.LFB12
 2303 0a1c 01       		.uleb128 0x1
 2304 0a1d 9C       		.byte	0x9c
 2305 0a1e 850A0000 		.4byte	0xa85
 2306 0a22 1A       		.uleb128 0x1a
 2307 0a23 1F030000 		.4byte	.LASF67
 2308 0a27 01       		.byte	0x1
 2309 0a28 B002     		.2byte	0x2b0
 2310 0a2a 83000000 		.4byte	0x83
 2311 0a2e 5F080000 		.4byte	.LLST50
 2312 0a32 1A       		.uleb128 0x1a
 2313 0a33 A1010000 		.4byte	.LASF68
 2314 0a37 01       		.byte	0x1
 2315 0a38 B002     		.2byte	0x2b0
 2316 0a3a 83000000 		.4byte	0x83
 2317 0a3e 80080000 		.4byte	.LLST51
 2318 0a42 17       		.uleb128 0x17
 2319 0a43 48030000 		.4byte	.LASF69
 2320 0a47 01       		.byte	0x1
 2321 0a48 B202     		.2byte	0x2b2
ARM GAS  C:\Users\Greg\AppData\Local\Temp\cceDExAc.s 			page 69


 2322 0a4a F5040000 		.4byte	0x4f5
 2323 0a4e 20       		.uleb128 0x20
 2324 0a4f 86050000 		.4byte	.LASF62
 2325 0a53 01       		.byte	0x1
 2326 0a54 B302     		.2byte	0x2b3
 2327 0a56 B9020000 		.4byte	0x2b9
 2328 0a5a A1080000 		.4byte	.LLST52
 2329 0a5e 20       		.uleb128 0x20
 2330 0a5f 75050000 		.4byte	.LASF74
 2331 0a63 01       		.byte	0x1
 2332 0a64 B402     		.2byte	0x2b4
 2333 0a66 82030000 		.4byte	0x382
 2334 0a6a F4080000 		.4byte	.LLST53
 2335 0a6e 1E       		.uleb128 0x1e
 2336 0a6f 34000000 		.4byte	.LVL147
 2337 0a73 90090000 		.4byte	0x990
 2338 0a77 1F       		.uleb128 0x1f
 2339 0a78 01       		.uleb128 0x1
 2340 0a79 51       		.byte	0x51
 2341 0a7a 02       		.uleb128 0x2
 2342 0a7b 74       		.byte	0x74
 2343 0a7c 00       		.sleb128 0
 2344 0a7d 1F       		.uleb128 0x1f
 2345 0a7e 01       		.uleb128 0x1
 2346 0a7f 50       		.byte	0x50
 2347 0a80 02       		.uleb128 0x2
 2348 0a81 75       		.byte	0x75
 2349 0a82 00       		.sleb128 0
 2350 0a83 00       		.byte	0
 2351 0a84 00       		.byte	0
 2352 0a85 18       		.uleb128 0x18
 2353 0a86 9A030000 		.4byte	.LASF96
 2354 0a8a 01       		.byte	0x1
 2355 0a8b FC04     		.2byte	0x4fc
 2356 0a8d 00000000 		.4byte	.LFB16
 2357 0a91 08000000 		.4byte	.LFE16-.LFB16
 2358 0a95 01       		.uleb128 0x1
 2359 0a96 9C       		.byte	0x9c
 2360 0a97 E40A0000 		.4byte	0xae4
 2361 0a9b 1A       		.uleb128 0x1a
 2362 0a9c 75050000 		.4byte	.LASF74
 2363 0aa0 01       		.byte	0x1
 2364 0aa1 FC04     		.2byte	0x4fc
 2365 0aa3 82030000 		.4byte	0x382
 2366 0aa7 07090000 		.4byte	.LLST54
 2367 0aab 1A       		.uleb128 0x1a
 2368 0aac 1A040000 		.4byte	.LASF75
 2369 0ab0 01       		.byte	0x1
 2370 0ab1 FD04     		.2byte	0x4fd
 2371 0ab3 B9020000 		.4byte	0x2b9
 2372 0ab7 1A090000 		.4byte	.LLST55
 2373 0abb 1A       		.uleb128 0x1a
 2374 0abc F6020000 		.4byte	.LASF63
 2375 0ac0 01       		.byte	0x1
 2376 0ac1 FD04     		.2byte	0x4fd
 2377 0ac3 83000000 		.4byte	0x83
 2378 0ac7 3B090000 		.4byte	.LLST56
ARM GAS  C:\Users\Greg\AppData\Local\Temp\cceDExAc.s 			page 70


 2379 0acb 1E       		.uleb128 0x1e
 2380 0acc 06000000 		.4byte	.LVL152
 2381 0ad0 90090000 		.4byte	0x990
 2382 0ad4 1F       		.uleb128 0x1f
 2383 0ad5 01       		.uleb128 0x1
 2384 0ad6 52       		.byte	0x52
 2385 0ad7 03       		.uleb128 0x3
 2386 0ad8 F3       		.byte	0xf3
 2387 0ad9 01       		.uleb128 0x1
 2388 0ada 52       		.byte	0x52
 2389 0adb 1F       		.uleb128 0x1f
 2390 0adc 01       		.uleb128 0x1
 2391 0add 51       		.byte	0x51
 2392 0ade 03       		.uleb128 0x3
 2393 0adf F3       		.byte	0xf3
 2394 0ae0 01       		.uleb128 0x1
 2395 0ae1 51       		.byte	0x51
 2396 0ae2 00       		.byte	0
 2397 0ae3 00       		.byte	0
 2398 0ae4 18       		.uleb128 0x18
 2399 0ae5 52030000 		.4byte	.LASF97
 2400 0ae9 01       		.byte	0x1
 2401 0aea D104     		.2byte	0x4d1
 2402 0aec 00000000 		.4byte	.LFB15
 2403 0af0 3C000000 		.4byte	.LFE15-.LFB15
 2404 0af4 01       		.uleb128 0x1
 2405 0af5 9C       		.byte	0x9c
 2406 0af6 5D0B0000 		.4byte	0xb5d
 2407 0afa 1A       		.uleb128 0x1a
 2408 0afb 1F030000 		.4byte	.LASF67
 2409 0aff 01       		.byte	0x1
 2410 0b00 D104     		.2byte	0x4d1
 2411 0b02 83000000 		.4byte	0x83
 2412 0b06 5C090000 		.4byte	.LLST57
 2413 0b0a 1A       		.uleb128 0x1a
 2414 0b0b A1010000 		.4byte	.LASF68
 2415 0b0f 01       		.byte	0x1
 2416 0b10 D104     		.2byte	0x4d1
 2417 0b12 83000000 		.4byte	0x83
 2418 0b16 7D090000 		.4byte	.LLST58
 2419 0b1a 17       		.uleb128 0x17
 2420 0b1b 48030000 		.4byte	.LASF69
 2421 0b1f 01       		.byte	0x1
 2422 0b20 D304     		.2byte	0x4d3
 2423 0b22 F5040000 		.4byte	0x4f5
 2424 0b26 20       		.uleb128 0x20
 2425 0b27 86050000 		.4byte	.LASF62
 2426 0b2b 01       		.byte	0x1
 2427 0b2c D404     		.2byte	0x4d4
 2428 0b2e B9020000 		.4byte	0x2b9
 2429 0b32 9E090000 		.4byte	.LLST59
 2430 0b36 20       		.uleb128 0x20
 2431 0b37 75050000 		.4byte	.LASF74
 2432 0b3b 01       		.byte	0x1
 2433 0b3c D504     		.2byte	0x4d5
 2434 0b3e 82030000 		.4byte	0x382
 2435 0b42 F1090000 		.4byte	.LLST60
ARM GAS  C:\Users\Greg\AppData\Local\Temp\cceDExAc.s 			page 71


 2436 0b46 1E       		.uleb128 0x1e
 2437 0b47 34000000 		.4byte	.LVL161
 2438 0b4b 850A0000 		.4byte	0xa85
 2439 0b4f 1F       		.uleb128 0x1f
 2440 0b50 01       		.uleb128 0x1
 2441 0b51 51       		.byte	0x51
 2442 0b52 02       		.uleb128 0x2
 2443 0b53 74       		.byte	0x74
 2444 0b54 00       		.sleb128 0
 2445 0b55 1F       		.uleb128 0x1f
 2446 0b56 01       		.uleb128 0x1
 2447 0b57 50       		.byte	0x50
 2448 0b58 02       		.uleb128 0x2
 2449 0b59 75       		.byte	0x75
 2450 0b5a 00       		.sleb128 0
 2451 0b5b 00       		.byte	0
 2452 0b5c 00       		.byte	0
 2453 0b5d 2F       		.uleb128 0x2f
 2454 0b5e 59040000 		.4byte	.LASF102
 2455 0b62 04       		.byte	0x4
 2456 0b63 A303     		.2byte	0x3a3
 2457 0b65 690B0000 		.4byte	0xb69
 2458 0b69 23       		.uleb128 0x23
 2459 0b6a F8020000 		.4byte	0x2f8
 2460 0b6e 00       		.byte	0
 2461              		.section	.debug_abbrev,"",%progbits
 2462              	.Ldebug_abbrev0:
 2463 0000 01       		.uleb128 0x1
 2464 0001 11       		.uleb128 0x11
 2465 0002 01       		.byte	0x1
 2466 0003 25       		.uleb128 0x25
 2467 0004 0E       		.uleb128 0xe
 2468 0005 13       		.uleb128 0x13
 2469 0006 0B       		.uleb128 0xb
 2470 0007 03       		.uleb128 0x3
 2471 0008 0E       		.uleb128 0xe
 2472 0009 1B       		.uleb128 0x1b
 2473 000a 0E       		.uleb128 0xe
 2474 000b 55       		.uleb128 0x55
 2475 000c 17       		.uleb128 0x17
 2476 000d 11       		.uleb128 0x11
 2477 000e 01       		.uleb128 0x1
 2478 000f 10       		.uleb128 0x10
 2479 0010 17       		.uleb128 0x17
 2480 0011 00       		.byte	0
 2481 0012 00       		.byte	0
 2482 0013 02       		.uleb128 0x2
 2483 0014 24       		.uleb128 0x24
 2484 0015 00       		.byte	0
 2485 0016 0B       		.uleb128 0xb
 2486 0017 0B       		.uleb128 0xb
 2487 0018 3E       		.uleb128 0x3e
 2488 0019 0B       		.uleb128 0xb
 2489 001a 03       		.uleb128 0x3
 2490 001b 0E       		.uleb128 0xe
 2491 001c 00       		.byte	0
 2492 001d 00       		.byte	0
ARM GAS  C:\Users\Greg\AppData\Local\Temp\cceDExAc.s 			page 72


 2493 001e 03       		.uleb128 0x3
 2494 001f 24       		.uleb128 0x24
 2495 0020 00       		.byte	0
 2496 0021 0B       		.uleb128 0xb
 2497 0022 0B       		.uleb128 0xb
 2498 0023 3E       		.uleb128 0x3e
 2499 0024 0B       		.uleb128 0xb
 2500 0025 03       		.uleb128 0x3
 2501 0026 08       		.uleb128 0x8
 2502 0027 00       		.byte	0
 2503 0028 00       		.byte	0
 2504 0029 04       		.uleb128 0x4
 2505 002a 16       		.uleb128 0x16
 2506 002b 00       		.byte	0
 2507 002c 03       		.uleb128 0x3
 2508 002d 0E       		.uleb128 0xe
 2509 002e 3A       		.uleb128 0x3a
 2510 002f 0B       		.uleb128 0xb
 2511 0030 3B       		.uleb128 0x3b
 2512 0031 05       		.uleb128 0x5
 2513 0032 49       		.uleb128 0x49
 2514 0033 13       		.uleb128 0x13
 2515 0034 00       		.byte	0
 2516 0035 00       		.byte	0
 2517 0036 05       		.uleb128 0x5
 2518 0037 0F       		.uleb128 0xf
 2519 0038 00       		.byte	0
 2520 0039 0B       		.uleb128 0xb
 2521 003a 0B       		.uleb128 0xb
 2522 003b 00       		.byte	0
 2523 003c 00       		.byte	0
 2524 003d 06       		.uleb128 0x6
 2525 003e 16       		.uleb128 0x16
 2526 003f 00       		.byte	0
 2527 0040 03       		.uleb128 0x3
 2528 0041 0E       		.uleb128 0xe
 2529 0042 3A       		.uleb128 0x3a
 2530 0043 0B       		.uleb128 0xb
 2531 0044 3B       		.uleb128 0x3b
 2532 0045 0B       		.uleb128 0xb
 2533 0046 49       		.uleb128 0x49
 2534 0047 13       		.uleb128 0x13
 2535 0048 00       		.byte	0
 2536 0049 00       		.byte	0
 2537 004a 07       		.uleb128 0x7
 2538 004b 04       		.uleb128 0x4
 2539 004c 01       		.byte	0x1
 2540 004d 0B       		.uleb128 0xb
 2541 004e 0B       		.uleb128 0xb
 2542 004f 3A       		.uleb128 0x3a
 2543 0050 0B       		.uleb128 0xb
 2544 0051 3B       		.uleb128 0x3b
 2545 0052 0B       		.uleb128 0xb
 2546 0053 01       		.uleb128 0x1
 2547 0054 13       		.uleb128 0x13
 2548 0055 00       		.byte	0
 2549 0056 00       		.byte	0
ARM GAS  C:\Users\Greg\AppData\Local\Temp\cceDExAc.s 			page 73


 2550 0057 08       		.uleb128 0x8
 2551 0058 28       		.uleb128 0x28
 2552 0059 00       		.byte	0
 2553 005a 03       		.uleb128 0x3
 2554 005b 0E       		.uleb128 0xe
 2555 005c 1C       		.uleb128 0x1c
 2556 005d 0D       		.uleb128 0xd
 2557 005e 00       		.byte	0
 2558 005f 00       		.byte	0
 2559 0060 09       		.uleb128 0x9
 2560 0061 13       		.uleb128 0x13
 2561 0062 01       		.byte	0x1
 2562 0063 0B       		.uleb128 0xb
 2563 0064 0B       		.uleb128 0xb
 2564 0065 3A       		.uleb128 0x3a
 2565 0066 0B       		.uleb128 0xb
 2566 0067 3B       		.uleb128 0x3b
 2567 0068 0B       		.uleb128 0xb
 2568 0069 01       		.uleb128 0x1
 2569 006a 13       		.uleb128 0x13
 2570 006b 00       		.byte	0
 2571 006c 00       		.byte	0
 2572 006d 0A       		.uleb128 0xa
 2573 006e 0D       		.uleb128 0xd
 2574 006f 00       		.byte	0
 2575 0070 03       		.uleb128 0x3
 2576 0071 0E       		.uleb128 0xe
 2577 0072 3A       		.uleb128 0x3a
 2578 0073 0B       		.uleb128 0xb
 2579 0074 3B       		.uleb128 0x3b
 2580 0075 0B       		.uleb128 0xb
 2581 0076 49       		.uleb128 0x49
 2582 0077 13       		.uleb128 0x13
 2583 0078 38       		.uleb128 0x38
 2584 0079 0B       		.uleb128 0xb
 2585 007a 00       		.byte	0
 2586 007b 00       		.byte	0
 2587 007c 0B       		.uleb128 0xb
 2588 007d 01       		.uleb128 0x1
 2589 007e 01       		.byte	0x1
 2590 007f 49       		.uleb128 0x49
 2591 0080 13       		.uleb128 0x13
 2592 0081 01       		.uleb128 0x1
 2593 0082 13       		.uleb128 0x13
 2594 0083 00       		.byte	0
 2595 0084 00       		.byte	0
 2596 0085 0C       		.uleb128 0xc
 2597 0086 21       		.uleb128 0x21
 2598 0087 00       		.byte	0
 2599 0088 49       		.uleb128 0x49
 2600 0089 13       		.uleb128 0x13
 2601 008a 2F       		.uleb128 0x2f
 2602 008b 0B       		.uleb128 0xb
 2603 008c 00       		.byte	0
 2604 008d 00       		.byte	0
 2605 008e 0D       		.uleb128 0xd
 2606 008f 13       		.uleb128 0x13
ARM GAS  C:\Users\Greg\AppData\Local\Temp\cceDExAc.s 			page 74


 2607 0090 01       		.byte	0x1
 2608 0091 0B       		.uleb128 0xb
 2609 0092 0B       		.uleb128 0xb
 2610 0093 3A       		.uleb128 0x3a
 2611 0094 0B       		.uleb128 0xb
 2612 0095 3B       		.uleb128 0x3b
 2613 0096 05       		.uleb128 0x5
 2614 0097 01       		.uleb128 0x1
 2615 0098 13       		.uleb128 0x13
 2616 0099 00       		.byte	0
 2617 009a 00       		.byte	0
 2618 009b 0E       		.uleb128 0xe
 2619 009c 0D       		.uleb128 0xd
 2620 009d 00       		.byte	0
 2621 009e 03       		.uleb128 0x3
 2622 009f 08       		.uleb128 0x8
 2623 00a0 3A       		.uleb128 0x3a
 2624 00a1 0B       		.uleb128 0xb
 2625 00a2 3B       		.uleb128 0x3b
 2626 00a3 05       		.uleb128 0x5
 2627 00a4 49       		.uleb128 0x49
 2628 00a5 13       		.uleb128 0x13
 2629 00a6 38       		.uleb128 0x38
 2630 00a7 0B       		.uleb128 0xb
 2631 00a8 00       		.byte	0
 2632 00a9 00       		.byte	0
 2633 00aa 0F       		.uleb128 0xf
 2634 00ab 0D       		.uleb128 0xd
 2635 00ac 00       		.byte	0
 2636 00ad 03       		.uleb128 0x3
 2637 00ae 0E       		.uleb128 0xe
 2638 00af 3A       		.uleb128 0x3a
 2639 00b0 0B       		.uleb128 0xb
 2640 00b1 3B       		.uleb128 0x3b
 2641 00b2 05       		.uleb128 0x5
 2642 00b3 49       		.uleb128 0x49
 2643 00b4 13       		.uleb128 0x13
 2644 00b5 38       		.uleb128 0x38
 2645 00b6 0B       		.uleb128 0xb
 2646 00b7 00       		.byte	0
 2647 00b8 00       		.byte	0
 2648 00b9 10       		.uleb128 0x10
 2649 00ba 0F       		.uleb128 0xf
 2650 00bb 00       		.byte	0
 2651 00bc 0B       		.uleb128 0xb
 2652 00bd 0B       		.uleb128 0xb
 2653 00be 49       		.uleb128 0x49
 2654 00bf 13       		.uleb128 0x13
 2655 00c0 00       		.byte	0
 2656 00c1 00       		.byte	0
 2657 00c2 11       		.uleb128 0x11
 2658 00c3 26       		.uleb128 0x26
 2659 00c4 00       		.byte	0
 2660 00c5 00       		.byte	0
 2661 00c6 00       		.byte	0
 2662 00c7 12       		.uleb128 0x12
 2663 00c8 17       		.uleb128 0x17
ARM GAS  C:\Users\Greg\AppData\Local\Temp\cceDExAc.s 			page 75


 2664 00c9 01       		.byte	0x1
 2665 00ca 0B       		.uleb128 0xb
 2666 00cb 0B       		.uleb128 0xb
 2667 00cc 3A       		.uleb128 0x3a
 2668 00cd 0B       		.uleb128 0xb
 2669 00ce 3B       		.uleb128 0x3b
 2670 00cf 05       		.uleb128 0x5
 2671 00d0 01       		.uleb128 0x1
 2672 00d1 13       		.uleb128 0x13
 2673 00d2 00       		.byte	0
 2674 00d3 00       		.byte	0
 2675 00d4 13       		.uleb128 0x13
 2676 00d5 0D       		.uleb128 0xd
 2677 00d6 00       		.byte	0
 2678 00d7 03       		.uleb128 0x3
 2679 00d8 08       		.uleb128 0x8
 2680 00d9 3A       		.uleb128 0x3a
 2681 00da 0B       		.uleb128 0xb
 2682 00db 3B       		.uleb128 0x3b
 2683 00dc 05       		.uleb128 0x5
 2684 00dd 49       		.uleb128 0x49
 2685 00de 13       		.uleb128 0x13
 2686 00df 00       		.byte	0
 2687 00e0 00       		.byte	0
 2688 00e1 14       		.uleb128 0x14
 2689 00e2 0D       		.uleb128 0xd
 2690 00e3 00       		.byte	0
 2691 00e4 03       		.uleb128 0x3
 2692 00e5 0E       		.uleb128 0xe
 2693 00e6 3A       		.uleb128 0x3a
 2694 00e7 0B       		.uleb128 0xb
 2695 00e8 3B       		.uleb128 0x3b
 2696 00e9 05       		.uleb128 0x5
 2697 00ea 49       		.uleb128 0x49
 2698 00eb 13       		.uleb128 0x13
 2699 00ec 00       		.byte	0
 2700 00ed 00       		.byte	0
 2701 00ee 15       		.uleb128 0x15
 2702 00ef 2E       		.uleb128 0x2e
 2703 00f0 01       		.byte	0x1
 2704 00f1 3F       		.uleb128 0x3f
 2705 00f2 19       		.uleb128 0x19
 2706 00f3 03       		.uleb128 0x3
 2707 00f4 0E       		.uleb128 0xe
 2708 00f5 3A       		.uleb128 0x3a
 2709 00f6 0B       		.uleb128 0xb
 2710 00f7 3B       		.uleb128 0x3b
 2711 00f8 05       		.uleb128 0x5
 2712 00f9 27       		.uleb128 0x27
 2713 00fa 19       		.uleb128 0x19
 2714 00fb 20       		.uleb128 0x20
 2715 00fc 0B       		.uleb128 0xb
 2716 00fd 01       		.uleb128 0x1
 2717 00fe 13       		.uleb128 0x13
 2718 00ff 00       		.byte	0
 2719 0100 00       		.byte	0
 2720 0101 16       		.uleb128 0x16
ARM GAS  C:\Users\Greg\AppData\Local\Temp\cceDExAc.s 			page 76


 2721 0102 05       		.uleb128 0x5
 2722 0103 00       		.byte	0
 2723 0104 03       		.uleb128 0x3
 2724 0105 0E       		.uleb128 0xe
 2725 0106 3A       		.uleb128 0x3a
 2726 0107 0B       		.uleb128 0xb
 2727 0108 3B       		.uleb128 0x3b
 2728 0109 05       		.uleb128 0x5
 2729 010a 49       		.uleb128 0x49
 2730 010b 13       		.uleb128 0x13
 2731 010c 00       		.byte	0
 2732 010d 00       		.byte	0
 2733 010e 17       		.uleb128 0x17
 2734 010f 34       		.uleb128 0x34
 2735 0110 00       		.byte	0
 2736 0111 03       		.uleb128 0x3
 2737 0112 0E       		.uleb128 0xe
 2738 0113 3A       		.uleb128 0x3a
 2739 0114 0B       		.uleb128 0xb
 2740 0115 3B       		.uleb128 0x3b
 2741 0116 05       		.uleb128 0x5
 2742 0117 49       		.uleb128 0x49
 2743 0118 13       		.uleb128 0x13
 2744 0119 00       		.byte	0
 2745 011a 00       		.byte	0
 2746 011b 18       		.uleb128 0x18
 2747 011c 2E       		.uleb128 0x2e
 2748 011d 01       		.byte	0x1
 2749 011e 3F       		.uleb128 0x3f
 2750 011f 19       		.uleb128 0x19
 2751 0120 03       		.uleb128 0x3
 2752 0121 0E       		.uleb128 0xe
 2753 0122 3A       		.uleb128 0x3a
 2754 0123 0B       		.uleb128 0xb
 2755 0124 3B       		.uleb128 0x3b
 2756 0125 05       		.uleb128 0x5
 2757 0126 27       		.uleb128 0x27
 2758 0127 19       		.uleb128 0x19
 2759 0128 11       		.uleb128 0x11
 2760 0129 01       		.uleb128 0x1
 2761 012a 12       		.uleb128 0x12
 2762 012b 06       		.uleb128 0x6
 2763 012c 40       		.uleb128 0x40
 2764 012d 18       		.uleb128 0x18
 2765 012e 9742     		.uleb128 0x2117
 2766 0130 19       		.uleb128 0x19
 2767 0131 01       		.uleb128 0x1
 2768 0132 13       		.uleb128 0x13
 2769 0133 00       		.byte	0
 2770 0134 00       		.byte	0
 2771 0135 19       		.uleb128 0x19
 2772 0136 05       		.uleb128 0x5
 2773 0137 00       		.byte	0
 2774 0138 03       		.uleb128 0x3
 2775 0139 0E       		.uleb128 0xe
 2776 013a 3A       		.uleb128 0x3a
 2777 013b 0B       		.uleb128 0xb
ARM GAS  C:\Users\Greg\AppData\Local\Temp\cceDExAc.s 			page 77


 2778 013c 3B       		.uleb128 0x3b
 2779 013d 05       		.uleb128 0x5
 2780 013e 49       		.uleb128 0x49
 2781 013f 13       		.uleb128 0x13
 2782 0140 02       		.uleb128 0x2
 2783 0141 18       		.uleb128 0x18
 2784 0142 00       		.byte	0
 2785 0143 00       		.byte	0
 2786 0144 1A       		.uleb128 0x1a
 2787 0145 05       		.uleb128 0x5
 2788 0146 00       		.byte	0
 2789 0147 03       		.uleb128 0x3
 2790 0148 0E       		.uleb128 0xe
 2791 0149 3A       		.uleb128 0x3a
 2792 014a 0B       		.uleb128 0xb
 2793 014b 3B       		.uleb128 0x3b
 2794 014c 05       		.uleb128 0x5
 2795 014d 49       		.uleb128 0x49
 2796 014e 13       		.uleb128 0x13
 2797 014f 02       		.uleb128 0x2
 2798 0150 17       		.uleb128 0x17
 2799 0151 00       		.byte	0
 2800 0152 00       		.byte	0
 2801 0153 1B       		.uleb128 0x1b
 2802 0154 2E       		.uleb128 0x2e
 2803 0155 01       		.byte	0x1
 2804 0156 31       		.uleb128 0x31
 2805 0157 13       		.uleb128 0x13
 2806 0158 11       		.uleb128 0x11
 2807 0159 01       		.uleb128 0x1
 2808 015a 12       		.uleb128 0x12
 2809 015b 06       		.uleb128 0x6
 2810 015c 40       		.uleb128 0x40
 2811 015d 18       		.uleb128 0x18
 2812 015e 9742     		.uleb128 0x2117
 2813 0160 19       		.uleb128 0x19
 2814 0161 01       		.uleb128 0x1
 2815 0162 13       		.uleb128 0x13
 2816 0163 00       		.byte	0
 2817 0164 00       		.byte	0
 2818 0165 1C       		.uleb128 0x1c
 2819 0166 05       		.uleb128 0x5
 2820 0167 00       		.byte	0
 2821 0168 31       		.uleb128 0x31
 2822 0169 13       		.uleb128 0x13
 2823 016a 02       		.uleb128 0x2
 2824 016b 17       		.uleb128 0x17
 2825 016c 00       		.byte	0
 2826 016d 00       		.byte	0
 2827 016e 1D       		.uleb128 0x1d
 2828 016f 34       		.uleb128 0x34
 2829 0170 00       		.byte	0
 2830 0171 31       		.uleb128 0x31
 2831 0172 13       		.uleb128 0x13
 2832 0173 02       		.uleb128 0x2
 2833 0174 17       		.uleb128 0x17
 2834 0175 00       		.byte	0
ARM GAS  C:\Users\Greg\AppData\Local\Temp\cceDExAc.s 			page 78


 2835 0176 00       		.byte	0
 2836 0177 1E       		.uleb128 0x1e
 2837 0178 898201   		.uleb128 0x4109
 2838 017b 01       		.byte	0x1
 2839 017c 11       		.uleb128 0x11
 2840 017d 01       		.uleb128 0x1
 2841 017e 31       		.uleb128 0x31
 2842 017f 13       		.uleb128 0x13
 2843 0180 00       		.byte	0
 2844 0181 00       		.byte	0
 2845 0182 1F       		.uleb128 0x1f
 2846 0183 8A8201   		.uleb128 0x410a
 2847 0186 00       		.byte	0
 2848 0187 02       		.uleb128 0x2
 2849 0188 18       		.uleb128 0x18
 2850 0189 9142     		.uleb128 0x2111
 2851 018b 18       		.uleb128 0x18
 2852 018c 00       		.byte	0
 2853 018d 00       		.byte	0
 2854 018e 20       		.uleb128 0x20
 2855 018f 34       		.uleb128 0x34
 2856 0190 00       		.byte	0
 2857 0191 03       		.uleb128 0x3
 2858 0192 0E       		.uleb128 0xe
 2859 0193 3A       		.uleb128 0x3a
 2860 0194 0B       		.uleb128 0xb
 2861 0195 3B       		.uleb128 0x3b
 2862 0196 05       		.uleb128 0x5
 2863 0197 49       		.uleb128 0x49
 2864 0198 13       		.uleb128 0x13
 2865 0199 02       		.uleb128 0x2
 2866 019a 17       		.uleb128 0x17
 2867 019b 00       		.byte	0
 2868 019c 00       		.byte	0
 2869 019d 21       		.uleb128 0x21
 2870 019e 1D       		.uleb128 0x1d
 2871 019f 01       		.byte	0x1
 2872 01a0 31       		.uleb128 0x31
 2873 01a1 13       		.uleb128 0x13
 2874 01a2 11       		.uleb128 0x11
 2875 01a3 01       		.uleb128 0x1
 2876 01a4 12       		.uleb128 0x12
 2877 01a5 06       		.uleb128 0x6
 2878 01a6 58       		.uleb128 0x58
 2879 01a7 0B       		.uleb128 0xb
 2880 01a8 59       		.uleb128 0x59
 2881 01a9 05       		.uleb128 0x5
 2882 01aa 00       		.byte	0
 2883 01ab 00       		.byte	0
 2884 01ac 22       		.uleb128 0x22
 2885 01ad 0B       		.uleb128 0xb
 2886 01ae 01       		.byte	0x1
 2887 01af 11       		.uleb128 0x11
 2888 01b0 01       		.uleb128 0x1
 2889 01b1 12       		.uleb128 0x12
 2890 01b2 06       		.uleb128 0x6
 2891 01b3 00       		.byte	0
ARM GAS  C:\Users\Greg\AppData\Local\Temp\cceDExAc.s 			page 79


 2892 01b4 00       		.byte	0
 2893 01b5 23       		.uleb128 0x23
 2894 01b6 26       		.uleb128 0x26
 2895 01b7 00       		.byte	0
 2896 01b8 49       		.uleb128 0x49
 2897 01b9 13       		.uleb128 0x13
 2898 01ba 00       		.byte	0
 2899 01bb 00       		.byte	0
 2900 01bc 24       		.uleb128 0x24
 2901 01bd 2E       		.uleb128 0x2e
 2902 01be 01       		.byte	0x1
 2903 01bf 3F       		.uleb128 0x3f
 2904 01c0 19       		.uleb128 0x19
 2905 01c1 03       		.uleb128 0x3
 2906 01c2 0E       		.uleb128 0xe
 2907 01c3 3A       		.uleb128 0x3a
 2908 01c4 0B       		.uleb128 0xb
 2909 01c5 3B       		.uleb128 0x3b
 2910 01c6 0B       		.uleb128 0xb
 2911 01c7 27       		.uleb128 0x27
 2912 01c8 19       		.uleb128 0x19
 2913 01c9 11       		.uleb128 0x11
 2914 01ca 01       		.uleb128 0x1
 2915 01cb 12       		.uleb128 0x12
 2916 01cc 06       		.uleb128 0x6
 2917 01cd 40       		.uleb128 0x40
 2918 01ce 18       		.uleb128 0x18
 2919 01cf 9742     		.uleb128 0x2117
 2920 01d1 19       		.uleb128 0x19
 2921 01d2 01       		.uleb128 0x1
 2922 01d3 13       		.uleb128 0x13
 2923 01d4 00       		.byte	0
 2924 01d5 00       		.byte	0
 2925 01d6 25       		.uleb128 0x25
 2926 01d7 34       		.uleb128 0x34
 2927 01d8 00       		.byte	0
 2928 01d9 03       		.uleb128 0x3
 2929 01da 0E       		.uleb128 0xe
 2930 01db 3A       		.uleb128 0x3a
 2931 01dc 0B       		.uleb128 0xb
 2932 01dd 3B       		.uleb128 0x3b
 2933 01de 0B       		.uleb128 0xb
 2934 01df 49       		.uleb128 0x49
 2935 01e0 13       		.uleb128 0x13
 2936 01e1 02       		.uleb128 0x2
 2937 01e2 17       		.uleb128 0x17
 2938 01e3 00       		.byte	0
 2939 01e4 00       		.byte	0
 2940 01e5 26       		.uleb128 0x26
 2941 01e6 34       		.uleb128 0x34
 2942 01e7 00       		.byte	0
 2943 01e8 03       		.uleb128 0x3
 2944 01e9 0E       		.uleb128 0xe
 2945 01ea 3A       		.uleb128 0x3a
 2946 01eb 0B       		.uleb128 0xb
 2947 01ec 3B       		.uleb128 0x3b
 2948 01ed 0B       		.uleb128 0xb
ARM GAS  C:\Users\Greg\AppData\Local\Temp\cceDExAc.s 			page 80


 2949 01ee 49       		.uleb128 0x49
 2950 01ef 13       		.uleb128 0x13
 2951 01f0 00       		.byte	0
 2952 01f1 00       		.byte	0
 2953 01f2 27       		.uleb128 0x27
 2954 01f3 898201   		.uleb128 0x4109
 2955 01f6 00       		.byte	0
 2956 01f7 11       		.uleb128 0x11
 2957 01f8 01       		.uleb128 0x1
 2958 01f9 31       		.uleb128 0x31
 2959 01fa 13       		.uleb128 0x13
 2960 01fb 00       		.byte	0
 2961 01fc 00       		.byte	0
 2962 01fd 28       		.uleb128 0x28
 2963 01fe 2E       		.uleb128 0x2e
 2964 01ff 01       		.byte	0x1
 2965 0200 3F       		.uleb128 0x3f
 2966 0201 19       		.uleb128 0x19
 2967 0202 03       		.uleb128 0x3
 2968 0203 0E       		.uleb128 0xe
 2969 0204 3A       		.uleb128 0x3a
 2970 0205 0B       		.uleb128 0xb
 2971 0206 3B       		.uleb128 0x3b
 2972 0207 05       		.uleb128 0x5
 2973 0208 27       		.uleb128 0x27
 2974 0209 19       		.uleb128 0x19
 2975 020a 49       		.uleb128 0x49
 2976 020b 13       		.uleb128 0x13
 2977 020c 11       		.uleb128 0x11
 2978 020d 01       		.uleb128 0x1
 2979 020e 12       		.uleb128 0x12
 2980 020f 06       		.uleb128 0x6
 2981 0210 40       		.uleb128 0x40
 2982 0211 18       		.uleb128 0x18
 2983 0212 9742     		.uleb128 0x2117
 2984 0214 19       		.uleb128 0x19
 2985 0215 01       		.uleb128 0x1
 2986 0216 13       		.uleb128 0x13
 2987 0217 00       		.byte	0
 2988 0218 00       		.byte	0
 2989 0219 29       		.uleb128 0x29
 2990 021a 05       		.uleb128 0x5
 2991 021b 00       		.byte	0
 2992 021c 03       		.uleb128 0x3
 2993 021d 08       		.uleb128 0x8
 2994 021e 3A       		.uleb128 0x3a
 2995 021f 0B       		.uleb128 0xb
 2996 0220 3B       		.uleb128 0x3b
 2997 0221 05       		.uleb128 0x5
 2998 0222 49       		.uleb128 0x49
 2999 0223 13       		.uleb128 0x13
 3000 0224 02       		.uleb128 0x2
 3001 0225 18       		.uleb128 0x18
 3002 0226 00       		.byte	0
 3003 0227 00       		.byte	0
 3004 0228 2A       		.uleb128 0x2a
 3005 0229 34       		.uleb128 0x34
ARM GAS  C:\Users\Greg\AppData\Local\Temp\cceDExAc.s 			page 81


 3006 022a 00       		.byte	0
 3007 022b 03       		.uleb128 0x3
 3008 022c 0E       		.uleb128 0xe
 3009 022d 3A       		.uleb128 0x3a
 3010 022e 0B       		.uleb128 0xb
 3011 022f 3B       		.uleb128 0x3b
 3012 0230 05       		.uleb128 0x5
 3013 0231 49       		.uleb128 0x49
 3014 0232 13       		.uleb128 0x13
 3015 0233 02       		.uleb128 0x2
 3016 0234 18       		.uleb128 0x18
 3017 0235 00       		.byte	0
 3018 0236 00       		.byte	0
 3019 0237 2B       		.uleb128 0x2b
 3020 0238 34       		.uleb128 0x34
 3021 0239 00       		.byte	0
 3022 023a 03       		.uleb128 0x3
 3023 023b 0E       		.uleb128 0xe
 3024 023c 3A       		.uleb128 0x3a
 3025 023d 0B       		.uleb128 0xb
 3026 023e 3B       		.uleb128 0x3b
 3027 023f 05       		.uleb128 0x5
 3028 0240 49       		.uleb128 0x49
 3029 0241 13       		.uleb128 0x13
 3030 0242 1C       		.uleb128 0x1c
 3031 0243 0B       		.uleb128 0xb
 3032 0244 00       		.byte	0
 3033 0245 00       		.byte	0
 3034 0246 2C       		.uleb128 0x2c
 3035 0247 898201   		.uleb128 0x4109
 3036 024a 01       		.byte	0x1
 3037 024b 11       		.uleb128 0x11
 3038 024c 01       		.uleb128 0x1
 3039 024d 31       		.uleb128 0x31
 3040 024e 13       		.uleb128 0x13
 3041 024f 01       		.uleb128 0x1
 3042 0250 13       		.uleb128 0x13
 3043 0251 00       		.byte	0
 3044 0252 00       		.byte	0
 3045 0253 2D       		.uleb128 0x2d
 3046 0254 2E       		.uleb128 0x2e
 3047 0255 01       		.byte	0x1
 3048 0256 3F       		.uleb128 0x3f
 3049 0257 19       		.uleb128 0x19
 3050 0258 03       		.uleb128 0x3
 3051 0259 0E       		.uleb128 0xe
 3052 025a 3A       		.uleb128 0x3a
 3053 025b 0B       		.uleb128 0xb
 3054 025c 3B       		.uleb128 0x3b
 3055 025d 0B       		.uleb128 0xb
 3056 025e 27       		.uleb128 0x27
 3057 025f 19       		.uleb128 0x19
 3058 0260 49       		.uleb128 0x49
 3059 0261 13       		.uleb128 0x13
 3060 0262 11       		.uleb128 0x11
 3061 0263 01       		.uleb128 0x1
 3062 0264 12       		.uleb128 0x12
ARM GAS  C:\Users\Greg\AppData\Local\Temp\cceDExAc.s 			page 82


 3063 0265 06       		.uleb128 0x6
 3064 0266 40       		.uleb128 0x40
 3065 0267 18       		.uleb128 0x18
 3066 0268 9742     		.uleb128 0x2117
 3067 026a 19       		.uleb128 0x19
 3068 026b 01       		.uleb128 0x1
 3069 026c 13       		.uleb128 0x13
 3070 026d 00       		.byte	0
 3071 026e 00       		.byte	0
 3072 026f 2E       		.uleb128 0x2e
 3073 0270 05       		.uleb128 0x5
 3074 0271 00       		.byte	0
 3075 0272 03       		.uleb128 0x3
 3076 0273 0E       		.uleb128 0xe
 3077 0274 3A       		.uleb128 0x3a
 3078 0275 0B       		.uleb128 0xb
 3079 0276 3B       		.uleb128 0x3b
 3080 0277 0B       		.uleb128 0xb
 3081 0278 49       		.uleb128 0x49
 3082 0279 13       		.uleb128 0x13
 3083 027a 02       		.uleb128 0x2
 3084 027b 17       		.uleb128 0x17
 3085 027c 00       		.byte	0
 3086 027d 00       		.byte	0
 3087 027e 2F       		.uleb128 0x2f
 3088 027f 34       		.uleb128 0x34
 3089 0280 00       		.byte	0
 3090 0281 03       		.uleb128 0x3
 3091 0282 0E       		.uleb128 0xe
 3092 0283 3A       		.uleb128 0x3a
 3093 0284 0B       		.uleb128 0xb
 3094 0285 3B       		.uleb128 0x3b
 3095 0286 05       		.uleb128 0x5
 3096 0287 49       		.uleb128 0x49
 3097 0288 13       		.uleb128 0x13
 3098 0289 3F       		.uleb128 0x3f
 3099 028a 19       		.uleb128 0x19
 3100 028b 3C       		.uleb128 0x3c
 3101 028c 19       		.uleb128 0x19
 3102 028d 00       		.byte	0
 3103 028e 00       		.byte	0
 3104 028f 00       		.byte	0
 3105              		.section	.debug_loc,"",%progbits
 3106              	.Ldebug_loc0:
 3107              	.LLST0:
 3108 0000 00000000 		.4byte	.LVL0
 3109 0004 02000000 		.4byte	.LVL1
 3110 0008 0100     		.2byte	0x1
 3111 000a 51       		.byte	0x51
 3112 000b 02000000 		.4byte	.LVL1
 3113 000f 1C000000 		.4byte	.LFE10
 3114 0013 0400     		.2byte	0x4
 3115 0015 F3       		.byte	0xf3
 3116 0016 01       		.uleb128 0x1
 3117 0017 51       		.byte	0x51
 3118 0018 9F       		.byte	0x9f
 3119 0019 00000000 		.4byte	0
ARM GAS  C:\Users\Greg\AppData\Local\Temp\cceDExAc.s 			page 83


 3120 001d 00000000 		.4byte	0
 3121              	.LLST1:
 3122 0021 00000000 		.4byte	.LVL0
 3123 0025 16000000 		.4byte	.LVL2
 3124 0029 0100     		.2byte	0x1
 3125 002b 52       		.byte	0x52
 3126 002c 16000000 		.4byte	.LVL2
 3127 0030 1C000000 		.4byte	.LFE10
 3128 0034 0400     		.2byte	0x4
 3129 0036 F3       		.byte	0xf3
 3130 0037 01       		.uleb128 0x1
 3131 0038 52       		.byte	0x52
 3132 0039 9F       		.byte	0x9f
 3133 003a 00000000 		.4byte	0
 3134 003e 00000000 		.4byte	0
 3135              	.LLST2:
 3136 0042 00000000 		.4byte	.LVL3
 3137 0046 0A000000 		.4byte	.LVL5
 3138 004a 0100     		.2byte	0x1
 3139 004c 50       		.byte	0x50
 3140 004d 0A000000 		.4byte	.LVL5
 3141 0051 1C000000 		.4byte	.LVL11
 3142 0055 0100     		.2byte	0x1
 3143 0057 56       		.byte	0x56
 3144 0058 1C000000 		.4byte	.LVL11
 3145 005c 1E000000 		.4byte	.LFE9
 3146 0060 0400     		.2byte	0x4
 3147 0062 F3       		.byte	0xf3
 3148 0063 01       		.uleb128 0x1
 3149 0064 50       		.byte	0x50
 3150 0065 9F       		.byte	0x9f
 3151 0066 00000000 		.4byte	0
 3152 006a 00000000 		.4byte	0
 3153              	.LLST3:
 3154 006e 00000000 		.4byte	.LVL3
 3155 0072 0A000000 		.4byte	.LVL5
 3156 0076 0100     		.2byte	0x1
 3157 0078 51       		.byte	0x51
 3158 0079 0A000000 		.4byte	.LVL5
 3159 007d 1C000000 		.4byte	.LVL10
 3160 0081 0100     		.2byte	0x1
 3161 0083 55       		.byte	0x55
 3162 0084 1C000000 		.4byte	.LVL10
 3163 0088 1E000000 		.4byte	.LFE9
 3164 008c 0400     		.2byte	0x4
 3165 008e F3       		.byte	0xf3
 3166 008f 01       		.uleb128 0x1
 3167 0090 51       		.byte	0x51
 3168 0091 9F       		.byte	0x9f
 3169 0092 00000000 		.4byte	0
 3170 0096 00000000 		.4byte	0
 3171              	.LLST4:
 3172 009a 06000000 		.4byte	.LVL4
 3173 009e 0A000000 		.4byte	.LVL5
 3174 00a2 0200     		.2byte	0x2
 3175 00a4 31       		.byte	0x31
 3176 00a5 9F       		.byte	0x9f
ARM GAS  C:\Users\Greg\AppData\Local\Temp\cceDExAc.s 			page 84


 3177 00a6 0A000000 		.4byte	.LVL5
 3178 00aa 16000000 		.4byte	.LVL7
 3179 00ae 0100     		.2byte	0x1
 3180 00b0 54       		.byte	0x54
 3181 00b1 16000000 		.4byte	.LVL7
 3182 00b5 18000000 		.4byte	.LVL8
 3183 00b9 0100     		.2byte	0x1
 3184 00bb 53       		.byte	0x53
 3185 00bc 18000000 		.4byte	.LVL8
 3186 00c0 1C000000 		.4byte	.LVL9
 3187 00c4 0100     		.2byte	0x1
 3188 00c6 54       		.byte	0x54
 3189 00c7 1C000000 		.4byte	.LVL9
 3190 00cb 1E000000 		.4byte	.LFE9
 3191 00cf 0300     		.2byte	0x3
 3192 00d1 73       		.byte	0x73
 3193 00d2 7F       		.sleb128 -1
 3194 00d3 9F       		.byte	0x9f
 3195 00d4 00000000 		.4byte	0
 3196 00d8 00000000 		.4byte	0
 3197              	.LLST5:
 3198 00dc 00000000 		.4byte	.LVL12
 3199 00e0 18000000 		.4byte	.LVL17
 3200 00e4 0100     		.2byte	0x1
 3201 00e6 50       		.byte	0x50
 3202 00e7 18000000 		.4byte	.LVL17
 3203 00eb 3C000000 		.4byte	.LFE8
 3204 00ef 0400     		.2byte	0x4
 3205 00f1 F3       		.byte	0xf3
 3206 00f2 01       		.uleb128 0x1
 3207 00f3 50       		.byte	0x50
 3208 00f4 9F       		.byte	0x9f
 3209 00f5 00000000 		.4byte	0
 3210 00f9 00000000 		.4byte	0
 3211              	.LLST6:
 3212 00fd 00000000 		.4byte	.LVL12
 3213 0101 12000000 		.4byte	.LVL15
 3214 0105 0100     		.2byte	0x1
 3215 0107 51       		.byte	0x51
 3216 0108 12000000 		.4byte	.LVL15
 3217 010c 3C000000 		.4byte	.LFE8
 3218 0110 0400     		.2byte	0x4
 3219 0112 F3       		.byte	0xf3
 3220 0113 01       		.uleb128 0x1
 3221 0114 51       		.byte	0x51
 3222 0115 9F       		.byte	0x9f
 3223 0116 00000000 		.4byte	0
 3224 011a 00000000 		.4byte	0
 3225              	.LLST7:
 3226 011e 02000000 		.4byte	.LVL13
 3227 0122 0E000000 		.4byte	.LVL14
 3228 0126 0200     		.2byte	0x2
 3229 0128 30       		.byte	0x30
 3230 0129 9F       		.byte	0x9f
 3231 012a 0E000000 		.4byte	.LVL14
 3232 012e 34000000 		.4byte	.LVL23
 3233 0132 0100     		.2byte	0x1
ARM GAS  C:\Users\Greg\AppData\Local\Temp\cceDExAc.s 			page 85


 3234 0134 54       		.byte	0x54
 3235 0135 00000000 		.4byte	0
 3236 0139 00000000 		.4byte	0
 3237              	.LLST8:
 3238 013d 1E000000 		.4byte	.LVL18
 3239 0141 34000000 		.4byte	.LVL25
 3240 0145 0100     		.2byte	0x1
 3241 0147 56       		.byte	0x56
 3242 0148 00000000 		.4byte	0
 3243 014c 00000000 		.4byte	0
 3244              	.LLST9:
 3245 0150 1E000000 		.4byte	.LVL18
 3246 0154 34000000 		.4byte	.LVL23
 3247 0158 0100     		.2byte	0x1
 3248 015a 54       		.byte	0x54
 3249 015b 00000000 		.4byte	0
 3250 015f 00000000 		.4byte	0
 3251              	.LLST10:
 3252 0163 1E000000 		.4byte	.LVL18
 3253 0167 22000000 		.4byte	.LVL19
 3254 016b 0200     		.2byte	0x2
 3255 016d 31       		.byte	0x31
 3256 016e 9F       		.byte	0x9f
 3257 016f 22000000 		.4byte	.LVL19
 3258 0173 2E000000 		.4byte	.LVL21
 3259 0177 0100     		.2byte	0x1
 3260 0179 55       		.byte	0x55
 3261 017a 2E000000 		.4byte	.LVL21
 3262 017e 30000000 		.4byte	.LVL22
 3263 0182 0100     		.2byte	0x1
 3264 0184 53       		.byte	0x53
 3265 0185 30000000 		.4byte	.LVL22
 3266 0189 34000000 		.4byte	.LVL24
 3267 018d 0100     		.2byte	0x1
 3268 018f 55       		.byte	0x55
 3269 0190 34000000 		.4byte	.LVL24
 3270 0194 3C000000 		.4byte	.LFE8
 3271 0198 0300     		.2byte	0x3
 3272 019a 73       		.byte	0x73
 3273 019b 7F       		.sleb128 -1
 3274 019c 9F       		.byte	0x9f
 3275 019d 00000000 		.4byte	0
 3276 01a1 00000000 		.4byte	0
 3277              	.LLST11:
 3278 01a5 00000000 		.4byte	.LVL26
 3279 01a9 12000000 		.4byte	.LVL29
 3280 01ad 0100     		.2byte	0x1
 3281 01af 50       		.byte	0x50
 3282 01b0 12000000 		.4byte	.LVL29
 3283 01b4 22000000 		.4byte	.LVL34
 3284 01b8 0100     		.2byte	0x1
 3285 01ba 55       		.byte	0x55
 3286 01bb 22000000 		.4byte	.LVL34
 3287 01bf 28000000 		.4byte	.LFE7
 3288 01c3 0400     		.2byte	0x4
 3289 01c5 F3       		.byte	0xf3
 3290 01c6 01       		.uleb128 0x1
ARM GAS  C:\Users\Greg\AppData\Local\Temp\cceDExAc.s 			page 86


 3291 01c7 50       		.byte	0x50
 3292 01c8 9F       		.byte	0x9f
 3293 01c9 00000000 		.4byte	0
 3294 01cd 00000000 		.4byte	0
 3295              	.LLST12:
 3296 01d1 10000000 		.4byte	.LVL28
 3297 01d5 12000000 		.4byte	.LVL29
 3298 01d9 0100     		.2byte	0x1
 3299 01db 53       		.byte	0x53
 3300 01dc 12000000 		.4byte	.LVL29
 3301 01e0 1C000000 		.4byte	.LVL31
 3302 01e4 0100     		.2byte	0x1
 3303 01e6 54       		.byte	0x54
 3304 01e7 1C000000 		.4byte	.LVL31
 3305 01eb 1E000000 		.4byte	.LVL32
 3306 01ef 0100     		.2byte	0x1
 3307 01f1 53       		.byte	0x53
 3308 01f2 1E000000 		.4byte	.LVL32
 3309 01f6 22000000 		.4byte	.LVL33
 3310 01fa 0100     		.2byte	0x1
 3311 01fc 54       		.byte	0x54
 3312 01fd 22000000 		.4byte	.LVL33
 3313 0201 28000000 		.4byte	.LFE7
 3314 0205 0300     		.2byte	0x3
 3315 0207 73       		.byte	0x73
 3316 0208 7F       		.sleb128 -1
 3317 0209 9F       		.byte	0x9f
 3318 020a 00000000 		.4byte	0
 3319 020e 00000000 		.4byte	0
 3320              	.LLST13:
 3321 0212 10000000 		.4byte	.LVL28
 3322 0216 12000000 		.4byte	.LVL29
 3323 021a 0100     		.2byte	0x1
 3324 021c 53       		.byte	0x53
 3325 021d 00000000 		.4byte	0
 3326 0221 00000000 		.4byte	0
 3327              	.LLST14:
 3328 0225 02000000 		.4byte	.LVL35
 3329 0229 06000000 		.4byte	.LVL36
 3330 022d 0200     		.2byte	0x2
 3331 022f 31       		.byte	0x31
 3332 0230 9F       		.byte	0x9f
 3333 0231 06000000 		.4byte	.LVL36
 3334 0235 0E000000 		.4byte	.LVL38
 3335 0239 0100     		.2byte	0x1
 3336 023b 54       		.byte	0x54
 3337 023c 0E000000 		.4byte	.LVL38
 3338 0240 10000000 		.4byte	.LVL39
 3339 0244 0100     		.2byte	0x1
 3340 0246 53       		.byte	0x53
 3341 0247 10000000 		.4byte	.LVL39
 3342 024b 14000000 		.4byte	.LVL40
 3343 024f 0100     		.2byte	0x1
 3344 0251 54       		.byte	0x54
 3345 0252 14000000 		.4byte	.LVL40
 3346 0256 16000000 		.4byte	.LFE6
 3347 025a 0300     		.2byte	0x3
ARM GAS  C:\Users\Greg\AppData\Local\Temp\cceDExAc.s 			page 87


 3348 025c 73       		.byte	0x73
 3349 025d 7F       		.sleb128 -1
 3350 025e 9F       		.byte	0x9f
 3351 025f 00000000 		.4byte	0
 3352 0263 00000000 		.4byte	0
 3353              	.LLST15:
 3354 0267 02000000 		.4byte	.LVL42
 3355 026b 06000000 		.4byte	.LVL43
 3356 026f 0200     		.2byte	0x2
 3357 0271 31       		.byte	0x31
 3358 0272 9F       		.byte	0x9f
 3359 0273 06000000 		.4byte	.LVL43
 3360 0277 14000000 		.4byte	.LVL44
 3361 027b 0100     		.2byte	0x1
 3362 027d 54       		.byte	0x54
 3363 027e 14000000 		.4byte	.LVL44
 3364 0282 16000000 		.4byte	.LVL45
 3365 0286 0100     		.2byte	0x1
 3366 0288 53       		.byte	0x53
 3367 0289 16000000 		.4byte	.LVL45
 3368 028d 1A000000 		.4byte	.LVL46
 3369 0291 0100     		.2byte	0x1
 3370 0293 54       		.byte	0x54
 3371 0294 1A000000 		.4byte	.LVL46
 3372 0298 1C000000 		.4byte	.LFE13
 3373 029c 0300     		.2byte	0x3
 3374 029e 73       		.byte	0x73
 3375 029f 7F       		.sleb128 -1
 3376 02a0 9F       		.byte	0x9f
 3377 02a1 00000000 		.4byte	0
 3378 02a5 00000000 		.4byte	0
 3379              	.LLST16:
 3380 02a9 02000000 		.4byte	.LVL47
 3381 02ad 06000000 		.4byte	.LVL48
 3382 02b1 0200     		.2byte	0x2
 3383 02b3 31       		.byte	0x31
 3384 02b4 9F       		.byte	0x9f
 3385 02b5 06000000 		.4byte	.LVL48
 3386 02b9 46000000 		.4byte	.LVL57
 3387 02bd 0100     		.2byte	0x1
 3388 02bf 55       		.byte	0x55
 3389 02c0 46000000 		.4byte	.LVL57
 3390 02c4 48000000 		.4byte	.LVL58
 3391 02c8 0100     		.2byte	0x1
 3392 02ca 53       		.byte	0x53
 3393 02cb 48000000 		.4byte	.LVL58
 3394 02cf 4C000000 		.4byte	.LVL59
 3395 02d3 0100     		.2byte	0x1
 3396 02d5 55       		.byte	0x55
 3397 02d6 4C000000 		.4byte	.LVL59
 3398 02da 54000000 		.4byte	.LFE1
 3399 02de 0300     		.2byte	0x3
 3400 02e0 73       		.byte	0x73
 3401 02e1 7F       		.sleb128 -1
 3402 02e2 9F       		.byte	0x9f
 3403 02e3 00000000 		.4byte	0
 3404 02e7 00000000 		.4byte	0
ARM GAS  C:\Users\Greg\AppData\Local\Temp\cceDExAc.s 			page 88


 3405              	.LLST17:
 3406 02eb 12000000 		.4byte	.LVL49
 3407 02ef 14000000 		.4byte	.LVL50
 3408 02f3 0100     		.2byte	0x1
 3409 02f5 53       		.byte	0x53
 3410 02f6 14000000 		.4byte	.LVL50
 3411 02fa 3E000000 		.4byte	.LVL55
 3412 02fe 0100     		.2byte	0x1
 3413 0300 54       		.byte	0x54
 3414 0301 3E000000 		.4byte	.LVL55
 3415 0305 40000000 		.4byte	.LVL56
 3416 0309 0100     		.2byte	0x1
 3417 030b 53       		.byte	0x53
 3418 030c 40000000 		.4byte	.LVL56
 3419 0310 46000000 		.4byte	.LVL57
 3420 0314 0100     		.2byte	0x1
 3421 0316 54       		.byte	0x54
 3422 0317 00000000 		.4byte	0
 3423 031b 00000000 		.4byte	0
 3424              	.LLST18:
 3425 031f 12000000 		.4byte	.LVL49
 3426 0323 14000000 		.4byte	.LVL50
 3427 0327 0100     		.2byte	0x1
 3428 0329 53       		.byte	0x53
 3429 032a 00000000 		.4byte	0
 3430 032e 00000000 		.4byte	0
 3431              	.LLST19:
 3432 0332 02000000 		.4byte	.LVL47
 3433 0336 06000000 		.4byte	.LVL48
 3434 033a 0200     		.2byte	0x2
 3435 033c 30       		.byte	0x30
 3436 033d 9F       		.byte	0x9f
 3437 033e 1E000000 		.4byte	.LVL51
 3438 0342 2A000000 		.4byte	.LVL52
 3439 0346 0200     		.2byte	0x2
 3440 0348 73       		.byte	0x73
 3441 0349 08       		.sleb128 8
 3442 034a 2A000000 		.4byte	.LVL52
 3443 034e 3B000000 		.4byte	.LVL54-1
 3444 0352 0100     		.2byte	0x1
 3445 0354 51       		.byte	0x51
 3446 0355 00000000 		.4byte	0
 3447 0359 00000000 		.4byte	0
 3448              	.LLST20:
 3449 035d 00000000 		.4byte	.LVL60
 3450 0361 2E000000 		.4byte	.LVL67
 3451 0365 0100     		.2byte	0x1
 3452 0367 50       		.byte	0x50
 3453 0368 2E000000 		.4byte	.LVL67
 3454 036c 3C000000 		.4byte	.LFE11
 3455 0370 0400     		.2byte	0x4
 3456 0372 F3       		.byte	0xf3
 3457 0373 01       		.uleb128 0x1
 3458 0374 50       		.byte	0x50
 3459 0375 9F       		.byte	0x9f
 3460 0376 00000000 		.4byte	0
 3461 037a 00000000 		.4byte	0
ARM GAS  C:\Users\Greg\AppData\Local\Temp\cceDExAc.s 			page 89


 3462              	.LLST21:
 3463 037e 00000000 		.4byte	.LVL60
 3464 0382 2A000000 		.4byte	.LVL65
 3465 0386 0100     		.2byte	0x1
 3466 0388 51       		.byte	0x51
 3467 0389 2A000000 		.4byte	.LVL65
 3468 038d 3C000000 		.4byte	.LFE11
 3469 0391 0400     		.2byte	0x4
 3470 0393 F3       		.byte	0xf3
 3471 0394 01       		.uleb128 0x1
 3472 0395 51       		.byte	0x51
 3473 0396 9F       		.byte	0x9f
 3474 0397 00000000 		.4byte	0
 3475 039b 00000000 		.4byte	0
 3476              	.LLST22:
 3477 039f 02000000 		.4byte	.LVL61
 3478 03a3 0C000000 		.4byte	.LVL62
 3479 03a7 0200     		.2byte	0x2
 3480 03a9 30       		.byte	0x30
 3481 03aa 9F       		.byte	0x9f
 3482 03ab 0C000000 		.4byte	.LVL62
 3483 03af 18000000 		.4byte	.LVL63
 3484 03b3 0200     		.2byte	0x2
 3485 03b5 75       		.byte	0x75
 3486 03b6 08       		.sleb128 8
 3487 03b7 18000000 		.4byte	.LVL63
 3488 03bb 34000000 		.4byte	.LVL69
 3489 03bf 0100     		.2byte	0x1
 3490 03c1 54       		.byte	0x54
 3491 03c2 34000000 		.4byte	.LVL69
 3492 03c6 34000000 		.4byte	.LVL71
 3493 03ca 1E00     		.2byte	0x1e
 3494 03cc F3       		.byte	0xf3
 3495 03cd 01       		.uleb128 0x1
 3496 03ce 51       		.byte	0x51
 3497 03cf 32       		.byte	0x32
 3498 03d0 24       		.byte	0x24
 3499 03d1 F3       		.byte	0xf3
 3500 03d2 01       		.uleb128 0x1
 3501 03d3 51       		.byte	0x51
 3502 03d4 22       		.byte	0x22
 3503 03d5 31       		.byte	0x31
 3504 03d6 24       		.byte	0x24
 3505 03d7 F3       		.byte	0xf3
 3506 03d8 01       		.uleb128 0x1
 3507 03d9 50       		.byte	0x50
 3508 03da 33       		.byte	0x33
 3509 03db 24       		.byte	0x24
 3510 03dc F3       		.byte	0xf3
 3511 03dd 01       		.uleb128 0x1
 3512 03de 50       		.byte	0x50
 3513 03df 1C       		.byte	0x1c
 3514 03e0 32       		.byte	0x32
 3515 03e1 24       		.byte	0x24
 3516 03e2 76       		.byte	0x76
 3517 03e3 00       		.sleb128 0
 3518 03e4 22       		.byte	0x22
ARM GAS  C:\Users\Greg\AppData\Local\Temp\cceDExAc.s 			page 90


 3519 03e5 23       		.byte	0x23
 3520 03e6 08       		.uleb128 0x8
 3521 03e7 06       		.byte	0x6
 3522 03e8 22       		.byte	0x22
 3523 03e9 9F       		.byte	0x9f
 3524 03ea 00000000 		.4byte	0
 3525 03ee 00000000 		.4byte	0
 3526              	.LLST23:
 3527 03f2 2C000000 		.4byte	.LVL66
 3528 03f6 34000000 		.4byte	.LVL70
 3529 03fa 0100     		.2byte	0x1
 3530 03fc 55       		.byte	0x55
 3531 03fd 00000000 		.4byte	0
 3532 0401 00000000 		.4byte	0
 3533              	.LLST24:
 3534 0405 00000000 		.4byte	.LVL72
 3535 0409 02000000 		.4byte	.LVL73
 3536 040d 0100     		.2byte	0x1
 3537 040f 50       		.byte	0x50
 3538 0410 02000000 		.4byte	.LVL73
 3539 0414 14000000 		.4byte	.LFE17
 3540 0418 0400     		.2byte	0x4
 3541 041a F3       		.byte	0xf3
 3542 041b 01       		.uleb128 0x1
 3543 041c 50       		.byte	0x50
 3544 041d 9F       		.byte	0x9f
 3545 041e 00000000 		.4byte	0
 3546 0422 00000000 		.4byte	0
 3547              	.LLST25:
 3548 0426 00000000 		.4byte	.LVL72
 3549 042a 0E000000 		.4byte	.LVL75
 3550 042e 0100     		.2byte	0x1
 3551 0430 51       		.byte	0x51
 3552 0431 0E000000 		.4byte	.LVL75
 3553 0435 14000000 		.4byte	.LFE17
 3554 0439 0400     		.2byte	0x4
 3555 043b F3       		.byte	0xf3
 3556 043c 01       		.uleb128 0x1
 3557 043d 51       		.byte	0x51
 3558 043e 9F       		.byte	0x9f
 3559 043f 00000000 		.4byte	0
 3560 0443 00000000 		.4byte	0
 3561              	.LLST26:
 3562 0447 00000000 		.4byte	.LVL72
 3563 044b 04000000 		.4byte	.LVL74
 3564 044f 0100     		.2byte	0x1
 3565 0451 53       		.byte	0x53
 3566 0452 04000000 		.4byte	.LVL74
 3567 0456 14000000 		.4byte	.LFE17
 3568 045a 0400     		.2byte	0x4
 3569 045c F3       		.byte	0xf3
 3570 045d 01       		.uleb128 0x1
 3571 045e 53       		.byte	0x53
 3572 045f 9F       		.byte	0x9f
 3573 0460 00000000 		.4byte	0
 3574 0464 00000000 		.4byte	0
 3575              	.LLST27:
ARM GAS  C:\Users\Greg\AppData\Local\Temp\cceDExAc.s 			page 91


 3576 0468 00000000 		.4byte	.LVL77
 3577 046c 0E000000 		.4byte	.LVL79
 3578 0470 0100     		.2byte	0x1
 3579 0472 50       		.byte	0x50
 3580 0473 0E000000 		.4byte	.LVL79
 3581 0477 90000000 		.4byte	.LVL98
 3582 047b 0100     		.2byte	0x1
 3583 047d 57       		.byte	0x57
 3584 047e 90000000 		.4byte	.LVL98
 3585 0482 92000000 		.4byte	.LFE5
 3586 0486 0400     		.2byte	0x4
 3587 0488 F3       		.byte	0xf3
 3588 0489 01       		.uleb128 0x1
 3589 048a 50       		.byte	0x50
 3590 048b 9F       		.byte	0x9f
 3591 048c 00000000 		.4byte	0
 3592 0490 00000000 		.4byte	0
 3593              	.LLST28:
 3594 0494 00000000 		.4byte	.LVL77
 3595 0498 0E000000 		.4byte	.LVL79
 3596 049c 0100     		.2byte	0x1
 3597 049e 51       		.byte	0x51
 3598 049f 0E000000 		.4byte	.LVL79
 3599 04a3 90000000 		.4byte	.LVL97
 3600 04a7 0100     		.2byte	0x1
 3601 04a9 56       		.byte	0x56
 3602 04aa 90000000 		.4byte	.LVL97
 3603 04ae 92000000 		.4byte	.LFE5
 3604 04b2 0400     		.2byte	0x4
 3605 04b4 F3       		.byte	0xf3
 3606 04b5 01       		.uleb128 0x1
 3607 04b6 51       		.byte	0x51
 3608 04b7 9F       		.byte	0x9f
 3609 04b8 00000000 		.4byte	0
 3610 04bc 00000000 		.4byte	0
 3611              	.LLST29:
 3612 04c0 00000000 		.4byte	.LVL77
 3613 04c4 0E000000 		.4byte	.LVL79
 3614 04c8 0100     		.2byte	0x1
 3615 04ca 52       		.byte	0x52
 3616 04cb 0E000000 		.4byte	.LVL79
 3617 04cf 92000000 		.4byte	.LFE5
 3618 04d3 0400     		.2byte	0x4
 3619 04d5 F3       		.byte	0xf3
 3620 04d6 01       		.uleb128 0x1
 3621 04d7 52       		.byte	0x52
 3622 04d8 9F       		.byte	0x9f
 3623 04d9 00000000 		.4byte	0
 3624 04dd 00000000 		.4byte	0
 3625              	.LLST30:
 3626 04e1 1C000000 		.4byte	.LVL80
 3627 04e5 26000000 		.4byte	.LVL81
 3628 04e9 0200     		.2byte	0x2
 3629 04eb 31       		.byte	0x31
 3630 04ec 9F       		.byte	0x9f
 3631 04ed 28000000 		.4byte	.LVL82
 3632 04f1 2A000000 		.4byte	.LVL83
ARM GAS  C:\Users\Greg\AppData\Local\Temp\cceDExAc.s 			page 92


 3633 04f5 0200     		.2byte	0x2
 3634 04f7 30       		.byte	0x30
 3635 04f8 9F       		.byte	0x9f
 3636 04f9 2A000000 		.4byte	.LVL83
 3637 04fd 3A000000 		.4byte	.LVL85
 3638 0501 0100     		.2byte	0x1
 3639 0503 52       		.byte	0x52
 3640 0504 52000000 		.4byte	.LVL87
 3641 0508 74000000 		.4byte	.LVL91
 3642 050c 0100     		.2byte	0x1
 3643 050e 52       		.byte	0x52
 3644 050f 00000000 		.4byte	0
 3645 0513 00000000 		.4byte	0
 3646              	.LLST31:
 3647 0517 1C000000 		.4byte	.LVL80
 3648 051b 26000000 		.4byte	.LVL81
 3649 051f 0100     		.2byte	0x1
 3650 0521 53       		.byte	0x53
 3651 0522 28000000 		.4byte	.LVL82
 3652 0526 36000000 		.4byte	.LVL84
 3653 052a 0100     		.2byte	0x1
 3654 052c 53       		.byte	0x53
 3655 052d 52000000 		.4byte	.LVL87
 3656 0531 64000000 		.4byte	.LVL88
 3657 0535 0100     		.2byte	0x1
 3658 0537 53       		.byte	0x53
 3659 0538 00000000 		.4byte	0
 3660 053c 00000000 		.4byte	0
 3661              	.LLST32:
 3662 0540 0A000000 		.4byte	.LVL78
 3663 0544 0E000000 		.4byte	.LVL79
 3664 0548 0200     		.2byte	0x2
 3665 054a 31       		.byte	0x31
 3666 054b 9F       		.byte	0x9f
 3667 054c 0E000000 		.4byte	.LVL79
 3668 0550 86000000 		.4byte	.LVL94
 3669 0554 0100     		.2byte	0x1
 3670 0556 54       		.byte	0x54
 3671 0557 86000000 		.4byte	.LVL94
 3672 055b 88000000 		.4byte	.LVL95
 3673 055f 0100     		.2byte	0x1
 3674 0561 53       		.byte	0x53
 3675 0562 88000000 		.4byte	.LVL95
 3676 0566 90000000 		.4byte	.LVL96
 3677 056a 0100     		.2byte	0x1
 3678 056c 54       		.byte	0x54
 3679 056d 90000000 		.4byte	.LVL96
 3680 0571 92000000 		.4byte	.LFE5
 3681 0575 0300     		.2byte	0x3
 3682 0577 73       		.byte	0x73
 3683 0578 7F       		.sleb128 -1
 3684 0579 9F       		.byte	0x9f
 3685 057a 00000000 		.4byte	0
 3686 057e 00000000 		.4byte	0
 3687              	.LLST33:
 3688 0582 6C000000 		.4byte	.LVL89
 3689 0586 79000000 		.4byte	.LVL92-1
ARM GAS  C:\Users\Greg\AppData\Local\Temp\cceDExAc.s 			page 93


 3690 058a 0100     		.2byte	0x1
 3691 058c 51       		.byte	0x51
 3692 058d 7A000000 		.4byte	.LVL92
 3693 0591 84000000 		.4byte	.LVL93
 3694 0595 0100     		.2byte	0x1
 3695 0597 50       		.byte	0x50
 3696 0598 00000000 		.4byte	0
 3697 059c 00000000 		.4byte	0
 3698              	.LLST34:
 3699 05a0 00000000 		.4byte	.LVL99
 3700 05a4 22000000 		.4byte	.LVL105
 3701 05a8 0100     		.2byte	0x1
 3702 05aa 50       		.byte	0x50
 3703 05ab 22000000 		.4byte	.LVL105
 3704 05af 2C000000 		.4byte	.LFE4
 3705 05b3 0400     		.2byte	0x4
 3706 05b5 F3       		.byte	0xf3
 3707 05b6 01       		.uleb128 0x1
 3708 05b7 50       		.byte	0x50
 3709 05b8 9F       		.byte	0x9f
 3710 05b9 00000000 		.4byte	0
 3711 05bd 00000000 		.4byte	0
 3712              	.LLST35:
 3713 05c1 00000000 		.4byte	.LVL99
 3714 05c5 14000000 		.4byte	.LVL103
 3715 05c9 0100     		.2byte	0x1
 3716 05cb 51       		.byte	0x51
 3717 05cc 14000000 		.4byte	.LVL103
 3718 05d0 2C000000 		.4byte	.LFE4
 3719 05d4 0400     		.2byte	0x4
 3720 05d6 F3       		.byte	0xf3
 3721 05d7 01       		.uleb128 0x1
 3722 05d8 51       		.byte	0x51
 3723 05d9 9F       		.byte	0x9f
 3724 05da 00000000 		.4byte	0
 3725 05de 00000000 		.4byte	0
 3726              	.LLST36:
 3727 05e2 02000000 		.4byte	.LVL100
 3728 05e6 26000000 		.4byte	.LVL106
 3729 05ea 0200     		.2byte	0x2
 3730 05ec 30       		.byte	0x30
 3731 05ed 9F       		.byte	0x9f
 3732 05ee 26000000 		.4byte	.LVL106
 3733 05f2 2C000000 		.4byte	.LFE4
 3734 05f6 0100     		.2byte	0x1
 3735 05f8 50       		.byte	0x50
 3736 05f9 00000000 		.4byte	0
 3737 05fd 00000000 		.4byte	0
 3738              	.LLST37:
 3739 0601 02000000 		.4byte	.LVL100
 3740 0605 10000000 		.4byte	.LVL102
 3741 0609 0200     		.2byte	0x2
 3742 060b 30       		.byte	0x30
 3743 060c 9F       		.byte	0x9f
 3744 060d 10000000 		.4byte	.LVL102
 3745 0611 18000000 		.4byte	.LVL104
 3746 0615 0100     		.2byte	0x1
ARM GAS  C:\Users\Greg\AppData\Local\Temp\cceDExAc.s 			page 94


 3747 0617 53       		.byte	0x53
 3748 0618 18000000 		.4byte	.LVL104
 3749 061c 25000000 		.4byte	.LVL106-1
 3750 0620 0100     		.2byte	0x1
 3751 0622 51       		.byte	0x51
 3752 0623 25000000 		.4byte	.LVL106-1
 3753 0627 26000000 		.4byte	.LVL107
 3754 062b 1B00     		.2byte	0x1b
 3755 062d 74       		.byte	0x74
 3756 062e 00       		.sleb128 0
 3757 062f F3       		.byte	0xf3
 3758 0630 01       		.uleb128 0x1
 3759 0631 51       		.byte	0x51
 3760 0632 22       		.byte	0x22
 3761 0633 31       		.byte	0x31
 3762 0634 24       		.byte	0x24
 3763 0635 F3       		.byte	0xf3
 3764 0636 01       		.uleb128 0x1
 3765 0637 50       		.byte	0x50
 3766 0638 33       		.byte	0x33
 3767 0639 24       		.byte	0x24
 3768 063a F3       		.byte	0xf3
 3769 063b 01       		.uleb128 0x1
 3770 063c 50       		.byte	0x50
 3771 063d 1C       		.byte	0x1c
 3772 063e 32       		.byte	0x32
 3773 063f 24       		.byte	0x24
 3774 0640 75       		.byte	0x75
 3775 0641 00       		.sleb128 0
 3776 0642 22       		.byte	0x22
 3777 0643 23       		.byte	0x23
 3778 0644 08       		.uleb128 0x8
 3779 0645 06       		.byte	0x6
 3780 0646 22       		.byte	0x22
 3781 0647 9F       		.byte	0x9f
 3782 0648 26000000 		.4byte	.LVL107
 3783 064c 26000000 		.4byte	.LVL108
 3784 0650 1E00     		.2byte	0x1e
 3785 0652 F3       		.byte	0xf3
 3786 0653 01       		.uleb128 0x1
 3787 0654 51       		.byte	0x51
 3788 0655 32       		.byte	0x32
 3789 0656 24       		.byte	0x24
 3790 0657 F3       		.byte	0xf3
 3791 0658 01       		.uleb128 0x1
 3792 0659 51       		.byte	0x51
 3793 065a 22       		.byte	0x22
 3794 065b 31       		.byte	0x31
 3795 065c 24       		.byte	0x24
 3796 065d F3       		.byte	0xf3
 3797 065e 01       		.uleb128 0x1
 3798 065f 50       		.byte	0x50
 3799 0660 33       		.byte	0x33
 3800 0661 24       		.byte	0x24
 3801 0662 F3       		.byte	0xf3
 3802 0663 01       		.uleb128 0x1
 3803 0664 50       		.byte	0x50
ARM GAS  C:\Users\Greg\AppData\Local\Temp\cceDExAc.s 			page 95


 3804 0665 1C       		.byte	0x1c
 3805 0666 32       		.byte	0x32
 3806 0667 24       		.byte	0x24
 3807 0668 75       		.byte	0x75
 3808 0669 00       		.sleb128 0
 3809 066a 22       		.byte	0x22
 3810 066b 23       		.byte	0x23
 3811 066c 08       		.uleb128 0x8
 3812 066d 06       		.byte	0x6
 3813 066e 22       		.byte	0x22
 3814 066f 9F       		.byte	0x9f
 3815 0670 00000000 		.4byte	0
 3816 0674 00000000 		.4byte	0
 3817              	.LLST38:
 3818 0678 0E000000 		.4byte	.LVL101
 3819 067c 26000000 		.4byte	.LVL109
 3820 0680 0100     		.2byte	0x1
 3821 0682 56       		.byte	0x56
 3822 0683 00000000 		.4byte	0
 3823 0687 00000000 		.4byte	0
 3824              	.LLST39:
 3825 068b 00000000 		.4byte	.LVL110
 3826 068f 14000000 		.4byte	.LVL113
 3827 0693 0100     		.2byte	0x1
 3828 0695 50       		.byte	0x50
 3829 0696 14000000 		.4byte	.LVL113
 3830 069a 28000000 		.4byte	.LVL120
 3831 069e 0100     		.2byte	0x1
 3832 06a0 56       		.byte	0x56
 3833 06a1 28000000 		.4byte	.LVL120
 3834 06a5 30000000 		.4byte	.LFE3
 3835 06a9 0400     		.2byte	0x4
 3836 06ab F3       		.byte	0xf3
 3837 06ac 01       		.uleb128 0x1
 3838 06ad 50       		.byte	0x50
 3839 06ae 9F       		.byte	0x9f
 3840 06af 00000000 		.4byte	0
 3841 06b3 00000000 		.4byte	0
 3842              	.LLST40:
 3843 06b7 10000000 		.4byte	.LVL112
 3844 06bb 14000000 		.4byte	.LVL113
 3845 06bf 0100     		.2byte	0x1
 3846 06c1 53       		.byte	0x53
 3847 06c2 14000000 		.4byte	.LVL113
 3848 06c6 20000000 		.4byte	.LVL116
 3849 06ca 0100     		.2byte	0x1
 3850 06cc 54       		.byte	0x54
 3851 06cd 20000000 		.4byte	.LVL116
 3852 06d1 22000000 		.4byte	.LVL117
 3853 06d5 0100     		.2byte	0x1
 3854 06d7 53       		.byte	0x53
 3855 06d8 22000000 		.4byte	.LVL117
 3856 06dc 28000000 		.4byte	.LVL118
 3857 06e0 0100     		.2byte	0x1
 3858 06e2 54       		.byte	0x54
 3859 06e3 28000000 		.4byte	.LVL118
 3860 06e7 30000000 		.4byte	.LFE3
ARM GAS  C:\Users\Greg\AppData\Local\Temp\cceDExAc.s 			page 96


 3861 06eb 0300     		.2byte	0x3
 3862 06ed 73       		.byte	0x73
 3863 06ee 7F       		.sleb128 -1
 3864 06ef 9F       		.byte	0x9f
 3865 06f0 00000000 		.4byte	0
 3866 06f4 00000000 		.4byte	0
 3867              	.LLST41:
 3868 06f8 10000000 		.4byte	.LVL112
 3869 06fc 14000000 		.4byte	.LVL113
 3870 0700 0100     		.2byte	0x1
 3871 0702 53       		.byte	0x53
 3872 0703 00000000 		.4byte	0
 3873 0707 00000000 		.4byte	0
 3874              	.LLST42:
 3875 070b 04000000 		.4byte	.LVL111
 3876 070f 14000000 		.4byte	.LVL113
 3877 0713 0200     		.2byte	0x2
 3878 0715 30       		.byte	0x30
 3879 0716 9F       		.byte	0x9f
 3880 0717 14000000 		.4byte	.LVL113
 3881 071b 28000000 		.4byte	.LVL119
 3882 071f 0100     		.2byte	0x1
 3883 0721 55       		.byte	0x55
 3884 0722 28000000 		.4byte	.LVL119
 3885 0726 30000000 		.4byte	.LFE3
 3886 072a 0100     		.2byte	0x1
 3887 072c 50       		.byte	0x50
 3888 072d 00000000 		.4byte	0
 3889 0731 00000000 		.4byte	0
 3890              	.LLST43:
 3891 0735 02000000 		.4byte	.LVL121
 3892 0739 08000000 		.4byte	.LVL122
 3893 073d 0200     		.2byte	0x2
 3894 073f 31       		.byte	0x31
 3895 0740 9F       		.byte	0x9f
 3896 0741 08000000 		.4byte	.LVL122
 3897 0745 12000000 		.4byte	.LVL125
 3898 0749 0100     		.2byte	0x1
 3899 074b 55       		.byte	0x55
 3900 074c 12000000 		.4byte	.LVL125
 3901 0750 14000000 		.4byte	.LVL126
 3902 0754 0100     		.2byte	0x1
 3903 0756 53       		.byte	0x53
 3904 0757 14000000 		.4byte	.LVL126
 3905 075b 1A000000 		.4byte	.LVL128
 3906 075f 0100     		.2byte	0x1
 3907 0761 55       		.byte	0x55
 3908 0762 1A000000 		.4byte	.LVL128
 3909 0766 1C000000 		.4byte	.LFE2
 3910 076a 0300     		.2byte	0x3
 3911 076c 73       		.byte	0x73
 3912 076d 7F       		.sleb128 -1
 3913 076e 9F       		.byte	0x9f
 3914 076f 00000000 		.4byte	0
 3915 0773 00000000 		.4byte	0
 3916              	.LLST44:
 3917 0777 02000000 		.4byte	.LVL121
ARM GAS  C:\Users\Greg\AppData\Local\Temp\cceDExAc.s 			page 97


 3918 077b 08000000 		.4byte	.LVL122
 3919 077f 0200     		.2byte	0x2
 3920 0781 30       		.byte	0x30
 3921 0782 9F       		.byte	0x9f
 3922 0783 08000000 		.4byte	.LVL122
 3923 0787 1A000000 		.4byte	.LVL127
 3924 078b 0100     		.2byte	0x1
 3925 078d 54       		.byte	0x54
 3926 078e 1A000000 		.4byte	.LVL127
 3927 0792 1C000000 		.4byte	.LFE2
 3928 0796 0100     		.2byte	0x1
 3929 0798 50       		.byte	0x50
 3930 0799 00000000 		.4byte	0
 3931 079d 00000000 		.4byte	0
 3932              	.LLST45:
 3933 07a1 00000000 		.4byte	.LVL129
 3934 07a5 1A000000 		.4byte	.LVL132
 3935 07a9 0100     		.2byte	0x1
 3936 07ab 50       		.byte	0x50
 3937 07ac 1A000000 		.4byte	.LVL132
 3938 07b0 36000000 		.4byte	.LFE14
 3939 07b4 0100     		.2byte	0x1
 3940 07b6 56       		.byte	0x56
 3941 07b7 00000000 		.4byte	0
 3942 07bb 00000000 		.4byte	0
 3943              	.LLST46:
 3944 07bf 00000000 		.4byte	.LVL129
 3945 07c3 0E000000 		.4byte	.LVL131
 3946 07c7 0100     		.2byte	0x1
 3947 07c9 51       		.byte	0x51
 3948 07ca 0E000000 		.4byte	.LVL131
 3949 07ce 34000000 		.4byte	.LVL138
 3950 07d2 0100     		.2byte	0x1
 3951 07d4 57       		.byte	0x57
 3952 07d5 34000000 		.4byte	.LVL138
 3953 07d9 36000000 		.4byte	.LFE14
 3954 07dd 0400     		.2byte	0x4
 3955 07df F3       		.byte	0xf3
 3956 07e0 01       		.uleb128 0x1
 3957 07e1 51       		.byte	0x51
 3958 07e2 9F       		.byte	0x9f
 3959 07e3 00000000 		.4byte	0
 3960 07e7 00000000 		.4byte	0
 3961              	.LLST47:
 3962 07eb 00000000 		.4byte	.LVL129
 3963 07ef 0E000000 		.4byte	.LVL131
 3964 07f3 0100     		.2byte	0x1
 3965 07f5 52       		.byte	0x52
 3966 07f6 0E000000 		.4byte	.LVL131
 3967 07fa 36000000 		.4byte	.LFE14
 3968 07fe 0200     		.2byte	0x2
 3969 0800 91       		.byte	0x91
 3970 0801 64       		.sleb128 -28
 3971 0802 00000000 		.4byte	0
 3972 0806 00000000 		.4byte	0
 3973              	.LLST48:
 3974 080a 0A000000 		.4byte	.LVL130
ARM GAS  C:\Users\Greg\AppData\Local\Temp\cceDExAc.s 			page 98


 3975 080e 0E000000 		.4byte	.LVL131
 3976 0812 0200     		.2byte	0x2
 3977 0814 31       		.byte	0x31
 3978 0815 9F       		.byte	0x9f
 3979 0816 0E000000 		.4byte	.LVL131
 3980 081a 2C000000 		.4byte	.LVL135
 3981 081e 0100     		.2byte	0x1
 3982 0820 54       		.byte	0x54
 3983 0821 2C000000 		.4byte	.LVL135
 3984 0825 2E000000 		.4byte	.LVL136
 3985 0829 0100     		.2byte	0x1
 3986 082b 53       		.byte	0x53
 3987 082c 2E000000 		.4byte	.LVL136
 3988 0830 34000000 		.4byte	.LVL137
 3989 0834 0100     		.2byte	0x1
 3990 0836 54       		.byte	0x54
 3991 0837 34000000 		.4byte	.LVL137
 3992 083b 36000000 		.4byte	.LFE14
 3993 083f 0300     		.2byte	0x3
 3994 0841 73       		.byte	0x73
 3995 0842 7F       		.sleb128 -1
 3996 0843 9F       		.byte	0x9f
 3997 0844 00000000 		.4byte	0
 3998 0848 00000000 		.4byte	0
 3999              	.LLST49:
 4000 084c 24000000 		.4byte	.LVL133
 4001 0850 26000000 		.4byte	.LVL134
 4002 0854 0100     		.2byte	0x1
 4003 0856 50       		.byte	0x50
 4004 0857 00000000 		.4byte	0
 4005 085b 00000000 		.4byte	0
 4006              	.LLST50:
 4007 085f 00000000 		.4byte	.LVL139
 4008 0863 2E000000 		.4byte	.LVL146
 4009 0867 0100     		.2byte	0x1
 4010 0869 50       		.byte	0x50
 4011 086a 2E000000 		.4byte	.LVL146
 4012 086e 3C000000 		.4byte	.LFE12
 4013 0872 0400     		.2byte	0x4
 4014 0874 F3       		.byte	0xf3
 4015 0875 01       		.uleb128 0x1
 4016 0876 50       		.byte	0x50
 4017 0877 9F       		.byte	0x9f
 4018 0878 00000000 		.4byte	0
 4019 087c 00000000 		.4byte	0
 4020              	.LLST51:
 4021 0880 00000000 		.4byte	.LVL139
 4022 0884 2A000000 		.4byte	.LVL144
 4023 0888 0100     		.2byte	0x1
 4024 088a 51       		.byte	0x51
 4025 088b 2A000000 		.4byte	.LVL144
 4026 088f 3C000000 		.4byte	.LFE12
 4027 0893 0400     		.2byte	0x4
 4028 0895 F3       		.byte	0xf3
 4029 0896 01       		.uleb128 0x1
 4030 0897 51       		.byte	0x51
 4031 0898 9F       		.byte	0x9f
ARM GAS  C:\Users\Greg\AppData\Local\Temp\cceDExAc.s 			page 99


 4032 0899 00000000 		.4byte	0
 4033 089d 00000000 		.4byte	0
 4034              	.LLST52:
 4035 08a1 02000000 		.4byte	.LVL140
 4036 08a5 0C000000 		.4byte	.LVL141
 4037 08a9 0200     		.2byte	0x2
 4038 08ab 30       		.byte	0x30
 4039 08ac 9F       		.byte	0x9f
 4040 08ad 0C000000 		.4byte	.LVL141
 4041 08b1 18000000 		.4byte	.LVL142
 4042 08b5 0200     		.2byte	0x2
 4043 08b7 75       		.byte	0x75
 4044 08b8 08       		.sleb128 8
 4045 08b9 18000000 		.4byte	.LVL142
 4046 08bd 34000000 		.4byte	.LVL148
 4047 08c1 0100     		.2byte	0x1
 4048 08c3 54       		.byte	0x54
 4049 08c4 34000000 		.4byte	.LVL148
 4050 08c8 34000000 		.4byte	.LVL150
 4051 08cc 1E00     		.2byte	0x1e
 4052 08ce F3       		.byte	0xf3
 4053 08cf 01       		.uleb128 0x1
 4054 08d0 51       		.byte	0x51
 4055 08d1 32       		.byte	0x32
 4056 08d2 24       		.byte	0x24
 4057 08d3 F3       		.byte	0xf3
 4058 08d4 01       		.uleb128 0x1
 4059 08d5 51       		.byte	0x51
 4060 08d6 22       		.byte	0x22
 4061 08d7 31       		.byte	0x31
 4062 08d8 24       		.byte	0x24
 4063 08d9 F3       		.byte	0xf3
 4064 08da 01       		.uleb128 0x1
 4065 08db 50       		.byte	0x50
 4066 08dc 33       		.byte	0x33
 4067 08dd 24       		.byte	0x24
 4068 08de F3       		.byte	0xf3
 4069 08df 01       		.uleb128 0x1
 4070 08e0 50       		.byte	0x50
 4071 08e1 1C       		.byte	0x1c
 4072 08e2 32       		.byte	0x32
 4073 08e3 24       		.byte	0x24
 4074 08e4 76       		.byte	0x76
 4075 08e5 00       		.sleb128 0
 4076 08e6 22       		.byte	0x22
 4077 08e7 23       		.byte	0x23
 4078 08e8 08       		.uleb128 0x8
 4079 08e9 06       		.byte	0x6
 4080 08ea 22       		.byte	0x22
 4081 08eb 9F       		.byte	0x9f
 4082 08ec 00000000 		.4byte	0
 4083 08f0 00000000 		.4byte	0
 4084              	.LLST53:
 4085 08f4 2C000000 		.4byte	.LVL145
 4086 08f8 34000000 		.4byte	.LVL149
 4087 08fc 0100     		.2byte	0x1
 4088 08fe 55       		.byte	0x55
ARM GAS  C:\Users\Greg\AppData\Local\Temp\cceDExAc.s 			page 100


 4089 08ff 00000000 		.4byte	0
 4090 0903 00000000 		.4byte	0
 4091              	.LLST54:
 4092 0907 00000000 		.4byte	.LVL151
 4093 090b 05000000 		.4byte	.LVL152-1
 4094 090f 0100     		.2byte	0x1
 4095 0911 50       		.byte	0x50
 4096 0912 00000000 		.4byte	0
 4097 0916 00000000 		.4byte	0
 4098              	.LLST55:
 4099 091a 00000000 		.4byte	.LVL151
 4100 091e 05000000 		.4byte	.LVL152-1
 4101 0922 0100     		.2byte	0x1
 4102 0924 51       		.byte	0x51
 4103 0925 05000000 		.4byte	.LVL152-1
 4104 0929 08000000 		.4byte	.LFE16
 4105 092d 0400     		.2byte	0x4
 4106 092f F3       		.byte	0xf3
 4107 0930 01       		.uleb128 0x1
 4108 0931 51       		.byte	0x51
 4109 0932 9F       		.byte	0x9f
 4110 0933 00000000 		.4byte	0
 4111 0937 00000000 		.4byte	0
 4112              	.LLST56:
 4113 093b 00000000 		.4byte	.LVL151
 4114 093f 05000000 		.4byte	.LVL152-1
 4115 0943 0100     		.2byte	0x1
 4116 0945 52       		.byte	0x52
 4117 0946 05000000 		.4byte	.LVL152-1
 4118 094a 08000000 		.4byte	.LFE16
 4119 094e 0400     		.2byte	0x4
 4120 0950 F3       		.byte	0xf3
 4121 0951 01       		.uleb128 0x1
 4122 0952 52       		.byte	0x52
 4123 0953 9F       		.byte	0x9f
 4124 0954 00000000 		.4byte	0
 4125 0958 00000000 		.4byte	0
 4126              	.LLST57:
 4127 095c 00000000 		.4byte	.LVL153
 4128 0960 2E000000 		.4byte	.LVL160
 4129 0964 0100     		.2byte	0x1
 4130 0966 50       		.byte	0x50
 4131 0967 2E000000 		.4byte	.LVL160
 4132 096b 3C000000 		.4byte	.LFE15
 4133 096f 0400     		.2byte	0x4
 4134 0971 F3       		.byte	0xf3
 4135 0972 01       		.uleb128 0x1
 4136 0973 50       		.byte	0x50
 4137 0974 9F       		.byte	0x9f
 4138 0975 00000000 		.4byte	0
 4139 0979 00000000 		.4byte	0
 4140              	.LLST58:
 4141 097d 00000000 		.4byte	.LVL153
 4142 0981 2A000000 		.4byte	.LVL158
 4143 0985 0100     		.2byte	0x1
 4144 0987 51       		.byte	0x51
 4145 0988 2A000000 		.4byte	.LVL158
ARM GAS  C:\Users\Greg\AppData\Local\Temp\cceDExAc.s 			page 101


 4146 098c 3C000000 		.4byte	.LFE15
 4147 0990 0400     		.2byte	0x4
 4148 0992 F3       		.byte	0xf3
 4149 0993 01       		.uleb128 0x1
 4150 0994 51       		.byte	0x51
 4151 0995 9F       		.byte	0x9f
 4152 0996 00000000 		.4byte	0
 4153 099a 00000000 		.4byte	0
 4154              	.LLST59:
 4155 099e 02000000 		.4byte	.LVL154
 4156 09a2 0C000000 		.4byte	.LVL155
 4157 09a6 0200     		.2byte	0x2
 4158 09a8 30       		.byte	0x30
 4159 09a9 9F       		.byte	0x9f
 4160 09aa 0C000000 		.4byte	.LVL155
 4161 09ae 18000000 		.4byte	.LVL156
 4162 09b2 0200     		.2byte	0x2
 4163 09b4 75       		.byte	0x75
 4164 09b5 08       		.sleb128 8
 4165 09b6 18000000 		.4byte	.LVL156
 4166 09ba 34000000 		.4byte	.LVL162
 4167 09be 0100     		.2byte	0x1
 4168 09c0 54       		.byte	0x54
 4169 09c1 34000000 		.4byte	.LVL162
 4170 09c5 34000000 		.4byte	.LVL164
 4171 09c9 1E00     		.2byte	0x1e
 4172 09cb F3       		.byte	0xf3
 4173 09cc 01       		.uleb128 0x1
 4174 09cd 51       		.byte	0x51
 4175 09ce 32       		.byte	0x32
 4176 09cf 24       		.byte	0x24
 4177 09d0 F3       		.byte	0xf3
 4178 09d1 01       		.uleb128 0x1
 4179 09d2 51       		.byte	0x51
 4180 09d3 22       		.byte	0x22
 4181 09d4 31       		.byte	0x31
 4182 09d5 24       		.byte	0x24
 4183 09d6 F3       		.byte	0xf3
 4184 09d7 01       		.uleb128 0x1
 4185 09d8 50       		.byte	0x50
 4186 09d9 33       		.byte	0x33
 4187 09da 24       		.byte	0x24
 4188 09db F3       		.byte	0xf3
 4189 09dc 01       		.uleb128 0x1
 4190 09dd 50       		.byte	0x50
 4191 09de 1C       		.byte	0x1c
 4192 09df 32       		.byte	0x32
 4193 09e0 24       		.byte	0x24
 4194 09e1 76       		.byte	0x76
 4195 09e2 00       		.sleb128 0
 4196 09e3 22       		.byte	0x22
 4197 09e4 23       		.byte	0x23
 4198 09e5 08       		.uleb128 0x8
 4199 09e6 06       		.byte	0x6
 4200 09e7 22       		.byte	0x22
 4201 09e8 9F       		.byte	0x9f
 4202 09e9 00000000 		.4byte	0
ARM GAS  C:\Users\Greg\AppData\Local\Temp\cceDExAc.s 			page 102


 4203 09ed 00000000 		.4byte	0
 4204              	.LLST60:
 4205 09f1 2C000000 		.4byte	.LVL159
 4206 09f5 34000000 		.4byte	.LVL163
 4207 09f9 0100     		.2byte	0x1
 4208 09fb 55       		.byte	0x55
 4209 09fc 00000000 		.4byte	0
 4210 0a00 00000000 		.4byte	0
 4211              		.section	.debug_aranges,"",%progbits
 4212 0000 9C000000 		.4byte	0x9c
 4213 0004 0200     		.2byte	0x2
 4214 0006 00000000 		.4byte	.Ldebug_info0
 4215 000a 04       		.byte	0x4
 4216 000b 00       		.byte	0
 4217 000c 0000     		.2byte	0
 4218 000e 0000     		.2byte	0
 4219 0010 00000000 		.4byte	.LFB10
 4220 0014 1C000000 		.4byte	.LFE10-.LFB10
 4221 0018 00000000 		.4byte	.LFB9
 4222 001c 1E000000 		.4byte	.LFE9-.LFB9
 4223 0020 00000000 		.4byte	.LFB8
 4224 0024 3C000000 		.4byte	.LFE8-.LFB8
 4225 0028 00000000 		.4byte	.LFB7
 4226 002c 28000000 		.4byte	.LFE7-.LFB7
 4227 0030 00000000 		.4byte	.LFB6
 4228 0034 16000000 		.4byte	.LFE6-.LFB6
 4229 0038 00000000 		.4byte	.LFB13
 4230 003c 1C000000 		.4byte	.LFE13-.LFB13
 4231 0040 00000000 		.4byte	.LFB1
 4232 0044 54000000 		.4byte	.LFE1-.LFB1
 4233 0048 00000000 		.4byte	.LFB11
 4234 004c 3C000000 		.4byte	.LFE11-.LFB11
 4235 0050 00000000 		.4byte	.LFB17
 4236 0054 14000000 		.4byte	.LFE17-.LFB17
 4237 0058 00000000 		.4byte	.LFB5
 4238 005c 92000000 		.4byte	.LFE5-.LFB5
 4239 0060 00000000 		.4byte	.LFB4
 4240 0064 2C000000 		.4byte	.LFE4-.LFB4
 4241 0068 00000000 		.4byte	.LFB3
 4242 006c 30000000 		.4byte	.LFE3-.LFB3
 4243 0070 00000000 		.4byte	.LFB2
 4244 0074 1C000000 		.4byte	.LFE2-.LFB2
 4245 0078 00000000 		.4byte	.LFB14
 4246 007c 36000000 		.4byte	.LFE14-.LFB14
 4247 0080 00000000 		.4byte	.LFB12
 4248 0084 3C000000 		.4byte	.LFE12-.LFB12
 4249 0088 00000000 		.4byte	.LFB16
 4250 008c 08000000 		.4byte	.LFE16-.LFB16
 4251 0090 00000000 		.4byte	.LFB15
 4252 0094 3C000000 		.4byte	.LFE15-.LFB15
 4253 0098 00000000 		.4byte	0
 4254 009c 00000000 		.4byte	0
 4255              		.section	.debug_ranges,"",%progbits
 4256              	.Ldebug_ranges0:
 4257 0000 00000000 		.4byte	.LFB10
 4258 0004 1C000000 		.4byte	.LFE10
 4259 0008 00000000 		.4byte	.LFB9
ARM GAS  C:\Users\Greg\AppData\Local\Temp\cceDExAc.s 			page 103


 4260 000c 1E000000 		.4byte	.LFE9
 4261 0010 00000000 		.4byte	.LFB8
 4262 0014 3C000000 		.4byte	.LFE8
 4263 0018 00000000 		.4byte	.LFB7
 4264 001c 28000000 		.4byte	.LFE7
 4265 0020 00000000 		.4byte	.LFB6
 4266 0024 16000000 		.4byte	.LFE6
 4267 0028 00000000 		.4byte	.LFB13
 4268 002c 1C000000 		.4byte	.LFE13
 4269 0030 00000000 		.4byte	.LFB1
 4270 0034 54000000 		.4byte	.LFE1
 4271 0038 00000000 		.4byte	.LFB11
 4272 003c 3C000000 		.4byte	.LFE11
 4273 0040 00000000 		.4byte	.LFB17
 4274 0044 14000000 		.4byte	.LFE17
 4275 0048 00000000 		.4byte	.LFB5
 4276 004c 92000000 		.4byte	.LFE5
 4277 0050 00000000 		.4byte	.LFB4
 4278 0054 2C000000 		.4byte	.LFE4
 4279 0058 00000000 		.4byte	.LFB3
 4280 005c 30000000 		.4byte	.LFE3
 4281 0060 00000000 		.4byte	.LFB2
 4282 0064 1C000000 		.4byte	.LFE2
 4283 0068 00000000 		.4byte	.LFB14
 4284 006c 36000000 		.4byte	.LFE14
 4285 0070 00000000 		.4byte	.LFB12
 4286 0074 3C000000 		.4byte	.LFE12
 4287 0078 00000000 		.4byte	.LFB16
 4288 007c 08000000 		.4byte	.LFE16
 4289 0080 00000000 		.4byte	.LFB15
 4290 0084 3C000000 		.4byte	.LFE15
 4291 0088 00000000 		.4byte	0
 4292 008c 00000000 		.4byte	0
 4293              		.section	.debug_line,"",%progbits
 4294              	.Ldebug_line0:
 4295 0000 7D020000 		.section	.debug_str,"MS",%progbits,1
 4295      02007100 
 4295      00000201 
 4295      FB0E0D00 
 4295      01010101 
 4296              	.LASF99:
 4297 0000 47656E65 		.ascii	"Generated_Source\\PSoC4\\CSD_Filter.c\000"
 4297      72617465 
 4297      645F536F 
 4297      75726365 
 4297      5C50536F 
 4298              	.LASF10:
 4299 0024 75696E74 		.ascii	"uint16\000"
 4299      313600
 4300              	.LASF84:
 4301 002b 70747257 		.ascii	"ptrWidgetRam\000"
 4301      69646765 
 4301      7452616D 
 4301      00
 4302              	.LASF77:
 4303 0038 4353445F 		.ascii	"CSD_InitializeIIR\000"
 4303      496E6974 
ARM GAS  C:\Users\Greg\AppData\Local\Temp\cceDExAc.s 			page 104


 4303      69616C69 
 4303      7A654949 
 4303      5200
 4304              	.LASF92:
 4305 004a 4353445F 		.ascii	"CSD_UpdateAllBaselines\000"
 4305      55706461 
 4305      7465416C 
 4305      6C426173 
 4305      656C696E 
 4306              	.LASF86:
 4307 0061 64696666 		.ascii	"difference\000"
 4307      6572656E 
 4307      636500
 4308              	.LASF7:
 4309 006c 6C6F6E67 		.ascii	"long long unsigned int\000"
 4309      206C6F6E 
 4309      6720756E 
 4309      7369676E 
 4309      65642069 
 4310              	.LASF89:
 4311 0083 4353445F 		.ascii	"CSD_UpdateSensorBaseline\000"
 4311      55706461 
 4311      74655365 
 4311      6E736F72 
 4311      42617365 
 4312              	.LASF44:
 4313 009c 70747232 		.ascii	"ptr2SnsFlash\000"
 4313      536E7346 
 4313      6C617368 
 4313      00
 4314              	.LASF40:
 4315 00a9 64696666 		.ascii	"diff\000"
 4315      00
 4316              	.LASF24:
 4317 00ae 4353445F 		.ascii	"CSD_WD_PROXIMITY_E\000"
 4317      57445F50 
 4317      524F5849 
 4317      4D495459 
 4317      5F4500
 4318              	.LASF93:
 4319 00c1 4353445F 		.ascii	"CSD_RunIIRInternal\000"
 4319      52756E49 
 4319      4952496E 
 4319      7465726E 
 4319      616C00
 4320              	.LASF6:
 4321 00d4 6C6F6E67 		.ascii	"long long int\000"
 4321      206C6F6E 
 4321      6720696E 
 4321      7400
 4322              	.LASF0:
 4323 00e2 7369676E 		.ascii	"signed char\000"
 4323      65642063 
 4323      68617200 
 4324              	.LASF23:
 4325 00ee 4353445F 		.ascii	"CSD_WD_TOUCHPAD_E\000"
 4325      57445F54 
ARM GAS  C:\Users\Greg\AppData\Local\Temp\cceDExAc.s 			page 105


 4325      4F554348 
 4325      5041445F 
 4325      4500
 4326              	.LASF4:
 4327 0100 6C6F6E67 		.ascii	"long int\000"
 4327      20696E74 
 4327      00
 4328              	.LASF100:
 4329 0109 433A5C47 		.ascii	"C:\\Git\\WA101\\projects\\PSoC\\WW101_AnalogCoProce"
 4329      69745C57 
 4329      41313031 
 4329      5C70726F 
 4329      6A656374 
 4330 0137 73736F72 		.ascii	"ssor\\WW101_AnalogCoProcessor.cydsn\000"
 4330      5C575731 
 4330      30315F41 
 4330      6E616C6F 
 4330      67436F50 
 4331              	.LASF46:
 4332 015a 70747232 		.ascii	"ptr2SnsRam\000"
 4332      536E7352 
 4332      616D00
 4333              	.LASF78:
 4334 0165 696E7075 		.ascii	"input\000"
 4334      7400
 4335              	.LASF9:
 4336 016b 75696E74 		.ascii	"uint8\000"
 4336      3800
 4337              	.LASF43:
 4338 0171 4353445F 		.ascii	"CSD_RAM_SNS_STRUCT\000"
 4338      52414D5F 
 4338      534E535F 
 4338      53545255 
 4338      435400
 4339              	.LASF13:
 4340 0184 646F7562 		.ascii	"double\000"
 4340      6C6500
 4341              	.LASF19:
 4342 018b 4353445F 		.ascii	"CSD_WD_BUTTON_E\000"
 4342      57445F42 
 4342      5554544F 
 4342      4E5F4500 
 4343              	.LASF80:
 4344 019b 73686966 		.ascii	"shift\000"
 4344      7400
 4345              	.LASF68:
 4346 01a1 73656E73 		.ascii	"sensorId\000"
 4346      6F724964 
 4346      00
 4347              	.LASF11:
 4348 01aa 75696E74 		.ascii	"uint32\000"
 4348      333200
 4349              	.LASF17:
 4350 01b1 4353445F 		.ascii	"CSD_THRESHOLD_TYPE\000"
 4350      54485245 
 4350      53484F4C 
 4350      445F5459 
ARM GAS  C:\Users\Greg\AppData\Local\Temp\cceDExAc.s 			page 106


 4350      504500
 4351              	.LASF59:
 4352 01c4 4353445F 		.ascii	"CSD_REGULAR_FLTR_STRUCT\000"
 4352      52454755 
 4352      4C41525F 
 4352      464C5452 
 4352      5F535452 
 4353              	.LASF39:
 4354 01dc 62736C6E 		.ascii	"bslnExt\000"
 4354      45787400 
 4355              	.LASF71:
 4356 01e4 73656E73 		.ascii	"sensorsNumber\000"
 4356      6F72734E 
 4356      756D6265 
 4356      7200
 4357              	.LASF94:
 4358 01f2 74656D70 		.ascii	"temp\000"
 4358      00
 4359              	.LASF56:
 4360 01f7 69697248 		.ascii	"iirHistory\000"
 4360      6973746F 
 4360      727900
 4361              	.LASF38:
 4362 0202 62736C6E 		.ascii	"bsln\000"
 4362      00
 4363              	.LASF8:
 4364 0207 756E7369 		.ascii	"unsigned int\000"
 4364      676E6564 
 4364      20696E74 
 4364      00
 4365              	.LASF5:
 4366 0214 6C6F6E67 		.ascii	"long unsigned int\000"
 4366      20756E73 
 4366      69676E65 
 4366      6420696E 
 4366      7400
 4367              	.LASF18:
 4368 0226 4353445F 		.ascii	"CSD_LOW_BSLN_RST_TYPE\000"
 4368      4C4F575F 
 4368      42534C4E 
 4368      5F525354 
 4368      5F545950 
 4369              	.LASF82:
 4370 023c 4353445F 		.ascii	"CSD_FtIIR1stOrder\000"
 4370      46744949 
 4370      52317374 
 4370      4F726465 
 4370      7200
 4371              	.LASF32:
 4372 024e 6C6F7742 		.ascii	"lowBslnRst\000"
 4372      736C6E52 
 4372      737400
 4373              	.LASF57:
 4374 0259 4353445F 		.ascii	"CSD_REGULAR_FLTR_CHANNEL_STRUCT\000"
 4374      52454755 
 4374      4C41525F 
 4374      464C5452 
ARM GAS  C:\Users\Greg\AppData\Local\Temp\cceDExAc.s 			page 107


 4374      5F434841 
 4375              	.LASF3:
 4376 0279 73686F72 		.ascii	"short unsigned int\000"
 4376      7420756E 
 4376      7369676E 
 4376      65642069 
 4376      6E7400
 4377              	.LASF61:
 4378 028c 4353445F 		.ascii	"CSD_PTR_FILTER_VARIANT\000"
 4378      5054525F 
 4378      46494C54 
 4378      45525F56 
 4378      41524941 
 4379              	.LASF83:
 4380 02a3 4353445F 		.ascii	"CSD_FtUpdateBaseline\000"
 4380      46745570 
 4380      64617465 
 4380      42617365 
 4380      6C696E65 
 4381              	.LASF90:
 4382 02b8 4353445F 		.ascii	"CSD_UpdateWidgetBaseline\000"
 4382      55706461 
 4382      74655769 
 4382      64676574 
 4382      42617365 
 4383              	.LASF101:
 4384 02d1 4353445F 		.ascii	"CSD_FtInitializeBaseline\000"
 4384      4674496E 
 4384      69746961 
 4384      6C697A65 
 4384      42617365 
 4385              	.LASF45:
 4386 02ea 70747232 		.ascii	"ptr2WdgtRam\000"
 4386      57646774 
 4386      52616D00 
 4387              	.LASF63:
 4388 02f6 77645479 		.ascii	"wdType\000"
 4388      706500
 4389              	.LASF91:
 4390 02fd 62736C6E 		.ascii	"bslnStatus\000"
 4390      53746174 
 4390      757300
 4391              	.LASF37:
 4392 0308 4353445F 		.ascii	"CSD_RAM_WD_BASE_STRUCT\000"
 4392      52414D5F 
 4392      57445F42 
 4392      4153455F 
 4392      53545255 
 4393              	.LASF67:
 4394 031f 77696467 		.ascii	"widgetId\000"
 4394      65744964 
 4394      00
 4395              	.LASF81:
 4396 0328 6F757470 		.ascii	"output\000"
 4396      757400
 4397              	.LASF34:
 4398 032f 69646163 		.ascii	"idacMod\000"
ARM GAS  C:\Users\Greg\AppData\Local\Temp\cceDExAc.s 			page 108


 4398      4D6F6400 
 4399              	.LASF52:
 4400 0337 6E756D43 		.ascii	"numCols\000"
 4400      6F6C7300 
 4401              	.LASF16:
 4402 033f 73697A65 		.ascii	"sizetype\000"
 4402      74797065 
 4402      00
 4403              	.LASF69:
 4404 0348 70747257 		.ascii	"ptrWidget\000"
 4404      69646765 
 4404      7400
 4405              	.LASF97:
 4406 0352 4353445F 		.ascii	"CSD_FtRunEnabledFilters\000"
 4406      46745275 
 4406      6E456E61 
 4406      626C6564 
 4406      46696C74 
 4407              	.LASF49:
 4408 036a 73746174 		.ascii	"staticConfig\000"
 4408      6963436F 
 4408      6E666967 
 4408      00
 4409              	.LASF29:
 4410 0377 6E4E6F69 		.ascii	"nNoiseTh\000"
 4410      73655468 
 4410      00
 4411              	.LASF51:
 4412 0380 77646774 		.ascii	"wdgtType\000"
 4412      54797065 
 4412      00
 4413              	.LASF25:
 4414 0389 4353445F 		.ascii	"CSD_WD_TYPE_ENUM\000"
 4414      57445F54 
 4414      5950455F 
 4414      454E554D 
 4414      00
 4415              	.LASF96:
 4416 039a 4353445F 		.ascii	"CSD_FtRunEnabledFiltersInternal\000"
 4416      46745275 
 4416      6E456E61 
 4416      626C6564 
 4416      46696C74 
 4417              	.LASF70:
 4418 03ba 4353445F 		.ascii	"CSD_InitializeWidgetBaseline\000"
 4418      496E6974 
 4418      69616C69 
 4418      7A655769 
 4418      64676574 
 4419              	.LASF73:
 4420 03d7 4353445F 		.ascii	"CSD_InitializeIIRInternal\000"
 4420      496E6974 
 4420      69616C69 
 4420      7A654949 
 4420      52496E74 
 4421              	.LASF12:
 4422 03f1 666C6F61 		.ascii	"float\000"
ARM GAS  C:\Users\Greg\AppData\Local\Temp\cceDExAc.s 			page 109


 4422      7400
 4423              	.LASF76:
 4424 03f7 4353445F 		.ascii	"CSD_FtInitialize\000"
 4424      4674496E 
 4424      69746961 
 4424      6C697A65 
 4424      00
 4425              	.LASF33:
 4426 0408 62736C6E 		.ascii	"bslnCoeff\000"
 4426      436F6566 
 4426      6600
 4427              	.LASF88:
 4428 0412 68697374 		.ascii	"history\000"
 4428      6F727900 
 4429              	.LASF75:
 4430 041a 70747253 		.ascii	"ptrSensorObj\000"
 4430      656E736F 
 4430      724F626A 
 4430      00
 4431              	.LASF58:
 4432 0427 72656775 		.ascii	"regularChannel\000"
 4432      6C617243 
 4432      68616E6E 
 4432      656C00
 4433              	.LASF30:
 4434 0436 68797374 		.ascii	"hysteresis\000"
 4434      65726573 
 4434      697300
 4435              	.LASF1:
 4436 0441 756E7369 		.ascii	"unsigned char\000"
 4436      676E6564 
 4436      20636861 
 4436      7200
 4437              	.LASF2:
 4438 044f 73686F72 		.ascii	"short int\000"
 4438      7420696E 
 4438      7400
 4439              	.LASF102:
 4440 0459 4353445F 		.ascii	"CSD_dsFlash\000"
 4440      6473466C 
 4440      61736800 
 4441              	.LASF47:
 4442 0465 70747232 		.ascii	"ptr2FltrHistory\000"
 4442      466C7472 
 4442      48697374 
 4442      6F727900 
 4443              	.LASF22:
 4444 0475 4353445F 		.ascii	"CSD_WD_MATRIX_BUTTON_E\000"
 4444      57445F4D 
 4444      41545249 
 4444      585F4255 
 4444      54544F4E 
 4445              	.LASF64:
 4446 048c 6368616E 		.ascii	"channel\000"
 4446      6E656C00 
 4447              	.LASF53:
 4448 0494 4353445F 		.ascii	"CSD_FLASH_WD_STRUCT\000"
ARM GAS  C:\Users\Greg\AppData\Local\Temp\cceDExAc.s 			page 110


 4448      464C4153 
 4448      485F5744 
 4448      5F535452 
 4448      55435400 
 4449              	.LASF26:
 4450 04a8 7265736F 		.ascii	"resolution\000"
 4450      6C757469 
 4450      6F6E00
 4451              	.LASF95:
 4452 04b3 4353445F 		.ascii	"CSD_RunIIR\000"
 4452      52756E49 
 4452      495200
 4453              	.LASF14:
 4454 04be 63686172 		.ascii	"char\000"
 4454      00
 4455              	.LASF35:
 4456 04c3 736E7343 		.ascii	"snsClk\000"
 4456      6C6B00
 4457              	.LASF31:
 4458 04ca 6F6E4465 		.ascii	"onDebounce\000"
 4458      626F756E 
 4458      636500
 4459              	.LASF20:
 4460 04d5 4353445F 		.ascii	"CSD_WD_LINEAR_SLIDER_E\000"
 4460      57445F4C 
 4460      494E4541 
 4460      525F534C 
 4460      49444552 
 4461              	.LASF42:
 4462 04ec 69646163 		.ascii	"idacComp\000"
 4462      436F6D70 
 4462      00
 4463              	.LASF41:
 4464 04f5 6E656742 		.ascii	"negBslnRstCnt\000"
 4464      736C6E52 
 4464      7374436E 
 4464      7400
 4465              	.LASF50:
 4466 0503 746F7461 		.ascii	"totalNumSns\000"
 4466      6C4E756D 
 4466      536E7300 
 4467              	.LASF48:
 4468 050f 70747232 		.ascii	"ptr2DebounceArr\000"
 4468      4465626F 
 4468      756E6365 
 4468      41727200 
 4469              	.LASF65:
 4470 051f 4353445F 		.ascii	"CSD_FtInitializeBaselineChannel\000"
 4470      4674496E 
 4470      69746961 
 4470      6C697A65 
 4470      42617365 
 4471              	.LASF55:
 4472 053f 4353445F 		.ascii	"CSD_FLASH_STRUCT\000"
 4472      464C4153 
 4472      485F5354 
 4472      52554354 
ARM GAS  C:\Users\Greg\AppData\Local\Temp\cceDExAc.s 			page 111


 4472      00
 4473              	.LASF54:
 4474 0550 77646774 		.ascii	"wdgtArray\000"
 4474      41727261 
 4474      7900
 4475              	.LASF85:
 4476 055a 7369676E 		.ascii	"sign\000"
 4476      00
 4477              	.LASF36:
 4478 055f 736E7343 		.ascii	"snsClkSource\000"
 4478      6C6B536F 
 4478      75726365 
 4478      00
 4479              	.LASF15:
 4480 056c 63797374 		.ascii	"cystatus\000"
 4480      61747573 
 4480      00
 4481              	.LASF74:
 4482 0575 70747246 		.ascii	"ptrFilterHistObj\000"
 4482      696C7465 
 4482      72486973 
 4482      744F626A 
 4482      00
 4483              	.LASF62:
 4484 0586 70747253 		.ascii	"ptrSensor\000"
 4484      656E736F 
 4484      7200
 4485              	.LASF79:
 4486 0590 70726576 		.ascii	"prevOutput\000"
 4486      4F757470 
 4486      757400
 4487              	.LASF27:
 4488 059b 66696E67 		.ascii	"fingerTh\000"
 4488      65725468 
 4488      00
 4489              	.LASF66:
 4490 05a4 4353445F 		.ascii	"CSD_InitializeSensorBaseline\000"
 4490      496E6974 
 4490      69616C69 
 4490      7A655365 
 4490      6E736F72 
 4491              	.LASF21:
 4492 05c1 4353445F 		.ascii	"CSD_WD_RADIAL_SLIDER_E\000"
 4492      57445F52 
 4492      41444941 
 4492      4C5F534C 
 4492      49444552 
 4493              	.LASF60:
 4494 05d8 70747252 		.ascii	"ptrRegular\000"
 4494      6567756C 
 4494      617200
 4495              	.LASF87:
 4496 05e3 72657375 		.ascii	"result\000"
 4496      6C7400
 4497              	.LASF98:
 4498 05ea 474E5520 		.ascii	"GNU C 4.9.3 20150303 (release) [ARM/embedded-4_9-br"
 4498      4320342E 
ARM GAS  C:\Users\Greg\AppData\Local\Temp\cceDExAc.s 			page 112


 4498      392E3320 
 4498      32303135 
 4498      30333033 
 4499 061d 616E6368 		.ascii	"anch revision 221220] -mcpu=cortex-m0plus -mthumb -"
 4499      20726576 
 4499      6973696F 
 4499      6E203232 
 4499      31323230 
 4500 0650 67202D4F 		.ascii	"g -Og -ffunction-sections -ffat-lto-objects\000"
 4500      67202D66 
 4500      66756E63 
 4500      74696F6E 
 4500      2D736563 
 4501              	.LASF28:
 4502 067c 6E6F6973 		.ascii	"noiseTh\000"
 4502      65546800 
 4503              	.LASF72:
 4504 0684 4353445F 		.ascii	"CSD_InitializeAllBaselines\000"
 4504      496E6974 
 4504      69616C69 
 4504      7A65416C 
 4504      6C426173 
 4505              		.ident	"GCC: (GNU Tools for ARM Embedded Processors) 4.9.3 20150303 (release) [ARM/embedded-4_9-br
