ARM GAS  C:\Users\Greg\AppData\Local\Temp\ccH5LRwc.s 			page 1


   1              		.cpu cortex-m0plus
   2              		.fpu softvfp
   3              		.eabi_attribute 20, 1
   4              		.eabi_attribute 21, 1
   5              		.eabi_attribute 23, 3
   6              		.eabi_attribute 24, 1
   7              		.eabi_attribute 25, 1
   8              		.eabi_attribute 26, 1
   9              		.eabi_attribute 30, 1
  10              		.eabi_attribute 34, 0
  11              		.eabi_attribute 18, 4
  12              		.code	16
  13              		.file	"EZI2C.c"
  14              		.text
  15              	.Ltext0:
  16              		.cfi_sections	.debug_frame
  17              		.section	.text.EZI2C_ScbEnableIntr,"ax",%progbits
  18              		.align	2
  19              		.code	16
  20              		.thumb_func
  21              		.type	EZI2C_ScbEnableIntr, %function
  22              	EZI2C_ScbEnableIntr:
  23              	.LFB8:
  24              		.file 1 "Generated_Source\\PSoC4\\EZI2C.c"
   1:Generated_Source\PSoC4/EZI2C.c **** /***************************************************************************//**
   2:Generated_Source\PSoC4/EZI2C.c **** * \file EZI2C.c
   3:Generated_Source\PSoC4/EZI2C.c **** * \version 3.20
   4:Generated_Source\PSoC4/EZI2C.c **** *
   5:Generated_Source\PSoC4/EZI2C.c **** * \brief
   6:Generated_Source\PSoC4/EZI2C.c **** *  This file provides the source code to the API for the SCB Component.
   7:Generated_Source\PSoC4/EZI2C.c **** *
   8:Generated_Source\PSoC4/EZI2C.c **** * Note:
   9:Generated_Source\PSoC4/EZI2C.c **** *
  10:Generated_Source\PSoC4/EZI2C.c **** *******************************************************************************
  11:Generated_Source\PSoC4/EZI2C.c **** * \copyright
  12:Generated_Source\PSoC4/EZI2C.c **** * Copyright 2013-2016, Cypress Semiconductor Corporation.  All rights reserved.
  13:Generated_Source\PSoC4/EZI2C.c **** * You may use this file only in accordance with the license, terms, conditions,
  14:Generated_Source\PSoC4/EZI2C.c **** * disclaimers, and limitations in the end user license agreement accompanying
  15:Generated_Source\PSoC4/EZI2C.c **** * the software package with which this file was provided.
  16:Generated_Source\PSoC4/EZI2C.c **** *******************************************************************************/
  17:Generated_Source\PSoC4/EZI2C.c **** 
  18:Generated_Source\PSoC4/EZI2C.c **** #include "EZI2C_PVT.h"
  19:Generated_Source\PSoC4/EZI2C.c **** 
  20:Generated_Source\PSoC4/EZI2C.c **** #if (EZI2C_SCB_MODE_I2C_INC)
  21:Generated_Source\PSoC4/EZI2C.c ****     #include "EZI2C_I2C_PVT.h"
  22:Generated_Source\PSoC4/EZI2C.c **** #endif /* (EZI2C_SCB_MODE_I2C_INC) */
  23:Generated_Source\PSoC4/EZI2C.c **** 
  24:Generated_Source\PSoC4/EZI2C.c **** #if (EZI2C_SCB_MODE_EZI2C_INC)
  25:Generated_Source\PSoC4/EZI2C.c ****     #include "EZI2C_EZI2C_PVT.h"
  26:Generated_Source\PSoC4/EZI2C.c **** #endif /* (EZI2C_SCB_MODE_EZI2C_INC) */
  27:Generated_Source\PSoC4/EZI2C.c **** 
  28:Generated_Source\PSoC4/EZI2C.c **** #if (EZI2C_SCB_MODE_SPI_INC || EZI2C_SCB_MODE_UART_INC)
  29:Generated_Source\PSoC4/EZI2C.c ****     #include "EZI2C_SPI_UART_PVT.h"
  30:Generated_Source\PSoC4/EZI2C.c **** #endif /* (EZI2C_SCB_MODE_SPI_INC || EZI2C_SCB_MODE_UART_INC) */
  31:Generated_Source\PSoC4/EZI2C.c **** 
  32:Generated_Source\PSoC4/EZI2C.c **** 
  33:Generated_Source\PSoC4/EZI2C.c **** /***************************************
ARM GAS  C:\Users\Greg\AppData\Local\Temp\ccH5LRwc.s 			page 2


  34:Generated_Source\PSoC4/EZI2C.c **** *    Run Time Configuration Vars
  35:Generated_Source\PSoC4/EZI2C.c **** ***************************************/
  36:Generated_Source\PSoC4/EZI2C.c **** 
  37:Generated_Source\PSoC4/EZI2C.c **** /* Stores internal component configuration for Unconfigured mode */
  38:Generated_Source\PSoC4/EZI2C.c **** #if (EZI2C_SCB_MODE_UNCONFIG_CONST_CFG)
  39:Generated_Source\PSoC4/EZI2C.c ****     /* Common configuration variables */
  40:Generated_Source\PSoC4/EZI2C.c ****     uint8 EZI2C_scbMode = EZI2C_SCB_MODE_UNCONFIG;
  41:Generated_Source\PSoC4/EZI2C.c ****     uint8 EZI2C_scbEnableWake;
  42:Generated_Source\PSoC4/EZI2C.c ****     uint8 EZI2C_scbEnableIntr;
  43:Generated_Source\PSoC4/EZI2C.c **** 
  44:Generated_Source\PSoC4/EZI2C.c ****     /* I2C configuration variables */
  45:Generated_Source\PSoC4/EZI2C.c ****     uint8 EZI2C_mode;
  46:Generated_Source\PSoC4/EZI2C.c ****     uint8 EZI2C_acceptAddr;
  47:Generated_Source\PSoC4/EZI2C.c **** 
  48:Generated_Source\PSoC4/EZI2C.c ****     /* SPI/UART configuration variables */
  49:Generated_Source\PSoC4/EZI2C.c ****     volatile uint8 * EZI2C_rxBuffer;
  50:Generated_Source\PSoC4/EZI2C.c ****     uint8  EZI2C_rxDataBits;
  51:Generated_Source\PSoC4/EZI2C.c ****     uint32 EZI2C_rxBufferSize;
  52:Generated_Source\PSoC4/EZI2C.c **** 
  53:Generated_Source\PSoC4/EZI2C.c ****     volatile uint8 * EZI2C_txBuffer;
  54:Generated_Source\PSoC4/EZI2C.c ****     uint8  EZI2C_txDataBits;
  55:Generated_Source\PSoC4/EZI2C.c ****     uint32 EZI2C_txBufferSize;
  56:Generated_Source\PSoC4/EZI2C.c **** 
  57:Generated_Source\PSoC4/EZI2C.c ****     /* EZI2C configuration variables */
  58:Generated_Source\PSoC4/EZI2C.c ****     uint8 EZI2C_numberOfAddr;
  59:Generated_Source\PSoC4/EZI2C.c ****     uint8 EZI2C_subAddrSize;
  60:Generated_Source\PSoC4/EZI2C.c **** #endif /* (EZI2C_SCB_MODE_UNCONFIG_CONST_CFG) */
  61:Generated_Source\PSoC4/EZI2C.c **** 
  62:Generated_Source\PSoC4/EZI2C.c **** 
  63:Generated_Source\PSoC4/EZI2C.c **** /***************************************
  64:Generated_Source\PSoC4/EZI2C.c **** *     Common SCB Vars
  65:Generated_Source\PSoC4/EZI2C.c **** ***************************************/
  66:Generated_Source\PSoC4/EZI2C.c **** /**
  67:Generated_Source\PSoC4/EZI2C.c **** * \addtogroup group_general
  68:Generated_Source\PSoC4/EZI2C.c **** * \{
  69:Generated_Source\PSoC4/EZI2C.c **** */
  70:Generated_Source\PSoC4/EZI2C.c **** 
  71:Generated_Source\PSoC4/EZI2C.c **** /** EZI2C_initVar indicates whether the EZI2C 
  72:Generated_Source\PSoC4/EZI2C.c **** *  component has been initialized. The variable is initialized to 0 
  73:Generated_Source\PSoC4/EZI2C.c **** *  and set to 1 the first time SCB_Start() is called. This allows 
  74:Generated_Source\PSoC4/EZI2C.c **** *  the component to restart without reinitialization after the first 
  75:Generated_Source\PSoC4/EZI2C.c **** *  call to the EZI2C_Start() routine.
  76:Generated_Source\PSoC4/EZI2C.c **** *
  77:Generated_Source\PSoC4/EZI2C.c **** *  If re-initialization of the component is required, then the 
  78:Generated_Source\PSoC4/EZI2C.c **** *  EZI2C_Init() function can be called before the 
  79:Generated_Source\PSoC4/EZI2C.c **** *  EZI2C_Start() or EZI2C_Enable() function.
  80:Generated_Source\PSoC4/EZI2C.c **** */
  81:Generated_Source\PSoC4/EZI2C.c **** uint8 EZI2C_initVar = 0u;
  82:Generated_Source\PSoC4/EZI2C.c **** 
  83:Generated_Source\PSoC4/EZI2C.c **** 
  84:Generated_Source\PSoC4/EZI2C.c **** #if (! (EZI2C_SCB_MODE_I2C_CONST_CFG || \
  85:Generated_Source\PSoC4/EZI2C.c ****         EZI2C_SCB_MODE_EZI2C_CONST_CFG))
  86:Generated_Source\PSoC4/EZI2C.c ****     /** This global variable stores TX interrupt sources after 
  87:Generated_Source\PSoC4/EZI2C.c ****     * EZI2C_Stop() is called. Only these TX interrupt sources 
  88:Generated_Source\PSoC4/EZI2C.c ****     * will be restored on a subsequent EZI2C_Enable() call.
  89:Generated_Source\PSoC4/EZI2C.c ****     */
  90:Generated_Source\PSoC4/EZI2C.c ****     uint16 EZI2C_IntrTxMask = 0u;
ARM GAS  C:\Users\Greg\AppData\Local\Temp\ccH5LRwc.s 			page 3


  91:Generated_Source\PSoC4/EZI2C.c **** #endif /* (! (EZI2C_SCB_MODE_I2C_CONST_CFG || \
  92:Generated_Source\PSoC4/EZI2C.c ****               EZI2C_SCB_MODE_EZI2C_CONST_CFG)) */
  93:Generated_Source\PSoC4/EZI2C.c **** /** \} globals */
  94:Generated_Source\PSoC4/EZI2C.c **** 
  95:Generated_Source\PSoC4/EZI2C.c **** #if (EZI2C_SCB_IRQ_INTERNAL)
  96:Generated_Source\PSoC4/EZI2C.c **** #if !defined (CY_REMOVE_EZI2C_CUSTOM_INTR_HANDLER)
  97:Generated_Source\PSoC4/EZI2C.c ****     void (*EZI2C_customIntrHandler)(void) = NULL;
  98:Generated_Source\PSoC4/EZI2C.c **** #endif /* !defined (CY_REMOVE_EZI2C_CUSTOM_INTR_HANDLER) */
  99:Generated_Source\PSoC4/EZI2C.c **** #endif /* (EZI2C_SCB_IRQ_INTERNAL) */
 100:Generated_Source\PSoC4/EZI2C.c **** 
 101:Generated_Source\PSoC4/EZI2C.c **** 
 102:Generated_Source\PSoC4/EZI2C.c **** /***************************************
 103:Generated_Source\PSoC4/EZI2C.c **** *    Private Function Prototypes
 104:Generated_Source\PSoC4/EZI2C.c **** ***************************************/
 105:Generated_Source\PSoC4/EZI2C.c **** 
 106:Generated_Source\PSoC4/EZI2C.c **** static void EZI2C_ScbEnableIntr(void);
 107:Generated_Source\PSoC4/EZI2C.c **** static void EZI2C_ScbModeStop(void);
 108:Generated_Source\PSoC4/EZI2C.c **** static void EZI2C_ScbModePostEnable(void);
 109:Generated_Source\PSoC4/EZI2C.c **** 
 110:Generated_Source\PSoC4/EZI2C.c **** 
 111:Generated_Source\PSoC4/EZI2C.c **** /*******************************************************************************
 112:Generated_Source\PSoC4/EZI2C.c **** * Function Name: EZI2C_Init
 113:Generated_Source\PSoC4/EZI2C.c **** ****************************************************************************//**
 114:Generated_Source\PSoC4/EZI2C.c **** *
 115:Generated_Source\PSoC4/EZI2C.c **** *  Initializes the EZI2C component to operate in one of the selected
 116:Generated_Source\PSoC4/EZI2C.c **** *  configurations: I2C, SPI, UART or EZI2C.
 117:Generated_Source\PSoC4/EZI2C.c **** *  When the configuration is set to "Unconfigured SCB", this function does
 118:Generated_Source\PSoC4/EZI2C.c **** *  not do any initialization. Use mode-specific initialization APIs instead:
 119:Generated_Source\PSoC4/EZI2C.c **** *  EZI2C_I2CInit, EZI2C_SpiInit, 
 120:Generated_Source\PSoC4/EZI2C.c **** *  EZI2C_UartInit or EZI2C_EzI2CInit.
 121:Generated_Source\PSoC4/EZI2C.c **** *
 122:Generated_Source\PSoC4/EZI2C.c **** *******************************************************************************/
 123:Generated_Source\PSoC4/EZI2C.c **** void EZI2C_Init(void)
 124:Generated_Source\PSoC4/EZI2C.c **** {
 125:Generated_Source\PSoC4/EZI2C.c **** #if (EZI2C_SCB_MODE_UNCONFIG_CONST_CFG)
 126:Generated_Source\PSoC4/EZI2C.c ****     if (EZI2C_SCB_MODE_UNCONFIG_RUNTM_CFG)
 127:Generated_Source\PSoC4/EZI2C.c ****     {
 128:Generated_Source\PSoC4/EZI2C.c ****         EZI2C_initVar = 0u;
 129:Generated_Source\PSoC4/EZI2C.c ****     }
 130:Generated_Source\PSoC4/EZI2C.c ****     else
 131:Generated_Source\PSoC4/EZI2C.c ****     {
 132:Generated_Source\PSoC4/EZI2C.c ****         /* Initialization was done before this function call */
 133:Generated_Source\PSoC4/EZI2C.c ****     }
 134:Generated_Source\PSoC4/EZI2C.c **** 
 135:Generated_Source\PSoC4/EZI2C.c **** #elif (EZI2C_SCB_MODE_I2C_CONST_CFG)
 136:Generated_Source\PSoC4/EZI2C.c ****     EZI2C_I2CInit();
 137:Generated_Source\PSoC4/EZI2C.c **** 
 138:Generated_Source\PSoC4/EZI2C.c **** #elif (EZI2C_SCB_MODE_SPI_CONST_CFG)
 139:Generated_Source\PSoC4/EZI2C.c ****     EZI2C_SpiInit();
 140:Generated_Source\PSoC4/EZI2C.c **** 
 141:Generated_Source\PSoC4/EZI2C.c **** #elif (EZI2C_SCB_MODE_UART_CONST_CFG)
 142:Generated_Source\PSoC4/EZI2C.c ****     EZI2C_UartInit();
 143:Generated_Source\PSoC4/EZI2C.c **** 
 144:Generated_Source\PSoC4/EZI2C.c **** #elif (EZI2C_SCB_MODE_EZI2C_CONST_CFG)
 145:Generated_Source\PSoC4/EZI2C.c ****     EZI2C_EzI2CInit();
 146:Generated_Source\PSoC4/EZI2C.c **** 
 147:Generated_Source\PSoC4/EZI2C.c **** #endif /* (EZI2C_SCB_MODE_UNCONFIG_CONST_CFG) */
ARM GAS  C:\Users\Greg\AppData\Local\Temp\ccH5LRwc.s 			page 4


 148:Generated_Source\PSoC4/EZI2C.c **** }
 149:Generated_Source\PSoC4/EZI2C.c **** 
 150:Generated_Source\PSoC4/EZI2C.c **** 
 151:Generated_Source\PSoC4/EZI2C.c **** /*******************************************************************************
 152:Generated_Source\PSoC4/EZI2C.c **** * Function Name: EZI2C_Enable
 153:Generated_Source\PSoC4/EZI2C.c **** ****************************************************************************//**
 154:Generated_Source\PSoC4/EZI2C.c **** *
 155:Generated_Source\PSoC4/EZI2C.c **** *  Enables EZI2C component operation: activates the hardware and 
 156:Generated_Source\PSoC4/EZI2C.c **** *  internal interrupt. It also restores TX interrupt sources disabled after the 
 157:Generated_Source\PSoC4/EZI2C.c **** *  EZI2C_Stop() function was called (note that level-triggered TX 
 158:Generated_Source\PSoC4/EZI2C.c **** *  interrupt sources remain disabled to not cause code lock-up).
 159:Generated_Source\PSoC4/EZI2C.c **** *  For I2C and EZI2C modes the interrupt is internal and mandatory for 
 160:Generated_Source\PSoC4/EZI2C.c **** *  operation. For SPI and UART modes the interrupt can be configured as none, 
 161:Generated_Source\PSoC4/EZI2C.c **** *  internal or external.
 162:Generated_Source\PSoC4/EZI2C.c **** *  The EZI2C configuration should be not changed when the component
 163:Generated_Source\PSoC4/EZI2C.c **** *  is enabled. Any configuration changes should be made after disabling the 
 164:Generated_Source\PSoC4/EZI2C.c **** *  component.
 165:Generated_Source\PSoC4/EZI2C.c **** *  When configuration is set to “Unconfigured EZI2C”, the component 
 166:Generated_Source\PSoC4/EZI2C.c **** *  must first be initialized to operate in one of the following configurations: 
 167:Generated_Source\PSoC4/EZI2C.c **** *  I2C, SPI, UART or EZ I2C, using the mode-specific initialization API. 
 168:Generated_Source\PSoC4/EZI2C.c **** *  Otherwise this function does not enable the component.
 169:Generated_Source\PSoC4/EZI2C.c **** *
 170:Generated_Source\PSoC4/EZI2C.c **** *******************************************************************************/
 171:Generated_Source\PSoC4/EZI2C.c **** void EZI2C_Enable(void)
 172:Generated_Source\PSoC4/EZI2C.c **** {
 173:Generated_Source\PSoC4/EZI2C.c **** #if (EZI2C_SCB_MODE_UNCONFIG_CONST_CFG)
 174:Generated_Source\PSoC4/EZI2C.c ****     /* Enable SCB block, only if it is already configured */
 175:Generated_Source\PSoC4/EZI2C.c ****     if (!EZI2C_SCB_MODE_UNCONFIG_RUNTM_CFG)
 176:Generated_Source\PSoC4/EZI2C.c ****     {
 177:Generated_Source\PSoC4/EZI2C.c ****         EZI2C_CTRL_REG |= EZI2C_CTRL_ENABLED;
 178:Generated_Source\PSoC4/EZI2C.c **** 
 179:Generated_Source\PSoC4/EZI2C.c ****         EZI2C_ScbEnableIntr();
 180:Generated_Source\PSoC4/EZI2C.c **** 
 181:Generated_Source\PSoC4/EZI2C.c ****         /* Call PostEnable function specific to current operation mode */
 182:Generated_Source\PSoC4/EZI2C.c ****         EZI2C_ScbModePostEnable();
 183:Generated_Source\PSoC4/EZI2C.c ****     }
 184:Generated_Source\PSoC4/EZI2C.c **** #else
 185:Generated_Source\PSoC4/EZI2C.c ****     EZI2C_CTRL_REG |= EZI2C_CTRL_ENABLED;
 186:Generated_Source\PSoC4/EZI2C.c **** 
 187:Generated_Source\PSoC4/EZI2C.c ****     EZI2C_ScbEnableIntr();
 188:Generated_Source\PSoC4/EZI2C.c **** 
 189:Generated_Source\PSoC4/EZI2C.c ****     /* Call PostEnable function specific to current operation mode */
 190:Generated_Source\PSoC4/EZI2C.c ****     EZI2C_ScbModePostEnable();
 191:Generated_Source\PSoC4/EZI2C.c **** #endif /* (EZI2C_SCB_MODE_UNCONFIG_CONST_CFG) */
 192:Generated_Source\PSoC4/EZI2C.c **** }
 193:Generated_Source\PSoC4/EZI2C.c **** 
 194:Generated_Source\PSoC4/EZI2C.c **** 
 195:Generated_Source\PSoC4/EZI2C.c **** /*******************************************************************************
 196:Generated_Source\PSoC4/EZI2C.c **** * Function Name: EZI2C_Start
 197:Generated_Source\PSoC4/EZI2C.c **** ****************************************************************************//**
 198:Generated_Source\PSoC4/EZI2C.c **** *
 199:Generated_Source\PSoC4/EZI2C.c **** *  Invokes EZI2C_Init() and EZI2C_Enable().
 200:Generated_Source\PSoC4/EZI2C.c **** *  After this function call, the component is enabled and ready for operation.
 201:Generated_Source\PSoC4/EZI2C.c **** *  When configuration is set to "Unconfigured SCB", the component must first be
 202:Generated_Source\PSoC4/EZI2C.c **** *  initialized to operate in one of the following configurations: I2C, SPI, UART
 203:Generated_Source\PSoC4/EZI2C.c **** *  or EZI2C. Otherwise this function does not enable the component.
 204:Generated_Source\PSoC4/EZI2C.c **** *
ARM GAS  C:\Users\Greg\AppData\Local\Temp\ccH5LRwc.s 			page 5


 205:Generated_Source\PSoC4/EZI2C.c **** * \globalvars
 206:Generated_Source\PSoC4/EZI2C.c **** *  EZI2C_initVar - used to check initial configuration, modified
 207:Generated_Source\PSoC4/EZI2C.c **** *  on first function call.
 208:Generated_Source\PSoC4/EZI2C.c **** *
 209:Generated_Source\PSoC4/EZI2C.c **** *******************************************************************************/
 210:Generated_Source\PSoC4/EZI2C.c **** void EZI2C_Start(void)
 211:Generated_Source\PSoC4/EZI2C.c **** {
 212:Generated_Source\PSoC4/EZI2C.c ****     if (0u == EZI2C_initVar)
 213:Generated_Source\PSoC4/EZI2C.c ****     {
 214:Generated_Source\PSoC4/EZI2C.c ****         EZI2C_Init();
 215:Generated_Source\PSoC4/EZI2C.c ****         EZI2C_initVar = 1u; /* Component was initialized */
 216:Generated_Source\PSoC4/EZI2C.c ****     }
 217:Generated_Source\PSoC4/EZI2C.c **** 
 218:Generated_Source\PSoC4/EZI2C.c ****     EZI2C_Enable();
 219:Generated_Source\PSoC4/EZI2C.c **** }
 220:Generated_Source\PSoC4/EZI2C.c **** 
 221:Generated_Source\PSoC4/EZI2C.c **** 
 222:Generated_Source\PSoC4/EZI2C.c **** /*******************************************************************************
 223:Generated_Source\PSoC4/EZI2C.c **** * Function Name: EZI2C_Stop
 224:Generated_Source\PSoC4/EZI2C.c **** ****************************************************************************//**
 225:Generated_Source\PSoC4/EZI2C.c **** *
 226:Generated_Source\PSoC4/EZI2C.c **** *  Disables the EZI2C component: disable the hardware and internal 
 227:Generated_Source\PSoC4/EZI2C.c **** *  interrupt. It also disables all TX interrupt sources so as not to cause an 
 228:Generated_Source\PSoC4/EZI2C.c **** *  unexpected interrupt trigger because after the component is enabled, the 
 229:Generated_Source\PSoC4/EZI2C.c **** *  TX FIFO is empty.
 230:Generated_Source\PSoC4/EZI2C.c **** *  Refer to the function EZI2C_Enable() for the interrupt 
 231:Generated_Source\PSoC4/EZI2C.c **** *  configuration details.
 232:Generated_Source\PSoC4/EZI2C.c **** *  This function disables the SCB component without checking to see if 
 233:Generated_Source\PSoC4/EZI2C.c **** *  communication is in progress. Before calling this function it may be 
 234:Generated_Source\PSoC4/EZI2C.c **** *  necessary to check the status of communication to make sure communication 
 235:Generated_Source\PSoC4/EZI2C.c **** *  is complete. If this is not done then communication could be stopped mid 
 236:Generated_Source\PSoC4/EZI2C.c **** *  byte and corrupted data could result.
 237:Generated_Source\PSoC4/EZI2C.c **** *
 238:Generated_Source\PSoC4/EZI2C.c **** *******************************************************************************/
 239:Generated_Source\PSoC4/EZI2C.c **** void EZI2C_Stop(void)
 240:Generated_Source\PSoC4/EZI2C.c **** {
 241:Generated_Source\PSoC4/EZI2C.c **** #if (EZI2C_SCB_IRQ_INTERNAL)
 242:Generated_Source\PSoC4/EZI2C.c ****     EZI2C_DisableInt();
 243:Generated_Source\PSoC4/EZI2C.c **** #endif /* (EZI2C_SCB_IRQ_INTERNAL) */
 244:Generated_Source\PSoC4/EZI2C.c **** 
 245:Generated_Source\PSoC4/EZI2C.c ****     /* Call Stop function specific to current operation mode */
 246:Generated_Source\PSoC4/EZI2C.c ****     EZI2C_ScbModeStop();
 247:Generated_Source\PSoC4/EZI2C.c **** 
 248:Generated_Source\PSoC4/EZI2C.c ****     /* Disable SCB IP */
 249:Generated_Source\PSoC4/EZI2C.c ****     EZI2C_CTRL_REG &= (uint32) ~EZI2C_CTRL_ENABLED;
 250:Generated_Source\PSoC4/EZI2C.c **** 
 251:Generated_Source\PSoC4/EZI2C.c ****     /* Disable all TX interrupt sources so as not to cause an unexpected
 252:Generated_Source\PSoC4/EZI2C.c ****     * interrupt trigger after the component will be enabled because the 
 253:Generated_Source\PSoC4/EZI2C.c ****     * TX FIFO is empty.
 254:Generated_Source\PSoC4/EZI2C.c ****     * For SCB IP v0, it is critical as it does not mask-out interrupt
 255:Generated_Source\PSoC4/EZI2C.c ****     * sources when it is disabled. This can cause a code lock-up in the
 256:Generated_Source\PSoC4/EZI2C.c ****     * interrupt handler because TX FIFO cannot be loaded after the block
 257:Generated_Source\PSoC4/EZI2C.c ****     * is disabled.
 258:Generated_Source\PSoC4/EZI2C.c ****     */
 259:Generated_Source\PSoC4/EZI2C.c ****     EZI2C_SetTxInterruptMode(EZI2C_NO_INTR_SOURCES);
 260:Generated_Source\PSoC4/EZI2C.c **** 
 261:Generated_Source\PSoC4/EZI2C.c **** #if (EZI2C_SCB_IRQ_INTERNAL)
ARM GAS  C:\Users\Greg\AppData\Local\Temp\ccH5LRwc.s 			page 6


 262:Generated_Source\PSoC4/EZI2C.c ****     EZI2C_ClearPendingInt();
 263:Generated_Source\PSoC4/EZI2C.c **** #endif /* (EZI2C_SCB_IRQ_INTERNAL) */
 264:Generated_Source\PSoC4/EZI2C.c **** }
 265:Generated_Source\PSoC4/EZI2C.c **** 
 266:Generated_Source\PSoC4/EZI2C.c **** 
 267:Generated_Source\PSoC4/EZI2C.c **** /*******************************************************************************
 268:Generated_Source\PSoC4/EZI2C.c **** * Function Name: EZI2C_SetRxFifoLevel
 269:Generated_Source\PSoC4/EZI2C.c **** ****************************************************************************//**
 270:Generated_Source\PSoC4/EZI2C.c **** *
 271:Generated_Source\PSoC4/EZI2C.c **** *  Sets level in the RX FIFO to generate a RX level interrupt.
 272:Generated_Source\PSoC4/EZI2C.c **** *  When the RX FIFO has more entries than the RX FIFO level an RX level
 273:Generated_Source\PSoC4/EZI2C.c **** *  interrupt request is generated.
 274:Generated_Source\PSoC4/EZI2C.c **** *
 275:Generated_Source\PSoC4/EZI2C.c **** *  \param level: Level in the RX FIFO to generate RX level interrupt.
 276:Generated_Source\PSoC4/EZI2C.c **** *   The range of valid level values is between 0 and RX FIFO depth - 1.
 277:Generated_Source\PSoC4/EZI2C.c **** *
 278:Generated_Source\PSoC4/EZI2C.c **** *******************************************************************************/
 279:Generated_Source\PSoC4/EZI2C.c **** void EZI2C_SetRxFifoLevel(uint32 level)
 280:Generated_Source\PSoC4/EZI2C.c **** {
 281:Generated_Source\PSoC4/EZI2C.c ****     uint32 rxFifoCtrl;
 282:Generated_Source\PSoC4/EZI2C.c **** 
 283:Generated_Source\PSoC4/EZI2C.c ****     rxFifoCtrl = EZI2C_RX_FIFO_CTRL_REG;
 284:Generated_Source\PSoC4/EZI2C.c **** 
 285:Generated_Source\PSoC4/EZI2C.c ****     rxFifoCtrl &= ((uint32) ~EZI2C_RX_FIFO_CTRL_TRIGGER_LEVEL_MASK); /* Clear level mask bits */
 286:Generated_Source\PSoC4/EZI2C.c ****     rxFifoCtrl |= ((uint32) (EZI2C_RX_FIFO_CTRL_TRIGGER_LEVEL_MASK & level));
 287:Generated_Source\PSoC4/EZI2C.c **** 
 288:Generated_Source\PSoC4/EZI2C.c ****     EZI2C_RX_FIFO_CTRL_REG = rxFifoCtrl;
 289:Generated_Source\PSoC4/EZI2C.c **** }
 290:Generated_Source\PSoC4/EZI2C.c **** 
 291:Generated_Source\PSoC4/EZI2C.c **** 
 292:Generated_Source\PSoC4/EZI2C.c **** /*******************************************************************************
 293:Generated_Source\PSoC4/EZI2C.c **** * Function Name: EZI2C_SetTxFifoLevel
 294:Generated_Source\PSoC4/EZI2C.c **** ****************************************************************************//**
 295:Generated_Source\PSoC4/EZI2C.c **** *
 296:Generated_Source\PSoC4/EZI2C.c **** *  Sets level in the TX FIFO to generate a TX level interrupt.
 297:Generated_Source\PSoC4/EZI2C.c **** *  When the TX FIFO has less entries than the TX FIFO level an TX level
 298:Generated_Source\PSoC4/EZI2C.c **** *  interrupt request is generated.
 299:Generated_Source\PSoC4/EZI2C.c **** *
 300:Generated_Source\PSoC4/EZI2C.c **** *  \param level: Level in the TX FIFO to generate TX level interrupt.
 301:Generated_Source\PSoC4/EZI2C.c **** *   The range of valid level values is between 0 and TX FIFO depth - 1.
 302:Generated_Source\PSoC4/EZI2C.c **** *
 303:Generated_Source\PSoC4/EZI2C.c **** *******************************************************************************/
 304:Generated_Source\PSoC4/EZI2C.c **** void EZI2C_SetTxFifoLevel(uint32 level)
 305:Generated_Source\PSoC4/EZI2C.c **** {
 306:Generated_Source\PSoC4/EZI2C.c ****     uint32 txFifoCtrl;
 307:Generated_Source\PSoC4/EZI2C.c **** 
 308:Generated_Source\PSoC4/EZI2C.c ****     txFifoCtrl = EZI2C_TX_FIFO_CTRL_REG;
 309:Generated_Source\PSoC4/EZI2C.c **** 
 310:Generated_Source\PSoC4/EZI2C.c ****     txFifoCtrl &= ((uint32) ~EZI2C_TX_FIFO_CTRL_TRIGGER_LEVEL_MASK); /* Clear level mask bits */
 311:Generated_Source\PSoC4/EZI2C.c ****     txFifoCtrl |= ((uint32) (EZI2C_TX_FIFO_CTRL_TRIGGER_LEVEL_MASK & level));
 312:Generated_Source\PSoC4/EZI2C.c **** 
 313:Generated_Source\PSoC4/EZI2C.c ****     EZI2C_TX_FIFO_CTRL_REG = txFifoCtrl;
 314:Generated_Source\PSoC4/EZI2C.c **** }
 315:Generated_Source\PSoC4/EZI2C.c **** 
 316:Generated_Source\PSoC4/EZI2C.c **** 
 317:Generated_Source\PSoC4/EZI2C.c **** #if (EZI2C_SCB_IRQ_INTERNAL)
 318:Generated_Source\PSoC4/EZI2C.c ****     /*******************************************************************************
ARM GAS  C:\Users\Greg\AppData\Local\Temp\ccH5LRwc.s 			page 7


 319:Generated_Source\PSoC4/EZI2C.c ****     * Function Name: EZI2C_SetCustomInterruptHandler
 320:Generated_Source\PSoC4/EZI2C.c ****     ****************************************************************************//**
 321:Generated_Source\PSoC4/EZI2C.c ****     *
 322:Generated_Source\PSoC4/EZI2C.c ****     *  Registers a function to be called by the internal interrupt handler.
 323:Generated_Source\PSoC4/EZI2C.c ****     *  First the function that is registered is called, then the internal interrupt
 324:Generated_Source\PSoC4/EZI2C.c ****     *  handler performs any operation such as software buffer management functions
 325:Generated_Source\PSoC4/EZI2C.c ****     *  before the interrupt returns.  It is the user's responsibility not to break
 326:Generated_Source\PSoC4/EZI2C.c ****     *  the software buffer operations. Only one custom handler is supported, which
 327:Generated_Source\PSoC4/EZI2C.c ****     *  is the function provided by the most recent call.
 328:Generated_Source\PSoC4/EZI2C.c ****     *  At the initialization time no custom handler is registered.
 329:Generated_Source\PSoC4/EZI2C.c ****     *
 330:Generated_Source\PSoC4/EZI2C.c ****     *  \param func: Pointer to the function to register.
 331:Generated_Source\PSoC4/EZI2C.c ****     *        The value NULL indicates to remove the current custom interrupt
 332:Generated_Source\PSoC4/EZI2C.c ****     *        handler.
 333:Generated_Source\PSoC4/EZI2C.c ****     *
 334:Generated_Source\PSoC4/EZI2C.c ****     *******************************************************************************/
 335:Generated_Source\PSoC4/EZI2C.c ****     void EZI2C_SetCustomInterruptHandler(void (*func)(void))
 336:Generated_Source\PSoC4/EZI2C.c ****     {
 337:Generated_Source\PSoC4/EZI2C.c ****     #if !defined (CY_REMOVE_EZI2C_CUSTOM_INTR_HANDLER)
 338:Generated_Source\PSoC4/EZI2C.c ****         EZI2C_customIntrHandler = func; /* Register interrupt handler */
 339:Generated_Source\PSoC4/EZI2C.c ****     #else
 340:Generated_Source\PSoC4/EZI2C.c ****         if (NULL != func)
 341:Generated_Source\PSoC4/EZI2C.c ****         {
 342:Generated_Source\PSoC4/EZI2C.c ****             /* Suppress compiler warning */
 343:Generated_Source\PSoC4/EZI2C.c ****         }
 344:Generated_Source\PSoC4/EZI2C.c ****     #endif /* !defined (CY_REMOVE_EZI2C_CUSTOM_INTR_HANDLER) */
 345:Generated_Source\PSoC4/EZI2C.c ****     }
 346:Generated_Source\PSoC4/EZI2C.c **** #endif /* (EZI2C_SCB_IRQ_INTERNAL) */
 347:Generated_Source\PSoC4/EZI2C.c **** 
 348:Generated_Source\PSoC4/EZI2C.c **** 
 349:Generated_Source\PSoC4/EZI2C.c **** /*******************************************************************************
 350:Generated_Source\PSoC4/EZI2C.c **** * Function Name: EZI2C_ScbModeEnableIntr
 351:Generated_Source\PSoC4/EZI2C.c **** ****************************************************************************//**
 352:Generated_Source\PSoC4/EZI2C.c **** *
 353:Generated_Source\PSoC4/EZI2C.c **** *  Enables an interrupt for a specific mode.
 354:Generated_Source\PSoC4/EZI2C.c **** *
 355:Generated_Source\PSoC4/EZI2C.c **** *******************************************************************************/
 356:Generated_Source\PSoC4/EZI2C.c **** static void EZI2C_ScbEnableIntr(void)
 357:Generated_Source\PSoC4/EZI2C.c **** {
  25              		.loc 1 357 0
  26              		.cfi_startproc
  27 0000 08B5     		push	{r3, lr}
  28              		.cfi_def_cfa_offset 8
  29              		.cfi_offset 3, -8
  30              		.cfi_offset 14, -4
 358:Generated_Source\PSoC4/EZI2C.c **** #if (EZI2C_SCB_IRQ_INTERNAL)
 359:Generated_Source\PSoC4/EZI2C.c ****     /* Enable interrupt in NVIC */
 360:Generated_Source\PSoC4/EZI2C.c ****     #if (EZI2C_SCB_MODE_UNCONFIG_CONST_CFG)
 361:Generated_Source\PSoC4/EZI2C.c ****         if (0u != EZI2C_scbEnableIntr)
 362:Generated_Source\PSoC4/EZI2C.c ****         {
 363:Generated_Source\PSoC4/EZI2C.c ****             EZI2C_EnableInt();
 364:Generated_Source\PSoC4/EZI2C.c ****         }
 365:Generated_Source\PSoC4/EZI2C.c **** 
 366:Generated_Source\PSoC4/EZI2C.c ****     #else
 367:Generated_Source\PSoC4/EZI2C.c ****         EZI2C_EnableInt();
  31              		.loc 1 367 0
  32 0002 0A20     		mov	r0, #10
ARM GAS  C:\Users\Greg\AppData\Local\Temp\ccH5LRwc.s 			page 8


  33 0004 FFF7FEFF 		bl	CyIntEnable
  34              	.LVL0:
 368:Generated_Source\PSoC4/EZI2C.c **** 
 369:Generated_Source\PSoC4/EZI2C.c ****     #endif /* (EZI2C_SCB_MODE_UNCONFIG_CONST_CFG) */
 370:Generated_Source\PSoC4/EZI2C.c **** #endif /* (EZI2C_SCB_IRQ_INTERNAL) */
 371:Generated_Source\PSoC4/EZI2C.c **** }
  35              		.loc 1 371 0
  36              		@ sp needed
  37 0008 08BD     		pop	{r3, pc}
  38              		.cfi_endproc
  39              	.LFE8:
  40              		.size	EZI2C_ScbEnableIntr, .-EZI2C_ScbEnableIntr
  41 000a C046     		.section	.text.EZI2C_ScbModeStop,"ax",%progbits
  42              		.align	2
  43              		.code	16
  44              		.thumb_func
  45              		.type	EZI2C_ScbModeStop, %function
  46              	EZI2C_ScbModeStop:
  47              	.LFB10:
 372:Generated_Source\PSoC4/EZI2C.c **** 
 373:Generated_Source\PSoC4/EZI2C.c **** 
 374:Generated_Source\PSoC4/EZI2C.c **** /*******************************************************************************
 375:Generated_Source\PSoC4/EZI2C.c **** * Function Name: EZI2C_ScbModePostEnable
 376:Generated_Source\PSoC4/EZI2C.c **** ****************************************************************************//**
 377:Generated_Source\PSoC4/EZI2C.c **** *
 378:Generated_Source\PSoC4/EZI2C.c **** *  Calls the PostEnable function for a specific operation mode.
 379:Generated_Source\PSoC4/EZI2C.c **** *
 380:Generated_Source\PSoC4/EZI2C.c **** *******************************************************************************/
 381:Generated_Source\PSoC4/EZI2C.c **** static void EZI2C_ScbModePostEnable(void)
 382:Generated_Source\PSoC4/EZI2C.c **** {
 383:Generated_Source\PSoC4/EZI2C.c **** #if (EZI2C_SCB_MODE_UNCONFIG_CONST_CFG)
 384:Generated_Source\PSoC4/EZI2C.c **** #if (!EZI2C_CY_SCBIP_V1)
 385:Generated_Source\PSoC4/EZI2C.c ****     if (EZI2C_SCB_MODE_SPI_RUNTM_CFG)
 386:Generated_Source\PSoC4/EZI2C.c ****     {
 387:Generated_Source\PSoC4/EZI2C.c ****         EZI2C_SpiPostEnable();
 388:Generated_Source\PSoC4/EZI2C.c ****     }
 389:Generated_Source\PSoC4/EZI2C.c ****     else if (EZI2C_SCB_MODE_UART_RUNTM_CFG)
 390:Generated_Source\PSoC4/EZI2C.c ****     {
 391:Generated_Source\PSoC4/EZI2C.c ****         EZI2C_UartPostEnable();
 392:Generated_Source\PSoC4/EZI2C.c ****     }
 393:Generated_Source\PSoC4/EZI2C.c ****     else
 394:Generated_Source\PSoC4/EZI2C.c ****     {
 395:Generated_Source\PSoC4/EZI2C.c ****         /* Unknown mode: do nothing */
 396:Generated_Source\PSoC4/EZI2C.c ****     }
 397:Generated_Source\PSoC4/EZI2C.c **** #endif /* (!EZI2C_CY_SCBIP_V1) */
 398:Generated_Source\PSoC4/EZI2C.c **** 
 399:Generated_Source\PSoC4/EZI2C.c **** #elif (EZI2C_SCB_MODE_SPI_CONST_CFG)
 400:Generated_Source\PSoC4/EZI2C.c ****     EZI2C_SpiPostEnable();
 401:Generated_Source\PSoC4/EZI2C.c **** 
 402:Generated_Source\PSoC4/EZI2C.c **** #elif (EZI2C_SCB_MODE_UART_CONST_CFG)
 403:Generated_Source\PSoC4/EZI2C.c ****     EZI2C_UartPostEnable();
 404:Generated_Source\PSoC4/EZI2C.c **** 
 405:Generated_Source\PSoC4/EZI2C.c **** #else
 406:Generated_Source\PSoC4/EZI2C.c ****     /* Unknown mode: do nothing */
 407:Generated_Source\PSoC4/EZI2C.c **** #endif /* (EZI2C_SCB_MODE_UNCONFIG_CONST_CFG) */
 408:Generated_Source\PSoC4/EZI2C.c **** }
 409:Generated_Source\PSoC4/EZI2C.c **** 
ARM GAS  C:\Users\Greg\AppData\Local\Temp\ccH5LRwc.s 			page 9


 410:Generated_Source\PSoC4/EZI2C.c **** 
 411:Generated_Source\PSoC4/EZI2C.c **** /*******************************************************************************
 412:Generated_Source\PSoC4/EZI2C.c **** * Function Name: EZI2C_ScbModeStop
 413:Generated_Source\PSoC4/EZI2C.c **** ****************************************************************************//**
 414:Generated_Source\PSoC4/EZI2C.c **** *
 415:Generated_Source\PSoC4/EZI2C.c **** *  Calls the Stop function for a specific operation mode.
 416:Generated_Source\PSoC4/EZI2C.c **** *
 417:Generated_Source\PSoC4/EZI2C.c **** *******************************************************************************/
 418:Generated_Source\PSoC4/EZI2C.c **** static void EZI2C_ScbModeStop(void)
 419:Generated_Source\PSoC4/EZI2C.c **** {
  48              		.loc 1 419 0
  49              		.cfi_startproc
  50 0000 08B5     		push	{r3, lr}
  51              		.cfi_def_cfa_offset 8
  52              		.cfi_offset 3, -8
  53              		.cfi_offset 14, -4
 420:Generated_Source\PSoC4/EZI2C.c **** #if (EZI2C_SCB_MODE_UNCONFIG_CONST_CFG)
 421:Generated_Source\PSoC4/EZI2C.c ****     if (EZI2C_SCB_MODE_I2C_RUNTM_CFG)
 422:Generated_Source\PSoC4/EZI2C.c ****     {
 423:Generated_Source\PSoC4/EZI2C.c ****         EZI2C_I2CStop();
 424:Generated_Source\PSoC4/EZI2C.c ****     }
 425:Generated_Source\PSoC4/EZI2C.c ****     else if (EZI2C_SCB_MODE_EZI2C_RUNTM_CFG)
 426:Generated_Source\PSoC4/EZI2C.c ****     {
 427:Generated_Source\PSoC4/EZI2C.c ****         EZI2C_EzI2CStop();
 428:Generated_Source\PSoC4/EZI2C.c ****     }
 429:Generated_Source\PSoC4/EZI2C.c **** #if (!EZI2C_CY_SCBIP_V1)
 430:Generated_Source\PSoC4/EZI2C.c ****     else if (EZI2C_SCB_MODE_SPI_RUNTM_CFG)
 431:Generated_Source\PSoC4/EZI2C.c ****     {
 432:Generated_Source\PSoC4/EZI2C.c ****         EZI2C_SpiStop();
 433:Generated_Source\PSoC4/EZI2C.c ****     }
 434:Generated_Source\PSoC4/EZI2C.c ****     else if (EZI2C_SCB_MODE_UART_RUNTM_CFG)
 435:Generated_Source\PSoC4/EZI2C.c ****     {
 436:Generated_Source\PSoC4/EZI2C.c ****         EZI2C_UartStop();
 437:Generated_Source\PSoC4/EZI2C.c ****     }
 438:Generated_Source\PSoC4/EZI2C.c **** #endif /* (!EZI2C_CY_SCBIP_V1) */
 439:Generated_Source\PSoC4/EZI2C.c ****     else
 440:Generated_Source\PSoC4/EZI2C.c ****     {
 441:Generated_Source\PSoC4/EZI2C.c ****         /* Unknown mode: do nothing */
 442:Generated_Source\PSoC4/EZI2C.c ****     }
 443:Generated_Source\PSoC4/EZI2C.c **** #elif (EZI2C_SCB_MODE_I2C_CONST_CFG)
 444:Generated_Source\PSoC4/EZI2C.c ****     EZI2C_I2CStop();
 445:Generated_Source\PSoC4/EZI2C.c **** 
 446:Generated_Source\PSoC4/EZI2C.c **** #elif (EZI2C_SCB_MODE_EZI2C_CONST_CFG)
 447:Generated_Source\PSoC4/EZI2C.c ****     EZI2C_EzI2CStop();
  54              		.loc 1 447 0
  55 0002 FFF7FEFF 		bl	EZI2C_EzI2CStop
  56              	.LVL1:
 448:Generated_Source\PSoC4/EZI2C.c **** 
 449:Generated_Source\PSoC4/EZI2C.c **** #elif (EZI2C_SCB_MODE_SPI_CONST_CFG)
 450:Generated_Source\PSoC4/EZI2C.c ****     EZI2C_SpiStop();
 451:Generated_Source\PSoC4/EZI2C.c **** 
 452:Generated_Source\PSoC4/EZI2C.c **** #elif (EZI2C_SCB_MODE_UART_CONST_CFG)
 453:Generated_Source\PSoC4/EZI2C.c ****     EZI2C_UartStop();
 454:Generated_Source\PSoC4/EZI2C.c **** 
 455:Generated_Source\PSoC4/EZI2C.c **** #else
 456:Generated_Source\PSoC4/EZI2C.c ****     /* Unknown mode: do nothing */
 457:Generated_Source\PSoC4/EZI2C.c **** #endif /* (EZI2C_SCB_MODE_UNCONFIG_CONST_CFG) */
ARM GAS  C:\Users\Greg\AppData\Local\Temp\ccH5LRwc.s 			page 10


 458:Generated_Source\PSoC4/EZI2C.c **** }
  57              		.loc 1 458 0
  58              		@ sp needed
  59 0006 08BD     		pop	{r3, pc}
  60              		.cfi_endproc
  61              	.LFE10:
  62              		.size	EZI2C_ScbModeStop, .-EZI2C_ScbModeStop
  63              		.section	.text.EZI2C_Init,"ax",%progbits
  64              		.align	2
  65              		.global	EZI2C_Init
  66              		.code	16
  67              		.thumb_func
  68              		.type	EZI2C_Init, %function
  69              	EZI2C_Init:
  70              	.LFB1:
 124:Generated_Source\PSoC4/EZI2C.c **** #if (EZI2C_SCB_MODE_UNCONFIG_CONST_CFG)
  71              		.loc 1 124 0
  72              		.cfi_startproc
  73 0000 08B5     		push	{r3, lr}
  74              		.cfi_def_cfa_offset 8
  75              		.cfi_offset 3, -8
  76              		.cfi_offset 14, -4
 145:Generated_Source\PSoC4/EZI2C.c **** 
  77              		.loc 1 145 0
  78 0002 FFF7FEFF 		bl	EZI2C_EzI2CInit
  79              	.LVL2:
 148:Generated_Source\PSoC4/EZI2C.c **** 
  80              		.loc 1 148 0
  81              		@ sp needed
  82 0006 08BD     		pop	{r3, pc}
  83              		.cfi_endproc
  84              	.LFE1:
  85              		.size	EZI2C_Init, .-EZI2C_Init
  86              		.section	.text.EZI2C_Enable,"ax",%progbits
  87              		.align	2
  88              		.global	EZI2C_Enable
  89              		.code	16
  90              		.thumb_func
  91              		.type	EZI2C_Enable, %function
  92              	EZI2C_Enable:
  93              	.LFB2:
 172:Generated_Source\PSoC4/EZI2C.c **** #if (EZI2C_SCB_MODE_UNCONFIG_CONST_CFG)
  94              		.loc 1 172 0
  95              		.cfi_startproc
  96 0000 08B5     		push	{r3, lr}
  97              		.cfi_def_cfa_offset 8
  98              		.cfi_offset 3, -8
  99              		.cfi_offset 14, -4
 185:Generated_Source\PSoC4/EZI2C.c **** 
 100              		.loc 1 185 0
 101 0002 044A     		ldr	r2, .L5
 102 0004 1368     		ldr	r3, [r2]
 103 0006 8021     		mov	r1, #128
 104 0008 0906     		lsl	r1, r1, #24
 105 000a 0B43     		orr	r3, r1
 106 000c 1360     		str	r3, [r2]
 187:Generated_Source\PSoC4/EZI2C.c **** 
ARM GAS  C:\Users\Greg\AppData\Local\Temp\ccH5LRwc.s 			page 11


 107              		.loc 1 187 0
 108 000e FFF7FEFF 		bl	EZI2C_ScbEnableIntr
 109              	.LVL3:
 192:Generated_Source\PSoC4/EZI2C.c **** 
 110              		.loc 1 192 0
 111              		@ sp needed
 112 0012 08BD     		pop	{r3, pc}
 113              	.L6:
 114              		.align	2
 115              	.L5:
 116 0014 00000940 		.word	1074331648
 117              		.cfi_endproc
 118              	.LFE2:
 119              		.size	EZI2C_Enable, .-EZI2C_Enable
 120              		.section	.text.EZI2C_Start,"ax",%progbits
 121              		.align	2
 122              		.global	EZI2C_Start
 123              		.code	16
 124              		.thumb_func
 125              		.type	EZI2C_Start, %function
 126              	EZI2C_Start:
 127              	.LFB3:
 211:Generated_Source\PSoC4/EZI2C.c ****     if (0u == EZI2C_initVar)
 128              		.loc 1 211 0
 129              		.cfi_startproc
 130 0000 08B5     		push	{r3, lr}
 131              		.cfi_def_cfa_offset 8
 132              		.cfi_offset 3, -8
 133              		.cfi_offset 14, -4
 212:Generated_Source\PSoC4/EZI2C.c ****     {
 134              		.loc 1 212 0
 135 0002 064B     		ldr	r3, .L9
 136 0004 1B78     		ldrb	r3, [r3]
 137 0006 002B     		cmp	r3, #0
 138 0008 04D1     		bne	.L8
 214:Generated_Source\PSoC4/EZI2C.c ****         EZI2C_initVar = 1u; /* Component was initialized */
 139              		.loc 1 214 0
 140 000a FFF7FEFF 		bl	EZI2C_Init
 141              	.LVL4:
 215:Generated_Source\PSoC4/EZI2C.c ****     }
 142              		.loc 1 215 0
 143 000e 0122     		mov	r2, #1
 144 0010 024B     		ldr	r3, .L9
 145 0012 1A70     		strb	r2, [r3]
 146              	.L8:
 218:Generated_Source\PSoC4/EZI2C.c **** }
 147              		.loc 1 218 0
 148 0014 FFF7FEFF 		bl	EZI2C_Enable
 149              	.LVL5:
 219:Generated_Source\PSoC4/EZI2C.c **** 
 150              		.loc 1 219 0
 151              		@ sp needed
 152 0018 08BD     		pop	{r3, pc}
 153              	.L10:
 154 001a C046     		.align	2
 155              	.L9:
 156 001c 00000000 		.word	.LANCHOR0
ARM GAS  C:\Users\Greg\AppData\Local\Temp\ccH5LRwc.s 			page 12


 157              		.cfi_endproc
 158              	.LFE3:
 159              		.size	EZI2C_Start, .-EZI2C_Start
 160              		.section	.text.EZI2C_Stop,"ax",%progbits
 161              		.align	2
 162              		.global	EZI2C_Stop
 163              		.code	16
 164              		.thumb_func
 165              		.type	EZI2C_Stop, %function
 166              	EZI2C_Stop:
 167              	.LFB4:
 240:Generated_Source\PSoC4/EZI2C.c **** #if (EZI2C_SCB_IRQ_INTERNAL)
 168              		.loc 1 240 0
 169              		.cfi_startproc
 170 0000 08B5     		push	{r3, lr}
 171              		.cfi_def_cfa_offset 8
 172              		.cfi_offset 3, -8
 173              		.cfi_offset 14, -4
 242:Generated_Source\PSoC4/EZI2C.c **** #endif /* (EZI2C_SCB_IRQ_INTERNAL) */
 174              		.loc 1 242 0
 175 0002 0A20     		mov	r0, #10
 176 0004 FFF7FEFF 		bl	CyIntDisable
 177              	.LVL6:
 246:Generated_Source\PSoC4/EZI2C.c **** 
 178              		.loc 1 246 0
 179 0008 FFF7FEFF 		bl	EZI2C_ScbModeStop
 180              	.LVL7:
 249:Generated_Source\PSoC4/EZI2C.c **** 
 181              		.loc 1 249 0
 182 000c 054A     		ldr	r2, .L12
 183 000e 1368     		ldr	r3, [r2]
 184 0010 5B00     		lsl	r3, r3, #1
 185 0012 5B08     		lsr	r3, r3, #1
 186 0014 1360     		str	r3, [r2]
 259:Generated_Source\PSoC4/EZI2C.c **** 
 187              		.loc 1 259 0
 188 0016 0022     		mov	r2, #0
 189 0018 034B     		ldr	r3, .L12+4
 190 001a 1A60     		str	r2, [r3]
 262:Generated_Source\PSoC4/EZI2C.c **** #endif /* (EZI2C_SCB_IRQ_INTERNAL) */
 191              		.loc 1 262 0
 192 001c 0A20     		mov	r0, #10
 193 001e FFF7FEFF 		bl	CyIntClearPending
 194              	.LVL8:
 264:Generated_Source\PSoC4/EZI2C.c **** 
 195              		.loc 1 264 0
 196              		@ sp needed
 197 0022 08BD     		pop	{r3, pc}
 198              	.L13:
 199              		.align	2
 200              	.L12:
 201 0024 00000940 		.word	1074331648
 202 0028 880F0940 		.word	1074335624
 203              		.cfi_endproc
 204              	.LFE4:
 205              		.size	EZI2C_Stop, .-EZI2C_Stop
 206              		.section	.text.EZI2C_SetRxFifoLevel,"ax",%progbits
ARM GAS  C:\Users\Greg\AppData\Local\Temp\ccH5LRwc.s 			page 13


 207              		.align	2
 208              		.global	EZI2C_SetRxFifoLevel
 209              		.code	16
 210              		.thumb_func
 211              		.type	EZI2C_SetRxFifoLevel, %function
 212              	EZI2C_SetRxFifoLevel:
 213              	.LFB5:
 280:Generated_Source\PSoC4/EZI2C.c ****     uint32 rxFifoCtrl;
 214              		.loc 1 280 0
 215              		.cfi_startproc
 216              	.LVL9:
 283:Generated_Source\PSoC4/EZI2C.c **** 
 217              		.loc 1 283 0
 218 0000 034A     		ldr	r2, .L15
 219 0002 1368     		ldr	r3, [r2]
 220              	.LVL10:
 285:Generated_Source\PSoC4/EZI2C.c ****     rxFifoCtrl |= ((uint32) (EZI2C_RX_FIFO_CTRL_TRIGGER_LEVEL_MASK & level));
 221              		.loc 1 285 0
 222 0004 0F21     		mov	r1, #15
 223 0006 8B43     		bic	r3, r1
 224              	.LVL11:
 286:Generated_Source\PSoC4/EZI2C.c **** 
 225              		.loc 1 286 0
 226 0008 0840     		and	r0, r1
 227              	.LVL12:
 228 000a 1843     		orr	r0, r3
 229              	.LVL13:
 288:Generated_Source\PSoC4/EZI2C.c **** }
 230              		.loc 1 288 0
 231 000c 1060     		str	r0, [r2]
 289:Generated_Source\PSoC4/EZI2C.c **** 
 232              		.loc 1 289 0
 233              		@ sp needed
 234 000e 7047     		bx	lr
 235              	.L16:
 236              		.align	2
 237              	.L15:
 238 0010 04030940 		.word	1074332420
 239              		.cfi_endproc
 240              	.LFE5:
 241              		.size	EZI2C_SetRxFifoLevel, .-EZI2C_SetRxFifoLevel
 242              		.section	.text.EZI2C_SetTxFifoLevel,"ax",%progbits
 243              		.align	2
 244              		.global	EZI2C_SetTxFifoLevel
 245              		.code	16
 246              		.thumb_func
 247              		.type	EZI2C_SetTxFifoLevel, %function
 248              	EZI2C_SetTxFifoLevel:
 249              	.LFB6:
 305:Generated_Source\PSoC4/EZI2C.c ****     uint32 txFifoCtrl;
 250              		.loc 1 305 0
 251              		.cfi_startproc
 252              	.LVL14:
 308:Generated_Source\PSoC4/EZI2C.c **** 
 253              		.loc 1 308 0
 254 0000 034A     		ldr	r2, .L18
 255 0002 1368     		ldr	r3, [r2]
ARM GAS  C:\Users\Greg\AppData\Local\Temp\ccH5LRwc.s 			page 14


 256              	.LVL15:
 310:Generated_Source\PSoC4/EZI2C.c ****     txFifoCtrl |= ((uint32) (EZI2C_TX_FIFO_CTRL_TRIGGER_LEVEL_MASK & level));
 257              		.loc 1 310 0
 258 0004 0F21     		mov	r1, #15
 259 0006 8B43     		bic	r3, r1
 260              	.LVL16:
 311:Generated_Source\PSoC4/EZI2C.c **** 
 261              		.loc 1 311 0
 262 0008 0840     		and	r0, r1
 263              	.LVL17:
 264 000a 1843     		orr	r0, r3
 265              	.LVL18:
 313:Generated_Source\PSoC4/EZI2C.c **** }
 266              		.loc 1 313 0
 267 000c 1060     		str	r0, [r2]
 314:Generated_Source\PSoC4/EZI2C.c **** 
 268              		.loc 1 314 0
 269              		@ sp needed
 270 000e 7047     		bx	lr
 271              	.L19:
 272              		.align	2
 273              	.L18:
 274 0010 04020940 		.word	1074332164
 275              		.cfi_endproc
 276              	.LFE6:
 277              		.size	EZI2C_SetTxFifoLevel, .-EZI2C_SetTxFifoLevel
 278              		.section	.text.EZI2C_SetCustomInterruptHandler,"ax",%progbits
 279              		.align	2
 280              		.global	EZI2C_SetCustomInterruptHandler
 281              		.code	16
 282              		.thumb_func
 283              		.type	EZI2C_SetCustomInterruptHandler, %function
 284              	EZI2C_SetCustomInterruptHandler:
 285              	.LFB7:
 336:Generated_Source\PSoC4/EZI2C.c ****     #if !defined (CY_REMOVE_EZI2C_CUSTOM_INTR_HANDLER)
 286              		.loc 1 336 0
 287              		.cfi_startproc
 288              	.LVL19:
 338:Generated_Source\PSoC4/EZI2C.c ****     #else
 289              		.loc 1 338 0
 290 0000 014B     		ldr	r3, .L21
 291 0002 5860     		str	r0, [r3, #4]
 345:Generated_Source\PSoC4/EZI2C.c **** #endif /* (EZI2C_SCB_IRQ_INTERNAL) */
 292              		.loc 1 345 0
 293              		@ sp needed
 294 0004 7047     		bx	lr
 295              	.L22:
 296 0006 C046     		.align	2
 297              	.L21:
 298 0008 00000000 		.word	.LANCHOR0
 299              		.cfi_endproc
 300              	.LFE7:
 301              		.size	EZI2C_SetCustomInterruptHandler, .-EZI2C_SetCustomInterruptHandler
 302              		.global	EZI2C_customIntrHandler
 303              		.global	EZI2C_initVar
 304              		.bss
 305              		.align	2
ARM GAS  C:\Users\Greg\AppData\Local\Temp\ccH5LRwc.s 			page 15


 306              		.set	.LANCHOR0,. + 0
 307              		.type	EZI2C_initVar, %object
 308              		.size	EZI2C_initVar, 1
 309              	EZI2C_initVar:
 310 0000 00       		.space	1
 311 0001 000000   		.space	3
 312              		.type	EZI2C_customIntrHandler, %object
 313              		.size	EZI2C_customIntrHandler, 4
 314              	EZI2C_customIntrHandler:
 315 0004 00000000 		.space	4
 316              		.text
 317              	.Letext0:
 318              		.file 2 "Generated_Source\\PSoC4/cytypes.h"
 319              		.file 3 "Generated_Source\\PSoC4\\EZI2C_EZI2C_PVT.h"
 320              		.file 4 "Generated_Source\\PSoC4/CyLib.h"