ARM GAS  C:\Users\Greg\AppData\Local\Temp\ccwxQoee.s 			page 1


   1              		.cpu cortex-m0plus
   2              		.fpu softvfp
   3              		.eabi_attribute 20, 1
   4              		.eabi_attribute 21, 1
   5              		.eabi_attribute 23, 3
   6              		.eabi_attribute 24, 1
   7              		.eabi_attribute 25, 1
   8              		.eabi_attribute 26, 1
   9              		.eabi_attribute 30, 1
  10              		.eabi_attribute 34, 0
  11              		.eabi_attribute 18, 4
  12              		.code	16
  13              		.file	"main.c"
  14              		.text
  15              	.Ltext0:
  16              		.cfi_sections	.debug_frame
  17              		.section	.text.InitResources,"ax",%progbits
  18              		.align	2
  19              		.global	InitResources
  20              		.code	16
  21              		.thumb_func
  22              		.type	InitResources, %function
  23              	InitResources:
  24              	.LFB36:
  25              		.file 1 "main.c"
   1:main.c        **** 
   2:main.c        **** #include <project.h>
   3:main.c        **** 
   4:main.c        **** /* LED on/off states - LEDs are active low */
   5:main.c        **** #define ON (0x00)
   6:main.c        **** #define OFF (0x01)
   7:main.c        **** 
   8:main.c        **** 
   9:main.c        **** /* Temperature measurement paramters */
  10:main.c        **** #define ADC_CHANNEL_VREF			(0u)
  11:main.c        **** #define ADC_CHANNEL_VTH				(1u)
  12:main.c        **** 
  13:main.c        **** /* IIR Filter coefficients for each signal */
  14:main.c        **** /* Cut off frequency = fs/(2 * pi * iir_filter_constant).  In this project fs ~= 1 ksps.
  15:main.c        **** This results in a cut-off frequency of 4.97 Hz.  We are using IIR filter as FIR requires 
  16:main.c        **** more order of filter to get the same cut-off frequency*/
  17:main.c        **** #define FILTER_COEFFICIENT_TEMPERATURE	(32u)
  18:main.c        **** 
  19:main.c        **** /* Constants used to calculate humidity */
  20:main.c        **** /* This is the capacitance of the sensor at 55% RH with 0.1pF resolution */
  21:main.c        **** #define CAPACITANCE_AT_55_RH        (1800)
  22:main.c        **** /* Sensitivity numerator and denominator indicate sensitivity of the sensor */
  23:main.c        **** #define SENSITIVITY_NUMERATOR       (31)
  24:main.c        **** #define SENSITIVITY_DENOMINATOR     (100)
  25:main.c        **** /* Value of reference capacitor.  Note that this value includes the pin capacitance
  26:main.c        ****     and the physical 180pF reference capacitor */
  27:main.c        **** #define CREF                        (1930)
  28:main.c        **** /* Offset Capacitance */
  29:main.c        **** #define COFFSET                     (150)
  30:main.c        **** /* This is raw count equivalent to trace capacitance */
  31:main.c        **** #define OFFSETCOUNT                 (1536)
  32:main.c        **** #define BUFFERSIZE                  (8)
ARM GAS  C:\Users\Greg\AppData\Local\Temp\ccwxQoee.s 			page 2


  33:main.c        **** /* Nominal humidity 55% */
  34:main.c        **** #define NOMINAL_HUMIDITY            (550)
  35:main.c        **** #define HUMIDITY_0_PERCENT          (0)
  36:main.c        **** #define HUMIDITY_100_PERCENT        (1000)
  37:main.c        **** #define HUMIDITY_50                 (500)   
  38:main.c        **** 
  39:main.c        **** /* EzI2C Read/Write Boundary */
  40:main.c        **** #define READ_WRITE_BOUNDARY         (2u)
  41:main.c        **** 
  42:main.c        **** /* Function Prototypes */
  43:main.c        **** void InitResources(void);
  44:main.c        **** /* CapSense is used for humidity measurement */
  45:main.c        **** __inline uint16 CalculateCapacitance(uint16 rawCounts, uint16 refSensorCounts);
  46:main.c        **** __inline uint16 CalculateHumidity(uint16 capacitance);
  47:main.c        **** 
  48:main.c        **** /* Structure that holds the I2C data                 */
  49:main.c        **** /* Use __attribute__((packed)) for GCC and MDK compilers to pack structures      */
  50:main.c        **** /* For other compilers use the corresponding directive.                          */
  51:main.c        **** /* For example, for IAR use the following directive                              */
  52:main.c        **** /* typedef __packed struct {..}struct_name;                                      */
  53:main.c        **** typedef struct __attribute__((packed))
  54:main.c        **** {
  55:main.c        **** 	uint8  RedLED;               /* Red LED state */
  56:main.c        ****     uint8  BlueLED;              /* Blue LED state */
  57:main.c        **** 	int16  temperature;			 /* Measured temperature */
  58:main.c        ****     uint16 humidity;             /* Measured humidity */
  59:main.c        **** }i2c_data;
  60:main.c        **** 
  61:main.c        **** /* Declare the i2cBuffer to exchange sensor data between Bridge Control 
  62:main.c        **** Panel (BCP) and PSoC Analog Coprocessor */
  63:main.c        **** i2c_data i2cBuffer = {0, 0, 0, 0};
  64:main.c        **** 
  65:main.c        **** /*******************************************************************************
  66:main.c        **** * Function Name: main
  67:main.c        **** ********************************************************************************
  68:main.c        **** *
  69:main.c        **** * Summary:
  70:main.c        **** *  This function initializes all the resources, and in an infinite loop:
  71:main.c        **** *     Handles LEDs
  72:main.c        **** *     Measures the temperature
  73:main.c        **** *     Measures humidity
  74:main.c        **** *    
  75:main.c        **** *
  76:main.c        **** * Parameters:
  77:main.c        **** *  None
  78:main.c        **** *
  79:main.c        **** * Return:
  80:main.c        **** *  int
  81:main.c        **** *
  82:main.c        **** * Side Effects:
  83:main.c        **** *   None
  84:main.c        **** *******************************************************************************/
  85:main.c        **** int main()
  86:main.c        **** {
  87:main.c        **** 
  88:main.c        ****     /* Temperature measurment variables */
  89:main.c        ****     /* Variables to hold the the ADC readings */
ARM GAS  C:\Users\Greg\AppData\Local\Temp\ccwxQoee.s 			page 3


  90:main.c        ****     int16 adcResultVREF, adcResultVTH;
  91:main.c        ****     
  92:main.c        ****     /* Filter input and output variables for Vref and Vth measurements */
  93:main.c        ****     int16 filterOutputVref=0;
  94:main.c        ****     int16 filterOutputVth=0;
  95:main.c        ****     
  96:main.c        ****     /* Variables to hold calculated resistance and temperature */
  97:main.c        ****     int16 thermistorResistance, temperature;
  98:main.c        ****     
  99:main.c        ****     /* Variable to store the status returned by CyEnterCriticalSection()*/
 100:main.c        ****     uint8 interruptState = 0;
 101:main.c        ****  
 102:main.c        ****     /* Humidity measurement variables */ 
 103:main.c        **** 	uint16 humidityRawCounts;	/* Raw count from CapSense Component for the humidity sensor */
 104:main.c        **** 	uint16 capacitance;			/* Capacitance of the humidity sensor */
 105:main.c        **** 	uint16 rawCountsRefCap;     /* Raw count from CapSense Component for the Reference capacitor */   
 106:main.c        ****     
 107:main.c        ****     
 108:main.c        ****     /* Enable global interrupts */
 109:main.c        ****     CyGlobalIntEnable;
 110:main.c        ****     
 111:main.c        ****     /* Initialize hardware resources */
 112:main.c        ****     InitResources();
 113:main.c        **** 
 114:main.c        ****     /* Infinite Loop */
 115:main.c        ****     for(;;)
 116:main.c        ****     {
 117:main.c        ****         /* LED processing */
 118:main.c        ****         /* Green LED is driven from P0_3 (Arduino A1) */
 119:main.c        ****         GreenLED_Write(~A1_Read());
 120:main.c        ****         
 121:main.c        ****         /* Red and Blue LEDs based on I2C values */
 122:main.c        ****         if(i2cBuffer.RedLED) /* Turn on Red LED */
 123:main.c        ****         {
 124:main.c        ****             RedLED_Write(ON);
 125:main.c        ****         }
 126:main.c        ****         else
 127:main.c        ****         {
 128:main.c        ****             RedLED_Write(OFF);
 129:main.c        ****         }
 130:main.c        ****         if(i2cBuffer.BlueLED) /* Turn on Red LED */
 131:main.c        ****         {
 132:main.c        ****             BlueLED_Write(ON);
 133:main.c        ****         }
 134:main.c        ****         else
 135:main.c        ****         {
 136:main.c        ****             BlueLED_Write(OFF);
 137:main.c        ****         }
 138:main.c        ****         
 139:main.c        ****         /* Temperature Measurement */
 140:main.c        ****         /* Check if the ADC data is ready */
 141:main.c        ****         if(ADC_IsEndConversion(ADC_RETURN_STATUS))
 142:main.c        ****         {
 143:main.c        ****             /* Read the ADC result for reference and thermistor voltages */
 144:main.c        ****             adcResultVREF = ADC_GetResult16(ADC_CHANNEL_VREF);
 145:main.c        ****             adcResultVTH = ADC_GetResult16(ADC_CHANNEL_VTH);
 146:main.c        ****             
ARM GAS  C:\Users\Greg\AppData\Local\Temp\ccwxQoee.s 			page 4


 147:main.c        ****             /* Low pass filter the measured ADC counts of Vref */            
 148:main.c        ****             filterOutputVref = (adcResultVREF + (FILTER_COEFFICIENT_TEMPERATURE - 1) * filterOutput
 149:main.c        ****                     
 150:main.c        ****             /* Low pass filter the measured ADC counts of Vth */         
 151:main.c        ****             filterOutputVth = (adcResultVTH + (FILTER_COEFFICIENT_TEMPERATURE - 1) * filterOutputVt
 152:main.c        ****                         
 153:main.c        ****             /* Calculate thermistor resistance */
 154:main.c        ****             thermistorResistance = Thermistor_GetResistance(filterOutputVref, filterOutputVth);    
 155:main.c        ****             
 156:main.c        ****             /* Calculate temperature in degree Celsius using the Component API */
 157:main.c        ****             temperature = Thermistor_GetTemperature(thermistorResistance);
 158:main.c        ****                        
 159:main.c        **** 			/* Enter critical section to check if I2C bus is busy or not */
 160:main.c        ****             interruptState = CyEnterCriticalSection();
 161:main.c        ****             
 162:main.c        ****         	if(!(EZI2C_EzI2CGetActivity() & EZI2C_EZI2C_STATUS_BUSY))
 163:main.c        ****         	{
 164:main.c        ****                 /* Update I2C Buffer */
 165:main.c        ****                 i2cBuffer.temperature = temperature;
 166:main.c        ****             }
 167:main.c        **** 			
 168:main.c        **** 			/* Exit critical section */
 169:main.c        ****             CyExitCriticalSection(interruptState);
 170:main.c        ****         } /* End of temperature processing */
 171:main.c        ****         
 172:main.c        ****         /* Humidity */
 173:main.c        ****         /* Check if CapSense scan is complete */
 174:main.c        ****         if(!(CSD_IsBusy()))
 175:main.c        ****         {       
 176:main.c        ****             humidityRawCounts = CSD_BUTTON0_SNS0_RAW0_VALUE;
 177:main.c        ****             rawCountsRefCap = CSD_BUTTON0_SNS1_RAW0_VALUE;
 178:main.c        ****             /* Convert raw counts to capacitance */
 179:main.c        ****             capacitance = CalculateCapacitance(humidityRawCounts, rawCountsRefCap);
 180:main.c        ****             
 181:main.c        ****             /* Enter critical section to check if I2C bus is busy or not */
 182:main.c        ****             interruptState = CyEnterCriticalSection();
 183:main.c        **** 
 184:main.c        ****             if(!(EZI2C_EzI2CGetActivity() & EZI2C_EZI2C_STATUS_BUSY))
 185:main.c        ****             {
 186:main.c        ****                 /* Calculate humidity */
 187:main.c        ****                 i2cBuffer.humidity = CalculateHumidity(capacitance);                
 188:main.c        ****             }
 189:main.c        ****             CyExitCriticalSection(interruptState);
 190:main.c        ****             /* Scan sensors */
 191:main.c        ****             CSD_ScanAllWidgets();
 192:main.c        ****         }                  
 193:main.c        ****         
 194:main.c        ****     } /* End of infinite loop */
 195:main.c        **** }
 196:main.c        **** 
 197:main.c        **** /*******************************************************************************
 198:main.c        **** * Function Name: void InitResources(void)
 199:main.c        **** ********************************************************************************
 200:main.c        **** *
 201:main.c        **** * Summary:
 202:main.c        **** *  This function initializes all the hardware resources
 203:main.c        **** *
ARM GAS  C:\Users\Greg\AppData\Local\Temp\ccwxQoee.s 			page 5


 204:main.c        **** * Parameters:
 205:main.c        **** *  None
 206:main.c        **** *
 207:main.c        **** * Return:
 208:main.c        **** *  None
 209:main.c        **** *
 210:main.c        **** * Side Effects:
 211:main.c        **** *   None
 212:main.c        **** *******************************************************************************/
 213:main.c        **** void InitResources(void)
 214:main.c        **** {
  26              		.loc 1 214 0
  27              		.cfi_startproc
  28 0000 08B5     		push	{r3, lr}
  29              		.cfi_def_cfa_offset 8
  30              		.cfi_offset 3, -8
  31              		.cfi_offset 14, -4
 215:main.c        ****     /* Start EZI2C Slave Component and initialize buffer */
 216:main.c        ****     EZI2C_Start();
  32              		.loc 1 216 0
  33 0002 FFF7FEFF 		bl	EZI2C_Start
  34              	.LVL0:
 217:main.c        ****     EZI2C_EzI2CSetBuffer1(sizeof(i2cBuffer), READ_WRITE_BOUNDARY, (uint8 *)&i2cBuffer);
  35              		.loc 1 217 0
  36 0006 0620     		mov	r0, #6
  37 0008 0221     		mov	r1, #2
  38 000a 084A     		ldr	r2, .L2
  39 000c FFF7FEFF 		bl	EZI2C_EzI2CSetBuffer1
  40              	.LVL1:
 218:main.c        ****      
 219:main.c        ****     /* Intitialization for temperature measurement */
 220:main.c        ****     /* Start the Scanning SAR ADC Component and start conversion */
 221:main.c        ****     ADC_Start();
  41              		.loc 1 221 0
  42 0010 FFF7FEFF 		bl	ADC_Start
  43              	.LVL2:
 222:main.c        ****     ADC_StartConvert();
  44              		.loc 1 222 0
  45 0014 FFF7FEFF 		bl	ADC_StartConvert
  46              	.LVL3:
 223:main.c        ****     
 224:main.c        ****     /* Start Reference buffer */
 225:main.c        ****     VrefBuffer_Start();
  47              		.loc 1 225 0
  48 0018 FFF7FEFF 		bl	VrefBuffer_Start
  49              	.LVL4:
 226:main.c        ****     
 227:main.c        ****     /* Start Programmable Voltage Reference */
 228:main.c        ****     PVref_Start();
  50              		.loc 1 228 0
  51 001c FFF7FEFF 		bl	PVref_Start
  52              	.LVL5:
 229:main.c        ****     
 230:main.c        ****     /* Enable Programmable Voltage Reference */
 231:main.c        ****     PVref_Enable();
  53              		.loc 1 231 0
  54 0020 FFF7FEFF 		bl	PVref_Enable
ARM GAS  C:\Users\Greg\AppData\Local\Temp\ccwxQoee.s 			page 6


  55              	.LVL6:
 232:main.c        ****     
 233:main.c        ****     
 234:main.c        ****     /* Intitialization for humidity measurement */
 235:main.c        ****     /* Start CapSense Component */
 236:main.c        ****     CSD_Start();    
  56              		.loc 1 236 0
  57 0024 FFF7FEFF 		bl	CSD_Start
  58              	.LVL7:
 237:main.c        **** }
  59              		.loc 1 237 0
  60              		@ sp needed
  61 0028 08BD     		pop	{r3, pc}
  62              	.L3:
  63 002a C046     		.align	2
  64              	.L2:
  65 002c 00000000 		.word	.LANCHOR0
  66              		.cfi_endproc
  67              	.LFE36:
  68              		.size	InitResources, .-InitResources
  69              		.global	__aeabi_i2f
  70              		.global	__aeabi_fmul
  71              		.global	__aeabi_fdiv
  72              		.global	__aeabi_f2uiz
  73              		.global	__aeabi_idiv
  74              		.section	.rodata.cst2,"aM",%progbits,2
  75              		.align	1
  76              	.LC3:
  77 0000 E803     		.short	1000
  78              		.section	.text.main,"ax",%progbits
  79              		.align	2
  80              		.global	main
  81              		.code	16
  82              		.thumb_func
  83              		.type	main, %function
  84              	main:
  85              	.LFB35:
  86:main.c        **** 
  86              		.loc 1 86 0
  87              		.cfi_startproc
  88 0000 F8B5     		push	{r3, r4, r5, r6, r7, lr}
  89              		.cfi_def_cfa_offset 24
  90              		.cfi_offset 3, -24
  91              		.cfi_offset 4, -20
  92              		.cfi_offset 5, -16
  93              		.cfi_offset 6, -12
  94              		.cfi_offset 7, -8
  95              		.cfi_offset 14, -4
  96              	.LVL8:
 109:main.c        ****     
  97              		.loc 1 109 0
  98              	@ 109 "main.c" 1
  99 0002 62B6     		CPSIE   i
 100              	@ 0 "" 2
 112:main.c        **** 
 101              		.loc 1 112 0
 102              		.code	16
ARM GAS  C:\Users\Greg\AppData\Local\Temp\ccwxQoee.s 			page 7


 103 0004 FFF7FEFF 		bl	InitResources
 104              	.LVL9:
  94:main.c        ****     
 105              		.loc 1 94 0
 106 0008 0025     		mov	r5, #0
  93:main.c        ****     int16 filterOutputVth=0;
 107              		.loc 1 93 0
 108 000a 0024     		mov	r4, #0
 109              	.LVL10:
 110              	.L5:
 119:main.c        ****         
 111              		.loc 1 119 0
 112 000c FFF7FEFF 		bl	A1_Read
 113              	.LVL11:
 114 0010 C043     		mvn	r0, r0
 115 0012 C0B2     		uxtb	r0, r0
 116 0014 FFF7FEFF 		bl	GreenLED_Write
 117              	.LVL12:
 122:main.c        ****         {
 118              		.loc 1 122 0
 119 0018 424B     		ldr	r3, .L17
 120 001a 1B78     		ldrb	r3, [r3]
 121 001c 002B     		cmp	r3, #0
 122 001e 03D0     		beq	.L6
 124:main.c        ****         }
 123              		.loc 1 124 0
 124 0020 0020     		mov	r0, #0
 125 0022 FFF7FEFF 		bl	RedLED_Write
 126              	.LVL13:
 127 0026 02E0     		b	.L7
 128              	.L6:
 128:main.c        ****         }
 129              		.loc 1 128 0
 130 0028 0120     		mov	r0, #1
 131 002a FFF7FEFF 		bl	RedLED_Write
 132              	.LVL14:
 133              	.L7:
 130:main.c        ****         {
 134              		.loc 1 130 0
 135 002e 3D4B     		ldr	r3, .L17
 136 0030 5B78     		ldrb	r3, [r3, #1]
 137 0032 002B     		cmp	r3, #0
 138 0034 03D0     		beq	.L8
 132:main.c        ****         }
 139              		.loc 1 132 0
 140 0036 0020     		mov	r0, #0
 141 0038 FFF7FEFF 		bl	BlueLED_Write
 142              	.LVL15:
 143 003c 02E0     		b	.L9
 144              	.L8:
 136:main.c        ****         }
 145              		.loc 1 136 0
 146 003e 0120     		mov	r0, #1
 147 0040 FFF7FEFF 		bl	BlueLED_Write
 148              	.LVL16:
 149              	.L9:
 141:main.c        ****         {
ARM GAS  C:\Users\Greg\AppData\Local\Temp\ccwxQoee.s 			page 8


 150              		.loc 1 141 0
 151 0044 0120     		mov	r0, #1
 152 0046 FFF7FEFF 		bl	ADC_IsEndConversion
 153              	.LVL17:
 154 004a 0028     		cmp	r0, #0
 155 004c 26D0     		beq	.L10
 144:main.c        ****             adcResultVTH = ADC_GetResult16(ADC_CHANNEL_VTH);
 156              		.loc 1 144 0
 157 004e 0020     		mov	r0, #0
 158 0050 FFF7FEFF 		bl	ADC_GetResult16
 159              	.LVL18:
 160 0054 061C     		mov	r6, r0
 161              	.LVL19:
 145:main.c        ****             
 162              		.loc 1 145 0
 163 0056 0120     		mov	r0, #1
 164 0058 FFF7FEFF 		bl	ADC_GetResult16
 165              	.LVL20:
 148:main.c        ****                     
 166              		.loc 1 148 0
 167 005c 24B2     		sxth	r4, r4
 168 005e 6301     		lsl	r3, r4, #5
 169 0060 1C1B     		sub	r4, r3, r4
 170              	.LVL21:
 171 0062 3419     		add	r4, r6, r4
 172 0064 6409     		lsr	r4, r4, #5
 173 0066 A4B2     		uxth	r4, r4
 174              	.LVL22:
 151:main.c        ****                         
 175              		.loc 1 151 0
 176 0068 2DB2     		sxth	r5, r5
 177 006a 6B01     		lsl	r3, r5, #5
 178 006c 5D1B     		sub	r5, r3, r5
 179              	.LVL23:
 180 006e 4519     		add	r5, r0, r5
 181 0070 6D09     		lsr	r5, r5, #5
 182 0072 ADB2     		uxth	r5, r5
 183              	.LVL24:
 154:main.c        ****             
 184              		.loc 1 154 0
 185 0074 20B2     		sxth	r0, r4
 186              	.LVL25:
 187 0076 29B2     		sxth	r1, r5
 188 0078 FFF7FEFF 		bl	Thermistor_GetResistance
 189              	.LVL26:
 157:main.c        ****                        
 190              		.loc 1 157 0
 191 007c 00B2     		sxth	r0, r0
 192 007e FFF7FEFF 		bl	Thermistor_GetTemperature
 193              	.LVL27:
 194 0082 071C     		mov	r7, r0
 195              	.LVL28:
 160:main.c        ****             
 196              		.loc 1 160 0
 197 0084 FFF7FEFF 		bl	CyEnterCriticalSection
 198              	.LVL29:
 199 0088 061C     		mov	r6, r0
ARM GAS  C:\Users\Greg\AppData\Local\Temp\ccwxQoee.s 			page 9


 200              	.LVL30:
 162:main.c        ****         	{
 201              		.loc 1 162 0
 202 008a FFF7FEFF 		bl	EZI2C_EzI2CGetActivity
 203              	.LVL31:
 204 008e 8306     		lsl	r3, r0, #26
 205 0090 01D4     		bmi	.L11
 165:main.c        ****             }
 206              		.loc 1 165 0
 207 0092 244B     		ldr	r3, .L17
 208 0094 5F80     		strh	r7, [r3, #2]
 209              	.L11:
 169:main.c        ****         } /* End of temperature processing */
 210              		.loc 1 169 0
 211 0096 301C     		mov	r0, r6
 212 0098 FFF7FEFF 		bl	CyExitCriticalSection
 213              	.LVL32:
 214              	.L10:
 174:main.c        ****         {       
 215              		.loc 1 174 0
 216 009c FFF7FEFF 		bl	CSD_IsBusy
 217              	.LVL33:
 218 00a0 0028     		cmp	r0, #0
 219 00a2 B3D1     		bne	.L5
 176:main.c        ****             rawCountsRefCap = CSD_BUTTON0_SNS1_RAW0_VALUE;
 220              		.loc 1 176 0
 221 00a4 204B     		ldr	r3, .L17+4
 222 00a6 188D     		ldrh	r0, [r3, #40]
 223              	.LVL34:
 177:main.c        ****             /* Convert raw counts to capacitance */
 224              		.loc 1 177 0
 225 00a8 5E8E     		ldrh	r6, [r3, #50]
 226              	.LVL35:
 227              	.LBB6:
 228              	.LBB7:
 238:main.c        **** 
 239:main.c        **** 
 240:main.c        **** /*******************************************************************************
 241:main.c        **** * Function Name: __inline uint16 CalculateCapacitance(uint16 RawCounts, uint16 RefsensorCounts)
 242:main.c        **** ********************************************************************************
 243:main.c        **** *
 244:main.c        **** * Summary:
 245:main.c        **** *  This function calculates capacitance from raw count.
 246:main.c        **** *
 247:main.c        **** * Parameters:
 248:main.c        **** *  uint16 RawCounts - Raw count corresponding to Humidity sensor
 249:main.c        **** *  uint16 RefsensorCounts - Raw count corresponding to Reference capacitor
 250:main.c        **** *
 251:main.c        **** * Return:
 252:main.c        **** *  Capacitance of the Humidity sensor
 253:main.c        **** *
 254:main.c        **** * Side Effects:
 255:main.c        **** *   None
 256:main.c        **** *******************************************************************************/
 257:main.c        **** __inline uint16 CalculateCapacitance(uint16 rawCounts, uint16 refsensorCounts)
 258:main.c        **** {
 259:main.c        ****     return (uint16)((float)(rawCounts - OFFSETCOUNT) * (CREF - COFFSET) / (float)(refsensorCounts -
ARM GAS  C:\Users\Greg\AppData\Local\Temp\ccwxQoee.s 			page 10


 229              		.loc 1 259 0
 230 00aa 204B     		ldr	r3, .L17+8
 231 00ac 9C46     		mov	ip, r3
 232 00ae 6044     		add	r0, r0, ip
 233              	.LVL36:
 234 00b0 FFF7FEFF 		bl	__aeabi_i2f
 235              	.LVL37:
 236 00b4 1E49     		ldr	r1, .L17+12
 237 00b6 FFF7FEFF 		bl	__aeabi_fmul
 238              	.LVL38:
 239 00ba 071C     		add	r7, r0, #0
 240 00bc 1B4B     		ldr	r3, .L17+8
 241 00be F018     		add	r0, r6, r3
 242 00c0 FFF7FEFF 		bl	__aeabi_i2f
 243              	.LVL39:
 244 00c4 011C     		add	r1, r0, #0
 245 00c6 381C     		add	r0, r7, #0
 246 00c8 FFF7FEFF 		bl	__aeabi_fdiv
 247              	.LVL40:
 248 00cc FFF7FEFF 		bl	__aeabi_f2uiz
 249              	.LVL41:
 250 00d0 86B2     		uxth	r6, r0
 251              	.LVL42:
 252              	.LBE7:
 253              	.LBE6:
 182:main.c        **** 
 254              		.loc 1 182 0
 255 00d2 FFF7FEFF 		bl	CyEnterCriticalSection
 256              	.LVL43:
 257 00d6 071C     		mov	r7, r0
 258              	.LVL44:
 184:main.c        ****             {
 259              		.loc 1 184 0
 260 00d8 FFF7FEFF 		bl	EZI2C_EzI2CGetActivity
 261              	.LVL45:
 262 00dc 8306     		lsl	r3, r0, #26
 263 00de 1AD4     		bmi	.L13
 264              	.LVL46:
 265              	.LBB8:
 266              	.LBB9:
 260:main.c        **** }
 261:main.c        **** 
 262:main.c        **** /*******************************************************************************
 263:main.c        **** * Function Name: __inline uint16 CalculateHumidity(uint16 Capacitance)
 264:main.c        **** ********************************************************************************
 265:main.c        **** *
 266:main.c        **** * Summary:
 267:main.c        **** *  This function calculates humidity from capacitance
 268:main.c        **** 
 269:main.c        **** * Parameters:
 270:main.c        **** *  uint16 Capacitance - Capacitance of the humidity sensor
 271:main.c        **** *
 272:main.c        **** * Return:
 273:main.c        **** *  Calculated Humidity value
 274:main.c        **** *
 275:main.c        **** * Side Effects:
 276:main.c        **** *   None
ARM GAS  C:\Users\Greg\AppData\Local\Temp\ccwxQoee.s 			page 11


 277:main.c        **** *******************************************************************************/
 278:main.c        **** __inline uint16 CalculateHumidity(uint16 capacitance)
 279:main.c        **** {
 280:main.c        ****     int16 humidity;
 281:main.c        ****     int16 delta;
 282:main.c        ****     
 283:main.c        ****     /* Find capacitance difference from nominal capacitance at 55% RH */
 284:main.c        ****     delta = capacitance - CAPACITANCE_AT_55_RH;
 267              		.loc 1 284 0
 268 00e0 144B     		ldr	r3, .L17+16
 269 00e2 F018     		add	r0, r6, r3
 270              	.LVL47:
 285:main.c        ****     
 286:main.c        ****     /* Calculate humidity from capacitance difference and sensor sensitivity */
 287:main.c        ****     humidity = ((delta * SENSITIVITY_DENOMINATOR) / SENSITIVITY_NUMERATOR) + NOMINAL_HUMIDITY;
 271              		.loc 1 287 0
 272 00e4 00B2     		sxth	r0, r0
 273 00e6 6426     		mov	r6, #100
 274              	.LVL48:
 275 00e8 7043     		mul	r0, r6
 276              	.LVL49:
 277 00ea 1F21     		mov	r1, #31
 278 00ec FFF7FEFF 		bl	__aeabi_idiv
 279              	.LVL50:
 280 00f0 114B     		ldr	r3, .L17+20
 281 00f2 9C46     		mov	ip, r3
 282 00f4 6044     		add	r0, r0, ip
 283              	.LVL51:
 288:main.c        ****     
 289:main.c        ****     /* If humidity is less than zero, limit it to 0; If humidity is greater than 1000 (100%), limit
 290:main.c        ****     humidity = (humidity < HUMIDITY_0_PERCENT) ? HUMIDITY_0_PERCENT : (humidity > HUMIDITY_100_PERC
 284              		.loc 1 290 0
 285 00f6 83B2     		uxth	r3, r0
 286 00f8 0204     		lsl	r2, r0, #16
 287 00fa 09D4     		bmi	.L16
 288 00fc 1A1C     		add	r2, r3, #0
 289 00fe 1BB2     		sxth	r3, r3
 290 0100 FA21     		mov	r1, #250
 291 0102 8900     		lsl	r1, r1, #2
 292 0104 8B42     		cmp	r3, r1
 293 0106 01DD     		ble	.L15
 294 0108 0C4B     		ldr	r3, .L17+24
 295 010a 1A88     		ldrh	r2, [r3]
 296              	.L15:
 297 010c 93B2     		uxth	r3, r2
 298 010e 00E0     		b	.L14
 299              	.L16:
 300 0110 0023     		mov	r3, #0
 301              	.L14:
 302              	.LVL52:
 303              	.LBE9:
 304              	.LBE8:
 187:main.c        ****             }
 305              		.loc 1 187 0
 306 0112 044A     		ldr	r2, .L17
 307 0114 9380     		strh	r3, [r2, #4]
 308              	.LVL53:
ARM GAS  C:\Users\Greg\AppData\Local\Temp\ccwxQoee.s 			page 12


 309              	.L13:
 189:main.c        ****             /* Scan sensors */
 310              		.loc 1 189 0
 311 0116 381C     		mov	r0, r7
 312 0118 FFF7FEFF 		bl	CyExitCriticalSection
 313              	.LVL54:
 191:main.c        ****         }                  
 314              		.loc 1 191 0
 315 011c FFF7FEFF 		bl	CSD_ScanAllWidgets
 316              	.LVL55:
 317 0120 74E7     		b	.L5
 318              	.L18:
 319 0122 C046     		.align	2
 320              	.L17:
 321 0124 00000000 		.word	.LANCHOR0
 322 0128 00000000 		.word	CSD_dsRam
 323 012c 00FAFFFF 		.word	-1536
 324 0130 0080DE44 		.word	1155432448
 325 0134 F8F8FFFF 		.word	-1800
 326 0138 26020000 		.word	550
 327 013c 00000000 		.word	.LC3
 328              		.cfi_endproc
 329              	.LFE35:
 330              		.size	main, .-main
 331              		.section	.text.CalculateCapacitance,"ax",%progbits
 332              		.align	2
 333              		.global	CalculateCapacitance
 334              		.code	16
 335              		.thumb_func
 336              		.type	CalculateCapacitance, %function
 337              	CalculateCapacitance:
 338              	.LFB37:
 258:main.c        ****     return (uint16)((float)(rawCounts - OFFSETCOUNT) * (CREF - COFFSET) / (float)(refsensorCounts -
 339              		.loc 1 258 0
 340              		.cfi_startproc
 341              	.LVL56:
 342 0000 38B5     		push	{r3, r4, r5, lr}
 343              		.cfi_def_cfa_offset 16
 344              		.cfi_offset 3, -16
 345              		.cfi_offset 4, -12
 346              		.cfi_offset 5, -8
 347              		.cfi_offset 14, -4
 348 0002 0C1C     		mov	r4, r1
 259:main.c        **** }
 349              		.loc 1 259 0
 350 0004 0A4B     		ldr	r3, .L20
 351 0006 9C46     		mov	ip, r3
 352 0008 6044     		add	r0, r0, ip
 353              	.LVL57:
 354 000a FFF7FEFF 		bl	__aeabi_i2f
 355              	.LVL58:
 356 000e 0949     		ldr	r1, .L20+4
 357 0010 FFF7FEFF 		bl	__aeabi_fmul
 358              	.LVL59:
 359 0014 051C     		add	r5, r0, #0
 360 0016 064B     		ldr	r3, .L20
 361 0018 E018     		add	r0, r4, r3
ARM GAS  C:\Users\Greg\AppData\Local\Temp\ccwxQoee.s 			page 13


 362 001a FFF7FEFF 		bl	__aeabi_i2f
 363              	.LVL60:
 364 001e 011C     		add	r1, r0, #0
 365 0020 281C     		add	r0, r5, #0
 366 0022 FFF7FEFF 		bl	__aeabi_fdiv
 367              	.LVL61:
 368 0026 FFF7FEFF 		bl	__aeabi_f2uiz
 369              	.LVL62:
 370 002a 80B2     		uxth	r0, r0
 260:main.c        **** 
 371              		.loc 1 260 0
 372              		@ sp needed
 373 002c 38BD     		pop	{r3, r4, r5, pc}
 374              	.L21:
 375 002e C046     		.align	2
 376              	.L20:
 377 0030 00FAFFFF 		.word	-1536
 378 0034 0080DE44 		.word	1155432448
 379              		.cfi_endproc
 380              	.LFE37:
 381              		.size	CalculateCapacitance, .-CalculateCapacitance
 382              		.section	.rodata.cst2
 383              		.align	1
 384              	.LC4:
 385 0002 E803     		.short	1000
 386              		.section	.text.CalculateHumidity,"ax",%progbits
 387              		.align	2
 388              		.global	CalculateHumidity
 389              		.code	16
 390              		.thumb_func
 391              		.type	CalculateHumidity, %function
 392              	CalculateHumidity:
 393              	.LFB38:
 279:main.c        ****     int16 humidity;
 394              		.loc 1 279 0
 395              		.cfi_startproc
 396              	.LVL63:
 397 0000 08B5     		push	{r3, lr}
 398              		.cfi_def_cfa_offset 8
 399              		.cfi_offset 3, -8
 400              		.cfi_offset 14, -4
 284:main.c        ****     
 401              		.loc 1 284 0
 402 0002 0E4B     		ldr	r3, .L26
 403 0004 9C46     		mov	ip, r3
 404 0006 6044     		add	r0, r0, ip
 405              	.LVL64:
 287:main.c        ****     
 406              		.loc 1 287 0
 407 0008 00B2     		sxth	r0, r0
 408 000a 6423     		mov	r3, #100
 409 000c 5843     		mul	r0, r3
 410              	.LVL65:
 411 000e 1F21     		mov	r1, #31
 412 0010 FFF7FEFF 		bl	__aeabi_idiv
 413              	.LVL66:
 414 0014 0A4B     		ldr	r3, .L26+4
ARM GAS  C:\Users\Greg\AppData\Local\Temp\ccwxQoee.s 			page 14


 415 0016 9C46     		mov	ip, r3
 416 0018 6044     		add	r0, r0, ip
 417              	.LVL67:
 418              		.loc 1 290 0
 419 001a 83B2     		uxth	r3, r0
 420 001c 0204     		lsl	r2, r0, #16
 421 001e 09D4     		bmi	.L25
 422              		.loc 1 290 0 is_stmt 0 discriminator 1
 423 0020 181C     		add	r0, r3, #0
 424              	.LVL68:
 425 0022 1BB2     		sxth	r3, r3
 426              	.LVL69:
 427 0024 FA22     		mov	r2, #250
 428 0026 9200     		lsl	r2, r2, #2
 429 0028 9342     		cmp	r3, r2
 430 002a 01DD     		ble	.L24
 431 002c 054B     		ldr	r3, .L26+8
 432 002e 1888     		ldrh	r0, [r3]
 433              	.L24:
 434 0030 80B2     		uxth	r0, r0
 435 0032 00E0     		b	.L23
 436              	.LVL70:
 437              	.L25:
 438              		.loc 1 290 0
 439 0034 0020     		mov	r0, #0
 440              	.LVL71:
 441              	.L23:
 291:main.c        **** 
 292:main.c        ****     /* Return Humidity value */
 293:main.c        ****     return humidity;
 442              		.loc 1 293 0 is_stmt 1 discriminator 4
 443 0036 80B2     		uxth	r0, r0
 294:main.c        **** }
 444              		.loc 1 294 0 discriminator 4
 445              		@ sp needed
 446 0038 08BD     		pop	{r3, pc}
 447              	.L27:
 448 003a C046     		.align	2
 449              	.L26:
 450 003c F8F8FFFF 		.word	-1800
 451 0040 26020000 		.word	550
 452 0044 02000000 		.word	.LC4
 453              		.cfi_endproc
 454              	.LFE38:
 455              		.size	CalculateHumidity, .-CalculateHumidity
 456              		.global	i2cBuffer
 457              		.bss
 458              		.align	2
 459              		.set	.LANCHOR0,. + 0
 460              		.type	i2cBuffer, %object
 461              		.size	i2cBuffer, 6
 462              	i2cBuffer:
 463 0000 00000000 		.space	6
 463      0000
 464 0006 0000     		.text
 465              	.Letext0:
 466              		.file 2 "Generated_Source\\PSoC4/cytypes.h"
ARM GAS  C:\Users\Greg\AppData\Local\Temp\ccwxQoee.s 			page 15


 467              		.file 3 "Generated_Source\\PSoC4/CSD_Configuration.h"
 468              		.file 4 "Generated_Source\\PSoC4/CSD_Structure.h"
 469              		.file 5 "Generated_Source\\PSoC4/EZI2C.h"
 470              		.file 6 "Generated_Source\\PSoC4/ADC.h"
 471              		.file 7 "Generated_Source\\PSoC4/VrefBuffer.h"
 472              		.file 8 "Generated_Source\\PSoC4/PVref.h"
 473              		.file 9 "Generated_Source\\PSoC4/CSD_Control.h"
 474              		.file 10 "Generated_Source\\PSoC4/A1.h"
 475              		.file 11 "Generated_Source\\PSoC4/EZI2C_EZI2C.h"
 476              		.file 12 "Generated_Source\\PSoC4/GreenLED.h"
 477              		.file 13 "Generated_Source\\PSoC4/RedLED.h"
 478              		.file 14 "Generated_Source\\PSoC4/BlueLED.h"
 479              		.file 15 "Generated_Source\\PSoC4/Thermistor.h"
 480              		.file 16 "Generated_Source\\PSoC4/CyLib.h"
 481              		.file 17 "Generated_Source\\PSoC4/CSD_Sensing.h"