ARM GAS  C:\Users\Greg\AppData\Local\Temp\ccFYtOkg.s 			page 1


   1              		.cpu cortex-m0plus
   2              		.fpu softvfp
   3              		.eabi_attribute 20, 1
   4              		.eabi_attribute 21, 1
   5              		.eabi_attribute 23, 3
   6              		.eabi_attribute 24, 1
   7              		.eabi_attribute 25, 1
   8              		.eabi_attribute 26, 1
   9              		.eabi_attribute 30, 1
  10              		.eabi_attribute 34, 0
  11              		.eabi_attribute 18, 4
  12              		.code	16
  13              		.file	"VrefBuffer_PM.c"
  14              		.text
  15              	.Ltext0:
  16              		.cfi_sections	.debug_frame
  17              		.section	.text.VrefBuffer_SaveConfig,"ax",%progbits
  18              		.align	2
  19              		.global	VrefBuffer_SaveConfig
  20              		.code	16
  21              		.thumb_func
  22              		.type	VrefBuffer_SaveConfig, %function
  23              	VrefBuffer_SaveConfig:
  24              	.LFB0:
  25              		.file 1 "Generated_Source\\PSoC4\\VrefBuffer_PM.c"
   1:Generated_Source\PSoC4/VrefBuffer_PM.c **** /*******************************************************************************
   2:Generated_Source\PSoC4/VrefBuffer_PM.c **** * File Name: VrefBuffer_PM.c
   3:Generated_Source\PSoC4/VrefBuffer_PM.c **** * Version 1.20
   4:Generated_Source\PSoC4/VrefBuffer_PM.c **** *
   5:Generated_Source\PSoC4/VrefBuffer_PM.c **** * Description:
   6:Generated_Source\PSoC4/VrefBuffer_PM.c **** *  This file provides the power management source code to the API for the
   7:Generated_Source\PSoC4/VrefBuffer_PM.c **** *  Opamp (Analog Buffer) component.
   8:Generated_Source\PSoC4/VrefBuffer_PM.c **** *
   9:Generated_Source\PSoC4/VrefBuffer_PM.c **** *
  10:Generated_Source\PSoC4/VrefBuffer_PM.c **** ********************************************************************************
  11:Generated_Source\PSoC4/VrefBuffer_PM.c **** * Copyright 2013-2015, Cypress Semiconductor Corporation.  All rights reserved.
  12:Generated_Source\PSoC4/VrefBuffer_PM.c **** * You may use this file only in accordance with the license, terms, conditions,
  13:Generated_Source\PSoC4/VrefBuffer_PM.c **** * disclaimers, and limitations in the end user license agreement accompanying
  14:Generated_Source\PSoC4/VrefBuffer_PM.c **** * the software package with which this file was provided.
  15:Generated_Source\PSoC4/VrefBuffer_PM.c **** *******************************************************************************/
  16:Generated_Source\PSoC4/VrefBuffer_PM.c **** 
  17:Generated_Source\PSoC4/VrefBuffer_PM.c **** #include "VrefBuffer.h"
  18:Generated_Source\PSoC4/VrefBuffer_PM.c **** 
  19:Generated_Source\PSoC4/VrefBuffer_PM.c **** #if(!VrefBuffer_CHECK_DEEPSLEEP_SUPPORT)
  20:Generated_Source\PSoC4/VrefBuffer_PM.c ****     static VrefBuffer_BACKUP_STRUCT VrefBuffer_backup =
  21:Generated_Source\PSoC4/VrefBuffer_PM.c ****     {
  22:Generated_Source\PSoC4/VrefBuffer_PM.c ****         0u, /* enableState */
  23:Generated_Source\PSoC4/VrefBuffer_PM.c ****     };
  24:Generated_Source\PSoC4/VrefBuffer_PM.c **** #endif /* (VrefBuffer_CHECK_DEEPSLEEP_SUPPORT) */
  25:Generated_Source\PSoC4/VrefBuffer_PM.c **** 
  26:Generated_Source\PSoC4/VrefBuffer_PM.c **** 
  27:Generated_Source\PSoC4/VrefBuffer_PM.c **** /*******************************************************************************
  28:Generated_Source\PSoC4/VrefBuffer_PM.c **** * Function Name: VrefBuffer_SaveConfig
  29:Generated_Source\PSoC4/VrefBuffer_PM.c **** ********************************************************************************
  30:Generated_Source\PSoC4/VrefBuffer_PM.c **** *
  31:Generated_Source\PSoC4/VrefBuffer_PM.c **** * Summary:
  32:Generated_Source\PSoC4/VrefBuffer_PM.c **** *  Empty function. Included for consistency with other components.
ARM GAS  C:\Users\Greg\AppData\Local\Temp\ccFYtOkg.s 			page 2


  33:Generated_Source\PSoC4/VrefBuffer_PM.c **** *
  34:Generated_Source\PSoC4/VrefBuffer_PM.c **** * Parameters:
  35:Generated_Source\PSoC4/VrefBuffer_PM.c **** *  None
  36:Generated_Source\PSoC4/VrefBuffer_PM.c **** *
  37:Generated_Source\PSoC4/VrefBuffer_PM.c **** * Return:
  38:Generated_Source\PSoC4/VrefBuffer_PM.c **** *  None
  39:Generated_Source\PSoC4/VrefBuffer_PM.c **** *
  40:Generated_Source\PSoC4/VrefBuffer_PM.c **** *******************************************************************************/
  41:Generated_Source\PSoC4/VrefBuffer_PM.c **** void VrefBuffer_SaveConfig(void)
  42:Generated_Source\PSoC4/VrefBuffer_PM.c **** {
  26              		.loc 1 42 0
  27              		.cfi_startproc
  43:Generated_Source\PSoC4/VrefBuffer_PM.c **** 
  44:Generated_Source\PSoC4/VrefBuffer_PM.c **** }
  28              		.loc 1 44 0
  29              		@ sp needed
  30 0000 7047     		bx	lr
  31              		.cfi_endproc
  32              	.LFE0:
  33              		.size	VrefBuffer_SaveConfig, .-VrefBuffer_SaveConfig
  34 0002 C046     		.section	.text.VrefBuffer_RestoreConfig,"ax",%progbits
  35              		.align	2
  36              		.global	VrefBuffer_RestoreConfig
  37              		.code	16
  38              		.thumb_func
  39              		.type	VrefBuffer_RestoreConfig, %function
  40              	VrefBuffer_RestoreConfig:
  41              	.LFB1:
  45:Generated_Source\PSoC4/VrefBuffer_PM.c **** 
  46:Generated_Source\PSoC4/VrefBuffer_PM.c **** 
  47:Generated_Source\PSoC4/VrefBuffer_PM.c **** /*******************************************************************************
  48:Generated_Source\PSoC4/VrefBuffer_PM.c **** * Function Name: VrefBuffer_RestoreConfig
  49:Generated_Source\PSoC4/VrefBuffer_PM.c **** ********************************************************************************
  50:Generated_Source\PSoC4/VrefBuffer_PM.c **** *
  51:Generated_Source\PSoC4/VrefBuffer_PM.c **** * Summary:
  52:Generated_Source\PSoC4/VrefBuffer_PM.c **** *  Empty function. Included for consistency with other components.
  53:Generated_Source\PSoC4/VrefBuffer_PM.c **** *
  54:Generated_Source\PSoC4/VrefBuffer_PM.c **** * Parameters:
  55:Generated_Source\PSoC4/VrefBuffer_PM.c **** *  None
  56:Generated_Source\PSoC4/VrefBuffer_PM.c **** *
  57:Generated_Source\PSoC4/VrefBuffer_PM.c **** * Return:
  58:Generated_Source\PSoC4/VrefBuffer_PM.c **** *  None
  59:Generated_Source\PSoC4/VrefBuffer_PM.c **** *
  60:Generated_Source\PSoC4/VrefBuffer_PM.c **** *******************************************************************************/
  61:Generated_Source\PSoC4/VrefBuffer_PM.c **** void VrefBuffer_RestoreConfig(void)
  62:Generated_Source\PSoC4/VrefBuffer_PM.c **** {
  42              		.loc 1 62 0
  43              		.cfi_startproc
  63:Generated_Source\PSoC4/VrefBuffer_PM.c ****     
  64:Generated_Source\PSoC4/VrefBuffer_PM.c **** }
  44              		.loc 1 64 0
  45              		@ sp needed
  46 0000 7047     		bx	lr
  47              		.cfi_endproc
  48              	.LFE1:
  49              		.size	VrefBuffer_RestoreConfig, .-VrefBuffer_RestoreConfig
  50 0002 C046     		.section	.text.VrefBuffer_Sleep,"ax",%progbits
ARM GAS  C:\Users\Greg\AppData\Local\Temp\ccFYtOkg.s 			page 3


  51              		.align	2
  52              		.global	VrefBuffer_Sleep
  53              		.code	16
  54              		.thumb_func
  55              		.type	VrefBuffer_Sleep, %function
  56              	VrefBuffer_Sleep:
  57              	.LFB2:
  65:Generated_Source\PSoC4/VrefBuffer_PM.c **** 
  66:Generated_Source\PSoC4/VrefBuffer_PM.c **** 
  67:Generated_Source\PSoC4/VrefBuffer_PM.c **** /*******************************************************************************
  68:Generated_Source\PSoC4/VrefBuffer_PM.c **** * Function Name: VrefBuffer_Sleep
  69:Generated_Source\PSoC4/VrefBuffer_PM.c **** ********************************************************************************
  70:Generated_Source\PSoC4/VrefBuffer_PM.c **** *
  71:Generated_Source\PSoC4/VrefBuffer_PM.c **** * Summary:
  72:Generated_Source\PSoC4/VrefBuffer_PM.c **** *  This is the preferred API to prepare the component for sleep. The Sleep() API 
  73:Generated_Source\PSoC4/VrefBuffer_PM.c **** *  saves the current component state. Call the Sleep() function before calling the 
  74:Generated_Source\PSoC4/VrefBuffer_PM.c **** *  CySysPmDeepSleep() or the CySysPmHibernate() functions. The "Deep sleep operation" 
  75:Generated_Source\PSoC4/VrefBuffer_PM.c **** *  option has an influence on this function implementation.
  76:Generated_Source\PSoC4/VrefBuffer_PM.c **** *
  77:Generated_Source\PSoC4/VrefBuffer_PM.c **** * Parameters:
  78:Generated_Source\PSoC4/VrefBuffer_PM.c **** *  None
  79:Generated_Source\PSoC4/VrefBuffer_PM.c **** *
  80:Generated_Source\PSoC4/VrefBuffer_PM.c **** * Return:
  81:Generated_Source\PSoC4/VrefBuffer_PM.c **** *  None
  82:Generated_Source\PSoC4/VrefBuffer_PM.c **** *
  83:Generated_Source\PSoC4/VrefBuffer_PM.c **** * Global variables:
  84:Generated_Source\PSoC4/VrefBuffer_PM.c **** *  VrefBuffer_backup: The structure field 'enableState' is modified
  85:Generated_Source\PSoC4/VrefBuffer_PM.c **** *  depending on the enable state of the block before entering the sleep mode.
  86:Generated_Source\PSoC4/VrefBuffer_PM.c **** *
  87:Generated_Source\PSoC4/VrefBuffer_PM.c **** *******************************************************************************/
  88:Generated_Source\PSoC4/VrefBuffer_PM.c **** void VrefBuffer_Sleep(void)
  89:Generated_Source\PSoC4/VrefBuffer_PM.c **** {
  58              		.loc 1 89 0
  59              		.cfi_startproc
  60 0000 08B5     		push	{r3, lr}
  61              		.cfi_def_cfa_offset 8
  62              		.cfi_offset 3, -8
  63              		.cfi_offset 14, -4
  90:Generated_Source\PSoC4/VrefBuffer_PM.c **** #if(!VrefBuffer_CHECK_DEEPSLEEP_SUPPORT)
  91:Generated_Source\PSoC4/VrefBuffer_PM.c ****     if(VrefBuffer_CHECK_PWR_MODE_OFF)
  64              		.loc 1 91 0
  65 0002 074B     		ldr	r3, .L6
  66 0004 1B68     		ldr	r3, [r3]
  67 0006 9B07     		lsl	r3, r3, #30
  68 0008 05D0     		beq	.L4
  92:Generated_Source\PSoC4/VrefBuffer_PM.c ****     {
  93:Generated_Source\PSoC4/VrefBuffer_PM.c ****         VrefBuffer_backup.enableState = 1u;
  69              		.loc 1 93 0
  70 000a 0122     		mov	r2, #1
  71 000c 054B     		ldr	r3, .L6+4
  72 000e 1A70     		strb	r2, [r3]
  94:Generated_Source\PSoC4/VrefBuffer_PM.c ****         VrefBuffer_Stop();
  73              		.loc 1 94 0
  74 0010 FFF7FEFF 		bl	VrefBuffer_Stop
  75              	.LVL0:
  76 0014 02E0     		b	.L3
  77              	.L4:
ARM GAS  C:\Users\Greg\AppData\Local\Temp\ccFYtOkg.s 			page 4


  95:Generated_Source\PSoC4/VrefBuffer_PM.c ****     }
  96:Generated_Source\PSoC4/VrefBuffer_PM.c ****     else /* The component is disabled */
  97:Generated_Source\PSoC4/VrefBuffer_PM.c ****     {
  98:Generated_Source\PSoC4/VrefBuffer_PM.c ****         VrefBuffer_backup.enableState = 0u;
  78              		.loc 1 98 0
  79 0016 0022     		mov	r2, #0
  80 0018 024B     		ldr	r3, .L6+4
  81 001a 1A70     		strb	r2, [r3]
  82              	.L3:
  99:Generated_Source\PSoC4/VrefBuffer_PM.c ****     }
 100:Generated_Source\PSoC4/VrefBuffer_PM.c **** #endif /* (VrefBuffer_CHECK_DEEPSLEEP_SUPPORT) */
 101:Generated_Source\PSoC4/VrefBuffer_PM.c **** }
  83              		.loc 1 101 0
  84              		@ sp needed
  85 001c 08BD     		pop	{r3, pc}
  86              	.L7:
  87 001e C046     		.align	2
  88              	.L6:
  89 0020 08003140 		.word	1076953096
  90 0024 00000000 		.word	.LANCHOR0
  91              		.cfi_endproc
  92              	.LFE2:
  93              		.size	VrefBuffer_Sleep, .-VrefBuffer_Sleep
  94              		.section	.text.VrefBuffer_Wakeup,"ax",%progbits
  95              		.align	2
  96              		.global	VrefBuffer_Wakeup
  97              		.code	16
  98              		.thumb_func
  99              		.type	VrefBuffer_Wakeup, %function
 100              	VrefBuffer_Wakeup:
 101              	.LFB3:
 102:Generated_Source\PSoC4/VrefBuffer_PM.c **** 
 103:Generated_Source\PSoC4/VrefBuffer_PM.c **** 
 104:Generated_Source\PSoC4/VrefBuffer_PM.c **** /*******************************************************************************
 105:Generated_Source\PSoC4/VrefBuffer_PM.c **** * Function Name: VrefBuffer_Wakeup
 106:Generated_Source\PSoC4/VrefBuffer_PM.c **** ********************************************************************************
 107:Generated_Source\PSoC4/VrefBuffer_PM.c **** *
 108:Generated_Source\PSoC4/VrefBuffer_PM.c **** * Summary:
 109:Generated_Source\PSoC4/VrefBuffer_PM.c **** *  This is the preferred API to restore the component to the state when Sleep() 
 110:Generated_Source\PSoC4/VrefBuffer_PM.c **** *  is called. If the component has been enabled before the Sleep() function is 
 111:Generated_Source\PSoC4/VrefBuffer_PM.c **** *  called, the Wakeup() function will also re-enable the component.
 112:Generated_Source\PSoC4/VrefBuffer_PM.c **** *  The "Deep sleep operation" option has an influence on this function
 113:Generated_Source\PSoC4/VrefBuffer_PM.c **** *  implementation.
 114:Generated_Source\PSoC4/VrefBuffer_PM.c **** *
 115:Generated_Source\PSoC4/VrefBuffer_PM.c **** * Parameters:
 116:Generated_Source\PSoC4/VrefBuffer_PM.c **** *  None
 117:Generated_Source\PSoC4/VrefBuffer_PM.c **** *
 118:Generated_Source\PSoC4/VrefBuffer_PM.c **** * Return:
 119:Generated_Source\PSoC4/VrefBuffer_PM.c **** *  None
 120:Generated_Source\PSoC4/VrefBuffer_PM.c **** *
 121:Generated_Source\PSoC4/VrefBuffer_PM.c **** * Global variables:
 122:Generated_Source\PSoC4/VrefBuffer_PM.c **** *  VrefBuffer_backup: The structure field 'enableState' is used to
 123:Generated_Source\PSoC4/VrefBuffer_PM.c **** *  restore the enable state of block after wakeup from sleep mode.
 124:Generated_Source\PSoC4/VrefBuffer_PM.c **** *
 125:Generated_Source\PSoC4/VrefBuffer_PM.c **** *******************************************************************************/
 126:Generated_Source\PSoC4/VrefBuffer_PM.c **** void VrefBuffer_Wakeup(void)
 127:Generated_Source\PSoC4/VrefBuffer_PM.c **** {
ARM GAS  C:\Users\Greg\AppData\Local\Temp\ccFYtOkg.s 			page 5


 102              		.loc 1 127 0
 103              		.cfi_startproc
 104 0000 08B5     		push	{r3, lr}
 105              		.cfi_def_cfa_offset 8
 106              		.cfi_offset 3, -8
 107              		.cfi_offset 14, -4
 128:Generated_Source\PSoC4/VrefBuffer_PM.c **** #if(!VrefBuffer_CHECK_DEEPSLEEP_SUPPORT)
 129:Generated_Source\PSoC4/VrefBuffer_PM.c ****     if(0u != VrefBuffer_backup.enableState)
 108              		.loc 1 129 0
 109 0002 034B     		ldr	r3, .L10
 110 0004 1B78     		ldrb	r3, [r3]
 111 0006 002B     		cmp	r3, #0
 112 0008 01D0     		beq	.L8
 130:Generated_Source\PSoC4/VrefBuffer_PM.c ****     {
 131:Generated_Source\PSoC4/VrefBuffer_PM.c ****         /* Enable Opamp's operation */
 132:Generated_Source\PSoC4/VrefBuffer_PM.c ****         VrefBuffer_Enable();
 113              		.loc 1 132 0
 114 000a FFF7FEFF 		bl	VrefBuffer_Enable
 115              	.LVL1:
 116              	.L8:
 133:Generated_Source\PSoC4/VrefBuffer_PM.c ****     } /* Do nothing if Opamp was disabled before */
 134:Generated_Source\PSoC4/VrefBuffer_PM.c **** #endif /* (VrefBuffer_CHECK_DEEPSLEEP_SUPPORT) */
 135:Generated_Source\PSoC4/VrefBuffer_PM.c **** }
 117              		.loc 1 135 0
 118              		@ sp needed
 119 000e 08BD     		pop	{r3, pc}
 120              	.L11:
 121              		.align	2
 122              	.L10:
 123 0010 00000000 		.word	.LANCHOR0
 124              		.cfi_endproc
 125              	.LFE3:
 126              		.size	VrefBuffer_Wakeup, .-VrefBuffer_Wakeup
 127              		.bss
 128              		.align	2
 129              		.set	.LANCHOR0,. + 0
 130              		.type	VrefBuffer_backup, %object
 131              		.size	VrefBuffer_backup, 1
 132              	VrefBuffer_backup:
 133 0000 00       		.space	1
 134 0001 000000   		.text
 135              	.Letext0:
 136              		.file 2 "Generated_Source\\PSoC4\\cytypes.h"
 137              		.file 3 "Generated_Source\\PSoC4\\VrefBuffer.h"