ARM GAS  C:\Users\Greg\AppData\Local\Temp\ccI9W9Nc.s 			page 1


   1              		.syntax unified
   2              		.cpu cortex-m0
   3              		.fpu softvfp
   4              		.eabi_attribute 20, 1
   5              		.eabi_attribute 21, 1
   6              		.eabi_attribute 23, 3
   7              		.eabi_attribute 24, 1
   8              		.eabi_attribute 25, 1
   9              		.eabi_attribute 26, 1
  10              		.eabi_attribute 30, 4
  11              		.eabi_attribute 34, 0
  12              		.eabi_attribute 18, 4
  13              		.thumb
  14              		.syntax unified
  15              		.file	"ADC.c"
  16              		.text
  17              	.Ltext0:
  18              		.cfi_sections	.debug_frame
  19              		.section	.text.ADC_Init,"ax",%progbits
  20              		.align	1
  21              		.global	ADC_Init
  22              		.code	16
  23              		.thumb_func
  24              		.type	ADC_Init, %function
  25              	ADC_Init:
  26              	.LFB2:
  27              		.file 1 "Generated_Source\\PSoC4\\ADC.c"
   1:Generated_Source\PSoC4/ADC.c **** /*******************************************************************************
   2:Generated_Source\PSoC4/ADC.c **** * File Name: ADC.c
   3:Generated_Source\PSoC4/ADC.c **** * Version 2.40
   4:Generated_Source\PSoC4/ADC.c **** *
   5:Generated_Source\PSoC4/ADC.c **** * Description:
   6:Generated_Source\PSoC4/ADC.c **** *  This file provides the source code to the API for the Sequencing Successive
   7:Generated_Source\PSoC4/ADC.c **** *  Approximation ADC Component Component.
   8:Generated_Source\PSoC4/ADC.c **** *
   9:Generated_Source\PSoC4/ADC.c **** * Note:
  10:Generated_Source\PSoC4/ADC.c **** *
  11:Generated_Source\PSoC4/ADC.c **** ********************************************************************************
  12:Generated_Source\PSoC4/ADC.c **** * Copyright 2008-2015, Cypress Semiconductor Corporation.  All rights reserved.
  13:Generated_Source\PSoC4/ADC.c **** * You may use this file only in accordance with the license, terms, conditions,
  14:Generated_Source\PSoC4/ADC.c **** * disclaimers, and limitations in the end user license agreement accompanying
  15:Generated_Source\PSoC4/ADC.c **** * the software package with which this file was provided.
  16:Generated_Source\PSoC4/ADC.c **** *******************************************************************************/
  17:Generated_Source\PSoC4/ADC.c **** 
  18:Generated_Source\PSoC4/ADC.c **** #include "ADC.h"
  19:Generated_Source\PSoC4/ADC.c **** 
  20:Generated_Source\PSoC4/ADC.c **** 
  21:Generated_Source\PSoC4/ADC.c **** /***************************************
  22:Generated_Source\PSoC4/ADC.c **** * Global data allocation
  23:Generated_Source\PSoC4/ADC.c **** ***************************************/
  24:Generated_Source\PSoC4/ADC.c **** uint8 ADC_initVar = 0u;
  25:Generated_Source\PSoC4/ADC.c **** volatile int16 ADC_offset[ADC_TOTAL_CHANNELS_NUM];
  26:Generated_Source\PSoC4/ADC.c **** volatile int32 ADC_countsPer10Volt[ADC_TOTAL_CHANNELS_NUM];   /* Gain compensation */
  27:Generated_Source\PSoC4/ADC.c **** 
  28:Generated_Source\PSoC4/ADC.c **** 
  29:Generated_Source\PSoC4/ADC.c **** /***************************************
  30:Generated_Source\PSoC4/ADC.c **** * Local data allocation
ARM GAS  C:\Users\Greg\AppData\Local\Temp\ccI9W9Nc.s 			page 2


  31:Generated_Source\PSoC4/ADC.c **** ***************************************/
  32:Generated_Source\PSoC4/ADC.c **** /* Channels configuration generated by customiser */
  33:Generated_Source\PSoC4/ADC.c **** static const uint32 CYCODE ADC_channelsConfig[] = { 0x00000400u, 0x00000400u, 0x00000400u };
  34:Generated_Source\PSoC4/ADC.c **** 
  35:Generated_Source\PSoC4/ADC.c **** 
  36:Generated_Source\PSoC4/ADC.c **** /*******************************************************************************
  37:Generated_Source\PSoC4/ADC.c **** * Function Name: ADC_Start
  38:Generated_Source\PSoC4/ADC.c **** ********************************************************************************
  39:Generated_Source\PSoC4/ADC.c **** *
  40:Generated_Source\PSoC4/ADC.c **** * Summary:
  41:Generated_Source\PSoC4/ADC.c **** *  Performs all required initialization for this component
  42:Generated_Source\PSoC4/ADC.c **** *  and enables the power. The power will be set to the appropriate
  43:Generated_Source\PSoC4/ADC.c **** *  power based on the clock frequency.
  44:Generated_Source\PSoC4/ADC.c **** *
  45:Generated_Source\PSoC4/ADC.c **** * Parameters:
  46:Generated_Source\PSoC4/ADC.c **** *  None.
  47:Generated_Source\PSoC4/ADC.c **** *
  48:Generated_Source\PSoC4/ADC.c **** * Return:
  49:Generated_Source\PSoC4/ADC.c **** *  None.
  50:Generated_Source\PSoC4/ADC.c **** *
  51:Generated_Source\PSoC4/ADC.c **** * Global variables:
  52:Generated_Source\PSoC4/ADC.c **** *  The ADC_initVar variable is used to indicate when/if initial
  53:Generated_Source\PSoC4/ADC.c **** *  configuration of this component has happened. The variable is initialized to
  54:Generated_Source\PSoC4/ADC.c **** *  zero and set to 1 the first time ADC_Start() is called. This allows for
  55:Generated_Source\PSoC4/ADC.c **** *  component Re-Start without re-initialization in all subsequent calls to the
  56:Generated_Source\PSoC4/ADC.c **** *  ADC_Start() routine.
  57:Generated_Source\PSoC4/ADC.c **** *  If re-initialization of the component is required the variable should be set
  58:Generated_Source\PSoC4/ADC.c **** *  to zero before call of ADC_Start() routine, or the user may call
  59:Generated_Source\PSoC4/ADC.c **** *  ADC_Init() and ADC_Enable() as done in the
  60:Generated_Source\PSoC4/ADC.c **** *  ADC_Start() routine.
  61:Generated_Source\PSoC4/ADC.c **** *
  62:Generated_Source\PSoC4/ADC.c **** *******************************************************************************/
  63:Generated_Source\PSoC4/ADC.c **** void ADC_Start(void)
  64:Generated_Source\PSoC4/ADC.c **** {
  65:Generated_Source\PSoC4/ADC.c ****     /* If not Initialized then initialize all required hardware and software */
  66:Generated_Source\PSoC4/ADC.c ****     if(ADC_initVar == 0u)
  67:Generated_Source\PSoC4/ADC.c ****     {
  68:Generated_Source\PSoC4/ADC.c ****         ADC_Init();
  69:Generated_Source\PSoC4/ADC.c ****         ADC_initVar = 1u;
  70:Generated_Source\PSoC4/ADC.c ****     }
  71:Generated_Source\PSoC4/ADC.c ****     ADC_Enable();
  72:Generated_Source\PSoC4/ADC.c **** }
  73:Generated_Source\PSoC4/ADC.c **** 
  74:Generated_Source\PSoC4/ADC.c **** 
  75:Generated_Source\PSoC4/ADC.c **** /*******************************************************************************
  76:Generated_Source\PSoC4/ADC.c **** * Function Name: ADC_Init
  77:Generated_Source\PSoC4/ADC.c **** ********************************************************************************
  78:Generated_Source\PSoC4/ADC.c **** *
  79:Generated_Source\PSoC4/ADC.c **** * Summary:
  80:Generated_Source\PSoC4/ADC.c **** *  Initialize component's parameters to the parameters set by user in the
  81:Generated_Source\PSoC4/ADC.c **** *  customizer of the component placed onto schematic. Usually called in
  82:Generated_Source\PSoC4/ADC.c **** *  ADC_Start().
  83:Generated_Source\PSoC4/ADC.c **** *
  84:Generated_Source\PSoC4/ADC.c **** * Parameters:
  85:Generated_Source\PSoC4/ADC.c **** *  None.
  86:Generated_Source\PSoC4/ADC.c **** *
  87:Generated_Source\PSoC4/ADC.c **** * Return:
ARM GAS  C:\Users\Greg\AppData\Local\Temp\ccI9W9Nc.s 			page 3


  88:Generated_Source\PSoC4/ADC.c **** *  None.
  89:Generated_Source\PSoC4/ADC.c **** *
  90:Generated_Source\PSoC4/ADC.c **** * Global variables:
  91:Generated_Source\PSoC4/ADC.c **** *  The ADC_offset variable is initialized.
  92:Generated_Source\PSoC4/ADC.c **** *
  93:Generated_Source\PSoC4/ADC.c **** *******************************************************************************/
  94:Generated_Source\PSoC4/ADC.c **** void ADC_Init(void)
  95:Generated_Source\PSoC4/ADC.c **** {
  28              		.loc 1 95 0
  29              		.cfi_startproc
  30              		@ args = 0, pretend = 0, frame = 8
  31              		@ frame_needed = 0, uses_anonymous_args = 0
  32 0000 F7B5     		push	{r0, r1, r2, r4, r5, r6, r7, lr}
  33              		.cfi_def_cfa_offset 32
  34              		.cfi_offset 0, -32
  35              		.cfi_offset 1, -28
  36              		.cfi_offset 2, -24
  37              		.cfi_offset 4, -20
  38              		.cfi_offset 5, -16
  39              		.cfi_offset 6, -12
  40              		.cfi_offset 7, -8
  41              		.cfi_offset 14, -4
  96:Generated_Source\PSoC4/ADC.c ****     uint32 chNum;
  97:Generated_Source\PSoC4/ADC.c ****     uint32 tmpRegVal;
  98:Generated_Source\PSoC4/ADC.c ****     int32 counts;
  99:Generated_Source\PSoC4/ADC.c **** 
 100:Generated_Source\PSoC4/ADC.c ****     #if(ADC_TOTAL_CHANNELS_NUM > 1u)
 101:Generated_Source\PSoC4/ADC.c ****         static const uint8 CYCODE ADC_InputsPlacement[] =
 102:Generated_Source\PSoC4/ADC.c ****         {
 103:Generated_Source\PSoC4/ADC.c ****             (uint8)(ADC_cy_psoc4_sarmux_8__CH_0_PORT << 4u) |
 104:Generated_Source\PSoC4/ADC.c ****             (uint8)ADC_cy_psoc4_sarmux_8__CH_0_PIN
 105:Generated_Source\PSoC4/ADC.c ****             ,(uint8)(ADC_cy_psoc4_sarmux_8__CH_1_PORT << 4u) |
 106:Generated_Source\PSoC4/ADC.c ****              (uint8)ADC_cy_psoc4_sarmux_8__CH_1_PIN
 107:Generated_Source\PSoC4/ADC.c ****             #if(ADC_TOTAL_CHANNELS_NUM > 2u)
 108:Generated_Source\PSoC4/ADC.c ****                 ,(uint8)(ADC_cy_psoc4_sarmux_8__CH_2_PORT << 4u) |
 109:Generated_Source\PSoC4/ADC.c ****                  (uint8)ADC_cy_psoc4_sarmux_8__CH_2_PIN
 110:Generated_Source\PSoC4/ADC.c ****             #endif /* End ADC_TOTAL_CHANNELS_NUM > 2u */
 111:Generated_Source\PSoC4/ADC.c ****             #if(ADC_TOTAL_CHANNELS_NUM > 3u)
 112:Generated_Source\PSoC4/ADC.c ****                 ,(uint8)(ADC_cy_psoc4_sarmux_8__CH_3_PORT << 4u) |
 113:Generated_Source\PSoC4/ADC.c ****                  (uint8)ADC_cy_psoc4_sarmux_8__CH_3_PIN
 114:Generated_Source\PSoC4/ADC.c ****             #endif /* End ADC_TOTAL_CHANNELS_NUM > 3u */
 115:Generated_Source\PSoC4/ADC.c ****             #if(ADC_TOTAL_CHANNELS_NUM > 4u)
 116:Generated_Source\PSoC4/ADC.c ****                 ,(uint8)(ADC_cy_psoc4_sarmux_8__CH_4_PORT << 4u) |
 117:Generated_Source\PSoC4/ADC.c ****                  (uint8)ADC_cy_psoc4_sarmux_8__CH_4_PIN
 118:Generated_Source\PSoC4/ADC.c ****             #endif /* End ADC_TOTAL_CHANNELS_NUM > 4u */
 119:Generated_Source\PSoC4/ADC.c ****             #if(ADC_TOTAL_CHANNELS_NUM > 5u)
 120:Generated_Source\PSoC4/ADC.c ****                 ,(uint8)(ADC_cy_psoc4_sarmux_8__CH_5_PORT << 4u) |
 121:Generated_Source\PSoC4/ADC.c ****                  (uint8)ADC_cy_psoc4_sarmux_8__CH_5_PIN
 122:Generated_Source\PSoC4/ADC.c ****             #endif /* End ADC_TOTAL_CHANNELS_NUM > 5u */
 123:Generated_Source\PSoC4/ADC.c ****             #if(ADC_TOTAL_CHANNELS_NUM > 6u)
 124:Generated_Source\PSoC4/ADC.c ****                 ,(uint8)(ADC_cy_psoc4_sarmux_8__CH_6_PORT << 4u) |
 125:Generated_Source\PSoC4/ADC.c ****                  (uint8)ADC_cy_psoc4_sarmux_8__CH_6_PIN
 126:Generated_Source\PSoC4/ADC.c ****             #endif /* End ADC_TOTAL_CHANNELS_NUM > 6u */
 127:Generated_Source\PSoC4/ADC.c ****             #if(ADC_TOTAL_CHANNELS_NUM > 7u)
 128:Generated_Source\PSoC4/ADC.c ****                 ,(uint8)(ADC_cy_psoc4_sarmux_8__CH_7_PORT << 4u) |
 129:Generated_Source\PSoC4/ADC.c ****                  (uint8)ADC_cy_psoc4_sarmux_8__CH_7_PIN
 130:Generated_Source\PSoC4/ADC.c ****             #endif /* End ADC_TOTAL_CHANNELS_NUM > 7u */
ARM GAS  C:\Users\Greg\AppData\Local\Temp\ccI9W9Nc.s 			page 4


 131:Generated_Source\PSoC4/ADC.c ****             #if(ADC_TOTAL_CHANNELS_NUM > 8u)
 132:Generated_Source\PSoC4/ADC.c ****                 ,(uint8)(ADC_cy_psoc4_sarmux_8__CH_8_PORT << 4u) |
 133:Generated_Source\PSoC4/ADC.c ****                  (uint8)ADC_cy_psoc4_sarmux_8__CH_8_PIN
 134:Generated_Source\PSoC4/ADC.c ****             #endif /* End ADC_TOTAL_CHANNELS_NUM > 8u */
 135:Generated_Source\PSoC4/ADC.c ****             #if(ADC_TOTAL_CHANNELS_NUM > 9u)
 136:Generated_Source\PSoC4/ADC.c ****                 ,(uint8)(ADC_cy_psoc4_sarmux_8__CH_9_PORT << 4u) |
 137:Generated_Source\PSoC4/ADC.c ****                  (uint8)ADC_cy_psoc4_sarmux_8__CH_9_PIN
 138:Generated_Source\PSoC4/ADC.c ****             #endif /* End ADC_TOTAL_CHANNELS_NUM > 9u */
 139:Generated_Source\PSoC4/ADC.c ****             #if(ADC_TOTAL_CHANNELS_NUM > 10u)
 140:Generated_Source\PSoC4/ADC.c ****                 ,(uint8)(ADC_cy_psoc4_sarmux_8__CH_10_PORT << 4u) |
 141:Generated_Source\PSoC4/ADC.c ****                  (uint8)ADC_cy_psoc4_sarmux_8__CH_10_PIN
 142:Generated_Source\PSoC4/ADC.c ****             #endif /* End ADC_TOTAL_CHANNELS_NUM > 10u */
 143:Generated_Source\PSoC4/ADC.c ****             #if(ADC_TOTAL_CHANNELS_NUM > 11u)
 144:Generated_Source\PSoC4/ADC.c ****                 ,(uint8)(ADC_cy_psoc4_sarmux_8__CH_11_PORT << 4u) |
 145:Generated_Source\PSoC4/ADC.c ****                  (uint8)ADC_cy_psoc4_sarmux_8__CH_11_PIN
 146:Generated_Source\PSoC4/ADC.c ****             #endif /* End ADC_TOTAL_CHANNELS_NUM > 11u */
 147:Generated_Source\PSoC4/ADC.c ****             #if(ADC_TOTAL_CHANNELS_NUM > 12u)
 148:Generated_Source\PSoC4/ADC.c ****                 ,(uint8)(ADC_cy_psoc4_sarmux_8__CH_12_PORT << 4u) |
 149:Generated_Source\PSoC4/ADC.c ****                  (uint8)ADC_cy_psoc4_sarmux_8__CH_12_PIN
 150:Generated_Source\PSoC4/ADC.c ****             #endif /* End ADC_TOTAL_CHANNELS_NUM > 12u */
 151:Generated_Source\PSoC4/ADC.c ****             #if(ADC_TOTAL_CHANNELS_NUM > 13u)
 152:Generated_Source\PSoC4/ADC.c ****                 ,(uint8)(ADC_cy_psoc4_sarmux_8__CH_13_PORT << 4u) |
 153:Generated_Source\PSoC4/ADC.c ****                  (uint8)ADC_cy_psoc4_sarmux_8__CH_13_PIN
 154:Generated_Source\PSoC4/ADC.c ****             #endif /* End ADC_TOTAL_CHANNELS_NUM > 13u */
 155:Generated_Source\PSoC4/ADC.c ****             #if(ADC_TOTAL_CHANNELS_NUM > 14u)
 156:Generated_Source\PSoC4/ADC.c ****                 ,(uint8)(ADC_cy_psoc4_sarmux_8__CH_14_PORT << 4u) |
 157:Generated_Source\PSoC4/ADC.c ****                  (uint8)ADC_cy_psoc4_sarmux_8__CH_14_PIN
 158:Generated_Source\PSoC4/ADC.c ****             #endif /* End ADC_TOTAL_CHANNELS_NUM > 14u */
 159:Generated_Source\PSoC4/ADC.c ****             #if(ADC_TOTAL_CHANNELS_NUM > 15u)
 160:Generated_Source\PSoC4/ADC.c ****                 ,(uint8)(ADC_cy_psoc4_sarmux_8__CH_15_PORT << 4u) |
 161:Generated_Source\PSoC4/ADC.c ****                  (uint8)ADC_cy_psoc4_sarmux_8__CH_15_PIN
 162:Generated_Source\PSoC4/ADC.c ****             #endif /* End ADC_TOTAL_CHANNELS_NUM > 15u */
 163:Generated_Source\PSoC4/ADC.c ****             #if(ADC_TOTAL_CHANNELS_NUM > 16u)
 164:Generated_Source\PSoC4/ADC.c ****                 ,(uint8)(ADC_cy_psoc4_sarmux_8__CH_16_PORT << 4u) |
 165:Generated_Source\PSoC4/ADC.c ****                  (uint8)ADC_cy_psoc4_sarmux_8__CH_16_PIN
 166:Generated_Source\PSoC4/ADC.c ****             #endif /* End ADC_TOTAL_CHANNELS_NUM > 16u */
 167:Generated_Source\PSoC4/ADC.c ****         };
 168:Generated_Source\PSoC4/ADC.c ****     #endif /* End ADC_TOTAL_CHANNELS_NUM > 1u */
 169:Generated_Source\PSoC4/ADC.c **** 
 170:Generated_Source\PSoC4/ADC.c ****     #if(ADC_IRQ_REMOVE == 0u)
 171:Generated_Source\PSoC4/ADC.c ****         /* Start and set interrupt vector */
 172:Generated_Source\PSoC4/ADC.c ****         CyIntSetPriority(ADC_INTC_NUMBER, ADC_INTC_PRIOR_NUMBER);
  42              		.loc 1 172 0
  43 0002 0321     		movs	r1, #3
  44 0004 1020     		movs	r0, #16
  45 0006 FFF7FEFF 		bl	CyIntSetPriority
  46              	.LVL0:
 173:Generated_Source\PSoC4/ADC.c ****         (void)CyIntSetVector(ADC_INTC_NUMBER, &ADC_ISR);
  47              		.loc 1 173 0
  48 000a 3649     		ldr	r1, .L20
  49 000c 1020     		movs	r0, #16
  50 000e FFF7FEFF 		bl	CyIntSetVector
  51              	.LVL1:
 174:Generated_Source\PSoC4/ADC.c ****     #endif   /* End ADC_IRQ_REMOVE */
 175:Generated_Source\PSoC4/ADC.c **** 
 176:Generated_Source\PSoC4/ADC.c ****     /* Init SAR and MUX registers */
 177:Generated_Source\PSoC4/ADC.c ****     ADC_SAR_CHAN_EN_REG = ADC_DEFAULT_EN_CHANNELS;
ARM GAS  C:\Users\Greg\AppData\Local\Temp\ccI9W9Nc.s 			page 5


  52              		.loc 1 177 0
  53 0012 0722     		movs	r2, #7
  54 0014 344B     		ldr	r3, .L20+4
  55 0016 1A60     		str	r2, [r3]
 178:Generated_Source\PSoC4/ADC.c ****     ADC_SAR_CTRL_REG |= ADC_DEFAULT_CTRL_REG_CFG | 
 179:Generated_Source\PSoC4/ADC.c ****         /* Enable the SAR internal pump when global pump is enabled */
 180:Generated_Source\PSoC4/ADC.c ****         (((ADC_PUMP_CTRL_REG & ADC_PUMP_CTRL_ENABLED) != 0u) ? 
  56              		.loc 1 180 0
  57 0018 344B     		ldr	r3, .L20+8
  58 001a 1B68     		ldr	r3, [r3]
 178:Generated_Source\PSoC4/ADC.c ****     ADC_SAR_CTRL_REG |= ADC_DEFAULT_CTRL_REG_CFG | 
  59              		.loc 1 178 0
  60 001c 002B     		cmp	r3, #0
  61 001e 01DB     		blt	.L9
  62 0020 3349     		ldr	r1, .L20+12
  63 0022 00E0     		b	.L2
  64              	.L9:
  65 0024 3349     		ldr	r1, .L20+16
  66              	.L2:
 181:Generated_Source\PSoC4/ADC.c ****         ADC_BOOSTPUMP_EN : 0u);
 182:Generated_Source\PSoC4/ADC.c ****     ADC_SAR_SAMPLE_CTRL_REG = ADC_DEFAULT_SAMPLE_CTRL_REG_CFG;
 183:Generated_Source\PSoC4/ADC.c ****     ADC_SAR_RANGE_THRES_REG = ADC_DEFAULT_RANGE_THRES_REG_CFG;
 184:Generated_Source\PSoC4/ADC.c ****     ADC_SAR_RANGE_COND_REG  = ADC_COMPARE_MODE;
 185:Generated_Source\PSoC4/ADC.c ****     ADC_SAR_SAMPLE_TIME01_REG = ADC_DEFAULT_SAMPLE_TIME01_REG_CFG;
 186:Generated_Source\PSoC4/ADC.c ****     ADC_SAR_SAMPLE_TIME23_REG = ADC_DEFAULT_SAMPLE_TIME23_REG_CFG;
 187:Generated_Source\PSoC4/ADC.c ****     
 188:Generated_Source\PSoC4/ADC.c ****     /* Connect Vm to VSSA when even one channel is single-ended or multiple channels configured */
 189:Generated_Source\PSoC4/ADC.c ****     #if(ADC_DEFAULT_MUX_SWITCH0 != 0u)
 190:Generated_Source\PSoC4/ADC.c ****         ADC_MUX_SWITCH0_REG |= ADC_DEFAULT_MUX_SWITCH0;
 191:Generated_Source\PSoC4/ADC.c ****         /* Set MUX_HW_CTRL_VSSA in MUX_SWITCH_HW_CTRL when multiple channels enabled */
 192:Generated_Source\PSoC4/ADC.c ****         #if(ADC_TOTAL_CHANNELS_NUM > 1u)
 193:Generated_Source\PSoC4/ADC.c ****             ADC_MUX_SWITCH_HW_CTRL_REG |= ADC_DEFAULT_MUX_SWITCH0;
 194:Generated_Source\PSoC4/ADC.c ****         #endif /* ADC_TOTAL_CHANNELS_NUM > 1u */
 195:Generated_Source\PSoC4/ADC.c ****     #endif /*ADC_CHANNELS_MODE !=0 */
 196:Generated_Source\PSoC4/ADC.c **** 
 197:Generated_Source\PSoC4/ADC.c ****     ADC_SAR_SATURATE_INTR_MASK_REG = 0u;
 198:Generated_Source\PSoC4/ADC.c ****     ADC_SAR_RANGE_INTR_MASK_REG = 0u;
 199:Generated_Source\PSoC4/ADC.c ****     ADC_SAR_INTR_MASK_REG = ADC_SAR_INTR_MASK;
  67              		.loc 1 199 0 discriminator 4
  68 0026 0124     		movs	r4, #1
 178:Generated_Source\PSoC4/ADC.c ****     ADC_SAR_CTRL_REG |= ADC_DEFAULT_CTRL_REG_CFG | 
  69              		.loc 1 178 0 discriminator 4
  70 0028 334A     		ldr	r2, .L20+20
 200:Generated_Source\PSoC4/ADC.c **** 
 201:Generated_Source\PSoC4/ADC.c ****     #if(ADC_CY_SAR_IP_VER == ADC_CY_SAR_IP_VER0)
 202:Generated_Source\PSoC4/ADC.c ****         ADC_ANA_TRIM_REG = ADC_TRIM_COEF;
 203:Generated_Source\PSoC4/ADC.c ****     #endif /* (ADC_CY_SAR_IP_VER == ADC_CY_SAR_IP_VER0) */
 204:Generated_Source\PSoC4/ADC.c **** 
 205:Generated_Source\PSoC4/ADC.c ****     /* Read and modify default configuration based on characterization */
 206:Generated_Source\PSoC4/ADC.c ****     tmpRegVal = ADC_SAR_DFT_CTRL_REG;
 207:Generated_Source\PSoC4/ADC.c ****     tmpRegVal &= (uint32)~ADC_DCEN;
 208:Generated_Source\PSoC4/ADC.c ****     
 209:Generated_Source\PSoC4/ADC.c ****     #if(ADC_CY_SAR_IP_VER == ADC_CY_SAR_IP_VER0)
 210:Generated_Source\PSoC4/ADC.c ****         #if(ADC_NOMINAL_CLOCK_FREQ > (ADC_MAX_FREQUENCY / 2))
 211:Generated_Source\PSoC4/ADC.c ****             tmpRegVal |= ADC_SEL_CSEL_DFT_CHAR;
 212:Generated_Source\PSoC4/ADC.c ****         #else  /* clock speed < 9 Mhz */
 213:Generated_Source\PSoC4/ADC.c ****             tmpRegVal |= ADC_DLY_INC;
ARM GAS  C:\Users\Greg\AppData\Local\Temp\ccI9W9Nc.s 			page 6


 214:Generated_Source\PSoC4/ADC.c ****         #endif /* clock speed > 9 Mhz */
 215:Generated_Source\PSoC4/ADC.c ****     #else
 216:Generated_Source\PSoC4/ADC.c ****         #if ((ADC_DEFAULT_VREF_SEL == ADC__INTERNAL1024) || \
 217:Generated_Source\PSoC4/ADC.c ****              (ADC_DEFAULT_VREF_SEL == ADC__INTERNALVREF))
 218:Generated_Source\PSoC4/ADC.c ****             tmpRegVal |= ADC_DLY_INC;
 219:Generated_Source\PSoC4/ADC.c ****         #else
 220:Generated_Source\PSoC4/ADC.c ****             tmpRegVal |= ADC_DCEN;
 221:Generated_Source\PSoC4/ADC.c ****             tmpRegVal &= (uint32)~ADC_DLY_INC;
 222:Generated_Source\PSoC4/ADC.c ****         #endif /* ((ADC_DEFAULT_VREF_SEL == ADC__INTERNAL1024) || \
 223:Generated_Source\PSoC4/ADC.c ****                    (ADC_DEFAULT_VREF_SEL == ADC__INTERNALVREF)) */
 224:Generated_Source\PSoC4/ADC.c ****     #endif /* (ADC_CY_SAR_IP_VER == ADC_CY_SAR_IP_VER0) */
 225:Generated_Source\PSoC4/ADC.c ****     
 226:Generated_Source\PSoC4/ADC.c ****     ADC_SAR_DFT_CTRL_REG = tmpRegVal;
 227:Generated_Source\PSoC4/ADC.c **** 
 228:Generated_Source\PSoC4/ADC.c ****     #if(ADC_MAX_RESOLUTION != ADC_RESOLUTION_12)
 229:Generated_Source\PSoC4/ADC.c ****         ADC_WOUNDING_REG = ADC_ALT_WOUNDING;
 230:Generated_Source\PSoC4/ADC.c ****     #endif /* ADC_MAX_RESOLUTION != ADC_RESOLUTION_12 */
 231:Generated_Source\PSoC4/ADC.c **** 
 232:Generated_Source\PSoC4/ADC.c ****     for(chNum = 0u; chNum < ADC_TOTAL_CHANNELS_NUM; chNum++)
 233:Generated_Source\PSoC4/ADC.c ****     {
 234:Generated_Source\PSoC4/ADC.c ****         tmpRegVal = (ADC_channelsConfig[chNum] & ADC_CHANNEL_CONFIG_MASK);
 235:Generated_Source\PSoC4/ADC.c ****         #if(ADC_TOTAL_CHANNELS_NUM > 1u)
 236:Generated_Source\PSoC4/ADC.c ****             tmpRegVal |= ADC_InputsPlacement[chNum];
 237:Generated_Source\PSoC4/ADC.c ****         #endif /* End ADC_TOTAL_CHANNELS_NUM > 1u */
 238:Generated_Source\PSoC4/ADC.c ****         
 239:Generated_Source\PSoC4/ADC.c ****         
 240:Generated_Source\PSoC4/ADC.c ****         /* When the part is limited to 10-bit then the SUB_RESOLUTION bit
 241:Generated_Source\PSoC4/ADC.c ****         *  will be ignored and the RESOLUTION bit selects between 10-bit
 242:Generated_Source\PSoC4/ADC.c ****         *  (0) and 8-bit (1) resolution.
 243:Generated_Source\PSoC4/ADC.c ****         */
 244:Generated_Source\PSoC4/ADC.c ****         #if((ADC_MAX_RESOLUTION != ADC_RESOLUTION_12) && \
 245:Generated_Source\PSoC4/ADC.c ****             (ADC_ALT_WOUNDING == ADC_WOUNDING_10BIT))
 246:Generated_Source\PSoC4/ADC.c ****             tmpRegVal &= (uint32)(~ADC_ALT_RESOLUTION_ON);
 247:Generated_Source\PSoC4/ADC.c ****         #endif /* ADC_MAX_RESOLUTION != ADC_RESOLUTION_12 */
 248:Generated_Source\PSoC4/ADC.c **** 
 249:Generated_Source\PSoC4/ADC.c ****         #if(ADC_INJ_CHANNEL_ENABLED)
 250:Generated_Source\PSoC4/ADC.c ****         if(chNum < ADC_SEQUENCED_CHANNELS_NUM)
 251:Generated_Source\PSoC4/ADC.c ****         #endif /* ADC_INJ_CHANNEL_ENABLED */
 252:Generated_Source\PSoC4/ADC.c ****         {
 253:Generated_Source\PSoC4/ADC.c ****             CY_SET_REG32((reg32 *)(ADC_SAR_CHAN_CONFIG_IND + (uint32)(chNum << 2)), tmpRegVal);
 254:Generated_Source\PSoC4/ADC.c **** 
 255:Generated_Source\PSoC4/ADC.c ****             if((ADC_channelsConfig[chNum] & ADC_IS_SATURATE_EN_MASK) != 0u)
  71              		.loc 1 255 0 discriminator 4
  72 002a A446     		mov	ip, r4
 178:Generated_Source\PSoC4/ADC.c ****         /* Enable the SAR internal pump when global pump is enabled */
  73              		.loc 1 178 0 discriminator 4
  74 002c 1368     		ldr	r3, [r2]
 198:Generated_Source\PSoC4/ADC.c ****     ADC_SAR_INTR_MASK_REG = ADC_SAR_INTR_MASK;
  75              		.loc 1 198 0 discriminator 4
  76 002e 3348     		ldr	r0, .L20+24
 178:Generated_Source\PSoC4/ADC.c ****         /* Enable the SAR internal pump when global pump is enabled */
  77              		.loc 1 178 0 discriminator 4
  78 0030 0B43     		orrs	r3, r1
  79 0032 1360     		str	r3, [r2]
 182:Generated_Source\PSoC4/ADC.c ****     ADC_SAR_RANGE_THRES_REG = ADC_DEFAULT_RANGE_THRES_REG_CFG;
  80              		.loc 1 182 0 discriminator 4
  81 0034 324A     		ldr	r2, .L20+28
ARM GAS  C:\Users\Greg\AppData\Local\Temp\ccI9W9Nc.s 			page 7


  82 0036 334B     		ldr	r3, .L20+32
 185:Generated_Source\PSoC4/ADC.c ****     ADC_SAR_SAMPLE_TIME23_REG = ADC_DEFAULT_SAMPLE_TIME23_REG_CFG;
  83              		.loc 1 185 0 discriminator 4
  84 0038 3349     		ldr	r1, .L20+36
 182:Generated_Source\PSoC4/ADC.c ****     ADC_SAR_RANGE_THRES_REG = ADC_DEFAULT_RANGE_THRES_REG_CFG;
  85              		.loc 1 182 0 discriminator 4
  86 003a 1A60     		str	r2, [r3]
 183:Generated_Source\PSoC4/ADC.c ****     ADC_SAR_RANGE_COND_REG  = ADC_COMPARE_MODE;
  87              		.loc 1 183 0 discriminator 4
  88 003c 334A     		ldr	r2, .L20+40
  89 003e 344B     		ldr	r3, .L20+44
 206:Generated_Source\PSoC4/ADC.c ****     tmpRegVal &= (uint32)~ADC_DCEN;
  90              		.loc 1 206 0 discriminator 4
  91 0040 344D     		ldr	r5, .L20+48
 183:Generated_Source\PSoC4/ADC.c ****     ADC_SAR_RANGE_COND_REG  = ADC_COMPARE_MODE;
  92              		.loc 1 183 0 discriminator 4
  93 0042 1A60     		str	r2, [r3]
 184:Generated_Source\PSoC4/ADC.c ****     ADC_SAR_SAMPLE_TIME01_REG = ADC_DEFAULT_SAMPLE_TIME01_REG_CFG;
  94              		.loc 1 184 0 discriminator 4
  95 0044 0023     		movs	r3, #0
  96 0046 344A     		ldr	r2, .L20+52
  97 0048 1360     		str	r3, [r2]
 185:Generated_Source\PSoC4/ADC.c ****     ADC_SAR_SAMPLE_TIME23_REG = ADC_DEFAULT_SAMPLE_TIME23_REG_CFG;
  98              		.loc 1 185 0 discriminator 4
  99 004a 344A     		ldr	r2, .L20+56
 100 004c 0A60     		str	r2, [r1]
 186:Generated_Source\PSoC4/ADC.c ****     
 101              		.loc 1 186 0 discriminator 4
 102 004e 3449     		ldr	r1, .L20+60
 103 0050 0A60     		str	r2, [r1]
 197:Generated_Source\PSoC4/ADC.c ****     ADC_SAR_RANGE_INTR_MASK_REG = 0u;
 104              		.loc 1 197 0 discriminator 4
 105 0052 3449     		ldr	r1, .L20+64
 199:Generated_Source\PSoC4/ADC.c **** 
 106              		.loc 1 199 0 discriminator 4
 107 0054 344A     		ldr	r2, .L20+68
 197:Generated_Source\PSoC4/ADC.c ****     ADC_SAR_RANGE_INTR_MASK_REG = 0u;
 108              		.loc 1 197 0 discriminator 4
 109 0056 0B60     		str	r3, [r1]
 198:Generated_Source\PSoC4/ADC.c ****     ADC_SAR_INTR_MASK_REG = ADC_SAR_INTR_MASK;
 110              		.loc 1 198 0 discriminator 4
 111 0058 0360     		str	r3, [r0]
 199:Generated_Source\PSoC4/ADC.c **** 
 112              		.loc 1 199 0 discriminator 4
 113 005a 1460     		str	r4, [r2]
 206:Generated_Source\PSoC4/ADC.c ****     tmpRegVal &= (uint32)~ADC_DCEN;
 114              		.loc 1 206 0 discriminator 4
 115 005c 2E68     		ldr	r6, [r5]
 116              	.LVL2:
 207:Generated_Source\PSoC4/ADC.c ****     
 117              		.loc 1 207 0 discriminator 4
 118 005e 334A     		ldr	r2, .L20+72
 119 0060 3240     		ands	r2, r6
 120              	.LVL3:
 218:Generated_Source\PSoC4/ADC.c ****         #else
 121              		.loc 1 218 0 discriminator 4
 122 0062 2243     		orrs	r2, r4
ARM GAS  C:\Users\Greg\AppData\Local\Temp\ccI9W9Nc.s 			page 8


 123              	.LVL4:
 226:Generated_Source\PSoC4/ADC.c **** 
 124              		.loc 1 226 0 discriminator 4
 125 0064 2A60     		str	r2, [r5]
 126              	.LVL5:
 127 0066 0191     		str	r1, [sp, #4]
 128              	.LVL6:
 129              	.L8:
 234:Generated_Source\PSoC4/ADC.c ****         #if(ADC_TOTAL_CHANNELS_NUM > 1u)
 130              		.loc 1 234 0
 131 0068 314C     		ldr	r4, .L20+76
 132 006a DC27     		movs	r7, #220
 236:Generated_Source\PSoC4/ADC.c ****         #endif /* End ADC_TOTAL_CHANNELS_NUM > 1u */
 133              		.loc 1 236 0
 134 006c 2500     		movs	r5, r4
 135 006e 9A00     		lsls	r2, r3, #2
 234:Generated_Source\PSoC4/ADC.c ****         #if(ADC_TOTAL_CHANNELS_NUM > 1u)
 136              		.loc 1 234 0
 137 0070 1659     		ldr	r6, [r2, r4]
 236:Generated_Source\PSoC4/ADC.c ****         #endif /* End ADC_TOTAL_CHANNELS_NUM > 1u */
 138              		.loc 1 236 0
 139 0072 0C35     		adds	r5, r5, #12
 234:Generated_Source\PSoC4/ADC.c ****         #if(ADC_TOTAL_CHANNELS_NUM > 1u)
 140              		.loc 1 234 0
 141 0074 BF01     		lsls	r7, r7, #6
 236:Generated_Source\PSoC4/ADC.c ****         #endif /* End ADC_TOTAL_CHANNELS_NUM > 1u */
 142              		.loc 1 236 0
 143 0076 5D5D     		ldrb	r5, [r3, r5]
 234:Generated_Source\PSoC4/ADC.c ****         #if(ADC_TOTAL_CHANNELS_NUM > 1u)
 144              		.loc 1 234 0
 145 0078 3740     		ands	r7, r6
 146              	.LVL7:
 236:Generated_Source\PSoC4/ADC.c ****         #endif /* End ADC_TOTAL_CHANNELS_NUM > 1u */
 147              		.loc 1 236 0
 148 007a 3D43     		orrs	r5, r7
 149              	.LVL8:
 253:Generated_Source\PSoC4/ADC.c **** 
 150              		.loc 1 253 0
 151 007c 2D4F     		ldr	r7, .L20+80
 152 007e D719     		adds	r7, r2, r7
 153 0080 3D60     		str	r5, [r7]
 154              		.loc 1 255 0
 155 0082 6546     		mov	r5, ip
 156              	.LVL9:
 157 0084 2E42     		tst	r6, r5
 158 0086 05D0     		beq	.L3
 256:Generated_Source\PSoC4/ADC.c ****             {
 257:Generated_Source\PSoC4/ADC.c ****                 ADC_SAR_SATURATE_INTR_MASK_REG |= (uint16)((uint16)1 << chNum);
 159              		.loc 1 257 0
 160 0088 6646     		mov	r6, ip
 161 008a 9E40     		lsls	r6, r6, r3
 162 008c 0199     		ldr	r1, [sp, #4]
 163 008e 0D68     		ldr	r5, [r1]
 164 0090 3543     		orrs	r5, r6
 165 0092 0D60     		str	r5, [r1]
 166              	.LVL10:
 167              	.L3:
ARM GAS  C:\Users\Greg\AppData\Local\Temp\ccI9W9Nc.s 			page 9


 258:Generated_Source\PSoC4/ADC.c ****             }
 259:Generated_Source\PSoC4/ADC.c **** 
 260:Generated_Source\PSoC4/ADC.c ****             if((ADC_channelsConfig[chNum] & ADC_IS_RANGE_CTRL_EN_MASK) != 0u)
 168              		.loc 1 260 0
 169 0094 0226     		movs	r6, #2
 170 0096 A558     		ldr	r5, [r4, r2]
 171 0098 3542     		tst	r5, r6
 172 009a 04D0     		beq	.L4
 261:Generated_Source\PSoC4/ADC.c ****             {
 262:Generated_Source\PSoC4/ADC.c ****                 ADC_SAR_RANGE_INTR_MASK_REG |= (uint16)((uint16)1 << chNum);
 173              		.loc 1 262 0
 174 009c 6646     		mov	r6, ip
 175 009e 9E40     		lsls	r6, r6, r3
 176 00a0 0568     		ldr	r5, [r0]
 177 00a2 3543     		orrs	r5, r6
 178 00a4 0560     		str	r5, [r0]
 179              	.L4:
 263:Generated_Source\PSoC4/ADC.c ****             }
 264:Generated_Source\PSoC4/ADC.c ****         }
 265:Generated_Source\PSoC4/ADC.c ****         #if(ADC_INJ_CHANNEL_ENABLED)
 266:Generated_Source\PSoC4/ADC.c ****             else
 267:Generated_Source\PSoC4/ADC.c ****             {
 268:Generated_Source\PSoC4/ADC.c ****                 CY_SET_REG32(ADC_SAR_INJ_CHAN_CONFIG_PTR, tmpRegVal | ADC_INJ_TAILGATING);
 269:Generated_Source\PSoC4/ADC.c **** 
 270:Generated_Source\PSoC4/ADC.c ****                 if((ADC_channelsConfig[chNum] & ADC_IS_SATURATE_EN_MASK) != 0u)
 271:Generated_Source\PSoC4/ADC.c ****                 {
 272:Generated_Source\PSoC4/ADC.c ****                     ADC_SAR_INTR_MASK_REG |= ADC_INJ_SATURATE_MASK;
 273:Generated_Source\PSoC4/ADC.c ****                 }
 274:Generated_Source\PSoC4/ADC.c **** 
 275:Generated_Source\PSoC4/ADC.c ****                 if((ADC_channelsConfig[chNum] & ADC_IS_RANGE_CTRL_EN_MASK) != 0u)
 276:Generated_Source\PSoC4/ADC.c ****                 {
 277:Generated_Source\PSoC4/ADC.c ****                     ADC_SAR_INTR_MASK_REG |= ADC_INJ_RANGE_MASK;
 278:Generated_Source\PSoC4/ADC.c ****                 }
 279:Generated_Source\PSoC4/ADC.c ****             }
 280:Generated_Source\PSoC4/ADC.c ****         #endif /* ADC_INJ_CHANNEL_ENABLED */
 281:Generated_Source\PSoC4/ADC.c **** 
 282:Generated_Source\PSoC4/ADC.c ****         if((ADC_channelsConfig[chNum] & ADC_ALT_RESOLUTION_ON) != 0u)
 180              		.loc 1 282 0
 181 00a6 A458     		ldr	r4, [r4, r2]
 182              	.LVL11:
 183 00a8 8027     		movs	r7, #128
 184 00aa 8026     		movs	r6, #128
 185 00ac 2100     		movs	r1, r4
 186 00ae 7F00     		lsls	r7, r7, #1
 187 00b0 B600     		lsls	r6, r6, #2
 283:Generated_Source\PSoC4/ADC.c ****         {
 284:Generated_Source\PSoC4/ADC.c ****                counts = (int32)ADC_DEFAULT_MAX_WRK_ALT;
 188              		.loc 1 284 0
 189 00b2 3C00     		movs	r4, r7
 282:Generated_Source\PSoC4/ADC.c ****         {
 190              		.loc 1 282 0
 191 00b4 3142     		tst	r1, r6
 192 00b6 01D1     		bne	.L5
 285:Generated_Source\PSoC4/ADC.c ****         }
 286:Generated_Source\PSoC4/ADC.c ****         else
 287:Generated_Source\PSoC4/ADC.c ****         {
 288:Generated_Source\PSoC4/ADC.c ****                counts = (int32)ADC_SAR_WRK_MAX_12BIT;
ARM GAS  C:\Users\Greg\AppData\Local\Temp\ccI9W9Nc.s 			page 10


 193              		.loc 1 288 0
 194 00b8 8024     		movs	r4, #128
 195 00ba 6401     		lsls	r4, r4, #5
 196              	.L5:
 197              	.LVL12:
 198 00bc 1E4E     		ldr	r6, .L20+84
 199 00be 5D00     		lsls	r5, r3, #1
 289:Generated_Source\PSoC4/ADC.c ****         }
 290:Generated_Source\PSoC4/ADC.c **** 
 291:Generated_Source\PSoC4/ADC.c ****         if((ADC_channelsConfig[chNum] & ADC_DIFFERENTIAL_EN) == 0u)
 200              		.loc 1 291 0
 201 00c0 3942     		tst	r1, r7
 202 00c2 03D1     		bne	.L6
 292:Generated_Source\PSoC4/ADC.c ****         {
 293:Generated_Source\PSoC4/ADC.c ****             #if((ADC_DEFAULT_SE_RESULT_FORMAT_SEL == ADC__FSIGNED) && \
 294:Generated_Source\PSoC4/ADC.c ****                 (ADC_DEFAULT_NEG_INPUT_SEL == ADC__VREF))
 295:Generated_Source\PSoC4/ADC.c ****                 /* Set offset to the minus half scale to convert results to unsigned format */
 296:Generated_Source\PSoC4/ADC.c ****                 ADC_offset[chNum] = (int16)(counts / -2);
 203              		.loc 1 296 0
 204 00c4 6708     		lsrs	r7, r4, #1
 205 00c6 7F42     		rsbs	r7, r7, #0
 206 00c8 3FB2     		sxth	r7, r7
 207 00ca 00E0     		b	.L18
 208              	.L6:
 297:Generated_Source\PSoC4/ADC.c ****             #else
 298:Generated_Source\PSoC4/ADC.c ****                 ADC_offset[chNum] = 0;
 299:Generated_Source\PSoC4/ADC.c ****             #endif /* end DEFAULT_SE_RESULT_FORMAT_SEL == ADC__FSIGNED */
 300:Generated_Source\PSoC4/ADC.c ****         }
 301:Generated_Source\PSoC4/ADC.c ****         else    /* Differential channel */
 302:Generated_Source\PSoC4/ADC.c ****         {
 303:Generated_Source\PSoC4/ADC.c ****             #if(ADC_DEFAULT_DIFF_RESULT_FORMAT_SEL == ADC__FUNSIGNED)
 304:Generated_Source\PSoC4/ADC.c ****                 /* Set offset to the half scale to convert results to signed format */
 305:Generated_Source\PSoC4/ADC.c ****                 ADC_offset[chNum] = (int16)(counts / 2);
 306:Generated_Source\PSoC4/ADC.c ****             #else
 307:Generated_Source\PSoC4/ADC.c ****                 ADC_offset[chNum] = 0;
 209              		.loc 1 307 0
 210 00cc 0027     		movs	r7, #0
 211              	.L18:
 212 00ce 7753     		strh	r7, [r6, r5]
 308:Generated_Source\PSoC4/ADC.c ****             #endif /* end ADC_DEFAULT_DIFF_RESULT_FORMAT_SEL == ADC__FUNSIGNED */
 309:Generated_Source\PSoC4/ADC.c ****         }
 310:Generated_Source\PSoC4/ADC.c ****         /* Calculate gain in counts per 10 volts with rounding */
 311:Generated_Source\PSoC4/ADC.c ****         ADC_countsPer10Volt[chNum] = (int16)(((counts * ADC_10MV_COUNTS) +
 312:Generated_Source\PSoC4/ADC.c ****                             ADC_DEFAULT_VREF_MV_VALUE) / (ADC_DEFAULT_VREF_MV_VALUE * 2));
 213              		.loc 1 312 0
 214 00d0 1A4D     		ldr	r5, .L20+88
 232:Generated_Source\PSoC4/ADC.c ****     {
 215              		.loc 1 232 0
 216 00d2 0133     		adds	r3, r3, #1
 217              	.LVL13:
 218              		.loc 1 312 0
 219 00d4 6C43     		muls	r4, r5
 220              	.LVL14:
 311:Generated_Source\PSoC4/ADC.c ****                             ADC_DEFAULT_VREF_MV_VALUE) / (ADC_DEFAULT_VREF_MV_VALUE * 2));
 221              		.loc 1 311 0
 222 00d6 1A4D     		ldr	r5, .L20+92
 223              		.loc 1 312 0
ARM GAS  C:\Users\Greg\AppData\Local\Temp\ccI9W9Nc.s 			page 11


 224 00d8 E412     		asrs	r4, r4, #11
 311:Generated_Source\PSoC4/ADC.c ****                             ADC_DEFAULT_VREF_MV_VALUE) / (ADC_DEFAULT_VREF_MV_VALUE * 2));
 225              		.loc 1 311 0
 226 00da AC50     		str	r4, [r5, r2]
 232:Generated_Source\PSoC4/ADC.c ****     {
 227              		.loc 1 232 0
 228 00dc 032B     		cmp	r3, #3
 229 00de C3D1     		bne	.L8
 313:Generated_Source\PSoC4/ADC.c ****     }
 314:Generated_Source\PSoC4/ADC.c **** }
 230              		.loc 1 314 0
 231              		@ sp needed
 232 00e0 F7BD     		pop	{r0, r1, r2, r4, r5, r6, r7, pc}
 233              	.L21:
 234 00e2 C046     		.align	2
 235              	.L20:
 236 00e4 00000000 		.word	ADC_ISR
 237 00e8 20003A40 		.word	1077542944
 238 00ec 80033A40 		.word	1077543808
 239 00f0 402E0013 		.word	318778944
 240 00f4 402E1013 		.word	319827520
 241 00f8 00003A40 		.word	1077542912
 242 00fc 38023A40 		.word	1077543480
 243 0100 FC000080 		.word	-2147483396
 244 0104 04003A40 		.word	1077542916
 245 0108 10003A40 		.word	1077542928
 246 010c 0000FF07 		.word	134152192
 247 0110 18003A40 		.word	1077542936
 248 0114 30003A40 		.word	1077542960
 249 0118 1C003A40 		.word	1077542940
 250 011c 02000200 		.word	131074
 251 0120 14003A40 		.word	1077542932
 252 0124 28023A40 		.word	1077543464
 253 0128 18023A40 		.word	1077543448
 254 012c FFFFFFDF 		.word	-536870913
 255 0130 00000000 		.word	.LANCHOR0
 256 0134 80003A40 		.word	1077543040
 257 0138 00000000 		.word	ADC_offset
 258 013c 10270000 		.word	10000
 259 0140 00000000 		.word	ADC_countsPer10Volt
 260              		.cfi_endproc
 261              	.LFE2:
 262              		.size	ADC_Init, .-ADC_Init
 263              		.section	.text.ADC_Enable,"ax",%progbits
 264              		.align	1
 265              		.global	ADC_Enable
 266              		.code	16
 267              		.thumb_func
 268              		.type	ADC_Enable, %function
 269              	ADC_Enable:
 270              	.LFB3:
 315:Generated_Source\PSoC4/ADC.c **** 
 316:Generated_Source\PSoC4/ADC.c **** /*******************************************************************************
 317:Generated_Source\PSoC4/ADC.c **** * Function Name: ADC_SAR_1_Enable
 318:Generated_Source\PSoC4/ADC.c **** ********************************************************************************
 319:Generated_Source\PSoC4/ADC.c **** *
 320:Generated_Source\PSoC4/ADC.c **** * Summary:
ARM GAS  C:\Users\Greg\AppData\Local\Temp\ccI9W9Nc.s 			page 12


 321:Generated_Source\PSoC4/ADC.c **** *  Enables the clock and analog power for SAR ADC.
 322:Generated_Source\PSoC4/ADC.c **** *
 323:Generated_Source\PSoC4/ADC.c **** * Parameters:
 324:Generated_Source\PSoC4/ADC.c **** *  None.
 325:Generated_Source\PSoC4/ADC.c **** *
 326:Generated_Source\PSoC4/ADC.c **** * Return:
 327:Generated_Source\PSoC4/ADC.c **** *  None.
 328:Generated_Source\PSoC4/ADC.c **** *
 329:Generated_Source\PSoC4/ADC.c **** *******************************************************************************/
 330:Generated_Source\PSoC4/ADC.c **** void ADC_Enable(void)
 331:Generated_Source\PSoC4/ADC.c **** {
 271              		.loc 1 331 0
 272              		.cfi_startproc
 273              		@ args = 0, pretend = 0, frame = 0
 274              		@ frame_needed = 0, uses_anonymous_args = 0
 332:Generated_Source\PSoC4/ADC.c ****     if (0u == (ADC_SAR_CTRL_REG & ADC_ENABLE))
 275              		.loc 1 332 0
 276 0000 084B     		ldr	r3, .L27
 331:Generated_Source\PSoC4/ADC.c ****     if (0u == (ADC_SAR_CTRL_REG & ADC_ENABLE))
 277              		.loc 1 331 0
 278 0002 10B5     		push	{r4, lr}
 279              		.cfi_def_cfa_offset 8
 280              		.cfi_offset 4, -8
 281              		.cfi_offset 14, -4
 282              		.loc 1 332 0
 283 0004 1A68     		ldr	r2, [r3]
 284 0006 002A     		cmp	r2, #0
 285 0008 0BDB     		blt	.L22
 286              	.LBB4:
 287              	.LBB5:
 333:Generated_Source\PSoC4/ADC.c ****     {
 334:Generated_Source\PSoC4/ADC.c ****         #if(ADC_CY_SAR_IP_VER != ADC_CY_SAR_IP_VER0)
 335:Generated_Source\PSoC4/ADC.c **** 
 336:Generated_Source\PSoC4/ADC.c ****             while (0u != (ADC_SAR_STATUS_REG & ADC_STATUS_BUSY))
 288              		.loc 1 336 0
 289 000a 0749     		ldr	r1, .L27+4
 290              	.L25:
 291 000c 0A68     		ldr	r2, [r1]
 292 000e 002A     		cmp	r2, #0
 293 0010 FCDB     		blt	.L25
 337:Generated_Source\PSoC4/ADC.c ****             {
 338:Generated_Source\PSoC4/ADC.c ****                 /* wait for SAR to go idle to avoid deadlock */
 339:Generated_Source\PSoC4/ADC.c ****             }
 340:Generated_Source\PSoC4/ADC.c ****         #endif /* (ADC_CY_SAR_IP_VER != ADC_CY_SAR_IP_VER0) */
 341:Generated_Source\PSoC4/ADC.c ****         
 342:Generated_Source\PSoC4/ADC.c ****         ADC_SAR_CTRL_REG |= ADC_ENABLE;
 294              		.loc 1 342 0
 295 0012 8021     		movs	r1, #128
 296 0014 1A68     		ldr	r2, [r3]
 297 0016 0906     		lsls	r1, r1, #24
 298 0018 0A43     		orrs	r2, r1
 299 001a 1A60     		str	r2, [r3]
 343:Generated_Source\PSoC4/ADC.c ****         
 344:Generated_Source\PSoC4/ADC.c ****         /* The block is ready to use 10 us after the enable signal is set high. */
 345:Generated_Source\PSoC4/ADC.c ****         CyDelayUs(ADC_10US_DELAY);         
 300              		.loc 1 345 0
 301 001c 0A20     		movs	r0, #10
ARM GAS  C:\Users\Greg\AppData\Local\Temp\ccI9W9Nc.s 			page 13


 302 001e FFF7FEFF 		bl	CyDelayUs
 303              	.LVL15:
 304              	.L22:
 305              	.LBE5:
 306              	.LBE4:
 346:Generated_Source\PSoC4/ADC.c ****     }
 347:Generated_Source\PSoC4/ADC.c **** }
 307              		.loc 1 347 0
 308              		@ sp needed
 309 0022 10BD     		pop	{r4, pc}
 310              	.L28:
 311              		.align	2
 312              	.L27:
 313 0024 00003A40 		.word	1077542912
 314 0028 08023A40 		.word	1077543432
 315              		.cfi_endproc
 316              	.LFE3:
 317              		.size	ADC_Enable, .-ADC_Enable
 318              		.section	.text.ADC_Start,"ax",%progbits
 319              		.align	1
 320              		.global	ADC_Start
 321              		.code	16
 322              		.thumb_func
 323              		.type	ADC_Start, %function
 324              	ADC_Start:
 325              	.LFB1:
  64:Generated_Source\PSoC4/ADC.c ****     /* If not Initialized then initialize all required hardware and software */
 326              		.loc 1 64 0
 327              		.cfi_startproc
 328              		@ args = 0, pretend = 0, frame = 0
 329              		@ frame_needed = 0, uses_anonymous_args = 0
 330 0000 10B5     		push	{r4, lr}
 331              		.cfi_def_cfa_offset 8
 332              		.cfi_offset 4, -8
 333              		.cfi_offset 14, -4
  66:Generated_Source\PSoC4/ADC.c ****     {
 334              		.loc 1 66 0
 335 0002 054C     		ldr	r4, .L31
 336 0004 2378     		ldrb	r3, [r4]
 337 0006 002B     		cmp	r3, #0
 338 0008 03D1     		bne	.L30
  68:Generated_Source\PSoC4/ADC.c ****         ADC_initVar = 1u;
 339              		.loc 1 68 0
 340 000a FFF7FEFF 		bl	ADC_Init
 341              	.LVL16:
  69:Generated_Source\PSoC4/ADC.c ****     }
 342              		.loc 1 69 0
 343 000e 0123     		movs	r3, #1
 344 0010 2370     		strb	r3, [r4]
 345              	.L30:
  71:Generated_Source\PSoC4/ADC.c **** }
 346              		.loc 1 71 0
 347 0012 FFF7FEFF 		bl	ADC_Enable
 348              	.LVL17:
  72:Generated_Source\PSoC4/ADC.c **** 
 349              		.loc 1 72 0
 350              		@ sp needed
ARM GAS  C:\Users\Greg\AppData\Local\Temp\ccI9W9Nc.s 			page 14


 351 0016 10BD     		pop	{r4, pc}
 352              	.L32:
 353              		.align	2
 354              	.L31:
 355 0018 00000000 		.word	.LANCHOR1
 356              		.cfi_endproc
 357              	.LFE1:
 358              		.size	ADC_Start, .-ADC_Start
 359              		.section	.text.ADC_Stop,"ax",%progbits
 360              		.align	1
 361              		.global	ADC_Stop
 362              		.code	16
 363              		.thumb_func
 364              		.type	ADC_Stop, %function
 365              	ADC_Stop:
 366              	.LFB4:
 348:Generated_Source\PSoC4/ADC.c **** 
 349:Generated_Source\PSoC4/ADC.c **** 
 350:Generated_Source\PSoC4/ADC.c **** /*******************************************************************************
 351:Generated_Source\PSoC4/ADC.c **** * Function Name: ADC_Stop
 352:Generated_Source\PSoC4/ADC.c **** ********************************************************************************
 353:Generated_Source\PSoC4/ADC.c **** *
 354:Generated_Source\PSoC4/ADC.c **** * Summary:
 355:Generated_Source\PSoC4/ADC.c **** *  This function stops ADC conversions and puts the ADC into its lowest power
 356:Generated_Source\PSoC4/ADC.c **** *  mode.
 357:Generated_Source\PSoC4/ADC.c **** *
 358:Generated_Source\PSoC4/ADC.c **** * Parameters:
 359:Generated_Source\PSoC4/ADC.c **** *  None.
 360:Generated_Source\PSoC4/ADC.c **** *
 361:Generated_Source\PSoC4/ADC.c **** * Return:
 362:Generated_Source\PSoC4/ADC.c **** *  None.
 363:Generated_Source\PSoC4/ADC.c **** *
 364:Generated_Source\PSoC4/ADC.c **** *******************************************************************************/
 365:Generated_Source\PSoC4/ADC.c **** void ADC_Stop(void)
 366:Generated_Source\PSoC4/ADC.c **** {
 367              		.loc 1 366 0
 368              		.cfi_startproc
 369              		@ args = 0, pretend = 0, frame = 0
 370              		@ frame_needed = 0, uses_anonymous_args = 0
 371              		@ link register save eliminated.
 367:Generated_Source\PSoC4/ADC.c ****     ADC_SAR_CTRL_REG &= (uint32)~ADC_ENABLE;
 372              		.loc 1 367 0
 373 0000 024A     		ldr	r2, .L34
 368:Generated_Source\PSoC4/ADC.c **** }
 374              		.loc 1 368 0
 375              		@ sp needed
 367:Generated_Source\PSoC4/ADC.c ****     ADC_SAR_CTRL_REG &= (uint32)~ADC_ENABLE;
 376              		.loc 1 367 0
 377 0002 1368     		ldr	r3, [r2]
 378 0004 5B00     		lsls	r3, r3, #1
 379 0006 5B08     		lsrs	r3, r3, #1
 380 0008 1360     		str	r3, [r2]
 381              		.loc 1 368 0
 382 000a 7047     		bx	lr
 383              	.L35:
 384              		.align	2
 385              	.L34:
ARM GAS  C:\Users\Greg\AppData\Local\Temp\ccI9W9Nc.s 			page 15


 386 000c 00003A40 		.word	1077542912
 387              		.cfi_endproc
 388              	.LFE4:
 389              		.size	ADC_Stop, .-ADC_Stop
 390              		.section	.text.ADC_StartConvert,"ax",%progbits
 391              		.align	1
 392              		.global	ADC_StartConvert
 393              		.code	16
 394              		.thumb_func
 395              		.type	ADC_StartConvert, %function
 396              	ADC_StartConvert:
 397              	.LFB5:
 369:Generated_Source\PSoC4/ADC.c **** 
 370:Generated_Source\PSoC4/ADC.c **** 
 371:Generated_Source\PSoC4/ADC.c **** /*******************************************************************************
 372:Generated_Source\PSoC4/ADC.c **** * Function Name: ADC_StartConvert
 373:Generated_Source\PSoC4/ADC.c **** ********************************************************************************
 374:Generated_Source\PSoC4/ADC.c **** *
 375:Generated_Source\PSoC4/ADC.c **** * Summary:
 376:Generated_Source\PSoC4/ADC.c **** *  Description:
 377:Generated_Source\PSoC4/ADC.c **** *  For free running mode, this API starts the conversion process and it
 378:Generated_Source\PSoC4/ADC.c **** *  runs continuously.
 379:Generated_Source\PSoC4/ADC.c **** *
 380:Generated_Source\PSoC4/ADC.c **** *  In a triggered mode, this routine triggers every conversion by
 381:Generated_Source\PSoC4/ADC.c **** *  writing into the FW_TRIGGER bit in SAR_START_CTRL reg. In triggered mode,
 382:Generated_Source\PSoC4/ADC.c **** *  every conversion has to start by this API.
 383:Generated_Source\PSoC4/ADC.c **** *
 384:Generated_Source\PSoC4/ADC.c **** * Parameters:
 385:Generated_Source\PSoC4/ADC.c **** *  None.
 386:Generated_Source\PSoC4/ADC.c **** *
 387:Generated_Source\PSoC4/ADC.c **** * Return:
 388:Generated_Source\PSoC4/ADC.c **** *  None.
 389:Generated_Source\PSoC4/ADC.c **** *
 390:Generated_Source\PSoC4/ADC.c **** *******************************************************************************/
 391:Generated_Source\PSoC4/ADC.c **** void ADC_StartConvert(void)
 392:Generated_Source\PSoC4/ADC.c **** {
 398              		.loc 1 392 0
 399              		.cfi_startproc
 400              		@ args = 0, pretend = 0, frame = 0
 401              		@ frame_needed = 0, uses_anonymous_args = 0
 402              		@ link register save eliminated.
 393:Generated_Source\PSoC4/ADC.c ****     #if(ADC_DEFAULT_SAMPLE_MODE_SEL == ADC__FREERUNNING)
 394:Generated_Source\PSoC4/ADC.c ****         ADC_SAR_SAMPLE_CTRL_REG |= ADC_CONTINUOUS_EN;
 403              		.loc 1 394 0
 404 0000 8021     		movs	r1, #128
 405 0002 034A     		ldr	r2, .L37
 406 0004 4902     		lsls	r1, r1, #9
 407 0006 1368     		ldr	r3, [r2]
 395:Generated_Source\PSoC4/ADC.c ****     #else /* Firmware trigger */
 396:Generated_Source\PSoC4/ADC.c ****         ADC_SAR_START_CTRL_REG = ADC_FW_TRIGGER;
 397:Generated_Source\PSoC4/ADC.c ****     #endif /* End ADC_DEFAULT_SAMPLE_MODE == ADC__FREERUNNING */
 398:Generated_Source\PSoC4/ADC.c **** 
 399:Generated_Source\PSoC4/ADC.c **** }
 408              		.loc 1 399 0
 409              		@ sp needed
 394:Generated_Source\PSoC4/ADC.c ****     #else /* Firmware trigger */
 410              		.loc 1 394 0
ARM GAS  C:\Users\Greg\AppData\Local\Temp\ccI9W9Nc.s 			page 16


 411 0008 0B43     		orrs	r3, r1
 412 000a 1360     		str	r3, [r2]
 413              		.loc 1 399 0
 414 000c 7047     		bx	lr
 415              	.L38:
 416 000e C046     		.align	2
 417              	.L37:
 418 0010 04003A40 		.word	1077542916
 419              		.cfi_endproc
 420              	.LFE5:
 421              		.size	ADC_StartConvert, .-ADC_StartConvert
 422              		.section	.text.ADC_StopConvert,"ax",%progbits
 423              		.align	1
 424              		.global	ADC_StopConvert
 425              		.code	16
 426              		.thumb_func
 427              		.type	ADC_StopConvert, %function
 428              	ADC_StopConvert:
 429              	.LFB6:
 400:Generated_Source\PSoC4/ADC.c **** 
 401:Generated_Source\PSoC4/ADC.c **** 
 402:Generated_Source\PSoC4/ADC.c **** /*******************************************************************************
 403:Generated_Source\PSoC4/ADC.c **** * Function Name: ADC_StopConvert
 404:Generated_Source\PSoC4/ADC.c **** ********************************************************************************
 405:Generated_Source\PSoC4/ADC.c **** *
 406:Generated_Source\PSoC4/ADC.c **** * Summary:
 407:Generated_Source\PSoC4/ADC.c **** *  Forces the ADC to stop all conversions.
 408:Generated_Source\PSoC4/ADC.c **** *
 409:Generated_Source\PSoC4/ADC.c **** * Parameters:
 410:Generated_Source\PSoC4/ADC.c **** *  None.
 411:Generated_Source\PSoC4/ADC.c **** *
 412:Generated_Source\PSoC4/ADC.c **** * Return:
 413:Generated_Source\PSoC4/ADC.c **** *  None.
 414:Generated_Source\PSoC4/ADC.c **** *
 415:Generated_Source\PSoC4/ADC.c **** *******************************************************************************/
 416:Generated_Source\PSoC4/ADC.c **** void ADC_StopConvert(void)
 417:Generated_Source\PSoC4/ADC.c **** {
 430              		.loc 1 417 0
 431              		.cfi_startproc
 432              		@ args = 0, pretend = 0, frame = 0
 433              		@ frame_needed = 0, uses_anonymous_args = 0
 434              		@ link register save eliminated.
 418:Generated_Source\PSoC4/ADC.c ****     #if(ADC_DEFAULT_SAMPLE_MODE_SEL == ADC__FREERUNNING)
 419:Generated_Source\PSoC4/ADC.c ****         ADC_SAR_SAMPLE_CTRL_REG &= (uint32)(~ADC_CONTINUOUS_EN);
 435              		.loc 1 419 0
 436 0000 024A     		ldr	r2, .L40
 437 0002 034B     		ldr	r3, .L40+4
 438 0004 1168     		ldr	r1, [r2]
 420:Generated_Source\PSoC4/ADC.c ****     #endif /* ADC_DEFAULT_SAMPLE_MODE == ADC__FREERUNNING */
 421:Generated_Source\PSoC4/ADC.c **** }
 439              		.loc 1 421 0
 440              		@ sp needed
 419:Generated_Source\PSoC4/ADC.c ****     #endif /* ADC_DEFAULT_SAMPLE_MODE == ADC__FREERUNNING */
 441              		.loc 1 419 0
 442 0006 0B40     		ands	r3, r1
 443 0008 1360     		str	r3, [r2]
 444              		.loc 1 421 0
ARM GAS  C:\Users\Greg\AppData\Local\Temp\ccI9W9Nc.s 			page 17


 445 000a 7047     		bx	lr
 446              	.L41:
 447              		.align	2
 448              	.L40:
 449 000c 04003A40 		.word	1077542916
 450 0010 FFFFFEFF 		.word	-65537
 451              		.cfi_endproc
 452              	.LFE6:
 453              		.size	ADC_StopConvert, .-ADC_StopConvert
 454              		.section	.text.ADC_IsEndConversion,"ax",%progbits
 455              		.align	1
 456              		.global	ADC_IsEndConversion
 457              		.code	16
 458              		.thumb_func
 459              		.type	ADC_IsEndConversion, %function
 460              	ADC_IsEndConversion:
 461              	.LFB7:
 422:Generated_Source\PSoC4/ADC.c **** 
 423:Generated_Source\PSoC4/ADC.c **** 
 424:Generated_Source\PSoC4/ADC.c **** /*******************************************************************************
 425:Generated_Source\PSoC4/ADC.c **** * Function Name: ADC_IsEndConversion
 426:Generated_Source\PSoC4/ADC.c **** ********************************************************************************
 427:Generated_Source\PSoC4/ADC.c **** *
 428:Generated_Source\PSoC4/ADC.c **** * Summary:
 429:Generated_Source\PSoC4/ADC.c **** *  Description: Checks for ADC end of conversion for the case one
 430:Generated_Source\PSoC4/ADC.c **** *  channel and end of scan for the case of multiple channels. It acts
 431:Generated_Source\PSoC4/ADC.c **** *  as a software version of the EOC. This function provides the
 432:Generated_Source\PSoC4/ADC.c **** *  programmer with two options. In one mode this function
 433:Generated_Source\PSoC4/ADC.c **** *  immediately returns with the conversion status. In the other mode,
 434:Generated_Source\PSoC4/ADC.c **** *  the function does not return (blocking) until the conversion has
 435:Generated_Source\PSoC4/ADC.c **** *  completed.
 436:Generated_Source\PSoC4/ADC.c **** *
 437:Generated_Source\PSoC4/ADC.c **** * Parameters:
 438:Generated_Source\PSoC4/ADC.c **** *  ADC_RETURN_STATUS        -> Immediately returns conversion result status
 439:Generated_Source\PSoC4/ADC.c **** *  ADC_WAIT_FOR_RESULT      -> Does not return until ADC complete
 440:Generated_Source\PSoC4/ADC.c **** *  ADC_RETURN_STATUS_INJ    -> Immediately returns conversion result status
 441:Generated_Source\PSoC4/ADC.c **** *                              for injection channel
 442:Generated_Source\PSoC4/ADC.c **** *  ADC_WAIT_FOR_RESULT_INJ  -> Does not return until ADC completes injection
 443:Generated_Source\PSoC4/ADC.c **** *                              channel conversion
 444:Generated_Source\PSoC4/ADC.c **** *
 445:Generated_Source\PSoC4/ADC.c **** * Return:
 446:Generated_Source\PSoC4/ADC.c **** *  If a non-zero value is returned, the last conversion or scan has completed.
 447:Generated_Source\PSoC4/ADC.c **** *  If the returned value is zero, the ADC is still in the process of a scan.
 448:Generated_Source\PSoC4/ADC.c **** *
 449:Generated_Source\PSoC4/ADC.c **** *******************************************************************************/
 450:Generated_Source\PSoC4/ADC.c **** uint32 ADC_IsEndConversion(uint32 retMode)
 451:Generated_Source\PSoC4/ADC.c **** {
 462              		.loc 1 451 0
 463              		.cfi_startproc
 464              		@ args = 0, pretend = 0, frame = 0
 465              		@ frame_needed = 0, uses_anonymous_args = 0
 466              	.LVL18:
 467 0000 10B5     		push	{r4, lr}
 468              		.cfi_def_cfa_offset 8
 469              		.cfi_offset 4, -8
 470              		.cfi_offset 14, -4
 452:Generated_Source\PSoC4/ADC.c ****     uint32 status = 0u;
ARM GAS  C:\Users\Greg\AppData\Local\Temp\ccI9W9Nc.s 			page 18


 471              		.loc 1 452 0
 472 0002 0023     		movs	r3, #0
 453:Generated_Source\PSoC4/ADC.c **** 
 454:Generated_Source\PSoC4/ADC.c ****     if((retMode & (ADC_RETURN_STATUS | ADC_WAIT_FOR_RESULT)) != 0u)
 473              		.loc 1 454 0
 474 0004 8207     		lsls	r2, r0, #30
 475 0006 0DD0     		beq	.L47
 455:Generated_Source\PSoC4/ADC.c ****     {
 456:Generated_Source\PSoC4/ADC.c ****         do
 457:Generated_Source\PSoC4/ADC.c ****         {
 458:Generated_Source\PSoC4/ADC.c ****             status = ADC_SAR_INTR_REG & ADC_EOS_MASK;
 476              		.loc 1 458 0 discriminator 2
 477 0008 0124     		movs	r4, #1
 459:Generated_Source\PSoC4/ADC.c ****         }while((status == 0u) && ((retMode & ADC_WAIT_FOR_RESULT) != 0u));
 478              		.loc 1 459 0 discriminator 2
 479 000a 0233     		adds	r3, r3, #2
 458:Generated_Source\PSoC4/ADC.c ****         }while((status == 0u) && ((retMode & ADC_WAIT_FOR_RESULT) != 0u));
 480              		.loc 1 458 0 discriminator 2
 481 000c 0649     		ldr	r1, .L51
 482              		.loc 1 459 0 discriminator 2
 483 000e 1840     		ands	r0, r3
 484              	.LVL19:
 485              	.L48:
 458:Generated_Source\PSoC4/ADC.c ****         }while((status == 0u) && ((retMode & ADC_WAIT_FOR_RESULT) != 0u));
 486              		.loc 1 458 0 discriminator 2
 487 0010 0B68     		ldr	r3, [r1]
 488 0012 0122     		movs	r2, #1
 489 0014 2340     		ands	r3, r4
 490              	.LVL20:
 491              		.loc 1 459 0 discriminator 2
 492 0016 02D1     		bne	.L44
 493              		.loc 1 459 0 is_stmt 0 discriminator 1
 494 0018 0028     		cmp	r0, #0
 495 001a F9D1     		bne	.L48
 496 001c 02E0     		b	.L47
 497              	.L44:
 460:Generated_Source\PSoC4/ADC.c **** 
 461:Generated_Source\PSoC4/ADC.c ****         if(status != 0u)
 462:Generated_Source\PSoC4/ADC.c ****         {
 463:Generated_Source\PSoC4/ADC.c ****             /* Clear EOS bit */
 464:Generated_Source\PSoC4/ADC.c ****             ADC_SAR_INTR_REG = ADC_EOS_MASK;
 498              		.loc 1 464 0 is_stmt 1
 499 001e 024B     		ldr	r3, .L51
 500              	.LVL21:
 501 0020 1A60     		str	r2, [r3]
 502 0022 1300     		movs	r3, r2
 503              	.LVL22:
 504              	.L47:
 465:Generated_Source\PSoC4/ADC.c ****         }
 466:Generated_Source\PSoC4/ADC.c ****     }
 467:Generated_Source\PSoC4/ADC.c **** 
 468:Generated_Source\PSoC4/ADC.c ****     #if(ADC_INJ_CHANNEL_ENABLED)
 469:Generated_Source\PSoC4/ADC.c ****         if((retMode & (ADC_RETURN_STATUS_INJ | ADC_WAIT_FOR_RESULT_INJ)) != 0u)
 470:Generated_Source\PSoC4/ADC.c ****         {
 471:Generated_Source\PSoC4/ADC.c ****             do
 472:Generated_Source\PSoC4/ADC.c ****             {
 473:Generated_Source\PSoC4/ADC.c ****                 status |= ADC_SAR_INTR_REG & ADC_INJ_EOC_MASK;
ARM GAS  C:\Users\Greg\AppData\Local\Temp\ccI9W9Nc.s 			page 19


 474:Generated_Source\PSoC4/ADC.c ****             }while(((status & ADC_INJ_EOC_MASK) == 0u) &&
 475:Generated_Source\PSoC4/ADC.c ****                    ((retMode & ADC_WAIT_FOR_RESULT_INJ) != 0u));
 476:Generated_Source\PSoC4/ADC.c **** 
 477:Generated_Source\PSoC4/ADC.c ****             if((status & ADC_INJ_EOC_MASK) != 0u)
 478:Generated_Source\PSoC4/ADC.c ****             {
 479:Generated_Source\PSoC4/ADC.c ****                 /* Clear Injection EOS bit */
 480:Generated_Source\PSoC4/ADC.c ****                 ADC_SAR_INTR_REG = ADC_INJ_EOC_MASK;
 481:Generated_Source\PSoC4/ADC.c ****             }
 482:Generated_Source\PSoC4/ADC.c ****         }
 483:Generated_Source\PSoC4/ADC.c ****     #endif /* ADC_INJ_CHANNEL_ENABLED */
 484:Generated_Source\PSoC4/ADC.c **** 
 485:Generated_Source\PSoC4/ADC.c ****     return (status);
 486:Generated_Source\PSoC4/ADC.c **** }
 505              		.loc 1 486 0
 506 0024 1800     		movs	r0, r3
 507              		@ sp needed
 508 0026 10BD     		pop	{r4, pc}
 509              	.L52:
 510              		.align	2
 511              	.L51:
 512 0028 10023A40 		.word	1077543440
 513              		.cfi_endproc
 514              	.LFE7:
 515              		.size	ADC_IsEndConversion, .-ADC_IsEndConversion
 516              		.section	.text.ADC_GetResult16,"ax",%progbits
 517              		.align	1
 518              		.global	ADC_GetResult16
 519              		.code	16
 520              		.thumb_func
 521              		.type	ADC_GetResult16, %function
 522              	ADC_GetResult16:
 523              	.LFB8:
 487:Generated_Source\PSoC4/ADC.c **** 
 488:Generated_Source\PSoC4/ADC.c **** 
 489:Generated_Source\PSoC4/ADC.c **** /*******************************************************************************
 490:Generated_Source\PSoC4/ADC.c **** * Function Name: ADC_GetResult16
 491:Generated_Source\PSoC4/ADC.c **** ********************************************************************************
 492:Generated_Source\PSoC4/ADC.c **** *
 493:Generated_Source\PSoC4/ADC.c **** * Summary:
 494:Generated_Source\PSoC4/ADC.c **** *  Gets the data available in the SAR DATA register.
 495:Generated_Source\PSoC4/ADC.c **** *
 496:Generated_Source\PSoC4/ADC.c **** * Parameters:
 497:Generated_Source\PSoC4/ADC.c **** *  chan: The ADC channel in which to return the result. The first channel
 498:Generated_Source\PSoC4/ADC.c **** *  is 0 and the injection channel if enabled is the number of valid channels.
 499:Generated_Source\PSoC4/ADC.c **** *
 500:Generated_Source\PSoC4/ADC.c **** * Return:
 501:Generated_Source\PSoC4/ADC.c **** *  Returns converted data as a signed 16-bit integer
 502:Generated_Source\PSoC4/ADC.c **** *
 503:Generated_Source\PSoC4/ADC.c **** *******************************************************************************/
 504:Generated_Source\PSoC4/ADC.c **** int16 ADC_GetResult16(uint32 chan)
 505:Generated_Source\PSoC4/ADC.c **** {
 524              		.loc 1 505 0
 525              		.cfi_startproc
 526              		@ args = 0, pretend = 0, frame = 0
 527              		@ frame_needed = 0, uses_anonymous_args = 0
 528              		@ link register save eliminated.
 529              	.LVL23:
ARM GAS  C:\Users\Greg\AppData\Local\Temp\ccI9W9Nc.s 			page 20


 506:Generated_Source\PSoC4/ADC.c ****     uint32 result;
 507:Generated_Source\PSoC4/ADC.c **** 
 508:Generated_Source\PSoC4/ADC.c ****     /* Halt CPU in debug mode if channel is out of valid range */
 509:Generated_Source\PSoC4/ADC.c ****     CYASSERT(chan < ADC_TOTAL_CHANNELS_NUM);
 510:Generated_Source\PSoC4/ADC.c **** 
 511:Generated_Source\PSoC4/ADC.c ****     if(chan < ADC_SEQUENCED_CHANNELS_NUM)
 512:Generated_Source\PSoC4/ADC.c ****     {
 513:Generated_Source\PSoC4/ADC.c ****         result = CY_GET_REG32((reg32 *)(ADC_SAR_CHAN_RESULT_IND + (uint32)(chan << 2u))) &
 514:Generated_Source\PSoC4/ADC.c ****                 ADC_RESULT_MASK;
 515:Generated_Source\PSoC4/ADC.c ****     }
 516:Generated_Source\PSoC4/ADC.c ****     else
 517:Generated_Source\PSoC4/ADC.c ****     {
 518:Generated_Source\PSoC4/ADC.c ****         #if(ADC_INJ_CHANNEL_ENABLED)
 519:Generated_Source\PSoC4/ADC.c ****             result = ADC_SAR_INJ_RESULT_REG & ADC_RESULT_MASK;
 520:Generated_Source\PSoC4/ADC.c ****         #else
 521:Generated_Source\PSoC4/ADC.c ****             result = 0u;
 530              		.loc 1 521 0
 531 0000 0023     		movs	r3, #0
 511:Generated_Source\PSoC4/ADC.c ****     {
 532              		.loc 1 511 0
 533 0002 0228     		cmp	r0, #2
 534 0004 04D8     		bhi	.L54
 513:Generated_Source\PSoC4/ADC.c ****                 ADC_RESULT_MASK;
 535              		.loc 1 513 0
 536 0006 034B     		ldr	r3, .L56
 537 0008 8000     		lsls	r0, r0, #2
 538              	.LVL24:
 539 000a C018     		adds	r0, r0, r3
 540 000c 0368     		ldr	r3, [r0]
 541 000e 9BB2     		uxth	r3, r3
 542              	.LVL25:
 543              	.L54:
 522:Generated_Source\PSoC4/ADC.c ****         #endif /* ADC_INJ_CHANNEL_ENABLED */
 523:Generated_Source\PSoC4/ADC.c ****     }
 524:Generated_Source\PSoC4/ADC.c **** 
 525:Generated_Source\PSoC4/ADC.c ****     return ( (int16)result );
 544              		.loc 1 525 0
 545 0010 18B2     		sxth	r0, r3
 526:Generated_Source\PSoC4/ADC.c **** }
 546              		.loc 1 526 0
 547              		@ sp needed
 548 0012 7047     		bx	lr
 549              	.L57:
 550              		.align	2
 551              	.L56:
 552 0014 80013A40 		.word	1077543296
 553              		.cfi_endproc
 554              	.LFE8:
 555              		.size	ADC_GetResult16, .-ADC_GetResult16
 556              		.section	.text.ADC_SetChanMask,"ax",%progbits
 557              		.align	1
 558              		.global	ADC_SetChanMask
 559              		.code	16
 560              		.thumb_func
 561              		.type	ADC_SetChanMask, %function
 562              	ADC_SetChanMask:
 563              	.LFB9:
ARM GAS  C:\Users\Greg\AppData\Local\Temp\ccI9W9Nc.s 			page 21


 527:Generated_Source\PSoC4/ADC.c **** 
 528:Generated_Source\PSoC4/ADC.c **** 
 529:Generated_Source\PSoC4/ADC.c **** /*******************************************************************************
 530:Generated_Source\PSoC4/ADC.c **** * Function Name: ADC_SetChanMask
 531:Generated_Source\PSoC4/ADC.c **** ********************************************************************************
 532:Generated_Source\PSoC4/ADC.c **** *
 533:Generated_Source\PSoC4/ADC.c **** * Summary:
 534:Generated_Source\PSoC4/ADC.c **** *  Sets the channel enable mask.
 535:Generated_Source\PSoC4/ADC.c **** *
 536:Generated_Source\PSoC4/ADC.c **** * Parameters:
 537:Generated_Source\PSoC4/ADC.c **** *  mask: Sets which channels that will be
 538:Generated_Source\PSoC4/ADC.c **** *  scanned. Setting bits for channels that do not exist will have no
 539:Generated_Source\PSoC4/ADC.c **** *  effect. For example, if only 6 channels were enabled, setting a
 540:Generated_Source\PSoC4/ADC.c **** *  mask of 0x0103 would only enable the last two channels (0 and 1).
 541:Generated_Source\PSoC4/ADC.c **** *  This API will not enable the injection channel.
 542:Generated_Source\PSoC4/ADC.c **** *  Examples: If the component is setup to sequence through 8
 543:Generated_Source\PSoC4/ADC.c **** *  channels, a mask of 0x000F would enable channels 0, 1, 2, and 3.
 544:Generated_Source\PSoC4/ADC.c **** *
 545:Generated_Source\PSoC4/ADC.c **** * Return:
 546:Generated_Source\PSoC4/ADC.c **** *  None.
 547:Generated_Source\PSoC4/ADC.c **** *
 548:Generated_Source\PSoC4/ADC.c **** *******************************************************************************/
 549:Generated_Source\PSoC4/ADC.c **** void ADC_SetChanMask(uint32 mask)
 550:Generated_Source\PSoC4/ADC.c **** {
 564              		.loc 1 550 0
 565              		.cfi_startproc
 566              		@ args = 0, pretend = 0, frame = 0
 567              		@ frame_needed = 0, uses_anonymous_args = 0
 568              		@ link register save eliminated.
 569              	.LVL26:
 551:Generated_Source\PSoC4/ADC.c ****     ADC_SAR_CHAN_EN_REG = mask & ADC_MAX_CHANNELS_EN_MASK;
 570              		.loc 1 551 0
 571 0000 0723     		movs	r3, #7
 572 0002 1840     		ands	r0, r3
 573              	.LVL27:
 574 0004 014B     		ldr	r3, .L59
 552:Generated_Source\PSoC4/ADC.c **** }
 575              		.loc 1 552 0
 576              		@ sp needed
 551:Generated_Source\PSoC4/ADC.c ****     ADC_SAR_CHAN_EN_REG = mask & ADC_MAX_CHANNELS_EN_MASK;
 577              		.loc 1 551 0
 578 0006 1860     		str	r0, [r3]
 579              		.loc 1 552 0
 580 0008 7047     		bx	lr
 581              	.L60:
 582 000a C046     		.align	2
 583              	.L59:
 584 000c 20003A40 		.word	1077542944
 585              		.cfi_endproc
 586              	.LFE9:
 587              		.size	ADC_SetChanMask, .-ADC_SetChanMask
 588              		.section	.text.ADC_SetLowLimit,"ax",%progbits
 589              		.align	1
 590              		.global	ADC_SetLowLimit
 591              		.code	16
 592              		.thumb_func
 593              		.type	ADC_SetLowLimit, %function
ARM GAS  C:\Users\Greg\AppData\Local\Temp\ccI9W9Nc.s 			page 22


 594              	ADC_SetLowLimit:
 595              	.LFB10:
 553:Generated_Source\PSoC4/ADC.c **** 
 554:Generated_Source\PSoC4/ADC.c **** #if(ADC_INJ_CHANNEL_ENABLED)
 555:Generated_Source\PSoC4/ADC.c **** 
 556:Generated_Source\PSoC4/ADC.c **** 
 557:Generated_Source\PSoC4/ADC.c ****     /*******************************************************************************
 558:Generated_Source\PSoC4/ADC.c ****     * Function Name: ADC_EnableInjection
 559:Generated_Source\PSoC4/ADC.c ****     ********************************************************************************
 560:Generated_Source\PSoC4/ADC.c ****     *
 561:Generated_Source\PSoC4/ADC.c ****     * Summary:
 562:Generated_Source\PSoC4/ADC.c ****     *  Enables the injection channel for the next scan only.
 563:Generated_Source\PSoC4/ADC.c ****     *
 564:Generated_Source\PSoC4/ADC.c ****     * Parameters:
 565:Generated_Source\PSoC4/ADC.c ****     *  None.
 566:Generated_Source\PSoC4/ADC.c ****     *
 567:Generated_Source\PSoC4/ADC.c ****     * Return:
 568:Generated_Source\PSoC4/ADC.c ****     *  None.
 569:Generated_Source\PSoC4/ADC.c ****     *
 570:Generated_Source\PSoC4/ADC.c ****     *******************************************************************************/
 571:Generated_Source\PSoC4/ADC.c ****     void ADC_EnableInjection(void)
 572:Generated_Source\PSoC4/ADC.c ****     {
 573:Generated_Source\PSoC4/ADC.c ****         ADC_SAR_INJ_CHAN_CONFIG_REG |= ADC_INJ_CHAN_EN;
 574:Generated_Source\PSoC4/ADC.c ****     }
 575:Generated_Source\PSoC4/ADC.c **** 
 576:Generated_Source\PSoC4/ADC.c **** #endif /* ADC_INJ_CHANNEL_ENABLED */
 577:Generated_Source\PSoC4/ADC.c **** 
 578:Generated_Source\PSoC4/ADC.c **** 
 579:Generated_Source\PSoC4/ADC.c **** /*******************************************************************************
 580:Generated_Source\PSoC4/ADC.c **** * Function Name: ADC_SetLowLimit
 581:Generated_Source\PSoC4/ADC.c **** ********************************************************************************
 582:Generated_Source\PSoC4/ADC.c **** *
 583:Generated_Source\PSoC4/ADC.c **** * Summary:
 584:Generated_Source\PSoC4/ADC.c **** *  Sets the low limit parameter for a limit condition.
 585:Generated_Source\PSoC4/ADC.c **** *
 586:Generated_Source\PSoC4/ADC.c **** * Parameters:
 587:Generated_Source\PSoC4/ADC.c **** *  lowLimit: The low limit for a limit condition.
 588:Generated_Source\PSoC4/ADC.c **** *
 589:Generated_Source\PSoC4/ADC.c **** * Return:
 590:Generated_Source\PSoC4/ADC.c **** *  None.
 591:Generated_Source\PSoC4/ADC.c **** *
 592:Generated_Source\PSoC4/ADC.c **** *******************************************************************************/
 593:Generated_Source\PSoC4/ADC.c **** void ADC_SetLowLimit(uint32 lowLimit)
 594:Generated_Source\PSoC4/ADC.c **** {
 596              		.loc 1 594 0
 597              		.cfi_startproc
 598              		@ args = 0, pretend = 0, frame = 0
 599              		@ frame_needed = 0, uses_anonymous_args = 0
 600              		@ link register save eliminated.
 601              	.LVL28:
 595:Generated_Source\PSoC4/ADC.c ****     ADC_SAR_RANGE_THRES_REG &= (uint32)(~ADC_RANGE_LOW_MASK);
 602              		.loc 1 595 0
 603 0000 044A     		ldr	r2, .L62
 596:Generated_Source\PSoC4/ADC.c ****     ADC_SAR_RANGE_THRES_REG |= lowLimit & ADC_RANGE_LOW_MASK;
 604              		.loc 1 596 0
 605 0002 80B2     		uxth	r0, r0
 606              	.LVL29:
ARM GAS  C:\Users\Greg\AppData\Local\Temp\ccI9W9Nc.s 			page 23


 595:Generated_Source\PSoC4/ADC.c ****     ADC_SAR_RANGE_THRES_REG &= (uint32)(~ADC_RANGE_LOW_MASK);
 607              		.loc 1 595 0
 608 0004 1368     		ldr	r3, [r2]
 597:Generated_Source\PSoC4/ADC.c **** }
 609              		.loc 1 597 0
 610              		@ sp needed
 595:Generated_Source\PSoC4/ADC.c ****     ADC_SAR_RANGE_THRES_REG &= (uint32)(~ADC_RANGE_LOW_MASK);
 611              		.loc 1 595 0
 612 0006 1B0C     		lsrs	r3, r3, #16
 613 0008 1B04     		lsls	r3, r3, #16
 614 000a 1360     		str	r3, [r2]
 596:Generated_Source\PSoC4/ADC.c ****     ADC_SAR_RANGE_THRES_REG |= lowLimit & ADC_RANGE_LOW_MASK;
 615              		.loc 1 596 0
 616 000c 1368     		ldr	r3, [r2]
 617 000e 1843     		orrs	r0, r3
 618 0010 1060     		str	r0, [r2]
 619              		.loc 1 597 0
 620 0012 7047     		bx	lr
 621              	.L63:
 622              		.align	2
 623              	.L62:
 624 0014 18003A40 		.word	1077542936
 625              		.cfi_endproc
 626              	.LFE10:
 627              		.size	ADC_SetLowLimit, .-ADC_SetLowLimit
 628              		.section	.text.ADC_SetHighLimit,"ax",%progbits
 629              		.align	1
 630              		.global	ADC_SetHighLimit
 631              		.code	16
 632              		.thumb_func
 633              		.type	ADC_SetHighLimit, %function
 634              	ADC_SetHighLimit:
 635              	.LFB11:
 598:Generated_Source\PSoC4/ADC.c **** 
 599:Generated_Source\PSoC4/ADC.c **** 
 600:Generated_Source\PSoC4/ADC.c **** /*******************************************************************************
 601:Generated_Source\PSoC4/ADC.c **** * Function Name: ADC_SetHighLimit
 602:Generated_Source\PSoC4/ADC.c **** ********************************************************************************
 603:Generated_Source\PSoC4/ADC.c **** *
 604:Generated_Source\PSoC4/ADC.c **** * Summary:
 605:Generated_Source\PSoC4/ADC.c **** *  Sets the low limit parameter for a limit condition.
 606:Generated_Source\PSoC4/ADC.c **** *
 607:Generated_Source\PSoC4/ADC.c **** * Parameters:
 608:Generated_Source\PSoC4/ADC.c **** *  highLimit: The high limit for a limit condition.
 609:Generated_Source\PSoC4/ADC.c **** *
 610:Generated_Source\PSoC4/ADC.c **** * Return:
 611:Generated_Source\PSoC4/ADC.c **** *  None.
 612:Generated_Source\PSoC4/ADC.c **** *
 613:Generated_Source\PSoC4/ADC.c **** *******************************************************************************/
 614:Generated_Source\PSoC4/ADC.c **** void ADC_SetHighLimit(uint32 highLimit)
 615:Generated_Source\PSoC4/ADC.c **** {
 636              		.loc 1 615 0
 637              		.cfi_startproc
 638              		@ args = 0, pretend = 0, frame = 0
 639              		@ frame_needed = 0, uses_anonymous_args = 0
 640              		@ link register save eliminated.
 641              	.LVL30:
ARM GAS  C:\Users\Greg\AppData\Local\Temp\ccI9W9Nc.s 			page 24


 616:Generated_Source\PSoC4/ADC.c ****     ADC_SAR_RANGE_THRES_REG &= (uint32)(~ADC_RANGE_HIGH_MASK);
 642              		.loc 1 616 0
 643 0000 044B     		ldr	r3, .L65
 617:Generated_Source\PSoC4/ADC.c ****     ADC_SAR_RANGE_THRES_REG |= (uint32)(highLimit << ADC_RANGE_HIGH_OFFSET);
 644              		.loc 1 617 0
 645 0002 0004     		lsls	r0, r0, #16
 646              	.LVL31:
 616:Generated_Source\PSoC4/ADC.c ****     ADC_SAR_RANGE_THRES_REG &= (uint32)(~ADC_RANGE_HIGH_MASK);
 647              		.loc 1 616 0
 648 0004 1A68     		ldr	r2, [r3]
 618:Generated_Source\PSoC4/ADC.c **** }
 649              		.loc 1 618 0
 650              		@ sp needed
 616:Generated_Source\PSoC4/ADC.c ****     ADC_SAR_RANGE_THRES_REG &= (uint32)(~ADC_RANGE_HIGH_MASK);
 651              		.loc 1 616 0
 652 0006 92B2     		uxth	r2, r2
 653 0008 1A60     		str	r2, [r3]
 617:Generated_Source\PSoC4/ADC.c ****     ADC_SAR_RANGE_THRES_REG |= (uint32)(highLimit << ADC_RANGE_HIGH_OFFSET);
 654              		.loc 1 617 0
 655 000a 1A68     		ldr	r2, [r3]
 656 000c 1043     		orrs	r0, r2
 657 000e 1860     		str	r0, [r3]
 658              		.loc 1 618 0
 659 0010 7047     		bx	lr
 660              	.L66:
 661 0012 C046     		.align	2
 662              	.L65:
 663 0014 18003A40 		.word	1077542936
 664              		.cfi_endproc
 665              	.LFE11:
 666              		.size	ADC_SetHighLimit, .-ADC_SetHighLimit
 667              		.section	.text.ADC_SetLimitMask,"ax",%progbits
 668              		.align	1
 669              		.global	ADC_SetLimitMask
 670              		.code	16
 671              		.thumb_func
 672              		.type	ADC_SetLimitMask, %function
 673              	ADC_SetLimitMask:
 674              	.LFB12:
 619:Generated_Source\PSoC4/ADC.c **** 
 620:Generated_Source\PSoC4/ADC.c **** 
 621:Generated_Source\PSoC4/ADC.c **** /*******************************************************************************
 622:Generated_Source\PSoC4/ADC.c **** * Function Name: ADC_SetLimitMask
 623:Generated_Source\PSoC4/ADC.c **** ********************************************************************************
 624:Generated_Source\PSoC4/ADC.c **** *
 625:Generated_Source\PSoC4/ADC.c **** * Summary:
 626:Generated_Source\PSoC4/ADC.c **** *  Sets the channel limit condition mask.
 627:Generated_Source\PSoC4/ADC.c **** *
 628:Generated_Source\PSoC4/ADC.c **** * Parameters:
 629:Generated_Source\PSoC4/ADC.c **** *  mask: Sets which channels that may cause a
 630:Generated_Source\PSoC4/ADC.c **** *  limit condition interrupt. Setting bits for channels that do not exist
 631:Generated_Source\PSoC4/ADC.c **** *  will have no effect. For example, if only 6 channels were enabled,
 632:Generated_Source\PSoC4/ADC.c **** *  setting a mask of 0x0103 would only enable the last two channels (0 and 1).
 633:Generated_Source\PSoC4/ADC.c **** *
 634:Generated_Source\PSoC4/ADC.c **** * Return:
 635:Generated_Source\PSoC4/ADC.c **** *  None.
 636:Generated_Source\PSoC4/ADC.c **** *
ARM GAS  C:\Users\Greg\AppData\Local\Temp\ccI9W9Nc.s 			page 25


 637:Generated_Source\PSoC4/ADC.c **** *******************************************************************************/
 638:Generated_Source\PSoC4/ADC.c **** void ADC_SetLimitMask(uint32 mask)
 639:Generated_Source\PSoC4/ADC.c **** {
 675              		.loc 1 639 0
 676              		.cfi_startproc
 677              		@ args = 0, pretend = 0, frame = 0
 678              		@ frame_needed = 0, uses_anonymous_args = 0
 679              		@ link register save eliminated.
 680              	.LVL32:
 640:Generated_Source\PSoC4/ADC.c ****     ADC_SAR_RANGE_INTR_MASK_REG = mask & ADC_MAX_CHANNELS_EN_MASK;
 681              		.loc 1 640 0
 682 0000 0723     		movs	r3, #7
 683 0002 1840     		ands	r0, r3
 684              	.LVL33:
 685 0004 014B     		ldr	r3, .L68
 641:Generated_Source\PSoC4/ADC.c **** }
 686              		.loc 1 641 0
 687              		@ sp needed
 640:Generated_Source\PSoC4/ADC.c ****     ADC_SAR_RANGE_INTR_MASK_REG = mask & ADC_MAX_CHANNELS_EN_MASK;
 688              		.loc 1 640 0
 689 0006 1860     		str	r0, [r3]
 690              		.loc 1 641 0
 691 0008 7047     		bx	lr
 692              	.L69:
 693 000a C046     		.align	2
 694              	.L68:
 695 000c 38023A40 		.word	1077543480
 696              		.cfi_endproc
 697              	.LFE12:
 698              		.size	ADC_SetLimitMask, .-ADC_SetLimitMask
 699              		.section	.text.ADC_SetSatMask,"ax",%progbits
 700              		.align	1
 701              		.global	ADC_SetSatMask
 702              		.code	16
 703              		.thumb_func
 704              		.type	ADC_SetSatMask, %function
 705              	ADC_SetSatMask:
 706              	.LFB13:
 642:Generated_Source\PSoC4/ADC.c **** 
 643:Generated_Source\PSoC4/ADC.c **** 
 644:Generated_Source\PSoC4/ADC.c **** /*******************************************************************************
 645:Generated_Source\PSoC4/ADC.c **** * Function Name: ADC_SetSatMask
 646:Generated_Source\PSoC4/ADC.c **** ********************************************************************************
 647:Generated_Source\PSoC4/ADC.c **** *
 648:Generated_Source\PSoC4/ADC.c **** * Summary:
 649:Generated_Source\PSoC4/ADC.c **** *  Sets the channel saturation event mask.
 650:Generated_Source\PSoC4/ADC.c **** *
 651:Generated_Source\PSoC4/ADC.c **** * Parameters:
 652:Generated_Source\PSoC4/ADC.c **** *  mask: Sets which channels that may cause a
 653:Generated_Source\PSoC4/ADC.c **** *  saturation event interrupt. Setting bits for channels that do not exist
 654:Generated_Source\PSoC4/ADC.c **** *  will have no effect. For example, if only 8 channels were enabled,
 655:Generated_Source\PSoC4/ADC.c **** *  setting a mask of 0x01C0 would only enable two channels (6 and 7).
 656:Generated_Source\PSoC4/ADC.c **** *
 657:Generated_Source\PSoC4/ADC.c **** * Return:
 658:Generated_Source\PSoC4/ADC.c **** *  None.
 659:Generated_Source\PSoC4/ADC.c **** *
 660:Generated_Source\PSoC4/ADC.c **** *******************************************************************************/
ARM GAS  C:\Users\Greg\AppData\Local\Temp\ccI9W9Nc.s 			page 26


 661:Generated_Source\PSoC4/ADC.c **** void ADC_SetSatMask(uint32 mask)
 662:Generated_Source\PSoC4/ADC.c **** {
 707              		.loc 1 662 0
 708              		.cfi_startproc
 709              		@ args = 0, pretend = 0, frame = 0
 710              		@ frame_needed = 0, uses_anonymous_args = 0
 711              		@ link register save eliminated.
 712              	.LVL34:
 663:Generated_Source\PSoC4/ADC.c ****     ADC_SAR_SATURATE_INTR_MASK_REG = mask & ADC_MAX_CHANNELS_EN_MASK;
 713              		.loc 1 663 0
 714 0000 0723     		movs	r3, #7
 715 0002 1840     		ands	r0, r3
 716              	.LVL35:
 717 0004 014B     		ldr	r3, .L71
 664:Generated_Source\PSoC4/ADC.c **** }
 718              		.loc 1 664 0
 719              		@ sp needed
 663:Generated_Source\PSoC4/ADC.c ****     ADC_SAR_SATURATE_INTR_MASK_REG = mask & ADC_MAX_CHANNELS_EN_MASK;
 720              		.loc 1 663 0
 721 0006 1860     		str	r0, [r3]
 722              		.loc 1 664 0
 723 0008 7047     		bx	lr
 724              	.L72:
 725 000a C046     		.align	2
 726              	.L71:
 727 000c 28023A40 		.word	1077543464
 728              		.cfi_endproc
 729              	.LFE13:
 730              		.size	ADC_SetSatMask, .-ADC_SetSatMask
 731              		.section	.text.ADC_SetOffset,"ax",%progbits
 732              		.align	1
 733              		.global	ADC_SetOffset
 734              		.code	16
 735              		.thumb_func
 736              		.type	ADC_SetOffset, %function
 737              	ADC_SetOffset:
 738              	.LFB14:
 665:Generated_Source\PSoC4/ADC.c **** 
 666:Generated_Source\PSoC4/ADC.c **** 
 667:Generated_Source\PSoC4/ADC.c **** /*******************************************************************************
 668:Generated_Source\PSoC4/ADC.c **** * Function Name: ADC_SetOffset
 669:Generated_Source\PSoC4/ADC.c **** ********************************************************************************
 670:Generated_Source\PSoC4/ADC.c **** *
 671:Generated_Source\PSoC4/ADC.c **** * Summary:
 672:Generated_Source\PSoC4/ADC.c **** *   Description: Sets the ADC offset which is used by the functions
 673:Generated_Source\PSoC4/ADC.c **** *   ADC_CountsTo_uVolts, ADC_CountsTo_mVolts and ADC_CountsTo_Volts
 674:Generated_Source\PSoC4/ADC.c **** *   to substract the offset from the given reading
 675:Generated_Source\PSoC4/ADC.c **** *   before calculating the voltage conversion.
 676:Generated_Source\PSoC4/ADC.c **** *
 677:Generated_Source\PSoC4/ADC.c **** * Parameters:
 678:Generated_Source\PSoC4/ADC.c **** *  chan: ADC channel number.
 679:Generated_Source\PSoC4/ADC.c **** *  offset: This value is a measured value when the
 680:Generated_Source\PSoC4/ADC.c **** *          inputs are shorted or connected to the same input voltage.
 681:Generated_Source\PSoC4/ADC.c **** *
 682:Generated_Source\PSoC4/ADC.c **** * Return:
 683:Generated_Source\PSoC4/ADC.c **** *  None.
 684:Generated_Source\PSoC4/ADC.c **** *
ARM GAS  C:\Users\Greg\AppData\Local\Temp\ccI9W9Nc.s 			page 27


 685:Generated_Source\PSoC4/ADC.c **** * Global variables:
 686:Generated_Source\PSoC4/ADC.c **** *  ADC_Offset:  Modified to set the user provided offset.
 687:Generated_Source\PSoC4/ADC.c **** *
 688:Generated_Source\PSoC4/ADC.c **** *******************************************************************************/
 689:Generated_Source\PSoC4/ADC.c **** void ADC_SetOffset(uint32 chan, int16 offset)
 690:Generated_Source\PSoC4/ADC.c **** {
 739              		.loc 1 690 0
 740              		.cfi_startproc
 741              		@ args = 0, pretend = 0, frame = 0
 742              		@ frame_needed = 0, uses_anonymous_args = 0
 743              		@ link register save eliminated.
 744              	.LVL36:
 691:Generated_Source\PSoC4/ADC.c ****     /* Halt CPU in debug mode if channel is out of valid range */
 692:Generated_Source\PSoC4/ADC.c ****     CYASSERT(chan < ADC_TOTAL_CHANNELS_NUM);
 693:Generated_Source\PSoC4/ADC.c **** 
 694:Generated_Source\PSoC4/ADC.c ****     ADC_offset[chan] = offset;
 745              		.loc 1 694 0
 746 0000 014B     		ldr	r3, .L74
 747 0002 4000     		lsls	r0, r0, #1
 748              	.LVL37:
 749 0004 C152     		strh	r1, [r0, r3]
 695:Generated_Source\PSoC4/ADC.c **** }
 750              		.loc 1 695 0
 751              		@ sp needed
 752 0006 7047     		bx	lr
 753              	.L75:
 754              		.align	2
 755              	.L74:
 756 0008 00000000 		.word	ADC_offset
 757              		.cfi_endproc
 758              	.LFE14:
 759              		.size	ADC_SetOffset, .-ADC_SetOffset
 760              		.section	.text.ADC_SetGain,"ax",%progbits
 761              		.align	1
 762              		.global	ADC_SetGain
 763              		.code	16
 764              		.thumb_func
 765              		.type	ADC_SetGain, %function
 766              	ADC_SetGain:
 767              	.LFB15:
 696:Generated_Source\PSoC4/ADC.c **** 
 697:Generated_Source\PSoC4/ADC.c **** 
 698:Generated_Source\PSoC4/ADC.c **** /*******************************************************************************
 699:Generated_Source\PSoC4/ADC.c **** * Function Name: ADC_SetGain
 700:Generated_Source\PSoC4/ADC.c **** ********************************************************************************
 701:Generated_Source\PSoC4/ADC.c **** *
 702:Generated_Source\PSoC4/ADC.c **** * Summary:
 703:Generated_Source\PSoC4/ADC.c **** *  Description: Sets the ADC gain in counts per 10 volt for the voltage
 704:Generated_Source\PSoC4/ADC.c **** *  conversion functions below. This value is set by default by the
 705:Generated_Source\PSoC4/ADC.c **** *  reference and input range settings. It should only be used to further
 706:Generated_Source\PSoC4/ADC.c **** *  calibrate the ADC with a known input or if an external reference is
 707:Generated_Source\PSoC4/ADC.c **** *  used. Affects the ADC_CountsTo_uVolts, ADC_CountsTo_mVolts
 708:Generated_Source\PSoC4/ADC.c **** *  and ADC_CountsTo_Volts functions by supplying the correct
 709:Generated_Source\PSoC4/ADC.c **** *  conversion between ADC counts and voltage.
 710:Generated_Source\PSoC4/ADC.c **** *
 711:Generated_Source\PSoC4/ADC.c **** * Parameters:
 712:Generated_Source\PSoC4/ADC.c **** *  chan: ADC channel number.
ARM GAS  C:\Users\Greg\AppData\Local\Temp\ccI9W9Nc.s 			page 28


 713:Generated_Source\PSoC4/ADC.c **** *  adcGain: ADC gain in counts per 10 volts.
 714:Generated_Source\PSoC4/ADC.c **** *
 715:Generated_Source\PSoC4/ADC.c **** * Return:
 716:Generated_Source\PSoC4/ADC.c **** *  None.
 717:Generated_Source\PSoC4/ADC.c **** *
 718:Generated_Source\PSoC4/ADC.c **** * Global variables:
 719:Generated_Source\PSoC4/ADC.c **** *  ADC_CountsPer10Volt:  modified to set the ADC gain in counts
 720:Generated_Source\PSoC4/ADC.c **** *   per 10 volt.
 721:Generated_Source\PSoC4/ADC.c **** *
 722:Generated_Source\PSoC4/ADC.c **** *******************************************************************************/
 723:Generated_Source\PSoC4/ADC.c **** void ADC_SetGain(uint32 chan, int32 adcGain)
 724:Generated_Source\PSoC4/ADC.c **** {
 768              		.loc 1 724 0
 769              		.cfi_startproc
 770              		@ args = 0, pretend = 0, frame = 0
 771              		@ frame_needed = 0, uses_anonymous_args = 0
 772              		@ link register save eliminated.
 773              	.LVL38:
 725:Generated_Source\PSoC4/ADC.c ****     /* Halt CPU in debug mode if channel is out of valid range */
 726:Generated_Source\PSoC4/ADC.c ****     CYASSERT(chan < ADC_TOTAL_CHANNELS_NUM);
 727:Generated_Source\PSoC4/ADC.c **** 
 728:Generated_Source\PSoC4/ADC.c ****     ADC_countsPer10Volt[chan] = adcGain;
 774              		.loc 1 728 0
 775 0000 014B     		ldr	r3, .L77
 776 0002 8000     		lsls	r0, r0, #2
 777              	.LVL39:
 778 0004 C150     		str	r1, [r0, r3]
 729:Generated_Source\PSoC4/ADC.c **** }
 779              		.loc 1 729 0
 780              		@ sp needed
 781 0006 7047     		bx	lr
 782              	.L78:
 783              		.align	2
 784              	.L77:
 785 0008 00000000 		.word	ADC_countsPer10Volt
 786              		.cfi_endproc
 787              	.LFE15:
 788              		.size	ADC_SetGain, .-ADC_SetGain
 789              		.global	__aeabi_idiv
 790              		.section	.text.ADC_CountsTo_mVolts,"ax",%progbits
 791              		.align	1
 792              		.global	ADC_CountsTo_mVolts
 793              		.code	16
 794              		.thumb_func
 795              		.type	ADC_CountsTo_mVolts, %function
 796              	ADC_CountsTo_mVolts:
 797              	.LFB16:
 730:Generated_Source\PSoC4/ADC.c **** 
 731:Generated_Source\PSoC4/ADC.c **** 
 732:Generated_Source\PSoC4/ADC.c **** #if(ADC_DEFAULT_JUSTIFICATION_SEL == ADC__RIGHT)
 733:Generated_Source\PSoC4/ADC.c **** 
 734:Generated_Source\PSoC4/ADC.c **** 
 735:Generated_Source\PSoC4/ADC.c ****     /*******************************************************************************
 736:Generated_Source\PSoC4/ADC.c ****     * Function Name: ADC_CountsTo_mVolts
 737:Generated_Source\PSoC4/ADC.c ****     ********************************************************************************
 738:Generated_Source\PSoC4/ADC.c ****     *
 739:Generated_Source\PSoC4/ADC.c ****     * Summary:
ARM GAS  C:\Users\Greg\AppData\Local\Temp\ccI9W9Nc.s 			page 29


 740:Generated_Source\PSoC4/ADC.c ****     *  This function converts ADC counts to mVolts
 741:Generated_Source\PSoC4/ADC.c ****     *  This function is not available when left data format justification selected.
 742:Generated_Source\PSoC4/ADC.c ****     *
 743:Generated_Source\PSoC4/ADC.c ****     * Parameters:
 744:Generated_Source\PSoC4/ADC.c ****     *  chan: The ADC channel number.
 745:Generated_Source\PSoC4/ADC.c ****     *  adcCounts: Result from the ADC conversion
 746:Generated_Source\PSoC4/ADC.c ****     *
 747:Generated_Source\PSoC4/ADC.c ****     * Return:
 748:Generated_Source\PSoC4/ADC.c ****     *  Results in mVolts
 749:Generated_Source\PSoC4/ADC.c ****     *
 750:Generated_Source\PSoC4/ADC.c ****     * Global variables:
 751:Generated_Source\PSoC4/ADC.c ****     *  ADC_countsPer10Volt:  used to convert ADC counts to mVolts.
 752:Generated_Source\PSoC4/ADC.c ****     *  ADC_Offset:  Used as the offset while converting ADC counts
 753:Generated_Source\PSoC4/ADC.c ****     *   to mVolts.
 754:Generated_Source\PSoC4/ADC.c ****     *
 755:Generated_Source\PSoC4/ADC.c ****     *******************************************************************************/
 756:Generated_Source\PSoC4/ADC.c ****     int16 ADC_CountsTo_mVolts(uint32 chan, int16 adcCounts)
 757:Generated_Source\PSoC4/ADC.c ****     {
 798              		.loc 1 757 0
 799              		.cfi_startproc
 800              		@ args = 0, pretend = 0, frame = 0
 801              		@ frame_needed = 0, uses_anonymous_args = 0
 802              	.LVL40:
 803 0000 70B5     		push	{r4, r5, r6, lr}
 804              		.cfi_def_cfa_offset 16
 805              		.cfi_offset 4, -16
 806              		.cfi_offset 5, -12
 807              		.cfi_offset 6, -8
 808              		.cfi_offset 14, -4
 758:Generated_Source\PSoC4/ADC.c ****         int16 mVolts;
 759:Generated_Source\PSoC4/ADC.c **** 
 760:Generated_Source\PSoC4/ADC.c ****         /* Halt CPU in debug mode if channel is out of valid range */
 761:Generated_Source\PSoC4/ADC.c ****         CYASSERT(chan < ADC_TOTAL_CHANNELS_NUM);
 762:Generated_Source\PSoC4/ADC.c **** 
 763:Generated_Source\PSoC4/ADC.c ****         /* Divide the adcCount when accumulate averaging mode selected */
 764:Generated_Source\PSoC4/ADC.c ****         #if(ADC_DEFAULT_AVG_MODE == ADC__ACCUMULATE)
 765:Generated_Source\PSoC4/ADC.c ****             if((ADC_channelsConfig[chan] & ADC_AVERAGING_EN) != 0u)
 766:Generated_Source\PSoC4/ADC.c ****             {
 767:Generated_Source\PSoC4/ADC.c ****                 adcCounts /= ADC_DEFAULT_AVG_SAMPLES_DIV;
 768:Generated_Source\PSoC4/ADC.c ****             }
 769:Generated_Source\PSoC4/ADC.c ****         #endif /* ADC_DEFAULT_AVG_MODE == ADC__ACCUMULATE */
 770:Generated_Source\PSoC4/ADC.c **** 
 771:Generated_Source\PSoC4/ADC.c ****         /* Subtract ADC offset */
 772:Generated_Source\PSoC4/ADC.c ****         adcCounts -= ADC_offset[chan];
 809              		.loc 1 772 0
 810 0002 0B4B     		ldr	r3, .L82
 811 0004 0B4E     		ldr	r6, .L82+4
 812 0006 4200     		lsls	r2, r0, #1
 813 0008 8400     		lsls	r4, r0, #2
 814 000a D35A     		ldrh	r3, [r2, r3]
 773:Generated_Source\PSoC4/ADC.c **** 
 774:Generated_Source\PSoC4/ADC.c ****         mVolts = (int16)((((int32)adcCounts * ADC_10MV_COUNTS) + ( (adcCounts > 0) ?
 775:Generated_Source\PSoC4/ADC.c ****                  (ADC_countsPer10Volt[chan] / 2) : (-(ADC_countsPer10Volt[chan] / 2)) ))
 815              		.loc 1 775 0
 816 000c 3259     		ldr	r2, [r6, r4]
 772:Generated_Source\PSoC4/ADC.c **** 
 817              		.loc 1 772 0
ARM GAS  C:\Users\Greg\AppData\Local\Temp\ccI9W9Nc.s 			page 30


 818 000e C91A     		subs	r1, r1, r3
 819              	.LVL41:
 774:Generated_Source\PSoC4/ADC.c ****                  (ADC_countsPer10Volt[chan] / 2) : (-(ADC_countsPer10Volt[chan] / 2)) ))
 820              		.loc 1 774 0
 821 0010 094D     		ldr	r5, .L82+8
 822              		.loc 1 775 0
 823 0012 D30F     		lsrs	r3, r2, #31
 772:Generated_Source\PSoC4/ADC.c **** 
 824              		.loc 1 772 0
 825 0014 09B2     		sxth	r1, r1
 826              	.LVL42:
 827              		.loc 1 775 0
 828 0016 9A18     		adds	r2, r3, r2
 774:Generated_Source\PSoC4/ADC.c ****                  (ADC_countsPer10Volt[chan] / 2) : (-(ADC_countsPer10Volt[chan] / 2)) ))
 829              		.loc 1 774 0
 830 0018 4D43     		muls	r5, r1
 831              		.loc 1 775 0
 832 001a 5310     		asrs	r3, r2, #1
 833 001c 0029     		cmp	r1, #0
 834 001e 01DC     		bgt	.L81
 835              		.loc 1 775 0 is_stmt 0 discriminator 2
 836 0020 5210     		asrs	r2, r2, #1
 837 0022 5342     		rsbs	r3, r2, #0
 838              	.L81:
 776:Generated_Source\PSoC4/ADC.c ****                  / ADC_countsPer10Volt[chan]);
 839              		.loc 1 776 0 is_stmt 1
 840 0024 3159     		ldr	r1, [r6, r4]
 841              	.LVL43:
 777:Generated_Source\PSoC4/ADC.c **** 
 778:Generated_Source\PSoC4/ADC.c ****         return( mVolts );
 842              		.loc 1 778 0
 843 0026 5819     		adds	r0, r3, r5
 844              	.LVL44:
 845 0028 FFF7FEFF 		bl	__aeabi_idiv
 846              	.LVL45:
 779:Generated_Source\PSoC4/ADC.c ****     }
 847              		.loc 1 779 0
 848              		@ sp needed
 778:Generated_Source\PSoC4/ADC.c ****     }
 849              		.loc 1 778 0
 850 002c 00B2     		sxth	r0, r0
 851              		.loc 1 779 0
 852 002e 70BD     		pop	{r4, r5, r6, pc}
 853              	.L83:
 854              		.align	2
 855              	.L82:
 856 0030 00000000 		.word	ADC_offset
 857 0034 00000000 		.word	ADC_countsPer10Volt
 858 0038 10270000 		.word	10000
 859              		.cfi_endproc
 860              	.LFE16:
 861              		.size	ADC_CountsTo_mVolts, .-ADC_CountsTo_mVolts
 862              		.global	__aeabi_lmul
 863              		.global	__aeabi_ldivmod
 864              		.section	.text.ADC_CountsTo_uVolts,"ax",%progbits
 865              		.align	1
 866              		.global	ADC_CountsTo_uVolts
ARM GAS  C:\Users\Greg\AppData\Local\Temp\ccI9W9Nc.s 			page 31


 867              		.code	16
 868              		.thumb_func
 869              		.type	ADC_CountsTo_uVolts, %function
 870              	ADC_CountsTo_uVolts:
 871              	.LFB17:
 780:Generated_Source\PSoC4/ADC.c **** 
 781:Generated_Source\PSoC4/ADC.c **** 
 782:Generated_Source\PSoC4/ADC.c ****     /*******************************************************************************
 783:Generated_Source\PSoC4/ADC.c ****     * Function Name: ADC_CountsTo_uVolts
 784:Generated_Source\PSoC4/ADC.c ****     ********************************************************************************
 785:Generated_Source\PSoC4/ADC.c ****     *
 786:Generated_Source\PSoC4/ADC.c ****     * Summary:
 787:Generated_Source\PSoC4/ADC.c ****     *  This function converts ADC counts to micro Volts
 788:Generated_Source\PSoC4/ADC.c ****     *  This function is not available when left data format justification selected.
 789:Generated_Source\PSoC4/ADC.c ****     *
 790:Generated_Source\PSoC4/ADC.c ****     * Parameters:
 791:Generated_Source\PSoC4/ADC.c ****     *  chan: The ADC channel number.
 792:Generated_Source\PSoC4/ADC.c ****     *  adcCounts: Result from the ADC conversion
 793:Generated_Source\PSoC4/ADC.c ****     *
 794:Generated_Source\PSoC4/ADC.c ****     * Return:
 795:Generated_Source\PSoC4/ADC.c ****     *  Results in uVolts
 796:Generated_Source\PSoC4/ADC.c ****     *
 797:Generated_Source\PSoC4/ADC.c ****     * Global variables:
 798:Generated_Source\PSoC4/ADC.c ****     *  ADC_countsPer10Volt:  used to convert ADC counts to uVolts.
 799:Generated_Source\PSoC4/ADC.c ****     *  ADC_Offset:  Used as the offset while converting ADC counts
 800:Generated_Source\PSoC4/ADC.c ****     *   to mVolts.
 801:Generated_Source\PSoC4/ADC.c ****     *
 802:Generated_Source\PSoC4/ADC.c ****     * Theory:
 803:Generated_Source\PSoC4/ADC.c ****     *  Care must be taken to not exceed the maximum value for a 31 bit signed
 804:Generated_Source\PSoC4/ADC.c ****     *  number in the conversion to uVolts and at the same time not loose
 805:Generated_Source\PSoC4/ADC.c ****     *  resolution.
 806:Generated_Source\PSoC4/ADC.c ****     *  To convert adcCounts to microVolts it is required to be multiplied
 807:Generated_Source\PSoC4/ADC.c ****     *  on 10 million and later divide on gain in counts per 10V.
 808:Generated_Source\PSoC4/ADC.c ****     *
 809:Generated_Source\PSoC4/ADC.c ****     *******************************************************************************/
 810:Generated_Source\PSoC4/ADC.c ****     int32 ADC_CountsTo_uVolts(uint32 chan, int16 adcCounts)
 811:Generated_Source\PSoC4/ADC.c ****     {
 872              		.loc 1 811 0
 873              		.cfi_startproc
 874              		@ args = 0, pretend = 0, frame = 0
 875              		@ frame_needed = 0, uses_anonymous_args = 0
 876              	.LVL46:
 812:Generated_Source\PSoC4/ADC.c ****         int64 uVolts;
 813:Generated_Source\PSoC4/ADC.c **** 
 814:Generated_Source\PSoC4/ADC.c ****         /* Halt CPU in debug mode if channel is out of valid range */
 815:Generated_Source\PSoC4/ADC.c ****         CYASSERT(chan < ADC_TOTAL_CHANNELS_NUM);
 816:Generated_Source\PSoC4/ADC.c **** 
 817:Generated_Source\PSoC4/ADC.c ****         /* Divide the adcCount when accumulate averaging mode selected */
 818:Generated_Source\PSoC4/ADC.c ****         #if(ADC_DEFAULT_AVG_MODE == ADC__ACCUMULATE)
 819:Generated_Source\PSoC4/ADC.c ****             if((ADC_channelsConfig[chan] & ADC_AVERAGING_EN) != 0u)
 820:Generated_Source\PSoC4/ADC.c ****             {
 821:Generated_Source\PSoC4/ADC.c ****                 adcCounts /= ADC_DEFAULT_AVG_SAMPLES_DIV;
 822:Generated_Source\PSoC4/ADC.c ****             }
 823:Generated_Source\PSoC4/ADC.c ****         #endif /* ADC_DEFAULT_AVG_MODE == ADC__ACCUMULATE */
 824:Generated_Source\PSoC4/ADC.c **** 
 825:Generated_Source\PSoC4/ADC.c ****         /* Subtract ADC offset */
 826:Generated_Source\PSoC4/ADC.c ****         adcCounts -= ADC_offset[chan];
ARM GAS  C:\Users\Greg\AppData\Local\Temp\ccI9W9Nc.s 			page 32


 877              		.loc 1 826 0
 878 0000 094B     		ldr	r3, .L85
 879 0002 4200     		lsls	r2, r0, #1
 880 0004 D35A     		ldrh	r3, [r2, r3]
 811:Generated_Source\PSoC4/ADC.c ****         int64 uVolts;
 881              		.loc 1 811 0
 882 0006 10B5     		push	{r4, lr}
 883              		.cfi_def_cfa_offset 8
 884              		.cfi_offset 4, -8
 885              		.cfi_offset 14, -4
 886              		.loc 1 826 0
 887 0008 C91A     		subs	r1, r1, r3
 888              	.LVL47:
 827:Generated_Source\PSoC4/ADC.c **** 
 828:Generated_Source\PSoC4/ADC.c ****         uVolts = ((int64)adcCounts * ADC_10UV_COUNTS) / ADC_countsPer10Volt[chan];
 889              		.loc 1 828 0
 890 000a 084B     		ldr	r3, .L85+4
 891 000c 8000     		lsls	r0, r0, #2
 892              	.LVL48:
 893 000e C458     		ldr	r4, [r0, r3]
 894              	.LVL49:
 829:Generated_Source\PSoC4/ADC.c **** 
 830:Generated_Source\PSoC4/ADC.c ****         return( (int32)uVolts );
 895              		.loc 1 830 0
 896 0010 08B2     		sxth	r0, r1
 897 0012 074A     		ldr	r2, .L85+8
 898 0014 0023     		movs	r3, #0
 899 0016 C117     		asrs	r1, r0, #31
 900              	.LVL50:
 901 0018 FFF7FEFF 		bl	__aeabi_lmul
 902              	.LVL51:
 903 001c E317     		asrs	r3, r4, #31
 904 001e 2200     		movs	r2, r4
 905 0020 FFF7FEFF 		bl	__aeabi_ldivmod
 906              	.LVL52:
 831:Generated_Source\PSoC4/ADC.c ****     }
 907              		.loc 1 831 0
 908              		@ sp needed
 909 0024 10BD     		pop	{r4, pc}
 910              	.L86:
 911 0026 C046     		.align	2
 912              	.L85:
 913 0028 00000000 		.word	ADC_offset
 914 002c 00000000 		.word	ADC_countsPer10Volt
 915 0030 80969800 		.word	10000000
 916              		.cfi_endproc
 917              	.LFE17:
 918              		.size	ADC_CountsTo_uVolts, .-ADC_CountsTo_uVolts
 919              		.global	__aeabi_i2f
 920              		.global	__aeabi_fmul
 921              		.global	__aeabi_fdiv
 922              		.section	.text.ADC_CountsTo_Volts,"ax",%progbits
 923              		.align	1
 924              		.global	ADC_CountsTo_Volts
 925              		.code	16
 926              		.thumb_func
 927              		.type	ADC_CountsTo_Volts, %function
ARM GAS  C:\Users\Greg\AppData\Local\Temp\ccI9W9Nc.s 			page 33


 928              	ADC_CountsTo_Volts:
 929              	.LFB18:
 832:Generated_Source\PSoC4/ADC.c **** 
 833:Generated_Source\PSoC4/ADC.c **** 
 834:Generated_Source\PSoC4/ADC.c ****     /*******************************************************************************
 835:Generated_Source\PSoC4/ADC.c ****     * Function Name: ADC_CountsTo_Volts
 836:Generated_Source\PSoC4/ADC.c ****     ********************************************************************************
 837:Generated_Source\PSoC4/ADC.c ****     *
 838:Generated_Source\PSoC4/ADC.c ****     * Summary:
 839:Generated_Source\PSoC4/ADC.c ****     *  Converts the ADC output to Volts as a floating point number.
 840:Generated_Source\PSoC4/ADC.c ****     *  This function is not available when left data format justification selected.
 841:Generated_Source\PSoC4/ADC.c ****     *
 842:Generated_Source\PSoC4/ADC.c ****     * Parameters:
 843:Generated_Source\PSoC4/ADC.c ****     *  chan: The ADC channel number.
 844:Generated_Source\PSoC4/ADC.c ****     *  Result from the ADC conversion
 845:Generated_Source\PSoC4/ADC.c ****     *
 846:Generated_Source\PSoC4/ADC.c ****     * Return:
 847:Generated_Source\PSoC4/ADC.c ****     *  Results in Volts
 848:Generated_Source\PSoC4/ADC.c ****     *
 849:Generated_Source\PSoC4/ADC.c ****     * Global variables:
 850:Generated_Source\PSoC4/ADC.c ****     *  ADC_countsPer10Volt:  used to convert ADC counts to Volts.
 851:Generated_Source\PSoC4/ADC.c ****     *  ADC_Offset:  Used as the offset while converting ADC counts
 852:Generated_Source\PSoC4/ADC.c ****     *   to mVolts.
 853:Generated_Source\PSoC4/ADC.c ****     *
 854:Generated_Source\PSoC4/ADC.c ****     *******************************************************************************/
 855:Generated_Source\PSoC4/ADC.c ****     float32 ADC_CountsTo_Volts(uint32 chan, int16 adcCounts)
 856:Generated_Source\PSoC4/ADC.c ****     {
 930              		.loc 1 856 0
 931              		.cfi_startproc
 932              		@ args = 0, pretend = 0, frame = 0
 933              		@ frame_needed = 0, uses_anonymous_args = 0
 934              	.LVL53:
 857:Generated_Source\PSoC4/ADC.c ****         float32 volts;
 858:Generated_Source\PSoC4/ADC.c **** 
 859:Generated_Source\PSoC4/ADC.c ****         /* Halt CPU in debug mode if channel is out of valid range */
 860:Generated_Source\PSoC4/ADC.c ****         CYASSERT(chan < ADC_TOTAL_CHANNELS_NUM);
 861:Generated_Source\PSoC4/ADC.c **** 
 862:Generated_Source\PSoC4/ADC.c ****         /* Divide the adcCount when accumulate averaging mode selected */
 863:Generated_Source\PSoC4/ADC.c ****         #if(ADC_DEFAULT_AVG_MODE == ADC__ACCUMULATE)
 864:Generated_Source\PSoC4/ADC.c ****             if((ADC_channelsConfig[chan] & ADC_AVERAGING_EN) != 0u)
 865:Generated_Source\PSoC4/ADC.c ****             {
 866:Generated_Source\PSoC4/ADC.c ****                 adcCounts /= ADC_DEFAULT_AVG_SAMPLES_DIV;
 867:Generated_Source\PSoC4/ADC.c ****             }
 868:Generated_Source\PSoC4/ADC.c ****         #endif /* ADC_DEFAULT_AVG_MODE == ADC__ACCUMULATE */
 869:Generated_Source\PSoC4/ADC.c **** 
 870:Generated_Source\PSoC4/ADC.c ****         /* Subtract ADC offset */
 871:Generated_Source\PSoC4/ADC.c ****         adcCounts -= ADC_offset[chan];
 935              		.loc 1 871 0
 936 0000 0B4B     		ldr	r3, .L88
 937 0002 4200     		lsls	r2, r0, #1
 938 0004 D35A     		ldrh	r3, [r2, r3]
 872:Generated_Source\PSoC4/ADC.c **** 
 873:Generated_Source\PSoC4/ADC.c ****         volts = ((float32)adcCounts * ADC_10V_COUNTS) / (float32)ADC_countsPer10Volt[chan];
 939              		.loc 1 873 0
 940 0006 8000     		lsls	r0, r0, #2
 941              	.LVL54:
 871:Generated_Source\PSoC4/ADC.c **** 
ARM GAS  C:\Users\Greg\AppData\Local\Temp\ccI9W9Nc.s 			page 34


 942              		.loc 1 871 0
 943 0008 C91A     		subs	r1, r1, r3
 944              	.LVL55:
 945              		.loc 1 873 0
 946 000a 0A4B     		ldr	r3, .L88+4
 856:Generated_Source\PSoC4/ADC.c ****         float32 volts;
 947              		.loc 1 856 0
 948 000c 70B5     		push	{r4, r5, r6, lr}
 949              		.cfi_def_cfa_offset 16
 950              		.cfi_offset 4, -16
 951              		.cfi_offset 5, -12
 952              		.cfi_offset 6, -8
 953              		.cfi_offset 14, -4
 954              		.loc 1 873 0
 955 000e C558     		ldr	r5, [r0, r3]
 956              	.LVL56:
 874:Generated_Source\PSoC4/ADC.c **** 
 875:Generated_Source\PSoC4/ADC.c ****         return( volts );
 957              		.loc 1 875 0
 958 0010 08B2     		sxth	r0, r1
 959 0012 FFF7FEFF 		bl	__aeabi_i2f
 960              	.LVL57:
 961 0016 0849     		ldr	r1, .L88+8
 962 0018 FFF7FEFF 		bl	__aeabi_fmul
 963              	.LVL58:
 964 001c 041C     		adds	r4, r0, #0
 965 001e 2800     		movs	r0, r5
 966 0020 FFF7FEFF 		bl	__aeabi_i2f
 967              	.LVL59:
 968 0024 011C     		adds	r1, r0, #0
 969 0026 201C     		adds	r0, r4, #0
 970 0028 FFF7FEFF 		bl	__aeabi_fdiv
 971              	.LVL60:
 876:Generated_Source\PSoC4/ADC.c ****     }
 972              		.loc 1 876 0
 973              		@ sp needed
 974 002c 70BD     		pop	{r4, r5, r6, pc}
 975              	.L89:
 976 002e C046     		.align	2
 977              	.L88:
 978 0030 00000000 		.word	ADC_offset
 979 0034 00000000 		.word	ADC_countsPer10Volt
 980 0038 00002041 		.word	1092616192
 981              		.cfi_endproc
 982              	.LFE18:
 983              		.size	ADC_CountsTo_Volts, .-ADC_CountsTo_Volts
 984              		.comm	ADC_countsPer10Volt,12,4
 985              		.comm	ADC_offset,6,2
 986              		.global	ADC_initVar
 987              		.section	.rodata
 988              		.align	2
 989              		.set	.LANCHOR0,. + 0
 990              		.type	ADC_channelsConfig, %object
 991              		.size	ADC_channelsConfig, 12
 992              	ADC_channelsConfig:
 993 0000 00040000 		.word	1024
 994 0004 00040000 		.word	1024
ARM GAS  C:\Users\Greg\AppData\Local\Temp\ccI9W9Nc.s 			page 35


 995 0008 00040000 		.word	1024
 996              		.type	ADC_InputsPlacement.4914, %object
 997              		.size	ADC_InputsPlacement.4914, 3
 998              	ADC_InputsPlacement.4914:
 999 000c 00       		.byte	0
 1000 000d 01       		.byte	1
 1001 000e 02       		.byte	2
 1002              		.bss
 1003              		.set	.LANCHOR1,. + 0
 1004              		.type	ADC_initVar, %object
 1005              		.size	ADC_initVar, 1
 1006              	ADC_initVar:
 1007 0000 00       		.space	1
 1008              		.text
 1009              	.Letext0:
 1010              		.file 2 "Generated_Source\\PSoC4\\cytypes.h"
 1011              		.file 3 "Generated_Source\\PSoC4\\CyLib.h"