ARM GAS  C:\Users\Greg\AppData\Local\Temp\ccpNA8xD.s 			page 1


   1              		.syntax unified
   2              		.cpu cortex-m0
   3              		.fpu softvfp
   4              		.eabi_attribute 20, 1
   5              		.eabi_attribute 21, 1
   6              		.eabi_attribute 23, 3
   7              		.eabi_attribute 24, 1
   8              		.eabi_attribute 25, 1
   9              		.eabi_attribute 26, 1
  10              		.eabi_attribute 30, 4
  11              		.eabi_attribute 34, 0
  12              		.eabi_attribute 18, 4
  13              		.thumb
  14              		.syntax unified
  15              		.file	"cyfitter_cfg.c"
  16              		.text
  17              	.Ltext0:
  18              		.cfi_sections	.debug_frame
  19              		.section	.text.SetAnalogRoutingPumps,"ax",%progbits
  20              		.align	1
  21              		.global	SetAnalogRoutingPumps
  22              		.code	16
  23              		.thumb_func
  24              		.type	SetAnalogRoutingPumps, %function
  25              	SetAnalogRoutingPumps:
  26              	.LFB7:
  27              		.file 1 "Generated_Source\\PSoC4\\cyfitter_cfg.c"
   1:Generated_Source\PSoC4/cyfitter_cfg.c **** 
   2:Generated_Source\PSoC4/cyfitter_cfg.c **** /*******************************************************************************
   3:Generated_Source\PSoC4/cyfitter_cfg.c **** * File Name: cyfitter_cfg.c
   4:Generated_Source\PSoC4/cyfitter_cfg.c **** * 
   5:Generated_Source\PSoC4/cyfitter_cfg.c **** * PSoC Creator  4.1 Nightly Build 2557
   6:Generated_Source\PSoC4/cyfitter_cfg.c **** *
   7:Generated_Source\PSoC4/cyfitter_cfg.c **** * Description:
   8:Generated_Source\PSoC4/cyfitter_cfg.c **** * This file contains device initialization code.
   9:Generated_Source\PSoC4/cyfitter_cfg.c **** * Except for the user defined sections in CyClockStartupError(), this file should not be modified.
  10:Generated_Source\PSoC4/cyfitter_cfg.c **** * This file is automatically generated by PSoC Creator.
  11:Generated_Source\PSoC4/cyfitter_cfg.c **** *
  12:Generated_Source\PSoC4/cyfitter_cfg.c **** ********************************************************************************
  13:Generated_Source\PSoC4/cyfitter_cfg.c **** * Copyright (c) 2007-2017 Cypress Semiconductor.  All rights reserved.
  14:Generated_Source\PSoC4/cyfitter_cfg.c **** * You may use this file only in accordance with the license, terms, conditions, 
  15:Generated_Source\PSoC4/cyfitter_cfg.c **** * disclaimers, and limitations in the end user license agreement accompanying 
  16:Generated_Source\PSoC4/cyfitter_cfg.c **** * the software package with which this file was provided.
  17:Generated_Source\PSoC4/cyfitter_cfg.c **** ********************************************************************************/
  18:Generated_Source\PSoC4/cyfitter_cfg.c **** 
  19:Generated_Source\PSoC4/cyfitter_cfg.c **** #include <string.h>
  20:Generated_Source\PSoC4/cyfitter_cfg.c **** #include "cytypes.h"
  21:Generated_Source\PSoC4/cyfitter_cfg.c **** #include "cydevice_trm.h"
  22:Generated_Source\PSoC4/cyfitter_cfg.c **** #include "cyfitter.h"
  23:Generated_Source\PSoC4/cyfitter_cfg.c **** #include "CyLib.h"
  24:Generated_Source\PSoC4/cyfitter_cfg.c **** #include "CyLFClk.h"
  25:Generated_Source\PSoC4/cyfitter_cfg.c **** #include "cyfitter_cfg.h"
  26:Generated_Source\PSoC4/cyfitter_cfg.c **** #include "cyapicallbacks.h"
  27:Generated_Source\PSoC4/cyfitter_cfg.c **** 
  28:Generated_Source\PSoC4/cyfitter_cfg.c **** 
  29:Generated_Source\PSoC4/cyfitter_cfg.c **** #if defined(__GNUC__) || defined(__ARMCC_VERSION)
  30:Generated_Source\PSoC4/cyfitter_cfg.c ****     #define CYPACKED 
ARM GAS  C:\Users\Greg\AppData\Local\Temp\ccpNA8xD.s 			page 2


  31:Generated_Source\PSoC4/cyfitter_cfg.c ****     #define CYPACKED_ATTR __attribute__ ((packed))
  32:Generated_Source\PSoC4/cyfitter_cfg.c ****     #define CYALIGNED __attribute__ ((aligned))
  33:Generated_Source\PSoC4/cyfitter_cfg.c ****     #define CY_CFG_UNUSED __attribute__ ((unused))
  34:Generated_Source\PSoC4/cyfitter_cfg.c ****     #ifndef CY_CFG_SECTION
  35:Generated_Source\PSoC4/cyfitter_cfg.c ****         #define CY_CFG_SECTION __attribute__ ((section(".psocinit")))
  36:Generated_Source\PSoC4/cyfitter_cfg.c ****     #endif
  37:Generated_Source\PSoC4/cyfitter_cfg.c ****     
  38:Generated_Source\PSoC4/cyfitter_cfg.c ****     #if defined(__ARMCC_VERSION)
  39:Generated_Source\PSoC4/cyfitter_cfg.c ****         #define CY_CFG_MEMORY_BARRIER() __memory_changed()
  40:Generated_Source\PSoC4/cyfitter_cfg.c ****     #else
  41:Generated_Source\PSoC4/cyfitter_cfg.c ****         #define CY_CFG_MEMORY_BARRIER() __sync_synchronize()
  42:Generated_Source\PSoC4/cyfitter_cfg.c ****     #endif
  43:Generated_Source\PSoC4/cyfitter_cfg.c ****     
  44:Generated_Source\PSoC4/cyfitter_cfg.c **** #elif defined(__ICCARM__)
  45:Generated_Source\PSoC4/cyfitter_cfg.c ****     #include <intrinsics.h>
  46:Generated_Source\PSoC4/cyfitter_cfg.c **** 
  47:Generated_Source\PSoC4/cyfitter_cfg.c ****     #define CYPACKED __packed
  48:Generated_Source\PSoC4/cyfitter_cfg.c ****     #define CYPACKED_ATTR 
  49:Generated_Source\PSoC4/cyfitter_cfg.c ****     #define CYALIGNED _Pragma("data_alignment=4")
  50:Generated_Source\PSoC4/cyfitter_cfg.c ****     #define CY_CFG_UNUSED _Pragma("diag_suppress=Pe177")
  51:Generated_Source\PSoC4/cyfitter_cfg.c ****     #define CY_CFG_SECTION _Pragma("location=\".psocinit\"")
  52:Generated_Source\PSoC4/cyfitter_cfg.c ****     
  53:Generated_Source\PSoC4/cyfitter_cfg.c ****     #define CY_CFG_MEMORY_BARRIER() __DMB()
  54:Generated_Source\PSoC4/cyfitter_cfg.c ****     
  55:Generated_Source\PSoC4/cyfitter_cfg.c **** #else
  56:Generated_Source\PSoC4/cyfitter_cfg.c ****     #error Unsupported toolchain
  57:Generated_Source\PSoC4/cyfitter_cfg.c **** #endif
  58:Generated_Source\PSoC4/cyfitter_cfg.c **** 
  59:Generated_Source\PSoC4/cyfitter_cfg.c **** #ifndef CYCODE
  60:Generated_Source\PSoC4/cyfitter_cfg.c ****     #define CYCODE
  61:Generated_Source\PSoC4/cyfitter_cfg.c **** #endif
  62:Generated_Source\PSoC4/cyfitter_cfg.c **** #ifndef CYDATA
  63:Generated_Source\PSoC4/cyfitter_cfg.c ****     #define CYDATA
  64:Generated_Source\PSoC4/cyfitter_cfg.c **** #endif
  65:Generated_Source\PSoC4/cyfitter_cfg.c **** #ifndef CYFAR
  66:Generated_Source\PSoC4/cyfitter_cfg.c ****     #define CYFAR
  67:Generated_Source\PSoC4/cyfitter_cfg.c **** #endif
  68:Generated_Source\PSoC4/cyfitter_cfg.c **** #ifndef CYXDATA
  69:Generated_Source\PSoC4/cyfitter_cfg.c ****     #define CYXDATA
  70:Generated_Source\PSoC4/cyfitter_cfg.c **** #endif
  71:Generated_Source\PSoC4/cyfitter_cfg.c **** 
  72:Generated_Source\PSoC4/cyfitter_cfg.c **** 
  73:Generated_Source\PSoC4/cyfitter_cfg.c **** CY_CFG_UNUSED
  74:Generated_Source\PSoC4/cyfitter_cfg.c **** static void CYMEMZERO(void *s, size_t n);
  75:Generated_Source\PSoC4/cyfitter_cfg.c **** CY_CFG_UNUSED
  76:Generated_Source\PSoC4/cyfitter_cfg.c **** static void CYMEMZERO(void *s, size_t n)
  77:Generated_Source\PSoC4/cyfitter_cfg.c **** {
  78:Generated_Source\PSoC4/cyfitter_cfg.c **** 	(void)memset(s, 0, n);
  79:Generated_Source\PSoC4/cyfitter_cfg.c **** }
  80:Generated_Source\PSoC4/cyfitter_cfg.c **** CY_CFG_UNUSED
  81:Generated_Source\PSoC4/cyfitter_cfg.c **** static void CYCONFIGCPY(void *dest, const void *src, size_t n);
  82:Generated_Source\PSoC4/cyfitter_cfg.c **** CY_CFG_UNUSED
  83:Generated_Source\PSoC4/cyfitter_cfg.c **** static void CYCONFIGCPY(void *dest, const void *src, size_t n)
  84:Generated_Source\PSoC4/cyfitter_cfg.c **** {
  85:Generated_Source\PSoC4/cyfitter_cfg.c **** 	(void)memcpy(dest, src, n);
  86:Generated_Source\PSoC4/cyfitter_cfg.c **** }
  87:Generated_Source\PSoC4/cyfitter_cfg.c **** CY_CFG_UNUSED
ARM GAS  C:\Users\Greg\AppData\Local\Temp\ccpNA8xD.s 			page 3


  88:Generated_Source\PSoC4/cyfitter_cfg.c **** static void CYCONFIGCPYCODE(void *dest, const void *src, size_t n);
  89:Generated_Source\PSoC4/cyfitter_cfg.c **** CY_CFG_UNUSED
  90:Generated_Source\PSoC4/cyfitter_cfg.c **** static void CYCONFIGCPYCODE(void *dest, const void *src, size_t n)
  91:Generated_Source\PSoC4/cyfitter_cfg.c **** {
  92:Generated_Source\PSoC4/cyfitter_cfg.c **** 	(void)memcpy(dest, src, n);
  93:Generated_Source\PSoC4/cyfitter_cfg.c **** }
  94:Generated_Source\PSoC4/cyfitter_cfg.c **** 
  95:Generated_Source\PSoC4/cyfitter_cfg.c **** 
  96:Generated_Source\PSoC4/cyfitter_cfg.c **** 
  97:Generated_Source\PSoC4/cyfitter_cfg.c **** 
  98:Generated_Source\PSoC4/cyfitter_cfg.c **** /* Clock startup error codes                                                   */
  99:Generated_Source\PSoC4/cyfitter_cfg.c **** #define CYCLOCKSTART_NO_ERROR    0u
 100:Generated_Source\PSoC4/cyfitter_cfg.c **** #define CYCLOCKSTART_XTAL_ERROR  1u
 101:Generated_Source\PSoC4/cyfitter_cfg.c **** #define CYCLOCKSTART_32KHZ_ERROR 2u
 102:Generated_Source\PSoC4/cyfitter_cfg.c **** #define CYCLOCKSTART_PLL_ERROR   3u
 103:Generated_Source\PSoC4/cyfitter_cfg.c **** #define CYCLOCKSTART_FLL_ERROR   4u
 104:Generated_Source\PSoC4/cyfitter_cfg.c **** 
 105:Generated_Source\PSoC4/cyfitter_cfg.c **** 
 106:Generated_Source\PSoC4/cyfitter_cfg.c **** #ifdef CY_NEED_CYCLOCKSTARTUPERROR
 107:Generated_Source\PSoC4/cyfitter_cfg.c **** /*******************************************************************************
 108:Generated_Source\PSoC4/cyfitter_cfg.c **** * Function Name: CyClockStartupError
 109:Generated_Source\PSoC4/cyfitter_cfg.c **** ********************************************************************************
 110:Generated_Source\PSoC4/cyfitter_cfg.c **** * Summary:
 111:Generated_Source\PSoC4/cyfitter_cfg.c **** *  If an error is encountered during clock configuration (crystal startup error,
 112:Generated_Source\PSoC4/cyfitter_cfg.c **** *  PLL lock error, etc.), the system will end up here.  Unless reimplemented by
 113:Generated_Source\PSoC4/cyfitter_cfg.c **** *  the customer, this function will stop in an infinite loop.
 114:Generated_Source\PSoC4/cyfitter_cfg.c **** *
 115:Generated_Source\PSoC4/cyfitter_cfg.c **** * Parameters:
 116:Generated_Source\PSoC4/cyfitter_cfg.c **** *   void
 117:Generated_Source\PSoC4/cyfitter_cfg.c **** *
 118:Generated_Source\PSoC4/cyfitter_cfg.c **** * Return:
 119:Generated_Source\PSoC4/cyfitter_cfg.c **** *   void
 120:Generated_Source\PSoC4/cyfitter_cfg.c **** *
 121:Generated_Source\PSoC4/cyfitter_cfg.c **** *******************************************************************************/
 122:Generated_Source\PSoC4/cyfitter_cfg.c **** CY_CFG_UNUSED
 123:Generated_Source\PSoC4/cyfitter_cfg.c **** static void CyClockStartupError(uint8 errorCode);
 124:Generated_Source\PSoC4/cyfitter_cfg.c **** CY_CFG_UNUSED
 125:Generated_Source\PSoC4/cyfitter_cfg.c **** static void CyClockStartupError(uint8 errorCode)
 126:Generated_Source\PSoC4/cyfitter_cfg.c **** {
 127:Generated_Source\PSoC4/cyfitter_cfg.c ****     /* To remove the compiler warning if errorCode not used.                */
 128:Generated_Source\PSoC4/cyfitter_cfg.c ****     errorCode = errorCode;
 129:Generated_Source\PSoC4/cyfitter_cfg.c **** 
 130:Generated_Source\PSoC4/cyfitter_cfg.c ****     /* If we have a clock startup error (bad MHz crystal, PLL lock, etc.),  */
 131:Generated_Source\PSoC4/cyfitter_cfg.c ****     /* we will end up here to allow the customer to implement something to  */
 132:Generated_Source\PSoC4/cyfitter_cfg.c ****     /* deal with the clock condition.                                       */
 133:Generated_Source\PSoC4/cyfitter_cfg.c **** 
 134:Generated_Source\PSoC4/cyfitter_cfg.c **** #ifdef CY_CFG_CLOCK_STARTUP_ERROR_CALLBACK
 135:Generated_Source\PSoC4/cyfitter_cfg.c ****     CY_CFG_Clock_Startup_ErrorCallback();
 136:Generated_Source\PSoC4/cyfitter_cfg.c **** #else
 137:Generated_Source\PSoC4/cyfitter_cfg.c ****     /*  If not using CY_CFG_CLOCK_STARTUP_ERROR_CALLBACK, place your clock startup code here. */
 138:Generated_Source\PSoC4/cyfitter_cfg.c ****     /* `#START CyClockStartupError` */
 139:Generated_Source\PSoC4/cyfitter_cfg.c **** 
 140:Generated_Source\PSoC4/cyfitter_cfg.c **** 
 141:Generated_Source\PSoC4/cyfitter_cfg.c **** 
 142:Generated_Source\PSoC4/cyfitter_cfg.c ****     /* `#END` */
 143:Generated_Source\PSoC4/cyfitter_cfg.c **** 
 144:Generated_Source\PSoC4/cyfitter_cfg.c ****     while(1) {}
ARM GAS  C:\Users\Greg\AppData\Local\Temp\ccpNA8xD.s 			page 4


 145:Generated_Source\PSoC4/cyfitter_cfg.c **** #endif /* CY_CFG_CLOCK_STARTUP_ERROR_CALLBACK */
 146:Generated_Source\PSoC4/cyfitter_cfg.c **** }
 147:Generated_Source\PSoC4/cyfitter_cfg.c **** #endif
 148:Generated_Source\PSoC4/cyfitter_cfg.c **** 
 149:Generated_Source\PSoC4/cyfitter_cfg.c **** #define CY_CFG_BASE_ADDR_COUNT 6u
 150:Generated_Source\PSoC4/cyfitter_cfg.c **** CYPACKED typedef struct
 151:Generated_Source\PSoC4/cyfitter_cfg.c **** {
 152:Generated_Source\PSoC4/cyfitter_cfg.c **** 	uint8 offset;
 153:Generated_Source\PSoC4/cyfitter_cfg.c **** 	uint8 value;
 154:Generated_Source\PSoC4/cyfitter_cfg.c **** } CYPACKED_ATTR cy_cfg_addrvalue_t;
 155:Generated_Source\PSoC4/cyfitter_cfg.c **** 
 156:Generated_Source\PSoC4/cyfitter_cfg.c **** 
 157:Generated_Source\PSoC4/cyfitter_cfg.c **** 
 158:Generated_Source\PSoC4/cyfitter_cfg.c **** /*******************************************************************************
 159:Generated_Source\PSoC4/cyfitter_cfg.c **** * Function Name: cfg_write_bytes32
 160:Generated_Source\PSoC4/cyfitter_cfg.c **** ********************************************************************************
 161:Generated_Source\PSoC4/cyfitter_cfg.c **** * Summary:
 162:Generated_Source\PSoC4/cyfitter_cfg.c **** *  This function is used for setting up the chip configuration areas that
 163:Generated_Source\PSoC4/cyfitter_cfg.c **** *  contain relatively sparse data.
 164:Generated_Source\PSoC4/cyfitter_cfg.c **** *
 165:Generated_Source\PSoC4/cyfitter_cfg.c **** * Parameters:
 166:Generated_Source\PSoC4/cyfitter_cfg.c **** *   void
 167:Generated_Source\PSoC4/cyfitter_cfg.c **** *
 168:Generated_Source\PSoC4/cyfitter_cfg.c **** * Return:
 169:Generated_Source\PSoC4/cyfitter_cfg.c **** *   void
 170:Generated_Source\PSoC4/cyfitter_cfg.c **** *
 171:Generated_Source\PSoC4/cyfitter_cfg.c **** *******************************************************************************/
 172:Generated_Source\PSoC4/cyfitter_cfg.c **** static void cfg_write_bytes32(const uint32 addr_table[], const cy_cfg_addrvalue_t data_table[]);
 173:Generated_Source\PSoC4/cyfitter_cfg.c **** static void cfg_write_bytes32(const uint32 addr_table[], const cy_cfg_addrvalue_t data_table[])
 174:Generated_Source\PSoC4/cyfitter_cfg.c **** {
 175:Generated_Source\PSoC4/cyfitter_cfg.c **** 	/* For 32-bit little-endian architectures */
 176:Generated_Source\PSoC4/cyfitter_cfg.c **** 	uint32 i, j = 0u;
 177:Generated_Source\PSoC4/cyfitter_cfg.c **** 	for (i = 0u; i < CY_CFG_BASE_ADDR_COUNT; i++)
 178:Generated_Source\PSoC4/cyfitter_cfg.c **** 	{
 179:Generated_Source\PSoC4/cyfitter_cfg.c **** 		uint32 baseAddr = addr_table[i];
 180:Generated_Source\PSoC4/cyfitter_cfg.c **** 		uint8 count = (uint8)baseAddr;
 181:Generated_Source\PSoC4/cyfitter_cfg.c **** 		baseAddr &= 0xFFFFFF00u;
 182:Generated_Source\PSoC4/cyfitter_cfg.c **** 		while (count != 0u)
 183:Generated_Source\PSoC4/cyfitter_cfg.c **** 		{
 184:Generated_Source\PSoC4/cyfitter_cfg.c **** 			CY_SET_REG8((void *)(baseAddr + data_table[j].offset), data_table[j].value);
 185:Generated_Source\PSoC4/cyfitter_cfg.c **** 			j++;
 186:Generated_Source\PSoC4/cyfitter_cfg.c **** 			count--;
 187:Generated_Source\PSoC4/cyfitter_cfg.c **** 		}
 188:Generated_Source\PSoC4/cyfitter_cfg.c **** 	}
 189:Generated_Source\PSoC4/cyfitter_cfg.c **** }
 190:Generated_Source\PSoC4/cyfitter_cfg.c **** 
 191:Generated_Source\PSoC4/cyfitter_cfg.c **** 
 192:Generated_Source\PSoC4/cyfitter_cfg.c **** /*******************************************************************************
 193:Generated_Source\PSoC4/cyfitter_cfg.c **** * Function Name: ClockSetup
 194:Generated_Source\PSoC4/cyfitter_cfg.c **** ********************************************************************************
 195:Generated_Source\PSoC4/cyfitter_cfg.c **** *
 196:Generated_Source\PSoC4/cyfitter_cfg.c **** * Summary:
 197:Generated_Source\PSoC4/cyfitter_cfg.c **** *   Performs the initialization of all of the clocks in the device based on the
 198:Generated_Source\PSoC4/cyfitter_cfg.c **** *   settings in the Clock tab of the DWR.  This includes enabling the requested
 199:Generated_Source\PSoC4/cyfitter_cfg.c **** *   clocks and setting the necessary dividers to produce the desired frequency. 
 200:Generated_Source\PSoC4/cyfitter_cfg.c **** *
 201:Generated_Source\PSoC4/cyfitter_cfg.c **** * Parameters:
ARM GAS  C:\Users\Greg\AppData\Local\Temp\ccpNA8xD.s 			page 5


 202:Generated_Source\PSoC4/cyfitter_cfg.c **** *   void
 203:Generated_Source\PSoC4/cyfitter_cfg.c **** *
 204:Generated_Source\PSoC4/cyfitter_cfg.c **** * Return:
 205:Generated_Source\PSoC4/cyfitter_cfg.c **** *   void
 206:Generated_Source\PSoC4/cyfitter_cfg.c **** *
 207:Generated_Source\PSoC4/cyfitter_cfg.c **** *******************************************************************************/
 208:Generated_Source\PSoC4/cyfitter_cfg.c **** static void ClockSetup(void);
 209:Generated_Source\PSoC4/cyfitter_cfg.c **** CY_CFG_SECTION
 210:Generated_Source\PSoC4/cyfitter_cfg.c **** static void ClockSetup(void)
 211:Generated_Source\PSoC4/cyfitter_cfg.c **** {
 212:Generated_Source\PSoC4/cyfitter_cfg.c **** 
 213:Generated_Source\PSoC4/cyfitter_cfg.c **** 	/* Set Flash Cycles based on max possible frequency in case a glitch occurs during ClockSetup(). *
 214:Generated_Source\PSoC4/cyfitter_cfg.c **** 	CY_SET_REG32((void CYXDATA *)(CYREG_CPUSS_FLASH_CTL), (0x0012u));
 215:Generated_Source\PSoC4/cyfitter_cfg.c **** 	/* Setup and trim IMO based on desired frequency. */
 216:Generated_Source\PSoC4/cyfitter_cfg.c **** 	CySysClkWriteImoFreq(48u);
 217:Generated_Source\PSoC4/cyfitter_cfg.c **** 	/* CYDEV_CLK_ILO_CONFIG Starting address: CYDEV_CLK_ILO_CONFIG */
 218:Generated_Source\PSoC4/cyfitter_cfg.c **** 	CY_SET_REG32((void *)(CYREG_CLK_ILO_CONFIG), 0x80000006u);
 219:Generated_Source\PSoC4/cyfitter_cfg.c **** 
 220:Generated_Source\PSoC4/cyfitter_cfg.c **** 
 221:Generated_Source\PSoC4/cyfitter_cfg.c **** 	/* Setup phase aligned clocks */
 222:Generated_Source\PSoC4/cyfitter_cfg.c **** 	CY_SET_REG32((void *)CYREG_PERI_DIV_16_CTL2, 0x00927B00u);
 223:Generated_Source\PSoC4/cyfitter_cfg.c **** 	CY_SET_REG32((void *)CYREG_PERI_DIV_CMD, 0x8000FF42u);
 224:Generated_Source\PSoC4/cyfitter_cfg.c **** 	CY_SET_REG32((void *)CYREG_PERI_DIV_16_CTL0, 0x00001D00u);
 225:Generated_Source\PSoC4/cyfitter_cfg.c **** 	CY_SET_REG32((void *)CYREG_PERI_DIV_CMD, 0x8000FF40u);
 226:Generated_Source\PSoC4/cyfitter_cfg.c **** 	CY_SET_REG32((void *)CYREG_PERI_DIV_16_CTL1, 0x00001D00u);
 227:Generated_Source\PSoC4/cyfitter_cfg.c **** 	CY_SET_REG32((void *)CYREG_PERI_DIV_CMD, 0x8000FF41u);
 228:Generated_Source\PSoC4/cyfitter_cfg.c **** 
 229:Generated_Source\PSoC4/cyfitter_cfg.c **** 	/* CYDEV_CLK_IMO_CONFIG Starting address: CYDEV_CLK_IMO_CONFIG */
 230:Generated_Source\PSoC4/cyfitter_cfg.c **** 	CY_SET_REG32((void *)(CYREG_CLK_IMO_CONFIG), 0x82000000u);
 231:Generated_Source\PSoC4/cyfitter_cfg.c **** 
 232:Generated_Source\PSoC4/cyfitter_cfg.c **** 	/* CYDEV_CLK_SELECT Starting address: CYDEV_CLK_SELECT */
 233:Generated_Source\PSoC4/cyfitter_cfg.c **** 	CY_SET_REG32((void *)(CYREG_CLK_SELECT), 0x00040000u);
 234:Generated_Source\PSoC4/cyfitter_cfg.c **** 
 235:Generated_Source\PSoC4/cyfitter_cfg.c **** 	/* CYDEV_PERI_PCLK_CTL11 Starting address: CYDEV_PERI_PCLK_CTL11 */
 236:Generated_Source\PSoC4/cyfitter_cfg.c **** 	CY_SET_REG32((void *)(CYREG_PERI_PCLK_CTL11), 0x00000042u);
 237:Generated_Source\PSoC4/cyfitter_cfg.c **** 
 238:Generated_Source\PSoC4/cyfitter_cfg.c **** 	/* CYDEV_PERI_PCLK_CTL10 Starting address: CYDEV_PERI_PCLK_CTL10 */
 239:Generated_Source\PSoC4/cyfitter_cfg.c **** 	CY_SET_REG32((void *)(CYREG_PERI_PCLK_CTL10), 0x00000040u);
 240:Generated_Source\PSoC4/cyfitter_cfg.c **** 
 241:Generated_Source\PSoC4/cyfitter_cfg.c **** 	/* CYDEV_PERI_PCLK_CTL2 Starting address: CYDEV_PERI_PCLK_CTL2 */
 242:Generated_Source\PSoC4/cyfitter_cfg.c **** 	CY_SET_REG32((void *)(CYREG_PERI_PCLK_CTL2), 0x00000041u);
 243:Generated_Source\PSoC4/cyfitter_cfg.c **** 
 244:Generated_Source\PSoC4/cyfitter_cfg.c **** 	(void)CyIntSetVector(7u, &CySysWdtIsr);
 245:Generated_Source\PSoC4/cyfitter_cfg.c **** 	CyIntEnable(7u);
 246:Generated_Source\PSoC4/cyfitter_cfg.c **** 	CY_SET_REG32((void *)(CYREG_WDT_CONFIG), 0x00000000u);
 247:Generated_Source\PSoC4/cyfitter_cfg.c **** }
 248:Generated_Source\PSoC4/cyfitter_cfg.c **** 
 249:Generated_Source\PSoC4/cyfitter_cfg.c **** 
 250:Generated_Source\PSoC4/cyfitter_cfg.c **** /* Analog API Functions */
 251:Generated_Source\PSoC4/cyfitter_cfg.c **** 
 252:Generated_Source\PSoC4/cyfitter_cfg.c **** 
 253:Generated_Source\PSoC4/cyfitter_cfg.c **** /*******************************************************************************
 254:Generated_Source\PSoC4/cyfitter_cfg.c **** * Function Name: AnalogSetDefault
 255:Generated_Source\PSoC4/cyfitter_cfg.c **** ********************************************************************************
 256:Generated_Source\PSoC4/cyfitter_cfg.c **** *
 257:Generated_Source\PSoC4/cyfitter_cfg.c **** * Summary:
 258:Generated_Source\PSoC4/cyfitter_cfg.c **** *  Sets up the analog portions of the chip to default values based on chip
ARM GAS  C:\Users\Greg\AppData\Local\Temp\ccpNA8xD.s 			page 6


 259:Generated_Source\PSoC4/cyfitter_cfg.c **** *  configuration options from the project.
 260:Generated_Source\PSoC4/cyfitter_cfg.c **** *
 261:Generated_Source\PSoC4/cyfitter_cfg.c **** * Parameters:
 262:Generated_Source\PSoC4/cyfitter_cfg.c **** *  void
 263:Generated_Source\PSoC4/cyfitter_cfg.c **** *
 264:Generated_Source\PSoC4/cyfitter_cfg.c **** * Return:
 265:Generated_Source\PSoC4/cyfitter_cfg.c **** *  void
 266:Generated_Source\PSoC4/cyfitter_cfg.c **** *
 267:Generated_Source\PSoC4/cyfitter_cfg.c **** *******************************************************************************/
 268:Generated_Source\PSoC4/cyfitter_cfg.c **** static void AnalogSetDefault(void);
 269:Generated_Source\PSoC4/cyfitter_cfg.c **** static void AnalogSetDefault(void)
 270:Generated_Source\PSoC4/cyfitter_cfg.c **** {
 271:Generated_Source\PSoC4/cyfitter_cfg.c **** 	CY_SET_XTND_REG32((void CYFAR *)CYREG_CTBM0_DFT_CTRL, 0x00000003u);
 272:Generated_Source\PSoC4/cyfitter_cfg.c **** 	CY_SET_XTND_REG32((void CYFAR *)CYREG_CTBM1_DFT_CTRL, 0x00000003u);
 273:Generated_Source\PSoC4/cyfitter_cfg.c **** 	CY_SET_XTND_REG32((void CYFAR *)CYREG_SAR_CTRL, 0x80000000u);
 274:Generated_Source\PSoC4/cyfitter_cfg.c **** 	CY_SET_XTND_REG32((void CYFAR *)CYREG_SAR_MUX_SWITCH0, 0x00000007u);
 275:Generated_Source\PSoC4/cyfitter_cfg.c **** 	CY_SET_XTND_REG32((void CYFAR *)CYREG_SAR_MUX_SWITCH_HW_CTRL, 0x00000007u);
 276:Generated_Source\PSoC4/cyfitter_cfg.c **** 	CY_SET_XTND_REG32((void CYFAR *)CYREG_PASS_DSAB_DSAB_CTRL, 0x00000000u);
 277:Generated_Source\PSoC4/cyfitter_cfg.c **** 	SetAnalogRoutingPumps(1);
 278:Generated_Source\PSoC4/cyfitter_cfg.c **** }
 279:Generated_Source\PSoC4/cyfitter_cfg.c **** 
 280:Generated_Source\PSoC4/cyfitter_cfg.c **** 
 281:Generated_Source\PSoC4/cyfitter_cfg.c **** /*******************************************************************************
 282:Generated_Source\PSoC4/cyfitter_cfg.c **** * Function Name: SetAnalogRoutingPumps
 283:Generated_Source\PSoC4/cyfitter_cfg.c **** ********************************************************************************
 284:Generated_Source\PSoC4/cyfitter_cfg.c **** *
 285:Generated_Source\PSoC4/cyfitter_cfg.c **** * Summary:
 286:Generated_Source\PSoC4/cyfitter_cfg.c **** * Enables or disables the analog pumps feeding analog routing switches.
 287:Generated_Source\PSoC4/cyfitter_cfg.c **** * Intended to be called at startup, based on the Vdda system configuration;
 288:Generated_Source\PSoC4/cyfitter_cfg.c **** * may be called during operation when the user informs us that the Vdda voltage crossed the pump th
 289:Generated_Source\PSoC4/cyfitter_cfg.c **** *
 290:Generated_Source\PSoC4/cyfitter_cfg.c **** * Parameters:
 291:Generated_Source\PSoC4/cyfitter_cfg.c **** *  enabled - 1 to enable the pumps, 0 to disable the pumps
 292:Generated_Source\PSoC4/cyfitter_cfg.c **** *
 293:Generated_Source\PSoC4/cyfitter_cfg.c **** * Return:
 294:Generated_Source\PSoC4/cyfitter_cfg.c **** *  void
 295:Generated_Source\PSoC4/cyfitter_cfg.c **** *
 296:Generated_Source\PSoC4/cyfitter_cfg.c **** *******************************************************************************/
 297:Generated_Source\PSoC4/cyfitter_cfg.c **** void SetAnalogRoutingPumps(uint8 enabled)
 298:Generated_Source\PSoC4/cyfitter_cfg.c **** {
  28              		.loc 1 298 0
  29              		.cfi_startproc
  30              		@ args = 0, pretend = 0, frame = 0
  31              		@ frame_needed = 0, uses_anonymous_args = 0
  32              		@ link register save eliminated.
  33              	.LVL0:
 299:Generated_Source\PSoC4/cyfitter_cfg.c **** 	uint32 regValue = CY_GET_XTND_REG32((void *)(CYREG_SAR_PUMP_CTRL));
  34              		.loc 1 299 0
  35 0000 054A     		ldr	r2, .L5
  36 0002 1368     		ldr	r3, [r2]
  37              	.LVL1:
 300:Generated_Source\PSoC4/cyfitter_cfg.c **** 	if (enabled != 0u)
  38              		.loc 1 300 0
  39 0004 0028     		cmp	r0, #0
  40 0006 03D0     		beq	.L2
 301:Generated_Source\PSoC4/cyfitter_cfg.c **** 	{
 302:Generated_Source\PSoC4/cyfitter_cfg.c **** 		regValue |= 0x80000000u;
ARM GAS  C:\Users\Greg\AppData\Local\Temp\ccpNA8xD.s 			page 7


  41              		.loc 1 302 0
  42 0008 8021     		movs	r1, #128
  43 000a 0906     		lsls	r1, r1, #24
  44 000c 0B43     		orrs	r3, r1
  45              	.LVL2:
  46 000e 01E0     		b	.L3
  47              	.L2:
 303:Generated_Source\PSoC4/cyfitter_cfg.c **** 	}
 304:Generated_Source\PSoC4/cyfitter_cfg.c **** 	else
 305:Generated_Source\PSoC4/cyfitter_cfg.c **** 	{
 306:Generated_Source\PSoC4/cyfitter_cfg.c **** 		regValue &= ~0x80000000u;
  48              		.loc 1 306 0
  49 0010 5B00     		lsls	r3, r3, #1
  50              	.LVL3:
  51 0012 5B08     		lsrs	r3, r3, #1
  52              	.LVL4:
  53              	.L3:
 307:Generated_Source\PSoC4/cyfitter_cfg.c **** 	}
 308:Generated_Source\PSoC4/cyfitter_cfg.c **** 	CY_SET_XTND_REG32((void *)(CYREG_SAR_PUMP_CTRL), regValue);
  54              		.loc 1 308 0
  55 0014 1360     		str	r3, [r2]
 309:Generated_Source\PSoC4/cyfitter_cfg.c **** }
  56              		.loc 1 309 0
  57              		@ sp needed
  58 0016 7047     		bx	lr
  59              	.L6:
  60              		.align	2
  61              	.L5:
  62 0018 80033A40 		.word	1077543808
  63              		.cfi_endproc
  64              	.LFE7:
  65              		.size	SetAnalogRoutingPumps, .-SetAnalogRoutingPumps
  66              		.section	.psocinit,"ax",%progbits
  67              		.align	1
  68              		.global	cyfitter_cfg
  69              		.code	16
  70              		.thumb_func
  71              		.type	cyfitter_cfg, %function
  72              	cyfitter_cfg:
  73              	.LFB8:
 310:Generated_Source\PSoC4/cyfitter_cfg.c **** 
 311:Generated_Source\PSoC4/cyfitter_cfg.c **** #define CY_AMUX_UNUSED CYREG_CM0_ROM_DWT
 312:Generated_Source\PSoC4/cyfitter_cfg.c **** 
 313:Generated_Source\PSoC4/cyfitter_cfg.c **** 
 314:Generated_Source\PSoC4/cyfitter_cfg.c **** /*******************************************************************************
 315:Generated_Source\PSoC4/cyfitter_cfg.c **** * Function Name: cyfitter_cfg
 316:Generated_Source\PSoC4/cyfitter_cfg.c **** ********************************************************************************
 317:Generated_Source\PSoC4/cyfitter_cfg.c **** * Summary:
 318:Generated_Source\PSoC4/cyfitter_cfg.c **** *  This function is called by the start-up code for the selected device. It
 319:Generated_Source\PSoC4/cyfitter_cfg.c **** *  performs all of the necessary device configuration based on the design
 320:Generated_Source\PSoC4/cyfitter_cfg.c **** *  settings.  This includes settings from the Design Wide Resources (DWR) such
 321:Generated_Source\PSoC4/cyfitter_cfg.c **** *  as Clocks and Pins as well as any component configuration that is necessary.
 322:Generated_Source\PSoC4/cyfitter_cfg.c **** *
 323:Generated_Source\PSoC4/cyfitter_cfg.c **** * Parameters:
 324:Generated_Source\PSoC4/cyfitter_cfg.c **** *   void
 325:Generated_Source\PSoC4/cyfitter_cfg.c **** *
 326:Generated_Source\PSoC4/cyfitter_cfg.c **** * Return:
ARM GAS  C:\Users\Greg\AppData\Local\Temp\ccpNA8xD.s 			page 8


 327:Generated_Source\PSoC4/cyfitter_cfg.c **** *   void
 328:Generated_Source\PSoC4/cyfitter_cfg.c **** *
 329:Generated_Source\PSoC4/cyfitter_cfg.c **** *******************************************************************************/
 330:Generated_Source\PSoC4/cyfitter_cfg.c **** CY_CFG_SECTION
 331:Generated_Source\PSoC4/cyfitter_cfg.c **** void cyfitter_cfg(void)
 332:Generated_Source\PSoC4/cyfitter_cfg.c **** {
  74              		.loc 1 332 0
  75              		.cfi_startproc
  76              		@ args = 0, pretend = 0, frame = 8
  77              		@ frame_needed = 0, uses_anonymous_args = 0
  78 0000 F7B5     		push	{r0, r1, r2, r4, r5, r6, r7, lr}
  79              		.cfi_def_cfa_offset 32
  80              		.cfi_offset 0, -32
  81              		.cfi_offset 1, -28
  82              		.cfi_offset 2, -24
  83              		.cfi_offset 4, -20
  84              		.cfi_offset 5, -16
  85              		.cfi_offset 6, -12
  86              		.cfi_offset 7, -8
  87              		.cfi_offset 14, -4
 333:Generated_Source\PSoC4/cyfitter_cfg.c **** 	/* Disable interrupts by default. Let user enable if/when they want. */
 334:Generated_Source\PSoC4/cyfitter_cfg.c **** 	CyGlobalIntDisable;
  88              		.loc 1 334 0
  89              		.syntax divided
  90              	@ 334 "Generated_Source\PSoC4\cyfitter_cfg.c" 1
  91 0002 72B6     		CPSID   i
  92              	@ 0 "" 2
  93              	.LVL5:
  94              		.thumb
  95              		.syntax unified
  96              	.LBB14:
  97              	.LBB15:
  98              	.LBB16:
  99              	.LBB17:
  78:Generated_Source\PSoC4/cyfitter_cfg.c **** }
 100              		.loc 1 78 0
 101 0004 8022     		movs	r2, #128
 102 0006 0021     		movs	r1, #0
 103 0008 D200     		lsls	r2, r2, #3
 104 000a 5E48     		ldr	r0, .L13
 105 000c FFF7FEFF 		bl	memset
 106              	.LVL6:
 107 0010 8022     		movs	r2, #128
 108 0012 0021     		movs	r1, #0
 109 0014 D200     		lsls	r2, r2, #3
 110 0016 5C48     		ldr	r0, .L13+4
 111 0018 FFF7FEFF 		bl	memset
 112              	.LVL7:
 113 001c 0022     		movs	r2, #0
 114              	.LBE17:
 115              	.LBE16:
 116              	.LBE15:
 117              	.LBB20:
 118              	.LBB21:
 119              	.LBB22:
 181:Generated_Source\PSoC4/cyfitter_cfg.c **** 		while (count != 0u)
 120              		.loc 1 181 0
ARM GAS  C:\Users\Greg\AppData\Local\Temp\ccpNA8xD.s 			page 9


 121 001e FF25     		movs	r5, #255
 122              	.LBE22:
 123              	.LBE21:
 124              	.LBE20:
 125              	.LBB25:
 126              	.LBB19:
 127              	.LBB18:
  78:Generated_Source\PSoC4/cyfitter_cfg.c **** }
 128              		.loc 1 78 0
 129 0020 1100     		movs	r1, r2
 130 0022 5A4E     		ldr	r6, .L13+8
 131 0024 1836     		adds	r6, r6, #24
 132              	.LVL8:
 133              	.L10:
 134              	.LBE18:
 135              	.LBE19:
 136              	.LBE25:
 137              	.LBB26:
 138              	.LBB24:
 139              	.LBB23:
 179:Generated_Source\PSoC4/cyfitter_cfg.c **** 		uint8 count = (uint8)baseAddr;
 140              		.loc 1 179 0
 141 0026 594B     		ldr	r3, .L13+8
 142 0028 D058     		ldr	r0, [r2, r3]
 143              	.LVL9:
 144 002a 4B00     		lsls	r3, r1, #1
 181:Generated_Source\PSoC4/cyfitter_cfg.c **** 		while (count != 0u)
 145              		.loc 1 181 0
 146 002c 0700     		movs	r7, r0
 147 002e 2840     		ands	r0, r5
 148              	.LVL10:
 149 0030 0918     		adds	r1, r1, r0
 150              	.LVL11:
 151 0032 4800     		lsls	r0, r1, #1
 152 0034 0130     		adds	r0, r0, #1
 153 0036 0133     		adds	r3, r3, #1
 154 0038 3018     		adds	r0, r6, r0
 155 003a AF43     		bics	r7, r5
 156              	.LVL12:
 157 003c F318     		adds	r3, r6, r3
 158 003e 0190     		str	r0, [sp, #4]
 159              	.LVL13:
 160              	.L8:
 182:Generated_Source\PSoC4/cyfitter_cfg.c **** 		{
 161              		.loc 1 182 0
 162 0040 0198     		ldr	r0, [sp, #4]
 163 0042 8342     		cmp	r3, r0
 164 0044 07D0     		beq	.L12
 184:Generated_Source\PSoC4/cyfitter_cfg.c **** 			j++;
 165              		.loc 1 184 0
 166 0046 581E     		subs	r0, r3, #1
 167 0048 0078     		ldrb	r0, [r0]
 168 004a C019     		adds	r0, r0, r7
 169 004c 0400     		movs	r4, r0
 170 004e 1878     		ldrb	r0, [r3]
 171 0050 0233     		adds	r3, r3, #2
 172 0052 2070     		strb	r0, [r4]
ARM GAS  C:\Users\Greg\AppData\Local\Temp\ccpNA8xD.s 			page 10


 173 0054 F4E7     		b	.L8
 174              	.L12:
 175              	.LVL14:
 176 0056 0432     		adds	r2, r2, #4
 177              	.LBE23:
 177:Generated_Source\PSoC4/cyfitter_cfg.c **** 	{
 178              		.loc 1 177 0
 179 0058 182A     		cmp	r2, #24
 180 005a E4D1     		bne	.L10
 181              	.LVL15:
 182              	.LBE24:
 183              	.LBE26:
 335:Generated_Source\PSoC4/cyfitter_cfg.c **** 
 336:Generated_Source\PSoC4/cyfitter_cfg.c **** 	{
 337:Generated_Source\PSoC4/cyfitter_cfg.c **** 		static const uint32 CYCODE cy_cfg_addr_table[] = {
 338:Generated_Source\PSoC4/cyfitter_cfg.c **** 			0x400F3207u, /* Base address: 0x400F3200 Count: 7 */
 339:Generated_Source\PSoC4/cyfitter_cfg.c **** 			0x400F330Bu, /* Base address: 0x400F3300 Count: 11 */
 340:Generated_Source\PSoC4/cyfitter_cfg.c **** 			0x400F4004u, /* Base address: 0x400F4000 Count: 4 */
 341:Generated_Source\PSoC4/cyfitter_cfg.c **** 			0x400F410Cu, /* Base address: 0x400F4100 Count: 12 */
 342:Generated_Source\PSoC4/cyfitter_cfg.c **** 			0x400F4202u, /* Base address: 0x400F4200 Count: 2 */
 343:Generated_Source\PSoC4/cyfitter_cfg.c **** 			0x400F4303u, /* Base address: 0x400F4300 Count: 3 */
 344:Generated_Source\PSoC4/cyfitter_cfg.c **** 		};
 345:Generated_Source\PSoC4/cyfitter_cfg.c **** 
 346:Generated_Source\PSoC4/cyfitter_cfg.c **** 		static const cy_cfg_addrvalue_t CYCODE cy_cfg_data_table[] = {
 347:Generated_Source\PSoC4/cyfitter_cfg.c **** 			{0x04u, 0x01u},
 348:Generated_Source\PSoC4/cyfitter_cfg.c **** 			{0x10u, 0x02u},
 349:Generated_Source\PSoC4/cyfitter_cfg.c **** 			{0x34u, 0x01u},
 350:Generated_Source\PSoC4/cyfitter_cfg.c **** 			{0x36u, 0x02u},
 351:Generated_Source\PSoC4/cyfitter_cfg.c **** 			{0x3Eu, 0x50u},
 352:Generated_Source\PSoC4/cyfitter_cfg.c **** 			{0x58u, 0x04u},
 353:Generated_Source\PSoC4/cyfitter_cfg.c **** 			{0x5Fu, 0x01u},
 354:Generated_Source\PSoC4/cyfitter_cfg.c **** 			{0x04u, 0x04u},
 355:Generated_Source\PSoC4/cyfitter_cfg.c **** 			{0x0Fu, 0x80u},
 356:Generated_Source\PSoC4/cyfitter_cfg.c **** 			{0x1Du, 0x10u},
 357:Generated_Source\PSoC4/cyfitter_cfg.c **** 			{0x1Fu, 0x80u},
 358:Generated_Source\PSoC4/cyfitter_cfg.c **** 			{0x83u, 0x40u},
 359:Generated_Source\PSoC4/cyfitter_cfg.c **** 			{0x87u, 0x80u},
 360:Generated_Source\PSoC4/cyfitter_cfg.c **** 			{0x8Cu, 0x04u},
 361:Generated_Source\PSoC4/cyfitter_cfg.c **** 			{0x8Du, 0x10u},
 362:Generated_Source\PSoC4/cyfitter_cfg.c **** 			{0xC0u, 0x20u},
 363:Generated_Source\PSoC4/cyfitter_cfg.c **** 			{0xC2u, 0x10u},
 364:Generated_Source\PSoC4/cyfitter_cfg.c **** 			{0xE4u, 0x40u},
 365:Generated_Source\PSoC4/cyfitter_cfg.c **** 			{0x0Eu, 0x08u},
 366:Generated_Source\PSoC4/cyfitter_cfg.c **** 			{0x57u, 0x20u},
 367:Generated_Source\PSoC4/cyfitter_cfg.c **** 			{0xC2u, 0x80u},
 368:Generated_Source\PSoC4/cyfitter_cfg.c **** 			{0xD4u, 0x40u},
 369:Generated_Source\PSoC4/cyfitter_cfg.c **** 			{0x04u, 0x20u},
 370:Generated_Source\PSoC4/cyfitter_cfg.c **** 			{0x07u, 0x10u},
 371:Generated_Source\PSoC4/cyfitter_cfg.c **** 			{0x4Au, 0x04u},
 372:Generated_Source\PSoC4/cyfitter_cfg.c **** 			{0x83u, 0x10u},
 373:Generated_Source\PSoC4/cyfitter_cfg.c **** 			{0x87u, 0x20u},
 374:Generated_Source\PSoC4/cyfitter_cfg.c **** 			{0x8Cu, 0x10u},
 375:Generated_Source\PSoC4/cyfitter_cfg.c **** 			{0xA2u, 0x04u},
 376:Generated_Source\PSoC4/cyfitter_cfg.c **** 			{0xA7u, 0x20u},
 377:Generated_Source\PSoC4/cyfitter_cfg.c **** 			{0xC0u, 0xA0u},
 378:Generated_Source\PSoC4/cyfitter_cfg.c **** 			{0xD2u, 0x10u},
 379:Generated_Source\PSoC4/cyfitter_cfg.c **** 			{0xE0u, 0x20u},
ARM GAS  C:\Users\Greg\AppData\Local\Temp\ccpNA8xD.s 			page 11


 380:Generated_Source\PSoC4/cyfitter_cfg.c **** 			{0xE6u, 0x10u},
 381:Generated_Source\PSoC4/cyfitter_cfg.c **** 			{0x60u, 0x20u},
 382:Generated_Source\PSoC4/cyfitter_cfg.c **** 			{0xD8u, 0x02u},
 383:Generated_Source\PSoC4/cyfitter_cfg.c **** 			{0x8Cu, 0x20u},
 384:Generated_Source\PSoC4/cyfitter_cfg.c **** 			{0x9Cu, 0x20u},
 385:Generated_Source\PSoC4/cyfitter_cfg.c **** 			{0xE0u, 0x02u},
 386:Generated_Source\PSoC4/cyfitter_cfg.c **** 		};
 387:Generated_Source\PSoC4/cyfitter_cfg.c **** 
 388:Generated_Source\PSoC4/cyfitter_cfg.c **** 
 389:Generated_Source\PSoC4/cyfitter_cfg.c **** 
 390:Generated_Source\PSoC4/cyfitter_cfg.c **** 		CYPACKED typedef struct {
 391:Generated_Source\PSoC4/cyfitter_cfg.c **** 			void CYFAR *address;
 392:Generated_Source\PSoC4/cyfitter_cfg.c **** 			uint16 size;
 393:Generated_Source\PSoC4/cyfitter_cfg.c **** 		} CYPACKED_ATTR cfg_memset_t;
 394:Generated_Source\PSoC4/cyfitter_cfg.c **** 
 395:Generated_Source\PSoC4/cyfitter_cfg.c **** 		static const cfg_memset_t CYCODE cfg_memset_list[] = {
 396:Generated_Source\PSoC4/cyfitter_cfg.c **** 			/* address, size */
 397:Generated_Source\PSoC4/cyfitter_cfg.c **** 			{(void CYFAR *)(CYDEV_UDB_P0_U0_BASE), 1024u},
 398:Generated_Source\PSoC4/cyfitter_cfg.c **** 			{(void CYFAR *)(CYDEV_UDB_DSI0_BASE), 1024u},
 399:Generated_Source\PSoC4/cyfitter_cfg.c **** 		};
 400:Generated_Source\PSoC4/cyfitter_cfg.c **** 
 401:Generated_Source\PSoC4/cyfitter_cfg.c **** 		uint8 CYDATA i;
 402:Generated_Source\PSoC4/cyfitter_cfg.c **** 
 403:Generated_Source\PSoC4/cyfitter_cfg.c **** 		/* Zero out critical memory blocks before beginning configuration */
 404:Generated_Source\PSoC4/cyfitter_cfg.c **** 		for (i = 0u; i < (sizeof(cfg_memset_list)/sizeof(cfg_memset_list[0])); i++)
 405:Generated_Source\PSoC4/cyfitter_cfg.c **** 		{
 406:Generated_Source\PSoC4/cyfitter_cfg.c **** 			const cfg_memset_t CYCODE * CYDATA ms = &cfg_memset_list[i];
 407:Generated_Source\PSoC4/cyfitter_cfg.c **** 			CYMEMZERO(ms->address, (size_t)(uint32)(ms->size));
 408:Generated_Source\PSoC4/cyfitter_cfg.c **** 		}
 409:Generated_Source\PSoC4/cyfitter_cfg.c **** 
 410:Generated_Source\PSoC4/cyfitter_cfg.c **** 		cfg_write_bytes32(cy_cfg_addr_table, cy_cfg_data_table);
 411:Generated_Source\PSoC4/cyfitter_cfg.c **** 
 412:Generated_Source\PSoC4/cyfitter_cfg.c **** 		/* HSIOM Starting address: CYDEV_HSIOM_BASE */
 413:Generated_Source\PSoC4/cyfitter_cfg.c **** 		CY_SET_REG32((void *)(CYDEV_HSIOM_BASE), 0x00003000u);
 184              		.loc 1 413 0
 185 005c C022     		movs	r2, #192
 186 005e 4C4B     		ldr	r3, .L13+12
 187 0060 9201     		lsls	r2, r2, #6
 188 0062 1A60     		str	r2, [r3]
 414:Generated_Source\PSoC4/cyfitter_cfg.c **** 		CY_SET_REG32((void *)(CYDEV_HSIOM_BASE + 0x00000200u), 0x30000000u);
 189              		.loc 1 414 0
 190 0064 C022     		movs	r2, #192
 191 0066 4B4B     		ldr	r3, .L13+16
 192 0068 9205     		lsls	r2, r2, #22
 193 006a 1A60     		str	r2, [r3]
 415:Generated_Source\PSoC4/cyfitter_cfg.c **** 		CY_SET_REG32((void *)(CYDEV_HSIOM_BASE + 0x00000300u), 0x0000EE00u);
 194              		.loc 1 415 0
 195 006c EE22     		movs	r2, #238
 196 006e 4A4B     		ldr	r3, .L13+20
 197 0070 1202     		lsls	r2, r2, #8
 198 0072 1A60     		str	r2, [r3]
 416:Generated_Source\PSoC4/cyfitter_cfg.c **** 		CY_SET_REG32((void *)(CYDEV_HSIOM_BASE + 0x00000400u), 0x000000EEu);
 199              		.loc 1 416 0
 200 0074 EE22     		movs	r2, #238
 201 0076 494B     		ldr	r3, .L13+24
 417:Generated_Source\PSoC4/cyfitter_cfg.c **** 
 418:Generated_Source\PSoC4/cyfitter_cfg.c **** 		/* UDB_PA_0 Starting address: CYDEV_UDB_PA0_BASE */
ARM GAS  C:\Users\Greg\AppData\Local\Temp\ccpNA8xD.s 			page 12


 419:Generated_Source\PSoC4/cyfitter_cfg.c **** 		CY_SET_REG32((void *)(CYDEV_UDB_PA0_BASE), 0x00990000u);
 420:Generated_Source\PSoC4/cyfitter_cfg.c **** 		CY_SET_REG32((void *)(CYDEV_UDB_PA0_BASE + 0x00000008u), 0x00400000u);
 202              		.loc 1 420 0
 203 0078 8021     		movs	r1, #128
 416:Generated_Source\PSoC4/cyfitter_cfg.c **** 		CY_SET_REG32((void *)(CYDEV_HSIOM_BASE + 0x00000400u), 0x000000EEu);
 204              		.loc 1 416 0
 205 007a 1A60     		str	r2, [r3]
 419:Generated_Source\PSoC4/cyfitter_cfg.c **** 		CY_SET_REG32((void *)(CYDEV_UDB_PA0_BASE + 0x00000008u), 0x00400000u);
 206              		.loc 1 419 0
 207 007c 9923     		movs	r3, #153
 421:Generated_Source\PSoC4/cyfitter_cfg.c **** 
 422:Generated_Source\PSoC4/cyfitter_cfg.c **** 		/* UDB_PA_1 Starting address: CYDEV_UDB_PA1_BASE */
 423:Generated_Source\PSoC4/cyfitter_cfg.c **** 		CY_SET_REG32((void *)(CYDEV_UDB_PA1_BASE), 0x00990000u);
 424:Generated_Source\PSoC4/cyfitter_cfg.c **** 
 425:Generated_Source\PSoC4/cyfitter_cfg.c **** 		/* UDB_PA_2 Starting address: CYDEV_UDB_PA2_BASE */
 426:Generated_Source\PSoC4/cyfitter_cfg.c **** 		CY_SET_REG32((void *)(CYDEV_UDB_PA2_BASE), 0x00990000u);
 427:Generated_Source\PSoC4/cyfitter_cfg.c **** 		CY_SET_REG32((void *)(CYDEV_UDB_PA2_BASE + 0x00000008u), 0x80000000u);
 208              		.loc 1 427 0
 209 007e 8025     		movs	r5, #128
 419:Generated_Source\PSoC4/cyfitter_cfg.c **** 		CY_SET_REG32((void *)(CYDEV_UDB_PA0_BASE + 0x00000008u), 0x00400000u);
 210              		.loc 1 419 0
 211 0080 474A     		ldr	r2, .L13+28
 212 0082 1B04     		lsls	r3, r3, #16
 213 0084 1360     		str	r3, [r2]
 420:Generated_Source\PSoC4/cyfitter_cfg.c **** 
 214              		.loc 1 420 0
 215 0086 474A     		ldr	r2, .L13+32
 216 0088 C903     		lsls	r1, r1, #15
 217 008a 1160     		str	r1, [r2]
 428:Generated_Source\PSoC4/cyfitter_cfg.c **** 
 429:Generated_Source\PSoC4/cyfitter_cfg.c **** 		/* UDB_PA_3 Starting address: CYDEV_UDB_PA3_BASE */
 430:Generated_Source\PSoC4/cyfitter_cfg.c **** 		CY_SET_REG32((void *)(CYDEV_UDB_PA3_BASE), 0x00990000u);
 431:Generated_Source\PSoC4/cyfitter_cfg.c **** 
 432:Generated_Source\PSoC4/cyfitter_cfg.c **** 		/* TCPWM_CNT0 Starting address: CYDEV_TCPWM_CNT0_TR_CTRL0 */
 433:Generated_Source\PSoC4/cyfitter_cfg.c **** 		CY_SET_REG32((void *)(CYREG_TCPWM_CNT0_TR_CTRL0), 0x000EEE10u);
 434:Generated_Source\PSoC4/cyfitter_cfg.c **** 
 435:Generated_Source\PSoC4/cyfitter_cfg.c **** 		/* Enable UDB array and digital routing */
 436:Generated_Source\PSoC4/cyfitter_cfg.c **** 		CY_SET_XTND_REG8((void *)CYREG_UDB_UDBIF_WAIT_CFG, (uint8)((CY_GET_XTND_REG8((void *)CYREG_UDB_UD
 218              		.loc 1 436 0
 219 008c 3C21     		movs	r1, #60
 423:Generated_Source\PSoC4/cyfitter_cfg.c **** 
 220              		.loc 1 423 0
 221 008e 464A     		ldr	r2, .L13+36
 427:Generated_Source\PSoC4/cyfitter_cfg.c **** 
 222              		.loc 1 427 0
 223 0090 2D06     		lsls	r5, r5, #24
 423:Generated_Source\PSoC4/cyfitter_cfg.c **** 
 224              		.loc 1 423 0
 225 0092 1360     		str	r3, [r2]
 426:Generated_Source\PSoC4/cyfitter_cfg.c **** 		CY_SET_REG32((void *)(CYDEV_UDB_PA2_BASE + 0x00000008u), 0x80000000u);
 226              		.loc 1 426 0
 227 0094 454A     		ldr	r2, .L13+40
 228              	.LBE14:
 437:Generated_Source\PSoC4/cyfitter_cfg.c **** 		CY_SET_XTND_REG8((void *)CYREG_UDB_UDBIF_BANK_CTL, (uint8)(CY_GET_XTND_REG8((void *)CYREG_UDB_UDB
 438:Generated_Source\PSoC4/cyfitter_cfg.c **** 	}
 439:Generated_Source\PSoC4/cyfitter_cfg.c **** 
 440:Generated_Source\PSoC4/cyfitter_cfg.c **** 	/* Perform second pass device configuration. These items must be configured in specific order afte
ARM GAS  C:\Users\Greg\AppData\Local\Temp\ccpNA8xD.s 			page 13


 441:Generated_Source\PSoC4/cyfitter_cfg.c **** 	/* IOPINS0_0 Starting address: CYDEV_GPIO_PRT0_BASE */
 442:Generated_Source\PSoC4/cyfitter_cfg.c **** 	CY_SET_REG32((void *)(CYDEV_GPIO_PRT0_BASE), 0x000000C8u);
 443:Generated_Source\PSoC4/cyfitter_cfg.c **** 	CY_SET_REG32((void *)(CYDEV_GPIO_PRT0_BASE + 0x00000008u), 0x00580C00u);
 444:Generated_Source\PSoC4/cyfitter_cfg.c **** 
 445:Generated_Source\PSoC4/cyfitter_cfg.c **** 	/* IOPINS0_1 Starting address: CYDEV_GPIO_PRT1_BASE */
 446:Generated_Source\PSoC4/cyfitter_cfg.c **** 	CY_SET_REG32((void *)(CYDEV_GPIO_PRT1_BASE + 0x00000008u), 0x00000208u);
 447:Generated_Source\PSoC4/cyfitter_cfg.c **** 
 448:Generated_Source\PSoC4/cyfitter_cfg.c **** 	/* IOPINS0_2 Starting address: CYDEV_GPIO_PRT2_BASE */
 449:Generated_Source\PSoC4/cyfitter_cfg.c **** 	CY_SET_REG32((void *)(CYDEV_GPIO_PRT2_BASE), 0x000000C7u);
 450:Generated_Source\PSoC4/cyfitter_cfg.c **** 	CY_SET_REG32((void *)(CYDEV_GPIO_PRT2_BASE + 0x00000008u), 0x00D80000u);
 451:Generated_Source\PSoC4/cyfitter_cfg.c **** 	CY_SET_REG32((void *)(CYDEV_GPIO_PRT2_BASE + 0x00000018u), 0x00000007u);
 229              		.loc 1 451 0
 230 0096 0724     		movs	r4, #7
 231              	.LBB27:
 426:Generated_Source\PSoC4/cyfitter_cfg.c **** 		CY_SET_REG32((void *)(CYDEV_UDB_PA2_BASE + 0x00000008u), 0x80000000u);
 232              		.loc 1 426 0
 233 0098 1360     		str	r3, [r2]
 427:Generated_Source\PSoC4/cyfitter_cfg.c **** 
 234              		.loc 1 427 0
 235 009a 454A     		ldr	r2, .L13+44
 236              	.LBE27:
 452:Generated_Source\PSoC4/cyfitter_cfg.c **** 
 453:Generated_Source\PSoC4/cyfitter_cfg.c **** 	/* IOPINS0_3 Starting address: CYDEV_GPIO_PRT3_BASE */
 454:Generated_Source\PSoC4/cyfitter_cfg.c **** 	CY_SET_REG32((void *)(CYDEV_GPIO_PRT3_BASE + 0x00000008u), 0x00000D80u);
 455:Generated_Source\PSoC4/cyfitter_cfg.c **** 
 456:Generated_Source\PSoC4/cyfitter_cfg.c **** 	/* IOPINS0_4 Starting address: CYDEV_GPIO_PRT4_BASE */
 457:Generated_Source\PSoC4/cyfitter_cfg.c **** 	CY_SET_REG32((void *)(CYDEV_GPIO_PRT4_BASE), 0x00000003u);
 237              		.loc 1 457 0
 238 009c 0326     		movs	r6, #3
 239              	.LBB28:
 427:Generated_Source\PSoC4/cyfitter_cfg.c **** 
 240              		.loc 1 427 0
 241 009e 1560     		str	r5, [r2]
 430:Generated_Source\PSoC4/cyfitter_cfg.c **** 
 242              		.loc 1 430 0
 243 00a0 444A     		ldr	r2, .L13+48
 244              	.LBE28:
 245              	.LBB29:
 246              	.LBB30:
 216:Generated_Source\PSoC4/cyfitter_cfg.c **** 	/* CYDEV_CLK_ILO_CONFIG Starting address: CYDEV_CLK_ILO_CONFIG */
 247              		.loc 1 216 0
 248 00a2 3020     		movs	r0, #48
 249              	.LBE30:
 250              	.LBE29:
 251              	.LBB33:
 430:Generated_Source\PSoC4/cyfitter_cfg.c **** 
 252              		.loc 1 430 0
 253 00a4 1360     		str	r3, [r2]
 433:Generated_Source\PSoC4/cyfitter_cfg.c **** 
 254              		.loc 1 433 0
 255 00a6 444A     		ldr	r2, .L13+52
 256 00a8 444B     		ldr	r3, .L13+56
 257              	.LBE33:
 458:Generated_Source\PSoC4/cyfitter_cfg.c **** 	CY_SET_REG32((void *)(CYDEV_GPIO_PRT4_BASE + 0x00000008u), 0x00000024u);
 459:Generated_Source\PSoC4/cyfitter_cfg.c **** 
 460:Generated_Source\PSoC4/cyfitter_cfg.c **** 
 461:Generated_Source\PSoC4/cyfitter_cfg.c **** 	/* Setup clocks based on selections from Clock DWR */
ARM GAS  C:\Users\Greg\AppData\Local\Temp\ccpNA8xD.s 			page 14


 462:Generated_Source\PSoC4/cyfitter_cfg.c **** 	ClockSetup();
 463:Generated_Source\PSoC4/cyfitter_cfg.c **** 
 464:Generated_Source\PSoC4/cyfitter_cfg.c **** 	/* Perform basic analog initialization to defaults */
 465:Generated_Source\PSoC4/cyfitter_cfg.c **** 	AnalogSetDefault();
 466:Generated_Source\PSoC4/cyfitter_cfg.c **** 
 467:Generated_Source\PSoC4/cyfitter_cfg.c **** }
 258              		.loc 1 467 0
 259              		@ sp needed
 260              	.LBB34:
 433:Generated_Source\PSoC4/cyfitter_cfg.c **** 
 261              		.loc 1 433 0
 262 00aa 1A60     		str	r2, [r3]
 436:Generated_Source\PSoC4/cyfitter_cfg.c **** 		CY_SET_XTND_REG8((void *)CYREG_UDB_UDBIF_BANK_CTL, (uint8)(CY_GET_XTND_REG8((void *)CYREG_UDB_UDB
 263              		.loc 1 436 0
 264 00ac 444A     		ldr	r2, .L13+60
 265 00ae 1378     		ldrb	r3, [r2]
 266 00b0 8B43     		bics	r3, r1
 267 00b2 2839     		subs	r1, r1, #40
 268 00b4 0B43     		orrs	r3, r1
 269 00b6 1370     		strb	r3, [r2]
 437:Generated_Source\PSoC4/cyfitter_cfg.c **** 	}
 270              		.loc 1 437 0
 271 00b8 424A     		ldr	r2, .L13+64
 272 00ba 0231     		adds	r1, r1, #2
 273 00bc 1378     		ldrb	r3, [r2]
 274 00be 0B43     		orrs	r3, r1
 275 00c0 1370     		strb	r3, [r2]
 276              	.LBE34:
 442:Generated_Source\PSoC4/cyfitter_cfg.c **** 	CY_SET_REG32((void *)(CYDEV_GPIO_PRT0_BASE + 0x00000008u), 0x00580C00u);
 277              		.loc 1 442 0
 278 00c2 C822     		movs	r2, #200
 279 00c4 404B     		ldr	r3, .L13+68
 280 00c6 1A60     		str	r2, [r3]
 443:Generated_Source\PSoC4/cyfitter_cfg.c **** 
 281              		.loc 1 443 0
 282 00c8 404A     		ldr	r2, .L13+72
 283 00ca 414B     		ldr	r3, .L13+76
 284 00cc 1A60     		str	r2, [r3]
 446:Generated_Source\PSoC4/cyfitter_cfg.c **** 
 285              		.loc 1 446 0
 286 00ce 8222     		movs	r2, #130
 287 00d0 404B     		ldr	r3, .L13+80
 288 00d2 9200     		lsls	r2, r2, #2
 289 00d4 1A60     		str	r2, [r3]
 449:Generated_Source\PSoC4/cyfitter_cfg.c **** 	CY_SET_REG32((void *)(CYDEV_GPIO_PRT2_BASE + 0x00000008u), 0x00D80000u);
 290              		.loc 1 449 0
 291 00d6 404B     		ldr	r3, .L13+84
 292 00d8 423A     		subs	r2, r2, #66
 293 00da FF3A     		subs	r2, r2, #255
 294 00dc 1A60     		str	r2, [r3]
 450:Generated_Source\PSoC4/cyfitter_cfg.c **** 	CY_SET_REG32((void *)(CYDEV_GPIO_PRT2_BASE + 0x00000018u), 0x00000007u);
 295              		.loc 1 450 0
 296 00de D822     		movs	r2, #216
 297 00e0 3E4B     		ldr	r3, .L13+88
 298 00e2 1204     		lsls	r2, r2, #16
 299 00e4 1A60     		str	r2, [r3]
 454:Generated_Source\PSoC4/cyfitter_cfg.c **** 
ARM GAS  C:\Users\Greg\AppData\Local\Temp\ccpNA8xD.s 			page 15


 300              		.loc 1 454 0
 301 00e6 D822     		movs	r2, #216
 451:Generated_Source\PSoC4/cyfitter_cfg.c **** 
 302              		.loc 1 451 0
 303 00e8 3D4B     		ldr	r3, .L13+92
 454:Generated_Source\PSoC4/cyfitter_cfg.c **** 
 304              		.loc 1 454 0
 305 00ea 1201     		lsls	r2, r2, #4
 451:Generated_Source\PSoC4/cyfitter_cfg.c **** 
 306              		.loc 1 451 0
 307 00ec 1C60     		str	r4, [r3]
 454:Generated_Source\PSoC4/cyfitter_cfg.c **** 
 308              		.loc 1 454 0
 309 00ee 3D4B     		ldr	r3, .L13+96
 310 00f0 1A60     		str	r2, [r3]
 458:Generated_Source\PSoC4/cyfitter_cfg.c **** 
 311              		.loc 1 458 0
 312 00f2 2422     		movs	r2, #36
 457:Generated_Source\PSoC4/cyfitter_cfg.c **** 	CY_SET_REG32((void *)(CYDEV_GPIO_PRT4_BASE + 0x00000008u), 0x00000024u);
 313              		.loc 1 457 0
 314 00f4 3C4B     		ldr	r3, .L13+100
 315 00f6 1E60     		str	r6, [r3]
 458:Generated_Source\PSoC4/cyfitter_cfg.c **** 
 316              		.loc 1 458 0
 317 00f8 3C4B     		ldr	r3, .L13+104
 318 00fa 1A60     		str	r2, [r3]
 319              	.LBB35:
 320              	.LBB31:
 214:Generated_Source\PSoC4/cyfitter_cfg.c **** 	/* Setup and trim IMO based on desired frequency. */
 321              		.loc 1 214 0
 322 00fc 3C4B     		ldr	r3, .L13+108
 323 00fe 123A     		subs	r2, r2, #18
 324 0100 1A60     		str	r2, [r3]
 216:Generated_Source\PSoC4/cyfitter_cfg.c **** 	/* CYDEV_CLK_ILO_CONFIG Starting address: CYDEV_CLK_ILO_CONFIG */
 325              		.loc 1 216 0
 326 0102 FFF7FEFF 		bl	CySysClkWriteImoFreq
 327              	.LVL16:
 218:Generated_Source\PSoC4/cyfitter_cfg.c **** 
 328              		.loc 1 218 0
 329 0106 3B4A     		ldr	r2, .L13+112
 330 0108 3B4B     		ldr	r3, .L13+116
 224:Generated_Source\PSoC4/cyfitter_cfg.c **** 	CY_SET_REG32((void *)CYREG_PERI_DIV_CMD, 0x8000FF40u);
 331              		.loc 1 224 0
 332 010a 3C49     		ldr	r1, .L13+120
 218:Generated_Source\PSoC4/cyfitter_cfg.c **** 
 333              		.loc 1 218 0
 334 010c 1A60     		str	r2, [r3]
 222:Generated_Source\PSoC4/cyfitter_cfg.c **** 	CY_SET_REG32((void *)CYREG_PERI_DIV_CMD, 0x8000FF42u);
 335              		.loc 1 222 0
 336 010e 3C4A     		ldr	r2, .L13+124
 337 0110 3C4B     		ldr	r3, .L13+128
 244:Generated_Source\PSoC4/cyfitter_cfg.c **** 	CyIntEnable(7u);
 338              		.loc 1 244 0
 339 0112 2000     		movs	r0, r4
 222:Generated_Source\PSoC4/cyfitter_cfg.c **** 	CY_SET_REG32((void *)CYREG_PERI_DIV_CMD, 0x8000FF42u);
 340              		.loc 1 222 0
 341 0114 1A60     		str	r2, [r3]
ARM GAS  C:\Users\Greg\AppData\Local\Temp\ccpNA8xD.s 			page 16


 223:Generated_Source\PSoC4/cyfitter_cfg.c **** 	CY_SET_REG32((void *)CYREG_PERI_DIV_16_CTL0, 0x00001D00u);
 342              		.loc 1 223 0
 343 0116 3C4B     		ldr	r3, .L13+132
 344 0118 3C4A     		ldr	r2, .L13+136
 345 011a 1A60     		str	r2, [r3]
 224:Generated_Source\PSoC4/cyfitter_cfg.c **** 	CY_SET_REG32((void *)CYREG_PERI_DIV_CMD, 0x8000FF40u);
 346              		.loc 1 224 0
 347 011c E822     		movs	r2, #232
 348 011e 5201     		lsls	r2, r2, #5
 349 0120 0A60     		str	r2, [r1]
 225:Generated_Source\PSoC4/cyfitter_cfg.c **** 	CY_SET_REG32((void *)CYREG_PERI_DIV_16_CTL1, 0x00001D00u);
 350              		.loc 1 225 0
 351 0122 3B49     		ldr	r1, .L13+140
 352 0124 1960     		str	r1, [r3]
 226:Generated_Source\PSoC4/cyfitter_cfg.c **** 	CY_SET_REG32((void *)CYREG_PERI_DIV_CMD, 0x8000FF41u);
 353              		.loc 1 226 0
 354 0126 3B49     		ldr	r1, .L13+144
 355 0128 0A60     		str	r2, [r1]
 227:Generated_Source\PSoC4/cyfitter_cfg.c **** 
 356              		.loc 1 227 0
 357 012a 3B4A     		ldr	r2, .L13+148
 244:Generated_Source\PSoC4/cyfitter_cfg.c **** 	CyIntEnable(7u);
 358              		.loc 1 244 0
 359 012c 3B49     		ldr	r1, .L13+152
 227:Generated_Source\PSoC4/cyfitter_cfg.c **** 
 360              		.loc 1 227 0
 361 012e 1A60     		str	r2, [r3]
 230:Generated_Source\PSoC4/cyfitter_cfg.c **** 
 362              		.loc 1 230 0
 363 0130 8222     		movs	r2, #130
 364 0132 3B4B     		ldr	r3, .L13+156
 365 0134 1206     		lsls	r2, r2, #24
 366 0136 1A60     		str	r2, [r3]
 233:Generated_Source\PSoC4/cyfitter_cfg.c **** 
 367              		.loc 1 233 0
 368 0138 8022     		movs	r2, #128
 369 013a 3A4B     		ldr	r3, .L13+160
 370 013c D202     		lsls	r2, r2, #11
 371 013e 1A60     		str	r2, [r3]
 236:Generated_Source\PSoC4/cyfitter_cfg.c **** 
 372              		.loc 1 236 0
 373 0140 4222     		movs	r2, #66
 374 0142 394B     		ldr	r3, .L13+164
 375 0144 1A60     		str	r2, [r3]
 239:Generated_Source\PSoC4/cyfitter_cfg.c **** 
 376              		.loc 1 239 0
 377 0146 394B     		ldr	r3, .L13+168
 378 0148 023A     		subs	r2, r2, #2
 379 014a 1A60     		str	r2, [r3]
 242:Generated_Source\PSoC4/cyfitter_cfg.c **** 
 380              		.loc 1 242 0
 381 014c 384B     		ldr	r3, .L13+172
 382 014e 0132     		adds	r2, r2, #1
 383 0150 1A60     		str	r2, [r3]
 244:Generated_Source\PSoC4/cyfitter_cfg.c **** 	CyIntEnable(7u);
 384              		.loc 1 244 0
 385 0152 FFF7FEFF 		bl	CyIntSetVector
ARM GAS  C:\Users\Greg\AppData\Local\Temp\ccpNA8xD.s 			page 17


 386              	.LVL17:
 245:Generated_Source\PSoC4/cyfitter_cfg.c **** 	CY_SET_REG32((void *)(CYREG_WDT_CONFIG), 0x00000000u);
 387              		.loc 1 245 0
 388 0156 2000     		movs	r0, r4
 389 0158 FFF7FEFF 		bl	CyIntEnable
 390              	.LVL18:
 246:Generated_Source\PSoC4/cyfitter_cfg.c **** }
 391              		.loc 1 246 0
 392 015c 0023     		movs	r3, #0
 393 015e 354A     		ldr	r2, .L13+176
 394              	.LBE31:
 395              	.LBE35:
 396              	.LBB36:
 397              	.LBB37:
 277:Generated_Source\PSoC4/cyfitter_cfg.c **** }
 398              		.loc 1 277 0
 399 0160 0120     		movs	r0, #1
 400              	.LBE37:
 401              	.LBE36:
 402              	.LBB39:
 403              	.LBB32:
 246:Generated_Source\PSoC4/cyfitter_cfg.c **** }
 404              		.loc 1 246 0
 405 0162 1360     		str	r3, [r2]
 406              	.LBE32:
 407              	.LBE39:
 408              	.LBB40:
 409              	.LBB38:
 271:Generated_Source\PSoC4/cyfitter_cfg.c **** 	CY_SET_XTND_REG32((void CYFAR *)CYREG_CTBM1_DFT_CTRL, 0x00000003u);
 410              		.loc 1 271 0
 411 0164 344A     		ldr	r2, .L13+180
 412 0166 1660     		str	r6, [r2]
 272:Generated_Source\PSoC4/cyfitter_cfg.c **** 	CY_SET_XTND_REG32((void CYFAR *)CYREG_SAR_CTRL, 0x80000000u);
 413              		.loc 1 272 0
 414 0168 344A     		ldr	r2, .L13+184
 415 016a 1660     		str	r6, [r2]
 273:Generated_Source\PSoC4/cyfitter_cfg.c **** 	CY_SET_XTND_REG32((void CYFAR *)CYREG_SAR_MUX_SWITCH0, 0x00000007u);
 416              		.loc 1 273 0
 417 016c 344A     		ldr	r2, .L13+188
 418 016e 1560     		str	r5, [r2]
 274:Generated_Source\PSoC4/cyfitter_cfg.c **** 	CY_SET_XTND_REG32((void CYFAR *)CYREG_SAR_MUX_SWITCH_HW_CTRL, 0x00000007u);
 419              		.loc 1 274 0
 420 0170 344A     		ldr	r2, .L13+192
 421 0172 1460     		str	r4, [r2]
 275:Generated_Source\PSoC4/cyfitter_cfg.c **** 	CY_SET_XTND_REG32((void CYFAR *)CYREG_PASS_DSAB_DSAB_CTRL, 0x00000000u);
 422              		.loc 1 275 0
 423 0174 344A     		ldr	r2, .L13+196
 424 0176 1460     		str	r4, [r2]
 276:Generated_Source\PSoC4/cyfitter_cfg.c **** 	SetAnalogRoutingPumps(1);
 425              		.loc 1 276 0
 426 0178 344A     		ldr	r2, .L13+200
 427 017a 1360     		str	r3, [r2]
 277:Generated_Source\PSoC4/cyfitter_cfg.c **** }
 428              		.loc 1 277 0
 429 017c FFF7FEFF 		bl	SetAnalogRoutingPumps
 430              	.LVL19:
 431              	.LBE38:
ARM GAS  C:\Users\Greg\AppData\Local\Temp\ccpNA8xD.s 			page 18


 432              	.LBE40:
 433              		.loc 1 467 0
 434 0180 F7BD     		pop	{r0, r1, r2, r4, r5, r6, r7, pc}
 435              	.L14:
 436 0182 C046     		.align	2
 437              	.L13:
 438 0184 00300F40 		.word	1074737152
 439 0188 00400F40 		.word	1074741248
 440 018c 00000000 		.word	.LANCHOR0
 441 0190 00000240 		.word	1073872896
 442 0194 00020240 		.word	1073873408
 443 0198 00030240 		.word	1073873664
 444 019c 00040240 		.word	1073873920
 445 01a0 00500F40 		.word	1074745344
 446 01a4 08500F40 		.word	1074745352
 447 01a8 10500F40 		.word	1074745360
 448 01ac 20500F40 		.word	1074745376
 449 01b0 28500F40 		.word	1074745384
 450 01b4 30500F40 		.word	1074745392
 451 01b8 10EE0E00 		.word	978448
 452 01bc 20012040 		.word	1075839264
 453 01c0 01700F40 		.word	1074753537
 454 01c4 00700F40 		.word	1074753536
 455 01c8 00000440 		.word	1074003968
 456 01cc 000C5800 		.word	5770240
 457 01d0 08000440 		.word	1074003976
 458 01d4 08010440 		.word	1074004232
 459 01d8 00020440 		.word	1074004480
 460 01dc 08020440 		.word	1074004488
 461 01e0 18020440 		.word	1074004504
 462 01e4 08030440 		.word	1074004744
 463 01e8 00040440 		.word	1074004992
 464 01ec 08040440 		.word	1074005000
 465 01f0 30001040 		.word	1074790448
 466 01f4 06000080 		.word	-2147483642
 467 01f8 04010B40 		.word	1074462980
 468 01fc 00030140 		.word	1073808128
 469 0200 007B9200 		.word	9599744
 470 0204 08030140 		.word	1073808136
 471 0208 00000140 		.word	1073807360
 472 020c 42FF0080 		.word	-2147418302
 473 0210 40FF0080 		.word	-2147418304
 474 0214 04030140 		.word	1073808132
 475 0218 41FF0080 		.word	-2147418303
 476 021c 00000000 		.word	CySysWdtIsr
 477 0220 08010B40 		.word	1074462984
 478 0224 00010B40 		.word	1074462976
 479 0228 2C010140 		.word	1073807660
 480 022c 28010140 		.word	1073807656
 481 0230 08010140 		.word	1073807624
 482 0234 0C020B40 		.word	1074463244
 483 0238 30003040 		.word	1076887600
 484 023c 30003140 		.word	1076953136
 485 0240 00003A40 		.word	1077542912
 486 0244 00033A40 		.word	1077543680
 487 0248 40033A40 		.word	1077543744
 488 024c 000E3F40 		.word	1077874176
ARM GAS  C:\Users\Greg\AppData\Local\Temp\ccpNA8xD.s 			page 19


 489              		.cfi_endproc
 490              	.LFE8:
 491              		.size	cyfitter_cfg, .-cyfitter_cfg
 492              		.section	.rodata
 493              		.align	2
 494              		.set	.LANCHOR0,. + 0
 495              		.type	cy_cfg_addr_table.4911, %object
 496              		.size	cy_cfg_addr_table.4911, 24
 497              	cy_cfg_addr_table.4911:
 498 0000 07320F40 		.word	1074737671
 499 0004 0B330F40 		.word	1074737931
 500 0008 04400F40 		.word	1074741252
 501 000c 0C410F40 		.word	1074741516
 502 0010 02420F40 		.word	1074741762
 503 0014 03430F40 		.word	1074742019
 504              		.type	cy_cfg_data_table.4912, %object
 505              		.size	cy_cfg_data_table.4912, 78
 506              	cy_cfg_data_table.4912:
 507 0018 04       		.byte	4
 508 0019 01       		.byte	1
 509 001a 10       		.byte	16
 510 001b 02       		.byte	2
 511 001c 34       		.byte	52
 512 001d 01       		.byte	1
 513 001e 36       		.byte	54
 514 001f 02       		.byte	2
 515 0020 3E       		.byte	62
 516 0021 50       		.byte	80
 517 0022 58       		.byte	88
 518 0023 04       		.byte	4
 519 0024 5F       		.byte	95
 520 0025 01       		.byte	1
 521 0026 04       		.byte	4
 522 0027 04       		.byte	4
 523 0028 0F       		.byte	15
 524 0029 80       		.byte	-128
 525 002a 1D       		.byte	29
 526 002b 10       		.byte	16
 527 002c 1F       		.byte	31
 528 002d 80       		.byte	-128
 529 002e 83       		.byte	-125
 530 002f 40       		.byte	64
 531 0030 87       		.byte	-121
 532 0031 80       		.byte	-128
 533 0032 8C       		.byte	-116
 534 0033 04       		.byte	4
 535 0034 8D       		.byte	-115
 536 0035 10       		.byte	16
 537 0036 C0       		.byte	-64
 538 0037 20       		.byte	32
 539 0038 C2       		.byte	-62
 540 0039 10       		.byte	16
 541 003a E4       		.byte	-28
 542 003b 40       		.byte	64
 543 003c 0E       		.byte	14
 544 003d 08       		.byte	8
 545 003e 57       		.byte	87
ARM GAS  C:\Users\Greg\AppData\Local\Temp\ccpNA8xD.s 			page 20


 546 003f 20       		.byte	32
 547 0040 C2       		.byte	-62
 548 0041 80       		.byte	-128
 549 0042 D4       		.byte	-44
 550 0043 40       		.byte	64
 551 0044 04       		.byte	4
 552 0045 20       		.byte	32
 553 0046 07       		.byte	7
 554 0047 10       		.byte	16
 555 0048 4A       		.byte	74
 556 0049 04       		.byte	4
 557 004a 83       		.byte	-125
 558 004b 10       		.byte	16
 559 004c 87       		.byte	-121
 560 004d 20       		.byte	32
 561 004e 8C       		.byte	-116
 562 004f 10       		.byte	16
 563 0050 A2       		.byte	-94
 564 0051 04       		.byte	4
 565 0052 A7       		.byte	-89
 566 0053 20       		.byte	32
 567 0054 C0       		.byte	-64
 568 0055 A0       		.byte	-96
 569 0056 D2       		.byte	-46
 570 0057 10       		.byte	16
 571 0058 E0       		.byte	-32
 572 0059 20       		.byte	32
 573 005a E6       		.byte	-26
 574 005b 10       		.byte	16
 575 005c 60       		.byte	96
 576 005d 20       		.byte	32
 577 005e D8       		.byte	-40
 578 005f 02       		.byte	2
 579 0060 8C       		.byte	-116
 580 0061 20       		.byte	32
 581 0062 9C       		.byte	-100
 582 0063 20       		.byte	32
 583 0064 E0       		.byte	-32
 584 0065 02       		.byte	2
 585              		.text
 586              	.Letext0:
 587              		.file 2 "c:\\program files\\cypress\\psoc creator\\4.1\\psoc creator\\import\\gnu\\arm\\5.4.1\\lib
 588              		.file 3 "Generated_Source\\PSoC4\\cytypes.h"
 589              		.file 4 "Generated_Source\\PSoC4\\CyLib.h"