ARM GAS  C:\Users\Greg\AppData\Local\Temp\ccV9VT24.s 			page 1


   1              		.syntax unified
   2              		.cpu cortex-m0
   3              		.fpu softvfp
   4              		.eabi_attribute 20, 1
   5              		.eabi_attribute 21, 1
   6              		.eabi_attribute 23, 3
   7              		.eabi_attribute 24, 1
   8              		.eabi_attribute 25, 1
   9              		.eabi_attribute 26, 1
  10              		.eabi_attribute 30, 4
  11              		.eabi_attribute 34, 0
  12              		.eabi_attribute 18, 4
  13              		.thumb
  14              		.syntax unified
  15              		.file	"D9.c"
  16              		.text
  17              	.Ltext0:
  18              		.cfi_sections	.debug_frame
  19              		.section	.text.D9_SetDriveMode,"ax",%progbits
  20              		.align	1
  21              		.global	D9_SetDriveMode
  22              		.code	16
  23              		.thumb_func
  24              		.type	D9_SetDriveMode, %function
  25              	D9_SetDriveMode:
  26              	.LFB0:
  27              		.file 1 "Generated_Source\\PSoC4\\D9.c"
   1:Generated_Source\PSoC4/D9.c **** /*******************************************************************************
   2:Generated_Source\PSoC4/D9.c **** * File Name: D9.c  
   3:Generated_Source\PSoC4/D9.c **** * Version 2.20
   4:Generated_Source\PSoC4/D9.c **** *
   5:Generated_Source\PSoC4/D9.c **** * Description:
   6:Generated_Source\PSoC4/D9.c **** *  This file contains API to enable firmware control of a Pins component.
   7:Generated_Source\PSoC4/D9.c **** *
   8:Generated_Source\PSoC4/D9.c **** ********************************************************************************
   9:Generated_Source\PSoC4/D9.c **** * Copyright 2008-2015, Cypress Semiconductor Corporation.  All rights reserved.
  10:Generated_Source\PSoC4/D9.c **** * You may use this file only in accordance with the license, terms, conditions, 
  11:Generated_Source\PSoC4/D9.c **** * disclaimers, and limitations in the end user license agreement accompanying 
  12:Generated_Source\PSoC4/D9.c **** * the software package with which this file was provided.
  13:Generated_Source\PSoC4/D9.c **** *******************************************************************************/
  14:Generated_Source\PSoC4/D9.c **** 
  15:Generated_Source\PSoC4/D9.c **** #include "cytypes.h"
  16:Generated_Source\PSoC4/D9.c **** #include "D9.h"
  17:Generated_Source\PSoC4/D9.c **** 
  18:Generated_Source\PSoC4/D9.c **** 
  19:Generated_Source\PSoC4/D9.c **** #if defined(D9__PC)
  20:Generated_Source\PSoC4/D9.c ****     #define D9_SetP4PinDriveMode(shift, mode)  \
  21:Generated_Source\PSoC4/D9.c ****     do { \
  22:Generated_Source\PSoC4/D9.c ****         D9_PC =   (D9_PC & \
  23:Generated_Source\PSoC4/D9.c ****                                 (uint32)(~(uint32)(D9_DRIVE_MODE_IND_MASK << \
  24:Generated_Source\PSoC4/D9.c ****                                 (D9_DRIVE_MODE_BITS * (shift))))) | \
  25:Generated_Source\PSoC4/D9.c ****                                 (uint32)((uint32)(mode) << \
  26:Generated_Source\PSoC4/D9.c ****                                 (D9_DRIVE_MODE_BITS * (shift))); \
  27:Generated_Source\PSoC4/D9.c ****     } while (0)
  28:Generated_Source\PSoC4/D9.c **** #else
  29:Generated_Source\PSoC4/D9.c ****     #if (CY_PSOC4_4200L)
  30:Generated_Source\PSoC4/D9.c ****         #define D9_SetP4PinDriveMode(shift, mode)  \
ARM GAS  C:\Users\Greg\AppData\Local\Temp\ccV9VT24.s 			page 2


  31:Generated_Source\PSoC4/D9.c ****         do { \
  32:Generated_Source\PSoC4/D9.c ****             D9_USBIO_CTRL_REG = (D9_USBIO_CTRL_REG & \
  33:Generated_Source\PSoC4/D9.c ****                                     (uint32)(~(uint32)(D9_DRIVE_MODE_IND_MASK << \
  34:Generated_Source\PSoC4/D9.c ****                                     (D9_DRIVE_MODE_BITS * (shift))))) | \
  35:Generated_Source\PSoC4/D9.c ****                                     (uint32)((uint32)(mode) << \
  36:Generated_Source\PSoC4/D9.c ****                                     (D9_DRIVE_MODE_BITS * (shift))); \
  37:Generated_Source\PSoC4/D9.c ****         } while (0)
  38:Generated_Source\PSoC4/D9.c ****     #endif
  39:Generated_Source\PSoC4/D9.c **** #endif
  40:Generated_Source\PSoC4/D9.c ****   
  41:Generated_Source\PSoC4/D9.c **** 
  42:Generated_Source\PSoC4/D9.c **** #if defined(D9__PC) || (CY_PSOC4_4200L) 
  43:Generated_Source\PSoC4/D9.c ****     /*******************************************************************************
  44:Generated_Source\PSoC4/D9.c ****     * Function Name: D9_SetDriveMode
  45:Generated_Source\PSoC4/D9.c ****     ****************************************************************************//**
  46:Generated_Source\PSoC4/D9.c ****     *
  47:Generated_Source\PSoC4/D9.c ****     * \brief Sets the drive mode for each of the Pins component's pins.
  48:Generated_Source\PSoC4/D9.c ****     * 
  49:Generated_Source\PSoC4/D9.c ****     * <b>Note</b> This affects all pins in the Pins component instance. Use the
  50:Generated_Source\PSoC4/D9.c ****     * Per-Pin APIs if you wish to control individual pin's drive modes.
  51:Generated_Source\PSoC4/D9.c ****     *
  52:Generated_Source\PSoC4/D9.c ****     * <b>Note</b> USBIOs have limited drive functionality. Refer to the Drive Mode
  53:Generated_Source\PSoC4/D9.c ****     * parameter for more information.
  54:Generated_Source\PSoC4/D9.c ****     *
  55:Generated_Source\PSoC4/D9.c ****     * \param mode
  56:Generated_Source\PSoC4/D9.c ****     *  Mode for the selected signals. Valid options are documented in 
  57:Generated_Source\PSoC4/D9.c ****     *  \ref driveMode.
  58:Generated_Source\PSoC4/D9.c ****     *
  59:Generated_Source\PSoC4/D9.c ****     * \return
  60:Generated_Source\PSoC4/D9.c ****     *  None
  61:Generated_Source\PSoC4/D9.c ****     *
  62:Generated_Source\PSoC4/D9.c ****     * \sideeffect
  63:Generated_Source\PSoC4/D9.c ****     *  If you use read-modify-write operations that are not atomic, the ISR can
  64:Generated_Source\PSoC4/D9.c ****     *  cause corruption of this function. An ISR that interrupts this function 
  65:Generated_Source\PSoC4/D9.c ****     *  and performs writes to the Pins component Drive Mode registers can cause 
  66:Generated_Source\PSoC4/D9.c ****     *  corrupted port data. To avoid this issue, you should either use the Per-Pin
  67:Generated_Source\PSoC4/D9.c ****     *  APIs (primary method) or disable interrupts around this function.
  68:Generated_Source\PSoC4/D9.c ****     *
  69:Generated_Source\PSoC4/D9.c ****     * \funcusage
  70:Generated_Source\PSoC4/D9.c ****     *  \snippet D9_SUT.c usage_D9_SetDriveMode
  71:Generated_Source\PSoC4/D9.c ****     *******************************************************************************/
  72:Generated_Source\PSoC4/D9.c ****     void D9_SetDriveMode(uint8 mode)
  73:Generated_Source\PSoC4/D9.c ****     {
  28              		.loc 1 73 0
  29              		.cfi_startproc
  30              		@ args = 0, pretend = 0, frame = 0
  31              		@ frame_needed = 0, uses_anonymous_args = 0
  32              		@ link register save eliminated.
  33              	.LVL0:
  74:Generated_Source\PSoC4/D9.c **** 		D9_SetP4PinDriveMode(D9__0__SHIFT, mode);
  34              		.loc 1 74 0
  35 0000 034A     		ldr	r2, .L2
  36 0002 044B     		ldr	r3, .L2+4
  37 0004 1168     		ldr	r1, [r2]
  38 0006 4002     		lsls	r0, r0, #9
  39              	.LVL1:
  40 0008 0B40     		ands	r3, r1
ARM GAS  C:\Users\Greg\AppData\Local\Temp\ccV9VT24.s 			page 3


  41 000a 1843     		orrs	r0, r3
  42 000c 1060     		str	r0, [r2]
  75:Generated_Source\PSoC4/D9.c ****     }
  43              		.loc 1 75 0
  44              		@ sp needed
  45 000e 7047     		bx	lr
  46              	.L3:
  47              		.align	2
  48              	.L2:
  49 0010 08000440 		.word	1074003976
  50 0014 FFF1FFFF 		.word	-3585
  51              		.cfi_endproc
  52              	.LFE0:
  53              		.size	D9_SetDriveMode, .-D9_SetDriveMode
  54              		.section	.text.D9_Write,"ax",%progbits
  55              		.align	1
  56              		.global	D9_Write
  57              		.code	16
  58              		.thumb_func
  59              		.type	D9_Write, %function
  60              	D9_Write:
  61              	.LFB1:
  76:Generated_Source\PSoC4/D9.c **** #endif
  77:Generated_Source\PSoC4/D9.c **** 
  78:Generated_Source\PSoC4/D9.c **** 
  79:Generated_Source\PSoC4/D9.c **** /*******************************************************************************
  80:Generated_Source\PSoC4/D9.c **** * Function Name: D9_Write
  81:Generated_Source\PSoC4/D9.c **** ****************************************************************************//**
  82:Generated_Source\PSoC4/D9.c **** *
  83:Generated_Source\PSoC4/D9.c **** * \brief Writes the value to the physical port (data output register), masking
  84:Generated_Source\PSoC4/D9.c **** *  and shifting the bits appropriately. 
  85:Generated_Source\PSoC4/D9.c **** *
  86:Generated_Source\PSoC4/D9.c **** * The data output register controls the signal applied to the physical pin in 
  87:Generated_Source\PSoC4/D9.c **** * conjunction with the drive mode parameter. This function avoids changing 
  88:Generated_Source\PSoC4/D9.c **** * other bits in the port by using the appropriate method (read-modify-write or
  89:Generated_Source\PSoC4/D9.c **** * bit banding).
  90:Generated_Source\PSoC4/D9.c **** *
  91:Generated_Source\PSoC4/D9.c **** * <b>Note</b> This function should not be used on a hardware digital output pin 
  92:Generated_Source\PSoC4/D9.c **** * as it is driven by the hardware signal attached to it.
  93:Generated_Source\PSoC4/D9.c **** *
  94:Generated_Source\PSoC4/D9.c **** * \param value
  95:Generated_Source\PSoC4/D9.c **** *  Value to write to the component instance.
  96:Generated_Source\PSoC4/D9.c **** *
  97:Generated_Source\PSoC4/D9.c **** * \return 
  98:Generated_Source\PSoC4/D9.c **** *  None 
  99:Generated_Source\PSoC4/D9.c **** *
 100:Generated_Source\PSoC4/D9.c **** * \sideeffect
 101:Generated_Source\PSoC4/D9.c **** *  If you use read-modify-write operations that are not atomic; the Interrupt 
 102:Generated_Source\PSoC4/D9.c **** *  Service Routines (ISR) can cause corruption of this function. An ISR that 
 103:Generated_Source\PSoC4/D9.c **** *  interrupts this function and performs writes to the Pins component data 
 104:Generated_Source\PSoC4/D9.c **** *  register can cause corrupted port data. To avoid this issue, you should 
 105:Generated_Source\PSoC4/D9.c **** *  either use the Per-Pin APIs (primary method) or disable interrupts around 
 106:Generated_Source\PSoC4/D9.c **** *  this function.
 107:Generated_Source\PSoC4/D9.c **** *
 108:Generated_Source\PSoC4/D9.c **** * \funcusage
 109:Generated_Source\PSoC4/D9.c **** *  \snippet D9_SUT.c usage_D9_Write
 110:Generated_Source\PSoC4/D9.c **** *******************************************************************************/
ARM GAS  C:\Users\Greg\AppData\Local\Temp\ccV9VT24.s 			page 4


 111:Generated_Source\PSoC4/D9.c **** void D9_Write(uint8 value)
 112:Generated_Source\PSoC4/D9.c **** {
  62              		.loc 1 112 0
  63              		.cfi_startproc
  64              		@ args = 0, pretend = 0, frame = 0
  65              		@ frame_needed = 0, uses_anonymous_args = 0
  66              		@ link register save eliminated.
  67              	.LVL2:
 113:Generated_Source\PSoC4/D9.c ****     uint8 drVal = (uint8)(D9_DR & (uint8)(~D9_MASK));
  68              		.loc 1 113 0
  69 0000 0823     		movs	r3, #8
  70 0002 0449     		ldr	r1, .L5
 114:Generated_Source\PSoC4/D9.c ****     drVal = (drVal | ((uint8)(value << D9_SHIFT) & D9_MASK));
 115:Generated_Source\PSoC4/D9.c ****     D9_DR = (uint32)drVal;
  71              		.loc 1 115 0
  72 0004 C000     		lsls	r0, r0, #3
  73              	.LVL3:
 113:Generated_Source\PSoC4/D9.c ****     uint8 drVal = (uint8)(D9_DR & (uint8)(~D9_MASK));
  74              		.loc 1 113 0
  75 0006 0A68     		ldr	r2, [r1]
 116:Generated_Source\PSoC4/D9.c **** }
  76              		.loc 1 116 0
  77              		@ sp needed
 113:Generated_Source\PSoC4/D9.c ****     uint8 drVal = (uint8)(D9_DR & (uint8)(~D9_MASK));
  78              		.loc 1 113 0
  79 0008 9A43     		bics	r2, r3
  80 000a D2B2     		uxtb	r2, r2
 115:Generated_Source\PSoC4/D9.c **** }
  81              		.loc 1 115 0
  82 000c 0340     		ands	r3, r0
  83 000e 1343     		orrs	r3, r2
  84 0010 0B60     		str	r3, [r1]
  85              		.loc 1 116 0
  86 0012 7047     		bx	lr
  87              	.L6:
  88              		.align	2
  89              	.L5:
  90 0014 00000440 		.word	1074003968
  91              		.cfi_endproc
  92              	.LFE1:
  93              		.size	D9_Write, .-D9_Write
  94              		.section	.text.D9_Read,"ax",%progbits
  95              		.align	1
  96              		.global	D9_Read
  97              		.code	16
  98              		.thumb_func
  99              		.type	D9_Read, %function
 100              	D9_Read:
 101              	.LFB2:
 117:Generated_Source\PSoC4/D9.c **** 
 118:Generated_Source\PSoC4/D9.c **** 
 119:Generated_Source\PSoC4/D9.c **** /*******************************************************************************
 120:Generated_Source\PSoC4/D9.c **** * Function Name: D9_Read
 121:Generated_Source\PSoC4/D9.c **** ****************************************************************************//**
 122:Generated_Source\PSoC4/D9.c **** *
 123:Generated_Source\PSoC4/D9.c **** * \brief Reads the associated physical port (pin status register) and masks 
 124:Generated_Source\PSoC4/D9.c **** *  the required bits according to the width and bit position of the component
ARM GAS  C:\Users\Greg\AppData\Local\Temp\ccV9VT24.s 			page 5


 125:Generated_Source\PSoC4/D9.c **** *  instance. 
 126:Generated_Source\PSoC4/D9.c **** *
 127:Generated_Source\PSoC4/D9.c **** * The pin's status register returns the current logic level present on the 
 128:Generated_Source\PSoC4/D9.c **** * physical pin.
 129:Generated_Source\PSoC4/D9.c **** *
 130:Generated_Source\PSoC4/D9.c **** * \return 
 131:Generated_Source\PSoC4/D9.c **** *  The current value for the pins in the component as a right justified number.
 132:Generated_Source\PSoC4/D9.c **** *
 133:Generated_Source\PSoC4/D9.c **** * \funcusage
 134:Generated_Source\PSoC4/D9.c **** *  \snippet D9_SUT.c usage_D9_Read  
 135:Generated_Source\PSoC4/D9.c **** *******************************************************************************/
 136:Generated_Source\PSoC4/D9.c **** uint8 D9_Read(void)
 137:Generated_Source\PSoC4/D9.c **** {
 102              		.loc 1 137 0
 103              		.cfi_startproc
 104              		@ args = 0, pretend = 0, frame = 0
 105              		@ frame_needed = 0, uses_anonymous_args = 0
 106              		@ link register save eliminated.
 138:Generated_Source\PSoC4/D9.c ****     return (uint8)((D9_PS & D9_MASK) >> D9_SHIFT);
 107              		.loc 1 138 0
 108 0000 024B     		ldr	r3, .L8
 139:Generated_Source\PSoC4/D9.c **** }
 109              		.loc 1 139 0
 110              		@ sp needed
 138:Generated_Source\PSoC4/D9.c ****     return (uint8)((D9_PS & D9_MASK) >> D9_SHIFT);
 111              		.loc 1 138 0
 112 0002 1868     		ldr	r0, [r3]
 113 0004 0007     		lsls	r0, r0, #28
 114 0006 C00F     		lsrs	r0, r0, #31
 115              		.loc 1 139 0
 116 0008 7047     		bx	lr
 117              	.L9:
 118 000a C046     		.align	2
 119              	.L8:
 120 000c 04000440 		.word	1074003972
 121              		.cfi_endproc
 122              	.LFE2:
 123              		.size	D9_Read, .-D9_Read
 124              		.section	.text.D9_ReadDataReg,"ax",%progbits
 125              		.align	1
 126              		.global	D9_ReadDataReg
 127              		.code	16
 128              		.thumb_func
 129              		.type	D9_ReadDataReg, %function
 130              	D9_ReadDataReg:
 131              	.LFB3:
 140:Generated_Source\PSoC4/D9.c **** 
 141:Generated_Source\PSoC4/D9.c **** 
 142:Generated_Source\PSoC4/D9.c **** /*******************************************************************************
 143:Generated_Source\PSoC4/D9.c **** * Function Name: D9_ReadDataReg
 144:Generated_Source\PSoC4/D9.c **** ****************************************************************************//**
 145:Generated_Source\PSoC4/D9.c **** *
 146:Generated_Source\PSoC4/D9.c **** * \brief Reads the associated physical port's data output register and masks 
 147:Generated_Source\PSoC4/D9.c **** *  the correct bits according to the width and bit position of the component 
 148:Generated_Source\PSoC4/D9.c **** *  instance. 
 149:Generated_Source\PSoC4/D9.c **** *
 150:Generated_Source\PSoC4/D9.c **** * The data output register controls the signal applied to the physical pin in 
ARM GAS  C:\Users\Greg\AppData\Local\Temp\ccV9VT24.s 			page 6


 151:Generated_Source\PSoC4/D9.c **** * conjunction with the drive mode parameter. This is not the same as the 
 152:Generated_Source\PSoC4/D9.c **** * preferred D9_Read() API because the 
 153:Generated_Source\PSoC4/D9.c **** * D9_ReadDataReg() reads the data register instead of the status 
 154:Generated_Source\PSoC4/D9.c **** * register. For output pins this is a useful function to determine the value 
 155:Generated_Source\PSoC4/D9.c **** * just written to the pin.
 156:Generated_Source\PSoC4/D9.c **** *
 157:Generated_Source\PSoC4/D9.c **** * \return 
 158:Generated_Source\PSoC4/D9.c **** *  The current value of the data register masked and shifted into a right 
 159:Generated_Source\PSoC4/D9.c **** *  justified number for the component instance.
 160:Generated_Source\PSoC4/D9.c **** *
 161:Generated_Source\PSoC4/D9.c **** * \funcusage
 162:Generated_Source\PSoC4/D9.c **** *  \snippet D9_SUT.c usage_D9_ReadDataReg 
 163:Generated_Source\PSoC4/D9.c **** *******************************************************************************/
 164:Generated_Source\PSoC4/D9.c **** uint8 D9_ReadDataReg(void)
 165:Generated_Source\PSoC4/D9.c **** {
 132              		.loc 1 165 0
 133              		.cfi_startproc
 134              		@ args = 0, pretend = 0, frame = 0
 135              		@ frame_needed = 0, uses_anonymous_args = 0
 136              		@ link register save eliminated.
 166:Generated_Source\PSoC4/D9.c ****     return (uint8)((D9_DR & D9_MASK) >> D9_SHIFT);
 137              		.loc 1 166 0
 138 0000 024B     		ldr	r3, .L11
 167:Generated_Source\PSoC4/D9.c **** }
 139              		.loc 1 167 0
 140              		@ sp needed
 166:Generated_Source\PSoC4/D9.c ****     return (uint8)((D9_DR & D9_MASK) >> D9_SHIFT);
 141              		.loc 1 166 0
 142 0002 1868     		ldr	r0, [r3]
 143 0004 0007     		lsls	r0, r0, #28
 144 0006 C00F     		lsrs	r0, r0, #31
 145              		.loc 1 167 0
 146 0008 7047     		bx	lr
 147              	.L12:
 148 000a C046     		.align	2
 149              	.L11:
 150 000c 00000440 		.word	1074003968
 151              		.cfi_endproc
 152              	.LFE3:
 153              		.size	D9_ReadDataReg, .-D9_ReadDataReg
 154              		.section	.text.D9_SetInterruptMode,"ax",%progbits
 155              		.align	1
 156              		.global	D9_SetInterruptMode
 157              		.code	16
 158              		.thumb_func
 159              		.type	D9_SetInterruptMode, %function
 160              	D9_SetInterruptMode:
 161              	.LFB4:
 168:Generated_Source\PSoC4/D9.c **** 
 169:Generated_Source\PSoC4/D9.c **** 
 170:Generated_Source\PSoC4/D9.c **** /*******************************************************************************
 171:Generated_Source\PSoC4/D9.c **** * Function Name: D9_SetInterruptMode
 172:Generated_Source\PSoC4/D9.c **** ****************************************************************************//**
 173:Generated_Source\PSoC4/D9.c **** *
 174:Generated_Source\PSoC4/D9.c **** * \brief Configures the interrupt mode for each of the Pins component's
 175:Generated_Source\PSoC4/D9.c **** *  pins. Alternatively you may set the interrupt mode for all the pins
 176:Generated_Source\PSoC4/D9.c **** *  specified in the Pins component.
ARM GAS  C:\Users\Greg\AppData\Local\Temp\ccV9VT24.s 			page 7


 177:Generated_Source\PSoC4/D9.c **** *
 178:Generated_Source\PSoC4/D9.c **** *  <b>Note</b> The interrupt is port-wide and therefore any enabled pin
 179:Generated_Source\PSoC4/D9.c **** *  interrupt may trigger it.
 180:Generated_Source\PSoC4/D9.c **** *
 181:Generated_Source\PSoC4/D9.c **** * \param position
 182:Generated_Source\PSoC4/D9.c **** *  The pin position as listed in the Pins component. You may OR these to be 
 183:Generated_Source\PSoC4/D9.c **** *  able to configure the interrupt mode of multiple pins within a Pins 
 184:Generated_Source\PSoC4/D9.c **** *  component. Or you may use D9_INTR_ALL to configure the
 185:Generated_Source\PSoC4/D9.c **** *  interrupt mode of all the pins in the Pins component.       
 186:Generated_Source\PSoC4/D9.c **** *  - D9_0_INTR       (First pin in the list)
 187:Generated_Source\PSoC4/D9.c **** *  - D9_1_INTR       (Second pin in the list)
 188:Generated_Source\PSoC4/D9.c **** *  - ...
 189:Generated_Source\PSoC4/D9.c **** *  - D9_INTR_ALL     (All pins in Pins component)
 190:Generated_Source\PSoC4/D9.c **** *
 191:Generated_Source\PSoC4/D9.c **** * \param mode
 192:Generated_Source\PSoC4/D9.c **** *  Interrupt mode for the selected pins. Valid options are documented in
 193:Generated_Source\PSoC4/D9.c **** *  \ref intrMode.
 194:Generated_Source\PSoC4/D9.c **** *
 195:Generated_Source\PSoC4/D9.c **** * \return 
 196:Generated_Source\PSoC4/D9.c **** *  None
 197:Generated_Source\PSoC4/D9.c **** *  
 198:Generated_Source\PSoC4/D9.c **** * \sideeffect
 199:Generated_Source\PSoC4/D9.c **** *  It is recommended that the interrupt be disabled before calling this 
 200:Generated_Source\PSoC4/D9.c **** *  function to avoid unintended interrupt requests. Note that the interrupt
 201:Generated_Source\PSoC4/D9.c **** *  type is port wide, and therefore will trigger for any enabled pin on the 
 202:Generated_Source\PSoC4/D9.c **** *  port.
 203:Generated_Source\PSoC4/D9.c **** *
 204:Generated_Source\PSoC4/D9.c **** * \funcusage
 205:Generated_Source\PSoC4/D9.c **** *  \snippet D9_SUT.c usage_D9_SetInterruptMode
 206:Generated_Source\PSoC4/D9.c **** *******************************************************************************/
 207:Generated_Source\PSoC4/D9.c **** void D9_SetInterruptMode(uint16 position, uint16 mode)
 208:Generated_Source\PSoC4/D9.c **** {
 162              		.loc 1 208 0
 163              		.cfi_startproc
 164              		@ args = 0, pretend = 0, frame = 0
 165              		@ frame_needed = 0, uses_anonymous_args = 0
 166              		@ link register save eliminated.
 167              	.LVL4:
 209:Generated_Source\PSoC4/D9.c ****     uint32 intrCfg;
 210:Generated_Source\PSoC4/D9.c ****     
 211:Generated_Source\PSoC4/D9.c ****     intrCfg =  D9_INTCFG & (uint32)(~(uint32)position);
 168              		.loc 1 211 0
 169 0000 034A     		ldr	r2, .L14
 212:Generated_Source\PSoC4/D9.c ****     D9_INTCFG = intrCfg | ((uint32)position & (uint32)mode);
 213:Generated_Source\PSoC4/D9.c **** }
 170              		.loc 1 213 0
 171              		@ sp needed
 211:Generated_Source\PSoC4/D9.c ****     D9_INTCFG = intrCfg | ((uint32)position & (uint32)mode);
 172              		.loc 1 211 0
 173 0002 1368     		ldr	r3, [r2]
 174              	.LVL5:
 212:Generated_Source\PSoC4/D9.c ****     D9_INTCFG = intrCfg | ((uint32)position & (uint32)mode);
 175              		.loc 1 212 0
 176 0004 8343     		bics	r3, r0
 177              	.LVL6:
 178 0006 0840     		ands	r0, r1
 179              	.LVL7:
ARM GAS  C:\Users\Greg\AppData\Local\Temp\ccV9VT24.s 			page 8


 180 0008 1843     		orrs	r0, r3
 181 000a 1060     		str	r0, [r2]
 182              		.loc 1 213 0
 183 000c 7047     		bx	lr
 184              	.L15:
 185 000e C046     		.align	2
 186              	.L14:
 187 0010 0C000440 		.word	1074003980
 188              		.cfi_endproc
 189              	.LFE4:
 190              		.size	D9_SetInterruptMode, .-D9_SetInterruptMode
 191              		.section	.text.D9_ClearInterrupt,"ax",%progbits
 192              		.align	1
 193              		.global	D9_ClearInterrupt
 194              		.code	16
 195              		.thumb_func
 196              		.type	D9_ClearInterrupt, %function
 197              	D9_ClearInterrupt:
 198              	.LFB5:
 214:Generated_Source\PSoC4/D9.c **** 
 215:Generated_Source\PSoC4/D9.c **** 
 216:Generated_Source\PSoC4/D9.c **** /*******************************************************************************
 217:Generated_Source\PSoC4/D9.c **** * Function Name: D9_ClearInterrupt
 218:Generated_Source\PSoC4/D9.c **** ****************************************************************************//**
 219:Generated_Source\PSoC4/D9.c **** *
 220:Generated_Source\PSoC4/D9.c **** * \brief Clears any active interrupts attached with the component and returns 
 221:Generated_Source\PSoC4/D9.c **** *  the value of the interrupt status register allowing determination of which
 222:Generated_Source\PSoC4/D9.c **** *  pins generated an interrupt event.
 223:Generated_Source\PSoC4/D9.c **** *
 224:Generated_Source\PSoC4/D9.c **** * \return 
 225:Generated_Source\PSoC4/D9.c **** *  The right-shifted current value of the interrupt status register. Each pin 
 226:Generated_Source\PSoC4/D9.c **** *  has one bit set if it generated an interrupt event. For example, bit 0 is 
 227:Generated_Source\PSoC4/D9.c **** *  for pin 0 and bit 1 is for pin 1 of the Pins component.
 228:Generated_Source\PSoC4/D9.c **** *  
 229:Generated_Source\PSoC4/D9.c **** * \sideeffect
 230:Generated_Source\PSoC4/D9.c **** *  Clears all bits of the physical port's interrupt status register, not just
 231:Generated_Source\PSoC4/D9.c **** *  those associated with the Pins component.
 232:Generated_Source\PSoC4/D9.c **** *
 233:Generated_Source\PSoC4/D9.c **** * \funcusage
 234:Generated_Source\PSoC4/D9.c **** *  \snippet D9_SUT.c usage_D9_ClearInterrupt
 235:Generated_Source\PSoC4/D9.c **** *******************************************************************************/
 236:Generated_Source\PSoC4/D9.c **** uint8 D9_ClearInterrupt(void)
 237:Generated_Source\PSoC4/D9.c **** {
 199              		.loc 1 237 0
 200              		.cfi_startproc
 201              		@ args = 0, pretend = 0, frame = 0
 202              		@ frame_needed = 0, uses_anonymous_args = 0
 203              		@ link register save eliminated.
 238:Generated_Source\PSoC4/D9.c **** 	uint8 maskedStatus = (uint8)(D9_INTSTAT & D9_MASK);
 204              		.loc 1 238 0
 205 0000 0823     		movs	r3, #8
 206 0002 034A     		ldr	r2, .L17
 239:Generated_Source\PSoC4/D9.c **** 	D9_INTSTAT = maskedStatus;
 240:Generated_Source\PSoC4/D9.c ****     return maskedStatus >> D9_SHIFT;
 241:Generated_Source\PSoC4/D9.c **** }
 207              		.loc 1 241 0
 208              		@ sp needed
ARM GAS  C:\Users\Greg\AppData\Local\Temp\ccV9VT24.s 			page 9


 238:Generated_Source\PSoC4/D9.c **** 	uint8 maskedStatus = (uint8)(D9_INTSTAT & D9_MASK);
 209              		.loc 1 238 0
 210 0004 1068     		ldr	r0, [r2]
 211 0006 1840     		ands	r0, r3
 212              	.LVL8:
 239:Generated_Source\PSoC4/D9.c **** 	D9_INTSTAT = maskedStatus;
 213              		.loc 1 239 0
 214 0008 1060     		str	r0, [r2]
 240:Generated_Source\PSoC4/D9.c **** }
 215              		.loc 1 240 0
 216 000a C008     		lsrs	r0, r0, #3
 217              	.LVL9:
 218 000c C0B2     		uxtb	r0, r0
 219              		.loc 1 241 0
 220 000e 7047     		bx	lr
 221              	.L18:
 222              		.align	2
 223              	.L17:
 224 0010 10000440 		.word	1074003984
 225              		.cfi_endproc
 226              	.LFE5:
 227              		.size	D9_ClearInterrupt, .-D9_ClearInterrupt
 228              		.text
 229              	.Letext0:
 230              		.file 2 "Generated_Source\\PSoC4\\cytypes.h"