ARM GAS  C:\Users\gjl\AppData\Local\Temp\cc4wHcWQ.s 			page 1


   1              		.syntax unified
   2              		.cpu cortex-m0
   3              		.fpu softvfp
   4              		.eabi_attribute 20, 1
   5              		.eabi_attribute 21, 1
   6              		.eabi_attribute 23, 3
   7              		.eabi_attribute 24, 1
   8              		.eabi_attribute 25, 1
   9              		.eabi_attribute 26, 1
  10              		.eabi_attribute 30, 4
  11              		.eabi_attribute 34, 0
  12              		.eabi_attribute 18, 4
  13              		.thumb
  14              		.syntax unified
  15              		.file	"I2C.c"
  16              		.text
  17              	.Ltext0:
  18              		.cfi_sections	.debug_frame
  19              		.section	.text.I2C_Init,"ax",%progbits
  20              		.align	1
  21              		.global	I2C_Init
  22              		.code	16
  23              		.thumb_func
  24              		.type	I2C_Init, %function
  25              	I2C_Init:
  26              	.LFB1:
  27              		.file 1 "Generated_Source\\PSoC4\\I2C.c"
   1:Generated_Source\PSoC4/I2C.c **** /***************************************************************************//**
   2:Generated_Source\PSoC4/I2C.c **** * \file I2C.c
   3:Generated_Source\PSoC4/I2C.c **** * \version 3.20
   4:Generated_Source\PSoC4/I2C.c **** *
   5:Generated_Source\PSoC4/I2C.c **** * \brief
   6:Generated_Source\PSoC4/I2C.c **** *  This file provides the source code to the API for the SCB Component.
   7:Generated_Source\PSoC4/I2C.c **** *
   8:Generated_Source\PSoC4/I2C.c **** * Note:
   9:Generated_Source\PSoC4/I2C.c **** *
  10:Generated_Source\PSoC4/I2C.c **** *******************************************************************************
  11:Generated_Source\PSoC4/I2C.c **** * \copyright
  12:Generated_Source\PSoC4/I2C.c **** * Copyright 2013-2016, Cypress Semiconductor Corporation.  All rights reserved.
  13:Generated_Source\PSoC4/I2C.c **** * You may use this file only in accordance with the license, terms, conditions,
  14:Generated_Source\PSoC4/I2C.c **** * disclaimers, and limitations in the end user license agreement accompanying
  15:Generated_Source\PSoC4/I2C.c **** * the software package with which this file was provided.
  16:Generated_Source\PSoC4/I2C.c **** *******************************************************************************/
  17:Generated_Source\PSoC4/I2C.c **** 
  18:Generated_Source\PSoC4/I2C.c **** #include "I2C_PVT.h"
  19:Generated_Source\PSoC4/I2C.c **** 
  20:Generated_Source\PSoC4/I2C.c **** #if (I2C_SCB_MODE_I2C_INC)
  21:Generated_Source\PSoC4/I2C.c ****     #include "I2C_I2C_PVT.h"
  22:Generated_Source\PSoC4/I2C.c **** #endif /* (I2C_SCB_MODE_I2C_INC) */
  23:Generated_Source\PSoC4/I2C.c **** 
  24:Generated_Source\PSoC4/I2C.c **** #if (I2C_SCB_MODE_EZI2C_INC)
  25:Generated_Source\PSoC4/I2C.c ****     #include "I2C_EZI2C_PVT.h"
  26:Generated_Source\PSoC4/I2C.c **** #endif /* (I2C_SCB_MODE_EZI2C_INC) */
  27:Generated_Source\PSoC4/I2C.c **** 
  28:Generated_Source\PSoC4/I2C.c **** #if (I2C_SCB_MODE_SPI_INC || I2C_SCB_MODE_UART_INC)
  29:Generated_Source\PSoC4/I2C.c ****     #include "I2C_SPI_UART_PVT.h"
  30:Generated_Source\PSoC4/I2C.c **** #endif /* (I2C_SCB_MODE_SPI_INC || I2C_SCB_MODE_UART_INC) */
ARM GAS  C:\Users\gjl\AppData\Local\Temp\cc4wHcWQ.s 			page 2


  31:Generated_Source\PSoC4/I2C.c **** 
  32:Generated_Source\PSoC4/I2C.c **** 
  33:Generated_Source\PSoC4/I2C.c **** /***************************************
  34:Generated_Source\PSoC4/I2C.c **** *    Run Time Configuration Vars
  35:Generated_Source\PSoC4/I2C.c **** ***************************************/
  36:Generated_Source\PSoC4/I2C.c **** 
  37:Generated_Source\PSoC4/I2C.c **** /* Stores internal component configuration for Unconfigured mode */
  38:Generated_Source\PSoC4/I2C.c **** #if (I2C_SCB_MODE_UNCONFIG_CONST_CFG)
  39:Generated_Source\PSoC4/I2C.c ****     /* Common configuration variables */
  40:Generated_Source\PSoC4/I2C.c ****     uint8 I2C_scbMode = I2C_SCB_MODE_UNCONFIG;
  41:Generated_Source\PSoC4/I2C.c ****     uint8 I2C_scbEnableWake;
  42:Generated_Source\PSoC4/I2C.c ****     uint8 I2C_scbEnableIntr;
  43:Generated_Source\PSoC4/I2C.c **** 
  44:Generated_Source\PSoC4/I2C.c ****     /* I2C configuration variables */
  45:Generated_Source\PSoC4/I2C.c ****     uint8 I2C_mode;
  46:Generated_Source\PSoC4/I2C.c ****     uint8 I2C_acceptAddr;
  47:Generated_Source\PSoC4/I2C.c **** 
  48:Generated_Source\PSoC4/I2C.c ****     /* SPI/UART configuration variables */
  49:Generated_Source\PSoC4/I2C.c ****     volatile uint8 * I2C_rxBuffer;
  50:Generated_Source\PSoC4/I2C.c ****     uint8  I2C_rxDataBits;
  51:Generated_Source\PSoC4/I2C.c ****     uint32 I2C_rxBufferSize;
  52:Generated_Source\PSoC4/I2C.c **** 
  53:Generated_Source\PSoC4/I2C.c ****     volatile uint8 * I2C_txBuffer;
  54:Generated_Source\PSoC4/I2C.c ****     uint8  I2C_txDataBits;
  55:Generated_Source\PSoC4/I2C.c ****     uint32 I2C_txBufferSize;
  56:Generated_Source\PSoC4/I2C.c **** 
  57:Generated_Source\PSoC4/I2C.c ****     /* EZI2C configuration variables */
  58:Generated_Source\PSoC4/I2C.c ****     uint8 I2C_numberOfAddr;
  59:Generated_Source\PSoC4/I2C.c ****     uint8 I2C_subAddrSize;
  60:Generated_Source\PSoC4/I2C.c **** #endif /* (I2C_SCB_MODE_UNCONFIG_CONST_CFG) */
  61:Generated_Source\PSoC4/I2C.c **** 
  62:Generated_Source\PSoC4/I2C.c **** 
  63:Generated_Source\PSoC4/I2C.c **** /***************************************
  64:Generated_Source\PSoC4/I2C.c **** *     Common SCB Vars
  65:Generated_Source\PSoC4/I2C.c **** ***************************************/
  66:Generated_Source\PSoC4/I2C.c **** /**
  67:Generated_Source\PSoC4/I2C.c **** * \addtogroup group_general
  68:Generated_Source\PSoC4/I2C.c **** * \{
  69:Generated_Source\PSoC4/I2C.c **** */
  70:Generated_Source\PSoC4/I2C.c **** 
  71:Generated_Source\PSoC4/I2C.c **** /** I2C_initVar indicates whether the I2C 
  72:Generated_Source\PSoC4/I2C.c **** *  component has been initialized. The variable is initialized to 0 
  73:Generated_Source\PSoC4/I2C.c **** *  and set to 1 the first time SCB_Start() is called. This allows 
  74:Generated_Source\PSoC4/I2C.c **** *  the component to restart without reinitialization after the first 
  75:Generated_Source\PSoC4/I2C.c **** *  call to the I2C_Start() routine.
  76:Generated_Source\PSoC4/I2C.c **** *
  77:Generated_Source\PSoC4/I2C.c **** *  If re-initialization of the component is required, then the 
  78:Generated_Source\PSoC4/I2C.c **** *  I2C_Init() function can be called before the 
  79:Generated_Source\PSoC4/I2C.c **** *  I2C_Start() or I2C_Enable() function.
  80:Generated_Source\PSoC4/I2C.c **** */
  81:Generated_Source\PSoC4/I2C.c **** uint8 I2C_initVar = 0u;
  82:Generated_Source\PSoC4/I2C.c **** 
  83:Generated_Source\PSoC4/I2C.c **** 
  84:Generated_Source\PSoC4/I2C.c **** #if (! (I2C_SCB_MODE_I2C_CONST_CFG || \
  85:Generated_Source\PSoC4/I2C.c ****         I2C_SCB_MODE_EZI2C_CONST_CFG))
  86:Generated_Source\PSoC4/I2C.c ****     /** This global variable stores TX interrupt sources after 
  87:Generated_Source\PSoC4/I2C.c ****     * I2C_Stop() is called. Only these TX interrupt sources 
ARM GAS  C:\Users\gjl\AppData\Local\Temp\cc4wHcWQ.s 			page 3


  88:Generated_Source\PSoC4/I2C.c ****     * will be restored on a subsequent I2C_Enable() call.
  89:Generated_Source\PSoC4/I2C.c ****     */
  90:Generated_Source\PSoC4/I2C.c ****     uint16 I2C_IntrTxMask = 0u;
  91:Generated_Source\PSoC4/I2C.c **** #endif /* (! (I2C_SCB_MODE_I2C_CONST_CFG || \
  92:Generated_Source\PSoC4/I2C.c ****               I2C_SCB_MODE_EZI2C_CONST_CFG)) */
  93:Generated_Source\PSoC4/I2C.c **** /** \} globals */
  94:Generated_Source\PSoC4/I2C.c **** 
  95:Generated_Source\PSoC4/I2C.c **** #if (I2C_SCB_IRQ_INTERNAL)
  96:Generated_Source\PSoC4/I2C.c **** #if !defined (CY_REMOVE_I2C_CUSTOM_INTR_HANDLER)
  97:Generated_Source\PSoC4/I2C.c ****     void (*I2C_customIntrHandler)(void) = NULL;
  98:Generated_Source\PSoC4/I2C.c **** #endif /* !defined (CY_REMOVE_I2C_CUSTOM_INTR_HANDLER) */
  99:Generated_Source\PSoC4/I2C.c **** #endif /* (I2C_SCB_IRQ_INTERNAL) */
 100:Generated_Source\PSoC4/I2C.c **** 
 101:Generated_Source\PSoC4/I2C.c **** 
 102:Generated_Source\PSoC4/I2C.c **** /***************************************
 103:Generated_Source\PSoC4/I2C.c **** *    Private Function Prototypes
 104:Generated_Source\PSoC4/I2C.c **** ***************************************/
 105:Generated_Source\PSoC4/I2C.c **** 
 106:Generated_Source\PSoC4/I2C.c **** static void I2C_ScbEnableIntr(void);
 107:Generated_Source\PSoC4/I2C.c **** static void I2C_ScbModeStop(void);
 108:Generated_Source\PSoC4/I2C.c **** static void I2C_ScbModePostEnable(void);
 109:Generated_Source\PSoC4/I2C.c **** 
 110:Generated_Source\PSoC4/I2C.c **** 
 111:Generated_Source\PSoC4/I2C.c **** /*******************************************************************************
 112:Generated_Source\PSoC4/I2C.c **** * Function Name: I2C_Init
 113:Generated_Source\PSoC4/I2C.c **** ****************************************************************************//**
 114:Generated_Source\PSoC4/I2C.c **** *
 115:Generated_Source\PSoC4/I2C.c **** *  Initializes the I2C component to operate in one of the selected
 116:Generated_Source\PSoC4/I2C.c **** *  configurations: I2C, SPI, UART or EZI2C.
 117:Generated_Source\PSoC4/I2C.c **** *  When the configuration is set to "Unconfigured SCB", this function does
 118:Generated_Source\PSoC4/I2C.c **** *  not do any initialization. Use mode-specific initialization APIs instead:
 119:Generated_Source\PSoC4/I2C.c **** *  I2C_I2CInit, I2C_SpiInit, 
 120:Generated_Source\PSoC4/I2C.c **** *  I2C_UartInit or I2C_EzI2CInit.
 121:Generated_Source\PSoC4/I2C.c **** *
 122:Generated_Source\PSoC4/I2C.c **** *******************************************************************************/
 123:Generated_Source\PSoC4/I2C.c **** void I2C_Init(void)
 124:Generated_Source\PSoC4/I2C.c **** {
  28              		.loc 1 124 0
  29              		.cfi_startproc
  30              		@ args = 0, pretend = 0, frame = 0
  31              		@ frame_needed = 0, uses_anonymous_args = 0
  32 0000 10B5     		push	{r4, lr}
  33              		.cfi_def_cfa_offset 8
  34              		.cfi_offset 4, -8
  35              		.cfi_offset 14, -4
 125:Generated_Source\PSoC4/I2C.c **** #if (I2C_SCB_MODE_UNCONFIG_CONST_CFG)
 126:Generated_Source\PSoC4/I2C.c ****     if (I2C_SCB_MODE_UNCONFIG_RUNTM_CFG)
 127:Generated_Source\PSoC4/I2C.c ****     {
 128:Generated_Source\PSoC4/I2C.c ****         I2C_initVar = 0u;
 129:Generated_Source\PSoC4/I2C.c ****     }
 130:Generated_Source\PSoC4/I2C.c ****     else
 131:Generated_Source\PSoC4/I2C.c ****     {
 132:Generated_Source\PSoC4/I2C.c ****         /* Initialization was done before this function call */
 133:Generated_Source\PSoC4/I2C.c ****     }
 134:Generated_Source\PSoC4/I2C.c **** 
 135:Generated_Source\PSoC4/I2C.c **** #elif (I2C_SCB_MODE_I2C_CONST_CFG)
 136:Generated_Source\PSoC4/I2C.c ****     I2C_I2CInit();
ARM GAS  C:\Users\gjl\AppData\Local\Temp\cc4wHcWQ.s 			page 4


  36              		.loc 1 136 0
  37 0002 FFF7FEFF 		bl	I2C_I2CInit
  38              	.LVL0:
 137:Generated_Source\PSoC4/I2C.c **** 
 138:Generated_Source\PSoC4/I2C.c **** #elif (I2C_SCB_MODE_SPI_CONST_CFG)
 139:Generated_Source\PSoC4/I2C.c ****     I2C_SpiInit();
 140:Generated_Source\PSoC4/I2C.c **** 
 141:Generated_Source\PSoC4/I2C.c **** #elif (I2C_SCB_MODE_UART_CONST_CFG)
 142:Generated_Source\PSoC4/I2C.c ****     I2C_UartInit();
 143:Generated_Source\PSoC4/I2C.c **** 
 144:Generated_Source\PSoC4/I2C.c **** #elif (I2C_SCB_MODE_EZI2C_CONST_CFG)
 145:Generated_Source\PSoC4/I2C.c ****     I2C_EzI2CInit();
 146:Generated_Source\PSoC4/I2C.c **** 
 147:Generated_Source\PSoC4/I2C.c **** #endif /* (I2C_SCB_MODE_UNCONFIG_CONST_CFG) */
 148:Generated_Source\PSoC4/I2C.c **** }
  39              		.loc 1 148 0
  40              		@ sp needed
  41 0006 10BD     		pop	{r4, pc}
  42              		.cfi_endproc
  43              	.LFE1:
  44              		.size	I2C_Init, .-I2C_Init
  45              		.section	.text.I2C_Enable,"ax",%progbits
  46              		.align	1
  47              		.global	I2C_Enable
  48              		.code	16
  49              		.thumb_func
  50              		.type	I2C_Enable, %function
  51              	I2C_Enable:
  52              	.LFB2:
 149:Generated_Source\PSoC4/I2C.c **** 
 150:Generated_Source\PSoC4/I2C.c **** 
 151:Generated_Source\PSoC4/I2C.c **** /*******************************************************************************
 152:Generated_Source\PSoC4/I2C.c **** * Function Name: I2C_Enable
 153:Generated_Source\PSoC4/I2C.c **** ****************************************************************************//**
 154:Generated_Source\PSoC4/I2C.c **** *
 155:Generated_Source\PSoC4/I2C.c **** *  Enables I2C component operation: activates the hardware and 
 156:Generated_Source\PSoC4/I2C.c **** *  internal interrupt. It also restores TX interrupt sources disabled after the 
 157:Generated_Source\PSoC4/I2C.c **** *  I2C_Stop() function was called (note that level-triggered TX 
 158:Generated_Source\PSoC4/I2C.c **** *  interrupt sources remain disabled to not cause code lock-up).
 159:Generated_Source\PSoC4/I2C.c **** *  For I2C and EZI2C modes the interrupt is internal and mandatory for 
 160:Generated_Source\PSoC4/I2C.c **** *  operation. For SPI and UART modes the interrupt can be configured as none, 
 161:Generated_Source\PSoC4/I2C.c **** *  internal or external.
 162:Generated_Source\PSoC4/I2C.c **** *  The I2C configuration should be not changed when the component
 163:Generated_Source\PSoC4/I2C.c **** *  is enabled. Any configuration changes should be made after disabling the 
 164:Generated_Source\PSoC4/I2C.c **** *  component.
 165:Generated_Source\PSoC4/I2C.c **** *  When configuration is set to “Unconfigured I2C”, the component 
 166:Generated_Source\PSoC4/I2C.c **** *  must first be initialized to operate in one of the following configurations: 
 167:Generated_Source\PSoC4/I2C.c **** *  I2C, SPI, UART or EZ I2C, using the mode-specific initialization API. 
 168:Generated_Source\PSoC4/I2C.c **** *  Otherwise this function does not enable the component.
 169:Generated_Source\PSoC4/I2C.c **** *
 170:Generated_Source\PSoC4/I2C.c **** *******************************************************************************/
 171:Generated_Source\PSoC4/I2C.c **** void I2C_Enable(void)
 172:Generated_Source\PSoC4/I2C.c **** {
  53              		.loc 1 172 0
  54              		.cfi_startproc
  55              		@ args = 0, pretend = 0, frame = 0
  56              		@ frame_needed = 0, uses_anonymous_args = 0
ARM GAS  C:\Users\gjl\AppData\Local\Temp\cc4wHcWQ.s 			page 5


 173:Generated_Source\PSoC4/I2C.c **** #if (I2C_SCB_MODE_UNCONFIG_CONST_CFG)
 174:Generated_Source\PSoC4/I2C.c ****     /* Enable SCB block, only if it is already configured */
 175:Generated_Source\PSoC4/I2C.c ****     if (!I2C_SCB_MODE_UNCONFIG_RUNTM_CFG)
 176:Generated_Source\PSoC4/I2C.c ****     {
 177:Generated_Source\PSoC4/I2C.c ****         I2C_CTRL_REG |= I2C_CTRL_ENABLED;
 178:Generated_Source\PSoC4/I2C.c **** 
 179:Generated_Source\PSoC4/I2C.c ****         I2C_ScbEnableIntr();
 180:Generated_Source\PSoC4/I2C.c **** 
 181:Generated_Source\PSoC4/I2C.c ****         /* Call PostEnable function specific to current operation mode */
 182:Generated_Source\PSoC4/I2C.c ****         I2C_ScbModePostEnable();
 183:Generated_Source\PSoC4/I2C.c ****     }
 184:Generated_Source\PSoC4/I2C.c **** #else
 185:Generated_Source\PSoC4/I2C.c ****     I2C_CTRL_REG |= I2C_CTRL_ENABLED;
  57              		.loc 1 185 0
  58 0000 8021     		movs	r1, #128
  59 0002 054A     		ldr	r2, .L3
 172:Generated_Source\PSoC4/I2C.c **** #if (I2C_SCB_MODE_UNCONFIG_CONST_CFG)
  60              		.loc 1 172 0
  61 0004 10B5     		push	{r4, lr}
  62              		.cfi_def_cfa_offset 8
  63              		.cfi_offset 4, -8
  64              		.cfi_offset 14, -4
  65              		.loc 1 185 0
  66 0006 1368     		ldr	r3, [r2]
  67 0008 0906     		lsls	r1, r1, #24
  68 000a 0B43     		orrs	r3, r1
  69 000c 1360     		str	r3, [r2]
  70              	.LBB10:
  71              	.LBB11:
 186:Generated_Source\PSoC4/I2C.c **** 
 187:Generated_Source\PSoC4/I2C.c ****     I2C_ScbEnableIntr();
 188:Generated_Source\PSoC4/I2C.c **** 
 189:Generated_Source\PSoC4/I2C.c ****     /* Call PostEnable function specific to current operation mode */
 190:Generated_Source\PSoC4/I2C.c ****     I2C_ScbModePostEnable();
 191:Generated_Source\PSoC4/I2C.c **** #endif /* (I2C_SCB_MODE_UNCONFIG_CONST_CFG) */
 192:Generated_Source\PSoC4/I2C.c **** }
 193:Generated_Source\PSoC4/I2C.c **** 
 194:Generated_Source\PSoC4/I2C.c **** 
 195:Generated_Source\PSoC4/I2C.c **** /*******************************************************************************
 196:Generated_Source\PSoC4/I2C.c **** * Function Name: I2C_Start
 197:Generated_Source\PSoC4/I2C.c **** ****************************************************************************//**
 198:Generated_Source\PSoC4/I2C.c **** *
 199:Generated_Source\PSoC4/I2C.c **** *  Invokes I2C_Init() and I2C_Enable().
 200:Generated_Source\PSoC4/I2C.c **** *  After this function call, the component is enabled and ready for operation.
 201:Generated_Source\PSoC4/I2C.c **** *  When configuration is set to "Unconfigured SCB", the component must first be
 202:Generated_Source\PSoC4/I2C.c **** *  initialized to operate in one of the following configurations: I2C, SPI, UART
 203:Generated_Source\PSoC4/I2C.c **** *  or EZI2C. Otherwise this function does not enable the component.
 204:Generated_Source\PSoC4/I2C.c **** *
 205:Generated_Source\PSoC4/I2C.c **** * \globalvars
 206:Generated_Source\PSoC4/I2C.c **** *  I2C_initVar - used to check initial configuration, modified
 207:Generated_Source\PSoC4/I2C.c **** *  on first function call.
 208:Generated_Source\PSoC4/I2C.c **** *
 209:Generated_Source\PSoC4/I2C.c **** *******************************************************************************/
 210:Generated_Source\PSoC4/I2C.c **** void I2C_Start(void)
 211:Generated_Source\PSoC4/I2C.c **** {
 212:Generated_Source\PSoC4/I2C.c ****     if (0u == I2C_initVar)
 213:Generated_Source\PSoC4/I2C.c ****     {
ARM GAS  C:\Users\gjl\AppData\Local\Temp\cc4wHcWQ.s 			page 6


 214:Generated_Source\PSoC4/I2C.c ****         I2C_Init();
 215:Generated_Source\PSoC4/I2C.c ****         I2C_initVar = 1u; /* Component was initialized */
 216:Generated_Source\PSoC4/I2C.c ****     }
 217:Generated_Source\PSoC4/I2C.c **** 
 218:Generated_Source\PSoC4/I2C.c ****     I2C_Enable();
 219:Generated_Source\PSoC4/I2C.c **** }
 220:Generated_Source\PSoC4/I2C.c **** 
 221:Generated_Source\PSoC4/I2C.c **** 
 222:Generated_Source\PSoC4/I2C.c **** /*******************************************************************************
 223:Generated_Source\PSoC4/I2C.c **** * Function Name: I2C_Stop
 224:Generated_Source\PSoC4/I2C.c **** ****************************************************************************//**
 225:Generated_Source\PSoC4/I2C.c **** *
 226:Generated_Source\PSoC4/I2C.c **** *  Disables the I2C component: disable the hardware and internal 
 227:Generated_Source\PSoC4/I2C.c **** *  interrupt. It also disables all TX interrupt sources so as not to cause an 
 228:Generated_Source\PSoC4/I2C.c **** *  unexpected interrupt trigger because after the component is enabled, the 
 229:Generated_Source\PSoC4/I2C.c **** *  TX FIFO is empty.
 230:Generated_Source\PSoC4/I2C.c **** *  Refer to the function I2C_Enable() for the interrupt 
 231:Generated_Source\PSoC4/I2C.c **** *  configuration details.
 232:Generated_Source\PSoC4/I2C.c **** *  This function disables the SCB component without checking to see if 
 233:Generated_Source\PSoC4/I2C.c **** *  communication is in progress. Before calling this function it may be 
 234:Generated_Source\PSoC4/I2C.c **** *  necessary to check the status of communication to make sure communication 
 235:Generated_Source\PSoC4/I2C.c **** *  is complete. If this is not done then communication could be stopped mid 
 236:Generated_Source\PSoC4/I2C.c **** *  byte and corrupted data could result.
 237:Generated_Source\PSoC4/I2C.c **** *
 238:Generated_Source\PSoC4/I2C.c **** *******************************************************************************/
 239:Generated_Source\PSoC4/I2C.c **** void I2C_Stop(void)
 240:Generated_Source\PSoC4/I2C.c **** {
 241:Generated_Source\PSoC4/I2C.c **** #if (I2C_SCB_IRQ_INTERNAL)
 242:Generated_Source\PSoC4/I2C.c ****     I2C_DisableInt();
 243:Generated_Source\PSoC4/I2C.c **** #endif /* (I2C_SCB_IRQ_INTERNAL) */
 244:Generated_Source\PSoC4/I2C.c **** 
 245:Generated_Source\PSoC4/I2C.c ****     /* Call Stop function specific to current operation mode */
 246:Generated_Source\PSoC4/I2C.c ****     I2C_ScbModeStop();
 247:Generated_Source\PSoC4/I2C.c **** 
 248:Generated_Source\PSoC4/I2C.c ****     /* Disable SCB IP */
 249:Generated_Source\PSoC4/I2C.c ****     I2C_CTRL_REG &= (uint32) ~I2C_CTRL_ENABLED;
 250:Generated_Source\PSoC4/I2C.c **** 
 251:Generated_Source\PSoC4/I2C.c ****     /* Disable all TX interrupt sources so as not to cause an unexpected
 252:Generated_Source\PSoC4/I2C.c ****     * interrupt trigger after the component will be enabled because the 
 253:Generated_Source\PSoC4/I2C.c ****     * TX FIFO is empty.
 254:Generated_Source\PSoC4/I2C.c ****     * For SCB IP v0, it is critical as it does not mask-out interrupt
 255:Generated_Source\PSoC4/I2C.c ****     * sources when it is disabled. This can cause a code lock-up in the
 256:Generated_Source\PSoC4/I2C.c ****     * interrupt handler because TX FIFO cannot be loaded after the block
 257:Generated_Source\PSoC4/I2C.c ****     * is disabled.
 258:Generated_Source\PSoC4/I2C.c ****     */
 259:Generated_Source\PSoC4/I2C.c ****     I2C_SetTxInterruptMode(I2C_NO_INTR_SOURCES);
 260:Generated_Source\PSoC4/I2C.c **** 
 261:Generated_Source\PSoC4/I2C.c **** #if (I2C_SCB_IRQ_INTERNAL)
 262:Generated_Source\PSoC4/I2C.c ****     I2C_ClearPendingInt();
 263:Generated_Source\PSoC4/I2C.c **** #endif /* (I2C_SCB_IRQ_INTERNAL) */
 264:Generated_Source\PSoC4/I2C.c **** }
 265:Generated_Source\PSoC4/I2C.c **** 
 266:Generated_Source\PSoC4/I2C.c **** 
 267:Generated_Source\PSoC4/I2C.c **** /*******************************************************************************
 268:Generated_Source\PSoC4/I2C.c **** * Function Name: I2C_SetRxFifoLevel
 269:Generated_Source\PSoC4/I2C.c **** ****************************************************************************//**
 270:Generated_Source\PSoC4/I2C.c **** *
ARM GAS  C:\Users\gjl\AppData\Local\Temp\cc4wHcWQ.s 			page 7


 271:Generated_Source\PSoC4/I2C.c **** *  Sets level in the RX FIFO to generate a RX level interrupt.
 272:Generated_Source\PSoC4/I2C.c **** *  When the RX FIFO has more entries than the RX FIFO level an RX level
 273:Generated_Source\PSoC4/I2C.c **** *  interrupt request is generated.
 274:Generated_Source\PSoC4/I2C.c **** *
 275:Generated_Source\PSoC4/I2C.c **** *  \param level: Level in the RX FIFO to generate RX level interrupt.
 276:Generated_Source\PSoC4/I2C.c **** *   The range of valid level values is between 0 and RX FIFO depth - 1.
 277:Generated_Source\PSoC4/I2C.c **** *
 278:Generated_Source\PSoC4/I2C.c **** *******************************************************************************/
 279:Generated_Source\PSoC4/I2C.c **** void I2C_SetRxFifoLevel(uint32 level)
 280:Generated_Source\PSoC4/I2C.c **** {
 281:Generated_Source\PSoC4/I2C.c ****     uint32 rxFifoCtrl;
 282:Generated_Source\PSoC4/I2C.c **** 
 283:Generated_Source\PSoC4/I2C.c ****     rxFifoCtrl = I2C_RX_FIFO_CTRL_REG;
 284:Generated_Source\PSoC4/I2C.c **** 
 285:Generated_Source\PSoC4/I2C.c ****     rxFifoCtrl &= ((uint32) ~I2C_RX_FIFO_CTRL_TRIGGER_LEVEL_MASK); /* Clear level mask bits */
 286:Generated_Source\PSoC4/I2C.c ****     rxFifoCtrl |= ((uint32) (I2C_RX_FIFO_CTRL_TRIGGER_LEVEL_MASK & level));
 287:Generated_Source\PSoC4/I2C.c **** 
 288:Generated_Source\PSoC4/I2C.c ****     I2C_RX_FIFO_CTRL_REG = rxFifoCtrl;
 289:Generated_Source\PSoC4/I2C.c **** }
 290:Generated_Source\PSoC4/I2C.c **** 
 291:Generated_Source\PSoC4/I2C.c **** 
 292:Generated_Source\PSoC4/I2C.c **** /*******************************************************************************
 293:Generated_Source\PSoC4/I2C.c **** * Function Name: I2C_SetTxFifoLevel
 294:Generated_Source\PSoC4/I2C.c **** ****************************************************************************//**
 295:Generated_Source\PSoC4/I2C.c **** *
 296:Generated_Source\PSoC4/I2C.c **** *  Sets level in the TX FIFO to generate a TX level interrupt.
 297:Generated_Source\PSoC4/I2C.c **** *  When the TX FIFO has less entries than the TX FIFO level an TX level
 298:Generated_Source\PSoC4/I2C.c **** *  interrupt request is generated.
 299:Generated_Source\PSoC4/I2C.c **** *
 300:Generated_Source\PSoC4/I2C.c **** *  \param level: Level in the TX FIFO to generate TX level interrupt.
 301:Generated_Source\PSoC4/I2C.c **** *   The range of valid level values is between 0 and TX FIFO depth - 1.
 302:Generated_Source\PSoC4/I2C.c **** *
 303:Generated_Source\PSoC4/I2C.c **** *******************************************************************************/
 304:Generated_Source\PSoC4/I2C.c **** void I2C_SetTxFifoLevel(uint32 level)
 305:Generated_Source\PSoC4/I2C.c **** {
 306:Generated_Source\PSoC4/I2C.c ****     uint32 txFifoCtrl;
 307:Generated_Source\PSoC4/I2C.c **** 
 308:Generated_Source\PSoC4/I2C.c ****     txFifoCtrl = I2C_TX_FIFO_CTRL_REG;
 309:Generated_Source\PSoC4/I2C.c **** 
 310:Generated_Source\PSoC4/I2C.c ****     txFifoCtrl &= ((uint32) ~I2C_TX_FIFO_CTRL_TRIGGER_LEVEL_MASK); /* Clear level mask bits */
 311:Generated_Source\PSoC4/I2C.c ****     txFifoCtrl |= ((uint32) (I2C_TX_FIFO_CTRL_TRIGGER_LEVEL_MASK & level));
 312:Generated_Source\PSoC4/I2C.c **** 
 313:Generated_Source\PSoC4/I2C.c ****     I2C_TX_FIFO_CTRL_REG = txFifoCtrl;
 314:Generated_Source\PSoC4/I2C.c **** }
 315:Generated_Source\PSoC4/I2C.c **** 
 316:Generated_Source\PSoC4/I2C.c **** 
 317:Generated_Source\PSoC4/I2C.c **** #if (I2C_SCB_IRQ_INTERNAL)
 318:Generated_Source\PSoC4/I2C.c ****     /*******************************************************************************
 319:Generated_Source\PSoC4/I2C.c ****     * Function Name: I2C_SetCustomInterruptHandler
 320:Generated_Source\PSoC4/I2C.c ****     ****************************************************************************//**
 321:Generated_Source\PSoC4/I2C.c ****     *
 322:Generated_Source\PSoC4/I2C.c ****     *  Registers a function to be called by the internal interrupt handler.
 323:Generated_Source\PSoC4/I2C.c ****     *  First the function that is registered is called, then the internal interrupt
 324:Generated_Source\PSoC4/I2C.c ****     *  handler performs any operation such as software buffer management functions
 325:Generated_Source\PSoC4/I2C.c ****     *  before the interrupt returns.  It is the user's responsibility not to break
 326:Generated_Source\PSoC4/I2C.c ****     *  the software buffer operations. Only one custom handler is supported, which
 327:Generated_Source\PSoC4/I2C.c ****     *  is the function provided by the most recent call.
ARM GAS  C:\Users\gjl\AppData\Local\Temp\cc4wHcWQ.s 			page 8


 328:Generated_Source\PSoC4/I2C.c ****     *  At the initialization time no custom handler is registered.
 329:Generated_Source\PSoC4/I2C.c ****     *
 330:Generated_Source\PSoC4/I2C.c ****     *  \param func: Pointer to the function to register.
 331:Generated_Source\PSoC4/I2C.c ****     *        The value NULL indicates to remove the current custom interrupt
 332:Generated_Source\PSoC4/I2C.c ****     *        handler.
 333:Generated_Source\PSoC4/I2C.c ****     *
 334:Generated_Source\PSoC4/I2C.c ****     *******************************************************************************/
 335:Generated_Source\PSoC4/I2C.c ****     void I2C_SetCustomInterruptHandler(void (*func)(void))
 336:Generated_Source\PSoC4/I2C.c ****     {
 337:Generated_Source\PSoC4/I2C.c ****     #if !defined (CY_REMOVE_I2C_CUSTOM_INTR_HANDLER)
 338:Generated_Source\PSoC4/I2C.c ****         I2C_customIntrHandler = func; /* Register interrupt handler */
 339:Generated_Source\PSoC4/I2C.c ****     #else
 340:Generated_Source\PSoC4/I2C.c ****         if (NULL != func)
 341:Generated_Source\PSoC4/I2C.c ****         {
 342:Generated_Source\PSoC4/I2C.c ****             /* Suppress compiler warning */
 343:Generated_Source\PSoC4/I2C.c ****         }
 344:Generated_Source\PSoC4/I2C.c ****     #endif /* !defined (CY_REMOVE_I2C_CUSTOM_INTR_HANDLER) */
 345:Generated_Source\PSoC4/I2C.c ****     }
 346:Generated_Source\PSoC4/I2C.c **** #endif /* (I2C_SCB_IRQ_INTERNAL) */
 347:Generated_Source\PSoC4/I2C.c **** 
 348:Generated_Source\PSoC4/I2C.c **** 
 349:Generated_Source\PSoC4/I2C.c **** /*******************************************************************************
 350:Generated_Source\PSoC4/I2C.c **** * Function Name: I2C_ScbModeEnableIntr
 351:Generated_Source\PSoC4/I2C.c **** ****************************************************************************//**
 352:Generated_Source\PSoC4/I2C.c **** *
 353:Generated_Source\PSoC4/I2C.c **** *  Enables an interrupt for a specific mode.
 354:Generated_Source\PSoC4/I2C.c **** *
 355:Generated_Source\PSoC4/I2C.c **** *******************************************************************************/
 356:Generated_Source\PSoC4/I2C.c **** static void I2C_ScbEnableIntr(void)
 357:Generated_Source\PSoC4/I2C.c **** {
 358:Generated_Source\PSoC4/I2C.c **** #if (I2C_SCB_IRQ_INTERNAL)
 359:Generated_Source\PSoC4/I2C.c ****     /* Enable interrupt in NVIC */
 360:Generated_Source\PSoC4/I2C.c ****     #if (I2C_SCB_MODE_UNCONFIG_CONST_CFG)
 361:Generated_Source\PSoC4/I2C.c ****         if (0u != I2C_scbEnableIntr)
 362:Generated_Source\PSoC4/I2C.c ****         {
 363:Generated_Source\PSoC4/I2C.c ****             I2C_EnableInt();
 364:Generated_Source\PSoC4/I2C.c ****         }
 365:Generated_Source\PSoC4/I2C.c **** 
 366:Generated_Source\PSoC4/I2C.c ****     #else
 367:Generated_Source\PSoC4/I2C.c ****         I2C_EnableInt();
  72              		.loc 1 367 0
  73 000e 0820     		movs	r0, #8
  74 0010 FFF7FEFF 		bl	CyIntEnable
  75              	.LVL1:
  76              	.LBE11:
  77              	.LBE10:
 192:Generated_Source\PSoC4/I2C.c **** 
  78              		.loc 1 192 0
  79              		@ sp needed
  80 0014 10BD     		pop	{r4, pc}
  81              	.L4:
  82 0016 C046     		.align	2
  83              	.L3:
  84 0018 00002440 		.word	1076101120
  85              		.cfi_endproc
  86              	.LFE2:
  87              		.size	I2C_Enable, .-I2C_Enable
ARM GAS  C:\Users\gjl\AppData\Local\Temp\cc4wHcWQ.s 			page 9


  88              		.section	.text.I2C_Start,"ax",%progbits
  89              		.align	1
  90              		.global	I2C_Start
  91              		.code	16
  92              		.thumb_func
  93              		.type	I2C_Start, %function
  94              	I2C_Start:
  95              	.LFB3:
 211:Generated_Source\PSoC4/I2C.c ****     if (0u == I2C_initVar)
  96              		.loc 1 211 0
  97              		.cfi_startproc
  98              		@ args = 0, pretend = 0, frame = 0
  99              		@ frame_needed = 0, uses_anonymous_args = 0
 100 0000 10B5     		push	{r4, lr}
 101              		.cfi_def_cfa_offset 8
 102              		.cfi_offset 4, -8
 103              		.cfi_offset 14, -4
 212:Generated_Source\PSoC4/I2C.c ****     {
 104              		.loc 1 212 0
 105 0002 054C     		ldr	r4, .L8
 106 0004 2378     		ldrb	r3, [r4]
 107 0006 002B     		cmp	r3, #0
 108 0008 03D1     		bne	.L6
 109              	.LBB12:
 110              	.LBB13:
 136:Generated_Source\PSoC4/I2C.c **** 
 111              		.loc 1 136 0
 112 000a FFF7FEFF 		bl	I2C_I2CInit
 113              	.LVL2:
 114              	.LBE13:
 115              	.LBE12:
 215:Generated_Source\PSoC4/I2C.c ****     }
 116              		.loc 1 215 0
 117 000e 0123     		movs	r3, #1
 118 0010 2370     		strb	r3, [r4]
 119              	.L6:
 218:Generated_Source\PSoC4/I2C.c **** }
 120              		.loc 1 218 0
 121 0012 FFF7FEFF 		bl	I2C_Enable
 122              	.LVL3:
 219:Generated_Source\PSoC4/I2C.c **** 
 123              		.loc 1 219 0
 124              		@ sp needed
 125 0016 10BD     		pop	{r4, pc}
 126              	.L9:
 127              		.align	2
 128              	.L8:
 129 0018 00000000 		.word	.LANCHOR0
 130              		.cfi_endproc
 131              	.LFE3:
 132              		.size	I2C_Start, .-I2C_Start
 133              		.section	.text.I2C_Stop,"ax",%progbits
 134              		.align	1
 135              		.global	I2C_Stop
 136              		.code	16
 137              		.thumb_func
 138              		.type	I2C_Stop, %function
ARM GAS  C:\Users\gjl\AppData\Local\Temp\cc4wHcWQ.s 			page 10


 139              	I2C_Stop:
 140              	.LFB4:
 240:Generated_Source\PSoC4/I2C.c **** #if (I2C_SCB_IRQ_INTERNAL)
 141              		.loc 1 240 0
 142              		.cfi_startproc
 143              		@ args = 0, pretend = 0, frame = 0
 144              		@ frame_needed = 0, uses_anonymous_args = 0
 145 0000 10B5     		push	{r4, lr}
 146              		.cfi_def_cfa_offset 8
 147              		.cfi_offset 4, -8
 148              		.cfi_offset 14, -4
 242:Generated_Source\PSoC4/I2C.c **** #endif /* (I2C_SCB_IRQ_INTERNAL) */
 149              		.loc 1 242 0
 150 0002 0820     		movs	r0, #8
 151 0004 FFF7FEFF 		bl	CyIntDisable
 152              	.LVL4:
 153              	.LBB14:
 154              	.LBB15:
 368:Generated_Source\PSoC4/I2C.c **** 
 369:Generated_Source\PSoC4/I2C.c ****     #endif /* (I2C_SCB_MODE_UNCONFIG_CONST_CFG) */
 370:Generated_Source\PSoC4/I2C.c **** #endif /* (I2C_SCB_IRQ_INTERNAL) */
 371:Generated_Source\PSoC4/I2C.c **** }
 372:Generated_Source\PSoC4/I2C.c **** 
 373:Generated_Source\PSoC4/I2C.c **** 
 374:Generated_Source\PSoC4/I2C.c **** /*******************************************************************************
 375:Generated_Source\PSoC4/I2C.c **** * Function Name: I2C_ScbModePostEnable
 376:Generated_Source\PSoC4/I2C.c **** ****************************************************************************//**
 377:Generated_Source\PSoC4/I2C.c **** *
 378:Generated_Source\PSoC4/I2C.c **** *  Calls the PostEnable function for a specific operation mode.
 379:Generated_Source\PSoC4/I2C.c **** *
 380:Generated_Source\PSoC4/I2C.c **** *******************************************************************************/
 381:Generated_Source\PSoC4/I2C.c **** static void I2C_ScbModePostEnable(void)
 382:Generated_Source\PSoC4/I2C.c **** {
 383:Generated_Source\PSoC4/I2C.c **** #if (I2C_SCB_MODE_UNCONFIG_CONST_CFG)
 384:Generated_Source\PSoC4/I2C.c **** #if (!I2C_CY_SCBIP_V1)
 385:Generated_Source\PSoC4/I2C.c ****     if (I2C_SCB_MODE_SPI_RUNTM_CFG)
 386:Generated_Source\PSoC4/I2C.c ****     {
 387:Generated_Source\PSoC4/I2C.c ****         I2C_SpiPostEnable();
 388:Generated_Source\PSoC4/I2C.c ****     }
 389:Generated_Source\PSoC4/I2C.c ****     else if (I2C_SCB_MODE_UART_RUNTM_CFG)
 390:Generated_Source\PSoC4/I2C.c ****     {
 391:Generated_Source\PSoC4/I2C.c ****         I2C_UartPostEnable();
 392:Generated_Source\PSoC4/I2C.c ****     }
 393:Generated_Source\PSoC4/I2C.c ****     else
 394:Generated_Source\PSoC4/I2C.c ****     {
 395:Generated_Source\PSoC4/I2C.c ****         /* Unknown mode: do nothing */
 396:Generated_Source\PSoC4/I2C.c ****     }
 397:Generated_Source\PSoC4/I2C.c **** #endif /* (!I2C_CY_SCBIP_V1) */
 398:Generated_Source\PSoC4/I2C.c **** 
 399:Generated_Source\PSoC4/I2C.c **** #elif (I2C_SCB_MODE_SPI_CONST_CFG)
 400:Generated_Source\PSoC4/I2C.c ****     I2C_SpiPostEnable();
 401:Generated_Source\PSoC4/I2C.c **** 
 402:Generated_Source\PSoC4/I2C.c **** #elif (I2C_SCB_MODE_UART_CONST_CFG)
 403:Generated_Source\PSoC4/I2C.c ****     I2C_UartPostEnable();
 404:Generated_Source\PSoC4/I2C.c **** 
 405:Generated_Source\PSoC4/I2C.c **** #else
 406:Generated_Source\PSoC4/I2C.c ****     /* Unknown mode: do nothing */
ARM GAS  C:\Users\gjl\AppData\Local\Temp\cc4wHcWQ.s 			page 11


 407:Generated_Source\PSoC4/I2C.c **** #endif /* (I2C_SCB_MODE_UNCONFIG_CONST_CFG) */
 408:Generated_Source\PSoC4/I2C.c **** }
 409:Generated_Source\PSoC4/I2C.c **** 
 410:Generated_Source\PSoC4/I2C.c **** 
 411:Generated_Source\PSoC4/I2C.c **** /*******************************************************************************
 412:Generated_Source\PSoC4/I2C.c **** * Function Name: I2C_ScbModeStop
 413:Generated_Source\PSoC4/I2C.c **** ****************************************************************************//**
 414:Generated_Source\PSoC4/I2C.c **** *
 415:Generated_Source\PSoC4/I2C.c **** *  Calls the Stop function for a specific operation mode.
 416:Generated_Source\PSoC4/I2C.c **** *
 417:Generated_Source\PSoC4/I2C.c **** *******************************************************************************/
 418:Generated_Source\PSoC4/I2C.c **** static void I2C_ScbModeStop(void)
 419:Generated_Source\PSoC4/I2C.c **** {
 420:Generated_Source\PSoC4/I2C.c **** #if (I2C_SCB_MODE_UNCONFIG_CONST_CFG)
 421:Generated_Source\PSoC4/I2C.c ****     if (I2C_SCB_MODE_I2C_RUNTM_CFG)
 422:Generated_Source\PSoC4/I2C.c ****     {
 423:Generated_Source\PSoC4/I2C.c ****         I2C_I2CStop();
 424:Generated_Source\PSoC4/I2C.c ****     }
 425:Generated_Source\PSoC4/I2C.c ****     else if (I2C_SCB_MODE_EZI2C_RUNTM_CFG)
 426:Generated_Source\PSoC4/I2C.c ****     {
 427:Generated_Source\PSoC4/I2C.c ****         I2C_EzI2CStop();
 428:Generated_Source\PSoC4/I2C.c ****     }
 429:Generated_Source\PSoC4/I2C.c **** #if (!I2C_CY_SCBIP_V1)
 430:Generated_Source\PSoC4/I2C.c ****     else if (I2C_SCB_MODE_SPI_RUNTM_CFG)
 431:Generated_Source\PSoC4/I2C.c ****     {
 432:Generated_Source\PSoC4/I2C.c ****         I2C_SpiStop();
 433:Generated_Source\PSoC4/I2C.c ****     }
 434:Generated_Source\PSoC4/I2C.c ****     else if (I2C_SCB_MODE_UART_RUNTM_CFG)
 435:Generated_Source\PSoC4/I2C.c ****     {
 436:Generated_Source\PSoC4/I2C.c ****         I2C_UartStop();
 437:Generated_Source\PSoC4/I2C.c ****     }
 438:Generated_Source\PSoC4/I2C.c **** #endif /* (!I2C_CY_SCBIP_V1) */
 439:Generated_Source\PSoC4/I2C.c ****     else
 440:Generated_Source\PSoC4/I2C.c ****     {
 441:Generated_Source\PSoC4/I2C.c ****         /* Unknown mode: do nothing */
 442:Generated_Source\PSoC4/I2C.c ****     }
 443:Generated_Source\PSoC4/I2C.c **** #elif (I2C_SCB_MODE_I2C_CONST_CFG)
 444:Generated_Source\PSoC4/I2C.c ****     I2C_I2CStop();
 155              		.loc 1 444 0
 156 0008 FFF7FEFF 		bl	I2C_I2CStop
 157              	.LVL5:
 158              	.LBE15:
 159              	.LBE14:
 249:Generated_Source\PSoC4/I2C.c **** 
 160              		.loc 1 249 0
 161 000c 054A     		ldr	r2, .L11
 262:Generated_Source\PSoC4/I2C.c **** #endif /* (I2C_SCB_IRQ_INTERNAL) */
 162              		.loc 1 262 0
 163 000e 0820     		movs	r0, #8
 249:Generated_Source\PSoC4/I2C.c **** 
 164              		.loc 1 249 0
 165 0010 1368     		ldr	r3, [r2]
 264:Generated_Source\PSoC4/I2C.c **** 
 166              		.loc 1 264 0
 167              		@ sp needed
 249:Generated_Source\PSoC4/I2C.c **** 
 168              		.loc 1 249 0
ARM GAS  C:\Users\gjl\AppData\Local\Temp\cc4wHcWQ.s 			page 12


 169 0012 5B00     		lsls	r3, r3, #1
 170 0014 5B08     		lsrs	r3, r3, #1
 171 0016 1360     		str	r3, [r2]
 259:Generated_Source\PSoC4/I2C.c **** 
 172              		.loc 1 259 0
 173 0018 0022     		movs	r2, #0
 174 001a 034B     		ldr	r3, .L11+4
 175 001c 1A60     		str	r2, [r3]
 262:Generated_Source\PSoC4/I2C.c **** #endif /* (I2C_SCB_IRQ_INTERNAL) */
 176              		.loc 1 262 0
 177 001e FFF7FEFF 		bl	CyIntClearPending
 178              	.LVL6:
 264:Generated_Source\PSoC4/I2C.c **** 
 179              		.loc 1 264 0
 180 0022 10BD     		pop	{r4, pc}
 181              	.L12:
 182              		.align	2
 183              	.L11:
 184 0024 00002440 		.word	1076101120
 185 0028 880F2440 		.word	1076105096
 186              		.cfi_endproc
 187              	.LFE4:
 188              		.size	I2C_Stop, .-I2C_Stop
 189              		.section	.text.I2C_SetRxFifoLevel,"ax",%progbits
 190              		.align	1
 191              		.global	I2C_SetRxFifoLevel
 192              		.code	16
 193              		.thumb_func
 194              		.type	I2C_SetRxFifoLevel, %function
 195              	I2C_SetRxFifoLevel:
 196              	.LFB5:
 280:Generated_Source\PSoC4/I2C.c ****     uint32 rxFifoCtrl;
 197              		.loc 1 280 0
 198              		.cfi_startproc
 199              		@ args = 0, pretend = 0, frame = 0
 200              		@ frame_needed = 0, uses_anonymous_args = 0
 201              		@ link register save eliminated.
 202              	.LVL7:
 285:Generated_Source\PSoC4/I2C.c ****     rxFifoCtrl |= ((uint32) (I2C_RX_FIFO_CTRL_TRIGGER_LEVEL_MASK & level));
 203              		.loc 1 285 0
 204 0000 0F22     		movs	r2, #15
 283:Generated_Source\PSoC4/I2C.c **** 
 205              		.loc 1 283 0
 206 0002 0349     		ldr	r1, .L14
 286:Generated_Source\PSoC4/I2C.c **** 
 207              		.loc 1 286 0
 208 0004 1040     		ands	r0, r2
 209              	.LVL8:
 283:Generated_Source\PSoC4/I2C.c **** 
 210              		.loc 1 283 0
 211 0006 0B68     		ldr	r3, [r1]
 212              	.LVL9:
 289:Generated_Source\PSoC4/I2C.c **** 
 213              		.loc 1 289 0
 214              		@ sp needed
 285:Generated_Source\PSoC4/I2C.c ****     rxFifoCtrl |= ((uint32) (I2C_RX_FIFO_CTRL_TRIGGER_LEVEL_MASK & level));
 215              		.loc 1 285 0
ARM GAS  C:\Users\gjl\AppData\Local\Temp\cc4wHcWQ.s 			page 13


 216 0008 9343     		bics	r3, r2
 217              	.LVL10:
 286:Generated_Source\PSoC4/I2C.c **** 
 218              		.loc 1 286 0
 219 000a 1843     		orrs	r0, r3
 220              	.LVL11:
 288:Generated_Source\PSoC4/I2C.c **** }
 221              		.loc 1 288 0
 222 000c 0860     		str	r0, [r1]
 289:Generated_Source\PSoC4/I2C.c **** 
 223              		.loc 1 289 0
 224 000e 7047     		bx	lr
 225              	.L15:
 226              		.align	2
 227              	.L14:
 228 0010 04032440 		.word	1076101892
 229              		.cfi_endproc
 230              	.LFE5:
 231              		.size	I2C_SetRxFifoLevel, .-I2C_SetRxFifoLevel
 232              		.section	.text.I2C_SetTxFifoLevel,"ax",%progbits
 233              		.align	1
 234              		.global	I2C_SetTxFifoLevel
 235              		.code	16
 236              		.thumb_func
 237              		.type	I2C_SetTxFifoLevel, %function
 238              	I2C_SetTxFifoLevel:
 239              	.LFB6:
 305:Generated_Source\PSoC4/I2C.c ****     uint32 txFifoCtrl;
 240              		.loc 1 305 0
 241              		.cfi_startproc
 242              		@ args = 0, pretend = 0, frame = 0
 243              		@ frame_needed = 0, uses_anonymous_args = 0
 244              		@ link register save eliminated.
 245              	.LVL12:
 310:Generated_Source\PSoC4/I2C.c ****     txFifoCtrl |= ((uint32) (I2C_TX_FIFO_CTRL_TRIGGER_LEVEL_MASK & level));
 246              		.loc 1 310 0
 247 0000 0F22     		movs	r2, #15
 308:Generated_Source\PSoC4/I2C.c **** 
 248              		.loc 1 308 0
 249 0002 0349     		ldr	r1, .L17
 311:Generated_Source\PSoC4/I2C.c **** 
 250              		.loc 1 311 0
 251 0004 1040     		ands	r0, r2
 252              	.LVL13:
 308:Generated_Source\PSoC4/I2C.c **** 
 253              		.loc 1 308 0
 254 0006 0B68     		ldr	r3, [r1]
 255              	.LVL14:
 314:Generated_Source\PSoC4/I2C.c **** 
 256              		.loc 1 314 0
 257              		@ sp needed
 310:Generated_Source\PSoC4/I2C.c ****     txFifoCtrl |= ((uint32) (I2C_TX_FIFO_CTRL_TRIGGER_LEVEL_MASK & level));
 258              		.loc 1 310 0
 259 0008 9343     		bics	r3, r2
 260              	.LVL15:
 311:Generated_Source\PSoC4/I2C.c **** 
 261              		.loc 1 311 0
ARM GAS  C:\Users\gjl\AppData\Local\Temp\cc4wHcWQ.s 			page 14


 262 000a 1843     		orrs	r0, r3
 263              	.LVL16:
 313:Generated_Source\PSoC4/I2C.c **** }
 264              		.loc 1 313 0
 265 000c 0860     		str	r0, [r1]
 314:Generated_Source\PSoC4/I2C.c **** 
 266              		.loc 1 314 0
 267 000e 7047     		bx	lr
 268              	.L18:
 269              		.align	2
 270              	.L17:
 271 0010 04022440 		.word	1076101636
 272              		.cfi_endproc
 273              	.LFE6:
 274              		.size	I2C_SetTxFifoLevel, .-I2C_SetTxFifoLevel
 275              		.section	.text.I2C_SetCustomInterruptHandler,"ax",%progbits
 276              		.align	1
 277              		.global	I2C_SetCustomInterruptHandler
 278              		.code	16
 279              		.thumb_func
 280              		.type	I2C_SetCustomInterruptHandler, %function
 281              	I2C_SetCustomInterruptHandler:
 282              	.LFB7:
 336:Generated_Source\PSoC4/I2C.c ****     #if !defined (CY_REMOVE_I2C_CUSTOM_INTR_HANDLER)
 283              		.loc 1 336 0
 284              		.cfi_startproc
 285              		@ args = 0, pretend = 0, frame = 0
 286              		@ frame_needed = 0, uses_anonymous_args = 0
 287              		@ link register save eliminated.
 288              	.LVL17:
 338:Generated_Source\PSoC4/I2C.c ****     #else
 289              		.loc 1 338 0
 290 0000 014B     		ldr	r3, .L20
 345:Generated_Source\PSoC4/I2C.c **** #endif /* (I2C_SCB_IRQ_INTERNAL) */
 291              		.loc 1 345 0
 292              		@ sp needed
 338:Generated_Source\PSoC4/I2C.c ****     #else
 293              		.loc 1 338 0
 294 0002 5860     		str	r0, [r3, #4]
 345:Generated_Source\PSoC4/I2C.c **** #endif /* (I2C_SCB_IRQ_INTERNAL) */
 295              		.loc 1 345 0
 296 0004 7047     		bx	lr
 297              	.L21:
 298 0006 C046     		.align	2
 299              	.L20:
 300 0008 00000000 		.word	.LANCHOR0
 301              		.cfi_endproc
 302              	.LFE7:
 303              		.size	I2C_SetCustomInterruptHandler, .-I2C_SetCustomInterruptHandler
 304              		.global	I2C_customIntrHandler
 305              		.global	I2C_initVar
 306              		.bss
 307              		.align	2
 308              		.set	.LANCHOR0,. + 0
 309              		.type	I2C_initVar, %object
 310              		.size	I2C_initVar, 1
 311              	I2C_initVar:
ARM GAS  C:\Users\gjl\AppData\Local\Temp\cc4wHcWQ.s 			page 15


 312 0000 00       		.space	1
 313 0001 000000   		.space	3
 314              		.type	I2C_customIntrHandler, %object
 315              		.size	I2C_customIntrHandler, 4
 316              	I2C_customIntrHandler:
 317 0004 00000000 		.space	4
 318              		.text
 319              	.Letext0:
 320              		.file 2 "Generated_Source\\PSoC4/cytypes.h"
 321              		.file 3 "Generated_Source\\PSoC4\\I2C_I2C_PVT.h"
 322              		.file 4 "Generated_Source\\PSoC4/CyLib.h"