ARM GAS  C:\Users\Alan\AppData\Local\Temp\ccOsyTYG.s 			page 1


   1              		.syntax unified
   2              		.cpu cortex-m0
   3              		.fpu softvfp
   4              		.eabi_attribute 20, 1
   5              		.eabi_attribute 21, 1
   6              		.eabi_attribute 23, 3
   7              		.eabi_attribute 24, 1
   8              		.eabi_attribute 25, 1
   9              		.eabi_attribute 26, 1
  10              		.eabi_attribute 30, 4
  11              		.eabi_attribute 34, 0
  12              		.eabi_attribute 18, 4
  13              		.thumb
  14              		.syntax unified
  15              		.file	"I2C_SCB_IRQ.c"
  16              		.text
  17              	.Ltext0:
  18              		.cfi_sections	.debug_frame
  19              		.section	.text.I2C_SCB_IRQ_Interrupt,"ax",%progbits
  20              		.align	1
  21              		.global	I2C_SCB_IRQ_Interrupt
  22              		.code	16
  23              		.thumb_func
  24              		.type	I2C_SCB_IRQ_Interrupt, %function
  25              	I2C_SCB_IRQ_Interrupt:
  26              	.LFB4:
  27              		.file 1 "Generated_Source\\PSoC4\\I2C_SCB_IRQ.c"
   1:Generated_Source\PSoC4/I2C_SCB_IRQ.c **** /*******************************************************************************
   2:Generated_Source\PSoC4/I2C_SCB_IRQ.c **** * File Name: I2C_SCB_IRQ.c  
   3:Generated_Source\PSoC4/I2C_SCB_IRQ.c **** * Version 1.70
   4:Generated_Source\PSoC4/I2C_SCB_IRQ.c **** *
   5:Generated_Source\PSoC4/I2C_SCB_IRQ.c **** *  Description:
   6:Generated_Source\PSoC4/I2C_SCB_IRQ.c **** *   API for controlling the state of an interrupt.
   7:Generated_Source\PSoC4/I2C_SCB_IRQ.c **** *
   8:Generated_Source\PSoC4/I2C_SCB_IRQ.c **** *
   9:Generated_Source\PSoC4/I2C_SCB_IRQ.c **** *  Note:
  10:Generated_Source\PSoC4/I2C_SCB_IRQ.c **** *
  11:Generated_Source\PSoC4/I2C_SCB_IRQ.c **** ********************************************************************************
  12:Generated_Source\PSoC4/I2C_SCB_IRQ.c **** * Copyright 2008-2015, Cypress Semiconductor Corporation.  All rights reserved.
  13:Generated_Source\PSoC4/I2C_SCB_IRQ.c **** * You may use this file only in accordance with the license, terms, conditions, 
  14:Generated_Source\PSoC4/I2C_SCB_IRQ.c **** * disclaimers, and limitations in the end user license agreement accompanying 
  15:Generated_Source\PSoC4/I2C_SCB_IRQ.c **** * the software package with which this file was provided.
  16:Generated_Source\PSoC4/I2C_SCB_IRQ.c **** *******************************************************************************/
  17:Generated_Source\PSoC4/I2C_SCB_IRQ.c **** 
  18:Generated_Source\PSoC4/I2C_SCB_IRQ.c **** 
  19:Generated_Source\PSoC4/I2C_SCB_IRQ.c **** #include <cydevice_trm.h>
  20:Generated_Source\PSoC4/I2C_SCB_IRQ.c **** #include <CyLib.h>
  21:Generated_Source\PSoC4/I2C_SCB_IRQ.c **** #include <I2C_SCB_IRQ.h>
  22:Generated_Source\PSoC4/I2C_SCB_IRQ.c **** #include "cyapicallbacks.h"
  23:Generated_Source\PSoC4/I2C_SCB_IRQ.c **** 
  24:Generated_Source\PSoC4/I2C_SCB_IRQ.c **** #if !defined(I2C_SCB_IRQ__REMOVED) /* Check for removal by optimization */
  25:Generated_Source\PSoC4/I2C_SCB_IRQ.c **** 
  26:Generated_Source\PSoC4/I2C_SCB_IRQ.c **** /*******************************************************************************
  27:Generated_Source\PSoC4/I2C_SCB_IRQ.c **** *  Place your includes, defines and code here 
  28:Generated_Source\PSoC4/I2C_SCB_IRQ.c **** ********************************************************************************/
  29:Generated_Source\PSoC4/I2C_SCB_IRQ.c **** /* `#START I2C_SCB_IRQ_intc` */
  30:Generated_Source\PSoC4/I2C_SCB_IRQ.c **** 
ARM GAS  C:\Users\Alan\AppData\Local\Temp\ccOsyTYG.s 			page 2


  31:Generated_Source\PSoC4/I2C_SCB_IRQ.c **** /* `#END` */
  32:Generated_Source\PSoC4/I2C_SCB_IRQ.c **** 
  33:Generated_Source\PSoC4/I2C_SCB_IRQ.c **** extern cyisraddress CyRamVectors[CYINT_IRQ_BASE + CY_NUM_INTERRUPTS];
  34:Generated_Source\PSoC4/I2C_SCB_IRQ.c **** 
  35:Generated_Source\PSoC4/I2C_SCB_IRQ.c **** /* Declared in startup, used to set unused interrupts to. */
  36:Generated_Source\PSoC4/I2C_SCB_IRQ.c **** CY_ISR_PROTO(IntDefaultHandler);
  37:Generated_Source\PSoC4/I2C_SCB_IRQ.c **** 
  38:Generated_Source\PSoC4/I2C_SCB_IRQ.c **** 
  39:Generated_Source\PSoC4/I2C_SCB_IRQ.c **** /*******************************************************************************
  40:Generated_Source\PSoC4/I2C_SCB_IRQ.c **** * Function Name: I2C_SCB_IRQ_Start
  41:Generated_Source\PSoC4/I2C_SCB_IRQ.c **** ********************************************************************************
  42:Generated_Source\PSoC4/I2C_SCB_IRQ.c **** *
  43:Generated_Source\PSoC4/I2C_SCB_IRQ.c **** * Summary:
  44:Generated_Source\PSoC4/I2C_SCB_IRQ.c **** *  Set up the interrupt and enable it. This function disables the interrupt, 
  45:Generated_Source\PSoC4/I2C_SCB_IRQ.c **** *  sets the default interrupt vector, sets the priority from the value in the
  46:Generated_Source\PSoC4/I2C_SCB_IRQ.c **** *  Design Wide Resources Interrupt Editor, then enables the interrupt to the 
  47:Generated_Source\PSoC4/I2C_SCB_IRQ.c **** *  interrupt controller.
  48:Generated_Source\PSoC4/I2C_SCB_IRQ.c **** *
  49:Generated_Source\PSoC4/I2C_SCB_IRQ.c **** * Parameters:  
  50:Generated_Source\PSoC4/I2C_SCB_IRQ.c **** *   None
  51:Generated_Source\PSoC4/I2C_SCB_IRQ.c **** *
  52:Generated_Source\PSoC4/I2C_SCB_IRQ.c **** * Return:
  53:Generated_Source\PSoC4/I2C_SCB_IRQ.c **** *   None
  54:Generated_Source\PSoC4/I2C_SCB_IRQ.c **** *
  55:Generated_Source\PSoC4/I2C_SCB_IRQ.c **** *******************************************************************************/
  56:Generated_Source\PSoC4/I2C_SCB_IRQ.c **** void I2C_SCB_IRQ_Start(void)
  57:Generated_Source\PSoC4/I2C_SCB_IRQ.c **** {
  58:Generated_Source\PSoC4/I2C_SCB_IRQ.c ****     /* For all we know the interrupt is active. */
  59:Generated_Source\PSoC4/I2C_SCB_IRQ.c ****     I2C_SCB_IRQ_Disable();
  60:Generated_Source\PSoC4/I2C_SCB_IRQ.c **** 
  61:Generated_Source\PSoC4/I2C_SCB_IRQ.c ****     /* Set the ISR to point to the I2C_SCB_IRQ Interrupt. */
  62:Generated_Source\PSoC4/I2C_SCB_IRQ.c ****     I2C_SCB_IRQ_SetVector(&I2C_SCB_IRQ_Interrupt);
  63:Generated_Source\PSoC4/I2C_SCB_IRQ.c **** 
  64:Generated_Source\PSoC4/I2C_SCB_IRQ.c ****     /* Set the priority. */
  65:Generated_Source\PSoC4/I2C_SCB_IRQ.c ****     I2C_SCB_IRQ_SetPriority((uint8)I2C_SCB_IRQ_INTC_PRIOR_NUMBER);
  66:Generated_Source\PSoC4/I2C_SCB_IRQ.c **** 
  67:Generated_Source\PSoC4/I2C_SCB_IRQ.c ****     /* Enable it. */
  68:Generated_Source\PSoC4/I2C_SCB_IRQ.c ****     I2C_SCB_IRQ_Enable();
  69:Generated_Source\PSoC4/I2C_SCB_IRQ.c **** }
  70:Generated_Source\PSoC4/I2C_SCB_IRQ.c **** 
  71:Generated_Source\PSoC4/I2C_SCB_IRQ.c **** 
  72:Generated_Source\PSoC4/I2C_SCB_IRQ.c **** /*******************************************************************************
  73:Generated_Source\PSoC4/I2C_SCB_IRQ.c **** * Function Name: I2C_SCB_IRQ_StartEx
  74:Generated_Source\PSoC4/I2C_SCB_IRQ.c **** ********************************************************************************
  75:Generated_Source\PSoC4/I2C_SCB_IRQ.c **** *
  76:Generated_Source\PSoC4/I2C_SCB_IRQ.c **** * Summary:
  77:Generated_Source\PSoC4/I2C_SCB_IRQ.c **** *  Sets up the interrupt and enables it. This function disables the interrupt,
  78:Generated_Source\PSoC4/I2C_SCB_IRQ.c **** *  sets the interrupt vector based on the address passed in, sets the priority 
  79:Generated_Source\PSoC4/I2C_SCB_IRQ.c **** *  from the value in the Design Wide Resources Interrupt Editor, then enables 
  80:Generated_Source\PSoC4/I2C_SCB_IRQ.c **** *  the interrupt to the interrupt controller.
  81:Generated_Source\PSoC4/I2C_SCB_IRQ.c **** *  
  82:Generated_Source\PSoC4/I2C_SCB_IRQ.c **** *  When defining ISR functions, the CY_ISR and CY_ISR_PROTO macros should be 
  83:Generated_Source\PSoC4/I2C_SCB_IRQ.c **** *  used to provide consistent definition across compilers:
  84:Generated_Source\PSoC4/I2C_SCB_IRQ.c **** *  
  85:Generated_Source\PSoC4/I2C_SCB_IRQ.c **** *  Function definition example:
  86:Generated_Source\PSoC4/I2C_SCB_IRQ.c **** *   CY_ISR(MyISR)
  87:Generated_Source\PSoC4/I2C_SCB_IRQ.c **** *   {
ARM GAS  C:\Users\Alan\AppData\Local\Temp\ccOsyTYG.s 			page 3


  88:Generated_Source\PSoC4/I2C_SCB_IRQ.c **** *   }
  89:Generated_Source\PSoC4/I2C_SCB_IRQ.c **** *   Function prototype example:
  90:Generated_Source\PSoC4/I2C_SCB_IRQ.c **** *   CY_ISR_PROTO(MyISR);
  91:Generated_Source\PSoC4/I2C_SCB_IRQ.c **** *
  92:Generated_Source\PSoC4/I2C_SCB_IRQ.c **** * Parameters:  
  93:Generated_Source\PSoC4/I2C_SCB_IRQ.c **** *   address: Address of the ISR to set in the interrupt vector table.
  94:Generated_Source\PSoC4/I2C_SCB_IRQ.c **** *
  95:Generated_Source\PSoC4/I2C_SCB_IRQ.c **** * Return:
  96:Generated_Source\PSoC4/I2C_SCB_IRQ.c **** *   None
  97:Generated_Source\PSoC4/I2C_SCB_IRQ.c **** *
  98:Generated_Source\PSoC4/I2C_SCB_IRQ.c **** *******************************************************************************/
  99:Generated_Source\PSoC4/I2C_SCB_IRQ.c **** void I2C_SCB_IRQ_StartEx(cyisraddress address)
 100:Generated_Source\PSoC4/I2C_SCB_IRQ.c **** {
 101:Generated_Source\PSoC4/I2C_SCB_IRQ.c ****     /* For all we know the interrupt is active. */
 102:Generated_Source\PSoC4/I2C_SCB_IRQ.c ****     I2C_SCB_IRQ_Disable();
 103:Generated_Source\PSoC4/I2C_SCB_IRQ.c **** 
 104:Generated_Source\PSoC4/I2C_SCB_IRQ.c ****     /* Set the ISR to point to the I2C_SCB_IRQ Interrupt. */
 105:Generated_Source\PSoC4/I2C_SCB_IRQ.c ****     I2C_SCB_IRQ_SetVector(address);
 106:Generated_Source\PSoC4/I2C_SCB_IRQ.c **** 
 107:Generated_Source\PSoC4/I2C_SCB_IRQ.c ****     /* Set the priority. */
 108:Generated_Source\PSoC4/I2C_SCB_IRQ.c ****     I2C_SCB_IRQ_SetPriority((uint8)I2C_SCB_IRQ_INTC_PRIOR_NUMBER);
 109:Generated_Source\PSoC4/I2C_SCB_IRQ.c **** 
 110:Generated_Source\PSoC4/I2C_SCB_IRQ.c ****     /* Enable it. */
 111:Generated_Source\PSoC4/I2C_SCB_IRQ.c ****     I2C_SCB_IRQ_Enable();
 112:Generated_Source\PSoC4/I2C_SCB_IRQ.c **** }
 113:Generated_Source\PSoC4/I2C_SCB_IRQ.c **** 
 114:Generated_Source\PSoC4/I2C_SCB_IRQ.c **** 
 115:Generated_Source\PSoC4/I2C_SCB_IRQ.c **** /*******************************************************************************
 116:Generated_Source\PSoC4/I2C_SCB_IRQ.c **** * Function Name: I2C_SCB_IRQ_Stop
 117:Generated_Source\PSoC4/I2C_SCB_IRQ.c **** ********************************************************************************
 118:Generated_Source\PSoC4/I2C_SCB_IRQ.c **** *
 119:Generated_Source\PSoC4/I2C_SCB_IRQ.c **** * Summary:
 120:Generated_Source\PSoC4/I2C_SCB_IRQ.c **** *   Disables and removes the interrupt.
 121:Generated_Source\PSoC4/I2C_SCB_IRQ.c **** *
 122:Generated_Source\PSoC4/I2C_SCB_IRQ.c **** * Parameters:  
 123:Generated_Source\PSoC4/I2C_SCB_IRQ.c **** *   None
 124:Generated_Source\PSoC4/I2C_SCB_IRQ.c **** *
 125:Generated_Source\PSoC4/I2C_SCB_IRQ.c **** * Return:
 126:Generated_Source\PSoC4/I2C_SCB_IRQ.c **** *   None
 127:Generated_Source\PSoC4/I2C_SCB_IRQ.c **** *
 128:Generated_Source\PSoC4/I2C_SCB_IRQ.c **** *******************************************************************************/
 129:Generated_Source\PSoC4/I2C_SCB_IRQ.c **** void I2C_SCB_IRQ_Stop(void)
 130:Generated_Source\PSoC4/I2C_SCB_IRQ.c **** {
 131:Generated_Source\PSoC4/I2C_SCB_IRQ.c ****     /* Disable this interrupt. */
 132:Generated_Source\PSoC4/I2C_SCB_IRQ.c ****     I2C_SCB_IRQ_Disable();
 133:Generated_Source\PSoC4/I2C_SCB_IRQ.c **** 
 134:Generated_Source\PSoC4/I2C_SCB_IRQ.c ****     /* Set the ISR to point to the passive one. */
 135:Generated_Source\PSoC4/I2C_SCB_IRQ.c ****     I2C_SCB_IRQ_SetVector(&IntDefaultHandler);
 136:Generated_Source\PSoC4/I2C_SCB_IRQ.c **** }
 137:Generated_Source\PSoC4/I2C_SCB_IRQ.c **** 
 138:Generated_Source\PSoC4/I2C_SCB_IRQ.c **** 
 139:Generated_Source\PSoC4/I2C_SCB_IRQ.c **** /*******************************************************************************
 140:Generated_Source\PSoC4/I2C_SCB_IRQ.c **** * Function Name: I2C_SCB_IRQ_Interrupt
 141:Generated_Source\PSoC4/I2C_SCB_IRQ.c **** ********************************************************************************
 142:Generated_Source\PSoC4/I2C_SCB_IRQ.c **** *
 143:Generated_Source\PSoC4/I2C_SCB_IRQ.c **** * Summary:
 144:Generated_Source\PSoC4/I2C_SCB_IRQ.c **** *   The default Interrupt Service Routine for I2C_SCB_IRQ.
ARM GAS  C:\Users\Alan\AppData\Local\Temp\ccOsyTYG.s 			page 4


 145:Generated_Source\PSoC4/I2C_SCB_IRQ.c **** *
 146:Generated_Source\PSoC4/I2C_SCB_IRQ.c **** *   Add custom code between the START and END comments to keep the next version
 147:Generated_Source\PSoC4/I2C_SCB_IRQ.c **** *   of this file from over-writing your code.
 148:Generated_Source\PSoC4/I2C_SCB_IRQ.c **** *
 149:Generated_Source\PSoC4/I2C_SCB_IRQ.c **** *   Note You may use either the default ISR by using this API, or you may define
 150:Generated_Source\PSoC4/I2C_SCB_IRQ.c **** *   your own separate ISR through ISR_StartEx().
 151:Generated_Source\PSoC4/I2C_SCB_IRQ.c **** *
 152:Generated_Source\PSoC4/I2C_SCB_IRQ.c **** * Parameters:  
 153:Generated_Source\PSoC4/I2C_SCB_IRQ.c **** *   None
 154:Generated_Source\PSoC4/I2C_SCB_IRQ.c **** *
 155:Generated_Source\PSoC4/I2C_SCB_IRQ.c **** * Return:
 156:Generated_Source\PSoC4/I2C_SCB_IRQ.c **** *   None
 157:Generated_Source\PSoC4/I2C_SCB_IRQ.c **** *
 158:Generated_Source\PSoC4/I2C_SCB_IRQ.c **** *******************************************************************************/
 159:Generated_Source\PSoC4/I2C_SCB_IRQ.c **** CY_ISR(I2C_SCB_IRQ_Interrupt)
 160:Generated_Source\PSoC4/I2C_SCB_IRQ.c **** {
  28              		.loc 1 160 0
  29              		.cfi_startproc
  30              		@ args = 0, pretend = 0, frame = 0
  31              		@ frame_needed = 0, uses_anonymous_args = 0
  32              		@ link register save eliminated.
 161:Generated_Source\PSoC4/I2C_SCB_IRQ.c ****     #ifdef I2C_SCB_IRQ_INTERRUPT_INTERRUPT_CALLBACK
 162:Generated_Source\PSoC4/I2C_SCB_IRQ.c ****         I2C_SCB_IRQ_Interrupt_InterruptCallback();
 163:Generated_Source\PSoC4/I2C_SCB_IRQ.c ****     #endif /* I2C_SCB_IRQ_INTERRUPT_INTERRUPT_CALLBACK */ 
 164:Generated_Source\PSoC4/I2C_SCB_IRQ.c **** 
 165:Generated_Source\PSoC4/I2C_SCB_IRQ.c ****     /*  Place your Interrupt code here. */
 166:Generated_Source\PSoC4/I2C_SCB_IRQ.c ****     /* `#START I2C_SCB_IRQ_Interrupt` */
 167:Generated_Source\PSoC4/I2C_SCB_IRQ.c **** 
 168:Generated_Source\PSoC4/I2C_SCB_IRQ.c ****     /* `#END` */
 169:Generated_Source\PSoC4/I2C_SCB_IRQ.c **** }
  33              		.loc 1 169 0
  34              		@ sp needed
  35 0000 7047     		bx	lr
  36              		.cfi_endproc
  37              	.LFE4:
  38              		.size	I2C_SCB_IRQ_Interrupt, .-I2C_SCB_IRQ_Interrupt
  39              		.section	.text.I2C_SCB_IRQ_Stop,"ax",%progbits
  40              		.align	1
  41              		.global	I2C_SCB_IRQ_Stop
  42              		.code	16
  43              		.thumb_func
  44              		.type	I2C_SCB_IRQ_Stop, %function
  45              	I2C_SCB_IRQ_Stop:
  46              	.LFB3:
 130:Generated_Source\PSoC4/I2C_SCB_IRQ.c ****     /* Disable this interrupt. */
  47              		.loc 1 130 0
  48              		.cfi_startproc
  49              		@ args = 0, pretend = 0, frame = 0
  50              		@ frame_needed = 0, uses_anonymous_args = 0
  51              		@ link register save eliminated.
  52              	.LBB18:
  53              	.LBB19:
 170:Generated_Source\PSoC4/I2C_SCB_IRQ.c **** 
 171:Generated_Source\PSoC4/I2C_SCB_IRQ.c **** 
 172:Generated_Source\PSoC4/I2C_SCB_IRQ.c **** /*******************************************************************************
 173:Generated_Source\PSoC4/I2C_SCB_IRQ.c **** * Function Name: I2C_SCB_IRQ_SetVector
 174:Generated_Source\PSoC4/I2C_SCB_IRQ.c **** ********************************************************************************
ARM GAS  C:\Users\Alan\AppData\Local\Temp\ccOsyTYG.s 			page 5


 175:Generated_Source\PSoC4/I2C_SCB_IRQ.c **** *
 176:Generated_Source\PSoC4/I2C_SCB_IRQ.c **** * Summary:
 177:Generated_Source\PSoC4/I2C_SCB_IRQ.c **** *   Change the ISR vector for the Interrupt. Note calling I2C_SCB_IRQ_Start
 178:Generated_Source\PSoC4/I2C_SCB_IRQ.c **** *   will override any effect this method would have had. To set the vector 
 179:Generated_Source\PSoC4/I2C_SCB_IRQ.c **** *   before the component has been started use I2C_SCB_IRQ_StartEx instead.
 180:Generated_Source\PSoC4/I2C_SCB_IRQ.c **** * 
 181:Generated_Source\PSoC4/I2C_SCB_IRQ.c **** *   When defining ISR functions, the CY_ISR and CY_ISR_PROTO macros should be 
 182:Generated_Source\PSoC4/I2C_SCB_IRQ.c **** *   used to provide consistent definition across compilers:
 183:Generated_Source\PSoC4/I2C_SCB_IRQ.c **** *
 184:Generated_Source\PSoC4/I2C_SCB_IRQ.c **** *   Function definition example:
 185:Generated_Source\PSoC4/I2C_SCB_IRQ.c **** *   CY_ISR(MyISR)
 186:Generated_Source\PSoC4/I2C_SCB_IRQ.c **** *   {
 187:Generated_Source\PSoC4/I2C_SCB_IRQ.c **** *   }
 188:Generated_Source\PSoC4/I2C_SCB_IRQ.c **** *
 189:Generated_Source\PSoC4/I2C_SCB_IRQ.c **** *   Function prototype example:
 190:Generated_Source\PSoC4/I2C_SCB_IRQ.c **** *     CY_ISR_PROTO(MyISR);
 191:Generated_Source\PSoC4/I2C_SCB_IRQ.c **** *
 192:Generated_Source\PSoC4/I2C_SCB_IRQ.c **** * Parameters:
 193:Generated_Source\PSoC4/I2C_SCB_IRQ.c **** *   address: Address of the ISR to set in the interrupt vector table.
 194:Generated_Source\PSoC4/I2C_SCB_IRQ.c **** *
 195:Generated_Source\PSoC4/I2C_SCB_IRQ.c **** * Return:
 196:Generated_Source\PSoC4/I2C_SCB_IRQ.c **** *   None
 197:Generated_Source\PSoC4/I2C_SCB_IRQ.c **** *
 198:Generated_Source\PSoC4/I2C_SCB_IRQ.c **** *******************************************************************************/
 199:Generated_Source\PSoC4/I2C_SCB_IRQ.c **** void I2C_SCB_IRQ_SetVector(cyisraddress address)
 200:Generated_Source\PSoC4/I2C_SCB_IRQ.c **** {
 201:Generated_Source\PSoC4/I2C_SCB_IRQ.c ****     CyRamVectors[CYINT_IRQ_BASE + I2C_SCB_IRQ__INTC_NUMBER] = address;
 202:Generated_Source\PSoC4/I2C_SCB_IRQ.c **** }
 203:Generated_Source\PSoC4/I2C_SCB_IRQ.c **** 
 204:Generated_Source\PSoC4/I2C_SCB_IRQ.c **** 
 205:Generated_Source\PSoC4/I2C_SCB_IRQ.c **** /*******************************************************************************
 206:Generated_Source\PSoC4/I2C_SCB_IRQ.c **** * Function Name: I2C_SCB_IRQ_GetVector
 207:Generated_Source\PSoC4/I2C_SCB_IRQ.c **** ********************************************************************************
 208:Generated_Source\PSoC4/I2C_SCB_IRQ.c **** *
 209:Generated_Source\PSoC4/I2C_SCB_IRQ.c **** * Summary:
 210:Generated_Source\PSoC4/I2C_SCB_IRQ.c **** *   Gets the "address" of the current ISR vector for the Interrupt.
 211:Generated_Source\PSoC4/I2C_SCB_IRQ.c **** *
 212:Generated_Source\PSoC4/I2C_SCB_IRQ.c **** * Parameters:
 213:Generated_Source\PSoC4/I2C_SCB_IRQ.c **** *   None
 214:Generated_Source\PSoC4/I2C_SCB_IRQ.c **** *
 215:Generated_Source\PSoC4/I2C_SCB_IRQ.c **** * Return:
 216:Generated_Source\PSoC4/I2C_SCB_IRQ.c **** *   Address of the ISR in the interrupt vector table.
 217:Generated_Source\PSoC4/I2C_SCB_IRQ.c **** *
 218:Generated_Source\PSoC4/I2C_SCB_IRQ.c **** *******************************************************************************/
 219:Generated_Source\PSoC4/I2C_SCB_IRQ.c **** cyisraddress I2C_SCB_IRQ_GetVector(void)
 220:Generated_Source\PSoC4/I2C_SCB_IRQ.c **** {
 221:Generated_Source\PSoC4/I2C_SCB_IRQ.c ****     return CyRamVectors[CYINT_IRQ_BASE + I2C_SCB_IRQ__INTC_NUMBER];
 222:Generated_Source\PSoC4/I2C_SCB_IRQ.c **** }
 223:Generated_Source\PSoC4/I2C_SCB_IRQ.c **** 
 224:Generated_Source\PSoC4/I2C_SCB_IRQ.c **** 
 225:Generated_Source\PSoC4/I2C_SCB_IRQ.c **** /*******************************************************************************
 226:Generated_Source\PSoC4/I2C_SCB_IRQ.c **** * Function Name: I2C_SCB_IRQ_SetPriority
 227:Generated_Source\PSoC4/I2C_SCB_IRQ.c **** ********************************************************************************
 228:Generated_Source\PSoC4/I2C_SCB_IRQ.c **** *
 229:Generated_Source\PSoC4/I2C_SCB_IRQ.c **** * Summary:
 230:Generated_Source\PSoC4/I2C_SCB_IRQ.c **** *   Sets the Priority of the Interrupt. 
 231:Generated_Source\PSoC4/I2C_SCB_IRQ.c **** *
ARM GAS  C:\Users\Alan\AppData\Local\Temp\ccOsyTYG.s 			page 6


 232:Generated_Source\PSoC4/I2C_SCB_IRQ.c **** *   Note calling I2C_SCB_IRQ_Start or I2C_SCB_IRQ_StartEx will 
 233:Generated_Source\PSoC4/I2C_SCB_IRQ.c **** *   override any effect this API would have had. This API should only be called
 234:Generated_Source\PSoC4/I2C_SCB_IRQ.c **** *   after I2C_SCB_IRQ_Start or I2C_SCB_IRQ_StartEx has been called. 
 235:Generated_Source\PSoC4/I2C_SCB_IRQ.c **** *   To set the initial priority for the component, use the Design-Wide Resources
 236:Generated_Source\PSoC4/I2C_SCB_IRQ.c **** *   Interrupt Editor.
 237:Generated_Source\PSoC4/I2C_SCB_IRQ.c **** *
 238:Generated_Source\PSoC4/I2C_SCB_IRQ.c **** *   Note This API has no effect on Non-maskable interrupt NMI).
 239:Generated_Source\PSoC4/I2C_SCB_IRQ.c **** *
 240:Generated_Source\PSoC4/I2C_SCB_IRQ.c **** * Parameters:
 241:Generated_Source\PSoC4/I2C_SCB_IRQ.c **** *   priority: Priority of the interrupt, 0 being the highest priority
 242:Generated_Source\PSoC4/I2C_SCB_IRQ.c **** *             PSoC 3 and PSoC 5LP: Priority is from 0 to 7.
 243:Generated_Source\PSoC4/I2C_SCB_IRQ.c **** *             PSoC 4: Priority is from 0 to 3.
 244:Generated_Source\PSoC4/I2C_SCB_IRQ.c **** *
 245:Generated_Source\PSoC4/I2C_SCB_IRQ.c **** * Return:
 246:Generated_Source\PSoC4/I2C_SCB_IRQ.c **** *   None
 247:Generated_Source\PSoC4/I2C_SCB_IRQ.c **** *
 248:Generated_Source\PSoC4/I2C_SCB_IRQ.c **** *******************************************************************************/
 249:Generated_Source\PSoC4/I2C_SCB_IRQ.c **** void I2C_SCB_IRQ_SetPriority(uint8 priority)
 250:Generated_Source\PSoC4/I2C_SCB_IRQ.c **** {
 251:Generated_Source\PSoC4/I2C_SCB_IRQ.c **** 	uint8 interruptState;
 252:Generated_Source\PSoC4/I2C_SCB_IRQ.c ****     uint32 priorityOffset = ((I2C_SCB_IRQ__INTC_NUMBER % 4u) * 8u) + 6u;
 253:Generated_Source\PSoC4/I2C_SCB_IRQ.c ****     
 254:Generated_Source\PSoC4/I2C_SCB_IRQ.c **** 	interruptState = CyEnterCriticalSection();
 255:Generated_Source\PSoC4/I2C_SCB_IRQ.c ****     *I2C_SCB_IRQ_INTC_PRIOR = (*I2C_SCB_IRQ_INTC_PRIOR & (uint32)(~I2C_SCB_IRQ__INTC_PRIOR_MASK)) |
 256:Generated_Source\PSoC4/I2C_SCB_IRQ.c ****                                     ((uint32)priority << priorityOffset);
 257:Generated_Source\PSoC4/I2C_SCB_IRQ.c **** 	CyExitCriticalSection(interruptState);
 258:Generated_Source\PSoC4/I2C_SCB_IRQ.c **** }
 259:Generated_Source\PSoC4/I2C_SCB_IRQ.c **** 
 260:Generated_Source\PSoC4/I2C_SCB_IRQ.c **** 
 261:Generated_Source\PSoC4/I2C_SCB_IRQ.c **** /*******************************************************************************
 262:Generated_Source\PSoC4/I2C_SCB_IRQ.c **** * Function Name: I2C_SCB_IRQ_GetPriority
 263:Generated_Source\PSoC4/I2C_SCB_IRQ.c **** ********************************************************************************
 264:Generated_Source\PSoC4/I2C_SCB_IRQ.c **** *
 265:Generated_Source\PSoC4/I2C_SCB_IRQ.c **** * Summary:
 266:Generated_Source\PSoC4/I2C_SCB_IRQ.c **** *   Gets the Priority of the Interrupt.
 267:Generated_Source\PSoC4/I2C_SCB_IRQ.c **** *
 268:Generated_Source\PSoC4/I2C_SCB_IRQ.c **** * Parameters:
 269:Generated_Source\PSoC4/I2C_SCB_IRQ.c **** *   None
 270:Generated_Source\PSoC4/I2C_SCB_IRQ.c **** *
 271:Generated_Source\PSoC4/I2C_SCB_IRQ.c **** * Return:
 272:Generated_Source\PSoC4/I2C_SCB_IRQ.c **** *   Priority of the interrupt, 0 being the highest priority
 273:Generated_Source\PSoC4/I2C_SCB_IRQ.c **** *    PSoC 3 and PSoC 5LP: Priority is from 0 to 7.
 274:Generated_Source\PSoC4/I2C_SCB_IRQ.c **** *    PSoC 4: Priority is from 0 to 3.
 275:Generated_Source\PSoC4/I2C_SCB_IRQ.c **** *
 276:Generated_Source\PSoC4/I2C_SCB_IRQ.c **** *******************************************************************************/
 277:Generated_Source\PSoC4/I2C_SCB_IRQ.c **** uint8 I2C_SCB_IRQ_GetPriority(void)
 278:Generated_Source\PSoC4/I2C_SCB_IRQ.c **** {
 279:Generated_Source\PSoC4/I2C_SCB_IRQ.c ****     uint32 priority;
 280:Generated_Source\PSoC4/I2C_SCB_IRQ.c **** 	uint32 priorityOffset = ((I2C_SCB_IRQ__INTC_NUMBER % 4u) * 8u) + 6u;
 281:Generated_Source\PSoC4/I2C_SCB_IRQ.c **** 
 282:Generated_Source\PSoC4/I2C_SCB_IRQ.c ****     priority = (*I2C_SCB_IRQ_INTC_PRIOR & I2C_SCB_IRQ__INTC_PRIOR_MASK) >> priorityOffset;
 283:Generated_Source\PSoC4/I2C_SCB_IRQ.c **** 
 284:Generated_Source\PSoC4/I2C_SCB_IRQ.c ****     return (uint8)priority;
 285:Generated_Source\PSoC4/I2C_SCB_IRQ.c **** }
 286:Generated_Source\PSoC4/I2C_SCB_IRQ.c **** 
 287:Generated_Source\PSoC4/I2C_SCB_IRQ.c **** 
 288:Generated_Source\PSoC4/I2C_SCB_IRQ.c **** /*******************************************************************************
ARM GAS  C:\Users\Alan\AppData\Local\Temp\ccOsyTYG.s 			page 7


 289:Generated_Source\PSoC4/I2C_SCB_IRQ.c **** * Function Name: I2C_SCB_IRQ_Enable
 290:Generated_Source\PSoC4/I2C_SCB_IRQ.c **** ********************************************************************************
 291:Generated_Source\PSoC4/I2C_SCB_IRQ.c **** *
 292:Generated_Source\PSoC4/I2C_SCB_IRQ.c **** * Summary:
 293:Generated_Source\PSoC4/I2C_SCB_IRQ.c **** *   Enables the interrupt to the interrupt controller. Do not call this function
 294:Generated_Source\PSoC4/I2C_SCB_IRQ.c **** *   unless ISR_Start() has been called or the functionality of the ISR_Start() 
 295:Generated_Source\PSoC4/I2C_SCB_IRQ.c **** *   function, which sets the vector and the priority, has been called.
 296:Generated_Source\PSoC4/I2C_SCB_IRQ.c **** *
 297:Generated_Source\PSoC4/I2C_SCB_IRQ.c **** * Parameters:
 298:Generated_Source\PSoC4/I2C_SCB_IRQ.c **** *   None
 299:Generated_Source\PSoC4/I2C_SCB_IRQ.c **** *
 300:Generated_Source\PSoC4/I2C_SCB_IRQ.c **** * Return:
 301:Generated_Source\PSoC4/I2C_SCB_IRQ.c **** *   None
 302:Generated_Source\PSoC4/I2C_SCB_IRQ.c **** *
 303:Generated_Source\PSoC4/I2C_SCB_IRQ.c **** *******************************************************************************/
 304:Generated_Source\PSoC4/I2C_SCB_IRQ.c **** void I2C_SCB_IRQ_Enable(void)
 305:Generated_Source\PSoC4/I2C_SCB_IRQ.c **** {
 306:Generated_Source\PSoC4/I2C_SCB_IRQ.c ****     /* Enable the general interrupt. */
 307:Generated_Source\PSoC4/I2C_SCB_IRQ.c ****     *I2C_SCB_IRQ_INTC_SET_EN = I2C_SCB_IRQ__INTC_MASK;
 308:Generated_Source\PSoC4/I2C_SCB_IRQ.c **** }
 309:Generated_Source\PSoC4/I2C_SCB_IRQ.c **** 
 310:Generated_Source\PSoC4/I2C_SCB_IRQ.c **** 
 311:Generated_Source\PSoC4/I2C_SCB_IRQ.c **** /*******************************************************************************
 312:Generated_Source\PSoC4/I2C_SCB_IRQ.c **** * Function Name: I2C_SCB_IRQ_GetState
 313:Generated_Source\PSoC4/I2C_SCB_IRQ.c **** ********************************************************************************
 314:Generated_Source\PSoC4/I2C_SCB_IRQ.c **** *
 315:Generated_Source\PSoC4/I2C_SCB_IRQ.c **** * Summary:
 316:Generated_Source\PSoC4/I2C_SCB_IRQ.c **** *   Gets the state (enabled, disabled) of the Interrupt.
 317:Generated_Source\PSoC4/I2C_SCB_IRQ.c **** *
 318:Generated_Source\PSoC4/I2C_SCB_IRQ.c **** * Parameters:
 319:Generated_Source\PSoC4/I2C_SCB_IRQ.c **** *   None
 320:Generated_Source\PSoC4/I2C_SCB_IRQ.c **** *
 321:Generated_Source\PSoC4/I2C_SCB_IRQ.c **** * Return:
 322:Generated_Source\PSoC4/I2C_SCB_IRQ.c **** *   1 if enabled, 0 if disabled.
 323:Generated_Source\PSoC4/I2C_SCB_IRQ.c **** *
 324:Generated_Source\PSoC4/I2C_SCB_IRQ.c **** *******************************************************************************/
 325:Generated_Source\PSoC4/I2C_SCB_IRQ.c **** uint8 I2C_SCB_IRQ_GetState(void)
 326:Generated_Source\PSoC4/I2C_SCB_IRQ.c **** {
 327:Generated_Source\PSoC4/I2C_SCB_IRQ.c ****     /* Get the state of the general interrupt. */
 328:Generated_Source\PSoC4/I2C_SCB_IRQ.c ****     return ((*I2C_SCB_IRQ_INTC_SET_EN & (uint32)I2C_SCB_IRQ__INTC_MASK) != 0u) ? 1u:0u;
 329:Generated_Source\PSoC4/I2C_SCB_IRQ.c **** }
 330:Generated_Source\PSoC4/I2C_SCB_IRQ.c **** 
 331:Generated_Source\PSoC4/I2C_SCB_IRQ.c **** 
 332:Generated_Source\PSoC4/I2C_SCB_IRQ.c **** /*******************************************************************************
 333:Generated_Source\PSoC4/I2C_SCB_IRQ.c **** * Function Name: I2C_SCB_IRQ_Disable
 334:Generated_Source\PSoC4/I2C_SCB_IRQ.c **** ********************************************************************************
 335:Generated_Source\PSoC4/I2C_SCB_IRQ.c **** *
 336:Generated_Source\PSoC4/I2C_SCB_IRQ.c **** * Summary:
 337:Generated_Source\PSoC4/I2C_SCB_IRQ.c **** *   Disables the Interrupt in the interrupt controller.
 338:Generated_Source\PSoC4/I2C_SCB_IRQ.c **** *
 339:Generated_Source\PSoC4/I2C_SCB_IRQ.c **** * Parameters:
 340:Generated_Source\PSoC4/I2C_SCB_IRQ.c **** *   None
 341:Generated_Source\PSoC4/I2C_SCB_IRQ.c **** *
 342:Generated_Source\PSoC4/I2C_SCB_IRQ.c **** * Return:
 343:Generated_Source\PSoC4/I2C_SCB_IRQ.c **** *   None
 344:Generated_Source\PSoC4/I2C_SCB_IRQ.c **** *
 345:Generated_Source\PSoC4/I2C_SCB_IRQ.c **** *******************************************************************************/
ARM GAS  C:\Users\Alan\AppData\Local\Temp\ccOsyTYG.s 			page 8


 346:Generated_Source\PSoC4/I2C_SCB_IRQ.c **** void I2C_SCB_IRQ_Disable(void)
 347:Generated_Source\PSoC4/I2C_SCB_IRQ.c **** {
 348:Generated_Source\PSoC4/I2C_SCB_IRQ.c ****     /* Disable the general interrupt. */
 349:Generated_Source\PSoC4/I2C_SCB_IRQ.c ****     *I2C_SCB_IRQ_INTC_CLR_EN = I2C_SCB_IRQ__INTC_MASK;
  54              		.loc 1 349 0
  55 0000 8022     		movs	r2, #128
  56 0002 034B     		ldr	r3, .L3
  57 0004 5200     		lsls	r2, r2, #1
  58 0006 1A60     		str	r2, [r3]
  59              	.LVL0:
  60              	.LBE19:
  61              	.LBE18:
  62              	.LBB20:
  63              	.LBB21:
 201:Generated_Source\PSoC4/I2C_SCB_IRQ.c **** }
  64              		.loc 1 201 0
  65 0008 024A     		ldr	r2, .L3+4
  66 000a 034B     		ldr	r3, .L3+8
  67              	.LBE21:
  68              	.LBE20:
 136:Generated_Source\PSoC4/I2C_SCB_IRQ.c **** 
  69              		.loc 1 136 0
  70              		@ sp needed
  71              	.LBB23:
  72              	.LBB22:
 201:Generated_Source\PSoC4/I2C_SCB_IRQ.c **** }
  73              		.loc 1 201 0
  74 000c 1A66     		str	r2, [r3, #96]
  75              	.LVL1:
  76              	.LBE22:
  77              	.LBE23:
 136:Generated_Source\PSoC4/I2C_SCB_IRQ.c **** 
  78              		.loc 1 136 0
  79 000e 7047     		bx	lr
  80              	.L4:
  81              		.align	2
  82              	.L3:
  83 0010 80E100E0 		.word	-536813184
  84 0014 00000000 		.word	IntDefaultHandler
  85 0018 00000000 		.word	CyRamVectors
  86              		.cfi_endproc
  87              	.LFE3:
  88              		.size	I2C_SCB_IRQ_Stop, .-I2C_SCB_IRQ_Stop
  89              		.section	.text.I2C_SCB_IRQ_SetVector,"ax",%progbits
  90              		.align	1
  91              		.global	I2C_SCB_IRQ_SetVector
  92              		.code	16
  93              		.thumb_func
  94              		.type	I2C_SCB_IRQ_SetVector, %function
  95              	I2C_SCB_IRQ_SetVector:
  96              	.LFB5:
 200:Generated_Source\PSoC4/I2C_SCB_IRQ.c ****     CyRamVectors[CYINT_IRQ_BASE + I2C_SCB_IRQ__INTC_NUMBER] = address;
  97              		.loc 1 200 0
  98              		.cfi_startproc
  99              		@ args = 0, pretend = 0, frame = 0
 100              		@ frame_needed = 0, uses_anonymous_args = 0
 101              		@ link register save eliminated.
ARM GAS  C:\Users\Alan\AppData\Local\Temp\ccOsyTYG.s 			page 9


 102              	.LVL2:
 201:Generated_Source\PSoC4/I2C_SCB_IRQ.c **** }
 103              		.loc 1 201 0
 104 0000 014B     		ldr	r3, .L6
 202:Generated_Source\PSoC4/I2C_SCB_IRQ.c **** 
 105              		.loc 1 202 0
 106              		@ sp needed
 201:Generated_Source\PSoC4/I2C_SCB_IRQ.c **** }
 107              		.loc 1 201 0
 108 0002 1866     		str	r0, [r3, #96]
 202:Generated_Source\PSoC4/I2C_SCB_IRQ.c **** 
 109              		.loc 1 202 0
 110 0004 7047     		bx	lr
 111              	.L7:
 112 0006 C046     		.align	2
 113              	.L6:
 114 0008 00000000 		.word	CyRamVectors
 115              		.cfi_endproc
 116              	.LFE5:
 117              		.size	I2C_SCB_IRQ_SetVector, .-I2C_SCB_IRQ_SetVector
 118              		.section	.text.I2C_SCB_IRQ_GetVector,"ax",%progbits
 119              		.align	1
 120              		.global	I2C_SCB_IRQ_GetVector
 121              		.code	16
 122              		.thumb_func
 123              		.type	I2C_SCB_IRQ_GetVector, %function
 124              	I2C_SCB_IRQ_GetVector:
 125              	.LFB6:
 220:Generated_Source\PSoC4/I2C_SCB_IRQ.c ****     return CyRamVectors[CYINT_IRQ_BASE + I2C_SCB_IRQ__INTC_NUMBER];
 126              		.loc 1 220 0
 127              		.cfi_startproc
 128              		@ args = 0, pretend = 0, frame = 0
 129              		@ frame_needed = 0, uses_anonymous_args = 0
 130              		@ link register save eliminated.
 221:Generated_Source\PSoC4/I2C_SCB_IRQ.c **** }
 131              		.loc 1 221 0
 132 0000 014B     		ldr	r3, .L9
 222:Generated_Source\PSoC4/I2C_SCB_IRQ.c **** 
 133              		.loc 1 222 0
 134              		@ sp needed
 221:Generated_Source\PSoC4/I2C_SCB_IRQ.c **** }
 135              		.loc 1 221 0
 136 0002 186E     		ldr	r0, [r3, #96]
 222:Generated_Source\PSoC4/I2C_SCB_IRQ.c **** 
 137              		.loc 1 222 0
 138 0004 7047     		bx	lr
 139              	.L10:
 140 0006 C046     		.align	2
 141              	.L9:
 142 0008 00000000 		.word	CyRamVectors
 143              		.cfi_endproc
 144              	.LFE6:
 145              		.size	I2C_SCB_IRQ_GetVector, .-I2C_SCB_IRQ_GetVector
 146              		.section	.text.I2C_SCB_IRQ_SetPriority,"ax",%progbits
 147              		.align	1
 148              		.global	I2C_SCB_IRQ_SetPriority
 149              		.code	16
ARM GAS  C:\Users\Alan\AppData\Local\Temp\ccOsyTYG.s 			page 10


 150              		.thumb_func
 151              		.type	I2C_SCB_IRQ_SetPriority, %function
 152              	I2C_SCB_IRQ_SetPriority:
 153              	.LFB7:
 250:Generated_Source\PSoC4/I2C_SCB_IRQ.c **** 	uint8 interruptState;
 154              		.loc 1 250 0
 155              		.cfi_startproc
 156              		@ args = 0, pretend = 0, frame = 0
 157              		@ frame_needed = 0, uses_anonymous_args = 0
 158              	.LVL3:
 159 0000 10B5     		push	{r4, lr}
 160              		.cfi_def_cfa_offset 8
 161              		.cfi_offset 4, -8
 162              		.cfi_offset 14, -4
 250:Generated_Source\PSoC4/I2C_SCB_IRQ.c **** 	uint8 interruptState;
 163              		.loc 1 250 0
 164 0002 0400     		movs	r4, r0
 254:Generated_Source\PSoC4/I2C_SCB_IRQ.c ****     *I2C_SCB_IRQ_INTC_PRIOR = (*I2C_SCB_IRQ_INTC_PRIOR & (uint32)(~I2C_SCB_IRQ__INTC_PRIOR_MASK)) |
 165              		.loc 1 254 0
 166 0004 FFF7FEFF 		bl	CyEnterCriticalSection
 167              	.LVL4:
 255:Generated_Source\PSoC4/I2C_SCB_IRQ.c ****                                     ((uint32)priority << priorityOffset);
 168              		.loc 1 255 0
 169 0008 C021     		movs	r1, #192
 170 000a 044A     		ldr	r2, .L12
 171 000c A401     		lsls	r4, r4, #6
 172 000e 1368     		ldr	r3, [r2]
 258:Generated_Source\PSoC4/I2C_SCB_IRQ.c **** 
 173              		.loc 1 258 0
 174              		@ sp needed
 255:Generated_Source\PSoC4/I2C_SCB_IRQ.c ****                                     ((uint32)priority << priorityOffset);
 175              		.loc 1 255 0
 176 0010 8B43     		bics	r3, r1
 177 0012 1C43     		orrs	r4, r3
 178 0014 1460     		str	r4, [r2]
 257:Generated_Source\PSoC4/I2C_SCB_IRQ.c **** }
 179              		.loc 1 257 0
 180 0016 FFF7FEFF 		bl	CyExitCriticalSection
 181              	.LVL5:
 258:Generated_Source\PSoC4/I2C_SCB_IRQ.c **** 
 182              		.loc 1 258 0
 183 001a 10BD     		pop	{r4, pc}
 184              	.L13:
 185              		.align	2
 186              	.L12:
 187 001c 08E400E0 		.word	-536812536
 188              		.cfi_endproc
 189              	.LFE7:
 190              		.size	I2C_SCB_IRQ_SetPriority, .-I2C_SCB_IRQ_SetPriority
 191              		.section	.text.I2C_SCB_IRQ_Start,"ax",%progbits
 192              		.align	1
 193              		.global	I2C_SCB_IRQ_Start
 194              		.code	16
 195              		.thumb_func
 196              		.type	I2C_SCB_IRQ_Start, %function
 197              	I2C_SCB_IRQ_Start:
 198              	.LFB1:
ARM GAS  C:\Users\Alan\AppData\Local\Temp\ccOsyTYG.s 			page 11


  57:Generated_Source\PSoC4/I2C_SCB_IRQ.c ****     /* For all we know the interrupt is active. */
 199              		.loc 1 57 0
 200              		.cfi_startproc
 201              		@ args = 0, pretend = 0, frame = 0
 202              		@ frame_needed = 0, uses_anonymous_args = 0
 203 0000 10B5     		push	{r4, lr}
 204              		.cfi_def_cfa_offset 8
 205              		.cfi_offset 4, -8
 206              		.cfi_offset 14, -4
 207              	.LBB24:
 208              	.LBB25:
 209              		.loc 1 349 0
 210 0002 8024     		movs	r4, #128
 211 0004 054B     		ldr	r3, .L15
 212 0006 6400     		lsls	r4, r4, #1
 213 0008 1C60     		str	r4, [r3]
 214              	.LVL6:
 215              	.LBE25:
 216              	.LBE24:
 217              	.LBB26:
 218              	.LBB27:
 201:Generated_Source\PSoC4/I2C_SCB_IRQ.c **** }
 219              		.loc 1 201 0
 220 000a 054A     		ldr	r2, .L15+4
 221 000c 054B     		ldr	r3, .L15+8
 222              	.LBE27:
 223              	.LBE26:
  65:Generated_Source\PSoC4/I2C_SCB_IRQ.c **** 
 224              		.loc 1 65 0
 225 000e 0320     		movs	r0, #3
 226              	.LBB29:
 227              	.LBB28:
 201:Generated_Source\PSoC4/I2C_SCB_IRQ.c **** }
 228              		.loc 1 201 0
 229 0010 1A66     		str	r2, [r3, #96]
 230              	.LVL7:
 231              	.LBE28:
 232              	.LBE29:
  65:Generated_Source\PSoC4/I2C_SCB_IRQ.c **** 
 233              		.loc 1 65 0
 234 0012 FFF7FEFF 		bl	I2C_SCB_IRQ_SetPriority
 235              	.LVL8:
 236              	.LBB30:
 237              	.LBB31:
 307:Generated_Source\PSoC4/I2C_SCB_IRQ.c **** }
 238              		.loc 1 307 0
 239 0016 044B     		ldr	r3, .L15+12
 240              	.LBE31:
 241              	.LBE30:
  69:Generated_Source\PSoC4/I2C_SCB_IRQ.c **** 
 242              		.loc 1 69 0
 243              		@ sp needed
 244              	.LBB33:
 245              	.LBB32:
 307:Generated_Source\PSoC4/I2C_SCB_IRQ.c **** }
 246              		.loc 1 307 0
 247 0018 1C60     		str	r4, [r3]
ARM GAS  C:\Users\Alan\AppData\Local\Temp\ccOsyTYG.s 			page 12


 248              	.LBE32:
 249              	.LBE33:
  69:Generated_Source\PSoC4/I2C_SCB_IRQ.c **** 
 250              		.loc 1 69 0
 251 001a 10BD     		pop	{r4, pc}
 252              	.L16:
 253              		.align	2
 254              	.L15:
 255 001c 80E100E0 		.word	-536813184
 256 0020 00000000 		.word	I2C_SCB_IRQ_Interrupt
 257 0024 00000000 		.word	CyRamVectors
 258 0028 00E100E0 		.word	-536813312
 259              		.cfi_endproc
 260              	.LFE1:
 261              		.size	I2C_SCB_IRQ_Start, .-I2C_SCB_IRQ_Start
 262              		.section	.text.I2C_SCB_IRQ_StartEx,"ax",%progbits
 263              		.align	1
 264              		.global	I2C_SCB_IRQ_StartEx
 265              		.code	16
 266              		.thumb_func
 267              		.type	I2C_SCB_IRQ_StartEx, %function
 268              	I2C_SCB_IRQ_StartEx:
 269              	.LFB2:
 100:Generated_Source\PSoC4/I2C_SCB_IRQ.c ****     /* For all we know the interrupt is active. */
 270              		.loc 1 100 0
 271              		.cfi_startproc
 272              		@ args = 0, pretend = 0, frame = 0
 273              		@ frame_needed = 0, uses_anonymous_args = 0
 274              	.LVL9:
 275 0000 10B5     		push	{r4, lr}
 276              		.cfi_def_cfa_offset 8
 277              		.cfi_offset 4, -8
 278              		.cfi_offset 14, -4
 279              	.LBB34:
 280              	.LBB35:
 281              		.loc 1 349 0
 282 0002 8024     		movs	r4, #128
 283 0004 054B     		ldr	r3, .L18
 284 0006 6400     		lsls	r4, r4, #1
 285 0008 1C60     		str	r4, [r3]
 286              	.LVL10:
 287              	.LBE35:
 288              	.LBE34:
 289              	.LBB36:
 290              	.LBB37:
 201:Generated_Source\PSoC4/I2C_SCB_IRQ.c **** }
 291              		.loc 1 201 0
 292 000a 054B     		ldr	r3, .L18+4
 293              	.LBE37:
 294              	.LBE36:
 112:Generated_Source\PSoC4/I2C_SCB_IRQ.c **** 
 295              		.loc 1 112 0
 296              		@ sp needed
 297              	.LBB39:
 298              	.LBB38:
 201:Generated_Source\PSoC4/I2C_SCB_IRQ.c **** }
 299              		.loc 1 201 0
ARM GAS  C:\Users\Alan\AppData\Local\Temp\ccOsyTYG.s 			page 13


 300 000c 1866     		str	r0, [r3, #96]
 301              	.LVL11:
 302              	.LBE38:
 303              	.LBE39:
 108:Generated_Source\PSoC4/I2C_SCB_IRQ.c **** 
 304              		.loc 1 108 0
 305 000e 0320     		movs	r0, #3
 306              	.LVL12:
 307 0010 FFF7FEFF 		bl	I2C_SCB_IRQ_SetPriority
 308              	.LVL13:
 309              	.LBB40:
 310              	.LBB41:
 307:Generated_Source\PSoC4/I2C_SCB_IRQ.c **** }
 311              		.loc 1 307 0
 312 0014 034B     		ldr	r3, .L18+8
 313 0016 1C60     		str	r4, [r3]
 314              	.LBE41:
 315              	.LBE40:
 112:Generated_Source\PSoC4/I2C_SCB_IRQ.c **** 
 316              		.loc 1 112 0
 317 0018 10BD     		pop	{r4, pc}
 318              	.L19:
 319 001a C046     		.align	2
 320              	.L18:
 321 001c 80E100E0 		.word	-536813184
 322 0020 00000000 		.word	CyRamVectors
 323 0024 00E100E0 		.word	-536813312
 324              		.cfi_endproc
 325              	.LFE2:
 326              		.size	I2C_SCB_IRQ_StartEx, .-I2C_SCB_IRQ_StartEx
 327              		.section	.text.I2C_SCB_IRQ_GetPriority,"ax",%progbits
 328              		.align	1
 329              		.global	I2C_SCB_IRQ_GetPriority
 330              		.code	16
 331              		.thumb_func
 332              		.type	I2C_SCB_IRQ_GetPriority, %function
 333              	I2C_SCB_IRQ_GetPriority:
 334              	.LFB8:
 278:Generated_Source\PSoC4/I2C_SCB_IRQ.c ****     uint32 priority;
 335              		.loc 1 278 0
 336              		.cfi_startproc
 337              		@ args = 0, pretend = 0, frame = 0
 338              		@ frame_needed = 0, uses_anonymous_args = 0
 339              		@ link register save eliminated.
 340              	.LVL14:
 282:Generated_Source\PSoC4/I2C_SCB_IRQ.c **** 
 341              		.loc 1 282 0
 342 0000 024B     		ldr	r3, .L21
 285:Generated_Source\PSoC4/I2C_SCB_IRQ.c **** 
 343              		.loc 1 285 0
 344              		@ sp needed
 282:Generated_Source\PSoC4/I2C_SCB_IRQ.c **** 
 345              		.loc 1 282 0
 346 0002 1868     		ldr	r0, [r3]
 347              	.LVL15:
 284:Generated_Source\PSoC4/I2C_SCB_IRQ.c **** }
 348              		.loc 1 284 0
ARM GAS  C:\Users\Alan\AppData\Local\Temp\ccOsyTYG.s 			page 14


 349 0004 0006     		lsls	r0, r0, #24
 350              	.LVL16:
 351 0006 800F     		lsrs	r0, r0, #30
 285:Generated_Source\PSoC4/I2C_SCB_IRQ.c **** 
 352              		.loc 1 285 0
 353 0008 7047     		bx	lr
 354              	.L22:
 355 000a C046     		.align	2
 356              	.L21:
 357 000c 08E400E0 		.word	-536812536
 358              		.cfi_endproc
 359              	.LFE8:
 360              		.size	I2C_SCB_IRQ_GetPriority, .-I2C_SCB_IRQ_GetPriority
 361              		.section	.text.I2C_SCB_IRQ_Enable,"ax",%progbits
 362              		.align	1
 363              		.global	I2C_SCB_IRQ_Enable
 364              		.code	16
 365              		.thumb_func
 366              		.type	I2C_SCB_IRQ_Enable, %function
 367              	I2C_SCB_IRQ_Enable:
 368              	.LFB9:
 305:Generated_Source\PSoC4/I2C_SCB_IRQ.c ****     /* Enable the general interrupt. */
 369              		.loc 1 305 0
 370              		.cfi_startproc
 371              		@ args = 0, pretend = 0, frame = 0
 372              		@ frame_needed = 0, uses_anonymous_args = 0
 373              		@ link register save eliminated.
 307:Generated_Source\PSoC4/I2C_SCB_IRQ.c **** }
 374              		.loc 1 307 0
 375 0000 8022     		movs	r2, #128
 376 0002 024B     		ldr	r3, .L24
 377 0004 5200     		lsls	r2, r2, #1
 378 0006 1A60     		str	r2, [r3]
 308:Generated_Source\PSoC4/I2C_SCB_IRQ.c **** 
 379              		.loc 1 308 0
 380              		@ sp needed
 381 0008 7047     		bx	lr
 382              	.L25:
 383 000a C046     		.align	2
 384              	.L24:
 385 000c 00E100E0 		.word	-536813312
 386              		.cfi_endproc
 387              	.LFE9:
 388              		.size	I2C_SCB_IRQ_Enable, .-I2C_SCB_IRQ_Enable
 389              		.section	.text.I2C_SCB_IRQ_GetState,"ax",%progbits
 390              		.align	1
 391              		.global	I2C_SCB_IRQ_GetState
 392              		.code	16
 393              		.thumb_func
 394              		.type	I2C_SCB_IRQ_GetState, %function
 395              	I2C_SCB_IRQ_GetState:
 396              	.LFB10:
 326:Generated_Source\PSoC4/I2C_SCB_IRQ.c ****     /* Get the state of the general interrupt. */
 397              		.loc 1 326 0
 398              		.cfi_startproc
 399              		@ args = 0, pretend = 0, frame = 0
 400              		@ frame_needed = 0, uses_anonymous_args = 0
ARM GAS  C:\Users\Alan\AppData\Local\Temp\ccOsyTYG.s 			page 15


 401              		@ link register save eliminated.
 328:Generated_Source\PSoC4/I2C_SCB_IRQ.c **** }
 402              		.loc 1 328 0
 403 0000 024B     		ldr	r3, .L27
 329:Generated_Source\PSoC4/I2C_SCB_IRQ.c **** 
 404              		.loc 1 329 0
 405              		@ sp needed
 328:Generated_Source\PSoC4/I2C_SCB_IRQ.c **** }
 406              		.loc 1 328 0
 407 0002 1868     		ldr	r0, [r3]
 408 0004 C005     		lsls	r0, r0, #23
 409 0006 C00F     		lsrs	r0, r0, #31
 329:Generated_Source\PSoC4/I2C_SCB_IRQ.c **** 
 410              		.loc 1 329 0
 411 0008 7047     		bx	lr
 412              	.L28:
 413 000a C046     		.align	2
 414              	.L27:
 415 000c 00E100E0 		.word	-536813312
 416              		.cfi_endproc
 417              	.LFE10:
 418              		.size	I2C_SCB_IRQ_GetState, .-I2C_SCB_IRQ_GetState
 419              		.section	.text.I2C_SCB_IRQ_Disable,"ax",%progbits
 420              		.align	1
 421              		.global	I2C_SCB_IRQ_Disable
 422              		.code	16
 423              		.thumb_func
 424              		.type	I2C_SCB_IRQ_Disable, %function
 425              	I2C_SCB_IRQ_Disable:
 426              	.LFB11:
 347:Generated_Source\PSoC4/I2C_SCB_IRQ.c ****     /* Disable the general interrupt. */
 427              		.loc 1 347 0
 428              		.cfi_startproc
 429              		@ args = 0, pretend = 0, frame = 0
 430              		@ frame_needed = 0, uses_anonymous_args = 0
 431              		@ link register save eliminated.
 432              		.loc 1 349 0
 433 0000 8022     		movs	r2, #128
 434 0002 024B     		ldr	r3, .L30
 435 0004 5200     		lsls	r2, r2, #1
 436 0006 1A60     		str	r2, [r3]
 350:Generated_Source\PSoC4/I2C_SCB_IRQ.c **** }
 437              		.loc 1 350 0
 438              		@ sp needed
 439 0008 7047     		bx	lr
 440              	.L31:
 441 000a C046     		.align	2
 442              	.L30:
 443 000c 80E100E0 		.word	-536813184
 444              		.cfi_endproc
 445              	.LFE11:
 446              		.size	I2C_SCB_IRQ_Disable, .-I2C_SCB_IRQ_Disable
 447              		.section	.text.I2C_SCB_IRQ_SetPending,"ax",%progbits
 448              		.align	1
 449              		.global	I2C_SCB_IRQ_SetPending
 450              		.code	16
 451              		.thumb_func
ARM GAS  C:\Users\Alan\AppData\Local\Temp\ccOsyTYG.s 			page 16


 452              		.type	I2C_SCB_IRQ_SetPending, %function
 453              	I2C_SCB_IRQ_SetPending:
 454              	.LFB12:
 351:Generated_Source\PSoC4/I2C_SCB_IRQ.c **** 
 352:Generated_Source\PSoC4/I2C_SCB_IRQ.c **** 
 353:Generated_Source\PSoC4/I2C_SCB_IRQ.c **** /*******************************************************************************
 354:Generated_Source\PSoC4/I2C_SCB_IRQ.c **** * Function Name: I2C_SCB_IRQ_SetPending
 355:Generated_Source\PSoC4/I2C_SCB_IRQ.c **** ********************************************************************************
 356:Generated_Source\PSoC4/I2C_SCB_IRQ.c **** *
 357:Generated_Source\PSoC4/I2C_SCB_IRQ.c **** * Summary:
 358:Generated_Source\PSoC4/I2C_SCB_IRQ.c **** *   Causes the Interrupt to enter the pending state, a software method of
 359:Generated_Source\PSoC4/I2C_SCB_IRQ.c **** *   generating the interrupt.
 360:Generated_Source\PSoC4/I2C_SCB_IRQ.c **** *
 361:Generated_Source\PSoC4/I2C_SCB_IRQ.c **** * Parameters:
 362:Generated_Source\PSoC4/I2C_SCB_IRQ.c **** *   None
 363:Generated_Source\PSoC4/I2C_SCB_IRQ.c **** *
 364:Generated_Source\PSoC4/I2C_SCB_IRQ.c **** * Return:
 365:Generated_Source\PSoC4/I2C_SCB_IRQ.c **** *   None
 366:Generated_Source\PSoC4/I2C_SCB_IRQ.c **** *
 367:Generated_Source\PSoC4/I2C_SCB_IRQ.c **** * Side Effects:
 368:Generated_Source\PSoC4/I2C_SCB_IRQ.c **** *   If interrupts are enabled and the interrupt is set up properly, the ISR is
 369:Generated_Source\PSoC4/I2C_SCB_IRQ.c **** *   entered (depending on the priority of this interrupt and other pending 
 370:Generated_Source\PSoC4/I2C_SCB_IRQ.c **** *   interrupts).
 371:Generated_Source\PSoC4/I2C_SCB_IRQ.c **** *
 372:Generated_Source\PSoC4/I2C_SCB_IRQ.c **** *******************************************************************************/
 373:Generated_Source\PSoC4/I2C_SCB_IRQ.c **** void I2C_SCB_IRQ_SetPending(void)
 374:Generated_Source\PSoC4/I2C_SCB_IRQ.c **** {
 455              		.loc 1 374 0
 456              		.cfi_startproc
 457              		@ args = 0, pretend = 0, frame = 0
 458              		@ frame_needed = 0, uses_anonymous_args = 0
 459              		@ link register save eliminated.
 375:Generated_Source\PSoC4/I2C_SCB_IRQ.c ****     *I2C_SCB_IRQ_INTC_SET_PD = I2C_SCB_IRQ__INTC_MASK;
 460              		.loc 1 375 0
 461 0000 8022     		movs	r2, #128
 462 0002 024B     		ldr	r3, .L33
 463 0004 5200     		lsls	r2, r2, #1
 464 0006 1A60     		str	r2, [r3]
 376:Generated_Source\PSoC4/I2C_SCB_IRQ.c **** }
 465              		.loc 1 376 0
 466              		@ sp needed
 467 0008 7047     		bx	lr
 468              	.L34:
 469 000a C046     		.align	2
 470              	.L33:
 471 000c 00E200E0 		.word	-536813056
 472              		.cfi_endproc
 473              	.LFE12:
 474              		.size	I2C_SCB_IRQ_SetPending, .-I2C_SCB_IRQ_SetPending
 475              		.section	.text.I2C_SCB_IRQ_ClearPending,"ax",%progbits
 476              		.align	1
 477              		.global	I2C_SCB_IRQ_ClearPending
 478              		.code	16
 479              		.thumb_func
 480              		.type	I2C_SCB_IRQ_ClearPending, %function
 481              	I2C_SCB_IRQ_ClearPending:
 482              	.LFB13:
ARM GAS  C:\Users\Alan\AppData\Local\Temp\ccOsyTYG.s 			page 17


 377:Generated_Source\PSoC4/I2C_SCB_IRQ.c **** 
 378:Generated_Source\PSoC4/I2C_SCB_IRQ.c **** 
 379:Generated_Source\PSoC4/I2C_SCB_IRQ.c **** /*******************************************************************************
 380:Generated_Source\PSoC4/I2C_SCB_IRQ.c **** * Function Name: I2C_SCB_IRQ_ClearPending
 381:Generated_Source\PSoC4/I2C_SCB_IRQ.c **** ********************************************************************************
 382:Generated_Source\PSoC4/I2C_SCB_IRQ.c **** *
 383:Generated_Source\PSoC4/I2C_SCB_IRQ.c **** * Summary:
 384:Generated_Source\PSoC4/I2C_SCB_IRQ.c **** *   Clears a pending interrupt in the interrupt controller.
 385:Generated_Source\PSoC4/I2C_SCB_IRQ.c **** *
 386:Generated_Source\PSoC4/I2C_SCB_IRQ.c **** *   Note Some interrupt sources are clear-on-read and require the block 
 387:Generated_Source\PSoC4/I2C_SCB_IRQ.c **** *   interrupt/status register to be read/cleared with the appropriate block API 
 388:Generated_Source\PSoC4/I2C_SCB_IRQ.c **** *   (GPIO, UART, and so on). Otherwise the ISR will continue to remain in 
 389:Generated_Source\PSoC4/I2C_SCB_IRQ.c **** *   pending state even though the interrupt itself is cleared using this API.
 390:Generated_Source\PSoC4/I2C_SCB_IRQ.c **** *
 391:Generated_Source\PSoC4/I2C_SCB_IRQ.c **** * Parameters:
 392:Generated_Source\PSoC4/I2C_SCB_IRQ.c **** *   None
 393:Generated_Source\PSoC4/I2C_SCB_IRQ.c **** *
 394:Generated_Source\PSoC4/I2C_SCB_IRQ.c **** * Return:
 395:Generated_Source\PSoC4/I2C_SCB_IRQ.c **** *   None
 396:Generated_Source\PSoC4/I2C_SCB_IRQ.c **** *
 397:Generated_Source\PSoC4/I2C_SCB_IRQ.c **** *******************************************************************************/
 398:Generated_Source\PSoC4/I2C_SCB_IRQ.c **** void I2C_SCB_IRQ_ClearPending(void)
 399:Generated_Source\PSoC4/I2C_SCB_IRQ.c **** {
 483              		.loc 1 399 0
 484              		.cfi_startproc
 485              		@ args = 0, pretend = 0, frame = 0
 486              		@ frame_needed = 0, uses_anonymous_args = 0
 487              		@ link register save eliminated.
 400:Generated_Source\PSoC4/I2C_SCB_IRQ.c ****     *I2C_SCB_IRQ_INTC_CLR_PD = I2C_SCB_IRQ__INTC_MASK;
 488              		.loc 1 400 0
 489 0000 8022     		movs	r2, #128
 490 0002 024B     		ldr	r3, .L36
 491 0004 5200     		lsls	r2, r2, #1
 492 0006 1A60     		str	r2, [r3]
 401:Generated_Source\PSoC4/I2C_SCB_IRQ.c **** }
 493              		.loc 1 401 0
 494              		@ sp needed
 495 0008 7047     		bx	lr
 496              	.L37:
 497 000a C046     		.align	2
 498              	.L36:
 499 000c 80E200E0 		.word	-536812928
 500              		.cfi_endproc
 501              	.LFE13:
 502              		.size	I2C_SCB_IRQ_ClearPending, .-I2C_SCB_IRQ_ClearPending
 503              		.text
 504              	.Letext0:
 505              		.file 2 "Generated_Source\\PSoC4/cytypes.h"
 506              		.file 3 "Generated_Source\\PSoC4/CyLib.h"