ARM GAS  C:\Users\Greg\AppData\Local\Temp\cc742Y6h.s 			page 1


   1              		.syntax unified
   2              		.cpu cortex-m0
   3              		.fpu softvfp
   4              		.eabi_attribute 20, 1
   5              		.eabi_attribute 21, 1
   6              		.eabi_attribute 23, 3
   7              		.eabi_attribute 24, 1
   8              		.eabi_attribute 25, 1
   9              		.eabi_attribute 26, 1
  10              		.eabi_attribute 30, 4
  11              		.eabi_attribute 34, 0
  12              		.eabi_attribute 18, 4
  13              		.thumb
  14              		.syntax unified
  15              		.file	"I2C_I2C_MASTER.c"
  16              		.text
  17              	.Ltext0:
  18              		.cfi_sections	.debug_frame
  19              		.section	.text.I2C_I2CMasterSendStart,"ax",%progbits
  20              		.align	1
  21              		.global	I2C_I2CMasterSendStart
  22              		.code	16
  23              		.thumb_func
  24              		.type	I2C_I2CMasterSendStart, %function
  25              	I2C_I2CMasterSendStart:
  26              	.LFB3:
  27              		.file 1 "Generated_Source\\PSoC4\\I2C_I2C_MASTER.c"
   1:Generated_Source\PSoC4/I2C_I2C_MASTER.c **** /***************************************************************************//**
   2:Generated_Source\PSoC4/I2C_I2C_MASTER.c **** * \file I2C_I2C_MASTER.c
   3:Generated_Source\PSoC4/I2C_I2C_MASTER.c **** * \version 3.20
   4:Generated_Source\PSoC4/I2C_I2C_MASTER.c **** *
   5:Generated_Source\PSoC4/I2C_I2C_MASTER.c **** * \brief
   6:Generated_Source\PSoC4/I2C_I2C_MASTER.c **** *  This file provides the source code to the API for the SCB Component in
   7:Generated_Source\PSoC4/I2C_I2C_MASTER.c **** *  I2C Master mode.
   8:Generated_Source\PSoC4/I2C_I2C_MASTER.c **** *
   9:Generated_Source\PSoC4/I2C_I2C_MASTER.c **** * Note:
  10:Generated_Source\PSoC4/I2C_I2C_MASTER.c **** *
  11:Generated_Source\PSoC4/I2C_I2C_MASTER.c **** *******************************************************************************
  12:Generated_Source\PSoC4/I2C_I2C_MASTER.c **** * \copyright
  13:Generated_Source\PSoC4/I2C_I2C_MASTER.c **** * Copyright 2013-2016, Cypress Semiconductor Corporation.  All rights reserved.
  14:Generated_Source\PSoC4/I2C_I2C_MASTER.c **** * You may use this file only in accordance with the license, terms, conditions,
  15:Generated_Source\PSoC4/I2C_I2C_MASTER.c **** * disclaimers, and limitations in the end user license agreement accompanying
  16:Generated_Source\PSoC4/I2C_I2C_MASTER.c **** * the software package with which this file was provided.
  17:Generated_Source\PSoC4/I2C_I2C_MASTER.c **** *******************************************************************************/
  18:Generated_Source\PSoC4/I2C_I2C_MASTER.c **** 
  19:Generated_Source\PSoC4/I2C_I2C_MASTER.c **** #include "I2C_PVT.h"
  20:Generated_Source\PSoC4/I2C_I2C_MASTER.c **** #include "I2C_I2C_PVT.h"
  21:Generated_Source\PSoC4/I2C_I2C_MASTER.c **** 
  22:Generated_Source\PSoC4/I2C_I2C_MASTER.c **** #if(I2C_I2C_MASTER_CONST)
  23:Generated_Source\PSoC4/I2C_I2C_MASTER.c **** 
  24:Generated_Source\PSoC4/I2C_I2C_MASTER.c **** /***************************************
  25:Generated_Source\PSoC4/I2C_I2C_MASTER.c **** *      I2C Master Private Vars
  26:Generated_Source\PSoC4/I2C_I2C_MASTER.c **** ***************************************/
  27:Generated_Source\PSoC4/I2C_I2C_MASTER.c **** 
  28:Generated_Source\PSoC4/I2C_I2C_MASTER.c **** /* Master variables */
  29:Generated_Source\PSoC4/I2C_I2C_MASTER.c **** volatile uint16 I2C_mstrStatus;      /* Master Status byte  */
  30:Generated_Source\PSoC4/I2C_I2C_MASTER.c **** volatile uint8  I2C_mstrControl;     /* Master Control byte */
ARM GAS  C:\Users\Greg\AppData\Local\Temp\cc742Y6h.s 			page 2


  31:Generated_Source\PSoC4/I2C_I2C_MASTER.c **** 
  32:Generated_Source\PSoC4/I2C_I2C_MASTER.c **** /* Receive buffer variables */
  33:Generated_Source\PSoC4/I2C_I2C_MASTER.c **** volatile uint8 * I2C_mstrRdBufPtr;   /* Pointer to Master Read buffer */
  34:Generated_Source\PSoC4/I2C_I2C_MASTER.c **** volatile uint32  I2C_mstrRdBufSize;  /* Master Read buffer size       */
  35:Generated_Source\PSoC4/I2C_I2C_MASTER.c **** volatile uint32  I2C_mstrRdBufIndex; /* Master Read buffer Index      */
  36:Generated_Source\PSoC4/I2C_I2C_MASTER.c **** 
  37:Generated_Source\PSoC4/I2C_I2C_MASTER.c **** /* Transmit buffer variables */
  38:Generated_Source\PSoC4/I2C_I2C_MASTER.c **** volatile uint8 * I2C_mstrWrBufPtr;   /* Pointer to Master Write buffer */
  39:Generated_Source\PSoC4/I2C_I2C_MASTER.c **** volatile uint32  I2C_mstrWrBufSize;  /* Master Write buffer size       */
  40:Generated_Source\PSoC4/I2C_I2C_MASTER.c **** volatile uint32  I2C_mstrWrBufIndex; /* Master Write buffer Index      */
  41:Generated_Source\PSoC4/I2C_I2C_MASTER.c **** volatile uint32  I2C_mstrWrBufIndexTmp; /* Master Write buffer Index Tmp */
  42:Generated_Source\PSoC4/I2C_I2C_MASTER.c **** 
  43:Generated_Source\PSoC4/I2C_I2C_MASTER.c **** #if (!I2C_CY_SCBIP_V0 && \
  44:Generated_Source\PSoC4/I2C_I2C_MASTER.c ****     I2C_I2C_MULTI_MASTER_SLAVE_CONST && I2C_I2C_WAKE_ENABLE_CONST)
  45:Generated_Source\PSoC4/I2C_I2C_MASTER.c ****     static void I2C_I2CMasterDisableEcAm(void);
  46:Generated_Source\PSoC4/I2C_I2C_MASTER.c **** #endif /* (!I2C_CY_SCBIP_V0) */
  47:Generated_Source\PSoC4/I2C_I2C_MASTER.c **** 
  48:Generated_Source\PSoC4/I2C_I2C_MASTER.c **** 
  49:Generated_Source\PSoC4/I2C_I2C_MASTER.c **** /*******************************************************************************
  50:Generated_Source\PSoC4/I2C_I2C_MASTER.c **** * Function Name: I2C_I2CMasterWriteBuf
  51:Generated_Source\PSoC4/I2C_I2C_MASTER.c **** ****************************************************************************//**
  52:Generated_Source\PSoC4/I2C_I2C_MASTER.c **** *
  53:Generated_Source\PSoC4/I2C_I2C_MASTER.c **** *  Automatically writes an entire buffer of data to a slave device.
  54:Generated_Source\PSoC4/I2C_I2C_MASTER.c **** *  Once the data transfer is initiated by this function, further data transfer
  55:Generated_Source\PSoC4/I2C_I2C_MASTER.c **** *  is handled by the included ISR.
  56:Generated_Source\PSoC4/I2C_I2C_MASTER.c **** *  Enables the I2C interrupt and clears I2C_I2C_MSTAT_WR_CMPLT 
  57:Generated_Source\PSoC4/I2C_I2C_MASTER.c **** *  status.
  58:Generated_Source\PSoC4/I2C_I2C_MASTER.c **** *
  59:Generated_Source\PSoC4/I2C_I2C_MASTER.c **** *  \param slaveAddr: 7-bit slave address.
  60:Generated_Source\PSoC4/I2C_I2C_MASTER.c **** *  \param xferData: Pointer to buffer of data to be sent.
  61:Generated_Source\PSoC4/I2C_I2C_MASTER.c **** *  \param cnt: Size of buffer to send.
  62:Generated_Source\PSoC4/I2C_I2C_MASTER.c **** *  \param mode: Transfer mode defines:
  63:Generated_Source\PSoC4/I2C_I2C_MASTER.c **** *  (1) Whether a start or restart condition is generated at the beginning 
  64:Generated_Source\PSoC4/I2C_I2C_MASTER.c **** *  of the transfer, and
  65:Generated_Source\PSoC4/I2C_I2C_MASTER.c **** *  (2) Whether the transfer is completed or halted before the stop 
  66:Generated_Source\PSoC4/I2C_I2C_MASTER.c **** *  condition is generated on the bus.Transfer mode, mode constants 
  67:Generated_Source\PSoC4/I2C_I2C_MASTER.c **** *  may be ORed together.
  68:Generated_Source\PSoC4/I2C_I2C_MASTER.c **** *  - I2C_I2C_MODE_COMPLETE_XFER - Perform complete transfer 
  69:Generated_Source\PSoC4/I2C_I2C_MASTER.c **** *    from Start to Stop.
  70:Generated_Source\PSoC4/I2C_I2C_MASTER.c **** *  - I2C_I2C_MODE_REPEAT_START - Send Repeat Start instead 
  71:Generated_Source\PSoC4/I2C_I2C_MASTER.c **** *    of Start. A Stop is generated after transfer is completed unless 
  72:Generated_Source\PSoC4/I2C_I2C_MASTER.c **** *    NO_STOP is specified.
  73:Generated_Source\PSoC4/I2C_I2C_MASTER.c **** *  - I2C_I2C_MODE_NO_STOP Execute transfer without a Stop.
  74:Generated_Source\PSoC4/I2C_I2C_MASTER.c **** *    The following transfer expected to perform ReStart.
  75:Generated_Source\PSoC4/I2C_I2C_MASTER.c **** *
  76:Generated_Source\PSoC4/I2C_I2C_MASTER.c **** * \return
  77:Generated_Source\PSoC4/I2C_I2C_MASTER.c **** *  Error status.
  78:Generated_Source\PSoC4/I2C_I2C_MASTER.c **** *  - I2C_I2C_MSTR_NO_ERROR - Function complete without error. 
  79:Generated_Source\PSoC4/I2C_I2C_MASTER.c **** *    The master started the transfer.
  80:Generated_Source\PSoC4/I2C_I2C_MASTER.c **** *  - I2C_I2C_MSTR_BUS_BUSY - Bus is busy. Nothing was sent on
  81:Generated_Source\PSoC4/I2C_I2C_MASTER.c **** *    the bus. The attempt has to be retried.
  82:Generated_Source\PSoC4/I2C_I2C_MASTER.c **** *  - I2C_I2C_MSTR_NOT_READY - Master is not ready for to start
  83:Generated_Source\PSoC4/I2C_I2C_MASTER.c **** *    transfer. A master still has not completed previous transaction or a 
  84:Generated_Source\PSoC4/I2C_I2C_MASTER.c **** *    slave operation is in progress (in multi-master-slave configuration).
  85:Generated_Source\PSoC4/I2C_I2C_MASTER.c **** *    Nothing was sent on the bus. The attempt has to be retried.
  86:Generated_Source\PSoC4/I2C_I2C_MASTER.c **** *
  87:Generated_Source\PSoC4/I2C_I2C_MASTER.c **** * \globalvars
ARM GAS  C:\Users\Greg\AppData\Local\Temp\cc742Y6h.s 			page 3


  88:Generated_Source\PSoC4/I2C_I2C_MASTER.c **** *  I2C_mstrStatus  - used to store current status of I2C Master.
  89:Generated_Source\PSoC4/I2C_I2C_MASTER.c **** *  I2C_state       - used to store current state of software FSM.
  90:Generated_Source\PSoC4/I2C_I2C_MASTER.c **** *  I2C_mstrControl - used to control master end of transaction with
  91:Generated_Source\PSoC4/I2C_I2C_MASTER.c **** *  or without the Stop generation.
  92:Generated_Source\PSoC4/I2C_I2C_MASTER.c **** *  I2C_mstrWrBufPtr - used to store pointer to master write buffer.
  93:Generated_Source\PSoC4/I2C_I2C_MASTER.c **** *  I2C_mstrWrBufIndex - used to current index within master write
  94:Generated_Source\PSoC4/I2C_I2C_MASTER.c **** *  buffer.
  95:Generated_Source\PSoC4/I2C_I2C_MASTER.c **** *  I2C_mstrWrBufSize - used to store master write buffer size.
  96:Generated_Source\PSoC4/I2C_I2C_MASTER.c **** *
  97:Generated_Source\PSoC4/I2C_I2C_MASTER.c **** *******************************************************************************/
  98:Generated_Source\PSoC4/I2C_I2C_MASTER.c **** uint32 I2C_I2CMasterWriteBuf(uint32 slaveAddress, uint8 * wrData, uint32 cnt, uint32 mode)
  99:Generated_Source\PSoC4/I2C_I2C_MASTER.c **** {
 100:Generated_Source\PSoC4/I2C_I2C_MASTER.c ****     uint32 errStatus;
 101:Generated_Source\PSoC4/I2C_I2C_MASTER.c **** 
 102:Generated_Source\PSoC4/I2C_I2C_MASTER.c ****     errStatus = I2C_I2C_MSTR_NOT_READY;
 103:Generated_Source\PSoC4/I2C_I2C_MASTER.c **** 
 104:Generated_Source\PSoC4/I2C_I2C_MASTER.c ****     if(NULL != wrData)  /* Check buffer pointer */
 105:Generated_Source\PSoC4/I2C_I2C_MASTER.c ****     {
 106:Generated_Source\PSoC4/I2C_I2C_MASTER.c ****         /* Check FSM state and bus before generating Start/ReStart condition */
 107:Generated_Source\PSoC4/I2C_I2C_MASTER.c ****         if(I2C_CHECK_I2C_FSM_IDLE)
 108:Generated_Source\PSoC4/I2C_I2C_MASTER.c ****         {
 109:Generated_Source\PSoC4/I2C_I2C_MASTER.c ****             I2C_DisableInt();  /* Lock from interruption */
 110:Generated_Source\PSoC4/I2C_I2C_MASTER.c **** 
 111:Generated_Source\PSoC4/I2C_I2C_MASTER.c ****             /* Check bus state */
 112:Generated_Source\PSoC4/I2C_I2C_MASTER.c ****             errStatus = I2C_CHECK_I2C_STATUS(I2C_I2C_STATUS_BUS_BUSY) ?
 113:Generated_Source\PSoC4/I2C_I2C_MASTER.c ****                             I2C_I2C_MSTR_BUS_BUSY : I2C_I2C_MSTR_NO_ERROR;
 114:Generated_Source\PSoC4/I2C_I2C_MASTER.c ****         }
 115:Generated_Source\PSoC4/I2C_I2C_MASTER.c ****         else if(I2C_CHECK_I2C_FSM_HALT)
 116:Generated_Source\PSoC4/I2C_I2C_MASTER.c ****         {
 117:Generated_Source\PSoC4/I2C_I2C_MASTER.c ****             I2C_mstrStatus &= (uint16) ~I2C_I2C_MSTAT_XFER_HALT;
 118:Generated_Source\PSoC4/I2C_I2C_MASTER.c ****                               errStatus  = I2C_I2C_MSTR_NO_ERROR;
 119:Generated_Source\PSoC4/I2C_I2C_MASTER.c ****         }
 120:Generated_Source\PSoC4/I2C_I2C_MASTER.c ****         else
 121:Generated_Source\PSoC4/I2C_I2C_MASTER.c ****         {
 122:Generated_Source\PSoC4/I2C_I2C_MASTER.c ****             /* Unexpected FSM state: exit */
 123:Generated_Source\PSoC4/I2C_I2C_MASTER.c ****         }
 124:Generated_Source\PSoC4/I2C_I2C_MASTER.c ****     }
 125:Generated_Source\PSoC4/I2C_I2C_MASTER.c **** 
 126:Generated_Source\PSoC4/I2C_I2C_MASTER.c ****     /* Check if master is ready to start  */
 127:Generated_Source\PSoC4/I2C_I2C_MASTER.c ****     if(I2C_I2C_MSTR_NO_ERROR == errStatus) /* No error proceed */
 128:Generated_Source\PSoC4/I2C_I2C_MASTER.c ****     {
 129:Generated_Source\PSoC4/I2C_I2C_MASTER.c ****     #if (!I2C_CY_SCBIP_V0 && \
 130:Generated_Source\PSoC4/I2C_I2C_MASTER.c ****         I2C_I2C_MULTI_MASTER_SLAVE_CONST && I2C_I2C_WAKE_ENABLE_CONST)
 131:Generated_Source\PSoC4/I2C_I2C_MASTER.c ****             I2C_I2CMasterDisableEcAm();
 132:Generated_Source\PSoC4/I2C_I2C_MASTER.c ****     #endif /* (!I2C_CY_SCBIP_V0) */
 133:Generated_Source\PSoC4/I2C_I2C_MASTER.c **** 
 134:Generated_Source\PSoC4/I2C_I2C_MASTER.c ****         /* Set up write transaction */
 135:Generated_Source\PSoC4/I2C_I2C_MASTER.c ****         I2C_state = I2C_I2C_FSM_MSTR_WR_ADDR;
 136:Generated_Source\PSoC4/I2C_I2C_MASTER.c ****         I2C_mstrWrBufIndexTmp = 0u;
 137:Generated_Source\PSoC4/I2C_I2C_MASTER.c ****         I2C_mstrWrBufIndex    = 0u;
 138:Generated_Source\PSoC4/I2C_I2C_MASTER.c ****         I2C_mstrWrBufSize     = cnt;
 139:Generated_Source\PSoC4/I2C_I2C_MASTER.c ****         I2C_mstrWrBufPtr      = (volatile uint8 *) wrData;
 140:Generated_Source\PSoC4/I2C_I2C_MASTER.c ****         I2C_mstrControl       = (uint8) mode;
 141:Generated_Source\PSoC4/I2C_I2C_MASTER.c **** 
 142:Generated_Source\PSoC4/I2C_I2C_MASTER.c ****         slaveAddress = I2C_GET_I2C_8BIT_ADDRESS(slaveAddress);
 143:Generated_Source\PSoC4/I2C_I2C_MASTER.c **** 
 144:Generated_Source\PSoC4/I2C_I2C_MASTER.c ****         I2C_mstrStatus &= (uint16) ~I2C_I2C_MSTAT_WR_CMPLT;
ARM GAS  C:\Users\Greg\AppData\Local\Temp\cc742Y6h.s 			page 4


 145:Generated_Source\PSoC4/I2C_I2C_MASTER.c **** 
 146:Generated_Source\PSoC4/I2C_I2C_MASTER.c ****         I2C_ClearMasterInterruptSource(I2C_INTR_MASTER_ALL);
 147:Generated_Source\PSoC4/I2C_I2C_MASTER.c ****         I2C_ClearTxInterruptSource(I2C_INTR_TX_UNDERFLOW);
 148:Generated_Source\PSoC4/I2C_I2C_MASTER.c **** 
 149:Generated_Source\PSoC4/I2C_I2C_MASTER.c ****         /* The TX and RX FIFO have to be EMPTY */
 150:Generated_Source\PSoC4/I2C_I2C_MASTER.c **** 
 151:Generated_Source\PSoC4/I2C_I2C_MASTER.c ****         /* Enable interrupt source to catch when address is sent */
 152:Generated_Source\PSoC4/I2C_I2C_MASTER.c ****         I2C_SetTxInterruptMode(I2C_INTR_TX_UNDERFLOW);
 153:Generated_Source\PSoC4/I2C_I2C_MASTER.c **** 
 154:Generated_Source\PSoC4/I2C_I2C_MASTER.c ****         /* Generate Start or ReStart */
 155:Generated_Source\PSoC4/I2C_I2C_MASTER.c ****         if(I2C_CHECK_I2C_MODE_RESTART(mode))
 156:Generated_Source\PSoC4/I2C_I2C_MASTER.c ****         {
 157:Generated_Source\PSoC4/I2C_I2C_MASTER.c ****             I2C_I2C_MASTER_GENERATE_RESTART;
 158:Generated_Source\PSoC4/I2C_I2C_MASTER.c ****             I2C_TX_FIFO_WR_REG = slaveAddress;
 159:Generated_Source\PSoC4/I2C_I2C_MASTER.c ****         }
 160:Generated_Source\PSoC4/I2C_I2C_MASTER.c ****         else
 161:Generated_Source\PSoC4/I2C_I2C_MASTER.c ****         {
 162:Generated_Source\PSoC4/I2C_I2C_MASTER.c ****             I2C_TX_FIFO_WR_REG = slaveAddress;
 163:Generated_Source\PSoC4/I2C_I2C_MASTER.c ****             I2C_I2C_MASTER_GENERATE_START;
 164:Generated_Source\PSoC4/I2C_I2C_MASTER.c ****         }
 165:Generated_Source\PSoC4/I2C_I2C_MASTER.c ****     }
 166:Generated_Source\PSoC4/I2C_I2C_MASTER.c **** 
 167:Generated_Source\PSoC4/I2C_I2C_MASTER.c ****     I2C_EnableInt();   /* Release lock */
 168:Generated_Source\PSoC4/I2C_I2C_MASTER.c **** 
 169:Generated_Source\PSoC4/I2C_I2C_MASTER.c ****     return(errStatus);
 170:Generated_Source\PSoC4/I2C_I2C_MASTER.c **** }
 171:Generated_Source\PSoC4/I2C_I2C_MASTER.c **** 
 172:Generated_Source\PSoC4/I2C_I2C_MASTER.c **** 
 173:Generated_Source\PSoC4/I2C_I2C_MASTER.c **** /*******************************************************************************
 174:Generated_Source\PSoC4/I2C_I2C_MASTER.c **** * Function Name: I2C_I2CMasterReadBuf
 175:Generated_Source\PSoC4/I2C_I2C_MASTER.c **** ****************************************************************************//**
 176:Generated_Source\PSoC4/I2C_I2C_MASTER.c **** *
 177:Generated_Source\PSoC4/I2C_I2C_MASTER.c **** *  Automatically reads an entire buffer of data from a slave device.
 178:Generated_Source\PSoC4/I2C_I2C_MASTER.c **** *  Once the data transfer is initiated by this function, further data transfer
 179:Generated_Source\PSoC4/I2C_I2C_MASTER.c **** *  is handled by the included ISR.
 180:Generated_Source\PSoC4/I2C_I2C_MASTER.c **** *  Enables the I2C interrupt and clears I2C_I2C_MSTAT_RD_CMPLT 
 181:Generated_Source\PSoC4/I2C_I2C_MASTER.c **** *  status.
 182:Generated_Source\PSoC4/I2C_I2C_MASTER.c **** *
 183:Generated_Source\PSoC4/I2C_I2C_MASTER.c **** *  \param slaveAddr: 7-bit slave address.
 184:Generated_Source\PSoC4/I2C_I2C_MASTER.c **** *  \param xferData: Pointer to buffer of data to be sent.
 185:Generated_Source\PSoC4/I2C_I2C_MASTER.c **** *  \param cnt: Size of buffer to send.
 186:Generated_Source\PSoC4/I2C_I2C_MASTER.c **** *  \param mode: Transfer mode defines:
 187:Generated_Source\PSoC4/I2C_I2C_MASTER.c **** *  (1) Whether a start or restart condition is generated at the beginning 
 188:Generated_Source\PSoC4/I2C_I2C_MASTER.c **** *  of the transfer, and
 189:Generated_Source\PSoC4/I2C_I2C_MASTER.c **** *  (2) Whether the transfer is completed or halted before the stop 
 190:Generated_Source\PSoC4/I2C_I2C_MASTER.c **** *  condition is generated on the bus.Transfer mode, mode constants may 
 191:Generated_Source\PSoC4/I2C_I2C_MASTER.c **** *  be ORed together. See I2C_I2CMasterWriteBuf() 
 192:Generated_Source\PSoC4/I2C_I2C_MASTER.c **** *  function for constants.
 193:Generated_Source\PSoC4/I2C_I2C_MASTER.c **** *
 194:Generated_Source\PSoC4/I2C_I2C_MASTER.c **** * \return
 195:Generated_Source\PSoC4/I2C_I2C_MASTER.c **** *  Error status.See I2C_I2CMasterWriteBuf() 
 196:Generated_Source\PSoC4/I2C_I2C_MASTER.c **** *  function for constants.
 197:Generated_Source\PSoC4/I2C_I2C_MASTER.c **** *
 198:Generated_Source\PSoC4/I2C_I2C_MASTER.c **** * \globalvars
 199:Generated_Source\PSoC4/I2C_I2C_MASTER.c **** *  I2C_mstrStatus  - used to store current status of I2C Master.
 200:Generated_Source\PSoC4/I2C_I2C_MASTER.c **** *  I2C_state       - used to store current state of software FSM.
 201:Generated_Source\PSoC4/I2C_I2C_MASTER.c **** *  I2C_mstrControl - used to control master end of transaction with
ARM GAS  C:\Users\Greg\AppData\Local\Temp\cc742Y6h.s 			page 5


 202:Generated_Source\PSoC4/I2C_I2C_MASTER.c **** *  or without the Stop generation.
 203:Generated_Source\PSoC4/I2C_I2C_MASTER.c **** *  I2C_mstrRdBufPtr - used to store pointer to master read buffer.
 204:Generated_Source\PSoC4/I2C_I2C_MASTER.c **** *  I2C_mstrRdBufIndex - used to current index within master read
 205:Generated_Source\PSoC4/I2C_I2C_MASTER.c **** *  buffer.
 206:Generated_Source\PSoC4/I2C_I2C_MASTER.c **** *  I2C_mstrRdBufSize - used to store master read buffer size.
 207:Generated_Source\PSoC4/I2C_I2C_MASTER.c **** *
 208:Generated_Source\PSoC4/I2C_I2C_MASTER.c **** *******************************************************************************/
 209:Generated_Source\PSoC4/I2C_I2C_MASTER.c **** uint32 I2C_I2CMasterReadBuf(uint32 slaveAddress, uint8 * rdData, uint32 cnt, uint32 mode)
 210:Generated_Source\PSoC4/I2C_I2C_MASTER.c **** {
 211:Generated_Source\PSoC4/I2C_I2C_MASTER.c ****     uint32 errStatus;
 212:Generated_Source\PSoC4/I2C_I2C_MASTER.c **** 
 213:Generated_Source\PSoC4/I2C_I2C_MASTER.c ****     errStatus = I2C_I2C_MSTR_NOT_READY;
 214:Generated_Source\PSoC4/I2C_I2C_MASTER.c **** 
 215:Generated_Source\PSoC4/I2C_I2C_MASTER.c ****     if(NULL != rdData)
 216:Generated_Source\PSoC4/I2C_I2C_MASTER.c ****     {
 217:Generated_Source\PSoC4/I2C_I2C_MASTER.c ****         /* Check FSM state and bus before generating Start/ReStart condition */
 218:Generated_Source\PSoC4/I2C_I2C_MASTER.c ****         if(I2C_CHECK_I2C_FSM_IDLE)
 219:Generated_Source\PSoC4/I2C_I2C_MASTER.c ****         {
 220:Generated_Source\PSoC4/I2C_I2C_MASTER.c ****             I2C_DisableInt();  /* Lock from interruption */
 221:Generated_Source\PSoC4/I2C_I2C_MASTER.c **** 
 222:Generated_Source\PSoC4/I2C_I2C_MASTER.c ****             /* Check bus state */
 223:Generated_Source\PSoC4/I2C_I2C_MASTER.c ****             errStatus = I2C_CHECK_I2C_STATUS(I2C_I2C_STATUS_BUS_BUSY) ?
 224:Generated_Source\PSoC4/I2C_I2C_MASTER.c ****                             I2C_I2C_MSTR_BUS_BUSY : I2C_I2C_MSTR_NO_ERROR;
 225:Generated_Source\PSoC4/I2C_I2C_MASTER.c ****         }
 226:Generated_Source\PSoC4/I2C_I2C_MASTER.c ****         else if(I2C_CHECK_I2C_FSM_HALT)
 227:Generated_Source\PSoC4/I2C_I2C_MASTER.c ****         {
 228:Generated_Source\PSoC4/I2C_I2C_MASTER.c ****             I2C_mstrStatus &= (uint16) ~I2C_I2C_MSTAT_XFER_HALT;
 229:Generated_Source\PSoC4/I2C_I2C_MASTER.c ****                               errStatus  =  I2C_I2C_MSTR_NO_ERROR;
 230:Generated_Source\PSoC4/I2C_I2C_MASTER.c ****         }
 231:Generated_Source\PSoC4/I2C_I2C_MASTER.c ****         else
 232:Generated_Source\PSoC4/I2C_I2C_MASTER.c ****         {
 233:Generated_Source\PSoC4/I2C_I2C_MASTER.c ****             /* Unexpected FSM state: exit */
 234:Generated_Source\PSoC4/I2C_I2C_MASTER.c ****         }
 235:Generated_Source\PSoC4/I2C_I2C_MASTER.c ****     }
 236:Generated_Source\PSoC4/I2C_I2C_MASTER.c **** 
 237:Generated_Source\PSoC4/I2C_I2C_MASTER.c ****     /* Check master ready to proceed */
 238:Generated_Source\PSoC4/I2C_I2C_MASTER.c ****     if(I2C_I2C_MSTR_NO_ERROR == errStatus) /* No error proceed */
 239:Generated_Source\PSoC4/I2C_I2C_MASTER.c ****     {
 240:Generated_Source\PSoC4/I2C_I2C_MASTER.c ****         #if (!I2C_CY_SCBIP_V0 && \
 241:Generated_Source\PSoC4/I2C_I2C_MASTER.c ****         I2C_I2C_MULTI_MASTER_SLAVE_CONST && I2C_I2C_WAKE_ENABLE_CONST)
 242:Generated_Source\PSoC4/I2C_I2C_MASTER.c ****             I2C_I2CMasterDisableEcAm();
 243:Generated_Source\PSoC4/I2C_I2C_MASTER.c ****         #endif /* (!I2C_CY_SCBIP_V0) */
 244:Generated_Source\PSoC4/I2C_I2C_MASTER.c **** 
 245:Generated_Source\PSoC4/I2C_I2C_MASTER.c ****         /* Set up read transaction */
 246:Generated_Source\PSoC4/I2C_I2C_MASTER.c ****         I2C_state = I2C_I2C_FSM_MSTR_RD_ADDR;
 247:Generated_Source\PSoC4/I2C_I2C_MASTER.c ****         I2C_mstrRdBufIndex = 0u;
 248:Generated_Source\PSoC4/I2C_I2C_MASTER.c ****         I2C_mstrRdBufSize  = cnt;
 249:Generated_Source\PSoC4/I2C_I2C_MASTER.c ****         I2C_mstrRdBufPtr   = (volatile uint8 *) rdData;
 250:Generated_Source\PSoC4/I2C_I2C_MASTER.c ****         I2C_mstrControl    = (uint8) mode;
 251:Generated_Source\PSoC4/I2C_I2C_MASTER.c **** 
 252:Generated_Source\PSoC4/I2C_I2C_MASTER.c ****         slaveAddress = (I2C_GET_I2C_8BIT_ADDRESS(slaveAddress) | I2C_I2C_READ_FLAG);
 253:Generated_Source\PSoC4/I2C_I2C_MASTER.c **** 
 254:Generated_Source\PSoC4/I2C_I2C_MASTER.c ****         I2C_mstrStatus &= (uint16) ~I2C_I2C_MSTAT_RD_CMPLT;
 255:Generated_Source\PSoC4/I2C_I2C_MASTER.c **** 
 256:Generated_Source\PSoC4/I2C_I2C_MASTER.c ****         I2C_ClearMasterInterruptSource(I2C_INTR_MASTER_ALL);
 257:Generated_Source\PSoC4/I2C_I2C_MASTER.c **** 
 258:Generated_Source\PSoC4/I2C_I2C_MASTER.c ****         /* TX and RX FIFO have to be EMPTY */
ARM GAS  C:\Users\Greg\AppData\Local\Temp\cc742Y6h.s 			page 6


 259:Generated_Source\PSoC4/I2C_I2C_MASTER.c **** 
 260:Generated_Source\PSoC4/I2C_I2C_MASTER.c ****         /* Prepare reading */
 261:Generated_Source\PSoC4/I2C_I2C_MASTER.c ****         if(I2C_mstrRdBufSize < I2C_I2C_FIFO_SIZE)
 262:Generated_Source\PSoC4/I2C_I2C_MASTER.c ****         {
 263:Generated_Source\PSoC4/I2C_I2C_MASTER.c ****             /* Reading byte-by-byte */
 264:Generated_Source\PSoC4/I2C_I2C_MASTER.c ****             I2C_SetRxInterruptMode(I2C_INTR_RX_NOT_EMPTY);
 265:Generated_Source\PSoC4/I2C_I2C_MASTER.c ****         }
 266:Generated_Source\PSoC4/I2C_I2C_MASTER.c ****         else
 267:Generated_Source\PSoC4/I2C_I2C_MASTER.c ****         {
 268:Generated_Source\PSoC4/I2C_I2C_MASTER.c ****             /* Receive RX FIFO chunks */
 269:Generated_Source\PSoC4/I2C_I2C_MASTER.c ****             I2C_ENABLE_MASTER_AUTO_DATA_ACK;
 270:Generated_Source\PSoC4/I2C_I2C_MASTER.c ****             I2C_SetRxInterruptMode(I2C_INTR_RX_FULL);
 271:Generated_Source\PSoC4/I2C_I2C_MASTER.c ****         }
 272:Generated_Source\PSoC4/I2C_I2C_MASTER.c **** 
 273:Generated_Source\PSoC4/I2C_I2C_MASTER.c ****         /* Generate Start or ReStart */
 274:Generated_Source\PSoC4/I2C_I2C_MASTER.c ****         if(I2C_CHECK_I2C_MODE_RESTART(mode))
 275:Generated_Source\PSoC4/I2C_I2C_MASTER.c ****         {
 276:Generated_Source\PSoC4/I2C_I2C_MASTER.c ****             I2C_I2C_MASTER_GENERATE_RESTART;
 277:Generated_Source\PSoC4/I2C_I2C_MASTER.c ****             I2C_TX_FIFO_WR_REG = (slaveAddress);
 278:Generated_Source\PSoC4/I2C_I2C_MASTER.c ****         }
 279:Generated_Source\PSoC4/I2C_I2C_MASTER.c ****         else
 280:Generated_Source\PSoC4/I2C_I2C_MASTER.c ****         {
 281:Generated_Source\PSoC4/I2C_I2C_MASTER.c ****             I2C_TX_FIFO_WR_REG = (slaveAddress);
 282:Generated_Source\PSoC4/I2C_I2C_MASTER.c ****             I2C_I2C_MASTER_GENERATE_START;
 283:Generated_Source\PSoC4/I2C_I2C_MASTER.c ****         }
 284:Generated_Source\PSoC4/I2C_I2C_MASTER.c ****     }
 285:Generated_Source\PSoC4/I2C_I2C_MASTER.c **** 
 286:Generated_Source\PSoC4/I2C_I2C_MASTER.c ****     I2C_EnableInt();   /* Release lock */
 287:Generated_Source\PSoC4/I2C_I2C_MASTER.c **** 
 288:Generated_Source\PSoC4/I2C_I2C_MASTER.c ****     return(errStatus);
 289:Generated_Source\PSoC4/I2C_I2C_MASTER.c **** }
 290:Generated_Source\PSoC4/I2C_I2C_MASTER.c **** 
 291:Generated_Source\PSoC4/I2C_I2C_MASTER.c **** 
 292:Generated_Source\PSoC4/I2C_I2C_MASTER.c **** /*******************************************************************************
 293:Generated_Source\PSoC4/I2C_I2C_MASTER.c **** * Function Name: I2C_I2CMasterSendStart
 294:Generated_Source\PSoC4/I2C_I2C_MASTER.c **** ****************************************************************************//**
 295:Generated_Source\PSoC4/I2C_I2C_MASTER.c **** *
 296:Generated_Source\PSoC4/I2C_I2C_MASTER.c **** *  Generates Start condition and sends slave address with read/write bit.
 297:Generated_Source\PSoC4/I2C_I2C_MASTER.c **** *  Disables the I2C interrupt.
 298:Generated_Source\PSoC4/I2C_I2C_MASTER.c **** *  This function is blocking and does not return until start condition and
 299:Generated_Source\PSoC4/I2C_I2C_MASTER.c **** *  address byte are sent and ACK/NACK response is received or errors occurred.
 300:Generated_Source\PSoC4/I2C_I2C_MASTER.c **** *
 301:Generated_Source\PSoC4/I2C_I2C_MASTER.c **** * \param slaveAddress: Right justified 7-bit Slave address (valid range 
 302:Generated_Source\PSoC4/I2C_I2C_MASTER.c **** *  8 to 120).
 303:Generated_Source\PSoC4/I2C_I2C_MASTER.c **** * \param bitRnW: Direction of the following transfer. 
 304:Generated_Source\PSoC4/I2C_I2C_MASTER.c **** *  It is defined by read/write bit within address byte.
 305:Generated_Source\PSoC4/I2C_I2C_MASTER.c **** *  - I2C_I2C_WRITE_XFER_MODE - Set write direction for the 
 306:Generated_Source\PSoC4/I2C_I2C_MASTER.c **** *    following transfer.
 307:Generated_Source\PSoC4/I2C_I2C_MASTER.c **** *  - I2C_I2C_READ_XFER_MODE - Set read direction for the 
 308:Generated_Source\PSoC4/I2C_I2C_MASTER.c **** *    following transfer.
 309:Generated_Source\PSoC4/I2C_I2C_MASTER.c **** *
 310:Generated_Source\PSoC4/I2C_I2C_MASTER.c **** * \return
 311:Generated_Source\PSoC4/I2C_I2C_MASTER.c **** *  Error status.
 312:Generated_Source\PSoC4/I2C_I2C_MASTER.c **** *   - I2C_I2C_MSTR_NO_ERROR - Function complete without error.
 313:Generated_Source\PSoC4/I2C_I2C_MASTER.c **** *   - I2C_I2C_MSTR_BUS_BUSY - Bus is busy. 
 314:Generated_Source\PSoC4/I2C_I2C_MASTER.c **** *     Nothing was sent on the bus. The attempt has to be retried.
 315:Generated_Source\PSoC4/I2C_I2C_MASTER.c **** *   - I2C_I2C_MSTR_NOT_READY - Master is not ready for to 
ARM GAS  C:\Users\Greg\AppData\Local\Temp\cc742Y6h.s 			page 7


 316:Generated_Source\PSoC4/I2C_I2C_MASTER.c **** *     start transfer.
 317:Generated_Source\PSoC4/I2C_I2C_MASTER.c **** *     A master still has not completed previous transaction or a slave 
 318:Generated_Source\PSoC4/I2C_I2C_MASTER.c **** *     operation is in progress (in multi-master-slave configuration).
 319:Generated_Source\PSoC4/I2C_I2C_MASTER.c **** *     Nothing was sent on the bus. The attempt has to be retried.
 320:Generated_Source\PSoC4/I2C_I2C_MASTER.c **** *   - I2C_I2C_MSTR_ERR_LB_NAK - Error condition: Last byte was 
 321:Generated_Source\PSoC4/I2C_I2C_MASTER.c **** *     NAKed.
 322:Generated_Source\PSoC4/I2C_I2C_MASTER.c **** *   - I2C_I2C_MSTR_ERR_ARB_LOST - Error condition: Master lost 
 323:Generated_Source\PSoC4/I2C_I2C_MASTER.c **** *     arbitration.
 324:Generated_Source\PSoC4/I2C_I2C_MASTER.c **** *   - I2C_I2C_MSTR_ERR_BUS_ERR - Error condition: Master 
 325:Generated_Source\PSoC4/I2C_I2C_MASTER.c **** *     encountered a bus error. Bus error is misplaced start or stop detection.
 326:Generated_Source\PSoC4/I2C_I2C_MASTER.c **** *   - I2C_I2C_MSTR_ERR_ABORT_START - Error condition: The start 
 327:Generated_Source\PSoC4/I2C_I2C_MASTER.c **** *     condition generation was aborted due to beginning of Slave operation. 
 328:Generated_Source\PSoC4/I2C_I2C_MASTER.c **** *     This error condition is only applicable for Multi-Master-Slave mode.
 329:Generated_Source\PSoC4/I2C_I2C_MASTER.c **** *
 330:Generated_Source\PSoC4/I2C_I2C_MASTER.c **** * \globalvars
 331:Generated_Source\PSoC4/I2C_I2C_MASTER.c **** *  I2C_state - used to store current state of software FSM.
 332:Generated_Source\PSoC4/I2C_I2C_MASTER.c **** *
 333:Generated_Source\PSoC4/I2C_I2C_MASTER.c **** *******************************************************************************/
 334:Generated_Source\PSoC4/I2C_I2C_MASTER.c **** uint32 I2C_I2CMasterSendStart(uint32 slaveAddress, uint32 bitRnW)
 335:Generated_Source\PSoC4/I2C_I2C_MASTER.c **** {
  28              		.loc 1 335 0
  29              		.cfi_startproc
  30              		@ args = 0, pretend = 0, frame = 0
  31              		@ frame_needed = 0, uses_anonymous_args = 0
  32              	.LVL0:
  33 0000 F8B5     		push	{r3, r4, r5, r6, r7, lr}
  34              		.cfi_def_cfa_offset 24
  35              		.cfi_offset 3, -24
  36              		.cfi_offset 4, -20
  37              		.cfi_offset 5, -16
  38              		.cfi_offset 6, -12
  39              		.cfi_offset 7, -8
  40              		.cfi_offset 14, -4
 336:Generated_Source\PSoC4/I2C_I2C_MASTER.c ****     uint32  resetIp;
 337:Generated_Source\PSoC4/I2C_I2C_MASTER.c ****     uint32 errStatus;
 338:Generated_Source\PSoC4/I2C_I2C_MASTER.c **** 
 339:Generated_Source\PSoC4/I2C_I2C_MASTER.c ****     resetIp   = 0u;
 340:Generated_Source\PSoC4/I2C_I2C_MASTER.c ****     errStatus = I2C_I2C_MSTR_NOT_READY;
 341:Generated_Source\PSoC4/I2C_I2C_MASTER.c **** 
 342:Generated_Source\PSoC4/I2C_I2C_MASTER.c ****     /* Check FSM state before generating Start condition */
 343:Generated_Source\PSoC4/I2C_I2C_MASTER.c ****     if(I2C_CHECK_I2C_FSM_IDLE)
  41              		.loc 1 343 0
  42 0002 264C     		ldr	r4, .L18
 335:Generated_Source\PSoC4/I2C_I2C_MASTER.c ****     uint32  resetIp;
  43              		.loc 1 335 0
  44 0004 0500     		movs	r5, r0
  45              		.loc 1 343 0
  46 0006 2378     		ldrb	r3, [r4]
 335:Generated_Source\PSoC4/I2C_I2C_MASTER.c ****     uint32  resetIp;
  47              		.loc 1 335 0
  48 0008 0F00     		movs	r7, r1
 340:Generated_Source\PSoC4/I2C_I2C_MASTER.c **** 
  49              		.loc 1 340 0
  50 000a 0420     		movs	r0, #4
  51              	.LVL1:
  52              		.loc 1 343 0
  53 000c 102B     		cmp	r3, #16
ARM GAS  C:\Users\Greg\AppData\Local\Temp\cc742Y6h.s 			page 8


  54 000e 44D1     		bne	.L2
 344:Generated_Source\PSoC4/I2C_I2C_MASTER.c ****     {
 345:Generated_Source\PSoC4/I2C_I2C_MASTER.c ****         /* If bus is free, generate Start condition */
 346:Generated_Source\PSoC4/I2C_I2C_MASTER.c ****         if(I2C_CHECK_I2C_STATUS(I2C_I2C_STATUS_BUS_BUSY))
  55              		.loc 1 346 0
  56 0010 0126     		movs	r6, #1
  57 0012 234B     		ldr	r3, .L18+4
 347:Generated_Source\PSoC4/I2C_I2C_MASTER.c ****         {
 348:Generated_Source\PSoC4/I2C_I2C_MASTER.c ****             errStatus = I2C_I2C_MSTR_BUS_BUSY;
  58              		.loc 1 348 0
  59 0014 0018     		adds	r0, r0, r0
 346:Generated_Source\PSoC4/I2C_I2C_MASTER.c ****         {
  60              		.loc 1 346 0
  61 0016 1B68     		ldr	r3, [r3]
  62 0018 3342     		tst	r3, r6
  63 001a 3ED1     		bne	.L2
 349:Generated_Source\PSoC4/I2C_I2C_MASTER.c ****         }
 350:Generated_Source\PSoC4/I2C_I2C_MASTER.c ****         else
 351:Generated_Source\PSoC4/I2C_I2C_MASTER.c ****         {
 352:Generated_Source\PSoC4/I2C_I2C_MASTER.c ****             I2C_DisableInt();  /* Lock from interruption */
  64              		.loc 1 352 0
  65 001c FFF7FEFF 		bl	CyIntDisable
  66              	.LVL2:
 353:Generated_Source\PSoC4/I2C_I2C_MASTER.c **** 
 354:Generated_Source\PSoC4/I2C_I2C_MASTER.c ****         #if (!I2C_CY_SCBIP_V0 && \
 355:Generated_Source\PSoC4/I2C_I2C_MASTER.c ****             I2C_I2C_MULTI_MASTER_SLAVE_CONST && I2C_I2C_WAKE_ENABLE_CONST)
 356:Generated_Source\PSoC4/I2C_I2C_MASTER.c ****             I2C_I2CMasterDisableEcAm();
 357:Generated_Source\PSoC4/I2C_I2C_MASTER.c ****         #endif /* (!I2C_CY_SCBIP_V0) */
 358:Generated_Source\PSoC4/I2C_I2C_MASTER.c **** 
 359:Generated_Source\PSoC4/I2C_I2C_MASTER.c ****             slaveAddress = I2C_GET_I2C_8BIT_ADDRESS(slaveAddress);
  67              		.loc 1 359 0
  68 0020 B540     		lsls	r5, r5, r6
  69              	.LVL3:
  70 0022 FF23     		movs	r3, #255
  71 0024 1D40     		ands	r5, r3
  72              	.LVL4:
 360:Generated_Source\PSoC4/I2C_I2C_MASTER.c **** 
 361:Generated_Source\PSoC4/I2C_I2C_MASTER.c ****             if(0u == bitRnW) /* Write direction */
  73              		.loc 1 361 0
  74 0026 002F     		cmp	r7, #0
  75 0028 02D1     		bne	.L3
 362:Generated_Source\PSoC4/I2C_I2C_MASTER.c ****             {
 363:Generated_Source\PSoC4/I2C_I2C_MASTER.c ****                 I2C_state = I2C_I2C_FSM_MSTR_WR_DATA;
  76              		.loc 1 363 0
  77 002a DB3B     		subs	r3, r3, #219
  78 002c 2370     		strb	r3, [r4]
  79 002e 02E0     		b	.L4
  80              	.L3:
 364:Generated_Source\PSoC4/I2C_I2C_MASTER.c ****             }
 365:Generated_Source\PSoC4/I2C_I2C_MASTER.c ****             else /* Read direction */
 366:Generated_Source\PSoC4/I2C_I2C_MASTER.c ****             {
 367:Generated_Source\PSoC4/I2C_I2C_MASTER.c ****                 I2C_state = I2C_I2C_FSM_MSTR_RD_DATA;
  81              		.loc 1 367 0
  82 0030 2523     		movs	r3, #37
 368:Generated_Source\PSoC4/I2C_I2C_MASTER.c ****                          slaveAddress |= I2C_I2C_READ_FLAG;
  83              		.loc 1 368 0
  84 0032 3543     		orrs	r5, r6
ARM GAS  C:\Users\Greg\AppData\Local\Temp\cc742Y6h.s 			page 9


  85              	.LVL5:
 367:Generated_Source\PSoC4/I2C_I2C_MASTER.c ****                          slaveAddress |= I2C_I2C_READ_FLAG;
  86              		.loc 1 367 0
  87 0034 2370     		strb	r3, [r4]
  88              	.L4:
 369:Generated_Source\PSoC4/I2C_I2C_MASTER.c ****             }
 370:Generated_Source\PSoC4/I2C_I2C_MASTER.c **** 
 371:Generated_Source\PSoC4/I2C_I2C_MASTER.c ****             /* TX and RX FIFO have to be EMPTY */
 372:Generated_Source\PSoC4/I2C_I2C_MASTER.c **** 
 373:Generated_Source\PSoC4/I2C_I2C_MASTER.c ****             I2C_TX_FIFO_WR_REG = slaveAddress; /* Put address in TX FIFO */
 374:Generated_Source\PSoC4/I2C_I2C_MASTER.c ****             I2C_ClearMasterInterruptSource(I2C_INTR_MASTER_ALL);
 375:Generated_Source\PSoC4/I2C_I2C_MASTER.c **** 
 376:Generated_Source\PSoC4/I2C_I2C_MASTER.c ****             I2C_I2C_MASTER_GENERATE_START;
  89              		.loc 1 376 0
  90 0036 0221     		movs	r1, #2
 373:Generated_Source\PSoC4/I2C_I2C_MASTER.c ****             I2C_ClearMasterInterruptSource(I2C_INTR_MASTER_ALL);
  91              		.loc 1 373 0
  92 0038 1A4B     		ldr	r3, .L18+8
 374:Generated_Source\PSoC4/I2C_I2C_MASTER.c **** 
  93              		.loc 1 374 0
  94 003a 1B4A     		ldr	r2, .L18+12
 373:Generated_Source\PSoC4/I2C_I2C_MASTER.c ****             I2C_ClearMasterInterruptSource(I2C_INTR_MASTER_ALL);
  95              		.loc 1 373 0
  96 003c 1D60     		str	r5, [r3]
 374:Generated_Source\PSoC4/I2C_I2C_MASTER.c **** 
  97              		.loc 1 374 0
  98 003e 1B4B     		ldr	r3, .L18+16
  99 0040 1360     		str	r3, [r2]
 100              		.loc 1 376 0
 101 0042 1B4B     		ldr	r3, .L18+20
 102 0044 1960     		str	r1, [r3]
 377:Generated_Source\PSoC4/I2C_I2C_MASTER.c **** 
 378:Generated_Source\PSoC4/I2C_I2C_MASTER.c **** 
 379:Generated_Source\PSoC4/I2C_I2C_MASTER.c ****             while(!I2C_CHECK_INTR_MASTER(I2C_INTR_MASTER_I2C_ACK      |
 103              		.loc 1 379 0
 104 0046 0823     		movs	r3, #8
 105 0048 FF33     		adds	r3, r3, #255
 106              	.L5:
 107              		.loc 1 379 0 is_stmt 0 discriminator 1
 108 004a 1068     		ldr	r0, [r2]
 109 004c 1649     		ldr	r1, .L18+12
 110 004e 1842     		tst	r0, r3
 111 0050 FBD0     		beq	.L5
 380:Generated_Source\PSoC4/I2C_I2C_MASTER.c ****                                                       I2C_INTR_MASTER_I2C_NACK     |
 381:Generated_Source\PSoC4/I2C_I2C_MASTER.c ****                                                       I2C_INTR_MASTER_I2C_ARB_LOST |
 382:Generated_Source\PSoC4/I2C_I2C_MASTER.c ****                                                       I2C_INTR_MASTER_I2C_BUS_ERROR))
 383:Generated_Source\PSoC4/I2C_I2C_MASTER.c ****             {
 384:Generated_Source\PSoC4/I2C_I2C_MASTER.c ****                 /*
 385:Generated_Source\PSoC4/I2C_I2C_MASTER.c ****                 * Write: wait until address has been transferred
 386:Generated_Source\PSoC4/I2C_I2C_MASTER.c ****                 * Read : wait until address has been transferred, data byte is going to RX FIFO as 
 387:Generated_Source\PSoC4/I2C_I2C_MASTER.c ****                 */
 388:Generated_Source\PSoC4/I2C_I2C_MASTER.c ****             }
 389:Generated_Source\PSoC4/I2C_I2C_MASTER.c **** 
 390:Generated_Source\PSoC4/I2C_I2C_MASTER.c ****             /* Check the results of the address phase */
 391:Generated_Source\PSoC4/I2C_I2C_MASTER.c ****             if(I2C_CHECK_INTR_MASTER(I2C_INTR_MASTER_I2C_ACK))
 112              		.loc 1 391 0 is_stmt 1
 113 0052 0423     		movs	r3, #4
ARM GAS  C:\Users\Greg\AppData\Local\Temp\cc742Y6h.s 			page 10


 114 0054 0868     		ldr	r0, [r1]
 115 0056 0340     		ands	r3, r0
 116 0058 0ED1     		bne	.L10
 392:Generated_Source\PSoC4/I2C_I2C_MASTER.c ****             {
 393:Generated_Source\PSoC4/I2C_I2C_MASTER.c ****                 errStatus = I2C_I2C_MSTR_NO_ERROR;
 394:Generated_Source\PSoC4/I2C_I2C_MASTER.c ****             }
 395:Generated_Source\PSoC4/I2C_I2C_MASTER.c ****             else if(I2C_CHECK_INTR_MASTER(I2C_INTR_MASTER_I2C_NACK))
 117              		.loc 1 395 0
 118 005a 0220     		movs	r0, #2
 119 005c 0D68     		ldr	r5, [r1]
 120              	.LVL6:
 121 005e 0542     		tst	r5, r0
 122 0060 0CD1     		bne	.L6
 396:Generated_Source\PSoC4/I2C_I2C_MASTER.c ****             {
 397:Generated_Source\PSoC4/I2C_I2C_MASTER.c ****                 errStatus = I2C_I2C_MSTR_ERR_LB_NAK;
 398:Generated_Source\PSoC4/I2C_I2C_MASTER.c ****             }
 399:Generated_Source\PSoC4/I2C_I2C_MASTER.c ****             else if(I2C_CHECK_INTR_MASTER(I2C_INTR_MASTER_I2C_ARB_LOST))
 123              		.loc 1 399 0
 124 0062 0868     		ldr	r0, [r1]
 125 0064 1021     		movs	r1, #16
 126 0066 0133     		adds	r3, r3, #1
 400:Generated_Source\PSoC4/I2C_I2C_MASTER.c ****             {
 401:Generated_Source\PSoC4/I2C_I2C_MASTER.c ****                 I2C_state = I2C_I2C_FSM_IDLE;
 127              		.loc 1 401 0
 128 0068 2170     		strb	r1, [r4]
 399:Generated_Source\PSoC4/I2C_I2C_MASTER.c ****             {
 129              		.loc 1 399 0
 130 006a 1842     		tst	r0, r3
 131 006c 01D0     		beq	.L7
 132              	.LVL7:
 402:Generated_Source\PSoC4/I2C_I2C_MASTER.c ****                              errStatus = I2C_I2C_MSTR_ERR_ARB_LOST;
 133              		.loc 1 402 0
 134 006e 1800     		movs	r0, r3
 135 0070 04E0     		b	.L6
 136              	.LVL8:
 137              	.L7:
 403:Generated_Source\PSoC4/I2C_I2C_MASTER.c ****                              resetIp   = I2C_I2C_RESET_ERROR;
 404:Generated_Source\PSoC4/I2C_I2C_MASTER.c ****             }
 405:Generated_Source\PSoC4/I2C_I2C_MASTER.c ****             else /* I2C_INTR_MASTER_I2C_BUS_ERROR set is else condition */
 406:Generated_Source\PSoC4/I2C_I2C_MASTER.c ****             {
 407:Generated_Source\PSoC4/I2C_I2C_MASTER.c ****                 I2C_state = I2C_I2C_FSM_IDLE;
 408:Generated_Source\PSoC4/I2C_I2C_MASTER.c ****                              errStatus = I2C_I2C_MSTR_ERR_BUS_ERR;
 138              		.loc 1 408 0
 139 0072 8020     		movs	r0, #128
 140 0074 4000     		lsls	r0, r0, #1
 141 0076 01E0     		b	.L6
 142              	.LVL9:
 143              	.L10:
 393:Generated_Source\PSoC4/I2C_I2C_MASTER.c ****             }
 144              		.loc 1 393 0
 145 0078 0020     		movs	r0, #0
 339:Generated_Source\PSoC4/I2C_I2C_MASTER.c ****     errStatus = I2C_I2C_MSTR_NOT_READY;
 146              		.loc 1 339 0
 147 007a 0300     		movs	r3, r0
 148              	.LVL10:
 149              	.L6:
 409:Generated_Source\PSoC4/I2C_I2C_MASTER.c ****                              resetIp   = I2C_I2C_RESET_ERROR;
ARM GAS  C:\Users\Greg\AppData\Local\Temp\cc742Y6h.s 			page 11


 410:Generated_Source\PSoC4/I2C_I2C_MASTER.c ****             }
 411:Generated_Source\PSoC4/I2C_I2C_MASTER.c **** 
 412:Generated_Source\PSoC4/I2C_I2C_MASTER.c ****             I2C_ClearMasterInterruptSource(I2C_INTR_MASTER_I2C_ACK      |
 150              		.loc 1 412 0
 151 007c 0821     		movs	r1, #8
 152 007e FF31     		adds	r1, r1, #255
 153 0080 1160     		str	r1, [r2]
 413:Generated_Source\PSoC4/I2C_I2C_MASTER.c ****                                                         I2C_INTR_MASTER_I2C_NACK     |
 414:Generated_Source\PSoC4/I2C_I2C_MASTER.c ****                                                         I2C_INTR_MASTER_I2C_ARB_LOST |
 415:Generated_Source\PSoC4/I2C_I2C_MASTER.c ****                                                         I2C_INTR_MASTER_I2C_BUS_ERROR);
 416:Generated_Source\PSoC4/I2C_I2C_MASTER.c **** 
 417:Generated_Source\PSoC4/I2C_I2C_MASTER.c ****             /* Reset block in case of: LOST_ARB or BUS_ERR */
 418:Generated_Source\PSoC4/I2C_I2C_MASTER.c ****             if(0u != resetIp)
 154              		.loc 1 418 0
 155 0082 002B     		cmp	r3, #0
 156 0084 09D0     		beq	.L2
 419:Generated_Source\PSoC4/I2C_I2C_MASTER.c ****             {
 420:Generated_Source\PSoC4/I2C_I2C_MASTER.c ****                 I2C_SCB_SW_RESET;
 157              		.loc 1 420 0
 158 0086 8021     		movs	r1, #128
 159 0088 0A4A     		ldr	r2, .L18+24
 160 008a 0906     		lsls	r1, r1, #24
 161 008c 1368     		ldr	r3, [r2]
 162 008e 5B00     		lsls	r3, r3, #1
 163 0090 5B08     		lsrs	r3, r3, #1
 164 0092 1360     		str	r3, [r2]
 165 0094 1368     		ldr	r3, [r2]
 166 0096 0B43     		orrs	r3, r1
 167 0098 1360     		str	r3, [r2]
 168              	.LVL11:
 169              	.L2:
 421:Generated_Source\PSoC4/I2C_I2C_MASTER.c ****             }
 422:Generated_Source\PSoC4/I2C_I2C_MASTER.c ****         }
 423:Generated_Source\PSoC4/I2C_I2C_MASTER.c ****     }
 424:Generated_Source\PSoC4/I2C_I2C_MASTER.c **** 
 425:Generated_Source\PSoC4/I2C_I2C_MASTER.c ****     return(errStatus);
 426:Generated_Source\PSoC4/I2C_I2C_MASTER.c **** }
 170              		.loc 1 426 0
 171              		@ sp needed
 172              	.LVL12:
 173 009a F8BD     		pop	{r3, r4, r5, r6, r7, pc}
 174              	.L19:
 175              		.align	2
 176              	.L18:
 177 009c 00000000 		.word	I2C_state
 178 00a0 64002440 		.word	1076101220
 179 00a4 40022440 		.word	1076101696
 180 00a8 000F2440 		.word	1076104960
 181 00ac 17030000 		.word	791
 182 00b0 68002440 		.word	1076101224
 183 00b4 00002440 		.word	1076101120
 184              		.cfi_endproc
 185              	.LFE3:
 186              		.size	I2C_I2CMasterSendStart, .-I2C_I2CMasterSendStart
 187              		.section	.text.I2C_I2CMasterSendStop,"ax",%progbits
 188              		.align	1
 189              		.global	I2C_I2CMasterSendStop
ARM GAS  C:\Users\Greg\AppData\Local\Temp\cc742Y6h.s 			page 12


 190              		.code	16
 191              		.thumb_func
 192              		.type	I2C_I2CMasterSendStop, %function
 193              	I2C_I2CMasterSendStop:
 194              	.LFB5:
 427:Generated_Source\PSoC4/I2C_I2C_MASTER.c **** 
 428:Generated_Source\PSoC4/I2C_I2C_MASTER.c **** 
 429:Generated_Source\PSoC4/I2C_I2C_MASTER.c **** /*******************************************************************************
 430:Generated_Source\PSoC4/I2C_I2C_MASTER.c **** * Function Name: I2C_I2CMasterSendRestart
 431:Generated_Source\PSoC4/I2C_I2C_MASTER.c **** ****************************************************************************//**
 432:Generated_Source\PSoC4/I2C_I2C_MASTER.c **** *
 433:Generated_Source\PSoC4/I2C_I2C_MASTER.c **** *  Generates Restart condition and sends slave address with read/write bit.
 434:Generated_Source\PSoC4/I2C_I2C_MASTER.c **** *  This function is blocking and does not return until start condition and
 435:Generated_Source\PSoC4/I2C_I2C_MASTER.c **** *  address are sent and ACK/NACK response is received or errors occurred.
 436:Generated_Source\PSoC4/I2C_I2C_MASTER.c **** *
 437:Generated_Source\PSoC4/I2C_I2C_MASTER.c **** * \param slaveAddress: Right justified 7-bit Slave address (valid range 
 438:Generated_Source\PSoC4/I2C_I2C_MASTER.c **** *   8 to 120).
 439:Generated_Source\PSoC4/I2C_I2C_MASTER.c **** * \param bitRnW: Direction of the following transfer. It is defined by 
 440:Generated_Source\PSoC4/I2C_I2C_MASTER.c **** *  read/write bit within address byte. 
 441:Generated_Source\PSoC4/I2C_I2C_MASTER.c **** *  See I2C_I2CMasterSendStart() function for constants.
 442:Generated_Source\PSoC4/I2C_I2C_MASTER.c **** *
 443:Generated_Source\PSoC4/I2C_I2C_MASTER.c **** * \return
 444:Generated_Source\PSoC4/I2C_I2C_MASTER.c **** *  Error status. 
 445:Generated_Source\PSoC4/I2C_I2C_MASTER.c **** *  See I2C_I2CMasterSendStart() function for constants.
 446:Generated_Source\PSoC4/I2C_I2C_MASTER.c **** *
 447:Generated_Source\PSoC4/I2C_I2C_MASTER.c **** * \sideeffect
 448:Generated_Source\PSoC4/I2C_I2C_MASTER.c **** *  A valid Start or ReStart condition must be generated before calling 
 449:Generated_Source\PSoC4/I2C_I2C_MASTER.c **** *  this function. This function does nothing if Start or ReStart conditions 
 450:Generated_Source\PSoC4/I2C_I2C_MASTER.c **** *  failed before this function was called.
 451:Generated_Source\PSoC4/I2C_I2C_MASTER.c **** *  For read transaction, at least one byte has to be read before ReStart 
 452:Generated_Source\PSoC4/I2C_I2C_MASTER.c **** *  generation.
 453:Generated_Source\PSoC4/I2C_I2C_MASTER.c **** *
 454:Generated_Source\PSoC4/I2C_I2C_MASTER.c **** * \globalvars
 455:Generated_Source\PSoC4/I2C_I2C_MASTER.c **** *  I2C_state - used to store current state of software FSM.
 456:Generated_Source\PSoC4/I2C_I2C_MASTER.c **** *
 457:Generated_Source\PSoC4/I2C_I2C_MASTER.c **** *******************************************************************************/
 458:Generated_Source\PSoC4/I2C_I2C_MASTER.c **** uint32 I2C_I2CMasterSendRestart(uint32 slaveAddress, uint32 bitRnW)
 459:Generated_Source\PSoC4/I2C_I2C_MASTER.c **** {
 460:Generated_Source\PSoC4/I2C_I2C_MASTER.c ****     uint32 resetIp;
 461:Generated_Source\PSoC4/I2C_I2C_MASTER.c ****     uint32 errStatus;
 462:Generated_Source\PSoC4/I2C_I2C_MASTER.c **** 
 463:Generated_Source\PSoC4/I2C_I2C_MASTER.c ****     resetIp   = 0u;
 464:Generated_Source\PSoC4/I2C_I2C_MASTER.c ****     errStatus = I2C_I2C_MSTR_NOT_READY;
 465:Generated_Source\PSoC4/I2C_I2C_MASTER.c **** 
 466:Generated_Source\PSoC4/I2C_I2C_MASTER.c ****     /* Check FSM state before generating ReStart condition */
 467:Generated_Source\PSoC4/I2C_I2C_MASTER.c ****     if(I2C_CHECK_I2C_MASTER_ACTIVE)
 468:Generated_Source\PSoC4/I2C_I2C_MASTER.c ****     {
 469:Generated_Source\PSoC4/I2C_I2C_MASTER.c ****         slaveAddress = I2C_GET_I2C_8BIT_ADDRESS(slaveAddress);
 470:Generated_Source\PSoC4/I2C_I2C_MASTER.c **** 
 471:Generated_Source\PSoC4/I2C_I2C_MASTER.c ****         if(0u == bitRnW) /* Write direction */
 472:Generated_Source\PSoC4/I2C_I2C_MASTER.c ****         {
 473:Generated_Source\PSoC4/I2C_I2C_MASTER.c ****             I2C_state = I2C_I2C_FSM_MSTR_WR_DATA;
 474:Generated_Source\PSoC4/I2C_I2C_MASTER.c ****         }
 475:Generated_Source\PSoC4/I2C_I2C_MASTER.c ****         else  /* Read direction */
 476:Generated_Source\PSoC4/I2C_I2C_MASTER.c ****         {
 477:Generated_Source\PSoC4/I2C_I2C_MASTER.c ****             I2C_state  = I2C_I2C_FSM_MSTR_RD_DATA;
 478:Generated_Source\PSoC4/I2C_I2C_MASTER.c ****                       slaveAddress |= I2C_I2C_READ_FLAG;
ARM GAS  C:\Users\Greg\AppData\Local\Temp\cc742Y6h.s 			page 13


 479:Generated_Source\PSoC4/I2C_I2C_MASTER.c ****         }
 480:Generated_Source\PSoC4/I2C_I2C_MASTER.c **** 
 481:Generated_Source\PSoC4/I2C_I2C_MASTER.c ****         /* TX and RX FIFO have to be EMPTY */
 482:Generated_Source\PSoC4/I2C_I2C_MASTER.c **** 
 483:Generated_Source\PSoC4/I2C_I2C_MASTER.c ****         /* Clean-up interrupt status */
 484:Generated_Source\PSoC4/I2C_I2C_MASTER.c ****         I2C_ClearMasterInterruptSource(I2C_INTR_MASTER_ALL);
 485:Generated_Source\PSoC4/I2C_I2C_MASTER.c **** 
 486:Generated_Source\PSoC4/I2C_I2C_MASTER.c ****         /* A proper ReStart sequence is: generate ReStart, then put an address byte in the TX FIFO.
 487:Generated_Source\PSoC4/I2C_I2C_MASTER.c ****         * Otherwise the master treats the address in the TX FIFO as a data byte if a previous trans
 488:Generated_Source\PSoC4/I2C_I2C_MASTER.c ****         * The write transfer continues instead of ReStart.
 489:Generated_Source\PSoC4/I2C_I2C_MASTER.c ****         */
 490:Generated_Source\PSoC4/I2C_I2C_MASTER.c ****         I2C_I2C_MASTER_GENERATE_RESTART;
 491:Generated_Source\PSoC4/I2C_I2C_MASTER.c **** 
 492:Generated_Source\PSoC4/I2C_I2C_MASTER.c ****         while(I2C_CHECK_I2C_MASTER_CMD(I2C_I2C_MASTER_CMD_M_START))
 493:Generated_Source\PSoC4/I2C_I2C_MASTER.c ****         {
 494:Generated_Source\PSoC4/I2C_I2C_MASTER.c ****             /* Wait until ReStart has been generated */
 495:Generated_Source\PSoC4/I2C_I2C_MASTER.c ****         }
 496:Generated_Source\PSoC4/I2C_I2C_MASTER.c **** 
 497:Generated_Source\PSoC4/I2C_I2C_MASTER.c ****         /* Put address into TX FIFO */
 498:Generated_Source\PSoC4/I2C_I2C_MASTER.c ****         I2C_TX_FIFO_WR_REG = slaveAddress;
 499:Generated_Source\PSoC4/I2C_I2C_MASTER.c **** 
 500:Generated_Source\PSoC4/I2C_I2C_MASTER.c ****         /* Wait for address to be transferred */
 501:Generated_Source\PSoC4/I2C_I2C_MASTER.c ****         while(!I2C_CHECK_INTR_MASTER(I2C_INTR_MASTER_I2C_ACK      |
 502:Generated_Source\PSoC4/I2C_I2C_MASTER.c ****                                                   I2C_INTR_MASTER_I2C_NACK     |
 503:Generated_Source\PSoC4/I2C_I2C_MASTER.c ****                                                   I2C_INTR_MASTER_I2C_ARB_LOST |
 504:Generated_Source\PSoC4/I2C_I2C_MASTER.c ****                                                   I2C_INTR_MASTER_I2C_BUS_ERROR))
 505:Generated_Source\PSoC4/I2C_I2C_MASTER.c ****         {
 506:Generated_Source\PSoC4/I2C_I2C_MASTER.c ****             /* Wait until address has been transferred */
 507:Generated_Source\PSoC4/I2C_I2C_MASTER.c ****         }
 508:Generated_Source\PSoC4/I2C_I2C_MASTER.c **** 
 509:Generated_Source\PSoC4/I2C_I2C_MASTER.c ****         /* Check results of address phase */
 510:Generated_Source\PSoC4/I2C_I2C_MASTER.c ****         if(I2C_CHECK_INTR_MASTER(I2C_INTR_MASTER_I2C_ACK))
 511:Generated_Source\PSoC4/I2C_I2C_MASTER.c ****         {
 512:Generated_Source\PSoC4/I2C_I2C_MASTER.c ****             errStatus = I2C_I2C_MSTR_NO_ERROR;
 513:Generated_Source\PSoC4/I2C_I2C_MASTER.c ****         }
 514:Generated_Source\PSoC4/I2C_I2C_MASTER.c ****         else if(I2C_CHECK_INTR_MASTER(I2C_INTR_MASTER_I2C_NACK))
 515:Generated_Source\PSoC4/I2C_I2C_MASTER.c ****         {
 516:Generated_Source\PSoC4/I2C_I2C_MASTER.c ****              errStatus = I2C_I2C_MSTR_ERR_LB_NAK;
 517:Generated_Source\PSoC4/I2C_I2C_MASTER.c ****         }
 518:Generated_Source\PSoC4/I2C_I2C_MASTER.c ****         else if(I2C_CHECK_INTR_MASTER(I2C_INTR_MASTER_I2C_ARB_LOST))
 519:Generated_Source\PSoC4/I2C_I2C_MASTER.c ****         {
 520:Generated_Source\PSoC4/I2C_I2C_MASTER.c ****             I2C_state = I2C_I2C_FSM_IDLE;
 521:Generated_Source\PSoC4/I2C_I2C_MASTER.c ****                          errStatus = I2C_I2C_MSTR_ERR_ARB_LOST;
 522:Generated_Source\PSoC4/I2C_I2C_MASTER.c ****                          resetIp   = I2C_I2C_RESET_ERROR;
 523:Generated_Source\PSoC4/I2C_I2C_MASTER.c ****         }
 524:Generated_Source\PSoC4/I2C_I2C_MASTER.c ****         else /* I2C_INTR_MASTER_I2C_BUS_ERROR set is else condition */
 525:Generated_Source\PSoC4/I2C_I2C_MASTER.c ****         {
 526:Generated_Source\PSoC4/I2C_I2C_MASTER.c ****             I2C_state = I2C_I2C_FSM_IDLE;
 527:Generated_Source\PSoC4/I2C_I2C_MASTER.c ****                          errStatus = I2C_I2C_MSTR_ERR_BUS_ERR;
 528:Generated_Source\PSoC4/I2C_I2C_MASTER.c ****                          resetIp   = I2C_I2C_RESET_ERROR;
 529:Generated_Source\PSoC4/I2C_I2C_MASTER.c ****         }
 530:Generated_Source\PSoC4/I2C_I2C_MASTER.c **** 
 531:Generated_Source\PSoC4/I2C_I2C_MASTER.c ****         I2C_ClearMasterInterruptSource(I2C_INTR_MASTER_I2C_ACK      |
 532:Generated_Source\PSoC4/I2C_I2C_MASTER.c ****                                                     I2C_INTR_MASTER_I2C_NACK     |
 533:Generated_Source\PSoC4/I2C_I2C_MASTER.c ****                                                     I2C_INTR_MASTER_I2C_ARB_LOST |
 534:Generated_Source\PSoC4/I2C_I2C_MASTER.c ****                                                     I2C_INTR_MASTER_I2C_BUS_ERROR);
 535:Generated_Source\PSoC4/I2C_I2C_MASTER.c **** 
ARM GAS  C:\Users\Greg\AppData\Local\Temp\cc742Y6h.s 			page 14


 536:Generated_Source\PSoC4/I2C_I2C_MASTER.c ****         /* Reset block in case of: LOST_ARB or BUS_ERR */
 537:Generated_Source\PSoC4/I2C_I2C_MASTER.c ****         if(0u != resetIp)
 538:Generated_Source\PSoC4/I2C_I2C_MASTER.c ****         {
 539:Generated_Source\PSoC4/I2C_I2C_MASTER.c ****             I2C_SCB_SW_RESET;
 540:Generated_Source\PSoC4/I2C_I2C_MASTER.c ****         }
 541:Generated_Source\PSoC4/I2C_I2C_MASTER.c ****     }
 542:Generated_Source\PSoC4/I2C_I2C_MASTER.c **** 
 543:Generated_Source\PSoC4/I2C_I2C_MASTER.c ****     return(errStatus);
 544:Generated_Source\PSoC4/I2C_I2C_MASTER.c **** }
 545:Generated_Source\PSoC4/I2C_I2C_MASTER.c **** 
 546:Generated_Source\PSoC4/I2C_I2C_MASTER.c **** 
 547:Generated_Source\PSoC4/I2C_I2C_MASTER.c **** /*******************************************************************************
 548:Generated_Source\PSoC4/I2C_I2C_MASTER.c **** * Function Name: I2C_I2CMasterSendStop
 549:Generated_Source\PSoC4/I2C_I2C_MASTER.c **** ****************************************************************************//**
 550:Generated_Source\PSoC4/I2C_I2C_MASTER.c **** *
 551:Generated_Source\PSoC4/I2C_I2C_MASTER.c **** *  Generates Stop condition on the bus. 
 552:Generated_Source\PSoC4/I2C_I2C_MASTER.c **** *  The NAK is generated before Stop in case of a read transaction.
 553:Generated_Source\PSoC4/I2C_I2C_MASTER.c **** *  At least one byte has to be read if a Start or ReStart condition with read 
 554:Generated_Source\PSoC4/I2C_I2C_MASTER.c **** *  direction was generated before.
 555:Generated_Source\PSoC4/I2C_I2C_MASTER.c **** *  This function is blocking and does not return until a Stop condition is 
 556:Generated_Source\PSoC4/I2C_I2C_MASTER.c **** *  generated or error occurred.
 557:Generated_Source\PSoC4/I2C_I2C_MASTER.c **** *
 558:Generated_Source\PSoC4/I2C_I2C_MASTER.c **** * \return
 559:Generated_Source\PSoC4/I2C_I2C_MASTER.c **** *  Error status.
 560:Generated_Source\PSoC4/I2C_I2C_MASTER.c **** *  See I2C_I2CMasterSendStart() function for constants.
 561:Generated_Source\PSoC4/I2C_I2C_MASTER.c **** *
 562:Generated_Source\PSoC4/I2C_I2C_MASTER.c **** * \sideeffect
 563:Generated_Source\PSoC4/I2C_I2C_MASTER.c **** *  A valid Start or ReStart condition must be generated before calling 
 564:Generated_Source\PSoC4/I2C_I2C_MASTER.c **** *  this function. This function does nothing if Start or ReStart conditions 
 565:Generated_Source\PSoC4/I2C_I2C_MASTER.c **** *  failed before this function was called.
 566:Generated_Source\PSoC4/I2C_I2C_MASTER.c **** *  For read transaction, at least one byte has to be read before ReStart 
 567:Generated_Source\PSoC4/I2C_I2C_MASTER.c **** *  generation.
 568:Generated_Source\PSoC4/I2C_I2C_MASTER.c **** *
 569:Generated_Source\PSoC4/I2C_I2C_MASTER.c **** * \globalvars
 570:Generated_Source\PSoC4/I2C_I2C_MASTER.c **** *  I2C_state - used to store current state of software FSM.
 571:Generated_Source\PSoC4/I2C_I2C_MASTER.c **** *
 572:Generated_Source\PSoC4/I2C_I2C_MASTER.c **** *******************************************************************************/
 573:Generated_Source\PSoC4/I2C_I2C_MASTER.c **** uint32 I2C_I2CMasterSendStop(void)
 574:Generated_Source\PSoC4/I2C_I2C_MASTER.c **** {
 195              		.loc 1 574 0
 196              		.cfi_startproc
 197              		@ args = 0, pretend = 0, frame = 0
 198              		@ frame_needed = 0, uses_anonymous_args = 0
 199              	.LVL13:
 575:Generated_Source\PSoC4/I2C_I2C_MASTER.c ****     uint32 resetIp;
 576:Generated_Source\PSoC4/I2C_I2C_MASTER.c ****     uint32 errStatus;
 577:Generated_Source\PSoC4/I2C_I2C_MASTER.c **** 
 578:Generated_Source\PSoC4/I2C_I2C_MASTER.c ****     resetIp   = 0u;
 579:Generated_Source\PSoC4/I2C_I2C_MASTER.c ****     errStatus = I2C_I2C_MSTR_NOT_READY;
 580:Generated_Source\PSoC4/I2C_I2C_MASTER.c **** 
 581:Generated_Source\PSoC4/I2C_I2C_MASTER.c ****     /* Check FSM state before generating Stop condition */
 582:Generated_Source\PSoC4/I2C_I2C_MASTER.c ****     if(I2C_CHECK_I2C_MASTER_ACTIVE)
 200              		.loc 1 582 0
 201 0000 2022     		movs	r2, #32
 574:Generated_Source\PSoC4/I2C_I2C_MASTER.c ****     uint32 resetIp;
 202              		.loc 1 574 0
 203 0002 10B5     		push	{r4, lr}
ARM GAS  C:\Users\Greg\AppData\Local\Temp\cc742Y6h.s 			page 15


 204              		.cfi_def_cfa_offset 8
 205              		.cfi_offset 4, -8
 206              		.cfi_offset 14, -4
 207              		.loc 1 582 0
 208 0004 1A4B     		ldr	r3, .L36
 579:Generated_Source\PSoC4/I2C_I2C_MASTER.c **** 
 209              		.loc 1 579 0
 210 0006 0420     		movs	r0, #4
 211              		.loc 1 582 0
 212 0008 1C78     		ldrb	r4, [r3]
 213 000a 1900     		movs	r1, r3
 214 000c 1442     		tst	r4, r2
 215 000e 2DD0     		beq	.L21
 583:Generated_Source\PSoC4/I2C_I2C_MASTER.c ****     {
 584:Generated_Source\PSoC4/I2C_I2C_MASTER.c ****         /*
 585:Generated_Source\PSoC4/I2C_I2C_MASTER.c ****         * Write direction: generates Stop
 586:Generated_Source\PSoC4/I2C_I2C_MASTER.c ****         * Read  direction: generates NACK and Stop
 587:Generated_Source\PSoC4/I2C_I2C_MASTER.c ****         */
 588:Generated_Source\PSoC4/I2C_I2C_MASTER.c ****         I2C_I2C_MASTER_GENERATE_STOP;
 216              		.loc 1 588 0
 217 0010 184B     		ldr	r3, .L36+4
 218 0012 1868     		ldr	r0, [r3]
 219 0014 1823     		movs	r3, #24
 220 0016 1042     		tst	r0, r2
 221 0018 00D1     		bne	.L22
 222 001a 083B     		subs	r3, r3, #8
 223              	.L22:
 224              		.loc 1 588 0 is_stmt 0 discriminator 4
 225 001c 164A     		ldr	r2, .L36+8
 589:Generated_Source\PSoC4/I2C_I2C_MASTER.c **** 
 590:Generated_Source\PSoC4/I2C_I2C_MASTER.c ****         while(!I2C_CHECK_INTR_MASTER(I2C_INTR_MASTER_I2C_STOP     |
 226              		.loc 1 590 0 is_stmt 1 discriminator 4
 227 001e 174C     		ldr	r4, .L36+12
 588:Generated_Source\PSoC4/I2C_I2C_MASTER.c **** 
 228              		.loc 1 588 0 discriminator 4
 229 0020 1360     		str	r3, [r2]
 230              		.loc 1 590 0 discriminator 4
 231 0022 1223     		movs	r3, #18
 232 0024 FF33     		adds	r3, r3, #255
 233              	.L23:
 234              		.loc 1 590 0 is_stmt 0 discriminator 1
 235 0026 2068     		ldr	r0, [r4]
 236 0028 144A     		ldr	r2, .L36+12
 237 002a 1842     		tst	r0, r3
 238 002c FBD0     		beq	.L23
 591:Generated_Source\PSoC4/I2C_I2C_MASTER.c ****                                                   I2C_INTR_MASTER_I2C_ARB_LOST |
 592:Generated_Source\PSoC4/I2C_I2C_MASTER.c ****                                                   I2C_INTR_MASTER_I2C_BUS_ERROR))
 593:Generated_Source\PSoC4/I2C_I2C_MASTER.c ****         {
 594:Generated_Source\PSoC4/I2C_I2C_MASTER.c ****             /* Wait until Stop has been generated */
 595:Generated_Source\PSoC4/I2C_I2C_MASTER.c ****         }
 596:Generated_Source\PSoC4/I2C_I2C_MASTER.c **** 
 597:Generated_Source\PSoC4/I2C_I2C_MASTER.c ****         /* Check Stop generation */
 598:Generated_Source\PSoC4/I2C_I2C_MASTER.c ****         if(I2C_CHECK_INTR_MASTER(I2C_INTR_MASTER_I2C_STOP))
 239              		.loc 1 598 0 is_stmt 1
 240 002e 1368     		ldr	r3, [r2]
 241 0030 DB06     		lsls	r3, r3, #27
 242 0032 06D4     		bmi	.L27
ARM GAS  C:\Users\Greg\AppData\Local\Temp\cc742Y6h.s 			page 16


 599:Generated_Source\PSoC4/I2C_I2C_MASTER.c ****         {
 600:Generated_Source\PSoC4/I2C_I2C_MASTER.c ****             errStatus = I2C_I2C_MSTR_NO_ERROR;
 601:Generated_Source\PSoC4/I2C_I2C_MASTER.c ****         }
 602:Generated_Source\PSoC4/I2C_I2C_MASTER.c ****         else if(I2C_CHECK_INTR_MASTER(I2C_INTR_MASTER_I2C_ARB_LOST))
 243              		.loc 1 602 0
 244 0034 0123     		movs	r3, #1
 245 0036 1068     		ldr	r0, [r2]
 246 0038 1842     		tst	r0, r3
 247 003a 04D1     		bne	.L28
 603:Generated_Source\PSoC4/I2C_I2C_MASTER.c ****         {
 604:Generated_Source\PSoC4/I2C_I2C_MASTER.c ****             errStatus = I2C_I2C_MSTR_ERR_ARB_LOST;
 605:Generated_Source\PSoC4/I2C_I2C_MASTER.c ****             resetIp   = I2C_I2C_RESET_ERROR;
 606:Generated_Source\PSoC4/I2C_I2C_MASTER.c ****         }
 607:Generated_Source\PSoC4/I2C_I2C_MASTER.c ****         else /* I2C_INTR_MASTER_I2C_BUS_ERROR is set */
 608:Generated_Source\PSoC4/I2C_I2C_MASTER.c ****         {
 609:Generated_Source\PSoC4/I2C_I2C_MASTER.c ****             errStatus = I2C_I2C_MSTR_ERR_BUS_ERR;
 248              		.loc 1 609 0
 249 003c 8020     		movs	r0, #128
 250 003e 4000     		lsls	r0, r0, #1
 251 0040 03E0     		b	.L24
 252              	.L27:
 600:Generated_Source\PSoC4/I2C_I2C_MASTER.c ****         }
 253              		.loc 1 600 0
 254 0042 0020     		movs	r0, #0
 255 0044 00E0     		b	.L35
 256              	.L28:
 604:Generated_Source\PSoC4/I2C_I2C_MASTER.c ****             resetIp   = I2C_I2C_RESET_ERROR;
 257              		.loc 1 604 0
 258 0046 1800     		movs	r0, r3
 259              	.L35:
 605:Generated_Source\PSoC4/I2C_I2C_MASTER.c ****         }
 260              		.loc 1 605 0
 261 0048 0300     		movs	r3, r0
 262              	.L24:
 263              	.LVL14:
 610:Generated_Source\PSoC4/I2C_I2C_MASTER.c ****             resetIp   = I2C_I2C_RESET_ERROR;
 611:Generated_Source\PSoC4/I2C_I2C_MASTER.c ****         }
 612:Generated_Source\PSoC4/I2C_I2C_MASTER.c **** 
 613:Generated_Source\PSoC4/I2C_I2C_MASTER.c ****         I2C_ClearMasterInterruptSource(I2C_INTR_MASTER_I2C_STOP     |
 264              		.loc 1 613 0
 265 004a 1224     		movs	r4, #18
 266 004c FF34     		adds	r4, r4, #255
 267 004e 1460     		str	r4, [r2]
 614:Generated_Source\PSoC4/I2C_I2C_MASTER.c ****                                                     I2C_INTR_MASTER_I2C_ARB_LOST |
 615:Generated_Source\PSoC4/I2C_I2C_MASTER.c ****                                                     I2C_INTR_MASTER_I2C_BUS_ERROR);
 616:Generated_Source\PSoC4/I2C_I2C_MASTER.c **** 
 617:Generated_Source\PSoC4/I2C_I2C_MASTER.c ****         I2C_state = I2C_I2C_FSM_IDLE;
 268              		.loc 1 617 0
 269 0050 1022     		movs	r2, #16
 270 0052 0A70     		strb	r2, [r1]
 618:Generated_Source\PSoC4/I2C_I2C_MASTER.c **** 
 619:Generated_Source\PSoC4/I2C_I2C_MASTER.c ****         /* Reset block in case of: LOST_ARB or BUS_ERR */
 620:Generated_Source\PSoC4/I2C_I2C_MASTER.c ****         if(0u != resetIp)
 271              		.loc 1 620 0
 272 0054 002B     		cmp	r3, #0
 273 0056 09D0     		beq	.L21
 621:Generated_Source\PSoC4/I2C_I2C_MASTER.c ****         {
ARM GAS  C:\Users\Greg\AppData\Local\Temp\cc742Y6h.s 			page 17


 622:Generated_Source\PSoC4/I2C_I2C_MASTER.c ****             I2C_SCB_SW_RESET;
 274              		.loc 1 622 0
 275 0058 8021     		movs	r1, #128
 276 005a 094A     		ldr	r2, .L36+16
 277 005c 0906     		lsls	r1, r1, #24
 278 005e 1368     		ldr	r3, [r2]
 279 0060 5B00     		lsls	r3, r3, #1
 280 0062 5B08     		lsrs	r3, r3, #1
 281 0064 1360     		str	r3, [r2]
 282 0066 1368     		ldr	r3, [r2]
 283 0068 0B43     		orrs	r3, r1
 284 006a 1360     		str	r3, [r2]
 285              	.LVL15:
 286              	.L21:
 623:Generated_Source\PSoC4/I2C_I2C_MASTER.c ****         }
 624:Generated_Source\PSoC4/I2C_I2C_MASTER.c ****     }
 625:Generated_Source\PSoC4/I2C_I2C_MASTER.c **** 
 626:Generated_Source\PSoC4/I2C_I2C_MASTER.c ****     return(errStatus);
 627:Generated_Source\PSoC4/I2C_I2C_MASTER.c **** }
 287              		.loc 1 627 0
 288              		@ sp needed
 289 006c 10BD     		pop	{r4, pc}
 290              	.L37:
 291 006e C046     		.align	2
 292              	.L36:
 293 0070 00000000 		.word	I2C_state
 294 0074 64002440 		.word	1076101220
 295 0078 68002440 		.word	1076101224
 296 007c 000F2440 		.word	1076104960
 297 0080 00002440 		.word	1076101120
 298              		.cfi_endproc
 299              	.LFE5:
 300              		.size	I2C_I2CMasterSendStop, .-I2C_I2CMasterSendStop
 301              		.section	.text.I2C_I2CMasterWriteByte,"ax",%progbits
 302              		.align	1
 303              		.global	I2C_I2CMasterWriteByte
 304              		.code	16
 305              		.thumb_func
 306              		.type	I2C_I2CMasterWriteByte, %function
 307              	I2C_I2CMasterWriteByte:
 308              	.LFB6:
 628:Generated_Source\PSoC4/I2C_I2C_MASTER.c **** 
 629:Generated_Source\PSoC4/I2C_I2C_MASTER.c **** 
 630:Generated_Source\PSoC4/I2C_I2C_MASTER.c **** /*******************************************************************************
 631:Generated_Source\PSoC4/I2C_I2C_MASTER.c **** * Function Name: I2C_I2CMasterWriteByte
 632:Generated_Source\PSoC4/I2C_I2C_MASTER.c **** ****************************************************************************//**
 633:Generated_Source\PSoC4/I2C_I2C_MASTER.c **** *
 634:Generated_Source\PSoC4/I2C_I2C_MASTER.c **** *  Sends one byte to a slave.
 635:Generated_Source\PSoC4/I2C_I2C_MASTER.c **** *  This function is blocking and does not return until byte is transmitted
 636:Generated_Source\PSoC4/I2C_I2C_MASTER.c **** *  or error occurred.
 637:Generated_Source\PSoC4/I2C_I2C_MASTER.c **** *
 638:Generated_Source\PSoC4/I2C_I2C_MASTER.c **** * \param data: The data byte to send to the slave.
 639:Generated_Source\PSoC4/I2C_I2C_MASTER.c **** *
 640:Generated_Source\PSoC4/I2C_I2C_MASTER.c **** * \return
 641:Generated_Source\PSoC4/I2C_I2C_MASTER.c **** *  Error status.
 642:Generated_Source\PSoC4/I2C_I2C_MASTER.c **** *  See I2C_I2CMasterSendStart() function for constants.
 643:Generated_Source\PSoC4/I2C_I2C_MASTER.c **** *
ARM GAS  C:\Users\Greg\AppData\Local\Temp\cc742Y6h.s 			page 18


 644:Generated_Source\PSoC4/I2C_I2C_MASTER.c **** * \sideeffect
 645:Generated_Source\PSoC4/I2C_I2C_MASTER.c **** *  A valid Start or ReStart condition must be generated before calling
 646:Generated_Source\PSoC4/I2C_I2C_MASTER.c **** *  this function. This function does nothing if Start or ReStart condition
 647:Generated_Source\PSoC4/I2C_I2C_MASTER.c **** *  failed before this function was called.
 648:Generated_Source\PSoC4/I2C_I2C_MASTER.c **** *
 649:Generated_Source\PSoC4/I2C_I2C_MASTER.c **** * \globalvars
 650:Generated_Source\PSoC4/I2C_I2C_MASTER.c **** *  I2C_state - used to store current state of software FSM.
 651:Generated_Source\PSoC4/I2C_I2C_MASTER.c **** *
 652:Generated_Source\PSoC4/I2C_I2C_MASTER.c **** *******************************************************************************/
 653:Generated_Source\PSoC4/I2C_I2C_MASTER.c **** uint32 I2C_I2CMasterWriteByte(uint32 theByte)
 654:Generated_Source\PSoC4/I2C_I2C_MASTER.c **** {
 309              		.loc 1 654 0
 310              		.cfi_startproc
 311              		@ args = 0, pretend = 0, frame = 0
 312              		@ frame_needed = 0, uses_anonymous_args = 0
 313              	.LVL16:
 314 0000 10B5     		push	{r4, lr}
 315              		.cfi_def_cfa_offset 8
 316              		.cfi_offset 4, -8
 317              		.cfi_offset 14, -4
 655:Generated_Source\PSoC4/I2C_I2C_MASTER.c ****     uint32 resetIp;
 656:Generated_Source\PSoC4/I2C_I2C_MASTER.c ****     uint32 errStatus;
 657:Generated_Source\PSoC4/I2C_I2C_MASTER.c **** 
 658:Generated_Source\PSoC4/I2C_I2C_MASTER.c ****     resetIp   = 0u;
 659:Generated_Source\PSoC4/I2C_I2C_MASTER.c ****     errStatus = I2C_I2C_MSTR_NOT_READY;
 660:Generated_Source\PSoC4/I2C_I2C_MASTER.c **** 
 661:Generated_Source\PSoC4/I2C_I2C_MASTER.c ****     /* Check FSM state before write byte */
 662:Generated_Source\PSoC4/I2C_I2C_MASTER.c ****     if(I2C_CHECK_I2C_MASTER_ACTIVE)
 318              		.loc 1 662 0
 319 0002 1C4A     		ldr	r2, .L52
 654:Generated_Source\PSoC4/I2C_I2C_MASTER.c ****     uint32 resetIp;
 320              		.loc 1 654 0
 321 0004 0100     		movs	r1, r0
 322              		.loc 1 662 0
 323 0006 1378     		ldrb	r3, [r2]
 659:Generated_Source\PSoC4/I2C_I2C_MASTER.c **** 
 324              		.loc 1 659 0
 325 0008 0420     		movs	r0, #4
 326              	.LVL17:
 327              		.loc 1 662 0
 328 000a 9B06     		lsls	r3, r3, #26
 329 000c 31D5     		bpl	.L39
 663:Generated_Source\PSoC4/I2C_I2C_MASTER.c ****     {
 664:Generated_Source\PSoC4/I2C_I2C_MASTER.c ****         I2C_TX_FIFO_WR_REG = theByte;
 330              		.loc 1 664 0
 331 000e 1A4B     		ldr	r3, .L52+4
 665:Generated_Source\PSoC4/I2C_I2C_MASTER.c **** 
 666:Generated_Source\PSoC4/I2C_I2C_MASTER.c ****         while(!I2C_CHECK_INTR_MASTER(I2C_INTR_MASTER_I2C_ACK      |
 332              		.loc 1 666 0
 333 0010 1A48     		ldr	r0, .L52+8
 664:Generated_Source\PSoC4/I2C_I2C_MASTER.c **** 
 334              		.loc 1 664 0
 335 0012 1960     		str	r1, [r3]
 336              		.loc 1 666 0
 337 0014 0823     		movs	r3, #8
 338 0016 FF33     		adds	r3, r3, #255
 339              	.LVL18:
ARM GAS  C:\Users\Greg\AppData\Local\Temp\cc742Y6h.s 			page 19


 340              	.L40:
 341              		.loc 1 666 0 is_stmt 0 discriminator 1
 342 0018 0168     		ldr	r1, [r0]
 343 001a 184C     		ldr	r4, .L52+8
 344 001c 1942     		tst	r1, r3
 345 001e FBD0     		beq	.L40
 667:Generated_Source\PSoC4/I2C_I2C_MASTER.c ****                                                   I2C_INTR_MASTER_I2C_NACK     |
 668:Generated_Source\PSoC4/I2C_I2C_MASTER.c ****                                                   I2C_INTR_MASTER_I2C_ARB_LOST |
 669:Generated_Source\PSoC4/I2C_I2C_MASTER.c ****                                                   I2C_INTR_MASTER_I2C_BUS_ERROR))
 670:Generated_Source\PSoC4/I2C_I2C_MASTER.c ****         {
 671:Generated_Source\PSoC4/I2C_I2C_MASTER.c ****             /* Wait until byte has been transferred */
 672:Generated_Source\PSoC4/I2C_I2C_MASTER.c ****         }
 673:Generated_Source\PSoC4/I2C_I2C_MASTER.c **** 
 674:Generated_Source\PSoC4/I2C_I2C_MASTER.c ****         /* Check results after byte was sent */
 675:Generated_Source\PSoC4/I2C_I2C_MASTER.c ****         if(I2C_CHECK_INTR_MASTER(I2C_INTR_MASTER_I2C_ACK))
 346              		.loc 1 675 0 is_stmt 1
 347 0020 0423     		movs	r3, #4
 348 0022 2168     		ldr	r1, [r4]
 349 0024 0B40     		ands	r3, r1
 350 0026 04D0     		beq	.L41
 676:Generated_Source\PSoC4/I2C_I2C_MASTER.c ****         {
 677:Generated_Source\PSoC4/I2C_I2C_MASTER.c ****             I2C_state = I2C_I2C_FSM_MSTR_HALT;
 351              		.loc 1 677 0
 352 0028 6023     		movs	r3, #96
 678:Generated_Source\PSoC4/I2C_I2C_MASTER.c ****                          errStatus = I2C_I2C_MSTR_NO_ERROR;
 353              		.loc 1 678 0
 354 002a 0020     		movs	r0, #0
 677:Generated_Source\PSoC4/I2C_I2C_MASTER.c ****                          errStatus = I2C_I2C_MSTR_NO_ERROR;
 355              		.loc 1 677 0
 356 002c 1370     		strb	r3, [r2]
 357              	.LVL19:
 658:Generated_Source\PSoC4/I2C_I2C_MASTER.c ****     errStatus = I2C_I2C_MSTR_NOT_READY;
 358              		.loc 1 658 0
 359 002e 0300     		movs	r3, r0
 360 0030 10E0     		b	.L42
 361              	.LVL20:
 362              	.L41:
 679:Generated_Source\PSoC4/I2C_I2C_MASTER.c ****         }
 680:Generated_Source\PSoC4/I2C_I2C_MASTER.c ****         else if(I2C_CHECK_INTR_MASTER(I2C_INTR_MASTER_I2C_NACK))
 363              		.loc 1 680 0
 364 0032 0220     		movs	r0, #2
 365 0034 2168     		ldr	r1, [r4]
 366 0036 0142     		tst	r1, r0
 367 0038 02D0     		beq	.L43
 681:Generated_Source\PSoC4/I2C_I2C_MASTER.c ****         {
 682:Generated_Source\PSoC4/I2C_I2C_MASTER.c ****             I2C_state = I2C_I2C_FSM_MSTR_HALT;
 368              		.loc 1 682 0
 369 003a 6021     		movs	r1, #96
 370 003c 1170     		strb	r1, [r2]
 371              	.LVL21:
 372 003e 09E0     		b	.L42
 373              	.LVL22:
 374              	.L43:
 375 0040 1021     		movs	r1, #16
 683:Generated_Source\PSoC4/I2C_I2C_MASTER.c ****                          errStatus = I2C_I2C_MSTR_ERR_LB_NAK;
 684:Generated_Source\PSoC4/I2C_I2C_MASTER.c ****         }
 685:Generated_Source\PSoC4/I2C_I2C_MASTER.c ****         else if(I2C_CHECK_INTR_MASTER(I2C_INTR_MASTER_I2C_ARB_LOST))
ARM GAS  C:\Users\Greg\AppData\Local\Temp\cc742Y6h.s 			page 20


 376              		.loc 1 685 0
 377 0042 0123     		movs	r3, #1
 378 0044 2068     		ldr	r0, [r4]
 686:Generated_Source\PSoC4/I2C_I2C_MASTER.c ****         {
 687:Generated_Source\PSoC4/I2C_I2C_MASTER.c ****             I2C_state = I2C_I2C_FSM_IDLE;
 379              		.loc 1 687 0
 380 0046 1170     		strb	r1, [r2]
 381              	.LVL23:
 685:Generated_Source\PSoC4/I2C_I2C_MASTER.c ****         {
 382              		.loc 1 685 0
 383 0048 1842     		tst	r0, r3
 384 004a 01D0     		beq	.L44
 385              	.LVL24:
 688:Generated_Source\PSoC4/I2C_I2C_MASTER.c ****                          errStatus = I2C_I2C_MSTR_ERR_ARB_LOST;
 386              		.loc 1 688 0
 387 004c 1800     		movs	r0, r3
 388 004e 01E0     		b	.L42
 389              	.LVL25:
 390              	.L44:
 689:Generated_Source\PSoC4/I2C_I2C_MASTER.c ****                          resetIp   = I2C_I2C_RESET_ERROR;
 690:Generated_Source\PSoC4/I2C_I2C_MASTER.c ****         }
 691:Generated_Source\PSoC4/I2C_I2C_MASTER.c ****         else /* I2C_INTR_MASTER_I2C_BUS_ERROR set is */
 692:Generated_Source\PSoC4/I2C_I2C_MASTER.c ****         {
 693:Generated_Source\PSoC4/I2C_I2C_MASTER.c ****             I2C_state = I2C_I2C_FSM_IDLE;
 694:Generated_Source\PSoC4/I2C_I2C_MASTER.c ****                          errStatus = I2C_I2C_MSTR_ERR_BUS_ERR;
 391              		.loc 1 694 0
 392 0050 8020     		movs	r0, #128
 393 0052 4000     		lsls	r0, r0, #1
 394              	.LVL26:
 395              	.L42:
 695:Generated_Source\PSoC4/I2C_I2C_MASTER.c ****                          resetIp   = I2C_I2C_RESET_ERROR;
 696:Generated_Source\PSoC4/I2C_I2C_MASTER.c ****         }
 697:Generated_Source\PSoC4/I2C_I2C_MASTER.c **** 
 698:Generated_Source\PSoC4/I2C_I2C_MASTER.c ****         I2C_ClearMasterInterruptSource(I2C_INTR_MASTER_I2C_ACK      |
 396              		.loc 1 698 0
 397 0054 0822     		movs	r2, #8
 398 0056 FF32     		adds	r2, r2, #255
 399 0058 2260     		str	r2, [r4]
 699:Generated_Source\PSoC4/I2C_I2C_MASTER.c ****                                                     I2C_INTR_MASTER_I2C_NACK     |
 700:Generated_Source\PSoC4/I2C_I2C_MASTER.c ****                                                     I2C_INTR_MASTER_I2C_ARB_LOST |
 701:Generated_Source\PSoC4/I2C_I2C_MASTER.c ****                                                     I2C_INTR_MASTER_I2C_BUS_ERROR);
 702:Generated_Source\PSoC4/I2C_I2C_MASTER.c **** 
 703:Generated_Source\PSoC4/I2C_I2C_MASTER.c ****         /* Reset block in case of: LOST_ARB or BUS_ERR */
 704:Generated_Source\PSoC4/I2C_I2C_MASTER.c ****         if(0u != resetIp)
 400              		.loc 1 704 0
 401 005a 002B     		cmp	r3, #0
 402 005c 09D0     		beq	.L39
 705:Generated_Source\PSoC4/I2C_I2C_MASTER.c ****         {
 706:Generated_Source\PSoC4/I2C_I2C_MASTER.c ****             I2C_SCB_SW_RESET;
 403              		.loc 1 706 0
 404 005e 8021     		movs	r1, #128
 405 0060 074A     		ldr	r2, .L52+12
 406 0062 0906     		lsls	r1, r1, #24
 407 0064 1368     		ldr	r3, [r2]
 408 0066 5B00     		lsls	r3, r3, #1
 409 0068 5B08     		lsrs	r3, r3, #1
 410 006a 1360     		str	r3, [r2]
ARM GAS  C:\Users\Greg\AppData\Local\Temp\cc742Y6h.s 			page 21


 411 006c 1368     		ldr	r3, [r2]
 412 006e 0B43     		orrs	r3, r1
 413 0070 1360     		str	r3, [r2]
 414              	.LVL27:
 415              	.L39:
 707:Generated_Source\PSoC4/I2C_I2C_MASTER.c ****         }
 708:Generated_Source\PSoC4/I2C_I2C_MASTER.c ****     }
 709:Generated_Source\PSoC4/I2C_I2C_MASTER.c **** 
 710:Generated_Source\PSoC4/I2C_I2C_MASTER.c ****     return(errStatus);
 711:Generated_Source\PSoC4/I2C_I2C_MASTER.c **** }
 416              		.loc 1 711 0
 417              		@ sp needed
 418 0072 10BD     		pop	{r4, pc}
 419              	.L53:
 420              		.align	2
 421              	.L52:
 422 0074 00000000 		.word	I2C_state
 423 0078 40022440 		.word	1076101696
 424 007c 000F2440 		.word	1076104960
 425 0080 00002440 		.word	1076101120
 426              		.cfi_endproc
 427              	.LFE6:
 428              		.size	I2C_I2CMasterWriteByte, .-I2C_I2CMasterWriteByte
 429              		.section	.text.I2C_I2CMasterReadByte,"ax",%progbits
 430              		.align	1
 431              		.global	I2C_I2CMasterReadByte
 432              		.code	16
 433              		.thumb_func
 434              		.type	I2C_I2CMasterReadByte, %function
 435              	I2C_I2CMasterReadByte:
 436              	.LFB7:
 712:Generated_Source\PSoC4/I2C_I2C_MASTER.c **** 
 713:Generated_Source\PSoC4/I2C_I2C_MASTER.c **** 
 714:Generated_Source\PSoC4/I2C_I2C_MASTER.c **** /*******************************************************************************
 715:Generated_Source\PSoC4/I2C_I2C_MASTER.c **** * Function Name: I2C_I2CMasterReadByte
 716:Generated_Source\PSoC4/I2C_I2C_MASTER.c **** ****************************************************************************//**
 717:Generated_Source\PSoC4/I2C_I2C_MASTER.c **** *
 718:Generated_Source\PSoC4/I2C_I2C_MASTER.c **** *  Reads one byte from a slave and generates ACK or prepares to generate NAK. 
 719:Generated_Source\PSoC4/I2C_I2C_MASTER.c **** *  The NAK will be generated before Stop or ReStart condition by 
 720:Generated_Source\PSoC4/I2C_I2C_MASTER.c **** *  I2C_I2CMasterSendStop() or 
 721:Generated_Source\PSoC4/I2C_I2C_MASTER.c **** *  I2C_I2CMasterSendRestart() function appropriately.
 722:Generated_Source\PSoC4/I2C_I2C_MASTER.c **** *  This function is blocking. It does not return until a byte is received or 
 723:Generated_Source\PSoC4/I2C_I2C_MASTER.c **** *  an error occurs.
 724:Generated_Source\PSoC4/I2C_I2C_MASTER.c **** *
 725:Generated_Source\PSoC4/I2C_I2C_MASTER.c **** * \param ackNack: Response to received byte.
 726:Generated_Source\PSoC4/I2C_I2C_MASTER.c **** *  - I2C_I2C_ACK_DATA - Generates ACK. 
 727:Generated_Source\PSoC4/I2C_I2C_MASTER.c **** *     The master notifies slave that transfer continues.
 728:Generated_Source\PSoC4/I2C_I2C_MASTER.c **** *  - I2C_I2C_NAK_DATA - Prepares to generate NAK.
 729:Generated_Source\PSoC4/I2C_I2C_MASTER.c **** *     The master will notify slave that transfer is completed.
 730:Generated_Source\PSoC4/I2C_I2C_MASTER.c **** *
 731:Generated_Source\PSoC4/I2C_I2C_MASTER.c **** * \return
 732:Generated_Source\PSoC4/I2C_I2C_MASTER.c **** *  Byte read from the slave. In case of error the MSB of returned data 
 733:Generated_Source\PSoC4/I2C_I2C_MASTER.c **** *  is set to 1.
 734:Generated_Source\PSoC4/I2C_I2C_MASTER.c **** *
 735:Generated_Source\PSoC4/I2C_I2C_MASTER.c **** * \sideeffect
 736:Generated_Source\PSoC4/I2C_I2C_MASTER.c **** *  A valid Start or ReStart condition must be generated before calling
 737:Generated_Source\PSoC4/I2C_I2C_MASTER.c **** *  this function. This function does nothing if Start or ReStart condition
ARM GAS  C:\Users\Greg\AppData\Local\Temp\cc742Y6h.s 			page 22


 738:Generated_Source\PSoC4/I2C_I2C_MASTER.c **** *  failed before this function was called.
 739:Generated_Source\PSoC4/I2C_I2C_MASTER.c **** *
 740:Generated_Source\PSoC4/I2C_I2C_MASTER.c **** * \globalvars
 741:Generated_Source\PSoC4/I2C_I2C_MASTER.c **** *  I2C_state - used to store current state of software FSM.
 742:Generated_Source\PSoC4/I2C_I2C_MASTER.c **** *
 743:Generated_Source\PSoC4/I2C_I2C_MASTER.c **** *******************************************************************************/
 744:Generated_Source\PSoC4/I2C_I2C_MASTER.c **** uint32 I2C_I2CMasterReadByte(uint32 ackNack)
 745:Generated_Source\PSoC4/I2C_I2C_MASTER.c **** {
 437              		.loc 1 745 0
 438              		.cfi_startproc
 439              		@ args = 0, pretend = 0, frame = 0
 440              		@ frame_needed = 0, uses_anonymous_args = 0
 441              	.LVL28:
 442 0000 70B5     		push	{r4, r5, r6, lr}
 443              		.cfi_def_cfa_offset 16
 444              		.cfi_offset 4, -16
 445              		.cfi_offset 5, -12
 446              		.cfi_offset 6, -8
 447              		.cfi_offset 14, -4
 746:Generated_Source\PSoC4/I2C_I2C_MASTER.c ****     uint32 theByte;
 747:Generated_Source\PSoC4/I2C_I2C_MASTER.c **** 
 748:Generated_Source\PSoC4/I2C_I2C_MASTER.c ****     /* Return invalid byte in case BUS_ERR happen during receiving */
 749:Generated_Source\PSoC4/I2C_I2C_MASTER.c ****     theByte = I2C_I2C_INVALID_BYTE;
 750:Generated_Source\PSoC4/I2C_I2C_MASTER.c **** 
 751:Generated_Source\PSoC4/I2C_I2C_MASTER.c ****     /* Check FSM state before read byte */
 752:Generated_Source\PSoC4/I2C_I2C_MASTER.c ****     if(I2C_CHECK_I2C_MASTER_ACTIVE)
 448              		.loc 1 752 0
 449 0002 194B     		ldr	r3, .L64
 450 0004 1A78     		ldrb	r2, [r3]
 451 0006 1900     		movs	r1, r3
 452 0008 9306     		lsls	r3, r2, #26
 453 000a 28D5     		bpl	.L60
 753:Generated_Source\PSoC4/I2C_I2C_MASTER.c ****     {
 754:Generated_Source\PSoC4/I2C_I2C_MASTER.c ****         while((!I2C_CHECK_INTR_RX(I2C_INTR_RX_NOT_EMPTY)) &&
 454              		.loc 1 754 0 discriminator 2
 455 000c 0223     		movs	r3, #2
 456 000e 0426     		movs	r6, #4
 457 0010 164D     		ldr	r5, .L64+4
 755:Generated_Source\PSoC4/I2C_I2C_MASTER.c ****               (!I2C_CHECK_INTR_MASTER(I2C_INTR_MASTER_I2C_ARB_LOST |
 458              		.loc 1 755 0 discriminator 2
 459 0012 174C     		ldr	r4, .L64+8
 754:Generated_Source\PSoC4/I2C_I2C_MASTER.c ****               (!I2C_CHECK_INTR_MASTER(I2C_INTR_MASTER_I2C_ARB_LOST |
 460              		.loc 1 754 0 discriminator 2
 461 0014 FF33     		adds	r3, r3, #255
 462              	.L62:
 463 0016 2A68     		ldr	r2, [r5]
 464 0018 3242     		tst	r2, r6
 465 001a 02D1     		bne	.L56
 466              		.loc 1 755 0 discriminator 1
 467 001c 2268     		ldr	r2, [r4]
 754:Generated_Source\PSoC4/I2C_I2C_MASTER.c ****               (!I2C_CHECK_INTR_MASTER(I2C_INTR_MASTER_I2C_ARB_LOST |
 468              		.loc 1 754 0 discriminator 1
 469 001e 1A42     		tst	r2, r3
 470 0020 F9D0     		beq	.L62
 471              	.L56:
 756:Generated_Source\PSoC4/I2C_I2C_MASTER.c ****                                                   I2C_INTR_MASTER_I2C_BUS_ERROR)))
 757:Generated_Source\PSoC4/I2C_I2C_MASTER.c ****         {
ARM GAS  C:\Users\Greg\AppData\Local\Temp\cc742Y6h.s 			page 23


 758:Generated_Source\PSoC4/I2C_I2C_MASTER.c ****             /* Wait until byte has been received */
 759:Generated_Source\PSoC4/I2C_I2C_MASTER.c ****         }
 760:Generated_Source\PSoC4/I2C_I2C_MASTER.c **** 
 761:Generated_Source\PSoC4/I2C_I2C_MASTER.c ****         /* Check the results after the byte was sent */
 762:Generated_Source\PSoC4/I2C_I2C_MASTER.c ****         if(I2C_CHECK_INTR_RX(I2C_INTR_RX_NOT_EMPTY))
 472              		.loc 1 762 0
 473 0022 0422     		movs	r2, #4
 474 0024 114B     		ldr	r3, .L64+4
 475 0026 1B68     		ldr	r3, [r3]
 476 0028 1342     		tst	r3, r2
 477 002a 0BD0     		beq	.L58
 763:Generated_Source\PSoC4/I2C_I2C_MASTER.c ****         {
 764:Generated_Source\PSoC4/I2C_I2C_MASTER.c ****             theByte = I2C_RX_FIFO_RD_REG;
 478              		.loc 1 764 0
 479 002c 114B     		ldr	r3, .L64+12
 765:Generated_Source\PSoC4/I2C_I2C_MASTER.c **** 
 766:Generated_Source\PSoC4/I2C_I2C_MASTER.c ****             I2C_ClearRxInterruptSource(I2C_INTR_RX_NOT_EMPTY);
 480              		.loc 1 766 0
 481 002e 0F4C     		ldr	r4, .L64+4
 764:Generated_Source\PSoC4/I2C_I2C_MASTER.c **** 
 482              		.loc 1 764 0
 483 0030 1B68     		ldr	r3, [r3]
 484              	.LVL29:
 485              		.loc 1 766 0
 486 0032 2260     		str	r2, [r4]
 767:Generated_Source\PSoC4/I2C_I2C_MASTER.c **** 
 768:Generated_Source\PSoC4/I2C_I2C_MASTER.c ****             if(0u == ackNack)
 487              		.loc 1 768 0
 488 0034 0028     		cmp	r0, #0
 489 0036 02D1     		bne	.L59
 769:Generated_Source\PSoC4/I2C_I2C_MASTER.c ****             {
 770:Generated_Source\PSoC4/I2C_I2C_MASTER.c ****                 I2C_I2C_MASTER_GENERATE_ACK;
 490              		.loc 1 770 0
 491 0038 0F49     		ldr	r1, .L64+16
 492 003a 0A60     		str	r2, [r1]
 493 003c 11E0     		b	.L55
 494              	.L59:
 771:Generated_Source\PSoC4/I2C_I2C_MASTER.c ****             }
 772:Generated_Source\PSoC4/I2C_I2C_MASTER.c ****             else
 773:Generated_Source\PSoC4/I2C_I2C_MASTER.c ****             {
 774:Generated_Source\PSoC4/I2C_I2C_MASTER.c ****                 /* NACK is generated by Stop or ReStart command */
 775:Generated_Source\PSoC4/I2C_I2C_MASTER.c ****                 I2C_state = I2C_I2C_FSM_MSTR_HALT;
 495              		.loc 1 775 0
 496 003e 6022     		movs	r2, #96
 497 0040 0A70     		strb	r2, [r1]
 498 0042 0EE0     		b	.L55
 499              	.LVL30:
 500              	.L58:
 776:Generated_Source\PSoC4/I2C_I2C_MASTER.c ****             }
 777:Generated_Source\PSoC4/I2C_I2C_MASTER.c ****         }
 778:Generated_Source\PSoC4/I2C_I2C_MASTER.c ****         else
 779:Generated_Source\PSoC4/I2C_I2C_MASTER.c ****         {
 780:Generated_Source\PSoC4/I2C_I2C_MASTER.c ****             I2C_ClearMasterInterruptSource(I2C_INTR_MASTER_ALL);
 781:Generated_Source\PSoC4/I2C_I2C_MASTER.c **** 
 782:Generated_Source\PSoC4/I2C_I2C_MASTER.c ****             /* Reset block in case of: LOST_ARB or BUS_ERR */
 783:Generated_Source\PSoC4/I2C_I2C_MASTER.c ****             I2C_SCB_SW_RESET;
 501              		.loc 1 783 0
ARM GAS  C:\Users\Greg\AppData\Local\Temp\cc742Y6h.s 			page 24


 502 0044 8021     		movs	r1, #128
 780:Generated_Source\PSoC4/I2C_I2C_MASTER.c **** 
 503              		.loc 1 780 0
 504 0046 0D4A     		ldr	r2, .L64+20
 505 0048 094B     		ldr	r3, .L64+8
 506              		.loc 1 783 0
 507 004a 0906     		lsls	r1, r1, #24
 780:Generated_Source\PSoC4/I2C_I2C_MASTER.c **** 
 508              		.loc 1 780 0
 509 004c 1A60     		str	r2, [r3]
 510              		.loc 1 783 0
 511 004e 0C4A     		ldr	r2, .L64+24
 512 0050 1368     		ldr	r3, [r2]
 513 0052 5B00     		lsls	r3, r3, #1
 514 0054 5B08     		lsrs	r3, r3, #1
 515 0056 1360     		str	r3, [r2]
 516 0058 1368     		ldr	r3, [r2]
 517 005a 0B43     		orrs	r3, r1
 518 005c 1360     		str	r3, [r2]
 519              	.L60:
 749:Generated_Source\PSoC4/I2C_I2C_MASTER.c **** 
 520              		.loc 1 749 0
 521 005e 0123     		movs	r3, #1
 522 0060 5B42     		rsbs	r3, r3, #0
 523              	.LVL31:
 524              	.L55:
 784:Generated_Source\PSoC4/I2C_I2C_MASTER.c ****         }
 785:Generated_Source\PSoC4/I2C_I2C_MASTER.c ****     }
 786:Generated_Source\PSoC4/I2C_I2C_MASTER.c **** 
 787:Generated_Source\PSoC4/I2C_I2C_MASTER.c ****     return(theByte);
 788:Generated_Source\PSoC4/I2C_I2C_MASTER.c **** }
 525              		.loc 1 788 0
 526 0062 1800     		movs	r0, r3
 527              	.LVL32:
 528              		@ sp needed
 529 0064 70BD     		pop	{r4, r5, r6, pc}
 530              	.L65:
 531 0066 C046     		.align	2
 532              	.L64:
 533 0068 00000000 		.word	I2C_state
 534 006c C00F2440 		.word	1076105152
 535 0070 000F2440 		.word	1076104960
 536 0074 40032440 		.word	1076101952
 537 0078 68002440 		.word	1076101224
 538 007c 17030000 		.word	791
 539 0080 00002440 		.word	1076101120
 540              		.cfi_endproc
 541              	.LFE7:
 542              		.size	I2C_I2CMasterReadByte, .-I2C_I2CMasterReadByte
 543              		.section	.text.I2C_I2CMasterGetReadBufSize,"ax",%progbits
 544              		.align	1
 545              		.global	I2C_I2CMasterGetReadBufSize
 546              		.code	16
 547              		.thumb_func
 548              		.type	I2C_I2CMasterGetReadBufSize, %function
 549              	I2C_I2CMasterGetReadBufSize:
 550              	.LFB8:
ARM GAS  C:\Users\Greg\AppData\Local\Temp\cc742Y6h.s 			page 25


 789:Generated_Source\PSoC4/I2C_I2C_MASTER.c **** 
 790:Generated_Source\PSoC4/I2C_I2C_MASTER.c **** 
 791:Generated_Source\PSoC4/I2C_I2C_MASTER.c **** /*******************************************************************************
 792:Generated_Source\PSoC4/I2C_I2C_MASTER.c **** * Function Name: I2C_I2CMasterGetReadBufSize
 793:Generated_Source\PSoC4/I2C_I2C_MASTER.c **** ****************************************************************************//**
 794:Generated_Source\PSoC4/I2C_I2C_MASTER.c **** *
 795:Generated_Source\PSoC4/I2C_I2C_MASTER.c **** *  Returns the number of bytes that has been transferred with an
 796:Generated_Source\PSoC4/I2C_I2C_MASTER.c **** *  I2C_I2CMasterReadBuf() function.
 797:Generated_Source\PSoC4/I2C_I2C_MASTER.c **** *
 798:Generated_Source\PSoC4/I2C_I2C_MASTER.c **** * \return
 799:Generated_Source\PSoC4/I2C_I2C_MASTER.c **** *  Byte count of transfer. If the transfer is not yet complete, it returns
 800:Generated_Source\PSoC4/I2C_I2C_MASTER.c **** *  the byte count transferred so far.
 801:Generated_Source\PSoC4/I2C_I2C_MASTER.c **** *
 802:Generated_Source\PSoC4/I2C_I2C_MASTER.c **** * \sideeffect
 803:Generated_Source\PSoC4/I2C_I2C_MASTER.c **** *  This function returns not valid value if 
 804:Generated_Source\PSoC4/I2C_I2C_MASTER.c **** *  I2C_I2C_MSTAT_ERR_ARB_LOST or
 805:Generated_Source\PSoC4/I2C_I2C_MASTER.c **** *  I2C_I2C_MSTAT_ERR_BUS_ERROR occurred while read transfer.
 806:Generated_Source\PSoC4/I2C_I2C_MASTER.c **** *
 807:Generated_Source\PSoC4/I2C_I2C_MASTER.c **** * \globalvars
 808:Generated_Source\PSoC4/I2C_I2C_MASTER.c **** *  I2C_mstrRdBufIndex - used to current index within master read
 809:Generated_Source\PSoC4/I2C_I2C_MASTER.c **** *  buffer.
 810:Generated_Source\PSoC4/I2C_I2C_MASTER.c **** *
 811:Generated_Source\PSoC4/I2C_I2C_MASTER.c **** *******************************************************************************/
 812:Generated_Source\PSoC4/I2C_I2C_MASTER.c **** uint32 I2C_I2CMasterGetReadBufSize(void)
 813:Generated_Source\PSoC4/I2C_I2C_MASTER.c **** {
 551              		.loc 1 813 0
 552              		.cfi_startproc
 553              		@ args = 0, pretend = 0, frame = 0
 554              		@ frame_needed = 0, uses_anonymous_args = 0
 555              		@ link register save eliminated.
 814:Generated_Source\PSoC4/I2C_I2C_MASTER.c ****     return(I2C_mstrRdBufIndex);
 556              		.loc 1 814 0
 557 0000 014B     		ldr	r3, .L67
 815:Generated_Source\PSoC4/I2C_I2C_MASTER.c **** }
 558              		.loc 1 815 0
 559              		@ sp needed
 814:Generated_Source\PSoC4/I2C_I2C_MASTER.c ****     return(I2C_mstrRdBufIndex);
 560              		.loc 1 814 0
 561 0002 1868     		ldr	r0, [r3]
 562              		.loc 1 815 0
 563 0004 7047     		bx	lr
 564              	.L68:
 565 0006 C046     		.align	2
 566              	.L67:
 567 0008 00000000 		.word	I2C_mstrRdBufIndex
 568              		.cfi_endproc
 569              	.LFE8:
 570              		.size	I2C_I2CMasterGetReadBufSize, .-I2C_I2CMasterGetReadBufSize
 571              		.section	.text.I2C_I2CMasterGetWriteBufSize,"ax",%progbits
 572              		.align	1
 573              		.global	I2C_I2CMasterGetWriteBufSize
 574              		.code	16
 575              		.thumb_func
 576              		.type	I2C_I2CMasterGetWriteBufSize, %function
 577              	I2C_I2CMasterGetWriteBufSize:
 578              	.LFB9:
 816:Generated_Source\PSoC4/I2C_I2C_MASTER.c **** 
ARM GAS  C:\Users\Greg\AppData\Local\Temp\cc742Y6h.s 			page 26


 817:Generated_Source\PSoC4/I2C_I2C_MASTER.c **** 
 818:Generated_Source\PSoC4/I2C_I2C_MASTER.c **** /*******************************************************************************
 819:Generated_Source\PSoC4/I2C_I2C_MASTER.c **** * Function Name: I2C_I2CMasterGetWriteBufSize
 820:Generated_Source\PSoC4/I2C_I2C_MASTER.c **** ****************************************************************************//**
 821:Generated_Source\PSoC4/I2C_I2C_MASTER.c **** *
 822:Generated_Source\PSoC4/I2C_I2C_MASTER.c **** *  Returns the number of bytes that have been transferred with an
 823:Generated_Source\PSoC4/I2C_I2C_MASTER.c **** *  SCB_I2CMasterWriteBuf() function.
 824:Generated_Source\PSoC4/I2C_I2C_MASTER.c **** *
 825:Generated_Source\PSoC4/I2C_I2C_MASTER.c **** * \return
 826:Generated_Source\PSoC4/I2C_I2C_MASTER.c **** *   Byte count of transfer. If the transfer is not yet complete, it returns
 827:Generated_Source\PSoC4/I2C_I2C_MASTER.c **** *   zero unit transfer completion.
 828:Generated_Source\PSoC4/I2C_I2C_MASTER.c **** *
 829:Generated_Source\PSoC4/I2C_I2C_MASTER.c **** * \sideeffect
 830:Generated_Source\PSoC4/I2C_I2C_MASTER.c **** *   This function returns not valid value if 
 831:Generated_Source\PSoC4/I2C_I2C_MASTER.c **** *   I2C_I2C_MSTAT_ERR_ARB_LOST or 
 832:Generated_Source\PSoC4/I2C_I2C_MASTER.c **** *   I2C_I2C_MSTAT_ERR_BUS_ERROR occurred while read transfer.
 833:Generated_Source\PSoC4/I2C_I2C_MASTER.c **** *
 834:Generated_Source\PSoC4/I2C_I2C_MASTER.c **** * \globalvars
 835:Generated_Source\PSoC4/I2C_I2C_MASTER.c **** *  I2C_mstrWrBufIndex - used to current index within master write
 836:Generated_Source\PSoC4/I2C_I2C_MASTER.c **** *  buffer.
 837:Generated_Source\PSoC4/I2C_I2C_MASTER.c **** *
 838:Generated_Source\PSoC4/I2C_I2C_MASTER.c **** *******************************************************************************/
 839:Generated_Source\PSoC4/I2C_I2C_MASTER.c **** uint32 I2C_I2CMasterGetWriteBufSize(void)
 840:Generated_Source\PSoC4/I2C_I2C_MASTER.c **** {
 579              		.loc 1 840 0
 580              		.cfi_startproc
 581              		@ args = 0, pretend = 0, frame = 0
 582              		@ frame_needed = 0, uses_anonymous_args = 0
 583              		@ link register save eliminated.
 841:Generated_Source\PSoC4/I2C_I2C_MASTER.c ****     return(I2C_mstrWrBufIndex);
 584              		.loc 1 841 0
 585 0000 014B     		ldr	r3, .L70
 842:Generated_Source\PSoC4/I2C_I2C_MASTER.c **** }
 586              		.loc 1 842 0
 587              		@ sp needed
 841:Generated_Source\PSoC4/I2C_I2C_MASTER.c ****     return(I2C_mstrWrBufIndex);
 588              		.loc 1 841 0
 589 0002 1868     		ldr	r0, [r3]
 590              		.loc 1 842 0
 591 0004 7047     		bx	lr
 592              	.L71:
 593 0006 C046     		.align	2
 594              	.L70:
 595 0008 00000000 		.word	I2C_mstrWrBufIndex
 596              		.cfi_endproc
 597              	.LFE9:
 598              		.size	I2C_I2CMasterGetWriteBufSize, .-I2C_I2CMasterGetWriteBufSize
 599              		.section	.text.I2C_I2CMasterClearReadBuf,"ax",%progbits
 600              		.align	1
 601              		.global	I2C_I2CMasterClearReadBuf
 602              		.code	16
 603              		.thumb_func
 604              		.type	I2C_I2CMasterClearReadBuf, %function
 605              	I2C_I2CMasterClearReadBuf:
 606              	.LFB10:
 843:Generated_Source\PSoC4/I2C_I2C_MASTER.c **** 
 844:Generated_Source\PSoC4/I2C_I2C_MASTER.c **** 
ARM GAS  C:\Users\Greg\AppData\Local\Temp\cc742Y6h.s 			page 27


 845:Generated_Source\PSoC4/I2C_I2C_MASTER.c **** /*******************************************************************************
 846:Generated_Source\PSoC4/I2C_I2C_MASTER.c **** * Function Name: I2C_I2CMasterClearReadBuf
 847:Generated_Source\PSoC4/I2C_I2C_MASTER.c **** ****************************************************************************//**
 848:Generated_Source\PSoC4/I2C_I2C_MASTER.c **** *
 849:Generated_Source\PSoC4/I2C_I2C_MASTER.c **** *  Resets the read buffer pointer back to the first byte in the buffer.
 850:Generated_Source\PSoC4/I2C_I2C_MASTER.c **** *
 851:Generated_Source\PSoC4/I2C_I2C_MASTER.c **** * \globalvars
 852:Generated_Source\PSoC4/I2C_I2C_MASTER.c **** *  I2C_mstrRdBufIndex - used to current index within master read
 853:Generated_Source\PSoC4/I2C_I2C_MASTER.c **** *   buffer.
 854:Generated_Source\PSoC4/I2C_I2C_MASTER.c **** *  I2C_mstrStatus - used to store current status of I2C Master.
 855:Generated_Source\PSoC4/I2C_I2C_MASTER.c **** *
 856:Generated_Source\PSoC4/I2C_I2C_MASTER.c **** *******************************************************************************/
 857:Generated_Source\PSoC4/I2C_I2C_MASTER.c **** void I2C_I2CMasterClearReadBuf(void)
 858:Generated_Source\PSoC4/I2C_I2C_MASTER.c **** {
 607              		.loc 1 858 0
 608              		.cfi_startproc
 609              		@ args = 0, pretend = 0, frame = 0
 610              		@ frame_needed = 0, uses_anonymous_args = 0
 611 0000 10B5     		push	{r4, lr}
 612              		.cfi_def_cfa_offset 8
 613              		.cfi_offset 4, -8
 614              		.cfi_offset 14, -4
 859:Generated_Source\PSoC4/I2C_I2C_MASTER.c ****     I2C_DisableInt();  /* Lock from interruption */
 615              		.loc 1 859 0
 616 0002 0820     		movs	r0, #8
 617 0004 FFF7FEFF 		bl	CyIntDisable
 618              	.LVL33:
 860:Generated_Source\PSoC4/I2C_I2C_MASTER.c **** 
 861:Generated_Source\PSoC4/I2C_I2C_MASTER.c ****     I2C_mstrRdBufIndex = 0u;
 619              		.loc 1 861 0
 620 0008 0022     		movs	r2, #0
 862:Generated_Source\PSoC4/I2C_I2C_MASTER.c ****     I2C_mstrStatus    &= (uint16) ~I2C_I2C_MSTAT_RD_CMPLT;
 621              		.loc 1 862 0
 622 000a 0121     		movs	r1, #1
 861:Generated_Source\PSoC4/I2C_I2C_MASTER.c ****     I2C_mstrStatus    &= (uint16) ~I2C_I2C_MSTAT_RD_CMPLT;
 623              		.loc 1 861 0
 624 000c 044B     		ldr	r3, .L73
 863:Generated_Source\PSoC4/I2C_I2C_MASTER.c **** 
 864:Generated_Source\PSoC4/I2C_I2C_MASTER.c ****     I2C_EnableInt();   /* Release lock */
 625              		.loc 1 864 0
 626 000e 0820     		movs	r0, #8
 861:Generated_Source\PSoC4/I2C_I2C_MASTER.c ****     I2C_mstrStatus    &= (uint16) ~I2C_I2C_MSTAT_RD_CMPLT;
 627              		.loc 1 861 0
 628 0010 1A60     		str	r2, [r3]
 862:Generated_Source\PSoC4/I2C_I2C_MASTER.c **** 
 629              		.loc 1 862 0
 630 0012 044A     		ldr	r2, .L73+4
 865:Generated_Source\PSoC4/I2C_I2C_MASTER.c **** }
 631              		.loc 1 865 0
 632              		@ sp needed
 862:Generated_Source\PSoC4/I2C_I2C_MASTER.c **** 
 633              		.loc 1 862 0
 634 0014 1388     		ldrh	r3, [r2]
 635 0016 8B43     		bics	r3, r1
 636 0018 1380     		strh	r3, [r2]
 864:Generated_Source\PSoC4/I2C_I2C_MASTER.c **** }
 637              		.loc 1 864 0
ARM GAS  C:\Users\Greg\AppData\Local\Temp\cc742Y6h.s 			page 28


 638 001a FFF7FEFF 		bl	CyIntEnable
 639              	.LVL34:
 640              		.loc 1 865 0
 641 001e 10BD     		pop	{r4, pc}
 642              	.L74:
 643              		.align	2
 644              	.L73:
 645 0020 00000000 		.word	I2C_mstrRdBufIndex
 646 0024 00000000 		.word	I2C_mstrStatus
 647              		.cfi_endproc
 648              	.LFE10:
 649              		.size	I2C_I2CMasterClearReadBuf, .-I2C_I2CMasterClearReadBuf
 650              		.section	.text.I2C_I2CMasterClearWriteBuf,"ax",%progbits
 651              		.align	1
 652              		.global	I2C_I2CMasterClearWriteBuf
 653              		.code	16
 654              		.thumb_func
 655              		.type	I2C_I2CMasterClearWriteBuf, %function
 656              	I2C_I2CMasterClearWriteBuf:
 657              	.LFB11:
 866:Generated_Source\PSoC4/I2C_I2C_MASTER.c **** 
 867:Generated_Source\PSoC4/I2C_I2C_MASTER.c **** 
 868:Generated_Source\PSoC4/I2C_I2C_MASTER.c **** /*******************************************************************************
 869:Generated_Source\PSoC4/I2C_I2C_MASTER.c **** * Function Name: I2C_I2CMasterClearWriteBuf
 870:Generated_Source\PSoC4/I2C_I2C_MASTER.c **** ****************************************************************************//**
 871:Generated_Source\PSoC4/I2C_I2C_MASTER.c **** *
 872:Generated_Source\PSoC4/I2C_I2C_MASTER.c **** *  Resets the write buffer pointer back to the first byte in the buffer.
 873:Generated_Source\PSoC4/I2C_I2C_MASTER.c **** *
 874:Generated_Source\PSoC4/I2C_I2C_MASTER.c **** * \globalvars
 875:Generated_Source\PSoC4/I2C_I2C_MASTER.c **** *  I2C_mstrRdBufIndex - used to current index within master read
 876:Generated_Source\PSoC4/I2C_I2C_MASTER.c **** *   buffer.
 877:Generated_Source\PSoC4/I2C_I2C_MASTER.c **** *  I2C_mstrStatus - used to store current status of I2C Master.
 878:Generated_Source\PSoC4/I2C_I2C_MASTER.c **** *
 879:Generated_Source\PSoC4/I2C_I2C_MASTER.c **** *******************************************************************************/
 880:Generated_Source\PSoC4/I2C_I2C_MASTER.c **** void I2C_I2CMasterClearWriteBuf(void)
 881:Generated_Source\PSoC4/I2C_I2C_MASTER.c **** {
 658              		.loc 1 881 0
 659              		.cfi_startproc
 660              		@ args = 0, pretend = 0, frame = 0
 661              		@ frame_needed = 0, uses_anonymous_args = 0
 662 0000 10B5     		push	{r4, lr}
 663              		.cfi_def_cfa_offset 8
 664              		.cfi_offset 4, -8
 665              		.cfi_offset 14, -4
 882:Generated_Source\PSoC4/I2C_I2C_MASTER.c ****     I2C_DisableInt();  /* Lock from interruption */
 666              		.loc 1 882 0
 667 0002 0820     		movs	r0, #8
 668 0004 FFF7FEFF 		bl	CyIntDisable
 669              	.LVL35:
 883:Generated_Source\PSoC4/I2C_I2C_MASTER.c **** 
 884:Generated_Source\PSoC4/I2C_I2C_MASTER.c ****     I2C_mstrWrBufIndex = 0u;
 670              		.loc 1 884 0
 671 0008 0022     		movs	r2, #0
 885:Generated_Source\PSoC4/I2C_I2C_MASTER.c ****     I2C_mstrStatus    &= (uint16) ~I2C_I2C_MSTAT_WR_CMPLT;
 672              		.loc 1 885 0
 673 000a 0221     		movs	r1, #2
 884:Generated_Source\PSoC4/I2C_I2C_MASTER.c ****     I2C_mstrStatus    &= (uint16) ~I2C_I2C_MSTAT_WR_CMPLT;
ARM GAS  C:\Users\Greg\AppData\Local\Temp\cc742Y6h.s 			page 29


 674              		.loc 1 884 0
 675 000c 044B     		ldr	r3, .L76
 886:Generated_Source\PSoC4/I2C_I2C_MASTER.c **** 
 887:Generated_Source\PSoC4/I2C_I2C_MASTER.c ****     I2C_EnableInt();   /* Release lock */
 676              		.loc 1 887 0
 677 000e 0820     		movs	r0, #8
 884:Generated_Source\PSoC4/I2C_I2C_MASTER.c ****     I2C_mstrStatus    &= (uint16) ~I2C_I2C_MSTAT_WR_CMPLT;
 678              		.loc 1 884 0
 679 0010 1A60     		str	r2, [r3]
 885:Generated_Source\PSoC4/I2C_I2C_MASTER.c **** 
 680              		.loc 1 885 0
 681 0012 044A     		ldr	r2, .L76+4
 888:Generated_Source\PSoC4/I2C_I2C_MASTER.c **** }
 682              		.loc 1 888 0
 683              		@ sp needed
 885:Generated_Source\PSoC4/I2C_I2C_MASTER.c **** 
 684              		.loc 1 885 0
 685 0014 1388     		ldrh	r3, [r2]
 686 0016 8B43     		bics	r3, r1
 687 0018 1380     		strh	r3, [r2]
 887:Generated_Source\PSoC4/I2C_I2C_MASTER.c **** }
 688              		.loc 1 887 0
 689 001a FFF7FEFF 		bl	CyIntEnable
 690              	.LVL36:
 691              		.loc 1 888 0
 692 001e 10BD     		pop	{r4, pc}
 693              	.L77:
 694              		.align	2
 695              	.L76:
 696 0020 00000000 		.word	I2C_mstrWrBufIndex
 697 0024 00000000 		.word	I2C_mstrStatus
 698              		.cfi_endproc
 699              	.LFE11:
 700              		.size	I2C_I2CMasterClearWriteBuf, .-I2C_I2CMasterClearWriteBuf
 701              		.section	.text.I2C_I2CMasterStatus,"ax",%progbits
 702              		.align	1
 703              		.global	I2C_I2CMasterStatus
 704              		.code	16
 705              		.thumb_func
 706              		.type	I2C_I2CMasterStatus, %function
 707              	I2C_I2CMasterStatus:
 708              	.LFB12:
 889:Generated_Source\PSoC4/I2C_I2C_MASTER.c **** 
 890:Generated_Source\PSoC4/I2C_I2C_MASTER.c **** 
 891:Generated_Source\PSoC4/I2C_I2C_MASTER.c **** /*******************************************************************************
 892:Generated_Source\PSoC4/I2C_I2C_MASTER.c **** * Function Name: I2C_I2CMasterStatus
 893:Generated_Source\PSoC4/I2C_I2C_MASTER.c **** ****************************************************************************//**
 894:Generated_Source\PSoC4/I2C_I2C_MASTER.c **** *
 895:Generated_Source\PSoC4/I2C_I2C_MASTER.c **** *  Returns the master's communication status.
 896:Generated_Source\PSoC4/I2C_I2C_MASTER.c **** *
 897:Generated_Source\PSoC4/I2C_I2C_MASTER.c **** * \return
 898:Generated_Source\PSoC4/I2C_I2C_MASTER.c **** *  Current status of I2C master. This status incorporates status constants. 
 899:Generated_Source\PSoC4/I2C_I2C_MASTER.c **** *  Each constant is a bit field value. The value returned may have multiple 
 900:Generated_Source\PSoC4/I2C_I2C_MASTER.c **** *  bits set to indicate the status of the read or write transfer.
 901:Generated_Source\PSoC4/I2C_I2C_MASTER.c **** *  - I2C_I2C_MSTAT_RD_CMPLT - Read transfer complete.
 902:Generated_Source\PSoC4/I2C_I2C_MASTER.c **** *    The error condition status bits must be checked to ensure that 
 903:Generated_Source\PSoC4/I2C_I2C_MASTER.c **** *    read transfer was completed successfully.
ARM GAS  C:\Users\Greg\AppData\Local\Temp\cc742Y6h.s 			page 30


 904:Generated_Source\PSoC4/I2C_I2C_MASTER.c **** *  - I2C_I2C_MSTAT_WR_CMPLT - Write transfer complete.
 905:Generated_Source\PSoC4/I2C_I2C_MASTER.c **** *    The error condition status bits must be checked to ensure that write 
 906:Generated_Source\PSoC4/I2C_I2C_MASTER.c **** *    transfer was completed successfully.
 907:Generated_Source\PSoC4/I2C_I2C_MASTER.c **** *  - I2C_I2C_MSTAT_XFER_INP - Transfer in progress.
 908:Generated_Source\PSoC4/I2C_I2C_MASTER.c **** *  - I2C_I2C_MSTAT_XFER_HALT - Transfer has been halted. 
 909:Generated_Source\PSoC4/I2C_I2C_MASTER.c **** *    The I2C bus is waiting for ReStart or Stop condition generation.
 910:Generated_Source\PSoC4/I2C_I2C_MASTER.c **** *  - I2C_I2C_MSTAT_ERR_SHORT_XFER - Error condition: Write 
 911:Generated_Source\PSoC4/I2C_I2C_MASTER.c **** *    transfer completed before all bytes were transferred. The slave NAKed 
 912:Generated_Source\PSoC4/I2C_I2C_MASTER.c **** *    the byte which was expected to be ACKed.
 913:Generated_Source\PSoC4/I2C_I2C_MASTER.c **** *  - I2C_I2C_MSTAT_ERR_ADDR_NAK - Error condition: Slave did 
 914:Generated_Source\PSoC4/I2C_I2C_MASTER.c **** *    not acknowledge address.
 915:Generated_Source\PSoC4/I2C_I2C_MASTER.c **** *  - I2C_I2C_MSTAT_ERR_ARB_LOST - Error condition: Master lost 
 916:Generated_Source\PSoC4/I2C_I2C_MASTER.c **** *    arbitration during communications with slave.
 917:Generated_Source\PSoC4/I2C_I2C_MASTER.c **** *  - I2C_I2C_MSTAT_ERR_BUS_ERROR - Error condition: bus error 
 918:Generated_Source\PSoC4/I2C_I2C_MASTER.c **** *    occurred during master transfer due to misplaced Start or Stop 
 919:Generated_Source\PSoC4/I2C_I2C_MASTER.c **** *    condition on the bus.
 920:Generated_Source\PSoC4/I2C_I2C_MASTER.c **** *  - I2C_I2C_MSTAT_ERR_ABORT_XFER - Error condition: Slave was 
 921:Generated_Source\PSoC4/I2C_I2C_MASTER.c **** *    addressed by another master while master performed the start condition 
 922:Generated_Source\PSoC4/I2C_I2C_MASTER.c **** *    generation. As a result, master has automatically switched to slave 
 923:Generated_Source\PSoC4/I2C_I2C_MASTER.c **** *    mode and is responding. The master transaction has not taken place
 924:Generated_Source\PSoC4/I2C_I2C_MASTER.c **** *    This error condition only applicable for Multi-Master-Slave mode.
 925:Generated_Source\PSoC4/I2C_I2C_MASTER.c **** *  - I2C_I2C_MSTAT_ERR_XFER - Error condition: This is the 
 926:Generated_Source\PSoC4/I2C_I2C_MASTER.c **** *    ORed value of all error conditions provided above.
 927:Generated_Source\PSoC4/I2C_I2C_MASTER.c **** *
 928:Generated_Source\PSoC4/I2C_I2C_MASTER.c **** * \globalvars
 929:Generated_Source\PSoC4/I2C_I2C_MASTER.c **** *  I2C_mstrStatus - used to store current status of I2C Master.
 930:Generated_Source\PSoC4/I2C_I2C_MASTER.c **** *
 931:Generated_Source\PSoC4/I2C_I2C_MASTER.c **** *******************************************************************************/
 932:Generated_Source\PSoC4/I2C_I2C_MASTER.c **** uint32 I2C_I2CMasterStatus(void)
 933:Generated_Source\PSoC4/I2C_I2C_MASTER.c **** {
 709              		.loc 1 933 0
 710              		.cfi_startproc
 711              		@ args = 0, pretend = 0, frame = 0
 712              		@ frame_needed = 0, uses_anonymous_args = 0
 713 0000 10B5     		push	{r4, lr}
 714              		.cfi_def_cfa_offset 8
 715              		.cfi_offset 4, -8
 716              		.cfi_offset 14, -4
 934:Generated_Source\PSoC4/I2C_I2C_MASTER.c ****     uint32 status;
 935:Generated_Source\PSoC4/I2C_I2C_MASTER.c **** 
 936:Generated_Source\PSoC4/I2C_I2C_MASTER.c ****     I2C_DisableInt();  /* Lock from interruption */
 717              		.loc 1 936 0
 718 0002 0820     		movs	r0, #8
 719 0004 FFF7FEFF 		bl	CyIntDisable
 720              	.LVL37:
 937:Generated_Source\PSoC4/I2C_I2C_MASTER.c **** 
 938:Generated_Source\PSoC4/I2C_I2C_MASTER.c ****     status = (uint32) I2C_mstrStatus;
 721              		.loc 1 938 0
 722 0008 064B     		ldr	r3, .L81
 723 000a 1C88     		ldrh	r4, [r3]
 939:Generated_Source\PSoC4/I2C_I2C_MASTER.c **** 
 940:Generated_Source\PSoC4/I2C_I2C_MASTER.c ****     if (I2C_CHECK_I2C_MASTER_ACTIVE)
 724              		.loc 1 940 0
 725 000c 064B     		ldr	r3, .L81+4
 938:Generated_Source\PSoC4/I2C_I2C_MASTER.c **** 
 726              		.loc 1 938 0
 727 000e A4B2     		uxth	r4, r4
ARM GAS  C:\Users\Greg\AppData\Local\Temp\cc742Y6h.s 			page 31


 728              	.LVL38:
 729              		.loc 1 940 0
 730 0010 1B78     		ldrb	r3, [r3]
 731 0012 9B06     		lsls	r3, r3, #26
 732 0014 01D5     		bpl	.L80
 941:Generated_Source\PSoC4/I2C_I2C_MASTER.c ****     {
 942:Generated_Source\PSoC4/I2C_I2C_MASTER.c ****         /* Add status of master pending transaction: MSTAT_XFER_INP */
 943:Generated_Source\PSoC4/I2C_I2C_MASTER.c ****         status |= (uint32) I2C_I2C_MSTAT_XFER_INP;
 733              		.loc 1 943 0
 734 0016 0423     		movs	r3, #4
 735 0018 1C43     		orrs	r4, r3
 736              	.LVL39:
 737              	.L80:
 944:Generated_Source\PSoC4/I2C_I2C_MASTER.c ****     }
 945:Generated_Source\PSoC4/I2C_I2C_MASTER.c **** 
 946:Generated_Source\PSoC4/I2C_I2C_MASTER.c ****     I2C_EnableInt();   /* Release lock */
 738              		.loc 1 946 0
 739 001a 0820     		movs	r0, #8
 740 001c FFF7FEFF 		bl	CyIntEnable
 741              	.LVL40:
 947:Generated_Source\PSoC4/I2C_I2C_MASTER.c **** 
 948:Generated_Source\PSoC4/I2C_I2C_MASTER.c ****     return(status);
 949:Generated_Source\PSoC4/I2C_I2C_MASTER.c **** }
 742              		.loc 1 949 0
 743              		@ sp needed
 744 0020 2000     		movs	r0, r4
 745              	.LVL41:
 746 0022 10BD     		pop	{r4, pc}
 747              	.L82:
 748              		.align	2
 749              	.L81:
 750 0024 00000000 		.word	I2C_mstrStatus
 751 0028 00000000 		.word	I2C_state
 752              		.cfi_endproc
 753              	.LFE12:
 754              		.size	I2C_I2CMasterStatus, .-I2C_I2CMasterStatus
 755              		.section	.text.I2C_I2CMasterClearStatus,"ax",%progbits
 756              		.align	1
 757              		.global	I2C_I2CMasterClearStatus
 758              		.code	16
 759              		.thumb_func
 760              		.type	I2C_I2CMasterClearStatus, %function
 761              	I2C_I2CMasterClearStatus:
 762              	.LFB13:
 950:Generated_Source\PSoC4/I2C_I2C_MASTER.c **** 
 951:Generated_Source\PSoC4/I2C_I2C_MASTER.c **** 
 952:Generated_Source\PSoC4/I2C_I2C_MASTER.c **** /*******************************************************************************
 953:Generated_Source\PSoC4/I2C_I2C_MASTER.c **** * Function Name: I2C_I2CMasterClearStatus
 954:Generated_Source\PSoC4/I2C_I2C_MASTER.c **** ****************************************************************************//**
 955:Generated_Source\PSoC4/I2C_I2C_MASTER.c **** *
 956:Generated_Source\PSoC4/I2C_I2C_MASTER.c **** *  Clears all status flags and returns the master status.
 957:Generated_Source\PSoC4/I2C_I2C_MASTER.c **** *
 958:Generated_Source\PSoC4/I2C_I2C_MASTER.c **** * \return
 959:Generated_Source\PSoC4/I2C_I2C_MASTER.c **** *  Current status of master. See the I2C_I2CMasterStatus() 
 960:Generated_Source\PSoC4/I2C_I2C_MASTER.c **** *  function for constants.
 961:Generated_Source\PSoC4/I2C_I2C_MASTER.c **** *
 962:Generated_Source\PSoC4/I2C_I2C_MASTER.c **** * \globalvars
ARM GAS  C:\Users\Greg\AppData\Local\Temp\cc742Y6h.s 			page 32


 963:Generated_Source\PSoC4/I2C_I2C_MASTER.c **** *  I2C_mstrStatus - used to store current status of I2C Master.
 964:Generated_Source\PSoC4/I2C_I2C_MASTER.c **** *
 965:Generated_Source\PSoC4/I2C_I2C_MASTER.c **** *******************************************************************************/
 966:Generated_Source\PSoC4/I2C_I2C_MASTER.c **** uint32 I2C_I2CMasterClearStatus(void)
 967:Generated_Source\PSoC4/I2C_I2C_MASTER.c **** {
 763              		.loc 1 967 0
 764              		.cfi_startproc
 765              		@ args = 0, pretend = 0, frame = 0
 766              		@ frame_needed = 0, uses_anonymous_args = 0
 767 0000 10B5     		push	{r4, lr}
 768              		.cfi_def_cfa_offset 8
 769              		.cfi_offset 4, -8
 770              		.cfi_offset 14, -4
 968:Generated_Source\PSoC4/I2C_I2C_MASTER.c ****     uint32 status;
 969:Generated_Source\PSoC4/I2C_I2C_MASTER.c **** 
 970:Generated_Source\PSoC4/I2C_I2C_MASTER.c ****     I2C_DisableInt();  /* Lock from interruption */
 771              		.loc 1 970 0
 772 0002 0820     		movs	r0, #8
 773 0004 FFF7FEFF 		bl	CyIntDisable
 774              	.LVL42:
 971:Generated_Source\PSoC4/I2C_I2C_MASTER.c **** 
 972:Generated_Source\PSoC4/I2C_I2C_MASTER.c ****     /* Read and clear master status */
 973:Generated_Source\PSoC4/I2C_I2C_MASTER.c ****     status = (uint32) I2C_mstrStatus;
 974:Generated_Source\PSoC4/I2C_I2C_MASTER.c ****     I2C_mstrStatus = I2C_I2C_MSTAT_CLEAR;
 775              		.loc 1 974 0
 776 0008 0022     		movs	r2, #0
 973:Generated_Source\PSoC4/I2C_I2C_MASTER.c ****     I2C_mstrStatus = I2C_I2C_MSTAT_CLEAR;
 777              		.loc 1 973 0
 778 000a 044B     		ldr	r3, .L84
 975:Generated_Source\PSoC4/I2C_I2C_MASTER.c **** 
 976:Generated_Source\PSoC4/I2C_I2C_MASTER.c ****     I2C_EnableInt();   /* Release lock */
 779              		.loc 1 976 0
 780 000c 0820     		movs	r0, #8
 973:Generated_Source\PSoC4/I2C_I2C_MASTER.c ****     I2C_mstrStatus = I2C_I2C_MSTAT_CLEAR;
 781              		.loc 1 973 0
 782 000e 1C88     		ldrh	r4, [r3]
 977:Generated_Source\PSoC4/I2C_I2C_MASTER.c **** 
 978:Generated_Source\PSoC4/I2C_I2C_MASTER.c ****     return(status);
 979:Generated_Source\PSoC4/I2C_I2C_MASTER.c **** }
 783              		.loc 1 979 0
 784              		@ sp needed
 973:Generated_Source\PSoC4/I2C_I2C_MASTER.c ****     I2C_mstrStatus = I2C_I2C_MSTAT_CLEAR;
 785              		.loc 1 973 0
 786 0010 A4B2     		uxth	r4, r4
 787              	.LVL43:
 974:Generated_Source\PSoC4/I2C_I2C_MASTER.c **** 
 788              		.loc 1 974 0
 789 0012 1A80     		strh	r2, [r3]
 976:Generated_Source\PSoC4/I2C_I2C_MASTER.c **** 
 790              		.loc 1 976 0
 791 0014 FFF7FEFF 		bl	CyIntEnable
 792              	.LVL44:
 793              		.loc 1 979 0
 794 0018 2000     		movs	r0, r4
 795              	.LVL45:
 796 001a 10BD     		pop	{r4, pc}
 797              	.L85:
ARM GAS  C:\Users\Greg\AppData\Local\Temp\cc742Y6h.s 			page 33


 798              		.align	2
 799              	.L84:
 800 001c 00000000 		.word	I2C_mstrStatus
 801              		.cfi_endproc
 802              	.LFE13:
 803              		.size	I2C_I2CMasterClearStatus, .-I2C_I2CMasterClearStatus
 804              		.section	.text.I2C_I2CReStartGeneration,"ax",%progbits
 805              		.align	1
 806              		.global	I2C_I2CReStartGeneration
 807              		.code	16
 808              		.thumb_func
 809              		.type	I2C_I2CReStartGeneration, %function
 810              	I2C_I2CReStartGeneration:
 811              	.LFB14:
 980:Generated_Source\PSoC4/I2C_I2C_MASTER.c **** 
 981:Generated_Source\PSoC4/I2C_I2C_MASTER.c **** 
 982:Generated_Source\PSoC4/I2C_I2C_MASTER.c **** /*******************************************************************************
 983:Generated_Source\PSoC4/I2C_I2C_MASTER.c **** * Function Name: I2C_I2CReStartGeneration
 984:Generated_Source\PSoC4/I2C_I2C_MASTER.c **** ****************************************************************************//**
 985:Generated_Source\PSoC4/I2C_I2C_MASTER.c **** *
 986:Generated_Source\PSoC4/I2C_I2C_MASTER.c **** *  Generates a ReStart condition:
 987:Generated_Source\PSoC4/I2C_I2C_MASTER.c **** *  - SCB IP V1 and later: Generates ReStart using the scb IP functionality
 988:Generated_Source\PSoC4/I2C_I2C_MASTER.c **** *    Sets the I2C_MASTER_CMD_M_START and I2C_MASTER_CMD_M_NACK (if the previous
 989:Generated_Source\PSoC4/I2C_I2C_MASTER.c **** *    transaction was read) bits in the SCB.I2C_MASTER_CMD register.
 990:Generated_Source\PSoC4/I2C_I2C_MASTER.c **** *    This combination forces the master to generate ReStart.
 991:Generated_Source\PSoC4/I2C_I2C_MASTER.c **** *
 992:Generated_Source\PSoC4/I2C_I2C_MASTER.c **** *  - SCB IP V0: Generates Restart using the GPIO and scb IP functionality.
 993:Generated_Source\PSoC4/I2C_I2C_MASTER.c **** *    After the master completes write or read, the SCL is stretched.
 994:Generated_Source\PSoC4/I2C_I2C_MASTER.c **** *    The master waits until SDA line is released by the slave. Then the GPIO
 995:Generated_Source\PSoC4/I2C_I2C_MASTER.c **** *    function is enabled and the scb IP disabled as it already does not drive
 996:Generated_Source\PSoC4/I2C_I2C_MASTER.c **** *    the bus. In case of the previous transfer was read, the NACK is generated
 997:Generated_Source\PSoC4/I2C_I2C_MASTER.c **** *    by the GPIO. The delay of tLOW is added to manage the hold time.
 998:Generated_Source\PSoC4/I2C_I2C_MASTER.c **** *    Set I2C_M_CMD.START and enable the scb IP. The ReStart generation
 999:Generated_Source\PSoC4/I2C_I2C_MASTER.c **** *    is started after the I2C function is enabled for the SCL.
1000:Generated_Source\PSoC4/I2C_I2C_MASTER.c **** *    Note1: the scb IP due re-enable generates Start but on the I2C bus it
1001:Generated_Source\PSoC4/I2C_I2C_MASTER.c **** *           appears as ReStart.
1002:Generated_Source\PSoC4/I2C_I2C_MASTER.c **** *    Note2: the I2C_M_CMD.START is queued if scb IP is disabled.
1003:Generated_Source\PSoC4/I2C_I2C_MASTER.c **** *    Note3: the I2C_STATUS_M_READ is cleared is address was NACKed before.
1004:Generated_Source\PSoC4/I2C_I2C_MASTER.c **** *
1005:Generated_Source\PSoC4/I2C_I2C_MASTER.c **** * \sideeffect
1006:Generated_Source\PSoC4/I2C_I2C_MASTER.c **** *  SCB IP V0: The NACK generation by the GPIO may cause a greater SCL period
1007:Generated_Source\PSoC4/I2C_I2C_MASTER.c **** *             than expected for the selected master data rate.
1008:Generated_Source\PSoC4/I2C_I2C_MASTER.c **** *
1009:Generated_Source\PSoC4/I2C_I2C_MASTER.c **** *******************************************************************************/
1010:Generated_Source\PSoC4/I2C_I2C_MASTER.c **** void I2C_I2CReStartGeneration(void)
1011:Generated_Source\PSoC4/I2C_I2C_MASTER.c **** {
 812              		.loc 1 1011 0
 813              		.cfi_startproc
 814              		@ args = 0, pretend = 0, frame = 0
 815              		@ frame_needed = 0, uses_anonymous_args = 0
 816              		@ link register save eliminated.
 817              	.LVL46:
1012:Generated_Source\PSoC4/I2C_I2C_MASTER.c **** #if(I2C_CY_SCBIP_V0)
1013:Generated_Source\PSoC4/I2C_I2C_MASTER.c ****     /* Generates Restart use GPIO and scb IP functionality. Ticket ID#143715,
1014:Generated_Source\PSoC4/I2C_I2C_MASTER.c ****     * ID#145238 and ID#173656.
1015:Generated_Source\PSoC4/I2C_I2C_MASTER.c ****     */
1016:Generated_Source\PSoC4/I2C_I2C_MASTER.c ****     uint32 status = I2C_I2C_STATUS_REG;
ARM GAS  C:\Users\Greg\AppData\Local\Temp\cc742Y6h.s 			page 34


1017:Generated_Source\PSoC4/I2C_I2C_MASTER.c **** 
1018:Generated_Source\PSoC4/I2C_I2C_MASTER.c ****     while(I2C_WAIT_SDA_SET_HIGH)
1019:Generated_Source\PSoC4/I2C_I2C_MASTER.c ****     {
1020:Generated_Source\PSoC4/I2C_I2C_MASTER.c ****         /* Wait when slave release SDA line: SCL tHIGH is complete */
1021:Generated_Source\PSoC4/I2C_I2C_MASTER.c ****     }
1022:Generated_Source\PSoC4/I2C_I2C_MASTER.c **** 
1023:Generated_Source\PSoC4/I2C_I2C_MASTER.c ****     /* Prepare DR register to drive SCL line */
1024:Generated_Source\PSoC4/I2C_I2C_MASTER.c ****     I2C_SET_I2C_SCL_DR(I2C_I2C_SCL_LOW);
1025:Generated_Source\PSoC4/I2C_I2C_MASTER.c **** 
1026:Generated_Source\PSoC4/I2C_I2C_MASTER.c ****     /* Switch HSIOM to GPIO: SCL goes low */
1027:Generated_Source\PSoC4/I2C_I2C_MASTER.c ****     I2C_SET_I2C_SCL_HSIOM_SEL(I2C_HSIOM_GPIO_SEL);
1028:Generated_Source\PSoC4/I2C_I2C_MASTER.c **** 
1029:Generated_Source\PSoC4/I2C_I2C_MASTER.c ****     /* Disable SCB block */
1030:Generated_Source\PSoC4/I2C_I2C_MASTER.c ****     I2C_CTRL_REG &= (uint32) ~I2C_CTRL_ENABLED;
1031:Generated_Source\PSoC4/I2C_I2C_MASTER.c **** 
1032:Generated_Source\PSoC4/I2C_I2C_MASTER.c ****     if(0u != (status & I2C_I2C_STATUS_M_READ))
1033:Generated_Source\PSoC4/I2C_I2C_MASTER.c ****     {
1034:Generated_Source\PSoC4/I2C_I2C_MASTER.c ****         /* Generate NACK use GPIO functionality */
1035:Generated_Source\PSoC4/I2C_I2C_MASTER.c ****         I2C_SET_I2C_SCL_DR(I2C_I2C_SCL_LOW);
1036:Generated_Source\PSoC4/I2C_I2C_MASTER.c ****         CyDelayUs(I2C_I2C_TLOW_TIME); /* Count tLOW */
1037:Generated_Source\PSoC4/I2C_I2C_MASTER.c **** 
1038:Generated_Source\PSoC4/I2C_I2C_MASTER.c ****         I2C_SET_I2C_SCL_DR(I2C_I2C_SCL_HIGH);
1039:Generated_Source\PSoC4/I2C_I2C_MASTER.c ****         while(I2C_WAIT_SCL_SET_HIGH)
1040:Generated_Source\PSoC4/I2C_I2C_MASTER.c ****         {
1041:Generated_Source\PSoC4/I2C_I2C_MASTER.c ****             /* Wait until slave releases SCL in case if it stretches */
1042:Generated_Source\PSoC4/I2C_I2C_MASTER.c ****         }
1043:Generated_Source\PSoC4/I2C_I2C_MASTER.c ****         CyDelayUs(I2C_I2C_THIGH_TIME); /* Count tHIGH */
1044:Generated_Source\PSoC4/I2C_I2C_MASTER.c ****     }
1045:Generated_Source\PSoC4/I2C_I2C_MASTER.c **** 
1046:Generated_Source\PSoC4/I2C_I2C_MASTER.c ****     /* Count tLOW as hold time for write and read */
1047:Generated_Source\PSoC4/I2C_I2C_MASTER.c ****     I2C_SET_I2C_SCL_DR(I2C_I2C_SCL_LOW);
1048:Generated_Source\PSoC4/I2C_I2C_MASTER.c ****     CyDelayUs(I2C_I2C_TLOW_TIME); /* Count tLOW */
1049:Generated_Source\PSoC4/I2C_I2C_MASTER.c **** 
1050:Generated_Source\PSoC4/I2C_I2C_MASTER.c ****     /* Set command for Start generation: it will appear */
1051:Generated_Source\PSoC4/I2C_I2C_MASTER.c ****     I2C_I2C_MASTER_CMD_REG = I2C_I2C_MASTER_CMD_M_START;
1052:Generated_Source\PSoC4/I2C_I2C_MASTER.c **** 
1053:Generated_Source\PSoC4/I2C_I2C_MASTER.c ****     /* Enable SCB block */
1054:Generated_Source\PSoC4/I2C_I2C_MASTER.c ****     I2C_CTRL_REG |= (uint32) I2C_CTRL_ENABLED;
1055:Generated_Source\PSoC4/I2C_I2C_MASTER.c **** 
1056:Generated_Source\PSoC4/I2C_I2C_MASTER.c ****     /* Switch HSIOM to I2C: */
1057:Generated_Source\PSoC4/I2C_I2C_MASTER.c ****     I2C_SET_I2C_SCL_HSIOM_SEL(I2C_HSIOM_I2C_SEL);
1058:Generated_Source\PSoC4/I2C_I2C_MASTER.c **** 
1059:Generated_Source\PSoC4/I2C_I2C_MASTER.c ****     /* Revert SCL DR register */
1060:Generated_Source\PSoC4/I2C_I2C_MASTER.c ****     I2C_SET_I2C_SCL_DR(I2C_I2C_SCL_HIGH);
1061:Generated_Source\PSoC4/I2C_I2C_MASTER.c **** #else
1062:Generated_Source\PSoC4/I2C_I2C_MASTER.c ****     uint32 cmd;
1063:Generated_Source\PSoC4/I2C_I2C_MASTER.c **** 
1064:Generated_Source\PSoC4/I2C_I2C_MASTER.c ****     /* Generates ReStart use scb IP functionality */
1065:Generated_Source\PSoC4/I2C_I2C_MASTER.c ****     cmd  = I2C_I2C_MASTER_CMD_M_START;
1066:Generated_Source\PSoC4/I2C_I2C_MASTER.c ****     cmd |= I2C_CHECK_I2C_STATUS(I2C_I2C_STATUS_M_READ) ?
 818              		.loc 1 1066 0
 819 0000 054B     		ldr	r3, .L89
 820 0002 1A68     		ldr	r2, [r3]
 821 0004 2023     		movs	r3, #32
 822 0006 1340     		ands	r3, r2
1067:Generated_Source\PSoC4/I2C_I2C_MASTER.c ****                 (I2C_I2C_MASTER_CMD_M_NACK) : (0u);
 823              		.loc 1 1067 0
ARM GAS  C:\Users\Greg\AppData\Local\Temp\cc742Y6h.s 			page 35


 824 0008 00D0     		beq	.L87
 825 000a 0823     		movs	r3, #8
 826              	.L87:
1066:Generated_Source\PSoC4/I2C_I2C_MASTER.c ****                 (I2C_I2C_MASTER_CMD_M_NACK) : (0u);
 827              		.loc 1 1066 0 discriminator 4
 828 000c 0122     		movs	r2, #1
 829 000e 1343     		orrs	r3, r2
 830              	.LVL47:
1068:Generated_Source\PSoC4/I2C_I2C_MASTER.c **** 
1069:Generated_Source\PSoC4/I2C_I2C_MASTER.c ****     I2C_I2C_MASTER_CMD_REG = cmd;
 831              		.loc 1 1069 0 discriminator 4
 832 0010 024A     		ldr	r2, .L89+4
1070:Generated_Source\PSoC4/I2C_I2C_MASTER.c **** #endif /* (I2C_CY_SCBIP_V1) */
1071:Generated_Source\PSoC4/I2C_I2C_MASTER.c **** }
 833              		.loc 1 1071 0 discriminator 4
 834              		@ sp needed
1069:Generated_Source\PSoC4/I2C_I2C_MASTER.c **** #endif /* (I2C_CY_SCBIP_V1) */
 835              		.loc 1 1069 0 discriminator 4
 836 0012 1360     		str	r3, [r2]
 837              		.loc 1 1071 0 discriminator 4
 838 0014 7047     		bx	lr
 839              	.L90:
 840 0016 C046     		.align	2
 841              	.L89:
 842 0018 64002440 		.word	1076101220
 843 001c 68002440 		.word	1076101224
 844              		.cfi_endproc
 845              	.LFE14:
 846              		.size	I2C_I2CReStartGeneration, .-I2C_I2CReStartGeneration
 847              		.section	.text.I2C_I2CMasterWriteBuf,"ax",%progbits
 848              		.align	1
 849              		.global	I2C_I2CMasterWriteBuf
 850              		.code	16
 851              		.thumb_func
 852              		.type	I2C_I2CMasterWriteBuf, %function
 853              	I2C_I2CMasterWriteBuf:
 854              	.LFB1:
  99:Generated_Source\PSoC4/I2C_I2C_MASTER.c ****     uint32 errStatus;
 855              		.loc 1 99 0
 856              		.cfi_startproc
 857              		@ args = 0, pretend = 0, frame = 8
 858              		@ frame_needed = 0, uses_anonymous_args = 0
 859              	.LVL48:
 860 0000 F7B5     		push	{r0, r1, r2, r4, r5, r6, r7, lr}
 861              		.cfi_def_cfa_offset 32
 862              		.cfi_offset 0, -32
 863              		.cfi_offset 1, -28
 864              		.cfi_offset 2, -24
 865              		.cfi_offset 4, -20
 866              		.cfi_offset 5, -16
 867              		.cfi_offset 6, -12
 868              		.cfi_offset 7, -8
 869              		.cfi_offset 14, -4
  99:Generated_Source\PSoC4/I2C_I2C_MASTER.c ****     uint32 errStatus;
 870              		.loc 1 99 0
 871 0002 0600     		movs	r6, r0
 872 0004 0F00     		movs	r7, r1
ARM GAS  C:\Users\Greg\AppData\Local\Temp\cc742Y6h.s 			page 36


 873 0006 0192     		str	r2, [sp, #4]
 874 0008 0093     		str	r3, [sp]
 102:Generated_Source\PSoC4/I2C_I2C_MASTER.c **** 
 875              		.loc 1 102 0
 876 000a 0424     		movs	r4, #4
 104:Generated_Source\PSoC4/I2C_I2C_MASTER.c ****     {
 877              		.loc 1 104 0
 878 000c 0029     		cmp	r1, #0
 879 000e 44D0     		beq	.L95
 107:Generated_Source\PSoC4/I2C_I2C_MASTER.c ****         {
 880              		.loc 1 107 0
 881 0010 244D     		ldr	r5, .L103
 882 0012 2B78     		ldrb	r3, [r5]
 883              	.LVL49:
 884 0014 102B     		cmp	r3, #16
 885 0016 08D1     		bne	.L93
 109:Generated_Source\PSoC4/I2C_I2C_MASTER.c **** 
 886              		.loc 1 109 0
 887 0018 0820     		movs	r0, #8
 888              	.LVL50:
 889 001a FFF7FEFF 		bl	CyIntDisable
 890              	.LVL51:
 112:Generated_Source\PSoC4/I2C_I2C_MASTER.c ****                             I2C_I2C_MSTR_BUS_BUSY : I2C_I2C_MSTR_NO_ERROR;
 891              		.loc 1 112 0
 892 001e 224B     		ldr	r3, .L103+4
 893 0020 2419     		adds	r4, r4, r4
 894 0022 1B68     		ldr	r3, [r3]
 895 0024 DB07     		lsls	r3, r3, #31
 896 0026 38D4     		bmi	.L95
 897 0028 08E0     		b	.L94
 898              	.LVL52:
 899              	.L93:
 115:Generated_Source\PSoC4/I2C_I2C_MASTER.c ****         {
 900              		.loc 1 115 0
 901 002a 2B78     		ldrb	r3, [r5]
 102:Generated_Source\PSoC4/I2C_I2C_MASTER.c **** 
 902              		.loc 1 102 0
 903 002c 0424     		movs	r4, #4
 115:Generated_Source\PSoC4/I2C_I2C_MASTER.c ****         {
 904              		.loc 1 115 0
 905 002e 602B     		cmp	r3, #96
 906 0030 33D1     		bne	.L95
 117:Generated_Source\PSoC4/I2C_I2C_MASTER.c ****                               errStatus  = I2C_I2C_MSTR_NO_ERROR;
 907              		.loc 1 117 0
 908 0032 0821     		movs	r1, #8
 909              	.LVL53:
 910 0034 1D4A     		ldr	r2, .L103+8
 911              	.LVL54:
 912 0036 1388     		ldrh	r3, [r2]
 913 0038 8B43     		bics	r3, r1
 914 003a 1380     		strh	r3, [r2]
 915              	.LVL55:
 916              	.L94:
 135:Generated_Source\PSoC4/I2C_I2C_MASTER.c ****         I2C_mstrWrBufIndexTmp = 0u;
 917              		.loc 1 135 0
 918 003c 2823     		movs	r3, #40
 919 003e 2B70     		strb	r3, [r5]
ARM GAS  C:\Users\Greg\AppData\Local\Temp\cc742Y6h.s 			page 37


 136:Generated_Source\PSoC4/I2C_I2C_MASTER.c ****         I2C_mstrWrBufIndex    = 0u;
 920              		.loc 1 136 0
 921 0040 0025     		movs	r5, #0
 922 0042 1B4B     		ldr	r3, .L103+12
 138:Generated_Source\PSoC4/I2C_I2C_MASTER.c ****         I2C_mstrWrBufPtr      = (volatile uint8 *) wrData;
 923              		.loc 1 138 0
 924 0044 019A     		ldr	r2, [sp, #4]
 136:Generated_Source\PSoC4/I2C_I2C_MASTER.c ****         I2C_mstrWrBufIndex    = 0u;
 925              		.loc 1 136 0
 926 0046 1D60     		str	r5, [r3]
 137:Generated_Source\PSoC4/I2C_I2C_MASTER.c ****         I2C_mstrWrBufSize     = cnt;
 927              		.loc 1 137 0
 928 0048 1A4B     		ldr	r3, .L103+16
 144:Generated_Source\PSoC4/I2C_I2C_MASTER.c **** 
 929              		.loc 1 144 0
 930 004a 1849     		ldr	r1, .L103+8
 137:Generated_Source\PSoC4/I2C_I2C_MASTER.c ****         I2C_mstrWrBufSize     = cnt;
 931              		.loc 1 137 0
 932 004c 1D60     		str	r5, [r3]
 138:Generated_Source\PSoC4/I2C_I2C_MASTER.c ****         I2C_mstrWrBufPtr      = (volatile uint8 *) wrData;
 933              		.loc 1 138 0
 934 004e 1A4B     		ldr	r3, .L103+20
 142:Generated_Source\PSoC4/I2C_I2C_MASTER.c **** 
 935              		.loc 1 142 0
 936 0050 7600     		lsls	r6, r6, #1
 937              	.LVL56:
 138:Generated_Source\PSoC4/I2C_I2C_MASTER.c ****         I2C_mstrWrBufPtr      = (volatile uint8 *) wrData;
 938              		.loc 1 138 0
 939 0052 1A60     		str	r2, [r3]
 139:Generated_Source\PSoC4/I2C_I2C_MASTER.c ****         I2C_mstrControl       = (uint8) mode;
 940              		.loc 1 139 0
 941 0054 194B     		ldr	r3, .L103+24
 155:Generated_Source\PSoC4/I2C_I2C_MASTER.c ****         {
 942              		.loc 1 155 0
 943 0056 0124     		movs	r4, #1
 139:Generated_Source\PSoC4/I2C_I2C_MASTER.c ****         I2C_mstrControl       = (uint8) mode;
 944              		.loc 1 139 0
 945 0058 1F60     		str	r7, [r3]
 140:Generated_Source\PSoC4/I2C_I2C_MASTER.c **** 
 946              		.loc 1 140 0
 947 005a 6B46     		mov	r3, sp
 948 005c 1A78     		ldrb	r2, [r3]
 949 005e 184B     		ldr	r3, .L103+28
 950 0060 184F     		ldr	r7, .L103+32
 951              	.LVL57:
 952 0062 1A70     		strb	r2, [r3]
 142:Generated_Source\PSoC4/I2C_I2C_MASTER.c **** 
 953              		.loc 1 142 0
 954 0064 FF23     		movs	r3, #255
 144:Generated_Source\PSoC4/I2C_I2C_MASTER.c **** 
 955              		.loc 1 144 0
 956 0066 0222     		movs	r2, #2
 142:Generated_Source\PSoC4/I2C_I2C_MASTER.c **** 
 957              		.loc 1 142 0
 958 0068 1E40     		ands	r6, r3
 959              	.LVL58:
 144:Generated_Source\PSoC4/I2C_I2C_MASTER.c **** 
ARM GAS  C:\Users\Greg\AppData\Local\Temp\cc742Y6h.s 			page 38


 960              		.loc 1 144 0
 961 006a 0B88     		ldrh	r3, [r1]
 962 006c 9343     		bics	r3, r2
 963 006e 0B80     		strh	r3, [r1]
 146:Generated_Source\PSoC4/I2C_I2C_MASTER.c ****         I2C_ClearTxInterruptSource(I2C_INTR_TX_UNDERFLOW);
 964              		.loc 1 146 0
 965 0070 1549     		ldr	r1, .L103+36
 966 0072 164B     		ldr	r3, .L103+40
 967 0074 1960     		str	r1, [r3]
 968              	.LVL59:
 147:Generated_Source\PSoC4/I2C_I2C_MASTER.c **** 
 969              		.loc 1 147 0
 970 0076 4023     		movs	r3, #64
 971 0078 1549     		ldr	r1, .L103+44
 972 007a 0B60     		str	r3, [r1]
 152:Generated_Source\PSoC4/I2C_I2C_MASTER.c **** 
 973              		.loc 1 152 0
 974 007c 1549     		ldr	r1, .L103+48
 975 007e 0B60     		str	r3, [r1]
 155:Generated_Source\PSoC4/I2C_I2C_MASTER.c ****         {
 976              		.loc 1 155 0
 977 0080 009B     		ldr	r3, [sp]
 978 0082 2340     		ands	r3, r4
 979 0084 1C00     		movs	r4, r3
 980 0086 AB42     		cmp	r3, r5
 981 0088 04D0     		beq	.L102
 157:Generated_Source\PSoC4/I2C_I2C_MASTER.c ****             I2C_TX_FIFO_WR_REG = slaveAddress;
 982              		.loc 1 157 0
 983 008a FFF7FEFF 		bl	I2C_I2CReStartGeneration
 984              	.LVL60:
 985 008e 2C00     		movs	r4, r5
 158:Generated_Source\PSoC4/I2C_I2C_MASTER.c ****         }
 986              		.loc 1 158 0
 987 0090 3E60     		str	r6, [r7]
 988 0092 02E0     		b	.L95
 989              	.L102:
 163:Generated_Source\PSoC4/I2C_I2C_MASTER.c ****         }
 990              		.loc 1 163 0
 991 0094 104B     		ldr	r3, .L103+52
 162:Generated_Source\PSoC4/I2C_I2C_MASTER.c ****             I2C_I2C_MASTER_GENERATE_START;
 992              		.loc 1 162 0
 993 0096 3E60     		str	r6, [r7]
 163:Generated_Source\PSoC4/I2C_I2C_MASTER.c ****         }
 994              		.loc 1 163 0
 995 0098 1A60     		str	r2, [r3]
 996              	.LVL61:
 997              	.L95:
 167:Generated_Source\PSoC4/I2C_I2C_MASTER.c **** 
 998              		.loc 1 167 0
 999 009a 0820     		movs	r0, #8
 1000 009c FFF7FEFF 		bl	CyIntEnable
 1001              	.LVL62:
 170:Generated_Source\PSoC4/I2C_I2C_MASTER.c **** 
 1002              		.loc 1 170 0
 1003              		@ sp needed
 1004 00a0 2000     		movs	r0, r4
 1005              	.LVL63:
ARM GAS  C:\Users\Greg\AppData\Local\Temp\cc742Y6h.s 			page 39


 1006 00a2 FEBD     		pop	{r1, r2, r3, r4, r5, r6, r7, pc}
 1007              	.L104:
 1008              		.align	2
 1009              	.L103:
 1010 00a4 00000000 		.word	I2C_state
 1011 00a8 64002440 		.word	1076101220
 1012 00ac 00000000 		.word	I2C_mstrStatus
 1013 00b0 00000000 		.word	I2C_mstrWrBufIndexTmp
 1014 00b4 00000000 		.word	I2C_mstrWrBufIndex
 1015 00b8 00000000 		.word	I2C_mstrWrBufSize
 1016 00bc 00000000 		.word	I2C_mstrWrBufPtr
 1017 00c0 00000000 		.word	I2C_mstrControl
 1018 00c4 40022440 		.word	1076101696
 1019 00c8 17030000 		.word	791
 1020 00cc 000F2440 		.word	1076104960
 1021 00d0 800F2440 		.word	1076105088
 1022 00d4 880F2440 		.word	1076105096
 1023 00d8 68002440 		.word	1076101224
 1024              		.cfi_endproc
 1025              	.LFE1:
 1026              		.size	I2C_I2CMasterWriteBuf, .-I2C_I2CMasterWriteBuf
 1027              		.section	.text.I2C_I2CMasterReadBuf,"ax",%progbits
 1028              		.align	1
 1029              		.global	I2C_I2CMasterReadBuf
 1030              		.code	16
 1031              		.thumb_func
 1032              		.type	I2C_I2CMasterReadBuf, %function
 1033              	I2C_I2CMasterReadBuf:
 1034              	.LFB2:
 210:Generated_Source\PSoC4/I2C_I2C_MASTER.c ****     uint32 errStatus;
 1035              		.loc 1 210 0
 1036              		.cfi_startproc
 1037              		@ args = 0, pretend = 0, frame = 8
 1038              		@ frame_needed = 0, uses_anonymous_args = 0
 1039              	.LVL64:
 1040 0000 F7B5     		push	{r0, r1, r2, r4, r5, r6, r7, lr}
 1041              		.cfi_def_cfa_offset 32
 1042              		.cfi_offset 0, -32
 1043              		.cfi_offset 1, -28
 1044              		.cfi_offset 2, -24
 1045              		.cfi_offset 4, -20
 1046              		.cfi_offset 5, -16
 1047              		.cfi_offset 6, -12
 1048              		.cfi_offset 7, -8
 1049              		.cfi_offset 14, -4
 210:Generated_Source\PSoC4/I2C_I2C_MASTER.c ****     uint32 errStatus;
 1050              		.loc 1 210 0
 1051 0002 0600     		movs	r6, r0
 1052 0004 0F00     		movs	r7, r1
 1053 0006 0192     		str	r2, [sp, #4]
 1054 0008 0093     		str	r3, [sp]
 213:Generated_Source\PSoC4/I2C_I2C_MASTER.c **** 
 1055              		.loc 1 213 0
 1056 000a 0424     		movs	r4, #4
 215:Generated_Source\PSoC4/I2C_I2C_MASTER.c ****     {
 1057              		.loc 1 215 0
 1058 000c 0029     		cmp	r1, #0
ARM GAS  C:\Users\Greg\AppData\Local\Temp\cc742Y6h.s 			page 40


 1059 000e 4CD0     		beq	.L111
 218:Generated_Source\PSoC4/I2C_I2C_MASTER.c ****         {
 1060              		.loc 1 218 0
 1061 0010 284D     		ldr	r5, .L121
 1062 0012 2B78     		ldrb	r3, [r5]
 1063              	.LVL65:
 1064 0014 102B     		cmp	r3, #16
 1065 0016 08D1     		bne	.L107
 220:Generated_Source\PSoC4/I2C_I2C_MASTER.c **** 
 1066              		.loc 1 220 0
 1067 0018 0820     		movs	r0, #8
 1068              	.LVL66:
 1069 001a FFF7FEFF 		bl	CyIntDisable
 1070              	.LVL67:
 223:Generated_Source\PSoC4/I2C_I2C_MASTER.c ****                             I2C_I2C_MSTR_BUS_BUSY : I2C_I2C_MSTR_NO_ERROR;
 1071              		.loc 1 223 0
 1072 001e 264B     		ldr	r3, .L121+4
 1073 0020 2419     		adds	r4, r4, r4
 1074 0022 1B68     		ldr	r3, [r3]
 1075 0024 DB07     		lsls	r3, r3, #31
 1076 0026 40D4     		bmi	.L111
 1077 0028 08E0     		b	.L108
 1078              	.LVL68:
 1079              	.L107:
 226:Generated_Source\PSoC4/I2C_I2C_MASTER.c ****         {
 1080              		.loc 1 226 0
 1081 002a 2B78     		ldrb	r3, [r5]
 213:Generated_Source\PSoC4/I2C_I2C_MASTER.c **** 
 1082              		.loc 1 213 0
 1083 002c 0424     		movs	r4, #4
 226:Generated_Source\PSoC4/I2C_I2C_MASTER.c ****         {
 1084              		.loc 1 226 0
 1085 002e 602B     		cmp	r3, #96
 1086 0030 3BD1     		bne	.L111
 228:Generated_Source\PSoC4/I2C_I2C_MASTER.c ****                               errStatus  =  I2C_I2C_MSTR_NO_ERROR;
 1087              		.loc 1 228 0
 1088 0032 0821     		movs	r1, #8
 1089              	.LVL69:
 1090 0034 214A     		ldr	r2, .L121+8
 1091              	.LVL70:
 1092 0036 1388     		ldrh	r3, [r2]
 1093 0038 8B43     		bics	r3, r1
 1094 003a 1380     		strh	r3, [r2]
 1095              	.LVL71:
 1096              	.L108:
 246:Generated_Source\PSoC4/I2C_I2C_MASTER.c ****         I2C_mstrRdBufIndex = 0u;
 1097              		.loc 1 246 0
 1098 003c 2923     		movs	r3, #41
 247:Generated_Source\PSoC4/I2C_I2C_MASTER.c ****         I2C_mstrRdBufSize  = cnt;
 1099              		.loc 1 247 0
 1100 003e 0022     		movs	r2, #0
 246:Generated_Source\PSoC4/I2C_I2C_MASTER.c ****         I2C_mstrRdBufIndex = 0u;
 1101              		.loc 1 246 0
 1102 0040 2B70     		strb	r3, [r5]
 247:Generated_Source\PSoC4/I2C_I2C_MASTER.c ****         I2C_mstrRdBufSize  = cnt;
 1103              		.loc 1 247 0
 1104 0042 1F4B     		ldr	r3, .L121+12
ARM GAS  C:\Users\Greg\AppData\Local\Temp\cc742Y6h.s 			page 41


 250:Generated_Source\PSoC4/I2C_I2C_MASTER.c **** 
 1105              		.loc 1 250 0
 1106 0044 1F49     		ldr	r1, .L121+16
 247:Generated_Source\PSoC4/I2C_I2C_MASTER.c ****         I2C_mstrRdBufSize  = cnt;
 1107              		.loc 1 247 0
 1108 0046 1A60     		str	r2, [r3]
 248:Generated_Source\PSoC4/I2C_I2C_MASTER.c ****         I2C_mstrRdBufPtr   = (volatile uint8 *) rdData;
 1109              		.loc 1 248 0
 1110 0048 1F4A     		ldr	r2, .L121+20
 1111 004a 019B     		ldr	r3, [sp, #4]
 252:Generated_Source\PSoC4/I2C_I2C_MASTER.c **** 
 1112              		.loc 1 252 0
 1113 004c 0120     		movs	r0, #1
 248:Generated_Source\PSoC4/I2C_I2C_MASTER.c ****         I2C_mstrRdBufPtr   = (volatile uint8 *) rdData;
 1114              		.loc 1 248 0
 1115 004e 1360     		str	r3, [r2]
 249:Generated_Source\PSoC4/I2C_I2C_MASTER.c ****         I2C_mstrControl    = (uint8) mode;
 1116              		.loc 1 249 0
 1117 0050 1E4B     		ldr	r3, .L121+24
 252:Generated_Source\PSoC4/I2C_I2C_MASTER.c **** 
 1118              		.loc 1 252 0
 1119 0052 7600     		lsls	r6, r6, #1
 1120              	.LVL72:
 249:Generated_Source\PSoC4/I2C_I2C_MASTER.c ****         I2C_mstrControl    = (uint8) mode;
 1121              		.loc 1 249 0
 1122 0054 1F60     		str	r7, [r3]
 250:Generated_Source\PSoC4/I2C_I2C_MASTER.c **** 
 1123              		.loc 1 250 0
 1124 0056 6B46     		mov	r3, sp
 1125 0058 1B78     		ldrb	r3, [r3]
 1126 005a 0B70     		strb	r3, [r1]
 252:Generated_Source\PSoC4/I2C_I2C_MASTER.c **** 
 1127              		.loc 1 252 0
 1128 005c FF23     		movs	r3, #255
 254:Generated_Source\PSoC4/I2C_I2C_MASTER.c **** 
 1129              		.loc 1 254 0
 1130 005e 1749     		ldr	r1, .L121+8
 252:Generated_Source\PSoC4/I2C_I2C_MASTER.c **** 
 1131              		.loc 1 252 0
 1132 0060 1E40     		ands	r6, r3
 254:Generated_Source\PSoC4/I2C_I2C_MASTER.c **** 
 1133              		.loc 1 254 0
 1134 0062 0B88     		ldrh	r3, [r1]
 252:Generated_Source\PSoC4/I2C_I2C_MASTER.c **** 
 1135              		.loc 1 252 0
 1136 0064 0643     		orrs	r6, r0
 1137              	.LVL73:
 254:Generated_Source\PSoC4/I2C_I2C_MASTER.c **** 
 1138              		.loc 1 254 0
 1139 0066 8343     		bics	r3, r0
 1140 0068 0B80     		strh	r3, [r1]
 256:Generated_Source\PSoC4/I2C_I2C_MASTER.c **** 
 1141              		.loc 1 256 0
 1142 006a 194B     		ldr	r3, .L121+28
 1143 006c 1949     		ldr	r1, .L121+32
 1144 006e 1960     		str	r1, [r3]
 261:Generated_Source\PSoC4/I2C_I2C_MASTER.c ****         {
ARM GAS  C:\Users\Greg\AppData\Local\Temp\cc742Y6h.s 			page 42


 1145              		.loc 1 261 0
 1146 0070 1368     		ldr	r3, [r2]
 1147 0072 194A     		ldr	r2, .L121+36
 1148 0074 072B     		cmp	r3, #7
 1149 0076 01D8     		bhi	.L120
 264:Generated_Source\PSoC4/I2C_I2C_MASTER.c ****         }
 1150              		.loc 1 264 0
 1151 0078 0423     		movs	r3, #4
 1152 007a 06E0     		b	.L119
 1153              	.L120:
 269:Generated_Source\PSoC4/I2C_I2C_MASTER.c ****             I2C_SetRxInterruptMode(I2C_INTR_RX_FULL);
 1154              		.loc 1 269 0
 1155 007c 8020     		movs	r0, #128
 1156 007e 1749     		ldr	r1, .L121+40
 1157 0080 4000     		lsls	r0, r0, #1
 1158 0082 0B68     		ldr	r3, [r1]
 1159 0084 0343     		orrs	r3, r0
 1160 0086 0B60     		str	r3, [r1]
 270:Generated_Source\PSoC4/I2C_I2C_MASTER.c ****         }
 1161              		.loc 1 270 0
 1162 0088 0823     		movs	r3, #8
 1163              	.L119:
 274:Generated_Source\PSoC4/I2C_I2C_MASTER.c ****         {
 1164              		.loc 1 274 0
 1165 008a 0124     		movs	r4, #1
 270:Generated_Source\PSoC4/I2C_I2C_MASTER.c ****         }
 1166              		.loc 1 270 0
 1167 008c 1360     		str	r3, [r2]
 274:Generated_Source\PSoC4/I2C_I2C_MASTER.c ****         {
 1168              		.loc 1 274 0
 1169 008e 009B     		ldr	r3, [sp]
 1170 0090 134D     		ldr	r5, .L121+44
 1171 0092 2340     		ands	r3, r4
 1172 0094 1C1E     		subs	r4, r3, #0
 1173 0096 04D0     		beq	.L110
 276:Generated_Source\PSoC4/I2C_I2C_MASTER.c ****             I2C_TX_FIFO_WR_REG = (slaveAddress);
 1174              		.loc 1 276 0
 1175 0098 FFF7FEFF 		bl	I2C_I2CReStartGeneration
 1176              	.LVL74:
 1177 009c 0024     		movs	r4, #0
 277:Generated_Source\PSoC4/I2C_I2C_MASTER.c ****         }
 1178              		.loc 1 277 0
 1179 009e 2E60     		str	r6, [r5]
 1180 00a0 03E0     		b	.L111
 1181              	.L110:
 282:Generated_Source\PSoC4/I2C_I2C_MASTER.c ****         }
 1182              		.loc 1 282 0
 1183 00a2 0222     		movs	r2, #2
 1184 00a4 0F4B     		ldr	r3, .L121+48
 281:Generated_Source\PSoC4/I2C_I2C_MASTER.c ****             I2C_I2C_MASTER_GENERATE_START;
 1185              		.loc 1 281 0
 1186 00a6 2E60     		str	r6, [r5]
 282:Generated_Source\PSoC4/I2C_I2C_MASTER.c ****         }
 1187              		.loc 1 282 0
 1188 00a8 1A60     		str	r2, [r3]
 1189              	.LVL75:
 1190              	.L111:
ARM GAS  C:\Users\Greg\AppData\Local\Temp\cc742Y6h.s 			page 43


 286:Generated_Source\PSoC4/I2C_I2C_MASTER.c **** 
 1191              		.loc 1 286 0
 1192 00aa 0820     		movs	r0, #8
 1193 00ac FFF7FEFF 		bl	CyIntEnable
 1194              	.LVL76:
 289:Generated_Source\PSoC4/I2C_I2C_MASTER.c **** 
 1195              		.loc 1 289 0
 1196              		@ sp needed
 1197 00b0 2000     		movs	r0, r4
 1198              	.LVL77:
 1199              	.LVL78:
 1200 00b2 FEBD     		pop	{r1, r2, r3, r4, r5, r6, r7, pc}
 1201              	.L122:
 1202              		.align	2
 1203              	.L121:
 1204 00b4 00000000 		.word	I2C_state
 1205 00b8 64002440 		.word	1076101220
 1206 00bc 00000000 		.word	I2C_mstrStatus
 1207 00c0 00000000 		.word	I2C_mstrRdBufIndex
 1208 00c4 00000000 		.word	I2C_mstrControl
 1209 00c8 00000000 		.word	I2C_mstrRdBufSize
 1210 00cc 00000000 		.word	I2C_mstrRdBufPtr
 1211 00d0 000F2440 		.word	1076104960
 1212 00d4 17030000 		.word	791
 1213 00d8 C80F2440 		.word	1076105160
 1214 00dc 60002440 		.word	1076101216
 1215 00e0 40022440 		.word	1076101696
 1216 00e4 68002440 		.word	1076101224
 1217              		.cfi_endproc
 1218              	.LFE2:
 1219              		.size	I2C_I2CMasterReadBuf, .-I2C_I2CMasterReadBuf
 1220              		.section	.text.I2C_I2CMasterSendRestart,"ax",%progbits
 1221              		.align	1
 1222              		.global	I2C_I2CMasterSendRestart
 1223              		.code	16
 1224              		.thumb_func
 1225              		.type	I2C_I2CMasterSendRestart, %function
 1226              	I2C_I2CMasterSendRestart:
 1227              	.LFB4:
 459:Generated_Source\PSoC4/I2C_I2C_MASTER.c ****     uint32 resetIp;
 1228              		.loc 1 459 0
 1229              		.cfi_startproc
 1230              		@ args = 0, pretend = 0, frame = 0
 1231              		@ frame_needed = 0, uses_anonymous_args = 0
 1232              	.LVL79:
 1233 0000 70B5     		push	{r4, r5, r6, lr}
 1234              		.cfi_def_cfa_offset 16
 1235              		.cfi_offset 4, -16
 1236              		.cfi_offset 5, -12
 1237              		.cfi_offset 6, -8
 1238              		.cfi_offset 14, -4
 467:Generated_Source\PSoC4/I2C_I2C_MASTER.c ****     {
 1239              		.loc 1 467 0
 1240 0002 244C     		ldr	r4, .L141
 464:Generated_Source\PSoC4/I2C_I2C_MASTER.c **** 
 1241              		.loc 1 464 0
 1242 0004 0422     		movs	r2, #4
ARM GAS  C:\Users\Greg\AppData\Local\Temp\cc742Y6h.s 			page 44


 467:Generated_Source\PSoC4/I2C_I2C_MASTER.c ****     {
 1243              		.loc 1 467 0
 1244 0006 2378     		ldrb	r3, [r4]
 1245 0008 9B06     		lsls	r3, r3, #26
 1246 000a 41D5     		bpl	.L124
 469:Generated_Source\PSoC4/I2C_I2C_MASTER.c **** 
 1247              		.loc 1 469 0
 1248 000c FF25     		movs	r5, #255
 1249 000e 4000     		lsls	r0, r0, #1
 1250              	.LVL80:
 1251 0010 0540     		ands	r5, r0
 1252              	.LVL81:
 471:Generated_Source\PSoC4/I2C_I2C_MASTER.c ****         {
 1253              		.loc 1 471 0
 1254 0012 0029     		cmp	r1, #0
 1255 0014 02D1     		bne	.L125
 473:Generated_Source\PSoC4/I2C_I2C_MASTER.c ****         }
 1256              		.loc 1 473 0
 1257 0016 2423     		movs	r3, #36
 1258 0018 2370     		strb	r3, [r4]
 1259 001a 03E0     		b	.L126
 1260              	.L125:
 477:Generated_Source\PSoC4/I2C_I2C_MASTER.c ****                       slaveAddress |= I2C_I2C_READ_FLAG;
 1261              		.loc 1 477 0
 1262 001c 2523     		movs	r3, #37
 1263 001e 2370     		strb	r3, [r4]
 478:Generated_Source\PSoC4/I2C_I2C_MASTER.c ****         }
 1264              		.loc 1 478 0
 1265 0020 243B     		subs	r3, r3, #36
 1266 0022 1D43     		orrs	r5, r3
 1267              	.LVL82:
 1268              	.L126:
 484:Generated_Source\PSoC4/I2C_I2C_MASTER.c **** 
 1269              		.loc 1 484 0
 1270 0024 1C4B     		ldr	r3, .L141+4
 1271 0026 1D4E     		ldr	r6, .L141+8
 1272 0028 3360     		str	r3, [r6]
 490:Generated_Source\PSoC4/I2C_I2C_MASTER.c **** 
 1273              		.loc 1 490 0
 1274 002a FFF7FEFF 		bl	I2C_I2CReStartGeneration
 1275              	.LVL83:
 1276 002e 3100     		movs	r1, r6
 492:Generated_Source\PSoC4/I2C_I2C_MASTER.c ****         {
 1277              		.loc 1 492 0
 1278 0030 0123     		movs	r3, #1
 1279 0032 1B48     		ldr	r0, .L141+12
 1280              	.L127:
 492:Generated_Source\PSoC4/I2C_I2C_MASTER.c ****         {
 1281              		.loc 1 492 0 is_stmt 0 discriminator 1
 1282 0034 0268     		ldr	r2, [r0]
 1283 0036 1A42     		tst	r2, r3
 1284 0038 FCD1     		bne	.L127
 498:Generated_Source\PSoC4/I2C_I2C_MASTER.c **** 
 1285              		.loc 1 498 0 is_stmt 1
 1286 003a 1A4B     		ldr	r3, .L141+16
 1287 003c 1D60     		str	r5, [r3]
 501:Generated_Source\PSoC4/I2C_I2C_MASTER.c ****                                                   I2C_INTR_MASTER_I2C_NACK     |
ARM GAS  C:\Users\Greg\AppData\Local\Temp\cc742Y6h.s 			page 45


 1288              		.loc 1 501 0
 1289 003e 0823     		movs	r3, #8
 1290 0040 FF33     		adds	r3, r3, #255
 1291              	.LVL84:
 1292              	.L128:
 501:Generated_Source\PSoC4/I2C_I2C_MASTER.c ****                                                   I2C_INTR_MASTER_I2C_NACK     |
 1293              		.loc 1 501 0 is_stmt 0 discriminator 1
 1294 0042 0A68     		ldr	r2, [r1]
 1295 0044 154D     		ldr	r5, .L141+8
 1296 0046 1A42     		tst	r2, r3
 1297 0048 FBD0     		beq	.L128
 510:Generated_Source\PSoC4/I2C_I2C_MASTER.c ****         {
 1298              		.loc 1 510 0 is_stmt 1
 1299 004a 0423     		movs	r3, #4
 1300 004c 2A68     		ldr	r2, [r5]
 1301 004e 1340     		ands	r3, r2
 1302 0050 0DD1     		bne	.L132
 514:Generated_Source\PSoC4/I2C_I2C_MASTER.c ****         {
 1303              		.loc 1 514 0
 1304 0052 0222     		movs	r2, #2
 1305 0054 2868     		ldr	r0, [r5]
 1306 0056 1042     		tst	r0, r2
 1307 0058 0BD1     		bne	.L129
 518:Generated_Source\PSoC4/I2C_I2C_MASTER.c ****         {
 1308              		.loc 1 518 0
 1309 005a 2868     		ldr	r0, [r5]
 1310 005c 0E32     		adds	r2, r2, #14
 1311 005e 0133     		adds	r3, r3, #1
 520:Generated_Source\PSoC4/I2C_I2C_MASTER.c ****                          errStatus = I2C_I2C_MSTR_ERR_ARB_LOST;
 1312              		.loc 1 520 0
 1313 0060 2270     		strb	r2, [r4]
 1314              	.LVL85:
 521:Generated_Source\PSoC4/I2C_I2C_MASTER.c ****                          resetIp   = I2C_I2C_RESET_ERROR;
 1315              		.loc 1 521 0
 1316 0062 1A00     		movs	r2, r3
 518:Generated_Source\PSoC4/I2C_I2C_MASTER.c ****         {
 1317              		.loc 1 518 0
 1318 0064 1842     		tst	r0, r3
 1319 0066 04D1     		bne	.L129
 1320              	.LVL86:
 527:Generated_Source\PSoC4/I2C_I2C_MASTER.c ****                          resetIp   = I2C_I2C_RESET_ERROR;
 1321              		.loc 1 527 0
 1322 0068 8022     		movs	r2, #128
 1323 006a 5200     		lsls	r2, r2, #1
 1324 006c 01E0     		b	.L129
 1325              	.LVL87:
 1326              	.L132:
 512:Generated_Source\PSoC4/I2C_I2C_MASTER.c ****         }
 1327              		.loc 1 512 0
 1328 006e 0022     		movs	r2, #0
 463:Generated_Source\PSoC4/I2C_I2C_MASTER.c ****     errStatus = I2C_I2C_MSTR_NOT_READY;
 1329              		.loc 1 463 0
 1330 0070 1300     		movs	r3, r2
 1331              	.LVL88:
 1332              	.L129:
 531:Generated_Source\PSoC4/I2C_I2C_MASTER.c ****                                                     I2C_INTR_MASTER_I2C_NACK     |
 1333              		.loc 1 531 0
ARM GAS  C:\Users\Greg\AppData\Local\Temp\cc742Y6h.s 			page 46


 1334 0072 0820     		movs	r0, #8
 1335 0074 FF30     		adds	r0, r0, #255
 1336 0076 0860     		str	r0, [r1]
 537:Generated_Source\PSoC4/I2C_I2C_MASTER.c ****         {
 1337              		.loc 1 537 0
 1338 0078 002B     		cmp	r3, #0
 1339 007a 09D0     		beq	.L124
 539:Generated_Source\PSoC4/I2C_I2C_MASTER.c ****         }
 1340              		.loc 1 539 0
 1341 007c 8020     		movs	r0, #128
 1342 007e 0A49     		ldr	r1, .L141+20
 1343 0080 0006     		lsls	r0, r0, #24
 1344 0082 0B68     		ldr	r3, [r1]
 1345 0084 5B00     		lsls	r3, r3, #1
 1346 0086 5B08     		lsrs	r3, r3, #1
 1347 0088 0B60     		str	r3, [r1]
 1348 008a 0B68     		ldr	r3, [r1]
 1349 008c 0343     		orrs	r3, r0
 1350 008e 0B60     		str	r3, [r1]
 1351              	.LVL89:
 1352              	.L124:
 544:Generated_Source\PSoC4/I2C_I2C_MASTER.c **** 
 1353              		.loc 1 544 0
 1354 0090 1000     		movs	r0, r2
 1355              		@ sp needed
 1356 0092 70BD     		pop	{r4, r5, r6, pc}
 1357              	.L142:
 1358              		.align	2
 1359              	.L141:
 1360 0094 00000000 		.word	I2C_state
 1361 0098 17030000 		.word	791
 1362 009c 000F2440 		.word	1076104960
 1363 00a0 68002440 		.word	1076101224
 1364 00a4 40022440 		.word	1076101696
 1365 00a8 00002440 		.word	1076101120
 1366              		.cfi_endproc
 1367              	.LFE4:
 1368              		.size	I2C_I2CMasterSendRestart, .-I2C_I2CMasterSendRestart
 1369              		.comm	I2C_mstrWrBufIndexTmp,4,4
 1370              		.comm	I2C_mstrWrBufIndex,4,4
 1371              		.comm	I2C_mstrWrBufSize,4,4
 1372              		.comm	I2C_mstrWrBufPtr,4,4
 1373              		.comm	I2C_mstrRdBufIndex,4,4
 1374              		.comm	I2C_mstrRdBufSize,4,4
 1375              		.comm	I2C_mstrRdBufPtr,4,4
 1376              		.comm	I2C_mstrControl,1,1
 1377              		.comm	I2C_mstrStatus,2,2
 1378              		.text
 1379              	.Letext0:
 1380              		.file 2 "Generated_Source\\PSoC4/cytypes.h"
 1381              		.file 3 "Generated_Source\\PSoC4\\I2C_I2C_PVT.h"
 1382              		.file 4 "Generated_Source\\PSoC4/CyLib.h"
 1383              		.section	.debug_info,"",%progbits
 1384              	.Ldebug_info0:
 1385 0000 9E050000 		.4byte	0x59e
 1386 0004 0400     		.2byte	0x4
 1387 0006 00000000 		.4byte	.Ldebug_abbrev0
ARM GAS  C:\Users\Greg\AppData\Local\Temp\cc742Y6h.s 			page 47


 1388 000a 04       		.byte	0x4
 1389 000b 01       		.uleb128 0x1
 1390 000c 51030000 		.4byte	.LASF54
 1391 0010 0C       		.byte	0xc
 1392 0011 A9010000 		.4byte	.LASF55
 1393 0015 3F010000 		.4byte	.LASF56
 1394 0019 00000000 		.4byte	.Ldebug_ranges0+0
 1395 001d 00000000 		.4byte	0
 1396 0021 00000000 		.4byte	.Ldebug_line0
 1397 0025 02       		.uleb128 0x2
 1398 0026 01       		.byte	0x1
 1399 0027 06       		.byte	0x6
 1400 0028 B5000000 		.4byte	.LASF0
 1401 002c 02       		.uleb128 0x2
 1402 002d 01       		.byte	0x1
 1403 002e 08       		.byte	0x8
 1404 002f C1000000 		.4byte	.LASF1
 1405 0033 02       		.uleb128 0x2
 1406 0034 02       		.byte	0x2
 1407 0035 05       		.byte	0x5
 1408 0036 7D020000 		.4byte	.LASF2
 1409 003a 02       		.uleb128 0x2
 1410 003b 02       		.byte	0x2
 1411 003c 07       		.byte	0x7
 1412 003d 66000000 		.4byte	.LASF3
 1413 0041 02       		.uleb128 0x2
 1414 0042 04       		.byte	0x4
 1415 0043 05       		.byte	0x5
 1416 0044 E5020000 		.4byte	.LASF4
 1417 0048 02       		.uleb128 0x2
 1418 0049 04       		.byte	0x4
 1419 004a 07       		.byte	0x7
 1420 004b 11010000 		.4byte	.LASF5
 1421 004f 02       		.uleb128 0x2
 1422 0050 08       		.byte	0x8
 1423 0051 05       		.byte	0x5
 1424 0052 46020000 		.4byte	.LASF6
 1425 0056 02       		.uleb128 0x2
 1426 0057 08       		.byte	0x8
 1427 0058 07       		.byte	0x7
 1428 0059 05020000 		.4byte	.LASF7
 1429 005d 03       		.uleb128 0x3
 1430 005e 04       		.byte	0x4
 1431 005f 05       		.byte	0x5
 1432 0060 696E7400 		.ascii	"int\000"
 1433 0064 02       		.uleb128 0x2
 1434 0065 04       		.byte	0x4
 1435 0066 07       		.byte	0x7
 1436 0067 F1010000 		.4byte	.LASF8
 1437 006b 04       		.uleb128 0x4
 1438 006c 39010000 		.4byte	.LASF9
 1439 0070 02       		.byte	0x2
 1440 0071 BF01     		.2byte	0x1bf
 1441 0073 2C000000 		.4byte	0x2c
 1442 0077 04       		.uleb128 0x4
 1443 0078 A2010000 		.4byte	.LASF10
 1444 007c 02       		.byte	0x2
ARM GAS  C:\Users\Greg\AppData\Local\Temp\cc742Y6h.s 			page 48


 1445 007d C001     		.2byte	0x1c0
 1446 007f 3A000000 		.4byte	0x3a
 1447 0083 04       		.uleb128 0x4
 1448 0084 D8010000 		.4byte	.LASF11
 1449 0088 02       		.byte	0x2
 1450 0089 C101     		.2byte	0x1c1
 1451 008b 48000000 		.4byte	0x48
 1452 008f 02       		.uleb128 0x2
 1453 0090 04       		.byte	0x4
 1454 0091 04       		.byte	0x4
 1455 0092 AF000000 		.4byte	.LASF12
 1456 0096 02       		.uleb128 0x2
 1457 0097 08       		.byte	0x8
 1458 0098 04       		.byte	0x4
 1459 0099 88010000 		.4byte	.LASF13
 1460 009d 02       		.uleb128 0x2
 1461 009e 01       		.byte	0x1
 1462 009f 08       		.byte	0x8
 1463 00a0 54020000 		.4byte	.LASF14
 1464 00a4 05       		.uleb128 0x5
 1465 00a5 6B000000 		.4byte	0x6b
 1466 00a9 05       		.uleb128 0x5
 1467 00aa 77000000 		.4byte	0x77
 1468 00ae 04       		.uleb128 0x4
 1469 00af 1C000000 		.4byte	.LASF15
 1470 00b3 02       		.byte	0x2
 1471 00b4 6B02     		.2byte	0x26b
 1472 00b6 BA000000 		.4byte	0xba
 1473 00ba 05       		.uleb128 0x5
 1474 00bb 83000000 		.4byte	0x83
 1475 00bf 02       		.uleb128 0x2
 1476 00c0 08       		.byte	0x8
 1477 00c1 04       		.byte	0x4
 1478 00c2 EE020000 		.4byte	.LASF16
 1479 00c6 02       		.uleb128 0x2
 1480 00c7 04       		.byte	0x4
 1481 00c8 07       		.byte	0x7
 1482 00c9 3D020000 		.4byte	.LASF17
 1483 00cd 06       		.uleb128 0x6
 1484 00ce CF000000 		.4byte	.LASF22
 1485 00d2 01       		.byte	0x1
 1486 00d3 4E01     		.2byte	0x14e
 1487 00d5 83000000 		.4byte	0x83
 1488 00d9 00000000 		.4byte	.LFB3
 1489 00dd B8000000 		.4byte	.LFE3-.LFB3
 1490 00e1 01       		.uleb128 0x1
 1491 00e2 9C       		.byte	0x9c
 1492 00e3 37010000 		.4byte	0x137
 1493 00e7 07       		.uleb128 0x7
 1494 00e8 21020000 		.4byte	.LASF18
 1495 00ec 01       		.byte	0x1
 1496 00ed 4E01     		.2byte	0x14e
 1497 00ef 83000000 		.4byte	0x83
 1498 00f3 00000000 		.4byte	.LLST0
 1499 00f7 07       		.uleb128 0x7
 1500 00f8 8F010000 		.4byte	.LASF19
 1501 00fc 01       		.byte	0x1
ARM GAS  C:\Users\Greg\AppData\Local\Temp\cc742Y6h.s 			page 49


 1502 00fd 4E01     		.2byte	0x14e
 1503 00ff 83000000 		.4byte	0x83
 1504 0103 42000000 		.4byte	.LLST1
 1505 0107 08       		.uleb128 0x8
 1506 0108 80000000 		.4byte	.LASF20
 1507 010c 01       		.byte	0x1
 1508 010d 5001     		.2byte	0x150
 1509 010f 83000000 		.4byte	0x83
 1510 0113 6E000000 		.4byte	.LLST2
 1511 0117 08       		.uleb128 0x8
 1512 0118 7E010000 		.4byte	.LASF21
 1513 011c 01       		.byte	0x1
 1514 011d 5101     		.2byte	0x151
 1515 011f 83000000 		.4byte	0x83
 1516 0123 9A000000 		.4byte	.LLST3
 1517 0127 09       		.uleb128 0x9
 1518 0128 20000000 		.4byte	.LVL2
 1519 012c 8B050000 		.4byte	0x58b
 1520 0130 0A       		.uleb128 0xa
 1521 0131 01       		.uleb128 0x1
 1522 0132 50       		.byte	0x50
 1523 0133 01       		.uleb128 0x1
 1524 0134 38       		.byte	0x38
 1525 0135 00       		.byte	0
 1526 0136 00       		.byte	0
 1527 0137 06       		.uleb128 0x6
 1528 0138 02040000 		.4byte	.LASF23
 1529 013c 01       		.byte	0x1
 1530 013d 3D02     		.2byte	0x23d
 1531 013f 83000000 		.4byte	0x83
 1532 0143 00000000 		.4byte	.LFB5
 1533 0147 84000000 		.4byte	.LFE5-.LFB5
 1534 014b 01       		.uleb128 0x1
 1535 014c 9C       		.byte	0x9c
 1536 014d 72010000 		.4byte	0x172
 1537 0151 08       		.uleb128 0x8
 1538 0152 80000000 		.4byte	.LASF20
 1539 0156 01       		.byte	0x1
 1540 0157 3F02     		.2byte	0x23f
 1541 0159 83000000 		.4byte	0x83
 1542 015d DF000000 		.4byte	.LLST4
 1543 0161 08       		.uleb128 0x8
 1544 0162 7E010000 		.4byte	.LASF21
 1545 0166 01       		.byte	0x1
 1546 0167 4002     		.2byte	0x240
 1547 0169 83000000 		.4byte	0x83
 1548 016d FF000000 		.4byte	.LLST5
 1549 0171 00       		.byte	0
 1550 0172 06       		.uleb128 0x6
 1551 0173 59020000 		.4byte	.LASF24
 1552 0177 01       		.byte	0x1
 1553 0178 8D02     		.2byte	0x28d
 1554 017a 83000000 		.4byte	0x83
 1555 017e 00000000 		.4byte	.LFB6
 1556 0182 84000000 		.4byte	.LFE6-.LFB6
 1557 0186 01       		.uleb128 0x1
 1558 0187 9C       		.byte	0x9c
ARM GAS  C:\Users\Greg\AppData\Local\Temp\cc742Y6h.s 			page 50


 1559 0188 BD010000 		.4byte	0x1bd
 1560 018c 07       		.uleb128 0x7
 1561 018d 87020000 		.4byte	.LASF25
 1562 0191 01       		.byte	0x1
 1563 0192 8D02     		.2byte	0x28d
 1564 0194 83000000 		.4byte	0x83
 1565 0198 1E010000 		.4byte	.LLST6
 1566 019c 08       		.uleb128 0x8
 1567 019d 80000000 		.4byte	.LASF20
 1568 01a1 01       		.byte	0x1
 1569 01a2 8F02     		.2byte	0x28f
 1570 01a4 83000000 		.4byte	0x83
 1571 01a8 93010000 		.4byte	.LLST7
 1572 01ac 08       		.uleb128 0x8
 1573 01ad 7E010000 		.4byte	.LASF21
 1574 01b1 01       		.byte	0x1
 1575 01b2 9002     		.2byte	0x290
 1576 01b4 83000000 		.4byte	0x83
 1577 01b8 B3010000 		.4byte	.LLST8
 1578 01bc 00       		.byte	0
 1579 01bd 06       		.uleb128 0x6
 1580 01be A8020000 		.4byte	.LASF26
 1581 01c2 01       		.byte	0x1
 1582 01c3 E802     		.2byte	0x2e8
 1583 01c5 83000000 		.4byte	0x83
 1584 01c9 00000000 		.4byte	.LFB7
 1585 01cd 84000000 		.4byte	.LFE7-.LFB7
 1586 01d1 01       		.uleb128 0x1
 1587 01d2 9C       		.byte	0x9c
 1588 01d3 F8010000 		.4byte	0x1f8
 1589 01d7 07       		.uleb128 0x7
 1590 01d8 76010000 		.4byte	.LASF27
 1591 01dc 01       		.byte	0x1
 1592 01dd E802     		.2byte	0x2e8
 1593 01df 83000000 		.4byte	0x83
 1594 01e3 1C020000 		.4byte	.LLST9
 1595 01e7 08       		.uleb128 0x8
 1596 01e8 87020000 		.4byte	.LASF25
 1597 01ec 01       		.byte	0x1
 1598 01ed EA02     		.2byte	0x2ea
 1599 01ef 83000000 		.4byte	0x83
 1600 01f3 3D020000 		.4byte	.LLST10
 1601 01f7 00       		.byte	0
 1602 01f8 0B       		.uleb128 0xb
 1603 01f9 00000000 		.4byte	.LASF28
 1604 01fd 01       		.byte	0x1
 1605 01fe 2C03     		.2byte	0x32c
 1606 0200 83000000 		.4byte	0x83
 1607 0204 00000000 		.4byte	.LFB8
 1608 0208 0C000000 		.4byte	.LFE8-.LFB8
 1609 020c 01       		.uleb128 0x1
 1610 020d 9C       		.byte	0x9c
 1611 020e 0B       		.uleb128 0xb
 1612 020f FA020000 		.4byte	.LASF29
 1613 0213 01       		.byte	0x1
 1614 0214 4703     		.2byte	0x347
 1615 0216 83000000 		.4byte	0x83
ARM GAS  C:\Users\Greg\AppData\Local\Temp\cc742Y6h.s 			page 51


 1616 021a 00000000 		.4byte	.LFB9
 1617 021e 0C000000 		.4byte	.LFE9-.LFB9
 1618 0222 01       		.uleb128 0x1
 1619 0223 9C       		.byte	0x9c
 1620 0224 0C       		.uleb128 0xc
 1621 0225 4C000000 		.4byte	.LASF30
 1622 0229 01       		.byte	0x1
 1623 022a 5903     		.2byte	0x359
 1624 022c 00000000 		.4byte	.LFB10
 1625 0230 28000000 		.4byte	.LFE10-.LFB10
 1626 0234 01       		.uleb128 0x1
 1627 0235 9C       		.byte	0x9c
 1628 0236 5D020000 		.4byte	0x25d
 1629 023a 0D       		.uleb128 0xd
 1630 023b 08000000 		.4byte	.LVL33
 1631 023f 8B050000 		.4byte	0x58b
 1632 0243 4D020000 		.4byte	0x24d
 1633 0247 0A       		.uleb128 0xa
 1634 0248 01       		.uleb128 0x1
 1635 0249 50       		.byte	0x50
 1636 024a 01       		.uleb128 0x1
 1637 024b 38       		.byte	0x38
 1638 024c 00       		.byte	0
 1639 024d 09       		.uleb128 0x9
 1640 024e 1E000000 		.4byte	.LVL34
 1641 0252 96050000 		.4byte	0x596
 1642 0256 0A       		.uleb128 0xa
 1643 0257 01       		.uleb128 0x1
 1644 0258 50       		.byte	0x50
 1645 0259 01       		.uleb128 0x1
 1646 025a 38       		.byte	0x38
 1647 025b 00       		.byte	0
 1648 025c 00       		.byte	0
 1649 025d 0C       		.uleb128 0xc
 1650 025e E6000000 		.4byte	.LASF31
 1651 0262 01       		.byte	0x1
 1652 0263 7003     		.2byte	0x370
 1653 0265 00000000 		.4byte	.LFB11
 1654 0269 28000000 		.4byte	.LFE11-.LFB11
 1655 026d 01       		.uleb128 0x1
 1656 026e 9C       		.byte	0x9c
 1657 026f 96020000 		.4byte	0x296
 1658 0273 0D       		.uleb128 0xd
 1659 0274 08000000 		.4byte	.LVL35
 1660 0278 8B050000 		.4byte	0x58b
 1661 027c 86020000 		.4byte	0x286
 1662 0280 0A       		.uleb128 0xa
 1663 0281 01       		.uleb128 0x1
 1664 0282 50       		.byte	0x50
 1665 0283 01       		.uleb128 0x1
 1666 0284 38       		.byte	0x38
 1667 0285 00       		.byte	0
 1668 0286 09       		.uleb128 0x9
 1669 0287 1E000000 		.4byte	.LVL36
 1670 028b 96050000 		.4byte	0x596
 1671 028f 0A       		.uleb128 0xa
 1672 0290 01       		.uleb128 0x1
ARM GAS  C:\Users\Greg\AppData\Local\Temp\cc742Y6h.s 			page 52


 1673 0291 50       		.byte	0x50
 1674 0292 01       		.uleb128 0x1
 1675 0293 38       		.byte	0x38
 1676 0294 00       		.byte	0
 1677 0295 00       		.byte	0
 1678 0296 06       		.uleb128 0x6
 1679 0297 88000000 		.4byte	.LASF32
 1680 029b 01       		.byte	0x1
 1681 029c A403     		.2byte	0x3a4
 1682 029e 83000000 		.4byte	0x83
 1683 02a2 00000000 		.4byte	.LFB12
 1684 02a6 2C000000 		.4byte	.LFE12-.LFB12
 1685 02aa 01       		.uleb128 0x1
 1686 02ab 9C       		.byte	0x9c
 1687 02ac E3020000 		.4byte	0x2e3
 1688 02b0 08       		.uleb128 0x8
 1689 02b1 79000000 		.4byte	.LASF33
 1690 02b5 01       		.byte	0x1
 1691 02b6 A603     		.2byte	0x3a6
 1692 02b8 83000000 		.4byte	0x83
 1693 02bc 75020000 		.4byte	.LLST11
 1694 02c0 0D       		.uleb128 0xd
 1695 02c1 08000000 		.4byte	.LVL37
 1696 02c5 8B050000 		.4byte	0x58b
 1697 02c9 D3020000 		.4byte	0x2d3
 1698 02cd 0A       		.uleb128 0xa
 1699 02ce 01       		.uleb128 0x1
 1700 02cf 50       		.byte	0x50
 1701 02d0 01       		.uleb128 0x1
 1702 02d1 38       		.byte	0x38
 1703 02d2 00       		.byte	0
 1704 02d3 09       		.uleb128 0x9
 1705 02d4 20000000 		.4byte	.LVL40
 1706 02d8 96050000 		.4byte	0x596
 1707 02dc 0A       		.uleb128 0xa
 1708 02dd 01       		.uleb128 0x1
 1709 02de 50       		.byte	0x50
 1710 02df 01       		.uleb128 0x1
 1711 02e0 38       		.byte	0x38
 1712 02e1 00       		.byte	0
 1713 02e2 00       		.byte	0
 1714 02e3 06       		.uleb128 0x6
 1715 02e4 DF030000 		.4byte	.LASF34
 1716 02e8 01       		.byte	0x1
 1717 02e9 C603     		.2byte	0x3c6
 1718 02eb 83000000 		.4byte	0x83
 1719 02ef 00000000 		.4byte	.LFB13
 1720 02f3 20000000 		.4byte	.LFE13-.LFB13
 1721 02f7 01       		.uleb128 0x1
 1722 02f8 9C       		.byte	0x9c
 1723 02f9 30030000 		.4byte	0x330
 1724 02fd 08       		.uleb128 0x8
 1725 02fe 79000000 		.4byte	.LASF33
 1726 0302 01       		.byte	0x1
 1727 0303 C803     		.2byte	0x3c8
 1728 0305 83000000 		.4byte	0x83
 1729 0309 A4020000 		.4byte	.LLST12
ARM GAS  C:\Users\Greg\AppData\Local\Temp\cc742Y6h.s 			page 53


 1730 030d 0D       		.uleb128 0xd
 1731 030e 08000000 		.4byte	.LVL42
 1732 0312 8B050000 		.4byte	0x58b
 1733 0316 20030000 		.4byte	0x320
 1734 031a 0A       		.uleb128 0xa
 1735 031b 01       		.uleb128 0x1
 1736 031c 50       		.byte	0x50
 1737 031d 01       		.uleb128 0x1
 1738 031e 38       		.byte	0x38
 1739 031f 00       		.byte	0
 1740 0320 09       		.uleb128 0x9
 1741 0321 18000000 		.4byte	.LVL44
 1742 0325 96050000 		.4byte	0x596
 1743 0329 0A       		.uleb128 0xa
 1744 032a 01       		.uleb128 0x1
 1745 032b 50       		.byte	0x50
 1746 032c 01       		.uleb128 0x1
 1747 032d 38       		.byte	0x38
 1748 032e 00       		.byte	0
 1749 032f 00       		.byte	0
 1750 0330 0C       		.uleb128 0xc
 1751 0331 33000000 		.4byte	.LASF35
 1752 0335 01       		.byte	0x1
 1753 0336 F203     		.2byte	0x3f2
 1754 0338 00000000 		.4byte	.LFB14
 1755 033c 20000000 		.4byte	.LFE14-.LFB14
 1756 0340 01       		.uleb128 0x1
 1757 0341 9C       		.byte	0x9c
 1758 0342 57030000 		.4byte	0x357
 1759 0346 0E       		.uleb128 0xe
 1760 0347 636D6400 		.ascii	"cmd\000"
 1761 034b 01       		.byte	0x1
 1762 034c 2604     		.2byte	0x426
 1763 034e 83000000 		.4byte	0x83
 1764 0352 CE020000 		.4byte	.LLST13
 1765 0356 00       		.byte	0
 1766 0357 0F       		.uleb128 0xf
 1767 0358 23010000 		.4byte	.LASF36
 1768 035c 01       		.byte	0x1
 1769 035d 62       		.byte	0x62
 1770 035e 83000000 		.4byte	0x83
 1771 0362 00000000 		.4byte	.LFB1
 1772 0366 DC000000 		.4byte	.LFE1-.LFB1
 1773 036a 01       		.uleb128 0x1
 1774 036b 9C       		.byte	0x9c
 1775 036c E7030000 		.4byte	0x3e7
 1776 0370 10       		.uleb128 0x10
 1777 0371 21020000 		.4byte	.LASF18
 1778 0375 01       		.byte	0x1
 1779 0376 62       		.byte	0x62
 1780 0377 83000000 		.4byte	0x83
 1781 037b ED020000 		.4byte	.LLST14
 1782 037f 10       		.uleb128 0x10
 1783 0380 FE010000 		.4byte	.LASF37
 1784 0384 01       		.byte	0x1
 1785 0385 62       		.byte	0x62
 1786 0386 E7030000 		.4byte	0x3e7
ARM GAS  C:\Users\Greg\AppData\Local\Temp\cc742Y6h.s 			page 54


 1787 038a 3A030000 		.4byte	.LLST15
 1788 038e 11       		.uleb128 0x11
 1789 038f 636E7400 		.ascii	"cnt\000"
 1790 0393 01       		.byte	0x1
 1791 0394 62       		.byte	0x62
 1792 0395 83000000 		.4byte	0x83
 1793 0399 8B030000 		.4byte	.LLST16
 1794 039d 10       		.uleb128 0x10
 1795 039e 1C020000 		.4byte	.LASF38
 1796 03a2 01       		.byte	0x1
 1797 03a3 62       		.byte	0x62
 1798 03a4 83000000 		.4byte	0x83
 1799 03a8 C1030000 		.4byte	.LLST17
 1800 03ac 12       		.uleb128 0x12
 1801 03ad 7E010000 		.4byte	.LASF21
 1802 03b1 01       		.byte	0x1
 1803 03b2 64       		.byte	0x64
 1804 03b3 83000000 		.4byte	0x83
 1805 03b7 E0030000 		.4byte	.LLST18
 1806 03bb 0D       		.uleb128 0xd
 1807 03bc 1E000000 		.4byte	.LVL51
 1808 03c0 8B050000 		.4byte	0x58b
 1809 03c4 CE030000 		.4byte	0x3ce
 1810 03c8 0A       		.uleb128 0xa
 1811 03c9 01       		.uleb128 0x1
 1812 03ca 50       		.byte	0x50
 1813 03cb 01       		.uleb128 0x1
 1814 03cc 38       		.byte	0x38
 1815 03cd 00       		.byte	0
 1816 03ce 13       		.uleb128 0x13
 1817 03cf 8E000000 		.4byte	.LVL60
 1818 03d3 30030000 		.4byte	0x330
 1819 03d7 09       		.uleb128 0x9
 1820 03d8 A0000000 		.4byte	.LVL62
 1821 03dc 96050000 		.4byte	0x596
 1822 03e0 0A       		.uleb128 0xa
 1823 03e1 01       		.uleb128 0x1
 1824 03e2 50       		.byte	0x50
 1825 03e3 01       		.uleb128 0x1
 1826 03e4 38       		.byte	0x38
 1827 03e5 00       		.byte	0
 1828 03e6 00       		.byte	0
 1829 03e7 14       		.uleb128 0x14
 1830 03e8 04       		.byte	0x4
 1831 03e9 6B000000 		.4byte	0x6b
 1832 03ed 0F       		.uleb128 0xf
 1833 03ee 3C030000 		.4byte	.LASF39
 1834 03f2 01       		.byte	0x1
 1835 03f3 D1       		.byte	0xd1
 1836 03f4 83000000 		.4byte	0x83
 1837 03f8 00000000 		.4byte	.LFB2
 1838 03fc E8000000 		.4byte	.LFE2-.LFB2
 1839 0400 01       		.uleb128 0x1
 1840 0401 9C       		.byte	0x9c
 1841 0402 7D040000 		.4byte	0x47d
 1842 0406 10       		.uleb128 0x10
 1843 0407 21020000 		.4byte	.LASF18
ARM GAS  C:\Users\Greg\AppData\Local\Temp\cc742Y6h.s 			page 55


 1844 040b 01       		.byte	0x1
 1845 040c D1       		.byte	0xd1
 1846 040d 83000000 		.4byte	0x83
 1847 0411 00040000 		.4byte	.LLST19
 1848 0415 10       		.uleb128 0x10
 1849 0416 D1010000 		.4byte	.LASF40
 1850 041a 01       		.byte	0x1
 1851 041b D1       		.byte	0xd1
 1852 041c E7030000 		.4byte	0x3e7
 1853 0420 4D040000 		.4byte	.LLST20
 1854 0424 11       		.uleb128 0x11
 1855 0425 636E7400 		.ascii	"cnt\000"
 1856 0429 01       		.byte	0x1
 1857 042a D1       		.byte	0xd1
 1858 042b 83000000 		.4byte	0x83
 1859 042f 8F040000 		.4byte	.LLST21
 1860 0433 10       		.uleb128 0x10
 1861 0434 1C020000 		.4byte	.LASF38
 1862 0438 01       		.byte	0x1
 1863 0439 D1       		.byte	0xd1
 1864 043a 83000000 		.4byte	0x83
 1865 043e C5040000 		.4byte	.LLST22
 1866 0442 12       		.uleb128 0x12
 1867 0443 7E010000 		.4byte	.LASF21
 1868 0447 01       		.byte	0x1
 1869 0448 D3       		.byte	0xd3
 1870 0449 83000000 		.4byte	0x83
 1871 044d E4040000 		.4byte	.LLST23
 1872 0451 0D       		.uleb128 0xd
 1873 0452 1E000000 		.4byte	.LVL67
 1874 0456 8B050000 		.4byte	0x58b
 1875 045a 64040000 		.4byte	0x464
 1876 045e 0A       		.uleb128 0xa
 1877 045f 01       		.uleb128 0x1
 1878 0460 50       		.byte	0x50
 1879 0461 01       		.uleb128 0x1
 1880 0462 38       		.byte	0x38
 1881 0463 00       		.byte	0
 1882 0464 13       		.uleb128 0x13
 1883 0465 9C000000 		.4byte	.LVL74
 1884 0469 30030000 		.4byte	0x330
 1885 046d 09       		.uleb128 0x9
 1886 046e B0000000 		.4byte	.LVL76
 1887 0472 96050000 		.4byte	0x596
 1888 0476 0A       		.uleb128 0xa
 1889 0477 01       		.uleb128 0x1
 1890 0478 50       		.byte	0x50
 1891 0479 01       		.uleb128 0x1
 1892 047a 38       		.byte	0x38
 1893 047b 00       		.byte	0
 1894 047c 00       		.byte	0
 1895 047d 06       		.uleb128 0x6
 1896 047e 8F020000 		.4byte	.LASF41
 1897 0482 01       		.byte	0x1
 1898 0483 CA01     		.2byte	0x1ca
 1899 0485 83000000 		.4byte	0x83
 1900 0489 00000000 		.4byte	.LFB4
ARM GAS  C:\Users\Greg\AppData\Local\Temp\cc742Y6h.s 			page 56


 1901 048d AC000000 		.4byte	.LFE4-.LFB4
 1902 0491 01       		.uleb128 0x1
 1903 0492 9C       		.byte	0x9c
 1904 0493 E1040000 		.4byte	0x4e1
 1905 0497 07       		.uleb128 0x7
 1906 0498 21020000 		.4byte	.LASF18
 1907 049c 01       		.byte	0x1
 1908 049d CA01     		.2byte	0x1ca
 1909 049f 83000000 		.4byte	0x83
 1910 04a3 04050000 		.4byte	.LLST24
 1911 04a7 07       		.uleb128 0x7
 1912 04a8 8F010000 		.4byte	.LASF19
 1913 04ac 01       		.byte	0x1
 1914 04ad CA01     		.2byte	0x1ca
 1915 04af 83000000 		.4byte	0x83
 1916 04b3 4E050000 		.4byte	.LLST25
 1917 04b7 08       		.uleb128 0x8
 1918 04b8 80000000 		.4byte	.LASF20
 1919 04bc 01       		.byte	0x1
 1920 04bd CC01     		.2byte	0x1cc
 1921 04bf 83000000 		.4byte	0x83
 1922 04c3 6F050000 		.4byte	.LLST26
 1923 04c7 08       		.uleb128 0x8
 1924 04c8 7E010000 		.4byte	.LASF21
 1925 04cc 01       		.byte	0x1
 1926 04cd CD01     		.2byte	0x1cd
 1927 04cf 83000000 		.4byte	0x83
 1928 04d3 9B050000 		.4byte	.LLST27
 1929 04d7 13       		.uleb128 0x13
 1930 04d8 2E000000 		.4byte	.LVL83
 1931 04dc 30030000 		.4byte	0x330
 1932 04e0 00       		.byte	0
 1933 04e1 15       		.uleb128 0x15
 1934 04e2 F8030000 		.4byte	.LASF42
 1935 04e6 03       		.byte	0x3
 1936 04e7 1E       		.byte	0x1e
 1937 04e8 A4000000 		.4byte	0xa4
 1938 04ec 16       		.uleb128 0x16
 1939 04ed 2E020000 		.4byte	.LASF43
 1940 04f1 01       		.byte	0x1
 1941 04f2 1D       		.byte	0x1d
 1942 04f3 A9000000 		.4byte	0xa9
 1943 04f7 05       		.uleb128 0x5
 1944 04f8 03       		.byte	0x3
 1945 04f9 00000000 		.4byte	I2C_mstrStatus
 1946 04fd 16       		.uleb128 0x16
 1947 04fe 01010000 		.4byte	.LASF44
 1948 0502 01       		.byte	0x1
 1949 0503 1E       		.byte	0x1e
 1950 0504 A4000000 		.4byte	0xa4
 1951 0508 05       		.uleb128 0x5
 1952 0509 03       		.byte	0x3
 1953 050a 00000000 		.4byte	I2C_mstrControl
 1954 050e 16       		.uleb128 0x16
 1955 050f BE020000 		.4byte	.LASF45
 1956 0513 01       		.byte	0x1
 1957 0514 21       		.byte	0x21
ARM GAS  C:\Users\Greg\AppData\Local\Temp\cc742Y6h.s 			page 57


 1958 0515 1F050000 		.4byte	0x51f
 1959 0519 05       		.uleb128 0x5
 1960 051a 03       		.byte	0x3
 1961 051b 00000000 		.4byte	I2C_mstrRdBufPtr
 1962 051f 14       		.uleb128 0x14
 1963 0520 04       		.byte	0x4
 1964 0521 A4000000 		.4byte	0xa4
 1965 0525 16       		.uleb128 0x16
 1966 0526 DF010000 		.4byte	.LASF46
 1967 052a 01       		.byte	0x1
 1968 052b 22       		.byte	0x22
 1969 052c BA000000 		.4byte	0xba
 1970 0530 05       		.uleb128 0x5
 1971 0531 03       		.byte	0x3
 1972 0532 00000000 		.4byte	I2C_mstrRdBufSize
 1973 0536 16       		.uleb128 0x16
 1974 0537 9C000000 		.4byte	.LASF47
 1975 053b 01       		.byte	0x1
 1976 053c 23       		.byte	0x23
 1977 053d BA000000 		.4byte	0xba
 1978 0541 05       		.uleb128 0x5
 1979 0542 03       		.byte	0x3
 1980 0543 00000000 		.4byte	I2C_mstrRdBufIndex
 1981 0547 16       		.uleb128 0x16
 1982 0548 22000000 		.4byte	.LASF48
 1983 054c 01       		.byte	0x1
 1984 054d 26       		.byte	0x26
 1985 054e 1F050000 		.4byte	0x51f
 1986 0552 05       		.uleb128 0x5
 1987 0553 03       		.byte	0x3
 1988 0554 00000000 		.4byte	I2C_mstrWrBufPtr
 1989 0558 16       		.uleb128 0x16
 1990 0559 2A030000 		.4byte	.LASF49
 1991 055d 01       		.byte	0x1
 1992 055e 27       		.byte	0x27
 1993 055f BA000000 		.4byte	0xba
 1994 0563 05       		.uleb128 0x5
 1995 0564 03       		.byte	0x3
 1996 0565 00000000 		.4byte	I2C_mstrWrBufSize
 1997 0569 16       		.uleb128 0x16
 1998 056a 17030000 		.4byte	.LASF50
 1999 056e 01       		.byte	0x1
 2000 056f 28       		.byte	0x28
 2001 0570 BA000000 		.4byte	0xba
 2002 0574 05       		.uleb128 0x5
 2003 0575 03       		.byte	0x3
 2004 0576 00000000 		.4byte	I2C_mstrWrBufIndex
 2005 057a 16       		.uleb128 0x16
 2006 057b CF020000 		.4byte	.LASF51
 2007 057f 01       		.byte	0x1
 2008 0580 29       		.byte	0x29
 2009 0581 BA000000 		.4byte	0xba
 2010 0585 05       		.uleb128 0x5
 2011 0586 03       		.byte	0x3
 2012 0587 00000000 		.4byte	I2C_mstrWrBufIndexTmp
 2013 058b 17       		.uleb128 0x17
 2014 058c 70020000 		.4byte	.LASF52
ARM GAS  C:\Users\Greg\AppData\Local\Temp\cc742Y6h.s 			page 58


 2015 0590 70020000 		.4byte	.LASF52
 2016 0594 04       		.byte	0x4
 2017 0595 C5       		.byte	0xc5
 2018 0596 17       		.uleb128 0x17
 2019 0597 96010000 		.4byte	.LASF53
 2020 059b 96010000 		.4byte	.LASF53
 2021 059f 04       		.byte	0x4
 2022 05a0 C3       		.byte	0xc3
 2023 05a1 00       		.byte	0
 2024              		.section	.debug_abbrev,"",%progbits
 2025              	.Ldebug_abbrev0:
 2026 0000 01       		.uleb128 0x1
 2027 0001 11       		.uleb128 0x11
 2028 0002 01       		.byte	0x1
 2029 0003 25       		.uleb128 0x25
 2030 0004 0E       		.uleb128 0xe
 2031 0005 13       		.uleb128 0x13
 2032 0006 0B       		.uleb128 0xb
 2033 0007 03       		.uleb128 0x3
 2034 0008 0E       		.uleb128 0xe
 2035 0009 1B       		.uleb128 0x1b
 2036 000a 0E       		.uleb128 0xe
 2037 000b 55       		.uleb128 0x55
 2038 000c 17       		.uleb128 0x17
 2039 000d 11       		.uleb128 0x11
 2040 000e 01       		.uleb128 0x1
 2041 000f 10       		.uleb128 0x10
 2042 0010 17       		.uleb128 0x17
 2043 0011 00       		.byte	0
 2044 0012 00       		.byte	0
 2045 0013 02       		.uleb128 0x2
 2046 0014 24       		.uleb128 0x24
 2047 0015 00       		.byte	0
 2048 0016 0B       		.uleb128 0xb
 2049 0017 0B       		.uleb128 0xb
 2050 0018 3E       		.uleb128 0x3e
 2051 0019 0B       		.uleb128 0xb
 2052 001a 03       		.uleb128 0x3
 2053 001b 0E       		.uleb128 0xe
 2054 001c 00       		.byte	0
 2055 001d 00       		.byte	0
 2056 001e 03       		.uleb128 0x3
 2057 001f 24       		.uleb128 0x24
 2058 0020 00       		.byte	0
 2059 0021 0B       		.uleb128 0xb
 2060 0022 0B       		.uleb128 0xb
 2061 0023 3E       		.uleb128 0x3e
 2062 0024 0B       		.uleb128 0xb
 2063 0025 03       		.uleb128 0x3
 2064 0026 08       		.uleb128 0x8
 2065 0027 00       		.byte	0
 2066 0028 00       		.byte	0
 2067 0029 04       		.uleb128 0x4
 2068 002a 16       		.uleb128 0x16
 2069 002b 00       		.byte	0
 2070 002c 03       		.uleb128 0x3
 2071 002d 0E       		.uleb128 0xe
ARM GAS  C:\Users\Greg\AppData\Local\Temp\cc742Y6h.s 			page 59


 2072 002e 3A       		.uleb128 0x3a
 2073 002f 0B       		.uleb128 0xb
 2074 0030 3B       		.uleb128 0x3b
 2075 0031 05       		.uleb128 0x5
 2076 0032 49       		.uleb128 0x49
 2077 0033 13       		.uleb128 0x13
 2078 0034 00       		.byte	0
 2079 0035 00       		.byte	0
 2080 0036 05       		.uleb128 0x5
 2081 0037 35       		.uleb128 0x35
 2082 0038 00       		.byte	0
 2083 0039 49       		.uleb128 0x49
 2084 003a 13       		.uleb128 0x13
 2085 003b 00       		.byte	0
 2086 003c 00       		.byte	0
 2087 003d 06       		.uleb128 0x6
 2088 003e 2E       		.uleb128 0x2e
 2089 003f 01       		.byte	0x1
 2090 0040 3F       		.uleb128 0x3f
 2091 0041 19       		.uleb128 0x19
 2092 0042 03       		.uleb128 0x3
 2093 0043 0E       		.uleb128 0xe
 2094 0044 3A       		.uleb128 0x3a
 2095 0045 0B       		.uleb128 0xb
 2096 0046 3B       		.uleb128 0x3b
 2097 0047 05       		.uleb128 0x5
 2098 0048 27       		.uleb128 0x27
 2099 0049 19       		.uleb128 0x19
 2100 004a 49       		.uleb128 0x49
 2101 004b 13       		.uleb128 0x13
 2102 004c 11       		.uleb128 0x11
 2103 004d 01       		.uleb128 0x1
 2104 004e 12       		.uleb128 0x12
 2105 004f 06       		.uleb128 0x6
 2106 0050 40       		.uleb128 0x40
 2107 0051 18       		.uleb128 0x18
 2108 0052 9742     		.uleb128 0x2117
 2109 0054 19       		.uleb128 0x19
 2110 0055 01       		.uleb128 0x1
 2111 0056 13       		.uleb128 0x13
 2112 0057 00       		.byte	0
 2113 0058 00       		.byte	0
 2114 0059 07       		.uleb128 0x7
 2115 005a 05       		.uleb128 0x5
 2116 005b 00       		.byte	0
 2117 005c 03       		.uleb128 0x3
 2118 005d 0E       		.uleb128 0xe
 2119 005e 3A       		.uleb128 0x3a
 2120 005f 0B       		.uleb128 0xb
 2121 0060 3B       		.uleb128 0x3b
 2122 0061 05       		.uleb128 0x5
 2123 0062 49       		.uleb128 0x49
 2124 0063 13       		.uleb128 0x13
 2125 0064 02       		.uleb128 0x2
 2126 0065 17       		.uleb128 0x17
 2127 0066 00       		.byte	0
 2128 0067 00       		.byte	0
ARM GAS  C:\Users\Greg\AppData\Local\Temp\cc742Y6h.s 			page 60


 2129 0068 08       		.uleb128 0x8
 2130 0069 34       		.uleb128 0x34
 2131 006a 00       		.byte	0
 2132 006b 03       		.uleb128 0x3
 2133 006c 0E       		.uleb128 0xe
 2134 006d 3A       		.uleb128 0x3a
 2135 006e 0B       		.uleb128 0xb
 2136 006f 3B       		.uleb128 0x3b
 2137 0070 05       		.uleb128 0x5
 2138 0071 49       		.uleb128 0x49
 2139 0072 13       		.uleb128 0x13
 2140 0073 02       		.uleb128 0x2
 2141 0074 17       		.uleb128 0x17
 2142 0075 00       		.byte	0
 2143 0076 00       		.byte	0
 2144 0077 09       		.uleb128 0x9
 2145 0078 898201   		.uleb128 0x4109
 2146 007b 01       		.byte	0x1
 2147 007c 11       		.uleb128 0x11
 2148 007d 01       		.uleb128 0x1
 2149 007e 31       		.uleb128 0x31
 2150 007f 13       		.uleb128 0x13
 2151 0080 00       		.byte	0
 2152 0081 00       		.byte	0
 2153 0082 0A       		.uleb128 0xa
 2154 0083 8A8201   		.uleb128 0x410a
 2155 0086 00       		.byte	0
 2156 0087 02       		.uleb128 0x2
 2157 0088 18       		.uleb128 0x18
 2158 0089 9142     		.uleb128 0x2111
 2159 008b 18       		.uleb128 0x18
 2160 008c 00       		.byte	0
 2161 008d 00       		.byte	0
 2162 008e 0B       		.uleb128 0xb
 2163 008f 2E       		.uleb128 0x2e
 2164 0090 00       		.byte	0
 2165 0091 3F       		.uleb128 0x3f
 2166 0092 19       		.uleb128 0x19
 2167 0093 03       		.uleb128 0x3
 2168 0094 0E       		.uleb128 0xe
 2169 0095 3A       		.uleb128 0x3a
 2170 0096 0B       		.uleb128 0xb
 2171 0097 3B       		.uleb128 0x3b
 2172 0098 05       		.uleb128 0x5
 2173 0099 27       		.uleb128 0x27
 2174 009a 19       		.uleb128 0x19
 2175 009b 49       		.uleb128 0x49
 2176 009c 13       		.uleb128 0x13
 2177 009d 11       		.uleb128 0x11
 2178 009e 01       		.uleb128 0x1
 2179 009f 12       		.uleb128 0x12
 2180 00a0 06       		.uleb128 0x6
 2181 00a1 40       		.uleb128 0x40
 2182 00a2 18       		.uleb128 0x18
 2183 00a3 9742     		.uleb128 0x2117
 2184 00a5 19       		.uleb128 0x19
 2185 00a6 00       		.byte	0
ARM GAS  C:\Users\Greg\AppData\Local\Temp\cc742Y6h.s 			page 61


 2186 00a7 00       		.byte	0
 2187 00a8 0C       		.uleb128 0xc
 2188 00a9 2E       		.uleb128 0x2e
 2189 00aa 01       		.byte	0x1
 2190 00ab 3F       		.uleb128 0x3f
 2191 00ac 19       		.uleb128 0x19
 2192 00ad 03       		.uleb128 0x3
 2193 00ae 0E       		.uleb128 0xe
 2194 00af 3A       		.uleb128 0x3a
 2195 00b0 0B       		.uleb128 0xb
 2196 00b1 3B       		.uleb128 0x3b
 2197 00b2 05       		.uleb128 0x5
 2198 00b3 27       		.uleb128 0x27
 2199 00b4 19       		.uleb128 0x19
 2200 00b5 11       		.uleb128 0x11
 2201 00b6 01       		.uleb128 0x1
 2202 00b7 12       		.uleb128 0x12
 2203 00b8 06       		.uleb128 0x6
 2204 00b9 40       		.uleb128 0x40
 2205 00ba 18       		.uleb128 0x18
 2206 00bb 9742     		.uleb128 0x2117
 2207 00bd 19       		.uleb128 0x19
 2208 00be 01       		.uleb128 0x1
 2209 00bf 13       		.uleb128 0x13
 2210 00c0 00       		.byte	0
 2211 00c1 00       		.byte	0
 2212 00c2 0D       		.uleb128 0xd
 2213 00c3 898201   		.uleb128 0x4109
 2214 00c6 01       		.byte	0x1
 2215 00c7 11       		.uleb128 0x11
 2216 00c8 01       		.uleb128 0x1
 2217 00c9 31       		.uleb128 0x31
 2218 00ca 13       		.uleb128 0x13
 2219 00cb 01       		.uleb128 0x1
 2220 00cc 13       		.uleb128 0x13
 2221 00cd 00       		.byte	0
 2222 00ce 00       		.byte	0
 2223 00cf 0E       		.uleb128 0xe
 2224 00d0 34       		.uleb128 0x34
 2225 00d1 00       		.byte	0
 2226 00d2 03       		.uleb128 0x3
 2227 00d3 08       		.uleb128 0x8
 2228 00d4 3A       		.uleb128 0x3a
 2229 00d5 0B       		.uleb128 0xb
 2230 00d6 3B       		.uleb128 0x3b
 2231 00d7 05       		.uleb128 0x5
 2232 00d8 49       		.uleb128 0x49
 2233 00d9 13       		.uleb128 0x13
 2234 00da 02       		.uleb128 0x2
 2235 00db 17       		.uleb128 0x17
 2236 00dc 00       		.byte	0
 2237 00dd 00       		.byte	0
 2238 00de 0F       		.uleb128 0xf
 2239 00df 2E       		.uleb128 0x2e
 2240 00e0 01       		.byte	0x1
 2241 00e1 3F       		.uleb128 0x3f
 2242 00e2 19       		.uleb128 0x19
ARM GAS  C:\Users\Greg\AppData\Local\Temp\cc742Y6h.s 			page 62


 2243 00e3 03       		.uleb128 0x3
 2244 00e4 0E       		.uleb128 0xe
 2245 00e5 3A       		.uleb128 0x3a
 2246 00e6 0B       		.uleb128 0xb
 2247 00e7 3B       		.uleb128 0x3b
 2248 00e8 0B       		.uleb128 0xb
 2249 00e9 27       		.uleb128 0x27
 2250 00ea 19       		.uleb128 0x19
 2251 00eb 49       		.uleb128 0x49
 2252 00ec 13       		.uleb128 0x13
 2253 00ed 11       		.uleb128 0x11
 2254 00ee 01       		.uleb128 0x1
 2255 00ef 12       		.uleb128 0x12
 2256 00f0 06       		.uleb128 0x6
 2257 00f1 40       		.uleb128 0x40
 2258 00f2 18       		.uleb128 0x18
 2259 00f3 9742     		.uleb128 0x2117
 2260 00f5 19       		.uleb128 0x19
 2261 00f6 01       		.uleb128 0x1
 2262 00f7 13       		.uleb128 0x13
 2263 00f8 00       		.byte	0
 2264 00f9 00       		.byte	0
 2265 00fa 10       		.uleb128 0x10
 2266 00fb 05       		.uleb128 0x5
 2267 00fc 00       		.byte	0
 2268 00fd 03       		.uleb128 0x3
 2269 00fe 0E       		.uleb128 0xe
 2270 00ff 3A       		.uleb128 0x3a
 2271 0100 0B       		.uleb128 0xb
 2272 0101 3B       		.uleb128 0x3b
 2273 0102 0B       		.uleb128 0xb
 2274 0103 49       		.uleb128 0x49
 2275 0104 13       		.uleb128 0x13
 2276 0105 02       		.uleb128 0x2
 2277 0106 17       		.uleb128 0x17
 2278 0107 00       		.byte	0
 2279 0108 00       		.byte	0
 2280 0109 11       		.uleb128 0x11
 2281 010a 05       		.uleb128 0x5
 2282 010b 00       		.byte	0
 2283 010c 03       		.uleb128 0x3
 2284 010d 08       		.uleb128 0x8
 2285 010e 3A       		.uleb128 0x3a
 2286 010f 0B       		.uleb128 0xb
 2287 0110 3B       		.uleb128 0x3b
 2288 0111 0B       		.uleb128 0xb
 2289 0112 49       		.uleb128 0x49
 2290 0113 13       		.uleb128 0x13
 2291 0114 02       		.uleb128 0x2
 2292 0115 17       		.uleb128 0x17
 2293 0116 00       		.byte	0
 2294 0117 00       		.byte	0
 2295 0118 12       		.uleb128 0x12
 2296 0119 34       		.uleb128 0x34
 2297 011a 00       		.byte	0
 2298 011b 03       		.uleb128 0x3
 2299 011c 0E       		.uleb128 0xe
ARM GAS  C:\Users\Greg\AppData\Local\Temp\cc742Y6h.s 			page 63


 2300 011d 3A       		.uleb128 0x3a
 2301 011e 0B       		.uleb128 0xb
 2302 011f 3B       		.uleb128 0x3b
 2303 0120 0B       		.uleb128 0xb
 2304 0121 49       		.uleb128 0x49
 2305 0122 13       		.uleb128 0x13
 2306 0123 02       		.uleb128 0x2
 2307 0124 17       		.uleb128 0x17
 2308 0125 00       		.byte	0
 2309 0126 00       		.byte	0
 2310 0127 13       		.uleb128 0x13
 2311 0128 898201   		.uleb128 0x4109
 2312 012b 00       		.byte	0
 2313 012c 11       		.uleb128 0x11
 2314 012d 01       		.uleb128 0x1
 2315 012e 31       		.uleb128 0x31
 2316 012f 13       		.uleb128 0x13
 2317 0130 00       		.byte	0
 2318 0131 00       		.byte	0
 2319 0132 14       		.uleb128 0x14
 2320 0133 0F       		.uleb128 0xf
 2321 0134 00       		.byte	0
 2322 0135 0B       		.uleb128 0xb
 2323 0136 0B       		.uleb128 0xb
 2324 0137 49       		.uleb128 0x49
 2325 0138 13       		.uleb128 0x13
 2326 0139 00       		.byte	0
 2327 013a 00       		.byte	0
 2328 013b 15       		.uleb128 0x15
 2329 013c 34       		.uleb128 0x34
 2330 013d 00       		.byte	0
 2331 013e 03       		.uleb128 0x3
 2332 013f 0E       		.uleb128 0xe
 2333 0140 3A       		.uleb128 0x3a
 2334 0141 0B       		.uleb128 0xb
 2335 0142 3B       		.uleb128 0x3b
 2336 0143 0B       		.uleb128 0xb
 2337 0144 49       		.uleb128 0x49
 2338 0145 13       		.uleb128 0x13
 2339 0146 3F       		.uleb128 0x3f
 2340 0147 19       		.uleb128 0x19
 2341 0148 3C       		.uleb128 0x3c
 2342 0149 19       		.uleb128 0x19
 2343 014a 00       		.byte	0
 2344 014b 00       		.byte	0
 2345 014c 16       		.uleb128 0x16
 2346 014d 34       		.uleb128 0x34
 2347 014e 00       		.byte	0
 2348 014f 03       		.uleb128 0x3
 2349 0150 0E       		.uleb128 0xe
 2350 0151 3A       		.uleb128 0x3a
 2351 0152 0B       		.uleb128 0xb
 2352 0153 3B       		.uleb128 0x3b
 2353 0154 0B       		.uleb128 0xb
 2354 0155 49       		.uleb128 0x49
 2355 0156 13       		.uleb128 0x13
 2356 0157 3F       		.uleb128 0x3f
ARM GAS  C:\Users\Greg\AppData\Local\Temp\cc742Y6h.s 			page 64


 2357 0158 19       		.uleb128 0x19
 2358 0159 02       		.uleb128 0x2
 2359 015a 18       		.uleb128 0x18
 2360 015b 00       		.byte	0
 2361 015c 00       		.byte	0
 2362 015d 17       		.uleb128 0x17
 2363 015e 2E       		.uleb128 0x2e
 2364 015f 00       		.byte	0
 2365 0160 3F       		.uleb128 0x3f
 2366 0161 19       		.uleb128 0x19
 2367 0162 3C       		.uleb128 0x3c
 2368 0163 19       		.uleb128 0x19
 2369 0164 6E       		.uleb128 0x6e
 2370 0165 0E       		.uleb128 0xe
 2371 0166 03       		.uleb128 0x3
 2372 0167 0E       		.uleb128 0xe
 2373 0168 3A       		.uleb128 0x3a
 2374 0169 0B       		.uleb128 0xb
 2375 016a 3B       		.uleb128 0x3b
 2376 016b 0B       		.uleb128 0xb
 2377 016c 00       		.byte	0
 2378 016d 00       		.byte	0
 2379 016e 00       		.byte	0
 2380              		.section	.debug_loc,"",%progbits
 2381              	.Ldebug_loc0:
 2382              	.LLST0:
 2383 0000 00000000 		.4byte	.LVL0
 2384 0004 0C000000 		.4byte	.LVL1
 2385 0008 0100     		.2byte	0x1
 2386 000a 50       		.byte	0x50
 2387 000b 0C000000 		.4byte	.LVL1
 2388 000f 22000000 		.4byte	.LVL3
 2389 0013 0100     		.2byte	0x1
 2390 0015 55       		.byte	0x55
 2391 0016 22000000 		.4byte	.LVL3
 2392 001a 26000000 		.4byte	.LVL4
 2393 001e 0400     		.2byte	0x4
 2394 0020 F3       		.byte	0xf3
 2395 0021 01       		.uleb128 0x1
 2396 0022 50       		.byte	0x50
 2397 0023 9F       		.byte	0x9f
 2398 0024 26000000 		.4byte	.LVL4
 2399 0028 5E000000 		.4byte	.LVL6
 2400 002c 0100     		.2byte	0x1
 2401 002e 55       		.byte	0x55
 2402 002f 78000000 		.4byte	.LVL9
 2403 0033 7C000000 		.4byte	.LVL10
 2404 0037 0100     		.2byte	0x1
 2405 0039 55       		.byte	0x55
 2406 003a 00000000 		.4byte	0
 2407 003e 00000000 		.4byte	0
 2408              	.LLST1:
 2409 0042 00000000 		.4byte	.LVL0
 2410 0046 1F000000 		.4byte	.LVL2-1
 2411 004a 0100     		.2byte	0x1
 2412 004c 51       		.byte	0x51
 2413 004d 1F000000 		.4byte	.LVL2-1
ARM GAS  C:\Users\Greg\AppData\Local\Temp\cc742Y6h.s 			page 65


 2414 0051 9A000000 		.4byte	.LVL12
 2415 0055 0100     		.2byte	0x1
 2416 0057 57       		.byte	0x57
 2417 0058 9A000000 		.4byte	.LVL12
 2418 005c B8000000 		.4byte	.LFE3
 2419 0060 0400     		.2byte	0x4
 2420 0062 F3       		.byte	0xf3
 2421 0063 01       		.uleb128 0x1
 2422 0064 51       		.byte	0x51
 2423 0065 9F       		.byte	0x9f
 2424 0066 00000000 		.4byte	0
 2425 006a 00000000 		.4byte	0
 2426              	.LLST2:
 2427 006e 00000000 		.4byte	.LVL0
 2428 0072 6E000000 		.4byte	.LVL7
 2429 0076 0200     		.2byte	0x2
 2430 0078 30       		.byte	0x30
 2431 0079 9F       		.byte	0x9f
 2432 007a 6E000000 		.4byte	.LVL7
 2433 007e 78000000 		.4byte	.LVL9
 2434 0082 0200     		.2byte	0x2
 2435 0084 31       		.byte	0x31
 2436 0085 9F       		.byte	0x9f
 2437 0086 78000000 		.4byte	.LVL9
 2438 008a 7C000000 		.4byte	.LVL10
 2439 008e 0200     		.2byte	0x2
 2440 0090 30       		.byte	0x30
 2441 0091 9F       		.byte	0x9f
 2442 0092 00000000 		.4byte	0
 2443 0096 00000000 		.4byte	0
 2444              	.LLST3:
 2445 009a 00000000 		.4byte	.LVL0
 2446 009e 6E000000 		.4byte	.LVL7
 2447 00a2 0200     		.2byte	0x2
 2448 00a4 34       		.byte	0x34
 2449 00a5 9F       		.byte	0x9f
 2450 00a6 6E000000 		.4byte	.LVL7
 2451 00aa 72000000 		.4byte	.LVL8
 2452 00ae 0200     		.2byte	0x2
 2453 00b0 31       		.byte	0x31
 2454 00b1 9F       		.byte	0x9f
 2455 00b2 72000000 		.4byte	.LVL8
 2456 00b6 78000000 		.4byte	.LVL9
 2457 00ba 0400     		.2byte	0x4
 2458 00bc 0A       		.byte	0xa
 2459 00bd 0001     		.2byte	0x100
 2460 00bf 9F       		.byte	0x9f
 2461 00c0 78000000 		.4byte	.LVL9
 2462 00c4 7C000000 		.4byte	.LVL10
 2463 00c8 0200     		.2byte	0x2
 2464 00ca 34       		.byte	0x34
 2465 00cb 9F       		.byte	0x9f
 2466 00cc 7C000000 		.4byte	.LVL10
 2467 00d0 B8000000 		.4byte	.LFE3
 2468 00d4 0100     		.2byte	0x1
 2469 00d6 50       		.byte	0x50
 2470 00d7 00000000 		.4byte	0
ARM GAS  C:\Users\Greg\AppData\Local\Temp\cc742Y6h.s 			page 66


 2471 00db 00000000 		.4byte	0
 2472              	.LLST4:
 2473 00df 00000000 		.4byte	.LVL13
 2474 00e3 4A000000 		.4byte	.LVL14
 2475 00e7 0200     		.2byte	0x2
 2476 00e9 30       		.byte	0x30
 2477 00ea 9F       		.byte	0x9f
 2478 00eb 4A000000 		.4byte	.LVL14
 2479 00ef 6C000000 		.4byte	.LVL15
 2480 00f3 0200     		.2byte	0x2
 2481 00f5 31       		.byte	0x31
 2482 00f6 9F       		.byte	0x9f
 2483 00f7 00000000 		.4byte	0
 2484 00fb 00000000 		.4byte	0
 2485              	.LLST5:
 2486 00ff 00000000 		.4byte	.LVL13
 2487 0103 4A000000 		.4byte	.LVL14
 2488 0107 0200     		.2byte	0x2
 2489 0109 34       		.byte	0x34
 2490 010a 9F       		.byte	0x9f
 2491 010b 4A000000 		.4byte	.LVL14
 2492 010f 84000000 		.4byte	.LFE5
 2493 0113 0100     		.2byte	0x1
 2494 0115 50       		.byte	0x50
 2495 0116 00000000 		.4byte	0
 2496 011a 00000000 		.4byte	0
 2497              	.LLST6:
 2498 011e 00000000 		.4byte	.LVL16
 2499 0122 0A000000 		.4byte	.LVL17
 2500 0126 0100     		.2byte	0x1
 2501 0128 50       		.byte	0x50
 2502 0129 0A000000 		.4byte	.LVL17
 2503 012d 18000000 		.4byte	.LVL18
 2504 0131 0100     		.2byte	0x1
 2505 0133 51       		.byte	0x51
 2506 0134 18000000 		.4byte	.LVL18
 2507 0138 2E000000 		.4byte	.LVL19
 2508 013c 0500     		.2byte	0x5
 2509 013e 0C       		.byte	0xc
 2510 013f 40022440 		.4byte	0x40240240
 2511 0143 2E000000 		.4byte	.LVL19
 2512 0147 32000000 		.4byte	.LVL20
 2513 014b 0400     		.2byte	0x4
 2514 014d F3       		.byte	0xf3
 2515 014e 01       		.uleb128 0x1
 2516 014f 50       		.byte	0x50
 2517 0150 9F       		.byte	0x9f
 2518 0151 32000000 		.4byte	.LVL20
 2519 0155 3E000000 		.4byte	.LVL21
 2520 0159 0500     		.2byte	0x5
 2521 015b 0C       		.byte	0xc
 2522 015c 40022440 		.4byte	0x40240240
 2523 0160 3E000000 		.4byte	.LVL21
 2524 0164 40000000 		.4byte	.LVL22
 2525 0168 0400     		.2byte	0x4
 2526 016a F3       		.byte	0xf3
 2527 016b 01       		.uleb128 0x1
ARM GAS  C:\Users\Greg\AppData\Local\Temp\cc742Y6h.s 			page 67


 2528 016c 50       		.byte	0x50
 2529 016d 9F       		.byte	0x9f
 2530 016e 40000000 		.4byte	.LVL22
 2531 0172 48000000 		.4byte	.LVL23
 2532 0176 0500     		.2byte	0x5
 2533 0178 0C       		.byte	0xc
 2534 0179 40022440 		.4byte	0x40240240
 2535 017d 48000000 		.4byte	.LVL23
 2536 0181 84000000 		.4byte	.LFE6
 2537 0185 0400     		.2byte	0x4
 2538 0187 F3       		.byte	0xf3
 2539 0188 01       		.uleb128 0x1
 2540 0189 50       		.byte	0x50
 2541 018a 9F       		.byte	0x9f
 2542 018b 00000000 		.4byte	0
 2543 018f 00000000 		.4byte	0
 2544              	.LLST7:
 2545 0193 00000000 		.4byte	.LVL16
 2546 0197 4C000000 		.4byte	.LVL24
 2547 019b 0200     		.2byte	0x2
 2548 019d 30       		.byte	0x30
 2549 019e 9F       		.byte	0x9f
 2550 019f 4C000000 		.4byte	.LVL24
 2551 01a3 54000000 		.4byte	.LVL26
 2552 01a7 0200     		.2byte	0x2
 2553 01a9 31       		.byte	0x31
 2554 01aa 9F       		.byte	0x9f
 2555 01ab 00000000 		.4byte	0
 2556 01af 00000000 		.4byte	0
 2557              	.LLST8:
 2558 01b3 00000000 		.4byte	.LVL16
 2559 01b7 2E000000 		.4byte	.LVL19
 2560 01bb 0200     		.2byte	0x2
 2561 01bd 34       		.byte	0x34
 2562 01be 9F       		.byte	0x9f
 2563 01bf 2E000000 		.4byte	.LVL19
 2564 01c3 32000000 		.4byte	.LVL20
 2565 01c7 0200     		.2byte	0x2
 2566 01c9 30       		.byte	0x30
 2567 01ca 9F       		.byte	0x9f
 2568 01cb 32000000 		.4byte	.LVL20
 2569 01cf 3E000000 		.4byte	.LVL21
 2570 01d3 0200     		.2byte	0x2
 2571 01d5 34       		.byte	0x34
 2572 01d6 9F       		.byte	0x9f
 2573 01d7 3E000000 		.4byte	.LVL21
 2574 01db 40000000 		.4byte	.LVL22
 2575 01df 0200     		.2byte	0x2
 2576 01e1 32       		.byte	0x32
 2577 01e2 9F       		.byte	0x9f
 2578 01e3 40000000 		.4byte	.LVL22
 2579 01e7 4C000000 		.4byte	.LVL24
 2580 01eb 0200     		.2byte	0x2
 2581 01ed 34       		.byte	0x34
 2582 01ee 9F       		.byte	0x9f
 2583 01ef 4C000000 		.4byte	.LVL24
 2584 01f3 50000000 		.4byte	.LVL25
ARM GAS  C:\Users\Greg\AppData\Local\Temp\cc742Y6h.s 			page 68


 2585 01f7 0200     		.2byte	0x2
 2586 01f9 31       		.byte	0x31
 2587 01fa 9F       		.byte	0x9f
 2588 01fb 50000000 		.4byte	.LVL25
 2589 01ff 54000000 		.4byte	.LVL26
 2590 0203 0400     		.2byte	0x4
 2591 0205 0A       		.byte	0xa
 2592 0206 0001     		.2byte	0x100
 2593 0208 9F       		.byte	0x9f
 2594 0209 54000000 		.4byte	.LVL26
 2595 020d 84000000 		.4byte	.LFE6
 2596 0211 0100     		.2byte	0x1
 2597 0213 50       		.byte	0x50
 2598 0214 00000000 		.4byte	0
 2599 0218 00000000 		.4byte	0
 2600              	.LLST9:
 2601 021c 00000000 		.4byte	.LVL28
 2602 0220 64000000 		.4byte	.LVL32
 2603 0224 0100     		.2byte	0x1
 2604 0226 50       		.byte	0x50
 2605 0227 64000000 		.4byte	.LVL32
 2606 022b 84000000 		.4byte	.LFE7
 2607 022f 0400     		.2byte	0x4
 2608 0231 F3       		.byte	0xf3
 2609 0232 01       		.uleb128 0x1
 2610 0233 50       		.byte	0x50
 2611 0234 9F       		.byte	0x9f
 2612 0235 00000000 		.4byte	0
 2613 0239 00000000 		.4byte	0
 2614              	.LLST10:
 2615 023d 00000000 		.4byte	.LVL28
 2616 0241 32000000 		.4byte	.LVL29
 2617 0245 0300     		.2byte	0x3
 2618 0247 09       		.byte	0x9
 2619 0248 FF       		.byte	0xff
 2620 0249 9F       		.byte	0x9f
 2621 024a 32000000 		.4byte	.LVL29
 2622 024e 44000000 		.4byte	.LVL30
 2623 0252 0100     		.2byte	0x1
 2624 0254 53       		.byte	0x53
 2625 0255 44000000 		.4byte	.LVL30
 2626 0259 62000000 		.4byte	.LVL31
 2627 025d 0300     		.2byte	0x3
 2628 025f 09       		.byte	0x9
 2629 0260 FF       		.byte	0xff
 2630 0261 9F       		.byte	0x9f
 2631 0262 62000000 		.4byte	.LVL31
 2632 0266 84000000 		.4byte	.LFE7
 2633 026a 0100     		.2byte	0x1
 2634 026c 53       		.byte	0x53
 2635 026d 00000000 		.4byte	0
 2636 0271 00000000 		.4byte	0
 2637              	.LLST11:
 2638 0275 10000000 		.4byte	.LVL38
 2639 0279 1A000000 		.4byte	.LVL39
 2640 027d 0700     		.2byte	0x7
 2641 027f 74       		.byte	0x74
ARM GAS  C:\Users\Greg\AppData\Local\Temp\cc742Y6h.s 			page 69


 2642 0280 00       		.sleb128 0
 2643 0281 0A       		.byte	0xa
 2644 0282 FFFF     		.2byte	0xffff
 2645 0284 1A       		.byte	0x1a
 2646 0285 9F       		.byte	0x9f
 2647 0286 1A000000 		.4byte	.LVL39
 2648 028a 22000000 		.4byte	.LVL41
 2649 028e 0100     		.2byte	0x1
 2650 0290 54       		.byte	0x54
 2651 0291 22000000 		.4byte	.LVL41
 2652 0295 2C000000 		.4byte	.LFE12
 2653 0299 0100     		.2byte	0x1
 2654 029b 50       		.byte	0x50
 2655 029c 00000000 		.4byte	0
 2656 02a0 00000000 		.4byte	0
 2657              	.LLST12:
 2658 02a4 12000000 		.4byte	.LVL43
 2659 02a8 1A000000 		.4byte	.LVL45
 2660 02ac 0700     		.2byte	0x7
 2661 02ae 74       		.byte	0x74
 2662 02af 00       		.sleb128 0
 2663 02b0 0A       		.byte	0xa
 2664 02b1 FFFF     		.2byte	0xffff
 2665 02b3 1A       		.byte	0x1a
 2666 02b4 9F       		.byte	0x9f
 2667 02b5 1A000000 		.4byte	.LVL45
 2668 02b9 20000000 		.4byte	.LFE13
 2669 02bd 0700     		.2byte	0x7
 2670 02bf 70       		.byte	0x70
 2671 02c0 00       		.sleb128 0
 2672 02c1 0A       		.byte	0xa
 2673 02c2 FFFF     		.2byte	0xffff
 2674 02c4 1A       		.byte	0x1a
 2675 02c5 9F       		.byte	0x9f
 2676 02c6 00000000 		.4byte	0
 2677 02ca 00000000 		.4byte	0
 2678              	.LLST13:
 2679 02ce 00000000 		.4byte	.LVL46
 2680 02d2 10000000 		.4byte	.LVL47
 2681 02d6 0200     		.2byte	0x2
 2682 02d8 31       		.byte	0x31
 2683 02d9 9F       		.byte	0x9f
 2684 02da 10000000 		.4byte	.LVL47
 2685 02de 20000000 		.4byte	.LFE14
 2686 02e2 0100     		.2byte	0x1
 2687 02e4 53       		.byte	0x53
 2688 02e5 00000000 		.4byte	0
 2689 02e9 00000000 		.4byte	0
 2690              	.LLST14:
 2691 02ed 00000000 		.4byte	.LVL48
 2692 02f1 1A000000 		.4byte	.LVL50
 2693 02f5 0100     		.2byte	0x1
 2694 02f7 50       		.byte	0x50
 2695 02f8 1A000000 		.4byte	.LVL50
 2696 02fc 2A000000 		.4byte	.LVL52
 2697 0300 0100     		.2byte	0x1
 2698 0302 56       		.byte	0x56
ARM GAS  C:\Users\Greg\AppData\Local\Temp\cc742Y6h.s 			page 70


 2699 0303 2A000000 		.4byte	.LVL52
 2700 0307 3C000000 		.4byte	.LVL55
 2701 030b 0100     		.2byte	0x1
 2702 030d 50       		.byte	0x50
 2703 030e 3C000000 		.4byte	.LVL55
 2704 0312 52000000 		.4byte	.LVL56
 2705 0316 0100     		.2byte	0x1
 2706 0318 56       		.byte	0x56
 2707 0319 52000000 		.4byte	.LVL56
 2708 031d 6A000000 		.4byte	.LVL58
 2709 0321 0400     		.2byte	0x4
 2710 0323 F3       		.byte	0xf3
 2711 0324 01       		.uleb128 0x1
 2712 0325 50       		.byte	0x50
 2713 0326 9F       		.byte	0x9f
 2714 0327 6A000000 		.4byte	.LVL58
 2715 032b A2000000 		.4byte	.LVL63
 2716 032f 0100     		.2byte	0x1
 2717 0331 56       		.byte	0x56
 2718 0332 00000000 		.4byte	0
 2719 0336 00000000 		.4byte	0
 2720              	.LLST15:
 2721 033a 00000000 		.4byte	.LVL48
 2722 033e 1D000000 		.4byte	.LVL51-1
 2723 0342 0100     		.2byte	0x1
 2724 0344 51       		.byte	0x51
 2725 0345 1D000000 		.4byte	.LVL51-1
 2726 0349 2A000000 		.4byte	.LVL52
 2727 034d 0100     		.2byte	0x1
 2728 034f 57       		.byte	0x57
 2729 0350 2A000000 		.4byte	.LVL52
 2730 0354 34000000 		.4byte	.LVL53
 2731 0358 0100     		.2byte	0x1
 2732 035a 51       		.byte	0x51
 2733 035b 34000000 		.4byte	.LVL53
 2734 035f 62000000 		.4byte	.LVL57
 2735 0363 0100     		.2byte	0x1
 2736 0365 57       		.byte	0x57
 2737 0366 62000000 		.4byte	.LVL57
 2738 036a 76000000 		.4byte	.LVL59
 2739 036e 0500     		.2byte	0x5
 2740 0370 03       		.byte	0x3
 2741 0371 00000000 		.4byte	I2C_mstrWrBufPtr
 2742 0375 76000000 		.4byte	.LVL59
 2743 0379 DC000000 		.4byte	.LFE1
 2744 037d 0400     		.2byte	0x4
 2745 037f F3       		.byte	0xf3
 2746 0380 01       		.uleb128 0x1
 2747 0381 51       		.byte	0x51
 2748 0382 9F       		.byte	0x9f
 2749 0383 00000000 		.4byte	0
 2750 0387 00000000 		.4byte	0
 2751              	.LLST16:
 2752 038b 00000000 		.4byte	.LVL48
 2753 038f 1D000000 		.4byte	.LVL51-1
 2754 0393 0100     		.2byte	0x1
 2755 0395 52       		.byte	0x52
ARM GAS  C:\Users\Greg\AppData\Local\Temp\cc742Y6h.s 			page 71


 2756 0396 1D000000 		.4byte	.LVL51-1
 2757 039a 2A000000 		.4byte	.LVL52
 2758 039e 0200     		.2byte	0x2
 2759 03a0 91       		.byte	0x91
 2760 03a1 64       		.sleb128 -28
 2761 03a2 2A000000 		.4byte	.LVL52
 2762 03a6 36000000 		.4byte	.LVL54
 2763 03aa 0100     		.2byte	0x1
 2764 03ac 52       		.byte	0x52
 2765 03ad 36000000 		.4byte	.LVL54
 2766 03b1 DC000000 		.4byte	.LFE1
 2767 03b5 0200     		.2byte	0x2
 2768 03b7 91       		.byte	0x91
 2769 03b8 64       		.sleb128 -28
 2770 03b9 00000000 		.4byte	0
 2771 03bd 00000000 		.4byte	0
 2772              	.LLST17:
 2773 03c1 00000000 		.4byte	.LVL48
 2774 03c5 14000000 		.4byte	.LVL49
 2775 03c9 0100     		.2byte	0x1
 2776 03cb 53       		.byte	0x53
 2777 03cc 14000000 		.4byte	.LVL49
 2778 03d0 DC000000 		.4byte	.LFE1
 2779 03d4 0200     		.2byte	0x2
 2780 03d6 7D       		.byte	0x7d
 2781 03d7 00       		.sleb128 0
 2782 03d8 00000000 		.4byte	0
 2783 03dc 00000000 		.4byte	0
 2784              	.LLST18:
 2785 03e0 00000000 		.4byte	.LVL48
 2786 03e4 3C000000 		.4byte	.LVL55
 2787 03e8 0200     		.2byte	0x2
 2788 03ea 34       		.byte	0x34
 2789 03eb 9F       		.byte	0x9f
 2790 03ec 3C000000 		.4byte	.LVL55
 2791 03f0 9A000000 		.4byte	.LVL61
 2792 03f4 0200     		.2byte	0x2
 2793 03f6 30       		.byte	0x30
 2794 03f7 9F       		.byte	0x9f
 2795 03f8 00000000 		.4byte	0
 2796 03fc 00000000 		.4byte	0
 2797              	.LLST19:
 2798 0400 00000000 		.4byte	.LVL64
 2799 0404 1A000000 		.4byte	.LVL66
 2800 0408 0100     		.2byte	0x1
 2801 040a 50       		.byte	0x50
 2802 040b 1A000000 		.4byte	.LVL66
 2803 040f 2A000000 		.4byte	.LVL68
 2804 0413 0100     		.2byte	0x1
 2805 0415 56       		.byte	0x56
 2806 0416 2A000000 		.4byte	.LVL68
 2807 041a 3C000000 		.4byte	.LVL71
 2808 041e 0100     		.2byte	0x1
 2809 0420 50       		.byte	0x50
 2810 0421 3C000000 		.4byte	.LVL71
 2811 0425 54000000 		.4byte	.LVL72
 2812 0429 0100     		.2byte	0x1
ARM GAS  C:\Users\Greg\AppData\Local\Temp\cc742Y6h.s 			page 72


 2813 042b 56       		.byte	0x56
 2814 042c 54000000 		.4byte	.LVL72
 2815 0430 66000000 		.4byte	.LVL73
 2816 0434 0400     		.2byte	0x4
 2817 0436 F3       		.byte	0xf3
 2818 0437 01       		.uleb128 0x1
 2819 0438 50       		.byte	0x50
 2820 0439 9F       		.byte	0x9f
 2821 043a 66000000 		.4byte	.LVL73
 2822 043e B2000000 		.4byte	.LVL77
 2823 0442 0100     		.2byte	0x1
 2824 0444 56       		.byte	0x56
 2825 0445 00000000 		.4byte	0
 2826 0449 00000000 		.4byte	0
 2827              	.LLST20:
 2828 044d 00000000 		.4byte	.LVL64
 2829 0451 1D000000 		.4byte	.LVL67-1
 2830 0455 0100     		.2byte	0x1
 2831 0457 51       		.byte	0x51
 2832 0458 1D000000 		.4byte	.LVL67-1
 2833 045c 2A000000 		.4byte	.LVL68
 2834 0460 0100     		.2byte	0x1
 2835 0462 57       		.byte	0x57
 2836 0463 2A000000 		.4byte	.LVL68
 2837 0467 34000000 		.4byte	.LVL69
 2838 046b 0100     		.2byte	0x1
 2839 046d 51       		.byte	0x51
 2840 046e 34000000 		.4byte	.LVL69
 2841 0472 B2000000 		.4byte	.LVL78
 2842 0476 0100     		.2byte	0x1
 2843 0478 57       		.byte	0x57
 2844 0479 B2000000 		.4byte	.LVL78
 2845 047d E8000000 		.4byte	.LFE2
 2846 0481 0400     		.2byte	0x4
 2847 0483 F3       		.byte	0xf3
 2848 0484 01       		.uleb128 0x1
 2849 0485 51       		.byte	0x51
 2850 0486 9F       		.byte	0x9f
 2851 0487 00000000 		.4byte	0
 2852 048b 00000000 		.4byte	0
 2853              	.LLST21:
 2854 048f 00000000 		.4byte	.LVL64
 2855 0493 1D000000 		.4byte	.LVL67-1
 2856 0497 0100     		.2byte	0x1
 2857 0499 52       		.byte	0x52
 2858 049a 1D000000 		.4byte	.LVL67-1
 2859 049e 2A000000 		.4byte	.LVL68
 2860 04a2 0200     		.2byte	0x2
 2861 04a4 91       		.byte	0x91
 2862 04a5 64       		.sleb128 -28
 2863 04a6 2A000000 		.4byte	.LVL68
 2864 04aa 36000000 		.4byte	.LVL70
 2865 04ae 0100     		.2byte	0x1
 2866 04b0 52       		.byte	0x52
 2867 04b1 36000000 		.4byte	.LVL70
 2868 04b5 E8000000 		.4byte	.LFE2
 2869 04b9 0200     		.2byte	0x2
ARM GAS  C:\Users\Greg\AppData\Local\Temp\cc742Y6h.s 			page 73


 2870 04bb 91       		.byte	0x91
 2871 04bc 64       		.sleb128 -28
 2872 04bd 00000000 		.4byte	0
 2873 04c1 00000000 		.4byte	0
 2874              	.LLST22:
 2875 04c5 00000000 		.4byte	.LVL64
 2876 04c9 14000000 		.4byte	.LVL65
 2877 04cd 0100     		.2byte	0x1
 2878 04cf 53       		.byte	0x53
 2879 04d0 14000000 		.4byte	.LVL65
 2880 04d4 E8000000 		.4byte	.LFE2
 2881 04d8 0200     		.2byte	0x2
 2882 04da 7D       		.byte	0x7d
 2883 04db 00       		.sleb128 0
 2884 04dc 00000000 		.4byte	0
 2885 04e0 00000000 		.4byte	0
 2886              	.LLST23:
 2887 04e4 00000000 		.4byte	.LVL64
 2888 04e8 3C000000 		.4byte	.LVL71
 2889 04ec 0200     		.2byte	0x2
 2890 04ee 34       		.byte	0x34
 2891 04ef 9F       		.byte	0x9f
 2892 04f0 3C000000 		.4byte	.LVL71
 2893 04f4 AA000000 		.4byte	.LVL75
 2894 04f8 0200     		.2byte	0x2
 2895 04fa 30       		.byte	0x30
 2896 04fb 9F       		.byte	0x9f
 2897 04fc 00000000 		.4byte	0
 2898 0500 00000000 		.4byte	0
 2899              	.LLST24:
 2900 0504 00000000 		.4byte	.LVL79
 2901 0508 10000000 		.4byte	.LVL80
 2902 050c 0100     		.2byte	0x1
 2903 050e 50       		.byte	0x50
 2904 050f 10000000 		.4byte	.LVL80
 2905 0513 12000000 		.4byte	.LVL81
 2906 0517 0400     		.2byte	0x4
 2907 0519 F3       		.byte	0xf3
 2908 051a 01       		.uleb128 0x1
 2909 051b 50       		.byte	0x50
 2910 051c 9F       		.byte	0x9f
 2911 051d 12000000 		.4byte	.LVL81
 2912 0521 42000000 		.4byte	.LVL84
 2913 0525 0100     		.2byte	0x1
 2914 0527 55       		.byte	0x55
 2915 0528 42000000 		.4byte	.LVL84
 2916 052c 62000000 		.4byte	.LVL85
 2917 0530 0500     		.2byte	0x5
 2918 0532 0C       		.byte	0xc
 2919 0533 40022440 		.4byte	0x40240240
 2920 0537 6E000000 		.4byte	.LVL87
 2921 053b 72000000 		.4byte	.LVL88
 2922 053f 0500     		.2byte	0x5
 2923 0541 0C       		.byte	0xc
 2924 0542 40022440 		.4byte	0x40240240
 2925 0546 00000000 		.4byte	0
 2926 054a 00000000 		.4byte	0
ARM GAS  C:\Users\Greg\AppData\Local\Temp\cc742Y6h.s 			page 74


 2927              	.LLST25:
 2928 054e 00000000 		.4byte	.LVL79
 2929 0552 2D000000 		.4byte	.LVL83-1
 2930 0556 0100     		.2byte	0x1
 2931 0558 51       		.byte	0x51
 2932 0559 2D000000 		.4byte	.LVL83-1
 2933 055d AC000000 		.4byte	.LFE4
 2934 0561 0400     		.2byte	0x4
 2935 0563 F3       		.byte	0xf3
 2936 0564 01       		.uleb128 0x1
 2937 0565 51       		.byte	0x51
 2938 0566 9F       		.byte	0x9f
 2939 0567 00000000 		.4byte	0
 2940 056b 00000000 		.4byte	0
 2941              	.LLST26:
 2942 056f 00000000 		.4byte	.LVL79
 2943 0573 68000000 		.4byte	.LVL86
 2944 0577 0200     		.2byte	0x2
 2945 0579 30       		.byte	0x30
 2946 057a 9F       		.byte	0x9f
 2947 057b 68000000 		.4byte	.LVL86
 2948 057f 6E000000 		.4byte	.LVL87
 2949 0583 0200     		.2byte	0x2
 2950 0585 31       		.byte	0x31
 2951 0586 9F       		.byte	0x9f
 2952 0587 6E000000 		.4byte	.LVL87
 2953 058b 72000000 		.4byte	.LVL88
 2954 058f 0200     		.2byte	0x2
 2955 0591 30       		.byte	0x30
 2956 0592 9F       		.byte	0x9f
 2957 0593 00000000 		.4byte	0
 2958 0597 00000000 		.4byte	0
 2959              	.LLST27:
 2960 059b 00000000 		.4byte	.LVL79
 2961 059f 68000000 		.4byte	.LVL86
 2962 05a3 0200     		.2byte	0x2
 2963 05a5 34       		.byte	0x34
 2964 05a6 9F       		.byte	0x9f
 2965 05a7 68000000 		.4byte	.LVL86
 2966 05ab 6E000000 		.4byte	.LVL87
 2967 05af 0400     		.2byte	0x4
 2968 05b1 0A       		.byte	0xa
 2969 05b2 0001     		.2byte	0x100
 2970 05b4 9F       		.byte	0x9f
 2971 05b5 6E000000 		.4byte	.LVL87
 2972 05b9 72000000 		.4byte	.LVL88
 2973 05bd 0200     		.2byte	0x2
 2974 05bf 34       		.byte	0x34
 2975 05c0 9F       		.byte	0x9f
 2976 05c1 72000000 		.4byte	.LVL88
 2977 05c5 AC000000 		.4byte	.LFE4
 2978 05c9 0100     		.2byte	0x1
 2979 05cb 52       		.byte	0x52
 2980 05cc 00000000 		.4byte	0
 2981 05d0 00000000 		.4byte	0
 2982              		.section	.debug_aranges,"",%progbits
 2983 0000 84000000 		.4byte	0x84
ARM GAS  C:\Users\Greg\AppData\Local\Temp\cc742Y6h.s 			page 75


 2984 0004 0200     		.2byte	0x2
 2985 0006 00000000 		.4byte	.Ldebug_info0
 2986 000a 04       		.byte	0x4
 2987 000b 00       		.byte	0
 2988 000c 0000     		.2byte	0
 2989 000e 0000     		.2byte	0
 2990 0010 00000000 		.4byte	.LFB3
 2991 0014 B8000000 		.4byte	.LFE3-.LFB3
 2992 0018 00000000 		.4byte	.LFB5
 2993 001c 84000000 		.4byte	.LFE5-.LFB5
 2994 0020 00000000 		.4byte	.LFB6
 2995 0024 84000000 		.4byte	.LFE6-.LFB6
 2996 0028 00000000 		.4byte	.LFB7
 2997 002c 84000000 		.4byte	.LFE7-.LFB7
 2998 0030 00000000 		.4byte	.LFB8
 2999 0034 0C000000 		.4byte	.LFE8-.LFB8
 3000 0038 00000000 		.4byte	.LFB9
 3001 003c 0C000000 		.4byte	.LFE9-.LFB9
 3002 0040 00000000 		.4byte	.LFB10
 3003 0044 28000000 		.4byte	.LFE10-.LFB10
 3004 0048 00000000 		.4byte	.LFB11
 3005 004c 28000000 		.4byte	.LFE11-.LFB11
 3006 0050 00000000 		.4byte	.LFB12
 3007 0054 2C000000 		.4byte	.LFE12-.LFB12
 3008 0058 00000000 		.4byte	.LFB13
 3009 005c 20000000 		.4byte	.LFE13-.LFB13
 3010 0060 00000000 		.4byte	.LFB14
 3011 0064 20000000 		.4byte	.LFE14-.LFB14
 3012 0068 00000000 		.4byte	.LFB1
 3013 006c DC000000 		.4byte	.LFE1-.LFB1
 3014 0070 00000000 		.4byte	.LFB2
 3015 0074 E8000000 		.4byte	.LFE2-.LFB2
 3016 0078 00000000 		.4byte	.LFB4
 3017 007c AC000000 		.4byte	.LFE4-.LFB4
 3018 0080 00000000 		.4byte	0
 3019 0084 00000000 		.4byte	0
 3020              		.section	.debug_ranges,"",%progbits
 3021              	.Ldebug_ranges0:
 3022 0000 00000000 		.4byte	.LFB3
 3023 0004 B8000000 		.4byte	.LFE3
 3024 0008 00000000 		.4byte	.LFB5
 3025 000c 84000000 		.4byte	.LFE5
 3026 0010 00000000 		.4byte	.LFB6
 3027 0014 84000000 		.4byte	.LFE6
 3028 0018 00000000 		.4byte	.LFB7
 3029 001c 84000000 		.4byte	.LFE7
 3030 0020 00000000 		.4byte	.LFB8
 3031 0024 0C000000 		.4byte	.LFE8
 3032 0028 00000000 		.4byte	.LFB9
 3033 002c 0C000000 		.4byte	.LFE9
 3034 0030 00000000 		.4byte	.LFB10
 3035 0034 28000000 		.4byte	.LFE10
 3036 0038 00000000 		.4byte	.LFB11
 3037 003c 28000000 		.4byte	.LFE11
 3038 0040 00000000 		.4byte	.LFB12
 3039 0044 2C000000 		.4byte	.LFE12
 3040 0048 00000000 		.4byte	.LFB13
ARM GAS  C:\Users\Greg\AppData\Local\Temp\cc742Y6h.s 			page 76


 3041 004c 20000000 		.4byte	.LFE13
 3042 0050 00000000 		.4byte	.LFB14
 3043 0054 20000000 		.4byte	.LFE14
 3044 0058 00000000 		.4byte	.LFB1
 3045 005c DC000000 		.4byte	.LFE1
 3046 0060 00000000 		.4byte	.LFB2
 3047 0064 E8000000 		.4byte	.LFE2
 3048 0068 00000000 		.4byte	.LFB4
 3049 006c AC000000 		.4byte	.LFE4
 3050 0070 00000000 		.4byte	0
 3051 0074 00000000 		.4byte	0
 3052              		.section	.debug_line,"",%progbits
 3053              	.Ldebug_line0:
 3054 0000 F4020000 		.section	.debug_str,"MS",%progbits,1
 3054      02006700 
 3054      00000201 
 3054      FB0E0D00 
 3054      01010101 
 3055              	.LASF28:
 3056 0000 4932435F 		.ascii	"I2C_I2CMasterGetReadBufSize\000"
 3056      4932434D 
 3056      61737465 
 3056      72476574 
 3056      52656164 
 3057              	.LASF15:
 3058 001c 72656733 		.ascii	"reg32\000"
 3058      3200
 3059              	.LASF48:
 3060 0022 4932435F 		.ascii	"I2C_mstrWrBufPtr\000"
 3060      6D737472 
 3060      57724275 
 3060      66507472 
 3060      00
 3061              	.LASF35:
 3062 0033 4932435F 		.ascii	"I2C_I2CReStartGeneration\000"
 3062      49324352 
 3062      65537461 
 3062      72744765 
 3062      6E657261 
 3063              	.LASF30:
 3064 004c 4932435F 		.ascii	"I2C_I2CMasterClearReadBuf\000"
 3064      4932434D 
 3064      61737465 
 3064      72436C65 
 3064      61725265 
 3065              	.LASF3:
 3066 0066 73686F72 		.ascii	"short unsigned int\000"
 3066      7420756E 
 3066      7369676E 
 3066      65642069 
 3066      6E7400
 3067              	.LASF33:
 3068 0079 73746174 		.ascii	"status\000"
 3068      757300
 3069              	.LASF20:
 3070 0080 72657365 		.ascii	"resetIp\000"
 3070      74497000 
ARM GAS  C:\Users\Greg\AppData\Local\Temp\cc742Y6h.s 			page 77


 3071              	.LASF32:
 3072 0088 4932435F 		.ascii	"I2C_I2CMasterStatus\000"
 3072      4932434D 
 3072      61737465 
 3072      72537461 
 3072      74757300 
 3073              	.LASF47:
 3074 009c 4932435F 		.ascii	"I2C_mstrRdBufIndex\000"
 3074      6D737472 
 3074      52644275 
 3074      66496E64 
 3074      657800
 3075              	.LASF12:
 3076 00af 666C6F61 		.ascii	"float\000"
 3076      7400
 3077              	.LASF0:
 3078 00b5 7369676E 		.ascii	"signed char\000"
 3078      65642063 
 3078      68617200 
 3079              	.LASF1:
 3080 00c1 756E7369 		.ascii	"unsigned char\000"
 3080      676E6564 
 3080      20636861 
 3080      7200
 3081              	.LASF22:
 3082 00cf 4932435F 		.ascii	"I2C_I2CMasterSendStart\000"
 3082      4932434D 
 3082      61737465 
 3082      7253656E 
 3082      64537461 
 3083              	.LASF31:
 3084 00e6 4932435F 		.ascii	"I2C_I2CMasterClearWriteBuf\000"
 3084      4932434D 
 3084      61737465 
 3084      72436C65 
 3084      61725772 
 3085              	.LASF44:
 3086 0101 4932435F 		.ascii	"I2C_mstrControl\000"
 3086      6D737472 
 3086      436F6E74 
 3086      726F6C00 
 3087              	.LASF5:
 3088 0111 6C6F6E67 		.ascii	"long unsigned int\000"
 3088      20756E73 
 3088      69676E65 
 3088      6420696E 
 3088      7400
 3089              	.LASF36:
 3090 0123 4932435F 		.ascii	"I2C_I2CMasterWriteBuf\000"
 3090      4932434D 
 3090      61737465 
 3090      72577269 
 3090      74654275 
 3091              	.LASF9:
 3092 0139 75696E74 		.ascii	"uint8\000"
 3092      3800
 3093              	.LASF56:
ARM GAS  C:\Users\Greg\AppData\Local\Temp\cc742Y6h.s 			page 78


 3094 013f 5A3A5C47 		.ascii	"Z:\\Git\\WA101\\ww101-shield\\firmware\\TestProgram"
 3094      69745C57 
 3094      41313031 
 3094      5C777731 
 3094      30312D73 
 3095 016d 344D2E63 		.ascii	"4M.cydsn\000"
 3095      7964736E 
 3095      00
 3096              	.LASF27:
 3097 0176 61636B4E 		.ascii	"ackNack\000"
 3097      61636B00 
 3098              	.LASF21:
 3099 017e 65727253 		.ascii	"errStatus\000"
 3099      74617475 
 3099      7300
 3100              	.LASF13:
 3101 0188 646F7562 		.ascii	"double\000"
 3101      6C6500
 3102              	.LASF19:
 3103 018f 62697452 		.ascii	"bitRnW\000"
 3103      6E5700
 3104              	.LASF53:
 3105 0196 4379496E 		.ascii	"CyIntEnable\000"
 3105      74456E61 
 3105      626C6500 
 3106              	.LASF10:
 3107 01a2 75696E74 		.ascii	"uint16\000"
 3107      313600
 3108              	.LASF55:
 3109 01a9 47656E65 		.ascii	"Generated_Source\\PSoC4\\I2C_I2C_MASTER.c\000"
 3109      72617465 
 3109      645F536F 
 3109      75726365 
 3109      5C50536F 
 3110              	.LASF40:
 3111 01d1 72644461 		.ascii	"rdData\000"
 3111      746100
 3112              	.LASF11:
 3113 01d8 75696E74 		.ascii	"uint32\000"
 3113      333200
 3114              	.LASF46:
 3115 01df 4932435F 		.ascii	"I2C_mstrRdBufSize\000"
 3115      6D737472 
 3115      52644275 
 3115      6653697A 
 3115      6500
 3116              	.LASF8:
 3117 01f1 756E7369 		.ascii	"unsigned int\000"
 3117      676E6564 
 3117      20696E74 
 3117      00
 3118              	.LASF37:
 3119 01fe 77724461 		.ascii	"wrData\000"
 3119      746100
 3120              	.LASF7:
 3121 0205 6C6F6E67 		.ascii	"long long unsigned int\000"
 3121      206C6F6E 
ARM GAS  C:\Users\Greg\AppData\Local\Temp\cc742Y6h.s 			page 79


 3121      6720756E 
 3121      7369676E 
 3121      65642069 
 3122              	.LASF38:
 3123 021c 6D6F6465 		.ascii	"mode\000"
 3123      00
 3124              	.LASF18:
 3125 0221 736C6176 		.ascii	"slaveAddress\000"
 3125      65416464 
 3125      72657373 
 3125      00
 3126              	.LASF43:
 3127 022e 4932435F 		.ascii	"I2C_mstrStatus\000"
 3127      6D737472 
 3127      53746174 
 3127      757300
 3128              	.LASF17:
 3129 023d 73697A65 		.ascii	"sizetype\000"
 3129      74797065 
 3129      00
 3130              	.LASF6:
 3131 0246 6C6F6E67 		.ascii	"long long int\000"
 3131      206C6F6E 
 3131      6720696E 
 3131      7400
 3132              	.LASF14:
 3133 0254 63686172 		.ascii	"char\000"
 3133      00
 3134              	.LASF24:
 3135 0259 4932435F 		.ascii	"I2C_I2CMasterWriteByte\000"
 3135      4932434D 
 3135      61737465 
 3135      72577269 
 3135      74654279 
 3136              	.LASF52:
 3137 0270 4379496E 		.ascii	"CyIntDisable\000"
 3137      74446973 
 3137      61626C65 
 3137      00
 3138              	.LASF2:
 3139 027d 73686F72 		.ascii	"short int\000"
 3139      7420696E 
 3139      7400
 3140              	.LASF25:
 3141 0287 74686542 		.ascii	"theByte\000"
 3141      79746500 
 3142              	.LASF41:
 3143 028f 4932435F 		.ascii	"I2C_I2CMasterSendRestart\000"
 3143      4932434D 
 3143      61737465 
 3143      7253656E 
 3143      64526573 
 3144              	.LASF26:
 3145 02a8 4932435F 		.ascii	"I2C_I2CMasterReadByte\000"
 3145      4932434D 
 3145      61737465 
 3145      72526561 
ARM GAS  C:\Users\Greg\AppData\Local\Temp\cc742Y6h.s 			page 80


 3145      64427974 
 3146              	.LASF45:
 3147 02be 4932435F 		.ascii	"I2C_mstrRdBufPtr\000"
 3147      6D737472 
 3147      52644275 
 3147      66507472 
 3147      00
 3148              	.LASF51:
 3149 02cf 4932435F 		.ascii	"I2C_mstrWrBufIndexTmp\000"
 3149      6D737472 
 3149      57724275 
 3149      66496E64 
 3149      6578546D 
 3150              	.LASF4:
 3151 02e5 6C6F6E67 		.ascii	"long int\000"
 3151      20696E74 
 3151      00
 3152              	.LASF16:
 3153 02ee 6C6F6E67 		.ascii	"long double\000"
 3153      20646F75 
 3153      626C6500 
 3154              	.LASF29:
 3155 02fa 4932435F 		.ascii	"I2C_I2CMasterGetWriteBufSize\000"
 3155      4932434D 
 3155      61737465 
 3155      72476574 
 3155      57726974 
 3156              	.LASF50:
 3157 0317 4932435F 		.ascii	"I2C_mstrWrBufIndex\000"
 3157      6D737472 
 3157      57724275 
 3157      66496E64 
 3157      657800
 3158              	.LASF49:
 3159 032a 4932435F 		.ascii	"I2C_mstrWrBufSize\000"
 3159      6D737472 
 3159      57724275 
 3159      6653697A 
 3159      6500
 3160              	.LASF39:
 3161 033c 4932435F 		.ascii	"I2C_I2CMasterReadBuf\000"
 3161      4932434D 
 3161      61737465 
 3161      72526561 
 3161      64427566 
 3162              	.LASF54:
 3163 0351 474E5520 		.ascii	"GNU C11 5.4.1 20160609 (release) [ARM/embedded-5-br"
 3163      43313120 
 3163      352E342E 
 3163      31203230 
 3163      31363036 
 3164 0384 616E6368 		.ascii	"anch revision 237715] -mcpu=cortex-m0 -mthumb -g -O"
 3164      20726576 
 3164      6973696F 
 3164      6E203233 
 3164      37373135 
 3165 03b7 73202D66 		.ascii	"s -ffunction-sections -ffat-lto-objects\000"
ARM GAS  C:\Users\Greg\AppData\Local\Temp\cc742Y6h.s 			page 81


 3165      66756E63 
 3165      74696F6E 
 3165      2D736563 
 3165      74696F6E 
 3166              	.LASF34:
 3167 03df 4932435F 		.ascii	"I2C_I2CMasterClearStatus\000"
 3167      4932434D 
 3167      61737465 
 3167      72436C65 
 3167      61725374 
 3168              	.LASF42:
 3169 03f8 4932435F 		.ascii	"I2C_state\000"
 3169      73746174 
 3169      6500
 3170              	.LASF23:
 3171 0402 4932435F 		.ascii	"I2C_I2CMasterSendStop\000"
 3171      4932434D 
 3171      61737465 
 3171      7253656E 
 3171      6453746F 
 3172              		.ident	"GCC: (GNU Tools for ARM Embedded Processors) 5.4.1 20160609 (release) [ARM/embedded-5-bran
