ARM GAS  C:\Users\Greg\AppData\Local\Temp\cc742Y6h.s 			page 1


   1              		.syntax unified
   2              		.cpu cortex-m0
   3              		.fpu softvfp
   4              		.eabi_attribute 20, 1
   5              		.eabi_attribute 21, 1
   6              		.eabi_attribute 23, 3
   7              		.eabi_attribute 24, 1
   8              		.eabi_attribute 25, 1
   9              		.eabi_attribute 26, 1
  10              		.eabi_attribute 30, 4
  11              		.eabi_attribute 34, 0
  12              		.eabi_attribute 18, 4
  13              		.thumb
  14              		.syntax unified
  15              		.file	"I2C_I2C_MASTER.c"
  16              		.text
  17              	.Ltext0:
  18              		.cfi_sections	.debug_frame
  19              		.section	.text.I2C_I2CMasterSendStart,"ax",%progbits
  20              		.align	1
  21              		.global	I2C_I2CMasterSendStart
  22              		.code	16
  23              		.thumb_func
  24              		.type	I2C_I2CMasterSendStart, %function
  25              	I2C_I2CMasterSendStart:
  26              	.LFB3:
  27              		.file 1 "Generated_Source\\PSoC4\\I2C_I2C_MASTER.c"
   1:Generated_Source\PSoC4/I2C_I2C_MASTER.c **** /***************************************************************************//**
   2:Generated_Source\PSoC4/I2C_I2C_MASTER.c **** * \file I2C_I2C_MASTER.c
   3:Generated_Source\PSoC4/I2C_I2C_MASTER.c **** * \version 3.20
   4:Generated_Source\PSoC4/I2C_I2C_MASTER.c **** *
   5:Generated_Source\PSoC4/I2C_I2C_MASTER.c **** * \brief
   6:Generated_Source\PSoC4/I2C_I2C_MASTER.c **** *  This file provides the source code to the API for the SCB Component in
   7:Generated_Source\PSoC4/I2C_I2C_MASTER.c **** *  I2C Master mode.
   8:Generated_Source\PSoC4/I2C_I2C_MASTER.c **** *
   9:Generated_Source\PSoC4/I2C_I2C_MASTER.c **** * Note:
  10:Generated_Source\PSoC4/I2C_I2C_MASTER.c **** *
  11:Generated_Source\PSoC4/I2C_I2C_MASTER.c **** *******************************************************************************
  12:Generated_Source\PSoC4/I2C_I2C_MASTER.c **** * \copyright
  13:Generated_Source\PSoC4/I2C_I2C_MASTER.c **** * Copyright 2013-2016, Cypress Semiconductor Corporation.  All rights reserved.
  14:Generated_Source\PSoC4/I2C_I2C_MASTER.c **** * You may use this file only in accordance with the license, terms, conditions,
  15:Generated_Source\PSoC4/I2C_I2C_MASTER.c **** * disclaimers, and limitations in the end user license agreement accompanying
  16:Generated_Source\PSoC4/I2C_I2C_MASTER.c **** * the software package with which this file was provided.
  17:Generated_Source\PSoC4/I2C_I2C_MASTER.c **** *******************************************************************************/
  18:Generated_Source\PSoC4/I2C_I2C_MASTER.c **** 
  19:Generated_Source\PSoC4/I2C_I2C_MASTER.c **** #include "I2C_PVT.h"
  20:Generated_Source\PSoC4/I2C_I2C_MASTER.c **** #include "I2C_I2C_PVT.h"
  21:Generated_Source\PSoC4/I2C_I2C_MASTER.c **** 
  22:Generated_Source\PSoC4/I2C_I2C_MASTER.c **** #if(I2C_I2C_MASTER_CONST)
  23:Generated_Source\PSoC4/I2C_I2C_MASTER.c **** 
  24:Generated_Source\PSoC4/I2C_I2C_MASTER.c **** /***************************************
  25:Generated_Source\PSoC4/I2C_I2C_MASTER.c **** *      I2C Master Private Vars
  26:Generated_Source\PSoC4/I2C_I2C_MASTER.c **** ***************************************/
  27:Generated_Source\PSoC4/I2C_I2C_MASTER.c **** 
  28:Generated_Source\PSoC4/I2C_I2C_MASTER.c **** /* Master variables */
  29:Generated_Source\PSoC4/I2C_I2C_MASTER.c **** volatile uint16 I2C_mstrStatus;      /* Master Status byte  */
  30:Generated_Source\PSoC4/I2C_I2C_MASTER.c **** volatile uint8  I2C_mstrControl;     /* Master Control byte */
ARM GAS  C:\Users\Greg\AppData\Local\Temp\cc742Y6h.s 			page 2


  31:Generated_Source\PSoC4/I2C_I2C_MASTER.c **** 
  32:Generated_Source\PSoC4/I2C_I2C_MASTER.c **** /* Receive buffer variables */
  33:Generated_Source\PSoC4/I2C_I2C_MASTER.c **** volatile uint8 * I2C_mstrRdBufPtr;   /* Pointer to Master Read buffer */
  34:Generated_Source\PSoC4/I2C_I2C_MASTER.c **** volatile uint32  I2C_mstrRdBufSize;  /* Master Read buffer size       */
  35:Generated_Source\PSoC4/I2C_I2C_MASTER.c **** volatile uint32  I2C_mstrRdBufIndex; /* Master Read buffer Index      */
  36:Generated_Source\PSoC4/I2C_I2C_MASTER.c **** 
  37:Generated_Source\PSoC4/I2C_I2C_MASTER.c **** /* Transmit buffer variables */
  38:Generated_Source\PSoC4/I2C_I2C_MASTER.c **** volatile uint8 * I2C_mstrWrBufPtr;   /* Pointer to Master Write buffer */
  39:Generated_Source\PSoC4/I2C_I2C_MASTER.c **** volatile uint32  I2C_mstrWrBufSize;  /* Master Write buffer size       */
  40:Generated_Source\PSoC4/I2C_I2C_MASTER.c **** volatile uint32  I2C_mstrWrBufIndex; /* Master Write buffer Index      */
  41:Generated_Source\PSoC4/I2C_I2C_MASTER.c **** volatile uint32  I2C_mstrWrBufIndexTmp; /* Master Write buffer Index Tmp */
  42:Generated_Source\PSoC4/I2C_I2C_MASTER.c **** 
  43:Generated_Source\PSoC4/I2C_I2C_MASTER.c **** #if (!I2C_CY_SCBIP_V0 && \
  44:Generated_Source\PSoC4/I2C_I2C_MASTER.c ****     I2C_I2C_MULTI_MASTER_SLAVE_CONST && I2C_I2C_WAKE_ENABLE_CONST)
  45:Generated_Source\PSoC4/I2C_I2C_MASTER.c ****     static void I2C_I2CMasterDisableEcAm(void);
  46:Generated_Source\PSoC4/I2C_I2C_MASTER.c **** #endif /* (!I2C_CY_SCBIP_V0) */
  47:Generated_Source\PSoC4/I2C_I2C_MASTER.c **** 
  48:Generated_Source\PSoC4/I2C_I2C_MASTER.c **** 
  49:Generated_Source\PSoC4/I2C_I2C_MASTER.c **** /*******************************************************************************
  50:Generated_Source\PSoC4/I2C_I2C_MASTER.c **** * Function Name: I2C_I2CMasterWriteBuf
  51:Generated_Source\PSoC4/I2C_I2C_MASTER.c **** ****************************************************************************//**
  52:Generated_Source\PSoC4/I2C_I2C_MASTER.c **** *
  53:Generated_Source\PSoC4/I2C_I2C_MASTER.c **** *  Automatically writes an entire buffer of data to a slave device.
  54:Generated_Source\PSoC4/I2C_I2C_MASTER.c **** *  Once the data transfer is initiated by this function, further data transfer
  55:Generated_Source\PSoC4/I2C_I2C_MASTER.c **** *  is handled by the included ISR.
  56:Generated_Source\PSoC4/I2C_I2C_MASTER.c **** *  Enables the I2C interrupt and clears I2C_I2C_MSTAT_WR_CMPLT 
  57:Generated_Source\PSoC4/I2C_I2C_MASTER.c **** *  status.
  58:Generated_Source\PSoC4/I2C_I2C_MASTER.c **** *
  59:Generated_Source\PSoC4/I2C_I2C_MASTER.c **** *  \param slaveAddr: 7-bit slave address.
  60:Generated_Source\PSoC4/I2C_I2C_MASTER.c **** *  \param xferData: Pointer to buffer of data to be sent.
  61:Generated_Source\PSoC4/I2C_I2C_MASTER.c **** *  \param cnt: Size of buffer to send.
  62:Generated_Source\PSoC4/I2C_I2C_MASTER.c **** *  \param mode: Transfer mode defines:
  63:Generated_Source\PSoC4/I2C_I2C_MASTER.c **** *  (1) Whether a start or restart condition is generated at the beginning 
  64:Generated_Source\PSoC4/I2C_I2C_MASTER.c **** *  of the transfer, and
  65:Generated_Source\PSoC4/I2C_I2C_MASTER.c **** *  (2) Whether the transfer is completed or halted before the stop 
  66:Generated_Source\PSoC4/I2C_I2C_MASTER.c **** *  condition is generated on the bus.Transfer mode, mode constants 
  67:Generated_Source\PSoC4/I2C_I2C_MASTER.c **** *  may be ORed together.
  68:Generated_Source\PSoC4/I2C_I2C_MASTER.c **** *  - I2C_I2C_MODE_COMPLETE_XFER - Perform complete transfer 
  69:Generated_Source\PSoC4/I2C_I2C_MASTER.c **** *    from Start to Stop.
  70:Generated_Source\PSoC4/I2C_I2C_MASTER.c **** *  - I2C_I2C_MODE_REPEAT_START - Send Repeat Start instead 
  71:Generated_Source\PSoC4/I2C_I2C_MASTER.c **** *    of Start. A Stop is generated after transfer is completed unless 
  72:Generated_Source\PSoC4/I2C_I2C_MASTER.c **** *    NO_STOP is specified.
  73:Generated_Source\PSoC4/I2C_I2C_MASTER.c **** *  - I2C_I2C_MODE_NO_STOP Execute transfer without a Stop.
  74:Generated_Source\PSoC4/I2C_I2C_MASTER.c **** *    The following transfer expected to perform ReStart.
  75:Generated_Source\PSoC4/I2C_I2C_MASTER.c **** *
  76:Generated_Source\PSoC4/I2C_I2C_MASTER.c **** * \return
  77:Generated_Source\PSoC4/I2C_I2C_MASTER.c **** *  Error status.
  78:Generated_Source\PSoC4/I2C_I2C_MASTER.c **** *  - I2C_I2C_MSTR_NO_ERROR - Function complete without error. 
  79:Generated_Source\PSoC4/I2C_I2C_MASTER.c **** *    The master started the transfer.
  80:Generated_Source\PSoC4/I2C_I2C_MASTER.c **** *  - I2C_I2C_MSTR_BUS_BUSY - Bus is busy. Nothing was sent on
  81:Generated_Source\PSoC4/I2C_I2C_MASTER.c **** *    the bus. The attempt has to be retried.
  82:Generated_Source\PSoC4/I2C_I2C_MASTER.c **** *  - I2C_I2C_MSTR_NOT_READY - Master is not ready for to start
  83:Generated_Source\PSoC4/I2C_I2C_MASTER.c **** *    transfer. A master still has not completed previous transaction or a 
  84:Generated_Source\PSoC4/I2C_I2C_MASTER.c **** *    slave operation is in progress (in multi-master-slave configuration).
  85:Generated_Source\PSoC4/I2C_I2C_MASTER.c **** *    Nothing was sent on the bus. The attempt has to be retried.
  86:Generated_Source\PSoC4/I2C_I2C_MASTER.c **** *
  87:Generated_Source\PSoC4/I2C_I2C_MASTER.c **** * \globalvars
ARM GAS  C:\Users\Greg\AppData\Local\Temp\cc742Y6h.s 			page 3


  88:Generated_Source\PSoC4/I2C_I2C_MASTER.c **** *  I2C_mstrStatus  - used to store current status of I2C Master.
  89:Generated_Source\PSoC4/I2C_I2C_MASTER.c **** *  I2C_state       - used to store current state of software FSM.
  90:Generated_Source\PSoC4/I2C_I2C_MASTER.c **** *  I2C_mstrControl - used to control master end of transaction with
  91:Generated_Source\PSoC4/I2C_I2C_MASTER.c **** *  or without the Stop generation.
  92:Generated_Source\PSoC4/I2C_I2C_MASTER.c **** *  I2C_mstrWrBufPtr - used to store pointer to master write buffer.
  93:Generated_Source\PSoC4/I2C_I2C_MASTER.c **** *  I2C_mstrWrBufIndex - used to current index within master write
  94:Generated_Source\PSoC4/I2C_I2C_MASTER.c **** *  buffer.
  95:Generated_Source\PSoC4/I2C_I2C_MASTER.c **** *  I2C_mstrWrBufSize - used to store master write buffer size.
  96:Generated_Source\PSoC4/I2C_I2C_MASTER.c **** *
  97:Generated_Source\PSoC4/I2C_I2C_MASTER.c **** *******************************************************************************/
  98:Generated_Source\PSoC4/I2C_I2C_MASTER.c **** uint32 I2C_I2CMasterWriteBuf(uint32 slaveAddress, uint8 * wrData, uint32 cnt, uint32 mode)
  99:Generated_Source\PSoC4/I2C_I2C_MASTER.c **** {
 100:Generated_Source\PSoC4/I2C_I2C_MASTER.c ****     uint32 errStatus;
 101:Generated_Source\PSoC4/I2C_I2C_MASTER.c **** 
 102:Generated_Source\PSoC4/I2C_I2C_MASTER.c ****     errStatus = I2C_I2C_MSTR_NOT_READY;
 103:Generated_Source\PSoC4/I2C_I2C_MASTER.c **** 
 104:Generated_Source\PSoC4/I2C_I2C_MASTER.c ****     if(NULL != wrData)  /* Check buffer pointer */
 105:Generated_Source\PSoC4/I2C_I2C_MASTER.c ****     {
 106:Generated_Source\PSoC4/I2C_I2C_MASTER.c ****         /* Check FSM state and bus before generating Start/ReStart condition */
 107:Generated_Source\PSoC4/I2C_I2C_MASTER.c ****         if(I2C_CHECK_I2C_FSM_IDLE)
 108:Generated_Source\PSoC4/I2C_I2C_MASTER.c ****         {
 109:Generated_Source\PSoC4/I2C_I2C_MASTER.c ****             I2C_DisableInt();  /* Lock from interruption */
 110:Generated_Source\PSoC4/I2C_I2C_MASTER.c **** 
 111:Generated_Source\PSoC4/I2C_I2C_MASTER.c ****             /* Check bus state */
 112:Generated_Source\PSoC4/I2C_I2C_MASTER.c ****             errStatus = I2C_CHECK_I2C_STATUS(I2C_I2C_STATUS_BUS_BUSY) ?
 113:Generated_Source\PSoC4/I2C_I2C_MASTER.c ****                             I2C_I2C_MSTR_BUS_BUSY : I2C_I2C_MSTR_NO_ERROR;
 114:Generated_Source\PSoC4/I2C_I2C_MASTER.c ****         }
 115:Generated_Source\PSoC4/I2C_I2C_MASTER.c ****         else if(I2C_CHECK_I2C_FSM_HALT)
 116:Generated_Source\PSoC4/I2C_I2C_MASTER.c ****         {
 117:Generated_Source\PSoC4/I2C_I2C_MASTER.c ****             I2C_mstrStatus &= (uint16) ~I2C_I2C_MSTAT_XFER_HALT;
 118:Generated_Source\PSoC4/I2C_I2C_MASTER.c ****                               errStatus  = I2C_I2C_MSTR_NO_ERROR;
 119:Generated_Source\PSoC4/I2C_I2C_MASTER.c ****         }
 120:Generated_Source\PSoC4/I2C_I2C_MASTER.c ****         else
 121:Generated_Source\PSoC4/I2C_I2C_MASTER.c ****         {
 122:Generated_Source\PSoC4/I2C_I2C_MASTER.c ****             /* Unexpected FSM state: exit */
 123:Generated_Source\PSoC4/I2C_I2C_MASTER.c ****         }
 124:Generated_Source\PSoC4/I2C_I2C_MASTER.c ****     }
 125:Generated_Source\PSoC4/I2C_I2C_MASTER.c **** 
 126:Generated_Source\PSoC4/I2C_I2C_MASTER.c ****     /* Check if master is ready to start  */
 127:Generated_Source\PSoC4/I2C_I2C_MASTER.c ****     if(I2C_I2C_MSTR_NO_ERROR == errStatus) /* No error proceed */
 128:Generated_Source\PSoC4/I2C_I2C_MASTER.c ****     {
 129:Generated_Source\PSoC4/I2C_I2C_MASTER.c ****     #if (!I2C_CY_SCBIP_V0 && \
 130:Generated_Source\PSoC4/I2C_I2C_MASTER.c ****         I2C_I2C_MULTI_MASTER_SLAVE_CONST && I2C_I2C_WAKE_ENABLE_CONST)
 131:Generated_Source\PSoC4/I2C_I2C_MASTER.c ****             I2C_I2CMasterDisableEcAm();
 132:Generated_Source\PSoC4/I2C_I2C_MASTER.c ****     #endif /* (!I2C_CY_SCBIP_V0) */
 133:Generated_Source\PSoC4/I2C_I2C_MASTER.c **** 
 134:Generated_Source\PSoC4/I2C_I2C_MASTER.c ****         /* Set up write transaction */
 135:Generated_Source\PSoC4/I2C_I2C_MASTER.c ****         I2C_state = I2C_I2C_FSM_MSTR_WR_ADDR;
 136:Generated_Source\PSoC4/I2C_I2C_MASTER.c ****         I2C_mstrWrBufIndexTmp = 0u;
 137:Generated_Source\PSoC4/I2C_I2C_MASTER.c ****         I2C_mstrWrBufIndex    = 0u;
 138:Generated_Source\PSoC4/I2C_I2C_MASTER.c ****         I2C_mstrWrBufSize     = cnt;
 139:Generated_Source\PSoC4/I2C_I2C_MASTER.c ****         I2C_mstrWrBufPtr      = (volatile uint8 *) wrData;
 140:Generated_Source\PSoC4/I2C_I2C_MASTER.c ****         I2C_mstrControl       = (uint8) mode;
 141:Generated_Source\PSoC4/I2C_I2C_MASTER.c **** 
 142:Generated_Source\PSoC4/I2C_I2C_MASTER.c ****         slaveAddress = I2C_GET_I2C_8BIT_ADDRESS(slaveAddress);
 143:Generated_Source\PSoC4/I2C_I2C_MASTER.c **** 
 144:Generated_Source\PSoC4/I2C_I2C_MASTER.c ****         I2C_mstrStatus &= (uint16) ~I2C_I2C_MSTAT_WR_CMPLT;
ARM GAS  C:\Users\Greg\AppData\Local\Temp\cc742Y6h.s 			page 4


 145:Generated_Source\PSoC4/I2C_I2C_MASTER.c **** 
 146:Generated_Source\PSoC4/I2C_I2C_MASTER.c ****         I2C_ClearMasterInterruptSource(I2C_INTR_MASTER_ALL);
 147:Generated_Source\PSoC4/I2C_I2C_MASTER.c ****         I2C_ClearTxInterruptSource(I2C_INTR_TX_UNDERFLOW);
 148:Generated_Source\PSoC4/I2C_I2C_MASTER.c **** 
 149:Generated_Source\PSoC4/I2C_I2C_MASTER.c ****         /* The TX and RX FIFO have to be EMPTY */
 150:Generated_Source\PSoC4/I2C_I2C_MASTER.c **** 
 151:Generated_Source\PSoC4/I2C_I2C_MASTER.c ****         /* Enable interrupt source to catch when address is sent */
 152:Generated_Source\PSoC4/I2C_I2C_MASTER.c ****         I2C_SetTxInterruptMode(I2C_INTR_TX_UNDERFLOW);
 153:Generated_Source\PSoC4/I2C_I2C_MASTER.c **** 
 154:Generated_Source\PSoC4/I2C_I2C_MASTER.c ****         /* Generate Start or ReStart */
 155:Generated_Source\PSoC4/I2C_I2C_MASTER.c ****         if(I2C_CHECK_I2C_MODE_RESTART(mode))
 156:Generated_Source\PSoC4/I2C_I2C_MASTER.c ****         {
 157:Generated_Source\PSoC4/I2C_I2C_MASTER.c ****             I2C_I2C_MASTER_GENERATE_RESTART;
 158:Generated_Source\PSoC4/I2C_I2C_MASTER.c ****             I2C_TX_FIFO_WR_REG = slaveAddress;
 159:Generated_Source\PSoC4/I2C_I2C_MASTER.c ****         }
 160:Generated_Source\PSoC4/I2C_I2C_MASTER.c ****         else
 161:Generated_Source\PSoC4/I2C_I2C_MASTER.c ****         {
 162:Generated_Source\PSoC4/I2C_I2C_MASTER.c ****             I2C_TX_FIFO_WR_REG = slaveAddress;
 163:Generated_Source\PSoC4/I2C_I2C_MASTER.c ****             I2C_I2C_MASTER_GENERATE_START;
 164:Generated_Source\PSoC4/I2C_I2C_MASTER.c ****         }
 165:Generated_Source\PSoC4/I2C_I2C_MASTER.c ****     }
 166:Generated_Source\PSoC4/I2C_I2C_MASTER.c **** 
 167:Generated_Source\PSoC4/I2C_I2C_MASTER.c ****     I2C_EnableInt();   /* Release lock */
 168:Generated_Source\PSoC4/I2C_I2C_MASTER.c **** 
 169:Generated_Source\PSoC4/I2C_I2C_MASTER.c ****     return(errStatus);
 170:Generated_Source\PSoC4/I2C_I2C_MASTER.c **** }
 171:Generated_Source\PSoC4/I2C_I2C_MASTER.c **** 
 172:Generated_Source\PSoC4/I2C_I2C_MASTER.c **** 
 173:Generated_Source\PSoC4/I2C_I2C_MASTER.c **** /*******************************************************************************
 174:Generated_Source\PSoC4/I2C_I2C_MASTER.c **** * Function Name: I2C_I2CMasterReadBuf
 175:Generated_Source\PSoC4/I2C_I2C_MASTER.c **** ****************************************************************************//**
 176:Generated_Source\PSoC4/I2C_I2C_MASTER.c **** *
 177:Generated_Source\PSoC4/I2C_I2C_MASTER.c **** *  Automatically reads an entire buffer of data from a slave device.
 178:Generated_Source\PSoC4/I2C_I2C_MASTER.c **** *  Once the data transfer is initiated by this function, further data transfer
 179:Generated_Source\PSoC4/I2C_I2C_MASTER.c **** *  is handled by the included ISR.
 180:Generated_Source\PSoC4/I2C_I2C_MASTER.c **** *  Enables the I2C interrupt and clears I2C_I2C_MSTAT_RD_CMPLT 
 181:Generated_Source\PSoC4/I2C_I2C_MASTER.c **** *  status.
 182:Generated_Source\PSoC4/I2C_I2C_MASTER.c **** *
 183:Generated_Source\PSoC4/I2C_I2C_MASTER.c **** *  \param slaveAddr: 7-bit slave address.
 184:Generated_Source\PSoC4/I2C_I2C_MASTER.c **** *  \param xferData: Pointer to buffer of data to be sent.
 185:Generated_Source\PSoC4/I2C_I2C_MASTER.c **** *  \param cnt: Size of buffer to send.
 186:Generated_Source\PSoC4/I2C_I2C_MASTER.c **** *  \param mode: Transfer mode defines:
 187:Generated_Source\PSoC4/I2C_I2C_MASTER.c **** *  (1) Whether a start or restart condition is generated at the beginning 
 188:Generated_Source\PSoC4/I2C_I2C_MASTER.c **** *  of the transfer, and
 189:Generated_Source\PSoC4/I2C_I2C_MASTER.c **** *  (2) Whether the transfer is completed or halted before the stop 
 190:Generated_Source\PSoC4/I2C_I2C_MASTER.c **** *  condition is generated on the bus.Transfer mode, mode constants may 
 191:Generated_Source\PSoC4/I2C_I2C_MASTER.c **** *  be ORed together. See I2C_I2CMasterWriteBuf() 
 192:Generated_Source\PSoC4/I2C_I2C_MASTER.c **** *  function for constants.
 193:Generated_Source\PSoC4/I2C_I2C_MASTER.c **** *
 194:Generated_Source\PSoC4/I2C_I2C_MASTER.c **** * \return
 195:Generated_Source\PSoC4/I2C_I2C_MASTER.c **** *  Error status.See I2C_I2CMasterWriteBuf() 
 196:Generated_Source\PSoC4/I2C_I2C_MASTER.c **** *  function for constants.
 197:Generated_Source\PSoC4/I2C_I2C_MASTER.c **** *
 198:Generated_Source\PSoC4/I2C_I2C_MASTER.c **** * \globalvars
 199:Generated_Source\PSoC4/I2C_I2C_MASTER.c **** *  I2C_mstrStatus  - used to store current status of I2C Master.
 200:Generated_Source\PSoC4/I2C_I2C_MASTER.c **** *  I2C_state       - used to store current state of software FSM.
 201:Generated_Source\PSoC4/I2C_I2C_MASTER.c **** *  I2C_mstrControl - used to control master end of transaction with
ARM GAS  C:\Users\Greg\AppData\Local\Temp\cc742Y6h.s 			page 5


 202:Generated_Source\PSoC4/I2C_I2C_MASTER.c **** *  or without the Stop generation.
 203:Generated_Source\PSoC4/I2C_I2C_MASTER.c **** *  I2C_mstrRdBufPtr - used to store pointer to master read buffer.
 204:Generated_Source\PSoC4/I2C_I2C_MASTER.c **** *  I2C_mstrRdBufIndex - used to current index within master read
 205:Generated_Source\PSoC4/I2C_I2C_MASTER.c **** *  buffer.
 206:Generated_Source\PSoC4/I2C_I2C_MASTER.c **** *  I2C_mstrRdBufSize - used to store master read buffer size.
 207:Generated_Source\PSoC4/I2C_I2C_MASTER.c **** *
 208:Generated_Source\PSoC4/I2C_I2C_MASTER.c **** *******************************************************************************/
 209:Generated_Source\PSoC4/I2C_I2C_MASTER.c **** uint32 I2C_I2CMasterReadBuf(uint32 slaveAddress, uint8 * rdData, uint32 cnt, uint32 mode)
 210:Generated_Source\PSoC4/I2C_I2C_MASTER.c **** {
 211:Generated_Source\PSoC4/I2C_I2C_MASTER.c ****     uint32 errStatus;
 212:Generated_Source\PSoC4/I2C_I2C_MASTER.c **** 
 213:Generated_Source\PSoC4/I2C_I2C_MASTER.c ****     errStatus = I2C_I2C_MSTR_NOT_READY;
 214:Generated_Source\PSoC4/I2C_I2C_MASTER.c **** 
 215:Generated_Source\PSoC4/I2C_I2C_MASTER.c ****     if(NULL != rdData)
 216:Generated_Source\PSoC4/I2C_I2C_MASTER.c ****     {
 217:Generated_Source\PSoC4/I2C_I2C_MASTER.c ****         /* Check FSM state and bus before generating Start/ReStart condition */
 218:Generated_Source\PSoC4/I2C_I2C_MASTER.c ****         if(I2C_CHECK_I2C_FSM_IDLE)
 219:Generated_Source\PSoC4/I2C_I2C_MASTER.c ****         {
 220:Generated_Source\PSoC4/I2C_I2C_MASTER.c ****             I2C_DisableInt();  /* Lock from interruption */
 221:Generated_Source\PSoC4/I2C_I2C_MASTER.c **** 
 222:Generated_Source\PSoC4/I2C_I2C_MASTER.c ****             /* Check bus state */
 223:Generated_Source\PSoC4/I2C_I2C_MASTER.c ****             errStatus = I2C_CHECK_I2C_STATUS(I2C_I2C_STATUS_BUS_BUSY) ?
 224:Generated_Source\PSoC4/I2C_I2C_MASTER.c ****                             I2C_I2C_MSTR_BUS_BUSY : I2C_I2C_MSTR_NO_ERROR;
 225:Generated_Source\PSoC4/I2C_I2C_MASTER.c ****         }
 226:Generated_Source\PSoC4/I2C_I2C_MASTER.c ****         else if(I2C_CHECK_I2C_FSM_HALT)
 227:Generated_Source\PSoC4/I2C_I2C_MASTER.c ****         {
 228:Generated_Source\PSoC4/I2C_I2C_MASTER.c ****             I2C_mstrStatus &= (uint16) ~I2C_I2C_MSTAT_XFER_HALT;
 229:Generated_Source\PSoC4/I2C_I2C_MASTER.c ****                               errStatus  =  I2C_I2C_MSTR_NO_ERROR;
 230:Generated_Source\PSoC4/I2C_I2C_MASTER.c ****         }
 231:Generated_Source\PSoC4/I2C_I2C_MASTER.c ****         else
 232:Generated_Source\PSoC4/I2C_I2C_MASTER.c ****         {
 233:Generated_Source\PSoC4/I2C_I2C_MASTER.c ****             /* Unexpected FSM state: exit */
 234:Generated_Source\PSoC4/I2C_I2C_MASTER.c ****         }
 235:Generated_Source\PSoC4/I2C_I2C_MASTER.c ****     }
 236:Generated_Source\PSoC4/I2C_I2C_MASTER.c **** 
 237:Generated_Source\PSoC4/I2C_I2C_MASTER.c ****     /* Check master ready to proceed */
 238:Generated_Source\PSoC4/I2C_I2C_MASTER.c ****     if(I2C_I2C_MSTR_NO_ERROR == errStatus) /* No error proceed */
 239:Generated_Source\PSoC4/I2C_I2C_MASTER.c ****     {
 240:Generated_Source\PSoC4/I2C_I2C_MASTER.c ****         #if (!I2C_CY_SCBIP_V0 && \
 241:Generated_Source\PSoC4/I2C_I2C_MASTER.c ****         I2C_I2C_MULTI_MASTER_SLAVE_CONST && I2C_I2C_WAKE_ENABLE_CONST)
 242:Generated_Source\PSoC4/I2C_I2C_MASTER.c ****             I2C_I2CMasterDisableEcAm();
 243:Generated_Source\PSoC4/I2C_I2C_MASTER.c ****         #endif /* (!I2C_CY_SCBIP_V0) */
 244:Generated_Source\PSoC4/I2C_I2C_MASTER.c **** 
 245:Generated_Source\PSoC4/I2C_I2C_MASTER.c ****         /* Set up read transaction */
 246:Generated_Source\PSoC4/I2C_I2C_MASTER.c ****         I2C_state = I2C_I2C_FSM_MSTR_RD_ADDR;
 247:Generated_Source\PSoC4/I2C_I2C_MASTER.c ****         I2C_mstrRdBufIndex = 0u;
 248:Generated_Source\PSoC4/I2C_I2C_MASTER.c ****         I2C_mstrRdBufSize  = cnt;
 249:Generated_Source\PSoC4/I2C_I2C_MASTER.c ****         I2C_mstrRdBufPtr   = (volatile uint8 *) rdData;
 250:Generated_Source\PSoC4/I2C_I2C_MASTER.c ****         I2C_mstrControl    = (uint8) mode;
 251:Generated_Source\PSoC4/I2C_I2C_MASTER.c **** 
 252:Generated_Source\PSoC4/I2C_I2C_MASTER.c ****         slaveAddress = (I2C_GET_I2C_8BIT_ADDRESS(slaveAddress) | I2C_I2C_READ_FLAG);
 253:Generated_Source\PSoC4/I2C_I2C_MASTER.c **** 
 254:Generated_Source\PSoC4/I2C_I2C_MASTER.c ****         I2C_mstrStatus &= (uint16) ~I2C_I2C_MSTAT_RD_CMPLT;
 255:Generated_Source\PSoC4/I2C_I2C_MASTER.c **** 
 256:Generated_Source\PSoC4/I2C_I2C_MASTER.c ****         I2C_ClearMasterInterruptSource(I2C_INTR_MASTER_ALL);
 257:Generated_Source\PSoC4/I2C_I2C_MASTER.c **** 
 258:Generated_Source\PSoC4/I2C_I2C_MASTER.c ****         /* TX and RX FIFO have to be EMPTY */
ARM GAS  C:\Users\Greg\AppData\Local\Temp\cc742Y6h.s 			page 6


 259:Generated_Source\PSoC4/I2C_I2C_MASTER.c **** 
 260:Generated_Source\PSoC4/I2C_I2C_MASTER.c ****         /* Prepare reading */
 261:Generated_Source\PSoC4/I2C_I2C_MASTER.c ****         if(I2C_mstrRdBufSize < I2C_I2C_FIFO_SIZE)
 262:Generated_Source\PSoC4/I2C_I2C_MASTER.c ****         {
 263:Generated_Source\PSoC4/I2C_I2C_MASTER.c ****             /* Reading byte-by-byte */
 264:Generated_Source\PSoC4/I2C_I2C_MASTER.c ****             I2C_SetRxInterruptMode(I2C_INTR_RX_NOT_EMPTY);
 265:Generated_Source\PSoC4/I2C_I2C_MASTER.c ****         }
 266:Generated_Source\PSoC4/I2C_I2C_MASTER.c ****         else
 267:Generated_Source\PSoC4/I2C_I2C_MASTER.c ****         {
 268:Generated_Source\PSoC4/I2C_I2C_MASTER.c ****             /* Receive RX FIFO chunks */
 269:Generated_Source\PSoC4/I2C_I2C_MASTER.c ****             I2C_ENABLE_MASTER_AUTO_DATA_ACK;
 270:Generated_Source\PSoC4/I2C_I2C_MASTER.c ****             I2C_SetRxInterruptMode(I2C_INTR_RX_FULL);
 271:Generated_Source\PSoC4/I2C_I2C_MASTER.c ****         }
 272:Generated_Source\PSoC4/I2C_I2C_MASTER.c **** 
 273:Generated_Source\PSoC4/I2C_I2C_MASTER.c ****         /* Generate Start or ReStart */
 274:Generated_Source\PSoC4/I2C_I2C_MASTER.c ****         if(I2C_CHECK_I2C_MODE_RESTART(mode))
 275:Generated_Source\PSoC4/I2C_I2C_MASTER.c ****         {
 276:Generated_Source\PSoC4/I2C_I2C_MASTER.c ****             I2C_I2C_MASTER_GENERATE_RESTART;
 277:Generated_Source\PSoC4/I2C_I2C_MASTER.c ****             I2C_TX_FIFO_WR_REG = (slaveAddress);
 278:Generated_Source\PSoC4/I2C_I2C_MASTER.c ****         }
 279:Generated_Source\PSoC4/I2C_I2C_MASTER.c ****         else
 280:Generated_Source\PSoC4/I2C_I2C_MASTER.c ****         {
 281:Generated_Source\PSoC4/I2C_I2C_MASTER.c ****             I2C_TX_FIFO_WR_REG = (slaveAddress);
 282:Generated_Source\PSoC4/I2C_I2C_MASTER.c ****             I2C_I2C_MASTER_GENERATE_START;
 283:Generated_Source\PSoC4/I2C_I2C_MASTER.c ****         }
 284:Generated_Source\PSoC4/I2C_I2C_MASTER.c ****     }
 285:Generated_Source\PSoC4/I2C_I2C_MASTER.c **** 
 286:Generated_Source\PSoC4/I2C_I2C_MASTER.c ****     I2C_EnableInt();   /* Release lock */
 287:Generated_Source\PSoC4/I2C_I2C_MASTER.c **** 
 288:Generated_Source\PSoC4/I2C_I2C_MASTER.c ****     return(errStatus);
 289:Generated_Source\PSoC4/I2C_I2C_MASTER.c **** }
 290:Generated_Source\PSoC4/I2C_I2C_MASTER.c **** 
 291:Generated_Source\PSoC4/I2C_I2C_MASTER.c **** 
 292:Generated_Source\PSoC4/I2C_I2C_MASTER.c **** /*******************************************************************************
 293:Generated_Source\PSoC4/I2C_I2C_MASTER.c **** * Function Name: I2C_I2CMasterSendStart
 294:Generated_Source\PSoC4/I2C_I2C_MASTER.c **** ****************************************************************************//**
 295:Generated_Source\PSoC4/I2C_I2C_MASTER.c **** *
 296:Generated_Source\PSoC4/I2C_I2C_MASTER.c **** *  Generates Start condition and sends slave address with read/write bit.
 297:Generated_Source\PSoC4/I2C_I2C_MASTER.c **** *  Disables the I2C interrupt.
 298:Generated_Source\PSoC4/I2C_I2C_MASTER.c **** *  This function is blocking and does not return until start condition and
 299:Generated_Source\PSoC4/I2C_I2C_MASTER.c **** *  address byte are sent and ACK/NACK response is received or errors occurred.
 300:Generated_Source\PSoC4/I2C_I2C_MASTER.c **** *
 301:Generated_Source\PSoC4/I2C_I2C_MASTER.c **** * \param slaveAddress: Right justified 7-bit Slave address (valid range 
 302:Generated_Source\PSoC4/I2C_I2C_MASTER.c **** *  8 to 120).
 303:Generated_Source\PSoC4/I2C_I2C_MASTER.c **** * \param bitRnW: Direction of the following transfer. 
 304:Generated_Source\PSoC4/I2C_I2C_MASTER.c **** *  It is defined by read/write bit within address byte.
 305:Generated_Source\PSoC4/I2C_I2C_MASTER.c **** *  - I2C_I2C_WRITE_XFER_MODE - Set write direction for the 
 306:Generated_Source\PSoC4/I2C_I2C_MASTER.c **** *    following transfer.
 307:Generated_Source\PSoC4/I2C_I2C_MASTER.c **** *  - I2C_I2C_READ_XFER_MODE - Set read direction for the 
 308:Generated_Source\PSoC4/I2C_I2C_MASTER.c **** *    following transfer.
 309:Generated_Source\PSoC4/I2C_I2C_MASTER.c **** *
 310:Generated_Source\PSoC4/I2C_I2C_MASTER.c **** * \return
 311:Generated_Source\PSoC4/I2C_I2C_MASTER.c **** *  Error status.
 312:Generated_Source\PSoC4/I2C_I2C_MASTER.c **** *   - I2C_I2C_MSTR_NO_ERROR - Function complete without error.
 313:Generated_Source\PSoC4/I2C_I2C_MASTER.c **** *   - I2C_I2C_MSTR_BUS_BUSY - Bus is busy. 
 314:Generated_Source\PSoC4/I2C_I2C_MASTER.c **** *     Nothing was sent on the bus. The attempt has to be retried.
 315:Generated_Source\PSoC4/I2C_I2C_MASTER.c **** *   - I2C_I2C_MSTR_NOT_READY - Master is not ready for to 
ARM GAS  C:\Users\Greg\AppData\Local\Temp\cc742Y6h.s 			page 7


 316:Generated_Source\PSoC4/I2C_I2C_MASTER.c **** *     start transfer.
 317:Generated_Source\PSoC4/I2C_I2C_MASTER.c **** *     A master still has not completed previous transaction or a slave 
 318:Generated_Source\PSoC4/I2C_I2C_MASTER.c **** *     operation is in progress (in multi-master-slave configuration).
 319:Generated_Source\PSoC4/I2C_I2C_MASTER.c **** *     Nothing was sent on the bus. The attempt has to be retried.
 320:Generated_Source\PSoC4/I2C_I2C_MASTER.c **** *   - I2C_I2C_MSTR_ERR_LB_NAK - Error condition: Last byte was 
 321:Generated_Source\PSoC4/I2C_I2C_MASTER.c **** *     NAKed.
 322:Generated_Source\PSoC4/I2C_I2C_MASTER.c **** *   - I2C_I2C_MSTR_ERR_ARB_LOST - Error condition: Master lost 
 323:Generated_Source\PSoC4/I2C_I2C_MASTER.c **** *     arbitration.
 324:Generated_Source\PSoC4/I2C_I2C_MASTER.c **** *   - I2C_I2C_MSTR_ERR_BUS_ERR - Error condition: Master 
 325:Generated_Source\PSoC4/I2C_I2C_MASTER.c **** *     encountered a bus error. Bus error is misplaced start or stop detection.
 326:Generated_Source\PSoC4/I2C_I2C_MASTER.c **** *   - I2C_I2C_MSTR_ERR_ABORT_START - Error condition: The start 
 327:Generated_Source\PSoC4/I2C_I2C_MASTER.c **** *     condition generation was aborted due to beginning of Slave operation. 
 328:Generated_Source\PSoC4/I2C_I2C_MASTER.c **** *     This error condition is only applicable for Multi-Master-Slave mode.
 329:Generated_Source\PSoC4/I2C_I2C_MASTER.c **** *
 330:Generated_Source\PSoC4/I2C_I2C_MASTER.c **** * \globalvars
 331:Generated_Source\PSoC4/I2C_I2C_MASTER.c **** *  I2C_state - used to store current state of software FSM.
 332:Generated_Source\PSoC4/I2C_I2C_MASTER.c **** *
 333:Generated_Source\PSoC4/I2C_I2C_MASTER.c **** *******************************************************************************/
 334:Generated_Source\PSoC4/I2C_I2C_MASTER.c **** uint32 I2C_I2CMasterSendStart(uint32 slaveAddress, uint32 bitRnW)
 335:Generated_Source\PSoC4/I2C_I2C_MASTER.c **** {
  28              		.loc 1 335 0
  29              		.cfi_startproc
  30              		@ args = 0, pretend = 0, frame = 0
  31              		@ frame_needed = 0, uses_anonymous_args = 0
  32              	.LVL0:
  33 0000 F8B5     		push	{r3, r4, r5, r6, r7, lr}
  34              		.cfi_def_cfa_offset 24
  35              		.cfi_offset 3, -24
  36              		.cfi_offset 4, -20
  37              		.cfi_offset 5, -16
  38              		.cfi_offset 6, -12
  39              		.cfi_offset 7, -8
  40              		.cfi_offset 14, -4
 336:Generated_Source\PSoC4/I2C_I2C_MASTER.c ****     uint32  resetIp;
 337:Generated_Source\PSoC4/I2C_I2C_MASTER.c ****     uint32 errStatus;
 338:Generated_Source\PSoC4/I2C_I2C_MASTER.c **** 
 339:Generated_Source\PSoC4/I2C_I2C_MASTER.c ****     resetIp   = 0u;
 340:Generated_Source\PSoC4/I2C_I2C_MASTER.c ****     errStatus = I2C_I2C_MSTR_NOT_READY;
 341:Generated_Source\PSoC4/I2C_I2C_MASTER.c **** 
 342:Generated_Source\PSoC4/I2C_I2C_MASTER.c ****     /* Check FSM state before generating Start condition */
 343:Generated_Source\PSoC4/I2C_I2C_MASTER.c ****     if(I2C_CHECK_I2C_FSM_IDLE)
  41              		.loc 1 343 0
  42 0002 264C     		ldr	r4, .L18
 335:Generated_Source\PSoC4/I2C_I2C_MASTER.c ****     uint32  resetIp;
  43              		.loc 1 335 0
  44 0004 0500     		movs	r5, r0
  45              		.loc 1 343 0
  46 0006 2378     		ldrb	r3, [r4]
 335:Generated_Source\PSoC4/I2C_I2C_MASTER.c ****     uint32  resetIp;
  47              		.loc 1 335 0
  48 0008 0F00     		movs	r7, r1
 340:Generated_Source\PSoC4/I2C_I2C_MASTER.c **** 
  49              		.loc 1 340 0
  50 000a 0420     		movs	r0, #4
  51              	.LVL1:
  52              		.loc 1 343 0
  53 000c 102B     		cmp	r3, #16
ARM GAS  C:\Users\Greg\AppData\Local\Temp\cc742Y6h.s 			page 8


  54 000e 44D1     		bne	.L2
 344:Generated_Source\PSoC4/I2C_I2C_MASTER.c ****     {
 345:Generated_Source\PSoC4/I2C_I2C_MASTER.c ****         /* If bus is free, generate Start condition */
 346:Generated_Source\PSoC4/I2C_I2C_MASTER.c ****         if(I2C_CHECK_I2C_STATUS(I2C_I2C_STATUS_BUS_BUSY))
  55              		.loc 1 346 0
  56 0010 0126     		movs	r6, #1
  57 0012 234B     		ldr	r3, .L18+4
 347:Generated_Source\PSoC4/I2C_I2C_MASTER.c ****         {
 348:Generated_Source\PSoC4/I2C_I2C_MASTER.c ****             errStatus = I2C_I2C_MSTR_BUS_BUSY;
  58              		.loc 1 348 0
  59 0014 0018     		adds	r0, r0, r0
 346:Generated_Source\PSoC4/I2C_I2C_MASTER.c ****         {
  60              		.loc 1 346 0
  61 0016 1B68     		ldr	r3, [r3]
  62 0018 3342     		tst	r3, r6
  63 001a 3ED1     		bne	.L2
 349:Generated_Source\PSoC4/I2C_I2C_MASTER.c ****         }
 350:Generated_Source\PSoC4/I2C_I2C_MASTER.c ****         else
 351:Generated_Source\PSoC4/I2C_I2C_MASTER.c ****         {
 352:Generated_Source\PSoC4/I2C_I2C_MASTER.c ****             I2C_DisableInt();  /* Lock from interruption */
  64              		.loc 1 352 0
  65 001c FFF7FEFF 		bl	CyIntDisable
  66              	.LVL2:
 353:Generated_Source\PSoC4/I2C_I2C_MASTER.c **** 
 354:Generated_Source\PSoC4/I2C_I2C_MASTER.c ****         #if (!I2C_CY_SCBIP_V0 && \
 355:Generated_Source\PSoC4/I2C_I2C_MASTER.c ****             I2C_I2C_MULTI_MASTER_SLAVE_CONST && I2C_I2C_WAKE_ENABLE_CONST)
 356:Generated_Source\PSoC4/I2C_I2C_MASTER.c ****             I2C_I2CMasterDisableEcAm();
 357:Generated_Source\PSoC4/I2C_I2C_MASTER.c ****         #endif /* (!I2C_CY_SCBIP_V0) */
 358:Generated_Source\PSoC4/I2C_I2C_MASTER.c **** 
 359:Generated_Source\PSoC4/I2C_I2C_MASTER.c ****             slaveAddress = I2C_GET_I2C_8BIT_ADDRESS(slaveAddress);
  67              		.loc 1 359 0
  68 0020 B540     		lsls	r5, r5, r6
  69              	.LVL3:
  70 0022 FF23     		movs	r3, #255
  71 0024 1D40     		ands	r5, r3
  72              	.LVL4:
 360:Generated_Source\PSoC4/I2C_I2C_MASTER.c **** 
 361:Generated_Source\PSoC4/I2C_I2C_MASTER.c ****             if(0u == bitRnW) /* Write direction */
  73              		.loc 1 361 0
  74 0026 002F     		cmp	r7, #0
  75 0028 02D1     		bne	.L3
 362:Generated_Source\PSoC4/I2C_I2C_MASTER.c ****             {
 363:Generated_Source\PSoC4/I2C_I2C_MASTER.c ****                 I2C_state = I2C_I2C_FSM_MSTR_WR_DATA;
  76              		.loc 1 363 0
  77 002a DB3B     		subs	r3, r3, #219
  78 002c 2370     		strb	r3, [r4]
  79 002e 02E0     		b	.L4
  80              	.L3:
 364:Generated_Source\PSoC4/I2C_I2C_MASTER.c ****             }
 365:Generated_Source\PSoC4/I2C_I2C_MASTER.c ****             else /* Read direction */
 366:Generated_Source\PSoC4/I2C_I2C_MASTER.c ****             {
 367:Generated_Source\PSoC4/I2C_I2C_MASTER.c ****                 I2C_state = I2C_I2C_FSM_MSTR_RD_DATA;
  81              		.loc 1 367 0
  82 0030 2523     		movs	r3, #37
 368:Generated_Source\PSoC4/I2C_I2C_MASTER.c ****                          slaveAddress |= I2C_I2C_READ_FLAG;
  83              		.loc 1 368 0
  84 0032 3543     		orrs	r5, r6
ARM GAS  C:\Users\Greg\AppData\Local\Temp\cc742Y6h.s 			page 9


  85              	.LVL5:
 367:Generated_Source\PSoC4/I2C_I2C_MASTER.c ****                          slaveAddress |= I2C_I2C_READ_FLAG;
  86              		.loc 1 367 0
  87 0034 2370     		strb	r3, [r4]
  88              	.L4:
 369:Generated_Source\PSoC4/I2C_I2C_MASTER.c ****             }
 370:Generated_Source\PSoC4/I2C_I2C_MASTER.c **** 
 371:Generated_Source\PSoC4/I2C_I2C_MASTER.c ****             /* TX and RX FIFO have to be EMPTY */
 372:Generated_Source\PSoC4/I2C_I2C_MASTER.c **** 
 373:Generated_Source\PSoC4/I2C_I2C_MASTER.c ****             I2C_TX_FIFO_WR_REG = slaveAddress; /* Put address in TX FIFO */
 374:Generated_Source\PSoC4/I2C_I2C_MASTER.c ****             I2C_ClearMasterInterruptSource(I2C_INTR_MASTER_ALL);
 375:Generated_Source\PSoC4/I2C_I2C_MASTER.c **** 
 376:Generated_Source\PSoC4/I2C_I2C_MASTER.c ****             I2C_I2C_MASTER_GENERATE_START;
  89              		.loc 1 376 0
  90 0036 0221     		movs	r1, #2
 373:Generated_Source\PSoC4/I2C_I2C_MASTER.c ****             I2C_ClearMasterInterruptSource(I2C_INTR_MASTER_ALL);
  91              		.loc 1 373 0
  92 0038 1A4B     		ldr	r3, .L18+8
 374:Generated_Source\PSoC4/I2C_I2C_MASTER.c **** 
  93              		.loc 1 374 0
  94 003a 1B4A     		ldr	r2, .L18+12
 373:Generated_Source\PSoC4/I2C_I2C_MASTER.c ****             I2C_ClearMasterInterruptSource(I2C_INTR_MASTER_ALL);
  95              		.loc 1 373 0
  96 003c 1D60     		str	r5, [r3]
 374:Generated_Source\PSoC4/I2C_I2C_MASTER.c **** 
  97              		.loc 1 374 0
  98 003e 1B4B     		ldr	r3, .L18+16
  99 0040 1360     		str	r3, [r2]
 100              		.loc 1 376 0
 101 0042 1B4B     		ldr	r3, .L18+20
 102 0044 1960     		str	r1, [r3]
 377:Generated_Source\PSoC4/I2C_I2C_MASTER.c **** 
 378:Generated_Source\PSoC4/I2C_I2C_MASTER.c **** 
 379:Generated_Source\PSoC4/I2C_I2C_MASTER.c ****             while(!I2C_CHECK_INTR_MASTER(I2C_INTR_MASTER_I2C_ACK      |
 103              		.loc 1 379 0
 104 0046 0823     		movs	r3, #8
 105 0048 FF33     		adds	r3, r3, #255
 106              	.L5:
 107              		.loc 1 379 0 is_stmt 0 discriminator 1
 108 004a 1068     		ldr	r0, [r2]
 109 004c 1649     		ldr	r1, .L18+12
 110 004e 1842     		tst	r0, r3
 111 0050 FBD0     		beq	.L5
 380:Generated_Source\PSoC4/I2C_I2C_MASTER.c ****                                                       I2C_INTR_MASTER_I2C_NACK     |
 381:Generated_Source\PSoC4/I2C_I2C_MASTER.c ****                                                       I2C_INTR_MASTER_I2C_ARB_LOST |
 382:Generated_Source\PSoC4/I2C_I2C_MASTER.c ****                                                       I2C_INTR_MASTER_I2C_BUS_ERROR))
 383:Generated_Source\PSoC4/I2C_I2C_MASTER.c ****             {
 384:Generated_Source\PSoC4/I2C_I2C_MASTER.c ****                 /*
 385:Generated_Source\PSoC4/I2C_I2C_MASTER.c ****                 * Write: wait until address has been transferred
 386:Generated_Source\PSoC4/I2C_I2C_MASTER.c ****                 * Read : wait until address has been transferred, data byte is going to RX FIFO as 
 387:Generated_Source\PSoC4/I2C_I2C_MASTER.c ****                 */
 388:Generated_Source\PSoC4/I2C_I2C_MASTER.c ****             }
 389:Generated_Source\PSoC4/I2C_I2C_MASTER.c **** 
 390:Generated_Source\PSoC4/I2C_I2C_MASTER.c ****             /* Check the results of the address phase */
 391:Generated_Source\PSoC4/I2C_I2C_MASTER.c ****             if(I2C_CHECK_INTR_MASTER(I2C_INTR_MASTER_I2C_ACK))
 112              		.loc 1 391 0 is_stmt 1
 113 0052 0423     		movs	r3, #4
ARM GAS  C:\Users\Greg\AppData\Local\Temp\cc742Y6h.s 			page 10


 114 0054 0868     		ldr	r0, [r1]
 115 0056 0340     		ands	r3, r0
 116 0058 0ED1     		bne	.L10
 392:Generated_Source\PSoC4/I2C_I2C_MASTER.c ****             {
 393:Generated_Source\PSoC4/I2C_I2C_MASTER.c ****                 errStatus = I2C_I2C_MSTR_NO_ERROR;
 394:Generated_Source\PSoC4/I2C_I2C_MASTER.c ****             }
 395:Generated_Source\PSoC4/I2C_I2C_MASTER.c ****             else if(I2C_CHECK_INTR_MASTER(I2C_INTR_MASTER_I2C_NACK))
 117              		.loc 1 395 0
 118 005a 0220     		movs	r0, #2
 119 005c 0D68     		ldr	r5, [r1]
 120              	.LVL6:
 121 005e 0542     		tst	r5, r0
 122 0060 0CD1     		bne	.L6
 396:Generated_Source\PSoC4/I2C_I2C_MASTER.c ****             {
 397:Generated_Source\PSoC4/I2C_I2C_MASTER.c ****                 errStatus = I2C_I2C_MSTR_ERR_LB_NAK;
 398:Generated_Source\PSoC4/I2C_I2C_MASTER.c ****             }
 399:Generated_Source\PSoC4/I2C_I2C_MASTER.c ****             else if(I2C_CHECK_INTR_MASTER(I2C_INTR_MASTER_I2C_ARB_LOST))
 123              		.loc 1 399 0
 124 0062 0868     		ldr	r0, [r1]
 125 0064 1021     		movs	r1, #16
 126 0066 0133     		adds	r3, r3, #1
 400:Generated_Source\PSoC4/I2C_I2C_MASTER.c ****             {
 401:Generated_Source\PSoC4/I2C_I2C_MASTER.c ****                 I2C_state = I2C_I2C_FSM_IDLE;
 127              		.loc 1 401 0
 128 0068 2170     		strb	r1, [r4]
 399:Generated_Source\PSoC4/I2C_I2C_MASTER.c ****             {
 129              		.loc 1 399 0
 130 006a 1842     		tst	r0, r3
 131 006c 01D0     		beq	.L7
 132              	.LVL7:
 402:Generated_Source\PSoC4/I2C_I2C_MASTER.c ****                              errStatus = I2C_I2C_MSTR_ERR_ARB_LOST;
 133              		.loc 1 402 0
 134 006e 1800     		movs	r0, r3
 135 0070 04E0     		b	.L6
 136              	.LVL8:
 137              	.L7:
 403:Generated_Source\PSoC4/I2C_I2C_MASTER.c ****                              resetIp   = I2C_I2C_RESET_ERROR;
 404:Generated_Source\PSoC4/I2C_I2C_MASTER.c ****             }
 405:Generated_Source\PSoC4/I2C_I2C_MASTER.c ****             else /* I2C_INTR_MASTER_I2C_BUS_ERROR set is else condition */
 406:Generated_Source\PSoC4/I2C_I2C_MASTER.c ****             {
 407:Generated_Source\PSoC4/I2C_I2C_MASTER.c ****                 I2C_state = I2C_I2C_FSM_IDLE;
 408:Generated_Source\PSoC4/I2C_I2C_MASTER.c ****                              errStatus = I2C_I2C_MSTR_ERR_BUS_ERR;
 138              		.loc 1 408 0
 139 0072 8020     		movs	r0, #128
 140 0074 4000     		lsls	r0, r0, #1
 141 0076 01E0     		b	.L6
 142              	.LVL9:
 143              	.L10:
 393:Generated_Source\PSoC4/I2C_I2C_MASTER.c ****             }
 144              		.loc 1 393 0
 145 0078 0020     		movs	r0, #0
 339:Generated_Source\PSoC4/I2C_I2C_MASTER.c ****     errStatus = I2C_I2C_MSTR_NOT_READY;
 146              		.loc 1 339 0
 147 007a 0300     		movs	r3, r0
 148              	.LVL10:
 149              	.L6:
 409:Generated_Source\PSoC4/I2C_I2C_MASTER.c ****                              resetIp   = I2C_I2C_RESET_ERROR;
ARM GAS  C:\Users\Greg\AppData\Local\Temp\cc742Y6h.s 			page 11


 410:Generated_Source\PSoC4/I2C_I2C_MASTER.c ****             }
 411:Generated_Source\PSoC4/I2C_I2C_MASTER.c **** 
 412:Generated_Source\PSoC4/I2C_I2C_MASTER.c ****             I2C_ClearMasterInterruptSource(I2C_INTR_MASTER_I2C_ACK      |
 150              		.loc 1 412 0
 151 007c 0821     		movs	r1, #8
 152 007e FF31     		adds	r1, r1, #255
 153 0080 1160     		str	r1, [r2]
 413:Generated_Source\PSoC4/I2C_I2C_MASTER.c ****                                                         I2C_INTR_MASTER_I2C_NACK     |
 414:Generated_Source\PSoC4/I2C_I2C_MASTER.c ****                                                         I2C_INTR_MASTER_I2C_ARB_LOST |
 415:Generated_Source\PSoC4/I2C_I2C_MASTER.c ****                                                         I2C_INTR_MASTER_I2C_BUS_ERROR);
 416:Generated_Source\PSoC4/I2C_I2C_MASTER.c **** 
 417:Generated_Source\PSoC4/I2C_I2C_MASTER.c ****             /* Reset block in case of: LOST_ARB or BUS_ERR */
 418:Generated_Source\PSoC4/I2C_I2C_MASTER.c ****             if(0u != resetIp)
 154              		.loc 1 418 0
 155 0082 002B     		cmp	r3, #0
 156 0084 09D0     		beq	.L2
 419:Generated_Source\PSoC4/I2C_I2C_MASTER.c ****             {
 420:Generated_Source\PSoC4/I2C_I2C_MASTER.c ****                 I2C_SCB_SW_RESET;
 157              		.loc 1 420 0
 158 0086 8021     		movs	r1, #128
 159 0088 0A4A     		ldr	r2, .L18+24
 160 008a 0906     		lsls	r1, r1, #24
 161 008c 1368     		ldr	r3, [r2]
 162 008e 5B00     		lsls	r3, r3, #1
 163 0090 5B08     		lsrs	r3, r3, #1
 164 0092 1360     		str	r3, [r2]
 165 0094 1368     		ldr	r3, [r2]
 166 0096 0B43     		orrs	r3, r1
 167 0098 1360     		str	r3, [r2]
 168              	.LVL11:
 169              	.L2:
 421:Generated_Source\PSoC4/I2C_I2C_MASTER.c ****             }
 422:Generated_Source\PSoC4/I2C_I2C_MASTER.c ****         }
 423:Generated_Source\PSoC4/I2C_I2C_MASTER.c ****     }
 424:Generated_Source\PSoC4/I2C_I2C_MASTER.c **** 
 425:Generated_Source\PSoC4/I2C_I2C_MASTER.c ****     return(errStatus);
 426:Generated_Source\PSoC4/I2C_I2C_MASTER.c **** }
 170              		.loc 1 426 0
 171              		@ sp needed
 172              	.LVL12:
 173 009a F8BD     		pop	{r3, r4, r5, r6, r7, pc}
 174              	.L19:
 175              		.align	2
 176              	.L18:
 177 009c 00000000 		.word	I2C_state
 178 00a0 64002440 		.word	1076101220
 179 00a4 40022440 		.word	1076101696
 180 00a8 000F2440 		.word	1076104960
 181 00ac 17030000 		.word	791
 182 00b0 68002440 		.word	1076101224
 183 00b4 00002440 		.word	1076101120
 184              		.cfi_endproc
 185              	.LFE3:
 186              		.size	I2C_I2CMasterSendStart, .-I2C_I2CMasterSendStart
 187              		.section	.text.I2C_I2CMasterSendStop,"ax",%progbits
 188              		.align	1
 189              		.global	I2C_I2CMasterSendStop
ARM GAS  C:\Users\Greg\AppData\Local\Temp\cc742Y6h.s 			page 12


 190              		.code	16
 191              		.thumb_func
 192              		.type	I2C_I2CMasterSendStop, %function
 193              	I2C_I2CMasterSendStop:
 194              	.LFB5:
 427:Generated_Source\PSoC4/I2C_I2C_MASTER.c **** 
 428:Generated_Source\PSoC4/I2C_I2C_MASTER.c **** 
 429:Generated_Source\PSoC4/I2C_I2C_MASTER.c **** /*******************************************************************************
 430:Generated_Source\PSoC4/I2C_I2C_MASTER.c **** * Function Name: I2C_I2CMasterSendRestart
 431:Generated_Source\PSoC4/I2C_I2C_MASTER.c **** ****************************************************************************//**
 432:Generated_Source\PSoC4/I2C_I2C_MASTER.c **** *
 433:Generated_Source\PSoC4/I2C_I2C_MASTER.c **** *  Generates Restart condition and sends slave address with read/write bit.
 434:Generated_Source\PSoC4/I2C_I2C_MASTER.c **** *  This function is blocking and does not return until start condition and
 435:Generated_Source\PSoC4/I2C_I2C_MASTER.c **** *  address are sent and ACK/NACK response is received or errors occurred.
 436:Generated_Source\PSoC4/I2C_I2C_MASTER.c **** *
 437:Generated_Source\PSoC4/I2C_I2C_MASTER.c **** * \param slaveAddress: Right justified 7-bit Slave address (valid range 
 438:Generated_Source\PSoC4/I2C_I2C_MASTER.c **** *   8 to 120).
 439:Generated_Source\PSoC4/I2C_I2C_MASTER.c **** * \param bitRnW: Direction of the following transfer. It is defined by 
 440:Generated_Source\PSoC4/I2C_I2C_MASTER.c **** *  read/write bit within address byte. 
 441:Generated_Source\PSoC4/I2C_I2C_MASTER.c **** *  See I2C_I2CMasterSendStart() function for constants.
 442:Generated_Source\PSoC4/I2C_I2C_MASTER.c **** *
 443:Generated_Source\PSoC4/I2C_I2C_MASTER.c **** * \return
 444:Generated_Source\PSoC4/I2C_I2C_MASTER.c **** *  Error status. 
 445:Generated_Source\PSoC4/I2C_I2C_MASTER.c **** *  See I2C_I2CMasterSendStart() function for constants.
 446:Generated_Source\PSoC4/I2C_I2C_MASTER.c **** *
 447:Generated_Source\PSoC4/I2C_I2C_MASTER.c **** * \sideeffect
 448:Generated_Source\PSoC4/I2C_I2C_MASTER.c **** *  A valid Start or ReStart condition must be generated before calling 
 449:Generated_Source\PSoC4/I2C_I2C_MASTER.c **** *  this function. This function does nothing if Start or ReStart conditions 
 450:Generated_Source\PSoC4/I2C_I2C_MASTER.c **** *  failed before this function was called.
 451:Generated_Source\PSoC4/I2C_I2C_MASTER.c **** *  For read transaction, at least one byte has to be read before ReStart 
 452:Generated_Source\PSoC4/I2C_I2C_MASTER.c **** *  generation.
 453:Generated_Source\PSoC4/I2C_I2C_MASTER.c **** *
 454:Generated_Source\PSoC4/I2C_I2C_MASTER.c **** * \globalvars
 455:Generated_Source\PSoC4/I2C_I2C_MASTER.c **** *  I2C_state - used to store current state of software FSM.
 456:Generated_Source\PSoC4/I2C_I2C_MASTER.c **** *
 457:Generated_Source\PSoC4/I2C_I2C_MASTER.c **** *******************************************************************************/
 458:Generated_Source\PSoC4/I2C_I2C_MASTER.c **** uint32 I2C_I2CMasterSendRestart(uint32 slaveAddress, uint32 bitRnW)
 459:Generated_Source\PSoC4/I2C_I2C_MASTER.c **** {
 460:Generated_Source\PSoC4/I2C_I2C_MASTER.c ****     uint32 resetIp;
 461:Generated_Source\PSoC4/I2C_I2C_MASTER.c ****     uint32 errStatus;
 462:Generated_Source\PSoC4/I2C_I2C_MASTER.c **** 
 463:Generated_Source\PSoC4/I2C_I2C_MASTER.c ****     resetIp   = 0u;
 464:Generated_Source\PSoC4/I2C_I2C_MASTER.c ****     errStatus = I2C_I2C_MSTR_NOT_READY;
 465:Generated_Source\PSoC4/I2C_I2C_MASTER.c **** 
 466:Generated_Source\PSoC4/I2C_I2C_MASTER.c ****     /* Check FSM state before generating ReStart condition */
 467:Generated_Source\PSoC4/I2C_I2C_MASTER.c ****     if(I2C_CHECK_I2C_MASTER_ACTIVE)
 468:Generated_Source\PSoC4/I2C_I2C_MASTER.c ****     {
 469:Generated_Source\PSoC4/I2C_I2C_MASTER.c ****         slaveAddress = I2C_GET_I2C_8BIT_ADDRESS(slaveAddress);
 470:Generated_Source\PSoC4/I2C_I2C_MASTER.c **** 
 471:Generated_Source\PSoC4/I2C_I2C_MASTER.c ****         if(0u == bitRnW) /* Write direction */
 472:Generated_Source\PSoC4/I2C_I2C_MASTER.c ****         {
 473:Generated_Source\PSoC4/I2C_I2C_MASTER.c ****             I2C_state = I2C_I2C_FSM_MSTR_WR_DATA;
 474:Generated_Source\PSoC4/I2C_I2C_MASTER.c ****         }
 475:Generated_Source\PSoC4/I2C_I2C_MASTER.c ****         else  /* Read direction */
 476:Generated_Source\PSoC4/I2C_I2C_MASTER.c ****         {
 477:Generated_Source\PSoC4/I2C_I2C_MASTER.c ****             I2C_state  = I2C_I2C_FSM_MSTR_RD_DATA;
 478:Generated_Source\PSoC4/I2C_I2C_MASTER.c ****                       slaveAddress |= I2C_I2C_READ_FLAG;
ARM GAS  C:\Users\Greg\AppData\Local\Temp\cc742Y6h.s 			page 13


 479:Generated_Source\PSoC4/I2C_I2C_MASTER.c ****         }
 480:Generated_Source\PSoC4/I2C_I2C_MASTER.c **** 
 481:Generated_Source\PSoC4/I2C_I2C_MASTER.c ****         /* TX and RX FIFO have to be EMPTY */
 482:Generated_Source\PSoC4/I2C_I2C_MASTER.c **** 
 483:Generated_Source\PSoC4/I2C_I2C_MASTER.c ****         /* Clean-up interrupt status */
 484:Generated_Source\PSoC4/I2C_I2C_MASTER.c ****         I2C_ClearMasterInterruptSource(I2C_INTR_MASTER_ALL);
 485:Generated_Source\PSoC4/I2C_I2C_MASTER.c **** 
 486:Generated_Source\PSoC4/I2C_I2C_MASTER.c ****         /* A proper ReStart sequence is: generate ReStart, then put an address byte in the TX FIFO.
 487:Generated_Source\PSoC4/I2C_I2C_MASTER.c ****         * Otherwise the master treats the address in the TX FIFO as a data byte if a previous trans
 488:Generated_Source\PSoC4/I2C_I2C_MASTER.c ****         * The write transfer continues instead of ReStart.
 489:Generated_Source\PSoC4/I2C_I2C_MASTER.c ****         */
 490:Generated_Source\PSoC4/I2C_I2C_MASTER.c ****         I2C_I2C_MASTER_GENERATE_RESTART;
 491:Generated_Source\PSoC4/I2C_I2C_MASTER.c **** 
 492:Generated_Source\PSoC4/I2C_I2C_MASTER.c ****         while(I2C_CHECK_I2C_MASTER_CMD(I2C_I2C_MASTER_CMD_M_START))
 493:Generated_Source\PSoC4/I2C_I2C_MASTER.c ****         {
 494:Generated_Source\PSoC4/I2C_I2C_MASTER.c ****             /* Wait until ReStart has been generated */
 495:Generated_Source\PSoC4/I2C_I2C_MASTER.c ****         }
 496:Generated_Source\PSoC4/I2C_I2C_MASTER.c **** 
 497:Generated_Source\PSoC4/I2C_I2C_MASTER.c ****         /* Put address into TX FIFO */
 498:Generated_Source\PSoC4/I2C_I2C_MASTER.c ****         I2C_TX_FIFO_WR_REG = slaveAddress;
 499:Generated_Source\PSoC4/I2C_I2C_MASTER.c **** 
 500:Generated_Source\PSoC4/I2C_I2C_MASTER.c ****         /* Wait for address to be transferred */
 501:Generated_Source\PSoC4/I2C_I2C_MASTER.c ****         while(!I2C_CHECK_INTR_MASTER(I2C_INTR_MASTER_I2C_ACK      |
 502:Generated_Source\PSoC4/I2C_I2C_MASTER.c ****                                                   I2C_INTR_MASTER_I2C_NACK     |
 503:Generated_Source\PSoC4/I2C_I2C_MASTER.c ****                                                   I2C_INTR_MASTER_I2C_ARB_LOST |
 504:Generated_Source\PSoC4/I2C_I2C_MASTER.c ****                                                   I2C_INTR_MASTER_I2C_BUS_ERROR))
 505:Generated_Source\PSoC4/I2C_I2C_MASTER.c ****         {
 506:Generated_Source\PSoC4/I2C_I2C_MASTER.c ****             /* Wait until address has been transferred */
 507:Generated_Source\PSoC4/I2C_I2C_MASTER.c ****         }
 508:Generated_Source\PSoC4/I2C_I2C_MASTER.c **** 
 509:Generated_Source\PSoC4/I2C_I2C_MASTER.c ****         /* Check results of address phase */
 510:Generated_Source\PSoC4/I2C_I2C_MASTER.c ****         if(I2C_CHECK_INTR_MASTER(I2C_INTR_MASTER_I2C_ACK))
 511:Generated_Source\PSoC4/I2C_I2C_MASTER.c ****         {
 512:Generated_Source\PSoC4/I2C_I2C_MASTER.c ****             errStatus = I2C_I2C_MSTR_NO_ERROR;
 513:Generated_Source\PSoC4/I2C_I2C_MASTER.c ****         }
 514:Generated_Source\PSoC4/I2C_I2C_MASTER.c ****         else if(I2C_CHECK_INTR_MASTER(I2C_INTR_MASTER_I2C_NACK))
 515:Generated_Source\PSoC4/I2C_I2C_MASTER.c ****         {
 516:Generated_Source\PSoC4/I2C_I2C_MASTER.c ****              errStatus = I2C_I2C_MSTR_ERR_LB_NAK;
 517:Generated_Source\PSoC4/I2C_I2C_MASTER.c ****         }
 518:Generated_Source\PSoC4/I2C_I2C_MASTER.c ****         else if(I2C_CHECK_INTR_MASTER(I2C_INTR_MASTER_I2C_ARB_LOST))
 519:Generated_Source\PSoC4/I2C_I2C_MASTER.c ****         {
 520:Generated_Source\PSoC4/I2C_I2C_MASTER.c ****             I2C_state = I2C_I2C_FSM_IDLE;
 521:Generated_Source\PSoC4/I2C_I2C_MASTER.c ****                          errStatus = I2C_I2C_MSTR_ERR_ARB_LOST;
 522:Generated_Source\PSoC4/I2C_I2C_MASTER.c ****                          resetIp   = I2C_I2C_RESET_ERROR;
 523:Generated_Source\PSoC4/I2C_I2C_MASTER.c ****         }
 524:Generated_Source\PSoC4/I2C_I2C_MASTER.c ****         else /* I2C_INTR_MASTER_I2C_BUS_ERROR set is else condition */
 525:Generated_Source\PSoC4/I2C_I2C_MASTER.c ****         {
 526:Generated_Source\PSoC4/I2C_I2C_MASTER.c ****             I2C_state = I2C_I2C_FSM_IDLE;
 527:Generated_Source\PSoC4/I2C_I2C_MASTER.c ****                          errStatus = I2C_I2C_MSTR_ERR_BUS_ERR;
 528:Generated_Source\PSoC4/I2C_I2C_MASTER.c ****                          resetIp   = I2C_I2C_RESET_ERROR;
 529:Generated_Source\PSoC4/I2C_I2C_MASTER.c ****         }
 530:Generated_Source\PSoC4/I2C_I2C_MASTER.c **** 
 531:Generated_Source\PSoC4/I2C_I2C_MASTER.c ****         I2C_ClearMasterInterruptSource(I2C_INTR_MASTER_I2C_ACK      |
 532:Generated_Source\PSoC4/I2C_I2C_MASTER.c ****                                                     I2C_INTR_MASTER_I2C_NACK     |
 533:Generated_Source\PSoC4/I2C_I2C_MASTER.c ****                                                     I2C_INTR_MASTER_I2C_ARB_LOST |
 534:Generated_Source\PSoC4/I2C_I2C_MASTER.c ****                                                     I2C_INTR_MASTER_I2C_BUS_ERROR);
 535:Generated_Source\PSoC4/I2C_I2C_MASTER.c **** 
ARM GAS  C:\Users\Greg\AppData\Local\Temp\cc742Y6h.s 			page 14


 536:Generated_Source\PSoC4/I2C_I2C_MASTER.c ****         /* Reset block in case of: LOST_ARB or BUS_ERR */
 537:Generated_Source\PSoC4/I2C_I2C_MASTER.c ****         if(0u != resetIp)
 538:Generated_Source\PSoC4/I2C_I2C_MASTER.c ****         {
 539:Generated_Source\PSoC4/I2C_I2C_MASTER.c ****             I2C_SCB_SW_RESET;
 540:Generated_Source\PSoC4/I2C_I2C_MASTER.c ****         }
 541:Generated_Source\PSoC4/I2C_I2C_MASTER.c ****     }
 542:Generated_Source\PSoC4/I2C_I2C_MASTER.c **** 
 543:Generated_Source\PSoC4/I2C_I2C_MASTER.c ****     return(errStatus);
 544:Generated_Source\PSoC4/I2C_I2C_MASTER.c **** }
 545:Generated_Source\PSoC4/I2C_I2C_MASTER.c **** 
 546:Generated_Source\PSoC4/I2C_I2C_MASTER.c **** 
 547:Generated_Source\PSoC4/I2C_I2C_MASTER.c **** /*******************************************************************************
 548:Generated_Source\PSoC4/I2C_I2C_MASTER.c **** * Function Name: I2C_I2CMasterSendStop
 549:Generated_Source\PSoC4/I2C_I2C_MASTER.c **** ****************************************************************************//**
 550:Generated_Source\PSoC4/I2C_I2C_MASTER.c **** *
 551:Generated_Source\PSoC4/I2C_I2C_MASTER.c **** *  Generates Stop condition on the bus. 
 552:Generated_Source\PSoC4/I2C_I2C_MASTER.c **** *  The NAK is generated before Stop in case of a read transaction.
 553:Generated_Source\PSoC4/I2C_I2C_MASTER.c **** *  At least one byte has to be read if a Start or ReStart condition with read 
 554:Generated_Source\PSoC4/I2C_I2C_MASTER.c **** *  direction was generated before.
 555:Generated_Source\PSoC4/I2C_I2C_MASTER.c **** *  This function is blocking and does not return until a Stop condition is 
 556:Generated_Source\PSoC4/I2C_I2C_MASTER.c **** *  generated or error occurred.
 557:Generated_Source\PSoC4/I2C_I2C_MASTER.c **** *
 558:Generated_Source\PSoC4/I2C_I2C_MASTER.c **** * \return
 559:Generated_Source\PSoC4/I2C_I2C_MASTER.c **** *  Error status.
 560:Generated_Source\PSoC4/I2C_I2C_MASTER.c **** *  See I2C_I2CMasterSendStart() function for constants.
 561:Generated_Source\PSoC4/I2C_I2C_MASTER.c **** *
 562:Generated_Source\PSoC4/I2C_I2C_MASTER.c **** * \sideeffect
 563:Generated_Source\PSoC4/I2C_I2C_MASTER.c **** *  A valid Start or ReStart condition must be generated before calling 
 564:Generated_Source\PSoC4/I2C_I2C_MASTER.c **** *  this function. This function does nothing if Start or ReStart conditions 
 565:Generated_Source\PSoC4/I2C_I2C_MASTER.c **** *  failed before this function was called.
 566:Generated_Source\PSoC4/I2C_I2C_MASTER.c **** *  For read transaction, at least one byte has to be read before ReStart 
 567:Generated_Source\PSoC4/I2C_I2C_MASTER.c **** *  generation.
 568:Generated_Source\PSoC4/I2C_I2C_MASTER.c **** *
 569:Generated_Source\PSoC4/I2C_I2C_MASTER.c **** * \globalvars
 570:Generated_Source\PSoC4/I2C_I2C_MASTER.c **** *  I2C_state - used to store current state of software FSM.
 571:Generated_Source\PSoC4/I2C_I2C_MASTER.c **** *
 572:Generated_Source\PSoC4/I2C_I2C_MASTER.c **** *******************************************************************************/
 573:Generated_Source\PSoC4/I2C_I2C_MASTER.c **** uint32 I2C_I2CMasterSendStop(void)
 574:Generated_Source\PSoC4/I2C_I2C_MASTER.c **** {
 195              		.loc 1 574 0
 196              		.cfi_startproc
 197              		@ args = 0, pretend = 0, frame = 0
 198              		@ frame_needed = 0, uses_anonymous_args = 0
 199              	.LVL13:
 575:Generated_Source\PSoC4/I2C_I2C_MASTER.c ****     uint32 resetIp;
 576:Generated_Source\PSoC4/I2C_I2C_MASTER.c ****     uint32 errStatus;
 577:Generated_Source\PSoC4/I2C_I2C_MASTER.c **** 
 578:Generated_Source\PSoC4/I2C_I2C_MASTER.c ****     resetIp   = 0u;
 579:Generated_Source\PSoC4/I2C_I2C_MASTER.c ****     errStatus = I2C_I2C_MSTR_NOT_READY;
 580:Generated_Source\PSoC4/I2C_I2C_MASTER.c **** 
 581:Generated_Source\PSoC4/I2C_I2C_MASTER.c ****     /* Check FSM state before generating Stop condition */
 582:Generated_Source\PSoC4/I2C_I2C_MASTER.c ****     if(I2C_CHECK_I2C_MASTER_ACTIVE)
 200              		.loc 1 582 0
 201 0000 2022     		movs	r2, #32
 574:Generated_Source\PSoC4/I2C_I2C_MASTER.c ****     uint32 resetIp;
 202              		.loc 1 574 0
 203 0002 10B5     		push	{r4, lr}
ARM GAS  C:\Users\Greg\AppData\Local\Temp\cc742Y6h.s 			page 15


 204              		.cfi_def_cfa_offset 8
 205              		.cfi_offset 4, -8
 206              		.cfi_offset 14, -4
 207              		.loc 1 582 0
 208 0004 1A4B     		ldr	r3, .L36
 579:Generated_Source\PSoC4/I2C_I2C_MASTER.c **** 
 209              		.loc 1 579 0
 210 0006 0420     		movs	r0, #4
 211              		.loc 1 582 0
 212 0008 1C78     		ldrb	r4, [r3]
 213 000a 1900     		movs	r1, r3
 214 000c 1442     		tst	r4, r2
 215 000e 2DD0     		beq	.L21
 583:Generated_Source\PSoC4/I2C_I2C_MASTER.c ****     {
 584:Generated_Source\PSoC4/I2C_I2C_MASTER.c ****         /*
 585:Generated_Source\PSoC4/I2C_I2C_MASTER.c ****         * Write direction: generates Stop
 586:Generated_Source\PSoC4/I2C_I2C_MASTER.c ****         * Read  direction: generates NACK and Stop
 587:Generated_Source\PSoC4/I2C_I2C_MASTER.c ****         */
 588:Generated_Source\PSoC4/I2C_I2C_MASTER.c ****         I2C_I2C_MASTER_GENERATE_STOP;
 216              		.loc 1 588 0
 217 0010 184B     		ldr	r3, .L36+4
 218 0012 1868     		ldr	r0, [r3]
 219 0014 1823     		movs	r3, #24
 220 0016 1042     		tst	r0, r2
 221 0018 00D1     		bne	.L22
 222 001a 083B     		subs	r3, r3, #8
 223              	.L22:
 224              		.loc 1 588 0 is_stmt 0 discriminator 4
 225 001c 164A     		ldr	r2, .L36+8
 589:Generated_Source\PSoC4/I2C_I2C_MASTER.c **** 
 590:Generated_Source\PSoC4/I2C_I2C_MASTER.c ****         while(!I2C_CHECK_INTR_MASTER(I2C_INTR_MASTER_I2C_STOP     |
 226              		.loc 1 590 0 is_stmt 1 discriminator 4
 227 001e 174C     		ldr	r4, .L36+12
 588:Generated_Source\PSoC4/I2C_I2C_MASTER.c **** 
 228              		.loc 1 588 0 discriminator 4
 229 0020 1360     		str	r3, [r2]
 230              		.loc 1 590 0 discriminator 4
 231 0022 1223     		movs	r3, #18
 232 0024 FF33     		adds	r3, r3, #255
 233              	.L23:
 234              		.loc 1 590 0 is_stmt 0 discriminator 1
 235 0026 2068     		ldr	r0, [r4]
 236 0028 144A     		ldr	r2, .L36+12
 237 002a 1842     		tst	r0, r3
 238 002c FBD0     		beq	.L23
 591:Generated_Source\PSoC4/I2C_I2C_MASTER.c ****                                                   I2C_INTR_MASTER_I2C_ARB_LOST |
 592:Generated_Source\PSoC4/I2C_I2C_MASTER.c ****                                                   I2C_INTR_MASTER_I2C_BUS_ERROR))
 593:Generated_Source\PSoC4/I2C_I2C_MASTER.c ****         {
 594:Generated_Source\PSoC4/I2C_I2C_MASTER.c ****             /* Wait until Stop has been generated */
 595:Generated_Source\PSoC4/I2C_I2C_MASTER.c ****         }
 596:Generated_Source\PSoC4/I2C_I2C_MASTER.c **** 
 597:Generated_Source\PSoC4/I2C_I2C_MASTER.c ****         /* Check Stop generation */
 598:Generated_Source\PSoC4/I2C_I2C_MASTER.c ****         if(I2C_CHECK_INTR_MASTER(I2C_INTR_MASTER_I2C_STOP))
 239              		.loc 1 598 0 is_stmt 1
 240 002e 1368     		ldr	r3, [r2]
 241 0030 DB06     		lsls	r3, r3, #27
 242 0032 06D4     		bmi	.L27
ARM GAS  C:\Users\Greg\AppData\Local\Temp\cc742Y6h.s 			page 16


 599:Generated_Source\PSoC4/I2C_I2C_MASTER.c ****         {
 600:Generated_Source\PSoC4/I2C_I2C_MASTER.c ****             errStatus = I2C_I2C_MSTR_NO_ERROR;
 601:Generated_Source\PSoC4/I2C_I2C_MASTER.c ****         }
 602:Generated_Source\PSoC4/I2C_I2C_MASTER.c ****         else if(I2C_CHECK_INTR_MASTER(I2C_INTR_MASTER_I2C_ARB_LOST))
 243              		.loc 1 602 0
 244 0034 0123     		movs	r3, #1
 245 0036 1068     		ldr	r0, [r2]
 246 0038 1842     		tst	r0, r3
 247 003a 04D1     		bne	.L28
 603:Generated_Source\PSoC4/I2C_I2C_MASTER.c ****         {
 604:Generated_Source\PSoC4/I2C_I2C_MASTER.c ****             errStatus = I2C_I2C_MSTR_ERR_ARB_LOST;
 605:Generated_Source\PSoC4/I2C_I2C_MASTER.c ****             resetIp   = I2C_I2C_RESET_ERROR;
 606:Generated_Source\PSoC4/I2C_I2C_MASTER.c ****         }
 607:Generated_Source\PSoC4/I2C_I2C_MASTER.c ****         else /* I2C_INTR_MASTER_I2C_BUS_ERROR is set */
 608:Generated_Source\PSoC4/I2C_I2C_MASTER.c ****         {
 609:Generated_Source\PSoC4/I2C_I2C_MASTER.c ****             errStatus = I2C_I2C_MSTR_ERR_BUS_ERR;
 248              		.loc 1 609 0
 249 003c 8020     		movs	r0, #128
 250 003e 4000     		lsls	r0, r0, #1
 251 0040 03E0     		b	.L24
 252              	.L27:
 600:Generated_Source\PSoC4/I2C_I2C_MASTER.c ****         }
 253              		.loc 1 600 0
 254 0042 0020     		movs	r0, #0
 255 0044 00E0     		b	.L35
 256              	.L28:
 604:Generated_Source\PSoC4/I2C_I2C_MASTER.c ****             resetIp   = I2C_I2C_RESET_ERROR;
 257              		.loc 1 604 0
 258 0046 1800     		movs	r0, r3
 259              	.L35:
 605:Generated_Source\PSoC4/I2C_I2C_MASTER.c ****         }
 260              		.loc 1 605 0
 261 0048 0300     		movs	r3, r0
 262              	.L24:
 263              	.LVL14:
 610:Generated_Source\PSoC4/I2C_I2C_MASTER.c ****             resetIp   = I2C_I2C_RESET_ERROR;
 611:Generated_Source\PSoC4/I2C_I2C_MASTER.c ****         }
 612:Generated_Source\PSoC4/I2C_I2C_MASTER.c **** 
 613:Generated_Source\PSoC4/I2C_I2C_MASTER.c ****         I2C_ClearMasterInterruptSource(I2C_INTR_MASTER_I2C_STOP     |
 264              		.loc 1 613 0
 265 004a 1224     		movs	r4, #18
 266 004c FF34     		adds	r4, r4, #255
 267 004e 1460     		str	r4, [r2]
 614:Generated_Source\PSoC4/I2C_I2C_MASTER.c ****                                                     I2C_INTR_MASTER_I2C_ARB_LOST |
 615:Generated_Source\PSoC4/I2C_I2C_MASTER.c ****                                                     I2C_INTR_MASTER_I2C_BUS_ERROR);
 616:Generated_Source\PSoC4/I2C_I2C_MASTER.c **** 
 617:Generated_Source\PSoC4/I2C_I2C_MASTER.c ****         I2C_state = I2C_I2C_FSM_IDLE;
 268              		.loc 1 617 0
 269 0050 1022     		movs	r2, #16
 270 0052 0A70     		strb	r2, [r1]
 618:Generated_Source\PSoC4/I2C_I2C_MASTER.c **** 
 619:Generated_Source\PSoC4/I2C_I2C_MASTER.c ****         /* Reset block in case of: LOST_ARB or BUS_ERR */
 620:Generated_Source\PSoC4/I2C_I2C_MASTER.c ****         if(0u != resetIp)
 271              		.loc 1 620 0
 272 0054 002B     		cmp	r3, #0
 273 0056 09D0     		beq	.L21
 621:Generated_Source\PSoC4/I2C_I2C_MASTER.c ****         {
ARM GAS  C:\Users\Greg\AppData\Local\Temp\cc742Y6h.s 			page 17


 622:Generated_Source\PSoC4/I2C_I2C_MASTER.c ****             I2C_SCB_SW_RESET;
 274              		.loc 1 622 0
 275 0058 8021     		movs	r1, #128
 276 005a 094A     		ldr	r2, .L36+16
 277 005c 0906     		lsls	r1, r1, #24
 278 005e 1368     		ldr	r3, [r2]
 279 0060 5B00     		lsls	r3, r3, #1
 280 0062 5B08     		lsrs	r3, r3, #1
 281 0064 1360     		str	r3, [r2]
 282 0066 1368     		ldr	r3, [r2]
 283 0068 0B43     		orrs	r3, r1
 284 006a 1360     		str	r3, [r2]
 285              	.LVL15:
 286              	.L21:
 623:Generated_Source\PSoC4/I2C_I2C_MASTER.c ****         }
 624:Generated_Source\PSoC4/I2C_I2C_MASTER.c ****     }
 625:Generated_Source\PSoC4/I2C_I2C_MASTER.c **** 
 626:Generated_Source\PSoC4/I2C_I2C_MASTER.c ****     return(errStatus);
 627:Generated_Source\PSoC4/I2C_I2C_MASTER.c **** }
 287              		.loc 1 627 0
 288              		@ sp needed
 289 006c 10BD     		pop	{r4, pc}
 290              	.L37:
 291 006e C046     		.align	2
 292              	.L36:
 293 0070 00000000 		.word	I2C_state
 294 0074 64002440 		.word	1076101220
 295 0078 68002440 		.word	1076101224
 296 007c 000F2440 		.word	1076104960
 297 0080 00002440 		.word	1076101120
 298              		.cfi_endproc
 299              	.LFE5:
 300              		.size	I2C_I2CMasterSendStop, .-I2C_I2CMasterSendStop
 301              		.section	.text.I2C_I2CMasterWriteByte,"ax",%progbits
 302              		.align	1
 303              		.global	I2C_I2CMasterWriteByte
 304              		.code	16
 305              		.thumb_func
 306              		.type	I2C_I2CMasterWriteByte, %function
 307              	I2C_I2CMasterWriteByte:
 308              	.LFB6:
 628:Generated_Source\PSoC4/I2C_I2C_MASTER.c **** 
 629:Generated_Source\PSoC4/I2C_I2C_MASTER.c **** 
 630:Generated_Source\PSoC4/I2C_I2C_MASTER.c **** /*******************************************************************************
 631:Generated_Source\PSoC4/I2C_I2C_MASTER.c **** * Function Name: I2C_I2CMasterWriteByte
 632:Generated_Source\PSoC4/I2C_I2C_MASTER.c **** ****************************************************************************//**
 633:Generated_Source\PSoC4/I2C_I2C_MASTER.c **** *
 634:Generated_Source\PSoC4/I2C_I2C_MASTER.c **** *  Sends one byte to a slave.
 635:Generated_Source\PSoC4/I2C_I2C_MASTER.c **** *  This function is blocking and does not return until byte is transmitted
 636:Generated_Source\PSoC4/I2C_I2C_MASTER.c **** *  or error occurred.
 637:Generated_Source\PSoC4/I2C_I2C_MASTER.c **** *
 638:Generated_Source\PSoC4/I2C_I2C_MASTER.c **** * \param data: The data byte to send to the slave.
 639:Generated_Source\PSoC4/I2C_I2C_MASTER.c **** *
 640:Generated_Source\PSoC4/I2C_I2C_MASTER.c **** * \return
 641:Generated_Source\PSoC4/I2C_I2C_MASTER.c **** *  Error status.
 642:Generated_Source\PSoC4/I2C_I2C_MASTER.c **** *  See I2C_I2CMasterSendStart() function for constants.
 643:Generated_Source\PSoC4/I2C_I2C_MASTER.c **** *
ARM GAS  C:\Users\Greg\AppData\Local\Temp\cc742Y6h.s 			page 18


 644:Generated_Source\PSoC4/I2C_I2C_MASTER.c **** * \sideeffect
 645:Generated_Source\PSoC4/I2C_I2C_MASTER.c **** *  A valid Start or ReStart condition must be generated before calling
 646:Generated_Source\PSoC4/I2C_I2C_MASTER.c **** *  this function. This function does nothing if Start or ReStart condition
 647:Generated_Source\PSoC4/I2C_I2C_MASTER.c **** *  failed before this function was called.
 648:Generated_Source\PSoC4/I2C_I2C_MASTER.c **** *
 649:Generated_Source\PSoC4/I2C_I2C_MASTER.c **** * \globalvars
 650:Generated_Source\PSoC4/I2C_I2C_MASTER.c **** *  I2C_state - used to store current state of software FSM.
 651:Generated_Source\PSoC4/I2C_I2C_MASTER.c **** *
 652:Generated_Source\PSoC4/I2C_I2C_MASTER.c **** *******************************************************************************/
 653:Generated_Source\PSoC4/I2C_I2C_MASTER.c **** uint32 I2C_I2CMasterWriteByte(uint32 theByte)
 654:Generated_Source\PSoC4/I2C_I2C_MASTER.c **** {
 309              		.loc 1 654 0
 310              		.cfi_startproc
 311              		@ args = 0, pretend = 0, frame = 0
 312              		@ frame_needed = 0, uses_anonymous_args = 0
 313              	.LVL16:
 314 0000 10B5     		push	{r4, lr}
 315              		.cfi_def_cfa_offset 8
 316              		.cfi_offset 4, -8
 317              		.cfi_offset 14, -4
 655:Generated_Source\PSoC4/I2C_I2C_MASTER.c ****     uint32 resetIp;
 656:Generated_Source\PSoC4/I2C_I2C_MASTER.c ****     uint32 errStatus;
 657:Generated_Source\PSoC4/I2C_I2C_MASTER.c **** 
 658:Generated_Source\PSoC4/I2C_I2C_MASTER.c ****     resetIp   = 0u;
 659:Generated_Source\PSoC4/I2C_I2C_MASTER.c ****     errStatus = I2C_I2C_MSTR_NOT_READY;
 660:Generated_Source\PSoC4/I2C_I2C_MASTER.c **** 
 661:Generated_Source\PSoC4/I2C_I2C_MASTER.c ****     /* Check FSM state before write byte */
 662:Generated_Source\PSoC4/I2C_I2C_MASTER.c ****     if(I2C_CHECK_I2C_MASTER_ACTIVE)
 318              		.loc 1 662 0
 319 0002 1C4A     		ldr	r2, .L52
 654:Generated_Source\PSoC4/I2C_I2C_MASTER.c ****     uint32 resetIp;
 320              		.loc 1 654 0
 321 0004 0100     		movs	r1, r0
 322              		.loc 1 662 0
 323 0006 1378     		ldrb	r3, [r2]
 659:Generated_Source\PSoC4/I2C_I2C_MASTER.c **** 
 324              		.loc 1 659 0
 325 0008 0420     		movs	r0, #4
 326              	.LVL17:
 327              		.loc 1 662 0
 328 000a 9B06     		lsls	r3, r3, #26
 329 000c 31D5     		bpl	.L39
 663:Generated_Source\PSoC4/I2C_I2C_MASTER.c ****     {
 664:Generated_Source\PSoC4/I2C_I2C_MASTER.c ****         I2C_TX_FIFO_WR_REG = theByte;
 330              		.loc 1 664 0
 331 000e 1A4B     		ldr	r3, .L52+4
 665:Generated_Source\PSoC4/I2C_I2C_MASTER.c **** 
 666:Generated_Source\PSoC4/I2C_I2C_MASTER.c ****         while(!I2C_CHECK_INTR_MASTER(I2C_INTR_MASTER_I2C_ACK      |
 332              		.loc 1 666 0
 333 0010 1A48     		ldr	r0, .L52+8
 664:Generated_Source\PSoC4/I2C_I2C_MASTER.c **** 
 334              		.loc 1 664 0
 335 0012 1960     		str	r1, [r3]
 336              		.loc 1 666 0
 337 0014 0823     		movs	r3, #8
 338 0016 FF33     		adds	r3, r3, #255
 339              	.LVL18:
ARM GAS  C:\Users\Greg\AppData\Local\Temp\cc742Y6h.s 			page 19


 340              	.L40:
 341              		.loc 1 666 0 is_stmt 0 discriminator 1
 342 0018 0168     		ldr	r1, [r0]
 343 001a 184C     		ldr	r4, .L52+8
 344 001c 1942     		tst	r1, r3
 345 001e FBD0     		beq	.L40
 667:Generated_Source\PSoC4/I2C_I2C_MASTER.c ****                                                   I2C_INTR_MASTER_I2C_NACK     |
 668:Generated_Source\PSoC4/I2C_I2C_MASTER.c ****                                                   I2C_INTR_MASTER_I2C_ARB_LOST |
 669:Generated_Source\PSoC4/I2C_I2C_MASTER.c ****                                                   I2C_INTR_MASTER_I2C_BUS_ERROR))
 670:Generated_Source\PSoC4/I2C_I2C_MASTER.c ****         {
 671:Generated_Source\PSoC4/I2C_I2C_MASTER.c ****             /* Wait until byte has been transferred */
 672:Generated_Source\PSoC4/I2C_I2C_MASTER.c ****         }
 673:Generated_Source\PSoC4/I2C_I2C_MASTER.c **** 
 674:Generated_Source\PSoC4/I2C_I2C_MASTER.c ****         /* Check results after byte was sent */
 675:Generated_Source\PSoC4/I2C_I2C_MASTER.c ****         if(I2C_CHECK_INTR_MASTER(I2C_INTR_MASTER_I2C_ACK))
 346              		.loc 1 675 0 is_stmt 1
 347 0020 0423     		movs	r3, #4
 348 0022 2168     		ldr	r1, [r4]
 349 0024 0B40     		ands	r3, r1
 350 0026 04D0     		beq	.L41
 676:Generated_Source\PSoC4/I2C_I2C_MASTER.c ****         {
 677:Generated_Source\PSoC4/I2C_I2C_MASTER.c ****             I2C_state = I2C_I2C_FSM_MSTR_HALT;
 351              		.loc 1 677 0
 352 0028 6023     		movs	r3, #96
 678:Generated_Source\PSoC4/I2C_I2C_MASTER.c ****                          errStatus = I2C_I2C_MSTR_NO_ERROR;
 353              		.loc 1 678 0
 354 002a 0020     		movs	r0, #0
 677:Generated_Source\PSoC4/I2C_I2C_MASTER.c ****                          errStatus = I2C_I2C_MSTR_NO_ERROR;
 355              		.loc 1 677 0
 356 002c 1370     		strb	r3, [r2]
 357              	.LVL19:
 658:Generated_Source\PSoC4/I2C_I2C_MASTER.c ****     errStatus = I2C_I2C_MSTR_NOT_READY;
 358              		.loc 1 658 0
 359 002e 0300     		movs	r3, r0
 360 0030 10E0     		b	.L42
 361              	.LVL20:
 362              	.L41:
 679:Generated_Source\PSoC4/I2C_I2C_MASTER.c ****         }
 680:Generated_Source\PSoC4/I2C_I2C_MASTER.c ****         else if(I2C_CHECK_INTR_MASTER(I2C_INTR_MASTER_I2C_NACK))
 363              		.loc 1 680 0
 364 0032 0220     		movs	r0, #2
 365 0034 2168     		ldr	r1, [r4]
 366 0036 0142     		tst	r1, r0
 367 0038 02D0     		beq	.L43
 681:Generated_Source\PSoC4/I2C_I2C_MASTER.c ****         {
 682:Generated_Source\PSoC4/I2C_I2C_MASTER.c ****             I2C_state = I2C_I2C_FSM_MSTR_HALT;
 368              		.loc 1 682 0
 369 003a 6021     		movs	r1, #96
 370 003c 1170     		strb	r1, [r2]
 371              	.LVL21:
 372 003e 09E0     		b	.L42
 373              	.LVL22:
 374              	.L43:
 375 0040 1021     		movs	r1, #16
 683:Generated_Source\PSoC4/I2C_I2C_MASTER.c ****                          errStatus = I2C_I2C_MSTR_ERR_LB_NAK;
 684:Generated_Source\PSoC4/I2C_I2C_MASTER.c ****         }
 685:Generated_Source\PSoC4/I2C_I2C_MASTER.c ****         else if(I2C_CHECK_INTR_MASTER(I2C_INTR_MASTER_I2C_ARB_LOST))
ARM GAS  C:\Users\Greg\AppData\Local\Temp\cc742Y6h.s 			page 20


 376              		.loc 1 685 0
 377 0042 0123     		movs	r3, #1
 378 0044 2068     		ldr	r0, [r4]
 686:Generated_Source\PSoC4/I2C_I2C_MASTER.c ****         {
 687:Generated_Source\PSoC4/I2C_I2C_MASTER.c ****             I2C_state = I2C_I2C_FSM_IDLE;
 379              		.loc 1 687 0
 380 0046 1170     		strb	r1, [r2]
 381              	.LVL23:
 685:Generated_Source\PSoC4/I2C_I2C_MASTER.c ****         {
 382              		.loc 1 685 0
 383 0048 1842     		tst	r0, r3
 384 004a 01D0     		beq	.L44
 385              	.LVL24:
 688:Generated_Source\PSoC4/I2C_I2C_MASTER.c ****                          errStatus = I2C_I2C_MSTR_ERR_ARB_LOST;
 386              		.loc 1 688 0
 387 004c 1800     		movs	r0, r3
 388 004e 01E0     		b	.L42
 389              	.LVL25:
 390              	.L44:
 689:Generated_Source\PSoC4/I2C_I2C_MASTER.c ****                          resetIp   = I2C_I2C_RESET_ERROR;
 690:Generated_Source\PSoC4/I2C_I2C_MASTER.c ****         }
 691:Generated_Source\PSoC4/I2C_I2C_MASTER.c ****         else /* I2C_INTR_MASTER_I2C_BUS_ERROR set is */
 692:Generated_Source\PSoC4/I2C_I2C_MASTER.c ****         {
 693:Generated_Source\PSoC4/I2C_I2C_MASTER.c ****             I2C_state = I2C_I2C_FSM_IDLE;
 694:Generated_Source\PSoC4/I2C_I2C_MASTER.c ****                          errStatus = I2C_I2C_MSTR_ERR_BUS_ERR;
 391              		.loc 1 694 0
 392 0050 8020     		movs	r0, #128
 393 0052 4000     		lsls	r0, r0, #1
 394              	.LVL26:
 395              	.L42:
 695:Generated_Source\PSoC4/I2C_I2C_MASTER.c ****                          resetIp   = I2C_I2C_RESET_ERROR;
 696:Generated_Source\PSoC4/I2C_I2C_MASTER.c ****         }
 697:Generated_Source\PSoC4/I2C_I2C_MASTER.c **** 
 698:Generated_Source\PSoC4/I2C_I2C_MASTER.c ****         I2C_ClearMasterInterruptSource(I2C_INTR_MASTER_I2C_ACK      |
 396              		.loc 1 698 0
 397 0054 0822     		movs	r2, #8
 398 0056 FF32     		adds	r2, r2, #255
 399 0058 2260     		str	r2, [r4]
 699:Generated_Source\PSoC4/I2C_I2C_MASTER.c ****                                                     I2C_INTR_MASTER_I2C_NACK     |
 700:Generated_Source\PSoC4/I2C_I2C_MASTER.c ****                                                     I2C_INTR_MASTER_I2C_ARB_LOST |
 701:Generated_Source\PSoC4/I2C_I2C_MASTER.c ****                                                     I2C_INTR_MASTER_I2C_BUS_ERROR);
 702:Generated_Source\PSoC4/I2C_I2C_MASTER.c **** 
 703:Generated_Source\PSoC4/I2C_I2C_MASTER.c ****         /* Reset block in case of: LOST_ARB or BUS_ERR */
 704:Generated_Source\PSoC4/I2C_I2C_MASTER.c ****         if(0u != resetIp)
 400              		.loc 1 704 0
 401 005a 002B     		cmp	r3, #0
 402 005c 09D0     		beq	.L39
 705:Generated_Source\PSoC4/I2C_I2C_MASTER.c ****         {
 706:Generated_Source\PSoC4/I2C_I2C_MASTER.c ****             I2C_SCB_SW_RESET;
 403              		.loc 1 706 0
 404 005e 8021     		movs	r1, #128
 405 0060 074A     		ldr	r2, .L52+12
 406 0062 0906     		lsls	r1, r1, #24
 407 0064 1368     		ldr	r3, [r2]
 408 0066 5B00     		lsls	r3, r3, #1
 409 0068 5B08     		lsrs	r3, r3, #1
 410 006a 1360     		str	r3, [r2]
ARM GAS  C:\Users\Greg\AppData\Local\Temp\cc742Y6h.s 			page 21


 411 006c 1368     		ldr	r3, [r2]
 412 006e 0B43     		orrs	r3, r1
 413 0070 1360     		str	r3, [r2]
 414              	.LVL27:
 415              	.L39:
 707:Generated_Source\PSoC4/I2C_I2C_MASTER.c ****         }
 708:Generated_Source\PSoC4/I2C_I2C_MASTER.c ****     }
 709:Generated_Source\PSoC4/I2C_I2C_MASTER.c **** 
 710:Generated_Source\PSoC4/I2C_I2C_MASTER.c ****     return(errStatus);
 711:Generated_Source\PSoC4/I2C_I2C_MASTER.c **** }
 416              		.loc 1 711 0
 417              		@ sp needed
 418 0072 10BD     		pop	{r4, pc}
 419              	.L53:
 420              		.align	2
 421              	.L52:
 422 0074 00000000 		.word	I2C_state
 423 0078 40022440 		.word	1076101696
 424 007c 000F2440 		.word	1076104960
 425 0080 00002440 		.word	1076101120
 426              		.cfi_endproc
 427              	.LFE6:
 428              		.size	I2C_I2CMasterWriteByte, .-I2C_I2CMasterWriteByte
 429              		.section	.text.I2C_I2CMasterReadByte,"ax",%progbits
 430              		.align	1
 431              		.global	I2C_I2CMasterReadByte
 432              		.code	16
 433              		.thumb_func
 434              		.type	I2C_I2CMasterReadByte, %function
 435              	I2C_I2CMasterReadByte:
 436              	.LFB7:
 712:Generated_Source\PSoC4/I2C_I2C_MASTER.c **** 
 713:Generated_Source\PSoC4/I2C_I2C_MASTER.c **** 
 714:Generated_Source\PSoC4/I2C_I2C_MASTER.c **** /*******************************************************************************
 715:Generated_Source\PSoC4/I2C_I2C_MASTER.c **** * Function Name: I2C_I2CMasterReadByte
 716:Generated_Source\PSoC4/I2C_I2C_MASTER.c **** ****************************************************************************//**
 717:Generated_Source\PSoC4/I2C_I2C_MASTER.c **** *
 718:Generated_Source\PSoC4/I2C_I2C_MASTER.c **** *  Reads one byte from a slave and generates ACK or prepares to generate NAK. 
 719:Generated_Source\PSoC4/I2C_I2C_MASTER.c **** *  The NAK will be generated before Stop or ReStart condition by 
 720:Generated_Source\PSoC4/I2C_I2C_MASTER.c **** *  I2C_I2CMasterSendStop() or 
 721:Generated_Source\PSoC4/I2C_I2C_MASTER.c **** *  I2C_I2CMasterSendRestart() function appropriately.
 722:Generated_Source\PSoC4/I2C_I2C_MASTER.c **** *  This function is blocking. It does not return until a byte is received or 
 723:Generated_Source\PSoC4/I2C_I2C_MASTER.c **** *  an error occurs.
 724:Generated_Source\PSoC4/I2C_I2C_MASTER.c **** *
 725:Generated_Source\PSoC4/I2C_I2C_MASTER.c **** * \param ackNack: Response to received byte.
 726:Generated_Source\PSoC4/I2C_I2C_MASTER.c **** *  - I2C_I2C_ACK_DATA - Generates ACK. 
 727:Generated_Source\PSoC4/I2C_I2C_MASTER.c **** *     The master notifies slave that transfer continues.
 728:Generated_Source\PSoC4/I2C_I2C_MASTER.c **** *  - I2C_I2C_NAK_DATA - Prepares to generate NAK.
 729:Generated_Source\PSoC4/I2C_I2C_MASTER.c **** *     The master will notify slave that transfer is completed.
 730:Generated_Source\PSoC4/I2C_I2C_MASTER.c **** *
 731:Generated_Source\PSoC4/I2C_I2C_MASTER.c **** * \return
 732:Generated_Source\PSoC4/I2C_I2C_MASTER.c **** *  Byte read from the slave. In case of error the MSB of returned data 
 733:Generated_Source\PSoC4/I2C_I2C_MASTER.c **** *  is set to 1.
 734:Generated_Source\PSoC4/I2C_I2C_MASTER.c **** *
 735:Generated_Source\PSoC4/I2C_I2C_MASTER.c **** * \sideeffect
 736:Generated_Source\PSoC4/I2C_I2C_MASTER.c **** *  A valid Start or ReStart condition must be generated before calling
 737:Generated_Source\PSoC4/I2C_I2C_MASTER.c **** *  this function. This function does nothing if Start or ReStart condition
ARM GAS  C:\Users\Greg\AppData\Local\Temp\cc742Y6h.s 			page 22


 738:Generated_Source\PSoC4/I2C_I2C_MASTER.c **** *  failed before this function was called.
 739:Generated_Source\PSoC4/I2C_I2C_MASTER.c **** *
 740:Generated_Source\PSoC4/I2C_I2C_MASTER.c **** * \globalvars
 741:Generated_Source\PSoC4/I2C_I2C_MASTER.c **** *  I2C_state - used to store current state of software FSM.
 742:Generated_Source\PSoC4/I2C_I2C_MASTER.c **** *
 743:Generated_Source\PSoC4/I2C_I2C_MASTER.c **** *******************************************************************************/
 744:Generated_Source\PSoC4/I2C_I2C_MASTER.c **** uint32 I2C_I2CMasterReadByte(uint32 ackNack)
 745:Generated_Source\PSoC4/I2C_I2C_MASTER.c **** {
 437              		.loc 1 745 0
 438              		.cfi_startproc
 439              		@ args = 0, pretend = 0, frame = 0
 440              		@ frame_needed = 0, uses_anonymous_args = 0
 441              	.LVL28:
 442 0000 70B5     		push	{r4, r5, r6, lr}
 443              		.cfi_def_cfa_offset 16
 444              		.cfi_offset 4, -16
 445              		.cfi_offset 5, -12
 446              		.cfi_offset 6, -8
 447              		.cfi_offset 14, -4
 746:Generated_Source\PSoC4/I2C_I2C_MASTER.c ****     uint32 theByte;
 747:Generated_Source\PSoC4/I2C_I2C_MASTER.c **** 
 748:Generated_Source\PSoC4/I2C_I2C_MASTER.c ****     /* Return invalid byte in case BUS_ERR happen during receiving */
 749:Generated_Source\PSoC4/I2C_I2C_MASTER.c ****     theByte = I2C_I2C_INVALID_BYTE;
 750:Generated_Source\PSoC4/I2C_I2C_MASTER.c **** 
 751:Generated_Source\PSoC4/I2C_I2C_MASTER.c ****     /* Check FSM state before read byte */
 752:Generated_Source\PSoC4/I2C_I2C_MASTER.c ****     if(I2C_CHECK_I2C_MASTER_ACTIVE)
 448              		.loc 1 752 0
 449 0002 194B     		ldr	r3, .L64
 450 0004 1A78     		ldrb	r2, [r3]
 451 0006 1900     		movs	r1, r3
 452 0008 9306     		lsls	r3, r2, #26
 453 000a 28D5     		bpl	.L60
 753:Generated_Source\PSoC4/I2C_I2C_MASTER.c ****     {
 754:Generated_Source\PSoC4/I2C_I2C_MASTER.c ****         while((!I2C_CHECK_INTR_RX(I2C_INTR_RX_NOT_EMPTY)) &&
 454              		.loc 1 754 0 discriminator 2
 455 000c 0223     		movs	r3, #2
 456 000e 0426     		movs	r6, #4
 457 0010 164D     		ldr	r5, .L64+4
 755:Generated_Source\PSoC4/I2C_I2C_MASTER.c ****               (!I2C_CHECK_INTR_MASTER(I2C_INTR_MASTER_I2C_ARB_LOST |
 458              		.loc 1 755 0 discriminator 2
 459 0012 174C     		ldr	r4, .L64+8
 754:Generated_Source\PSoC4/I2C_I2C_MASTER.c ****               (!I2C_CHECK_INTR_MASTER(I2C_INTR_MASTER_I2C_ARB_LOST |
 460              		.loc 1 754 0 discriminator 2
 461 0014 FF33     		adds	r3, r3, #255
 462              	.L62:
 463 0016 2A68     		ldr	r2, [r5]
 464 0018 3242     		tst	r2, r6
 465 001a 02D1     		bne	.L56
 466              		.loc 1 755 0 discriminator 1
 467 001c 2268     		ldr	r2, [r4]
 754:Generated_Source\PSoC4/I2C_I2C_MASTER.c ****               (!I2C_CHECK_INTR_MASTER(I2C_INTR_MASTER_I2C_ARB_LOST |
 468              		.loc 1 754 0 discriminator 1
 469 001e 1A42     		tst	r2, r3
 470 0020 F9D0     		beq	.L62
 471              	.L56:
 756:Generated_Source\PSoC4/I2C_I2C_MASTER.c ****                                                   I2C_INTR_MASTER_I2C_BUS_ERROR)))
 757:Generated_Source\PSoC4/I2C_I2C_MASTER.c ****         {
ARM GAS  C:\Users\Greg\AppData\Local\Temp\cc742Y6h.s 			page 23


 758:Generated_Source\PSoC4/I2C_I2C_MASTER.c ****             /* Wait until byte has been received */
 759:Generated_Source\PSoC4/I2C_I2C_MASTER.c ****         }
 760:Generated_Source\PSoC4/I2C_I2C_MASTER.c **** 
 761:Generated_Source\PSoC4/I2C_I2C_MASTER.c ****         /* Check the results after the byte was sent */
 762:Generated_Source\PSoC4/I2C_I2C_MASTER.c ****         if(I2C_CHECK_INTR_RX(I2C_INTR_RX_NOT_EMPTY))
 472              		.loc 1 762 0
 473 0022 0422     		movs	r2, #4
 474 0024 114B     		ldr	r3, .L64+4
 475 0026 1B68     		ldr	r3, [r3]
 476 0028 1342     		tst	r3, r2
 477 002a 0BD0     		beq	.L58
 763:Generated_Source\PSoC4/I2C_I2C_MASTER.c ****         {
 764:Generated_Source\PSoC4/I2C_I2C_MASTER.c ****             theByte = I2C_RX_FIFO_RD_REG;
 478              		.loc 1 764 0
 479 002c 114B     		ldr	r3, .L64+12
 765:Generated_Source\PSoC4/I2C_I2C_MASTER.c **** 
 766:Generated_Source\PSoC4/I2C_I2C_MASTER.c ****             I2C_ClearRxInterruptSource(I2C_INTR_RX_NOT_EMPTY);
 480              		.loc 1 766 0
 481 002e 0F4C     		ldr	r4, .L64+4
 764:Generated_Source\PSoC4/I2C_I2C_MASTER.c **** 
 482              		.loc 1 764 0
 483 0030 1B68     		ldr	r3, [r3]
 484              	.LVL29:
 485              		.loc 1 766 0
 486 0032 2260     		str	r2, [r4]
 767:Generated_Source\PSoC4/I2C_I2C_MASTER.c **** 
 768:Generated_Source\PSoC4/I2C_I2C_MASTER.c ****             if(0u == ackNack)
 487              		.loc 1 768 0
 488 0034 0028     		cmp	r0, #0
 489 0036 02D1     		bne	.L59
 769:Generated_Source\PSoC4/I2C_I2C_MASTER.c ****             {
 770:Generated_Source\PSoC4/I2C_I2C_MASTER.c ****                 I2C_I2C_MASTER_GENERATE_ACK;
 490              		.loc 1 770 0
 491 0038 0F49     		ldr	r1, .L64+16
 492 003a 0A60     		str	r2, [r1]
 493 003c 11E0     		b	.L55
 494              	.L59:
 771:Generated_Source\PSoC4/I2C_I2C_MASTER.c ****             }
 772:Generated_Source\PSoC4/I2C_I2C_MASTER.c ****             else
 773:Generated_Source\PSoC4/I2C_I2C_MASTER.c ****             {
 774:Generated_Source\PSoC4/I2C_I2C_MASTER.c ****                 /* NACK is generated by Stop or ReStart command */
 775:Generated_Source\PSoC4/I2C_I2C_MASTER.c ****                 I2C_state = I2C_I2C_FSM_MSTR_HALT;
 495              		.loc 1 775 0
 496 003e 6022     		movs	r2, #96
 497 0040 0A70     		strb	r2, [r1]
 498 0042 0EE0     		b	.L55
 499              	.LVL30:
 500              	.L58:
 776:Generated_Source\PSoC4/I2C_I2C_MASTER.c ****             }
 777:Generated_Source\PSoC4/I2C_I2C_MASTER.c ****         }
 778:Generated_Source\PSoC4/I2C_I2C_MASTER.c ****         else
 779:Generated_Source\PSoC4/I2C_I2C_MASTER.c ****         {
 780:Generated_Source\PSoC4/I2C_I2C_MASTER.c ****             I2C_ClearMasterInterruptSource(I2C_INTR_MASTER_ALL);
 781:Generated_Source\PSoC4/I2C_I2C_MASTER.c **** 
 782:Generated_Source\PSoC4/I2C_I2C_MASTER.c ****             /* Reset block in case of: LOST_ARB or BUS_ERR */
 783:Generated_Source\PSoC4/I2C_I2C_MASTER.c ****             I2C_SCB_SW_RESET;
 501              		.loc 1 783 0
ARM GAS  C:\Users\Greg\AppData\Local\Temp\cc742Y6h.s 			page 24


 502 0044 8021     		movs	r1, #128
 780:Generated_Source\PSoC4/I2C_I2C_MASTER.c **** 
 503              		.loc 1 780 0
 504 0046 0D4A     		ldr	r2, .L64+20
 505 0048 094B     		ldr	r3, .L64+8
 506              		.loc 1 783 0
 507 004a 0906     		lsls	r1, r1, #24
 780:Generated_Source\PSoC4/I2C_I2C_MASTER.c **** 
 508              		.loc 1 780 0
 509 004c 1A60     		str	r2, [r3]
 510              		.loc 1 783 0
 511 004e 0C4A     		ldr	r2, .L64+24
 512 0050 1368     		ldr	r3, [r2]
 513 0052 5B00     		lsls	r3, r3, #1
 514 0054 5B08     		lsrs	r3, r3, #1
 515 0056 1360     		str	r3, [r2]
 516 0058 1368     		ldr	r3, [r2]
 517 005a 0B43     		orrs	r3, r1
 518 005c 1360     		str	r3, [r2]
 519              	.L60:
 749:Generated_Source\PSoC4/I2C_I2C_MASTER.c **** 
 520              		.loc 1 749 0
 521 005e 0123     		movs	r3, #1
 522 0060 5B42     		rsbs	r3, r3, #0
 523              	.LVL31:
 524              	.L55:
 784:Generated_Source\PSoC4/I2C_I2C_MASTER.c ****         }
 785:Generated_Source\PSoC4/I2C_I2C_MASTER.c ****     }
 786:Generated_Source\PSoC4/I2C_I2C_MASTER.c **** 
 787:Generated_Source\PSoC4/I2C_I2C_MASTER.c ****     return(theByte);
 788:Generated_Source\PSoC4/I2C_I2C_MASTER.c **** }
 525              		.loc 1 788 0
 526 0062 1800     		movs	r0, r3
 527              	.LVL32:
 528              		@ sp needed
 529 0064 70BD     		pop	{r4, r5, r6, pc}
 530              	.L65:
 531 0066 C046     		.align	2
 532              	.L64:
 533 0068 00000000 		.word	I2C_state
 534 006c C00F2440 		.word	1076105152
 535 0070 000F2440 		.word	1076104960
 536 0074 40032440 		.word	1076101952
 537 0078 68002440 		.word	1076101224
 538 007c 17030000 		.word	791
 539 0080 00002440 		.word	1076101120
 540              		.cfi_endproc
 541              	.LFE7:
 542              		.size	I2C_I2CMasterReadByte, .-I2C_I2CMasterReadByte
 543              		.section	.text.I2C_I2CMasterGetReadBufSize,"ax",%progbits
 544              		.align	1
 545              		.global	I2C_I2CMasterGetReadBufSize
 546              		.code	16
 547              		.thumb_func
 548              		.type	I2C_I2CMasterGetReadBufSize, %function
 549              	I2C_I2CMasterGetReadBufSize:
 550              	.LFB8:
ARM GAS  C:\Users\Greg\AppData\Local\Temp\cc742Y6h.s 			page 25


 789:Generated_Source\PSoC4/I2C_I2C_MASTER.c **** 
 790:Generated_Source\PSoC4/I2C_I2C_MASTER.c **** 
 791:Generated_Source\PSoC4/I2C_I2C_MASTER.c **** /*******************************************************************************
 792:Generated_Source\PSoC4/I2C_I2C_MASTER.c **** * Function Name: I2C_I2CMasterGetReadBufSize
 793:Generated_Source\PSoC4/I2C_I2C_MASTER.c **** ****************************************************************************//**
 794:Generated_Source\PSoC4/I2C_I2C_MASTER.c **** *
 795:Generated_Source\PSoC4/I2C_I2C_MASTER.c **** *  Returns the number of bytes that has been transferred with an
 796:Generated_Source\PSoC4/I2C_I2C_MASTER.c **** *  I2C_I2CMasterReadBuf() function.
 797:Generated_Source\PSoC4/I2C_I2C_MASTER.c **** *
 798:Generated_Source\PSoC4/I2C_I2C_MASTER.c **** * \return
 799:Generated_Source\PSoC4/I2C_I2C_MASTER.c **** *  Byte count of transfer. If the transfer is not yet complete, it returns
 800:Generated_Source\PSoC4/I2C_I2C_MASTER.c **** *  the byte count transferred so far.
 801:Generated_Source\PSoC4/I2C_I2C_MASTER.c **** *
 802:Generated_Source\PSoC4/I2C_I2C_MASTER.c **** * \sideeffect
 803:Generated_Source\PSoC4/I2C_I2C_MASTER.c **** *  This function returns not valid value if 
 804:Generated_Source\PSoC4/I2C_I2C_MASTER.c **** *  I2C_I2C_MSTAT_ERR_ARB_LOST or
 805:Generated_Source\PSoC4/I2C_I2C_MASTER.c **** *  I2C_I2C_MSTAT_ERR_BUS_ERROR occurred while read transfer.
 806:Generated_Source\PSoC4/I2C_I2C_MASTER.c **** *
 807:Generated_Source\PSoC4/I2C_I2C_MASTER.c **** * \globalvars
 808:Generated_Source\PSoC4/I2C_I2C_MASTER.c **** *  I2C_mstrRdBufIndex - used to current index within master read
 809:Generated_Source\PSoC4/I2C_I2C_MASTER.c **** *  buffer.
 810:Generated_Source\PSoC4/I2C_I2C_MASTER.c **** *
 811:Generated_Source\PSoC4/I2C_I2C_MASTER.c **** *******************************************************************************/
 812:Generated_Source\PSoC4/I2C_I2C_MASTER.c **** uint32 I2C_I2CMasterGetReadBufSize(void)
 813:Generated_Source\PSoC4/I2C_I2C_MASTER.c **** {
 551              		.loc 1 813 0
 552              		.cfi_startproc
 553              		@ args = 0, pretend = 0, frame = 0
 554              		@ frame_needed = 0, uses_anonymous_args = 0
 555              		@ link register save eliminated.
 814:Generated_Source\PSoC4/I2C_I2C_MASTER.c ****     return(I2C_mstrRdBufIndex);
 556              		.loc 1 814 0
 557 0000 014B     		ldr	r3, .L67
 815:Generated_Source\PSoC4/I2C_I2C_MASTER.c **** }
 558              		.loc 1 815 0
 559              		@ sp needed
 814:Generated_Source\PSoC4/I2C_I2C_MASTER.c ****     return(I2C_mstrRdBufIndex);
 560              		.loc 1 814 0
 561 0002 1868     		ldr	r0, [r3]
 562              		.loc 1 815 0
 563 0004 7047     		bx	lr
 564              	.L68:
 565 0006 C046     		.align	2
 566              	.L67:
 567 0008 00000000 		.word	I2C_mstrRdBufIndex
 568              		.cfi_endproc
 569              	.LFE8:
 570              		.size	I2C_I2CMasterGetReadBufSize, .-I2C_I2CMasterGetReadBufSize
 571              		.section	.text.I2C_I2CMasterGetWriteBufSize,"ax",%progbits
 572              		.align	1
 573              		.global	I2C_I2CMasterGetWriteBufSize
 574              		.code	16
 575              		.thumb_func
 576              		.type	I2C_I2CMasterGetWriteBufSize, %function
 577              	I2C_I2CMasterGetWriteBufSize:
 578              	.LFB9:
 816:Generated_Source\PSoC4/I2C_I2C_MASTER.c **** 
ARM GAS  C:\Users\Greg\AppData\Local\Temp\cc742Y6h.s 			page 26


 817:Generated_Source\PSoC4/I2C_I2C_MASTER.c **** 
 818:Generated_Source\PSoC4/I2C_I2C_MASTER.c **** /*******************************************************************************
 819:Generated_Source\PSoC4/I2C_I2C_MASTER.c **** * Function Name: I2C_I2CMasterGetWriteBufSize
 820:Generated_Source\PSoC4/I2C_I2C_MASTER.c **** ****************************************************************************//**
 821:Generated_Source\PSoC4/I2C_I2C_MASTER.c **** *
 822:Generated_Source\PSoC4/I2C_I2C_MASTER.c **** *  Returns the number of bytes that have been transferred with an
 823:Generated_Source\PSoC4/I2C_I2C_MASTER.c **** *  SCB_I2CMasterWriteBuf() function.
 824:Generated_Source\PSoC4/I2C_I2C_MASTER.c **** *
 825:Generated_Source\PSoC4/I2C_I2C_MASTER.c **** * \return
 826:Generated_Source\PSoC4/I2C_I2C_MASTER.c **** *   Byte count of transfer. If the transfer is not yet complete, it returns
 827:Generated_Source\PSoC4/I2C_I2C_MASTER.c **** *   zero unit transfer completion.
 828:Generated_Source\PSoC4/I2C_I2C_MASTER.c **** *
 829:Generated_Source\PSoC4/I2C_I2C_MASTER.c **** * \sideeffect
 830:Generated_Source\PSoC4/I2C_I2C_MASTER.c **** *   This function returns not valid value if 
 831:Generated_Source\PSoC4/I2C_I2C_MASTER.c **** *   I2C_I2C_MSTAT_ERR_ARB_LOST or 
 832:Generated_Source\PSoC4/I2C_I2C_MASTER.c **** *   I2C_I2C_MSTAT_ERR_BUS_ERROR occurred while read transfer.
 833:Generated_Source\PSoC4/I2C_I2C_MASTER.c **** *
 834:Generated_Source\PSoC4/I2C_I2C_MASTER.c **** * \globalvars
 835:Generated_Source\PSoC4/I2C_I2C_MASTER.c **** *  I2C_mstrWrBufIndex - used to current index within master write
 836:Generated_Source\PSoC4/I2C_I2C_MASTER.c **** *  buffer.
 837:Generated_Source\PSoC4/I2C_I2C_MASTER.c **** *
 838:Generated_Source\PSoC4/I2C_I2C_MASTER.c **** *******************************************************************************/
 839:Generated_Source\PSoC4/I2C_I2C_MASTER.c **** uint32 I2C_I2CMasterGetWriteBufSize(void)
 840:Generated_Source\PSoC4/I2C_I2C_MASTER.c **** {
 579              		.loc 1 840 0
 580              		.cfi_startproc
 581              		@ args = 0, pretend = 0, frame = 0
 582              		@ frame_needed = 0, uses_anonymous_args = 0
 583              		@ link register save eliminated.
 841:Generated_Source\PSoC4/I2C_I2C_MASTER.c ****     return(I2C_mstrWrBufIndex);
 584              		.loc 1 841 0
 585 0000 014B     		ldr	r3, .L70
 842:Generated_Source\PSoC4/I2C_I2C_MASTER.c **** }
 586              		.loc 1 842 0
 587              		@ sp needed
 841:Generated_Source\PSoC4/I2C_I2C_MASTER.c ****     return(I2C_mstrWrBufIndex);
 588              		.loc 1 841 0
 589 0002 1868     		ldr	r0, [r3]
 590              		.loc 1 842 0
 591 0004 7047     		bx	lr
 592              	.L71:
 593 0006 C046     		.align	2
 594              	.L70:
 595 0008 00000000 		.word	I2C_mstrWrBufIndex
 596              		.cfi_endproc
 597              	.LFE9:
 598              		.size	I2C_I2CMasterGetWriteBufSize, .-I2C_I2CMasterGetWriteBufSize
 599              		.section	.text.I2C_I2CMasterClearReadBuf,"ax",%progbits
 600              		.align	1
 601              		.global	I2C_I2CMasterClearReadBuf
 602              		.code	16
 603              		.thumb_func
 604              		.type	I2C_I2CMasterClearReadBuf, %function
 605              	I2C_I2CMasterClearReadBuf:
 606              	.LFB10:
 843:Generated_Source\PSoC4/I2C_I2C_MASTER.c **** 
 844:Generated_Source\PSoC4/I2C_I2C_MASTER.c **** 
ARM GAS  C:\Users\Greg\AppData\Local\Temp\cc742Y6h.s 			page 27


 845:Generated_Source\PSoC4/I2C_I2C_MASTER.c **** /*******************************************************************************
 846:Generated_Source\PSoC4/I2C_I2C_MASTER.c **** * Function Name: I2C_I2CMasterClearReadBuf
 847:Generated_Source\PSoC4/I2C_I2C_MASTER.c **** ****************************************************************************//**
 848:Generated_Source\PSoC4/I2C_I2C_MASTER.c **** *
 849:Generated_Source\PSoC4/I2C_I2C_MASTER.c **** *  Resets the read buffer pointer back to the first byte in the buffer.
 850:Generated_Source\PSoC4/I2C_I2C_MASTER.c **** *
 851:Generated_Source\PSoC4/I2C_I2C_MASTER.c **** * \globalvars
 852:Generated_Source\PSoC4/I2C_I2C_MASTER.c **** *  I2C_mstrRdBufIndex - used to current index within master read
 853:Generated_Source\PSoC4/I2C_I2C_MASTER.c **** *   buffer.
 854:Generated_Source\PSoC4/I2C_I2C_MASTER.c **** *  I2C_mstrStatus - used to store current status of I2C Master.
 855:Generated_Source\PSoC4/I2C_I2C_MASTER.c **** *
 856:Generated_Source\PSoC4/I2C_I2C_MASTER.c **** *******************************************************************************/
 857:Generated_Source\PSoC4/I2C_I2C_MASTER.c **** void I2C_I2CMasterClearReadBuf(void)
 858:Generated_Source\PSoC4/I2C_I2C_MASTER.c **** {
 607              		.loc 1 858 0
 608              		.cfi_startproc
 609              		@ args = 0, pretend = 0, frame = 0
 610              		@ frame_needed = 0, uses_anonymous_args = 0
 611 0000 10B5     		push	{r4, lr}
 612              		.cfi_def_cfa_offset 8
 613              		.cfi_offset 4, -8
 614              		.cfi_offset 14, -4
 859:Generated_Source\PSoC4/I2C_I2C_MASTER.c ****     I2C_DisableInt();  /* Lock from interruption */
 615              		.loc 1 859 0
 616 0002 0820     		movs	r0, #8
 617 0004 FFF7FEFF 		bl	CyIntDisable
 618              	.LVL33:
 860:Generated_Source\PSoC4/I2C_I2C_MASTER.c **** 
 861:Generated_Source\PSoC4/I2C_I2C_MASTER.c ****     I2C_mstrRdBufIndex = 0u;
 619              		.loc 1 861 0
 620 0008 0022     		movs	r2, #0
 862:Generated_Source\PSoC4/I2C_I2C_MASTER.c ****     I2C_mstrStatus    &= (uint16) ~I2C_I2C_MSTAT_RD_CMPLT;
 621              		.loc 1 862 0
 622 000a 0121     		movs	r1, #1
 861:Generated_Source\PSoC4/I2C_I2C_MASTER.c ****     I2C_mstrStatus    &= (uint16) ~I2C_I2C_MSTAT_RD_CMPLT;
 623              		.loc 1 861 0
 624 000c 044B     		ldr	r3, .L73
 863:Generated_Source\PSoC4/I2C_I2C_MASTER.c **** 
 864:Generated_Source\PSoC4/I2C_I2C_MASTER.c ****     I2C_EnableInt();   /* Release lock */
 625              		.loc 1 864 0
 626 000e 0820     		movs	r0, #8
 861:Generated_Source\PSoC4/I2C_I2C_MASTER.c ****     I2C_mstrStatus    &= (uint16) ~I2C_I2C_MSTAT_RD_CMPLT;
 627              		.loc 1 861 0
 628 0010 1A60     		str	r2, [r3]
 862:Generated_Source\PSoC4/I2C_I2C_MASTER.c **** 
 629              		.loc 1 862 0
 630 0012 044A     		ldr	r2, .L73+4
 865:Generated_Source\PSoC4/I2C_I2C_MASTER.c **** }
 631              		.loc 1 865 0
 632              		@ sp needed
 862:Generated_Source\PSoC4/I2C_I2C_MASTER.c **** 
 633              		.loc 1 862 0
 634 0014 1388     		ldrh	r3, [r2]
 635 0016 8B43     		bics	r3, r1
 636 0018 1380     		strh	r3, [r2]
 864:Generated_Source\PSoC4/I2C_I2C_MASTER.c **** }
 637              		.loc 1 864 0
ARM GAS  C:\Users\Greg\AppData\Local\Temp\cc742Y6h.s 			page 28


 638 001a FFF7FEFF 		bl	CyIntEnable
 639              	.LVL34:
 640              		.loc 1 865 0
 641 001e 10BD     		pop	{r4, pc}
 642              	.L74:
 643              		.align	2
 644              	.L73:
 645 0020 00000000 		.word	I2C_mstrRdBufIndex
 646 0024 00000000 		.word	I2C_mstrStatus
 647              		.cfi_endproc
 648              	.LFE10:
 649              		.size	I2C_I2CMasterClearReadBuf, .-I2C_I2CMasterClearReadBuf
 650              		.section	.text.I2C_I2CMasterClearWriteBuf,"ax",%progbits
 651              		.align	1
 652              		.global	I2C_I2CMasterClearWriteBuf
 653              		.code	16
 654              		.thumb_func
 655              		.type	I2C_I2CMasterClearWriteBuf, %function
 656              	I2C_I2CMasterClearWriteBuf:
 657              	.LFB11:
 866:Generated_Source\PSoC4/I2C_I2C_MASTER.c **** 
 867:Generated_Source\PSoC4/I2C_I2C_MASTER.c **** 
 868:Generated_Source\PSoC4/I2C_I2C_MASTER.c **** /*******************************************************************************
 869:Generated_Source\PSoC4/I2C_I2C_MASTER.c **** * Function Name: I2C_I2CMasterClearWriteBuf
 870:Generated_Source\PSoC4/I2C_I2C_MASTER.c **** ****************************************************************************//**
 871:Generated_Source\PSoC4/I2C_I2C_MASTER.c **** *
 872:Generated_Source\PSoC4/I2C_I2C_MASTER.c **** *  Resets the write buffer pointer back to the first byte in the buffer.
 873:Generated_Source\PSoC4/I2C_I2C_MASTER.c **** *
 874:Generated_Source\PSoC4/I2C_I2C_MASTER.c **** * \globalvars
 875:Generated_Source\PSoC4/I2C_I2C_MASTER.c **** *  I2C_mstrRdBufIndex - used to current index within master read
 876:Generated_Source\PSoC4/I2C_I2C_MASTER.c **** *   buffer.
 877:Generated_Source\PSoC4/I2C_I2C_MASTER.c **** *  I2C_mstrStatus - used to store current status of I2C Master.
 878:Generated_Source\PSoC4/I2C_I2C_MASTER.c **** *
 879:Generated_Source\PSoC4/I2C_I2C_MASTER.c **** *******************************************************************************/
 880:Generated_Source\PSoC4/I2C_I2C_MASTER.c **** void I2C_I2CMasterClearWriteBuf(void)
 881:Generated_Source\PSoC4/I2C_I2C_MASTER.c **** {
 658              		.loc 1 881 0
 659              		.cfi_startproc
 660              		@ args = 0, pretend = 0, frame = 0
 661              		@ frame_needed = 0, uses_anonymous_args = 0
 662 0000 10B5     		push	{r4, lr}
 663              		.cfi_def_cfa_offset 8
 664              		.cfi_offset 4, -8
 665              		.cfi_offset 14, -4
 882:Generated_Source\PSoC4/I2C_I2C_MASTER.c ****     I2C_DisableInt();  /* Lock from interruption */
 666              		.loc 1 882 0
 667 0002 0820     		movs	r0, #8
 668 0004 FFF7FEFF 		bl	CyIntDisable
 669              	.LVL35:
 883:Generated_Source\PSoC4/I2C_I2C_MASTER.c **** 
 884:Generated_Source\PSoC4/I2C_I2C_MASTER.c ****     I2C_mstrWrBufIndex = 0u;
 670              		.loc 1 884 0
 671 0008 0022     		movs	r2, #0
 885:Generated_Source\PSoC4/I2C_I2C_MASTER.c ****     I2C_mstrStatus    &= (uint16) ~I2C_I2C_MSTAT_WR_CMPLT;
 672              		.loc 1 885 0
 673 000a 0221     		movs	r1, #2
 884:Generated_Source\PSoC4/I2C_I2C_MASTER.c ****     I2C_mstrStatus    &= (uint16) ~I2C_I2C_MSTAT_WR_CMPLT;
ARM GAS  C:\Users\Greg\AppData\Local\Temp\cc742Y6h.s 			page 29


 674              		.loc 1 884 0
 675 000c 044B     		ldr	r3, .L76
 886:Generated_Source\PSoC4/I2C_I2C_MASTER.c **** 
 887:Generated_Source\PSoC4/I2C_I2C_MASTER.c ****     I2C_EnableInt();   /* Release lock */
 676              		.loc 1 887 0
 677 000e 0820     		movs	r0, #8
 884:Generated_Source\PSoC4/I2C_I2C_MASTER.c ****     I2C_mstrStatus    &= (uint16) ~I2C_I2C_MSTAT_WR_CMPLT;
 678              		.loc 1 884 0
 679 0010 1A60     		str	r2, [r3]
 885:Generated_Source\PSoC4/I2C_I2C_MASTER.c **** 
 680              		.loc 1 885 0
 681 0012 044A     		ldr	r2, .L76+4
 888:Generated_Source\PSoC4/I2C_I2C_MASTER.c **** }
 682              		.loc 1 888 0
 683              		@ sp needed
 885:Generated_Source\PSoC4/I2C_I2C_MASTER.c **** 
 684              		.loc 1 885 0
 685 0014 1388     		ldrh	r3, [r2]
 686 0016 8B43     		bics	r3, r1
 687 0018 1380     		strh	r3, [r2]
 887:Generated_Source\PSoC4/I2C_I2C_MASTER.c **** }
 688              		.loc 1 887 0
 689 001a FFF7FEFF 		bl	CyIntEnable
 690              	.LVL36:
 691              		.loc 1 888 0
 692 001e 10BD     		pop	{r4, pc}
 693              	.L77:
 694              		.align	2
 695              	.L76:
 696 0020 00000000 		.word	I2C_mstrWrBufIndex
 697 0024 00000000 		.word	I2C_mstrStatus
 698              		.cfi_endproc
 699              	.LFE11:
 700              		.size	I2C_I2CMasterClearWriteBuf, .-I2C_I2CMasterClearWriteBuf
 701              		.section	.text.I2C_I2CMasterStatus,"ax",%progbits
 702              		.align	1
 703              		.global	I2C_I2CMasterStatus
 704              		.code	16
 705              		.thumb_func
 706              		.type	I2C_I2CMasterStatus, %function
 707              	I2C_I2CMasterStatus:
 708              	.LFB12:
 889:Generated_Source\PSoC4/I2C_I2C_MASTER.c **** 
 890:Generated_Source\PSoC4/I2C_I2C_MASTER.c **** 
 891:Generated_Source\PSoC4/I2C_I2C_MASTER.c **** /*******************************************************************************
 892:Generated_Source\PSoC4/I2C_I2C_MASTER.c **** * Function Name: I2C_I2CMasterStatus
 893:Generated_Source\PSoC4/I2C_I2C_MASTER.c **** ****************************************************************************//**
 894:Generated_Source\PSoC4/I2C_I2C_MASTER.c **** *
 895:Generated_Source\PSoC4/I2C_I2C_MASTER.c **** *  Returns the master's communication status.
 896:Generated_Source\PSoC4/I2C_I2C_MASTER.c **** *
 897:Generated_Source\PSoC4/I2C_I2C_MASTER.c **** * \return
 898:Generated_Source\PSoC4/I2C_I2C_MASTER.c **** *  Current status of I2C master. This status incorporates status constants. 
 899:Generated_Source\PSoC4/I2C_I2C_MASTER.c **** *  Each constant is a bit field value. The value returned may have multiple 
 900:Generated_Source\PSoC4/I2C_I2C_MASTER.c **** *  bits set to indicate the status of the read or write transfer.
 901:Generated_Source\PSoC4/I2C_I2C_MASTER.c **** *  - I2C_I2C_MSTAT_RD_CMPLT - Read transfer complete.
 902:Generated_Source\PSoC4/I2C_I2C_MASTER.c **** *    The error condition status bits must be checked to ensure that 
 903:Generated_Source\PSoC4/I2C_I2C_MASTER.c **** *    read transfer was completed successfully.
ARM GAS  C:\Users\Greg\AppData\Local\Temp\cc742Y6h.s 			page 30


 904:Generated_Source\PSoC4/I2C_I2C_MASTER.c **** *  - I2C_I2C_MSTAT_WR_CMPLT - Write transfer complete.
 905:Generated_Source\PSoC4/I2C_I2C_MASTER.c **** *    The error condition status bits must be checked to ensure that write 
 906:Generated_Source\PSoC4/I2C_I2C_MASTER.c **** *    transfer was completed successfully.
 907:Generated_Source\PSoC4/I2C_I2C_MASTER.c **** *  - I2C_I2C_MSTAT_XFER_INP - Transfer in progress.
 908:Generated_Source\PSoC4/I2C_I2C_MASTER.c **** *  - I2C_I2C_MSTAT_XFER_HALT - Transfer has been halted. 
 909:Generated_Source\PSoC4/I2C_I2C_MASTER.c **** *    The I2C bus is waiting for ReStart or Stop condition generation.
 910:Generated_Source\PSoC4/I2C_I2C_MASTER.c **** *  - I2C_I2C_MSTAT_ERR_SHORT_XFER - Error condition: Write 
 911:Generated_Source\PSoC4/I2C_I2C_MASTER.c **** *    transfer completed before all bytes were transferred. The slave NAKed 
 912:Generated_Source\PSoC4/I2C_I2C_MASTER.c **** *    the byte which was expected to be ACKed.
 913:Generated_Source\PSoC4/I2C_I2C_MASTER.c **** *  - I2C_I2C_MSTAT_ERR_ADDR_NAK - Error condition: Slave did 
 914:Generated_Source\PSoC4/I2C_I2C_MASTER.c **** *    not acknowledge address.
 915:Generated_Source\PSoC4/I2C_I2C_MASTER.c **** *  - I2C_I2C_MSTAT_ERR_ARB_LOST - Error condition: Master lost 
 916:Generated_Source\PSoC4/I2C_I2C_MASTER.c **** *    arbitration during communications with slave.
 917:Generated_Source\PSoC4/I2C_I2C_MASTER.c **** *  - I2C_I2C_MSTAT_ERR_BUS_ERROR - Error condition: bus error 
 918:Generated_Source\PSoC4/I2C_I2C_MASTER.c **** *    occurred during master transfer due to misplaced Start or Stop 
 919:Generated_Source\PSoC4/I2C_I2C_MASTER.c **** *    condition on the bus.
 920:Generated_Source\PSoC4/I2C_I2C_MASTER.c **** *  - I2C_I2C_MSTAT_ERR_ABORT_XFER - Error condition: Slave was 
 921:Generated_Source\PSoC4/I2C_I2C_MASTER.c **** *    addressed by another master while master performed the start condition 
 922:Generated_Source\PSoC4/I2C_I2C_MASTER.c **** *    generation. As a result, master has automatically switched to slave 
 923:Generated_Source\PSoC4/I2C_I2C_MASTER.c **** *    mode and is responding. The master transaction has not taken place
 924:Generated_Source\PSoC4/I2C_I2C_MASTER.c **** *    This error condition only applicable for Multi-Master-Slave mode.
 925:Generated_Source\PSoC4/I2C_I2C_MASTER.c **** *  - I2C_I2C_MSTAT_ERR_XFER - Error condition: This is the 
 926:Generated_Source\PSoC4/I2C_I2C_MASTER.c **** *    ORed value of all error conditions provided above.
 927:Generated_Source\PSoC4/I2C_I2C_MASTER.c **** *
 928:Generated_Source\PSoC4/I2C_I2C_MASTER.c **** * \globalvars
 929:Generated_Source\PSoC4/I2C_I2C_MASTER.c **** *  I2C_mstrStatus - used to store current status of I2C Master.
 930:Generated_Source\PSoC4/I2C_I2C_MASTER.c **** *
 931:Generated_Source\PSoC4/I2C_I2C_MASTER.c **** *******************************************************************************/
 932:Generated_Source\PSoC4/I2C_I2C_MASTER.c **** uint32 I2C_I2CMasterStatus(void)
 933:Generated_Source\PSoC4/I2C_I2C_MASTER.c **** {
 709              		.loc 1 933 0
 710              		.cfi_startproc
 711              		@ args = 0, pretend = 0, frame = 0
 712              		@ frame_needed = 0, uses_anonymous_args = 0
 713 0000 10B5     		push	{r4, lr}
 714              		.cfi_def_cfa_offset 8
 715              		.cfi_offset 4, -8
 716              		.cfi_offset 14, -4
 934:Generated_Source\PSoC4/I2C_I2C_MASTER.c ****     uint32 status;
 935:Generated_Source\PSoC4/I2C_I2C_MASTER.c **** 
 936:Generated_Source\PSoC4/I2C_I2C_MASTER.c ****     I2C_DisableInt();  /* Lock from interruption */
 717              		.loc 1 936 0
 718 0002 0820     		movs	r0, #8
 719 0004 FFF7FEFF 		bl	CyIntDisable
 720              	.LVL37:
 937:Generated_Source\PSoC4/I2C_I2C_MASTER.c **** 
 938:Generated_Source\PSoC4/I2C_I2C_MASTER.c ****     status = (uint32) I2C_mstrStatus;
 721              		.loc 1 938 0
 722 0008 064B     		ldr	r3, .L81
 723 000a 1C88     		ldrh	r4, [r3]
 939:Generated_Source\PSoC4/I2C_I2C_MASTER.c **** 
 940:Generated_Source\PSoC4/I2C_I2C_MASTER.c ****     if (I2C_CHECK_I2C_MASTER_ACTIVE)
 724              		.loc 1 940 0
 725 000c 064B     		ldr	r3, .L81+4
 938:Generated_Source\PSoC4/I2C_I2C_MASTER.c **** 
 726              		.loc 1 938 0
 727 000e A4B2     		uxth	r4, r4
ARM GAS  C:\Users\Greg\AppData\Local\Temp\cc742Y6h.s 			page 31


 728              	.LVL38:
 729              		.loc 1 940 0
 730 0010 1B78     		ldrb	r3, [r3]
 731 0012 9B06     		lsls	r3, r3, #26
 732 0014 01D5     		bpl	.L80
 941:Generated_Source\PSoC4/I2C_I2C_MASTER.c ****     {
 942:Generated_Source\PSoC4/I2C_I2C_MASTER.c ****         /* Add status of master pending transaction: MSTAT_XFER_INP */
 943:Generated_Source\PSoC4/I2C_I2C_MASTER.c ****         status |= (uint32) I2C_I2C_MSTAT_XFER_INP;
 733              		.loc 1 943 0
 734 0016 0423     		movs	r3, #4
 735 0018 1C43     		orrs	r4, r3
 736              	.LVL39:
 737              	.L80:
 944:Generated_Source\PSoC4/I2C_I2C_MASTER.c ****     }
 945:Generated_Source\PSoC4/I2C_I2C_MASTER.c **** 
 946:Generated_Source\PSoC4/I2C_I2C_MASTER.c ****     I2C_EnableInt();   /* Release lock */
 738              		.loc 1 946 0
 739 001a 0820     		movs	r0, #8
 740 001c FFF7FEFF 		bl	CyIntEnable
 741              	.LVL40:
 947:Generated_Source\PSoC4/I2C_I2C_MASTER.c **** 
 948:Generated_Source\PSoC4/I2C_I2C_MASTER.c ****     return(status);
 949:Generated_Source\PSoC4/I2C_I2C_MASTER.c **** }
 742              		.loc 1 949 0
 743              		@ sp needed
 744 0020 2000     		movs	r0, r4
 745              	.LVL41:
 746 0022 10BD     		pop	{r4, pc}
 747              	.L82:
 748              		.align	2
 749              	.L81:
 750 0024 00000000 		.word	I2C_mstrStatus
 751 0028 00000000 		.word	I2C_state
 752              		.cfi_endproc
 753              	.LFE12:
 754              		.size	I2C_I2CMasterStatus, .-I2C_I2CMasterStatus
 755              		.section	.text.I2C_I2CMasterClearStatus,"ax",%progbits
 756              		.align	1
 757              		.global	I2C_I2CMasterClearStatus
 758              		.code	16
 759              		.thumb_func
 760              		.type	I2C_I2CMasterClearStatus, %function
 761              	I2C_I2CMasterClearStatus:
 762              	.LFB13:
 950:Generated_Source\PSoC4/I2C_I2C_MASTER.c **** 
 951:Generated_Source\PSoC4/I2C_I2C_MASTER.c **** 
 952:Generated_Source\PSoC4/I2C_I2C_MASTER.c **** /*******************************************************************************
 953:Generated_Source\PSoC4/I2C_I2C_MASTER.c **** * Function Name: I2C_I2CMasterClearStatus
 954:Generated_Source\PSoC4/I2C_I2C_MASTER.c **** ****************************************************************************//**
 955:Generated_Source\PSoC4/I2C_I2C_MASTER.c **** *
 956:Generated_Source\PSoC4/I2C_I2C_MASTER.c **** *  Clears all status flags and returns the master status.
 957:Generated_Source\PSoC4/I2C_I2C_MASTER.c **** *
 958:Generated_Source\PSoC4/I2C_I2C_MASTER.c **** * \return
 959:Generated_Source\PSoC4/I2C_I2C_MASTER.c **** *  Current status of master. See the I2C_I2CMasterStatus() 
 960:Generated_Source\PSoC4/I2C_I2C_MASTER.c **** *  function for constants.
 961:Generated_Source\PSoC4/I2C_I2C_MASTER.c **** *
 962:Generated_Source\PSoC4/I2C_I2C_MASTER.c **** * \globalvars
ARM GAS  C:\Users\Greg\AppData\Local\Temp\cc742Y6h.s 			page 32


 963:Generated_Source\PSoC4/I2C_I2C_MASTER.c **** *  I2C_mstrStatus - used to store current status of I2C Master.
 964:Generated_Source\PSoC4/I2C_I2C_MASTER.c **** *
 965:Generated_Source\PSoC4/I2C_I2C_MASTER.c **** *******************************************************************************/
 966:Generated_Source\PSoC4/I2C_I2C_MASTER.c **** uint32 I2C_I2CMasterClearStatus(void)
 967:Generated_Source\PSoC4/I2C_I2C_MASTER.c **** {
 763              		.loc 1 967 0
 764              		.cfi_startproc
 765              		@ args = 0, pretend = 0, frame = 0
 766              		@ frame_needed = 0, uses_anonymous_args = 0
 767 0000 10B5     		push	{r4, lr}
 768              		.cfi_def_cfa_offset 8
 769              		.cfi_offset 4, -8
 770              		.cfi_offset 14, -4
 968:Generated_Source\PSoC4/I2C_I2C_MASTER.c ****     uint32 status;
 969:Generated_Source\PSoC4/I2C_I2C_MASTER.c **** 
 970:Generated_Source\PSoC4/I2C_I2C_MASTER.c ****     I2C_DisableInt();  /* Lock from interruption */
 771              		.loc 1 970 0
 772 0002 0820     		movs	r0, #8
 773 0004 FFF7FEFF 		bl	CyIntDisable
 774              	.LVL42:
 971:Generated_Source\PSoC4/I2C_I2C_MASTER.c **** 
 972:Generated_Source\PSoC4/I2C_I2C_MASTER.c ****     /* Read and clear master status */
 973:Generated_Source\PSoC4/I2C_I2C_MASTER.c ****     status = (uint32) I2C_mstrStatus;
 974:Generated_Source\PSoC4/I2C_I2C_MASTER.c ****     I2C_mstrStatus = I2C_I2C_MSTAT_CLEAR;
 775              		.loc 1 974 0
 776 0008 0022     		movs	r2, #0
 973:Generated_Source\PSoC4/I2C_I2C_MASTER.c ****     I2C_mstrStatus = I2C_I2C_MSTAT_CLEAR;
 777              		.loc 1 973 0
 778 000a 044B     		ldr	r3, .L84
 975:Generated_Source\PSoC4/I2C_I2C_MASTER.c **** 
 976:Generated_Source\PSoC4/I2C_I2C_MASTER.c ****     I2C_EnableInt();   /* Release lock */
 779              		.loc 1 976 0
 780 000c 0820     		movs	r0, #8
 973:Generated_Source\PSoC4/I2C_I2C_MASTER.c ****     I2C_mstrStatus = I2C_I2C_MSTAT_CLEAR;
 781              		.loc 1 973 0
 782 000e 1C88     		ldrh	r4, [r3]
 977:Generated_Source\PSoC4/I2C_I2C_MASTER.c **** 
 978:Generated_Source\PSoC4/I2C_I2C_MASTER.c ****     return(status);
 979:Generated_Source\PSoC4/I2C_I2C_MASTER.c **** }
 783              		.loc 1 979 0
 784              		@ sp needed
 973:Generated_Source\PSoC4/I2C_I2C_MASTER.c ****     I2C_mstrStatus = I2C_I2C_MSTAT_CLEAR;
 785              		.loc 1 973 0
 786 0010 A4B2     		uxth	r4, r4
 787              	.LVL43:
 974:Generated_Source\PSoC4/I2C_I2C_MASTER.c **** 
 788              		.loc 1 974 0
 789 0012 1A80     		strh	r2, [r3]
 976:Generated_Source\PSoC4/I2C_I2C_MASTER.c **** 
 790              		.loc 1 976 0
 791 0014 FFF7FEFF 		bl	CyIntEnable
 792              	.LVL44:
 793              		.loc 1 979 0
 794 0018 2000     		movs	r0, r4
 795              	.LVL45:
 796 001a 10BD     		pop	{r4, pc}
 797              	.L85:
ARM GAS  C:\Users\Greg\AppData\Local\Temp\cc742Y6h.s 			page 33


 798              		.align	2
 799              	.L84:
 800 001c 00000000 		.word	I2C_mstrStatus
 801              		.cfi_endproc
 802              	.LFE13:
 803              		.size	I2C_I2CMasterClearStatus, .-I2C_I2CMasterClearStatus
 804              		.section	.text.I2C_I2CReStartGeneration,"ax",%progbits
 805              		.align	1
 806              		.global	I2C_I2CReStartGeneration
 807              		.code	16
 808              		.thumb_func
 809              		.type	I2C_I2CReStartGeneration, %function
 810              	I2C_I2CReStartGeneration:
 811              	.LFB14:
 980:Generated_Source\PSoC4/I2C_I2C_MASTER.c **** 
 981:Generated_Source\PSoC4/I2C_I2C_MASTER.c **** 
 982:Generated_Source\PSoC4/I2C_I2C_MASTER.c **** /*******************************************************************************
 983:Generated_Source\PSoC4/I2C_I2C_MASTER.c **** * Function Name: I2C_I2CReStartGeneration
 984:Generated_Source\PSoC4/I2C_I2C_MASTER.c **** ****************************************************************************//**
 985:Generated_Source\PSoC4/I2C_I2C_MASTER.c **** *
 986:Generated_Source\PSoC4/I2C_I2C_MASTER.c **** *  Generates a ReStart condition:
 987:Generated_Source\PSoC4/I2C_I2C_MASTER.c **** *  - SCB IP V1 and later: Generates ReStart using the scb IP functionality
 988:Generated_Source\PSoC4/I2C_I2C_MASTER.c **** *    Sets the I2C_MASTER_CMD_M_START and I2C_MASTER_CMD_M_NACK (if the previous
 989:Generated_Source\PSoC4/I2C_I2C_MASTER.c **** *    transaction was read) bits in the SCB.I2C_MASTER_CMD register.
 990:Generated_Source\PSoC4/I2C_I2C_MASTER.c **** *    This combination forces the master to generate ReStart.
 991:Generated_Source\PSoC4/I2C_I2C_MASTER.c **** *
 992:Generated_Source\PSoC4/I2C_I2C_MASTER.c **** *  - SCB IP V0: Generates Restart using the GPIO and scb IP functionality.
 993:Generated_Source\PSoC4/I2C_I2C_MASTER.c **** *    After the master completes write or read, the SCL is stretched.
 994:Generated_Source\PSoC4/I2C_I2C_MASTER.c **** *    The master waits until SDA line is released by the slave. Then the GPIO
 995:Generated_Source\PSoC4/I2C_I2C_MASTER.c **** *    function is enabled and the scb IP disabled as it already does not drive
 996:Generated_Source\PSoC4/I2C_I2C_MASTER.c **** *    the bus. In case of the previous transfer was read, the NACK is generated
 997:Generated_Source\PSoC4/I2C_I2C_MASTER.c **** *    by the GPIO. The delay of tLOW is added to manage the hold time.
 998:Generated_Source\PSoC4/I2C_I2C_MASTER.c **** *    Set I2C_M_CMD.START and enable the scb IP. The ReStart generation
 999:Generated_Source\PSoC4/I2C_I2C_MASTER.c **** *    is started after the I2C function is enabled for the SCL.
1000:Generated_Source\PSoC4/I2C_I2C_MASTER.c **** *    Note1: the scb IP due re-enable generates Start but on the I2C bus it
1001:Generated_Source\PSoC4/I2C_I2C_MASTER.c **** *           appears as ReStart.
1002:Generated_Source\PSoC4/I2C_I2C_MASTER.c **** *    Note2: the I2C_M_CMD.START is queued if scb IP is disabled.
1003:Generated_Source\PSoC4/I2C_I2C_MASTER.c **** *    Note3: the I2C_STATUS_M_READ is cleared is address was NACKed before.
1004:Generated_Source\PSoC4/I2C_I2C_MASTER.c **** *
1005:Generated_Source\PSoC4/I2C_I2C_MASTER.c **** * \sideeffect
1006:Generated_Source\PSoC4/I2C_I2C_MASTER.c **** *  SCB IP V0: The NACK generation by the GPIO may cause a greater SCL period
1007:Generated_Source\PSoC4/I2C_I2C_MASTER.c **** *             than expected for the selected master data rate.
1008:Generated_Source\PSoC4/I2C_I2C_MASTER.c **** *
1009:Generated_Source\PSoC4/I2C_I2C_MASTER.c **** *******************************************************************************/
1010:Generated_Source\PSoC4/I2C_I2C_MASTER.c **** void I2C_I2CReStartGeneration(void)
1011:Generated_Source\PSoC4/I2C_I2C_MASTER.c **** {
 812              		.loc 1 1011 0
 813              		.cfi_startproc
 814              		@ args = 0, pretend = 0, frame = 0
 815              		@ frame_needed = 0, uses_anonymous_args = 0
 816              		@ link register save eliminated.
 817              	.LVL46:
1012:Generated_Source\PSoC4/I2C_I2C_MASTER.c **** #if(I2C_CY_SCBIP_V0)
1013:Generated_Source\PSoC4/I2C_I2C_MASTER.c ****     /* Generates Restart use GPIO and scb IP functionality. Ticket ID#143715,
1014:Generated_Source\PSoC4/I2C_I2C_MASTER.c ****     * ID#145238 and ID#173656.
1015:Generated_Source\PSoC4/I2C_I2C_MASTER.c ****     */
1016:Generated_Source\PSoC4/I2C_I2C_MASTER.c ****     uint32 status = I2C_I2C_STATUS_REG;
ARM GAS  C:\Users\Greg\AppData\Local\Temp\cc742Y6h.s 			page 34


1017:Generated_Source\PSoC4/I2C_I2C_MASTER.c **** 
1018:Generated_Source\PSoC4/I2C_I2C_MASTER.c ****     while(I2C_WAIT_SDA_SET_HIGH)
1019:Generated_Source\PSoC4/I2C_I2C_MASTER.c ****     {
1020:Generated_Source\PSoC4/I2C_I2C_MASTER.c ****         /* Wait when slave release SDA line: SCL tHIGH is complete */
1021:Generated_Source\PSoC4/I2C_I2C_MASTER.c ****     }
1022:Generated_Source\PSoC4/I2C_I2C_MASTER.c **** 
1023:Generated_Source\PSoC4/I2C_I2C_MASTER.c ****     /* Prepare DR register to drive SCL line */
1024:Generated_Source\PSoC4/I2C_I2C_MASTER.c ****     I2C_SET_I2C_SCL_DR(I2C_I2C_SCL_LOW);
1025:Generated_Source\PSoC4/I2C_I2C_MASTER.c **** 
1026:Generated_Source\PSoC4/I2C_I2C_MASTER.c ****     /* Switch HSIOM to GPIO: SCL goes low */
1027:Generated_Source\PSoC4/I2C_I2C_MASTER.c ****     I2C_SET_I2C_SCL_HSIOM_SEL(I2C_HSIOM_GPIO_SEL);
1028:Generated_Source\PSoC4/I2C_I2C_MASTER.c **** 
1029:Generated_Source\PSoC4/I2C_I2C_MASTER.c ****     /* Disable SCB block */
1030:Generated_Source\PSoC4/I2C_I2C_MASTER.c ****     I2C_CTRL_REG &= (uint32) ~I2C_CTRL_ENABLED;
1031:Generated_Source\PSoC4/I2C_I2C_MASTER.c **** 
1032:Generated_Source\PSoC4/I2C_I2C_MASTER.c ****     if(0u != (status & I2C_I2C_STATUS_M_READ))
1033:Generated_Source\PSoC4/I2C_I2C_MASTER.c ****     {
1034:Generated_Source\PSoC4/I2C_I2C_MASTER.c ****         /* Generate NACK use GPIO functionality */
1035:Generated_Source\PSoC4/I2C_I2C_MASTER.c ****         I2C_SET_I2C_SCL_DR(I2C_I2C_SCL_LOW);
1036:Generated_Source\PSoC4/I2C_I2C_MASTER.c ****         CyDelayUs(I2C_I2C_TLOW_TIME); /* Count tLOW */
1037:Generated_Source\PSoC4/I2C_I2C_MASTER.c **** 
1038:Generated_Source\PSoC4/I2C_I2C_MASTER.c ****         I2C_SET_I2C_SCL_DR(I2C_I2C_SCL_HIGH);
1039:Generated_Source\PSoC4/I2C_I2C_MASTER.c ****         while(I2C_WAIT_SCL_SET_HIGH)
1040:Generated_Source\PSoC4/I2C_I2C_MASTER.c ****         {
1041:Generated_Source\PSoC4/I2C_I2C_MASTER.c ****             /* Wait until slave releases SCL in case if it stretches */
1042:Generated_Source\PSoC4/I2C_I2C_MASTER.c ****         }
1043:Generated_Source\PSoC4/I2C_I2C_MASTER.c ****         CyDelayUs(I2C_I2C_THIGH_TIME); /* Count tHIGH */
1044:Generated_Source\PSoC4/I2C_I2C_MASTER.c ****     }
1045:Generated_Source\PSoC4/I2C_I2C_MASTER.c **** 
1046:Generated_Source\PSoC4/I2C_I2C_MASTER.c ****     /* Count tLOW as hold time for write and read */
1047:Generated_Source\PSoC4/I2C_I2C_MASTER.c ****     I2C_SET_I2C_SCL_DR(I2C_I2C_SCL_LOW);
1048:Generated_Source\PSoC4/I2C_I2C_MASTER.c ****     CyDelayUs(I2C_I2C_TLOW_TIME); /* Count tLOW */
1049:Generated_Source\PSoC4/I2C_I2C_MASTER.c **** 
1050:Generated_Source\PSoC4/I2C_I2C_MASTER.c ****     /* Set command for Start generation: it will appear */
1051:Generated_Source\PSoC4/I2C_I2C_MASTER.c ****     I2C_I2C_MASTER_CMD_REG = I2C_I2C_MASTER_CMD_M_START;
1052:Generated_Source\PSoC4/I2C_I2C_MASTER.c **** 
1053:Generated_Source\PSoC4/I2C_I2C_MASTER.c ****     /* Enable SCB block */
1054:Generated_Source\PSoC4/I2C_I2C_MASTER.c ****     I2C_CTRL_REG |= (uint32) I2C_CTRL_ENABLED;
1055:Generated_Source\PSoC4/I2C_I2C_MASTER.c **** 
1056:Generated_Source\PSoC4/I2C_I2C_MASTER.c ****     /* Switch HSIOM to I2C: */
1057:Generated_Source\PSoC4/I2C_I2C_MASTER.c ****     I2C_SET_I2C_SCL_HSIOM_SEL(I2C_HSIOM_I2C_SEL);
1058:Generated_Source\PSoC4/I2C_I2C_MASTER.c **** 
1059:Generated_Source\PSoC4/I2C_I2C_MASTER.c ****     /* Revert SCL DR register */
1060:Generated_Source\PSoC4/I2C_I2C_MASTER.c ****     I2C_SET_I2C_SCL_DR(I2C_I2C_SCL_HIGH);
1061:Generated_Source\PSoC4/I2C_I2C_MASTER.c **** #else
1062:Generated_Source\PSoC4/I2C_I2C_MASTER.c ****     uint32 cmd;
1063:Generated_Source\PSoC4/I2C_I2C_MASTER.c **** 
1064:Generated_Source\PSoC4/I2C_I2C_MASTER.c ****     /* Generates ReStart use scb IP functionality */
1065:Generated_Source\PSoC4/I2C_I2C_MASTER.c ****     cmd  = I2C_I2C_MASTER_CMD_M_START;
1066:Generated_Source\PSoC4/I2C_I2C_MASTER.c ****     cmd |= I2C_CHECK_I2C_STATUS(I2C_I2C_STATUS_M_READ) ?
 818              		.loc 1 1066 0
 819 0000 054B     		ldr	r3, .L89
 820 0002 1A68     		ldr	r2, [r3]
 821 0004 2023     		movs	r3, #32
 822 0006 1340     		ands	r3, r2
1067:Generated_Source\PSoC4/I2C_I2C_MASTER.c ****                 (I2C_I2C_MASTER_CMD_M_NACK) : (0u);
 823              		.loc 1 1067 0
ARM GAS  C:\Users\Greg\AppData\Local\Temp\cc742Y6h.s 			page 35


 824 0008 00D0     		beq	.L87
 825 000a 0823     		movs	r3, #8
 826              	.L87:
1066:Generated_Source\PSoC4/I2C_I2C_MASTER.c ****                 (I2C_I2C_MASTER_CMD_M_NACK) : (0u);
 827              		.loc 1 1066 0 discriminator 4
 828 000c 0122     		movs	r2, #1
 829 000e 1343     		orrs	r3, r2
 830              	.LVL47:
1068:Generated_Source\PSoC4/I2C_I2C_MASTER.c **** 
1069:Generated_Source\PSoC4/I2C_I2C_MASTER.c ****     I2C_I2C_MASTER_CMD_REG = cmd;
 831              		.loc 1 1069 0 discriminator 4
 832 0010 024A     		ldr	r2, .L89+4
1070:Generated_Source\PSoC4/I2C_I2C_MASTER.c **** #endif /* (I2C_CY_SCBIP_V1) */
1071:Generated_Source\PSoC4/I2C_I2C_MASTER.c **** }
 833              		.loc 1 1071 0 discriminator 4
 834              		@ sp needed
1069:Generated_Source\PSoC4/I2C_I2C_MASTER.c **** #endif /* (I2C_CY_SCBIP_V1) */
 835              		.loc 1 1069 0 discriminator 4
 836 0012 1360     		str	r3, [r2]
 837              		.loc 1 1071 0 discriminator 4
 838 0014 7047     		bx	lr
 839              	.L90:
 840 0016 C046     		.align	2
 841              	.L89:
 842 0018 64002440 		.word	1076101220
 843 001c 68002440 		.word	1076101224
 844              		.cfi_endproc
 845              	.LFE14:
 846              		.size	I2C_I2CReStartGeneration, .-I2C_I2CReStartGeneration
 847              		.section	.text.I2C_I2CMasterWriteBuf,"ax",%progbits
 848              		.align	1
 849              		.global	I2C_I2CMasterWriteBuf
 850              		.code	16
 851              		.thumb_func
 852              		.type	I2C_I2CMasterWriteBuf, %function
 853              	I2C_I2CMasterWriteBuf:
 854              	.LFB1:
  99:Generated_Source\PSoC4/I2C_I2C_MASTER.c ****     uint32 errStatus;
 855              		.loc 1 99 0
 856              		.cfi_startproc
 857              		@ args = 0, pretend = 0, frame = 8
 858              		@ frame_needed = 0, uses_anonymous_args = 0
 859              	.LVL48:
 860 0000 F7B5     		push	{r0, r1, r2, r4, r5, r6, r7, lr}
 861              		.cfi_def_cfa_offset 32
 862              		.cfi_offset 0, -32
 863              		.cfi_offset 1, -28
 864              		.cfi_offset 2, -24
 865              		.cfi_offset 4, -20
 866              		.cfi_offset 5, -16
 867              		.cfi_offset 6, -12
 868              		.cfi_offset 7, -8
 869              		.cfi_offset 14, -4
  99:Generated_Source\PSoC4/I2C_I2C_MASTER.c ****     uint32 errStatus;
 870              		.loc 1 99 0
 871 0002 0600     		movs	r6, r0
 872 0004 0F00     		movs	r7, r1
ARM GAS  C:\Users\Greg\AppData\Local\Temp\cc742Y6h.s 			page 36


 873 0006 0192     		str	r2, [sp, #4]
 874 0008 0093     		str	r3, [sp]
 102:Generated_Source\PSoC4/I2C_I2C_MASTER.c **** 
 875              		.loc 1 102 0
 876 000a 0424     		movs	r4, #4
 104:Generated_Source\PSoC4/I2C_I2C_MASTER.c ****     {
 877              		.loc 1 104 0
 878 000c 0029     		cmp	r1, #0
 879 000e 44D0     		beq	.L95
 107:Generated_Source\PSoC4/I2C_I2C_MASTER.c ****         {
 880              		.loc 1 107 0
 881 0010 244D     		ldr	r5, .L103
 882 0012 2B78     		ldrb	r3, [r5]
 883              	.LVL49:
 884 0014 102B     		cmp	r3, #16
 885 0016 08D1     		bne	.L93
 109:Generated_Source\PSoC4/I2C_I2C_MASTER.c **** 
 886              		.loc 1 109 0
 887 0018 0820     		movs	r0, #8
 888              	.LVL50:
 889 001a FFF7FEFF 		bl	CyIntDisable
 890              	.LVL51:
 112:Generated_Source\PSoC4/I2C_I2C_MASTER.c ****                             I2C_I2C_MSTR_BUS_BUSY : I2C_I2C_MSTR_NO_ERROR;
 891              		.loc 1 112 0
 892 001e 224B     		ldr	r3, .L103+4
 893 0020 2419     		adds	r4, r4, r4
 894 0022 1B68     		ldr	r3, [r3]
 895 0024 DB07     		lsls	r3, r3, #31
 896 0026 38D4     		bmi	.L95
 897 0028 08E0     		b	.L94
 898              	.LVL52:
 899              	.L93:
 115:Generated_Source\PSoC4/I2C_I2C_MASTER.c ****         {
 900              		.loc 1 115 0
 901 002a 2B78     		ldrb	r3, [r5]
 102:Generated_Source\PSoC4/I2C_I2C_MASTER.c **** 
 902              		.loc 1 102 0
 903 002c 0424     		movs	r4, #4
 115:Generated_Source\PSoC4/I2C_I2C_MASTER.c ****         {
 904              		.loc 1 115 0
 905 002e 602B     		cmp	r3, #96
 906 0030 33D1     		bne	.L95
 117:Generated_Source\PSoC4/I2C_I2C_MASTER.c ****                               errStatus  = I2C_I2C_MSTR_NO_ERROR;
 907              		.loc 1 117 0
 908 0032 0821     		movs	r1, #8
 909              	.LVL53:
 910 0034 1D4A     		ldr	r2, .L103+8
 911              	.LVL54:
 912 0036 1388     		ldrh	r3, [r2]
 913 0038 8B43     		bics	r3, r1
 914 003a 1380     		strh	r3, [r2]
 915              	.LVL55:
 916              	.L94:
 135:Generated_Source\PSoC4/I2C_I2C_MASTER.c ****         I2C_mstrWrBufIndexTmp = 0u;
 917              		.loc 1 135 0
 918 003c 2823     		movs	r3, #40
 919 003e 2B70     		strb	r3, [r5]
ARM GAS  C:\Users\Greg\AppData\Local\Temp\cc742Y6h.s 			page 37


 136:Generated_Source\PSoC4/I2C_I2C_MASTER.c ****         I2C_mstrWrBufIndex    = 0u;
 920              		.loc 1 136 0
 921 0040 0025     		movs	r5, #0
 922 0042 1B4B     		ldr	r3, .L103+12
 138:Generated_Source\PSoC4/I2C_I2C_MASTER.c ****         I2C_mstrWrBufPtr      = (volatile uint8 *) wrData;
 923              		.loc 1 138 0
 924 0044 019A     		ldr	r2, [sp, #4]
 136:Generated_Source\PSoC4/I2C_I2C_MASTER.c ****         I2C_mstrWrBufIndex    = 0u;
 925              		.loc 1 136 0
 926 0046 1D60     		str	r5, [r3]
 137:Generated_Source\PSoC4/I2C_I2C_MASTER.c ****         I2C_mstrWrBufSize     = cnt;
 927              		.loc 1 137 0
 928 0048 1A4B     		ldr	r3, .L103+16
 144:Generated_Source\PSoC4/I2C_I2C_MASTER.c **** 
 929              		.loc 1 144 0
 930 004a 1849     		ldr	r1, .L103+8
 137:Generated_Source\PSoC4/I2C_I2C_MASTER.c ****         I2C_mstrWrBufSize     = cnt;
 931              		.loc 1 137 0
 932 004c 1D60     		str	r5, [r3]
 138:Generated_Source\PSoC4/I2C_I2C_MASTER.c ****         I2C_mstrWrBufPtr      = (volatile uint8 *) wrData;
 933              		.loc 1 138 0
 934 004e 1A4B     		ldr	r3, .L103+20
 142:Generated_Source\PSoC4/I2C_I2C_MASTER.c **** 
 935              		.loc 1 142 0
 936 0050 7600     		lsls	r6, r6, #1
 937              	.LVL56:
 138:Generated_Source\PSoC4/I2C_I2C_MASTER.c ****         I2C_mstrWrBufPtr      = (volatile uint8 *) wrData;
 938              		.loc 1 138 0
 939 0052 1A60     		str	r2, [r3]
 139:Generated_Source\PSoC4/I2C_I2C_MASTER.c ****         I2C_mstrControl       = (uint8) mode;
 940              		.loc 1 139 0
 941 0054 194B     		ldr	r3, .L103+24
 155:Generated_Source\PSoC4/I2C_I2C_MASTER.c ****         {
 942              		.loc 1 155 0
 943 0056 0124     		movs	r4, #1
 139:Generated_Source\PSoC4/I2C_I2C_MASTER.c ****         I2C_mstrControl       = (uint8) mode;
 944              		.loc 1 139 0
 945 0058 1F60     		str	r7, [r3]
 140:Generated_Source\PSoC4/I2C_I2C_MASTER.c **** 
 946              		.loc 1 140 0
 947 005a 6B46     		mov	r3, sp
 948 005c 1A78     		ldrb	r2, [r3]
 949 005e 184B     		ldr	r3, .L103+28
 950 0060 184F     		ldr	r7, .L103+32
 951              	.LVL57:
 952 0062 1A70     		strb	r2, [r3]
 142:Generated_Source\PSoC4/I2C_I2C_MASTER.c **** 
 953              		.loc 1 142 0
 954 0064 FF23     		movs	r3, #255
 144:Generated_Source\PSoC4/I2C_I2C_MASTER.c **** 
 955              		.loc 1 144 0
 956 0066 0222     		movs	r2, #2
 142:Generated_Source\PSoC4/I2C_I2C_MASTER.c **** 
 957              		.loc 1 142 0
 958 0068 1E40     		ands	r6, r3
 959              	.LVL58:
 144:Generated_Source\PSoC4/I2C_I2C_MASTER.c **** 
ARM GAS  C:\Users\Greg\AppData\Local\Temp\cc742Y6h.s 			page 38


 960              		.loc 1 144 0
 961 006a 0B88     		ldrh	r3, [r1]
 962 006c 9343     		bics	r3, r2
 963 006e 0B80     		strh	r3, [r1]
 146:Generated_Source\PSoC4/I2C_I2C_MASTER.c ****         I2C_ClearTxInterruptSource(I2C_INTR_TX_UNDERFLOW);
 964              		.loc 1 146 0
 965 0070 1549     		ldr	r1, .L103+36
 966 0072 164B     		ldr	r3, .L103+40
 967 0074 1960     		str	r1, [r3]
 968              	.LVL59:
 147:Generated_Source\PSoC4/I2C_I2C_MASTER.c **** 
 969              		.loc 1 147 0
 970 0076 4023     		movs	r3, #64
 971 0078 1549     		ldr	r1, .L103+44
 972 007a 0B60     		str	r3, [r1]
 152:Generated_Source\PSoC4/I2C_I2C_MASTER.c **** 
 973              		.loc 1 152 0
 974 007c 1549     		ldr	r1, .L103+48
 975 007e 0B60     		str	r3, [r1]
 155:Generated_Source\PSoC4/I2C_I2C_MASTER.c ****         {
 976              		.loc 1 155 0
 977 0080 009B     		ldr	r3, [sp]
 978 0082 2340     		ands	r3, r4
 979 0084 1C00     		movs	r4, r3
 980 0086 AB42     		cmp	r3, r5
 981 0088 04D0     		beq	.L102
 157:Generated_Source\PSoC4/I2C_I2C_MASTER.c ****             I2C_TX_FIFO_WR_REG = slaveAddress;
 982              		.loc 1 157 0
 983 008a FFF7FEFF 		bl	I2C_I2CReStartGeneration
 984              	.LVL60:
 985 008e 2C00     		movs	r4, r5
 158:Generated_Source\PSoC4/I2C_I2C_MASTER.c ****         }
 986              		.loc 1 158 0
 987 0090 3E60     		str	r6, [r7]
 988 0092 02E0     		b	.L95
 989              	.L102:
 163:Generated_Source\PSoC4/I2C_I2C_MASTER.c ****         }
 990              		.loc 1 163 0
 991 0094 104B     		ldr	r3, .L103+52
 162:Generated_Source\PSoC4/I2C_I2C_MASTER.c ****             I2C_I2C_MASTER_GENERATE_START;
 992              		.loc 1 162 0
 993 0096 3E60     		str	r6, [r7]
 163:Generated_Source\PSoC4/I2C_I2C_MASTER.c ****         }
 994              		.loc 1 163 0
 995 0098 1A60     		str	r2, [r3]
 996              	.LVL61:
 997              	.L95:
 167:Generated_Source\PSoC4/I2C_I2C_MASTER.c **** 
 998              		.loc 1 167 0
 999 009a 0820     		movs	r0, #8
 1000 009c FFF7FEFF 		bl	CyIntEnable
 1001              	.LVL62:
 170:Generated_Source\PSoC4/I2C_I2C_MASTER.c **** 
 1002              		.loc 1 170 0
 1003              		@ sp needed
 1004 00a0 2000     		movs	r0, r4
 1005              	.LVL63:
ARM GAS  C:\Users\Greg\AppData\Local\Temp\cc742Y6h.s 			page 39


 1006 00a2 FEBD     		pop	{r1, r2, r3, r4, r5, r6, r7, pc}
 1007              	.L104:
 1008              		.align	2
 1009              	.L103:
 1010 00a4 00000000 		.word	I2C_state
 1011 00a8 64002440 		.word	1076101220
 1012 00ac 00000000 		.word	I2C_mstrStatus
 1013 00b0 00000000 		.word	I2C_mstrWrBufIndexTmp
 1014 00b4 00000000 		.word	I2C_mstrWrBufIndex
 1015 00b8 00000000 		.word	I2C_mstrWrBufSize
 1016 00bc 00000000 		.word	I2C_mstrWrBufPtr
 1017 00c0 00000000 		.word	I2C_mstrControl
 1018 00c4 40022440 		.word	1076101696
 1019 00c8 17030000 		.word	791
 1020 00cc 000F2440 		.word	1076104960
 1021 00d0 800F2440 		.word	1076105088
 1022 00d4 880F2440 		.word	1076105096
 1023 00d8 68002440 		.word	1076101224
 1024              		.cfi_endproc
 1025              	.LFE1:
 1026              		.size	I2C_I2CMasterWriteBuf, .-I2C_I2CMasterWriteBuf
 1027              		.section	.text.I2C_I2CMasterReadBuf,"ax",%progbits
 1028              		.align	1
 1029              		.global	I2C_I2CMasterReadBuf
 1030              		.code	16
 1031              		.thumb_func
 1032              		.type	I2C_I2CMasterReadBuf, %function
 1033              	I2C_I2CMasterReadBuf:
 1034              	.LFB2:
 210:Generated_Source\PSoC4/I2C_I2C_MASTER.c ****     uint32 errStatus;
 1035              		.loc 1 210 0
 1036              		.cfi_startproc
 1037              		@ args = 0, pretend = 0, frame = 8
 1038              		@ frame_needed = 0, uses_anonymous_args = 0
 1039              	.LVL64:
 1040 0000 F7B5     		push	{r0, r1, r2, r4, r5, r6, r7, lr}
 1041              		.cfi_def_cfa_offset 32
 1042              		.cfi_offset 0, -32
 1043              		.cfi_offset 1, -28
 1044              		.cfi_offset 2, -24
 1045              		.cfi_offset 4, -20
 1046              		.cfi_offset 5, -16
 1047              		.cfi_offset 6, -12
 1048              		.cfi_offset 7, -8
 1049              		.cfi_offset 14, -4
 210:Generated_Source\PSoC4/I2C_I2C_MASTER.c ****     uint32 errStatus;
 1050              		.loc 1 210 0
 1051 0002 0600     		movs	r6, r0
 1052 0004 0F00     		movs	r7, r1
 1053 0006 0192     		str	r2, [sp, #4]
 1054 0008 0093     		str	r3, [sp]
 213:Generated_Source\PSoC4/I2C_I2C_MASTER.c **** 
 1055              		.loc 1 213 0
 1056 000a 0424     		movs	r4, #4
 215:Generated_Source\PSoC4/I2C_I2C_MASTER.c ****     {
 1057              		.loc 1 215 0
 1058 000c 0029     		cmp	r1, #0
ARM GAS  C:\Users\Greg\AppData\Local\Temp\cc742Y6h.s 			page 40


 1059 000e 4CD0     		beq	.L111
 218:Generated_Source\PSoC4/I2C_I2C_MASTER.c ****         {
 1060              		.loc 1 218 0
 1061 0010 284D     		ldr	r5, .L121
 1062 0012 2B78     		ldrb	r3, [r5]
 1063              	.LVL65:
 1064 0014 102B     		cmp	r3, #16
 1065 0016 08D1     		bne	.L107
 220:Generated_Source\PSoC4/I2C_I2C_MASTER.c **** 
 1066              		.loc 1 220 0
 1067 0018 0820     		movs	r0, #8
 1068              	.LVL66:
 1069 001a FFF7FEFF 		bl	CyIntDisable
 1070              	.LVL67:
 223:Generated_Source\PSoC4/I2C_I2C_MASTER.c ****                             I2C_I2C_MSTR_BUS_BUSY : I2C_I2C_MSTR_NO_ERROR;
 1071              		.loc 1 223 0
 1072 001e 264B     		ldr	r3, .L121+4
 1073 0020 2419     		adds	r4, r4, r4
 1074 0022 1B68     		ldr	r3, [r3]
 1075 0024 DB07     		lsls	r3, r3, #31
 1076 0026 40D4     		bmi	.L111
 1077 0028 08E0     		b	.L108
 1078              	.LVL68:
 1079              	.L107:
 226:Generated_Source\PSoC4/I2C_I2C_MASTER.c ****         {
 1080              		.loc 1 226 0
 1081 002a 2B78     		ldrb	r3, [r5]
 213:Generated_Source\PSoC4/I2C_I2C_MASTER.c **** 
 1082              		.loc 1 213 0
 1083 002c 0424     		movs	r4, #4
 226:Generated_Source\PSoC4/I2C_I2C_MASTER.c ****         {
 1084              		.loc 1 226 0
 1085 002e 602B     		cmp	r3, #96
 1086 0030 3BD1     		bne	.L111
 228:Generated_Source\PSoC4/I2C_I2C_MASTER.c ****                               errStatus  =  I2C_I2C_MSTR_NO_ERROR;
 1087              		.loc 1 228 0
 1088 0032 0821     		movs	r1, #8
 1089              	.LVL69:
 1090 0034 214A     		ldr	r2, .L121+8
 1091              	.LVL70:
 1092 0036 1388     		ldrh	r3, [r2]
 1093 0038 8B43     		bics	r3, r1
 1094 003a 1380     		strh	r3, [r2]
 1095              	.LVL71:
 1096              	.L108:
 246:Generated_Source\PSoC4/I2C_I2C_MASTER.c ****         I2C_mstrRdBufIndex = 0u;
 1097              		.loc 1 246 0
 1098 003c 2923     		movs	r3, #41
 247:Generated_Source\PSoC4/I2C_I2C_MASTER.c ****         I2C_mstrRdBufSize  = cnt;
 1099              		.loc 1 247 0
 1100 003e 0022     		movs	r2, #0
 246:Generated_Source\PSoC4/I2C_I2C_MASTER.c ****         I2C_mstrRdBufIndex = 0u;
 1101              		.loc 1 246 0
 1102 0040 2B70     		strb	r3, [r5]
 247:Generated_Source\PSoC4/I2C_I2C_MASTER.c ****         I2C_mstrRdBufSize  = cnt;
 1103              		.loc 1 247 0
 1104 0042 1F4B     		ldr	r3, .L121+12
ARM GAS  C:\Users\Greg\AppData\Local\Temp\cc742Y6h.s 			page 41


 250:Generated_Source\PSoC4/I2C_I2C_MASTER.c **** 
 1105              		.loc 1 250 0
 1106 0044 1F49     		ldr	r1, .L121+16
 247:Generated_Source\PSoC4/I2C_I2C_MASTER.c ****         I2C_mstrRdBufSize  = cnt;
 1107              		.loc 1 247 0
 1108 0046 1A60     		str	r2, [r3]
 248:Generated_Source\PSoC4/I2C_I2C_MASTER.c ****         I2C_mstrRdBufPtr   = (volatile uint8 *) rdData;
 1109              		.loc 1 248 0
 1110 0048 1F4A     		ldr	r2, .L121+20
 1111 004a 019B     		ldr	r3, [sp, #4]
 252:Generated_Source\PSoC4/I2C_I2C_MASTER.c **** 
 1112              		.loc 1 252 0
 1113 004c 0120     		movs	r0, #1
 248:Generated_Source\PSoC4/I2C_I2C_MASTER.c ****         I2C_mstrRdBufPtr   = (volatile uint8 *) rdData;
 1114              		.loc 1 248 0
 1115 004e 1360     		str	r3, [r2]
 249:Generated_Source\PSoC4/I2C_I2C_MASTER.c ****         I2C_mstrControl    = (uint8) mode;
 1116              		.loc 1 249 0
 1117 0050 1E4B     		ldr	r3, .L121+24
 252:Generated_Source\PSoC4/I2C_I2C_MASTER.c **** 
 1118              		.loc 1 252 0
 1119 0052 7600     		lsls	r6, r6, #1
 1120              	.LVL72:
 249:Generated_Source\PSoC4/I2C_I2C_MASTER.c ****         I2C_mstrControl    = (uint8) mode;
 1121              		.loc 1 249 0
 1122 0054 1F60     		str	r7, [r3]
 250:Generated_Source\PSoC4/I2C_I2C_MASTER.c **** 
 1123              		.loc 1 250 0
 1124 0056 6B46     		mov	r3, sp
 1125 0058 1B78     		ldrb	r3, [r3]
 1126 005a 0B70     		strb	r3, [r1]
 252:Generated_Source\PSoC4/I2C_I2C_MASTER.c **** 
 1127              		.loc 1 252 0
 1128 005c FF23     		movs	r3, #255
 254:Generated_Source\PSoC4/I2C_I2C_MASTER.c **** 
 1129              		.loc 1 254 0
 1130 005e 1749     		ldr	r1, .L121+8
 252:Generated_Source\PSoC4/I2C_I2C_MASTER.c **** 
 1131              		.loc 1 252 0
 1132 0060 1E40     		ands	r6, r3
 254:Generated_Source\PSoC4/I2C_I2C_MASTER.c **** 
 1133              		.loc 1 254 0
 1134 0062 0B88     		ldrh	r3, [r1]
 252:Generated_Source\PSoC4/I2C_I2C_MASTER.c **** 
 1135              		.loc 1 252 0
 1136 0064 0643     		orrs	r6, r0
 1137              	.LVL73:
 254:Generated_Source\PSoC4/I2C_I2C_MASTER.c **** 
 1138              		.loc 1 254 0
 1139 0066 8343     		bics	r3, r0
 1140 0068 0B80     		strh	r3, [r1]
 256:Generated_Source\PSoC4/I2C_I2C_MASTER.c **** 
 1141              		.loc 1 256 0
 1142 006a 194B     		ldr	r3, .L121+28
 1143 006c 1949     		ldr	r1, .L121+32
 1144 006e 1960     		str	r1, [r3]
 261:Generated_Source\PSoC4/I2C_I2C_MASTER.c ****         {
ARM GAS  C:\Users\Greg\AppData\Local\Temp\cc742Y6h.s 			page 42


 1145              		.loc 1 261 0
 1146 0070 1368     		ldr	r3, [r2]
 1147 0072 194A     		ldr	r2, .L121+36
 1148 0074 072B     		cmp	r3, #7
 1149 0076 01D8     		bhi	.L120
 264:Generated_Source\PSoC4/I2C_I2C_MASTER.c ****         }
 1150              		.loc 1 264 0
 1151 0078 0423     		movs	r3, #4
 1152 007a 06E0     		b	.L119
 1153              	.L120:
 269:Generated_Source\PSoC4/I2C_I2C_MASTER.c ****             I2C_SetRxInterruptMode(I2C_INTR_RX_FULL);
 1154              		.loc 1 269 0
 1155 007c 8020     		movs	r0, #128
 1156 007e 1749     		ldr	r1, .L121+40
 1157 0080 4000     		lsls	r0, r0, #1
 1158 0082 0B68     		ldr	r3, [r1]
 1159 0084 0343     		orrs	r3, r0
 1160 0086 0B60     		str	r3, [r1]
 270:Generated_Source\PSoC4/I2C_I2C_MASTER.c ****         }
 1161              		.loc 1 270 0
 1162 0088 0823     		movs	r3, #8
 1163              	.L119:
 274:Generated_Source\PSoC4/I2C_I2C_MASTER.c ****         {
 1164              		.loc 1 274 0
 1165 008a 0124     		movs	r4, #1
 270:Generated_Source\PSoC4/I2C_I2C_MASTER.c ****         }
 1166              		.loc 1 270 0
 1167 008c 1360     		str	r3, [r2]
 274:Generated_Source\PSoC4/I2C_I2C_MASTER.c ****         {
 1168              		.loc 1 274 0
 1169 008e 009B     		ldr	r3, [sp]
 1170 0090 134D     		ldr	r5, .L121+44
 1171 0092 2340     		ands	r3, r4
 1172 0094 1C1E     		subs	r4, r3, #0
 1173 0096 04D0     		beq	.L110
 276:Generated_Source\PSoC4/I2C_I2C_MASTER.c ****             I2C_TX_FIFO_WR_REG = (slaveAddress);
 1174              		.loc 1 276 0
 1175 0098 FFF7FEFF 		bl	I2C_I2CReStartGeneration
 1176              	.LVL74:
 1177 009c 0024     		movs	r4, #0
 277:Generated_Source\PSoC4/I2C_I2C_MASTER.c ****         }
 1178              		.loc 1 277 0
 1179 009e 2E60     		str	r6, [r5]
 1180 00a0 03E0     		b	.L111
 1181              	.L110:
 282:Generated_Source\PSoC4/I2C_I2C_MASTER.c ****         }
 1182              		.loc 1 282 0
 1183 00a2 0222     		movs	r2, #2
 1184 00a4 0F4B     		ldr	r3, .L121+48
 281:Generated_Source\PSoC4/I2C_I2C_MASTER.c ****             I2C_I2C_MASTER_GENERATE_START;
 1185              		.loc 1 281 0
 1186 00a6 2E60     		str	r6, [r5]
 282:Generated_Source\PSoC4/I2C_I2C_MASTER.c ****         }
 1187              		.loc 1 282 0
 1188 00a8 1A60     		str	r2, [r3]
 1189              	.LVL75:
 1190              	.L111:
ARM GAS  C:\Users\Greg\AppData\Local\Temp\cc742Y6h.s 			page 43


 286:Generated_Source\PSoC4/I2C_I2C_MASTER.c **** 
 1191              		.loc 1 286 0
 1192 00aa 0820     		movs	r0, #8
 1193 00ac FFF7FEFF 		bl	CyIntEnable
 1194              	.LVL76:
 289:Generated_Source\PSoC4/I2C_I2C_MASTER.c **** 
 1195              		.loc 1 289 0
 1196              		@ sp needed
 1197 00b0 2000     		movs	r0, r4
 1198              	.LVL77:
 1199              	.LVL78:
 1200 00b2 FEBD     		pop	{r1, r2, r3, r4, r5, r6, r7, pc}
 1201              	.L122:
 1202              		.align	2
 1203              	.L121:
 1204 00b4 00000000 		.word	I2C_state
 1205 00b8 64002440 		.word	1076101220
 1206 00bc 00000000 		.word	I2C_mstrStatus
 1207 00c0 00000000 		.word	I2C_mstrRdBufIndex
 1208 00c4 00000000 		.word	I2C_mstrControl
 1209 00c8 00000000 		.word	I2C_mstrRdBufSize
 1210 00cc 00000000 		.word	I2C_mstrRdBufPtr
 1211 00d0 000F2440 		.word	1076104960
 1212 00d4 17030000 		.word	791
 1213 00d8 C80F2440 		.word	1076105160
 1214 00dc 60002440 		.word	1076101216
 1215 00e0 40022440 		.word	1076101696
 1216 00e4 68002440 		.word	1076101224
 1217              		.cfi_endproc
 1218              	.LFE2:
 1219              		.size	I2C_I2CMasterReadBuf, .-I2C_I2CMasterReadBuf
 1220              		.section	.text.I2C_I2CMasterSendRestart,"ax",%progbits
 1221              		.align	1
 1222              		.global	I2C_I2CMasterSendRestart
 1223              		.code	16
 1224              		.thumb_func
 1225              		.type	I2C_I2CMasterSendRestart, %function
 1226              	I2C_I2CMasterSendRestart:
 1227              	.LFB4:
 459:Generated_Source\PSoC4/I2C_I2C_MASTER.c ****     uint32 resetIp;
 1228              		.loc 1 459 0
 1229              		.cfi_startproc
 1230              		@ args = 0, pretend = 0, frame = 0
 1231              		@ frame_needed = 0, uses_anonymous_args = 0
 1232              	.LVL79:
 1233 0000 70B5     		push	{r4, r5, r6, lr}
 1234              		.cfi_def_cfa_offset 16
 1235              		.cfi_offset 4, -16
 1236              		.cfi_offset 5, -12
 1237              		.cfi_offset 6, -8
 1238              		.cfi_offset 14, -4
 467:Generated_Source\PSoC4/I2C_I2C_MASTER.c ****     {
 1239              		.loc 1 467 0
 1240 0002 244C     		ldr	r4, .L141
 464:Generated_Source\PSoC4/I2C_I2C_MASTER.c **** 
 1241              		.loc 1 464 0
 1242 0004 0422     		movs	r2, #4
ARM GAS  C:\Users\Greg\AppData\Local\Temp\cc742Y6h.s 			page 44


 467:Generated_Source\PSoC4/I2C_I2C_MASTER.c ****     {
 1243              		.loc 1 467 0
 1244 0006 2378     		ldrb	r3, [r4]
 1245 0008 9B06     		lsls	r3, r3, #26
 1246 000a 41D5     		bpl	.L124
 469:Generated_Source\PSoC4/I2C_I2C_MASTER.c **** 
 1247              		.loc 1 469 0
 1248 000c FF25     		movs	r5, #255
 1249 000e 4000     		lsls	r0, r0, #1
 1250              	.LVL80:
 1251 0010 0540     		ands	r5, r0
 1252              	.LVL81:
 471:Generated_Source\PSoC4/I2C_I2C_MASTER.c ****         {
 1253              		.loc 1 471 0
 1254 0012 0029     		cmp	r1, #0
 1255 0014 02D1     		bne	.L125
 473:Generated_Source\PSoC4/I2C_I2C_MASTER.c ****         }
 1256              		.loc 1 473 0
 1257 0016 2423     		movs	r3, #36
 1258 0018 2370     		strb	r3, [r4]
 1259 001a 03E0     		b	.L126
 1260              	.L125:
 477:Generated_Source\PSoC4/I2C_I2C_MASTER.c ****                       slaveAddress |= I2C_I2C_READ_FLAG;
 1261              		.loc 1 477 0
 1262 001c 2523     		movs	r3, #37
 1263 001e 2370     		strb	r3, [r4]
 478:Generated_Source\PSoC4/I2C_I2C_MASTER.c ****         }
 1264              		.loc 1 478 0
 1265 0020 243B     		subs	r3, r3, #36
 1266 0022 1D43     		orrs	r5, r3
 1267              	.LVL82:
 1268              	.L126:
 484:Generated_Source\PSoC4/I2C_I2C_MASTER.c **** 
 1269              		.loc 1 484 0
 1270 0024 1C4B     		ldr	r3, .L141+4
 1271 0026 1D4E     		ldr	r6, .L141+8
 1272 0028 3360     		str	r3, [r6]
 490:Generated_Source\PSoC4/I2C_I2C_MASTER.c **** 
 1273              		.loc 1 490 0
 1274 002a FFF7FEFF 		bl	I2C_I2CReStartGeneration
 1275              	.LVL83:
 1276 002e 3100     		movs	r1, r6
 492:Generated_Source\PSoC4/I2C_I2C_MASTER.c ****         {
 1277              		.loc 1 492 0
 1278 0030 0123     		movs	r3, #1
 1279 0032 1B48     		ldr	r0, .L141+12
 1280              	.L127:
 492:Generated_Source\PSoC4/I2C_I2C_MASTER.c ****         {
 1281              		.loc 1 492 0 is_stmt 0 discriminator 1
 1282 0034 0268     		ldr	r2, [r0]
 1283 0036 1A42     		tst	r2, r3
 1284 0038 FCD1     		bne	.L127
 498:Generated_Source\PSoC4/I2C_I2C_MASTER.c **** 
 1285              		.loc 1 498 0 is_stmt 1
 1286 003a 1A4B     		ldr	r3, .L141+16
 1287 003c 1D60     		str	r5, [r3]
 501:Generated_Source\PSoC4/I2C_I2C_MASTER.c ****                                                   I2C_INTR_MASTER_I2C_NACK     |
ARM GAS  C:\Users\Greg\AppData\Local\Temp\cc742Y6h.s 			page 45


 1288              		.loc 1 501 0
 1289 003e 0823     		movs	r3, #8
 1290 0040 FF33     		adds	r3, r3, #255
 1291              	.LVL84:
 1292              	.L128:
 501:Generated_Source\PSoC4/I2C_I2C_MASTER.c ****                                                   I2C_INTR_MASTER_I2C_NACK     |
 1293              		.loc 1 501 0 is_stmt 0 discriminator 1
 1294 0042 0A68     		ldr	r2, [r1]
 1295 0044 154D     		ldr	r5, .L141+8
 1296 0046 1A42     		tst	r2, r3
 1297 0048 FBD0     		beq	.L128
 510:Generated_Source\PSoC4/I2C_I2C_MASTER.c ****         {
 1298              		.loc 1 510 0 is_stmt 1
 1299 004a 0423     		movs	r3, #4
 1300 004c 2A68     		ldr	r2, [r5]
 1301 004e 1340     		ands	r3, r2
 1302 0050 0DD1     		bne	.L132
 514:Generated_Source\PSoC4/I2C_I2C_MASTER.c ****         {
 1303              		.loc 1 514 0
 1304 0052 0222     		movs	r2, #2
 1305 0054 2868     		ldr	r0, [r5]
 1306 0056 1042     		tst	r0, r2
 1307 0058 0BD1     		bne	.L129
 518:Generated_Source\PSoC4/I2C_I2C_MASTER.c ****         {
 1308              		.loc 1 518 0
 1309 005a 2868     		ldr	r0, [r5]
 1310 005c 0E32     		adds	r2, r2, #14
 1311 005e 0133     		adds	r3, r3, #1
 520:Generated_Source\PSoC4/I2C_I2C_MASTER.c ****                          errStatus = I2C_I2C_MSTR_ERR_ARB_LOST;
 1312              		.loc 1 520 0
 1313 0060 2270     		strb	r2, [r4]
 1314              	.LVL85:
 521:Generated_Source\PSoC4/I2C_I2C_MASTER.c ****                          resetIp   = I2C_I2C_RESET_ERROR;
 1315              		.loc 1 521 0
 1316 0062 1A00     		movs	r2, r3
 518:Generated_Source\PSoC4/I2C_I2C_MASTER.c ****         {
 1317              		.loc 1 518 0
 1318 0064 1842     		tst	r0, r3
 1319 0066 04D1     		bne	.L129
 1320              	.LVL86:
 527:Generated_Source\PSoC4/I2C_I2C_MASTER.c ****                          resetIp   = I2C_I2C_RESET_ERROR;
 1321              		.loc 1 527 0
 1322 0068 8022     		movs	r2, #128
 1323 006a 5200     		lsls	r2, r2, #1
 1324 006c 01E0     		b	.L129
 1325              	.LVL87:
 1326              	.L132:
 512:Generated_Source\PSoC4/I2C_I2C_MASTER.c ****         }
 1327              		.loc 1 512 0
 1328 006e 0022     		movs	r2, #0
 463:Generated_Source\PSoC4/I2C_I2C_MASTER.c ****     errStatus = I2C_I2C_MSTR_NOT_READY;
 1329              		.loc 1 463 0
 1330 0070 1300     		movs	r3, r2
 1331              	.LVL88:
 1332              	.L129:
 531:Generated_Source\PSoC4/I2C_I2C_MASTER.c ****                                                     I2C_INTR_MASTER_I2C_NACK     |
 1333              		.loc 1 531 0
ARM GAS  C:\Users\Greg\AppData\Local\Temp\cc742Y6h.s 			page 46


 1334 0072 0820     		movs	r0, #8
 1335 0074 FF30     		adds	r0, r0, #255
 1336 0076 0860     		str	r0, [r1]
 537:Generated_Source\PSoC4/I2C_I2C_MASTER.c ****         {
 1337              		.loc 1 537 0
 1338 0078 002B     		cmp	r3, #0
 1339 007a 09D0     		beq	.L124
 539:Generated_Source\PSoC4/I2C_I2C_MASTER.c ****         }
 1340              		.loc 1 539 0
 1341 007c 8020     		movs	r0, #128
 1342 007e 0A49     		ldr	r1, .L141+20
 1343 0080 0006     		lsls	r0, r0, #24
 1344 0082 0B68     		ldr	r3, [r1]
 1345 0084 5B00     		lsls	r3, r3, #1
 1346 0086 5B08     		lsrs	r3, r3, #1
 1347 0088 0B60     		str	r3, [r1]
 1348 008a 0B68     		ldr	r3, [r1]
 1349 008c 0343     		orrs	r3, r0
 1350 008e 0B60     		str	r3, [r1]
 1351              	.LVL89:
 1352              	.L124:
 544:Generated_Source\PSoC4/I2C_I2C_MASTER.c **** 
 1353              		.loc 1 544 0
 1354 0090 1000     		movs	r0, r2
 1355              		@ sp needed
 1356 0092 70BD     		pop	{r4, r5, r6, pc}
 1357              	.L142:
 1358              		.align	2
 1359              	.L141:
 1360 0094 00000000 		.word	I2C_state
 1361 0098 17030000 		.word	791
 1362 009c 000F2440 		.word	1076104960
 1363 00a0 68002440 		.word	1076101224
 1364 00a4 40022440 		.word	1076101696
 1365 00a8 00002440 		.word	1076101120
 1366              		.cfi_endproc
 1367              	.LFE4:
 1368              		.size	I2C_I2CMasterSendRestart, .-I2C_I2CMasterSendRestart
 1369              		.comm	I2C_mstrWrBufIndexTmp,4,4
 1370              		.comm	I2C_mstrWrBufIndex,4,4
 1371              		.comm	I2C_mstrWrBufSize,4,4
 1372              		.comm	I2C_mstrWrBufPtr,4,4
 1373              		.comm	I2C_mstrRdBufIndex,4,4
 1374              		.comm	I2C_mstrRdBufSize,4,4
 1375              		.comm	I2C_mstrRdBufPtr,4,4
 1376              		.comm	I2C_mstrControl,1,1
 1377              		.comm	I2C_mstrStatus,2,2
 1378              		.text
 1379              	.Letext0:
 1380              		.file 2 "Generated_Source\\PSoC4/cytypes.h"
 1381              		.file 3 "Generated_Source\\PSoC4\\I2C_I2C_PVT.h"
 1382              		.file 4 "Generated_Source\\PSoC4/CyLib.h"