ARM GAS  C:\Users\Greg\AppData\Local\Temp\ccu34czS.s 			page 1


   1              		.syntax unified
   2              		.cpu cortex-m0
   3              		.fpu softvfp
   4              		.eabi_attribute 20, 1
   5              		.eabi_attribute 21, 1
   6              		.eabi_attribute 23, 3
   7              		.eabi_attribute 24, 1
   8              		.eabi_attribute 25, 1
   9              		.eabi_attribute 26, 1
  10              		.eabi_attribute 30, 4
  11              		.eabi_attribute 34, 0
  12              		.eabi_attribute 18, 4
  13              		.thumb
  14              		.syntax unified
  15              		.file	"SWISR.c"
  16              		.text
  17              	.Ltext0:
  18              		.cfi_sections	.debug_frame
  19              		.section	.text.SWISR_Interrupt,"ax",%progbits
  20              		.align	1
  21              		.global	SWISR_Interrupt
  22              		.code	16
  23              		.thumb_func
  24              		.type	SWISR_Interrupt, %function
  25              	SWISR_Interrupt:
  26              	.LFB4:
  27              		.file 1 "Generated_Source\\PSoC4\\SWISR.c"
   1:Generated_Source\PSoC4/SWISR.c **** /*******************************************************************************
   2:Generated_Source\PSoC4/SWISR.c **** * File Name: SWISR.c  
   3:Generated_Source\PSoC4/SWISR.c **** * Version 1.70
   4:Generated_Source\PSoC4/SWISR.c **** *
   5:Generated_Source\PSoC4/SWISR.c **** *  Description:
   6:Generated_Source\PSoC4/SWISR.c **** *   API for controlling the state of an interrupt.
   7:Generated_Source\PSoC4/SWISR.c **** *
   8:Generated_Source\PSoC4/SWISR.c **** *
   9:Generated_Source\PSoC4/SWISR.c **** *  Note:
  10:Generated_Source\PSoC4/SWISR.c **** *
  11:Generated_Source\PSoC4/SWISR.c **** ********************************************************************************
  12:Generated_Source\PSoC4/SWISR.c **** * Copyright 2008-2015, Cypress Semiconductor Corporation.  All rights reserved.
  13:Generated_Source\PSoC4/SWISR.c **** * You may use this file only in accordance with the license, terms, conditions, 
  14:Generated_Source\PSoC4/SWISR.c **** * disclaimers, and limitations in the end user license agreement accompanying 
  15:Generated_Source\PSoC4/SWISR.c **** * the software package with which this file was provided.
  16:Generated_Source\PSoC4/SWISR.c **** *******************************************************************************/
  17:Generated_Source\PSoC4/SWISR.c **** 
  18:Generated_Source\PSoC4/SWISR.c **** 
  19:Generated_Source\PSoC4/SWISR.c **** #include <cydevice_trm.h>
  20:Generated_Source\PSoC4/SWISR.c **** #include <CyLib.h>
  21:Generated_Source\PSoC4/SWISR.c **** #include <SWISR.h>
  22:Generated_Source\PSoC4/SWISR.c **** #include "cyapicallbacks.h"
  23:Generated_Source\PSoC4/SWISR.c **** 
  24:Generated_Source\PSoC4/SWISR.c **** #if !defined(SWISR__REMOVED) /* Check for removal by optimization */
  25:Generated_Source\PSoC4/SWISR.c **** 
  26:Generated_Source\PSoC4/SWISR.c **** /*******************************************************************************
  27:Generated_Source\PSoC4/SWISR.c **** *  Place your includes, defines and code here 
  28:Generated_Source\PSoC4/SWISR.c **** ********************************************************************************/
  29:Generated_Source\PSoC4/SWISR.c **** /* `#START SWISR_intc` */
  30:Generated_Source\PSoC4/SWISR.c **** 
ARM GAS  C:\Users\Greg\AppData\Local\Temp\ccu34czS.s 			page 2


  31:Generated_Source\PSoC4/SWISR.c **** /* `#END` */
  32:Generated_Source\PSoC4/SWISR.c **** 
  33:Generated_Source\PSoC4/SWISR.c **** extern cyisraddress CyRamVectors[CYINT_IRQ_BASE + CY_NUM_INTERRUPTS];
  34:Generated_Source\PSoC4/SWISR.c **** 
  35:Generated_Source\PSoC4/SWISR.c **** /* Declared in startup, used to set unused interrupts to. */
  36:Generated_Source\PSoC4/SWISR.c **** CY_ISR_PROTO(IntDefaultHandler);
  37:Generated_Source\PSoC4/SWISR.c **** 
  38:Generated_Source\PSoC4/SWISR.c **** 
  39:Generated_Source\PSoC4/SWISR.c **** /*******************************************************************************
  40:Generated_Source\PSoC4/SWISR.c **** * Function Name: SWISR_Start
  41:Generated_Source\PSoC4/SWISR.c **** ********************************************************************************
  42:Generated_Source\PSoC4/SWISR.c **** *
  43:Generated_Source\PSoC4/SWISR.c **** * Summary:
  44:Generated_Source\PSoC4/SWISR.c **** *  Set up the interrupt and enable it. This function disables the interrupt, 
  45:Generated_Source\PSoC4/SWISR.c **** *  sets the default interrupt vector, sets the priority from the value in the
  46:Generated_Source\PSoC4/SWISR.c **** *  Design Wide Resources Interrupt Editor, then enables the interrupt to the 
  47:Generated_Source\PSoC4/SWISR.c **** *  interrupt controller.
  48:Generated_Source\PSoC4/SWISR.c **** *
  49:Generated_Source\PSoC4/SWISR.c **** * Parameters:  
  50:Generated_Source\PSoC4/SWISR.c **** *   None
  51:Generated_Source\PSoC4/SWISR.c **** *
  52:Generated_Source\PSoC4/SWISR.c **** * Return:
  53:Generated_Source\PSoC4/SWISR.c **** *   None
  54:Generated_Source\PSoC4/SWISR.c **** *
  55:Generated_Source\PSoC4/SWISR.c **** *******************************************************************************/
  56:Generated_Source\PSoC4/SWISR.c **** void SWISR_Start(void)
  57:Generated_Source\PSoC4/SWISR.c **** {
  58:Generated_Source\PSoC4/SWISR.c ****     /* For all we know the interrupt is active. */
  59:Generated_Source\PSoC4/SWISR.c ****     SWISR_Disable();
  60:Generated_Source\PSoC4/SWISR.c **** 
  61:Generated_Source\PSoC4/SWISR.c ****     /* Set the ISR to point to the SWISR Interrupt. */
  62:Generated_Source\PSoC4/SWISR.c ****     SWISR_SetVector(&SWISR_Interrupt);
  63:Generated_Source\PSoC4/SWISR.c **** 
  64:Generated_Source\PSoC4/SWISR.c ****     /* Set the priority. */
  65:Generated_Source\PSoC4/SWISR.c ****     SWISR_SetPriority((uint8)SWISR_INTC_PRIOR_NUMBER);
  66:Generated_Source\PSoC4/SWISR.c **** 
  67:Generated_Source\PSoC4/SWISR.c ****     /* Enable it. */
  68:Generated_Source\PSoC4/SWISR.c ****     SWISR_Enable();
  69:Generated_Source\PSoC4/SWISR.c **** }
  70:Generated_Source\PSoC4/SWISR.c **** 
  71:Generated_Source\PSoC4/SWISR.c **** 
  72:Generated_Source\PSoC4/SWISR.c **** /*******************************************************************************
  73:Generated_Source\PSoC4/SWISR.c **** * Function Name: SWISR_StartEx
  74:Generated_Source\PSoC4/SWISR.c **** ********************************************************************************
  75:Generated_Source\PSoC4/SWISR.c **** *
  76:Generated_Source\PSoC4/SWISR.c **** * Summary:
  77:Generated_Source\PSoC4/SWISR.c **** *  Sets up the interrupt and enables it. This function disables the interrupt,
  78:Generated_Source\PSoC4/SWISR.c **** *  sets the interrupt vector based on the address passed in, sets the priority 
  79:Generated_Source\PSoC4/SWISR.c **** *  from the value in the Design Wide Resources Interrupt Editor, then enables 
  80:Generated_Source\PSoC4/SWISR.c **** *  the interrupt to the interrupt controller.
  81:Generated_Source\PSoC4/SWISR.c **** *  
  82:Generated_Source\PSoC4/SWISR.c **** *  When defining ISR functions, the CY_ISR and CY_ISR_PROTO macros should be 
  83:Generated_Source\PSoC4/SWISR.c **** *  used to provide consistent definition across compilers:
  84:Generated_Source\PSoC4/SWISR.c **** *  
  85:Generated_Source\PSoC4/SWISR.c **** *  Function definition example:
  86:Generated_Source\PSoC4/SWISR.c **** *   CY_ISR(MyISR)
  87:Generated_Source\PSoC4/SWISR.c **** *   {
ARM GAS  C:\Users\Greg\AppData\Local\Temp\ccu34czS.s 			page 3


  88:Generated_Source\PSoC4/SWISR.c **** *   }
  89:Generated_Source\PSoC4/SWISR.c **** *   Function prototype example:
  90:Generated_Source\PSoC4/SWISR.c **** *   CY_ISR_PROTO(MyISR);
  91:Generated_Source\PSoC4/SWISR.c **** *
  92:Generated_Source\PSoC4/SWISR.c **** * Parameters:  
  93:Generated_Source\PSoC4/SWISR.c **** *   address: Address of the ISR to set in the interrupt vector table.
  94:Generated_Source\PSoC4/SWISR.c **** *
  95:Generated_Source\PSoC4/SWISR.c **** * Return:
  96:Generated_Source\PSoC4/SWISR.c **** *   None
  97:Generated_Source\PSoC4/SWISR.c **** *
  98:Generated_Source\PSoC4/SWISR.c **** *******************************************************************************/
  99:Generated_Source\PSoC4/SWISR.c **** void SWISR_StartEx(cyisraddress address)
 100:Generated_Source\PSoC4/SWISR.c **** {
 101:Generated_Source\PSoC4/SWISR.c ****     /* For all we know the interrupt is active. */
 102:Generated_Source\PSoC4/SWISR.c ****     SWISR_Disable();
 103:Generated_Source\PSoC4/SWISR.c **** 
 104:Generated_Source\PSoC4/SWISR.c ****     /* Set the ISR to point to the SWISR Interrupt. */
 105:Generated_Source\PSoC4/SWISR.c ****     SWISR_SetVector(address);
 106:Generated_Source\PSoC4/SWISR.c **** 
 107:Generated_Source\PSoC4/SWISR.c ****     /* Set the priority. */
 108:Generated_Source\PSoC4/SWISR.c ****     SWISR_SetPriority((uint8)SWISR_INTC_PRIOR_NUMBER);
 109:Generated_Source\PSoC4/SWISR.c **** 
 110:Generated_Source\PSoC4/SWISR.c ****     /* Enable it. */
 111:Generated_Source\PSoC4/SWISR.c ****     SWISR_Enable();
 112:Generated_Source\PSoC4/SWISR.c **** }
 113:Generated_Source\PSoC4/SWISR.c **** 
 114:Generated_Source\PSoC4/SWISR.c **** 
 115:Generated_Source\PSoC4/SWISR.c **** /*******************************************************************************
 116:Generated_Source\PSoC4/SWISR.c **** * Function Name: SWISR_Stop
 117:Generated_Source\PSoC4/SWISR.c **** ********************************************************************************
 118:Generated_Source\PSoC4/SWISR.c **** *
 119:Generated_Source\PSoC4/SWISR.c **** * Summary:
 120:Generated_Source\PSoC4/SWISR.c **** *   Disables and removes the interrupt.
 121:Generated_Source\PSoC4/SWISR.c **** *
 122:Generated_Source\PSoC4/SWISR.c **** * Parameters:  
 123:Generated_Source\PSoC4/SWISR.c **** *   None
 124:Generated_Source\PSoC4/SWISR.c **** *
 125:Generated_Source\PSoC4/SWISR.c **** * Return:
 126:Generated_Source\PSoC4/SWISR.c **** *   None
 127:Generated_Source\PSoC4/SWISR.c **** *
 128:Generated_Source\PSoC4/SWISR.c **** *******************************************************************************/
 129:Generated_Source\PSoC4/SWISR.c **** void SWISR_Stop(void)
 130:Generated_Source\PSoC4/SWISR.c **** {
 131:Generated_Source\PSoC4/SWISR.c ****     /* Disable this interrupt. */
 132:Generated_Source\PSoC4/SWISR.c ****     SWISR_Disable();
 133:Generated_Source\PSoC4/SWISR.c **** 
 134:Generated_Source\PSoC4/SWISR.c ****     /* Set the ISR to point to the passive one. */
 135:Generated_Source\PSoC4/SWISR.c ****     SWISR_SetVector(&IntDefaultHandler);
 136:Generated_Source\PSoC4/SWISR.c **** }
 137:Generated_Source\PSoC4/SWISR.c **** 
 138:Generated_Source\PSoC4/SWISR.c **** 
 139:Generated_Source\PSoC4/SWISR.c **** /*******************************************************************************
 140:Generated_Source\PSoC4/SWISR.c **** * Function Name: SWISR_Interrupt
 141:Generated_Source\PSoC4/SWISR.c **** ********************************************************************************
 142:Generated_Source\PSoC4/SWISR.c **** *
 143:Generated_Source\PSoC4/SWISR.c **** * Summary:
 144:Generated_Source\PSoC4/SWISR.c **** *   The default Interrupt Service Routine for SWISR.
ARM GAS  C:\Users\Greg\AppData\Local\Temp\ccu34czS.s 			page 4


 145:Generated_Source\PSoC4/SWISR.c **** *
 146:Generated_Source\PSoC4/SWISR.c **** *   Add custom code between the START and END comments to keep the next version
 147:Generated_Source\PSoC4/SWISR.c **** *   of this file from over-writing your code.
 148:Generated_Source\PSoC4/SWISR.c **** *
 149:Generated_Source\PSoC4/SWISR.c **** *   Note You may use either the default ISR by using this API, or you may define
 150:Generated_Source\PSoC4/SWISR.c **** *   your own separate ISR through ISR_StartEx().
 151:Generated_Source\PSoC4/SWISR.c **** *
 152:Generated_Source\PSoC4/SWISR.c **** * Parameters:  
 153:Generated_Source\PSoC4/SWISR.c **** *   None
 154:Generated_Source\PSoC4/SWISR.c **** *
 155:Generated_Source\PSoC4/SWISR.c **** * Return:
 156:Generated_Source\PSoC4/SWISR.c **** *   None
 157:Generated_Source\PSoC4/SWISR.c **** *
 158:Generated_Source\PSoC4/SWISR.c **** *******************************************************************************/
 159:Generated_Source\PSoC4/SWISR.c **** CY_ISR(SWISR_Interrupt)
 160:Generated_Source\PSoC4/SWISR.c **** {
  28              		.loc 1 160 0
  29              		.cfi_startproc
  30              		@ args = 0, pretend = 0, frame = 0
  31              		@ frame_needed = 0, uses_anonymous_args = 0
  32              		@ link register save eliminated.
 161:Generated_Source\PSoC4/SWISR.c ****     #ifdef SWISR_INTERRUPT_INTERRUPT_CALLBACK
 162:Generated_Source\PSoC4/SWISR.c ****         SWISR_Interrupt_InterruptCallback();
 163:Generated_Source\PSoC4/SWISR.c ****     #endif /* SWISR_INTERRUPT_INTERRUPT_CALLBACK */ 
 164:Generated_Source\PSoC4/SWISR.c **** 
 165:Generated_Source\PSoC4/SWISR.c ****     /*  Place your Interrupt code here. */
 166:Generated_Source\PSoC4/SWISR.c ****     /* `#START SWISR_Interrupt` */
 167:Generated_Source\PSoC4/SWISR.c **** 
 168:Generated_Source\PSoC4/SWISR.c ****     /* `#END` */
 169:Generated_Source\PSoC4/SWISR.c **** }
  33              		.loc 1 169 0
  34              		@ sp needed
  35 0000 7047     		bx	lr
  36              		.cfi_endproc
  37              	.LFE4:
  38              		.size	SWISR_Interrupt, .-SWISR_Interrupt
  39              		.section	.text.SWISR_Stop,"ax",%progbits
  40              		.align	1
  41              		.global	SWISR_Stop
  42              		.code	16
  43              		.thumb_func
  44              		.type	SWISR_Stop, %function
  45              	SWISR_Stop:
  46              	.LFB3:
 130:Generated_Source\PSoC4/SWISR.c ****     /* Disable this interrupt. */
  47              		.loc 1 130 0
  48              		.cfi_startproc
  49              		@ args = 0, pretend = 0, frame = 0
  50              		@ frame_needed = 0, uses_anonymous_args = 0
  51              		@ link register save eliminated.
  52              	.LBB18:
  53              	.LBB19:
 170:Generated_Source\PSoC4/SWISR.c **** 
 171:Generated_Source\PSoC4/SWISR.c **** 
 172:Generated_Source\PSoC4/SWISR.c **** /*******************************************************************************
 173:Generated_Source\PSoC4/SWISR.c **** * Function Name: SWISR_SetVector
 174:Generated_Source\PSoC4/SWISR.c **** ********************************************************************************
ARM GAS  C:\Users\Greg\AppData\Local\Temp\ccu34czS.s 			page 5


 175:Generated_Source\PSoC4/SWISR.c **** *
 176:Generated_Source\PSoC4/SWISR.c **** * Summary:
 177:Generated_Source\PSoC4/SWISR.c **** *   Change the ISR vector for the Interrupt. Note calling SWISR_Start
 178:Generated_Source\PSoC4/SWISR.c **** *   will override any effect this method would have had. To set the vector 
 179:Generated_Source\PSoC4/SWISR.c **** *   before the component has been started use SWISR_StartEx instead.
 180:Generated_Source\PSoC4/SWISR.c **** * 
 181:Generated_Source\PSoC4/SWISR.c **** *   When defining ISR functions, the CY_ISR and CY_ISR_PROTO macros should be 
 182:Generated_Source\PSoC4/SWISR.c **** *   used to provide consistent definition across compilers:
 183:Generated_Source\PSoC4/SWISR.c **** *
 184:Generated_Source\PSoC4/SWISR.c **** *   Function definition example:
 185:Generated_Source\PSoC4/SWISR.c **** *   CY_ISR(MyISR)
 186:Generated_Source\PSoC4/SWISR.c **** *   {
 187:Generated_Source\PSoC4/SWISR.c **** *   }
 188:Generated_Source\PSoC4/SWISR.c **** *
 189:Generated_Source\PSoC4/SWISR.c **** *   Function prototype example:
 190:Generated_Source\PSoC4/SWISR.c **** *     CY_ISR_PROTO(MyISR);
 191:Generated_Source\PSoC4/SWISR.c **** *
 192:Generated_Source\PSoC4/SWISR.c **** * Parameters:
 193:Generated_Source\PSoC4/SWISR.c **** *   address: Address of the ISR to set in the interrupt vector table.
 194:Generated_Source\PSoC4/SWISR.c **** *
 195:Generated_Source\PSoC4/SWISR.c **** * Return:
 196:Generated_Source\PSoC4/SWISR.c **** *   None
 197:Generated_Source\PSoC4/SWISR.c **** *
 198:Generated_Source\PSoC4/SWISR.c **** *******************************************************************************/
 199:Generated_Source\PSoC4/SWISR.c **** void SWISR_SetVector(cyisraddress address)
 200:Generated_Source\PSoC4/SWISR.c **** {
 201:Generated_Source\PSoC4/SWISR.c ****     CyRamVectors[CYINT_IRQ_BASE + SWISR__INTC_NUMBER] = address;
 202:Generated_Source\PSoC4/SWISR.c **** }
 203:Generated_Source\PSoC4/SWISR.c **** 
 204:Generated_Source\PSoC4/SWISR.c **** 
 205:Generated_Source\PSoC4/SWISR.c **** /*******************************************************************************
 206:Generated_Source\PSoC4/SWISR.c **** * Function Name: SWISR_GetVector
 207:Generated_Source\PSoC4/SWISR.c **** ********************************************************************************
 208:Generated_Source\PSoC4/SWISR.c **** *
 209:Generated_Source\PSoC4/SWISR.c **** * Summary:
 210:Generated_Source\PSoC4/SWISR.c **** *   Gets the "address" of the current ISR vector for the Interrupt.
 211:Generated_Source\PSoC4/SWISR.c **** *
 212:Generated_Source\PSoC4/SWISR.c **** * Parameters:
 213:Generated_Source\PSoC4/SWISR.c **** *   None
 214:Generated_Source\PSoC4/SWISR.c **** *
 215:Generated_Source\PSoC4/SWISR.c **** * Return:
 216:Generated_Source\PSoC4/SWISR.c **** *   Address of the ISR in the interrupt vector table.
 217:Generated_Source\PSoC4/SWISR.c **** *
 218:Generated_Source\PSoC4/SWISR.c **** *******************************************************************************/
 219:Generated_Source\PSoC4/SWISR.c **** cyisraddress SWISR_GetVector(void)
 220:Generated_Source\PSoC4/SWISR.c **** {
 221:Generated_Source\PSoC4/SWISR.c ****     return CyRamVectors[CYINT_IRQ_BASE + SWISR__INTC_NUMBER];
 222:Generated_Source\PSoC4/SWISR.c **** }
 223:Generated_Source\PSoC4/SWISR.c **** 
 224:Generated_Source\PSoC4/SWISR.c **** 
 225:Generated_Source\PSoC4/SWISR.c **** /*******************************************************************************
 226:Generated_Source\PSoC4/SWISR.c **** * Function Name: SWISR_SetPriority
 227:Generated_Source\PSoC4/SWISR.c **** ********************************************************************************
 228:Generated_Source\PSoC4/SWISR.c **** *
 229:Generated_Source\PSoC4/SWISR.c **** * Summary:
 230:Generated_Source\PSoC4/SWISR.c **** *   Sets the Priority of the Interrupt. 
 231:Generated_Source\PSoC4/SWISR.c **** *
ARM GAS  C:\Users\Greg\AppData\Local\Temp\ccu34czS.s 			page 6


 232:Generated_Source\PSoC4/SWISR.c **** *   Note calling SWISR_Start or SWISR_StartEx will 
 233:Generated_Source\PSoC4/SWISR.c **** *   override any effect this API would have had. This API should only be called
 234:Generated_Source\PSoC4/SWISR.c **** *   after SWISR_Start or SWISR_StartEx has been called. 
 235:Generated_Source\PSoC4/SWISR.c **** *   To set the initial priority for the component, use the Design-Wide Resources
 236:Generated_Source\PSoC4/SWISR.c **** *   Interrupt Editor.
 237:Generated_Source\PSoC4/SWISR.c **** *
 238:Generated_Source\PSoC4/SWISR.c **** *   Note This API has no effect on Non-maskable interrupt NMI).
 239:Generated_Source\PSoC4/SWISR.c **** *
 240:Generated_Source\PSoC4/SWISR.c **** * Parameters:
 241:Generated_Source\PSoC4/SWISR.c **** *   priority: Priority of the interrupt, 0 being the highest priority
 242:Generated_Source\PSoC4/SWISR.c **** *             PSoC 3 and PSoC 5LP: Priority is from 0 to 7.
 243:Generated_Source\PSoC4/SWISR.c **** *             PSoC 4: Priority is from 0 to 3.
 244:Generated_Source\PSoC4/SWISR.c **** *
 245:Generated_Source\PSoC4/SWISR.c **** * Return:
 246:Generated_Source\PSoC4/SWISR.c **** *   None
 247:Generated_Source\PSoC4/SWISR.c **** *
 248:Generated_Source\PSoC4/SWISR.c **** *******************************************************************************/
 249:Generated_Source\PSoC4/SWISR.c **** void SWISR_SetPriority(uint8 priority)
 250:Generated_Source\PSoC4/SWISR.c **** {
 251:Generated_Source\PSoC4/SWISR.c **** 	uint8 interruptState;
 252:Generated_Source\PSoC4/SWISR.c ****     uint32 priorityOffset = ((SWISR__INTC_NUMBER % 4u) * 8u) + 6u;
 253:Generated_Source\PSoC4/SWISR.c ****     
 254:Generated_Source\PSoC4/SWISR.c **** 	interruptState = CyEnterCriticalSection();
 255:Generated_Source\PSoC4/SWISR.c ****     *SWISR_INTC_PRIOR = (*SWISR_INTC_PRIOR & (uint32)(~SWISR__INTC_PRIOR_MASK)) |
 256:Generated_Source\PSoC4/SWISR.c ****                                     ((uint32)priority << priorityOffset);
 257:Generated_Source\PSoC4/SWISR.c **** 	CyExitCriticalSection(interruptState);
 258:Generated_Source\PSoC4/SWISR.c **** }
 259:Generated_Source\PSoC4/SWISR.c **** 
 260:Generated_Source\PSoC4/SWISR.c **** 
 261:Generated_Source\PSoC4/SWISR.c **** /*******************************************************************************
 262:Generated_Source\PSoC4/SWISR.c **** * Function Name: SWISR_GetPriority
 263:Generated_Source\PSoC4/SWISR.c **** ********************************************************************************
 264:Generated_Source\PSoC4/SWISR.c **** *
 265:Generated_Source\PSoC4/SWISR.c **** * Summary:
 266:Generated_Source\PSoC4/SWISR.c **** *   Gets the Priority of the Interrupt.
 267:Generated_Source\PSoC4/SWISR.c **** *
 268:Generated_Source\PSoC4/SWISR.c **** * Parameters:
 269:Generated_Source\PSoC4/SWISR.c **** *   None
 270:Generated_Source\PSoC4/SWISR.c **** *
 271:Generated_Source\PSoC4/SWISR.c **** * Return:
 272:Generated_Source\PSoC4/SWISR.c **** *   Priority of the interrupt, 0 being the highest priority
 273:Generated_Source\PSoC4/SWISR.c **** *    PSoC 3 and PSoC 5LP: Priority is from 0 to 7.
 274:Generated_Source\PSoC4/SWISR.c **** *    PSoC 4: Priority is from 0 to 3.
 275:Generated_Source\PSoC4/SWISR.c **** *
 276:Generated_Source\PSoC4/SWISR.c **** *******************************************************************************/
 277:Generated_Source\PSoC4/SWISR.c **** uint8 SWISR_GetPriority(void)
 278:Generated_Source\PSoC4/SWISR.c **** {
 279:Generated_Source\PSoC4/SWISR.c ****     uint32 priority;
 280:Generated_Source\PSoC4/SWISR.c **** 	uint32 priorityOffset = ((SWISR__INTC_NUMBER % 4u) * 8u) + 6u;
 281:Generated_Source\PSoC4/SWISR.c **** 
 282:Generated_Source\PSoC4/SWISR.c ****     priority = (*SWISR_INTC_PRIOR & SWISR__INTC_PRIOR_MASK) >> priorityOffset;
 283:Generated_Source\PSoC4/SWISR.c **** 
 284:Generated_Source\PSoC4/SWISR.c ****     return (uint8)priority;
 285:Generated_Source\PSoC4/SWISR.c **** }
 286:Generated_Source\PSoC4/SWISR.c **** 
 287:Generated_Source\PSoC4/SWISR.c **** 
 288:Generated_Source\PSoC4/SWISR.c **** /*******************************************************************************
ARM GAS  C:\Users\Greg\AppData\Local\Temp\ccu34czS.s 			page 7


 289:Generated_Source\PSoC4/SWISR.c **** * Function Name: SWISR_Enable
 290:Generated_Source\PSoC4/SWISR.c **** ********************************************************************************
 291:Generated_Source\PSoC4/SWISR.c **** *
 292:Generated_Source\PSoC4/SWISR.c **** * Summary:
 293:Generated_Source\PSoC4/SWISR.c **** *   Enables the interrupt to the interrupt controller. Do not call this function
 294:Generated_Source\PSoC4/SWISR.c **** *   unless ISR_Start() has been called or the functionality of the ISR_Start() 
 295:Generated_Source\PSoC4/SWISR.c **** *   function, which sets the vector and the priority, has been called.
 296:Generated_Source\PSoC4/SWISR.c **** *
 297:Generated_Source\PSoC4/SWISR.c **** * Parameters:
 298:Generated_Source\PSoC4/SWISR.c **** *   None
 299:Generated_Source\PSoC4/SWISR.c **** *
 300:Generated_Source\PSoC4/SWISR.c **** * Return:
 301:Generated_Source\PSoC4/SWISR.c **** *   None
 302:Generated_Source\PSoC4/SWISR.c **** *
 303:Generated_Source\PSoC4/SWISR.c **** *******************************************************************************/
 304:Generated_Source\PSoC4/SWISR.c **** void SWISR_Enable(void)
 305:Generated_Source\PSoC4/SWISR.c **** {
 306:Generated_Source\PSoC4/SWISR.c ****     /* Enable the general interrupt. */
 307:Generated_Source\PSoC4/SWISR.c ****     *SWISR_INTC_SET_EN = SWISR__INTC_MASK;
 308:Generated_Source\PSoC4/SWISR.c **** }
 309:Generated_Source\PSoC4/SWISR.c **** 
 310:Generated_Source\PSoC4/SWISR.c **** 
 311:Generated_Source\PSoC4/SWISR.c **** /*******************************************************************************
 312:Generated_Source\PSoC4/SWISR.c **** * Function Name: SWISR_GetState
 313:Generated_Source\PSoC4/SWISR.c **** ********************************************************************************
 314:Generated_Source\PSoC4/SWISR.c **** *
 315:Generated_Source\PSoC4/SWISR.c **** * Summary:
 316:Generated_Source\PSoC4/SWISR.c **** *   Gets the state (enabled, disabled) of the Interrupt.
 317:Generated_Source\PSoC4/SWISR.c **** *
 318:Generated_Source\PSoC4/SWISR.c **** * Parameters:
 319:Generated_Source\PSoC4/SWISR.c **** *   None
 320:Generated_Source\PSoC4/SWISR.c **** *
 321:Generated_Source\PSoC4/SWISR.c **** * Return:
 322:Generated_Source\PSoC4/SWISR.c **** *   1 if enabled, 0 if disabled.
 323:Generated_Source\PSoC4/SWISR.c **** *
 324:Generated_Source\PSoC4/SWISR.c **** *******************************************************************************/
 325:Generated_Source\PSoC4/SWISR.c **** uint8 SWISR_GetState(void)
 326:Generated_Source\PSoC4/SWISR.c **** {
 327:Generated_Source\PSoC4/SWISR.c ****     /* Get the state of the general interrupt. */
 328:Generated_Source\PSoC4/SWISR.c ****     return ((*SWISR_INTC_SET_EN & (uint32)SWISR__INTC_MASK) != 0u) ? 1u:0u;
 329:Generated_Source\PSoC4/SWISR.c **** }
 330:Generated_Source\PSoC4/SWISR.c **** 
 331:Generated_Source\PSoC4/SWISR.c **** 
 332:Generated_Source\PSoC4/SWISR.c **** /*******************************************************************************
 333:Generated_Source\PSoC4/SWISR.c **** * Function Name: SWISR_Disable
 334:Generated_Source\PSoC4/SWISR.c **** ********************************************************************************
 335:Generated_Source\PSoC4/SWISR.c **** *
 336:Generated_Source\PSoC4/SWISR.c **** * Summary:
 337:Generated_Source\PSoC4/SWISR.c **** *   Disables the Interrupt in the interrupt controller.
 338:Generated_Source\PSoC4/SWISR.c **** *
 339:Generated_Source\PSoC4/SWISR.c **** * Parameters:
 340:Generated_Source\PSoC4/SWISR.c **** *   None
 341:Generated_Source\PSoC4/SWISR.c **** *
 342:Generated_Source\PSoC4/SWISR.c **** * Return:
 343:Generated_Source\PSoC4/SWISR.c **** *   None
 344:Generated_Source\PSoC4/SWISR.c **** *
 345:Generated_Source\PSoC4/SWISR.c **** *******************************************************************************/
ARM GAS  C:\Users\Greg\AppData\Local\Temp\ccu34czS.s 			page 8


 346:Generated_Source\PSoC4/SWISR.c **** void SWISR_Disable(void)
 347:Generated_Source\PSoC4/SWISR.c **** {
 348:Generated_Source\PSoC4/SWISR.c ****     /* Disable the general interrupt. */
 349:Generated_Source\PSoC4/SWISR.c ****     *SWISR_INTC_CLR_EN = SWISR__INTC_MASK;
  54              		.loc 1 349 0
  55 0000 8022     		movs	r2, #128
  56 0002 044B     		ldr	r3, .L3
  57 0004 1203     		lsls	r2, r2, #12
  58 0006 1A60     		str	r2, [r3]
  59              	.LVL0:
  60              	.LBE19:
  61              	.LBE18:
  62              	.LBB20:
  63              	.LBB21:
 201:Generated_Source\PSoC4/SWISR.c **** }
  64              		.loc 1 201 0
  65 0008 034B     		ldr	r3, .L3+4
  66 000a 044A     		ldr	r2, .L3+8
  67 000c 8C33     		adds	r3, r3, #140
  68 000e 1A60     		str	r2, [r3]
  69              	.LVL1:
  70              	.LBE21:
  71              	.LBE20:
 136:Generated_Source\PSoC4/SWISR.c **** 
  72              		.loc 1 136 0
  73              		@ sp needed
  74 0010 7047     		bx	lr
  75              	.L4:
  76 0012 C046     		.align	2
  77              	.L3:
  78 0014 80E100E0 		.word	-536813184
  79 0018 00000000 		.word	CyRamVectors
  80 001c 00000000 		.word	IntDefaultHandler
  81              		.cfi_endproc
  82              	.LFE3:
  83              		.size	SWISR_Stop, .-SWISR_Stop
  84              		.section	.text.SWISR_SetVector,"ax",%progbits
  85              		.align	1
  86              		.global	SWISR_SetVector
  87              		.code	16
  88              		.thumb_func
  89              		.type	SWISR_SetVector, %function
  90              	SWISR_SetVector:
  91              	.LFB5:
 200:Generated_Source\PSoC4/SWISR.c ****     CyRamVectors[CYINT_IRQ_BASE + SWISR__INTC_NUMBER] = address;
  92              		.loc 1 200 0
  93              		.cfi_startproc
  94              		@ args = 0, pretend = 0, frame = 0
  95              		@ frame_needed = 0, uses_anonymous_args = 0
  96              		@ link register save eliminated.
  97              	.LVL2:
 201:Generated_Source\PSoC4/SWISR.c **** }
  98              		.loc 1 201 0
  99 0000 014B     		ldr	r3, .L6
 202:Generated_Source\PSoC4/SWISR.c **** 
 100              		.loc 1 202 0
 101              		@ sp needed
ARM GAS  C:\Users\Greg\AppData\Local\Temp\ccu34czS.s 			page 9


 201:Generated_Source\PSoC4/SWISR.c **** }
 102              		.loc 1 201 0
 103 0002 8C33     		adds	r3, r3, #140
 104 0004 1860     		str	r0, [r3]
 202:Generated_Source\PSoC4/SWISR.c **** 
 105              		.loc 1 202 0
 106 0006 7047     		bx	lr
 107              	.L7:
 108              		.align	2
 109              	.L6:
 110 0008 00000000 		.word	CyRamVectors
 111              		.cfi_endproc
 112              	.LFE5:
 113              		.size	SWISR_SetVector, .-SWISR_SetVector
 114              		.section	.text.SWISR_GetVector,"ax",%progbits
 115              		.align	1
 116              		.global	SWISR_GetVector
 117              		.code	16
 118              		.thumb_func
 119              		.type	SWISR_GetVector, %function
 120              	SWISR_GetVector:
 121              	.LFB6:
 220:Generated_Source\PSoC4/SWISR.c ****     return CyRamVectors[CYINT_IRQ_BASE + SWISR__INTC_NUMBER];
 122              		.loc 1 220 0
 123              		.cfi_startproc
 124              		@ args = 0, pretend = 0, frame = 0
 125              		@ frame_needed = 0, uses_anonymous_args = 0
 126              		@ link register save eliminated.
 221:Generated_Source\PSoC4/SWISR.c **** }
 127              		.loc 1 221 0
 128 0000 014B     		ldr	r3, .L9
 222:Generated_Source\PSoC4/SWISR.c **** 
 129              		.loc 1 222 0
 130              		@ sp needed
 221:Generated_Source\PSoC4/SWISR.c **** }
 131              		.loc 1 221 0
 132 0002 8C33     		adds	r3, r3, #140
 133 0004 1868     		ldr	r0, [r3]
 222:Generated_Source\PSoC4/SWISR.c **** 
 134              		.loc 1 222 0
 135 0006 7047     		bx	lr
 136              	.L10:
 137              		.align	2
 138              	.L9:
 139 0008 00000000 		.word	CyRamVectors
 140              		.cfi_endproc
 141              	.LFE6:
 142              		.size	SWISR_GetVector, .-SWISR_GetVector
 143              		.section	.text.SWISR_SetPriority,"ax",%progbits
 144              		.align	1
 145              		.global	SWISR_SetPriority
 146              		.code	16
 147              		.thumb_func
 148              		.type	SWISR_SetPriority, %function
 149              	SWISR_SetPriority:
 150              	.LFB7:
 250:Generated_Source\PSoC4/SWISR.c **** 	uint8 interruptState;
ARM GAS  C:\Users\Greg\AppData\Local\Temp\ccu34czS.s 			page 10


 151              		.loc 1 250 0
 152              		.cfi_startproc
 153              		@ args = 0, pretend = 0, frame = 0
 154              		@ frame_needed = 0, uses_anonymous_args = 0
 155              	.LVL3:
 156 0000 10B5     		push	{r4, lr}
 157              		.cfi_def_cfa_offset 8
 158              		.cfi_offset 4, -8
 159              		.cfi_offset 14, -4
 250:Generated_Source\PSoC4/SWISR.c **** 	uint8 interruptState;
 160              		.loc 1 250 0
 161 0002 0400     		movs	r4, r0
 254:Generated_Source\PSoC4/SWISR.c ****     *SWISR_INTC_PRIOR = (*SWISR_INTC_PRIOR & (uint32)(~SWISR__INTC_PRIOR_MASK)) |
 162              		.loc 1 254 0
 163 0004 FFF7FEFF 		bl	CyEnterCriticalSection
 164              	.LVL4:
 255:Generated_Source\PSoC4/SWISR.c ****                                     ((uint32)priority << priorityOffset);
 165              		.loc 1 255 0
 166 0008 044A     		ldr	r2, .L12
 167 000a A407     		lsls	r4, r4, #30
 168 000c 1368     		ldr	r3, [r2]
 258:Generated_Source\PSoC4/SWISR.c **** 
 169              		.loc 1 258 0
 170              		@ sp needed
 255:Generated_Source\PSoC4/SWISR.c ****                                     ((uint32)priority << priorityOffset);
 171              		.loc 1 255 0
 172 000e 9B00     		lsls	r3, r3, #2
 173 0010 9B08     		lsrs	r3, r3, #2
 174 0012 1C43     		orrs	r4, r3
 175 0014 1460     		str	r4, [r2]
 257:Generated_Source\PSoC4/SWISR.c **** }
 176              		.loc 1 257 0
 177 0016 FFF7FEFF 		bl	CyExitCriticalSection
 178              	.LVL5:
 258:Generated_Source\PSoC4/SWISR.c **** 
 179              		.loc 1 258 0
 180 001a 10BD     		pop	{r4, pc}
 181              	.L13:
 182              		.align	2
 183              	.L12:
 184 001c 10E400E0 		.word	-536812528
 185              		.cfi_endproc
 186              	.LFE7:
 187              		.size	SWISR_SetPriority, .-SWISR_SetPriority
 188              		.section	.text.SWISR_Start,"ax",%progbits
 189              		.align	1
 190              		.global	SWISR_Start
 191              		.code	16
 192              		.thumb_func
 193              		.type	SWISR_Start, %function
 194              	SWISR_Start:
 195              	.LFB1:
  57:Generated_Source\PSoC4/SWISR.c ****     /* For all we know the interrupt is active. */
 196              		.loc 1 57 0
 197              		.cfi_startproc
 198              		@ args = 0, pretend = 0, frame = 0
 199              		@ frame_needed = 0, uses_anonymous_args = 0
ARM GAS  C:\Users\Greg\AppData\Local\Temp\ccu34czS.s 			page 11


 200 0000 10B5     		push	{r4, lr}
 201              		.cfi_def_cfa_offset 8
 202              		.cfi_offset 4, -8
 203              		.cfi_offset 14, -4
 204              	.LBB22:
 205              	.LBB23:
 206              		.loc 1 349 0
 207 0002 8024     		movs	r4, #128
 208 0004 064B     		ldr	r3, .L15
 209 0006 2403     		lsls	r4, r4, #12
 210 0008 1C60     		str	r4, [r3]
 211              	.LVL6:
 212              	.LBE23:
 213              	.LBE22:
 214              	.LBB24:
 215              	.LBB25:
 201:Generated_Source\PSoC4/SWISR.c **** }
 216              		.loc 1 201 0
 217 000a 064B     		ldr	r3, .L15+4
 218 000c 064A     		ldr	r2, .L15+8
 219 000e 8C33     		adds	r3, r3, #140
 220              	.LBE25:
 221              	.LBE24:
  65:Generated_Source\PSoC4/SWISR.c **** 
 222              		.loc 1 65 0
 223 0010 0320     		movs	r0, #3
 224              	.LBB27:
 225              	.LBB26:
 201:Generated_Source\PSoC4/SWISR.c **** }
 226              		.loc 1 201 0
 227 0012 1A60     		str	r2, [r3]
 228              	.LVL7:
 229              	.LBE26:
 230              	.LBE27:
  65:Generated_Source\PSoC4/SWISR.c **** 
 231              		.loc 1 65 0
 232 0014 FFF7FEFF 		bl	SWISR_SetPriority
 233              	.LVL8:
 234              	.LBB28:
 235              	.LBB29:
 307:Generated_Source\PSoC4/SWISR.c **** }
 236              		.loc 1 307 0
 237 0018 044B     		ldr	r3, .L15+12
 238              	.LBE29:
 239              	.LBE28:
  69:Generated_Source\PSoC4/SWISR.c **** 
 240              		.loc 1 69 0
 241              		@ sp needed
 242              	.LBB31:
 243              	.LBB30:
 307:Generated_Source\PSoC4/SWISR.c **** }
 244              		.loc 1 307 0
 245 001a 1C60     		str	r4, [r3]
 246              	.LBE30:
 247              	.LBE31:
  69:Generated_Source\PSoC4/SWISR.c **** 
 248              		.loc 1 69 0
ARM GAS  C:\Users\Greg\AppData\Local\Temp\ccu34czS.s 			page 12


 249 001c 10BD     		pop	{r4, pc}
 250              	.L16:
 251 001e C046     		.align	2
 252              	.L15:
 253 0020 80E100E0 		.word	-536813184
 254 0024 00000000 		.word	CyRamVectors
 255 0028 00000000 		.word	SWISR_Interrupt
 256 002c 00E100E0 		.word	-536813312
 257              		.cfi_endproc
 258              	.LFE1:
 259              		.size	SWISR_Start, .-SWISR_Start
 260              		.section	.text.SWISR_StartEx,"ax",%progbits
 261              		.align	1
 262              		.global	SWISR_StartEx
 263              		.code	16
 264              		.thumb_func
 265              		.type	SWISR_StartEx, %function
 266              	SWISR_StartEx:
 267              	.LFB2:
 100:Generated_Source\PSoC4/SWISR.c ****     /* For all we know the interrupt is active. */
 268              		.loc 1 100 0
 269              		.cfi_startproc
 270              		@ args = 0, pretend = 0, frame = 0
 271              		@ frame_needed = 0, uses_anonymous_args = 0
 272              	.LVL9:
 273 0000 10B5     		push	{r4, lr}
 274              		.cfi_def_cfa_offset 8
 275              		.cfi_offset 4, -8
 276              		.cfi_offset 14, -4
 277              	.LBB32:
 278              	.LBB33:
 279              		.loc 1 349 0
 280 0002 8024     		movs	r4, #128
 281 0004 054B     		ldr	r3, .L18
 282 0006 2403     		lsls	r4, r4, #12
 283 0008 1C60     		str	r4, [r3]
 284              	.LVL10:
 285              	.LBE33:
 286              	.LBE32:
 287              	.LBB34:
 288              	.LBB35:
 201:Generated_Source\PSoC4/SWISR.c **** }
 289              		.loc 1 201 0
 290 000a 054B     		ldr	r3, .L18+4
 291              	.LBE35:
 292              	.LBE34:
 112:Generated_Source\PSoC4/SWISR.c **** 
 293              		.loc 1 112 0
 294              		@ sp needed
 295              	.LBB37:
 296              	.LBB36:
 201:Generated_Source\PSoC4/SWISR.c **** }
 297              		.loc 1 201 0
 298 000c 8C33     		adds	r3, r3, #140
 299 000e 1860     		str	r0, [r3]
 300              	.LVL11:
 301              	.LBE36:
ARM GAS  C:\Users\Greg\AppData\Local\Temp\ccu34czS.s 			page 13


 302              	.LBE37:
 108:Generated_Source\PSoC4/SWISR.c **** 
 303              		.loc 1 108 0
 304 0010 0320     		movs	r0, #3
 305              	.LVL12:
 306 0012 FFF7FEFF 		bl	SWISR_SetPriority
 307              	.LVL13:
 308              	.LBB38:
 309              	.LBB39:
 307:Generated_Source\PSoC4/SWISR.c **** }
 310              		.loc 1 307 0
 311 0016 034B     		ldr	r3, .L18+8
 312 0018 1C60     		str	r4, [r3]
 313              	.LBE39:
 314              	.LBE38:
 112:Generated_Source\PSoC4/SWISR.c **** 
 315              		.loc 1 112 0
 316 001a 10BD     		pop	{r4, pc}
 317              	.L19:
 318              		.align	2
 319              	.L18:
 320 001c 80E100E0 		.word	-536813184
 321 0020 00000000 		.word	CyRamVectors
 322 0024 00E100E0 		.word	-536813312
 323              		.cfi_endproc
 324              	.LFE2:
 325              		.size	SWISR_StartEx, .-SWISR_StartEx
 326              		.section	.text.SWISR_GetPriority,"ax",%progbits
 327              		.align	1
 328              		.global	SWISR_GetPriority
 329              		.code	16
 330              		.thumb_func
 331              		.type	SWISR_GetPriority, %function
 332              	SWISR_GetPriority:
 333              	.LFB8:
 278:Generated_Source\PSoC4/SWISR.c ****     uint32 priority;
 334              		.loc 1 278 0
 335              		.cfi_startproc
 336              		@ args = 0, pretend = 0, frame = 0
 337              		@ frame_needed = 0, uses_anonymous_args = 0
 338              		@ link register save eliminated.
 339              	.LVL14:
 282:Generated_Source\PSoC4/SWISR.c **** 
 340              		.loc 1 282 0
 341 0000 014B     		ldr	r3, .L21
 285:Generated_Source\PSoC4/SWISR.c **** 
 342              		.loc 1 285 0
 343              		@ sp needed
 282:Generated_Source\PSoC4/SWISR.c **** 
 344              		.loc 1 282 0
 345 0002 1868     		ldr	r0, [r3]
 346              	.LVL15:
 284:Generated_Source\PSoC4/SWISR.c **** }
 347              		.loc 1 284 0
 348 0004 800F     		lsrs	r0, r0, #30
 349              	.LVL16:
 285:Generated_Source\PSoC4/SWISR.c **** 
ARM GAS  C:\Users\Greg\AppData\Local\Temp\ccu34czS.s 			page 14


 350              		.loc 1 285 0
 351 0006 7047     		bx	lr
 352              	.L22:
 353              		.align	2
 354              	.L21:
 355 0008 10E400E0 		.word	-536812528
 356              		.cfi_endproc
 357              	.LFE8:
 358              		.size	SWISR_GetPriority, .-SWISR_GetPriority
 359              		.section	.text.SWISR_Enable,"ax",%progbits
 360              		.align	1
 361              		.global	SWISR_Enable
 362              		.code	16
 363              		.thumb_func
 364              		.type	SWISR_Enable, %function
 365              	SWISR_Enable:
 366              	.LFB9:
 305:Generated_Source\PSoC4/SWISR.c ****     /* Enable the general interrupt. */
 367              		.loc 1 305 0
 368              		.cfi_startproc
 369              		@ args = 0, pretend = 0, frame = 0
 370              		@ frame_needed = 0, uses_anonymous_args = 0
 371              		@ link register save eliminated.
 307:Generated_Source\PSoC4/SWISR.c **** }
 372              		.loc 1 307 0
 373 0000 8022     		movs	r2, #128
 374 0002 024B     		ldr	r3, .L24
 375 0004 1203     		lsls	r2, r2, #12
 376 0006 1A60     		str	r2, [r3]
 308:Generated_Source\PSoC4/SWISR.c **** 
 377              		.loc 1 308 0
 378              		@ sp needed
 379 0008 7047     		bx	lr
 380              	.L25:
 381 000a C046     		.align	2
 382              	.L24:
 383 000c 00E100E0 		.word	-536813312
 384              		.cfi_endproc
 385              	.LFE9:
 386              		.size	SWISR_Enable, .-SWISR_Enable
 387              		.section	.text.SWISR_GetState,"ax",%progbits
 388              		.align	1
 389              		.global	SWISR_GetState
 390              		.code	16
 391              		.thumb_func
 392              		.type	SWISR_GetState, %function
 393              	SWISR_GetState:
 394              	.LFB10:
 326:Generated_Source\PSoC4/SWISR.c ****     /* Get the state of the general interrupt. */
 395              		.loc 1 326 0
 396              		.cfi_startproc
 397              		@ args = 0, pretend = 0, frame = 0
 398              		@ frame_needed = 0, uses_anonymous_args = 0
 399              		@ link register save eliminated.
 328:Generated_Source\PSoC4/SWISR.c **** }
 400              		.loc 1 328 0
 401 0000 024B     		ldr	r3, .L27
ARM GAS  C:\Users\Greg\AppData\Local\Temp\ccu34czS.s 			page 15


 329:Generated_Source\PSoC4/SWISR.c **** 
 402              		.loc 1 329 0
 403              		@ sp needed
 328:Generated_Source\PSoC4/SWISR.c **** }
 404              		.loc 1 328 0
 405 0002 1868     		ldr	r0, [r3]
 406 0004 0003     		lsls	r0, r0, #12
 407 0006 C00F     		lsrs	r0, r0, #31
 329:Generated_Source\PSoC4/SWISR.c **** 
 408              		.loc 1 329 0
 409 0008 7047     		bx	lr
 410              	.L28:
 411 000a C046     		.align	2
 412              	.L27:
 413 000c 00E100E0 		.word	-536813312
 414              		.cfi_endproc
 415              	.LFE10:
 416              		.size	SWISR_GetState, .-SWISR_GetState
 417              		.section	.text.SWISR_Disable,"ax",%progbits
 418              		.align	1
 419              		.global	SWISR_Disable
 420              		.code	16
 421              		.thumb_func
 422              		.type	SWISR_Disable, %function
 423              	SWISR_Disable:
 424              	.LFB11:
 347:Generated_Source\PSoC4/SWISR.c ****     /* Disable the general interrupt. */
 425              		.loc 1 347 0
 426              		.cfi_startproc
 427              		@ args = 0, pretend = 0, frame = 0
 428              		@ frame_needed = 0, uses_anonymous_args = 0
 429              		@ link register save eliminated.
 430              		.loc 1 349 0
 431 0000 8022     		movs	r2, #128
 432 0002 024B     		ldr	r3, .L30
 433 0004 1203     		lsls	r2, r2, #12
 434 0006 1A60     		str	r2, [r3]
 350:Generated_Source\PSoC4/SWISR.c **** }
 435              		.loc 1 350 0
 436              		@ sp needed
 437 0008 7047     		bx	lr
 438              	.L31:
 439 000a C046     		.align	2
 440              	.L30:
 441 000c 80E100E0 		.word	-536813184
 442              		.cfi_endproc
 443              	.LFE11:
 444              		.size	SWISR_Disable, .-SWISR_Disable
 445              		.section	.text.SWISR_SetPending,"ax",%progbits
 446              		.align	1
 447              		.global	SWISR_SetPending
 448              		.code	16
 449              		.thumb_func
 450              		.type	SWISR_SetPending, %function
 451              	SWISR_SetPending:
 452              	.LFB12:
 351:Generated_Source\PSoC4/SWISR.c **** 
ARM GAS  C:\Users\Greg\AppData\Local\Temp\ccu34czS.s 			page 16


 352:Generated_Source\PSoC4/SWISR.c **** 
 353:Generated_Source\PSoC4/SWISR.c **** /*******************************************************************************
 354:Generated_Source\PSoC4/SWISR.c **** * Function Name: SWISR_SetPending
 355:Generated_Source\PSoC4/SWISR.c **** ********************************************************************************
 356:Generated_Source\PSoC4/SWISR.c **** *
 357:Generated_Source\PSoC4/SWISR.c **** * Summary:
 358:Generated_Source\PSoC4/SWISR.c **** *   Causes the Interrupt to enter the pending state, a software method of
 359:Generated_Source\PSoC4/SWISR.c **** *   generating the interrupt.
 360:Generated_Source\PSoC4/SWISR.c **** *
 361:Generated_Source\PSoC4/SWISR.c **** * Parameters:
 362:Generated_Source\PSoC4/SWISR.c **** *   None
 363:Generated_Source\PSoC4/SWISR.c **** *
 364:Generated_Source\PSoC4/SWISR.c **** * Return:
 365:Generated_Source\PSoC4/SWISR.c **** *   None
 366:Generated_Source\PSoC4/SWISR.c **** *
 367:Generated_Source\PSoC4/SWISR.c **** * Side Effects:
 368:Generated_Source\PSoC4/SWISR.c **** *   If interrupts are enabled and the interrupt is set up properly, the ISR is
 369:Generated_Source\PSoC4/SWISR.c **** *   entered (depending on the priority of this interrupt and other pending 
 370:Generated_Source\PSoC4/SWISR.c **** *   interrupts).
 371:Generated_Source\PSoC4/SWISR.c **** *
 372:Generated_Source\PSoC4/SWISR.c **** *******************************************************************************/
 373:Generated_Source\PSoC4/SWISR.c **** void SWISR_SetPending(void)
 374:Generated_Source\PSoC4/SWISR.c **** {
 453              		.loc 1 374 0
 454              		.cfi_startproc
 455              		@ args = 0, pretend = 0, frame = 0
 456              		@ frame_needed = 0, uses_anonymous_args = 0
 457              		@ link register save eliminated.
 375:Generated_Source\PSoC4/SWISR.c ****     *SWISR_INTC_SET_PD = SWISR__INTC_MASK;
 458              		.loc 1 375 0
 459 0000 8022     		movs	r2, #128
 460 0002 024B     		ldr	r3, .L33
 461 0004 1203     		lsls	r2, r2, #12
 462 0006 1A60     		str	r2, [r3]
 376:Generated_Source\PSoC4/SWISR.c **** }
 463              		.loc 1 376 0
 464              		@ sp needed
 465 0008 7047     		bx	lr
 466              	.L34:
 467 000a C046     		.align	2
 468              	.L33:
 469 000c 00E200E0 		.word	-536813056
 470              		.cfi_endproc
 471              	.LFE12:
 472              		.size	SWISR_SetPending, .-SWISR_SetPending
 473              		.section	.text.SWISR_ClearPending,"ax",%progbits
 474              		.align	1
 475              		.global	SWISR_ClearPending
 476              		.code	16
 477              		.thumb_func
 478              		.type	SWISR_ClearPending, %function
 479              	SWISR_ClearPending:
 480              	.LFB13:
 377:Generated_Source\PSoC4/SWISR.c **** 
 378:Generated_Source\PSoC4/SWISR.c **** 
 379:Generated_Source\PSoC4/SWISR.c **** /*******************************************************************************
 380:Generated_Source\PSoC4/SWISR.c **** * Function Name: SWISR_ClearPending
ARM GAS  C:\Users\Greg\AppData\Local\Temp\ccu34czS.s 			page 17


 381:Generated_Source\PSoC4/SWISR.c **** ********************************************************************************
 382:Generated_Source\PSoC4/SWISR.c **** *
 383:Generated_Source\PSoC4/SWISR.c **** * Summary:
 384:Generated_Source\PSoC4/SWISR.c **** *   Clears a pending interrupt in the interrupt controller.
 385:Generated_Source\PSoC4/SWISR.c **** *
 386:Generated_Source\PSoC4/SWISR.c **** *   Note Some interrupt sources are clear-on-read and require the block 
 387:Generated_Source\PSoC4/SWISR.c **** *   interrupt/status register to be read/cleared with the appropriate block API 
 388:Generated_Source\PSoC4/SWISR.c **** *   (GPIO, UART, and so on). Otherwise the ISR will continue to remain in 
 389:Generated_Source\PSoC4/SWISR.c **** *   pending state even though the interrupt itself is cleared using this API.
 390:Generated_Source\PSoC4/SWISR.c **** *
 391:Generated_Source\PSoC4/SWISR.c **** * Parameters:
 392:Generated_Source\PSoC4/SWISR.c **** *   None
 393:Generated_Source\PSoC4/SWISR.c **** *
 394:Generated_Source\PSoC4/SWISR.c **** * Return:
 395:Generated_Source\PSoC4/SWISR.c **** *   None
 396:Generated_Source\PSoC4/SWISR.c **** *
 397:Generated_Source\PSoC4/SWISR.c **** *******************************************************************************/
 398:Generated_Source\PSoC4/SWISR.c **** void SWISR_ClearPending(void)
 399:Generated_Source\PSoC4/SWISR.c **** {
 481              		.loc 1 399 0
 482              		.cfi_startproc
 483              		@ args = 0, pretend = 0, frame = 0
 484              		@ frame_needed = 0, uses_anonymous_args = 0
 485              		@ link register save eliminated.
 400:Generated_Source\PSoC4/SWISR.c ****     *SWISR_INTC_CLR_PD = SWISR__INTC_MASK;
 486              		.loc 1 400 0
 487 0000 8022     		movs	r2, #128
 488 0002 024B     		ldr	r3, .L36
 489 0004 1203     		lsls	r2, r2, #12
 490 0006 1A60     		str	r2, [r3]
 401:Generated_Source\PSoC4/SWISR.c **** }
 491              		.loc 1 401 0
 492              		@ sp needed
 493 0008 7047     		bx	lr
 494              	.L37:
 495 000a C046     		.align	2
 496              	.L36:
 497 000c 80E200E0 		.word	-536812928
 498              		.cfi_endproc
 499              	.LFE13:
 500              		.size	SWISR_ClearPending, .-SWISR_ClearPending
 501              		.text
 502              	.Letext0:
 503              		.file 2 "Generated_Source\\PSoC4/cytypes.h"
 504              		.file 3 "Generated_Source\\PSoC4/CyLib.h"