ARM GAS  C:\Users\Greg\AppData\Local\Temp\ccrvUqGC.s 			page 1


   1              		.syntax unified
   2              		.cpu cortex-m0
   3              		.fpu softvfp
   4              		.eabi_attribute 20, 1
   5              		.eabi_attribute 21, 1
   6              		.eabi_attribute 23, 3
   7              		.eabi_attribute 24, 1
   8              		.eabi_attribute 25, 1
   9              		.eabi_attribute 26, 1
  10              		.eabi_attribute 30, 4
  11              		.eabi_attribute 34, 0
  12              		.eabi_attribute 18, 4
  13              		.thumb
  14              		.syntax unified
  15              		.file	"Timer_PM.c"
  16              		.text
  17              	.Ltext0:
  18              		.cfi_sections	.debug_frame
  19              		.section	.text.Timer_SaveConfig,"ax",%progbits
  20              		.align	1
  21              		.global	Timer_SaveConfig
  22              		.code	16
  23              		.thumb_func
  24              		.type	Timer_SaveConfig, %function
  25              	Timer_SaveConfig:
  26              	.LFB6:
  27              		.cfi_startproc
  28              		@ args = 0, pretend = 0, frame = 0
  29              		@ frame_needed = 0, uses_anonymous_args = 0
  30              		@ link register save eliminated.
  31              		@ sp needed
  32 0000 7047     		bx	lr
  33              		.cfi_endproc
  34              	.LFE6:
  35              		.size	Timer_SaveConfig, .-Timer_SaveConfig
  36              		.section	.text.Timer_Sleep,"ax",%progbits
  37              		.align	1
  38              		.global	Timer_Sleep
  39              		.code	16
  40              		.thumb_func
  41              		.type	Timer_Sleep, %function
  42              	Timer_Sleep:
  43              	.LFB2:
  44              		.file 1 "Generated_Source\\PSoC4\\Timer_PM.c"
   1:Generated_Source\PSoC4/Timer_PM.c **** /*******************************************************************************
   2:Generated_Source\PSoC4/Timer_PM.c **** * File Name: Timer_PM.c
   3:Generated_Source\PSoC4/Timer_PM.c **** * Version 2.10
   4:Generated_Source\PSoC4/Timer_PM.c **** *
   5:Generated_Source\PSoC4/Timer_PM.c **** * Description:
   6:Generated_Source\PSoC4/Timer_PM.c **** *  This file contains the setup, control, and status commands to support
   7:Generated_Source\PSoC4/Timer_PM.c **** *  the component operations in the low power mode.
   8:Generated_Source\PSoC4/Timer_PM.c **** *
   9:Generated_Source\PSoC4/Timer_PM.c **** * Note:
  10:Generated_Source\PSoC4/Timer_PM.c **** *  None
  11:Generated_Source\PSoC4/Timer_PM.c **** *
  12:Generated_Source\PSoC4/Timer_PM.c **** ********************************************************************************
  13:Generated_Source\PSoC4/Timer_PM.c **** * Copyright 2013-2015, Cypress Semiconductor Corporation.  All rights reserved.
ARM GAS  C:\Users\Greg\AppData\Local\Temp\ccrvUqGC.s 			page 2


  14:Generated_Source\PSoC4/Timer_PM.c **** * You may use this file only in accordance with the license, terms, conditions,
  15:Generated_Source\PSoC4/Timer_PM.c **** * disclaimers, and limitations in the end user license agreement accompanying
  16:Generated_Source\PSoC4/Timer_PM.c **** * the software package with which this file was provided.
  17:Generated_Source\PSoC4/Timer_PM.c **** *******************************************************************************/
  18:Generated_Source\PSoC4/Timer_PM.c **** 
  19:Generated_Source\PSoC4/Timer_PM.c **** #include "Timer.h"
  20:Generated_Source\PSoC4/Timer_PM.c **** 
  21:Generated_Source\PSoC4/Timer_PM.c **** static Timer_BACKUP_STRUCT Timer_backup;
  22:Generated_Source\PSoC4/Timer_PM.c **** 
  23:Generated_Source\PSoC4/Timer_PM.c **** 
  24:Generated_Source\PSoC4/Timer_PM.c **** /*******************************************************************************
  25:Generated_Source\PSoC4/Timer_PM.c **** * Function Name: Timer_SaveConfig
  26:Generated_Source\PSoC4/Timer_PM.c **** ********************************************************************************
  27:Generated_Source\PSoC4/Timer_PM.c **** *
  28:Generated_Source\PSoC4/Timer_PM.c **** * Summary:
  29:Generated_Source\PSoC4/Timer_PM.c **** *  All configuration registers are retention. Nothing to save here.
  30:Generated_Source\PSoC4/Timer_PM.c **** *
  31:Generated_Source\PSoC4/Timer_PM.c **** * Parameters:
  32:Generated_Source\PSoC4/Timer_PM.c **** *  None
  33:Generated_Source\PSoC4/Timer_PM.c **** *
  34:Generated_Source\PSoC4/Timer_PM.c **** * Return:
  35:Generated_Source\PSoC4/Timer_PM.c **** *  None
  36:Generated_Source\PSoC4/Timer_PM.c **** *
  37:Generated_Source\PSoC4/Timer_PM.c **** *******************************************************************************/
  38:Generated_Source\PSoC4/Timer_PM.c **** void Timer_SaveConfig(void)
  39:Generated_Source\PSoC4/Timer_PM.c **** {
  40:Generated_Source\PSoC4/Timer_PM.c **** 
  41:Generated_Source\PSoC4/Timer_PM.c **** }
  42:Generated_Source\PSoC4/Timer_PM.c **** 
  43:Generated_Source\PSoC4/Timer_PM.c **** 
  44:Generated_Source\PSoC4/Timer_PM.c **** /*******************************************************************************
  45:Generated_Source\PSoC4/Timer_PM.c **** * Function Name: Timer_Sleep
  46:Generated_Source\PSoC4/Timer_PM.c **** ********************************************************************************
  47:Generated_Source\PSoC4/Timer_PM.c **** *
  48:Generated_Source\PSoC4/Timer_PM.c **** * Summary:
  49:Generated_Source\PSoC4/Timer_PM.c **** *  Stops the component operation and saves the user configuration.
  50:Generated_Source\PSoC4/Timer_PM.c **** *
  51:Generated_Source\PSoC4/Timer_PM.c **** * Parameters:
  52:Generated_Source\PSoC4/Timer_PM.c **** *  None
  53:Generated_Source\PSoC4/Timer_PM.c **** *
  54:Generated_Source\PSoC4/Timer_PM.c **** * Return:
  55:Generated_Source\PSoC4/Timer_PM.c **** *  None
  56:Generated_Source\PSoC4/Timer_PM.c **** *
  57:Generated_Source\PSoC4/Timer_PM.c **** *******************************************************************************/
  58:Generated_Source\PSoC4/Timer_PM.c **** void Timer_Sleep(void)
  59:Generated_Source\PSoC4/Timer_PM.c **** {
  45              		.loc 1 59 0
  46              		.cfi_startproc
  47              		@ args = 0, pretend = 0, frame = 0
  48              		@ frame_needed = 0, uses_anonymous_args = 0
  60:Generated_Source\PSoC4/Timer_PM.c ****     if(0u != (Timer_BLOCK_CONTROL_REG & Timer_MASK))
  49              		.loc 1 60 0
  50 0000 0121     		movs	r1, #1
  51 0002 064B     		ldr	r3, .L6
  59:Generated_Source\PSoC4/Timer_PM.c ****     if(0u != (Timer_BLOCK_CONTROL_REG & Timer_MASK))
  52              		.loc 1 59 0
  53 0004 10B5     		push	{r4, lr}
ARM GAS  C:\Users\Greg\AppData\Local\Temp\ccrvUqGC.s 			page 3


  54              		.cfi_def_cfa_offset 8
  55              		.cfi_offset 4, -8
  56              		.cfi_offset 14, -4
  57              		.loc 1 60 0
  58 0006 1B68     		ldr	r3, [r3]
  59 0008 054A     		ldr	r2, .L6+4
  60 000a 0B40     		ands	r3, r1
  61 000c 01D0     		beq	.L3
  61:Generated_Source\PSoC4/Timer_PM.c ****     {
  62:Generated_Source\PSoC4/Timer_PM.c ****         Timer_backup.enableState = 1u;
  62              		.loc 1 62 0
  63 000e 1170     		strb	r1, [r2]
  64 0010 00E0     		b	.L4
  65              	.L3:
  63:Generated_Source\PSoC4/Timer_PM.c ****     }
  64:Generated_Source\PSoC4/Timer_PM.c ****     else
  65:Generated_Source\PSoC4/Timer_PM.c ****     {
  66:Generated_Source\PSoC4/Timer_PM.c ****         Timer_backup.enableState = 0u;
  66              		.loc 1 66 0
  67 0012 1370     		strb	r3, [r2]
  68              	.L4:
  67:Generated_Source\PSoC4/Timer_PM.c ****     }
  68:Generated_Source\PSoC4/Timer_PM.c **** 
  69:Generated_Source\PSoC4/Timer_PM.c ****     Timer_Stop();
  69              		.loc 1 69 0
  70 0014 FFF7FEFF 		bl	Timer_Stop
  71              	.LVL0:
  70:Generated_Source\PSoC4/Timer_PM.c ****     Timer_SaveConfig();
  71:Generated_Source\PSoC4/Timer_PM.c **** }
  72              		.loc 1 71 0
  73              		@ sp needed
  74 0018 10BD     		pop	{r4, pc}
  75              	.L7:
  76 001a C046     		.align	2
  77              	.L6:
  78 001c 00002040 		.word	1075838976
  79 0020 00000000 		.word	.LANCHOR0
  80              		.cfi_endproc
  81              	.LFE2:
  82              		.size	Timer_Sleep, .-Timer_Sleep
  83              		.section	.text.Timer_RestoreConfig,"ax",%progbits
  84              		.align	1
  85              		.global	Timer_RestoreConfig
  86              		.code	16
  87              		.thumb_func
  88              		.type	Timer_RestoreConfig, %function
  89              	Timer_RestoreConfig:
  90              	.LFB3:
  72:Generated_Source\PSoC4/Timer_PM.c **** 
  73:Generated_Source\PSoC4/Timer_PM.c **** 
  74:Generated_Source\PSoC4/Timer_PM.c **** /*******************************************************************************
  75:Generated_Source\PSoC4/Timer_PM.c **** * Function Name: Timer_RestoreConfig
  76:Generated_Source\PSoC4/Timer_PM.c **** ********************************************************************************
  77:Generated_Source\PSoC4/Timer_PM.c **** *
  78:Generated_Source\PSoC4/Timer_PM.c **** * Summary:
  79:Generated_Source\PSoC4/Timer_PM.c **** *  All configuration registers are retention. Nothing to restore here.
  80:Generated_Source\PSoC4/Timer_PM.c **** *
ARM GAS  C:\Users\Greg\AppData\Local\Temp\ccrvUqGC.s 			page 4


  81:Generated_Source\PSoC4/Timer_PM.c **** * Parameters:
  82:Generated_Source\PSoC4/Timer_PM.c **** *  None
  83:Generated_Source\PSoC4/Timer_PM.c **** *
  84:Generated_Source\PSoC4/Timer_PM.c **** * Return:
  85:Generated_Source\PSoC4/Timer_PM.c **** *  None
  86:Generated_Source\PSoC4/Timer_PM.c **** *
  87:Generated_Source\PSoC4/Timer_PM.c **** *******************************************************************************/
  88:Generated_Source\PSoC4/Timer_PM.c **** void Timer_RestoreConfig(void)
  89:Generated_Source\PSoC4/Timer_PM.c **** {
  91              		.loc 1 89 0
  92              		.cfi_startproc
  93              		@ args = 0, pretend = 0, frame = 0
  94              		@ frame_needed = 0, uses_anonymous_args = 0
  95              		@ link register save eliminated.
  90:Generated_Source\PSoC4/Timer_PM.c **** 
  91:Generated_Source\PSoC4/Timer_PM.c **** }
  96              		.loc 1 91 0
  97              		@ sp needed
  98 0000 7047     		bx	lr
  99              		.cfi_endproc
 100              	.LFE3:
 101              		.size	Timer_RestoreConfig, .-Timer_RestoreConfig
 102              		.section	.text.Timer_Wakeup,"ax",%progbits
 103              		.align	1
 104              		.global	Timer_Wakeup
 105              		.code	16
 106              		.thumb_func
 107              		.type	Timer_Wakeup, %function
 108              	Timer_Wakeup:
 109              	.LFB4:
  92:Generated_Source\PSoC4/Timer_PM.c **** 
  93:Generated_Source\PSoC4/Timer_PM.c **** 
  94:Generated_Source\PSoC4/Timer_PM.c **** /*******************************************************************************
  95:Generated_Source\PSoC4/Timer_PM.c **** * Function Name: Timer_Wakeup
  96:Generated_Source\PSoC4/Timer_PM.c **** ********************************************************************************
  97:Generated_Source\PSoC4/Timer_PM.c **** *
  98:Generated_Source\PSoC4/Timer_PM.c **** * Summary:
  99:Generated_Source\PSoC4/Timer_PM.c **** *  Restores the user configuration and restores the enable state.
 100:Generated_Source\PSoC4/Timer_PM.c **** *
 101:Generated_Source\PSoC4/Timer_PM.c **** * Parameters:
 102:Generated_Source\PSoC4/Timer_PM.c **** *  None
 103:Generated_Source\PSoC4/Timer_PM.c **** *
 104:Generated_Source\PSoC4/Timer_PM.c **** * Return:
 105:Generated_Source\PSoC4/Timer_PM.c **** *  None
 106:Generated_Source\PSoC4/Timer_PM.c **** *
 107:Generated_Source\PSoC4/Timer_PM.c **** *******************************************************************************/
 108:Generated_Source\PSoC4/Timer_PM.c **** void Timer_Wakeup(void)
 109:Generated_Source\PSoC4/Timer_PM.c **** {
 110              		.loc 1 109 0
 111              		.cfi_startproc
 112              		@ args = 0, pretend = 0, frame = 0
 113              		@ frame_needed = 0, uses_anonymous_args = 0
 114 0000 10B5     		push	{r4, lr}
 115              		.cfi_def_cfa_offset 8
 116              		.cfi_offset 4, -8
 117              		.cfi_offset 14, -4
 110:Generated_Source\PSoC4/Timer_PM.c ****     Timer_RestoreConfig();
ARM GAS  C:\Users\Greg\AppData\Local\Temp\ccrvUqGC.s 			page 5


 111:Generated_Source\PSoC4/Timer_PM.c **** 
 112:Generated_Source\PSoC4/Timer_PM.c ****     if(0u != Timer_backup.enableState)
 118              		.loc 1 112 0
 119 0002 034B     		ldr	r3, .L14
 120 0004 1B78     		ldrb	r3, [r3]
 121 0006 002B     		cmp	r3, #0
 122 0008 01D0     		beq	.L9
 113:Generated_Source\PSoC4/Timer_PM.c ****     {
 114:Generated_Source\PSoC4/Timer_PM.c ****         Timer_Enable();
 123              		.loc 1 114 0
 124 000a FFF7FEFF 		bl	Timer_Enable
 125              	.LVL1:
 126              	.L9:
 115:Generated_Source\PSoC4/Timer_PM.c ****     }
 116:Generated_Source\PSoC4/Timer_PM.c **** }
 127              		.loc 1 116 0
 128              		@ sp needed
 129 000e 10BD     		pop	{r4, pc}
 130              	.L15:
 131              		.align	2
 132              	.L14:
 133 0010 00000000 		.word	.LANCHOR0
 134              		.cfi_endproc
 135              	.LFE4:
 136              		.size	Timer_Wakeup, .-Timer_Wakeup
 137              		.bss
 138              		.set	.LANCHOR0,. + 0
 139              		.type	Timer_backup, %object
 140              		.size	Timer_backup, 1
 141              	Timer_backup:
 142 0000 00       		.space	1
 143              		.text
 144              	.Letext0:
 145              		.file 2 "Generated_Source\\PSoC4\\cytypes.h"
 146              		.file 3 "Generated_Source\\PSoC4\\Timer.h"