ARM GAS  C:\Users\Greg\AppData\Local\Temp\ccKiNYoa.s 			page 1


   1              		.syntax unified
   2              		.cpu cortex-m0
   3              		.fpu softvfp
   4              		.eabi_attribute 20, 1
   5              		.eabi_attribute 21, 1
   6              		.eabi_attribute 23, 3
   7              		.eabi_attribute 24, 1
   8              		.eabi_attribute 25, 1
   9              		.eabi_attribute 26, 1
  10              		.eabi_attribute 30, 4
  11              		.eabi_attribute 34, 0
  12              		.eabi_attribute 18, 4
  13              		.thumb
  14              		.syntax unified
  15              		.file	"u8g2_buffer.c"
  16              		.text
  17              	.Ltext0:
  18              		.cfi_sections	.debug_frame
  19              		.section	.text.u8g2_send_buffer,"ax",%progbits
  20              		.align	1
  21              		.code	16
  22              		.thumb_func
  23              		.type	u8g2_send_buffer, %function
  24              	u8g2_send_buffer:
  25              	.LFB2:
  26              		.file 1 "..\\..\\u8g2\\csrc\\u8g2_buffer.c"
   1:..\..\u8g2\csrc/u8g2_buffer.c **** /* 
   2:..\..\u8g2\csrc/u8g2_buffer.c **** 
   3:..\..\u8g2\csrc/u8g2_buffer.c ****   u8g2_buffer.c 
   4:..\..\u8g2\csrc/u8g2_buffer.c **** 
   5:..\..\u8g2\csrc/u8g2_buffer.c ****   Universal 8bit Graphics Library (https://github.com/olikraus/u8g2/)
   6:..\..\u8g2\csrc/u8g2_buffer.c **** 
   7:..\..\u8g2\csrc/u8g2_buffer.c ****   Copyright (c) 2016, olikraus@gmail.com
   8:..\..\u8g2\csrc/u8g2_buffer.c ****   All rights reserved.
   9:..\..\u8g2\csrc/u8g2_buffer.c **** 
  10:..\..\u8g2\csrc/u8g2_buffer.c ****   Redistribution and use in source and binary forms, with or without modification, 
  11:..\..\u8g2\csrc/u8g2_buffer.c ****   are permitted provided that the following conditions are met:
  12:..\..\u8g2\csrc/u8g2_buffer.c **** 
  13:..\..\u8g2\csrc/u8g2_buffer.c ****   * Redistributions of source code must retain the above copyright notice, this list 
  14:..\..\u8g2\csrc/u8g2_buffer.c ****     of conditions and the following disclaimer.
  15:..\..\u8g2\csrc/u8g2_buffer.c ****     
  16:..\..\u8g2\csrc/u8g2_buffer.c ****   * Redistributions in binary form must reproduce the above copyright notice, this 
  17:..\..\u8g2\csrc/u8g2_buffer.c ****     list of conditions and the following disclaimer in the documentation and/or other 
  18:..\..\u8g2\csrc/u8g2_buffer.c ****     materials provided with the distribution.
  19:..\..\u8g2\csrc/u8g2_buffer.c **** 
  20:..\..\u8g2\csrc/u8g2_buffer.c ****   THIS SOFTWARE IS PROVIDED BY THE COPYRIGHT HOLDERS AND 
  21:..\..\u8g2\csrc/u8g2_buffer.c ****   CONTRIBUTORS "AS IS" AND ANY EXPRESS OR IMPLIED WARRANTIES, 
  22:..\..\u8g2\csrc/u8g2_buffer.c ****   INCLUDING, BUT NOT LIMITED TO, THE IMPLIED WARRANTIES OF 
  23:..\..\u8g2\csrc/u8g2_buffer.c ****   MERCHANTABILITY AND FITNESS FOR A PARTICULAR PURPOSE ARE 
  24:..\..\u8g2\csrc/u8g2_buffer.c ****   DISCLAIMED. IN NO EVENT SHALL THE COPYRIGHT HOLDER OR 
  25:..\..\u8g2\csrc/u8g2_buffer.c ****   CONTRIBUTORS BE LIABLE FOR ANY DIRECT, INDIRECT, INCIDENTAL, 
  26:..\..\u8g2\csrc/u8g2_buffer.c ****   SPECIAL, EXEMPLARY, OR CONSEQUENTIAL DAMAGES (INCLUDING, BUT 
  27:..\..\u8g2\csrc/u8g2_buffer.c ****   NOT LIMITED TO, PROCUREMENT OF SUBSTITUTE GOODS OR SERVICES; 
  28:..\..\u8g2\csrc/u8g2_buffer.c ****   LOSS OF USE, DATA, OR PROFITS; OR BUSINESS INTERRUPTION) HOWEVER 
  29:..\..\u8g2\csrc/u8g2_buffer.c ****   CAUSED AND ON ANY THEORY OF LIABILITY, WHETHER IN CONTRACT, 
  30:..\..\u8g2\csrc/u8g2_buffer.c ****   STRICT LIABILITY, OR TORT (INCLUDING NEGLIGENCE OR OTHERWISE) 
  31:..\..\u8g2\csrc/u8g2_buffer.c ****   ARISING IN ANY WAY OUT OF THE USE OF THIS SOFTWARE, EVEN IF 
ARM GAS  C:\Users\Greg\AppData\Local\Temp\ccKiNYoa.s 			page 2


  32:..\..\u8g2\csrc/u8g2_buffer.c ****   ADVISED OF THE POSSIBILITY OF SUCH DAMAGE.  
  33:..\..\u8g2\csrc/u8g2_buffer.c **** 
  34:..\..\u8g2\csrc/u8g2_buffer.c **** */
  35:..\..\u8g2\csrc/u8g2_buffer.c **** 
  36:..\..\u8g2\csrc/u8g2_buffer.c **** #include "u8g2.h"
  37:..\..\u8g2\csrc/u8g2_buffer.c **** #include <string.h>
  38:..\..\u8g2\csrc/u8g2_buffer.c **** 
  39:..\..\u8g2\csrc/u8g2_buffer.c **** /*============================================*/
  40:..\..\u8g2\csrc/u8g2_buffer.c **** void u8g2_ClearBuffer(u8g2_t *u8g2)
  41:..\..\u8g2\csrc/u8g2_buffer.c **** {
  42:..\..\u8g2\csrc/u8g2_buffer.c ****   size_t cnt;
  43:..\..\u8g2\csrc/u8g2_buffer.c ****   cnt = u8g2_GetU8x8(u8g2)->display_info->tile_width;
  44:..\..\u8g2\csrc/u8g2_buffer.c ****   cnt *= u8g2->tile_buf_height;
  45:..\..\u8g2\csrc/u8g2_buffer.c ****   cnt *= 8;
  46:..\..\u8g2\csrc/u8g2_buffer.c ****   memset(u8g2->tile_buf_ptr, 0, cnt);
  47:..\..\u8g2\csrc/u8g2_buffer.c **** }
  48:..\..\u8g2\csrc/u8g2_buffer.c **** 
  49:..\..\u8g2\csrc/u8g2_buffer.c **** /*============================================*/
  50:..\..\u8g2\csrc/u8g2_buffer.c **** 
  51:..\..\u8g2\csrc/u8g2_buffer.c **** static void u8g2_send_tile_row(u8g2_t *u8g2, uint8_t src_tile_row, uint8_t dest_tile_row)
  52:..\..\u8g2\csrc/u8g2_buffer.c **** {
  53:..\..\u8g2\csrc/u8g2_buffer.c ****   uint8_t *ptr;
  54:..\..\u8g2\csrc/u8g2_buffer.c ****   uint16_t offset;
  55:..\..\u8g2\csrc/u8g2_buffer.c ****   uint8_t w;
  56:..\..\u8g2\csrc/u8g2_buffer.c ****   
  57:..\..\u8g2\csrc/u8g2_buffer.c ****   w = u8g2_GetU8x8(u8g2)->display_info->tile_width;
  58:..\..\u8g2\csrc/u8g2_buffer.c ****   offset = src_tile_row;
  59:..\..\u8g2\csrc/u8g2_buffer.c ****   ptr = u8g2->tile_buf_ptr;
  60:..\..\u8g2\csrc/u8g2_buffer.c ****   offset *= w;
  61:..\..\u8g2\csrc/u8g2_buffer.c ****   offset *= 8;
  62:..\..\u8g2\csrc/u8g2_buffer.c ****   ptr += offset;
  63:..\..\u8g2\csrc/u8g2_buffer.c ****   u8x8_DrawTile(u8g2_GetU8x8(u8g2), 0, dest_tile_row, w, ptr);
  64:..\..\u8g2\csrc/u8g2_buffer.c **** }
  65:..\..\u8g2\csrc/u8g2_buffer.c **** 
  66:..\..\u8g2\csrc/u8g2_buffer.c **** /* 
  67:..\..\u8g2\csrc/u8g2_buffer.c ****   write the buffer to the display RAM. 
  68:..\..\u8g2\csrc/u8g2_buffer.c ****   For most displays, this will make the content visible to the user.
  69:..\..\u8g2\csrc/u8g2_buffer.c ****   Some displays (like the SSD1606) require a u8x8_RefreshDisplay()
  70:..\..\u8g2\csrc/u8g2_buffer.c **** */
  71:..\..\u8g2\csrc/u8g2_buffer.c **** static void u8g2_send_buffer(u8g2_t *u8g2) U8X8_NOINLINE;
  72:..\..\u8g2\csrc/u8g2_buffer.c **** static void u8g2_send_buffer(u8g2_t *u8g2)
  73:..\..\u8g2\csrc/u8g2_buffer.c **** {
  27              		.loc 1 73 0
  28              		.cfi_startproc
  29              		@ args = 0, pretend = 0, frame = 8
  30              		@ frame_needed = 0, uses_anonymous_args = 0
  31              	.LVL0:
  74:..\..\u8g2\csrc/u8g2_buffer.c ****   uint8_t src_row;
  75:..\..\u8g2\csrc/u8g2_buffer.c ****   uint8_t src_max;
  76:..\..\u8g2\csrc/u8g2_buffer.c ****   uint8_t dest_row;
  77:..\..\u8g2\csrc/u8g2_buffer.c ****   uint8_t dest_max;
  78:..\..\u8g2\csrc/u8g2_buffer.c **** 
  79:..\..\u8g2\csrc/u8g2_buffer.c ****   src_row = 0;
  80:..\..\u8g2\csrc/u8g2_buffer.c ****   src_max = u8g2->tile_buf_height;
  32              		.loc 1 80 0
  33 0000 0300     		movs	r3, r0
  73:..\..\u8g2\csrc/u8g2_buffer.c ****   uint8_t src_row;
ARM GAS  C:\Users\Greg\AppData\Local\Temp\ccKiNYoa.s 			page 3


  34              		.loc 1 73 0
  35 0002 F0B5     		push	{r4, r5, r6, r7, lr}
  36              		.cfi_def_cfa_offset 20
  37              		.cfi_offset 4, -20
  38              		.cfi_offset 5, -16
  39              		.cfi_offset 6, -12
  40              		.cfi_offset 7, -8
  41              		.cfi_offset 14, -4
  42              		.loc 1 80 0
  43 0004 3833     		adds	r3, r3, #56
  44 0006 1B78     		ldrb	r3, [r3]
  73:..\..\u8g2\csrc/u8g2_buffer.c ****   uint8_t src_row;
  45              		.loc 1 73 0
  46 0008 85B0     		sub	sp, sp, #20
  47              		.cfi_def_cfa_offset 40
  48              		.loc 1 80 0
  49 000a 0293     		str	r3, [sp, #8]
  50              	.LVL1:
  81:..\..\u8g2\csrc/u8g2_buffer.c ****   dest_row = u8g2->tile_curr_row;
  51              		.loc 1 81 0
  52 000c 0300     		movs	r3, r0
  73:..\..\u8g2\csrc/u8g2_buffer.c ****   uint8_t src_row;
  53              		.loc 1 73 0
  54 000e 0500     		movs	r5, r0
  82:..\..\u8g2\csrc/u8g2_buffer.c ****   dest_max = u8g2_GetU8x8(u8g2)->display_info->tile_height;
  55              		.loc 1 82 0
  56 0010 0026     		movs	r6, #0
  81:..\..\u8g2\csrc/u8g2_buffer.c ****   dest_row = u8g2->tile_curr_row;
  57              		.loc 1 81 0
  58 0012 3933     		adds	r3, r3, #57
  59 0014 1F78     		ldrb	r7, [r3]
  60              	.LVL2:
  61              		.loc 1 82 0
  62 0016 0368     		ldr	r3, [r0]
  63 0018 5B7C     		ldrb	r3, [r3, #17]
  64 001a 0393     		str	r3, [sp, #12]
  65              	.LVL3:
  66              	.L3:
  67              	.LBB4:
  68              	.LBB5:
  57:..\..\u8g2\csrc/u8g2_buffer.c ****   offset = src_tile_row;
  69              		.loc 1 57 0 discriminator 2
  70 001c 2B68     		ldr	r3, [r5]
  58:..\..\u8g2\csrc/u8g2_buffer.c ****   ptr = u8g2->tile_buf_ptr;
  71              		.loc 1 58 0 discriminator 2
  72 001e B1B2     		uxth	r1, r6
  57:..\..\u8g2\csrc/u8g2_buffer.c ****   offset = src_tile_row;
  73              		.loc 1 57 0 discriminator 2
  74 0020 1B7C     		ldrb	r3, [r3, #16]
  75 0022 F4B2     		uxtb	r4, r6
  76              	.LVL4:
  63:..\..\u8g2\csrc/u8g2_buffer.c **** }
  77              		.loc 1 63 0 discriminator 2
  78 0024 D800     		lsls	r0, r3, #3
  79 0026 4143     		muls	r1, r0
  80 0028 686B     		ldr	r0, [r5, #52]
  81 002a 89B2     		uxth	r1, r1
ARM GAS  C:\Users\Greg\AppData\Local\Temp\ccKiNYoa.s 			page 4


  82 002c 4118     		adds	r1, r0, r1
  83 002e 3A19     		adds	r2, r7, r4
  84 0030 0091     		str	r1, [sp]
  85 0032 D2B2     		uxtb	r2, r2
  86 0034 0021     		movs	r1, #0
  87 0036 2800     		movs	r0, r5
  88 0038 FFF7FEFF 		bl	u8x8_DrawTile
  89              	.LVL5:
  90              	.LBE5:
  91              	.LBE4:
  83:..\..\u8g2\csrc/u8g2_buffer.c ****   
  84:..\..\u8g2\csrc/u8g2_buffer.c ****   do
  85:..\..\u8g2\csrc/u8g2_buffer.c ****   {
  86:..\..\u8g2\csrc/u8g2_buffer.c ****     u8g2_send_tile_row(u8g2, src_row, dest_row);
  87:..\..\u8g2\csrc/u8g2_buffer.c ****     src_row++;
  88:..\..\u8g2\csrc/u8g2_buffer.c ****     dest_row++;
  89:..\..\u8g2\csrc/u8g2_buffer.c ****   } while( src_row < src_max && dest_row < dest_max );
  92              		.loc 1 89 0 discriminator 2
  93 003c 0134     		adds	r4, r4, #1
  94 003e 029B     		ldr	r3, [sp, #8]
  95 0040 E4B2     		uxtb	r4, r4
  96 0042 A342     		cmp	r3, r4
  97 0044 05D9     		bls	.L1
  98 0046 0136     		adds	r6, r6, #1
  99              	.LVL6:
 100              		.loc 1 89 0 is_stmt 0 discriminator 1
 101 0048 BB19     		adds	r3, r7, r6
 102 004a 039A     		ldr	r2, [sp, #12]
 103 004c DBB2     		uxtb	r3, r3
 104 004e 9A42     		cmp	r2, r3
 105 0050 E4D8     		bhi	.L3
 106              	.L1:
  90:..\..\u8g2\csrc/u8g2_buffer.c **** }
 107              		.loc 1 90 0 is_stmt 1
 108 0052 05B0     		add	sp, sp, #20
 109              		@ sp needed
 110              	.LVL7:
 111 0054 F0BD     		pop	{r4, r5, r6, r7, pc}
 112              		.cfi_endproc
 113              	.LFE2:
 114              		.size	u8g2_send_buffer, .-u8g2_send_buffer
 115              		.section	.text.u8g2_ClearBuffer,"ax",%progbits
 116              		.align	1
 117              		.global	u8g2_ClearBuffer
 118              		.code	16
 119              		.thumb_func
 120              		.type	u8g2_ClearBuffer, %function
 121              	u8g2_ClearBuffer:
 122              	.LFB0:
  41:..\..\u8g2\csrc/u8g2_buffer.c ****   size_t cnt;
 123              		.loc 1 41 0
 124              		.cfi_startproc
 125              		@ args = 0, pretend = 0, frame = 0
 126              		@ frame_needed = 0, uses_anonymous_args = 0
 127              	.LVL8:
  44:..\..\u8g2\csrc/u8g2_buffer.c ****   cnt *= 8;
 128              		.loc 1 44 0
ARM GAS  C:\Users\Greg\AppData\Local\Temp\ccKiNYoa.s 			page 5


 129 0000 0200     		movs	r2, r0
  41:..\..\u8g2\csrc/u8g2_buffer.c ****   size_t cnt;
 130              		.loc 1 41 0
 131 0002 10B5     		push	{r4, lr}
 132              		.cfi_def_cfa_offset 8
 133              		.cfi_offset 4, -8
 134              		.cfi_offset 14, -4
  43:..\..\u8g2\csrc/u8g2_buffer.c ****   cnt *= u8g2->tile_buf_height;
 135              		.loc 1 43 0
 136 0004 0368     		ldr	r3, [r0]
  44:..\..\u8g2\csrc/u8g2_buffer.c ****   cnt *= 8;
 137              		.loc 1 44 0
 138 0006 3832     		adds	r2, r2, #56
  43:..\..\u8g2\csrc/u8g2_buffer.c ****   cnt *= u8g2->tile_buf_height;
 139              		.loc 1 43 0
 140 0008 1B7C     		ldrb	r3, [r3, #16]
 141              	.LVL9:
  44:..\..\u8g2\csrc/u8g2_buffer.c ****   cnt *= 8;
 142              		.loc 1 44 0
 143 000a 1278     		ldrb	r2, [r2]
  46:..\..\u8g2\csrc/u8g2_buffer.c **** }
 144              		.loc 1 46 0
 145 000c 406B     		ldr	r0, [r0, #52]
 146              	.LVL10:
  44:..\..\u8g2\csrc/u8g2_buffer.c ****   cnt *= 8;
 147              		.loc 1 44 0
 148 000e 5A43     		muls	r2, r3
 149              	.LVL11:
  46:..\..\u8g2\csrc/u8g2_buffer.c **** }
 150              		.loc 1 46 0
 151 0010 0021     		movs	r1, #0
 152 0012 D200     		lsls	r2, r2, #3
 153              	.LVL12:
 154 0014 FFF7FEFF 		bl	memset
 155              	.LVL13:
  47:..\..\u8g2\csrc/u8g2_buffer.c **** 
 156              		.loc 1 47 0
 157              		@ sp needed
 158 0018 10BD     		pop	{r4, pc}
 159              		.cfi_endproc
 160              	.LFE0:
 161              		.size	u8g2_ClearBuffer, .-u8g2_ClearBuffer
 162              		.section	.text.u8g2_SendBuffer,"ax",%progbits
 163              		.align	1
 164              		.global	u8g2_SendBuffer
 165              		.code	16
 166              		.thumb_func
 167              		.type	u8g2_SendBuffer, %function
 168              	u8g2_SendBuffer:
 169              	.LFB3:
  91:..\..\u8g2\csrc/u8g2_buffer.c **** 
  92:..\..\u8g2\csrc/u8g2_buffer.c **** /* same as u8g2_send_buffer but also send the DISPLAY_REFRESH message (used by SSD1606) */
  93:..\..\u8g2\csrc/u8g2_buffer.c **** void u8g2_SendBuffer(u8g2_t *u8g2)
  94:..\..\u8g2\csrc/u8g2_buffer.c **** {
 170              		.loc 1 94 0
 171              		.cfi_startproc
 172              		@ args = 0, pretend = 0, frame = 0
ARM GAS  C:\Users\Greg\AppData\Local\Temp\ccKiNYoa.s 			page 6


 173              		@ frame_needed = 0, uses_anonymous_args = 0
 174              	.LVL14:
 175 0000 10B5     		push	{r4, lr}
 176              		.cfi_def_cfa_offset 8
 177              		.cfi_offset 4, -8
 178              		.cfi_offset 14, -4
 179              		.loc 1 94 0
 180 0002 0400     		movs	r4, r0
  95:..\..\u8g2\csrc/u8g2_buffer.c ****   u8g2_send_buffer(u8g2);
 181              		.loc 1 95 0
 182 0004 FFF7FEFF 		bl	u8g2_send_buffer
 183              	.LVL15:
  96:..\..\u8g2\csrc/u8g2_buffer.c ****   u8x8_RefreshDisplay( u8g2_GetU8x8(u8g2) );  
 184              		.loc 1 96 0
 185 0008 2000     		movs	r0, r4
 186 000a FFF7FEFF 		bl	u8x8_RefreshDisplay
 187              	.LVL16:
  97:..\..\u8g2\csrc/u8g2_buffer.c **** }
 188              		.loc 1 97 0
 189              		@ sp needed
 190              	.LVL17:
 191 000e 10BD     		pop	{r4, pc}
 192              		.cfi_endproc
 193              	.LFE3:
 194              		.size	u8g2_SendBuffer, .-u8g2_SendBuffer
 195              		.section	.text.u8g2_SetBufferCurrTileRow,"ax",%progbits
 196              		.align	1
 197              		.global	u8g2_SetBufferCurrTileRow
 198              		.code	16
 199              		.thumb_func
 200              		.type	u8g2_SetBufferCurrTileRow, %function
 201              	u8g2_SetBufferCurrTileRow:
 202              	.LFB4:
  98:..\..\u8g2\csrc/u8g2_buffer.c **** 
  99:..\..\u8g2\csrc/u8g2_buffer.c **** /*============================================*/
 100:..\..\u8g2\csrc/u8g2_buffer.c **** void u8g2_SetBufferCurrTileRow(u8g2_t *u8g2, uint8_t row)
 101:..\..\u8g2\csrc/u8g2_buffer.c **** {
 203              		.loc 1 101 0
 204              		.cfi_startproc
 205              		@ args = 0, pretend = 0, frame = 0
 206              		@ frame_needed = 0, uses_anonymous_args = 0
 207              	.LVL18:
 102:..\..\u8g2\csrc/u8g2_buffer.c ****   u8g2->tile_curr_row = row;
 208              		.loc 1 102 0
 209 0000 0300     		movs	r3, r0
 101:..\..\u8g2\csrc/u8g2_buffer.c ****   u8g2->tile_curr_row = row;
 210              		.loc 1 101 0
 211 0002 10B5     		push	{r4, lr}
 212              		.cfi_def_cfa_offset 8
 213              		.cfi_offset 4, -8
 214              		.cfi_offset 14, -4
 215              		.loc 1 102 0
 216 0004 3933     		adds	r3, r3, #57
 217 0006 1970     		strb	r1, [r3]
 103:..\..\u8g2\csrc/u8g2_buffer.c ****   u8g2->cb->update(u8g2);
 218              		.loc 1 103 0
 219 0008 036B     		ldr	r3, [r0, #48]
ARM GAS  C:\Users\Greg\AppData\Local\Temp\ccKiNYoa.s 			page 7


 104:..\..\u8g2\csrc/u8g2_buffer.c **** }
 220              		.loc 1 104 0
 221              		@ sp needed
 103:..\..\u8g2\csrc/u8g2_buffer.c ****   u8g2->cb->update(u8g2);
 222              		.loc 1 103 0
 223 000a 1B68     		ldr	r3, [r3]
 224 000c 9847     		blx	r3
 225              	.LVL19:
 226              		.loc 1 104 0
 227 000e 10BD     		pop	{r4, pc}
 228              		.cfi_endproc
 229              	.LFE4:
 230              		.size	u8g2_SetBufferCurrTileRow, .-u8g2_SetBufferCurrTileRow
 231              		.section	.text.u8g2_FirstPage,"ax",%progbits
 232              		.align	1
 233              		.global	u8g2_FirstPage
 234              		.code	16
 235              		.thumb_func
 236              		.type	u8g2_FirstPage, %function
 237              	u8g2_FirstPage:
 238              	.LFB5:
 105:..\..\u8g2\csrc/u8g2_buffer.c **** 
 106:..\..\u8g2\csrc/u8g2_buffer.c **** void u8g2_FirstPage(u8g2_t *u8g2)
 107:..\..\u8g2\csrc/u8g2_buffer.c **** {
 239              		.loc 1 107 0
 240              		.cfi_startproc
 241              		@ args = 0, pretend = 0, frame = 0
 242              		@ frame_needed = 0, uses_anonymous_args = 0
 243              	.LVL20:
 108:..\..\u8g2\csrc/u8g2_buffer.c ****   if ( u8g2->is_auto_page_clear )
 244              		.loc 1 108 0
 245 0000 0300     		movs	r3, r0
 107:..\..\u8g2\csrc/u8g2_buffer.c ****   if ( u8g2->is_auto_page_clear )
 246              		.loc 1 107 0
 247 0002 10B5     		push	{r4, lr}
 248              		.cfi_def_cfa_offset 8
 249              		.cfi_offset 4, -8
 250              		.cfi_offset 14, -4
 251              		.loc 1 108 0
 252 0004 7D33     		adds	r3, r3, #125
 253 0006 1B78     		ldrb	r3, [r3]
 107:..\..\u8g2\csrc/u8g2_buffer.c ****   if ( u8g2->is_auto_page_clear )
 254              		.loc 1 107 0
 255 0008 0400     		movs	r4, r0
 256              		.loc 1 108 0
 257 000a 002B     		cmp	r3, #0
 258 000c 01D0     		beq	.L10
 109:..\..\u8g2\csrc/u8g2_buffer.c ****   {
 110:..\..\u8g2\csrc/u8g2_buffer.c ****     u8g2_ClearBuffer(u8g2);
 259              		.loc 1 110 0
 260 000e FFF7FEFF 		bl	u8g2_ClearBuffer
 261              	.LVL21:
 262              	.L10:
 111:..\..\u8g2\csrc/u8g2_buffer.c ****   }
 112:..\..\u8g2\csrc/u8g2_buffer.c ****   u8g2_SetBufferCurrTileRow(u8g2, 0);
 263              		.loc 1 112 0
 264 0012 0021     		movs	r1, #0
ARM GAS  C:\Users\Greg\AppData\Local\Temp\ccKiNYoa.s 			page 8


 265 0014 2000     		movs	r0, r4
 266 0016 FFF7FEFF 		bl	u8g2_SetBufferCurrTileRow
 267              	.LVL22:
 113:..\..\u8g2\csrc/u8g2_buffer.c **** }
 268              		.loc 1 113 0
 269              		@ sp needed
 270              	.LVL23:
 271 001a 10BD     		pop	{r4, pc}
 272              		.cfi_endproc
 273              	.LFE5:
 274              		.size	u8g2_FirstPage, .-u8g2_FirstPage
 275              		.section	.text.u8g2_NextPage,"ax",%progbits
 276              		.align	1
 277              		.global	u8g2_NextPage
 278              		.code	16
 279              		.thumb_func
 280              		.type	u8g2_NextPage, %function
 281              	u8g2_NextPage:
 282              	.LFB6:
 114:..\..\u8g2\csrc/u8g2_buffer.c **** 
 115:..\..\u8g2\csrc/u8g2_buffer.c **** uint8_t u8g2_NextPage(u8g2_t *u8g2)
 116:..\..\u8g2\csrc/u8g2_buffer.c **** {
 283              		.loc 1 116 0
 284              		.cfi_startproc
 285              		@ args = 0, pretend = 0, frame = 0
 286              		@ frame_needed = 0, uses_anonymous_args = 0
 287              	.LVL24:
 288 0000 70B5     		push	{r4, r5, r6, lr}
 289              		.cfi_def_cfa_offset 16
 290              		.cfi_offset 4, -16
 291              		.cfi_offset 5, -12
 292              		.cfi_offset 6, -8
 293              		.cfi_offset 14, -4
 294              		.loc 1 116 0
 295 0002 0400     		movs	r4, r0
 117:..\..\u8g2\csrc/u8g2_buffer.c ****   uint8_t row;
 118:..\..\u8g2\csrc/u8g2_buffer.c ****   u8g2_send_buffer(u8g2);
 296              		.loc 1 118 0
 297 0004 FFF7FEFF 		bl	u8g2_send_buffer
 298              	.LVL25:
 119:..\..\u8g2\csrc/u8g2_buffer.c ****   row = u8g2->tile_curr_row;
 299              		.loc 1 119 0
 300 0008 2300     		movs	r3, r4
 301 000a 3933     		adds	r3, r3, #57
 302 000c 1D78     		ldrb	r5, [r3]
 303              	.LVL26:
 120:..\..\u8g2\csrc/u8g2_buffer.c ****   row += u8g2->tile_buf_height;
 304              		.loc 1 120 0
 305 000e 013B     		subs	r3, r3, #1
 306 0010 1B78     		ldrb	r3, [r3]
 307 0012 ED18     		adds	r5, r5, r3
 308              	.LVL27:
 121:..\..\u8g2\csrc/u8g2_buffer.c ****   if ( row >= u8g2_GetU8x8(u8g2)->display_info->tile_height )
 309              		.loc 1 121 0
 310 0014 2368     		ldr	r3, [r4]
 120:..\..\u8g2\csrc/u8g2_buffer.c ****   row += u8g2->tile_buf_height;
 311              		.loc 1 120 0
ARM GAS  C:\Users\Greg\AppData\Local\Temp\ccKiNYoa.s 			page 9


 312 0016 EDB2     		uxtb	r5, r5
 313              	.LVL28:
 314              		.loc 1 121 0
 315 0018 5B7C     		ldrb	r3, [r3, #17]
 316 001a AB42     		cmp	r3, r5
 317 001c 04D8     		bhi	.L15
 122:..\..\u8g2\csrc/u8g2_buffer.c ****   {
 123:..\..\u8g2\csrc/u8g2_buffer.c ****     u8x8_RefreshDisplay( u8g2_GetU8x8(u8g2) );
 318              		.loc 1 123 0
 319 001e 2000     		movs	r0, r4
 320 0020 FFF7FEFF 		bl	u8x8_RefreshDisplay
 321              	.LVL29:
 124:..\..\u8g2\csrc/u8g2_buffer.c ****     return 0;
 322              		.loc 1 124 0
 323 0024 0020     		movs	r0, #0
 324 0026 0CE0     		b	.L16
 325              	.L15:
 125:..\..\u8g2\csrc/u8g2_buffer.c ****   }
 126:..\..\u8g2\csrc/u8g2_buffer.c ****   if ( u8g2->is_auto_page_clear )
 326              		.loc 1 126 0
 327 0028 2300     		movs	r3, r4
 328 002a 7D33     		adds	r3, r3, #125
 329 002c 1B78     		ldrb	r3, [r3]
 330 002e 002B     		cmp	r3, #0
 331 0030 02D0     		beq	.L17
 127:..\..\u8g2\csrc/u8g2_buffer.c ****   {
 128:..\..\u8g2\csrc/u8g2_buffer.c ****     u8g2_ClearBuffer(u8g2);
 332              		.loc 1 128 0
 333 0032 2000     		movs	r0, r4
 334 0034 FFF7FEFF 		bl	u8g2_ClearBuffer
 335              	.LVL30:
 336              	.L17:
 129:..\..\u8g2\csrc/u8g2_buffer.c ****   }
 130:..\..\u8g2\csrc/u8g2_buffer.c ****   u8g2_SetBufferCurrTileRow(u8g2, row);
 337              		.loc 1 130 0
 338 0038 2000     		movs	r0, r4
 339 003a 2900     		movs	r1, r5
 340 003c FFF7FEFF 		bl	u8g2_SetBufferCurrTileRow
 341              	.LVL31:
 131:..\..\u8g2\csrc/u8g2_buffer.c ****   return 1;
 342              		.loc 1 131 0
 343 0040 0120     		movs	r0, #1
 344              	.L16:
 132:..\..\u8g2\csrc/u8g2_buffer.c **** }
 345              		.loc 1 132 0
 346              		@ sp needed
 347              	.LVL32:
 348              	.LVL33:
 349 0042 70BD     		pop	{r4, r5, r6, pc}
 350              		.cfi_endproc
 351              	.LFE6:
 352              		.size	u8g2_NextPage, .-u8g2_NextPage
 353              		.text
 354              	.Letext0:
 355              		.file 2 "c:\\program files\\cypress\\psoc creator\\4.1\\psoc creator\\import\\gnu\\arm\\5.4.1\\arm
 356              		.file 3 "c:\\program files\\cypress\\psoc creator\\4.1\\psoc creator\\import\\gnu\\arm\\5.4.1\\arm
 357              		.file 4 "c:\\program files\\cypress\\psoc creator\\4.1\\psoc creator\\import\\gnu\\arm\\5.4.1\\lib
ARM GAS  C:\Users\Greg\AppData\Local\Temp\ccKiNYoa.s 			page 10


 358              		.file 5 "..\\..\\u8g2\\csrc\\u8x8.h"
 359              		.file 6 "..\\..\\u8g2\\csrc\\u8g2.h"