ARM GAS  C:\Users\gjl\AppData\Local\Temp\ccpW6OWK.s 			page 1


   1              		.syntax unified
   2              		.cpu cortex-m0
   3              		.fpu softvfp
   4              		.eabi_attribute 20, 1
   5              		.eabi_attribute 21, 1
   6              		.eabi_attribute 23, 3
   7              		.eabi_attribute 24, 1
   8              		.eabi_attribute 25, 1
   9              		.eabi_attribute 26, 1
  10              		.eabi_attribute 30, 4
  11              		.eabi_attribute 34, 0
  12              		.eabi_attribute 18, 4
  13              		.thumb
  14              		.syntax unified
  15              		.file	"u8g2_input_value.c"
  16              		.text
  17              	.Ltext0:
  18              		.cfi_sections	.debug_frame
  19              		.section	.text.u8g2_UserInterfaceInputValue,"ax",%progbits
  20              		.align	1
  21              		.global	u8g2_UserInterfaceInputValue
  22              		.code	16
  23              		.thumb_func
  24              		.type	u8g2_UserInterfaceInputValue, %function
  25              	u8g2_UserInterfaceInputValue:
  26              	.LFB0:
  27              		.file 1 "..\\..\\u8g2\\csrc\\u8g2_input_value.c"
   1:..\..\u8g2\csrc/u8g2_input_value.c **** /*
   2:..\..\u8g2\csrc/u8g2_input_value.c **** 
   3:..\..\u8g2\csrc/u8g2_input_value.c ****   u8g2_input_value.c
   4:..\..\u8g2\csrc/u8g2_input_value.c ****   
   5:..\..\u8g2\csrc/u8g2_input_value.c ****   Universal 8bit Graphics Library (https://github.com/olikraus/u8g2/)
   6:..\..\u8g2\csrc/u8g2_input_value.c **** 
   7:..\..\u8g2\csrc/u8g2_input_value.c ****   Copyright (c) 2016, olikraus@gmail.com
   8:..\..\u8g2\csrc/u8g2_input_value.c ****   All rights reserved.
   9:..\..\u8g2\csrc/u8g2_input_value.c **** 
  10:..\..\u8g2\csrc/u8g2_input_value.c ****   Redistribution and use in source and binary forms, with or without modification, 
  11:..\..\u8g2\csrc/u8g2_input_value.c ****   are permitted provided that the following conditions are met:
  12:..\..\u8g2\csrc/u8g2_input_value.c **** 
  13:..\..\u8g2\csrc/u8g2_input_value.c ****   * Redistributions of source code must retain the above copyright notice, this list 
  14:..\..\u8g2\csrc/u8g2_input_value.c ****     of conditions and the following disclaimer.
  15:..\..\u8g2\csrc/u8g2_input_value.c ****     
  16:..\..\u8g2\csrc/u8g2_input_value.c ****   * Redistributions in binary form must reproduce the above copyright notice, this 
  17:..\..\u8g2\csrc/u8g2_input_value.c ****     list of conditions and the following disclaimer in the documentation and/or other 
  18:..\..\u8g2\csrc/u8g2_input_value.c ****     materials provided with the distribution.
  19:..\..\u8g2\csrc/u8g2_input_value.c **** 
  20:..\..\u8g2\csrc/u8g2_input_value.c ****   THIS SOFTWARE IS PROVIDED BY THE COPYRIGHT HOLDERS AND 
  21:..\..\u8g2\csrc/u8g2_input_value.c ****   CONTRIBUTORS "AS IS" AND ANY EXPRESS OR IMPLIED WARRANTIES, 
  22:..\..\u8g2\csrc/u8g2_input_value.c ****   INCLUDING, BUT NOT LIMITED TO, THE IMPLIED WARRANTIES OF 
  23:..\..\u8g2\csrc/u8g2_input_value.c ****   MERCHANTABILITY AND FITNESS FOR A PARTICULAR PURPOSE ARE 
  24:..\..\u8g2\csrc/u8g2_input_value.c ****   DISCLAIMED. IN NO EVENT SHALL THE COPYRIGHT HOLDER OR 
  25:..\..\u8g2\csrc/u8g2_input_value.c ****   CONTRIBUTORS BE LIABLE FOR ANY DIRECT, INDIRECT, INCIDENTAL, 
  26:..\..\u8g2\csrc/u8g2_input_value.c ****   SPECIAL, EXEMPLARY, OR CONSEQUENTIAL DAMAGES (INCLUDING, BUT 
  27:..\..\u8g2\csrc/u8g2_input_value.c ****   NOT LIMITED TO, PROCUREMENT OF SUBSTITUTE GOODS OR SERVICES; 
  28:..\..\u8g2\csrc/u8g2_input_value.c ****   LOSS OF USE, DATA, OR PROFITS; OR BUSINESS INTERRUPTION) HOWEVER 
  29:..\..\u8g2\csrc/u8g2_input_value.c ****   CAUSED AND ON ANY THEORY OF LIABILITY, WHETHER IN CONTRACT, 
  30:..\..\u8g2\csrc/u8g2_input_value.c ****   STRICT LIABILITY, OR TORT (INCLUDING NEGLIGENCE OR OTHERWISE) 
ARM GAS  C:\Users\gjl\AppData\Local\Temp\ccpW6OWK.s 			page 2


  31:..\..\u8g2\csrc/u8g2_input_value.c ****   ARISING IN ANY WAY OUT OF THE USE OF THIS SOFTWARE, EVEN IF 
  32:..\..\u8g2\csrc/u8g2_input_value.c ****   ADVISED OF THE POSSIBILITY OF SUCH DAMAGE.  
  33:..\..\u8g2\csrc/u8g2_input_value.c ****   
  34:..\..\u8g2\csrc/u8g2_input_value.c **** */
  35:..\..\u8g2\csrc/u8g2_input_value.c **** 
  36:..\..\u8g2\csrc/u8g2_input_value.c **** #include "u8g2.h"
  37:..\..\u8g2\csrc/u8g2_input_value.c **** 
  38:..\..\u8g2\csrc/u8g2_input_value.c **** /*
  39:..\..\u8g2\csrc/u8g2_input_value.c ****   return:
  40:..\..\u8g2\csrc/u8g2_input_value.c ****     0: value is not changed (HOME/Break Button pressed)
  41:..\..\u8g2\csrc/u8g2_input_value.c ****     1: value has been updated
  42:..\..\u8g2\csrc/u8g2_input_value.c **** */
  43:..\..\u8g2\csrc/u8g2_input_value.c **** 
  44:..\..\u8g2\csrc/u8g2_input_value.c **** uint8_t u8g2_UserInterfaceInputValue(u8g2_t *u8g2, const char *title, const char *pre, uint8_t *val
  45:..\..\u8g2\csrc/u8g2_input_value.c **** {
  28              		.loc 1 45 0
  29              		.cfi_startproc
  30              		@ args = 16, pretend = 0, frame = 40
  31              		@ frame_needed = 0, uses_anonymous_args = 0
  32              	.LVL0:
  33 0000 F0B5     		push	{r4, r5, r6, r7, lr}
  34              		.cfi_def_cfa_offset 20
  35              		.cfi_offset 4, -20
  36              		.cfi_offset 5, -16
  37              		.cfi_offset 6, -12
  38              		.cfi_offset 7, -8
  39              		.cfi_offset 14, -4
  40 0002 0400     		movs	r4, r0
  41 0004 8DB0     		sub	sp, sp, #52
  42              		.cfi_def_cfa_offset 72
  43              		.loc 1 45 0
  44 0006 0893     		str	r3, [sp, #32]
  45 0008 12AB     		add	r3, sp, #72
  46              	.LVL1:
  47 000a 1B78     		ldrb	r3, [r3]
  48              	.LVL2:
  49 000c 0691     		str	r1, [sp, #24]
  50 000e 0993     		str	r3, [sp, #36]
  51 0010 13AB     		add	r3, sp, #76
  52              	.LVL3:
  53 0012 1B78     		ldrb	r3, [r3]
  54              	.LVL4:
  46:..\..\u8g2\csrc/u8g2_input_value.c ****   uint8_t line_height;
  47:..\..\u8g2\csrc/u8g2_input_value.c ****   uint8_t height;
  48:..\..\u8g2\csrc/u8g2_input_value.c ****   u8g2_uint_t pixel_height;
  49:..\..\u8g2\csrc/u8g2_input_value.c ****   u8g2_uint_t  y, yy;
  50:..\..\u8g2\csrc/u8g2_input_value.c ****   u8g2_uint_t  pixel_width;
  51:..\..\u8g2\csrc/u8g2_input_value.c ****   u8g2_uint_t  x, xx;
  52:..\..\u8g2\csrc/u8g2_input_value.c ****   
  53:..\..\u8g2\csrc/u8g2_input_value.c ****   uint8_t local_value = *value;
  54:..\..\u8g2\csrc/u8g2_input_value.c ****   //uint8_t r; /* not used ??? */
  55:..\..\u8g2\csrc/u8g2_input_value.c ****   uint8_t event;
  56:..\..\u8g2\csrc/u8g2_input_value.c **** 
  57:..\..\u8g2\csrc/u8g2_input_value.c ****   /* only horizontal strings are supported, so force this here */
  58:..\..\u8g2\csrc/u8g2_input_value.c ****   u8g2_SetFontDirection(u8g2, 0);
  55              		.loc 1 58 0
  56 0014 0021     		movs	r1, #0
ARM GAS  C:\Users\gjl\AppData\Local\Temp\ccpW6OWK.s 			page 3


  57              	.LVL5:
  45:..\..\u8g2\csrc/u8g2_input_value.c ****   uint8_t line_height;
  58              		.loc 1 45 0
  59 0016 0A93     		str	r3, [sp, #40]
  60 0018 14AB     		add	r3, sp, #80
  61              	.LVL6:
  62 001a 1B78     		ldrb	r3, [r3]
  63              	.LVL7:
  64 001c 0792     		str	r2, [sp, #28]
  65 001e 0B93     		str	r3, [sp, #44]
  53:..\..\u8g2\csrc/u8g2_input_value.c ****   //uint8_t r; /* not used ??? */
  66              		.loc 1 53 0
  67 0020 089B     		ldr	r3, [sp, #32]
  68 0022 1D78     		ldrb	r5, [r3]
  69              	.LVL8:
  70              		.loc 1 58 0
  71 0024 FFF7FEFF 		bl	u8g2_SetFontDirection
  72              	.LVL9:
  59:..\..\u8g2\csrc/u8g2_input_value.c **** 
  60:..\..\u8g2\csrc/u8g2_input_value.c ****   /* force baseline position */
  61:..\..\u8g2\csrc/u8g2_input_value.c ****   u8g2_SetFontPosBaseline(u8g2);
  73              		.loc 1 61 0
  74 0028 2000     		movs	r0, r4
  75 002a FFF7FEFF 		bl	u8g2_SetFontPosBaseline
  76              	.LVL10:
  62:..\..\u8g2\csrc/u8g2_input_value.c ****   
  63:..\..\u8g2\csrc/u8g2_input_value.c ****   /* calculate line height */
  64:..\..\u8g2\csrc/u8g2_input_value.c ****   line_height = u8g2_GetAscent(u8g2);
  77              		.loc 1 64 0
  78 002e 2300     		movs	r3, r4
  65:..\..\u8g2\csrc/u8g2_input_value.c ****   line_height -= u8g2_GetDescent(u8g2);
  79              		.loc 1 65 0
  80 0030 2200     		movs	r2, r4
  64:..\..\u8g2\csrc/u8g2_input_value.c ****   line_height -= u8g2_GetDescent(u8g2);
  81              		.loc 1 64 0
  82 0032 7933     		adds	r3, r3, #121
  83              		.loc 1 65 0
  84 0034 7A32     		adds	r2, r2, #122
  85 0036 1278     		ldrb	r2, [r2]
  64:..\..\u8g2\csrc/u8g2_input_value.c ****   line_height -= u8g2_GetDescent(u8g2);
  86              		.loc 1 64 0
  87 0038 1B78     		ldrb	r3, [r3]
  88              	.LVL11:
  66:..\..\u8g2\csrc/u8g2_input_value.c ****   
  67:..\..\u8g2\csrc/u8g2_input_value.c ****   
  68:..\..\u8g2\csrc/u8g2_input_value.c ****   /* calculate overall height of the input value box */
  69:..\..\u8g2\csrc/u8g2_input_value.c ****   height = 1;	/* value input line */
  70:..\..\u8g2\csrc/u8g2_input_value.c ****   height += u8x8_GetStringLineCnt(title);
  89              		.loc 1 70 0
  90 003a 0698     		ldr	r0, [sp, #24]
  65:..\..\u8g2\csrc/u8g2_input_value.c ****   
  91              		.loc 1 65 0
  92 003c 9B1A     		subs	r3, r3, r2
  93              	.LVL12:
  94 003e DBB2     		uxtb	r3, r3
  95 0040 0593     		str	r3, [sp, #20]
  96              	.LVL13:
ARM GAS  C:\Users\gjl\AppData\Local\Temp\ccpW6OWK.s 			page 4


  97              		.loc 1 70 0
  98 0042 FFF7FEFF 		bl	u8x8_GetStringLineCnt
  99              	.LVL14:
  71:..\..\u8g2\csrc/u8g2_input_value.c **** 
  72:..\..\u8g2\csrc/u8g2_input_value.c ****   /* calculate the height in pixel */
  73:..\..\u8g2\csrc/u8g2_input_value.c ****   pixel_height = height;
  74:..\..\u8g2\csrc/u8g2_input_value.c ****   pixel_height *= line_height;
 100              		.loc 1 74 0
 101 0046 059B     		ldr	r3, [sp, #20]
  70:..\..\u8g2\csrc/u8g2_input_value.c **** 
 102              		.loc 1 70 0
 103 0048 0130     		adds	r0, r0, #1
 104              	.LVL15:
 105              		.loc 1 74 0
 106 004a 5843     		muls	r0, r3
 107              	.LVL16:
  75:..\..\u8g2\csrc/u8g2_input_value.c **** 
  76:..\..\u8g2\csrc/u8g2_input_value.c **** 
  77:..\..\u8g2\csrc/u8g2_input_value.c ****   /* calculate offset from top */
  78:..\..\u8g2\csrc/u8g2_input_value.c ****   y = 0;
  79:..\..\u8g2\csrc/u8g2_input_value.c ****   if ( pixel_height < u8g2_GetDisplayHeight(u8g2)  )
 108              		.loc 1 79 0
 109 004c 2300     		movs	r3, r4
  78:..\..\u8g2\csrc/u8g2_input_value.c ****   if ( pixel_height < u8g2_GetDisplayHeight(u8g2)  )
 110              		.loc 1 78 0
 111 004e 0022     		movs	r2, #0
 112              		.loc 1 79 0
 113 0050 4033     		adds	r3, r3, #64
 114 0052 1B78     		ldrb	r3, [r3]
  74:..\..\u8g2\csrc/u8g2_input_value.c **** 
 115              		.loc 1 74 0
 116 0054 C0B2     		uxtb	r0, r0
 117              	.LVL17:
  78:..\..\u8g2\csrc/u8g2_input_value.c ****   if ( pixel_height < u8g2_GetDisplayHeight(u8g2)  )
 118              		.loc 1 78 0
 119 0056 0392     		str	r2, [sp, #12]
 120              		.loc 1 79 0
 121 0058 9842     		cmp	r0, r3
 122 005a 03D2     		bcs	.L2
 123              	.LVL18:
  80:..\..\u8g2\csrc/u8g2_input_value.c ****   {
  81:..\..\u8g2\csrc/u8g2_input_value.c ****     y = u8g2_GetDisplayHeight(u8g2);
  82:..\..\u8g2\csrc/u8g2_input_value.c ****     y -= pixel_height;
  83:..\..\u8g2\csrc/u8g2_input_value.c ****     y /= 2;
 124              		.loc 1 83 0
 125 005c 181A     		subs	r0, r3, r0
 126              	.LVL19:
 127 005e C0B2     		uxtb	r0, r0
 128 0060 4308     		lsrs	r3, r0, #1
 129 0062 0393     		str	r3, [sp, #12]
 130              	.LVL20:
 131              	.L2:
  84:..\..\u8g2\csrc/u8g2_input_value.c ****   }
  85:..\..\u8g2\csrc/u8g2_input_value.c ****   
  86:..\..\u8g2\csrc/u8g2_input_value.c ****   /* calculate offset from left for the label */
  87:..\..\u8g2\csrc/u8g2_input_value.c ****   x = 0;
  88:..\..\u8g2\csrc/u8g2_input_value.c ****   pixel_width = u8g2_GetUTF8Width(u8g2, pre);
ARM GAS  C:\Users\gjl\AppData\Local\Temp\ccpW6OWK.s 			page 5


 132              		.loc 1 88 0
 133 0064 0799     		ldr	r1, [sp, #28]
 134 0066 2000     		movs	r0, r4
 135 0068 FFF7FEFF 		bl	u8g2_GetUTF8Width
 136              	.LVL21:
  89:..\..\u8g2\csrc/u8g2_input_value.c ****   pixel_width += u8g2_GetUTF8Width(u8g2, "0") * digits;
 137              		.loc 1 89 0
 138 006c 3849     		ldr	r1, .L33
  88:..\..\u8g2\csrc/u8g2_input_value.c ****   pixel_width += u8g2_GetUTF8Width(u8g2, "0") * digits;
 139              		.loc 1 88 0
 140 006e 0700     		movs	r7, r0
 141              	.LVL22:
 142              		.loc 1 89 0
 143 0070 2000     		movs	r0, r4
 144 0072 FFF7FEFF 		bl	u8g2_GetUTF8Width
 145              	.LVL23:
 146 0076 0600     		movs	r6, r0
 147              	.LVL24:
  90:..\..\u8g2\csrc/u8g2_input_value.c ****   pixel_width += u8g2_GetUTF8Width(u8g2, post);
 148              		.loc 1 90 0
 149 0078 1599     		ldr	r1, [sp, #84]
 150 007a 2000     		movs	r0, r4
 151 007c FFF7FEFF 		bl	u8g2_GetUTF8Width
 152              	.LVL25:
 153 0080 0B9B     		ldr	r3, [sp, #44]
 154 0082 3F18     		adds	r7, r7, r0
 155              	.LVL26:
 156 0084 5E43     		muls	r6, r3
  91:..\..\u8g2\csrc/u8g2_input_value.c ****   if ( pixel_width < u8g2_GetDisplayWidth(u8g2) )
 157              		.loc 1 91 0
 158 0086 2300     		movs	r3, r4
 159 0088 3F33     		adds	r3, r3, #63
  90:..\..\u8g2\csrc/u8g2_input_value.c ****   pixel_width += u8g2_GetUTF8Width(u8g2, post);
 160              		.loc 1 90 0
 161 008a BF19     		adds	r7, r7, r6
 162              		.loc 1 91 0
 163 008c 1E78     		ldrb	r6, [r3]
  87:..\..\u8g2\csrc/u8g2_input_value.c ****   pixel_width = u8g2_GetUTF8Width(u8g2, pre);
 164              		.loc 1 87 0
 165 008e 0023     		movs	r3, #0
  90:..\..\u8g2\csrc/u8g2_input_value.c ****   pixel_width += u8g2_GetUTF8Width(u8g2, post);
 166              		.loc 1 90 0
 167 0090 FFB2     		uxtb	r7, r7
 168              	.LVL27:
  87:..\..\u8g2\csrc/u8g2_input_value.c ****   pixel_width = u8g2_GetUTF8Width(u8g2, pre);
 169              		.loc 1 87 0
 170 0092 0493     		str	r3, [sp, #16]
 171              		.loc 1 91 0
 172 0094 B742     		cmp	r7, r6
 173 0096 0CD2     		bcs	.L4
 174              	.LVL28:
  92:..\..\u8g2\csrc/u8g2_input_value.c ****   {
  93:..\..\u8g2\csrc/u8g2_input_value.c ****     x = u8g2_GetDisplayWidth(u8g2);
  94:..\..\u8g2\csrc/u8g2_input_value.c ****     x -= pixel_width;
  95:..\..\u8g2\csrc/u8g2_input_value.c ****     x /= 2;
 175              		.loc 1 95 0
 176 0098 F71B     		subs	r7, r6, r7
ARM GAS  C:\Users\gjl\AppData\Local\Temp\ccpW6OWK.s 			page 6


 177              	.LVL29:
 178 009a FFB2     		uxtb	r7, r7
 179 009c 7B08     		lsrs	r3, r7, #1
 180 009e 0493     		str	r3, [sp, #16]
 181              	.LVL30:
 182 00a0 07E0     		b	.L4
 183              	.LVL31:
 184              	.L6:
  96:..\..\u8g2\csrc/u8g2_input_value.c ****   }
  97:..\..\u8g2\csrc/u8g2_input_value.c ****   
  98:..\..\u8g2\csrc/u8g2_input_value.c ****   /* event loop */
  99:..\..\u8g2\csrc/u8g2_input_value.c ****   for(;;)
 100:..\..\u8g2\csrc/u8g2_input_value.c ****   {
 101:..\..\u8g2\csrc/u8g2_input_value.c ****     u8g2_FirstPage(u8g2);
 102:..\..\u8g2\csrc/u8g2_input_value.c ****     do
 103:..\..\u8g2\csrc/u8g2_input_value.c ****     {
 104:..\..\u8g2\csrc/u8g2_input_value.c ****       /* render */
 105:..\..\u8g2\csrc/u8g2_input_value.c ****       yy = y;
 106:..\..\u8g2\csrc/u8g2_input_value.c ****       yy += u8g2_DrawUTF8Lines(u8g2, 0, yy, u8g2_GetDisplayWidth(u8g2), line_height, title);
 107:..\..\u8g2\csrc/u8g2_input_value.c ****       xx = x;
 108:..\..\u8g2\csrc/u8g2_input_value.c ****       xx += u8g2_DrawUTF8(u8g2, xx, yy, pre);
 109:..\..\u8g2\csrc/u8g2_input_value.c ****       xx += u8g2_DrawUTF8(u8g2, xx, yy, u8x8_u8toa(local_value, digits));
 110:..\..\u8g2\csrc/u8g2_input_value.c ****       u8g2_DrawUTF8(u8g2, xx, yy, post);
 111:..\..\u8g2\csrc/u8g2_input_value.c ****     } while( u8g2_NextPage(u8g2) );
 112:..\..\u8g2\csrc/u8g2_input_value.c ****     
 113:..\..\u8g2\csrc/u8g2_input_value.c **** #ifdef U8G2_REF_MAN_PIC
 114:..\..\u8g2\csrc/u8g2_input_value.c ****       return 0;
 115:..\..\u8g2\csrc/u8g2_input_value.c **** #endif
 116:..\..\u8g2\csrc/u8g2_input_value.c ****     
 117:..\..\u8g2\csrc/u8g2_input_value.c ****     for(;;)
 118:..\..\u8g2\csrc/u8g2_input_value.c ****     {
 119:..\..\u8g2\csrc/u8g2_input_value.c ****       event = u8x8_GetMenuEvent(u8g2_GetU8x8(u8g2));
 120:..\..\u8g2\csrc/u8g2_input_value.c ****       if ( event == U8X8_MSG_GPIO_MENU_SELECT )
 121:..\..\u8g2\csrc/u8g2_input_value.c ****       {
 122:..\..\u8g2\csrc/u8g2_input_value.c **** 	*value = local_value;
 123:..\..\u8g2\csrc/u8g2_input_value.c **** 	return 1;
 124:..\..\u8g2\csrc/u8g2_input_value.c ****       }
 125:..\..\u8g2\csrc/u8g2_input_value.c ****       else if ( event == U8X8_MSG_GPIO_MENU_HOME )
 185              		.loc 1 125 0
 186 00a2 5328     		cmp	r0, #83
 187 00a4 50D0     		beq	.L7
 126:..\..\u8g2\csrc/u8g2_input_value.c ****       {
 127:..\..\u8g2\csrc/u8g2_input_value.c **** 	return 0;
 128:..\..\u8g2\csrc/u8g2_input_value.c ****       }
 129:..\..\u8g2\csrc/u8g2_input_value.c ****       else if ( event == U8X8_MSG_GPIO_MENU_NEXT || event == U8X8_MSG_GPIO_MENU_UP )
 188              		.loc 1 129 0
 189 00a6 5128     		cmp	r0, #81
 190 00a8 3DD1     		bne	.L30
 191              	.L8:
 130:..\..\u8g2\csrc/u8g2_input_value.c ****       {
 131:..\..\u8g2\csrc/u8g2_input_value.c **** 	if ( local_value >= hi )
 192              		.loc 1 131 0
 193 00aa 0A9B     		ldr	r3, [sp, #40]
 194 00ac 9D42     		cmp	r5, r3
 195 00ae 3DD3     		bcc	.L31
 196 00b0 099D     		ldr	r5, [sp, #36]
 197              	.LVL32:
ARM GAS  C:\Users\gjl\AppData\Local\Temp\ccpW6OWK.s 			page 7


 198              	.L4:
 101:..\..\u8g2\csrc/u8g2_input_value.c ****     do
 199              		.loc 1 101 0
 200 00b2 2000     		movs	r0, r4
 201 00b4 FFF7FEFF 		bl	u8g2_FirstPage
 202              	.LVL33:
 203              	.L5:
 106:..\..\u8g2\csrc/u8g2_input_value.c ****       xx = x;
 204              		.loc 1 106 0 discriminator 1
 205 00b8 2300     		movs	r3, r4
 206 00ba 069A     		ldr	r2, [sp, #24]
 207 00bc 3F33     		adds	r3, r3, #63
 208 00be 1B78     		ldrb	r3, [r3]
 209 00c0 0192     		str	r2, [sp, #4]
 210 00c2 059A     		ldr	r2, [sp, #20]
 211 00c4 0021     		movs	r1, #0
 212 00c6 0092     		str	r2, [sp]
 213 00c8 2000     		movs	r0, r4
 214 00ca 039A     		ldr	r2, [sp, #12]
 215 00cc FFF7FEFF 		bl	u8g2_DrawUTF8Lines
 216              	.LVL34:
 217 00d0 039B     		ldr	r3, [sp, #12]
 108:..\..\u8g2\csrc/u8g2_input_value.c ****       xx += u8g2_DrawUTF8(u8g2, xx, yy, u8x8_u8toa(local_value, digits));
 218              		.loc 1 108 0 discriminator 1
 219 00d2 0499     		ldr	r1, [sp, #16]
 106:..\..\u8g2\csrc/u8g2_input_value.c ****       xx = x;
 220              		.loc 1 106 0 discriminator 1
 221 00d4 1818     		adds	r0, r3, r0
 222 00d6 C6B2     		uxtb	r6, r0
 223              	.LVL35:
 108:..\..\u8g2\csrc/u8g2_input_value.c ****       xx += u8g2_DrawUTF8(u8g2, xx, yy, u8x8_u8toa(local_value, digits));
 224              		.loc 1 108 0 discriminator 1
 225 00d8 3200     		movs	r2, r6
 226 00da 079B     		ldr	r3, [sp, #28]
 227 00dc 2000     		movs	r0, r4
 228 00de FFF7FEFF 		bl	u8g2_DrawUTF8
 229              	.LVL36:
 230 00e2 049B     		ldr	r3, [sp, #16]
 109:..\..\u8g2\csrc/u8g2_input_value.c ****       u8g2_DrawUTF8(u8g2, xx, yy, post);
 231              		.loc 1 109 0 discriminator 1
 232 00e4 0B99     		ldr	r1, [sp, #44]
 108:..\..\u8g2\csrc/u8g2_input_value.c ****       xx += u8g2_DrawUTF8(u8g2, xx, yy, u8x8_u8toa(local_value, digits));
 233              		.loc 1 108 0 discriminator 1
 234 00e6 1818     		adds	r0, r3, r0
 235 00e8 C7B2     		uxtb	r7, r0
 236              	.LVL37:
 109:..\..\u8g2\csrc/u8g2_input_value.c ****       u8g2_DrawUTF8(u8g2, xx, yy, post);
 237              		.loc 1 109 0 discriminator 1
 238 00ea 2800     		movs	r0, r5
 239 00ec FFF7FEFF 		bl	u8x8_u8toa
 240              	.LVL38:
 241 00f0 3200     		movs	r2, r6
 242 00f2 0300     		movs	r3, r0
 243 00f4 3900     		movs	r1, r7
 244 00f6 2000     		movs	r0, r4
 245 00f8 FFF7FEFF 		bl	u8g2_DrawUTF8
 246              	.LVL39:
ARM GAS  C:\Users\gjl\AppData\Local\Temp\ccpW6OWK.s 			page 8


 110:..\..\u8g2\csrc/u8g2_input_value.c ****     } while( u8g2_NextPage(u8g2) );
 247              		.loc 1 110 0 discriminator 1
 248 00fc 3F18     		adds	r7, r7, r0
 249              	.LVL40:
 250 00fe 3200     		movs	r2, r6
 251 0100 F9B2     		uxtb	r1, r7
 252 0102 159B     		ldr	r3, [sp, #84]
 253 0104 2000     		movs	r0, r4
 254 0106 FFF7FEFF 		bl	u8g2_DrawUTF8
 255              	.LVL41:
 111:..\..\u8g2\csrc/u8g2_input_value.c ****     
 256              		.loc 1 111 0 discriminator 1
 257 010a 2000     		movs	r0, r4
 258 010c FFF7FEFF 		bl	u8g2_NextPage
 259              	.LVL42:
 260 0110 061E     		subs	r6, r0, #0
 261              	.LVL43:
 262 0112 D1D1     		bne	.L5
 263              	.L12:
 119:..\..\u8g2\csrc/u8g2_input_value.c ****       if ( event == U8X8_MSG_GPIO_MENU_SELECT )
 264              		.loc 1 119 0
 265 0114 2000     		movs	r0, r4
 266 0116 FFF7FEFF 		bl	u8x8_GetMenuEvent
 267              	.LVL44:
 120:..\..\u8g2\csrc/u8g2_input_value.c ****       {
 268              		.loc 1 120 0
 269 011a 5028     		cmp	r0, #80
 270 011c C1D1     		bne	.L6
 122:..\..\u8g2\csrc/u8g2_input_value.c **** 	return 1;
 271              		.loc 1 122 0
 272 011e 089B     		ldr	r3, [sp, #32]
 123:..\..\u8g2\csrc/u8g2_input_value.c ****       }
 273              		.loc 1 123 0
 274 0120 0126     		movs	r6, #1
 122:..\..\u8g2\csrc/u8g2_input_value.c **** 	return 1;
 275              		.loc 1 122 0
 276 0122 1D70     		strb	r5, [r3]
 123:..\..\u8g2\csrc/u8g2_input_value.c ****       }
 277              		.loc 1 123 0
 278 0124 10E0     		b	.L7
 279              	.L30:
 129:..\..\u8g2\csrc/u8g2_input_value.c ****       {
 280              		.loc 1 129 0 discriminator 1
 281 0126 5428     		cmp	r0, #84
 282 0128 02D1     		bne	.L9
 283 012a BEE7     		b	.L8
 284              	.L31:
 132:..\..\u8g2\csrc/u8g2_input_value.c **** 	  local_value = lo;
 133:..\..\u8g2\csrc/u8g2_input_value.c **** 	else
 134:..\..\u8g2\csrc/u8g2_input_value.c **** 	  local_value++;
 285              		.loc 1 134 0
 286 012c 0135     		adds	r5, r5, #1
 287              	.LVL45:
 288 012e 09E0     		b	.L28
 289              	.LVL46:
 290              	.L9:
 135:..\..\u8g2\csrc/u8g2_input_value.c **** 	break;
ARM GAS  C:\Users\gjl\AppData\Local\Temp\ccpW6OWK.s 			page 9


 136:..\..\u8g2\csrc/u8g2_input_value.c ****       }
 137:..\..\u8g2\csrc/u8g2_input_value.c ****       else if ( event == U8X8_MSG_GPIO_MENU_PREV || event == U8X8_MSG_GPIO_MENU_DOWN )
 291              		.loc 1 137 0
 292 0130 5228     		cmp	r0, #82
 293 0132 01D0     		beq	.L11
 294              		.loc 1 137 0 is_stmt 0 discriminator 1
 295 0134 5528     		cmp	r0, #85
 296 0136 EDD1     		bne	.L12
 297              	.L11:
 138:..\..\u8g2\csrc/u8g2_input_value.c ****       {
 139:..\..\u8g2\csrc/u8g2_input_value.c **** 	if ( local_value <= lo )
 298              		.loc 1 139 0 is_stmt 1
 299 0138 099B     		ldr	r3, [sp, #36]
 300 013a 9D42     		cmp	r5, r3
 301 013c 01D8     		bhi	.L32
 302 013e 0A9D     		ldr	r5, [sp, #40]
 303              	.LVL47:
 304 0140 B7E7     		b	.L4
 305              	.LVL48:
 306              	.L32:
 140:..\..\u8g2\csrc/u8g2_input_value.c **** 	  local_value = hi;
 141:..\..\u8g2\csrc/u8g2_input_value.c **** 	else
 142:..\..\u8g2\csrc/u8g2_input_value.c **** 	  local_value--;
 307              		.loc 1 142 0
 308 0142 013D     		subs	r5, r5, #1
 309              	.LVL49:
 310              	.L28:
 311 0144 EDB2     		uxtb	r5, r5
 312              	.LVL50:
 313 0146 B4E7     		b	.L4
 314              	.L7:
 143:..\..\u8g2\csrc/u8g2_input_value.c **** 	break;
 144:..\..\u8g2\csrc/u8g2_input_value.c ****       }        
 145:..\..\u8g2\csrc/u8g2_input_value.c ****     }
 146:..\..\u8g2\csrc/u8g2_input_value.c ****   }
 147:..\..\u8g2\csrc/u8g2_input_value.c ****   
 148:..\..\u8g2\csrc/u8g2_input_value.c ****   /* never reached */
 149:..\..\u8g2\csrc/u8g2_input_value.c ****   //return r;  
 150:..\..\u8g2\csrc/u8g2_input_value.c **** }
 315              		.loc 1 150 0
 316 0148 3000     		movs	r0, r6
 317              	.LVL51:
 318 014a 0DB0     		add	sp, sp, #52
 319              		@ sp needed
 320              	.LVL52:
 321              	.LVL53:
 322 014c F0BD     		pop	{r4, r5, r6, r7, pc}
 323              	.L34:
 324 014e C046     		.align	2
 325              	.L33:
 326 0150 00000000 		.word	.LC0
 327              		.cfi_endproc
 328              	.LFE0:
 329              		.size	u8g2_UserInterfaceInputValue, .-u8g2_UserInterfaceInputValue
 330              		.section	.rodata.str1.1,"aMS",%progbits,1
 331              	.LC0:
 332 0000 3000     		.ascii	"0\000"
ARM GAS  C:\Users\gjl\AppData\Local\Temp\ccpW6OWK.s 			page 10


 333              		.text
 334              	.Letext0:
 335              		.file 2 "c:\\program files (x86)\\cypress\\psoc creator\\4.1\\psoc creator\\import\\gnu\\arm\\5.4.
 336              		.file 3 "c:\\program files (x86)\\cypress\\psoc creator\\4.1\\psoc creator\\import\\gnu\\arm\\5.4.
 337              		.file 4 "..\\..\\u8g2\\csrc\\u8x8.h"
 338              		.file 5 "..\\..\\u8g2\\csrc\\u8g2.h"