ARM GAS  C:\Users\gjl\AppData\Local\Temp\cc03BcQS.s 			page 1


   1              		.syntax unified
   2              		.cpu cortex-m0
   3              		.fpu softvfp
   4              		.eabi_attribute 20, 1
   5              		.eabi_attribute 21, 1
   6              		.eabi_attribute 23, 3
   7              		.eabi_attribute 24, 1
   8              		.eabi_attribute 25, 1
   9              		.eabi_attribute 26, 1
  10              		.eabi_attribute 30, 4
  11              		.eabi_attribute 34, 0
  12              		.eabi_attribute 18, 4
  13              		.thumb
  14              		.syntax unified
  15              		.file	"u8g2_box.c"
  16              		.text
  17              	.Ltext0:
  18              		.cfi_sections	.debug_frame
  19              		.section	.text.u8g2_DrawBox,"ax",%progbits
  20              		.align	1
  21              		.global	u8g2_DrawBox
  22              		.code	16
  23              		.thumb_func
  24              		.type	u8g2_DrawBox, %function
  25              	u8g2_DrawBox:
  26              	.LFB0:
  27              		.file 1 "..\\..\\u8g2\\csrc\\u8g2_box.c"
   1:..\..\u8g2\csrc/u8g2_box.c **** /*
   2:..\..\u8g2\csrc/u8g2_box.c **** 
   3:..\..\u8g2\csrc/u8g2_box.c ****   u8g2_box.c
   4:..\..\u8g2\csrc/u8g2_box.c **** 
   5:..\..\u8g2\csrc/u8g2_box.c ****   Universal 8bit Graphics Library (https://github.com/olikraus/u8g2/)
   6:..\..\u8g2\csrc/u8g2_box.c **** 
   7:..\..\u8g2\csrc/u8g2_box.c ****   Copyright (c) 2016, olikraus@gmail.com
   8:..\..\u8g2\csrc/u8g2_box.c ****   All rights reserved.
   9:..\..\u8g2\csrc/u8g2_box.c **** 
  10:..\..\u8g2\csrc/u8g2_box.c ****   Redistribution and use in source and binary forms, with or without modification, 
  11:..\..\u8g2\csrc/u8g2_box.c ****   are permitted provided that the following conditions are met:
  12:..\..\u8g2\csrc/u8g2_box.c **** 
  13:..\..\u8g2\csrc/u8g2_box.c ****   * Redistributions of source code must retain the above copyright notice, this list 
  14:..\..\u8g2\csrc/u8g2_box.c ****     of conditions and the following disclaimer.
  15:..\..\u8g2\csrc/u8g2_box.c ****     
  16:..\..\u8g2\csrc/u8g2_box.c ****   * Redistributions in binary form must reproduce the above copyright notice, this 
  17:..\..\u8g2\csrc/u8g2_box.c ****     list of conditions and the following disclaimer in the documentation and/or other 
  18:..\..\u8g2\csrc/u8g2_box.c ****     materials provided with the distribution.
  19:..\..\u8g2\csrc/u8g2_box.c **** 
  20:..\..\u8g2\csrc/u8g2_box.c ****   THIS SOFTWARE IS PROVIDED BY THE COPYRIGHT HOLDERS AND 
  21:..\..\u8g2\csrc/u8g2_box.c ****   CONTRIBUTORS "AS IS" AND ANY EXPRESS OR IMPLIED WARRANTIES, 
  22:..\..\u8g2\csrc/u8g2_box.c ****   INCLUDING, BUT NOT LIMITED TO, THE IMPLIED WARRANTIES OF 
  23:..\..\u8g2\csrc/u8g2_box.c ****   MERCHANTABILITY AND FITNESS FOR A PARTICULAR PURPOSE ARE 
  24:..\..\u8g2\csrc/u8g2_box.c ****   DISCLAIMED. IN NO EVENT SHALL THE COPYRIGHT HOLDER OR 
  25:..\..\u8g2\csrc/u8g2_box.c ****   CONTRIBUTORS BE LIABLE FOR ANY DIRECT, INDIRECT, INCIDENTAL, 
  26:..\..\u8g2\csrc/u8g2_box.c ****   SPECIAL, EXEMPLARY, OR CONSEQUENTIAL DAMAGES (INCLUDING, BUT 
  27:..\..\u8g2\csrc/u8g2_box.c ****   NOT LIMITED TO, PROCUREMENT OF SUBSTITUTE GOODS OR SERVICES; 
  28:..\..\u8g2\csrc/u8g2_box.c ****   LOSS OF USE, DATA, OR PROFITS; OR BUSINESS INTERRUPTION) HOWEVER 
  29:..\..\u8g2\csrc/u8g2_box.c ****   CAUSED AND ON ANY THEORY OF LIABILITY, WHETHER IN CONTRACT, 
  30:..\..\u8g2\csrc/u8g2_box.c ****   STRICT LIABILITY, OR TORT (INCLUDING NEGLIGENCE OR OTHERWISE) 
ARM GAS  C:\Users\gjl\AppData\Local\Temp\cc03BcQS.s 			page 2


  31:..\..\u8g2\csrc/u8g2_box.c ****   ARISING IN ANY WAY OUT OF THE USE OF THIS SOFTWARE, EVEN IF 
  32:..\..\u8g2\csrc/u8g2_box.c ****   ADVISED OF THE POSSIBILITY OF SUCH DAMAGE.  
  33:..\..\u8g2\csrc/u8g2_box.c **** 
  34:..\..\u8g2\csrc/u8g2_box.c **** */
  35:..\..\u8g2\csrc/u8g2_box.c **** 
  36:..\..\u8g2\csrc/u8g2_box.c **** #include "u8g2.h"
  37:..\..\u8g2\csrc/u8g2_box.c **** 
  38:..\..\u8g2\csrc/u8g2_box.c **** /*
  39:..\..\u8g2\csrc/u8g2_box.c ****   draw a filled box
  40:..\..\u8g2\csrc/u8g2_box.c ****   restriction: does not work for w = 0 or h = 0
  41:..\..\u8g2\csrc/u8g2_box.c **** */
  42:..\..\u8g2\csrc/u8g2_box.c **** void u8g2_DrawBox(u8g2_t *u8g2, u8g2_uint_t x, u8g2_uint_t y, u8g2_uint_t w, u8g2_uint_t h)
  43:..\..\u8g2\csrc/u8g2_box.c **** {
  28              		.loc 1 43 0
  29              		.cfi_startproc
  30              		@ args = 4, pretend = 0, frame = 8
  31              		@ frame_needed = 0, uses_anonymous_args = 0
  32              	.LVL0:
  33 0000 F0B5     		push	{r4, r5, r6, r7, lr}
  34              		.cfi_def_cfa_offset 20
  35              		.cfi_offset 4, -20
  36              		.cfi_offset 5, -16
  37              		.cfi_offset 6, -12
  38              		.cfi_offset 7, -8
  39              		.cfi_offset 14, -4
  40 0002 1F00     		movs	r7, r3
  41 0004 1400     		movs	r4, r2
  42 0006 85B0     		sub	sp, sp, #20
  43              		.cfi_def_cfa_offset 40
  44              		.loc 1 43 0
  45 0008 0AAB     		add	r3, sp, #40
  46              	.LVL1:
  47 000a 1B78     		ldrb	r3, [r3]
  48              	.LVL2:
  49 000c 0600     		movs	r6, r0
  44:..\..\u8g2\csrc/u8g2_box.c **** #ifdef U8G2_WITH_INTERSECTION
  45:..\..\u8g2\csrc/u8g2_box.c ****   if ( u8g2_IsIntersection(u8g2, x, y, x+w, y+h) == 0 ) 
  50              		.loc 1 45 0
  51 000e D318     		adds	r3, r2, r3
  52 0010 DBB2     		uxtb	r3, r3
  53 0012 0393     		str	r3, [sp, #12]
  54 0014 039A     		ldr	r2, [sp, #12]
  55              	.LVL3:
  56 0016 CB19     		adds	r3, r1, r7
  57 0018 0092     		str	r2, [sp]
  58 001a DBB2     		uxtb	r3, r3
  59 001c 2200     		movs	r2, r4
  43:..\..\u8g2\csrc/u8g2_box.c **** #ifdef U8G2_WITH_INTERSECTION
  60              		.loc 1 43 0
  61 001e 0D00     		movs	r5, r1
  62              		.loc 1 45 0
  63 0020 FFF7FEFF 		bl	u8g2_IsIntersection
  64              	.LVL4:
  65 0024 0028     		cmp	r0, #0
  66 0026 0CD0     		beq	.L1
  67              	.L5:
  68              	.LVL5:
ARM GAS  C:\Users\gjl\AppData\Local\Temp\cc03BcQS.s 			page 3


  69              	.LBB4:
  70              	.LBB5:
  46:..\..\u8g2\csrc/u8g2_box.c ****     return;
  47:..\..\u8g2\csrc/u8g2_box.c **** #endif /* U8G2_WITH_INTERSECTION */
  48:..\..\u8g2\csrc/u8g2_box.c ****   do
  49:..\..\u8g2\csrc/u8g2_box.c ****   { 
  50:..\..\u8g2\csrc/u8g2_box.c ****     u8g2_DrawHVLine(u8g2, x, y, w, 0);
  71              		.loc 1 50 0
  72 0028 0023     		movs	r3, #0
  73 002a 2200     		movs	r2, r4
  74 002c 0093     		str	r3, [sp]
  75 002e 2900     		movs	r1, r5
  76 0030 3B00     		movs	r3, r7
  77 0032 3000     		movs	r0, r6
  78 0034 FFF7FEFF 		bl	u8g2_DrawHVLine
  79              	.LVL6:
  51:..\..\u8g2\csrc/u8g2_box.c ****     y++;    
  80              		.loc 1 51 0
  81 0038 0134     		adds	r4, r4, #1
  82              	.LVL7:
  52:..\..\u8g2\csrc/u8g2_box.c ****     h--;
  53:..\..\u8g2\csrc/u8g2_box.c ****   } while( h != 0 );
  83              		.loc 1 53 0
  84 003a 039B     		ldr	r3, [sp, #12]
  51:..\..\u8g2\csrc/u8g2_box.c ****     y++;    
  85              		.loc 1 51 0
  86 003c E4B2     		uxtb	r4, r4
  87              	.LVL8:
  88              		.loc 1 53 0
  89 003e A342     		cmp	r3, r4
  90 0040 F2D1     		bne	.L5
  91              	.LVL9:
  92              	.L1:
  93              	.LBE5:
  94              	.LBE4:
  54:..\..\u8g2\csrc/u8g2_box.c **** }
  95              		.loc 1 54 0
  96 0042 05B0     		add	sp, sp, #20
  97              		@ sp needed
  98              	.LVL10:
  99 0044 F0BD     		pop	{r4, r5, r6, r7, pc}
 100              		.cfi_endproc
 101              	.LFE0:
 102              		.size	u8g2_DrawBox, .-u8g2_DrawBox
 103              		.section	.text.u8g2_DrawFrame,"ax",%progbits
 104              		.align	1
 105              		.global	u8g2_DrawFrame
 106              		.code	16
 107              		.thumb_func
 108              		.type	u8g2_DrawFrame, %function
 109              	u8g2_DrawFrame:
 110              	.LFB1:
  55:..\..\u8g2\csrc/u8g2_box.c **** 
  56:..\..\u8g2\csrc/u8g2_box.c **** 
  57:..\..\u8g2\csrc/u8g2_box.c **** /*
  58:..\..\u8g2\csrc/u8g2_box.c ****   draw a frame (empty box)
  59:..\..\u8g2\csrc/u8g2_box.c ****   restriction: does not work for w = 0 or h = 0
ARM GAS  C:\Users\gjl\AppData\Local\Temp\cc03BcQS.s 			page 4


  60:..\..\u8g2\csrc/u8g2_box.c ****   ToDo:
  61:..\..\u8g2\csrc/u8g2_box.c ****     pixel in the corners are drawn twice. This could be optimized.
  62:..\..\u8g2\csrc/u8g2_box.c **** */
  63:..\..\u8g2\csrc/u8g2_box.c **** void u8g2_DrawFrame(u8g2_t *u8g2, u8g2_uint_t x, u8g2_uint_t y, u8g2_uint_t w, u8g2_uint_t h)
  64:..\..\u8g2\csrc/u8g2_box.c **** {
 111              		.loc 1 64 0
 112              		.cfi_startproc
 113              		@ args = 4, pretend = 0, frame = 16
 114              		@ frame_needed = 0, uses_anonymous_args = 0
 115              	.LVL11:
 116 0000 F0B5     		push	{r4, r5, r6, r7, lr}
 117              		.cfi_def_cfa_offset 20
 118              		.cfi_offset 4, -20
 119              		.cfi_offset 5, -16
 120              		.cfi_offset 6, -12
 121              		.cfi_offset 7, -8
 122              		.cfi_offset 14, -4
 123 0002 1F00     		movs	r7, r3
 124 0004 0D00     		movs	r5, r1
 125 0006 1600     		movs	r6, r2
 126 0008 87B0     		sub	sp, sp, #28
 127              		.cfi_def_cfa_offset 48
 128              		.loc 1 64 0
 129 000a 0CAB     		add	r3, sp, #48
 130              	.LVL12:
 131 000c 1B78     		ldrb	r3, [r3]
 132              	.LVL13:
  65:..\..\u8g2\csrc/u8g2_box.c ****   u8g2_uint_t xtmp = x;
  66:..\..\u8g2\csrc/u8g2_box.c ****   
  67:..\..\u8g2\csrc/u8g2_box.c **** #ifdef U8G2_WITH_INTERSECTION
  68:..\..\u8g2\csrc/u8g2_box.c ****   if ( u8g2_IsIntersection(u8g2, x, y, x+w, y+h) == 0 ) 
 133              		.loc 1 68 0
 134 000e C919     		adds	r1, r1, r7
 135              	.LVL14:
  64:..\..\u8g2\csrc/u8g2_box.c ****   u8g2_uint_t xtmp = x;
 136              		.loc 1 64 0
 137 0010 0393     		str	r3, [sp, #12]
 138              		.loc 1 68 0
 139 0012 CBB2     		uxtb	r3, r1
 140 0014 0493     		str	r3, [sp, #16]
 141 0016 039B     		ldr	r3, [sp, #12]
 142 0018 2900     		movs	r1, r5
 143 001a D218     		adds	r2, r2, r3
 144              	.LVL15:
 145 001c D3B2     		uxtb	r3, r2
 146 001e 0593     		str	r3, [sp, #20]
 147 0020 0093     		str	r3, [sp]
 148 0022 3200     		movs	r2, r6
 149 0024 049B     		ldr	r3, [sp, #16]
  64:..\..\u8g2\csrc/u8g2_box.c ****   u8g2_uint_t xtmp = x;
 150              		.loc 1 64 0
 151 0026 0400     		movs	r4, r0
 152              		.loc 1 68 0
 153 0028 FFF7FEFF 		bl	u8g2_IsIntersection
 154              	.LVL16:
 155 002c 0028     		cmp	r0, #0
 156 002e 23D0     		beq	.L8
ARM GAS  C:\Users\gjl\AppData\Local\Temp\cc03BcQS.s 			page 5


  69:..\..\u8g2\csrc/u8g2_box.c ****     return;
  70:..\..\u8g2\csrc/u8g2_box.c **** #endif /* U8G2_WITH_INTERSECTION */
  71:..\..\u8g2\csrc/u8g2_box.c ****   
  72:..\..\u8g2\csrc/u8g2_box.c ****   u8g2_DrawHVLine(u8g2, x, y, w, 0);
 157              		.loc 1 72 0
 158 0030 0023     		movs	r3, #0
 159 0032 3200     		movs	r2, r6
 160 0034 0093     		str	r3, [sp]
 161 0036 2900     		movs	r1, r5
 162 0038 3B00     		movs	r3, r7
 163 003a 2000     		movs	r0, r4
 164 003c FFF7FEFF 		bl	u8g2_DrawHVLine
 165              	.LVL17:
  73:..\..\u8g2\csrc/u8g2_box.c ****   u8g2_DrawHVLine(u8g2, x, y, h, 1);
 166              		.loc 1 73 0
 167 0040 0123     		movs	r3, #1
 168 0042 3200     		movs	r2, r6
 169 0044 0093     		str	r3, [sp]
 170 0046 2900     		movs	r1, r5
 171 0048 039B     		ldr	r3, [sp, #12]
 172 004a 2000     		movs	r0, r4
 173 004c FFF7FEFF 		bl	u8g2_DrawHVLine
 174              	.LVL18:
  74:..\..\u8g2\csrc/u8g2_box.c ****   x+=w;
  75:..\..\u8g2\csrc/u8g2_box.c ****   x--;
  76:..\..\u8g2\csrc/u8g2_box.c ****   u8g2_DrawHVLine(u8g2, x, y, h, 1);
 175              		.loc 1 76 0
 176 0050 0123     		movs	r3, #1
 177 0052 0499     		ldr	r1, [sp, #16]
 178 0054 0093     		str	r3, [sp]
 179 0056 0139     		subs	r1, r1, #1
 180 0058 C9B2     		uxtb	r1, r1
 181 005a 039B     		ldr	r3, [sp, #12]
 182 005c 3200     		movs	r2, r6
 183 005e 2000     		movs	r0, r4
 184 0060 FFF7FEFF 		bl	u8g2_DrawHVLine
 185              	.LVL19:
  77:..\..\u8g2\csrc/u8g2_box.c ****   y+=h;
  78:..\..\u8g2\csrc/u8g2_box.c ****   y--;
  79:..\..\u8g2\csrc/u8g2_box.c ****   u8g2_DrawHVLine(u8g2, xtmp, y, w, 0);
 186              		.loc 1 79 0
 187 0064 0023     		movs	r3, #0
 188 0066 059A     		ldr	r2, [sp, #20]
 189 0068 0093     		str	r3, [sp]
 190 006a 013A     		subs	r2, r2, #1
 191 006c D2B2     		uxtb	r2, r2
 192 006e 3B00     		movs	r3, r7
 193 0070 2900     		movs	r1, r5
 194 0072 2000     		movs	r0, r4
 195 0074 FFF7FEFF 		bl	u8g2_DrawHVLine
 196              	.LVL20:
 197              	.L8:
  80:..\..\u8g2\csrc/u8g2_box.c **** }
 198              		.loc 1 80 0
 199 0078 07B0     		add	sp, sp, #28
 200              		@ sp needed
 201              	.LVL21:
ARM GAS  C:\Users\gjl\AppData\Local\Temp\cc03BcQS.s 			page 6


 202 007a F0BD     		pop	{r4, r5, r6, r7, pc}
 203              		.cfi_endproc
 204              	.LFE1:
 205              		.size	u8g2_DrawFrame, .-u8g2_DrawFrame
 206              		.section	.text.u8g2_DrawRBox,"ax",%progbits
 207              		.align	1
 208              		.global	u8g2_DrawRBox
 209              		.code	16
 210              		.thumb_func
 211              		.type	u8g2_DrawRBox, %function
 212              	u8g2_DrawRBox:
 213              	.LFB2:
  81:..\..\u8g2\csrc/u8g2_box.c **** 
  82:..\..\u8g2\csrc/u8g2_box.c **** 
  83:..\..\u8g2\csrc/u8g2_box.c **** 
  84:..\..\u8g2\csrc/u8g2_box.c **** 
  85:..\..\u8g2\csrc/u8g2_box.c **** void u8g2_DrawRBox(u8g2_t *u8g2, u8g2_uint_t x, u8g2_uint_t y, u8g2_uint_t w, u8g2_uint_t h, u8g2_u
  86:..\..\u8g2\csrc/u8g2_box.c **** {
 214              		.loc 1 86 0
 215              		.cfi_startproc
 216              		@ args = 8, pretend = 0, frame = 32
 217              		@ frame_needed = 0, uses_anonymous_args = 0
 218              	.LVL22:
 219 0000 F0B5     		push	{r4, r5, r6, r7, lr}
 220              		.cfi_def_cfa_offset 20
 221              		.cfi_offset 4, -20
 222              		.cfi_offset 5, -16
 223              		.cfi_offset 6, -12
 224              		.cfi_offset 7, -8
 225              		.cfi_offset 14, -4
 226 0002 8BB0     		sub	sp, sp, #44
 227              		.cfi_def_cfa_offset 64
 228              		.loc 1 86 0
 229 0004 0893     		str	r3, [sp, #32]
 230 0006 10AB     		add	r3, sp, #64
 231              	.LVL23:
 232 0008 1B78     		ldrb	r3, [r3]
 233              	.LVL24:
 234 000a 0592     		str	r2, [sp, #20]
  87:..\..\u8g2\csrc/u8g2_box.c ****   u8g2_uint_t xl, yu;
  88:..\..\u8g2\csrc/u8g2_box.c ****   u8g2_uint_t yl, xr;
  89:..\..\u8g2\csrc/u8g2_box.c **** 
  90:..\..\u8g2\csrc/u8g2_box.c **** #ifdef U8G2_WITH_INTERSECTION
  91:..\..\u8g2\csrc/u8g2_box.c ****   if ( u8g2_IsIntersection(u8g2, x, y, x+w, y+h) == 0 ) 
 235              		.loc 1 91 0
 236 000c 089A     		ldr	r2, [sp, #32]
 237              	.LVL25:
  86:..\..\u8g2\csrc/u8g2_box.c ****   u8g2_uint_t xl, yu;
 238              		.loc 1 86 0
 239 000e 0993     		str	r3, [sp, #36]
 240 0010 11AB     		add	r3, sp, #68
 241              	.LVL26:
 242 0012 1D78     		ldrb	r5, [r3]
 243              		.loc 1 91 0
 244 0014 8C18     		adds	r4, r1, r2
 245 0016 059B     		ldr	r3, [sp, #20]
 246              	.LVL27:
ARM GAS  C:\Users\gjl\AppData\Local\Temp\cc03BcQS.s 			page 7


 247 0018 099A     		ldr	r2, [sp, #36]
 248 001a E4B2     		uxtb	r4, r4
 249 001c 9F18     		adds	r7, r3, r2
 250 001e FFB2     		uxtb	r7, r7
 251 0020 0097     		str	r7, [sp]
 252 0022 2300     		movs	r3, r4
 253 0024 059A     		ldr	r2, [sp, #20]
  86:..\..\u8g2\csrc/u8g2_box.c ****   u8g2_uint_t xl, yu;
 254              		.loc 1 86 0
 255 0026 0390     		str	r0, [sp, #12]
 256 0028 0491     		str	r1, [sp, #16]
 257              		.loc 1 91 0
 258 002a FFF7FEFF 		bl	u8g2_IsIntersection
 259              	.LVL28:
 260 002e 0028     		cmp	r0, #0
 261 0030 58D0     		beq	.L13
 262              	.LVL29:
  92:..\..\u8g2\csrc/u8g2_box.c ****     return;
  93:..\..\u8g2\csrc/u8g2_box.c **** #endif /* U8G2_WITH_INTERSECTION */
  94:..\..\u8g2\csrc/u8g2_box.c **** 
  95:..\..\u8g2\csrc/u8g2_box.c ****   xl = x;
  96:..\..\u8g2\csrc/u8g2_box.c ****   xl += r;
 263              		.loc 1 96 0
 264 0032 049B     		ldr	r3, [sp, #16]
  97:..\..\u8g2\csrc/u8g2_box.c ****   yu = y;
  98:..\..\u8g2\csrc/u8g2_box.c ****   yu += r;
  99:..\..\u8g2\csrc/u8g2_box.c ****  
 100:..\..\u8g2\csrc/u8g2_box.c ****   xr = x;
 101:..\..\u8g2\csrc/u8g2_box.c ****   xr += w;
 102:..\..\u8g2\csrc/u8g2_box.c ****   xr -= r;
 103:..\..\u8g2\csrc/u8g2_box.c ****   xr -= 1;
 104:..\..\u8g2\csrc/u8g2_box.c ****   
 105:..\..\u8g2\csrc/u8g2_box.c ****   yl = y;
 106:..\..\u8g2\csrc/u8g2_box.c ****   yl += h;
 107:..\..\u8g2\csrc/u8g2_box.c ****   yl -= r; 
 108:..\..\u8g2\csrc/u8g2_box.c ****   yl -= 1;
 109:..\..\u8g2\csrc/u8g2_box.c **** 
 110:..\..\u8g2\csrc/u8g2_box.c ****   u8g2_DrawDisc(u8g2, xl, yu, r, U8G2_DRAW_UPPER_LEFT);
 265              		.loc 1 110 0
 266 0034 0398     		ldr	r0, [sp, #12]
  96:..\..\u8g2\csrc/u8g2_box.c ****   yu = y;
 267              		.loc 1 96 0
 268 0036 5E19     		adds	r6, r3, r5
  98:..\..\u8g2\csrc/u8g2_box.c ****  
 269              		.loc 1 98 0
 270 0038 059B     		ldr	r3, [sp, #20]
  96:..\..\u8g2\csrc/u8g2_box.c ****   yu = y;
 271              		.loc 1 96 0
 272 003a F6B2     		uxtb	r6, r6
 273              	.LVL30:
  98:..\..\u8g2\csrc/u8g2_box.c ****  
 274              		.loc 1 98 0
 275 003c 5A19     		adds	r2, r3, r5
 276 003e D3B2     		uxtb	r3, r2
 277 0040 0693     		str	r3, [sp, #24]
 278              	.LVL31:
 279 0042 EB43     		mvns	r3, r5
ARM GAS  C:\Users\gjl\AppData\Local\Temp\cc03BcQS.s 			page 8


 280 0044 DBB2     		uxtb	r3, r3
 281              	.LVL32:
 108:..\..\u8g2\csrc/u8g2_box.c **** 
 282              		.loc 1 108 0
 283 0046 FF18     		adds	r7, r7, r3
 103:..\..\u8g2\csrc/u8g2_box.c ****   
 284              		.loc 1 103 0
 285 0048 E418     		adds	r4, r4, r3
 286              	.LVL33:
 108:..\..\u8g2\csrc/u8g2_box.c **** 
 287              		.loc 1 108 0
 288 004a FBB2     		uxtb	r3, r7
 289 004c 0793     		str	r3, [sp, #28]
 290              		.loc 1 110 0
 291 004e 0223     		movs	r3, #2
 292 0050 069A     		ldr	r2, [sp, #24]
 293 0052 0093     		str	r3, [sp]
 294 0054 3100     		movs	r1, r6
 295 0056 2B00     		movs	r3, r5
 296 0058 FFF7FEFF 		bl	u8g2_DrawDisc
 297              	.LVL34:
 111:..\..\u8g2\csrc/u8g2_box.c ****   u8g2_DrawDisc(u8g2, xr, yu, r, U8G2_DRAW_UPPER_RIGHT);
 298              		.loc 1 111 0
 299 005c 0123     		movs	r3, #1
 103:..\..\u8g2\csrc/u8g2_box.c ****   
 300              		.loc 1 103 0
 301 005e E4B2     		uxtb	r4, r4
 302              	.LVL35:
 303              		.loc 1 111 0
 304 0060 2100     		movs	r1, r4
 305 0062 0093     		str	r3, [sp]
 306 0064 069A     		ldr	r2, [sp, #24]
 307 0066 2B00     		movs	r3, r5
 308 0068 0398     		ldr	r0, [sp, #12]
 309 006a FFF7FEFF 		bl	u8g2_DrawDisc
 310              	.LVL36:
 112:..\..\u8g2\csrc/u8g2_box.c ****   u8g2_DrawDisc(u8g2, xl, yl, r, U8G2_DRAW_LOWER_LEFT);
 311              		.loc 1 112 0
 312 006e 0423     		movs	r3, #4
 313 0070 079A     		ldr	r2, [sp, #28]
 314 0072 0093     		str	r3, [sp]
 315 0074 3100     		movs	r1, r6
 316 0076 2B00     		movs	r3, r5
 317 0078 0398     		ldr	r0, [sp, #12]
 318 007a FFF7FEFF 		bl	u8g2_DrawDisc
 319              	.LVL37:
 113:..\..\u8g2\csrc/u8g2_box.c ****   u8g2_DrawDisc(u8g2, xr, yl, r, U8G2_DRAW_LOWER_RIGHT);
 320              		.loc 1 113 0
 321 007e 0823     		movs	r3, #8
 322 0080 2100     		movs	r1, r4
 323 0082 0093     		str	r3, [sp]
 324 0084 079A     		ldr	r2, [sp, #28]
 325 0086 2B00     		movs	r3, r5
 326 0088 0398     		ldr	r0, [sp, #12]
 327 008a FFF7FEFF 		bl	u8g2_DrawDisc
 328              	.LVL38:
 329              	.LBB6:
ARM GAS  C:\Users\gjl\AppData\Local\Temp\cc03BcQS.s 			page 9


 114:..\..\u8g2\csrc/u8g2_box.c **** 
 115:..\..\u8g2\csrc/u8g2_box.c ****   {
 116:..\..\u8g2\csrc/u8g2_box.c ****     u8g2_uint_t ww, hh;
 117:..\..\u8g2\csrc/u8g2_box.c **** 
 118:..\..\u8g2\csrc/u8g2_box.c ****     ww = w;
 119:..\..\u8g2\csrc/u8g2_box.c ****     ww -= r;
 330              		.loc 1 119 0
 331 008e 089B     		ldr	r3, [sp, #32]
 332 0090 5C1B     		subs	r4, r3, r5
 333              	.LVL39:
 120:..\..\u8g2\csrc/u8g2_box.c ****     ww -= r;
 334              		.loc 1 120 0
 335 0092 641B     		subs	r4, r4, r5
 336              	.LVL40:
 337 0094 E4B2     		uxtb	r4, r4
 338              	.LVL41:
 121:..\..\u8g2\csrc/u8g2_box.c ****     xl++;
 122:..\..\u8g2\csrc/u8g2_box.c ****     yu++;
 123:..\..\u8g2\csrc/u8g2_box.c ****     
 124:..\..\u8g2\csrc/u8g2_box.c ****     if ( ww >= 3 )
 339              		.loc 1 124 0
 340 0096 022C     		cmp	r4, #2
 341 0098 13D9     		bls	.L16
 121:..\..\u8g2\csrc/u8g2_box.c ****     xl++;
 342              		.loc 1 121 0
 343 009a 0136     		adds	r6, r6, #1
 344              	.LVL42:
 125:..\..\u8g2\csrc/u8g2_box.c ****     {
 126:..\..\u8g2\csrc/u8g2_box.c ****       ww -= 2;
 345              		.loc 1 126 0
 346 009c 023C     		subs	r4, r4, #2
 347              	.LVL43:
 127:..\..\u8g2\csrc/u8g2_box.c ****       u8g2_DrawBox(u8g2, xl, y, ww, r+1);
 348              		.loc 1 127 0
 349 009e 6F1C     		adds	r7, r5, #1
 121:..\..\u8g2\csrc/u8g2_box.c ****     xl++;
 350              		.loc 1 121 0
 351 00a0 F6B2     		uxtb	r6, r6
 352              	.LVL44:
 126:..\..\u8g2\csrc/u8g2_box.c ****       u8g2_DrawBox(u8g2, xl, y, ww, r+1);
 353              		.loc 1 126 0
 354 00a2 E4B2     		uxtb	r4, r4
 355              	.LVL45:
 356              		.loc 1 127 0
 357 00a4 FFB2     		uxtb	r7, r7
 358 00a6 2300     		movs	r3, r4
 359 00a8 059A     		ldr	r2, [sp, #20]
 360 00aa 3100     		movs	r1, r6
 361 00ac 0398     		ldr	r0, [sp, #12]
 362 00ae 0097     		str	r7, [sp]
 363 00b0 FFF7FEFF 		bl	u8g2_DrawBox
 364              	.LVL46:
 128:..\..\u8g2\csrc/u8g2_box.c ****       u8g2_DrawBox(u8g2, xl, yl, ww, r+1);
 365              		.loc 1 128 0
 366 00b4 0097     		str	r7, [sp]
 367 00b6 2300     		movs	r3, r4
 368 00b8 079A     		ldr	r2, [sp, #28]
ARM GAS  C:\Users\gjl\AppData\Local\Temp\cc03BcQS.s 			page 10


 369 00ba 3100     		movs	r1, r6
 370 00bc 0398     		ldr	r0, [sp, #12]
 371 00be FFF7FEFF 		bl	u8g2_DrawBox
 372              	.LVL47:
 373              	.L16:
 129:..\..\u8g2\csrc/u8g2_box.c ****     }
 130:..\..\u8g2\csrc/u8g2_box.c ****     
 131:..\..\u8g2\csrc/u8g2_box.c ****     hh = h;
 132:..\..\u8g2\csrc/u8g2_box.c ****     hh -= r;
 374              		.loc 1 132 0
 375 00c2 099B     		ldr	r3, [sp, #36]
 376 00c4 5B1B     		subs	r3, r3, r5
 377              	.LVL48:
 133:..\..\u8g2\csrc/u8g2_box.c ****     hh -= r;
 378              		.loc 1 133 0
 379 00c6 5B1B     		subs	r3, r3, r5
 380              	.LVL49:
 381 00c8 DBB2     		uxtb	r3, r3
 382              	.LVL50:
 134:..\..\u8g2\csrc/u8g2_box.c ****     //h--;
 135:..\..\u8g2\csrc/u8g2_box.c ****     if ( hh >= 3 )
 383              		.loc 1 135 0
 384 00ca 022B     		cmp	r3, #2
 385 00cc 0AD9     		bls	.L13
 386              	.LVL51:
 136:..\..\u8g2\csrc/u8g2_box.c ****     {
 137:..\..\u8g2\csrc/u8g2_box.c ****       hh -= 2;
 138:..\..\u8g2\csrc/u8g2_box.c ****       u8g2_DrawBox(u8g2, x, yu, w, hh);
 387              		.loc 1 138 0
 388 00ce 069A     		ldr	r2, [sp, #24]
 389 00d0 023B     		subs	r3, r3, #2
 390              	.LVL52:
 391 00d2 DBB2     		uxtb	r3, r3
 392              	.LVL53:
 393 00d4 0132     		adds	r2, r2, #1
 394 00d6 0093     		str	r3, [sp]
 395 00d8 D2B2     		uxtb	r2, r2
 396 00da 089B     		ldr	r3, [sp, #32]
 397 00dc 0499     		ldr	r1, [sp, #16]
 398 00de 0398     		ldr	r0, [sp, #12]
 399 00e0 FFF7FEFF 		bl	u8g2_DrawBox
 400              	.LVL54:
 401              	.L13:
 402              	.LBE6:
 139:..\..\u8g2\csrc/u8g2_box.c ****     }
 140:..\..\u8g2\csrc/u8g2_box.c ****   }
 141:..\..\u8g2\csrc/u8g2_box.c **** }
 403              		.loc 1 141 0
 404 00e4 0BB0     		add	sp, sp, #44
 405              		@ sp needed
 406 00e6 F0BD     		pop	{r4, r5, r6, r7, pc}
 407              		.cfi_endproc
 408              	.LFE2:
 409              		.size	u8g2_DrawRBox, .-u8g2_DrawRBox
 410              		.section	.text.u8g2_DrawRFrame,"ax",%progbits
 411              		.align	1
 412              		.global	u8g2_DrawRFrame
ARM GAS  C:\Users\gjl\AppData\Local\Temp\cc03BcQS.s 			page 11


 413              		.code	16
 414              		.thumb_func
 415              		.type	u8g2_DrawRFrame, %function
 416              	u8g2_DrawRFrame:
 417              	.LFB3:
 142:..\..\u8g2\csrc/u8g2_box.c **** 
 143:..\..\u8g2\csrc/u8g2_box.c **** 
 144:..\..\u8g2\csrc/u8g2_box.c **** void u8g2_DrawRFrame(u8g2_t *u8g2, u8g2_uint_t x, u8g2_uint_t y, u8g2_uint_t w, u8g2_uint_t h, u8g2
 145:..\..\u8g2\csrc/u8g2_box.c **** {
 418              		.loc 1 145 0
 419              		.cfi_startproc
 420              		@ args = 8, pretend = 0, frame = 24
 421              		@ frame_needed = 0, uses_anonymous_args = 0
 422              	.LVL55:
 423 0000 F0B5     		push	{r4, r5, r6, r7, lr}
 424              		.cfi_def_cfa_offset 20
 425              		.cfi_offset 4, -20
 426              		.cfi_offset 5, -16
 427              		.cfi_offset 6, -12
 428              		.cfi_offset 7, -8
 429              		.cfi_offset 14, -4
 430 0002 89B0     		sub	sp, sp, #36
 431              		.cfi_def_cfa_offset 56
 432              		.loc 1 145 0
 433 0004 0693     		str	r3, [sp, #24]
 434 0006 0EAB     		add	r3, sp, #56
 435              	.LVL56:
 436 0008 1B78     		ldrb	r3, [r3]
 437              	.LVL57:
 438 000a 0392     		str	r2, [sp, #12]
 146:..\..\u8g2\csrc/u8g2_box.c ****   u8g2_uint_t xl, yu;
 147:..\..\u8g2\csrc/u8g2_box.c **** 
 148:..\..\u8g2\csrc/u8g2_box.c **** #ifdef U8G2_WITH_INTERSECTION
 149:..\..\u8g2\csrc/u8g2_box.c ****   if ( u8g2_IsIntersection(u8g2, x, y, x+w, y+h) == 0 ) 
 439              		.loc 1 149 0
 440 000c 069A     		ldr	r2, [sp, #24]
 441              	.LVL58:
 145:..\..\u8g2\csrc/u8g2_box.c ****   u8g2_uint_t xl, yu;
 442              		.loc 1 145 0
 443 000e 0793     		str	r3, [sp, #28]
 444 0010 0FAB     		add	r3, sp, #60
 445              	.LVL59:
 446 0012 1C78     		ldrb	r4, [r3]
 447              		.loc 1 149 0
 448 0014 8D18     		adds	r5, r1, r2
 449 0016 039B     		ldr	r3, [sp, #12]
 450              	.LVL60:
 451 0018 079A     		ldr	r2, [sp, #28]
 452 001a EDB2     		uxtb	r5, r5
 453 001c 9F18     		adds	r7, r3, r2
 454 001e FFB2     		uxtb	r7, r7
 455 0020 0097     		str	r7, [sp]
 456 0022 2B00     		movs	r3, r5
 457 0024 039A     		ldr	r2, [sp, #12]
 145:..\..\u8g2\csrc/u8g2_box.c ****   u8g2_uint_t xl, yu;
 458              		.loc 1 145 0
 459 0026 0600     		movs	r6, r0
ARM GAS  C:\Users\gjl\AppData\Local\Temp\cc03BcQS.s 			page 12


 460 0028 0291     		str	r1, [sp, #8]
 461              		.loc 1 149 0
 462 002a FFF7FEFF 		bl	u8g2_IsIntersection
 463              	.LVL61:
 464 002e 0028     		cmp	r0, #0
 465 0030 63D0     		beq	.L18
 466              	.LVL62:
 150:..\..\u8g2\csrc/u8g2_box.c ****     return;
 151:..\..\u8g2\csrc/u8g2_box.c **** #endif /* U8G2_WITH_INTERSECTION */
 152:..\..\u8g2\csrc/u8g2_box.c **** 
 153:..\..\u8g2\csrc/u8g2_box.c ****   xl = x;
 154:..\..\u8g2\csrc/u8g2_box.c ****   xl += r;
 467              		.loc 1 154 0
 468 0032 029B     		ldr	r3, [sp, #8]
 469              	.LBB7:
 155:..\..\u8g2\csrc/u8g2_box.c ****   yu = y;
 156:..\..\u8g2\csrc/u8g2_box.c ****   yu += r;
 157:..\..\u8g2\csrc/u8g2_box.c ****  
 158:..\..\u8g2\csrc/u8g2_box.c ****   {
 159:..\..\u8g2\csrc/u8g2_box.c ****     u8g2_uint_t yl, xr;
 160:..\..\u8g2\csrc/u8g2_box.c ****       
 161:..\..\u8g2\csrc/u8g2_box.c ****     xr = x;
 162:..\..\u8g2\csrc/u8g2_box.c ****     xr += w;
 163:..\..\u8g2\csrc/u8g2_box.c ****     xr -= r;
 164:..\..\u8g2\csrc/u8g2_box.c ****     xr -= 1;
 165:..\..\u8g2\csrc/u8g2_box.c ****     
 166:..\..\u8g2\csrc/u8g2_box.c ****     yl = y;
 167:..\..\u8g2\csrc/u8g2_box.c ****     yl += h;
 168:..\..\u8g2\csrc/u8g2_box.c ****     yl -= r; 
 169:..\..\u8g2\csrc/u8g2_box.c ****     yl -= 1;
 170:..\..\u8g2\csrc/u8g2_box.c **** 
 171:..\..\u8g2\csrc/u8g2_box.c ****     u8g2_DrawCircle(u8g2, xl, yu, r, U8G2_DRAW_UPPER_LEFT);
 470              		.loc 1 171 0
 471 0034 3000     		movs	r0, r6
 472              	.LBE7:
 154:..\..\u8g2\csrc/u8g2_box.c ****   yu = y;
 473              		.loc 1 154 0
 474 0036 1B19     		adds	r3, r3, r4
 475 0038 DBB2     		uxtb	r3, r3
 476 003a 0493     		str	r3, [sp, #16]
 477              	.LVL63:
 156:..\..\u8g2\csrc/u8g2_box.c ****  
 478              		.loc 1 156 0
 479 003c 039B     		ldr	r3, [sp, #12]
 480              	.LBB8:
 481              		.loc 1 171 0
 482 003e 0499     		ldr	r1, [sp, #16]
 483              	.LBE8:
 156:..\..\u8g2\csrc/u8g2_box.c ****  
 484              		.loc 1 156 0
 485 0040 1B19     		adds	r3, r3, r4
 486 0042 DBB2     		uxtb	r3, r3
 487 0044 0593     		str	r3, [sp, #20]
 488              	.LVL64:
 489 0046 E343     		mvns	r3, r4
 490 0048 DBB2     		uxtb	r3, r3
 491              	.LVL65:
ARM GAS  C:\Users\gjl\AppData\Local\Temp\cc03BcQS.s 			page 13


 492              	.LBB9:
 164:..\..\u8g2\csrc/u8g2_box.c ****     
 493              		.loc 1 164 0
 494 004a ED18     		adds	r5, r5, r3
 495              	.LVL66:
 169:..\..\u8g2\csrc/u8g2_box.c **** 
 496              		.loc 1 169 0
 497 004c FF18     		adds	r7, r7, r3
 498              		.loc 1 171 0
 499 004e 0223     		movs	r3, #2
 500 0050 059A     		ldr	r2, [sp, #20]
 501 0052 0093     		str	r3, [sp]
 502 0054 2300     		movs	r3, r4
 503 0056 FFF7FEFF 		bl	u8g2_DrawCircle
 504              	.LVL67:
 172:..\..\u8g2\csrc/u8g2_box.c ****     u8g2_DrawCircle(u8g2, xr, yu, r, U8G2_DRAW_UPPER_RIGHT);
 505              		.loc 1 172 0
 506 005a 0123     		movs	r3, #1
 164:..\..\u8g2\csrc/u8g2_box.c ****     
 507              		.loc 1 164 0
 508 005c EDB2     		uxtb	r5, r5
 509              	.LVL68:
 510              		.loc 1 172 0
 511 005e 2900     		movs	r1, r5
 512 0060 0093     		str	r3, [sp]
 513 0062 059A     		ldr	r2, [sp, #20]
 514 0064 2300     		movs	r3, r4
 515 0066 3000     		movs	r0, r6
 516 0068 FFF7FEFF 		bl	u8g2_DrawCircle
 517              	.LVL69:
 173:..\..\u8g2\csrc/u8g2_box.c ****     u8g2_DrawCircle(u8g2, xl, yl, r, U8G2_DRAW_LOWER_LEFT);
 518              		.loc 1 173 0
 519 006c 0423     		movs	r3, #4
 169:..\..\u8g2\csrc/u8g2_box.c **** 
 520              		.loc 1 169 0
 521 006e FFB2     		uxtb	r7, r7
 522              	.LVL70:
 523              		.loc 1 173 0
 524 0070 0093     		str	r3, [sp]
 525 0072 3A00     		movs	r2, r7
 526 0074 2300     		movs	r3, r4
 527 0076 0499     		ldr	r1, [sp, #16]
 528 0078 3000     		movs	r0, r6
 529 007a FFF7FEFF 		bl	u8g2_DrawCircle
 530              	.LVL71:
 174:..\..\u8g2\csrc/u8g2_box.c ****     u8g2_DrawCircle(u8g2, xr, yl, r, U8G2_DRAW_LOWER_RIGHT);
 531              		.loc 1 174 0
 532 007e 0823     		movs	r3, #8
 533 0080 2900     		movs	r1, r5
 534 0082 0093     		str	r3, [sp]
 535 0084 3A00     		movs	r2, r7
 536 0086 2300     		movs	r3, r4
 537 0088 3000     		movs	r0, r6
 538 008a FFF7FEFF 		bl	u8g2_DrawCircle
 539              	.LVL72:
 540              	.LBE9:
 541              	.LBB10:
ARM GAS  C:\Users\gjl\AppData\Local\Temp\cc03BcQS.s 			page 14


 175:..\..\u8g2\csrc/u8g2_box.c ****   }
 176:..\..\u8g2\csrc/u8g2_box.c **** 
 177:..\..\u8g2\csrc/u8g2_box.c ****   {
 178:..\..\u8g2\csrc/u8g2_box.c ****     u8g2_uint_t ww, hh;
 179:..\..\u8g2\csrc/u8g2_box.c **** 
 180:..\..\u8g2\csrc/u8g2_box.c ****     ww = w;
 181:..\..\u8g2\csrc/u8g2_box.c ****     ww -= r;
 542              		.loc 1 181 0
 543 008e 069B     		ldr	r3, [sp, #24]
 544 0090 1D1B     		subs	r5, r3, r4
 545              	.LVL73:
 182:..\..\u8g2\csrc/u8g2_box.c ****     ww -= r;
 183:..\..\u8g2\csrc/u8g2_box.c ****     hh = h;
 184:..\..\u8g2\csrc/u8g2_box.c ****     hh -= r;
 546              		.loc 1 184 0
 547 0092 079B     		ldr	r3, [sp, #28]
 182:..\..\u8g2\csrc/u8g2_box.c ****     ww -= r;
 548              		.loc 1 182 0
 549 0094 2D1B     		subs	r5, r5, r4
 550              	.LVL74:
 551              		.loc 1 184 0
 552 0096 1B1B     		subs	r3, r3, r4
 185:..\..\u8g2\csrc/u8g2_box.c ****     hh -= r;
 553              		.loc 1 185 0
 554 0098 1C1B     		subs	r4, r3, r4
 555              	.LVL75:
 182:..\..\u8g2\csrc/u8g2_box.c ****     ww -= r;
 556              		.loc 1 182 0
 557 009a EDB2     		uxtb	r5, r5
 558              	.LVL76:
 559              		.loc 1 185 0
 560 009c E4B2     		uxtb	r4, r4
 561              	.LVL77:
 186:..\..\u8g2\csrc/u8g2_box.c ****     
 187:..\..\u8g2\csrc/u8g2_box.c ****     xl++;
 188:..\..\u8g2\csrc/u8g2_box.c ****     yu++;
 189:..\..\u8g2\csrc/u8g2_box.c ****     
 190:..\..\u8g2\csrc/u8g2_box.c ****     if ( ww >= 3 )
 562              		.loc 1 190 0
 563 009e 022D     		cmp	r5, #2
 564 00a0 14D9     		bls	.L21
 187:..\..\u8g2\csrc/u8g2_box.c ****     yu++;
 565              		.loc 1 187 0
 566 00a2 049F     		ldr	r7, [sp, #16]
 567              	.LVL78:
 191:..\..\u8g2\csrc/u8g2_box.c ****     {
 192:..\..\u8g2\csrc/u8g2_box.c ****       ww -= 2;
 568              		.loc 1 192 0
 569 00a4 023D     		subs	r5, r5, #2
 570              	.LVL79:
 187:..\..\u8g2\csrc/u8g2_box.c ****     yu++;
 571              		.loc 1 187 0
 572 00a6 0137     		adds	r7, r7, #1
 573 00a8 FFB2     		uxtb	r7, r7
 574              		.loc 1 192 0
 575 00aa EDB2     		uxtb	r5, r5
 576              	.LVL80:
ARM GAS  C:\Users\gjl\AppData\Local\Temp\cc03BcQS.s 			page 15


 193:..\..\u8g2\csrc/u8g2_box.c ****       h--;
 194:..\..\u8g2\csrc/u8g2_box.c ****       u8g2_DrawHLine(u8g2, xl, y, ww);
 577              		.loc 1 194 0
 578 00ac 2B00     		movs	r3, r5
 579 00ae 039A     		ldr	r2, [sp, #12]
 580 00b0 3900     		movs	r1, r7
 581 00b2 3000     		movs	r0, r6
 582 00b4 FFF7FEFF 		bl	u8g2_DrawHLine
 583              	.LVL81:
 195:..\..\u8g2\csrc/u8g2_box.c ****       u8g2_DrawHLine(u8g2, xl, y+h, ww);
 584              		.loc 1 195 0
 585 00b8 079A     		ldr	r2, [sp, #28]
 586 00ba 039B     		ldr	r3, [sp, #12]
 587 00bc 013A     		subs	r2, r2, #1
 588 00be 9A18     		adds	r2, r3, r2
 589 00c0 D2B2     		uxtb	r2, r2
 590 00c2 2B00     		movs	r3, r5
 591 00c4 3900     		movs	r1, r7
 592 00c6 3000     		movs	r0, r6
 593 00c8 FFF7FEFF 		bl	u8g2_DrawHLine
 594              	.LVL82:
 595              	.L21:
 196:..\..\u8g2\csrc/u8g2_box.c ****     }
 197:..\..\u8g2\csrc/u8g2_box.c ****     
 198:..\..\u8g2\csrc/u8g2_box.c ****     if ( hh >= 3 )
 596              		.loc 1 198 0
 597 00cc 022C     		cmp	r4, #2
 598 00ce 14D9     		bls	.L18
 188:..\..\u8g2\csrc/u8g2_box.c ****     
 599              		.loc 1 188 0
 600 00d0 059D     		ldr	r5, [sp, #20]
 601              	.LVL83:
 199:..\..\u8g2\csrc/u8g2_box.c ****     {
 200:..\..\u8g2\csrc/u8g2_box.c ****       hh -= 2;
 602              		.loc 1 200 0
 603 00d2 023C     		subs	r4, r4, #2
 604              	.LVL84:
 188:..\..\u8g2\csrc/u8g2_box.c ****     
 605              		.loc 1 188 0
 606 00d4 0135     		adds	r5, r5, #1
 607 00d6 EDB2     		uxtb	r5, r5
 608              		.loc 1 200 0
 609 00d8 E4B2     		uxtb	r4, r4
 610              	.LVL85:
 201:..\..\u8g2\csrc/u8g2_box.c ****       w--;
 202:..\..\u8g2\csrc/u8g2_box.c ****       u8g2_DrawVLine(u8g2, x, yu, hh);
 611              		.loc 1 202 0
 612 00da 2300     		movs	r3, r4
 613 00dc 2A00     		movs	r2, r5
 614 00de 0299     		ldr	r1, [sp, #8]
 615 00e0 3000     		movs	r0, r6
 616 00e2 FFF7FEFF 		bl	u8g2_DrawVLine
 617              	.LVL86:
 203:..\..\u8g2\csrc/u8g2_box.c ****       u8g2_DrawVLine(u8g2, x+w, yu, hh);
 618              		.loc 1 203 0
 619 00e6 0699     		ldr	r1, [sp, #24]
 620 00e8 029B     		ldr	r3, [sp, #8]
ARM GAS  C:\Users\gjl\AppData\Local\Temp\cc03BcQS.s 			page 16


 621 00ea 0139     		subs	r1, r1, #1
 622 00ec 5918     		adds	r1, r3, r1
 623 00ee C9B2     		uxtb	r1, r1
 624 00f0 2300     		movs	r3, r4
 625 00f2 2A00     		movs	r2, r5
 626 00f4 3000     		movs	r0, r6
 627 00f6 FFF7FEFF 		bl	u8g2_DrawVLine
 628              	.LVL87:
 629              	.L18:
 630              	.LBE10:
 204:..\..\u8g2\csrc/u8g2_box.c ****     }
 205:..\..\u8g2\csrc/u8g2_box.c ****   }
 206:..\..\u8g2\csrc/u8g2_box.c **** }
 631              		.loc 1 206 0
 632 00fa 09B0     		add	sp, sp, #36
 633              		@ sp needed
 634              	.LVL88:
 635 00fc F0BD     		pop	{r4, r5, r6, r7, pc}
 636              		.cfi_endproc
 637              	.LFE3:
 638              		.size	u8g2_DrawRFrame, .-u8g2_DrawRFrame
 639              		.text
 640              	.Letext0:
 641              		.file 2 "c:\\program files (x86)\\cypress\\psoc creator\\4.1\\psoc creator\\import\\gnu\\arm\\5.4.
 642              		.file 3 "c:\\program files (x86)\\cypress\\psoc creator\\4.1\\psoc creator\\import\\gnu\\arm\\5.4.
 643              		.file 4 "..\\..\\u8g2\\csrc\\u8x8.h"
 644              		.file 5 "..\\..\\u8g2\\csrc\\u8g2.h"