ARM GAS  C:\Users\gjl\AppData\Local\Temp\ccY1KEHs.s 			page 1


   1              		.syntax unified
   2              		.cpu cortex-m0
   3              		.fpu softvfp
   4              		.eabi_attribute 20, 1
   5              		.eabi_attribute 21, 1
   6              		.eabi_attribute 23, 3
   7              		.eabi_attribute 24, 1
   8              		.eabi_attribute 25, 1
   9              		.eabi_attribute 26, 1
  10              		.eabi_attribute 30, 4
  11              		.eabi_attribute 34, 0
  12              		.eabi_attribute 18, 4
  13              		.thumb
  14              		.syntax unified
  15              		.file	"u8g2_polygon.c"
  16              		.text
  17              	.Ltext0:
  18              		.cfi_sections	.debug_frame
  19              		.section	.text.pge_Next,"ax",%progbits
  20              		.align	1
  21              		.code	16
  22              		.thumb_func
  23              		.type	pge_Next, %function
  24              	pge_Next:
  25              	.LFB0:
  26              		.file 1 "..\\..\\u8g2\\csrc\\u8g2_polygon.c"
   1:..\..\u8g2\csrc/u8g2_polygon.c **** /*
   2:..\..\u8g2\csrc/u8g2_polygon.c **** 
   3:..\..\u8g2\csrc/u8g2_polygon.c ****   u8g22_polygon.c
   4:..\..\u8g2\csrc/u8g2_polygon.c **** 
   5:..\..\u8g2\csrc/u8g2_polygon.c **** */	
   6:..\..\u8g2\csrc/u8g2_polygon.c **** 
   7:..\..\u8g2\csrc/u8g2_polygon.c **** 
   8:..\..\u8g2\csrc/u8g2_polygon.c **** #include "u8g2.h"
   9:..\..\u8g2\csrc/u8g2_polygon.c **** 
  10:..\..\u8g2\csrc/u8g2_polygon.c **** 
  11:..\..\u8g2\csrc/u8g2_polygon.c **** 
  12:..\..\u8g2\csrc/u8g2_polygon.c **** 
  13:..\..\u8g2\csrc/u8g2_polygon.c **** /*===========================================*/
  14:..\..\u8g2\csrc/u8g2_polygon.c **** /* local definitions */
  15:..\..\u8g2\csrc/u8g2_polygon.c **** 
  16:..\..\u8g2\csrc/u8g2_polygon.c **** typedef int16_t pg_word_t;
  17:..\..\u8g2\csrc/u8g2_polygon.c **** 
  18:..\..\u8g2\csrc/u8g2_polygon.c **** 
  19:..\..\u8g2\csrc/u8g2_polygon.c **** struct pg_point_struct
  20:..\..\u8g2\csrc/u8g2_polygon.c **** {
  21:..\..\u8g2\csrc/u8g2_polygon.c ****   pg_word_t x;
  22:..\..\u8g2\csrc/u8g2_polygon.c ****   pg_word_t y;
  23:..\..\u8g2\csrc/u8g2_polygon.c **** };
  24:..\..\u8g2\csrc/u8g2_polygon.c **** 
  25:..\..\u8g2\csrc/u8g2_polygon.c **** typedef struct _pg_struct pg_struct;	/* forward declaration */
  26:..\..\u8g2\csrc/u8g2_polygon.c **** 
  27:..\..\u8g2\csrc/u8g2_polygon.c **** struct pg_edge_struct
  28:..\..\u8g2\csrc/u8g2_polygon.c **** {
  29:..\..\u8g2\csrc/u8g2_polygon.c ****   pg_word_t x_direction;	/* 1, if x2 is greater than x1, -1 otherwise */
  30:..\..\u8g2\csrc/u8g2_polygon.c ****   pg_word_t height;
  31:..\..\u8g2\csrc/u8g2_polygon.c ****   pg_word_t current_x_offset;
ARM GAS  C:\Users\gjl\AppData\Local\Temp\ccY1KEHs.s 			page 2


  32:..\..\u8g2\csrc/u8g2_polygon.c ****   pg_word_t error_offset;
  33:..\..\u8g2\csrc/u8g2_polygon.c ****   
  34:..\..\u8g2\csrc/u8g2_polygon.c ****   /* --- line loop --- */
  35:..\..\u8g2\csrc/u8g2_polygon.c ****   pg_word_t current_y;
  36:..\..\u8g2\csrc/u8g2_polygon.c ****   pg_word_t max_y;
  37:..\..\u8g2\csrc/u8g2_polygon.c ****   pg_word_t current_x;
  38:..\..\u8g2\csrc/u8g2_polygon.c ****   pg_word_t error;
  39:..\..\u8g2\csrc/u8g2_polygon.c **** 
  40:..\..\u8g2\csrc/u8g2_polygon.c ****   /* --- outer loop --- */
  41:..\..\u8g2\csrc/u8g2_polygon.c ****   uint8_t (*next_idx_fn)(pg_struct *pg, uint8_t i);
  42:..\..\u8g2\csrc/u8g2_polygon.c ****   uint8_t curr_idx;
  43:..\..\u8g2\csrc/u8g2_polygon.c **** };
  44:..\..\u8g2\csrc/u8g2_polygon.c **** 
  45:..\..\u8g2\csrc/u8g2_polygon.c **** /* maximum number of points in the polygon */
  46:..\..\u8g2\csrc/u8g2_polygon.c **** /* can be redefined, but highest possible value is 254 */
  47:..\..\u8g2\csrc/u8g2_polygon.c **** #define PG_MAX_POINTS 6
  48:..\..\u8g2\csrc/u8g2_polygon.c **** 
  49:..\..\u8g2\csrc/u8g2_polygon.c **** /* index numbers for the pge structures below */
  50:..\..\u8g2\csrc/u8g2_polygon.c **** #define PG_LEFT 0
  51:..\..\u8g2\csrc/u8g2_polygon.c **** #define PG_RIGHT 1
  52:..\..\u8g2\csrc/u8g2_polygon.c **** 
  53:..\..\u8g2\csrc/u8g2_polygon.c **** 
  54:..\..\u8g2\csrc/u8g2_polygon.c **** struct _pg_struct
  55:..\..\u8g2\csrc/u8g2_polygon.c **** {
  56:..\..\u8g2\csrc/u8g2_polygon.c ****   struct pg_point_struct list[PG_MAX_POINTS];
  57:..\..\u8g2\csrc/u8g2_polygon.c ****   uint8_t cnt;
  58:..\..\u8g2\csrc/u8g2_polygon.c ****   uint8_t is_min_y_not_flat;
  59:..\..\u8g2\csrc/u8g2_polygon.c ****   pg_word_t total_scan_line_cnt;
  60:..\..\u8g2\csrc/u8g2_polygon.c ****   struct pg_edge_struct pge[2];	/* left and right line draw structures */
  61:..\..\u8g2\csrc/u8g2_polygon.c **** };
  62:..\..\u8g2\csrc/u8g2_polygon.c **** 
  63:..\..\u8g2\csrc/u8g2_polygon.c **** 
  64:..\..\u8g2\csrc/u8g2_polygon.c **** /*===========================================*/
  65:..\..\u8g2\csrc/u8g2_polygon.c **** /* procedures, which should not be inlined (save as much flash ROM as possible */
  66:..\..\u8g2\csrc/u8g2_polygon.c **** 
  67:..\..\u8g2\csrc/u8g2_polygon.c **** #define PG_NOINLINE U8G2_NOINLINE
  68:..\..\u8g2\csrc/u8g2_polygon.c **** 
  69:..\..\u8g2\csrc/u8g2_polygon.c **** static uint8_t pge_Next(struct pg_edge_struct *pge) PG_NOINLINE;
  70:..\..\u8g2\csrc/u8g2_polygon.c **** static uint8_t pg_inc(pg_struct *pg, uint8_t i) PG_NOINLINE;
  71:..\..\u8g2\csrc/u8g2_polygon.c **** static uint8_t pg_dec(pg_struct *pg, uint8_t i) PG_NOINLINE;
  72:..\..\u8g2\csrc/u8g2_polygon.c **** static void pg_expand_min_y(pg_struct *pg, pg_word_t min_y, uint8_t pge_idx) PG_NOINLINE;
  73:..\..\u8g2\csrc/u8g2_polygon.c **** static void pg_line_init(pg_struct * const pg, uint8_t pge_index) PG_NOINLINE;
  74:..\..\u8g2\csrc/u8g2_polygon.c **** 
  75:..\..\u8g2\csrc/u8g2_polygon.c **** /*===========================================*/
  76:..\..\u8g2\csrc/u8g2_polygon.c **** /* line draw algorithm */
  77:..\..\u8g2\csrc/u8g2_polygon.c **** 
  78:..\..\u8g2\csrc/u8g2_polygon.c **** static uint8_t pge_Next(struct pg_edge_struct *pge)
  79:..\..\u8g2\csrc/u8g2_polygon.c **** {
  27              		.loc 1 79 0
  28              		.cfi_startproc
  29              		@ args = 0, pretend = 0, frame = 0
  30              		@ frame_needed = 0, uses_anonymous_args = 0
  31              	.LVL0:
  32 0000 10B5     		push	{r4, lr}
  33              		.cfi_def_cfa_offset 8
  34              		.cfi_offset 4, -8
  35              		.cfi_offset 14, -4
ARM GAS  C:\Users\gjl\AppData\Local\Temp\ccY1KEHs.s 			page 3


  80:..\..\u8g2\csrc/u8g2_polygon.c ****   if ( pge->current_y >= pge->max_y )
  36              		.loc 1 80 0
  37 0002 0822     		movs	r2, #8
  38 0004 845E     		ldrsh	r4, [r0, r2]
  39 0006 0A21     		movs	r1, #10
  40 0008 425E     		ldrsh	r2, [r0, r1]
  79:..\..\u8g2\csrc/u8g2_polygon.c ****   if ( pge->current_y >= pge->max_y )
  41              		.loc 1 79 0
  42 000a 0300     		movs	r3, r0
  81:..\..\u8g2\csrc/u8g2_polygon.c ****     return 0;
  43              		.loc 1 81 0
  44 000c 0020     		movs	r0, #0
  45              	.LVL1:
  80:..\..\u8g2\csrc/u8g2_polygon.c ****   if ( pge->current_y >= pge->max_y )
  46              		.loc 1 80 0
  47 000e A242     		cmp	r2, r4
  48 0010 15DD     		ble	.L2
  82:..\..\u8g2\csrc/u8g2_polygon.c ****   
  83:..\..\u8g2\csrc/u8g2_polygon.c ****   pge->current_x += pge->current_x_offset;
  49              		.loc 1 83 0
  50 0012 9989     		ldrh	r1, [r3, #12]
  51 0014 9A88     		ldrh	r2, [r3, #4]
  84:..\..\u8g2\csrc/u8g2_polygon.c ****   pge->error += pge->error_offset;
  52              		.loc 1 84 0
  53 0016 D889     		ldrh	r0, [r3, #14]
  83:..\..\u8g2\csrc/u8g2_polygon.c ****   pge->error += pge->error_offset;
  54              		.loc 1 83 0
  55 0018 8918     		adds	r1, r1, r2
  56              		.loc 1 84 0
  57 001a DA88     		ldrh	r2, [r3, #6]
  83:..\..\u8g2\csrc/u8g2_polygon.c ****   pge->error += pge->error_offset;
  58              		.loc 1 83 0
  59 001c 89B2     		uxth	r1, r1
  60              		.loc 1 84 0
  61 001e 8218     		adds	r2, r0, r2
  62 0020 92B2     		uxth	r2, r2
  63 0022 10B2     		sxth	r0, r2
  83:..\..\u8g2\csrc/u8g2_polygon.c ****   pge->error += pge->error_offset;
  64              		.loc 1 83 0
  65 0024 9981     		strh	r1, [r3, #12]
  66              		.loc 1 84 0
  67 0026 D881     		strh	r0, [r3, #14]
  85:..\..\u8g2\csrc/u8g2_polygon.c ****   if ( pge->error > 0 )
  68              		.loc 1 85 0
  69 0028 0028     		cmp	r0, #0
  70 002a 05DD     		ble	.L3
  86:..\..\u8g2\csrc/u8g2_polygon.c ****   {
  87:..\..\u8g2\csrc/u8g2_polygon.c ****     pge->current_x += pge->x_direction;
  71              		.loc 1 87 0
  72 002c 1888     		ldrh	r0, [r3]
  73 002e 0918     		adds	r1, r1, r0
  74 0030 9981     		strh	r1, [r3, #12]
  88:..\..\u8g2\csrc/u8g2_polygon.c ****     pge->error -= pge->height;
  75              		.loc 1 88 0
  76 0032 5988     		ldrh	r1, [r3, #2]
  77 0034 521A     		subs	r2, r2, r1
  78 0036 DA81     		strh	r2, [r3, #14]
ARM GAS  C:\Users\gjl\AppData\Local\Temp\ccY1KEHs.s 			page 4


  79              	.L3:
  89:..\..\u8g2\csrc/u8g2_polygon.c ****   }  
  90:..\..\u8g2\csrc/u8g2_polygon.c ****   
  91:..\..\u8g2\csrc/u8g2_polygon.c ****   pge->current_y++;
  92:..\..\u8g2\csrc/u8g2_polygon.c ****   return 1;
  80              		.loc 1 92 0
  81 0038 0120     		movs	r0, #1
  91:..\..\u8g2\csrc/u8g2_polygon.c ****   return 1;
  82              		.loc 1 91 0
  83 003a 0134     		adds	r4, r4, #1
  84 003c 1C81     		strh	r4, [r3, #8]
  85              	.L2:
  93:..\..\u8g2\csrc/u8g2_polygon.c **** }
  86              		.loc 1 93 0
  87              		@ sp needed
  88 003e 10BD     		pop	{r4, pc}
  89              		.cfi_endproc
  90              	.LFE0:
  91              		.size	pge_Next, .-pge_Next
  92              		.section	.text.pg_inc,"ax",%progbits
  93              		.align	1
  94              		.code	16
  95              		.thumb_func
  96              		.type	pg_inc, %function
  97              	pg_inc:
  98              	.LFB2:
  94:..\..\u8g2\csrc/u8g2_polygon.c **** 
  95:..\..\u8g2\csrc/u8g2_polygon.c **** /* assumes y2 > y1 */
  96:..\..\u8g2\csrc/u8g2_polygon.c **** static void pge_Init(struct pg_edge_struct *pge, pg_word_t x1, pg_word_t y1, pg_word_t x2, pg_word_
  97:..\..\u8g2\csrc/u8g2_polygon.c **** {
  98:..\..\u8g2\csrc/u8g2_polygon.c ****   pg_word_t dx = x2 - x1;
  99:..\..\u8g2\csrc/u8g2_polygon.c ****   pg_word_t width;
 100:..\..\u8g2\csrc/u8g2_polygon.c **** 
 101:..\..\u8g2\csrc/u8g2_polygon.c ****   pge->height = y2 - y1;
 102:..\..\u8g2\csrc/u8g2_polygon.c ****   pge->max_y = y2;
 103:..\..\u8g2\csrc/u8g2_polygon.c ****   pge->current_y = y1;
 104:..\..\u8g2\csrc/u8g2_polygon.c ****   pge->current_x = x1;
 105:..\..\u8g2\csrc/u8g2_polygon.c **** 
 106:..\..\u8g2\csrc/u8g2_polygon.c ****   if ( dx >= 0 )
 107:..\..\u8g2\csrc/u8g2_polygon.c ****   {
 108:..\..\u8g2\csrc/u8g2_polygon.c ****     pge->x_direction = 1;
 109:..\..\u8g2\csrc/u8g2_polygon.c ****     width = dx;
 110:..\..\u8g2\csrc/u8g2_polygon.c ****     pge->error = 0;
 111:..\..\u8g2\csrc/u8g2_polygon.c ****   }
 112:..\..\u8g2\csrc/u8g2_polygon.c ****   else
 113:..\..\u8g2\csrc/u8g2_polygon.c ****   {
 114:..\..\u8g2\csrc/u8g2_polygon.c ****     pge->x_direction = -1;
 115:..\..\u8g2\csrc/u8g2_polygon.c ****     width = -dx;
 116:..\..\u8g2\csrc/u8g2_polygon.c ****     pge->error = 1 - pge->height;
 117:..\..\u8g2\csrc/u8g2_polygon.c ****   }
 118:..\..\u8g2\csrc/u8g2_polygon.c ****   
 119:..\..\u8g2\csrc/u8g2_polygon.c ****   pge->current_x_offset = dx / pge->height;
 120:..\..\u8g2\csrc/u8g2_polygon.c ****   pge->error_offset = width % pge->height;
 121:..\..\u8g2\csrc/u8g2_polygon.c **** }
 122:..\..\u8g2\csrc/u8g2_polygon.c **** 
 123:..\..\u8g2\csrc/u8g2_polygon.c **** /*===========================================*/
 124:..\..\u8g2\csrc/u8g2_polygon.c **** /* convex polygon algorithm */
ARM GAS  C:\Users\gjl\AppData\Local\Temp\ccY1KEHs.s 			page 5


 125:..\..\u8g2\csrc/u8g2_polygon.c **** 
 126:..\..\u8g2\csrc/u8g2_polygon.c **** static uint8_t pg_inc(pg_struct *pg, uint8_t i)
 127:..\..\u8g2\csrc/u8g2_polygon.c **** {
  99              		.loc 1 127 0
 100              		.cfi_startproc
 101              		@ args = 0, pretend = 0, frame = 0
 102              		@ frame_needed = 0, uses_anonymous_args = 0
 103              		@ link register save eliminated.
 104              	.LVL2:
 128:..\..\u8g2\csrc/u8g2_polygon.c ****     i++;
 129:..\..\u8g2\csrc/u8g2_polygon.c ****     if ( i >= pg->cnt )
 105              		.loc 1 129 0
 106 0000 037E     		ldrb	r3, [r0, #24]
 128:..\..\u8g2\csrc/u8g2_polygon.c ****     i++;
 107              		.loc 1 128 0
 108 0002 0131     		adds	r1, r1, #1
 109              	.LVL3:
 110 0004 C9B2     		uxtb	r1, r1
 111              	.LVL4:
 130:..\..\u8g2\csrc/u8g2_polygon.c ****       i = 0;
 112              		.loc 1 130 0
 113 0006 9942     		cmp	r1, r3
 114 0008 9B41     		sbcs	r3, r3, r3
 115 000a 1940     		ands	r1, r3
 116              	.LVL5:
 131:..\..\u8g2\csrc/u8g2_polygon.c ****     return i;
 132:..\..\u8g2\csrc/u8g2_polygon.c **** }
 117              		.loc 1 132 0
 118 000c 0800     		movs	r0, r1
 119              	.LVL6:
 120              		@ sp needed
 121 000e 7047     		bx	lr
 122              		.cfi_endproc
 123              	.LFE2:
 124              		.size	pg_inc, .-pg_inc
 125              		.section	.text.pg_dec,"ax",%progbits
 126              		.align	1
 127              		.code	16
 128              		.thumb_func
 129              		.type	pg_dec, %function
 130              	pg_dec:
 131              	.LFB3:
 133:..\..\u8g2\csrc/u8g2_polygon.c **** 
 134:..\..\u8g2\csrc/u8g2_polygon.c **** static uint8_t pg_dec(pg_struct *pg, uint8_t i)
 135:..\..\u8g2\csrc/u8g2_polygon.c **** {
 132              		.loc 1 135 0
 133              		.cfi_startproc
 134              		@ args = 0, pretend = 0, frame = 0
 135              		@ frame_needed = 0, uses_anonymous_args = 0
 136              		@ link register save eliminated.
 137              	.LVL7:
 136:..\..\u8g2\csrc/u8g2_polygon.c ****     i--;
 138              		.loc 1 136 0
 139 0000 0139     		subs	r1, r1, #1
 140              	.LVL8:
 137:..\..\u8g2\csrc/u8g2_polygon.c ****     if ( i >= pg->cnt )
 141              		.loc 1 137 0
ARM GAS  C:\Users\gjl\AppData\Local\Temp\ccY1KEHs.s 			page 6


 142 0002 007E     		ldrb	r0, [r0, #24]
 143              	.LVL9:
 136:..\..\u8g2\csrc/u8g2_polygon.c ****     i--;
 144              		.loc 1 136 0
 145 0004 C9B2     		uxtb	r1, r1
 146              	.LVL10:
 147              		.loc 1 137 0
 148 0006 8142     		cmp	r1, r0
 149 0008 01D3     		bcc	.L9
 138:..\..\u8g2\csrc/u8g2_polygon.c ****       i = pg->cnt-1;
 150              		.loc 1 138 0
 151 000a 0138     		subs	r0, r0, #1
 152 000c C1B2     		uxtb	r1, r0
 153              	.LVL11:
 154              	.L9:
 139:..\..\u8g2\csrc/u8g2_polygon.c ****     return i;
 140:..\..\u8g2\csrc/u8g2_polygon.c **** }
 155              		.loc 1 140 0
 156 000e 0800     		movs	r0, r1
 157              		@ sp needed
 158 0010 7047     		bx	lr
 159              		.cfi_endproc
 160              	.LFE3:
 161              		.size	pg_dec, .-pg_dec
 162              		.section	.text.pg_expand_min_y,"ax",%progbits
 163              		.align	1
 164              		.code	16
 165              		.thumb_func
 166              		.type	pg_expand_min_y, %function
 167              	pg_expand_min_y:
 168              	.LFB4:
 141:..\..\u8g2\csrc/u8g2_polygon.c **** 
 142:..\..\u8g2\csrc/u8g2_polygon.c **** static void pg_expand_min_y(pg_struct *pg, pg_word_t min_y, uint8_t pge_idx)
 143:..\..\u8g2\csrc/u8g2_polygon.c **** {
 169              		.loc 1 143 0
 170              		.cfi_startproc
 171              		@ args = 0, pretend = 0, frame = 0
 172              		@ frame_needed = 0, uses_anonymous_args = 0
 173              	.LVL12:
 144:..\..\u8g2\csrc/u8g2_polygon.c ****   uint8_t i = pg->pge[pge_idx].curr_idx;
 174              		.loc 1 144 0
 175 0000 1823     		movs	r3, #24
 176 0002 5343     		muls	r3, r2
 143:..\..\u8g2\csrc/u8g2_polygon.c ****   uint8_t i = pg->pge[pge_idx].curr_idx;
 177              		.loc 1 143 0
 178 0004 70B5     		push	{r4, r5, r6, lr}
 179              		.cfi_def_cfa_offset 16
 180              		.cfi_offset 4, -16
 181              		.cfi_offset 5, -12
 182              		.cfi_offset 6, -8
 183              		.cfi_offset 14, -4
 184              		.loc 1 144 0
 185 0006 C418     		adds	r4, r0, r3
 186 0008 2300     		movs	r3, r4
 143:..\..\u8g2\csrc/u8g2_polygon.c ****   uint8_t i = pg->pge[pge_idx].curr_idx;
 187              		.loc 1 143 0
 188 000a 0500     		movs	r5, r0
ARM GAS  C:\Users\gjl\AppData\Local\Temp\ccY1KEHs.s 			page 7


 189              		.loc 1 144 0
 190 000c 3033     		adds	r3, r3, #48
 143:..\..\u8g2\csrc/u8g2_polygon.c ****   uint8_t i = pg->pge[pge_idx].curr_idx;
 191              		.loc 1 143 0
 192 000e 0E00     		movs	r6, r1
 193              		.loc 1 144 0
 194 0010 1978     		ldrb	r1, [r3]
 195              	.LVL13:
 196              	.L12:
 145:..\..\u8g2\csrc/u8g2_polygon.c ****   for(;;)
 146:..\..\u8g2\csrc/u8g2_polygon.c ****   {
 147:..\..\u8g2\csrc/u8g2_polygon.c ****     i = pg->pge[pge_idx].next_idx_fn(pg, i);
 197              		.loc 1 147 0
 198 0012 E36A     		ldr	r3, [r4, #44]
 199 0014 2800     		movs	r0, r5
 200 0016 9847     		blx	r3
 201              	.LVL14:
 148:..\..\u8g2\csrc/u8g2_polygon.c ****     if ( pg->list[i].y != min_y )
 202              		.loc 1 148 0
 203 0018 8300     		lsls	r3, r0, #2
 204 001a EB18     		adds	r3, r5, r3
 205 001c 0222     		movs	r2, #2
 206 001e 9B5E     		ldrsh	r3, [r3, r2]
 147:..\..\u8g2\csrc/u8g2_polygon.c ****     if ( pg->list[i].y != min_y )
 207              		.loc 1 147 0
 208 0020 0100     		movs	r1, r0
 209              	.LVL15:
 210              		.loc 1 148 0
 211 0022 B342     		cmp	r3, r6
 212 0024 03D1     		bne	.L10
 149:..\..\u8g2\csrc/u8g2_polygon.c ****       break;	
 150:..\..\u8g2\csrc/u8g2_polygon.c ****     pg->pge[pge_idx].curr_idx = i;
 213              		.loc 1 150 0
 214 0026 2300     		movs	r3, r4
 215 0028 3033     		adds	r3, r3, #48
 216 002a 1870     		strb	r0, [r3]
 151:..\..\u8g2\csrc/u8g2_polygon.c ****   }
 217              		.loc 1 151 0
 218 002c F1E7     		b	.L12
 219              	.L10:
 152:..\..\u8g2\csrc/u8g2_polygon.c **** }
 220              		.loc 1 152 0
 221              		@ sp needed
 222              	.LVL16:
 223 002e 70BD     		pop	{r4, r5, r6, pc}
 224              		.cfi_endproc
 225              	.LFE4:
 226              		.size	pg_expand_min_y, .-pg_expand_min_y
 227              		.global	__aeabi_idiv
 228              		.global	__aeabi_idivmod
 229              		.section	.text.pg_line_init,"ax",%progbits
 230              		.align	1
 231              		.code	16
 232              		.thumb_func
 233              		.type	pg_line_init, %function
 234              	pg_line_init:
 235              	.LFB7:
ARM GAS  C:\Users\gjl\AppData\Local\Temp\ccY1KEHs.s 			page 8


 153:..\..\u8g2\csrc/u8g2_polygon.c **** 
 154:..\..\u8g2\csrc/u8g2_polygon.c **** static uint8_t pg_prepare(pg_struct *pg)
 155:..\..\u8g2\csrc/u8g2_polygon.c **** {
 156:..\..\u8g2\csrc/u8g2_polygon.c ****   pg_word_t max_y;
 157:..\..\u8g2\csrc/u8g2_polygon.c ****   pg_word_t min_y;
 158:..\..\u8g2\csrc/u8g2_polygon.c ****   uint8_t i;
 159:..\..\u8g2\csrc/u8g2_polygon.c **** 
 160:..\..\u8g2\csrc/u8g2_polygon.c ****   /* setup the next index procedures */
 161:..\..\u8g2\csrc/u8g2_polygon.c ****   pg->pge[PG_RIGHT].next_idx_fn = pg_inc;
 162:..\..\u8g2\csrc/u8g2_polygon.c ****   pg->pge[PG_LEFT].next_idx_fn = pg_dec;
 163:..\..\u8g2\csrc/u8g2_polygon.c ****   
 164:..\..\u8g2\csrc/u8g2_polygon.c ****   /* search for highest and lowest point */
 165:..\..\u8g2\csrc/u8g2_polygon.c ****   max_y = pg->list[0].y;
 166:..\..\u8g2\csrc/u8g2_polygon.c ****   min_y = pg->list[0].y;
 167:..\..\u8g2\csrc/u8g2_polygon.c ****   pg->pge[PG_LEFT].curr_idx = 0;
 168:..\..\u8g2\csrc/u8g2_polygon.c ****   for( i = 1; i < pg->cnt; i++ )
 169:..\..\u8g2\csrc/u8g2_polygon.c ****   {
 170:..\..\u8g2\csrc/u8g2_polygon.c ****     if ( max_y < pg->list[i].y )
 171:..\..\u8g2\csrc/u8g2_polygon.c ****     {
 172:..\..\u8g2\csrc/u8g2_polygon.c ****       max_y = pg->list[i].y;
 173:..\..\u8g2\csrc/u8g2_polygon.c ****     }
 174:..\..\u8g2\csrc/u8g2_polygon.c ****     if ( min_y > pg->list[i].y )
 175:..\..\u8g2\csrc/u8g2_polygon.c ****     {
 176:..\..\u8g2\csrc/u8g2_polygon.c ****       pg->pge[PG_LEFT].curr_idx = i;
 177:..\..\u8g2\csrc/u8g2_polygon.c ****       min_y = pg->list[i].y;
 178:..\..\u8g2\csrc/u8g2_polygon.c ****     }
 179:..\..\u8g2\csrc/u8g2_polygon.c ****   }
 180:..\..\u8g2\csrc/u8g2_polygon.c **** 
 181:..\..\u8g2\csrc/u8g2_polygon.c ****   /* calculate total number of scan lines */
 182:..\..\u8g2\csrc/u8g2_polygon.c ****   pg->total_scan_line_cnt = max_y;
 183:..\..\u8g2\csrc/u8g2_polygon.c ****   pg->total_scan_line_cnt -= min_y;
 184:..\..\u8g2\csrc/u8g2_polygon.c ****   
 185:..\..\u8g2\csrc/u8g2_polygon.c ****   /* exit if polygon height is zero */
 186:..\..\u8g2\csrc/u8g2_polygon.c ****   if ( pg->total_scan_line_cnt == 0 )
 187:..\..\u8g2\csrc/u8g2_polygon.c ****     return 0;
 188:..\..\u8g2\csrc/u8g2_polygon.c ****   
 189:..\..\u8g2\csrc/u8g2_polygon.c ****   /* if the minimum y side is flat, try to find the lowest and highest x points */
 190:..\..\u8g2\csrc/u8g2_polygon.c ****   pg->pge[PG_RIGHT].curr_idx = pg->pge[PG_LEFT].curr_idx;  
 191:..\..\u8g2\csrc/u8g2_polygon.c ****   pg_expand_min_y(pg, min_y, PG_RIGHT);
 192:..\..\u8g2\csrc/u8g2_polygon.c ****   pg_expand_min_y(pg, min_y, PG_LEFT);
 193:..\..\u8g2\csrc/u8g2_polygon.c ****   
 194:..\..\u8g2\csrc/u8g2_polygon.c ****   /* check if the min side is really flat (depends on the x values) */
 195:..\..\u8g2\csrc/u8g2_polygon.c ****   pg->is_min_y_not_flat = 1;
 196:..\..\u8g2\csrc/u8g2_polygon.c ****   if ( pg->list[pg->pge[PG_LEFT].curr_idx].x != pg->list[pg->pge[PG_RIGHT].curr_idx].x )
 197:..\..\u8g2\csrc/u8g2_polygon.c ****   {
 198:..\..\u8g2\csrc/u8g2_polygon.c ****     pg->is_min_y_not_flat = 0;
 199:..\..\u8g2\csrc/u8g2_polygon.c ****   }
 200:..\..\u8g2\csrc/u8g2_polygon.c ****   else
 201:..\..\u8g2\csrc/u8g2_polygon.c ****   {
 202:..\..\u8g2\csrc/u8g2_polygon.c ****     pg->total_scan_line_cnt--;
 203:..\..\u8g2\csrc/u8g2_polygon.c ****     if ( pg->total_scan_line_cnt == 0 )
 204:..\..\u8g2\csrc/u8g2_polygon.c ****       return 0;
 205:..\..\u8g2\csrc/u8g2_polygon.c ****   }
 206:..\..\u8g2\csrc/u8g2_polygon.c **** 
 207:..\..\u8g2\csrc/u8g2_polygon.c ****   return 1;
 208:..\..\u8g2\csrc/u8g2_polygon.c **** }
 209:..\..\u8g2\csrc/u8g2_polygon.c **** 
ARM GAS  C:\Users\gjl\AppData\Local\Temp\ccY1KEHs.s 			page 9


 210:..\..\u8g2\csrc/u8g2_polygon.c **** static void pg_hline(pg_struct *pg, u8g2_t *u8g2)
 211:..\..\u8g2\csrc/u8g2_polygon.c **** {
 212:..\..\u8g2\csrc/u8g2_polygon.c ****   pg_word_t x1, x2, y;
 213:..\..\u8g2\csrc/u8g2_polygon.c ****   x1 = pg->pge[PG_LEFT].current_x;
 214:..\..\u8g2\csrc/u8g2_polygon.c ****   x2 = pg->pge[PG_RIGHT].current_x;
 215:..\..\u8g2\csrc/u8g2_polygon.c ****   y = pg->pge[PG_RIGHT].current_y;
 216:..\..\u8g2\csrc/u8g2_polygon.c ****   
 217:..\..\u8g2\csrc/u8g2_polygon.c ****   if ( y < 0 )
 218:..\..\u8g2\csrc/u8g2_polygon.c ****     return;
 219:..\..\u8g2\csrc/u8g2_polygon.c ****   if ( y >= u8g2_GetDisplayHeight(u8g2) )  // does not work for 256x64 display???
 220:..\..\u8g2\csrc/u8g2_polygon.c ****     return;
 221:..\..\u8g2\csrc/u8g2_polygon.c ****   if ( x1 < x2 )
 222:..\..\u8g2\csrc/u8g2_polygon.c ****   {
 223:..\..\u8g2\csrc/u8g2_polygon.c ****     if ( x2 < 0 )
 224:..\..\u8g2\csrc/u8g2_polygon.c ****       return;
 225:..\..\u8g2\csrc/u8g2_polygon.c ****     if ( x1 >= u8g2_GetDisplayWidth(u8g2) )
 226:..\..\u8g2\csrc/u8g2_polygon.c ****       return;
 227:..\..\u8g2\csrc/u8g2_polygon.c ****     if ( x1 < 0 )
 228:..\..\u8g2\csrc/u8g2_polygon.c ****       x1 = 0;
 229:..\..\u8g2\csrc/u8g2_polygon.c ****     if ( x2 >= u8g2_GetDisplayWidth(u8g2) )
 230:..\..\u8g2\csrc/u8g2_polygon.c ****       x2 = u8g2_GetDisplayWidth(u8g2);
 231:..\..\u8g2\csrc/u8g2_polygon.c ****     u8g2_DrawHLine(u8g2, x1, y, x2 - x1);
 232:..\..\u8g2\csrc/u8g2_polygon.c ****   }
 233:..\..\u8g2\csrc/u8g2_polygon.c ****   else
 234:..\..\u8g2\csrc/u8g2_polygon.c ****   {
 235:..\..\u8g2\csrc/u8g2_polygon.c ****     if ( x1 < 0 )
 236:..\..\u8g2\csrc/u8g2_polygon.c ****       return;
 237:..\..\u8g2\csrc/u8g2_polygon.c ****     if ( x2 >= u8g2_GetDisplayWidth(u8g2) )
 238:..\..\u8g2\csrc/u8g2_polygon.c ****       return;
 239:..\..\u8g2\csrc/u8g2_polygon.c ****     if ( x2 < 0 )
 240:..\..\u8g2\csrc/u8g2_polygon.c ****       x1 = 0;
 241:..\..\u8g2\csrc/u8g2_polygon.c ****     if ( x1 >= u8g2_GetDisplayWidth(u8g2) )
 242:..\..\u8g2\csrc/u8g2_polygon.c ****       x1 = u8g2_GetDisplayWidth(u8g2);
 243:..\..\u8g2\csrc/u8g2_polygon.c ****     u8g2_DrawHLine(u8g2, x2, y, x1 - x2);
 244:..\..\u8g2\csrc/u8g2_polygon.c ****   }
 245:..\..\u8g2\csrc/u8g2_polygon.c **** }
 246:..\..\u8g2\csrc/u8g2_polygon.c **** 
 247:..\..\u8g2\csrc/u8g2_polygon.c **** static void pg_line_init(pg_struct * const pg, uint8_t pge_index)
 248:..\..\u8g2\csrc/u8g2_polygon.c **** {
 236              		.loc 1 248 0
 237              		.cfi_startproc
 238              		@ args = 0, pretend = 0, frame = 0
 239              		@ frame_needed = 0, uses_anonymous_args = 0
 240              	.LVL17:
 241 0000 F8B5     		push	{r3, r4, r5, r6, r7, lr}
 242              		.cfi_def_cfa_offset 24
 243              		.cfi_offset 3, -24
 244              		.cfi_offset 4, -20
 245              		.cfi_offset 5, -16
 246              		.cfi_offset 6, -12
 247              		.cfi_offset 7, -8
 248              		.cfi_offset 14, -4
 249:..\..\u8g2\csrc/u8g2_polygon.c ****   struct pg_edge_struct  *pge = pg->pge+pge_index;
 249              		.loc 1 249 0
 250 0002 1823     		movs	r3, #24
 251 0004 0200     		movs	r2, r0
 252 0006 5943     		muls	r1, r3
ARM GAS  C:\Users\gjl\AppData\Local\Temp\ccY1KEHs.s 			page 10


 253              	.LVL18:
 254 0008 1C32     		adds	r2, r2, #28
 255 000a 5418     		adds	r4, r2, r1
 256              	.LVL19:
 250:..\..\u8g2\csrc/u8g2_polygon.c ****   uint8_t idx;  
 251:..\..\u8g2\csrc/u8g2_polygon.c ****   pg_word_t x1;
 252:..\..\u8g2\csrc/u8g2_polygon.c ****   pg_word_t y1;
 253:..\..\u8g2\csrc/u8g2_polygon.c ****   pg_word_t x2;
 254:..\..\u8g2\csrc/u8g2_polygon.c ****   pg_word_t y2;
 255:..\..\u8g2\csrc/u8g2_polygon.c **** 
 256:..\..\u8g2\csrc/u8g2_polygon.c ****   idx = pge->curr_idx;  
 257              		.loc 1 256 0
 258 000c 217D     		ldrb	r1, [r4, #20]
 259              	.LVL20:
 248:..\..\u8g2\csrc/u8g2_polygon.c ****   struct pg_edge_struct  *pge = pg->pge+pge_index;
 260              		.loc 1 248 0
 261 000e 0600     		movs	r6, r0
 262 0010 8B00     		lsls	r3, r1, #2
 263 0012 C318     		adds	r3, r0, r3
 257:..\..\u8g2\csrc/u8g2_polygon.c ****   y1 = pg->list[idx].y;
 264              		.loc 1 257 0
 265 0014 0222     		movs	r2, #2
 266 0016 9D5E     		ldrsh	r5, [r3, r2]
 267              	.LVL21:
 258:..\..\u8g2\csrc/u8g2_polygon.c ****   x1 = pg->list[idx].x;
 268              		.loc 1 258 0
 269 0018 0027     		movs	r7, #0
 270 001a DF5F     		ldrsh	r7, [r3, r7]
 271              	.LVL22:
 259:..\..\u8g2\csrc/u8g2_polygon.c ****   idx = pge->next_idx_fn(pg, idx);
 272              		.loc 1 259 0
 273 001c 2369     		ldr	r3, [r4, #16]
 274 001e 9847     		blx	r3
 275              	.LVL23:
 276 0020 8300     		lsls	r3, r0, #2
 277 0022 F318     		adds	r3, r6, r3
 260:..\..\u8g2\csrc/u8g2_polygon.c ****   y2 = pg->list[idx].y;
 278              		.loc 1 260 0
 279 0024 0222     		movs	r2, #2
 280 0026 995E     		ldrsh	r1, [r3, r2]
 281              	.LVL24:
 261:..\..\u8g2\csrc/u8g2_polygon.c ****   x2 = pg->list[idx].x; 
 282              		.loc 1 261 0
 283 0028 0022     		movs	r2, #0
 284 002a 9B5E     		ldrsh	r3, [r3, r2]
 285              	.LVL25:
 286              	.LBB16:
 287              	.LBB17:
 101:..\..\u8g2\csrc/u8g2_polygon.c ****   pge->max_y = y2;
 288              		.loc 1 101 0
 289 002c 4A1B     		subs	r2, r1, r5
  98:..\..\u8g2\csrc/u8g2_polygon.c ****   pg_word_t width;
 290              		.loc 1 98 0
 291 002e DB1B     		subs	r3, r3, r7
 292              	.LVL26:
 293 0030 9BB2     		uxth	r3, r3
 101:..\..\u8g2\csrc/u8g2_polygon.c ****   pge->max_y = y2;
ARM GAS  C:\Users\gjl\AppData\Local\Temp\ccY1KEHs.s 			page 11


 294              		.loc 1 101 0
 295 0032 92B2     		uxth	r2, r2
 296              	.LBE17:
 297              	.LBE16:
 262:..\..\u8g2\csrc/u8g2_polygon.c ****   pge->curr_idx = idx;
 298              		.loc 1 262 0
 299 0034 2075     		strb	r0, [r4, #20]
 300              	.LVL27:
 301              	.LBB20:
 302              	.LBB18:
 101:..\..\u8g2\csrc/u8g2_polygon.c ****   pge->max_y = y2;
 303              		.loc 1 101 0
 304 0036 16B2     		sxth	r6, r2
 305              	.LVL28:
  98:..\..\u8g2\csrc/u8g2_polygon.c ****   pg_word_t width;
 306              		.loc 1 98 0
 307 0038 18B2     		sxth	r0, r3
 308              	.LVL29:
 101:..\..\u8g2\csrc/u8g2_polygon.c ****   pge->max_y = y2;
 309              		.loc 1 101 0
 310 003a 6680     		strh	r6, [r4, #2]
 102:..\..\u8g2\csrc/u8g2_polygon.c ****   pge->current_y = y1;
 311              		.loc 1 102 0
 312 003c 6181     		strh	r1, [r4, #10]
 103:..\..\u8g2\csrc/u8g2_polygon.c ****   pge->current_x = x1;
 313              		.loc 1 103 0
 314 003e 2581     		strh	r5, [r4, #8]
 104:..\..\u8g2\csrc/u8g2_polygon.c **** 
 315              		.loc 1 104 0
 316 0040 A781     		strh	r7, [r4, #12]
 106:..\..\u8g2\csrc/u8g2_polygon.c ****   {
 317              		.loc 1 106 0
 318 0042 0028     		cmp	r0, #0
 319 0044 05DB     		blt	.L14
 108:..\..\u8g2\csrc/u8g2_polygon.c ****     width = dx;
 320              		.loc 1 108 0
 321 0046 0123     		movs	r3, #1
 322 0048 2380     		strh	r3, [r4]
 323              	.LVL30:
 110:..\..\u8g2\csrc/u8g2_polygon.c ****   }
 324              		.loc 1 110 0
 325 004a 0023     		movs	r3, #0
 326 004c 0500     		movs	r5, r0
 327              	.LVL31:
 328 004e E381     		strh	r3, [r4, #14]
 329 0050 07E0     		b	.L15
 330              	.LVL32:
 331              	.L14:
 115:..\..\u8g2\csrc/u8g2_polygon.c ****     pge->error = 1 - pge->height;
 332              		.loc 1 115 0
 333 0052 5D42     		rsbs	r5, r3, #0
 334              	.LVL33:
 114:..\..\u8g2\csrc/u8g2_polygon.c ****     width = -dx;
 335              		.loc 1 114 0
 336 0054 0121     		movs	r1, #1
 337              	.LVL34:
 116:..\..\u8g2\csrc/u8g2_polygon.c ****   }
ARM GAS  C:\Users\gjl\AppData\Local\Temp\ccY1KEHs.s 			page 12


 338              		.loc 1 116 0
 339 0056 0123     		movs	r3, #1
 114:..\..\u8g2\csrc/u8g2_polygon.c ****     width = -dx;
 340              		.loc 1 114 0
 341 0058 4942     		rsbs	r1, r1, #0
 116:..\..\u8g2\csrc/u8g2_polygon.c ****   }
 342              		.loc 1 116 0
 343 005a 9A1A     		subs	r2, r3, r2
 114:..\..\u8g2\csrc/u8g2_polygon.c ****     width = -dx;
 344              		.loc 1 114 0
 345 005c 2180     		strh	r1, [r4]
 115:..\..\u8g2\csrc/u8g2_polygon.c ****     pge->error = 1 - pge->height;
 346              		.loc 1 115 0
 347 005e 2DB2     		sxth	r5, r5
 348              	.LVL35:
 116:..\..\u8g2\csrc/u8g2_polygon.c ****   }
 349              		.loc 1 116 0
 350 0060 E281     		strh	r2, [r4, #14]
 351              	.LVL36:
 352              	.L15:
 119:..\..\u8g2\csrc/u8g2_polygon.c ****   pge->error_offset = width % pge->height;
 353              		.loc 1 119 0
 354 0062 3100     		movs	r1, r6
 355 0064 FFF7FEFF 		bl	__aeabi_idiv
 356              	.LVL37:
 120:..\..\u8g2\csrc/u8g2_polygon.c **** }
 357              		.loc 1 120 0
 358 0068 3100     		movs	r1, r6
 119:..\..\u8g2\csrc/u8g2_polygon.c ****   pge->error_offset = width % pge->height;
 359              		.loc 1 119 0
 360 006a A080     		strh	r0, [r4, #4]
 120:..\..\u8g2\csrc/u8g2_polygon.c **** }
 361              		.loc 1 120 0
 362 006c 2800     		movs	r0, r5
 363 006e FFF7FEFF 		bl	__aeabi_idivmod
 364              	.LVL38:
 365              	.LBE18:
 366              	.LBE20:
 263:..\..\u8g2\csrc/u8g2_polygon.c ****   
 264:..\..\u8g2\csrc/u8g2_polygon.c ****   pge_Init(pge, x1, y1, x2, y2);
 265:..\..\u8g2\csrc/u8g2_polygon.c **** }
 367              		.loc 1 265 0
 368              		@ sp needed
 369              	.LBB21:
 370              	.LBB19:
 120:..\..\u8g2\csrc/u8g2_polygon.c **** }
 371              		.loc 1 120 0
 372 0072 E180     		strh	r1, [r4, #6]
 373              	.LVL39:
 374              	.LVL40:
 375              	.LVL41:
 376              	.LBE19:
 377              	.LBE21:
 378              		.loc 1 265 0
 379 0074 F8BD     		pop	{r3, r4, r5, r6, r7, pc}
 380              		.cfi_endproc
 381              	.LFE7:
ARM GAS  C:\Users\gjl\AppData\Local\Temp\ccY1KEHs.s 			page 13


 382              		.size	pg_line_init, .-pg_line_init
 383              		.section	.text.pg_ClearPolygonXY,"ax",%progbits
 384              		.align	1
 385              		.global	pg_ClearPolygonXY
 386              		.code	16
 387              		.thumb_func
 388              		.type	pg_ClearPolygonXY, %function
 389              	pg_ClearPolygonXY:
 390              	.LFB9:
 266:..\..\u8g2\csrc/u8g2_polygon.c **** 
 267:..\..\u8g2\csrc/u8g2_polygon.c **** static void pg_exec(pg_struct *pg, u8g2_t *u8g2)
 268:..\..\u8g2\csrc/u8g2_polygon.c **** {
 269:..\..\u8g2\csrc/u8g2_polygon.c ****   pg_word_t i = pg->total_scan_line_cnt;
 270:..\..\u8g2\csrc/u8g2_polygon.c **** 
 271:..\..\u8g2\csrc/u8g2_polygon.c ****   /* first line is skipped if the min y line is not flat */
 272:..\..\u8g2\csrc/u8g2_polygon.c ****   pg_line_init(pg, PG_LEFT);		
 273:..\..\u8g2\csrc/u8g2_polygon.c ****   pg_line_init(pg, PG_RIGHT);
 274:..\..\u8g2\csrc/u8g2_polygon.c ****   
 275:..\..\u8g2\csrc/u8g2_polygon.c ****   if ( pg->is_min_y_not_flat != 0 )
 276:..\..\u8g2\csrc/u8g2_polygon.c ****   {
 277:..\..\u8g2\csrc/u8g2_polygon.c ****     pge_Next(&(pg->pge[PG_LEFT])); 
 278:..\..\u8g2\csrc/u8g2_polygon.c ****     pge_Next(&(pg->pge[PG_RIGHT]));
 279:..\..\u8g2\csrc/u8g2_polygon.c ****   }
 280:..\..\u8g2\csrc/u8g2_polygon.c **** 
 281:..\..\u8g2\csrc/u8g2_polygon.c ****   do
 282:..\..\u8g2\csrc/u8g2_polygon.c ****   {
 283:..\..\u8g2\csrc/u8g2_polygon.c ****     pg_hline(pg, u8g2);
 284:..\..\u8g2\csrc/u8g2_polygon.c ****     while ( pge_Next(&(pg->pge[PG_LEFT])) == 0 )
 285:..\..\u8g2\csrc/u8g2_polygon.c ****     {
 286:..\..\u8g2\csrc/u8g2_polygon.c ****       pg_line_init(pg, PG_LEFT);
 287:..\..\u8g2\csrc/u8g2_polygon.c ****     }
 288:..\..\u8g2\csrc/u8g2_polygon.c ****     while ( pge_Next(&(pg->pge[PG_RIGHT])) == 0 )
 289:..\..\u8g2\csrc/u8g2_polygon.c ****     {
 290:..\..\u8g2\csrc/u8g2_polygon.c ****       pg_line_init(pg, PG_RIGHT);
 291:..\..\u8g2\csrc/u8g2_polygon.c ****     }
 292:..\..\u8g2\csrc/u8g2_polygon.c ****     i--;
 293:..\..\u8g2\csrc/u8g2_polygon.c ****   } while( i > 0 );
 294:..\..\u8g2\csrc/u8g2_polygon.c **** }
 295:..\..\u8g2\csrc/u8g2_polygon.c **** 
 296:..\..\u8g2\csrc/u8g2_polygon.c **** /*===========================================*/
 297:..\..\u8g2\csrc/u8g2_polygon.c **** /* API procedures */
 298:..\..\u8g2\csrc/u8g2_polygon.c **** 
 299:..\..\u8g2\csrc/u8g2_polygon.c **** void pg_ClearPolygonXY(pg_struct *pg)
 300:..\..\u8g2\csrc/u8g2_polygon.c **** {
 391              		.loc 1 300 0
 392              		.cfi_startproc
 393              		@ args = 0, pretend = 0, frame = 0
 394              		@ frame_needed = 0, uses_anonymous_args = 0
 395              		@ link register save eliminated.
 396              	.LVL42:
 301:..\..\u8g2\csrc/u8g2_polygon.c ****   pg->cnt = 0;
 397              		.loc 1 301 0
 398 0000 0023     		movs	r3, #0
 302:..\..\u8g2\csrc/u8g2_polygon.c **** }
 399              		.loc 1 302 0
 400              		@ sp needed
 301:..\..\u8g2\csrc/u8g2_polygon.c ****   pg->cnt = 0;
ARM GAS  C:\Users\gjl\AppData\Local\Temp\ccY1KEHs.s 			page 14


 401              		.loc 1 301 0
 402 0002 0376     		strb	r3, [r0, #24]
 403              		.loc 1 302 0
 404 0004 7047     		bx	lr
 405              		.cfi_endproc
 406              	.LFE9:
 407              		.size	pg_ClearPolygonXY, .-pg_ClearPolygonXY
 408              		.section	.text.pg_AddPolygonXY,"ax",%progbits
 409              		.align	1
 410              		.global	pg_AddPolygonXY
 411              		.code	16
 412              		.thumb_func
 413              		.type	pg_AddPolygonXY, %function
 414              	pg_AddPolygonXY:
 415              	.LFB10:
 303:..\..\u8g2\csrc/u8g2_polygon.c **** 
 304:..\..\u8g2\csrc/u8g2_polygon.c **** void pg_AddPolygonXY(pg_struct *pg, int16_t x, int16_t y)
 305:..\..\u8g2\csrc/u8g2_polygon.c **** {
 416              		.loc 1 305 0
 417              		.cfi_startproc
 418              		@ args = 0, pretend = 0, frame = 0
 419              		@ frame_needed = 0, uses_anonymous_args = 0
 420              	.LVL43:
 306:..\..\u8g2\csrc/u8g2_polygon.c ****   if ( pg->cnt < PG_MAX_POINTS )
 421              		.loc 1 306 0
 422 0000 037E     		ldrb	r3, [r0, #24]
 305:..\..\u8g2\csrc/u8g2_polygon.c ****   if ( pg->cnt < PG_MAX_POINTS )
 423              		.loc 1 305 0
 424 0002 10B5     		push	{r4, lr}
 425              		.cfi_def_cfa_offset 8
 426              		.cfi_offset 4, -8
 427              		.cfi_offset 14, -4
 428              		.loc 1 306 0
 429 0004 052B     		cmp	r3, #5
 430 0006 05D8     		bhi	.L17
 431 0008 9C00     		lsls	r4, r3, #2
 432 000a 0419     		adds	r4, r0, r4
 307:..\..\u8g2\csrc/u8g2_polygon.c ****   {
 308:..\..\u8g2\csrc/u8g2_polygon.c ****     pg->list[pg->cnt].x = x;
 309:..\..\u8g2\csrc/u8g2_polygon.c ****     pg->list[pg->cnt].y = y;
 310:..\..\u8g2\csrc/u8g2_polygon.c ****     pg->cnt++;
 433              		.loc 1 310 0
 434 000c 0133     		adds	r3, r3, #1
 308:..\..\u8g2\csrc/u8g2_polygon.c ****     pg->list[pg->cnt].y = y;
 435              		.loc 1 308 0
 436 000e 2180     		strh	r1, [r4]
 309:..\..\u8g2\csrc/u8g2_polygon.c ****     pg->cnt++;
 437              		.loc 1 309 0
 438 0010 6280     		strh	r2, [r4, #2]
 439              		.loc 1 310 0
 440 0012 0376     		strb	r3, [r0, #24]
 441              	.L17:
 311:..\..\u8g2\csrc/u8g2_polygon.c ****   }
 312:..\..\u8g2\csrc/u8g2_polygon.c **** }
 442              		.loc 1 312 0
 443              		@ sp needed
 444 0014 10BD     		pop	{r4, pc}
ARM GAS  C:\Users\gjl\AppData\Local\Temp\ccY1KEHs.s 			page 15


 445              		.cfi_endproc
 446              	.LFE10:
 447              		.size	pg_AddPolygonXY, .-pg_AddPolygonXY
 448              		.section	.text.pg_DrawPolygon,"ax",%progbits
 449              		.align	1
 450              		.global	pg_DrawPolygon
 451              		.code	16
 452              		.thumb_func
 453              		.type	pg_DrawPolygon, %function
 454              	pg_DrawPolygon:
 455              	.LFB11:
 313:..\..\u8g2\csrc/u8g2_polygon.c **** 
 314:..\..\u8g2\csrc/u8g2_polygon.c **** void pg_DrawPolygon(pg_struct *pg, u8g2_t *u8g2)
 315:..\..\u8g2\csrc/u8g2_polygon.c **** {
 456              		.loc 1 315 0
 457              		.cfi_startproc
 458              		@ args = 0, pretend = 0, frame = 8
 459              		@ frame_needed = 0, uses_anonymous_args = 0
 460              	.LVL44:
 461 0000 F7B5     		push	{r0, r1, r2, r4, r5, r6, r7, lr}
 462              		.cfi_def_cfa_offset 32
 463              		.cfi_offset 0, -32
 464              		.cfi_offset 1, -28
 465              		.cfi_offset 2, -24
 466              		.cfi_offset 4, -20
 467              		.cfi_offset 5, -16
 468              		.cfi_offset 6, -12
 469              		.cfi_offset 7, -8
 470              		.cfi_offset 14, -4
 471              	.LBB28:
 472              	.LBB29:
 161:..\..\u8g2\csrc/u8g2_polygon.c ****   pg->pge[PG_LEFT].next_idx_fn = pg_dec;
 473              		.loc 1 161 0
 474 0002 5B4B     		ldr	r3, .L51
 475              	.LBE29:
 476              	.LBE28:
 477              		.loc 1 315 0
 478 0004 0D00     		movs	r5, r1
 479              	.LBB32:
 480              	.LBB30:
 161:..\..\u8g2\csrc/u8g2_polygon.c ****   pg->pge[PG_LEFT].next_idx_fn = pg_dec;
 481              		.loc 1 161 0
 482 0006 4364     		str	r3, [r0, #68]
 162:..\..\u8g2\csrc/u8g2_polygon.c ****   
 483              		.loc 1 162 0
 484 0008 5A4B     		ldr	r3, .L51+4
 485              	.LBE30:
 486              	.LBE32:
 487              		.loc 1 315 0
 488 000a 0400     		movs	r4, r0
 489              	.LBB33:
 490              	.LBB31:
 162:..\..\u8g2\csrc/u8g2_polygon.c ****   
 491              		.loc 1 162 0
 492 000c C362     		str	r3, [r0, #44]
 165:..\..\u8g2\csrc/u8g2_polygon.c ****   min_y = pg->list[0].y;
 493              		.loc 1 165 0
ARM GAS  C:\Users\gjl\AppData\Local\Temp\ccY1KEHs.s 			page 16


 494 000e 0222     		movs	r2, #2
 495 0010 835E     		ldrsh	r3, [r0, r2]
 496              	.LVL45:
 167:..\..\u8g2\csrc/u8g2_polygon.c ****   for( i = 1; i < pg->cnt; i++ )
 497              		.loc 1 167 0
 498 0012 0200     		movs	r2, r0
 499 0014 3032     		adds	r2, r2, #48
 500 0016 0192     		str	r2, [sp, #4]
 501 0018 0022     		movs	r2, #0
 502 001a 0199     		ldr	r1, [sp, #4]
 503              	.LVL46:
 166:..\..\u8g2\csrc/u8g2_polygon.c ****   pg->pge[PG_LEFT].curr_idx = 0;
 504              		.loc 1 166 0
 505 001c 1E00     		movs	r6, r3
 167:..\..\u8g2\csrc/u8g2_polygon.c ****   for( i = 1; i < pg->cnt; i++ )
 506              		.loc 1 167 0
 507 001e 0A70     		strb	r2, [r1]
 508              	.LVL47:
 168:..\..\u8g2\csrc/u8g2_polygon.c ****   {
 509              		.loc 1 168 0
 510 0020 027E     		ldrb	r2, [r0, #24]
 511 0022 0630     		adds	r0, r0, #6
 512              	.LVL48:
 513 0024 9446     		mov	ip, r2
 514 0026 0122     		movs	r2, #1
 515              	.LVL49:
 516              	.L20:
 517 0028 6245     		cmp	r2, ip
 518 002a 0FD2     		bcs	.L49
 170:..\..\u8g2\csrc/u8g2_polygon.c ****     {
 519              		.loc 1 170 0
 520 002c 0027     		movs	r7, #0
 521 002e C15F     		ldrsh	r1, [r0, r7]
 522 0030 0F1C     		adds	r7, r1, #0
 523 0032 9942     		cmp	r1, r3
 524 0034 00DA     		bge	.L21
 525 0036 1F1C     		adds	r7, r3, #0
 526              	.L21:
 527 0038 3BB2     		sxth	r3, r7
 528              	.LVL50:
 174:..\..\u8g2\csrc/u8g2_polygon.c ****     {
 529              		.loc 1 174 0
 530 003a B142     		cmp	r1, r6
 531 003c 02DA     		bge	.L22
 176:..\..\u8g2\csrc/u8g2_polygon.c ****       min_y = pg->list[i].y;
 532              		.loc 1 176 0
 533 003e 019E     		ldr	r6, [sp, #4]
 534              	.LVL51:
 535 0040 3270     		strb	r2, [r6]
 536              	.LVL52:
 537 0042 0E00     		movs	r6, r1
 538              	.LVL53:
 539              	.L22:
 168:..\..\u8g2\csrc/u8g2_polygon.c ****   {
 540              		.loc 1 168 0
 541 0044 0132     		adds	r2, r2, #1
 542              	.LVL54:
ARM GAS  C:\Users\gjl\AppData\Local\Temp\ccY1KEHs.s 			page 17


 543 0046 D2B2     		uxtb	r2, r2
 544              	.LVL55:
 545 0048 0430     		adds	r0, r0, #4
 546 004a EDE7     		b	.L20
 547              	.LVL56:
 548              	.L49:
 183:..\..\u8g2\csrc/u8g2_polygon.c ****   
 549              		.loc 1 183 0
 550 004c 9B1B     		subs	r3, r3, r6
 551              	.LVL57:
 552 004e 1BB2     		sxth	r3, r3
 553 0050 6383     		strh	r3, [r4, #26]
 186:..\..\u8g2\csrc/u8g2_polygon.c ****     return 0;
 554              		.loc 1 186 0
 555 0052 002B     		cmp	r3, #0
 556 0054 00D1     		bne	.LCB457
 557 0056 89E0     		b	.L19	@long jump
 558              	.LCB457:
 190:..\..\u8g2\csrc/u8g2_polygon.c ****   pg_expand_min_y(pg, min_y, PG_RIGHT);
 559              		.loc 1 190 0
 560 0058 2700     		movs	r7, r4
 561 005a 019B     		ldr	r3, [sp, #4]
 562 005c 4837     		adds	r7, r7, #72
 563 005e 1B78     		ldrb	r3, [r3]
 191:..\..\u8g2\csrc/u8g2_polygon.c ****   pg_expand_min_y(pg, min_y, PG_LEFT);
 564              		.loc 1 191 0
 565 0060 0122     		movs	r2, #1
 566              	.LVL58:
 190:..\..\u8g2\csrc/u8g2_polygon.c ****   pg_expand_min_y(pg, min_y, PG_RIGHT);
 567              		.loc 1 190 0
 568 0062 3B70     		strb	r3, [r7]
 191:..\..\u8g2\csrc/u8g2_polygon.c ****   pg_expand_min_y(pg, min_y, PG_LEFT);
 569              		.loc 1 191 0
 570 0064 3100     		movs	r1, r6
 571 0066 2000     		movs	r0, r4
 572 0068 FFF7FEFF 		bl	pg_expand_min_y
 573              	.LVL59:
 192:..\..\u8g2\csrc/u8g2_polygon.c ****   
 574              		.loc 1 192 0
 575 006c 3100     		movs	r1, r6
 576 006e 0022     		movs	r2, #0
 577 0070 2000     		movs	r0, r4
 578 0072 FFF7FEFF 		bl	pg_expand_min_y
 579              	.LVL60:
 195:..\..\u8g2\csrc/u8g2_polygon.c ****   if ( pg->list[pg->pge[PG_LEFT].curr_idx].x != pg->list[pg->pge[PG_RIGHT].curr_idx].x )
 580              		.loc 1 195 0
 581 0076 0123     		movs	r3, #1
 582 0078 6376     		strb	r3, [r4, #25]
 196:..\..\u8g2\csrc/u8g2_polygon.c ****   {
 583              		.loc 1 196 0
 584 007a 019B     		ldr	r3, [sp, #4]
 585 007c 1A78     		ldrb	r2, [r3]
 586 007e 3B78     		ldrb	r3, [r7]
 587 0080 9200     		lsls	r2, r2, #2
 588 0082 9B00     		lsls	r3, r3, #2
 589 0084 125F     		ldrsh	r2, [r2, r4]
 590 0086 1B5F     		ldrsh	r3, [r3, r4]
ARM GAS  C:\Users\gjl\AppData\Local\Temp\ccY1KEHs.s 			page 18


 591 0088 9A42     		cmp	r2, r3
 592 008a 02D0     		beq	.L25
 198:..\..\u8g2\csrc/u8g2_polygon.c ****   }
 593              		.loc 1 198 0
 594 008c 0023     		movs	r3, #0
 595 008e 6376     		strb	r3, [r4, #25]
 596 0090 05E0     		b	.L26
 597              	.L25:
 202:..\..\u8g2\csrc/u8g2_polygon.c ****     if ( pg->total_scan_line_cnt == 0 )
 598              		.loc 1 202 0
 599 0092 638B     		ldrh	r3, [r4, #26]
 600 0094 013B     		subs	r3, r3, #1
 601 0096 1BB2     		sxth	r3, r3
 602 0098 6383     		strh	r3, [r4, #26]
 203:..\..\u8g2\csrc/u8g2_polygon.c ****       return 0;
 603              		.loc 1 203 0
 604 009a 002B     		cmp	r3, #0
 605 009c 66D0     		beq	.L19
 606              	.L26:
 607              	.LVL61:
 608 009e 2700     		movs	r7, r4
 609              	.LBE31:
 610              	.LBE33:
 611              	.LBB34:
 612              	.LBB35:
 272:..\..\u8g2\csrc/u8g2_polygon.c ****   pg_line_init(pg, PG_RIGHT);
 613              		.loc 1 272 0
 614 00a0 0021     		movs	r1, #0
 615 00a2 2000     		movs	r0, r4
 269:..\..\u8g2\csrc/u8g2_polygon.c **** 
 616              		.loc 1 269 0
 617 00a4 1A23     		movs	r3, #26
 618 00a6 E65E     		ldrsh	r6, [r4, r3]
 619              	.LVL62:
 272:..\..\u8g2\csrc/u8g2_polygon.c ****   pg_line_init(pg, PG_RIGHT);
 620              		.loc 1 272 0
 621 00a8 FFF7FEFF 		bl	pg_line_init
 622              	.LVL63:
 273:..\..\u8g2\csrc/u8g2_polygon.c ****   
 623              		.loc 1 273 0
 624 00ac 0121     		movs	r1, #1
 625 00ae 2000     		movs	r0, r4
 626 00b0 FFF7FEFF 		bl	pg_line_init
 627              	.LVL64:
 275:..\..\u8g2\csrc/u8g2_polygon.c ****   {
 628              		.loc 1 275 0
 629 00b4 637E     		ldrb	r3, [r4, #25]
 630 00b6 1C37     		adds	r7, r7, #28
 631 00b8 0197     		str	r7, [sp, #4]
 632 00ba 002B     		cmp	r3, #0
 633 00bc 06D0     		beq	.L37
 277:..\..\u8g2\csrc/u8g2_polygon.c ****     pge_Next(&(pg->pge[PG_RIGHT]));
 634              		.loc 1 277 0
 635 00be 0198     		ldr	r0, [sp, #4]
 636 00c0 FFF7FEFF 		bl	pge_Next
 637              	.LVL65:
 278:..\..\u8g2\csrc/u8g2_polygon.c ****   }
ARM GAS  C:\Users\gjl\AppData\Local\Temp\ccY1KEHs.s 			page 19


 638              		.loc 1 278 0
 639 00c4 2000     		movs	r0, r4
 640 00c6 3430     		adds	r0, r0, #52
 641 00c8 FFF7FEFF 		bl	pge_Next
 642              	.LVL66:
 643              	.L37:
 644              	.LBB36:
 645              	.LBB37:
 215:..\..\u8g2\csrc/u8g2_polygon.c ****   
 646              		.loc 1 215 0
 647 00cc 3C23     		movs	r3, #60
 648 00ce E25E     		ldrsh	r2, [r4, r3]
 649              	.LVL67:
 217:..\..\u8g2\csrc/u8g2_polygon.c ****     return;
 650              		.loc 1 217 0
 651 00d0 002A     		cmp	r2, #0
 652 00d2 33DB     		blt	.L33
 219:..\..\u8g2\csrc/u8g2_polygon.c ****     return;
 653              		.loc 1 219 0
 654 00d4 2B00     		movs	r3, r5
 655 00d6 4033     		adds	r3, r3, #64
 656 00d8 1B78     		ldrb	r3, [r3]
 657 00da 9A42     		cmp	r2, r3
 658 00dc 2EDA     		bge	.L33
 213:..\..\u8g2\csrc/u8g2_polygon.c ****   x2 = pg->pge[PG_RIGHT].current_x;
 659              		.loc 1 213 0
 660 00de 2823     		movs	r3, #40
 661 00e0 E05E     		ldrsh	r0, [r4, r3]
 214:..\..\u8g2\csrc/u8g2_polygon.c ****   y = pg->pge[PG_RIGHT].current_y;
 662              		.loc 1 214 0
 663 00e2 A31C     		adds	r3, r4, #2
 664 00e4 3E21     		movs	r1, #62
 665 00e6 5B5E     		ldrsh	r3, [r3, r1]
 221:..\..\u8g2\csrc/u8g2_polygon.c ****   {
 666              		.loc 1 221 0
 667 00e8 9842     		cmp	r0, r3
 668 00ea 13DA     		bge	.L28
 223:..\..\u8g2\csrc/u8g2_polygon.c ****       return;
 669              		.loc 1 223 0
 670 00ec 002B     		cmp	r3, #0
 671 00ee 25DB     		blt	.L33
 225:..\..\u8g2\csrc/u8g2_polygon.c ****       return;
 672              		.loc 1 225 0
 673 00f0 2900     		movs	r1, r5
 674 00f2 3F31     		adds	r1, r1, #63
 675 00f4 0978     		ldrb	r1, [r1]
 676 00f6 8C46     		mov	ip, r1
 677 00f8 8842     		cmp	r0, r1
 678 00fa 1FDA     		bge	.L33
 679 00fc 011C     		adds	r1, r0, #0
 680 00fe 0028     		cmp	r0, #0
 681 0100 00DA     		bge	.L29
 682 0102 0021     		movs	r1, #0
 683              	.L29:
 684 0104 09B2     		sxth	r1, r1
 685              	.LVL68:
 229:..\..\u8g2\csrc/u8g2_polygon.c ****       x2 = u8g2_GetDisplayWidth(u8g2);
ARM GAS  C:\Users\gjl\AppData\Local\Temp\ccY1KEHs.s 			page 20


 686              		.loc 1 229 0
 687 0106 9C45     		cmp	ip, r3
 688 0108 01DC     		bgt	.L30
 230:..\..\u8g2\csrc/u8g2_polygon.c ****     u8g2_DrawHLine(u8g2, x1, y, x2 - x1);
 689              		.loc 1 230 0
 690 010a 6346     		mov	r3, ip
 691 010c 1BB2     		sxth	r3, r3
 692              	.LVL69:
 693              	.L30:
 231:..\..\u8g2\csrc/u8g2_polygon.c ****   }
 694              		.loc 1 231 0
 695 010e C9B2     		uxtb	r1, r1
 696 0110 5B1A     		subs	r3, r3, r1
 697              	.LVL70:
 698 0112 0EE0     		b	.L48
 699              	.LVL71:
 700              	.L28:
 235:..\..\u8g2\csrc/u8g2_polygon.c ****       return;
 701              		.loc 1 235 0
 702 0114 0028     		cmp	r0, #0
 703 0116 11DB     		blt	.L33
 237:..\..\u8g2\csrc/u8g2_polygon.c ****       return;
 704              		.loc 1 237 0
 705 0118 2900     		movs	r1, r5
 706 011a 3F31     		adds	r1, r1, #63
 707 011c 0978     		ldrb	r1, [r1]
 708 011e 8B42     		cmp	r3, r1
 709 0120 0CDA     		bge	.L33
 240:..\..\u8g2\csrc/u8g2_polygon.c ****     if ( x1 >= u8g2_GetDisplayWidth(u8g2) )
 710              		.loc 1 240 0
 711 0122 DF43     		mvns	r7, r3
 712 0124 FF17     		asrs	r7, r7, #31
 713 0126 3840     		ands	r0, r7
 714              	.LVL72:
 241:..\..\u8g2\csrc/u8g2_polygon.c ****       x1 = u8g2_GetDisplayWidth(u8g2);
 715              		.loc 1 241 0
 716 0128 8142     		cmp	r1, r0
 717 012a 00DC     		bgt	.L32
 242:..\..\u8g2\csrc/u8g2_polygon.c ****     u8g2_DrawHLine(u8g2, x2, y, x1 - x2);
 718              		.loc 1 242 0
 719 012c 08B2     		sxth	r0, r1
 720              	.LVL73:
 721              	.L32:
 243:..\..\u8g2\csrc/u8g2_polygon.c ****   }
 722              		.loc 1 243 0
 723 012e D9B2     		uxtb	r1, r3
 724 0130 431A     		subs	r3, r0, r1
 725              	.LVL74:
 726              	.L48:
 727 0132 DBB2     		uxtb	r3, r3
 728 0134 D2B2     		uxtb	r2, r2
 729              	.LVL75:
 730 0136 2800     		movs	r0, r5
 731 0138 FFF7FEFF 		bl	u8g2_DrawHLine
 732              	.LVL76:
 733              	.L33:
 734              	.LBE37:
ARM GAS  C:\Users\gjl\AppData\Local\Temp\ccY1KEHs.s 			page 21


 735              	.LBE36:
 284:..\..\u8g2\csrc/u8g2_polygon.c ****     {
 736              		.loc 1 284 0
 737 013c 0198     		ldr	r0, [sp, #4]
 738 013e FFF7FEFF 		bl	pge_Next
 739              	.LVL77:
 740 0142 011E     		subs	r1, r0, #0
 741 0144 03D1     		bne	.L35
 286:..\..\u8g2\csrc/u8g2_polygon.c ****     }
 742              		.loc 1 286 0
 743 0146 2000     		movs	r0, r4
 744 0148 FFF7FEFF 		bl	pg_line_init
 745              	.LVL78:
 746 014c F6E7     		b	.L33
 747              	.L35:
 288:..\..\u8g2\csrc/u8g2_polygon.c ****     {
 748              		.loc 1 288 0
 749 014e 2000     		movs	r0, r4
 750 0150 3430     		adds	r0, r0, #52
 751 0152 FFF7FEFF 		bl	pge_Next
 752              	.LVL79:
 753 0156 0028     		cmp	r0, #0
 754 0158 04D1     		bne	.L50
 290:..\..\u8g2\csrc/u8g2_polygon.c ****     }
 755              		.loc 1 290 0
 756 015a 0121     		movs	r1, #1
 757 015c 2000     		movs	r0, r4
 758 015e FFF7FEFF 		bl	pg_line_init
 759              	.LVL80:
 760 0162 F4E7     		b	.L35
 761              	.L50:
 762 0164 013E     		subs	r6, r6, #1
 763              	.LVL81:
 764 0166 36B2     		sxth	r6, r6
 765              	.LVL82:
 293:..\..\u8g2\csrc/u8g2_polygon.c **** }
 766              		.loc 1 293 0
 767 0168 002E     		cmp	r6, #0
 768 016a AFDC     		bgt	.L37
 769              	.LVL83:
 770              	.L19:
 771              	.LBE35:
 772              	.LBE34:
 316:..\..\u8g2\csrc/u8g2_polygon.c ****   if ( pg_prepare(pg) == 0 )
 317:..\..\u8g2\csrc/u8g2_polygon.c ****     return;
 318:..\..\u8g2\csrc/u8g2_polygon.c ****   pg_exec(pg, u8g2);
 319:..\..\u8g2\csrc/u8g2_polygon.c **** }
 773              		.loc 1 319 0
 774              		@ sp needed
 775              	.LVL84:
 776              	.LVL85:
 777 016c F7BD     		pop	{r0, r1, r2, r4, r5, r6, r7, pc}
 778              	.L52:
 779 016e C046     		.align	2
 780              	.L51:
 781 0170 00000000 		.word	pg_inc
 782 0174 00000000 		.word	pg_dec
ARM GAS  C:\Users\gjl\AppData\Local\Temp\ccY1KEHs.s 			page 22


 783              		.cfi_endproc
 784              	.LFE11:
 785              		.size	pg_DrawPolygon, .-pg_DrawPolygon
 786              		.section	.text.u8g2_ClearPolygonXY,"ax",%progbits
 787              		.align	1
 788              		.global	u8g2_ClearPolygonXY
 789              		.code	16
 790              		.thumb_func
 791              		.type	u8g2_ClearPolygonXY, %function
 792              	u8g2_ClearPolygonXY:
 793              	.LFB12:
 320:..\..\u8g2\csrc/u8g2_polygon.c **** 
 321:..\..\u8g2\csrc/u8g2_polygon.c **** pg_struct u8g2_pg;
 322:..\..\u8g2\csrc/u8g2_polygon.c **** 
 323:..\..\u8g2\csrc/u8g2_polygon.c **** void u8g2_ClearPolygonXY(void)
 324:..\..\u8g2\csrc/u8g2_polygon.c **** {
 794              		.loc 1 324 0
 795              		.cfi_startproc
 796              		@ args = 0, pretend = 0, frame = 0
 797              		@ frame_needed = 0, uses_anonymous_args = 0
 798              		@ link register save eliminated.
 799              	.LVL86:
 800              	.LBB38:
 801              	.LBB39:
 301:..\..\u8g2\csrc/u8g2_polygon.c **** }
 802              		.loc 1 301 0
 803 0000 0022     		movs	r2, #0
 804 0002 014B     		ldr	r3, .L54
 805              	.LBE39:
 806              	.LBE38:
 325:..\..\u8g2\csrc/u8g2_polygon.c ****   pg_ClearPolygonXY(&u8g2_pg);
 326:..\..\u8g2\csrc/u8g2_polygon.c **** }
 807              		.loc 1 326 0
 808              		@ sp needed
 809              	.LBB41:
 810              	.LBB40:
 301:..\..\u8g2\csrc/u8g2_polygon.c **** }
 811              		.loc 1 301 0
 812 0004 1A76     		strb	r2, [r3, #24]
 813              	.LVL87:
 814              	.LBE40:
 815              	.LBE41:
 816              		.loc 1 326 0
 817 0006 7047     		bx	lr
 818              	.L55:
 819              		.align	2
 820              	.L54:
 821 0008 00000000 		.word	u8g2_pg
 822              		.cfi_endproc
 823              	.LFE12:
 824              		.size	u8g2_ClearPolygonXY, .-u8g2_ClearPolygonXY
 825              		.section	.text.u8g2_AddPolygonXY,"ax",%progbits
 826              		.align	1
 827              		.global	u8g2_AddPolygonXY
 828              		.code	16
 829              		.thumb_func
 830              		.type	u8g2_AddPolygonXY, %function
ARM GAS  C:\Users\gjl\AppData\Local\Temp\ccY1KEHs.s 			page 23


 831              	u8g2_AddPolygonXY:
 832              	.LFB13:
 327:..\..\u8g2\csrc/u8g2_polygon.c **** 
 328:..\..\u8g2\csrc/u8g2_polygon.c **** void u8g2_AddPolygonXY(U8X8_UNUSED u8g2_t *u8g2, int16_t x, int16_t y)
 329:..\..\u8g2\csrc/u8g2_polygon.c **** {
 833              		.loc 1 329 0
 834              		.cfi_startproc
 835              		@ args = 0, pretend = 0, frame = 0
 836              		@ frame_needed = 0, uses_anonymous_args = 0
 837              	.LVL88:
 838 0000 10B5     		push	{r4, lr}
 839              		.cfi_def_cfa_offset 8
 840              		.cfi_offset 4, -8
 841              		.cfi_offset 14, -4
 330:..\..\u8g2\csrc/u8g2_polygon.c ****   pg_AddPolygonXY(&u8g2_pg, x, y);
 842              		.loc 1 330 0
 843 0002 0248     		ldr	r0, .L57
 844              	.LVL89:
 845 0004 FFF7FEFF 		bl	pg_AddPolygonXY
 846              	.LVL90:
 331:..\..\u8g2\csrc/u8g2_polygon.c **** }
 847              		.loc 1 331 0
 848              		@ sp needed
 849 0008 10BD     		pop	{r4, pc}
 850              	.L58:
 851 000a C046     		.align	2
 852              	.L57:
 853 000c 00000000 		.word	u8g2_pg
 854              		.cfi_endproc
 855              	.LFE13:
 856              		.size	u8g2_AddPolygonXY, .-u8g2_AddPolygonXY
 857              		.section	.text.u8g2_DrawPolygon,"ax",%progbits
 858              		.align	1
 859              		.global	u8g2_DrawPolygon
 860              		.code	16
 861              		.thumb_func
 862              		.type	u8g2_DrawPolygon, %function
 863              	u8g2_DrawPolygon:
 864              	.LFB14:
 332:..\..\u8g2\csrc/u8g2_polygon.c **** 
 333:..\..\u8g2\csrc/u8g2_polygon.c **** void u8g2_DrawPolygon(u8g2_t *u8g2)
 334:..\..\u8g2\csrc/u8g2_polygon.c **** {
 865              		.loc 1 334 0
 866              		.cfi_startproc
 867              		@ args = 0, pretend = 0, frame = 0
 868              		@ frame_needed = 0, uses_anonymous_args = 0
 869              	.LVL91:
 870 0000 10B5     		push	{r4, lr}
 871              		.cfi_def_cfa_offset 8
 872              		.cfi_offset 4, -8
 873              		.cfi_offset 14, -4
 874              		.loc 1 334 0
 875 0002 0100     		movs	r1, r0
 335:..\..\u8g2\csrc/u8g2_polygon.c ****   pg_DrawPolygon(&u8g2_pg, u8g2);
 876              		.loc 1 335 0
 877 0004 0148     		ldr	r0, .L60
 878              	.LVL92:
ARM GAS  C:\Users\gjl\AppData\Local\Temp\ccY1KEHs.s 			page 24


 879 0006 FFF7FEFF 		bl	pg_DrawPolygon
 880              	.LVL93:
 336:..\..\u8g2\csrc/u8g2_polygon.c **** }
 881              		.loc 1 336 0
 882              		@ sp needed
 883 000a 10BD     		pop	{r4, pc}
 884              	.L61:
 885              		.align	2
 886              	.L60:
 887 000c 00000000 		.word	u8g2_pg
 888              		.cfi_endproc
 889              	.LFE14:
 890              		.size	u8g2_DrawPolygon, .-u8g2_DrawPolygon
 891              		.section	.text.u8g2_DrawTriangle,"ax",%progbits
 892              		.align	1
 893              		.global	u8g2_DrawTriangle
 894              		.code	16
 895              		.thumb_func
 896              		.type	u8g2_DrawTriangle, %function
 897              	u8g2_DrawTriangle:
 898              	.LFB15:
 337:..\..\u8g2\csrc/u8g2_polygon.c **** 
 338:..\..\u8g2\csrc/u8g2_polygon.c **** void u8g2_DrawTriangle(u8g2_t *u8g2, int16_t x0, int16_t y0, int16_t x1, int16_t y1, int16_t x2, in
 339:..\..\u8g2\csrc/u8g2_polygon.c **** {
 899              		.loc 1 339 0
 900              		.cfi_startproc
 901              		@ args = 12, pretend = 0, frame = 0
 902              		@ frame_needed = 0, uses_anonymous_args = 0
 903              	.LVL94:
 904 0000 F8B5     		push	{r3, r4, r5, r6, r7, lr}
 905              		.cfi_def_cfa_offset 24
 906              		.cfi_offset 3, -24
 907              		.cfi_offset 4, -20
 908              		.cfi_offset 5, -16
 909              		.cfi_offset 6, -12
 910              		.cfi_offset 7, -8
 911              		.cfi_offset 14, -4
 912              		.loc 1 339 0
 913 0002 0500     		movs	r5, r0
 914              	.LVL95:
 915 0004 1000     		movs	r0, r2
 916              	.LVL96:
 917 0006 06AA     		add	r2, sp, #24
 918              	.LVL97:
 919 0008 0024     		movs	r4, #0
 920 000a 125F     		ldrsh	r2, [r2, r4]
 921              	.LVL98:
 922 000c 07AC     		add	r4, sp, #28
 923              	.LVL99:
 924 000e 0026     		movs	r6, #0
 925 0010 A65F     		ldrsh	r6, [r4, r6]
 926              	.LVL100:
 927 0012 08AC     		add	r4, sp, #32
 928              	.LVL101:
 929 0014 0027     		movs	r7, #0
 930 0016 E75F     		ldrsh	r7, [r4, r7]
 931              	.LVL102:
ARM GAS  C:\Users\gjl\AppData\Local\Temp\ccY1KEHs.s 			page 25


 932              	.LBB53:
 933              	.LBB54:
 934              	.LBB55:
 308:..\..\u8g2\csrc/u8g2_polygon.c ****     pg->list[pg->cnt].y = y;
 935              		.loc 1 308 0
 936 0018 084C     		ldr	r4, .L63
 937              	.LBE55:
 938              	.LBE54:
 939              	.LBE53:
 340:..\..\u8g2\csrc/u8g2_polygon.c ****   u8g2_ClearPolygonXY();
 341:..\..\u8g2\csrc/u8g2_polygon.c ****   u8g2_AddPolygonXY(u8g2, x0, y0);
 342:..\..\u8g2\csrc/u8g2_polygon.c ****   u8g2_AddPolygonXY(u8g2, x1, y1);
 343:..\..\u8g2\csrc/u8g2_polygon.c ****   u8g2_AddPolygonXY(u8g2, x2, y2);
 344:..\..\u8g2\csrc/u8g2_polygon.c ****   u8g2_DrawPolygon(u8g2);
 345:..\..\u8g2\csrc/u8g2_polygon.c **** }
 940              		.loc 1 345 0
 941              		@ sp needed
 942              	.LBB58:
 943              	.LBB57:
 944              	.LBB56:
 308:..\..\u8g2\csrc/u8g2_polygon.c ****     pg->list[pg->cnt].y = y;
 945              		.loc 1 308 0
 946 001a 2180     		strh	r1, [r4]
 310:..\..\u8g2\csrc/u8g2_polygon.c ****   }
 947              		.loc 1 310 0
 948 001c 0121     		movs	r1, #1
 949              	.LVL103:
 309:..\..\u8g2\csrc/u8g2_polygon.c ****     pg->cnt++;
 950              		.loc 1 309 0
 951 001e 6080     		strh	r0, [r4, #2]
 310:..\..\u8g2\csrc/u8g2_polygon.c ****   }
 952              		.loc 1 310 0
 953 0020 2176     		strb	r1, [r4, #24]
 954              	.LVL104:
 955              	.LBE56:
 956              	.LBE57:
 957              	.LBE58:
 958              	.LBB59:
 959              	.LBB60:
 330:..\..\u8g2\csrc/u8g2_polygon.c **** }
 960              		.loc 1 330 0
 961 0022 2000     		movs	r0, r4
 962 0024 1900     		movs	r1, r3
 963 0026 FFF7FEFF 		bl	pg_AddPolygonXY
 964              	.LVL105:
 965              	.LBE60:
 966              	.LBE59:
 967              	.LBB61:
 968              	.LBB62:
 969 002a 3A00     		movs	r2, r7
 970 002c 3100     		movs	r1, r6
 971 002e 2000     		movs	r0, r4
 972 0030 FFF7FEFF 		bl	pg_AddPolygonXY
 973              	.LVL106:
 974              	.LBE62:
 975              	.LBE61:
 344:..\..\u8g2\csrc/u8g2_polygon.c **** }
ARM GAS  C:\Users\gjl\AppData\Local\Temp\ccY1KEHs.s 			page 26


 976              		.loc 1 344 0
 977 0034 2800     		movs	r0, r5
 978 0036 FFF7FEFF 		bl	u8g2_DrawPolygon
 979              	.LVL107:
 980              	.LVL108:
 981              		.loc 1 345 0
 982 003a F8BD     		pop	{r3, r4, r5, r6, r7, pc}
 983              	.L64:
 984              		.align	2
 985              	.L63:
 986 003c 00000000 		.word	u8g2_pg
 987              		.cfi_endproc
 988              	.LFE15:
 989              		.size	u8g2_DrawTriangle, .-u8g2_DrawTriangle
 990              		.comm	u8g2_pg,76,4
 991              		.text
 992              	.Letext0:
 993              		.file 2 "c:\\program files (x86)\\cypress\\psoc creator\\4.1\\psoc creator\\import\\gnu\\arm\\5.4.
 994              		.file 3 "c:\\program files (x86)\\cypress\\psoc creator\\4.1\\psoc creator\\import\\gnu\\arm\\5.4.
 995              		.file 4 "..\\..\\u8g2\\csrc\\u8x8.h"
 996              		.file 5 "..\\..\\u8g2\\csrc\\u8g2.h"