ARM GAS  C:\Users\Greg\AppData\Local\Temp\cckBPInZ.s 			page 1


   1              		.syntax unified
   2              		.cpu cortex-m0
   3              		.fpu softvfp
   4              		.eabi_attribute 20, 1
   5              		.eabi_attribute 21, 1
   6              		.eabi_attribute 23, 3
   7              		.eabi_attribute 24, 1
   8              		.eabi_attribute 25, 1
   9              		.eabi_attribute 26, 1
  10              		.eabi_attribute 30, 4
  11              		.eabi_attribute 34, 0
  12              		.eabi_attribute 18, 4
  13              		.thumb
  14              		.syntax unified
  15              		.file	"u8g2_selection_list.c"
  16              		.text
  17              	.Ltext0:
  18              		.cfi_sections	.debug_frame
  19              		.section	.text.u8g2_DrawUTF8Line,"ax",%progbits
  20              		.align	1
  21              		.global	u8g2_DrawUTF8Line
  22              		.code	16
  23              		.thumb_func
  24              		.type	u8g2_DrawUTF8Line, %function
  25              	u8g2_DrawUTF8Line:
  26              	.LFB0:
  27              		.file 1 "..\\..\\u8g2\\csrc\\u8g2_selection_list.c"
   1:..\..\u8g2\csrc/u8g2_selection_list.c **** /*
   2:..\..\u8g2\csrc/u8g2_selection_list.c **** 
   3:..\..\u8g2\csrc/u8g2_selection_list.c ****   u8g2_selection_list.c
   4:..\..\u8g2\csrc/u8g2_selection_list.c ****   
   5:..\..\u8g2\csrc/u8g2_selection_list.c ****   selection list with scroll option
   6:..\..\u8g2\csrc/u8g2_selection_list.c ****   
   7:..\..\u8g2\csrc/u8g2_selection_list.c ****   Universal 8bit Graphics Library (https://github.com/olikraus/u8g2/)
   8:..\..\u8g2\csrc/u8g2_selection_list.c **** 
   9:..\..\u8g2\csrc/u8g2_selection_list.c ****   Copyright (c) 2016, olikraus@gmail.com
  10:..\..\u8g2\csrc/u8g2_selection_list.c ****   All rights reserved.
  11:..\..\u8g2\csrc/u8g2_selection_list.c **** 
  12:..\..\u8g2\csrc/u8g2_selection_list.c ****   Redistribution and use in source and binary forms, with or without modification, 
  13:..\..\u8g2\csrc/u8g2_selection_list.c ****   are permitted provided that the following conditions are met:
  14:..\..\u8g2\csrc/u8g2_selection_list.c **** 
  15:..\..\u8g2\csrc/u8g2_selection_list.c ****   * Redistributions of source code must retain the above copyright notice, this list 
  16:..\..\u8g2\csrc/u8g2_selection_list.c ****     of conditions and the following disclaimer.
  17:..\..\u8g2\csrc/u8g2_selection_list.c ****     
  18:..\..\u8g2\csrc/u8g2_selection_list.c ****   * Redistributions in binary form must reproduce the above copyright notice, this 
  19:..\..\u8g2\csrc/u8g2_selection_list.c ****     list of conditions and the following disclaimer in the documentation and/or other 
  20:..\..\u8g2\csrc/u8g2_selection_list.c ****     materials provided with the distribution.
  21:..\..\u8g2\csrc/u8g2_selection_list.c **** 
  22:..\..\u8g2\csrc/u8g2_selection_list.c ****   THIS SOFTWARE IS PROVIDED BY THE COPYRIGHT HOLDERS AND 
  23:..\..\u8g2\csrc/u8g2_selection_list.c ****   CONTRIBUTORS "AS IS" AND ANY EXPRESS OR IMPLIED WARRANTIES, 
  24:..\..\u8g2\csrc/u8g2_selection_list.c ****   INCLUDING, BUT NOT LIMITED TO, THE IMPLIED WARRANTIES OF 
  25:..\..\u8g2\csrc/u8g2_selection_list.c ****   MERCHANTABILITY AND FITNESS FOR A PARTICULAR PURPOSE ARE 
  26:..\..\u8g2\csrc/u8g2_selection_list.c ****   DISCLAIMED. IN NO EVENT SHALL THE COPYRIGHT HOLDER OR 
  27:..\..\u8g2\csrc/u8g2_selection_list.c ****   CONTRIBUTORS BE LIABLE FOR ANY DIRECT, INDIRECT, INCIDENTAL, 
  28:..\..\u8g2\csrc/u8g2_selection_list.c ****   SPECIAL, EXEMPLARY, OR CONSEQUENTIAL DAMAGES (INCLUDING, BUT 
  29:..\..\u8g2\csrc/u8g2_selection_list.c ****   NOT LIMITED TO, PROCUREMENT OF SUBSTITUTE GOODS OR SERVICES; 
  30:..\..\u8g2\csrc/u8g2_selection_list.c ****   LOSS OF USE, DATA, OR PROFITS; OR BUSINESS INTERRUPTION) HOWEVER 
ARM GAS  C:\Users\Greg\AppData\Local\Temp\cckBPInZ.s 			page 2


  31:..\..\u8g2\csrc/u8g2_selection_list.c ****   CAUSED AND ON ANY THEORY OF LIABILITY, WHETHER IN CONTRACT, 
  32:..\..\u8g2\csrc/u8g2_selection_list.c ****   STRICT LIABILITY, OR TORT (INCLUDING NEGLIGENCE OR OTHERWISE) 
  33:..\..\u8g2\csrc/u8g2_selection_list.c ****   ARISING IN ANY WAY OUT OF THE USE OF THIS SOFTWARE, EVEN IF 
  34:..\..\u8g2\csrc/u8g2_selection_list.c ****   ADVISED OF THE POSSIBILITY OF SUCH DAMAGE.  
  35:..\..\u8g2\csrc/u8g2_selection_list.c ****   
  36:..\..\u8g2\csrc/u8g2_selection_list.c **** */
  37:..\..\u8g2\csrc/u8g2_selection_list.c **** 
  38:..\..\u8g2\csrc/u8g2_selection_list.c **** #include "u8g2.h"
  39:..\..\u8g2\csrc/u8g2_selection_list.c **** 
  40:..\..\u8g2\csrc/u8g2_selection_list.c **** #define MY_BORDER_SIZE 1
  41:..\..\u8g2\csrc/u8g2_selection_list.c **** 
  42:..\..\u8g2\csrc/u8g2_selection_list.c **** 
  43:..\..\u8g2\csrc/u8g2_selection_list.c **** /*
  44:..\..\u8g2\csrc/u8g2_selection_list.c ****   Draw a string at x,y
  45:..\..\u8g2\csrc/u8g2_selection_list.c ****   Center string within w (left adjust if w < pixel len of s)
  46:..\..\u8g2\csrc/u8g2_selection_list.c ****   
  47:..\..\u8g2\csrc/u8g2_selection_list.c ****   Side effects:
  48:..\..\u8g2\csrc/u8g2_selection_list.c ****     u8g2_SetFontDirection(u8g2, 0);
  49:..\..\u8g2\csrc/u8g2_selection_list.c ****     u8g2_SetFontPosBaseline(u8g2);
  50:..\..\u8g2\csrc/u8g2_selection_list.c **** 
  51:..\..\u8g2\csrc/u8g2_selection_list.c **** */
  52:..\..\u8g2\csrc/u8g2_selection_list.c **** void u8g2_DrawUTF8Line(u8g2_t *u8g2, u8g2_uint_t x, u8g2_uint_t y, u8g2_uint_t w, const char *s, ui
  53:..\..\u8g2\csrc/u8g2_selection_list.c **** {
  28              		.loc 1 53 0
  29              		.cfi_startproc
  30              		@ args = 12, pretend = 0, frame = 32
  31              		@ frame_needed = 0, uses_anonymous_args = 0
  32              	.LVL0:
  33 0000 F0B5     		push	{r4, r5, r6, r7, lr}
  34              		.cfi_def_cfa_offset 20
  35              		.cfi_offset 4, -20
  36              		.cfi_offset 5, -16
  37              		.cfi_offset 6, -12
  38              		.cfi_offset 7, -8
  39              		.cfi_offset 14, -4
  40 0002 0400     		movs	r4, r0
  41 0004 8BB0     		sub	sp, sp, #44
  42              		.cfi_def_cfa_offset 64
  43              		.loc 1 53 0
  44 0006 1E00     		movs	r6, r3
  45 0008 10AB     		add	r3, sp, #64
  46              	.LVL1:
  47 000a 1500     		movs	r5, r2
  48 000c 04CB     		ldmia	r3!, {r2}
  49              	.LVL2:
  50 000e 0291     		str	r1, [sp, #8]
  51 0010 1F78     		ldrb	r7, [r3]
  52 0012 12AB     		add	r3, sp, #72
  53              	.LVL3:
  54 0014 1B78     		ldrb	r3, [r3]
  55              	.LVL4:
  54:..\..\u8g2\csrc/u8g2_selection_list.c ****   u8g2_uint_t d, str_width;
  55:..\..\u8g2\csrc/u8g2_selection_list.c ****   u8g2_uint_t fx, fy, fw, fh;
  56:..\..\u8g2\csrc/u8g2_selection_list.c **** 
  57:..\..\u8g2\csrc/u8g2_selection_list.c ****   /* only horizontal strings are supported, so force this here */
  58:..\..\u8g2\csrc/u8g2_selection_list.c ****   u8g2_SetFontDirection(u8g2, 0);
  56              		.loc 1 58 0
ARM GAS  C:\Users\Greg\AppData\Local\Temp\cckBPInZ.s 			page 3


  57 0016 0021     		movs	r1, #0
  58              	.LVL5:
  53:..\..\u8g2\csrc/u8g2_selection_list.c ****   u8g2_uint_t d, str_width;
  59              		.loc 1 53 0
  60 0018 0792     		str	r2, [sp, #28]
  61 001a 0893     		str	r3, [sp, #32]
  62              		.loc 1 58 0
  63 001c FFF7FEFF 		bl	u8g2_SetFontDirection
  64              	.LVL6:
  59:..\..\u8g2\csrc/u8g2_selection_list.c **** 
  60:..\..\u8g2\csrc/u8g2_selection_list.c ****   /* revert y position back to baseline ref */
  61:..\..\u8g2\csrc/u8g2_selection_list.c ****   y += u8g2->font_calc_vref(u8g2);   
  65              		.loc 1 61 0
  66 0020 E36C     		ldr	r3, [r4, #76]
  67 0022 2000     		movs	r0, r4
  68 0024 9847     		blx	r3
  69              	.LVL7:
  70 0026 4519     		adds	r5, r0, r5
  71 0028 EBB2     		uxtb	r3, r5
  62:..\..\u8g2\csrc/u8g2_selection_list.c **** 
  63:..\..\u8g2\csrc/u8g2_selection_list.c ****   /* calculate the width of the string in pixel */
  64:..\..\u8g2\csrc/u8g2_selection_list.c ****   str_width = u8g2_GetUTF8Width(u8g2, s);
  72              		.loc 1 64 0
  73 002a 0799     		ldr	r1, [sp, #28]
  74 002c 2000     		movs	r0, r4
  61:..\..\u8g2\csrc/u8g2_selection_list.c **** 
  75              		.loc 1 61 0
  76 002e 0493     		str	r3, [sp, #16]
  77              	.LVL8:
  78              		.loc 1 64 0
  79 0030 FFF7FEFF 		bl	u8g2_GetUTF8Width
  80              	.LVL9:
  65:..\..\u8g2\csrc/u8g2_selection_list.c **** 
  66:..\..\u8g2\csrc/u8g2_selection_list.c ****   /* calculate delta d within the box */
  67:..\..\u8g2\csrc/u8g2_selection_list.c ****   d = 0;
  81              		.loc 1 67 0
  82 0034 0023     		movs	r3, #0
  64:..\..\u8g2\csrc/u8g2_selection_list.c **** 
  83              		.loc 1 64 0
  84 0036 0500     		movs	r5, r0
  85              	.LVL10:
  86              		.loc 1 67 0
  87 0038 0393     		str	r3, [sp, #12]
  68:..\..\u8g2\csrc/u8g2_selection_list.c ****   if ( str_width < w )
  88              		.loc 1 68 0
  89 003a B042     		cmp	r0, r6
  90 003c 04D2     		bcs	.L2
  91              	.LVL11:
  69:..\..\u8g2\csrc/u8g2_selection_list.c ****   {
  70:..\..\u8g2\csrc/u8g2_selection_list.c ****     d = w;
  71:..\..\u8g2\csrc/u8g2_selection_list.c ****     d -=str_width;
  92              		.loc 1 71 0
  93 003e 351A     		subs	r5, r6, r0
  94 0040 EDB2     		uxtb	r5, r5
  95              	.LVL12:
  72:..\..\u8g2\csrc/u8g2_selection_list.c ****     d /= 2;
  96              		.loc 1 72 0
ARM GAS  C:\Users\Greg\AppData\Local\Temp\cckBPInZ.s 			page 4


  97 0042 6B08     		lsrs	r3, r5, #1
  98 0044 3500     		movs	r5, r6
  99              	.LVL13:
 100 0046 0393     		str	r3, [sp, #12]
 101              	.LVL14:
 102              	.L2:
  73:..\..\u8g2\csrc/u8g2_selection_list.c ****   }
  74:..\..\u8g2\csrc/u8g2_selection_list.c ****   else
  75:..\..\u8g2\csrc/u8g2_selection_list.c ****   {
  76:..\..\u8g2\csrc/u8g2_selection_list.c ****     w = str_width;
  77:..\..\u8g2\csrc/u8g2_selection_list.c ****   }
  78:..\..\u8g2\csrc/u8g2_selection_list.c **** 
  79:..\..\u8g2\csrc/u8g2_selection_list.c ****   /* caluclate text box */
  80:..\..\u8g2\csrc/u8g2_selection_list.c ****   fx = x;
  81:..\..\u8g2\csrc/u8g2_selection_list.c ****   fy = y - u8g2_GetAscent(u8g2) ;
 103              		.loc 1 81 0
 104 0048 2300     		movs	r3, r4
 105 004a 7933     		adds	r3, r3, #121
 106 004c 1B78     		ldrb	r3, [r3]
 107 004e 049A     		ldr	r2, [sp, #16]
  82:..\..\u8g2\csrc/u8g2_selection_list.c ****   fw = w;
  83:..\..\u8g2\csrc/u8g2_selection_list.c ****   fh = u8g2_GetAscent(u8g2) - u8g2_GetDescent(u8g2) ;
  84:..\..\u8g2\csrc/u8g2_selection_list.c **** 
  85:..\..\u8g2\csrc/u8g2_selection_list.c ****   /* draw the box, if inverted */
  86:..\..\u8g2\csrc/u8g2_selection_list.c ****   u8g2_SetDrawColor(u8g2, 1);
 108              		.loc 1 86 0
 109 0050 0121     		movs	r1, #1
  81:..\..\u8g2\csrc/u8g2_selection_list.c ****   fw = w;
 110              		.loc 1 81 0
 111 0052 D21A     		subs	r2, r2, r3
 112 0054 D2B2     		uxtb	r2, r2
 113 0056 0592     		str	r2, [sp, #20]
 114              	.LVL15:
  83:..\..\u8g2\csrc/u8g2_selection_list.c **** 
 115              		.loc 1 83 0
 116 0058 2200     		movs	r2, r4
 117 005a 7A32     		adds	r2, r2, #122
 118 005c 1278     		ldrb	r2, [r2]
 119              		.loc 1 86 0
 120 005e 2000     		movs	r0, r4
 121              	.LVL16:
  83:..\..\u8g2\csrc/u8g2_selection_list.c **** 
 122              		.loc 1 83 0
 123 0060 9B1A     		subs	r3, r3, r2
 124 0062 DBB2     		uxtb	r3, r3
 125 0064 0693     		str	r3, [sp, #24]
 126              	.LVL17:
 127              		.loc 1 86 0
 128 0066 FFF7FEFF 		bl	u8g2_SetDrawColor
 129              	.LVL18:
  87:..\..\u8g2\csrc/u8g2_selection_list.c ****   if ( is_invert )
 130              		.loc 1 87 0
 131 006a 089B     		ldr	r3, [sp, #32]
 132 006c 002B     		cmp	r3, #0
 133 006e 07D0     		beq	.L3
  88:..\..\u8g2\csrc/u8g2_selection_list.c ****   {
  89:..\..\u8g2\csrc/u8g2_selection_list.c ****     u8g2_DrawBox(u8g2, fx, fy, fw, fh);
ARM GAS  C:\Users\Greg\AppData\Local\Temp\cckBPInZ.s 			page 5


 134              		.loc 1 89 0
 135 0070 069B     		ldr	r3, [sp, #24]
 136 0072 059A     		ldr	r2, [sp, #20]
 137 0074 0093     		str	r3, [sp]
 138 0076 0299     		ldr	r1, [sp, #8]
 139 0078 2B00     		movs	r3, r5
 140 007a 2000     		movs	r0, r4
 141 007c FFF7FEFF 		bl	u8g2_DrawBox
 142              	.LVL19:
 143              	.L3:
 144 0080 029B     		ldr	r3, [sp, #8]
  67:..\..\u8g2\csrc/u8g2_selection_list.c ****   if ( str_width < w )
 145              		.loc 1 67 0
 146 0082 029E     		ldr	r6, [sp, #8]
 147 0084 DF1B     		subs	r7, r3, r7
 148 0086 FBB2     		uxtb	r3, r7
 149 0088 2F00     		movs	r7, r5
 150 008a 0993     		str	r3, [sp, #36]
 151              	.LVL20:
 152              	.L4:
  90:..\..\u8g2\csrc/u8g2_selection_list.c ****   }
  91:..\..\u8g2\csrc/u8g2_selection_list.c **** 
  92:..\..\u8g2\csrc/u8g2_selection_list.c ****   /* draw the frame */
  93:..\..\u8g2\csrc/u8g2_selection_list.c ****   while( border_size > 0 )
 153              		.loc 1 93 0
 154 008c 099B     		ldr	r3, [sp, #36]
 155 008e 9E42     		cmp	r6, r3
 156 0090 13D0     		beq	.L14
  94:..\..\u8g2\csrc/u8g2_selection_list.c ****   {
  95:..\..\u8g2\csrc/u8g2_selection_list.c ****     fx--;
  96:..\..\u8g2\csrc/u8g2_selection_list.c ****     fy--;
  97:..\..\u8g2\csrc/u8g2_selection_list.c ****     fw +=2;
  98:..\..\u8g2\csrc/u8g2_selection_list.c ****     fh +=2;
  99:..\..\u8g2\csrc/u8g2_selection_list.c ****     u8g2_DrawFrame(u8g2, fx, fy, fw, fh );
 157              		.loc 1 99 0
 158 0092 059B     		ldr	r3, [sp, #20]
 159 0094 029A     		ldr	r2, [sp, #8]
  97:..\..\u8g2\csrc/u8g2_selection_list.c ****     fh +=2;
 160              		.loc 1 97 0
 161 0096 0237     		adds	r7, r7, #2
 162              	.LVL21:
 163              		.loc 1 99 0
 164 0098 9A1A     		subs	r2, r3, r2
 165 009a 069B     		ldr	r3, [sp, #24]
  97:..\..\u8g2\csrc/u8g2_selection_list.c ****     fh +=2;
 166              		.loc 1 97 0
 167 009c FFB2     		uxtb	r7, r7
 168              		.loc 1 99 0
 169 009e DB19     		adds	r3, r3, r7
  95:..\..\u8g2\csrc/u8g2_selection_list.c ****     fy--;
 170              		.loc 1 95 0
 171 00a0 013E     		subs	r6, r6, #1
 172              	.LVL22:
 173 00a2 F6B2     		uxtb	r6, r6
 174              	.LVL23:
 175              		.loc 1 99 0
 176 00a4 5B1B     		subs	r3, r3, r5
ARM GAS  C:\Users\Greg\AppData\Local\Temp\cckBPInZ.s 			page 6


 177 00a6 B218     		adds	r2, r6, r2
 178 00a8 DBB2     		uxtb	r3, r3
 179 00aa 0093     		str	r3, [sp]
 180 00ac D2B2     		uxtb	r2, r2
 181 00ae 3B00     		movs	r3, r7
 182 00b0 3100     		movs	r1, r6
 183 00b2 2000     		movs	r0, r4
 184 00b4 FFF7FEFF 		bl	u8g2_DrawFrame
 185              	.LVL24:
 186 00b8 E8E7     		b	.L4
 187              	.L14:
 100:..\..\u8g2\csrc/u8g2_selection_list.c ****     border_size--;
 101:..\..\u8g2\csrc/u8g2_selection_list.c ****   }
 102:..\..\u8g2\csrc/u8g2_selection_list.c **** 
 103:..\..\u8g2\csrc/u8g2_selection_list.c ****   if ( is_invert )
 188              		.loc 1 103 0
 189 00ba 089B     		ldr	r3, [sp, #32]
 104:..\..\u8g2\csrc/u8g2_selection_list.c ****   {
 105:..\..\u8g2\csrc/u8g2_selection_list.c ****     u8g2_SetDrawColor(u8g2, 0);
 190              		.loc 1 105 0
 191 00bc 0021     		movs	r1, #0
 103:..\..\u8g2\csrc/u8g2_selection_list.c ****   {
 192              		.loc 1 103 0
 193 00be 002B     		cmp	r3, #0
 194 00c0 00D1     		bne	.L12
 106:..\..\u8g2\csrc/u8g2_selection_list.c ****   }
 107:..\..\u8g2\csrc/u8g2_selection_list.c ****   else
 108:..\..\u8g2\csrc/u8g2_selection_list.c ****   {
 109:..\..\u8g2\csrc/u8g2_selection_list.c ****     u8g2_SetDrawColor(u8g2, 1);
 195              		.loc 1 109 0
 196 00c2 0121     		movs	r1, #1
 197              	.L12:
 198 00c4 2000     		movs	r0, r4
 199 00c6 FFF7FEFF 		bl	u8g2_SetDrawColor
 200              	.LVL25:
 110:..\..\u8g2\csrc/u8g2_selection_list.c ****   }
 111:..\..\u8g2\csrc/u8g2_selection_list.c **** 
 112:..\..\u8g2\csrc/u8g2_selection_list.c ****   /* draw the text */
 113:..\..\u8g2\csrc/u8g2_selection_list.c ****   u8g2_DrawUTF8(u8g2, x+d, y, s);
 201              		.loc 1 113 0
 202 00ca 029A     		ldr	r2, [sp, #8]
 203 00cc 039B     		ldr	r3, [sp, #12]
 204 00ce 9446     		mov	ip, r2
 205 00d0 6344     		add	r3, r3, ip
 206 00d2 D9B2     		uxtb	r1, r3
 207 00d4 049A     		ldr	r2, [sp, #16]
 208 00d6 079B     		ldr	r3, [sp, #28]
 209 00d8 2000     		movs	r0, r4
 210 00da FFF7FEFF 		bl	u8g2_DrawUTF8
 211              	.LVL26:
 114:..\..\u8g2\csrc/u8g2_selection_list.c **** 
 115:..\..\u8g2\csrc/u8g2_selection_list.c ****   /* revert draw color */
 116:..\..\u8g2\csrc/u8g2_selection_list.c ****   u8g2_SetDrawColor(u8g2, 1);
 212              		.loc 1 116 0
 213 00de 0121     		movs	r1, #1
 214 00e0 2000     		movs	r0, r4
 215 00e2 FFF7FEFF 		bl	u8g2_SetDrawColor
ARM GAS  C:\Users\Greg\AppData\Local\Temp\cckBPInZ.s 			page 7


 216              	.LVL27:
 117:..\..\u8g2\csrc/u8g2_selection_list.c **** 
 118:..\..\u8g2\csrc/u8g2_selection_list.c **** }
 217              		.loc 1 118 0
 218 00e6 0BB0     		add	sp, sp, #44
 219              		@ sp needed
 220              	.LVL28:
 221              	.LVL29:
 222              	.LVL30:
 223              	.LVL31:
 224 00e8 F0BD     		pop	{r4, r5, r6, r7, pc}
 225              		.cfi_endproc
 226              	.LFE0:
 227              		.size	u8g2_DrawUTF8Line, .-u8g2_DrawUTF8Line
 228              		.section	.text.u8g2_draw_selection_list_line.isra.0,"ax",%progbits
 229              		.align	1
 230              		.code	16
 231              		.thumb_func
 232              		.type	u8g2_draw_selection_list_line.isra.0, %function
 233              	u8g2_draw_selection_list_line.isra.0:
 234              	.LFB5:
 119:..\..\u8g2\csrc/u8g2_selection_list.c **** 
 120:..\..\u8g2\csrc/u8g2_selection_list.c **** 
 121:..\..\u8g2\csrc/u8g2_selection_list.c **** /*
 122:..\..\u8g2\csrc/u8g2_selection_list.c ****   draw several lines at position x,y.
 123:..\..\u8g2\csrc/u8g2_selection_list.c ****   lines are stored in s and must be separated with '\n'.
 124:..\..\u8g2\csrc/u8g2_selection_list.c ****   lines can be centered with respect to "w"
 125:..\..\u8g2\csrc/u8g2_selection_list.c ****   if s == NULL nothing is drawn and 0 is returned
 126:..\..\u8g2\csrc/u8g2_selection_list.c ****   returns the number of lines in s multiplied with line_height
 127:..\..\u8g2\csrc/u8g2_selection_list.c **** */
 128:..\..\u8g2\csrc/u8g2_selection_list.c **** u8g2_uint_t u8g2_DrawUTF8Lines(u8g2_t *u8g2, u8g2_uint_t x, u8g2_uint_t y, u8g2_uint_t w, u8g2_uint
 129:..\..\u8g2\csrc/u8g2_selection_list.c **** {
 130:..\..\u8g2\csrc/u8g2_selection_list.c ****   uint8_t i;
 131:..\..\u8g2\csrc/u8g2_selection_list.c ****   uint8_t cnt;
 132:..\..\u8g2\csrc/u8g2_selection_list.c ****   u8g2_uint_t yy = 0;
 133:..\..\u8g2\csrc/u8g2_selection_list.c ****   cnt = u8x8_GetStringLineCnt(s);
 134:..\..\u8g2\csrc/u8g2_selection_list.c ****   //printf("str=%s\n", s);
 135:..\..\u8g2\csrc/u8g2_selection_list.c ****   //printf("cnt=%d, y=%d, line_height=%d\n", cnt, y, line_height);
 136:..\..\u8g2\csrc/u8g2_selection_list.c ****   for( i = 0; i < cnt; i++ )
 137:..\..\u8g2\csrc/u8g2_selection_list.c ****   {
 138:..\..\u8g2\csrc/u8g2_selection_list.c ****     //printf("  i=%d, y=%d, line_height=%d\n", i, y, line_height);
 139:..\..\u8g2\csrc/u8g2_selection_list.c ****     u8g2_DrawUTF8Line(u8g2, x, y, w, u8x8_GetStringLineStart(i, s), 0, 0);
 140:..\..\u8g2\csrc/u8g2_selection_list.c ****     y+=line_height;
 141:..\..\u8g2\csrc/u8g2_selection_list.c ****     yy+=line_height;
 142:..\..\u8g2\csrc/u8g2_selection_list.c ****   }
 143:..\..\u8g2\csrc/u8g2_selection_list.c ****   return yy;
 144:..\..\u8g2\csrc/u8g2_selection_list.c **** }
 145:..\..\u8g2\csrc/u8g2_selection_list.c **** 
 146:..\..\u8g2\csrc/u8g2_selection_list.c **** /*
 147:..\..\u8g2\csrc/u8g2_selection_list.c ****   selection list with string line
 148:..\..\u8g2\csrc/u8g2_selection_list.c ****   returns line height
 149:..\..\u8g2\csrc/u8g2_selection_list.c **** */
 150:..\..\u8g2\csrc/u8g2_selection_list.c **** static u8g2_uint_t u8g2_draw_selection_list_line(u8g2_t *u8g2, u8sl_t *u8sl, u8g2_uint_t y, uint8_t
 151:..\..\u8g2\csrc/u8g2_selection_list.c **** static u8g2_uint_t u8g2_draw_selection_list_line(u8g2_t *u8g2, u8sl_t *u8sl, u8g2_uint_t y, uint8_t
 235              		.loc 1 151 0
 236              		.cfi_startproc
 237              		@ args = 4, pretend = 0, frame = 0
ARM GAS  C:\Users\Greg\AppData\Local\Temp\cckBPInZ.s 			page 8


 238              		@ frame_needed = 0, uses_anonymous_args = 0
 239              	.LVL32:
 240 0000 F0B5     		push	{r4, r5, r6, r7, lr}
 241              		.cfi_def_cfa_offset 20
 242              		.cfi_offset 4, -20
 243              		.cfi_offset 5, -16
 244              		.cfi_offset 6, -12
 245              		.cfi_offset 7, -8
 246              		.cfi_offset 14, -4
 247 0002 1700     		movs	r7, r2
 152:..\..\u8g2\csrc/u8g2_selection_list.c **** {
 153:..\..\u8g2\csrc/u8g2_selection_list.c ****   u8g2_uint_t yy;
 154:..\..\u8g2\csrc/u8g2_selection_list.c ****   uint8_t border_size = 0;
 155:..\..\u8g2\csrc/u8g2_selection_list.c ****   uint8_t is_invert = 0;
 156:..\..\u8g2\csrc/u8g2_selection_list.c **** 	
 157:..\..\u8g2\csrc/u8g2_selection_list.c ****   u8g2_uint_t line_height = u8g2_GetAscent(u8g2) - u8g2_GetDescent(u8g2)+MY_BORDER_SIZE;
 248              		.loc 1 157 0
 249 0004 0200     		movs	r2, r0
 250              	.LVL33:
 154:..\..\u8g2\csrc/u8g2_selection_list.c ****   uint8_t is_invert = 0;
 251              		.loc 1 154 0
 252 0006 5C1A     		subs	r4, r3, r1
 253 0008 6142     		rsbs	r1, r4, #0
 254 000a 4C41     		adcs	r4, r4, r1
 255              		.loc 1 157 0
 256 000c 7932     		adds	r2, r2, #121
 257 000e 1578     		ldrb	r5, [r2]
 258 0010 0132     		adds	r2, r2, #1
 259 0012 1278     		ldrb	r2, [r2]
 151:..\..\u8g2\csrc/u8g2_selection_list.c **** {
 260              		.loc 1 151 0
 261 0014 85B0     		sub	sp, sp, #20
 262              		.cfi_def_cfa_offset 40
 263              		.loc 1 157 0
 264 0016 0135     		adds	r5, r5, #1
 151:..\..\u8g2\csrc/u8g2_selection_list.c **** {
 265              		.loc 1 151 0
 266 0018 0600     		movs	r6, r0
 267              		.loc 1 157 0
 268 001a AD1A     		subs	r5, r5, r2
 158:..\..\u8g2\csrc/u8g2_selection_list.c **** 
 159:..\..\u8g2\csrc/u8g2_selection_list.c ****   /* calculate offset from display upper border */
 160:..\..\u8g2\csrc/u8g2_selection_list.c ****   yy = idx;
 161:..\..\u8g2\csrc/u8g2_selection_list.c ****   yy -= u8sl->first_pos;
 162:..\..\u8g2\csrc/u8g2_selection_list.c ****   yy *= line_height;
 163:..\..\u8g2\csrc/u8g2_selection_list.c ****   yy += y;
 164:..\..\u8g2\csrc/u8g2_selection_list.c **** 
 165:..\..\u8g2\csrc/u8g2_selection_list.c ****   /* check whether this is the current cursor line */
 166:..\..\u8g2\csrc/u8g2_selection_list.c ****   if ( idx == u8sl->current_pos )
 167:..\..\u8g2\csrc/u8g2_selection_list.c ****   {
 168:..\..\u8g2\csrc/u8g2_selection_list.c ****     border_size = MY_BORDER_SIZE;
 169:..\..\u8g2\csrc/u8g2_selection_list.c ****     is_invert = 1;
 170:..\..\u8g2\csrc/u8g2_selection_list.c ****   }
 171:..\..\u8g2\csrc/u8g2_selection_list.c **** 
 172:..\..\u8g2\csrc/u8g2_selection_list.c ****   /* get the line from the array */
 173:..\..\u8g2\csrc/u8g2_selection_list.c ****   s = u8x8_GetStringLineStart(idx, s);
 269              		.loc 1 173 0
ARM GAS  C:\Users\Greg\AppData\Local\Temp\cckBPInZ.s 			page 9


 270 001c 0A99     		ldr	r1, [sp, #40]
 271 001e 1800     		movs	r0, r3
 272              	.LVL34:
 157:..\..\u8g2\csrc/u8g2_selection_list.c **** 
 273              		.loc 1 157 0
 274 0020 EDB2     		uxtb	r5, r5
 275              	.LVL35:
 154:..\..\u8g2\csrc/u8g2_selection_list.c ****   uint8_t is_invert = 0;
 276              		.loc 1 154 0
 277 0022 E4B2     		uxtb	r4, r4
 278              	.LVL36:
 279              		.loc 1 173 0
 280 0024 FFF7FEFF 		bl	u8x8_GetStringLineStart
 281              	.LVL37:
 174:..\..\u8g2\csrc/u8g2_selection_list.c **** 
 175:..\..\u8g2\csrc/u8g2_selection_list.c ****   /* draw the line */
 176:..\..\u8g2\csrc/u8g2_selection_list.c ****   if ( s == NULL )
 282              		.loc 1 176 0
 283 0028 0028     		cmp	r0, #0
 284 002a 00D1     		bne	.L16
 177:..\..\u8g2\csrc/u8g2_selection_list.c ****     s = "";
 285              		.loc 1 177 0
 286 002c 0848     		ldr	r0, .L17
 287              	.LVL38:
 288              	.L16:
 178:..\..\u8g2\csrc/u8g2_selection_list.c ****   u8g2_DrawUTF8Line(u8g2, MY_BORDER_SIZE, y, u8g2_GetDisplayWidth(u8g2)-2*MY_BORDER_SIZE, s, border
 289              		.loc 1 178 0
 290 002e 3300     		movs	r3, r6
 291 0030 3F33     		adds	r3, r3, #63
 292 0032 1B78     		ldrb	r3, [r3]
 293 0034 3A00     		movs	r2, r7
 294 0036 023B     		subs	r3, r3, #2
 295 0038 0090     		str	r0, [sp]
 296 003a DBB2     		uxtb	r3, r3
 297 003c 3000     		movs	r0, r6
 298              	.LVL39:
 299 003e 0294     		str	r4, [sp, #8]
 300 0040 0194     		str	r4, [sp, #4]
 301 0042 0121     		movs	r1, #1
 302 0044 FFF7FEFF 		bl	u8g2_DrawUTF8Line
 303              	.LVL40:
 179:..\..\u8g2\csrc/u8g2_selection_list.c ****   return line_height;
 180:..\..\u8g2\csrc/u8g2_selection_list.c **** }
 304              		.loc 1 180 0
 305 0048 2800     		movs	r0, r5
 306 004a 05B0     		add	sp, sp, #20
 307              		@ sp needed
 308              	.LVL41:
 309              	.LVL42:
 310              	.LVL43:
 311 004c F0BD     		pop	{r4, r5, r6, r7, pc}
 312              	.L18:
 313 004e C046     		.align	2
 314              	.L17:
 315 0050 00000000 		.word	.LC0
 316              		.cfi_endproc
 317              	.LFE5:
ARM GAS  C:\Users\Greg\AppData\Local\Temp\cckBPInZ.s 			page 10


 318              		.size	u8g2_draw_selection_list_line.isra.0, .-u8g2_draw_selection_list_line.isra.0
 319              		.section	.text.u8g2_DrawUTF8Lines,"ax",%progbits
 320              		.align	1
 321              		.global	u8g2_DrawUTF8Lines
 322              		.code	16
 323              		.thumb_func
 324              		.type	u8g2_DrawUTF8Lines, %function
 325              	u8g2_DrawUTF8Lines:
 326              	.LFB1:
 129:..\..\u8g2\csrc/u8g2_selection_list.c ****   uint8_t i;
 327              		.loc 1 129 0
 328              		.cfi_startproc
 329              		@ args = 8, pretend = 0, frame = 16
 330              		@ frame_needed = 0, uses_anonymous_args = 0
 331              	.LVL44:
 332 0000 F0B5     		push	{r4, r5, r6, r7, lr}
 333              		.cfi_def_cfa_offset 20
 334              		.cfi_offset 4, -20
 335              		.cfi_offset 5, -16
 336              		.cfi_offset 6, -12
 337              		.cfi_offset 7, -8
 338              		.cfi_offset 14, -4
 339 0002 89B0     		sub	sp, sp, #36
 340              		.cfi_def_cfa_offset 56
 129:..\..\u8g2\csrc/u8g2_selection_list.c ****   uint8_t i;
 341              		.loc 1 129 0
 342 0004 0590     		str	r0, [sp, #20]
 343 0006 1F00     		movs	r7, r3
 133:..\..\u8g2\csrc/u8g2_selection_list.c ****   //printf("str=%s\n", s);
 344              		.loc 1 133 0
 345 0008 0F98     		ldr	r0, [sp, #60]
 346              	.LVL45:
 129:..\..\u8g2\csrc/u8g2_selection_list.c ****   uint8_t i;
 347              		.loc 1 129 0
 348 000a 0EAB     		add	r3, sp, #56
 349              	.LVL46:
 350 000c 0691     		str	r1, [sp, #24]
 351 000e 1500     		movs	r5, r2
 352 0010 1E78     		ldrb	r6, [r3]
 133:..\..\u8g2\csrc/u8g2_selection_list.c ****   //printf("str=%s\n", s);
 353              		.loc 1 133 0
 354 0012 FFF7FEFF 		bl	u8x8_GetStringLineCnt
 355              	.LVL47:
 136:..\..\u8g2\csrc/u8g2_selection_list.c ****   {
 356              		.loc 1 136 0
 357 0016 0024     		movs	r4, #0
 133:..\..\u8g2\csrc/u8g2_selection_list.c ****   //printf("str=%s\n", s);
 358              		.loc 1 133 0
 359 0018 0790     		str	r0, [sp, #28]
 360              	.LVL48:
 361              	.L20:
 136:..\..\u8g2\csrc/u8g2_selection_list.c ****   {
 362              		.loc 1 136 0 discriminator 1
 363 001a 079B     		ldr	r3, [sp, #28]
 364 001c 9C42     		cmp	r4, r3
 365 001e 12D0     		beq	.L22
 139:..\..\u8g2\csrc/u8g2_selection_list.c ****     y+=line_height;
ARM GAS  C:\Users\Greg\AppData\Local\Temp\cckBPInZ.s 			page 11


 366              		.loc 1 139 0 discriminator 3
 367 0020 0F99     		ldr	r1, [sp, #60]
 368 0022 2000     		movs	r0, r4
 369 0024 FFF7FEFF 		bl	u8x8_GetStringLineStart
 370              	.LVL49:
 371 0028 0023     		movs	r3, #0
 372 002a 0090     		str	r0, [sp]
 373 002c 0293     		str	r3, [sp, #8]
 374 002e 0193     		str	r3, [sp, #4]
 375 0030 2A00     		movs	r2, r5
 376 0032 3B00     		movs	r3, r7
 377 0034 0699     		ldr	r1, [sp, #24]
 378 0036 0598     		ldr	r0, [sp, #20]
 140:..\..\u8g2\csrc/u8g2_selection_list.c ****     yy+=line_height;
 379              		.loc 1 140 0 discriminator 3
 380 0038 AD19     		adds	r5, r5, r6
 381              	.LVL50:
 136:..\..\u8g2\csrc/u8g2_selection_list.c ****   {
 382              		.loc 1 136 0 discriminator 3
 383 003a 0134     		adds	r4, r4, #1
 384              	.LVL51:
 139:..\..\u8g2\csrc/u8g2_selection_list.c ****     y+=line_height;
 385              		.loc 1 139 0 discriminator 3
 386 003c FFF7FEFF 		bl	u8g2_DrawUTF8Line
 387              	.LVL52:
 140:..\..\u8g2\csrc/u8g2_selection_list.c ****     yy+=line_height;
 388              		.loc 1 140 0 discriminator 3
 389 0040 EDB2     		uxtb	r5, r5
 390              	.LVL53:
 136:..\..\u8g2\csrc/u8g2_selection_list.c ****   {
 391              		.loc 1 136 0 discriminator 3
 392 0042 E4B2     		uxtb	r4, r4
 393              	.LVL54:
 394 0044 E9E7     		b	.L20
 395              	.L22:
 143:..\..\u8g2\csrc/u8g2_selection_list.c **** }
 396              		.loc 1 143 0
 397 0046 7443     		muls	r4, r6
 398              	.LVL55:
 399 0048 E0B2     		uxtb	r0, r4
 144:..\..\u8g2\csrc/u8g2_selection_list.c **** 
 400              		.loc 1 144 0
 401 004a 09B0     		add	sp, sp, #36
 402              		@ sp needed
 403              	.LVL56:
 404 004c F0BD     		pop	{r4, r5, r6, r7, pc}
 405              		.cfi_endproc
 406              	.LFE1:
 407              		.size	u8g2_DrawUTF8Lines, .-u8g2_DrawUTF8Lines
 408              		.section	.text.u8g2_DrawSelectionList,"ax",%progbits
 409              		.align	1
 410              		.global	u8g2_DrawSelectionList
 411              		.code	16
 412              		.thumb_func
 413              		.type	u8g2_DrawSelectionList, %function
 414              	u8g2_DrawSelectionList:
 415              	.LFB3:
ARM GAS  C:\Users\Greg\AppData\Local\Temp\cckBPInZ.s 			page 12


 181:..\..\u8g2\csrc/u8g2_selection_list.c **** 
 182:..\..\u8g2\csrc/u8g2_selection_list.c **** void u8g2_DrawSelectionList(u8g2_t *u8g2, u8sl_t *u8sl, u8g2_uint_t y, const char *s)
 183:..\..\u8g2\csrc/u8g2_selection_list.c **** {
 416              		.loc 1 183 0
 417              		.cfi_startproc
 418              		@ args = 0, pretend = 0, frame = 8
 419              		@ frame_needed = 0, uses_anonymous_args = 0
 420              	.LVL57:
 421 0000 F0B5     		push	{r4, r5, r6, r7, lr}
 422              		.cfi_def_cfa_offset 20
 423              		.cfi_offset 4, -20
 424              		.cfi_offset 5, -16
 425              		.cfi_offset 6, -12
 426              		.cfi_offset 7, -8
 427              		.cfi_offset 14, -4
 428 0002 0700     		movs	r7, r0
 429 0004 0D00     		movs	r5, r1
 430 0006 1600     		movs	r6, r2
 184:..\..\u8g2\csrc/u8g2_selection_list.c ****   uint8_t i;
 185:..\..\u8g2\csrc/u8g2_selection_list.c ****   for( i = 0; i < u8sl->visible; i++ )
 431              		.loc 1 185 0
 432 0008 0024     		movs	r4, #0
 183:..\..\u8g2\csrc/u8g2_selection_list.c ****   uint8_t i;
 433              		.loc 1 183 0
 434 000a 85B0     		sub	sp, sp, #20
 435              		.cfi_def_cfa_offset 40
 183:..\..\u8g2\csrc/u8g2_selection_list.c ****   uint8_t i;
 436              		.loc 1 183 0
 437 000c 0393     		str	r3, [sp, #12]
 438              	.LVL58:
 439              	.L24:
 440              		.loc 1 185 0 discriminator 1
 441 000e 2B78     		ldrb	r3, [r5]
 442 0010 A342     		cmp	r3, r4
 443 0012 0ED9     		bls	.L26
 186:..\..\u8g2\csrc/u8g2_selection_list.c ****   {
 187:..\..\u8g2\csrc/u8g2_selection_list.c ****     y += u8g2_draw_selection_list_line(u8g2, u8sl, y, i+u8sl->first_pos, s);
 444              		.loc 1 187 0 discriminator 3
 445 0014 AB78     		ldrb	r3, [r5, #2]
 446 0016 039A     		ldr	r2, [sp, #12]
 447 0018 E318     		adds	r3, r4, r3
 448 001a 0092     		str	r2, [sp]
 449 001c DBB2     		uxtb	r3, r3
 450 001e 3200     		movs	r2, r6
 451 0020 E978     		ldrb	r1, [r5, #3]
 452 0022 3800     		movs	r0, r7
 453 0024 FFF7FEFF 		bl	u8g2_draw_selection_list_line.isra.0
 454              	.LVL59:
 185:..\..\u8g2\csrc/u8g2_selection_list.c ****   {
 455              		.loc 1 185 0 discriminator 3
 456 0028 0134     		adds	r4, r4, #1
 457              	.LVL60:
 458              		.loc 1 187 0 discriminator 3
 459 002a 3618     		adds	r6, r6, r0
 460              	.LVL61:
 461 002c F6B2     		uxtb	r6, r6
 462              	.LVL62:
ARM GAS  C:\Users\Greg\AppData\Local\Temp\cckBPInZ.s 			page 13


 185:..\..\u8g2\csrc/u8g2_selection_list.c ****   {
 463              		.loc 1 185 0 discriminator 3
 464 002e E4B2     		uxtb	r4, r4
 465              	.LVL63:
 466 0030 EDE7     		b	.L24
 467              	.L26:
 188:..\..\u8g2\csrc/u8g2_selection_list.c ****   }
 189:..\..\u8g2\csrc/u8g2_selection_list.c **** }
 468              		.loc 1 189 0
 469 0032 05B0     		add	sp, sp, #20
 470              		@ sp needed
 471              	.LVL64:
 472              	.LVL65:
 473              	.LVL66:
 474              	.LVL67:
 475 0034 F0BD     		pop	{r4, r5, r6, r7, pc}
 476              		.cfi_endproc
 477              	.LFE3:
 478              		.size	u8g2_DrawSelectionList, .-u8g2_DrawSelectionList
 479              		.global	__aeabi_idiv
 480              		.global	__aeabi_uidiv
 481              		.section	.text.u8g2_UserInterfaceSelectionList,"ax",%progbits
 482              		.align	1
 483              		.global	u8g2_UserInterfaceSelectionList
 484              		.code	16
 485              		.thumb_func
 486              		.type	u8g2_UserInterfaceSelectionList, %function
 487              	u8g2_UserInterfaceSelectionList:
 488              	.LFB4:
 190:..\..\u8g2\csrc/u8g2_selection_list.c **** 
 191:..\..\u8g2\csrc/u8g2_selection_list.c **** 
 192:..\..\u8g2\csrc/u8g2_selection_list.c **** /*
 193:..\..\u8g2\csrc/u8g2_selection_list.c ****   title: 		NULL for no title, valid str for title line. Can contain mutliple lines, separated by '\
 194:..\..\u8g2\csrc/u8g2_selection_list.c ****   start_pos: 	default position for the cursor, first line is 1.
 195:..\..\u8g2\csrc/u8g2_selection_list.c ****   sl:			string list (list of strings separated by \n)
 196:..\..\u8g2\csrc/u8g2_selection_list.c ****   returns 0 if user has pressed the home key
 197:..\..\u8g2\csrc/u8g2_selection_list.c ****   returns the selected line if user has pressed the select key
 198:..\..\u8g2\csrc/u8g2_selection_list.c ****   side effects:
 199:..\..\u8g2\csrc/u8g2_selection_list.c ****     u8g2_SetFontDirection(u8g2, 0);
 200:..\..\u8g2\csrc/u8g2_selection_list.c ****     u8g2_SetFontPosBaseline(u8g2);
 201:..\..\u8g2\csrc/u8g2_selection_list.c **** 	
 202:..\..\u8g2\csrc/u8g2_selection_list.c **** */
 203:..\..\u8g2\csrc/u8g2_selection_list.c **** uint8_t u8g2_UserInterfaceSelectionList(u8g2_t *u8g2, const char *title, uint8_t start_pos, const c
 204:..\..\u8g2\csrc/u8g2_selection_list.c **** {
 489              		.loc 1 204 0
 490              		.cfi_startproc
 491              		@ args = 0, pretend = 0, frame = 24
 492              		@ frame_needed = 0, uses_anonymous_args = 0
 493              	.LVL68:
 494 0000 F0B5     		push	{r4, r5, r6, r7, lr}
 495              		.cfi_def_cfa_offset 20
 496              		.cfi_offset 4, -20
 497              		.cfi_offset 5, -16
 498              		.cfi_offset 6, -12
 499              		.cfi_offset 7, -8
 500              		.cfi_offset 14, -4
 501 0002 89B0     		sub	sp, sp, #36
ARM GAS  C:\Users\Greg\AppData\Local\Temp\cckBPInZ.s 			page 14


 502              		.cfi_def_cfa_offset 56
 503              		.loc 1 204 0
 504 0004 0593     		str	r3, [sp, #20]
 205:..\..\u8g2\csrc/u8g2_selection_list.c ****   u8sl_t u8sl;
 206:..\..\u8g2\csrc/u8g2_selection_list.c ****   u8g2_uint_t yy;
 207:..\..\u8g2\csrc/u8g2_selection_list.c **** 
 208:..\..\u8g2\csrc/u8g2_selection_list.c ****   uint8_t event;
 209:..\..\u8g2\csrc/u8g2_selection_list.c **** 
 210:..\..\u8g2\csrc/u8g2_selection_list.c ****   u8g2_uint_t line_height = u8g2_GetAscent(u8g2) - u8g2_GetDescent(u8g2)+MY_BORDER_SIZE;
 505              		.loc 1 210 0
 506 0006 0300     		movs	r3, r0
 507              	.LVL69:
 204:..\..\u8g2\csrc/u8g2_selection_list.c ****   u8sl_t u8sl;
 508              		.loc 1 204 0
 509 0008 1500     		movs	r5, r2
 510              		.loc 1 210 0
 511 000a 0200     		movs	r2, r0
 512              	.LVL70:
 204:..\..\u8g2\csrc/u8g2_selection_list.c ****   u8sl_t u8sl;
 513              		.loc 1 204 0
 514 000c 0491     		str	r1, [sp, #16]
 515              		.loc 1 210 0
 516 000e 7933     		adds	r3, r3, #121
 517 0010 1B78     		ldrb	r3, [r3]
 518 0012 7A32     		adds	r2, r2, #122
 519 0014 1278     		ldrb	r2, [r2]
 520 0016 0133     		adds	r3, r3, #1
 521 0018 9B1A     		subs	r3, r3, r2
 204:..\..\u8g2\csrc/u8g2_selection_list.c ****   u8sl_t u8sl;
 522              		.loc 1 204 0
 523 001a 0400     		movs	r4, r0
 211:..\..\u8g2\csrc/u8g2_selection_list.c **** 
 212:..\..\u8g2\csrc/u8g2_selection_list.c ****   uint8_t title_lines = u8x8_GetStringLineCnt(title);
 524              		.loc 1 212 0
 525 001c 0800     		movs	r0, r1
 526              	.LVL71:
 210:..\..\u8g2\csrc/u8g2_selection_list.c **** 
 527              		.loc 1 210 0
 528 001e DFB2     		uxtb	r7, r3
 529              	.LVL72:
 530              		.loc 1 212 0
 531 0020 FFF7FEFF 		bl	u8x8_GetStringLineCnt
 532              	.LVL73:
 533 0024 0390     		str	r0, [sp, #12]
 534              	.LVL74:
 213:..\..\u8g2\csrc/u8g2_selection_list.c ****   uint8_t display_lines;
 214:..\..\u8g2\csrc/u8g2_selection_list.c **** 
 215:..\..\u8g2\csrc/u8g2_selection_list.c ****   
 216:..\..\u8g2\csrc/u8g2_selection_list.c ****   if ( start_pos > 0 )	/* issue 112 */
 535              		.loc 1 216 0
 536 0026 002D     		cmp	r5, #0
 537 0028 01D0     		beq	.L28
 217:..\..\u8g2\csrc/u8g2_selection_list.c ****     start_pos--;		/* issue 112 */
 538              		.loc 1 217 0
 539 002a 013D     		subs	r5, r5, #1
 540 002c EDB2     		uxtb	r5, r5
 541              	.LVL75:
ARM GAS  C:\Users\Greg\AppData\Local\Temp\cckBPInZ.s 			page 15


 542              	.L28:
 543 002e 2300     		movs	r3, r4
 218:..\..\u8g2\csrc/u8g2_selection_list.c **** 
 219:..\..\u8g2\csrc/u8g2_selection_list.c **** 
 220:..\..\u8g2\csrc/u8g2_selection_list.c ****   if ( title_lines > 0 )
 544              		.loc 1 220 0
 545 0030 039A     		ldr	r2, [sp, #12]
 546 0032 4033     		adds	r3, r3, #64
 547 0034 06AE     		add	r6, sp, #24
 221:..\..\u8g2\csrc/u8g2_selection_list.c ****   {
 222:..\..\u8g2\csrc/u8g2_selection_list.c **** 	display_lines = (u8g2_GetDisplayHeight(u8g2)-3) / line_height;
 223:..\..\u8g2\csrc/u8g2_selection_list.c **** 	u8sl.visible = display_lines;
 224:..\..\u8g2\csrc/u8g2_selection_list.c **** 	u8sl.visible -= title_lines;
 548              		.loc 1 224 0
 549 0036 1878     		ldrb	r0, [r3]
 220:..\..\u8g2\csrc/u8g2_selection_list.c ****   {
 550              		.loc 1 220 0
 551 0038 002A     		cmp	r2, #0
 552 003a 06D0     		beq	.L29
 553              	.LVL76:
 554              		.loc 1 224 0
 555 003c 0338     		subs	r0, r0, #3
 556 003e 3900     		movs	r1, r7
 557 0040 FFF7FEFF 		bl	__aeabi_idiv
 558              	.LVL77:
 559 0044 039B     		ldr	r3, [sp, #12]
 560 0046 C01A     		subs	r0, r0, r3
 561 0048 02E0     		b	.L53
 562              	.L29:
 563              	.LVL78:
 225:..\..\u8g2\csrc/u8g2_selection_list.c ****   }
 226:..\..\u8g2\csrc/u8g2_selection_list.c ****   else
 227:..\..\u8g2\csrc/u8g2_selection_list.c ****   {
 228:..\..\u8g2\csrc/u8g2_selection_list.c **** 	display_lines = u8g2_GetDisplayHeight(u8g2) / line_height;
 229:..\..\u8g2\csrc/u8g2_selection_list.c **** 	u8sl.visible = display_lines;
 564              		.loc 1 229 0
 565 004a 3900     		movs	r1, r7
 566 004c FFF7FEFF 		bl	__aeabi_uidiv
 567              	.LVL79:
 568              	.L53:
 569 0050 3070     		strb	r0, [r6]
 230:..\..\u8g2\csrc/u8g2_selection_list.c ****   }
 231:..\..\u8g2\csrc/u8g2_selection_list.c **** 
 232:..\..\u8g2\csrc/u8g2_selection_list.c ****   u8sl.total = u8x8_GetStringLineCnt(sl);
 570              		.loc 1 232 0
 571 0052 0598     		ldr	r0, [sp, #20]
 572 0054 FFF7FEFF 		bl	u8x8_GetStringLineCnt
 573              	.LVL80:
 233:..\..\u8g2\csrc/u8g2_selection_list.c ****   u8sl.first_pos = 0;
 574              		.loc 1 233 0
 575 0058 0022     		movs	r2, #0
 232:..\..\u8g2\csrc/u8g2_selection_list.c ****   u8sl.first_pos = 0;
 576              		.loc 1 232 0
 577 005a 06AB     		add	r3, sp, #24
 578 005c 5870     		strb	r0, [r3, #1]
 579              		.loc 1 233 0
 580 005e 9A70     		strb	r2, [r3, #2]
ARM GAS  C:\Users\Greg\AppData\Local\Temp\cckBPInZ.s 			page 16


 234:..\..\u8g2\csrc/u8g2_selection_list.c ****   u8sl.current_pos = start_pos;
 235:..\..\u8g2\csrc/u8g2_selection_list.c **** 
 236:..\..\u8g2\csrc/u8g2_selection_list.c ****   if ( u8sl.current_pos >= u8sl.total )
 581              		.loc 1 236 0
 582 0060 8542     		cmp	r5, r0
 583 0062 01D2     		bcs	.L31
 234:..\..\u8g2\csrc/u8g2_selection_list.c ****   u8sl.current_pos = start_pos;
 584              		.loc 1 234 0
 585 0064 DD70     		strb	r5, [r3, #3]
 586 0066 01E0     		b	.L32
 587              	.L31:
 237:..\..\u8g2\csrc/u8g2_selection_list.c ****     u8sl.current_pos = u8sl.total-1;
 588              		.loc 1 237 0
 589 0068 0138     		subs	r0, r0, #1
 590 006a D870     		strb	r0, [r3, #3]
 591              	.L32:
 238:..\..\u8g2\csrc/u8g2_selection_list.c ****   if ( u8sl.first_pos+u8sl.visible <= u8sl.current_pos )
 592              		.loc 1 238 0
 593 006c 1978     		ldrb	r1, [r3]
 594 006e DA78     		ldrb	r2, [r3, #3]
 595 0070 9142     		cmp	r1, r2
 596 0072 02DC     		bgt	.L33
 239:..\..\u8g2\csrc/u8g2_selection_list.c ****     u8sl.first_pos = u8sl.current_pos-u8sl.visible+1;
 597              		.loc 1 239 0
 598 0074 0132     		adds	r2, r2, #1
 599 0076 521A     		subs	r2, r2, r1
 600 0078 9A70     		strb	r2, [r3, #2]
 601              	.L33:
 240:..\..\u8g2\csrc/u8g2_selection_list.c **** 
 241:..\..\u8g2\csrc/u8g2_selection_list.c ****   u8g2_SetFontPosBaseline(u8g2);
 602              		.loc 1 241 0
 603 007a 2000     		movs	r0, r4
 604 007c FFF7FEFF 		bl	u8g2_SetFontPosBaseline
 605              	.LVL81:
 606              	.L34:
 242:..\..\u8g2\csrc/u8g2_selection_list.c ****   
 243:..\..\u8g2\csrc/u8g2_selection_list.c ****   for(;;)
 244:..\..\u8g2\csrc/u8g2_selection_list.c ****   {
 245:..\..\u8g2\csrc/u8g2_selection_list.c ****       u8g2_FirstPage(u8g2);
 607              		.loc 1 245 0
 608 0080 2000     		movs	r0, r4
 609 0082 FFF7FEFF 		bl	u8g2_FirstPage
 610              	.LVL82:
 611              	.L36:
 246:..\..\u8g2\csrc/u8g2_selection_list.c ****       do
 247:..\..\u8g2\csrc/u8g2_selection_list.c ****       {
 248:..\..\u8g2\csrc/u8g2_selection_list.c ****         yy = u8g2_GetAscent(u8g2);
 612              		.loc 1 248 0
 613 0086 2300     		movs	r3, r4
 614 0088 7933     		adds	r3, r3, #121
 615 008a 1D78     		ldrb	r5, [r3]
 616              	.LVL83:
 249:..\..\u8g2\csrc/u8g2_selection_list.c ****         if ( title_lines > 0 )
 617              		.loc 1 249 0
 618 008c 039B     		ldr	r3, [sp, #12]
 619 008e 002B     		cmp	r3, #0
 620 0090 1BD0     		beq	.L35
ARM GAS  C:\Users\Greg\AppData\Local\Temp\cckBPInZ.s 			page 17


 250:..\..\u8g2\csrc/u8g2_selection_list.c ****         {
 251:..\..\u8g2\csrc/u8g2_selection_list.c ****           yy += u8g2_DrawUTF8Lines(u8g2, 0, yy, u8g2_GetDisplayWidth(u8g2), line_height, title);
 621              		.loc 1 251 0
 622 0092 2600     		movs	r6, r4
 623 0094 049A     		ldr	r2, [sp, #16]
 624 0096 3F36     		adds	r6, r6, #63
 625 0098 3378     		ldrb	r3, [r6]
 626 009a 0021     		movs	r1, #0
 627 009c 0192     		str	r2, [sp, #4]
 628 009e 0097     		str	r7, [sp]
 629 00a0 2A00     		movs	r2, r5
 630 00a2 2000     		movs	r0, r4
 631 00a4 FFF7FEFF 		bl	u8g2_DrawUTF8Lines
 632              	.LVL84:
 252:..\..\u8g2\csrc/u8g2_selection_list.c **** 		
 253:..\..\u8g2\csrc/u8g2_selection_list.c **** 	  u8g2_DrawHLine(u8g2, 0, yy-line_height- u8g2_GetDescent(u8g2) + 1, u8g2_GetDisplayWidth(u8g2));
 633              		.loc 1 253 0
 634 00a8 2200     		movs	r2, r4
 635 00aa 0121     		movs	r1, #1
 636 00ac 7A32     		adds	r2, r2, #122
 637 00ae 1278     		ldrb	r2, [r2]
 251:..\..\u8g2\csrc/u8g2_selection_list.c **** 		
 638              		.loc 1 251 0
 639 00b0 2D18     		adds	r5, r5, r0
 640              	.LVL85:
 641              		.loc 1 253 0
 642 00b2 8A1A     		subs	r2, r1, r2
 251:..\..\u8g2\csrc/u8g2_selection_list.c **** 		
 643              		.loc 1 251 0
 644 00b4 EDB2     		uxtb	r5, r5
 645              	.LVL86:
 646              		.loc 1 253 0
 647 00b6 D21B     		subs	r2, r2, r7
 648 00b8 AA18     		adds	r2, r5, r2
 649 00ba 3378     		ldrb	r3, [r6]
 650 00bc D2B2     		uxtb	r2, r2
 651 00be 0021     		movs	r1, #0
 652 00c0 2000     		movs	r0, r4
 653 00c2 FFF7FEFF 		bl	u8g2_DrawHLine
 654              	.LVL87:
 254:..\..\u8g2\csrc/u8g2_selection_list.c **** 		
 255:..\..\u8g2\csrc/u8g2_selection_list.c **** 	  yy += 3;
 655              		.loc 1 255 0
 656 00c6 0335     		adds	r5, r5, #3
 657              	.LVL88:
 658 00c8 EDB2     		uxtb	r5, r5
 659              	.LVL89:
 660              	.L35:
 256:..\..\u8g2\csrc/u8g2_selection_list.c ****         }
 257:..\..\u8g2\csrc/u8g2_selection_list.c ****         u8g2_DrawSelectionList(u8g2, &u8sl, yy, sl);
 661              		.loc 1 257 0
 662 00ca 06AE     		add	r6, sp, #24
 663 00cc 2A00     		movs	r2, r5
 664 00ce 059B     		ldr	r3, [sp, #20]
 665 00d0 3100     		movs	r1, r6
 666 00d2 2000     		movs	r0, r4
 667 00d4 FFF7FEFF 		bl	u8g2_DrawSelectionList
ARM GAS  C:\Users\Greg\AppData\Local\Temp\cckBPInZ.s 			page 18


 668              	.LVL90:
 258:..\..\u8g2\csrc/u8g2_selection_list.c ****       } while( u8g2_NextPage(u8g2) );
 669              		.loc 1 258 0
 670 00d8 2000     		movs	r0, r4
 671 00da FFF7FEFF 		bl	u8g2_NextPage
 672              	.LVL91:
 673 00de 051E     		subs	r5, r0, #0
 674              	.LVL92:
 675 00e0 D1D1     		bne	.L36
 676              	.L41:
 259:..\..\u8g2\csrc/u8g2_selection_list.c ****       
 260:..\..\u8g2\csrc/u8g2_selection_list.c **** #ifdef U8G2_REF_MAN_PIC
 261:..\..\u8g2\csrc/u8g2_selection_list.c ****       return 0;
 262:..\..\u8g2\csrc/u8g2_selection_list.c **** #endif
 263:..\..\u8g2\csrc/u8g2_selection_list.c **** 
 264:..\..\u8g2\csrc/u8g2_selection_list.c **** 
 265:..\..\u8g2\csrc/u8g2_selection_list.c ****       for(;;)
 266:..\..\u8g2\csrc/u8g2_selection_list.c ****       {
 267:..\..\u8g2\csrc/u8g2_selection_list.c ****         event = u8x8_GetMenuEvent(u8g2_GetU8x8(u8g2));
 677              		.loc 1 267 0
 678 00e2 2000     		movs	r0, r4
 679 00e4 FFF7FEFF 		bl	u8x8_GetMenuEvent
 680              	.LVL93:
 268:..\..\u8g2\csrc/u8g2_selection_list.c ****         if ( event == U8X8_MSG_GPIO_MENU_SELECT )
 681              		.loc 1 268 0
 682 00e8 5028     		cmp	r0, #80
 683 00ea 03D1     		bne	.L37
 269:..\..\u8g2\csrc/u8g2_selection_list.c ****           return u8sl.current_pos+1;		/* +1, issue 112 */
 684              		.loc 1 269 0
 685 00ec F578     		ldrb	r5, [r6, #3]
 686 00ee 0135     		adds	r5, r5, #1
 687 00f0 EDB2     		uxtb	r5, r5
 688 00f2 15E0     		b	.L38
 689              	.L37:
 270:..\..\u8g2\csrc/u8g2_selection_list.c ****         else if ( event == U8X8_MSG_GPIO_MENU_HOME )
 690              		.loc 1 270 0
 691 00f4 5328     		cmp	r0, #83
 692 00f6 13D0     		beq	.L38
 271:..\..\u8g2\csrc/u8g2_selection_list.c ****           return 0;				/* issue 112: return 0 instead of start_pos */
 272:..\..\u8g2\csrc/u8g2_selection_list.c ****         else if ( event == U8X8_MSG_GPIO_MENU_NEXT || event == U8X8_MSG_GPIO_MENU_DOWN )
 693              		.loc 1 272 0
 694 00f8 0300     		movs	r3, r0
 695 00fa 0422     		movs	r2, #4
 696 00fc 9343     		bics	r3, r2
 697 00fe DBB2     		uxtb	r3, r3
 698 0100 512B     		cmp	r3, #81
 699 0102 03D1     		bne	.L39
 273:..\..\u8g2\csrc/u8g2_selection_list.c ****         {
 274:..\..\u8g2\csrc/u8g2_selection_list.c ****           u8sl_Next(&u8sl);
 700              		.loc 1 274 0
 701 0104 3000     		movs	r0, r6
 702              	.LVL94:
 703 0106 FFF7FEFF 		bl	u8sl_Next
 704              	.LVL95:
 275:..\..\u8g2\csrc/u8g2_selection_list.c ****           break;
 705              		.loc 1 275 0
 706 010a B9E7     		b	.L34
ARM GAS  C:\Users\Greg\AppData\Local\Temp\cckBPInZ.s 			page 19


 707              	.LVL96:
 708              	.L39:
 276:..\..\u8g2\csrc/u8g2_selection_list.c ****         }
 277:..\..\u8g2\csrc/u8g2_selection_list.c ****         else if ( event == U8X8_MSG_GPIO_MENU_PREV || event == U8X8_MSG_GPIO_MENU_UP )
 709              		.loc 1 277 0
 710 010c 0223     		movs	r3, #2
 711 010e 5238     		subs	r0, r0, #82
 712              	.LVL97:
 713 0110 9843     		bics	r0, r3
 714 0112 C0B2     		uxtb	r0, r0
 715 0114 0028     		cmp	r0, #0
 716 0116 E4D1     		bne	.L41
 278:..\..\u8g2\csrc/u8g2_selection_list.c ****         {
 279:..\..\u8g2\csrc/u8g2_selection_list.c ****           u8sl_Prev(&u8sl);
 717              		.loc 1 279 0
 718 0118 3000     		movs	r0, r6
 719 011a FFF7FEFF 		bl	u8sl_Prev
 720              	.LVL98:
 280:..\..\u8g2\csrc/u8g2_selection_list.c ****           break;
 721              		.loc 1 280 0
 722 011e AFE7     		b	.L34
 723              	.LVL99:
 724              	.L38:
 281:..\..\u8g2\csrc/u8g2_selection_list.c ****         }
 282:..\..\u8g2\csrc/u8g2_selection_list.c ****       }
 283:..\..\u8g2\csrc/u8g2_selection_list.c ****   }
 284:..\..\u8g2\csrc/u8g2_selection_list.c **** }
 725              		.loc 1 284 0
 726 0120 2800     		movs	r0, r5
 727              	.LVL100:
 728 0122 09B0     		add	sp, sp, #36
 729              		@ sp needed
 730              	.LVL101:
 731              	.LVL102:
 732 0124 F0BD     		pop	{r4, r5, r6, r7, pc}
 733              		.cfi_endproc
 734              	.LFE4:
 735              		.size	u8g2_UserInterfaceSelectionList, .-u8g2_UserInterfaceSelectionList
 736              		.section	.rodata.str1.1,"aMS",%progbits,1
 737              	.LC0:
 738 0000 00       		.ascii	"\000"
 739              		.text
 740              	.Letext0:
 741              		.file 2 "c:\\program files\\cypress\\psoc creator\\4.1\\psoc creator\\import\\gnu\\arm\\5.4.1\\arm
 742              		.file 3 "c:\\program files\\cypress\\psoc creator\\4.1\\psoc creator\\import\\gnu\\arm\\5.4.1\\arm
 743              		.file 4 "..\\..\\u8g2\\csrc\\u8x8.h"
 744              		.file 5 "..\\..\\u8g2\\csrc\\u8g2.h"