ARM GAS  C:\Users\Greg\AppData\Local\Temp\ccGRKbG3.s 			page 1


   1              		.syntax unified
   2              		.cpu cortex-m0
   3              		.fpu softvfp
   4              		.eabi_attribute 20, 1
   5              		.eabi_attribute 21, 1
   6              		.eabi_attribute 23, 3
   7              		.eabi_attribute 24, 1
   8              		.eabi_attribute 25, 1
   9              		.eabi_attribute 26, 1
  10              		.eabi_attribute 30, 4
  11              		.eabi_attribute 34, 0
  12              		.eabi_attribute 18, 4
  13              		.thumb
  14              		.syntax unified
  15              		.file	"u8g2_d_setup.c"
  16              		.text
  17              	.Ltext0:
  18              		.cfi_sections	.debug_frame
  19              		.section	.text.u8g2_Setup_ssd1305_128x32_noname_1,"ax",%progbits
  20              		.align	1
  21              		.global	u8g2_Setup_ssd1305_128x32_noname_1
  22              		.code	16
  23              		.thumb_func
  24              		.type	u8g2_Setup_ssd1305_128x32_noname_1, %function
  25              	u8g2_Setup_ssd1305_128x32_noname_1:
  26              	.LFB0:
  27              		.file 1 "..\\..\\u8g2\\csrc\\u8g2_d_setup.c"
   1:..\..\u8g2\csrc/u8g2_d_setup.c **** /* u8g2_d_setup.c */
   2:..\..\u8g2\csrc/u8g2_d_setup.c **** /* generated code, codebuild, u8g2 project */
   3:..\..\u8g2\csrc/u8g2_d_setup.c **** 
   4:..\..\u8g2\csrc/u8g2_d_setup.c **** #include "u8g2.h"
   5:..\..\u8g2\csrc/u8g2_d_setup.c **** 
   6:..\..\u8g2\csrc/u8g2_d_setup.c **** /* ssd1305 */
   7:..\..\u8g2\csrc/u8g2_d_setup.c **** /* ssd1305 1 */
   8:..\..\u8g2\csrc/u8g2_d_setup.c **** void u8g2_Setup_ssd1305_128x32_noname_1(u8g2_t *u8g2, const u8g2_cb_t *rotation, u8x8_msg_cb byte_c
   9:..\..\u8g2\csrc/u8g2_d_setup.c **** {
  28              		.loc 1 9 0
  29              		.cfi_startproc
  30              		@ args = 0, pretend = 0, frame = 8
  31              		@ frame_needed = 0, uses_anonymous_args = 0
  32              	.LVL0:
  33 0000 7FB5     		push	{r0, r1, r2, r3, r4, r5, r6, lr}
  34              		.cfi_def_cfa_offset 32
  35              		.cfi_offset 0, -32
  36              		.cfi_offset 1, -28
  37              		.cfi_offset 2, -24
  38              		.cfi_offset 3, -20
  39              		.cfi_offset 4, -16
  40              		.cfi_offset 5, -12
  41              		.cfi_offset 6, -8
  42              		.cfi_offset 14, -4
  10:..\..\u8g2\csrc/u8g2_d_setup.c ****   uint8_t tile_buf_height;
  11:..\..\u8g2\csrc/u8g2_d_setup.c ****   uint8_t *buf;
  12:..\..\u8g2\csrc/u8g2_d_setup.c ****   u8g2_SetupDisplay(u8g2, u8x8_d_ssd1305_128x32_noname, u8x8_cad_001, byte_cb, gpio_and_delay_cb);
  13:..\..\u8g2\csrc/u8g2_d_setup.c ****   buf = u8g2_m_ssd1305_16_1(&tile_buf_height);
  43              		.loc 1 13 0
  44 0002 0F25     		movs	r5, #15
ARM GAS  C:\Users\Greg\AppData\Local\Temp\ccGRKbG3.s 			page 2


   9:..\..\u8g2\csrc/u8g2_d_setup.c ****   uint8_t tile_buf_height;
  45              		.loc 1 9 0
  46 0004 0E00     		movs	r6, r1
  47              		.loc 1 13 0
  48 0006 6D44     		add	r5, r5, sp
  12:..\..\u8g2\csrc/u8g2_d_setup.c ****   buf = u8g2_m_ssd1305_16_1(&tile_buf_height);
  49              		.loc 1 12 0
  50 0008 0093     		str	r3, [sp]
  51 000a 0849     		ldr	r1, .L2
  52              	.LVL1:
  53 000c 1300     		movs	r3, r2
  54              	.LVL2:
  55 000e 084A     		ldr	r2, .L2+4
  56              	.LVL3:
   9:..\..\u8g2\csrc/u8g2_d_setup.c ****   uint8_t tile_buf_height;
  57              		.loc 1 9 0
  58 0010 0400     		movs	r4, r0
  12:..\..\u8g2\csrc/u8g2_d_setup.c ****   buf = u8g2_m_ssd1305_16_1(&tile_buf_height);
  59              		.loc 1 12 0
  60 0012 FFF7FEFF 		bl	u8x8_Setup
  61              	.LVL4:
  62              		.loc 1 13 0
  63 0016 2800     		movs	r0, r5
  64 0018 FFF7FEFF 		bl	u8g2_m_ssd1305_16_1
  65              	.LVL5:
  14:..\..\u8g2\csrc/u8g2_d_setup.c ****   u8g2_SetupBuffer(u8g2, buf, tile_buf_height, u8g2_ll_hvline_vertical_top_lsb, rotation);
  66              		.loc 1 14 0
  67 001c 2A78     		ldrb	r2, [r5]
  13:..\..\u8g2\csrc/u8g2_d_setup.c ****   u8g2_SetupBuffer(u8g2, buf, tile_buf_height, u8g2_ll_hvline_vertical_top_lsb, rotation);
  68              		.loc 1 13 0
  69 001e 0100     		movs	r1, r0
  70              	.LVL6:
  71              		.loc 1 14 0
  72 0020 0096     		str	r6, [sp]
  73 0022 044B     		ldr	r3, .L2+8
  74 0024 2000     		movs	r0, r4
  75              	.LVL7:
  76 0026 FFF7FEFF 		bl	u8g2_SetupBuffer
  77              	.LVL8:
  15:..\..\u8g2\csrc/u8g2_d_setup.c **** }
  78              		.loc 1 15 0
  79              		@ sp needed
  80              	.LVL9:
  81              	.LVL10:
  82 002a 7FBD     		pop	{r0, r1, r2, r3, r4, r5, r6, pc}
  83              	.L3:
  84              		.align	2
  85              	.L2:
  86 002c 00000000 		.word	u8x8_d_ssd1305_128x32_noname
  87 0030 00000000 		.word	u8x8_cad_001
  88 0034 00000000 		.word	u8g2_ll_hvline_vertical_top_lsb
  89              		.cfi_endproc
  90              	.LFE0:
  91              		.size	u8g2_Setup_ssd1305_128x32_noname_1, .-u8g2_Setup_ssd1305_128x32_noname_1
  92              		.section	.text.u8g2_Setup_ssd1305_128x32_noname_2,"ax",%progbits
  93              		.align	1
  94              		.global	u8g2_Setup_ssd1305_128x32_noname_2
ARM GAS  C:\Users\Greg\AppData\Local\Temp\ccGRKbG3.s 			page 3


  95              		.code	16
  96              		.thumb_func
  97              		.type	u8g2_Setup_ssd1305_128x32_noname_2, %function
  98              	u8g2_Setup_ssd1305_128x32_noname_2:
  99              	.LFB1:
  16:..\..\u8g2\csrc/u8g2_d_setup.c **** /* ssd1305 2 */
  17:..\..\u8g2\csrc/u8g2_d_setup.c **** void u8g2_Setup_ssd1305_128x32_noname_2(u8g2_t *u8g2, const u8g2_cb_t *rotation, u8x8_msg_cb byte_c
  18:..\..\u8g2\csrc/u8g2_d_setup.c **** {
 100              		.loc 1 18 0
 101              		.cfi_startproc
 102              		@ args = 0, pretend = 0, frame = 8
 103              		@ frame_needed = 0, uses_anonymous_args = 0
 104              	.LVL11:
 105 0000 7FB5     		push	{r0, r1, r2, r3, r4, r5, r6, lr}
 106              		.cfi_def_cfa_offset 32
 107              		.cfi_offset 0, -32
 108              		.cfi_offset 1, -28
 109              		.cfi_offset 2, -24
 110              		.cfi_offset 3, -20
 111              		.cfi_offset 4, -16
 112              		.cfi_offset 5, -12
 113              		.cfi_offset 6, -8
 114              		.cfi_offset 14, -4
  19:..\..\u8g2\csrc/u8g2_d_setup.c ****   uint8_t tile_buf_height;
  20:..\..\u8g2\csrc/u8g2_d_setup.c ****   uint8_t *buf;
  21:..\..\u8g2\csrc/u8g2_d_setup.c ****   u8g2_SetupDisplay(u8g2, u8x8_d_ssd1305_128x32_noname, u8x8_cad_001, byte_cb, gpio_and_delay_cb);
  22:..\..\u8g2\csrc/u8g2_d_setup.c ****   buf = u8g2_m_ssd1305_16_2(&tile_buf_height);
 115              		.loc 1 22 0
 116 0002 0F25     		movs	r5, #15
  18:..\..\u8g2\csrc/u8g2_d_setup.c ****   uint8_t tile_buf_height;
 117              		.loc 1 18 0
 118 0004 0E00     		movs	r6, r1
 119              		.loc 1 22 0
 120 0006 6D44     		add	r5, r5, sp
  21:..\..\u8g2\csrc/u8g2_d_setup.c ****   buf = u8g2_m_ssd1305_16_2(&tile_buf_height);
 121              		.loc 1 21 0
 122 0008 0093     		str	r3, [sp]
 123 000a 0849     		ldr	r1, .L5
 124              	.LVL12:
 125 000c 1300     		movs	r3, r2
 126              	.LVL13:
 127 000e 084A     		ldr	r2, .L5+4
 128              	.LVL14:
  18:..\..\u8g2\csrc/u8g2_d_setup.c ****   uint8_t tile_buf_height;
 129              		.loc 1 18 0
 130 0010 0400     		movs	r4, r0
  21:..\..\u8g2\csrc/u8g2_d_setup.c ****   buf = u8g2_m_ssd1305_16_2(&tile_buf_height);
 131              		.loc 1 21 0
 132 0012 FFF7FEFF 		bl	u8x8_Setup
 133              	.LVL15:
 134              		.loc 1 22 0
 135 0016 2800     		movs	r0, r5
 136 0018 FFF7FEFF 		bl	u8g2_m_ssd1305_16_2
 137              	.LVL16:
  23:..\..\u8g2\csrc/u8g2_d_setup.c ****   u8g2_SetupBuffer(u8g2, buf, tile_buf_height, u8g2_ll_hvline_vertical_top_lsb, rotation);
 138              		.loc 1 23 0
 139 001c 2A78     		ldrb	r2, [r5]
ARM GAS  C:\Users\Greg\AppData\Local\Temp\ccGRKbG3.s 			page 4


  22:..\..\u8g2\csrc/u8g2_d_setup.c ****   u8g2_SetupBuffer(u8g2, buf, tile_buf_height, u8g2_ll_hvline_vertical_top_lsb, rotation);
 140              		.loc 1 22 0
 141 001e 0100     		movs	r1, r0
 142              	.LVL17:
 143              		.loc 1 23 0
 144 0020 0096     		str	r6, [sp]
 145 0022 044B     		ldr	r3, .L5+8
 146 0024 2000     		movs	r0, r4
 147              	.LVL18:
 148 0026 FFF7FEFF 		bl	u8g2_SetupBuffer
 149              	.LVL19:
  24:..\..\u8g2\csrc/u8g2_d_setup.c **** }
 150              		.loc 1 24 0
 151              		@ sp needed
 152              	.LVL20:
 153              	.LVL21:
 154 002a 7FBD     		pop	{r0, r1, r2, r3, r4, r5, r6, pc}
 155              	.L6:
 156              		.align	2
 157              	.L5:
 158 002c 00000000 		.word	u8x8_d_ssd1305_128x32_noname
 159 0030 00000000 		.word	u8x8_cad_001
 160 0034 00000000 		.word	u8g2_ll_hvline_vertical_top_lsb
 161              		.cfi_endproc
 162              	.LFE1:
 163              		.size	u8g2_Setup_ssd1305_128x32_noname_2, .-u8g2_Setup_ssd1305_128x32_noname_2
 164              		.section	.text.u8g2_Setup_ssd1305_128x32_noname_f,"ax",%progbits
 165              		.align	1
 166              		.global	u8g2_Setup_ssd1305_128x32_noname_f
 167              		.code	16
 168              		.thumb_func
 169              		.type	u8g2_Setup_ssd1305_128x32_noname_f, %function
 170              	u8g2_Setup_ssd1305_128x32_noname_f:
 171              	.LFB2:
  25:..\..\u8g2\csrc/u8g2_d_setup.c **** /* ssd1305 f */
  26:..\..\u8g2\csrc/u8g2_d_setup.c **** void u8g2_Setup_ssd1305_128x32_noname_f(u8g2_t *u8g2, const u8g2_cb_t *rotation, u8x8_msg_cb byte_c
  27:..\..\u8g2\csrc/u8g2_d_setup.c **** {
 172              		.loc 1 27 0
 173              		.cfi_startproc
 174              		@ args = 0, pretend = 0, frame = 8
 175              		@ frame_needed = 0, uses_anonymous_args = 0
 176              	.LVL22:
 177 0000 7FB5     		push	{r0, r1, r2, r3, r4, r5, r6, lr}
 178              		.cfi_def_cfa_offset 32
 179              		.cfi_offset 0, -32
 180              		.cfi_offset 1, -28
 181              		.cfi_offset 2, -24
 182              		.cfi_offset 3, -20
 183              		.cfi_offset 4, -16
 184              		.cfi_offset 5, -12
 185              		.cfi_offset 6, -8
 186              		.cfi_offset 14, -4
  28:..\..\u8g2\csrc/u8g2_d_setup.c ****   uint8_t tile_buf_height;
  29:..\..\u8g2\csrc/u8g2_d_setup.c ****   uint8_t *buf;
  30:..\..\u8g2\csrc/u8g2_d_setup.c ****   u8g2_SetupDisplay(u8g2, u8x8_d_ssd1305_128x32_noname, u8x8_cad_001, byte_cb, gpio_and_delay_cb);
  31:..\..\u8g2\csrc/u8g2_d_setup.c ****   buf = u8g2_m_ssd1305_16_f(&tile_buf_height);
 187              		.loc 1 31 0
ARM GAS  C:\Users\Greg\AppData\Local\Temp\ccGRKbG3.s 			page 5


 188 0002 0F25     		movs	r5, #15
  27:..\..\u8g2\csrc/u8g2_d_setup.c ****   uint8_t tile_buf_height;
 189              		.loc 1 27 0
 190 0004 0E00     		movs	r6, r1
 191              		.loc 1 31 0
 192 0006 6D44     		add	r5, r5, sp
  30:..\..\u8g2\csrc/u8g2_d_setup.c ****   buf = u8g2_m_ssd1305_16_f(&tile_buf_height);
 193              		.loc 1 30 0
 194 0008 0093     		str	r3, [sp]
 195 000a 0849     		ldr	r1, .L8
 196              	.LVL23:
 197 000c 1300     		movs	r3, r2
 198              	.LVL24:
 199 000e 084A     		ldr	r2, .L8+4
 200              	.LVL25:
  27:..\..\u8g2\csrc/u8g2_d_setup.c ****   uint8_t tile_buf_height;
 201              		.loc 1 27 0
 202 0010 0400     		movs	r4, r0
  30:..\..\u8g2\csrc/u8g2_d_setup.c ****   buf = u8g2_m_ssd1305_16_f(&tile_buf_height);
 203              		.loc 1 30 0
 204 0012 FFF7FEFF 		bl	u8x8_Setup
 205              	.LVL26:
 206              		.loc 1 31 0
 207 0016 2800     		movs	r0, r5
 208 0018 FFF7FEFF 		bl	u8g2_m_ssd1305_16_f
 209              	.LVL27:
  32:..\..\u8g2\csrc/u8g2_d_setup.c ****   u8g2_SetupBuffer(u8g2, buf, tile_buf_height, u8g2_ll_hvline_vertical_top_lsb, rotation);
 210              		.loc 1 32 0
 211 001c 2A78     		ldrb	r2, [r5]
  31:..\..\u8g2\csrc/u8g2_d_setup.c ****   u8g2_SetupBuffer(u8g2, buf, tile_buf_height, u8g2_ll_hvline_vertical_top_lsb, rotation);
 212              		.loc 1 31 0
 213 001e 0100     		movs	r1, r0
 214              	.LVL28:
 215              		.loc 1 32 0
 216 0020 0096     		str	r6, [sp]
 217 0022 044B     		ldr	r3, .L8+8
 218 0024 2000     		movs	r0, r4
 219              	.LVL29:
 220 0026 FFF7FEFF 		bl	u8g2_SetupBuffer
 221              	.LVL30:
  33:..\..\u8g2\csrc/u8g2_d_setup.c **** }
 222              		.loc 1 33 0
 223              		@ sp needed
 224              	.LVL31:
 225              	.LVL32:
 226 002a 7FBD     		pop	{r0, r1, r2, r3, r4, r5, r6, pc}
 227              	.L9:
 228              		.align	2
 229              	.L8:
 230 002c 00000000 		.word	u8x8_d_ssd1305_128x32_noname
 231 0030 00000000 		.word	u8x8_cad_001
 232 0034 00000000 		.word	u8g2_ll_hvline_vertical_top_lsb
 233              		.cfi_endproc
 234              	.LFE2:
 235              		.size	u8g2_Setup_ssd1305_128x32_noname_f, .-u8g2_Setup_ssd1305_128x32_noname_f
 236              		.section	.text.u8g2_Setup_ssd1305_i2c_128x32_noname_1,"ax",%progbits
 237              		.align	1
ARM GAS  C:\Users\Greg\AppData\Local\Temp\ccGRKbG3.s 			page 6


 238              		.global	u8g2_Setup_ssd1305_i2c_128x32_noname_1
 239              		.code	16
 240              		.thumb_func
 241              		.type	u8g2_Setup_ssd1305_i2c_128x32_noname_1, %function
 242              	u8g2_Setup_ssd1305_i2c_128x32_noname_1:
 243              	.LFB3:
  34:..\..\u8g2\csrc/u8g2_d_setup.c **** /* ssd1305 */
  35:..\..\u8g2\csrc/u8g2_d_setup.c **** /* ssd1305 1 */
  36:..\..\u8g2\csrc/u8g2_d_setup.c **** void u8g2_Setup_ssd1305_i2c_128x32_noname_1(u8g2_t *u8g2, const u8g2_cb_t *rotation, u8x8_msg_cb by
  37:..\..\u8g2\csrc/u8g2_d_setup.c **** {
 244              		.loc 1 37 0
 245              		.cfi_startproc
 246              		@ args = 0, pretend = 0, frame = 8
 247              		@ frame_needed = 0, uses_anonymous_args = 0
 248              	.LVL33:
 249 0000 7FB5     		push	{r0, r1, r2, r3, r4, r5, r6, lr}
 250              		.cfi_def_cfa_offset 32
 251              		.cfi_offset 0, -32
 252              		.cfi_offset 1, -28
 253              		.cfi_offset 2, -24
 254              		.cfi_offset 3, -20
 255              		.cfi_offset 4, -16
 256              		.cfi_offset 5, -12
 257              		.cfi_offset 6, -8
 258              		.cfi_offset 14, -4
  38:..\..\u8g2\csrc/u8g2_d_setup.c ****   uint8_t tile_buf_height;
  39:..\..\u8g2\csrc/u8g2_d_setup.c ****   uint8_t *buf;
  40:..\..\u8g2\csrc/u8g2_d_setup.c ****   u8g2_SetupDisplay(u8g2, u8x8_d_ssd1305_128x32_noname, u8x8_cad_ssd13xx_i2c, byte_cb, gpio_and_del
  41:..\..\u8g2\csrc/u8g2_d_setup.c ****   buf = u8g2_m_ssd1305_16_1(&tile_buf_height);
 259              		.loc 1 41 0
 260 0002 0F25     		movs	r5, #15
  37:..\..\u8g2\csrc/u8g2_d_setup.c ****   uint8_t tile_buf_height;
 261              		.loc 1 37 0
 262 0004 0E00     		movs	r6, r1
 263              		.loc 1 41 0
 264 0006 6D44     		add	r5, r5, sp
  40:..\..\u8g2\csrc/u8g2_d_setup.c ****   buf = u8g2_m_ssd1305_16_1(&tile_buf_height);
 265              		.loc 1 40 0
 266 0008 0093     		str	r3, [sp]
 267 000a 0849     		ldr	r1, .L11
 268              	.LVL34:
 269 000c 1300     		movs	r3, r2
 270              	.LVL35:
 271 000e 084A     		ldr	r2, .L11+4
 272              	.LVL36:
  37:..\..\u8g2\csrc/u8g2_d_setup.c ****   uint8_t tile_buf_height;
 273              		.loc 1 37 0
 274 0010 0400     		movs	r4, r0
  40:..\..\u8g2\csrc/u8g2_d_setup.c ****   buf = u8g2_m_ssd1305_16_1(&tile_buf_height);
 275              		.loc 1 40 0
 276 0012 FFF7FEFF 		bl	u8x8_Setup
 277              	.LVL37:
 278              		.loc 1 41 0
 279 0016 2800     		movs	r0, r5
 280 0018 FFF7FEFF 		bl	u8g2_m_ssd1305_16_1
 281              	.LVL38:
  42:..\..\u8g2\csrc/u8g2_d_setup.c ****   u8g2_SetupBuffer(u8g2, buf, tile_buf_height, u8g2_ll_hvline_vertical_top_lsb, rotation);
ARM GAS  C:\Users\Greg\AppData\Local\Temp\ccGRKbG3.s 			page 7


 282              		.loc 1 42 0
 283 001c 2A78     		ldrb	r2, [r5]
  41:..\..\u8g2\csrc/u8g2_d_setup.c ****   u8g2_SetupBuffer(u8g2, buf, tile_buf_height, u8g2_ll_hvline_vertical_top_lsb, rotation);
 284              		.loc 1 41 0
 285 001e 0100     		movs	r1, r0
 286              	.LVL39:
 287              		.loc 1 42 0
 288 0020 0096     		str	r6, [sp]
 289 0022 044B     		ldr	r3, .L11+8
 290 0024 2000     		movs	r0, r4
 291              	.LVL40:
 292 0026 FFF7FEFF 		bl	u8g2_SetupBuffer
 293              	.LVL41:
  43:..\..\u8g2\csrc/u8g2_d_setup.c **** }
 294              		.loc 1 43 0
 295              		@ sp needed
 296              	.LVL42:
 297              	.LVL43:
 298 002a 7FBD     		pop	{r0, r1, r2, r3, r4, r5, r6, pc}
 299              	.L12:
 300              		.align	2
 301              	.L11:
 302 002c 00000000 		.word	u8x8_d_ssd1305_128x32_noname
 303 0030 00000000 		.word	u8x8_cad_ssd13xx_i2c
 304 0034 00000000 		.word	u8g2_ll_hvline_vertical_top_lsb
 305              		.cfi_endproc
 306              	.LFE3:
 307              		.size	u8g2_Setup_ssd1305_i2c_128x32_noname_1, .-u8g2_Setup_ssd1305_i2c_128x32_noname_1
 308              		.section	.text.u8g2_Setup_ssd1305_i2c_128x32_noname_2,"ax",%progbits
 309              		.align	1
 310              		.global	u8g2_Setup_ssd1305_i2c_128x32_noname_2
 311              		.code	16
 312              		.thumb_func
 313              		.type	u8g2_Setup_ssd1305_i2c_128x32_noname_2, %function
 314              	u8g2_Setup_ssd1305_i2c_128x32_noname_2:
 315              	.LFB4:
  44:..\..\u8g2\csrc/u8g2_d_setup.c **** /* ssd1305 2 */
  45:..\..\u8g2\csrc/u8g2_d_setup.c **** void u8g2_Setup_ssd1305_i2c_128x32_noname_2(u8g2_t *u8g2, const u8g2_cb_t *rotation, u8x8_msg_cb by
  46:..\..\u8g2\csrc/u8g2_d_setup.c **** {
 316              		.loc 1 46 0
 317              		.cfi_startproc
 318              		@ args = 0, pretend = 0, frame = 8
 319              		@ frame_needed = 0, uses_anonymous_args = 0
 320              	.LVL44:
 321 0000 7FB5     		push	{r0, r1, r2, r3, r4, r5, r6, lr}
 322              		.cfi_def_cfa_offset 32
 323              		.cfi_offset 0, -32
 324              		.cfi_offset 1, -28
 325              		.cfi_offset 2, -24
 326              		.cfi_offset 3, -20
 327              		.cfi_offset 4, -16
 328              		.cfi_offset 5, -12
 329              		.cfi_offset 6, -8
 330              		.cfi_offset 14, -4
  47:..\..\u8g2\csrc/u8g2_d_setup.c ****   uint8_t tile_buf_height;
  48:..\..\u8g2\csrc/u8g2_d_setup.c ****   uint8_t *buf;
  49:..\..\u8g2\csrc/u8g2_d_setup.c ****   u8g2_SetupDisplay(u8g2, u8x8_d_ssd1305_128x32_noname, u8x8_cad_ssd13xx_i2c, byte_cb, gpio_and_del
ARM GAS  C:\Users\Greg\AppData\Local\Temp\ccGRKbG3.s 			page 8


  50:..\..\u8g2\csrc/u8g2_d_setup.c ****   buf = u8g2_m_ssd1305_16_2(&tile_buf_height);
 331              		.loc 1 50 0
 332 0002 0F25     		movs	r5, #15
  46:..\..\u8g2\csrc/u8g2_d_setup.c ****   uint8_t tile_buf_height;
 333              		.loc 1 46 0
 334 0004 0E00     		movs	r6, r1
 335              		.loc 1 50 0
 336 0006 6D44     		add	r5, r5, sp
  49:..\..\u8g2\csrc/u8g2_d_setup.c ****   buf = u8g2_m_ssd1305_16_2(&tile_buf_height);
 337              		.loc 1 49 0
 338 0008 0093     		str	r3, [sp]
 339 000a 0849     		ldr	r1, .L14
 340              	.LVL45:
 341 000c 1300     		movs	r3, r2
 342              	.LVL46:
 343 000e 084A     		ldr	r2, .L14+4
 344              	.LVL47:
  46:..\..\u8g2\csrc/u8g2_d_setup.c ****   uint8_t tile_buf_height;
 345              		.loc 1 46 0
 346 0010 0400     		movs	r4, r0
  49:..\..\u8g2\csrc/u8g2_d_setup.c ****   buf = u8g2_m_ssd1305_16_2(&tile_buf_height);
 347              		.loc 1 49 0
 348 0012 FFF7FEFF 		bl	u8x8_Setup
 349              	.LVL48:
 350              		.loc 1 50 0
 351 0016 2800     		movs	r0, r5
 352 0018 FFF7FEFF 		bl	u8g2_m_ssd1305_16_2
 353              	.LVL49:
  51:..\..\u8g2\csrc/u8g2_d_setup.c ****   u8g2_SetupBuffer(u8g2, buf, tile_buf_height, u8g2_ll_hvline_vertical_top_lsb, rotation);
 354              		.loc 1 51 0
 355 001c 2A78     		ldrb	r2, [r5]
  50:..\..\u8g2\csrc/u8g2_d_setup.c ****   u8g2_SetupBuffer(u8g2, buf, tile_buf_height, u8g2_ll_hvline_vertical_top_lsb, rotation);
 356              		.loc 1 50 0
 357 001e 0100     		movs	r1, r0
 358              	.LVL50:
 359              		.loc 1 51 0
 360 0020 0096     		str	r6, [sp]
 361 0022 044B     		ldr	r3, .L14+8
 362 0024 2000     		movs	r0, r4
 363              	.LVL51:
 364 0026 FFF7FEFF 		bl	u8g2_SetupBuffer
 365              	.LVL52:
  52:..\..\u8g2\csrc/u8g2_d_setup.c **** }
 366              		.loc 1 52 0
 367              		@ sp needed
 368              	.LVL53:
 369              	.LVL54:
 370 002a 7FBD     		pop	{r0, r1, r2, r3, r4, r5, r6, pc}
 371              	.L15:
 372              		.align	2
 373              	.L14:
 374 002c 00000000 		.word	u8x8_d_ssd1305_128x32_noname
 375 0030 00000000 		.word	u8x8_cad_ssd13xx_i2c
 376 0034 00000000 		.word	u8g2_ll_hvline_vertical_top_lsb
 377              		.cfi_endproc
 378              	.LFE4:
 379              		.size	u8g2_Setup_ssd1305_i2c_128x32_noname_2, .-u8g2_Setup_ssd1305_i2c_128x32_noname_2
ARM GAS  C:\Users\Greg\AppData\Local\Temp\ccGRKbG3.s 			page 9


 380              		.section	.text.u8g2_Setup_ssd1305_i2c_128x32_noname_f,"ax",%progbits
 381              		.align	1
 382              		.global	u8g2_Setup_ssd1305_i2c_128x32_noname_f
 383              		.code	16
 384              		.thumb_func
 385              		.type	u8g2_Setup_ssd1305_i2c_128x32_noname_f, %function
 386              	u8g2_Setup_ssd1305_i2c_128x32_noname_f:
 387              	.LFB5:
  53:..\..\u8g2\csrc/u8g2_d_setup.c **** /* ssd1305 f */
  54:..\..\u8g2\csrc/u8g2_d_setup.c **** void u8g2_Setup_ssd1305_i2c_128x32_noname_f(u8g2_t *u8g2, const u8g2_cb_t *rotation, u8x8_msg_cb by
  55:..\..\u8g2\csrc/u8g2_d_setup.c **** {
 388              		.loc 1 55 0
 389              		.cfi_startproc
 390              		@ args = 0, pretend = 0, frame = 8
 391              		@ frame_needed = 0, uses_anonymous_args = 0
 392              	.LVL55:
 393 0000 7FB5     		push	{r0, r1, r2, r3, r4, r5, r6, lr}
 394              		.cfi_def_cfa_offset 32
 395              		.cfi_offset 0, -32
 396              		.cfi_offset 1, -28
 397              		.cfi_offset 2, -24
 398              		.cfi_offset 3, -20
 399              		.cfi_offset 4, -16
 400              		.cfi_offset 5, -12
 401              		.cfi_offset 6, -8
 402              		.cfi_offset 14, -4
  56:..\..\u8g2\csrc/u8g2_d_setup.c ****   uint8_t tile_buf_height;
  57:..\..\u8g2\csrc/u8g2_d_setup.c ****   uint8_t *buf;
  58:..\..\u8g2\csrc/u8g2_d_setup.c ****   u8g2_SetupDisplay(u8g2, u8x8_d_ssd1305_128x32_noname, u8x8_cad_ssd13xx_i2c, byte_cb, gpio_and_del
  59:..\..\u8g2\csrc/u8g2_d_setup.c ****   buf = u8g2_m_ssd1305_16_f(&tile_buf_height);
 403              		.loc 1 59 0
 404 0002 0F25     		movs	r5, #15
  55:..\..\u8g2\csrc/u8g2_d_setup.c ****   uint8_t tile_buf_height;
 405              		.loc 1 55 0
 406 0004 0E00     		movs	r6, r1
 407              		.loc 1 59 0
 408 0006 6D44     		add	r5, r5, sp
  58:..\..\u8g2\csrc/u8g2_d_setup.c ****   buf = u8g2_m_ssd1305_16_f(&tile_buf_height);
 409              		.loc 1 58 0
 410 0008 0093     		str	r3, [sp]
 411 000a 0849     		ldr	r1, .L17
 412              	.LVL56:
 413 000c 1300     		movs	r3, r2
 414              	.LVL57:
 415 000e 084A     		ldr	r2, .L17+4
 416              	.LVL58:
  55:..\..\u8g2\csrc/u8g2_d_setup.c ****   uint8_t tile_buf_height;
 417              		.loc 1 55 0
 418 0010 0400     		movs	r4, r0
  58:..\..\u8g2\csrc/u8g2_d_setup.c ****   buf = u8g2_m_ssd1305_16_f(&tile_buf_height);
 419              		.loc 1 58 0
 420 0012 FFF7FEFF 		bl	u8x8_Setup
 421              	.LVL59:
 422              		.loc 1 59 0
 423 0016 2800     		movs	r0, r5
 424 0018 FFF7FEFF 		bl	u8g2_m_ssd1305_16_f
 425              	.LVL60:
ARM GAS  C:\Users\Greg\AppData\Local\Temp\ccGRKbG3.s 			page 10


  60:..\..\u8g2\csrc/u8g2_d_setup.c ****   u8g2_SetupBuffer(u8g2, buf, tile_buf_height, u8g2_ll_hvline_vertical_top_lsb, rotation);
 426              		.loc 1 60 0
 427 001c 2A78     		ldrb	r2, [r5]
  59:..\..\u8g2\csrc/u8g2_d_setup.c ****   u8g2_SetupBuffer(u8g2, buf, tile_buf_height, u8g2_ll_hvline_vertical_top_lsb, rotation);
 428              		.loc 1 59 0
 429 001e 0100     		movs	r1, r0
 430              	.LVL61:
 431              		.loc 1 60 0
 432 0020 0096     		str	r6, [sp]
 433 0022 044B     		ldr	r3, .L17+8
 434 0024 2000     		movs	r0, r4
 435              	.LVL62:
 436 0026 FFF7FEFF 		bl	u8g2_SetupBuffer
 437              	.LVL63:
  61:..\..\u8g2\csrc/u8g2_d_setup.c **** }
 438              		.loc 1 61 0
 439              		@ sp needed
 440              	.LVL64:
 441              	.LVL65:
 442 002a 7FBD     		pop	{r0, r1, r2, r3, r4, r5, r6, pc}
 443              	.L18:
 444              		.align	2
 445              	.L17:
 446 002c 00000000 		.word	u8x8_d_ssd1305_128x32_noname
 447 0030 00000000 		.word	u8x8_cad_ssd13xx_i2c
 448 0034 00000000 		.word	u8g2_ll_hvline_vertical_top_lsb
 449              		.cfi_endproc
 450              	.LFE5:
 451              		.size	u8g2_Setup_ssd1305_i2c_128x32_noname_f, .-u8g2_Setup_ssd1305_i2c_128x32_noname_f
 452              		.section	.text.u8g2_Setup_ssd1306_128x64_noname_1,"ax",%progbits
 453              		.align	1
 454              		.global	u8g2_Setup_ssd1306_128x64_noname_1
 455              		.code	16
 456              		.thumb_func
 457              		.type	u8g2_Setup_ssd1306_128x64_noname_1, %function
 458              	u8g2_Setup_ssd1306_128x64_noname_1:
 459              	.LFB6:
  62:..\..\u8g2\csrc/u8g2_d_setup.c **** /* ssd1306 */
  63:..\..\u8g2\csrc/u8g2_d_setup.c **** /* ssd1306 1 */
  64:..\..\u8g2\csrc/u8g2_d_setup.c **** void u8g2_Setup_ssd1306_128x64_noname_1(u8g2_t *u8g2, const u8g2_cb_t *rotation, u8x8_msg_cb byte_c
  65:..\..\u8g2\csrc/u8g2_d_setup.c **** {
 460              		.loc 1 65 0
 461              		.cfi_startproc
 462              		@ args = 0, pretend = 0, frame = 8
 463              		@ frame_needed = 0, uses_anonymous_args = 0
 464              	.LVL66:
 465 0000 7FB5     		push	{r0, r1, r2, r3, r4, r5, r6, lr}
 466              		.cfi_def_cfa_offset 32
 467              		.cfi_offset 0, -32
 468              		.cfi_offset 1, -28
 469              		.cfi_offset 2, -24
 470              		.cfi_offset 3, -20
 471              		.cfi_offset 4, -16
 472              		.cfi_offset 5, -12
 473              		.cfi_offset 6, -8
 474              		.cfi_offset 14, -4
  66:..\..\u8g2\csrc/u8g2_d_setup.c ****   uint8_t tile_buf_height;
ARM GAS  C:\Users\Greg\AppData\Local\Temp\ccGRKbG3.s 			page 11


  67:..\..\u8g2\csrc/u8g2_d_setup.c ****   uint8_t *buf;
  68:..\..\u8g2\csrc/u8g2_d_setup.c ****   u8g2_SetupDisplay(u8g2, u8x8_d_ssd1306_128x64_noname, u8x8_cad_001, byte_cb, gpio_and_delay_cb);
  69:..\..\u8g2\csrc/u8g2_d_setup.c ****   buf = u8g2_m_ssd1306_16_1(&tile_buf_height);
 475              		.loc 1 69 0
 476 0002 0F25     		movs	r5, #15
  65:..\..\u8g2\csrc/u8g2_d_setup.c ****   uint8_t tile_buf_height;
 477              		.loc 1 65 0
 478 0004 0E00     		movs	r6, r1
 479              		.loc 1 69 0
 480 0006 6D44     		add	r5, r5, sp
  68:..\..\u8g2\csrc/u8g2_d_setup.c ****   buf = u8g2_m_ssd1306_16_1(&tile_buf_height);
 481              		.loc 1 68 0
 482 0008 0093     		str	r3, [sp]
 483 000a 0849     		ldr	r1, .L20
 484              	.LVL67:
 485 000c 1300     		movs	r3, r2
 486              	.LVL68:
 487 000e 084A     		ldr	r2, .L20+4
 488              	.LVL69:
  65:..\..\u8g2\csrc/u8g2_d_setup.c ****   uint8_t tile_buf_height;
 489              		.loc 1 65 0
 490 0010 0400     		movs	r4, r0
  68:..\..\u8g2\csrc/u8g2_d_setup.c ****   buf = u8g2_m_ssd1306_16_1(&tile_buf_height);
 491              		.loc 1 68 0
 492 0012 FFF7FEFF 		bl	u8x8_Setup
 493              	.LVL70:
 494              		.loc 1 69 0
 495 0016 2800     		movs	r0, r5
 496 0018 FFF7FEFF 		bl	u8g2_m_ssd1306_16_1
 497              	.LVL71:
  70:..\..\u8g2\csrc/u8g2_d_setup.c ****   u8g2_SetupBuffer(u8g2, buf, tile_buf_height, u8g2_ll_hvline_vertical_top_lsb, rotation);
 498              		.loc 1 70 0
 499 001c 2A78     		ldrb	r2, [r5]
  69:..\..\u8g2\csrc/u8g2_d_setup.c ****   u8g2_SetupBuffer(u8g2, buf, tile_buf_height, u8g2_ll_hvline_vertical_top_lsb, rotation);
 500              		.loc 1 69 0
 501 001e 0100     		movs	r1, r0
 502              	.LVL72:
 503              		.loc 1 70 0
 504 0020 0096     		str	r6, [sp]
 505 0022 044B     		ldr	r3, .L20+8
 506 0024 2000     		movs	r0, r4
 507              	.LVL73:
 508 0026 FFF7FEFF 		bl	u8g2_SetupBuffer
 509              	.LVL74:
  71:..\..\u8g2\csrc/u8g2_d_setup.c **** }
 510              		.loc 1 71 0
 511              		@ sp needed
 512              	.LVL75:
 513              	.LVL76:
 514 002a 7FBD     		pop	{r0, r1, r2, r3, r4, r5, r6, pc}
 515              	.L21:
 516              		.align	2
 517              	.L20:
 518 002c 00000000 		.word	u8x8_d_ssd1306_128x64_noname
 519 0030 00000000 		.word	u8x8_cad_001
 520 0034 00000000 		.word	u8g2_ll_hvline_vertical_top_lsb
 521              		.cfi_endproc
ARM GAS  C:\Users\Greg\AppData\Local\Temp\ccGRKbG3.s 			page 12


 522              	.LFE6:
 523              		.size	u8g2_Setup_ssd1306_128x64_noname_1, .-u8g2_Setup_ssd1306_128x64_noname_1
 524              		.section	.text.u8g2_Setup_ssd1306_128x64_vcomh0_1,"ax",%progbits
 525              		.align	1
 526              		.global	u8g2_Setup_ssd1306_128x64_vcomh0_1
 527              		.code	16
 528              		.thumb_func
 529              		.type	u8g2_Setup_ssd1306_128x64_vcomh0_1, %function
 530              	u8g2_Setup_ssd1306_128x64_vcomh0_1:
 531              	.LFB7:
  72:..\..\u8g2\csrc/u8g2_d_setup.c **** void u8g2_Setup_ssd1306_128x64_vcomh0_1(u8g2_t *u8g2, const u8g2_cb_t *rotation, u8x8_msg_cb byte_c
  73:..\..\u8g2\csrc/u8g2_d_setup.c **** {
 532              		.loc 1 73 0
 533              		.cfi_startproc
 534              		@ args = 0, pretend = 0, frame = 8
 535              		@ frame_needed = 0, uses_anonymous_args = 0
 536              	.LVL77:
 537 0000 7FB5     		push	{r0, r1, r2, r3, r4, r5, r6, lr}
 538              		.cfi_def_cfa_offset 32
 539              		.cfi_offset 0, -32
 540              		.cfi_offset 1, -28
 541              		.cfi_offset 2, -24
 542              		.cfi_offset 3, -20
 543              		.cfi_offset 4, -16
 544              		.cfi_offset 5, -12
 545              		.cfi_offset 6, -8
 546              		.cfi_offset 14, -4
  74:..\..\u8g2\csrc/u8g2_d_setup.c ****   uint8_t tile_buf_height;
  75:..\..\u8g2\csrc/u8g2_d_setup.c ****   uint8_t *buf;
  76:..\..\u8g2\csrc/u8g2_d_setup.c ****   u8g2_SetupDisplay(u8g2, u8x8_d_ssd1306_128x64_vcomh0, u8x8_cad_001, byte_cb, gpio_and_delay_cb);
  77:..\..\u8g2\csrc/u8g2_d_setup.c ****   buf = u8g2_m_ssd1306_16_1(&tile_buf_height);
 547              		.loc 1 77 0
 548 0002 0F25     		movs	r5, #15
  73:..\..\u8g2\csrc/u8g2_d_setup.c ****   uint8_t tile_buf_height;
 549              		.loc 1 73 0
 550 0004 0E00     		movs	r6, r1
 551              		.loc 1 77 0
 552 0006 6D44     		add	r5, r5, sp
  76:..\..\u8g2\csrc/u8g2_d_setup.c ****   buf = u8g2_m_ssd1306_16_1(&tile_buf_height);
 553              		.loc 1 76 0
 554 0008 0093     		str	r3, [sp]
 555 000a 0849     		ldr	r1, .L23
 556              	.LVL78:
 557 000c 1300     		movs	r3, r2
 558              	.LVL79:
 559 000e 084A     		ldr	r2, .L23+4
 560              	.LVL80:
  73:..\..\u8g2\csrc/u8g2_d_setup.c ****   uint8_t tile_buf_height;
 561              		.loc 1 73 0
 562 0010 0400     		movs	r4, r0
  76:..\..\u8g2\csrc/u8g2_d_setup.c ****   buf = u8g2_m_ssd1306_16_1(&tile_buf_height);
 563              		.loc 1 76 0
 564 0012 FFF7FEFF 		bl	u8x8_Setup
 565              	.LVL81:
 566              		.loc 1 77 0
 567 0016 2800     		movs	r0, r5
 568 0018 FFF7FEFF 		bl	u8g2_m_ssd1306_16_1
ARM GAS  C:\Users\Greg\AppData\Local\Temp\ccGRKbG3.s 			page 13


 569              	.LVL82:
  78:..\..\u8g2\csrc/u8g2_d_setup.c ****   u8g2_SetupBuffer(u8g2, buf, tile_buf_height, u8g2_ll_hvline_vertical_top_lsb, rotation);
 570              		.loc 1 78 0
 571 001c 2A78     		ldrb	r2, [r5]
  77:..\..\u8g2\csrc/u8g2_d_setup.c ****   u8g2_SetupBuffer(u8g2, buf, tile_buf_height, u8g2_ll_hvline_vertical_top_lsb, rotation);
 572              		.loc 1 77 0
 573 001e 0100     		movs	r1, r0
 574              	.LVL83:
 575              		.loc 1 78 0
 576 0020 0096     		str	r6, [sp]
 577 0022 044B     		ldr	r3, .L23+8
 578 0024 2000     		movs	r0, r4
 579              	.LVL84:
 580 0026 FFF7FEFF 		bl	u8g2_SetupBuffer
 581              	.LVL85:
  79:..\..\u8g2\csrc/u8g2_d_setup.c **** }
 582              		.loc 1 79 0
 583              		@ sp needed
 584              	.LVL86:
 585              	.LVL87:
 586 002a 7FBD     		pop	{r0, r1, r2, r3, r4, r5, r6, pc}
 587              	.L24:
 588              		.align	2
 589              	.L23:
 590 002c 00000000 		.word	u8x8_d_ssd1306_128x64_vcomh0
 591 0030 00000000 		.word	u8x8_cad_001
 592 0034 00000000 		.word	u8g2_ll_hvline_vertical_top_lsb
 593              		.cfi_endproc
 594              	.LFE7:
 595              		.size	u8g2_Setup_ssd1306_128x64_vcomh0_1, .-u8g2_Setup_ssd1306_128x64_vcomh0_1
 596              		.section	.text.u8g2_Setup_ssd1306_128x64_noname_2,"ax",%progbits
 597              		.align	1
 598              		.global	u8g2_Setup_ssd1306_128x64_noname_2
 599              		.code	16
 600              		.thumb_func
 601              		.type	u8g2_Setup_ssd1306_128x64_noname_2, %function
 602              	u8g2_Setup_ssd1306_128x64_noname_2:
 603              	.LFB8:
  80:..\..\u8g2\csrc/u8g2_d_setup.c **** /* ssd1306 2 */
  81:..\..\u8g2\csrc/u8g2_d_setup.c **** void u8g2_Setup_ssd1306_128x64_noname_2(u8g2_t *u8g2, const u8g2_cb_t *rotation, u8x8_msg_cb byte_c
  82:..\..\u8g2\csrc/u8g2_d_setup.c **** {
 604              		.loc 1 82 0
 605              		.cfi_startproc
 606              		@ args = 0, pretend = 0, frame = 8
 607              		@ frame_needed = 0, uses_anonymous_args = 0
 608              	.LVL88:
 609 0000 7FB5     		push	{r0, r1, r2, r3, r4, r5, r6, lr}
 610              		.cfi_def_cfa_offset 32
 611              		.cfi_offset 0, -32
 612              		.cfi_offset 1, -28
 613              		.cfi_offset 2, -24
 614              		.cfi_offset 3, -20
 615              		.cfi_offset 4, -16
 616              		.cfi_offset 5, -12
 617              		.cfi_offset 6, -8
 618              		.cfi_offset 14, -4
  83:..\..\u8g2\csrc/u8g2_d_setup.c ****   uint8_t tile_buf_height;
ARM GAS  C:\Users\Greg\AppData\Local\Temp\ccGRKbG3.s 			page 14


  84:..\..\u8g2\csrc/u8g2_d_setup.c ****   uint8_t *buf;
  85:..\..\u8g2\csrc/u8g2_d_setup.c ****   u8g2_SetupDisplay(u8g2, u8x8_d_ssd1306_128x64_noname, u8x8_cad_001, byte_cb, gpio_and_delay_cb);
  86:..\..\u8g2\csrc/u8g2_d_setup.c ****   buf = u8g2_m_ssd1306_16_2(&tile_buf_height);
 619              		.loc 1 86 0
 620 0002 0F25     		movs	r5, #15
  82:..\..\u8g2\csrc/u8g2_d_setup.c ****   uint8_t tile_buf_height;
 621              		.loc 1 82 0
 622 0004 0E00     		movs	r6, r1
 623              		.loc 1 86 0
 624 0006 6D44     		add	r5, r5, sp
  85:..\..\u8g2\csrc/u8g2_d_setup.c ****   buf = u8g2_m_ssd1306_16_2(&tile_buf_height);
 625              		.loc 1 85 0
 626 0008 0093     		str	r3, [sp]
 627 000a 0849     		ldr	r1, .L26
 628              	.LVL89:
 629 000c 1300     		movs	r3, r2
 630              	.LVL90:
 631 000e 084A     		ldr	r2, .L26+4
 632              	.LVL91:
  82:..\..\u8g2\csrc/u8g2_d_setup.c ****   uint8_t tile_buf_height;
 633              		.loc 1 82 0
 634 0010 0400     		movs	r4, r0
  85:..\..\u8g2\csrc/u8g2_d_setup.c ****   buf = u8g2_m_ssd1306_16_2(&tile_buf_height);
 635              		.loc 1 85 0
 636 0012 FFF7FEFF 		bl	u8x8_Setup
 637              	.LVL92:
 638              		.loc 1 86 0
 639 0016 2800     		movs	r0, r5
 640 0018 FFF7FEFF 		bl	u8g2_m_ssd1306_16_2
 641              	.LVL93:
  87:..\..\u8g2\csrc/u8g2_d_setup.c ****   u8g2_SetupBuffer(u8g2, buf, tile_buf_height, u8g2_ll_hvline_vertical_top_lsb, rotation);
 642              		.loc 1 87 0
 643 001c 2A78     		ldrb	r2, [r5]
  86:..\..\u8g2\csrc/u8g2_d_setup.c ****   u8g2_SetupBuffer(u8g2, buf, tile_buf_height, u8g2_ll_hvline_vertical_top_lsb, rotation);
 644              		.loc 1 86 0
 645 001e 0100     		movs	r1, r0
 646              	.LVL94:
 647              		.loc 1 87 0
 648 0020 0096     		str	r6, [sp]
 649 0022 044B     		ldr	r3, .L26+8
 650 0024 2000     		movs	r0, r4
 651              	.LVL95:
 652 0026 FFF7FEFF 		bl	u8g2_SetupBuffer
 653              	.LVL96:
  88:..\..\u8g2\csrc/u8g2_d_setup.c **** }
 654              		.loc 1 88 0
 655              		@ sp needed
 656              	.LVL97:
 657              	.LVL98:
 658 002a 7FBD     		pop	{r0, r1, r2, r3, r4, r5, r6, pc}
 659              	.L27:
 660              		.align	2
 661              	.L26:
 662 002c 00000000 		.word	u8x8_d_ssd1306_128x64_noname
 663 0030 00000000 		.word	u8x8_cad_001
 664 0034 00000000 		.word	u8g2_ll_hvline_vertical_top_lsb
 665              		.cfi_endproc
ARM GAS  C:\Users\Greg\AppData\Local\Temp\ccGRKbG3.s 			page 15


 666              	.LFE8:
 667              		.size	u8g2_Setup_ssd1306_128x64_noname_2, .-u8g2_Setup_ssd1306_128x64_noname_2
 668              		.section	.text.u8g2_Setup_ssd1306_128x64_vcomh0_2,"ax",%progbits
 669              		.align	1
 670              		.global	u8g2_Setup_ssd1306_128x64_vcomh0_2
 671              		.code	16
 672              		.thumb_func
 673              		.type	u8g2_Setup_ssd1306_128x64_vcomh0_2, %function
 674              	u8g2_Setup_ssd1306_128x64_vcomh0_2:
 675              	.LFB9:
  89:..\..\u8g2\csrc/u8g2_d_setup.c **** void u8g2_Setup_ssd1306_128x64_vcomh0_2(u8g2_t *u8g2, const u8g2_cb_t *rotation, u8x8_msg_cb byte_c
  90:..\..\u8g2\csrc/u8g2_d_setup.c **** {
 676              		.loc 1 90 0
 677              		.cfi_startproc
 678              		@ args = 0, pretend = 0, frame = 8
 679              		@ frame_needed = 0, uses_anonymous_args = 0
 680              	.LVL99:
 681 0000 7FB5     		push	{r0, r1, r2, r3, r4, r5, r6, lr}
 682              		.cfi_def_cfa_offset 32
 683              		.cfi_offset 0, -32
 684              		.cfi_offset 1, -28
 685              		.cfi_offset 2, -24
 686              		.cfi_offset 3, -20
 687              		.cfi_offset 4, -16
 688              		.cfi_offset 5, -12
 689              		.cfi_offset 6, -8
 690              		.cfi_offset 14, -4
  91:..\..\u8g2\csrc/u8g2_d_setup.c ****   uint8_t tile_buf_height;
  92:..\..\u8g2\csrc/u8g2_d_setup.c ****   uint8_t *buf;
  93:..\..\u8g2\csrc/u8g2_d_setup.c ****   u8g2_SetupDisplay(u8g2, u8x8_d_ssd1306_128x64_vcomh0, u8x8_cad_001, byte_cb, gpio_and_delay_cb);
  94:..\..\u8g2\csrc/u8g2_d_setup.c ****   buf = u8g2_m_ssd1306_16_2(&tile_buf_height);
 691              		.loc 1 94 0
 692 0002 0F25     		movs	r5, #15
  90:..\..\u8g2\csrc/u8g2_d_setup.c ****   uint8_t tile_buf_height;
 693              		.loc 1 90 0
 694 0004 0E00     		movs	r6, r1
 695              		.loc 1 94 0
 696 0006 6D44     		add	r5, r5, sp
  93:..\..\u8g2\csrc/u8g2_d_setup.c ****   buf = u8g2_m_ssd1306_16_2(&tile_buf_height);
 697              		.loc 1 93 0
 698 0008 0093     		str	r3, [sp]
 699 000a 0849     		ldr	r1, .L29
 700              	.LVL100:
 701 000c 1300     		movs	r3, r2
 702              	.LVL101:
 703 000e 084A     		ldr	r2, .L29+4
 704              	.LVL102:
  90:..\..\u8g2\csrc/u8g2_d_setup.c ****   uint8_t tile_buf_height;
 705              		.loc 1 90 0
 706 0010 0400     		movs	r4, r0
  93:..\..\u8g2\csrc/u8g2_d_setup.c ****   buf = u8g2_m_ssd1306_16_2(&tile_buf_height);
 707              		.loc 1 93 0
 708 0012 FFF7FEFF 		bl	u8x8_Setup
 709              	.LVL103:
 710              		.loc 1 94 0
 711 0016 2800     		movs	r0, r5
 712 0018 FFF7FEFF 		bl	u8g2_m_ssd1306_16_2
ARM GAS  C:\Users\Greg\AppData\Local\Temp\ccGRKbG3.s 			page 16


 713              	.LVL104:
  95:..\..\u8g2\csrc/u8g2_d_setup.c ****   u8g2_SetupBuffer(u8g2, buf, tile_buf_height, u8g2_ll_hvline_vertical_top_lsb, rotation);
 714              		.loc 1 95 0
 715 001c 2A78     		ldrb	r2, [r5]
  94:..\..\u8g2\csrc/u8g2_d_setup.c ****   u8g2_SetupBuffer(u8g2, buf, tile_buf_height, u8g2_ll_hvline_vertical_top_lsb, rotation);
 716              		.loc 1 94 0
 717 001e 0100     		movs	r1, r0
 718              	.LVL105:
 719              		.loc 1 95 0
 720 0020 0096     		str	r6, [sp]
 721 0022 044B     		ldr	r3, .L29+8
 722 0024 2000     		movs	r0, r4
 723              	.LVL106:
 724 0026 FFF7FEFF 		bl	u8g2_SetupBuffer
 725              	.LVL107:
  96:..\..\u8g2\csrc/u8g2_d_setup.c **** }
 726              		.loc 1 96 0
 727              		@ sp needed
 728              	.LVL108:
 729              	.LVL109:
 730 002a 7FBD     		pop	{r0, r1, r2, r3, r4, r5, r6, pc}
 731              	.L30:
 732              		.align	2
 733              	.L29:
 734 002c 00000000 		.word	u8x8_d_ssd1306_128x64_vcomh0
 735 0030 00000000 		.word	u8x8_cad_001
 736 0034 00000000 		.word	u8g2_ll_hvline_vertical_top_lsb
 737              		.cfi_endproc
 738              	.LFE9:
 739              		.size	u8g2_Setup_ssd1306_128x64_vcomh0_2, .-u8g2_Setup_ssd1306_128x64_vcomh0_2
 740              		.section	.text.u8g2_Setup_ssd1306_128x64_noname_f,"ax",%progbits
 741              		.align	1
 742              		.global	u8g2_Setup_ssd1306_128x64_noname_f
 743              		.code	16
 744              		.thumb_func
 745              		.type	u8g2_Setup_ssd1306_128x64_noname_f, %function
 746              	u8g2_Setup_ssd1306_128x64_noname_f:
 747              	.LFB10:
  97:..\..\u8g2\csrc/u8g2_d_setup.c **** /* ssd1306 f */
  98:..\..\u8g2\csrc/u8g2_d_setup.c **** void u8g2_Setup_ssd1306_128x64_noname_f(u8g2_t *u8g2, const u8g2_cb_t *rotation, u8x8_msg_cb byte_c
  99:..\..\u8g2\csrc/u8g2_d_setup.c **** {
 748              		.loc 1 99 0
 749              		.cfi_startproc
 750              		@ args = 0, pretend = 0, frame = 8
 751              		@ frame_needed = 0, uses_anonymous_args = 0
 752              	.LVL110:
 753 0000 7FB5     		push	{r0, r1, r2, r3, r4, r5, r6, lr}
 754              		.cfi_def_cfa_offset 32
 755              		.cfi_offset 0, -32
 756              		.cfi_offset 1, -28
 757              		.cfi_offset 2, -24
 758              		.cfi_offset 3, -20
 759              		.cfi_offset 4, -16
 760              		.cfi_offset 5, -12
 761              		.cfi_offset 6, -8
 762              		.cfi_offset 14, -4
 100:..\..\u8g2\csrc/u8g2_d_setup.c ****   uint8_t tile_buf_height;
ARM GAS  C:\Users\Greg\AppData\Local\Temp\ccGRKbG3.s 			page 17


 101:..\..\u8g2\csrc/u8g2_d_setup.c ****   uint8_t *buf;
 102:..\..\u8g2\csrc/u8g2_d_setup.c ****   u8g2_SetupDisplay(u8g2, u8x8_d_ssd1306_128x64_noname, u8x8_cad_001, byte_cb, gpio_and_delay_cb);
 103:..\..\u8g2\csrc/u8g2_d_setup.c ****   buf = u8g2_m_ssd1306_16_f(&tile_buf_height);
 763              		.loc 1 103 0
 764 0002 0F25     		movs	r5, #15
  99:..\..\u8g2\csrc/u8g2_d_setup.c ****   uint8_t tile_buf_height;
 765              		.loc 1 99 0
 766 0004 0E00     		movs	r6, r1
 767              		.loc 1 103 0
 768 0006 6D44     		add	r5, r5, sp
 102:..\..\u8g2\csrc/u8g2_d_setup.c ****   buf = u8g2_m_ssd1306_16_f(&tile_buf_height);
 769              		.loc 1 102 0
 770 0008 0093     		str	r3, [sp]
 771 000a 0849     		ldr	r1, .L32
 772              	.LVL111:
 773 000c 1300     		movs	r3, r2
 774              	.LVL112:
 775 000e 084A     		ldr	r2, .L32+4
 776              	.LVL113:
  99:..\..\u8g2\csrc/u8g2_d_setup.c ****   uint8_t tile_buf_height;
 777              		.loc 1 99 0
 778 0010 0400     		movs	r4, r0
 102:..\..\u8g2\csrc/u8g2_d_setup.c ****   buf = u8g2_m_ssd1306_16_f(&tile_buf_height);
 779              		.loc 1 102 0
 780 0012 FFF7FEFF 		bl	u8x8_Setup
 781              	.LVL114:
 782              		.loc 1 103 0
 783 0016 2800     		movs	r0, r5
 784 0018 FFF7FEFF 		bl	u8g2_m_ssd1306_16_f
 785              	.LVL115:
 104:..\..\u8g2\csrc/u8g2_d_setup.c ****   u8g2_SetupBuffer(u8g2, buf, tile_buf_height, u8g2_ll_hvline_vertical_top_lsb, rotation);
 786              		.loc 1 104 0
 787 001c 2A78     		ldrb	r2, [r5]
 103:..\..\u8g2\csrc/u8g2_d_setup.c ****   u8g2_SetupBuffer(u8g2, buf, tile_buf_height, u8g2_ll_hvline_vertical_top_lsb, rotation);
 788              		.loc 1 103 0
 789 001e 0100     		movs	r1, r0
 790              	.LVL116:
 791              		.loc 1 104 0
 792 0020 0096     		str	r6, [sp]
 793 0022 044B     		ldr	r3, .L32+8
 794 0024 2000     		movs	r0, r4
 795              	.LVL117:
 796 0026 FFF7FEFF 		bl	u8g2_SetupBuffer
 797              	.LVL118:
 105:..\..\u8g2\csrc/u8g2_d_setup.c **** }
 798              		.loc 1 105 0
 799              		@ sp needed
 800              	.LVL119:
 801              	.LVL120:
 802 002a 7FBD     		pop	{r0, r1, r2, r3, r4, r5, r6, pc}
 803              	.L33:
 804              		.align	2
 805              	.L32:
 806 002c 00000000 		.word	u8x8_d_ssd1306_128x64_noname
 807 0030 00000000 		.word	u8x8_cad_001
 808 0034 00000000 		.word	u8g2_ll_hvline_vertical_top_lsb
 809              		.cfi_endproc
ARM GAS  C:\Users\Greg\AppData\Local\Temp\ccGRKbG3.s 			page 18


 810              	.LFE10:
 811              		.size	u8g2_Setup_ssd1306_128x64_noname_f, .-u8g2_Setup_ssd1306_128x64_noname_f
 812              		.section	.text.u8g2_Setup_ssd1306_128x64_vcomh0_f,"ax",%progbits
 813              		.align	1
 814              		.global	u8g2_Setup_ssd1306_128x64_vcomh0_f
 815              		.code	16
 816              		.thumb_func
 817              		.type	u8g2_Setup_ssd1306_128x64_vcomh0_f, %function
 818              	u8g2_Setup_ssd1306_128x64_vcomh0_f:
 819              	.LFB11:
 106:..\..\u8g2\csrc/u8g2_d_setup.c **** void u8g2_Setup_ssd1306_128x64_vcomh0_f(u8g2_t *u8g2, const u8g2_cb_t *rotation, u8x8_msg_cb byte_c
 107:..\..\u8g2\csrc/u8g2_d_setup.c **** {
 820              		.loc 1 107 0
 821              		.cfi_startproc
 822              		@ args = 0, pretend = 0, frame = 8
 823              		@ frame_needed = 0, uses_anonymous_args = 0
 824              	.LVL121:
 825 0000 7FB5     		push	{r0, r1, r2, r3, r4, r5, r6, lr}
 826              		.cfi_def_cfa_offset 32
 827              		.cfi_offset 0, -32
 828              		.cfi_offset 1, -28
 829              		.cfi_offset 2, -24
 830              		.cfi_offset 3, -20
 831              		.cfi_offset 4, -16
 832              		.cfi_offset 5, -12
 833              		.cfi_offset 6, -8
 834              		.cfi_offset 14, -4
 108:..\..\u8g2\csrc/u8g2_d_setup.c ****   uint8_t tile_buf_height;
 109:..\..\u8g2\csrc/u8g2_d_setup.c ****   uint8_t *buf;
 110:..\..\u8g2\csrc/u8g2_d_setup.c ****   u8g2_SetupDisplay(u8g2, u8x8_d_ssd1306_128x64_vcomh0, u8x8_cad_001, byte_cb, gpio_and_delay_cb);
 111:..\..\u8g2\csrc/u8g2_d_setup.c ****   buf = u8g2_m_ssd1306_16_f(&tile_buf_height);
 835              		.loc 1 111 0
 836 0002 0F25     		movs	r5, #15
 107:..\..\u8g2\csrc/u8g2_d_setup.c ****   uint8_t tile_buf_height;
 837              		.loc 1 107 0
 838 0004 0E00     		movs	r6, r1
 839              		.loc 1 111 0
 840 0006 6D44     		add	r5, r5, sp
 110:..\..\u8g2\csrc/u8g2_d_setup.c ****   buf = u8g2_m_ssd1306_16_f(&tile_buf_height);
 841              		.loc 1 110 0
 842 0008 0093     		str	r3, [sp]
 843 000a 0849     		ldr	r1, .L35
 844              	.LVL122:
 845 000c 1300     		movs	r3, r2
 846              	.LVL123:
 847 000e 084A     		ldr	r2, .L35+4
 848              	.LVL124:
 107:..\..\u8g2\csrc/u8g2_d_setup.c ****   uint8_t tile_buf_height;
 849              		.loc 1 107 0
 850 0010 0400     		movs	r4, r0
 110:..\..\u8g2\csrc/u8g2_d_setup.c ****   buf = u8g2_m_ssd1306_16_f(&tile_buf_height);
 851              		.loc 1 110 0
 852 0012 FFF7FEFF 		bl	u8x8_Setup
 853              	.LVL125:
 854              		.loc 1 111 0
 855 0016 2800     		movs	r0, r5
 856 0018 FFF7FEFF 		bl	u8g2_m_ssd1306_16_f
ARM GAS  C:\Users\Greg\AppData\Local\Temp\ccGRKbG3.s 			page 19


 857              	.LVL126:
 112:..\..\u8g2\csrc/u8g2_d_setup.c ****   u8g2_SetupBuffer(u8g2, buf, tile_buf_height, u8g2_ll_hvline_vertical_top_lsb, rotation);
 858              		.loc 1 112 0
 859 001c 2A78     		ldrb	r2, [r5]
 111:..\..\u8g2\csrc/u8g2_d_setup.c ****   u8g2_SetupBuffer(u8g2, buf, tile_buf_height, u8g2_ll_hvline_vertical_top_lsb, rotation);
 860              		.loc 1 111 0
 861 001e 0100     		movs	r1, r0
 862              	.LVL127:
 863              		.loc 1 112 0
 864 0020 0096     		str	r6, [sp]
 865 0022 044B     		ldr	r3, .L35+8
 866 0024 2000     		movs	r0, r4
 867              	.LVL128:
 868 0026 FFF7FEFF 		bl	u8g2_SetupBuffer
 869              	.LVL129:
 113:..\..\u8g2\csrc/u8g2_d_setup.c **** }
 870              		.loc 1 113 0
 871              		@ sp needed
 872              	.LVL130:
 873              	.LVL131:
 874 002a 7FBD     		pop	{r0, r1, r2, r3, r4, r5, r6, pc}
 875              	.L36:
 876              		.align	2
 877              	.L35:
 878 002c 00000000 		.word	u8x8_d_ssd1306_128x64_vcomh0
 879 0030 00000000 		.word	u8x8_cad_001
 880 0034 00000000 		.word	u8g2_ll_hvline_vertical_top_lsb
 881              		.cfi_endproc
 882              	.LFE11:
 883              		.size	u8g2_Setup_ssd1306_128x64_vcomh0_f, .-u8g2_Setup_ssd1306_128x64_vcomh0_f
 884              		.section	.text.u8g2_Setup_ssd1306_i2c_128x64_noname_1,"ax",%progbits
 885              		.align	1
 886              		.global	u8g2_Setup_ssd1306_i2c_128x64_noname_1
 887              		.code	16
 888              		.thumb_func
 889              		.type	u8g2_Setup_ssd1306_i2c_128x64_noname_1, %function
 890              	u8g2_Setup_ssd1306_i2c_128x64_noname_1:
 891              	.LFB12:
 114:..\..\u8g2\csrc/u8g2_d_setup.c **** /* ssd1306 */
 115:..\..\u8g2\csrc/u8g2_d_setup.c **** /* ssd1306 1 */
 116:..\..\u8g2\csrc/u8g2_d_setup.c **** void u8g2_Setup_ssd1306_i2c_128x64_noname_1(u8g2_t *u8g2, const u8g2_cb_t *rotation, u8x8_msg_cb by
 117:..\..\u8g2\csrc/u8g2_d_setup.c **** {
 892              		.loc 1 117 0
 893              		.cfi_startproc
 894              		@ args = 0, pretend = 0, frame = 8
 895              		@ frame_needed = 0, uses_anonymous_args = 0
 896              	.LVL132:
 897 0000 7FB5     		push	{r0, r1, r2, r3, r4, r5, r6, lr}
 898              		.cfi_def_cfa_offset 32
 899              		.cfi_offset 0, -32
 900              		.cfi_offset 1, -28
 901              		.cfi_offset 2, -24
 902              		.cfi_offset 3, -20
 903              		.cfi_offset 4, -16
 904              		.cfi_offset 5, -12
 905              		.cfi_offset 6, -8
 906              		.cfi_offset 14, -4
ARM GAS  C:\Users\Greg\AppData\Local\Temp\ccGRKbG3.s 			page 20


 118:..\..\u8g2\csrc/u8g2_d_setup.c ****   uint8_t tile_buf_height;
 119:..\..\u8g2\csrc/u8g2_d_setup.c ****   uint8_t *buf;
 120:..\..\u8g2\csrc/u8g2_d_setup.c ****   u8g2_SetupDisplay(u8g2, u8x8_d_ssd1306_128x64_noname, u8x8_cad_ssd13xx_i2c, byte_cb, gpio_and_del
 121:..\..\u8g2\csrc/u8g2_d_setup.c ****   buf = u8g2_m_ssd1306_16_1(&tile_buf_height);
 907              		.loc 1 121 0
 908 0002 0F25     		movs	r5, #15
 117:..\..\u8g2\csrc/u8g2_d_setup.c ****   uint8_t tile_buf_height;
 909              		.loc 1 117 0
 910 0004 0E00     		movs	r6, r1
 911              		.loc 1 121 0
 912 0006 6D44     		add	r5, r5, sp
 120:..\..\u8g2\csrc/u8g2_d_setup.c ****   buf = u8g2_m_ssd1306_16_1(&tile_buf_height);
 913              		.loc 1 120 0
 914 0008 0093     		str	r3, [sp]
 915 000a 0849     		ldr	r1, .L38
 916              	.LVL133:
 917 000c 1300     		movs	r3, r2
 918              	.LVL134:
 919 000e 084A     		ldr	r2, .L38+4
 920              	.LVL135:
 117:..\..\u8g2\csrc/u8g2_d_setup.c ****   uint8_t tile_buf_height;
 921              		.loc 1 117 0
 922 0010 0400     		movs	r4, r0
 120:..\..\u8g2\csrc/u8g2_d_setup.c ****   buf = u8g2_m_ssd1306_16_1(&tile_buf_height);
 923              		.loc 1 120 0
 924 0012 FFF7FEFF 		bl	u8x8_Setup
 925              	.LVL136:
 926              		.loc 1 121 0
 927 0016 2800     		movs	r0, r5
 928 0018 FFF7FEFF 		bl	u8g2_m_ssd1306_16_1
 929              	.LVL137:
 122:..\..\u8g2\csrc/u8g2_d_setup.c ****   u8g2_SetupBuffer(u8g2, buf, tile_buf_height, u8g2_ll_hvline_vertical_top_lsb, rotation);
 930              		.loc 1 122 0
 931 001c 2A78     		ldrb	r2, [r5]
 121:..\..\u8g2\csrc/u8g2_d_setup.c ****   u8g2_SetupBuffer(u8g2, buf, tile_buf_height, u8g2_ll_hvline_vertical_top_lsb, rotation);
 932              		.loc 1 121 0
 933 001e 0100     		movs	r1, r0
 934              	.LVL138:
 935              		.loc 1 122 0
 936 0020 0096     		str	r6, [sp]
 937 0022 044B     		ldr	r3, .L38+8
 938 0024 2000     		movs	r0, r4
 939              	.LVL139:
 940 0026 FFF7FEFF 		bl	u8g2_SetupBuffer
 941              	.LVL140:
 123:..\..\u8g2\csrc/u8g2_d_setup.c **** }
 942              		.loc 1 123 0
 943              		@ sp needed
 944              	.LVL141:
 945              	.LVL142:
 946 002a 7FBD     		pop	{r0, r1, r2, r3, r4, r5, r6, pc}
 947              	.L39:
 948              		.align	2
 949              	.L38:
 950 002c 00000000 		.word	u8x8_d_ssd1306_128x64_noname
 951 0030 00000000 		.word	u8x8_cad_ssd13xx_i2c
 952 0034 00000000 		.word	u8g2_ll_hvline_vertical_top_lsb
ARM GAS  C:\Users\Greg\AppData\Local\Temp\ccGRKbG3.s 			page 21


 953              		.cfi_endproc
 954              	.LFE12:
 955              		.size	u8g2_Setup_ssd1306_i2c_128x64_noname_1, .-u8g2_Setup_ssd1306_i2c_128x64_noname_1
 956              		.section	.text.u8g2_Setup_ssd1306_i2c_128x64_vcomh0_1,"ax",%progbits
 957              		.align	1
 958              		.global	u8g2_Setup_ssd1306_i2c_128x64_vcomh0_1
 959              		.code	16
 960              		.thumb_func
 961              		.type	u8g2_Setup_ssd1306_i2c_128x64_vcomh0_1, %function
 962              	u8g2_Setup_ssd1306_i2c_128x64_vcomh0_1:
 963              	.LFB13:
 124:..\..\u8g2\csrc/u8g2_d_setup.c **** void u8g2_Setup_ssd1306_i2c_128x64_vcomh0_1(u8g2_t *u8g2, const u8g2_cb_t *rotation, u8x8_msg_cb by
 125:..\..\u8g2\csrc/u8g2_d_setup.c **** {
 964              		.loc 1 125 0
 965              		.cfi_startproc
 966              		@ args = 0, pretend = 0, frame = 8
 967              		@ frame_needed = 0, uses_anonymous_args = 0
 968              	.LVL143:
 969 0000 7FB5     		push	{r0, r1, r2, r3, r4, r5, r6, lr}
 970              		.cfi_def_cfa_offset 32
 971              		.cfi_offset 0, -32
 972              		.cfi_offset 1, -28
 973              		.cfi_offset 2, -24
 974              		.cfi_offset 3, -20
 975              		.cfi_offset 4, -16
 976              		.cfi_offset 5, -12
 977              		.cfi_offset 6, -8
 978              		.cfi_offset 14, -4
 126:..\..\u8g2\csrc/u8g2_d_setup.c ****   uint8_t tile_buf_height;
 127:..\..\u8g2\csrc/u8g2_d_setup.c ****   uint8_t *buf;
 128:..\..\u8g2\csrc/u8g2_d_setup.c ****   u8g2_SetupDisplay(u8g2, u8x8_d_ssd1306_128x64_vcomh0, u8x8_cad_ssd13xx_i2c, byte_cb, gpio_and_del
 129:..\..\u8g2\csrc/u8g2_d_setup.c ****   buf = u8g2_m_ssd1306_16_1(&tile_buf_height);
 979              		.loc 1 129 0
 980 0002 0F25     		movs	r5, #15
 125:..\..\u8g2\csrc/u8g2_d_setup.c ****   uint8_t tile_buf_height;
 981              		.loc 1 125 0
 982 0004 0E00     		movs	r6, r1
 983              		.loc 1 129 0
 984 0006 6D44     		add	r5, r5, sp
 128:..\..\u8g2\csrc/u8g2_d_setup.c ****   buf = u8g2_m_ssd1306_16_1(&tile_buf_height);
 985              		.loc 1 128 0
 986 0008 0093     		str	r3, [sp]
 987 000a 0849     		ldr	r1, .L41
 988              	.LVL144:
 989 000c 1300     		movs	r3, r2
 990              	.LVL145:
 991 000e 084A     		ldr	r2, .L41+4
 992              	.LVL146:
 125:..\..\u8g2\csrc/u8g2_d_setup.c ****   uint8_t tile_buf_height;
 993              		.loc 1 125 0
 994 0010 0400     		movs	r4, r0
 128:..\..\u8g2\csrc/u8g2_d_setup.c ****   buf = u8g2_m_ssd1306_16_1(&tile_buf_height);
 995              		.loc 1 128 0
 996 0012 FFF7FEFF 		bl	u8x8_Setup
 997              	.LVL147:
 998              		.loc 1 129 0
 999 0016 2800     		movs	r0, r5
ARM GAS  C:\Users\Greg\AppData\Local\Temp\ccGRKbG3.s 			page 22


 1000 0018 FFF7FEFF 		bl	u8g2_m_ssd1306_16_1
 1001              	.LVL148:
 130:..\..\u8g2\csrc/u8g2_d_setup.c ****   u8g2_SetupBuffer(u8g2, buf, tile_buf_height, u8g2_ll_hvline_vertical_top_lsb, rotation);
 1002              		.loc 1 130 0
 1003 001c 2A78     		ldrb	r2, [r5]
 129:..\..\u8g2\csrc/u8g2_d_setup.c ****   u8g2_SetupBuffer(u8g2, buf, tile_buf_height, u8g2_ll_hvline_vertical_top_lsb, rotation);
 1004              		.loc 1 129 0
 1005 001e 0100     		movs	r1, r0
 1006              	.LVL149:
 1007              		.loc 1 130 0
 1008 0020 0096     		str	r6, [sp]
 1009 0022 044B     		ldr	r3, .L41+8
 1010 0024 2000     		movs	r0, r4
 1011              	.LVL150:
 1012 0026 FFF7FEFF 		bl	u8g2_SetupBuffer
 1013              	.LVL151:
 131:..\..\u8g2\csrc/u8g2_d_setup.c **** }
 1014              		.loc 1 131 0
 1015              		@ sp needed
 1016              	.LVL152:
 1017              	.LVL153:
 1018 002a 7FBD     		pop	{r0, r1, r2, r3, r4, r5, r6, pc}
 1019              	.L42:
 1020              		.align	2
 1021              	.L41:
 1022 002c 00000000 		.word	u8x8_d_ssd1306_128x64_vcomh0
 1023 0030 00000000 		.word	u8x8_cad_ssd13xx_i2c
 1024 0034 00000000 		.word	u8g2_ll_hvline_vertical_top_lsb
 1025              		.cfi_endproc
 1026              	.LFE13:
 1027              		.size	u8g2_Setup_ssd1306_i2c_128x64_vcomh0_1, .-u8g2_Setup_ssd1306_i2c_128x64_vcomh0_1
 1028              		.section	.text.u8g2_Setup_ssd1306_i2c_128x64_noname_2,"ax",%progbits
 1029              		.align	1
 1030              		.global	u8g2_Setup_ssd1306_i2c_128x64_noname_2
 1031              		.code	16
 1032              		.thumb_func
 1033              		.type	u8g2_Setup_ssd1306_i2c_128x64_noname_2, %function
 1034              	u8g2_Setup_ssd1306_i2c_128x64_noname_2:
 1035              	.LFB14:
 132:..\..\u8g2\csrc/u8g2_d_setup.c **** /* ssd1306 2 */
 133:..\..\u8g2\csrc/u8g2_d_setup.c **** void u8g2_Setup_ssd1306_i2c_128x64_noname_2(u8g2_t *u8g2, const u8g2_cb_t *rotation, u8x8_msg_cb by
 134:..\..\u8g2\csrc/u8g2_d_setup.c **** {
 1036              		.loc 1 134 0
 1037              		.cfi_startproc
 1038              		@ args = 0, pretend = 0, frame = 8
 1039              		@ frame_needed = 0, uses_anonymous_args = 0
 1040              	.LVL154:
 1041 0000 7FB5     		push	{r0, r1, r2, r3, r4, r5, r6, lr}
 1042              		.cfi_def_cfa_offset 32
 1043              		.cfi_offset 0, -32
 1044              		.cfi_offset 1, -28
 1045              		.cfi_offset 2, -24
 1046              		.cfi_offset 3, -20
 1047              		.cfi_offset 4, -16
 1048              		.cfi_offset 5, -12
 1049              		.cfi_offset 6, -8
 1050              		.cfi_offset 14, -4
ARM GAS  C:\Users\Greg\AppData\Local\Temp\ccGRKbG3.s 			page 23


 135:..\..\u8g2\csrc/u8g2_d_setup.c ****   uint8_t tile_buf_height;
 136:..\..\u8g2\csrc/u8g2_d_setup.c ****   uint8_t *buf;
 137:..\..\u8g2\csrc/u8g2_d_setup.c ****   u8g2_SetupDisplay(u8g2, u8x8_d_ssd1306_128x64_noname, u8x8_cad_ssd13xx_i2c, byte_cb, gpio_and_del
 138:..\..\u8g2\csrc/u8g2_d_setup.c ****   buf = u8g2_m_ssd1306_16_2(&tile_buf_height);
 1051              		.loc 1 138 0
 1052 0002 0F25     		movs	r5, #15
 134:..\..\u8g2\csrc/u8g2_d_setup.c ****   uint8_t tile_buf_height;
 1053              		.loc 1 134 0
 1054 0004 0E00     		movs	r6, r1
 1055              		.loc 1 138 0
 1056 0006 6D44     		add	r5, r5, sp
 137:..\..\u8g2\csrc/u8g2_d_setup.c ****   buf = u8g2_m_ssd1306_16_2(&tile_buf_height);
 1057              		.loc 1 137 0
 1058 0008 0093     		str	r3, [sp]
 1059 000a 0849     		ldr	r1, .L44
 1060              	.LVL155:
 1061 000c 1300     		movs	r3, r2
 1062              	.LVL156:
 1063 000e 084A     		ldr	r2, .L44+4
 1064              	.LVL157:
 134:..\..\u8g2\csrc/u8g2_d_setup.c ****   uint8_t tile_buf_height;
 1065              		.loc 1 134 0
 1066 0010 0400     		movs	r4, r0
 137:..\..\u8g2\csrc/u8g2_d_setup.c ****   buf = u8g2_m_ssd1306_16_2(&tile_buf_height);
 1067              		.loc 1 137 0
 1068 0012 FFF7FEFF 		bl	u8x8_Setup
 1069              	.LVL158:
 1070              		.loc 1 138 0
 1071 0016 2800     		movs	r0, r5
 1072 0018 FFF7FEFF 		bl	u8g2_m_ssd1306_16_2
 1073              	.LVL159:
 139:..\..\u8g2\csrc/u8g2_d_setup.c ****   u8g2_SetupBuffer(u8g2, buf, tile_buf_height, u8g2_ll_hvline_vertical_top_lsb, rotation);
 1074              		.loc 1 139 0
 1075 001c 2A78     		ldrb	r2, [r5]
 138:..\..\u8g2\csrc/u8g2_d_setup.c ****   u8g2_SetupBuffer(u8g2, buf, tile_buf_height, u8g2_ll_hvline_vertical_top_lsb, rotation);
 1076              		.loc 1 138 0
 1077 001e 0100     		movs	r1, r0
 1078              	.LVL160:
 1079              		.loc 1 139 0
 1080 0020 0096     		str	r6, [sp]
 1081 0022 044B     		ldr	r3, .L44+8
 1082 0024 2000     		movs	r0, r4
 1083              	.LVL161:
 1084 0026 FFF7FEFF 		bl	u8g2_SetupBuffer
 1085              	.LVL162:
 140:..\..\u8g2\csrc/u8g2_d_setup.c **** }
 1086              		.loc 1 140 0
 1087              		@ sp needed
 1088              	.LVL163:
 1089              	.LVL164:
 1090 002a 7FBD     		pop	{r0, r1, r2, r3, r4, r5, r6, pc}
 1091              	.L45:
 1092              		.align	2
 1093              	.L44:
 1094 002c 00000000 		.word	u8x8_d_ssd1306_128x64_noname
 1095 0030 00000000 		.word	u8x8_cad_ssd13xx_i2c
 1096 0034 00000000 		.word	u8g2_ll_hvline_vertical_top_lsb
ARM GAS  C:\Users\Greg\AppData\Local\Temp\ccGRKbG3.s 			page 24


 1097              		.cfi_endproc
 1098              	.LFE14:
 1099              		.size	u8g2_Setup_ssd1306_i2c_128x64_noname_2, .-u8g2_Setup_ssd1306_i2c_128x64_noname_2
 1100              		.section	.text.u8g2_Setup_ssd1306_i2c_128x64_vcomh0_2,"ax",%progbits
 1101              		.align	1
 1102              		.global	u8g2_Setup_ssd1306_i2c_128x64_vcomh0_2
 1103              		.code	16
 1104              		.thumb_func
 1105              		.type	u8g2_Setup_ssd1306_i2c_128x64_vcomh0_2, %function
 1106              	u8g2_Setup_ssd1306_i2c_128x64_vcomh0_2:
 1107              	.LFB15:
 141:..\..\u8g2\csrc/u8g2_d_setup.c **** void u8g2_Setup_ssd1306_i2c_128x64_vcomh0_2(u8g2_t *u8g2, const u8g2_cb_t *rotation, u8x8_msg_cb by
 142:..\..\u8g2\csrc/u8g2_d_setup.c **** {
 1108              		.loc 1 142 0
 1109              		.cfi_startproc
 1110              		@ args = 0, pretend = 0, frame = 8
 1111              		@ frame_needed = 0, uses_anonymous_args = 0
 1112              	.LVL165:
 1113 0000 7FB5     		push	{r0, r1, r2, r3, r4, r5, r6, lr}
 1114              		.cfi_def_cfa_offset 32
 1115              		.cfi_offset 0, -32
 1116              		.cfi_offset 1, -28
 1117              		.cfi_offset 2, -24
 1118              		.cfi_offset 3, -20
 1119              		.cfi_offset 4, -16
 1120              		.cfi_offset 5, -12
 1121              		.cfi_offset 6, -8
 1122              		.cfi_offset 14, -4
 143:..\..\u8g2\csrc/u8g2_d_setup.c ****   uint8_t tile_buf_height;
 144:..\..\u8g2\csrc/u8g2_d_setup.c ****   uint8_t *buf;
 145:..\..\u8g2\csrc/u8g2_d_setup.c ****   u8g2_SetupDisplay(u8g2, u8x8_d_ssd1306_128x64_vcomh0, u8x8_cad_ssd13xx_i2c, byte_cb, gpio_and_del
 146:..\..\u8g2\csrc/u8g2_d_setup.c ****   buf = u8g2_m_ssd1306_16_2(&tile_buf_height);
 1123              		.loc 1 146 0
 1124 0002 0F25     		movs	r5, #15
 142:..\..\u8g2\csrc/u8g2_d_setup.c ****   uint8_t tile_buf_height;
 1125              		.loc 1 142 0
 1126 0004 0E00     		movs	r6, r1
 1127              		.loc 1 146 0
 1128 0006 6D44     		add	r5, r5, sp
 145:..\..\u8g2\csrc/u8g2_d_setup.c ****   buf = u8g2_m_ssd1306_16_2(&tile_buf_height);
 1129              		.loc 1 145 0
 1130 0008 0093     		str	r3, [sp]
 1131 000a 0849     		ldr	r1, .L47
 1132              	.LVL166:
 1133 000c 1300     		movs	r3, r2
 1134              	.LVL167:
 1135 000e 084A     		ldr	r2, .L47+4
 1136              	.LVL168:
 142:..\..\u8g2\csrc/u8g2_d_setup.c ****   uint8_t tile_buf_height;
 1137              		.loc 1 142 0
 1138 0010 0400     		movs	r4, r0
 145:..\..\u8g2\csrc/u8g2_d_setup.c ****   buf = u8g2_m_ssd1306_16_2(&tile_buf_height);
 1139              		.loc 1 145 0
 1140 0012 FFF7FEFF 		bl	u8x8_Setup
 1141              	.LVL169:
 1142              		.loc 1 146 0
 1143 0016 2800     		movs	r0, r5
ARM GAS  C:\Users\Greg\AppData\Local\Temp\ccGRKbG3.s 			page 25


 1144 0018 FFF7FEFF 		bl	u8g2_m_ssd1306_16_2
 1145              	.LVL170:
 147:..\..\u8g2\csrc/u8g2_d_setup.c ****   u8g2_SetupBuffer(u8g2, buf, tile_buf_height, u8g2_ll_hvline_vertical_top_lsb, rotation);
 1146              		.loc 1 147 0
 1147 001c 2A78     		ldrb	r2, [r5]
 146:..\..\u8g2\csrc/u8g2_d_setup.c ****   u8g2_SetupBuffer(u8g2, buf, tile_buf_height, u8g2_ll_hvline_vertical_top_lsb, rotation);
 1148              		.loc 1 146 0
 1149 001e 0100     		movs	r1, r0
 1150              	.LVL171:
 1151              		.loc 1 147 0
 1152 0020 0096     		str	r6, [sp]
 1153 0022 044B     		ldr	r3, .L47+8
 1154 0024 2000     		movs	r0, r4
 1155              	.LVL172:
 1156 0026 FFF7FEFF 		bl	u8g2_SetupBuffer
 1157              	.LVL173:
 148:..\..\u8g2\csrc/u8g2_d_setup.c **** }
 1158              		.loc 1 148 0
 1159              		@ sp needed
 1160              	.LVL174:
 1161              	.LVL175:
 1162 002a 7FBD     		pop	{r0, r1, r2, r3, r4, r5, r6, pc}
 1163              	.L48:
 1164              		.align	2
 1165              	.L47:
 1166 002c 00000000 		.word	u8x8_d_ssd1306_128x64_vcomh0
 1167 0030 00000000 		.word	u8x8_cad_ssd13xx_i2c
 1168 0034 00000000 		.word	u8g2_ll_hvline_vertical_top_lsb
 1169              		.cfi_endproc
 1170              	.LFE15:
 1171              		.size	u8g2_Setup_ssd1306_i2c_128x64_vcomh0_2, .-u8g2_Setup_ssd1306_i2c_128x64_vcomh0_2
 1172              		.section	.text.u8g2_Setup_ssd1306_i2c_128x64_noname_f,"ax",%progbits
 1173              		.align	1
 1174              		.global	u8g2_Setup_ssd1306_i2c_128x64_noname_f
 1175              		.code	16
 1176              		.thumb_func
 1177              		.type	u8g2_Setup_ssd1306_i2c_128x64_noname_f, %function
 1178              	u8g2_Setup_ssd1306_i2c_128x64_noname_f:
 1179              	.LFB16:
 149:..\..\u8g2\csrc/u8g2_d_setup.c **** /* ssd1306 f */
 150:..\..\u8g2\csrc/u8g2_d_setup.c **** void u8g2_Setup_ssd1306_i2c_128x64_noname_f(u8g2_t *u8g2, const u8g2_cb_t *rotation, u8x8_msg_cb by
 151:..\..\u8g2\csrc/u8g2_d_setup.c **** {
 1180              		.loc 1 151 0
 1181              		.cfi_startproc
 1182              		@ args = 0, pretend = 0, frame = 8
 1183              		@ frame_needed = 0, uses_anonymous_args = 0
 1184              	.LVL176:
 1185 0000 7FB5     		push	{r0, r1, r2, r3, r4, r5, r6, lr}
 1186              		.cfi_def_cfa_offset 32
 1187              		.cfi_offset 0, -32
 1188              		.cfi_offset 1, -28
 1189              		.cfi_offset 2, -24
 1190              		.cfi_offset 3, -20
 1191              		.cfi_offset 4, -16
 1192              		.cfi_offset 5, -12
 1193              		.cfi_offset 6, -8
 1194              		.cfi_offset 14, -4
ARM GAS  C:\Users\Greg\AppData\Local\Temp\ccGRKbG3.s 			page 26


 152:..\..\u8g2\csrc/u8g2_d_setup.c ****   uint8_t tile_buf_height;
 153:..\..\u8g2\csrc/u8g2_d_setup.c ****   uint8_t *buf;
 154:..\..\u8g2\csrc/u8g2_d_setup.c ****   u8g2_SetupDisplay(u8g2, u8x8_d_ssd1306_128x64_noname, u8x8_cad_ssd13xx_i2c, byte_cb, gpio_and_del
 155:..\..\u8g2\csrc/u8g2_d_setup.c ****   buf = u8g2_m_ssd1306_16_f(&tile_buf_height);
 1195              		.loc 1 155 0
 1196 0002 0F25     		movs	r5, #15
 151:..\..\u8g2\csrc/u8g2_d_setup.c ****   uint8_t tile_buf_height;
 1197              		.loc 1 151 0
 1198 0004 0E00     		movs	r6, r1
 1199              		.loc 1 155 0
 1200 0006 6D44     		add	r5, r5, sp
 154:..\..\u8g2\csrc/u8g2_d_setup.c ****   buf = u8g2_m_ssd1306_16_f(&tile_buf_height);
 1201              		.loc 1 154 0
 1202 0008 0093     		str	r3, [sp]
 1203 000a 0849     		ldr	r1, .L50
 1204              	.LVL177:
 1205 000c 1300     		movs	r3, r2
 1206              	.LVL178:
 1207 000e 084A     		ldr	r2, .L50+4
 1208              	.LVL179:
 151:..\..\u8g2\csrc/u8g2_d_setup.c ****   uint8_t tile_buf_height;
 1209              		.loc 1 151 0
 1210 0010 0400     		movs	r4, r0
 154:..\..\u8g2\csrc/u8g2_d_setup.c ****   buf = u8g2_m_ssd1306_16_f(&tile_buf_height);
 1211              		.loc 1 154 0
 1212 0012 FFF7FEFF 		bl	u8x8_Setup
 1213              	.LVL180:
 1214              		.loc 1 155 0
 1215 0016 2800     		movs	r0, r5
 1216 0018 FFF7FEFF 		bl	u8g2_m_ssd1306_16_f
 1217              	.LVL181:
 156:..\..\u8g2\csrc/u8g2_d_setup.c ****   u8g2_SetupBuffer(u8g2, buf, tile_buf_height, u8g2_ll_hvline_vertical_top_lsb, rotation);
 1218              		.loc 1 156 0
 1219 001c 2A78     		ldrb	r2, [r5]
 155:..\..\u8g2\csrc/u8g2_d_setup.c ****   u8g2_SetupBuffer(u8g2, buf, tile_buf_height, u8g2_ll_hvline_vertical_top_lsb, rotation);
 1220              		.loc 1 155 0
 1221 001e 0100     		movs	r1, r0
 1222              	.LVL182:
 1223              		.loc 1 156 0
 1224 0020 0096     		str	r6, [sp]
 1225 0022 044B     		ldr	r3, .L50+8
 1226 0024 2000     		movs	r0, r4
 1227              	.LVL183:
 1228 0026 FFF7FEFF 		bl	u8g2_SetupBuffer
 1229              	.LVL184:
 157:..\..\u8g2\csrc/u8g2_d_setup.c **** }
 1230              		.loc 1 157 0
 1231              		@ sp needed
 1232              	.LVL185:
 1233              	.LVL186:
 1234 002a 7FBD     		pop	{r0, r1, r2, r3, r4, r5, r6, pc}
 1235              	.L51:
 1236              		.align	2
 1237              	.L50:
 1238 002c 00000000 		.word	u8x8_d_ssd1306_128x64_noname
 1239 0030 00000000 		.word	u8x8_cad_ssd13xx_i2c
 1240 0034 00000000 		.word	u8g2_ll_hvline_vertical_top_lsb
ARM GAS  C:\Users\Greg\AppData\Local\Temp\ccGRKbG3.s 			page 27


 1241              		.cfi_endproc
 1242              	.LFE16:
 1243              		.size	u8g2_Setup_ssd1306_i2c_128x64_noname_f, .-u8g2_Setup_ssd1306_i2c_128x64_noname_f
 1244              		.section	.text.u8g2_Setup_ssd1306_i2c_128x64_vcomh0_f,"ax",%progbits
 1245              		.align	1
 1246              		.global	u8g2_Setup_ssd1306_i2c_128x64_vcomh0_f
 1247              		.code	16
 1248              		.thumb_func
 1249              		.type	u8g2_Setup_ssd1306_i2c_128x64_vcomh0_f, %function
 1250              	u8g2_Setup_ssd1306_i2c_128x64_vcomh0_f:
 1251              	.LFB17:
 158:..\..\u8g2\csrc/u8g2_d_setup.c **** void u8g2_Setup_ssd1306_i2c_128x64_vcomh0_f(u8g2_t *u8g2, const u8g2_cb_t *rotation, u8x8_msg_cb by
 159:..\..\u8g2\csrc/u8g2_d_setup.c **** {
 1252              		.loc 1 159 0
 1253              		.cfi_startproc
 1254              		@ args = 0, pretend = 0, frame = 8
 1255              		@ frame_needed = 0, uses_anonymous_args = 0
 1256              	.LVL187:
 1257 0000 7FB5     		push	{r0, r1, r2, r3, r4, r5, r6, lr}
 1258              		.cfi_def_cfa_offset 32
 1259              		.cfi_offset 0, -32
 1260              		.cfi_offset 1, -28
 1261              		.cfi_offset 2, -24
 1262              		.cfi_offset 3, -20
 1263              		.cfi_offset 4, -16
 1264              		.cfi_offset 5, -12
 1265              		.cfi_offset 6, -8
 1266              		.cfi_offset 14, -4
 160:..\..\u8g2\csrc/u8g2_d_setup.c ****   uint8_t tile_buf_height;
 161:..\..\u8g2\csrc/u8g2_d_setup.c ****   uint8_t *buf;
 162:..\..\u8g2\csrc/u8g2_d_setup.c ****   u8g2_SetupDisplay(u8g2, u8x8_d_ssd1306_128x64_vcomh0, u8x8_cad_ssd13xx_i2c, byte_cb, gpio_and_del
 163:..\..\u8g2\csrc/u8g2_d_setup.c ****   buf = u8g2_m_ssd1306_16_f(&tile_buf_height);
 1267              		.loc 1 163 0
 1268 0002 0F25     		movs	r5, #15
 159:..\..\u8g2\csrc/u8g2_d_setup.c ****   uint8_t tile_buf_height;
 1269              		.loc 1 159 0
 1270 0004 0E00     		movs	r6, r1
 1271              		.loc 1 163 0
 1272 0006 6D44     		add	r5, r5, sp
 162:..\..\u8g2\csrc/u8g2_d_setup.c ****   buf = u8g2_m_ssd1306_16_f(&tile_buf_height);
 1273              		.loc 1 162 0
 1274 0008 0093     		str	r3, [sp]
 1275 000a 0849     		ldr	r1, .L53
 1276              	.LVL188:
 1277 000c 1300     		movs	r3, r2
 1278              	.LVL189:
 1279 000e 084A     		ldr	r2, .L53+4
 1280              	.LVL190:
 159:..\..\u8g2\csrc/u8g2_d_setup.c ****   uint8_t tile_buf_height;
 1281              		.loc 1 159 0
 1282 0010 0400     		movs	r4, r0
 162:..\..\u8g2\csrc/u8g2_d_setup.c ****   buf = u8g2_m_ssd1306_16_f(&tile_buf_height);
 1283              		.loc 1 162 0
 1284 0012 FFF7FEFF 		bl	u8x8_Setup
 1285              	.LVL191:
 1286              		.loc 1 163 0
 1287 0016 2800     		movs	r0, r5
ARM GAS  C:\Users\Greg\AppData\Local\Temp\ccGRKbG3.s 			page 28


 1288 0018 FFF7FEFF 		bl	u8g2_m_ssd1306_16_f
 1289              	.LVL192:
 164:..\..\u8g2\csrc/u8g2_d_setup.c ****   u8g2_SetupBuffer(u8g2, buf, tile_buf_height, u8g2_ll_hvline_vertical_top_lsb, rotation);
 1290              		.loc 1 164 0
 1291 001c 2A78     		ldrb	r2, [r5]
 163:..\..\u8g2\csrc/u8g2_d_setup.c ****   u8g2_SetupBuffer(u8g2, buf, tile_buf_height, u8g2_ll_hvline_vertical_top_lsb, rotation);
 1292              		.loc 1 163 0
 1293 001e 0100     		movs	r1, r0
 1294              	.LVL193:
 1295              		.loc 1 164 0
 1296 0020 0096     		str	r6, [sp]
 1297 0022 044B     		ldr	r3, .L53+8
 1298 0024 2000     		movs	r0, r4
 1299              	.LVL194:
 1300 0026 FFF7FEFF 		bl	u8g2_SetupBuffer
 1301              	.LVL195:
 165:..\..\u8g2\csrc/u8g2_d_setup.c **** }
 1302              		.loc 1 165 0
 1303              		@ sp needed
 1304              	.LVL196:
 1305              	.LVL197:
 1306 002a 7FBD     		pop	{r0, r1, r2, r3, r4, r5, r6, pc}
 1307              	.L54:
 1308              		.align	2
 1309              	.L53:
 1310 002c 00000000 		.word	u8x8_d_ssd1306_128x64_vcomh0
 1311 0030 00000000 		.word	u8x8_cad_ssd13xx_i2c
 1312 0034 00000000 		.word	u8g2_ll_hvline_vertical_top_lsb
 1313              		.cfi_endproc
 1314              	.LFE17:
 1315              		.size	u8g2_Setup_ssd1306_i2c_128x64_vcomh0_f, .-u8g2_Setup_ssd1306_i2c_128x64_vcomh0_f
 1316              		.section	.text.u8g2_Setup_sh1106_128x64_noname_1,"ax",%progbits
 1317              		.align	1
 1318              		.global	u8g2_Setup_sh1106_128x64_noname_1
 1319              		.code	16
 1320              		.thumb_func
 1321              		.type	u8g2_Setup_sh1106_128x64_noname_1, %function
 1322              	u8g2_Setup_sh1106_128x64_noname_1:
 1323              	.LFB18:
 166:..\..\u8g2\csrc/u8g2_d_setup.c **** /* sh1106 */
 167:..\..\u8g2\csrc/u8g2_d_setup.c **** /* sh1106 1 */
 168:..\..\u8g2\csrc/u8g2_d_setup.c **** void u8g2_Setup_sh1106_128x64_noname_1(u8g2_t *u8g2, const u8g2_cb_t *rotation, u8x8_msg_cb byte_cb
 169:..\..\u8g2\csrc/u8g2_d_setup.c **** {
 1324              		.loc 1 169 0
 1325              		.cfi_startproc
 1326              		@ args = 0, pretend = 0, frame = 8
 1327              		@ frame_needed = 0, uses_anonymous_args = 0
 1328              	.LVL198:
 1329 0000 7FB5     		push	{r0, r1, r2, r3, r4, r5, r6, lr}
 1330              		.cfi_def_cfa_offset 32
 1331              		.cfi_offset 0, -32
 1332              		.cfi_offset 1, -28
 1333              		.cfi_offset 2, -24
 1334              		.cfi_offset 3, -20
 1335              		.cfi_offset 4, -16
 1336              		.cfi_offset 5, -12
 1337              		.cfi_offset 6, -8
ARM GAS  C:\Users\Greg\AppData\Local\Temp\ccGRKbG3.s 			page 29


 1338              		.cfi_offset 14, -4
 170:..\..\u8g2\csrc/u8g2_d_setup.c ****   uint8_t tile_buf_height;
 171:..\..\u8g2\csrc/u8g2_d_setup.c ****   uint8_t *buf;
 172:..\..\u8g2\csrc/u8g2_d_setup.c ****   u8g2_SetupDisplay(u8g2, u8x8_d_sh1106_128x64_noname, u8x8_cad_001, byte_cb, gpio_and_delay_cb);
 173:..\..\u8g2\csrc/u8g2_d_setup.c ****   buf = u8g2_m_sh1106_16_1(&tile_buf_height);
 1339              		.loc 1 173 0
 1340 0002 0F25     		movs	r5, #15
 169:..\..\u8g2\csrc/u8g2_d_setup.c ****   uint8_t tile_buf_height;
 1341              		.loc 1 169 0
 1342 0004 0E00     		movs	r6, r1
 1343              		.loc 1 173 0
 1344 0006 6D44     		add	r5, r5, sp
 172:..\..\u8g2\csrc/u8g2_d_setup.c ****   buf = u8g2_m_sh1106_16_1(&tile_buf_height);
 1345              		.loc 1 172 0
 1346 0008 0093     		str	r3, [sp]
 1347 000a 0849     		ldr	r1, .L56
 1348              	.LVL199:
 1349 000c 1300     		movs	r3, r2
 1350              	.LVL200:
 1351 000e 084A     		ldr	r2, .L56+4
 1352              	.LVL201:
 169:..\..\u8g2\csrc/u8g2_d_setup.c ****   uint8_t tile_buf_height;
 1353              		.loc 1 169 0
 1354 0010 0400     		movs	r4, r0
 172:..\..\u8g2\csrc/u8g2_d_setup.c ****   buf = u8g2_m_sh1106_16_1(&tile_buf_height);
 1355              		.loc 1 172 0
 1356 0012 FFF7FEFF 		bl	u8x8_Setup
 1357              	.LVL202:
 1358              		.loc 1 173 0
 1359 0016 2800     		movs	r0, r5
 1360 0018 FFF7FEFF 		bl	u8g2_m_sh1106_16_1
 1361              	.LVL203:
 174:..\..\u8g2\csrc/u8g2_d_setup.c ****   u8g2_SetupBuffer(u8g2, buf, tile_buf_height, u8g2_ll_hvline_vertical_top_lsb, rotation);
 1362              		.loc 1 174 0
 1363 001c 2A78     		ldrb	r2, [r5]
 173:..\..\u8g2\csrc/u8g2_d_setup.c ****   u8g2_SetupBuffer(u8g2, buf, tile_buf_height, u8g2_ll_hvline_vertical_top_lsb, rotation);
 1364              		.loc 1 173 0
 1365 001e 0100     		movs	r1, r0
 1366              	.LVL204:
 1367              		.loc 1 174 0
 1368 0020 0096     		str	r6, [sp]
 1369 0022 044B     		ldr	r3, .L56+8
 1370 0024 2000     		movs	r0, r4
 1371              	.LVL205:
 1372 0026 FFF7FEFF 		bl	u8g2_SetupBuffer
 1373              	.LVL206:
 175:..\..\u8g2\csrc/u8g2_d_setup.c **** }
 1374              		.loc 1 175 0
 1375              		@ sp needed
 1376              	.LVL207:
 1377              	.LVL208:
 1378 002a 7FBD     		pop	{r0, r1, r2, r3, r4, r5, r6, pc}
 1379              	.L57:
 1380              		.align	2
 1381              	.L56:
 1382 002c 00000000 		.word	u8x8_d_sh1106_128x64_noname
 1383 0030 00000000 		.word	u8x8_cad_001
ARM GAS  C:\Users\Greg\AppData\Local\Temp\ccGRKbG3.s 			page 30


 1384 0034 00000000 		.word	u8g2_ll_hvline_vertical_top_lsb
 1385              		.cfi_endproc
 1386              	.LFE18:
 1387              		.size	u8g2_Setup_sh1106_128x64_noname_1, .-u8g2_Setup_sh1106_128x64_noname_1
 1388              		.section	.text.u8g2_Setup_sh1106_128x64_vcomh0_1,"ax",%progbits
 1389              		.align	1
 1390              		.global	u8g2_Setup_sh1106_128x64_vcomh0_1
 1391              		.code	16
 1392              		.thumb_func
 1393              		.type	u8g2_Setup_sh1106_128x64_vcomh0_1, %function
 1394              	u8g2_Setup_sh1106_128x64_vcomh0_1:
 1395              	.LFB19:
 176:..\..\u8g2\csrc/u8g2_d_setup.c **** void u8g2_Setup_sh1106_128x64_vcomh0_1(u8g2_t *u8g2, const u8g2_cb_t *rotation, u8x8_msg_cb byte_cb
 177:..\..\u8g2\csrc/u8g2_d_setup.c **** {
 1396              		.loc 1 177 0
 1397              		.cfi_startproc
 1398              		@ args = 0, pretend = 0, frame = 8
 1399              		@ frame_needed = 0, uses_anonymous_args = 0
 1400              	.LVL209:
 1401 0000 7FB5     		push	{r0, r1, r2, r3, r4, r5, r6, lr}
 1402              		.cfi_def_cfa_offset 32
 1403              		.cfi_offset 0, -32
 1404              		.cfi_offset 1, -28
 1405              		.cfi_offset 2, -24
 1406              		.cfi_offset 3, -20
 1407              		.cfi_offset 4, -16
 1408              		.cfi_offset 5, -12
 1409              		.cfi_offset 6, -8
 1410              		.cfi_offset 14, -4
 178:..\..\u8g2\csrc/u8g2_d_setup.c ****   uint8_t tile_buf_height;
 179:..\..\u8g2\csrc/u8g2_d_setup.c ****   uint8_t *buf;
 180:..\..\u8g2\csrc/u8g2_d_setup.c ****   u8g2_SetupDisplay(u8g2, u8x8_d_sh1106_128x64_vcomh0, u8x8_cad_001, byte_cb, gpio_and_delay_cb);
 181:..\..\u8g2\csrc/u8g2_d_setup.c ****   buf = u8g2_m_sh1106_16_1(&tile_buf_height);
 1411              		.loc 1 181 0
 1412 0002 0F25     		movs	r5, #15
 177:..\..\u8g2\csrc/u8g2_d_setup.c ****   uint8_t tile_buf_height;
 1413              		.loc 1 177 0
 1414 0004 0E00     		movs	r6, r1
 1415              		.loc 1 181 0
 1416 0006 6D44     		add	r5, r5, sp
 180:..\..\u8g2\csrc/u8g2_d_setup.c ****   buf = u8g2_m_sh1106_16_1(&tile_buf_height);
 1417              		.loc 1 180 0
 1418 0008 0093     		str	r3, [sp]
 1419 000a 0849     		ldr	r1, .L59
 1420              	.LVL210:
 1421 000c 1300     		movs	r3, r2
 1422              	.LVL211:
 1423 000e 084A     		ldr	r2, .L59+4
 1424              	.LVL212:
 177:..\..\u8g2\csrc/u8g2_d_setup.c ****   uint8_t tile_buf_height;
 1425              		.loc 1 177 0
 1426 0010 0400     		movs	r4, r0
 180:..\..\u8g2\csrc/u8g2_d_setup.c ****   buf = u8g2_m_sh1106_16_1(&tile_buf_height);
 1427              		.loc 1 180 0
 1428 0012 FFF7FEFF 		bl	u8x8_Setup
 1429              	.LVL213:
 1430              		.loc 1 181 0
ARM GAS  C:\Users\Greg\AppData\Local\Temp\ccGRKbG3.s 			page 31


 1431 0016 2800     		movs	r0, r5
 1432 0018 FFF7FEFF 		bl	u8g2_m_sh1106_16_1
 1433              	.LVL214:
 182:..\..\u8g2\csrc/u8g2_d_setup.c ****   u8g2_SetupBuffer(u8g2, buf, tile_buf_height, u8g2_ll_hvline_vertical_top_lsb, rotation);
 1434              		.loc 1 182 0
 1435 001c 2A78     		ldrb	r2, [r5]
 181:..\..\u8g2\csrc/u8g2_d_setup.c ****   u8g2_SetupBuffer(u8g2, buf, tile_buf_height, u8g2_ll_hvline_vertical_top_lsb, rotation);
 1436              		.loc 1 181 0
 1437 001e 0100     		movs	r1, r0
 1438              	.LVL215:
 1439              		.loc 1 182 0
 1440 0020 0096     		str	r6, [sp]
 1441 0022 044B     		ldr	r3, .L59+8
 1442 0024 2000     		movs	r0, r4
 1443              	.LVL216:
 1444 0026 FFF7FEFF 		bl	u8g2_SetupBuffer
 1445              	.LVL217:
 183:..\..\u8g2\csrc/u8g2_d_setup.c **** }
 1446              		.loc 1 183 0
 1447              		@ sp needed
 1448              	.LVL218:
 1449              	.LVL219:
 1450 002a 7FBD     		pop	{r0, r1, r2, r3, r4, r5, r6, pc}
 1451              	.L60:
 1452              		.align	2
 1453              	.L59:
 1454 002c 00000000 		.word	u8x8_d_sh1106_128x64_vcomh0
 1455 0030 00000000 		.word	u8x8_cad_001
 1456 0034 00000000 		.word	u8g2_ll_hvline_vertical_top_lsb
 1457              		.cfi_endproc
 1458              	.LFE19:
 1459              		.size	u8g2_Setup_sh1106_128x64_vcomh0_1, .-u8g2_Setup_sh1106_128x64_vcomh0_1
 1460              		.section	.text.u8g2_Setup_sh1106_128x64_noname_2,"ax",%progbits
 1461              		.align	1
 1462              		.global	u8g2_Setup_sh1106_128x64_noname_2
 1463              		.code	16
 1464              		.thumb_func
 1465              		.type	u8g2_Setup_sh1106_128x64_noname_2, %function
 1466              	u8g2_Setup_sh1106_128x64_noname_2:
 1467              	.LFB20:
 184:..\..\u8g2\csrc/u8g2_d_setup.c **** /* sh1106 2 */
 185:..\..\u8g2\csrc/u8g2_d_setup.c **** void u8g2_Setup_sh1106_128x64_noname_2(u8g2_t *u8g2, const u8g2_cb_t *rotation, u8x8_msg_cb byte_cb
 186:..\..\u8g2\csrc/u8g2_d_setup.c **** {
 1468              		.loc 1 186 0
 1469              		.cfi_startproc
 1470              		@ args = 0, pretend = 0, frame = 8
 1471              		@ frame_needed = 0, uses_anonymous_args = 0
 1472              	.LVL220:
 1473 0000 7FB5     		push	{r0, r1, r2, r3, r4, r5, r6, lr}
 1474              		.cfi_def_cfa_offset 32
 1475              		.cfi_offset 0, -32
 1476              		.cfi_offset 1, -28
 1477              		.cfi_offset 2, -24
 1478              		.cfi_offset 3, -20
 1479              		.cfi_offset 4, -16
 1480              		.cfi_offset 5, -12
 1481              		.cfi_offset 6, -8
ARM GAS  C:\Users\Greg\AppData\Local\Temp\ccGRKbG3.s 			page 32


 1482              		.cfi_offset 14, -4
 187:..\..\u8g2\csrc/u8g2_d_setup.c ****   uint8_t tile_buf_height;
 188:..\..\u8g2\csrc/u8g2_d_setup.c ****   uint8_t *buf;
 189:..\..\u8g2\csrc/u8g2_d_setup.c ****   u8g2_SetupDisplay(u8g2, u8x8_d_sh1106_128x64_noname, u8x8_cad_001, byte_cb, gpio_and_delay_cb);
 190:..\..\u8g2\csrc/u8g2_d_setup.c ****   buf = u8g2_m_sh1106_16_2(&tile_buf_height);
 1483              		.loc 1 190 0
 1484 0002 0F25     		movs	r5, #15
 186:..\..\u8g2\csrc/u8g2_d_setup.c ****   uint8_t tile_buf_height;
 1485              		.loc 1 186 0
 1486 0004 0E00     		movs	r6, r1
 1487              		.loc 1 190 0
 1488 0006 6D44     		add	r5, r5, sp
 189:..\..\u8g2\csrc/u8g2_d_setup.c ****   buf = u8g2_m_sh1106_16_2(&tile_buf_height);
 1489              		.loc 1 189 0
 1490 0008 0093     		str	r3, [sp]
 1491 000a 0849     		ldr	r1, .L62
 1492              	.LVL221:
 1493 000c 1300     		movs	r3, r2
 1494              	.LVL222:
 1495 000e 084A     		ldr	r2, .L62+4
 1496              	.LVL223:
 186:..\..\u8g2\csrc/u8g2_d_setup.c ****   uint8_t tile_buf_height;
 1497              		.loc 1 186 0
 1498 0010 0400     		movs	r4, r0
 189:..\..\u8g2\csrc/u8g2_d_setup.c ****   buf = u8g2_m_sh1106_16_2(&tile_buf_height);
 1499              		.loc 1 189 0
 1500 0012 FFF7FEFF 		bl	u8x8_Setup
 1501              	.LVL224:
 1502              		.loc 1 190 0
 1503 0016 2800     		movs	r0, r5
 1504 0018 FFF7FEFF 		bl	u8g2_m_sh1106_16_2
 1505              	.LVL225:
 191:..\..\u8g2\csrc/u8g2_d_setup.c ****   u8g2_SetupBuffer(u8g2, buf, tile_buf_height, u8g2_ll_hvline_vertical_top_lsb, rotation);
 1506              		.loc 1 191 0
 1507 001c 2A78     		ldrb	r2, [r5]
 190:..\..\u8g2\csrc/u8g2_d_setup.c ****   u8g2_SetupBuffer(u8g2, buf, tile_buf_height, u8g2_ll_hvline_vertical_top_lsb, rotation);
 1508              		.loc 1 190 0
 1509 001e 0100     		movs	r1, r0
 1510              	.LVL226:
 1511              		.loc 1 191 0
 1512 0020 0096     		str	r6, [sp]
 1513 0022 044B     		ldr	r3, .L62+8
 1514 0024 2000     		movs	r0, r4
 1515              	.LVL227:
 1516 0026 FFF7FEFF 		bl	u8g2_SetupBuffer
 1517              	.LVL228:
 192:..\..\u8g2\csrc/u8g2_d_setup.c **** }
 1518              		.loc 1 192 0
 1519              		@ sp needed
 1520              	.LVL229:
 1521              	.LVL230:
 1522 002a 7FBD     		pop	{r0, r1, r2, r3, r4, r5, r6, pc}
 1523              	.L63:
 1524              		.align	2
 1525              	.L62:
 1526 002c 00000000 		.word	u8x8_d_sh1106_128x64_noname
 1527 0030 00000000 		.word	u8x8_cad_001
ARM GAS  C:\Users\Greg\AppData\Local\Temp\ccGRKbG3.s 			page 33


 1528 0034 00000000 		.word	u8g2_ll_hvline_vertical_top_lsb
 1529              		.cfi_endproc
 1530              	.LFE20:
 1531              		.size	u8g2_Setup_sh1106_128x64_noname_2, .-u8g2_Setup_sh1106_128x64_noname_2
 1532              		.section	.text.u8g2_Setup_sh1106_128x64_vcomh0_2,"ax",%progbits
 1533              		.align	1
 1534              		.global	u8g2_Setup_sh1106_128x64_vcomh0_2
 1535              		.code	16
 1536              		.thumb_func
 1537              		.type	u8g2_Setup_sh1106_128x64_vcomh0_2, %function
 1538              	u8g2_Setup_sh1106_128x64_vcomh0_2:
 1539              	.LFB21:
 193:..\..\u8g2\csrc/u8g2_d_setup.c **** void u8g2_Setup_sh1106_128x64_vcomh0_2(u8g2_t *u8g2, const u8g2_cb_t *rotation, u8x8_msg_cb byte_cb
 194:..\..\u8g2\csrc/u8g2_d_setup.c **** {
 1540              		.loc 1 194 0
 1541              		.cfi_startproc
 1542              		@ args = 0, pretend = 0, frame = 8
 1543              		@ frame_needed = 0, uses_anonymous_args = 0
 1544              	.LVL231:
 1545 0000 7FB5     		push	{r0, r1, r2, r3, r4, r5, r6, lr}
 1546              		.cfi_def_cfa_offset 32
 1547              		.cfi_offset 0, -32
 1548              		.cfi_offset 1, -28
 1549              		.cfi_offset 2, -24
 1550              		.cfi_offset 3, -20
 1551              		.cfi_offset 4, -16
 1552              		.cfi_offset 5, -12
 1553              		.cfi_offset 6, -8
 1554              		.cfi_offset 14, -4
 195:..\..\u8g2\csrc/u8g2_d_setup.c ****   uint8_t tile_buf_height;
 196:..\..\u8g2\csrc/u8g2_d_setup.c ****   uint8_t *buf;
 197:..\..\u8g2\csrc/u8g2_d_setup.c ****   u8g2_SetupDisplay(u8g2, u8x8_d_sh1106_128x64_vcomh0, u8x8_cad_001, byte_cb, gpio_and_delay_cb);
 198:..\..\u8g2\csrc/u8g2_d_setup.c ****   buf = u8g2_m_sh1106_16_2(&tile_buf_height);
 1555              		.loc 1 198 0
 1556 0002 0F25     		movs	r5, #15
 194:..\..\u8g2\csrc/u8g2_d_setup.c ****   uint8_t tile_buf_height;
 1557              		.loc 1 194 0
 1558 0004 0E00     		movs	r6, r1
 1559              		.loc 1 198 0
 1560 0006 6D44     		add	r5, r5, sp
 197:..\..\u8g2\csrc/u8g2_d_setup.c ****   buf = u8g2_m_sh1106_16_2(&tile_buf_height);
 1561              		.loc 1 197 0
 1562 0008 0093     		str	r3, [sp]
 1563 000a 0849     		ldr	r1, .L65
 1564              	.LVL232:
 1565 000c 1300     		movs	r3, r2
 1566              	.LVL233:
 1567 000e 084A     		ldr	r2, .L65+4
 1568              	.LVL234:
 194:..\..\u8g2\csrc/u8g2_d_setup.c ****   uint8_t tile_buf_height;
 1569              		.loc 1 194 0
 1570 0010 0400     		movs	r4, r0
 197:..\..\u8g2\csrc/u8g2_d_setup.c ****   buf = u8g2_m_sh1106_16_2(&tile_buf_height);
 1571              		.loc 1 197 0
 1572 0012 FFF7FEFF 		bl	u8x8_Setup
 1573              	.LVL235:
 1574              		.loc 1 198 0
ARM GAS  C:\Users\Greg\AppData\Local\Temp\ccGRKbG3.s 			page 34


 1575 0016 2800     		movs	r0, r5
 1576 0018 FFF7FEFF 		bl	u8g2_m_sh1106_16_2
 1577              	.LVL236:
 199:..\..\u8g2\csrc/u8g2_d_setup.c ****   u8g2_SetupBuffer(u8g2, buf, tile_buf_height, u8g2_ll_hvline_vertical_top_lsb, rotation);
 1578              		.loc 1 199 0
 1579 001c 2A78     		ldrb	r2, [r5]
 198:..\..\u8g2\csrc/u8g2_d_setup.c ****   u8g2_SetupBuffer(u8g2, buf, tile_buf_height, u8g2_ll_hvline_vertical_top_lsb, rotation);
 1580              		.loc 1 198 0
 1581 001e 0100     		movs	r1, r0
 1582              	.LVL237:
 1583              		.loc 1 199 0
 1584 0020 0096     		str	r6, [sp]
 1585 0022 044B     		ldr	r3, .L65+8
 1586 0024 2000     		movs	r0, r4
 1587              	.LVL238:
 1588 0026 FFF7FEFF 		bl	u8g2_SetupBuffer
 1589              	.LVL239:
 200:..\..\u8g2\csrc/u8g2_d_setup.c **** }
 1590              		.loc 1 200 0
 1591              		@ sp needed
 1592              	.LVL240:
 1593              	.LVL241:
 1594 002a 7FBD     		pop	{r0, r1, r2, r3, r4, r5, r6, pc}
 1595              	.L66:
 1596              		.align	2
 1597              	.L65:
 1598 002c 00000000 		.word	u8x8_d_sh1106_128x64_vcomh0
 1599 0030 00000000 		.word	u8x8_cad_001
 1600 0034 00000000 		.word	u8g2_ll_hvline_vertical_top_lsb
 1601              		.cfi_endproc
 1602              	.LFE21:
 1603              		.size	u8g2_Setup_sh1106_128x64_vcomh0_2, .-u8g2_Setup_sh1106_128x64_vcomh0_2
 1604              		.section	.text.u8g2_Setup_sh1106_128x64_noname_f,"ax",%progbits
 1605              		.align	1
 1606              		.global	u8g2_Setup_sh1106_128x64_noname_f
 1607              		.code	16
 1608              		.thumb_func
 1609              		.type	u8g2_Setup_sh1106_128x64_noname_f, %function
 1610              	u8g2_Setup_sh1106_128x64_noname_f:
 1611              	.LFB22:
 201:..\..\u8g2\csrc/u8g2_d_setup.c **** /* sh1106 f */
 202:..\..\u8g2\csrc/u8g2_d_setup.c **** void u8g2_Setup_sh1106_128x64_noname_f(u8g2_t *u8g2, const u8g2_cb_t *rotation, u8x8_msg_cb byte_cb
 203:..\..\u8g2\csrc/u8g2_d_setup.c **** {
 1612              		.loc 1 203 0
 1613              		.cfi_startproc
 1614              		@ args = 0, pretend = 0, frame = 8
 1615              		@ frame_needed = 0, uses_anonymous_args = 0
 1616              	.LVL242:
 1617 0000 7FB5     		push	{r0, r1, r2, r3, r4, r5, r6, lr}
 1618              		.cfi_def_cfa_offset 32
 1619              		.cfi_offset 0, -32
 1620              		.cfi_offset 1, -28
 1621              		.cfi_offset 2, -24
 1622              		.cfi_offset 3, -20
 1623              		.cfi_offset 4, -16
 1624              		.cfi_offset 5, -12
 1625              		.cfi_offset 6, -8
ARM GAS  C:\Users\Greg\AppData\Local\Temp\ccGRKbG3.s 			page 35


 1626              		.cfi_offset 14, -4
 204:..\..\u8g2\csrc/u8g2_d_setup.c ****   uint8_t tile_buf_height;
 205:..\..\u8g2\csrc/u8g2_d_setup.c ****   uint8_t *buf;
 206:..\..\u8g2\csrc/u8g2_d_setup.c ****   u8g2_SetupDisplay(u8g2, u8x8_d_sh1106_128x64_noname, u8x8_cad_001, byte_cb, gpio_and_delay_cb);
 207:..\..\u8g2\csrc/u8g2_d_setup.c ****   buf = u8g2_m_sh1106_16_f(&tile_buf_height);
 1627              		.loc 1 207 0
 1628 0002 0F25     		movs	r5, #15
 203:..\..\u8g2\csrc/u8g2_d_setup.c ****   uint8_t tile_buf_height;
 1629              		.loc 1 203 0
 1630 0004 0E00     		movs	r6, r1
 1631              		.loc 1 207 0
 1632 0006 6D44     		add	r5, r5, sp
 206:..\..\u8g2\csrc/u8g2_d_setup.c ****   buf = u8g2_m_sh1106_16_f(&tile_buf_height);
 1633              		.loc 1 206 0
 1634 0008 0093     		str	r3, [sp]
 1635 000a 0849     		ldr	r1, .L68
 1636              	.LVL243:
 1637 000c 1300     		movs	r3, r2
 1638              	.LVL244:
 1639 000e 084A     		ldr	r2, .L68+4
 1640              	.LVL245:
 203:..\..\u8g2\csrc/u8g2_d_setup.c ****   uint8_t tile_buf_height;
 1641              		.loc 1 203 0
 1642 0010 0400     		movs	r4, r0
 206:..\..\u8g2\csrc/u8g2_d_setup.c ****   buf = u8g2_m_sh1106_16_f(&tile_buf_height);
 1643              		.loc 1 206 0
 1644 0012 FFF7FEFF 		bl	u8x8_Setup
 1645              	.LVL246:
 1646              		.loc 1 207 0
 1647 0016 2800     		movs	r0, r5
 1648 0018 FFF7FEFF 		bl	u8g2_m_sh1106_16_f
 1649              	.LVL247:
 208:..\..\u8g2\csrc/u8g2_d_setup.c ****   u8g2_SetupBuffer(u8g2, buf, tile_buf_height, u8g2_ll_hvline_vertical_top_lsb, rotation);
 1650              		.loc 1 208 0
 1651 001c 2A78     		ldrb	r2, [r5]
 207:..\..\u8g2\csrc/u8g2_d_setup.c ****   u8g2_SetupBuffer(u8g2, buf, tile_buf_height, u8g2_ll_hvline_vertical_top_lsb, rotation);
 1652              		.loc 1 207 0
 1653 001e 0100     		movs	r1, r0
 1654              	.LVL248:
 1655              		.loc 1 208 0
 1656 0020 0096     		str	r6, [sp]
 1657 0022 044B     		ldr	r3, .L68+8
 1658 0024 2000     		movs	r0, r4
 1659              	.LVL249:
 1660 0026 FFF7FEFF 		bl	u8g2_SetupBuffer
 1661              	.LVL250:
 209:..\..\u8g2\csrc/u8g2_d_setup.c **** }
 1662              		.loc 1 209 0
 1663              		@ sp needed
 1664              	.LVL251:
 1665              	.LVL252:
 1666 002a 7FBD     		pop	{r0, r1, r2, r3, r4, r5, r6, pc}
 1667              	.L69:
 1668              		.align	2
 1669              	.L68:
 1670 002c 00000000 		.word	u8x8_d_sh1106_128x64_noname
 1671 0030 00000000 		.word	u8x8_cad_001
ARM GAS  C:\Users\Greg\AppData\Local\Temp\ccGRKbG3.s 			page 36


 1672 0034 00000000 		.word	u8g2_ll_hvline_vertical_top_lsb
 1673              		.cfi_endproc
 1674              	.LFE22:
 1675              		.size	u8g2_Setup_sh1106_128x64_noname_f, .-u8g2_Setup_sh1106_128x64_noname_f
 1676              		.section	.text.u8g2_Setup_sh1106_128x64_vcomh0_f,"ax",%progbits
 1677              		.align	1
 1678              		.global	u8g2_Setup_sh1106_128x64_vcomh0_f
 1679              		.code	16
 1680              		.thumb_func
 1681              		.type	u8g2_Setup_sh1106_128x64_vcomh0_f, %function
 1682              	u8g2_Setup_sh1106_128x64_vcomh0_f:
 1683              	.LFB23:
 210:..\..\u8g2\csrc/u8g2_d_setup.c **** void u8g2_Setup_sh1106_128x64_vcomh0_f(u8g2_t *u8g2, const u8g2_cb_t *rotation, u8x8_msg_cb byte_cb
 211:..\..\u8g2\csrc/u8g2_d_setup.c **** {
 1684              		.loc 1 211 0
 1685              		.cfi_startproc
 1686              		@ args = 0, pretend = 0, frame = 8
 1687              		@ frame_needed = 0, uses_anonymous_args = 0
 1688              	.LVL253:
 1689 0000 7FB5     		push	{r0, r1, r2, r3, r4, r5, r6, lr}
 1690              		.cfi_def_cfa_offset 32
 1691              		.cfi_offset 0, -32
 1692              		.cfi_offset 1, -28
 1693              		.cfi_offset 2, -24
 1694              		.cfi_offset 3, -20
 1695              		.cfi_offset 4, -16
 1696              		.cfi_offset 5, -12
 1697              		.cfi_offset 6, -8
 1698              		.cfi_offset 14, -4
 212:..\..\u8g2\csrc/u8g2_d_setup.c ****   uint8_t tile_buf_height;
 213:..\..\u8g2\csrc/u8g2_d_setup.c ****   uint8_t *buf;
 214:..\..\u8g2\csrc/u8g2_d_setup.c ****   u8g2_SetupDisplay(u8g2, u8x8_d_sh1106_128x64_vcomh0, u8x8_cad_001, byte_cb, gpio_and_delay_cb);
 215:..\..\u8g2\csrc/u8g2_d_setup.c ****   buf = u8g2_m_sh1106_16_f(&tile_buf_height);
 1699              		.loc 1 215 0
 1700 0002 0F25     		movs	r5, #15
 211:..\..\u8g2\csrc/u8g2_d_setup.c ****   uint8_t tile_buf_height;
 1701              		.loc 1 211 0
 1702 0004 0E00     		movs	r6, r1
 1703              		.loc 1 215 0
 1704 0006 6D44     		add	r5, r5, sp
 214:..\..\u8g2\csrc/u8g2_d_setup.c ****   buf = u8g2_m_sh1106_16_f(&tile_buf_height);
 1705              		.loc 1 214 0
 1706 0008 0093     		str	r3, [sp]
 1707 000a 0849     		ldr	r1, .L71
 1708              	.LVL254:
 1709 000c 1300     		movs	r3, r2
 1710              	.LVL255:
 1711 000e 084A     		ldr	r2, .L71+4
 1712              	.LVL256:
 211:..\..\u8g2\csrc/u8g2_d_setup.c ****   uint8_t tile_buf_height;
 1713              		.loc 1 211 0
 1714 0010 0400     		movs	r4, r0
 214:..\..\u8g2\csrc/u8g2_d_setup.c ****   buf = u8g2_m_sh1106_16_f(&tile_buf_height);
 1715              		.loc 1 214 0
 1716 0012 FFF7FEFF 		bl	u8x8_Setup
 1717              	.LVL257:
 1718              		.loc 1 215 0
ARM GAS  C:\Users\Greg\AppData\Local\Temp\ccGRKbG3.s 			page 37


 1719 0016 2800     		movs	r0, r5
 1720 0018 FFF7FEFF 		bl	u8g2_m_sh1106_16_f
 1721              	.LVL258:
 216:..\..\u8g2\csrc/u8g2_d_setup.c ****   u8g2_SetupBuffer(u8g2, buf, tile_buf_height, u8g2_ll_hvline_vertical_top_lsb, rotation);
 1722              		.loc 1 216 0
 1723 001c 2A78     		ldrb	r2, [r5]
 215:..\..\u8g2\csrc/u8g2_d_setup.c ****   u8g2_SetupBuffer(u8g2, buf, tile_buf_height, u8g2_ll_hvline_vertical_top_lsb, rotation);
 1724              		.loc 1 215 0
 1725 001e 0100     		movs	r1, r0
 1726              	.LVL259:
 1727              		.loc 1 216 0
 1728 0020 0096     		str	r6, [sp]
 1729 0022 044B     		ldr	r3, .L71+8
 1730 0024 2000     		movs	r0, r4
 1731              	.LVL260:
 1732 0026 FFF7FEFF 		bl	u8g2_SetupBuffer
 1733              	.LVL261:
 217:..\..\u8g2\csrc/u8g2_d_setup.c **** }
 1734              		.loc 1 217 0
 1735              		@ sp needed
 1736              	.LVL262:
 1737              	.LVL263:
 1738 002a 7FBD     		pop	{r0, r1, r2, r3, r4, r5, r6, pc}
 1739              	.L72:
 1740              		.align	2
 1741              	.L71:
 1742 002c 00000000 		.word	u8x8_d_sh1106_128x64_vcomh0
 1743 0030 00000000 		.word	u8x8_cad_001
 1744 0034 00000000 		.word	u8g2_ll_hvline_vertical_top_lsb
 1745              		.cfi_endproc
 1746              	.LFE23:
 1747              		.size	u8g2_Setup_sh1106_128x64_vcomh0_f, .-u8g2_Setup_sh1106_128x64_vcomh0_f
 1748              		.section	.text.u8g2_Setup_sh1106_i2c_128x64_noname_1,"ax",%progbits
 1749              		.align	1
 1750              		.global	u8g2_Setup_sh1106_i2c_128x64_noname_1
 1751              		.code	16
 1752              		.thumb_func
 1753              		.type	u8g2_Setup_sh1106_i2c_128x64_noname_1, %function
 1754              	u8g2_Setup_sh1106_i2c_128x64_noname_1:
 1755              	.LFB24:
 218:..\..\u8g2\csrc/u8g2_d_setup.c **** /* sh1106 */
 219:..\..\u8g2\csrc/u8g2_d_setup.c **** /* sh1106 1 */
 220:..\..\u8g2\csrc/u8g2_d_setup.c **** void u8g2_Setup_sh1106_i2c_128x64_noname_1(u8g2_t *u8g2, const u8g2_cb_t *rotation, u8x8_msg_cb byt
 221:..\..\u8g2\csrc/u8g2_d_setup.c **** {
 1756              		.loc 1 221 0
 1757              		.cfi_startproc
 1758              		@ args = 0, pretend = 0, frame = 8
 1759              		@ frame_needed = 0, uses_anonymous_args = 0
 1760              	.LVL264:
 1761 0000 7FB5     		push	{r0, r1, r2, r3, r4, r5, r6, lr}
 1762              		.cfi_def_cfa_offset 32
 1763              		.cfi_offset 0, -32
 1764              		.cfi_offset 1, -28
 1765              		.cfi_offset 2, -24
 1766              		.cfi_offset 3, -20
 1767              		.cfi_offset 4, -16
 1768              		.cfi_offset 5, -12
ARM GAS  C:\Users\Greg\AppData\Local\Temp\ccGRKbG3.s 			page 38


 1769              		.cfi_offset 6, -8
 1770              		.cfi_offset 14, -4
 222:..\..\u8g2\csrc/u8g2_d_setup.c ****   uint8_t tile_buf_height;
 223:..\..\u8g2\csrc/u8g2_d_setup.c ****   uint8_t *buf;
 224:..\..\u8g2\csrc/u8g2_d_setup.c ****   u8g2_SetupDisplay(u8g2, u8x8_d_sh1106_128x64_noname, u8x8_cad_ssd13xx_i2c, byte_cb, gpio_and_dela
 225:..\..\u8g2\csrc/u8g2_d_setup.c ****   buf = u8g2_m_sh1106_16_1(&tile_buf_height);
 1771              		.loc 1 225 0
 1772 0002 0F25     		movs	r5, #15
 221:..\..\u8g2\csrc/u8g2_d_setup.c ****   uint8_t tile_buf_height;
 1773              		.loc 1 221 0
 1774 0004 0E00     		movs	r6, r1
 1775              		.loc 1 225 0
 1776 0006 6D44     		add	r5, r5, sp
 224:..\..\u8g2\csrc/u8g2_d_setup.c ****   buf = u8g2_m_sh1106_16_1(&tile_buf_height);
 1777              		.loc 1 224 0
 1778 0008 0093     		str	r3, [sp]
 1779 000a 0849     		ldr	r1, .L74
 1780              	.LVL265:
 1781 000c 1300     		movs	r3, r2
 1782              	.LVL266:
 1783 000e 084A     		ldr	r2, .L74+4
 1784              	.LVL267:
 221:..\..\u8g2\csrc/u8g2_d_setup.c ****   uint8_t tile_buf_height;
 1785              		.loc 1 221 0
 1786 0010 0400     		movs	r4, r0
 224:..\..\u8g2\csrc/u8g2_d_setup.c ****   buf = u8g2_m_sh1106_16_1(&tile_buf_height);
 1787              		.loc 1 224 0
 1788 0012 FFF7FEFF 		bl	u8x8_Setup
 1789              	.LVL268:
 1790              		.loc 1 225 0
 1791 0016 2800     		movs	r0, r5
 1792 0018 FFF7FEFF 		bl	u8g2_m_sh1106_16_1
 1793              	.LVL269:
 226:..\..\u8g2\csrc/u8g2_d_setup.c ****   u8g2_SetupBuffer(u8g2, buf, tile_buf_height, u8g2_ll_hvline_vertical_top_lsb, rotation);
 1794              		.loc 1 226 0
 1795 001c 2A78     		ldrb	r2, [r5]
 225:..\..\u8g2\csrc/u8g2_d_setup.c ****   u8g2_SetupBuffer(u8g2, buf, tile_buf_height, u8g2_ll_hvline_vertical_top_lsb, rotation);
 1796              		.loc 1 225 0
 1797 001e 0100     		movs	r1, r0
 1798              	.LVL270:
 1799              		.loc 1 226 0
 1800 0020 0096     		str	r6, [sp]
 1801 0022 044B     		ldr	r3, .L74+8
 1802 0024 2000     		movs	r0, r4
 1803              	.LVL271:
 1804 0026 FFF7FEFF 		bl	u8g2_SetupBuffer
 1805              	.LVL272:
 227:..\..\u8g2\csrc/u8g2_d_setup.c **** }
 1806              		.loc 1 227 0
 1807              		@ sp needed
 1808              	.LVL273:
 1809              	.LVL274:
 1810 002a 7FBD     		pop	{r0, r1, r2, r3, r4, r5, r6, pc}
 1811              	.L75:
 1812              		.align	2
 1813              	.L74:
 1814 002c 00000000 		.word	u8x8_d_sh1106_128x64_noname
ARM GAS  C:\Users\Greg\AppData\Local\Temp\ccGRKbG3.s 			page 39


 1815 0030 00000000 		.word	u8x8_cad_ssd13xx_i2c
 1816 0034 00000000 		.word	u8g2_ll_hvline_vertical_top_lsb
 1817              		.cfi_endproc
 1818              	.LFE24:
 1819              		.size	u8g2_Setup_sh1106_i2c_128x64_noname_1, .-u8g2_Setup_sh1106_i2c_128x64_noname_1
 1820              		.section	.text.u8g2_Setup_sh1106_i2c_128x64_vcomh0_1,"ax",%progbits
 1821              		.align	1
 1822              		.global	u8g2_Setup_sh1106_i2c_128x64_vcomh0_1
 1823              		.code	16
 1824              		.thumb_func
 1825              		.type	u8g2_Setup_sh1106_i2c_128x64_vcomh0_1, %function
 1826              	u8g2_Setup_sh1106_i2c_128x64_vcomh0_1:
 1827              	.LFB25:
 228:..\..\u8g2\csrc/u8g2_d_setup.c **** void u8g2_Setup_sh1106_i2c_128x64_vcomh0_1(u8g2_t *u8g2, const u8g2_cb_t *rotation, u8x8_msg_cb byt
 229:..\..\u8g2\csrc/u8g2_d_setup.c **** {
 1828              		.loc 1 229 0
 1829              		.cfi_startproc
 1830              		@ args = 0, pretend = 0, frame = 8
 1831              		@ frame_needed = 0, uses_anonymous_args = 0
 1832              	.LVL275:
 1833 0000 7FB5     		push	{r0, r1, r2, r3, r4, r5, r6, lr}
 1834              		.cfi_def_cfa_offset 32
 1835              		.cfi_offset 0, -32
 1836              		.cfi_offset 1, -28
 1837              		.cfi_offset 2, -24
 1838              		.cfi_offset 3, -20
 1839              		.cfi_offset 4, -16
 1840              		.cfi_offset 5, -12
 1841              		.cfi_offset 6, -8
 1842              		.cfi_offset 14, -4
 230:..\..\u8g2\csrc/u8g2_d_setup.c ****   uint8_t tile_buf_height;
 231:..\..\u8g2\csrc/u8g2_d_setup.c ****   uint8_t *buf;
 232:..\..\u8g2\csrc/u8g2_d_setup.c ****   u8g2_SetupDisplay(u8g2, u8x8_d_sh1106_128x64_vcomh0, u8x8_cad_ssd13xx_i2c, byte_cb, gpio_and_dela
 233:..\..\u8g2\csrc/u8g2_d_setup.c ****   buf = u8g2_m_sh1106_16_1(&tile_buf_height);
 1843              		.loc 1 233 0
 1844 0002 0F25     		movs	r5, #15
 229:..\..\u8g2\csrc/u8g2_d_setup.c ****   uint8_t tile_buf_height;
 1845              		.loc 1 229 0
 1846 0004 0E00     		movs	r6, r1
 1847              		.loc 1 233 0
 1848 0006 6D44     		add	r5, r5, sp
 232:..\..\u8g2\csrc/u8g2_d_setup.c ****   buf = u8g2_m_sh1106_16_1(&tile_buf_height);
 1849              		.loc 1 232 0
 1850 0008 0093     		str	r3, [sp]
 1851 000a 0849     		ldr	r1, .L77
 1852              	.LVL276:
 1853 000c 1300     		movs	r3, r2
 1854              	.LVL277:
 1855 000e 084A     		ldr	r2, .L77+4
 1856              	.LVL278:
 229:..\..\u8g2\csrc/u8g2_d_setup.c ****   uint8_t tile_buf_height;
 1857              		.loc 1 229 0
 1858 0010 0400     		movs	r4, r0
 232:..\..\u8g2\csrc/u8g2_d_setup.c ****   buf = u8g2_m_sh1106_16_1(&tile_buf_height);
 1859              		.loc 1 232 0
 1860 0012 FFF7FEFF 		bl	u8x8_Setup
 1861              	.LVL279:
ARM GAS  C:\Users\Greg\AppData\Local\Temp\ccGRKbG3.s 			page 40


 1862              		.loc 1 233 0
 1863 0016 2800     		movs	r0, r5
 1864 0018 FFF7FEFF 		bl	u8g2_m_sh1106_16_1
 1865              	.LVL280:
 234:..\..\u8g2\csrc/u8g2_d_setup.c ****   u8g2_SetupBuffer(u8g2, buf, tile_buf_height, u8g2_ll_hvline_vertical_top_lsb, rotation);
 1866              		.loc 1 234 0
 1867 001c 2A78     		ldrb	r2, [r5]
 233:..\..\u8g2\csrc/u8g2_d_setup.c ****   u8g2_SetupBuffer(u8g2, buf, tile_buf_height, u8g2_ll_hvline_vertical_top_lsb, rotation);
 1868              		.loc 1 233 0
 1869 001e 0100     		movs	r1, r0
 1870              	.LVL281:
 1871              		.loc 1 234 0
 1872 0020 0096     		str	r6, [sp]
 1873 0022 044B     		ldr	r3, .L77+8
 1874 0024 2000     		movs	r0, r4
 1875              	.LVL282:
 1876 0026 FFF7FEFF 		bl	u8g2_SetupBuffer
 1877              	.LVL283:
 235:..\..\u8g2\csrc/u8g2_d_setup.c **** }
 1878              		.loc 1 235 0
 1879              		@ sp needed
 1880              	.LVL284:
 1881              	.LVL285:
 1882 002a 7FBD     		pop	{r0, r1, r2, r3, r4, r5, r6, pc}
 1883              	.L78:
 1884              		.align	2
 1885              	.L77:
 1886 002c 00000000 		.word	u8x8_d_sh1106_128x64_vcomh0
 1887 0030 00000000 		.word	u8x8_cad_ssd13xx_i2c
 1888 0034 00000000 		.word	u8g2_ll_hvline_vertical_top_lsb
 1889              		.cfi_endproc
 1890              	.LFE25:
 1891              		.size	u8g2_Setup_sh1106_i2c_128x64_vcomh0_1, .-u8g2_Setup_sh1106_i2c_128x64_vcomh0_1
 1892              		.section	.text.u8g2_Setup_sh1106_i2c_128x64_noname_2,"ax",%progbits
 1893              		.align	1
 1894              		.global	u8g2_Setup_sh1106_i2c_128x64_noname_2
 1895              		.code	16
 1896              		.thumb_func
 1897              		.type	u8g2_Setup_sh1106_i2c_128x64_noname_2, %function
 1898              	u8g2_Setup_sh1106_i2c_128x64_noname_2:
 1899              	.LFB26:
 236:..\..\u8g2\csrc/u8g2_d_setup.c **** /* sh1106 2 */
 237:..\..\u8g2\csrc/u8g2_d_setup.c **** void u8g2_Setup_sh1106_i2c_128x64_noname_2(u8g2_t *u8g2, const u8g2_cb_t *rotation, u8x8_msg_cb byt
 238:..\..\u8g2\csrc/u8g2_d_setup.c **** {
 1900              		.loc 1 238 0
 1901              		.cfi_startproc
 1902              		@ args = 0, pretend = 0, frame = 8
 1903              		@ frame_needed = 0, uses_anonymous_args = 0
 1904              	.LVL286:
 1905 0000 7FB5     		push	{r0, r1, r2, r3, r4, r5, r6, lr}
 1906              		.cfi_def_cfa_offset 32
 1907              		.cfi_offset 0, -32
 1908              		.cfi_offset 1, -28
 1909              		.cfi_offset 2, -24
 1910              		.cfi_offset 3, -20
 1911              		.cfi_offset 4, -16
 1912              		.cfi_offset 5, -12
ARM GAS  C:\Users\Greg\AppData\Local\Temp\ccGRKbG3.s 			page 41


 1913              		.cfi_offset 6, -8
 1914              		.cfi_offset 14, -4
 239:..\..\u8g2\csrc/u8g2_d_setup.c ****   uint8_t tile_buf_height;
 240:..\..\u8g2\csrc/u8g2_d_setup.c ****   uint8_t *buf;
 241:..\..\u8g2\csrc/u8g2_d_setup.c ****   u8g2_SetupDisplay(u8g2, u8x8_d_sh1106_128x64_noname, u8x8_cad_ssd13xx_i2c, byte_cb, gpio_and_dela
 242:..\..\u8g2\csrc/u8g2_d_setup.c ****   buf = u8g2_m_sh1106_16_2(&tile_buf_height);
 1915              		.loc 1 242 0
 1916 0002 0F25     		movs	r5, #15
 238:..\..\u8g2\csrc/u8g2_d_setup.c ****   uint8_t tile_buf_height;
 1917              		.loc 1 238 0
 1918 0004 0E00     		movs	r6, r1
 1919              		.loc 1 242 0
 1920 0006 6D44     		add	r5, r5, sp
 241:..\..\u8g2\csrc/u8g2_d_setup.c ****   buf = u8g2_m_sh1106_16_2(&tile_buf_height);
 1921              		.loc 1 241 0
 1922 0008 0093     		str	r3, [sp]
 1923 000a 0849     		ldr	r1, .L80
 1924              	.LVL287:
 1925 000c 1300     		movs	r3, r2
 1926              	.LVL288:
 1927 000e 084A     		ldr	r2, .L80+4
 1928              	.LVL289:
 238:..\..\u8g2\csrc/u8g2_d_setup.c ****   uint8_t tile_buf_height;
 1929              		.loc 1 238 0
 1930 0010 0400     		movs	r4, r0
 241:..\..\u8g2\csrc/u8g2_d_setup.c ****   buf = u8g2_m_sh1106_16_2(&tile_buf_height);
 1931              		.loc 1 241 0
 1932 0012 FFF7FEFF 		bl	u8x8_Setup
 1933              	.LVL290:
 1934              		.loc 1 242 0
 1935 0016 2800     		movs	r0, r5
 1936 0018 FFF7FEFF 		bl	u8g2_m_sh1106_16_2
 1937              	.LVL291:
 243:..\..\u8g2\csrc/u8g2_d_setup.c ****   u8g2_SetupBuffer(u8g2, buf, tile_buf_height, u8g2_ll_hvline_vertical_top_lsb, rotation);
 1938              		.loc 1 243 0
 1939 001c 2A78     		ldrb	r2, [r5]
 242:..\..\u8g2\csrc/u8g2_d_setup.c ****   u8g2_SetupBuffer(u8g2, buf, tile_buf_height, u8g2_ll_hvline_vertical_top_lsb, rotation);
 1940              		.loc 1 242 0
 1941 001e 0100     		movs	r1, r0
 1942              	.LVL292:
 1943              		.loc 1 243 0
 1944 0020 0096     		str	r6, [sp]
 1945 0022 044B     		ldr	r3, .L80+8
 1946 0024 2000     		movs	r0, r4
 1947              	.LVL293:
 1948 0026 FFF7FEFF 		bl	u8g2_SetupBuffer
 1949              	.LVL294:
 244:..\..\u8g2\csrc/u8g2_d_setup.c **** }
 1950              		.loc 1 244 0
 1951              		@ sp needed
 1952              	.LVL295:
 1953              	.LVL296:
 1954 002a 7FBD     		pop	{r0, r1, r2, r3, r4, r5, r6, pc}
 1955              	.L81:
 1956              		.align	2
 1957              	.L80:
 1958 002c 00000000 		.word	u8x8_d_sh1106_128x64_noname
ARM GAS  C:\Users\Greg\AppData\Local\Temp\ccGRKbG3.s 			page 42


 1959 0030 00000000 		.word	u8x8_cad_ssd13xx_i2c
 1960 0034 00000000 		.word	u8g2_ll_hvline_vertical_top_lsb
 1961              		.cfi_endproc
 1962              	.LFE26:
 1963              		.size	u8g2_Setup_sh1106_i2c_128x64_noname_2, .-u8g2_Setup_sh1106_i2c_128x64_noname_2
 1964              		.section	.text.u8g2_Setup_sh1106_i2c_128x64_vcomh0_2,"ax",%progbits
 1965              		.align	1
 1966              		.global	u8g2_Setup_sh1106_i2c_128x64_vcomh0_2
 1967              		.code	16
 1968              		.thumb_func
 1969              		.type	u8g2_Setup_sh1106_i2c_128x64_vcomh0_2, %function
 1970              	u8g2_Setup_sh1106_i2c_128x64_vcomh0_2:
 1971              	.LFB27:
 245:..\..\u8g2\csrc/u8g2_d_setup.c **** void u8g2_Setup_sh1106_i2c_128x64_vcomh0_2(u8g2_t *u8g2, const u8g2_cb_t *rotation, u8x8_msg_cb byt
 246:..\..\u8g2\csrc/u8g2_d_setup.c **** {
 1972              		.loc 1 246 0
 1973              		.cfi_startproc
 1974              		@ args = 0, pretend = 0, frame = 8
 1975              		@ frame_needed = 0, uses_anonymous_args = 0
 1976              	.LVL297:
 1977 0000 7FB5     		push	{r0, r1, r2, r3, r4, r5, r6, lr}
 1978              		.cfi_def_cfa_offset 32
 1979              		.cfi_offset 0, -32
 1980              		.cfi_offset 1, -28
 1981              		.cfi_offset 2, -24
 1982              		.cfi_offset 3, -20
 1983              		.cfi_offset 4, -16
 1984              		.cfi_offset 5, -12
 1985              		.cfi_offset 6, -8
 1986              		.cfi_offset 14, -4
 247:..\..\u8g2\csrc/u8g2_d_setup.c ****   uint8_t tile_buf_height;
 248:..\..\u8g2\csrc/u8g2_d_setup.c ****   uint8_t *buf;
 249:..\..\u8g2\csrc/u8g2_d_setup.c ****   u8g2_SetupDisplay(u8g2, u8x8_d_sh1106_128x64_vcomh0, u8x8_cad_ssd13xx_i2c, byte_cb, gpio_and_dela
 250:..\..\u8g2\csrc/u8g2_d_setup.c ****   buf = u8g2_m_sh1106_16_2(&tile_buf_height);
 1987              		.loc 1 250 0
 1988 0002 0F25     		movs	r5, #15
 246:..\..\u8g2\csrc/u8g2_d_setup.c ****   uint8_t tile_buf_height;
 1989              		.loc 1 246 0
 1990 0004 0E00     		movs	r6, r1
 1991              		.loc 1 250 0
 1992 0006 6D44     		add	r5, r5, sp
 249:..\..\u8g2\csrc/u8g2_d_setup.c ****   buf = u8g2_m_sh1106_16_2(&tile_buf_height);
 1993              		.loc 1 249 0
 1994 0008 0093     		str	r3, [sp]
 1995 000a 0849     		ldr	r1, .L83
 1996              	.LVL298:
 1997 000c 1300     		movs	r3, r2
 1998              	.LVL299:
 1999 000e 084A     		ldr	r2, .L83+4
 2000              	.LVL300:
 246:..\..\u8g2\csrc/u8g2_d_setup.c ****   uint8_t tile_buf_height;
 2001              		.loc 1 246 0
 2002 0010 0400     		movs	r4, r0
 249:..\..\u8g2\csrc/u8g2_d_setup.c ****   buf = u8g2_m_sh1106_16_2(&tile_buf_height);
 2003              		.loc 1 249 0
 2004 0012 FFF7FEFF 		bl	u8x8_Setup
 2005              	.LVL301:
ARM GAS  C:\Users\Greg\AppData\Local\Temp\ccGRKbG3.s 			page 43


 2006              		.loc 1 250 0
 2007 0016 2800     		movs	r0, r5
 2008 0018 FFF7FEFF 		bl	u8g2_m_sh1106_16_2
 2009              	.LVL302:
 251:..\..\u8g2\csrc/u8g2_d_setup.c ****   u8g2_SetupBuffer(u8g2, buf, tile_buf_height, u8g2_ll_hvline_vertical_top_lsb, rotation);
 2010              		.loc 1 251 0
 2011 001c 2A78     		ldrb	r2, [r5]
 250:..\..\u8g2\csrc/u8g2_d_setup.c ****   u8g2_SetupBuffer(u8g2, buf, tile_buf_height, u8g2_ll_hvline_vertical_top_lsb, rotation);
 2012              		.loc 1 250 0
 2013 001e 0100     		movs	r1, r0
 2014              	.LVL303:
 2015              		.loc 1 251 0
 2016 0020 0096     		str	r6, [sp]
 2017 0022 044B     		ldr	r3, .L83+8
 2018 0024 2000     		movs	r0, r4
 2019              	.LVL304:
 2020 0026 FFF7FEFF 		bl	u8g2_SetupBuffer
 2021              	.LVL305:
 252:..\..\u8g2\csrc/u8g2_d_setup.c **** }
 2022              		.loc 1 252 0
 2023              		@ sp needed
 2024              	.LVL306:
 2025              	.LVL307:
 2026 002a 7FBD     		pop	{r0, r1, r2, r3, r4, r5, r6, pc}
 2027              	.L84:
 2028              		.align	2
 2029              	.L83:
 2030 002c 00000000 		.word	u8x8_d_sh1106_128x64_vcomh0
 2031 0030 00000000 		.word	u8x8_cad_ssd13xx_i2c
 2032 0034 00000000 		.word	u8g2_ll_hvline_vertical_top_lsb
 2033              		.cfi_endproc
 2034              	.LFE27:
 2035              		.size	u8g2_Setup_sh1106_i2c_128x64_vcomh0_2, .-u8g2_Setup_sh1106_i2c_128x64_vcomh0_2
 2036              		.section	.text.u8g2_Setup_sh1106_i2c_128x64_noname_f,"ax",%progbits
 2037              		.align	1
 2038              		.global	u8g2_Setup_sh1106_i2c_128x64_noname_f
 2039              		.code	16
 2040              		.thumb_func
 2041              		.type	u8g2_Setup_sh1106_i2c_128x64_noname_f, %function
 2042              	u8g2_Setup_sh1106_i2c_128x64_noname_f:
 2043              	.LFB28:
 253:..\..\u8g2\csrc/u8g2_d_setup.c **** /* sh1106 f */
 254:..\..\u8g2\csrc/u8g2_d_setup.c **** void u8g2_Setup_sh1106_i2c_128x64_noname_f(u8g2_t *u8g2, const u8g2_cb_t *rotation, u8x8_msg_cb byt
 255:..\..\u8g2\csrc/u8g2_d_setup.c **** {
 2044              		.loc 1 255 0
 2045              		.cfi_startproc
 2046              		@ args = 0, pretend = 0, frame = 8
 2047              		@ frame_needed = 0, uses_anonymous_args = 0
 2048              	.LVL308:
 2049 0000 7FB5     		push	{r0, r1, r2, r3, r4, r5, r6, lr}
 2050              		.cfi_def_cfa_offset 32
 2051              		.cfi_offset 0, -32
 2052              		.cfi_offset 1, -28
 2053              		.cfi_offset 2, -24
 2054              		.cfi_offset 3, -20
 2055              		.cfi_offset 4, -16
 2056              		.cfi_offset 5, -12
ARM GAS  C:\Users\Greg\AppData\Local\Temp\ccGRKbG3.s 			page 44


 2057              		.cfi_offset 6, -8
 2058              		.cfi_offset 14, -4
 256:..\..\u8g2\csrc/u8g2_d_setup.c ****   uint8_t tile_buf_height;
 257:..\..\u8g2\csrc/u8g2_d_setup.c ****   uint8_t *buf;
 258:..\..\u8g2\csrc/u8g2_d_setup.c ****   u8g2_SetupDisplay(u8g2, u8x8_d_sh1106_128x64_noname, u8x8_cad_ssd13xx_i2c, byte_cb, gpio_and_dela
 259:..\..\u8g2\csrc/u8g2_d_setup.c ****   buf = u8g2_m_sh1106_16_f(&tile_buf_height);
 2059              		.loc 1 259 0
 2060 0002 0F25     		movs	r5, #15
 255:..\..\u8g2\csrc/u8g2_d_setup.c ****   uint8_t tile_buf_height;
 2061              		.loc 1 255 0
 2062 0004 0E00     		movs	r6, r1
 2063              		.loc 1 259 0
 2064 0006 6D44     		add	r5, r5, sp
 258:..\..\u8g2\csrc/u8g2_d_setup.c ****   buf = u8g2_m_sh1106_16_f(&tile_buf_height);
 2065              		.loc 1 258 0
 2066 0008 0093     		str	r3, [sp]
 2067 000a 0849     		ldr	r1, .L86
 2068              	.LVL309:
 2069 000c 1300     		movs	r3, r2
 2070              	.LVL310:
 2071 000e 084A     		ldr	r2, .L86+4
 2072              	.LVL311:
 255:..\..\u8g2\csrc/u8g2_d_setup.c ****   uint8_t tile_buf_height;
 2073              		.loc 1 255 0
 2074 0010 0400     		movs	r4, r0
 258:..\..\u8g2\csrc/u8g2_d_setup.c ****   buf = u8g2_m_sh1106_16_f(&tile_buf_height);
 2075              		.loc 1 258 0
 2076 0012 FFF7FEFF 		bl	u8x8_Setup
 2077              	.LVL312:
 2078              		.loc 1 259 0
 2079 0016 2800     		movs	r0, r5
 2080 0018 FFF7FEFF 		bl	u8g2_m_sh1106_16_f
 2081              	.LVL313:
 260:..\..\u8g2\csrc/u8g2_d_setup.c ****   u8g2_SetupBuffer(u8g2, buf, tile_buf_height, u8g2_ll_hvline_vertical_top_lsb, rotation);
 2082              		.loc 1 260 0
 2083 001c 2A78     		ldrb	r2, [r5]
 259:..\..\u8g2\csrc/u8g2_d_setup.c ****   u8g2_SetupBuffer(u8g2, buf, tile_buf_height, u8g2_ll_hvline_vertical_top_lsb, rotation);
 2084              		.loc 1 259 0
 2085 001e 0100     		movs	r1, r0
 2086              	.LVL314:
 2087              		.loc 1 260 0
 2088 0020 0096     		str	r6, [sp]
 2089 0022 044B     		ldr	r3, .L86+8
 2090 0024 2000     		movs	r0, r4
 2091              	.LVL315:
 2092 0026 FFF7FEFF 		bl	u8g2_SetupBuffer
 2093              	.LVL316:
 261:..\..\u8g2\csrc/u8g2_d_setup.c **** }
 2094              		.loc 1 261 0
 2095              		@ sp needed
 2096              	.LVL317:
 2097              	.LVL318:
 2098 002a 7FBD     		pop	{r0, r1, r2, r3, r4, r5, r6, pc}
 2099              	.L87:
 2100              		.align	2
 2101              	.L86:
 2102 002c 00000000 		.word	u8x8_d_sh1106_128x64_noname
ARM GAS  C:\Users\Greg\AppData\Local\Temp\ccGRKbG3.s 			page 45


 2103 0030 00000000 		.word	u8x8_cad_ssd13xx_i2c
 2104 0034 00000000 		.word	u8g2_ll_hvline_vertical_top_lsb
 2105              		.cfi_endproc
 2106              	.LFE28:
 2107              		.size	u8g2_Setup_sh1106_i2c_128x64_noname_f, .-u8g2_Setup_sh1106_i2c_128x64_noname_f
 2108              		.section	.text.u8g2_Setup_sh1106_i2c_128x64_vcomh0_f,"ax",%progbits
 2109              		.align	1
 2110              		.global	u8g2_Setup_sh1106_i2c_128x64_vcomh0_f
 2111              		.code	16
 2112              		.thumb_func
 2113              		.type	u8g2_Setup_sh1106_i2c_128x64_vcomh0_f, %function
 2114              	u8g2_Setup_sh1106_i2c_128x64_vcomh0_f:
 2115              	.LFB29:
 262:..\..\u8g2\csrc/u8g2_d_setup.c **** void u8g2_Setup_sh1106_i2c_128x64_vcomh0_f(u8g2_t *u8g2, const u8g2_cb_t *rotation, u8x8_msg_cb byt
 263:..\..\u8g2\csrc/u8g2_d_setup.c **** {
 2116              		.loc 1 263 0
 2117              		.cfi_startproc
 2118              		@ args = 0, pretend = 0, frame = 8
 2119              		@ frame_needed = 0, uses_anonymous_args = 0
 2120              	.LVL319:
 2121 0000 7FB5     		push	{r0, r1, r2, r3, r4, r5, r6, lr}
 2122              		.cfi_def_cfa_offset 32
 2123              		.cfi_offset 0, -32
 2124              		.cfi_offset 1, -28
 2125              		.cfi_offset 2, -24
 2126              		.cfi_offset 3, -20
 2127              		.cfi_offset 4, -16
 2128              		.cfi_offset 5, -12
 2129              		.cfi_offset 6, -8
 2130              		.cfi_offset 14, -4
 264:..\..\u8g2\csrc/u8g2_d_setup.c ****   uint8_t tile_buf_height;
 265:..\..\u8g2\csrc/u8g2_d_setup.c ****   uint8_t *buf;
 266:..\..\u8g2\csrc/u8g2_d_setup.c ****   u8g2_SetupDisplay(u8g2, u8x8_d_sh1106_128x64_vcomh0, u8x8_cad_ssd13xx_i2c, byte_cb, gpio_and_dela
 267:..\..\u8g2\csrc/u8g2_d_setup.c ****   buf = u8g2_m_sh1106_16_f(&tile_buf_height);
 2131              		.loc 1 267 0
 2132 0002 0F25     		movs	r5, #15
 263:..\..\u8g2\csrc/u8g2_d_setup.c ****   uint8_t tile_buf_height;
 2133              		.loc 1 263 0
 2134 0004 0E00     		movs	r6, r1
 2135              		.loc 1 267 0
 2136 0006 6D44     		add	r5, r5, sp
 266:..\..\u8g2\csrc/u8g2_d_setup.c ****   buf = u8g2_m_sh1106_16_f(&tile_buf_height);
 2137              		.loc 1 266 0
 2138 0008 0093     		str	r3, [sp]
 2139 000a 0849     		ldr	r1, .L89
 2140              	.LVL320:
 2141 000c 1300     		movs	r3, r2
 2142              	.LVL321:
 2143 000e 084A     		ldr	r2, .L89+4
 2144              	.LVL322:
 263:..\..\u8g2\csrc/u8g2_d_setup.c ****   uint8_t tile_buf_height;
 2145              		.loc 1 263 0
 2146 0010 0400     		movs	r4, r0
 266:..\..\u8g2\csrc/u8g2_d_setup.c ****   buf = u8g2_m_sh1106_16_f(&tile_buf_height);
 2147              		.loc 1 266 0
 2148 0012 FFF7FEFF 		bl	u8x8_Setup
 2149              	.LVL323:
ARM GAS  C:\Users\Greg\AppData\Local\Temp\ccGRKbG3.s 			page 46


 2150              		.loc 1 267 0
 2151 0016 2800     		movs	r0, r5
 2152 0018 FFF7FEFF 		bl	u8g2_m_sh1106_16_f
 2153              	.LVL324:
 268:..\..\u8g2\csrc/u8g2_d_setup.c ****   u8g2_SetupBuffer(u8g2, buf, tile_buf_height, u8g2_ll_hvline_vertical_top_lsb, rotation);
 2154              		.loc 1 268 0
 2155 001c 2A78     		ldrb	r2, [r5]
 267:..\..\u8g2\csrc/u8g2_d_setup.c ****   u8g2_SetupBuffer(u8g2, buf, tile_buf_height, u8g2_ll_hvline_vertical_top_lsb, rotation);
 2156              		.loc 1 267 0
 2157 001e 0100     		movs	r1, r0
 2158              	.LVL325:
 2159              		.loc 1 268 0
 2160 0020 0096     		str	r6, [sp]
 2161 0022 044B     		ldr	r3, .L89+8
 2162 0024 2000     		movs	r0, r4
 2163              	.LVL326:
 2164 0026 FFF7FEFF 		bl	u8g2_SetupBuffer
 2165              	.LVL327:
 269:..\..\u8g2\csrc/u8g2_d_setup.c **** }
 2166              		.loc 1 269 0
 2167              		@ sp needed
 2168              	.LVL328:
 2169              	.LVL329:
 2170 002a 7FBD     		pop	{r0, r1, r2, r3, r4, r5, r6, pc}
 2171              	.L90:
 2172              		.align	2
 2173              	.L89:
 2174 002c 00000000 		.word	u8x8_d_sh1106_128x64_vcomh0
 2175 0030 00000000 		.word	u8x8_cad_ssd13xx_i2c
 2176 0034 00000000 		.word	u8g2_ll_hvline_vertical_top_lsb
 2177              		.cfi_endproc
 2178              	.LFE29:
 2179              		.size	u8g2_Setup_sh1106_i2c_128x64_vcomh0_f, .-u8g2_Setup_sh1106_i2c_128x64_vcomh0_f
 2180              		.section	.text.u8g2_Setup_ssd1306_128x32_univision_1,"ax",%progbits
 2181              		.align	1
 2182              		.global	u8g2_Setup_ssd1306_128x32_univision_1
 2183              		.code	16
 2184              		.thumb_func
 2185              		.type	u8g2_Setup_ssd1306_128x32_univision_1, %function
 2186              	u8g2_Setup_ssd1306_128x32_univision_1:
 2187              	.LFB30:
 270:..\..\u8g2\csrc/u8g2_d_setup.c **** /* ssd1306 */
 271:..\..\u8g2\csrc/u8g2_d_setup.c **** /* ssd1306 1 */
 272:..\..\u8g2\csrc/u8g2_d_setup.c **** void u8g2_Setup_ssd1306_128x32_univision_1(u8g2_t *u8g2, const u8g2_cb_t *rotation, u8x8_msg_cb byt
 273:..\..\u8g2\csrc/u8g2_d_setup.c **** {
 2188              		.loc 1 273 0
 2189              		.cfi_startproc
 2190              		@ args = 0, pretend = 0, frame = 8
 2191              		@ frame_needed = 0, uses_anonymous_args = 0
 2192              	.LVL330:
 2193 0000 7FB5     		push	{r0, r1, r2, r3, r4, r5, r6, lr}
 2194              		.cfi_def_cfa_offset 32
 2195              		.cfi_offset 0, -32
 2196              		.cfi_offset 1, -28
 2197              		.cfi_offset 2, -24
 2198              		.cfi_offset 3, -20
 2199              		.cfi_offset 4, -16
ARM GAS  C:\Users\Greg\AppData\Local\Temp\ccGRKbG3.s 			page 47


 2200              		.cfi_offset 5, -12
 2201              		.cfi_offset 6, -8
 2202              		.cfi_offset 14, -4
 274:..\..\u8g2\csrc/u8g2_d_setup.c ****   uint8_t tile_buf_height;
 275:..\..\u8g2\csrc/u8g2_d_setup.c ****   uint8_t *buf;
 276:..\..\u8g2\csrc/u8g2_d_setup.c ****   u8g2_SetupDisplay(u8g2, u8x8_d_ssd1306_128x32_univision, u8x8_cad_001, byte_cb, gpio_and_delay_cb
 277:..\..\u8g2\csrc/u8g2_d_setup.c ****   buf = u8g2_m_ssd1306_16_1(&tile_buf_height);
 2203              		.loc 1 277 0
 2204 0002 0F25     		movs	r5, #15
 273:..\..\u8g2\csrc/u8g2_d_setup.c ****   uint8_t tile_buf_height;
 2205              		.loc 1 273 0
 2206 0004 0E00     		movs	r6, r1
 2207              		.loc 1 277 0
 2208 0006 6D44     		add	r5, r5, sp
 276:..\..\u8g2\csrc/u8g2_d_setup.c ****   buf = u8g2_m_ssd1306_16_1(&tile_buf_height);
 2209              		.loc 1 276 0
 2210 0008 0093     		str	r3, [sp]
 2211 000a 0849     		ldr	r1, .L92
 2212              	.LVL331:
 2213 000c 1300     		movs	r3, r2
 2214              	.LVL332:
 2215 000e 084A     		ldr	r2, .L92+4
 2216              	.LVL333:
 273:..\..\u8g2\csrc/u8g2_d_setup.c ****   uint8_t tile_buf_height;
 2217              		.loc 1 273 0
 2218 0010 0400     		movs	r4, r0
 276:..\..\u8g2\csrc/u8g2_d_setup.c ****   buf = u8g2_m_ssd1306_16_1(&tile_buf_height);
 2219              		.loc 1 276 0
 2220 0012 FFF7FEFF 		bl	u8x8_Setup
 2221              	.LVL334:
 2222              		.loc 1 277 0
 2223 0016 2800     		movs	r0, r5
 2224 0018 FFF7FEFF 		bl	u8g2_m_ssd1306_16_1
 2225              	.LVL335:
 278:..\..\u8g2\csrc/u8g2_d_setup.c ****   u8g2_SetupBuffer(u8g2, buf, tile_buf_height, u8g2_ll_hvline_vertical_top_lsb, rotation);
 2226              		.loc 1 278 0
 2227 001c 2A78     		ldrb	r2, [r5]
 277:..\..\u8g2\csrc/u8g2_d_setup.c ****   u8g2_SetupBuffer(u8g2, buf, tile_buf_height, u8g2_ll_hvline_vertical_top_lsb, rotation);
 2228              		.loc 1 277 0
 2229 001e 0100     		movs	r1, r0
 2230              	.LVL336:
 2231              		.loc 1 278 0
 2232 0020 0096     		str	r6, [sp]
 2233 0022 044B     		ldr	r3, .L92+8
 2234 0024 2000     		movs	r0, r4
 2235              	.LVL337:
 2236 0026 FFF7FEFF 		bl	u8g2_SetupBuffer
 2237              	.LVL338:
 279:..\..\u8g2\csrc/u8g2_d_setup.c **** }
 2238              		.loc 1 279 0
 2239              		@ sp needed
 2240              	.LVL339:
 2241              	.LVL340:
 2242 002a 7FBD     		pop	{r0, r1, r2, r3, r4, r5, r6, pc}
 2243              	.L93:
 2244              		.align	2
 2245              	.L92:
ARM GAS  C:\Users\Greg\AppData\Local\Temp\ccGRKbG3.s 			page 48


 2246 002c 00000000 		.word	u8x8_d_ssd1306_128x32_univision
 2247 0030 00000000 		.word	u8x8_cad_001
 2248 0034 00000000 		.word	u8g2_ll_hvline_vertical_top_lsb
 2249              		.cfi_endproc
 2250              	.LFE30:
 2251              		.size	u8g2_Setup_ssd1306_128x32_univision_1, .-u8g2_Setup_ssd1306_128x32_univision_1
 2252              		.section	.text.u8g2_Setup_ssd1306_128x32_univision_2,"ax",%progbits
 2253              		.align	1
 2254              		.global	u8g2_Setup_ssd1306_128x32_univision_2
 2255              		.code	16
 2256              		.thumb_func
 2257              		.type	u8g2_Setup_ssd1306_128x32_univision_2, %function
 2258              	u8g2_Setup_ssd1306_128x32_univision_2:
 2259              	.LFB31:
 280:..\..\u8g2\csrc/u8g2_d_setup.c **** /* ssd1306 2 */
 281:..\..\u8g2\csrc/u8g2_d_setup.c **** void u8g2_Setup_ssd1306_128x32_univision_2(u8g2_t *u8g2, const u8g2_cb_t *rotation, u8x8_msg_cb byt
 282:..\..\u8g2\csrc/u8g2_d_setup.c **** {
 2260              		.loc 1 282 0
 2261              		.cfi_startproc
 2262              		@ args = 0, pretend = 0, frame = 8
 2263              		@ frame_needed = 0, uses_anonymous_args = 0
 2264              	.LVL341:
 2265 0000 7FB5     		push	{r0, r1, r2, r3, r4, r5, r6, lr}
 2266              		.cfi_def_cfa_offset 32
 2267              		.cfi_offset 0, -32
 2268              		.cfi_offset 1, -28
 2269              		.cfi_offset 2, -24
 2270              		.cfi_offset 3, -20
 2271              		.cfi_offset 4, -16
 2272              		.cfi_offset 5, -12
 2273              		.cfi_offset 6, -8
 2274              		.cfi_offset 14, -4
 283:..\..\u8g2\csrc/u8g2_d_setup.c ****   uint8_t tile_buf_height;
 284:..\..\u8g2\csrc/u8g2_d_setup.c ****   uint8_t *buf;
 285:..\..\u8g2\csrc/u8g2_d_setup.c ****   u8g2_SetupDisplay(u8g2, u8x8_d_ssd1306_128x32_univision, u8x8_cad_001, byte_cb, gpio_and_delay_cb
 286:..\..\u8g2\csrc/u8g2_d_setup.c ****   buf = u8g2_m_ssd1306_16_2(&tile_buf_height);
 2275              		.loc 1 286 0
 2276 0002 0F25     		movs	r5, #15
 282:..\..\u8g2\csrc/u8g2_d_setup.c ****   uint8_t tile_buf_height;
 2277              		.loc 1 282 0
 2278 0004 0E00     		movs	r6, r1
 2279              		.loc 1 286 0
 2280 0006 6D44     		add	r5, r5, sp
 285:..\..\u8g2\csrc/u8g2_d_setup.c ****   buf = u8g2_m_ssd1306_16_2(&tile_buf_height);
 2281              		.loc 1 285 0
 2282 0008 0093     		str	r3, [sp]
 2283 000a 0849     		ldr	r1, .L95
 2284              	.LVL342:
 2285 000c 1300     		movs	r3, r2
 2286              	.LVL343:
 2287 000e 084A     		ldr	r2, .L95+4
 2288              	.LVL344:
 282:..\..\u8g2\csrc/u8g2_d_setup.c ****   uint8_t tile_buf_height;
 2289              		.loc 1 282 0
 2290 0010 0400     		movs	r4, r0
 285:..\..\u8g2\csrc/u8g2_d_setup.c ****   buf = u8g2_m_ssd1306_16_2(&tile_buf_height);
 2291              		.loc 1 285 0
ARM GAS  C:\Users\Greg\AppData\Local\Temp\ccGRKbG3.s 			page 49


 2292 0012 FFF7FEFF 		bl	u8x8_Setup
 2293              	.LVL345:
 2294              		.loc 1 286 0
 2295 0016 2800     		movs	r0, r5
 2296 0018 FFF7FEFF 		bl	u8g2_m_ssd1306_16_2
 2297              	.LVL346:
 287:..\..\u8g2\csrc/u8g2_d_setup.c ****   u8g2_SetupBuffer(u8g2, buf, tile_buf_height, u8g2_ll_hvline_vertical_top_lsb, rotation);
 2298              		.loc 1 287 0
 2299 001c 2A78     		ldrb	r2, [r5]
 286:..\..\u8g2\csrc/u8g2_d_setup.c ****   u8g2_SetupBuffer(u8g2, buf, tile_buf_height, u8g2_ll_hvline_vertical_top_lsb, rotation);
 2300              		.loc 1 286 0
 2301 001e 0100     		movs	r1, r0
 2302              	.LVL347:
 2303              		.loc 1 287 0
 2304 0020 0096     		str	r6, [sp]
 2305 0022 044B     		ldr	r3, .L95+8
 2306 0024 2000     		movs	r0, r4
 2307              	.LVL348:
 2308 0026 FFF7FEFF 		bl	u8g2_SetupBuffer
 2309              	.LVL349:
 288:..\..\u8g2\csrc/u8g2_d_setup.c **** }
 2310              		.loc 1 288 0
 2311              		@ sp needed
 2312              	.LVL350:
 2313              	.LVL351:
 2314 002a 7FBD     		pop	{r0, r1, r2, r3, r4, r5, r6, pc}
 2315              	.L96:
 2316              		.align	2
 2317              	.L95:
 2318 002c 00000000 		.word	u8x8_d_ssd1306_128x32_univision
 2319 0030 00000000 		.word	u8x8_cad_001
 2320 0034 00000000 		.word	u8g2_ll_hvline_vertical_top_lsb
 2321              		.cfi_endproc
 2322              	.LFE31:
 2323              		.size	u8g2_Setup_ssd1306_128x32_univision_2, .-u8g2_Setup_ssd1306_128x32_univision_2
 2324              		.section	.text.u8g2_Setup_ssd1306_128x32_univision_f,"ax",%progbits
 2325              		.align	1
 2326              		.global	u8g2_Setup_ssd1306_128x32_univision_f
 2327              		.code	16
 2328              		.thumb_func
 2329              		.type	u8g2_Setup_ssd1306_128x32_univision_f, %function
 2330              	u8g2_Setup_ssd1306_128x32_univision_f:
 2331              	.LFB32:
 289:..\..\u8g2\csrc/u8g2_d_setup.c **** /* ssd1306 f */
 290:..\..\u8g2\csrc/u8g2_d_setup.c **** void u8g2_Setup_ssd1306_128x32_univision_f(u8g2_t *u8g2, const u8g2_cb_t *rotation, u8x8_msg_cb byt
 291:..\..\u8g2\csrc/u8g2_d_setup.c **** {
 2332              		.loc 1 291 0
 2333              		.cfi_startproc
 2334              		@ args = 0, pretend = 0, frame = 8
 2335              		@ frame_needed = 0, uses_anonymous_args = 0
 2336              	.LVL352:
 2337 0000 7FB5     		push	{r0, r1, r2, r3, r4, r5, r6, lr}
 2338              		.cfi_def_cfa_offset 32
 2339              		.cfi_offset 0, -32
 2340              		.cfi_offset 1, -28
 2341              		.cfi_offset 2, -24
 2342              		.cfi_offset 3, -20
ARM GAS  C:\Users\Greg\AppData\Local\Temp\ccGRKbG3.s 			page 50


 2343              		.cfi_offset 4, -16
 2344              		.cfi_offset 5, -12
 2345              		.cfi_offset 6, -8
 2346              		.cfi_offset 14, -4
 292:..\..\u8g2\csrc/u8g2_d_setup.c ****   uint8_t tile_buf_height;
 293:..\..\u8g2\csrc/u8g2_d_setup.c ****   uint8_t *buf;
 294:..\..\u8g2\csrc/u8g2_d_setup.c ****   u8g2_SetupDisplay(u8g2, u8x8_d_ssd1306_128x32_univision, u8x8_cad_001, byte_cb, gpio_and_delay_cb
 295:..\..\u8g2\csrc/u8g2_d_setup.c ****   buf = u8g2_m_ssd1306_16_f(&tile_buf_height);
 2347              		.loc 1 295 0
 2348 0002 0F25     		movs	r5, #15
 291:..\..\u8g2\csrc/u8g2_d_setup.c ****   uint8_t tile_buf_height;
 2349              		.loc 1 291 0
 2350 0004 0E00     		movs	r6, r1
 2351              		.loc 1 295 0
 2352 0006 6D44     		add	r5, r5, sp
 294:..\..\u8g2\csrc/u8g2_d_setup.c ****   buf = u8g2_m_ssd1306_16_f(&tile_buf_height);
 2353              		.loc 1 294 0
 2354 0008 0093     		str	r3, [sp]
 2355 000a 0849     		ldr	r1, .L98
 2356              	.LVL353:
 2357 000c 1300     		movs	r3, r2
 2358              	.LVL354:
 2359 000e 084A     		ldr	r2, .L98+4
 2360              	.LVL355:
 291:..\..\u8g2\csrc/u8g2_d_setup.c ****   uint8_t tile_buf_height;
 2361              		.loc 1 291 0
 2362 0010 0400     		movs	r4, r0
 294:..\..\u8g2\csrc/u8g2_d_setup.c ****   buf = u8g2_m_ssd1306_16_f(&tile_buf_height);
 2363              		.loc 1 294 0
 2364 0012 FFF7FEFF 		bl	u8x8_Setup
 2365              	.LVL356:
 2366              		.loc 1 295 0
 2367 0016 2800     		movs	r0, r5
 2368 0018 FFF7FEFF 		bl	u8g2_m_ssd1306_16_f
 2369              	.LVL357:
 296:..\..\u8g2\csrc/u8g2_d_setup.c ****   u8g2_SetupBuffer(u8g2, buf, tile_buf_height, u8g2_ll_hvline_vertical_top_lsb, rotation);
 2370              		.loc 1 296 0
 2371 001c 2A78     		ldrb	r2, [r5]
 295:..\..\u8g2\csrc/u8g2_d_setup.c ****   u8g2_SetupBuffer(u8g2, buf, tile_buf_height, u8g2_ll_hvline_vertical_top_lsb, rotation);
 2372              		.loc 1 295 0
 2373 001e 0100     		movs	r1, r0
 2374              	.LVL358:
 2375              		.loc 1 296 0
 2376 0020 0096     		str	r6, [sp]
 2377 0022 044B     		ldr	r3, .L98+8
 2378 0024 2000     		movs	r0, r4
 2379              	.LVL359:
 2380 0026 FFF7FEFF 		bl	u8g2_SetupBuffer
 2381              	.LVL360:
 297:..\..\u8g2\csrc/u8g2_d_setup.c **** }
 2382              		.loc 1 297 0
 2383              		@ sp needed
 2384              	.LVL361:
 2385              	.LVL362:
 2386 002a 7FBD     		pop	{r0, r1, r2, r3, r4, r5, r6, pc}
 2387              	.L99:
 2388              		.align	2
ARM GAS  C:\Users\Greg\AppData\Local\Temp\ccGRKbG3.s 			page 51


 2389              	.L98:
 2390 002c 00000000 		.word	u8x8_d_ssd1306_128x32_univision
 2391 0030 00000000 		.word	u8x8_cad_001
 2392 0034 00000000 		.word	u8g2_ll_hvline_vertical_top_lsb
 2393              		.cfi_endproc
 2394              	.LFE32:
 2395              		.size	u8g2_Setup_ssd1306_128x32_univision_f, .-u8g2_Setup_ssd1306_128x32_univision_f
 2396              		.section	.text.u8g2_Setup_ssd1306_i2c_128x32_univision_1,"ax",%progbits
 2397              		.align	1
 2398              		.global	u8g2_Setup_ssd1306_i2c_128x32_univision_1
 2399              		.code	16
 2400              		.thumb_func
 2401              		.type	u8g2_Setup_ssd1306_i2c_128x32_univision_1, %function
 2402              	u8g2_Setup_ssd1306_i2c_128x32_univision_1:
 2403              	.LFB33:
 298:..\..\u8g2\csrc/u8g2_d_setup.c **** /* ssd1306 */
 299:..\..\u8g2\csrc/u8g2_d_setup.c **** /* ssd1306 1 */
 300:..\..\u8g2\csrc/u8g2_d_setup.c **** void u8g2_Setup_ssd1306_i2c_128x32_univision_1(u8g2_t *u8g2, const u8g2_cb_t *rotation, u8x8_msg_cb
 301:..\..\u8g2\csrc/u8g2_d_setup.c **** {
 2404              		.loc 1 301 0
 2405              		.cfi_startproc
 2406              		@ args = 0, pretend = 0, frame = 8
 2407              		@ frame_needed = 0, uses_anonymous_args = 0
 2408              	.LVL363:
 2409 0000 7FB5     		push	{r0, r1, r2, r3, r4, r5, r6, lr}
 2410              		.cfi_def_cfa_offset 32
 2411              		.cfi_offset 0, -32
 2412              		.cfi_offset 1, -28
 2413              		.cfi_offset 2, -24
 2414              		.cfi_offset 3, -20
 2415              		.cfi_offset 4, -16
 2416              		.cfi_offset 5, -12
 2417              		.cfi_offset 6, -8
 2418              		.cfi_offset 14, -4
 302:..\..\u8g2\csrc/u8g2_d_setup.c ****   uint8_t tile_buf_height;
 303:..\..\u8g2\csrc/u8g2_d_setup.c ****   uint8_t *buf;
 304:..\..\u8g2\csrc/u8g2_d_setup.c ****   u8g2_SetupDisplay(u8g2, u8x8_d_ssd1306_128x32_univision, u8x8_cad_ssd13xx_i2c, byte_cb, gpio_and_
 305:..\..\u8g2\csrc/u8g2_d_setup.c ****   buf = u8g2_m_ssd1306_16_1(&tile_buf_height);
 2419              		.loc 1 305 0
 2420 0002 0F25     		movs	r5, #15
 301:..\..\u8g2\csrc/u8g2_d_setup.c ****   uint8_t tile_buf_height;
 2421              		.loc 1 301 0
 2422 0004 0E00     		movs	r6, r1
 2423              		.loc 1 305 0
 2424 0006 6D44     		add	r5, r5, sp
 304:..\..\u8g2\csrc/u8g2_d_setup.c ****   buf = u8g2_m_ssd1306_16_1(&tile_buf_height);
 2425              		.loc 1 304 0
 2426 0008 0093     		str	r3, [sp]
 2427 000a 0849     		ldr	r1, .L101
 2428              	.LVL364:
 2429 000c 1300     		movs	r3, r2
 2430              	.LVL365:
 2431 000e 084A     		ldr	r2, .L101+4
 2432              	.LVL366:
 301:..\..\u8g2\csrc/u8g2_d_setup.c ****   uint8_t tile_buf_height;
 2433              		.loc 1 301 0
 2434 0010 0400     		movs	r4, r0
ARM GAS  C:\Users\Greg\AppData\Local\Temp\ccGRKbG3.s 			page 52


 304:..\..\u8g2\csrc/u8g2_d_setup.c ****   buf = u8g2_m_ssd1306_16_1(&tile_buf_height);
 2435              		.loc 1 304 0
 2436 0012 FFF7FEFF 		bl	u8x8_Setup
 2437              	.LVL367:
 2438              		.loc 1 305 0
 2439 0016 2800     		movs	r0, r5
 2440 0018 FFF7FEFF 		bl	u8g2_m_ssd1306_16_1
 2441              	.LVL368:
 306:..\..\u8g2\csrc/u8g2_d_setup.c ****   u8g2_SetupBuffer(u8g2, buf, tile_buf_height, u8g2_ll_hvline_vertical_top_lsb, rotation);
 2442              		.loc 1 306 0
 2443 001c 2A78     		ldrb	r2, [r5]
 305:..\..\u8g2\csrc/u8g2_d_setup.c ****   u8g2_SetupBuffer(u8g2, buf, tile_buf_height, u8g2_ll_hvline_vertical_top_lsb, rotation);
 2444              		.loc 1 305 0
 2445 001e 0100     		movs	r1, r0
 2446              	.LVL369:
 2447              		.loc 1 306 0
 2448 0020 0096     		str	r6, [sp]
 2449 0022 044B     		ldr	r3, .L101+8
 2450 0024 2000     		movs	r0, r4
 2451              	.LVL370:
 2452 0026 FFF7FEFF 		bl	u8g2_SetupBuffer
 2453              	.LVL371:
 307:..\..\u8g2\csrc/u8g2_d_setup.c **** }
 2454              		.loc 1 307 0
 2455              		@ sp needed
 2456              	.LVL372:
 2457              	.LVL373:
 2458 002a 7FBD     		pop	{r0, r1, r2, r3, r4, r5, r6, pc}
 2459              	.L102:
 2460              		.align	2
 2461              	.L101:
 2462 002c 00000000 		.word	u8x8_d_ssd1306_128x32_univision
 2463 0030 00000000 		.word	u8x8_cad_ssd13xx_i2c
 2464 0034 00000000 		.word	u8g2_ll_hvline_vertical_top_lsb
 2465              		.cfi_endproc
 2466              	.LFE33:
 2467              		.size	u8g2_Setup_ssd1306_i2c_128x32_univision_1, .-u8g2_Setup_ssd1306_i2c_128x32_univision_1
 2468              		.section	.text.u8g2_Setup_ssd1306_i2c_128x32_univision_2,"ax",%progbits
 2469              		.align	1
 2470              		.global	u8g2_Setup_ssd1306_i2c_128x32_univision_2
 2471              		.code	16
 2472              		.thumb_func
 2473              		.type	u8g2_Setup_ssd1306_i2c_128x32_univision_2, %function
 2474              	u8g2_Setup_ssd1306_i2c_128x32_univision_2:
 2475              	.LFB34:
 308:..\..\u8g2\csrc/u8g2_d_setup.c **** /* ssd1306 2 */
 309:..\..\u8g2\csrc/u8g2_d_setup.c **** void u8g2_Setup_ssd1306_i2c_128x32_univision_2(u8g2_t *u8g2, const u8g2_cb_t *rotation, u8x8_msg_cb
 310:..\..\u8g2\csrc/u8g2_d_setup.c **** {
 2476              		.loc 1 310 0
 2477              		.cfi_startproc
 2478              		@ args = 0, pretend = 0, frame = 8
 2479              		@ frame_needed = 0, uses_anonymous_args = 0
 2480              	.LVL374:
 2481 0000 7FB5     		push	{r0, r1, r2, r3, r4, r5, r6, lr}
 2482              		.cfi_def_cfa_offset 32
 2483              		.cfi_offset 0, -32
 2484              		.cfi_offset 1, -28
ARM GAS  C:\Users\Greg\AppData\Local\Temp\ccGRKbG3.s 			page 53


 2485              		.cfi_offset 2, -24
 2486              		.cfi_offset 3, -20
 2487              		.cfi_offset 4, -16
 2488              		.cfi_offset 5, -12
 2489              		.cfi_offset 6, -8
 2490              		.cfi_offset 14, -4
 311:..\..\u8g2\csrc/u8g2_d_setup.c ****   uint8_t tile_buf_height;
 312:..\..\u8g2\csrc/u8g2_d_setup.c ****   uint8_t *buf;
 313:..\..\u8g2\csrc/u8g2_d_setup.c ****   u8g2_SetupDisplay(u8g2, u8x8_d_ssd1306_128x32_univision, u8x8_cad_ssd13xx_i2c, byte_cb, gpio_and_
 314:..\..\u8g2\csrc/u8g2_d_setup.c ****   buf = u8g2_m_ssd1306_16_2(&tile_buf_height);
 2491              		.loc 1 314 0
 2492 0002 0F25     		movs	r5, #15
 310:..\..\u8g2\csrc/u8g2_d_setup.c ****   uint8_t tile_buf_height;
 2493              		.loc 1 310 0
 2494 0004 0E00     		movs	r6, r1
 2495              		.loc 1 314 0
 2496 0006 6D44     		add	r5, r5, sp
 313:..\..\u8g2\csrc/u8g2_d_setup.c ****   buf = u8g2_m_ssd1306_16_2(&tile_buf_height);
 2497              		.loc 1 313 0
 2498 0008 0093     		str	r3, [sp]
 2499 000a 0849     		ldr	r1, .L104
 2500              	.LVL375:
 2501 000c 1300     		movs	r3, r2
 2502              	.LVL376:
 2503 000e 084A     		ldr	r2, .L104+4
 2504              	.LVL377:
 310:..\..\u8g2\csrc/u8g2_d_setup.c ****   uint8_t tile_buf_height;
 2505              		.loc 1 310 0
 2506 0010 0400     		movs	r4, r0
 313:..\..\u8g2\csrc/u8g2_d_setup.c ****   buf = u8g2_m_ssd1306_16_2(&tile_buf_height);
 2507              		.loc 1 313 0
 2508 0012 FFF7FEFF 		bl	u8x8_Setup
 2509              	.LVL378:
 2510              		.loc 1 314 0
 2511 0016 2800     		movs	r0, r5
 2512 0018 FFF7FEFF 		bl	u8g2_m_ssd1306_16_2
 2513              	.LVL379:
 315:..\..\u8g2\csrc/u8g2_d_setup.c ****   u8g2_SetupBuffer(u8g2, buf, tile_buf_height, u8g2_ll_hvline_vertical_top_lsb, rotation);
 2514              		.loc 1 315 0
 2515 001c 2A78     		ldrb	r2, [r5]
 314:..\..\u8g2\csrc/u8g2_d_setup.c ****   u8g2_SetupBuffer(u8g2, buf, tile_buf_height, u8g2_ll_hvline_vertical_top_lsb, rotation);
 2516              		.loc 1 314 0
 2517 001e 0100     		movs	r1, r0
 2518              	.LVL380:
 2519              		.loc 1 315 0
 2520 0020 0096     		str	r6, [sp]
 2521 0022 044B     		ldr	r3, .L104+8
 2522 0024 2000     		movs	r0, r4
 2523              	.LVL381:
 2524 0026 FFF7FEFF 		bl	u8g2_SetupBuffer
 2525              	.LVL382:
 316:..\..\u8g2\csrc/u8g2_d_setup.c **** }
 2526              		.loc 1 316 0
 2527              		@ sp needed
 2528              	.LVL383:
 2529              	.LVL384:
 2530 002a 7FBD     		pop	{r0, r1, r2, r3, r4, r5, r6, pc}
ARM GAS  C:\Users\Greg\AppData\Local\Temp\ccGRKbG3.s 			page 54


 2531              	.L105:
 2532              		.align	2
 2533              	.L104:
 2534 002c 00000000 		.word	u8x8_d_ssd1306_128x32_univision
 2535 0030 00000000 		.word	u8x8_cad_ssd13xx_i2c
 2536 0034 00000000 		.word	u8g2_ll_hvline_vertical_top_lsb
 2537              		.cfi_endproc
 2538              	.LFE34:
 2539              		.size	u8g2_Setup_ssd1306_i2c_128x32_univision_2, .-u8g2_Setup_ssd1306_i2c_128x32_univision_2
 2540              		.section	.text.u8g2_Setup_ssd1306_i2c_128x32_univision_f,"ax",%progbits
 2541              		.align	1
 2542              		.global	u8g2_Setup_ssd1306_i2c_128x32_univision_f
 2543              		.code	16
 2544              		.thumb_func
 2545              		.type	u8g2_Setup_ssd1306_i2c_128x32_univision_f, %function
 2546              	u8g2_Setup_ssd1306_i2c_128x32_univision_f:
 2547              	.LFB35:
 317:..\..\u8g2\csrc/u8g2_d_setup.c **** /* ssd1306 f */
 318:..\..\u8g2\csrc/u8g2_d_setup.c **** void u8g2_Setup_ssd1306_i2c_128x32_univision_f(u8g2_t *u8g2, const u8g2_cb_t *rotation, u8x8_msg_cb
 319:..\..\u8g2\csrc/u8g2_d_setup.c **** {
 2548              		.loc 1 319 0
 2549              		.cfi_startproc
 2550              		@ args = 0, pretend = 0, frame = 8
 2551              		@ frame_needed = 0, uses_anonymous_args = 0
 2552              	.LVL385:
 2553 0000 7FB5     		push	{r0, r1, r2, r3, r4, r5, r6, lr}
 2554              		.cfi_def_cfa_offset 32
 2555              		.cfi_offset 0, -32
 2556              		.cfi_offset 1, -28
 2557              		.cfi_offset 2, -24
 2558              		.cfi_offset 3, -20
 2559              		.cfi_offset 4, -16
 2560              		.cfi_offset 5, -12
 2561              		.cfi_offset 6, -8
 2562              		.cfi_offset 14, -4
 320:..\..\u8g2\csrc/u8g2_d_setup.c ****   uint8_t tile_buf_height;
 321:..\..\u8g2\csrc/u8g2_d_setup.c ****   uint8_t *buf;
 322:..\..\u8g2\csrc/u8g2_d_setup.c ****   u8g2_SetupDisplay(u8g2, u8x8_d_ssd1306_128x32_univision, u8x8_cad_ssd13xx_i2c, byte_cb, gpio_and_
 323:..\..\u8g2\csrc/u8g2_d_setup.c ****   buf = u8g2_m_ssd1306_16_f(&tile_buf_height);
 2563              		.loc 1 323 0
 2564 0002 0F25     		movs	r5, #15
 319:..\..\u8g2\csrc/u8g2_d_setup.c ****   uint8_t tile_buf_height;
 2565              		.loc 1 319 0
 2566 0004 0E00     		movs	r6, r1
 2567              		.loc 1 323 0
 2568 0006 6D44     		add	r5, r5, sp
 322:..\..\u8g2\csrc/u8g2_d_setup.c ****   buf = u8g2_m_ssd1306_16_f(&tile_buf_height);
 2569              		.loc 1 322 0
 2570 0008 0093     		str	r3, [sp]
 2571 000a 0849     		ldr	r1, .L107
 2572              	.LVL386:
 2573 000c 1300     		movs	r3, r2
 2574              	.LVL387:
 2575 000e 084A     		ldr	r2, .L107+4
 2576              	.LVL388:
 319:..\..\u8g2\csrc/u8g2_d_setup.c ****   uint8_t tile_buf_height;
 2577              		.loc 1 319 0
ARM GAS  C:\Users\Greg\AppData\Local\Temp\ccGRKbG3.s 			page 55


 2578 0010 0400     		movs	r4, r0
 322:..\..\u8g2\csrc/u8g2_d_setup.c ****   buf = u8g2_m_ssd1306_16_f(&tile_buf_height);
 2579              		.loc 1 322 0
 2580 0012 FFF7FEFF 		bl	u8x8_Setup
 2581              	.LVL389:
 2582              		.loc 1 323 0
 2583 0016 2800     		movs	r0, r5
 2584 0018 FFF7FEFF 		bl	u8g2_m_ssd1306_16_f
 2585              	.LVL390:
 324:..\..\u8g2\csrc/u8g2_d_setup.c ****   u8g2_SetupBuffer(u8g2, buf, tile_buf_height, u8g2_ll_hvline_vertical_top_lsb, rotation);
 2586              		.loc 1 324 0
 2587 001c 2A78     		ldrb	r2, [r5]
 323:..\..\u8g2\csrc/u8g2_d_setup.c ****   u8g2_SetupBuffer(u8g2, buf, tile_buf_height, u8g2_ll_hvline_vertical_top_lsb, rotation);
 2588              		.loc 1 323 0
 2589 001e 0100     		movs	r1, r0
 2590              	.LVL391:
 2591              		.loc 1 324 0
 2592 0020 0096     		str	r6, [sp]
 2593 0022 044B     		ldr	r3, .L107+8
 2594 0024 2000     		movs	r0, r4
 2595              	.LVL392:
 2596 0026 FFF7FEFF 		bl	u8g2_SetupBuffer
 2597              	.LVL393:
 325:..\..\u8g2\csrc/u8g2_d_setup.c **** }
 2598              		.loc 1 325 0
 2599              		@ sp needed
 2600              	.LVL394:
 2601              	.LVL395:
 2602 002a 7FBD     		pop	{r0, r1, r2, r3, r4, r5, r6, pc}
 2603              	.L108:
 2604              		.align	2
 2605              	.L107:
 2606 002c 00000000 		.word	u8x8_d_ssd1306_128x32_univision
 2607 0030 00000000 		.word	u8x8_cad_ssd13xx_i2c
 2608 0034 00000000 		.word	u8g2_ll_hvline_vertical_top_lsb
 2609              		.cfi_endproc
 2610              	.LFE35:
 2611              		.size	u8g2_Setup_ssd1306_i2c_128x32_univision_f, .-u8g2_Setup_ssd1306_i2c_128x32_univision_f
 2612              		.section	.text.u8g2_Setup_ssd1306_64x48_er_1,"ax",%progbits
 2613              		.align	1
 2614              		.global	u8g2_Setup_ssd1306_64x48_er_1
 2615              		.code	16
 2616              		.thumb_func
 2617              		.type	u8g2_Setup_ssd1306_64x48_er_1, %function
 2618              	u8g2_Setup_ssd1306_64x48_er_1:
 2619              	.LFB36:
 326:..\..\u8g2\csrc/u8g2_d_setup.c **** /* ssd1306 */
 327:..\..\u8g2\csrc/u8g2_d_setup.c **** /* ssd1306 1 */
 328:..\..\u8g2\csrc/u8g2_d_setup.c **** void u8g2_Setup_ssd1306_64x48_er_1(u8g2_t *u8g2, const u8g2_cb_t *rotation, u8x8_msg_cb byte_cb, u8
 329:..\..\u8g2\csrc/u8g2_d_setup.c **** {
 2620              		.loc 1 329 0
 2621              		.cfi_startproc
 2622              		@ args = 0, pretend = 0, frame = 8
 2623              		@ frame_needed = 0, uses_anonymous_args = 0
 2624              	.LVL396:
 2625 0000 7FB5     		push	{r0, r1, r2, r3, r4, r5, r6, lr}
 2626              		.cfi_def_cfa_offset 32
ARM GAS  C:\Users\Greg\AppData\Local\Temp\ccGRKbG3.s 			page 56


 2627              		.cfi_offset 0, -32
 2628              		.cfi_offset 1, -28
 2629              		.cfi_offset 2, -24
 2630              		.cfi_offset 3, -20
 2631              		.cfi_offset 4, -16
 2632              		.cfi_offset 5, -12
 2633              		.cfi_offset 6, -8
 2634              		.cfi_offset 14, -4
 330:..\..\u8g2\csrc/u8g2_d_setup.c ****   uint8_t tile_buf_height;
 331:..\..\u8g2\csrc/u8g2_d_setup.c ****   uint8_t *buf;
 332:..\..\u8g2\csrc/u8g2_d_setup.c ****   u8g2_SetupDisplay(u8g2, u8x8_d_ssd1306_64x48_er, u8x8_cad_001, byte_cb, gpio_and_delay_cb);
 333:..\..\u8g2\csrc/u8g2_d_setup.c ****   buf = u8g2_m_ssd1306_8_1(&tile_buf_height);
 2635              		.loc 1 333 0
 2636 0002 0F25     		movs	r5, #15
 329:..\..\u8g2\csrc/u8g2_d_setup.c ****   uint8_t tile_buf_height;
 2637              		.loc 1 329 0
 2638 0004 0E00     		movs	r6, r1
 2639              		.loc 1 333 0
 2640 0006 6D44     		add	r5, r5, sp
 332:..\..\u8g2\csrc/u8g2_d_setup.c ****   buf = u8g2_m_ssd1306_8_1(&tile_buf_height);
 2641              		.loc 1 332 0
 2642 0008 0093     		str	r3, [sp]
 2643 000a 0849     		ldr	r1, .L110
 2644              	.LVL397:
 2645 000c 1300     		movs	r3, r2
 2646              	.LVL398:
 2647 000e 084A     		ldr	r2, .L110+4
 2648              	.LVL399:
 329:..\..\u8g2\csrc/u8g2_d_setup.c ****   uint8_t tile_buf_height;
 2649              		.loc 1 329 0
 2650 0010 0400     		movs	r4, r0
 332:..\..\u8g2\csrc/u8g2_d_setup.c ****   buf = u8g2_m_ssd1306_8_1(&tile_buf_height);
 2651              		.loc 1 332 0
 2652 0012 FFF7FEFF 		bl	u8x8_Setup
 2653              	.LVL400:
 2654              		.loc 1 333 0
 2655 0016 2800     		movs	r0, r5
 2656 0018 FFF7FEFF 		bl	u8g2_m_ssd1306_8_1
 2657              	.LVL401:
 334:..\..\u8g2\csrc/u8g2_d_setup.c ****   u8g2_SetupBuffer(u8g2, buf, tile_buf_height, u8g2_ll_hvline_vertical_top_lsb, rotation);
 2658              		.loc 1 334 0
 2659 001c 2A78     		ldrb	r2, [r5]
 333:..\..\u8g2\csrc/u8g2_d_setup.c ****   u8g2_SetupBuffer(u8g2, buf, tile_buf_height, u8g2_ll_hvline_vertical_top_lsb, rotation);
 2660              		.loc 1 333 0
 2661 001e 0100     		movs	r1, r0
 2662              	.LVL402:
 2663              		.loc 1 334 0
 2664 0020 0096     		str	r6, [sp]
 2665 0022 044B     		ldr	r3, .L110+8
 2666 0024 2000     		movs	r0, r4
 2667              	.LVL403:
 2668 0026 FFF7FEFF 		bl	u8g2_SetupBuffer
 2669              	.LVL404:
 335:..\..\u8g2\csrc/u8g2_d_setup.c **** }
 2670              		.loc 1 335 0
 2671              		@ sp needed
 2672              	.LVL405:
ARM GAS  C:\Users\Greg\AppData\Local\Temp\ccGRKbG3.s 			page 57


 2673              	.LVL406:
 2674 002a 7FBD     		pop	{r0, r1, r2, r3, r4, r5, r6, pc}
 2675              	.L111:
 2676              		.align	2
 2677              	.L110:
 2678 002c 00000000 		.word	u8x8_d_ssd1306_64x48_er
 2679 0030 00000000 		.word	u8x8_cad_001
 2680 0034 00000000 		.word	u8g2_ll_hvline_vertical_top_lsb
 2681              		.cfi_endproc
 2682              	.LFE36:
 2683              		.size	u8g2_Setup_ssd1306_64x48_er_1, .-u8g2_Setup_ssd1306_64x48_er_1
 2684              		.section	.text.u8g2_Setup_ssd1306_64x48_er_2,"ax",%progbits
 2685              		.align	1
 2686              		.global	u8g2_Setup_ssd1306_64x48_er_2
 2687              		.code	16
 2688              		.thumb_func
 2689              		.type	u8g2_Setup_ssd1306_64x48_er_2, %function
 2690              	u8g2_Setup_ssd1306_64x48_er_2:
 2691              	.LFB37:
 336:..\..\u8g2\csrc/u8g2_d_setup.c **** /* ssd1306 2 */
 337:..\..\u8g2\csrc/u8g2_d_setup.c **** void u8g2_Setup_ssd1306_64x48_er_2(u8g2_t *u8g2, const u8g2_cb_t *rotation, u8x8_msg_cb byte_cb, u8
 338:..\..\u8g2\csrc/u8g2_d_setup.c **** {
 2692              		.loc 1 338 0
 2693              		.cfi_startproc
 2694              		@ args = 0, pretend = 0, frame = 8
 2695              		@ frame_needed = 0, uses_anonymous_args = 0
 2696              	.LVL407:
 2697 0000 7FB5     		push	{r0, r1, r2, r3, r4, r5, r6, lr}
 2698              		.cfi_def_cfa_offset 32
 2699              		.cfi_offset 0, -32
 2700              		.cfi_offset 1, -28
 2701              		.cfi_offset 2, -24
 2702              		.cfi_offset 3, -20
 2703              		.cfi_offset 4, -16
 2704              		.cfi_offset 5, -12
 2705              		.cfi_offset 6, -8
 2706              		.cfi_offset 14, -4
 339:..\..\u8g2\csrc/u8g2_d_setup.c ****   uint8_t tile_buf_height;
 340:..\..\u8g2\csrc/u8g2_d_setup.c ****   uint8_t *buf;
 341:..\..\u8g2\csrc/u8g2_d_setup.c ****   u8g2_SetupDisplay(u8g2, u8x8_d_ssd1306_64x48_er, u8x8_cad_001, byte_cb, gpio_and_delay_cb);
 342:..\..\u8g2\csrc/u8g2_d_setup.c ****   buf = u8g2_m_ssd1306_8_2(&tile_buf_height);
 2707              		.loc 1 342 0
 2708 0002 0F25     		movs	r5, #15
 338:..\..\u8g2\csrc/u8g2_d_setup.c ****   uint8_t tile_buf_height;
 2709              		.loc 1 338 0
 2710 0004 0E00     		movs	r6, r1
 2711              		.loc 1 342 0
 2712 0006 6D44     		add	r5, r5, sp
 341:..\..\u8g2\csrc/u8g2_d_setup.c ****   buf = u8g2_m_ssd1306_8_2(&tile_buf_height);
 2713              		.loc 1 341 0
 2714 0008 0093     		str	r3, [sp]
 2715 000a 0849     		ldr	r1, .L113
 2716              	.LVL408:
 2717 000c 1300     		movs	r3, r2
 2718              	.LVL409:
 2719 000e 084A     		ldr	r2, .L113+4
 2720              	.LVL410:
ARM GAS  C:\Users\Greg\AppData\Local\Temp\ccGRKbG3.s 			page 58


 338:..\..\u8g2\csrc/u8g2_d_setup.c ****   uint8_t tile_buf_height;
 2721              		.loc 1 338 0
 2722 0010 0400     		movs	r4, r0
 341:..\..\u8g2\csrc/u8g2_d_setup.c ****   buf = u8g2_m_ssd1306_8_2(&tile_buf_height);
 2723              		.loc 1 341 0
 2724 0012 FFF7FEFF 		bl	u8x8_Setup
 2725              	.LVL411:
 2726              		.loc 1 342 0
 2727 0016 2800     		movs	r0, r5
 2728 0018 FFF7FEFF 		bl	u8g2_m_ssd1306_8_2
 2729              	.LVL412:
 343:..\..\u8g2\csrc/u8g2_d_setup.c ****   u8g2_SetupBuffer(u8g2, buf, tile_buf_height, u8g2_ll_hvline_vertical_top_lsb, rotation);
 2730              		.loc 1 343 0
 2731 001c 2A78     		ldrb	r2, [r5]
 342:..\..\u8g2\csrc/u8g2_d_setup.c ****   u8g2_SetupBuffer(u8g2, buf, tile_buf_height, u8g2_ll_hvline_vertical_top_lsb, rotation);
 2732              		.loc 1 342 0
 2733 001e 0100     		movs	r1, r0
 2734              	.LVL413:
 2735              		.loc 1 343 0
 2736 0020 0096     		str	r6, [sp]
 2737 0022 044B     		ldr	r3, .L113+8
 2738 0024 2000     		movs	r0, r4
 2739              	.LVL414:
 2740 0026 FFF7FEFF 		bl	u8g2_SetupBuffer
 2741              	.LVL415:
 344:..\..\u8g2\csrc/u8g2_d_setup.c **** }
 2742              		.loc 1 344 0
 2743              		@ sp needed
 2744              	.LVL416:
 2745              	.LVL417:
 2746 002a 7FBD     		pop	{r0, r1, r2, r3, r4, r5, r6, pc}
 2747              	.L114:
 2748              		.align	2
 2749              	.L113:
 2750 002c 00000000 		.word	u8x8_d_ssd1306_64x48_er
 2751 0030 00000000 		.word	u8x8_cad_001
 2752 0034 00000000 		.word	u8g2_ll_hvline_vertical_top_lsb
 2753              		.cfi_endproc
 2754              	.LFE37:
 2755              		.size	u8g2_Setup_ssd1306_64x48_er_2, .-u8g2_Setup_ssd1306_64x48_er_2
 2756              		.section	.text.u8g2_Setup_ssd1306_64x48_er_f,"ax",%progbits
 2757              		.align	1
 2758              		.global	u8g2_Setup_ssd1306_64x48_er_f
 2759              		.code	16
 2760              		.thumb_func
 2761              		.type	u8g2_Setup_ssd1306_64x48_er_f, %function
 2762              	u8g2_Setup_ssd1306_64x48_er_f:
 2763              	.LFB38:
 345:..\..\u8g2\csrc/u8g2_d_setup.c **** /* ssd1306 f */
 346:..\..\u8g2\csrc/u8g2_d_setup.c **** void u8g2_Setup_ssd1306_64x48_er_f(u8g2_t *u8g2, const u8g2_cb_t *rotation, u8x8_msg_cb byte_cb, u8
 347:..\..\u8g2\csrc/u8g2_d_setup.c **** {
 2764              		.loc 1 347 0
 2765              		.cfi_startproc
 2766              		@ args = 0, pretend = 0, frame = 8
 2767              		@ frame_needed = 0, uses_anonymous_args = 0
 2768              	.LVL418:
 2769 0000 7FB5     		push	{r0, r1, r2, r3, r4, r5, r6, lr}
ARM GAS  C:\Users\Greg\AppData\Local\Temp\ccGRKbG3.s 			page 59


 2770              		.cfi_def_cfa_offset 32
 2771              		.cfi_offset 0, -32
 2772              		.cfi_offset 1, -28
 2773              		.cfi_offset 2, -24
 2774              		.cfi_offset 3, -20
 2775              		.cfi_offset 4, -16
 2776              		.cfi_offset 5, -12
 2777              		.cfi_offset 6, -8
 2778              		.cfi_offset 14, -4
 348:..\..\u8g2\csrc/u8g2_d_setup.c ****   uint8_t tile_buf_height;
 349:..\..\u8g2\csrc/u8g2_d_setup.c ****   uint8_t *buf;
 350:..\..\u8g2\csrc/u8g2_d_setup.c ****   u8g2_SetupDisplay(u8g2, u8x8_d_ssd1306_64x48_er, u8x8_cad_001, byte_cb, gpio_and_delay_cb);
 351:..\..\u8g2\csrc/u8g2_d_setup.c ****   buf = u8g2_m_ssd1306_8_f(&tile_buf_height);
 2779              		.loc 1 351 0
 2780 0002 0F25     		movs	r5, #15
 347:..\..\u8g2\csrc/u8g2_d_setup.c ****   uint8_t tile_buf_height;
 2781              		.loc 1 347 0
 2782 0004 0E00     		movs	r6, r1
 2783              		.loc 1 351 0
 2784 0006 6D44     		add	r5, r5, sp
 350:..\..\u8g2\csrc/u8g2_d_setup.c ****   buf = u8g2_m_ssd1306_8_f(&tile_buf_height);
 2785              		.loc 1 350 0
 2786 0008 0093     		str	r3, [sp]
 2787 000a 0849     		ldr	r1, .L116
 2788              	.LVL419:
 2789 000c 1300     		movs	r3, r2
 2790              	.LVL420:
 2791 000e 084A     		ldr	r2, .L116+4
 2792              	.LVL421:
 347:..\..\u8g2\csrc/u8g2_d_setup.c ****   uint8_t tile_buf_height;
 2793              		.loc 1 347 0
 2794 0010 0400     		movs	r4, r0
 350:..\..\u8g2\csrc/u8g2_d_setup.c ****   buf = u8g2_m_ssd1306_8_f(&tile_buf_height);
 2795              		.loc 1 350 0
 2796 0012 FFF7FEFF 		bl	u8x8_Setup
 2797              	.LVL422:
 2798              		.loc 1 351 0
 2799 0016 2800     		movs	r0, r5
 2800 0018 FFF7FEFF 		bl	u8g2_m_ssd1306_8_f
 2801              	.LVL423:
 352:..\..\u8g2\csrc/u8g2_d_setup.c ****   u8g2_SetupBuffer(u8g2, buf, tile_buf_height, u8g2_ll_hvline_vertical_top_lsb, rotation);
 2802              		.loc 1 352 0
 2803 001c 2A78     		ldrb	r2, [r5]
 351:..\..\u8g2\csrc/u8g2_d_setup.c ****   u8g2_SetupBuffer(u8g2, buf, tile_buf_height, u8g2_ll_hvline_vertical_top_lsb, rotation);
 2804              		.loc 1 351 0
 2805 001e 0100     		movs	r1, r0
 2806              	.LVL424:
 2807              		.loc 1 352 0
 2808 0020 0096     		str	r6, [sp]
 2809 0022 044B     		ldr	r3, .L116+8
 2810 0024 2000     		movs	r0, r4
 2811              	.LVL425:
 2812 0026 FFF7FEFF 		bl	u8g2_SetupBuffer
 2813              	.LVL426:
 353:..\..\u8g2\csrc/u8g2_d_setup.c **** }
 2814              		.loc 1 353 0
 2815              		@ sp needed
ARM GAS  C:\Users\Greg\AppData\Local\Temp\ccGRKbG3.s 			page 60


 2816              	.LVL427:
 2817              	.LVL428:
 2818 002a 7FBD     		pop	{r0, r1, r2, r3, r4, r5, r6, pc}
 2819              	.L117:
 2820              		.align	2
 2821              	.L116:
 2822 002c 00000000 		.word	u8x8_d_ssd1306_64x48_er
 2823 0030 00000000 		.word	u8x8_cad_001
 2824 0034 00000000 		.word	u8g2_ll_hvline_vertical_top_lsb
 2825              		.cfi_endproc
 2826              	.LFE38:
 2827              		.size	u8g2_Setup_ssd1306_64x48_er_f, .-u8g2_Setup_ssd1306_64x48_er_f
 2828              		.section	.text.u8g2_Setup_ssd1306_i2c_64x48_er_1,"ax",%progbits
 2829              		.align	1
 2830              		.global	u8g2_Setup_ssd1306_i2c_64x48_er_1
 2831              		.code	16
 2832              		.thumb_func
 2833              		.type	u8g2_Setup_ssd1306_i2c_64x48_er_1, %function
 2834              	u8g2_Setup_ssd1306_i2c_64x48_er_1:
 2835              	.LFB39:
 354:..\..\u8g2\csrc/u8g2_d_setup.c **** /* ssd1306 */
 355:..\..\u8g2\csrc/u8g2_d_setup.c **** /* ssd1306 1 */
 356:..\..\u8g2\csrc/u8g2_d_setup.c **** void u8g2_Setup_ssd1306_i2c_64x48_er_1(u8g2_t *u8g2, const u8g2_cb_t *rotation, u8x8_msg_cb byte_cb
 357:..\..\u8g2\csrc/u8g2_d_setup.c **** {
 2836              		.loc 1 357 0
 2837              		.cfi_startproc
 2838              		@ args = 0, pretend = 0, frame = 8
 2839              		@ frame_needed = 0, uses_anonymous_args = 0
 2840              	.LVL429:
 2841 0000 7FB5     		push	{r0, r1, r2, r3, r4, r5, r6, lr}
 2842              		.cfi_def_cfa_offset 32
 2843              		.cfi_offset 0, -32
 2844              		.cfi_offset 1, -28
 2845              		.cfi_offset 2, -24
 2846              		.cfi_offset 3, -20
 2847              		.cfi_offset 4, -16
 2848              		.cfi_offset 5, -12
 2849              		.cfi_offset 6, -8
 2850              		.cfi_offset 14, -4
 358:..\..\u8g2\csrc/u8g2_d_setup.c ****   uint8_t tile_buf_height;
 359:..\..\u8g2\csrc/u8g2_d_setup.c ****   uint8_t *buf;
 360:..\..\u8g2\csrc/u8g2_d_setup.c ****   u8g2_SetupDisplay(u8g2, u8x8_d_ssd1306_64x48_er, u8x8_cad_ssd13xx_i2c, byte_cb, gpio_and_delay_cb
 361:..\..\u8g2\csrc/u8g2_d_setup.c ****   buf = u8g2_m_ssd1306_8_1(&tile_buf_height);
 2851              		.loc 1 361 0
 2852 0002 0F25     		movs	r5, #15
 357:..\..\u8g2\csrc/u8g2_d_setup.c ****   uint8_t tile_buf_height;
 2853              		.loc 1 357 0
 2854 0004 0E00     		movs	r6, r1
 2855              		.loc 1 361 0
 2856 0006 6D44     		add	r5, r5, sp
 360:..\..\u8g2\csrc/u8g2_d_setup.c ****   buf = u8g2_m_ssd1306_8_1(&tile_buf_height);
 2857              		.loc 1 360 0
 2858 0008 0093     		str	r3, [sp]
 2859 000a 0849     		ldr	r1, .L119
 2860              	.LVL430:
 2861 000c 1300     		movs	r3, r2
 2862              	.LVL431:
ARM GAS  C:\Users\Greg\AppData\Local\Temp\ccGRKbG3.s 			page 61


 2863 000e 084A     		ldr	r2, .L119+4
 2864              	.LVL432:
 357:..\..\u8g2\csrc/u8g2_d_setup.c ****   uint8_t tile_buf_height;
 2865              		.loc 1 357 0
 2866 0010 0400     		movs	r4, r0
 360:..\..\u8g2\csrc/u8g2_d_setup.c ****   buf = u8g2_m_ssd1306_8_1(&tile_buf_height);
 2867              		.loc 1 360 0
 2868 0012 FFF7FEFF 		bl	u8x8_Setup
 2869              	.LVL433:
 2870              		.loc 1 361 0
 2871 0016 2800     		movs	r0, r5
 2872 0018 FFF7FEFF 		bl	u8g2_m_ssd1306_8_1
 2873              	.LVL434:
 362:..\..\u8g2\csrc/u8g2_d_setup.c ****   u8g2_SetupBuffer(u8g2, buf, tile_buf_height, u8g2_ll_hvline_vertical_top_lsb, rotation);
 2874              		.loc 1 362 0
 2875 001c 2A78     		ldrb	r2, [r5]
 361:..\..\u8g2\csrc/u8g2_d_setup.c ****   u8g2_SetupBuffer(u8g2, buf, tile_buf_height, u8g2_ll_hvline_vertical_top_lsb, rotation);
 2876              		.loc 1 361 0
 2877 001e 0100     		movs	r1, r0
 2878              	.LVL435:
 2879              		.loc 1 362 0
 2880 0020 0096     		str	r6, [sp]
 2881 0022 044B     		ldr	r3, .L119+8
 2882 0024 2000     		movs	r0, r4
 2883              	.LVL436:
 2884 0026 FFF7FEFF 		bl	u8g2_SetupBuffer
 2885              	.LVL437:
 363:..\..\u8g2\csrc/u8g2_d_setup.c **** }
 2886              		.loc 1 363 0
 2887              		@ sp needed
 2888              	.LVL438:
 2889              	.LVL439:
 2890 002a 7FBD     		pop	{r0, r1, r2, r3, r4, r5, r6, pc}
 2891              	.L120:
 2892              		.align	2
 2893              	.L119:
 2894 002c 00000000 		.word	u8x8_d_ssd1306_64x48_er
 2895 0030 00000000 		.word	u8x8_cad_ssd13xx_i2c
 2896 0034 00000000 		.word	u8g2_ll_hvline_vertical_top_lsb
 2897              		.cfi_endproc
 2898              	.LFE39:
 2899              		.size	u8g2_Setup_ssd1306_i2c_64x48_er_1, .-u8g2_Setup_ssd1306_i2c_64x48_er_1
 2900              		.section	.text.u8g2_Setup_ssd1306_i2c_64x48_er_2,"ax",%progbits
 2901              		.align	1
 2902              		.global	u8g2_Setup_ssd1306_i2c_64x48_er_2
 2903              		.code	16
 2904              		.thumb_func
 2905              		.type	u8g2_Setup_ssd1306_i2c_64x48_er_2, %function
 2906              	u8g2_Setup_ssd1306_i2c_64x48_er_2:
 2907              	.LFB40:
 364:..\..\u8g2\csrc/u8g2_d_setup.c **** /* ssd1306 2 */
 365:..\..\u8g2\csrc/u8g2_d_setup.c **** void u8g2_Setup_ssd1306_i2c_64x48_er_2(u8g2_t *u8g2, const u8g2_cb_t *rotation, u8x8_msg_cb byte_cb
 366:..\..\u8g2\csrc/u8g2_d_setup.c **** {
 2908              		.loc 1 366 0
 2909              		.cfi_startproc
 2910              		@ args = 0, pretend = 0, frame = 8
 2911              		@ frame_needed = 0, uses_anonymous_args = 0
ARM GAS  C:\Users\Greg\AppData\Local\Temp\ccGRKbG3.s 			page 62


 2912              	.LVL440:
 2913 0000 7FB5     		push	{r0, r1, r2, r3, r4, r5, r6, lr}
 2914              		.cfi_def_cfa_offset 32
 2915              		.cfi_offset 0, -32
 2916              		.cfi_offset 1, -28
 2917              		.cfi_offset 2, -24
 2918              		.cfi_offset 3, -20
 2919              		.cfi_offset 4, -16
 2920              		.cfi_offset 5, -12
 2921              		.cfi_offset 6, -8
 2922              		.cfi_offset 14, -4
 367:..\..\u8g2\csrc/u8g2_d_setup.c ****   uint8_t tile_buf_height;
 368:..\..\u8g2\csrc/u8g2_d_setup.c ****   uint8_t *buf;
 369:..\..\u8g2\csrc/u8g2_d_setup.c ****   u8g2_SetupDisplay(u8g2, u8x8_d_ssd1306_64x48_er, u8x8_cad_ssd13xx_i2c, byte_cb, gpio_and_delay_cb
 370:..\..\u8g2\csrc/u8g2_d_setup.c ****   buf = u8g2_m_ssd1306_8_2(&tile_buf_height);
 2923              		.loc 1 370 0
 2924 0002 0F25     		movs	r5, #15
 366:..\..\u8g2\csrc/u8g2_d_setup.c ****   uint8_t tile_buf_height;
 2925              		.loc 1 366 0
 2926 0004 0E00     		movs	r6, r1
 2927              		.loc 1 370 0
 2928 0006 6D44     		add	r5, r5, sp
 369:..\..\u8g2\csrc/u8g2_d_setup.c ****   buf = u8g2_m_ssd1306_8_2(&tile_buf_height);
 2929              		.loc 1 369 0
 2930 0008 0093     		str	r3, [sp]
 2931 000a 0849     		ldr	r1, .L122
 2932              	.LVL441:
 2933 000c 1300     		movs	r3, r2
 2934              	.LVL442:
 2935 000e 084A     		ldr	r2, .L122+4
 2936              	.LVL443:
 366:..\..\u8g2\csrc/u8g2_d_setup.c ****   uint8_t tile_buf_height;
 2937              		.loc 1 366 0
 2938 0010 0400     		movs	r4, r0
 369:..\..\u8g2\csrc/u8g2_d_setup.c ****   buf = u8g2_m_ssd1306_8_2(&tile_buf_height);
 2939              		.loc 1 369 0
 2940 0012 FFF7FEFF 		bl	u8x8_Setup
 2941              	.LVL444:
 2942              		.loc 1 370 0
 2943 0016 2800     		movs	r0, r5
 2944 0018 FFF7FEFF 		bl	u8g2_m_ssd1306_8_2
 2945              	.LVL445:
 371:..\..\u8g2\csrc/u8g2_d_setup.c ****   u8g2_SetupBuffer(u8g2, buf, tile_buf_height, u8g2_ll_hvline_vertical_top_lsb, rotation);
 2946              		.loc 1 371 0
 2947 001c 2A78     		ldrb	r2, [r5]
 370:..\..\u8g2\csrc/u8g2_d_setup.c ****   u8g2_SetupBuffer(u8g2, buf, tile_buf_height, u8g2_ll_hvline_vertical_top_lsb, rotation);
 2948              		.loc 1 370 0
 2949 001e 0100     		movs	r1, r0
 2950              	.LVL446:
 2951              		.loc 1 371 0
 2952 0020 0096     		str	r6, [sp]
 2953 0022 044B     		ldr	r3, .L122+8
 2954 0024 2000     		movs	r0, r4
 2955              	.LVL447:
 2956 0026 FFF7FEFF 		bl	u8g2_SetupBuffer
 2957              	.LVL448:
 372:..\..\u8g2\csrc/u8g2_d_setup.c **** }
ARM GAS  C:\Users\Greg\AppData\Local\Temp\ccGRKbG3.s 			page 63


 2958              		.loc 1 372 0
 2959              		@ sp needed
 2960              	.LVL449:
 2961              	.LVL450:
 2962 002a 7FBD     		pop	{r0, r1, r2, r3, r4, r5, r6, pc}
 2963              	.L123:
 2964              		.align	2
 2965              	.L122:
 2966 002c 00000000 		.word	u8x8_d_ssd1306_64x48_er
 2967 0030 00000000 		.word	u8x8_cad_ssd13xx_i2c
 2968 0034 00000000 		.word	u8g2_ll_hvline_vertical_top_lsb
 2969              		.cfi_endproc
 2970              	.LFE40:
 2971              		.size	u8g2_Setup_ssd1306_i2c_64x48_er_2, .-u8g2_Setup_ssd1306_i2c_64x48_er_2
 2972              		.section	.text.u8g2_Setup_ssd1306_i2c_64x48_er_f,"ax",%progbits
 2973              		.align	1
 2974              		.global	u8g2_Setup_ssd1306_i2c_64x48_er_f
 2975              		.code	16
 2976              		.thumb_func
 2977              		.type	u8g2_Setup_ssd1306_i2c_64x48_er_f, %function
 2978              	u8g2_Setup_ssd1306_i2c_64x48_er_f:
 2979              	.LFB41:
 373:..\..\u8g2\csrc/u8g2_d_setup.c **** /* ssd1306 f */
 374:..\..\u8g2\csrc/u8g2_d_setup.c **** void u8g2_Setup_ssd1306_i2c_64x48_er_f(u8g2_t *u8g2, const u8g2_cb_t *rotation, u8x8_msg_cb byte_cb
 375:..\..\u8g2\csrc/u8g2_d_setup.c **** {
 2980              		.loc 1 375 0
 2981              		.cfi_startproc
 2982              		@ args = 0, pretend = 0, frame = 8
 2983              		@ frame_needed = 0, uses_anonymous_args = 0
 2984              	.LVL451:
 2985 0000 7FB5     		push	{r0, r1, r2, r3, r4, r5, r6, lr}
 2986              		.cfi_def_cfa_offset 32
 2987              		.cfi_offset 0, -32
 2988              		.cfi_offset 1, -28
 2989              		.cfi_offset 2, -24
 2990              		.cfi_offset 3, -20
 2991              		.cfi_offset 4, -16
 2992              		.cfi_offset 5, -12
 2993              		.cfi_offset 6, -8
 2994              		.cfi_offset 14, -4
 376:..\..\u8g2\csrc/u8g2_d_setup.c ****   uint8_t tile_buf_height;
 377:..\..\u8g2\csrc/u8g2_d_setup.c ****   uint8_t *buf;
 378:..\..\u8g2\csrc/u8g2_d_setup.c ****   u8g2_SetupDisplay(u8g2, u8x8_d_ssd1306_64x48_er, u8x8_cad_ssd13xx_i2c, byte_cb, gpio_and_delay_cb
 379:..\..\u8g2\csrc/u8g2_d_setup.c ****   buf = u8g2_m_ssd1306_8_f(&tile_buf_height);
 2995              		.loc 1 379 0
 2996 0002 0F25     		movs	r5, #15
 375:..\..\u8g2\csrc/u8g2_d_setup.c ****   uint8_t tile_buf_height;
 2997              		.loc 1 375 0
 2998 0004 0E00     		movs	r6, r1
 2999              		.loc 1 379 0
 3000 0006 6D44     		add	r5, r5, sp
 378:..\..\u8g2\csrc/u8g2_d_setup.c ****   buf = u8g2_m_ssd1306_8_f(&tile_buf_height);
 3001              		.loc 1 378 0
 3002 0008 0093     		str	r3, [sp]
 3003 000a 0849     		ldr	r1, .L125
 3004              	.LVL452:
 3005 000c 1300     		movs	r3, r2
ARM GAS  C:\Users\Greg\AppData\Local\Temp\ccGRKbG3.s 			page 64


 3006              	.LVL453:
 3007 000e 084A     		ldr	r2, .L125+4
 3008              	.LVL454:
 375:..\..\u8g2\csrc/u8g2_d_setup.c ****   uint8_t tile_buf_height;
 3009              		.loc 1 375 0
 3010 0010 0400     		movs	r4, r0
 378:..\..\u8g2\csrc/u8g2_d_setup.c ****   buf = u8g2_m_ssd1306_8_f(&tile_buf_height);
 3011              		.loc 1 378 0
 3012 0012 FFF7FEFF 		bl	u8x8_Setup
 3013              	.LVL455:
 3014              		.loc 1 379 0
 3015 0016 2800     		movs	r0, r5
 3016 0018 FFF7FEFF 		bl	u8g2_m_ssd1306_8_f
 3017              	.LVL456:
 380:..\..\u8g2\csrc/u8g2_d_setup.c ****   u8g2_SetupBuffer(u8g2, buf, tile_buf_height, u8g2_ll_hvline_vertical_top_lsb, rotation);
 3018              		.loc 1 380 0
 3019 001c 2A78     		ldrb	r2, [r5]
 379:..\..\u8g2\csrc/u8g2_d_setup.c ****   u8g2_SetupBuffer(u8g2, buf, tile_buf_height, u8g2_ll_hvline_vertical_top_lsb, rotation);
 3020              		.loc 1 379 0
 3021 001e 0100     		movs	r1, r0
 3022              	.LVL457:
 3023              		.loc 1 380 0
 3024 0020 0096     		str	r6, [sp]
 3025 0022 044B     		ldr	r3, .L125+8
 3026 0024 2000     		movs	r0, r4
 3027              	.LVL458:
 3028 0026 FFF7FEFF 		bl	u8g2_SetupBuffer
 3029              	.LVL459:
 381:..\..\u8g2\csrc/u8g2_d_setup.c **** }
 3030              		.loc 1 381 0
 3031              		@ sp needed
 3032              	.LVL460:
 3033              	.LVL461:
 3034 002a 7FBD     		pop	{r0, r1, r2, r3, r4, r5, r6, pc}
 3035              	.L126:
 3036              		.align	2
 3037              	.L125:
 3038 002c 00000000 		.word	u8x8_d_ssd1306_64x48_er
 3039 0030 00000000 		.word	u8x8_cad_ssd13xx_i2c
 3040 0034 00000000 		.word	u8g2_ll_hvline_vertical_top_lsb
 3041              		.cfi_endproc
 3042              	.LFE41:
 3043              		.size	u8g2_Setup_ssd1306_i2c_64x48_er_f, .-u8g2_Setup_ssd1306_i2c_64x48_er_f
 3044              		.section	.text.u8g2_Setup_ssd1309_128x64_noname_1,"ax",%progbits
 3045              		.align	1
 3046              		.global	u8g2_Setup_ssd1309_128x64_noname_1
 3047              		.code	16
 3048              		.thumb_func
 3049              		.type	u8g2_Setup_ssd1309_128x64_noname_1, %function
 3050              	u8g2_Setup_ssd1309_128x64_noname_1:
 3051              	.LFB42:
 382:..\..\u8g2\csrc/u8g2_d_setup.c **** /* ssd1309 */
 383:..\..\u8g2\csrc/u8g2_d_setup.c **** /* ssd1309 1 */
 384:..\..\u8g2\csrc/u8g2_d_setup.c **** void u8g2_Setup_ssd1309_128x64_noname_1(u8g2_t *u8g2, const u8g2_cb_t *rotation, u8x8_msg_cb byte_c
 385:..\..\u8g2\csrc/u8g2_d_setup.c **** {
 3052              		.loc 1 385 0
 3053              		.cfi_startproc
ARM GAS  C:\Users\Greg\AppData\Local\Temp\ccGRKbG3.s 			page 65


 3054              		@ args = 0, pretend = 0, frame = 8
 3055              		@ frame_needed = 0, uses_anonymous_args = 0
 3056              	.LVL462:
 3057 0000 7FB5     		push	{r0, r1, r2, r3, r4, r5, r6, lr}
 3058              		.cfi_def_cfa_offset 32
 3059              		.cfi_offset 0, -32
 3060              		.cfi_offset 1, -28
 3061              		.cfi_offset 2, -24
 3062              		.cfi_offset 3, -20
 3063              		.cfi_offset 4, -16
 3064              		.cfi_offset 5, -12
 3065              		.cfi_offset 6, -8
 3066              		.cfi_offset 14, -4
 386:..\..\u8g2\csrc/u8g2_d_setup.c ****   uint8_t tile_buf_height;
 387:..\..\u8g2\csrc/u8g2_d_setup.c ****   uint8_t *buf;
 388:..\..\u8g2\csrc/u8g2_d_setup.c ****   u8g2_SetupDisplay(u8g2, u8x8_d_ssd1309_128x64_noname, u8x8_cad_001, byte_cb, gpio_and_delay_cb);
 389:..\..\u8g2\csrc/u8g2_d_setup.c ****   buf = u8g2_m_ssd1309_16_1(&tile_buf_height);
 3067              		.loc 1 389 0
 3068 0002 0F25     		movs	r5, #15
 385:..\..\u8g2\csrc/u8g2_d_setup.c ****   uint8_t tile_buf_height;
 3069              		.loc 1 385 0
 3070 0004 0E00     		movs	r6, r1
 3071              		.loc 1 389 0
 3072 0006 6D44     		add	r5, r5, sp
 388:..\..\u8g2\csrc/u8g2_d_setup.c ****   buf = u8g2_m_ssd1309_16_1(&tile_buf_height);
 3073              		.loc 1 388 0
 3074 0008 0093     		str	r3, [sp]
 3075 000a 0849     		ldr	r1, .L128
 3076              	.LVL463:
 3077 000c 1300     		movs	r3, r2
 3078              	.LVL464:
 3079 000e 084A     		ldr	r2, .L128+4
 3080              	.LVL465:
 385:..\..\u8g2\csrc/u8g2_d_setup.c ****   uint8_t tile_buf_height;
 3081              		.loc 1 385 0
 3082 0010 0400     		movs	r4, r0
 388:..\..\u8g2\csrc/u8g2_d_setup.c ****   buf = u8g2_m_ssd1309_16_1(&tile_buf_height);
 3083              		.loc 1 388 0
 3084 0012 FFF7FEFF 		bl	u8x8_Setup
 3085              	.LVL466:
 3086              		.loc 1 389 0
 3087 0016 2800     		movs	r0, r5
 3088 0018 FFF7FEFF 		bl	u8g2_m_ssd1309_16_1
 3089              	.LVL467:
 390:..\..\u8g2\csrc/u8g2_d_setup.c ****   u8g2_SetupBuffer(u8g2, buf, tile_buf_height, u8g2_ll_hvline_vertical_top_lsb, rotation);
 3090              		.loc 1 390 0
 3091 001c 2A78     		ldrb	r2, [r5]
 389:..\..\u8g2\csrc/u8g2_d_setup.c ****   u8g2_SetupBuffer(u8g2, buf, tile_buf_height, u8g2_ll_hvline_vertical_top_lsb, rotation);
 3092              		.loc 1 389 0
 3093 001e 0100     		movs	r1, r0
 3094              	.LVL468:
 3095              		.loc 1 390 0
 3096 0020 0096     		str	r6, [sp]
 3097 0022 044B     		ldr	r3, .L128+8
 3098 0024 2000     		movs	r0, r4
 3099              	.LVL469:
 3100 0026 FFF7FEFF 		bl	u8g2_SetupBuffer
ARM GAS  C:\Users\Greg\AppData\Local\Temp\ccGRKbG3.s 			page 66


 3101              	.LVL470:
 391:..\..\u8g2\csrc/u8g2_d_setup.c **** }
 3102              		.loc 1 391 0
 3103              		@ sp needed
 3104              	.LVL471:
 3105              	.LVL472:
 3106 002a 7FBD     		pop	{r0, r1, r2, r3, r4, r5, r6, pc}
 3107              	.L129:
 3108              		.align	2
 3109              	.L128:
 3110 002c 00000000 		.word	u8x8_d_ssd1309_128x64_noname
 3111 0030 00000000 		.word	u8x8_cad_001
 3112 0034 00000000 		.word	u8g2_ll_hvline_vertical_top_lsb
 3113              		.cfi_endproc
 3114              	.LFE42:
 3115              		.size	u8g2_Setup_ssd1309_128x64_noname_1, .-u8g2_Setup_ssd1309_128x64_noname_1
 3116              		.section	.text.u8g2_Setup_ssd1309_128x64_noname_2,"ax",%progbits
 3117              		.align	1
 3118              		.global	u8g2_Setup_ssd1309_128x64_noname_2
 3119              		.code	16
 3120              		.thumb_func
 3121              		.type	u8g2_Setup_ssd1309_128x64_noname_2, %function
 3122              	u8g2_Setup_ssd1309_128x64_noname_2:
 3123              	.LFB43:
 392:..\..\u8g2\csrc/u8g2_d_setup.c **** /* ssd1309 2 */
 393:..\..\u8g2\csrc/u8g2_d_setup.c **** void u8g2_Setup_ssd1309_128x64_noname_2(u8g2_t *u8g2, const u8g2_cb_t *rotation, u8x8_msg_cb byte_c
 394:..\..\u8g2\csrc/u8g2_d_setup.c **** {
 3124              		.loc 1 394 0
 3125              		.cfi_startproc
 3126              		@ args = 0, pretend = 0, frame = 8
 3127              		@ frame_needed = 0, uses_anonymous_args = 0
 3128              	.LVL473:
 3129 0000 7FB5     		push	{r0, r1, r2, r3, r4, r5, r6, lr}
 3130              		.cfi_def_cfa_offset 32
 3131              		.cfi_offset 0, -32
 3132              		.cfi_offset 1, -28
 3133              		.cfi_offset 2, -24
 3134              		.cfi_offset 3, -20
 3135              		.cfi_offset 4, -16
 3136              		.cfi_offset 5, -12
 3137              		.cfi_offset 6, -8
 3138              		.cfi_offset 14, -4
 395:..\..\u8g2\csrc/u8g2_d_setup.c ****   uint8_t tile_buf_height;
 396:..\..\u8g2\csrc/u8g2_d_setup.c ****   uint8_t *buf;
 397:..\..\u8g2\csrc/u8g2_d_setup.c ****   u8g2_SetupDisplay(u8g2, u8x8_d_ssd1309_128x64_noname, u8x8_cad_001, byte_cb, gpio_and_delay_cb);
 398:..\..\u8g2\csrc/u8g2_d_setup.c ****   buf = u8g2_m_ssd1309_16_2(&tile_buf_height);
 3139              		.loc 1 398 0
 3140 0002 0F25     		movs	r5, #15
 394:..\..\u8g2\csrc/u8g2_d_setup.c ****   uint8_t tile_buf_height;
 3141              		.loc 1 394 0
 3142 0004 0E00     		movs	r6, r1
 3143              		.loc 1 398 0
 3144 0006 6D44     		add	r5, r5, sp
 397:..\..\u8g2\csrc/u8g2_d_setup.c ****   buf = u8g2_m_ssd1309_16_2(&tile_buf_height);
 3145              		.loc 1 397 0
 3146 0008 0093     		str	r3, [sp]
 3147 000a 0849     		ldr	r1, .L131
ARM GAS  C:\Users\Greg\AppData\Local\Temp\ccGRKbG3.s 			page 67


 3148              	.LVL474:
 3149 000c 1300     		movs	r3, r2
 3150              	.LVL475:
 3151 000e 084A     		ldr	r2, .L131+4
 3152              	.LVL476:
 394:..\..\u8g2\csrc/u8g2_d_setup.c ****   uint8_t tile_buf_height;
 3153              		.loc 1 394 0
 3154 0010 0400     		movs	r4, r0
 397:..\..\u8g2\csrc/u8g2_d_setup.c ****   buf = u8g2_m_ssd1309_16_2(&tile_buf_height);
 3155              		.loc 1 397 0
 3156 0012 FFF7FEFF 		bl	u8x8_Setup
 3157              	.LVL477:
 3158              		.loc 1 398 0
 3159 0016 2800     		movs	r0, r5
 3160 0018 FFF7FEFF 		bl	u8g2_m_ssd1309_16_2
 3161              	.LVL478:
 399:..\..\u8g2\csrc/u8g2_d_setup.c ****   u8g2_SetupBuffer(u8g2, buf, tile_buf_height, u8g2_ll_hvline_vertical_top_lsb, rotation);
 3162              		.loc 1 399 0
 3163 001c 2A78     		ldrb	r2, [r5]
 398:..\..\u8g2\csrc/u8g2_d_setup.c ****   u8g2_SetupBuffer(u8g2, buf, tile_buf_height, u8g2_ll_hvline_vertical_top_lsb, rotation);
 3164              		.loc 1 398 0
 3165 001e 0100     		movs	r1, r0
 3166              	.LVL479:
 3167              		.loc 1 399 0
 3168 0020 0096     		str	r6, [sp]
 3169 0022 044B     		ldr	r3, .L131+8
 3170 0024 2000     		movs	r0, r4
 3171              	.LVL480:
 3172 0026 FFF7FEFF 		bl	u8g2_SetupBuffer
 3173              	.LVL481:
 400:..\..\u8g2\csrc/u8g2_d_setup.c **** }
 3174              		.loc 1 400 0
 3175              		@ sp needed
 3176              	.LVL482:
 3177              	.LVL483:
 3178 002a 7FBD     		pop	{r0, r1, r2, r3, r4, r5, r6, pc}
 3179              	.L132:
 3180              		.align	2
 3181              	.L131:
 3182 002c 00000000 		.word	u8x8_d_ssd1309_128x64_noname
 3183 0030 00000000 		.word	u8x8_cad_001
 3184 0034 00000000 		.word	u8g2_ll_hvline_vertical_top_lsb
 3185              		.cfi_endproc
 3186              	.LFE43:
 3187              		.size	u8g2_Setup_ssd1309_128x64_noname_2, .-u8g2_Setup_ssd1309_128x64_noname_2
 3188              		.section	.text.u8g2_Setup_ssd1309_128x64_noname_f,"ax",%progbits
 3189              		.align	1
 3190              		.global	u8g2_Setup_ssd1309_128x64_noname_f
 3191              		.code	16
 3192              		.thumb_func
 3193              		.type	u8g2_Setup_ssd1309_128x64_noname_f, %function
 3194              	u8g2_Setup_ssd1309_128x64_noname_f:
 3195              	.LFB44:
 401:..\..\u8g2\csrc/u8g2_d_setup.c **** /* ssd1309 f */
 402:..\..\u8g2\csrc/u8g2_d_setup.c **** void u8g2_Setup_ssd1309_128x64_noname_f(u8g2_t *u8g2, const u8g2_cb_t *rotation, u8x8_msg_cb byte_c
 403:..\..\u8g2\csrc/u8g2_d_setup.c **** {
 3196              		.loc 1 403 0
ARM GAS  C:\Users\Greg\AppData\Local\Temp\ccGRKbG3.s 			page 68


 3197              		.cfi_startproc
 3198              		@ args = 0, pretend = 0, frame = 8
 3199              		@ frame_needed = 0, uses_anonymous_args = 0
 3200              	.LVL484:
 3201 0000 7FB5     		push	{r0, r1, r2, r3, r4, r5, r6, lr}
 3202              		.cfi_def_cfa_offset 32
 3203              		.cfi_offset 0, -32
 3204              		.cfi_offset 1, -28
 3205              		.cfi_offset 2, -24
 3206              		.cfi_offset 3, -20
 3207              		.cfi_offset 4, -16
 3208              		.cfi_offset 5, -12
 3209              		.cfi_offset 6, -8
 3210              		.cfi_offset 14, -4
 404:..\..\u8g2\csrc/u8g2_d_setup.c ****   uint8_t tile_buf_height;
 405:..\..\u8g2\csrc/u8g2_d_setup.c ****   uint8_t *buf;
 406:..\..\u8g2\csrc/u8g2_d_setup.c ****   u8g2_SetupDisplay(u8g2, u8x8_d_ssd1309_128x64_noname, u8x8_cad_001, byte_cb, gpio_and_delay_cb);
 407:..\..\u8g2\csrc/u8g2_d_setup.c ****   buf = u8g2_m_ssd1309_16_f(&tile_buf_height);
 3211              		.loc 1 407 0
 3212 0002 0F25     		movs	r5, #15
 403:..\..\u8g2\csrc/u8g2_d_setup.c ****   uint8_t tile_buf_height;
 3213              		.loc 1 403 0
 3214 0004 0E00     		movs	r6, r1
 3215              		.loc 1 407 0
 3216 0006 6D44     		add	r5, r5, sp
 406:..\..\u8g2\csrc/u8g2_d_setup.c ****   buf = u8g2_m_ssd1309_16_f(&tile_buf_height);
 3217              		.loc 1 406 0
 3218 0008 0093     		str	r3, [sp]
 3219 000a 0849     		ldr	r1, .L134
 3220              	.LVL485:
 3221 000c 1300     		movs	r3, r2
 3222              	.LVL486:
 3223 000e 084A     		ldr	r2, .L134+4
 3224              	.LVL487:
 403:..\..\u8g2\csrc/u8g2_d_setup.c ****   uint8_t tile_buf_height;
 3225              		.loc 1 403 0
 3226 0010 0400     		movs	r4, r0
 406:..\..\u8g2\csrc/u8g2_d_setup.c ****   buf = u8g2_m_ssd1309_16_f(&tile_buf_height);
 3227              		.loc 1 406 0
 3228 0012 FFF7FEFF 		bl	u8x8_Setup
 3229              	.LVL488:
 3230              		.loc 1 407 0
 3231 0016 2800     		movs	r0, r5
 3232 0018 FFF7FEFF 		bl	u8g2_m_ssd1309_16_f
 3233              	.LVL489:
 408:..\..\u8g2\csrc/u8g2_d_setup.c ****   u8g2_SetupBuffer(u8g2, buf, tile_buf_height, u8g2_ll_hvline_vertical_top_lsb, rotation);
 3234              		.loc 1 408 0
 3235 001c 2A78     		ldrb	r2, [r5]
 407:..\..\u8g2\csrc/u8g2_d_setup.c ****   u8g2_SetupBuffer(u8g2, buf, tile_buf_height, u8g2_ll_hvline_vertical_top_lsb, rotation);
 3236              		.loc 1 407 0
 3237 001e 0100     		movs	r1, r0
 3238              	.LVL490:
 3239              		.loc 1 408 0
 3240 0020 0096     		str	r6, [sp]
 3241 0022 044B     		ldr	r3, .L134+8
 3242 0024 2000     		movs	r0, r4
 3243              	.LVL491:
ARM GAS  C:\Users\Greg\AppData\Local\Temp\ccGRKbG3.s 			page 69


 3244 0026 FFF7FEFF 		bl	u8g2_SetupBuffer
 3245              	.LVL492:
 409:..\..\u8g2\csrc/u8g2_d_setup.c **** }
 3246              		.loc 1 409 0
 3247              		@ sp needed
 3248              	.LVL493:
 3249              	.LVL494:
 3250 002a 7FBD     		pop	{r0, r1, r2, r3, r4, r5, r6, pc}
 3251              	.L135:
 3252              		.align	2
 3253              	.L134:
 3254 002c 00000000 		.word	u8x8_d_ssd1309_128x64_noname
 3255 0030 00000000 		.word	u8x8_cad_001
 3256 0034 00000000 		.word	u8g2_ll_hvline_vertical_top_lsb
 3257              		.cfi_endproc
 3258              	.LFE44:
 3259              		.size	u8g2_Setup_ssd1309_128x64_noname_f, .-u8g2_Setup_ssd1309_128x64_noname_f
 3260              		.section	.text.u8g2_Setup_ssd1309_i2c_128x64_noname_1,"ax",%progbits
 3261              		.align	1
 3262              		.global	u8g2_Setup_ssd1309_i2c_128x64_noname_1
 3263              		.code	16
 3264              		.thumb_func
 3265              		.type	u8g2_Setup_ssd1309_i2c_128x64_noname_1, %function
 3266              	u8g2_Setup_ssd1309_i2c_128x64_noname_1:
 3267              	.LFB45:
 410:..\..\u8g2\csrc/u8g2_d_setup.c **** /* ssd1309 */
 411:..\..\u8g2\csrc/u8g2_d_setup.c **** /* ssd1309 1 */
 412:..\..\u8g2\csrc/u8g2_d_setup.c **** void u8g2_Setup_ssd1309_i2c_128x64_noname_1(u8g2_t *u8g2, const u8g2_cb_t *rotation, u8x8_msg_cb by
 413:..\..\u8g2\csrc/u8g2_d_setup.c **** {
 3268              		.loc 1 413 0
 3269              		.cfi_startproc
 3270              		@ args = 0, pretend = 0, frame = 8
 3271              		@ frame_needed = 0, uses_anonymous_args = 0
 3272              	.LVL495:
 3273 0000 7FB5     		push	{r0, r1, r2, r3, r4, r5, r6, lr}
 3274              		.cfi_def_cfa_offset 32
 3275              		.cfi_offset 0, -32
 3276              		.cfi_offset 1, -28
 3277              		.cfi_offset 2, -24
 3278              		.cfi_offset 3, -20
 3279              		.cfi_offset 4, -16
 3280              		.cfi_offset 5, -12
 3281              		.cfi_offset 6, -8
 3282              		.cfi_offset 14, -4
 414:..\..\u8g2\csrc/u8g2_d_setup.c ****   uint8_t tile_buf_height;
 415:..\..\u8g2\csrc/u8g2_d_setup.c ****   uint8_t *buf;
 416:..\..\u8g2\csrc/u8g2_d_setup.c ****   u8g2_SetupDisplay(u8g2, u8x8_d_ssd1309_128x64_noname, u8x8_cad_ssd13xx_i2c, byte_cb, gpio_and_del
 417:..\..\u8g2\csrc/u8g2_d_setup.c ****   buf = u8g2_m_ssd1309_16_1(&tile_buf_height);
 3283              		.loc 1 417 0
 3284 0002 0F25     		movs	r5, #15
 413:..\..\u8g2\csrc/u8g2_d_setup.c ****   uint8_t tile_buf_height;
 3285              		.loc 1 413 0
 3286 0004 0E00     		movs	r6, r1
 3287              		.loc 1 417 0
 3288 0006 6D44     		add	r5, r5, sp
 416:..\..\u8g2\csrc/u8g2_d_setup.c ****   buf = u8g2_m_ssd1309_16_1(&tile_buf_height);
 3289              		.loc 1 416 0
ARM GAS  C:\Users\Greg\AppData\Local\Temp\ccGRKbG3.s 			page 70


 3290 0008 0093     		str	r3, [sp]
 3291 000a 0849     		ldr	r1, .L137
 3292              	.LVL496:
 3293 000c 1300     		movs	r3, r2
 3294              	.LVL497:
 3295 000e 084A     		ldr	r2, .L137+4
 3296              	.LVL498:
 413:..\..\u8g2\csrc/u8g2_d_setup.c ****   uint8_t tile_buf_height;
 3297              		.loc 1 413 0
 3298 0010 0400     		movs	r4, r0
 416:..\..\u8g2\csrc/u8g2_d_setup.c ****   buf = u8g2_m_ssd1309_16_1(&tile_buf_height);
 3299              		.loc 1 416 0
 3300 0012 FFF7FEFF 		bl	u8x8_Setup
 3301              	.LVL499:
 3302              		.loc 1 417 0
 3303 0016 2800     		movs	r0, r5
 3304 0018 FFF7FEFF 		bl	u8g2_m_ssd1309_16_1
 3305              	.LVL500:
 418:..\..\u8g2\csrc/u8g2_d_setup.c ****   u8g2_SetupBuffer(u8g2, buf, tile_buf_height, u8g2_ll_hvline_vertical_top_lsb, rotation);
 3306              		.loc 1 418 0
 3307 001c 2A78     		ldrb	r2, [r5]
 417:..\..\u8g2\csrc/u8g2_d_setup.c ****   u8g2_SetupBuffer(u8g2, buf, tile_buf_height, u8g2_ll_hvline_vertical_top_lsb, rotation);
 3308              		.loc 1 417 0
 3309 001e 0100     		movs	r1, r0
 3310              	.LVL501:
 3311              		.loc 1 418 0
 3312 0020 0096     		str	r6, [sp]
 3313 0022 044B     		ldr	r3, .L137+8
 3314 0024 2000     		movs	r0, r4
 3315              	.LVL502:
 3316 0026 FFF7FEFF 		bl	u8g2_SetupBuffer
 3317              	.LVL503:
 419:..\..\u8g2\csrc/u8g2_d_setup.c **** }
 3318              		.loc 1 419 0
 3319              		@ sp needed
 3320              	.LVL504:
 3321              	.LVL505:
 3322 002a 7FBD     		pop	{r0, r1, r2, r3, r4, r5, r6, pc}
 3323              	.L138:
 3324              		.align	2
 3325              	.L137:
 3326 002c 00000000 		.word	u8x8_d_ssd1309_128x64_noname
 3327 0030 00000000 		.word	u8x8_cad_ssd13xx_i2c
 3328 0034 00000000 		.word	u8g2_ll_hvline_vertical_top_lsb
 3329              		.cfi_endproc
 3330              	.LFE45:
 3331              		.size	u8g2_Setup_ssd1309_i2c_128x64_noname_1, .-u8g2_Setup_ssd1309_i2c_128x64_noname_1
 3332              		.section	.text.u8g2_Setup_ssd1309_i2c_128x64_noname_2,"ax",%progbits
 3333              		.align	1
 3334              		.global	u8g2_Setup_ssd1309_i2c_128x64_noname_2
 3335              		.code	16
 3336              		.thumb_func
 3337              		.type	u8g2_Setup_ssd1309_i2c_128x64_noname_2, %function
 3338              	u8g2_Setup_ssd1309_i2c_128x64_noname_2:
 3339              	.LFB46:
 420:..\..\u8g2\csrc/u8g2_d_setup.c **** /* ssd1309 2 */
 421:..\..\u8g2\csrc/u8g2_d_setup.c **** void u8g2_Setup_ssd1309_i2c_128x64_noname_2(u8g2_t *u8g2, const u8g2_cb_t *rotation, u8x8_msg_cb by
ARM GAS  C:\Users\Greg\AppData\Local\Temp\ccGRKbG3.s 			page 71


 422:..\..\u8g2\csrc/u8g2_d_setup.c **** {
 3340              		.loc 1 422 0
 3341              		.cfi_startproc
 3342              		@ args = 0, pretend = 0, frame = 8
 3343              		@ frame_needed = 0, uses_anonymous_args = 0
 3344              	.LVL506:
 3345 0000 7FB5     		push	{r0, r1, r2, r3, r4, r5, r6, lr}
 3346              		.cfi_def_cfa_offset 32
 3347              		.cfi_offset 0, -32
 3348              		.cfi_offset 1, -28
 3349              		.cfi_offset 2, -24
 3350              		.cfi_offset 3, -20
 3351              		.cfi_offset 4, -16
 3352              		.cfi_offset 5, -12
 3353              		.cfi_offset 6, -8
 3354              		.cfi_offset 14, -4
 423:..\..\u8g2\csrc/u8g2_d_setup.c ****   uint8_t tile_buf_height;
 424:..\..\u8g2\csrc/u8g2_d_setup.c ****   uint8_t *buf;
 425:..\..\u8g2\csrc/u8g2_d_setup.c ****   u8g2_SetupDisplay(u8g2, u8x8_d_ssd1309_128x64_noname, u8x8_cad_ssd13xx_i2c, byte_cb, gpio_and_del
 426:..\..\u8g2\csrc/u8g2_d_setup.c ****   buf = u8g2_m_ssd1309_16_2(&tile_buf_height);
 3355              		.loc 1 426 0
 3356 0002 0F25     		movs	r5, #15
 422:..\..\u8g2\csrc/u8g2_d_setup.c ****   uint8_t tile_buf_height;
 3357              		.loc 1 422 0
 3358 0004 0E00     		movs	r6, r1
 3359              		.loc 1 426 0
 3360 0006 6D44     		add	r5, r5, sp
 425:..\..\u8g2\csrc/u8g2_d_setup.c ****   buf = u8g2_m_ssd1309_16_2(&tile_buf_height);
 3361              		.loc 1 425 0
 3362 0008 0093     		str	r3, [sp]
 3363 000a 0849     		ldr	r1, .L140
 3364              	.LVL507:
 3365 000c 1300     		movs	r3, r2
 3366              	.LVL508:
 3367 000e 084A     		ldr	r2, .L140+4
 3368              	.LVL509:
 422:..\..\u8g2\csrc/u8g2_d_setup.c ****   uint8_t tile_buf_height;
 3369              		.loc 1 422 0
 3370 0010 0400     		movs	r4, r0
 425:..\..\u8g2\csrc/u8g2_d_setup.c ****   buf = u8g2_m_ssd1309_16_2(&tile_buf_height);
 3371              		.loc 1 425 0
 3372 0012 FFF7FEFF 		bl	u8x8_Setup
 3373              	.LVL510:
 3374              		.loc 1 426 0
 3375 0016 2800     		movs	r0, r5
 3376 0018 FFF7FEFF 		bl	u8g2_m_ssd1309_16_2
 3377              	.LVL511:
 427:..\..\u8g2\csrc/u8g2_d_setup.c ****   u8g2_SetupBuffer(u8g2, buf, tile_buf_height, u8g2_ll_hvline_vertical_top_lsb, rotation);
 3378              		.loc 1 427 0
 3379 001c 2A78     		ldrb	r2, [r5]
 426:..\..\u8g2\csrc/u8g2_d_setup.c ****   u8g2_SetupBuffer(u8g2, buf, tile_buf_height, u8g2_ll_hvline_vertical_top_lsb, rotation);
 3380              		.loc 1 426 0
 3381 001e 0100     		movs	r1, r0
 3382              	.LVL512:
 3383              		.loc 1 427 0
 3384 0020 0096     		str	r6, [sp]
 3385 0022 044B     		ldr	r3, .L140+8
ARM GAS  C:\Users\Greg\AppData\Local\Temp\ccGRKbG3.s 			page 72


 3386 0024 2000     		movs	r0, r4
 3387              	.LVL513:
 3388 0026 FFF7FEFF 		bl	u8g2_SetupBuffer
 3389              	.LVL514:
 428:..\..\u8g2\csrc/u8g2_d_setup.c **** }
 3390              		.loc 1 428 0
 3391              		@ sp needed
 3392              	.LVL515:
 3393              	.LVL516:
 3394 002a 7FBD     		pop	{r0, r1, r2, r3, r4, r5, r6, pc}
 3395              	.L141:
 3396              		.align	2
 3397              	.L140:
 3398 002c 00000000 		.word	u8x8_d_ssd1309_128x64_noname
 3399 0030 00000000 		.word	u8x8_cad_ssd13xx_i2c
 3400 0034 00000000 		.word	u8g2_ll_hvline_vertical_top_lsb
 3401              		.cfi_endproc
 3402              	.LFE46:
 3403              		.size	u8g2_Setup_ssd1309_i2c_128x64_noname_2, .-u8g2_Setup_ssd1309_i2c_128x64_noname_2
 3404              		.section	.text.u8g2_Setup_ssd1309_i2c_128x64_noname_f,"ax",%progbits
 3405              		.align	1
 3406              		.global	u8g2_Setup_ssd1309_i2c_128x64_noname_f
 3407              		.code	16
 3408              		.thumb_func
 3409              		.type	u8g2_Setup_ssd1309_i2c_128x64_noname_f, %function
 3410              	u8g2_Setup_ssd1309_i2c_128x64_noname_f:
 3411              	.LFB47:
 429:..\..\u8g2\csrc/u8g2_d_setup.c **** /* ssd1309 f */
 430:..\..\u8g2\csrc/u8g2_d_setup.c **** void u8g2_Setup_ssd1309_i2c_128x64_noname_f(u8g2_t *u8g2, const u8g2_cb_t *rotation, u8x8_msg_cb by
 431:..\..\u8g2\csrc/u8g2_d_setup.c **** {
 3412              		.loc 1 431 0
 3413              		.cfi_startproc
 3414              		@ args = 0, pretend = 0, frame = 8
 3415              		@ frame_needed = 0, uses_anonymous_args = 0
 3416              	.LVL517:
 3417 0000 7FB5     		push	{r0, r1, r2, r3, r4, r5, r6, lr}
 3418              		.cfi_def_cfa_offset 32
 3419              		.cfi_offset 0, -32
 3420              		.cfi_offset 1, -28
 3421              		.cfi_offset 2, -24
 3422              		.cfi_offset 3, -20
 3423              		.cfi_offset 4, -16
 3424              		.cfi_offset 5, -12
 3425              		.cfi_offset 6, -8
 3426              		.cfi_offset 14, -4
 432:..\..\u8g2\csrc/u8g2_d_setup.c ****   uint8_t tile_buf_height;
 433:..\..\u8g2\csrc/u8g2_d_setup.c ****   uint8_t *buf;
 434:..\..\u8g2\csrc/u8g2_d_setup.c ****   u8g2_SetupDisplay(u8g2, u8x8_d_ssd1309_128x64_noname, u8x8_cad_ssd13xx_i2c, byte_cb, gpio_and_del
 435:..\..\u8g2\csrc/u8g2_d_setup.c ****   buf = u8g2_m_ssd1309_16_f(&tile_buf_height);
 3427              		.loc 1 435 0
 3428 0002 0F25     		movs	r5, #15
 431:..\..\u8g2\csrc/u8g2_d_setup.c ****   uint8_t tile_buf_height;
 3429              		.loc 1 431 0
 3430 0004 0E00     		movs	r6, r1
 3431              		.loc 1 435 0
 3432 0006 6D44     		add	r5, r5, sp
 434:..\..\u8g2\csrc/u8g2_d_setup.c ****   buf = u8g2_m_ssd1309_16_f(&tile_buf_height);
ARM GAS  C:\Users\Greg\AppData\Local\Temp\ccGRKbG3.s 			page 73


 3433              		.loc 1 434 0
 3434 0008 0093     		str	r3, [sp]
 3435 000a 0849     		ldr	r1, .L143
 3436              	.LVL518:
 3437 000c 1300     		movs	r3, r2
 3438              	.LVL519:
 3439 000e 084A     		ldr	r2, .L143+4
 3440              	.LVL520:
 431:..\..\u8g2\csrc/u8g2_d_setup.c ****   uint8_t tile_buf_height;
 3441              		.loc 1 431 0
 3442 0010 0400     		movs	r4, r0
 434:..\..\u8g2\csrc/u8g2_d_setup.c ****   buf = u8g2_m_ssd1309_16_f(&tile_buf_height);
 3443              		.loc 1 434 0
 3444 0012 FFF7FEFF 		bl	u8x8_Setup
 3445              	.LVL521:
 3446              		.loc 1 435 0
 3447 0016 2800     		movs	r0, r5
 3448 0018 FFF7FEFF 		bl	u8g2_m_ssd1309_16_f
 3449              	.LVL522:
 436:..\..\u8g2\csrc/u8g2_d_setup.c ****   u8g2_SetupBuffer(u8g2, buf, tile_buf_height, u8g2_ll_hvline_vertical_top_lsb, rotation);
 3450              		.loc 1 436 0
 3451 001c 2A78     		ldrb	r2, [r5]
 435:..\..\u8g2\csrc/u8g2_d_setup.c ****   u8g2_SetupBuffer(u8g2, buf, tile_buf_height, u8g2_ll_hvline_vertical_top_lsb, rotation);
 3452              		.loc 1 435 0
 3453 001e 0100     		movs	r1, r0
 3454              	.LVL523:
 3455              		.loc 1 436 0
 3456 0020 0096     		str	r6, [sp]
 3457 0022 044B     		ldr	r3, .L143+8
 3458 0024 2000     		movs	r0, r4
 3459              	.LVL524:
 3460 0026 FFF7FEFF 		bl	u8g2_SetupBuffer
 3461              	.LVL525:
 437:..\..\u8g2\csrc/u8g2_d_setup.c **** }
 3462              		.loc 1 437 0
 3463              		@ sp needed
 3464              	.LVL526:
 3465              	.LVL527:
 3466 002a 7FBD     		pop	{r0, r1, r2, r3, r4, r5, r6, pc}
 3467              	.L144:
 3468              		.align	2
 3469              	.L143:
 3470 002c 00000000 		.word	u8x8_d_ssd1309_128x64_noname
 3471 0030 00000000 		.word	u8x8_cad_ssd13xx_i2c
 3472 0034 00000000 		.word	u8g2_ll_hvline_vertical_top_lsb
 3473              		.cfi_endproc
 3474              	.LFE47:
 3475              		.size	u8g2_Setup_ssd1309_i2c_128x64_noname_f, .-u8g2_Setup_ssd1309_i2c_128x64_noname_f
 3476              		.section	.text.u8g2_Setup_ssd1325_nhd_128x64_1,"ax",%progbits
 3477              		.align	1
 3478              		.global	u8g2_Setup_ssd1325_nhd_128x64_1
 3479              		.code	16
 3480              		.thumb_func
 3481              		.type	u8g2_Setup_ssd1325_nhd_128x64_1, %function
 3482              	u8g2_Setup_ssd1325_nhd_128x64_1:
 3483              	.LFB48:
 438:..\..\u8g2\csrc/u8g2_d_setup.c **** /* ssd1325 */
ARM GAS  C:\Users\Greg\AppData\Local\Temp\ccGRKbG3.s 			page 74


 439:..\..\u8g2\csrc/u8g2_d_setup.c **** /* ssd1325 1 */
 440:..\..\u8g2\csrc/u8g2_d_setup.c **** void u8g2_Setup_ssd1325_nhd_128x64_1(u8g2_t *u8g2, const u8g2_cb_t *rotation, u8x8_msg_cb byte_cb, 
 441:..\..\u8g2\csrc/u8g2_d_setup.c **** {
 3484              		.loc 1 441 0
 3485              		.cfi_startproc
 3486              		@ args = 0, pretend = 0, frame = 8
 3487              		@ frame_needed = 0, uses_anonymous_args = 0
 3488              	.LVL528:
 3489 0000 7FB5     		push	{r0, r1, r2, r3, r4, r5, r6, lr}
 3490              		.cfi_def_cfa_offset 32
 3491              		.cfi_offset 0, -32
 3492              		.cfi_offset 1, -28
 3493              		.cfi_offset 2, -24
 3494              		.cfi_offset 3, -20
 3495              		.cfi_offset 4, -16
 3496              		.cfi_offset 5, -12
 3497              		.cfi_offset 6, -8
 3498              		.cfi_offset 14, -4
 442:..\..\u8g2\csrc/u8g2_d_setup.c ****   uint8_t tile_buf_height;
 443:..\..\u8g2\csrc/u8g2_d_setup.c ****   uint8_t *buf;
 444:..\..\u8g2\csrc/u8g2_d_setup.c ****   u8g2_SetupDisplay(u8g2, u8x8_d_ssd1325_nhd_128x64, u8x8_cad_001, byte_cb, gpio_and_delay_cb);
 445:..\..\u8g2\csrc/u8g2_d_setup.c ****   buf = u8g2_m_ssd1325_16_1(&tile_buf_height);
 3499              		.loc 1 445 0
 3500 0002 0F25     		movs	r5, #15
 441:..\..\u8g2\csrc/u8g2_d_setup.c ****   uint8_t tile_buf_height;
 3501              		.loc 1 441 0
 3502 0004 0E00     		movs	r6, r1
 3503              		.loc 1 445 0
 3504 0006 6D44     		add	r5, r5, sp
 444:..\..\u8g2\csrc/u8g2_d_setup.c ****   buf = u8g2_m_ssd1325_16_1(&tile_buf_height);
 3505              		.loc 1 444 0
 3506 0008 0093     		str	r3, [sp]
 3507 000a 0849     		ldr	r1, .L146
 3508              	.LVL529:
 3509 000c 1300     		movs	r3, r2
 3510              	.LVL530:
 3511 000e 084A     		ldr	r2, .L146+4
 3512              	.LVL531:
 441:..\..\u8g2\csrc/u8g2_d_setup.c ****   uint8_t tile_buf_height;
 3513              		.loc 1 441 0
 3514 0010 0400     		movs	r4, r0
 444:..\..\u8g2\csrc/u8g2_d_setup.c ****   buf = u8g2_m_ssd1325_16_1(&tile_buf_height);
 3515              		.loc 1 444 0
 3516 0012 FFF7FEFF 		bl	u8x8_Setup
 3517              	.LVL532:
 3518              		.loc 1 445 0
 3519 0016 2800     		movs	r0, r5
 3520 0018 FFF7FEFF 		bl	u8g2_m_ssd1325_16_1
 3521              	.LVL533:
 446:..\..\u8g2\csrc/u8g2_d_setup.c ****   u8g2_SetupBuffer(u8g2, buf, tile_buf_height, u8g2_ll_hvline_vertical_top_lsb, rotation);
 3522              		.loc 1 446 0
 3523 001c 2A78     		ldrb	r2, [r5]
 445:..\..\u8g2\csrc/u8g2_d_setup.c ****   u8g2_SetupBuffer(u8g2, buf, tile_buf_height, u8g2_ll_hvline_vertical_top_lsb, rotation);
 3524              		.loc 1 445 0
 3525 001e 0100     		movs	r1, r0
 3526              	.LVL534:
 3527              		.loc 1 446 0
ARM GAS  C:\Users\Greg\AppData\Local\Temp\ccGRKbG3.s 			page 75


 3528 0020 0096     		str	r6, [sp]
 3529 0022 044B     		ldr	r3, .L146+8
 3530 0024 2000     		movs	r0, r4
 3531              	.LVL535:
 3532 0026 FFF7FEFF 		bl	u8g2_SetupBuffer
 3533              	.LVL536:
 447:..\..\u8g2\csrc/u8g2_d_setup.c **** }
 3534              		.loc 1 447 0
 3535              		@ sp needed
 3536              	.LVL537:
 3537              	.LVL538:
 3538 002a 7FBD     		pop	{r0, r1, r2, r3, r4, r5, r6, pc}
 3539              	.L147:
 3540              		.align	2
 3541              	.L146:
 3542 002c 00000000 		.word	u8x8_d_ssd1325_nhd_128x64
 3543 0030 00000000 		.word	u8x8_cad_001
 3544 0034 00000000 		.word	u8g2_ll_hvline_vertical_top_lsb
 3545              		.cfi_endproc
 3546              	.LFE48:
 3547              		.size	u8g2_Setup_ssd1325_nhd_128x64_1, .-u8g2_Setup_ssd1325_nhd_128x64_1
 3548              		.section	.text.u8g2_Setup_ssd1325_nhd_128x64_2,"ax",%progbits
 3549              		.align	1
 3550              		.global	u8g2_Setup_ssd1325_nhd_128x64_2
 3551              		.code	16
 3552              		.thumb_func
 3553              		.type	u8g2_Setup_ssd1325_nhd_128x64_2, %function
 3554              	u8g2_Setup_ssd1325_nhd_128x64_2:
 3555              	.LFB49:
 448:..\..\u8g2\csrc/u8g2_d_setup.c **** /* ssd1325 2 */
 449:..\..\u8g2\csrc/u8g2_d_setup.c **** void u8g2_Setup_ssd1325_nhd_128x64_2(u8g2_t *u8g2, const u8g2_cb_t *rotation, u8x8_msg_cb byte_cb, 
 450:..\..\u8g2\csrc/u8g2_d_setup.c **** {
 3556              		.loc 1 450 0
 3557              		.cfi_startproc
 3558              		@ args = 0, pretend = 0, frame = 8
 3559              		@ frame_needed = 0, uses_anonymous_args = 0
 3560              	.LVL539:
 3561 0000 7FB5     		push	{r0, r1, r2, r3, r4, r5, r6, lr}
 3562              		.cfi_def_cfa_offset 32
 3563              		.cfi_offset 0, -32
 3564              		.cfi_offset 1, -28
 3565              		.cfi_offset 2, -24
 3566              		.cfi_offset 3, -20
 3567              		.cfi_offset 4, -16
 3568              		.cfi_offset 5, -12
 3569              		.cfi_offset 6, -8
 3570              		.cfi_offset 14, -4
 451:..\..\u8g2\csrc/u8g2_d_setup.c ****   uint8_t tile_buf_height;
 452:..\..\u8g2\csrc/u8g2_d_setup.c ****   uint8_t *buf;
 453:..\..\u8g2\csrc/u8g2_d_setup.c ****   u8g2_SetupDisplay(u8g2, u8x8_d_ssd1325_nhd_128x64, u8x8_cad_001, byte_cb, gpio_and_delay_cb);
 454:..\..\u8g2\csrc/u8g2_d_setup.c ****   buf = u8g2_m_ssd1325_16_2(&tile_buf_height);
 3571              		.loc 1 454 0
 3572 0002 0F25     		movs	r5, #15
 450:..\..\u8g2\csrc/u8g2_d_setup.c ****   uint8_t tile_buf_height;
 3573              		.loc 1 450 0
 3574 0004 0E00     		movs	r6, r1
 3575              		.loc 1 454 0
ARM GAS  C:\Users\Greg\AppData\Local\Temp\ccGRKbG3.s 			page 76


 3576 0006 6D44     		add	r5, r5, sp
 453:..\..\u8g2\csrc/u8g2_d_setup.c ****   buf = u8g2_m_ssd1325_16_2(&tile_buf_height);
 3577              		.loc 1 453 0
 3578 0008 0093     		str	r3, [sp]
 3579 000a 0849     		ldr	r1, .L149
 3580              	.LVL540:
 3581 000c 1300     		movs	r3, r2
 3582              	.LVL541:
 3583 000e 084A     		ldr	r2, .L149+4
 3584              	.LVL542:
 450:..\..\u8g2\csrc/u8g2_d_setup.c ****   uint8_t tile_buf_height;
 3585              		.loc 1 450 0
 3586 0010 0400     		movs	r4, r0
 453:..\..\u8g2\csrc/u8g2_d_setup.c ****   buf = u8g2_m_ssd1325_16_2(&tile_buf_height);
 3587              		.loc 1 453 0
 3588 0012 FFF7FEFF 		bl	u8x8_Setup
 3589              	.LVL543:
 3590              		.loc 1 454 0
 3591 0016 2800     		movs	r0, r5
 3592 0018 FFF7FEFF 		bl	u8g2_m_ssd1325_16_2
 3593              	.LVL544:
 455:..\..\u8g2\csrc/u8g2_d_setup.c ****   u8g2_SetupBuffer(u8g2, buf, tile_buf_height, u8g2_ll_hvline_vertical_top_lsb, rotation);
 3594              		.loc 1 455 0
 3595 001c 2A78     		ldrb	r2, [r5]
 454:..\..\u8g2\csrc/u8g2_d_setup.c ****   u8g2_SetupBuffer(u8g2, buf, tile_buf_height, u8g2_ll_hvline_vertical_top_lsb, rotation);
 3596              		.loc 1 454 0
 3597 001e 0100     		movs	r1, r0
 3598              	.LVL545:
 3599              		.loc 1 455 0
 3600 0020 0096     		str	r6, [sp]
 3601 0022 044B     		ldr	r3, .L149+8
 3602 0024 2000     		movs	r0, r4
 3603              	.LVL546:
 3604 0026 FFF7FEFF 		bl	u8g2_SetupBuffer
 3605              	.LVL547:
 456:..\..\u8g2\csrc/u8g2_d_setup.c **** }
 3606              		.loc 1 456 0
 3607              		@ sp needed
 3608              	.LVL548:
 3609              	.LVL549:
 3610 002a 7FBD     		pop	{r0, r1, r2, r3, r4, r5, r6, pc}
 3611              	.L150:
 3612              		.align	2
 3613              	.L149:
 3614 002c 00000000 		.word	u8x8_d_ssd1325_nhd_128x64
 3615 0030 00000000 		.word	u8x8_cad_001
 3616 0034 00000000 		.word	u8g2_ll_hvline_vertical_top_lsb
 3617              		.cfi_endproc
 3618              	.LFE49:
 3619              		.size	u8g2_Setup_ssd1325_nhd_128x64_2, .-u8g2_Setup_ssd1325_nhd_128x64_2
 3620              		.section	.text.u8g2_Setup_ssd1325_nhd_128x64_f,"ax",%progbits
 3621              		.align	1
 3622              		.global	u8g2_Setup_ssd1325_nhd_128x64_f
 3623              		.code	16
 3624              		.thumb_func
 3625              		.type	u8g2_Setup_ssd1325_nhd_128x64_f, %function
 3626              	u8g2_Setup_ssd1325_nhd_128x64_f:
ARM GAS  C:\Users\Greg\AppData\Local\Temp\ccGRKbG3.s 			page 77


 3627              	.LFB50:
 457:..\..\u8g2\csrc/u8g2_d_setup.c **** /* ssd1325 f */
 458:..\..\u8g2\csrc/u8g2_d_setup.c **** void u8g2_Setup_ssd1325_nhd_128x64_f(u8g2_t *u8g2, const u8g2_cb_t *rotation, u8x8_msg_cb byte_cb, 
 459:..\..\u8g2\csrc/u8g2_d_setup.c **** {
 3628              		.loc 1 459 0
 3629              		.cfi_startproc
 3630              		@ args = 0, pretend = 0, frame = 8
 3631              		@ frame_needed = 0, uses_anonymous_args = 0
 3632              	.LVL550:
 3633 0000 7FB5     		push	{r0, r1, r2, r3, r4, r5, r6, lr}
 3634              		.cfi_def_cfa_offset 32
 3635              		.cfi_offset 0, -32
 3636              		.cfi_offset 1, -28
 3637              		.cfi_offset 2, -24
 3638              		.cfi_offset 3, -20
 3639              		.cfi_offset 4, -16
 3640              		.cfi_offset 5, -12
 3641              		.cfi_offset 6, -8
 3642              		.cfi_offset 14, -4
 460:..\..\u8g2\csrc/u8g2_d_setup.c ****   uint8_t tile_buf_height;
 461:..\..\u8g2\csrc/u8g2_d_setup.c ****   uint8_t *buf;
 462:..\..\u8g2\csrc/u8g2_d_setup.c ****   u8g2_SetupDisplay(u8g2, u8x8_d_ssd1325_nhd_128x64, u8x8_cad_001, byte_cb, gpio_and_delay_cb);
 463:..\..\u8g2\csrc/u8g2_d_setup.c ****   buf = u8g2_m_ssd1325_16_f(&tile_buf_height);
 3643              		.loc 1 463 0
 3644 0002 0F25     		movs	r5, #15
 459:..\..\u8g2\csrc/u8g2_d_setup.c ****   uint8_t tile_buf_height;
 3645              		.loc 1 459 0
 3646 0004 0E00     		movs	r6, r1
 3647              		.loc 1 463 0
 3648 0006 6D44     		add	r5, r5, sp
 462:..\..\u8g2\csrc/u8g2_d_setup.c ****   buf = u8g2_m_ssd1325_16_f(&tile_buf_height);
 3649              		.loc 1 462 0
 3650 0008 0093     		str	r3, [sp]
 3651 000a 0849     		ldr	r1, .L152
 3652              	.LVL551:
 3653 000c 1300     		movs	r3, r2
 3654              	.LVL552:
 3655 000e 084A     		ldr	r2, .L152+4
 3656              	.LVL553:
 459:..\..\u8g2\csrc/u8g2_d_setup.c ****   uint8_t tile_buf_height;
 3657              		.loc 1 459 0
 3658 0010 0400     		movs	r4, r0
 462:..\..\u8g2\csrc/u8g2_d_setup.c ****   buf = u8g2_m_ssd1325_16_f(&tile_buf_height);
 3659              		.loc 1 462 0
 3660 0012 FFF7FEFF 		bl	u8x8_Setup
 3661              	.LVL554:
 3662              		.loc 1 463 0
 3663 0016 2800     		movs	r0, r5
 3664 0018 FFF7FEFF 		bl	u8g2_m_ssd1325_16_f
 3665              	.LVL555:
 464:..\..\u8g2\csrc/u8g2_d_setup.c ****   u8g2_SetupBuffer(u8g2, buf, tile_buf_height, u8g2_ll_hvline_vertical_top_lsb, rotation);
 3666              		.loc 1 464 0
 3667 001c 2A78     		ldrb	r2, [r5]
 463:..\..\u8g2\csrc/u8g2_d_setup.c ****   u8g2_SetupBuffer(u8g2, buf, tile_buf_height, u8g2_ll_hvline_vertical_top_lsb, rotation);
 3668              		.loc 1 463 0
 3669 001e 0100     		movs	r1, r0
 3670              	.LVL556:
ARM GAS  C:\Users\Greg\AppData\Local\Temp\ccGRKbG3.s 			page 78


 3671              		.loc 1 464 0
 3672 0020 0096     		str	r6, [sp]
 3673 0022 044B     		ldr	r3, .L152+8
 3674 0024 2000     		movs	r0, r4
 3675              	.LVL557:
 3676 0026 FFF7FEFF 		bl	u8g2_SetupBuffer
 3677              	.LVL558:
 465:..\..\u8g2\csrc/u8g2_d_setup.c **** }
 3678              		.loc 1 465 0
 3679              		@ sp needed
 3680              	.LVL559:
 3681              	.LVL560:
 3682 002a 7FBD     		pop	{r0, r1, r2, r3, r4, r5, r6, pc}
 3683              	.L153:
 3684              		.align	2
 3685              	.L152:
 3686 002c 00000000 		.word	u8x8_d_ssd1325_nhd_128x64
 3687 0030 00000000 		.word	u8x8_cad_001
 3688 0034 00000000 		.word	u8g2_ll_hvline_vertical_top_lsb
 3689              		.cfi_endproc
 3690              	.LFE50:
 3691              		.size	u8g2_Setup_ssd1325_nhd_128x64_f, .-u8g2_Setup_ssd1325_nhd_128x64_f
 3692              		.section	.text.u8g2_Setup_ssd1325_i2c_nhd_128x64_1,"ax",%progbits
 3693              		.align	1
 3694              		.global	u8g2_Setup_ssd1325_i2c_nhd_128x64_1
 3695              		.code	16
 3696              		.thumb_func
 3697              		.type	u8g2_Setup_ssd1325_i2c_nhd_128x64_1, %function
 3698              	u8g2_Setup_ssd1325_i2c_nhd_128x64_1:
 3699              	.LFB51:
 466:..\..\u8g2\csrc/u8g2_d_setup.c **** /* ssd1325 */
 467:..\..\u8g2\csrc/u8g2_d_setup.c **** /* ssd1325 1 */
 468:..\..\u8g2\csrc/u8g2_d_setup.c **** void u8g2_Setup_ssd1325_i2c_nhd_128x64_1(u8g2_t *u8g2, const u8g2_cb_t *rotation, u8x8_msg_cb byte_
 469:..\..\u8g2\csrc/u8g2_d_setup.c **** {
 3700              		.loc 1 469 0
 3701              		.cfi_startproc
 3702              		@ args = 0, pretend = 0, frame = 8
 3703              		@ frame_needed = 0, uses_anonymous_args = 0
 3704              	.LVL561:
 3705 0000 7FB5     		push	{r0, r1, r2, r3, r4, r5, r6, lr}
 3706              		.cfi_def_cfa_offset 32
 3707              		.cfi_offset 0, -32
 3708              		.cfi_offset 1, -28
 3709              		.cfi_offset 2, -24
 3710              		.cfi_offset 3, -20
 3711              		.cfi_offset 4, -16
 3712              		.cfi_offset 5, -12
 3713              		.cfi_offset 6, -8
 3714              		.cfi_offset 14, -4
 470:..\..\u8g2\csrc/u8g2_d_setup.c ****   uint8_t tile_buf_height;
 471:..\..\u8g2\csrc/u8g2_d_setup.c ****   uint8_t *buf;
 472:..\..\u8g2\csrc/u8g2_d_setup.c ****   u8g2_SetupDisplay(u8g2, u8x8_d_ssd1325_nhd_128x64, u8x8_cad_ssd13xx_i2c, byte_cb, gpio_and_delay_
 473:..\..\u8g2\csrc/u8g2_d_setup.c ****   buf = u8g2_m_ssd1325_16_1(&tile_buf_height);
 3715              		.loc 1 473 0
 3716 0002 0F25     		movs	r5, #15
 469:..\..\u8g2\csrc/u8g2_d_setup.c ****   uint8_t tile_buf_height;
 3717              		.loc 1 469 0
ARM GAS  C:\Users\Greg\AppData\Local\Temp\ccGRKbG3.s 			page 79


 3718 0004 0E00     		movs	r6, r1
 3719              		.loc 1 473 0
 3720 0006 6D44     		add	r5, r5, sp
 472:..\..\u8g2\csrc/u8g2_d_setup.c ****   buf = u8g2_m_ssd1325_16_1(&tile_buf_height);
 3721              		.loc 1 472 0
 3722 0008 0093     		str	r3, [sp]
 3723 000a 0849     		ldr	r1, .L155
 3724              	.LVL562:
 3725 000c 1300     		movs	r3, r2
 3726              	.LVL563:
 3727 000e 084A     		ldr	r2, .L155+4
 3728              	.LVL564:
 469:..\..\u8g2\csrc/u8g2_d_setup.c ****   uint8_t tile_buf_height;
 3729              		.loc 1 469 0
 3730 0010 0400     		movs	r4, r0
 472:..\..\u8g2\csrc/u8g2_d_setup.c ****   buf = u8g2_m_ssd1325_16_1(&tile_buf_height);
 3731              		.loc 1 472 0
 3732 0012 FFF7FEFF 		bl	u8x8_Setup
 3733              	.LVL565:
 3734              		.loc 1 473 0
 3735 0016 2800     		movs	r0, r5
 3736 0018 FFF7FEFF 		bl	u8g2_m_ssd1325_16_1
 3737              	.LVL566:
 474:..\..\u8g2\csrc/u8g2_d_setup.c ****   u8g2_SetupBuffer(u8g2, buf, tile_buf_height, u8g2_ll_hvline_vertical_top_lsb, rotation);
 3738              		.loc 1 474 0
 3739 001c 2A78     		ldrb	r2, [r5]
 473:..\..\u8g2\csrc/u8g2_d_setup.c ****   u8g2_SetupBuffer(u8g2, buf, tile_buf_height, u8g2_ll_hvline_vertical_top_lsb, rotation);
 3740              		.loc 1 473 0
 3741 001e 0100     		movs	r1, r0
 3742              	.LVL567:
 3743              		.loc 1 474 0
 3744 0020 0096     		str	r6, [sp]
 3745 0022 044B     		ldr	r3, .L155+8
 3746 0024 2000     		movs	r0, r4
 3747              	.LVL568:
 3748 0026 FFF7FEFF 		bl	u8g2_SetupBuffer
 3749              	.LVL569:
 475:..\..\u8g2\csrc/u8g2_d_setup.c **** }
 3750              		.loc 1 475 0
 3751              		@ sp needed
 3752              	.LVL570:
 3753              	.LVL571:
 3754 002a 7FBD     		pop	{r0, r1, r2, r3, r4, r5, r6, pc}
 3755              	.L156:
 3756              		.align	2
 3757              	.L155:
 3758 002c 00000000 		.word	u8x8_d_ssd1325_nhd_128x64
 3759 0030 00000000 		.word	u8x8_cad_ssd13xx_i2c
 3760 0034 00000000 		.word	u8g2_ll_hvline_vertical_top_lsb
 3761              		.cfi_endproc
 3762              	.LFE51:
 3763              		.size	u8g2_Setup_ssd1325_i2c_nhd_128x64_1, .-u8g2_Setup_ssd1325_i2c_nhd_128x64_1
 3764              		.section	.text.u8g2_Setup_ssd1325_i2c_nhd_128x64_2,"ax",%progbits
 3765              		.align	1
 3766              		.global	u8g2_Setup_ssd1325_i2c_nhd_128x64_2
 3767              		.code	16
 3768              		.thumb_func
ARM GAS  C:\Users\Greg\AppData\Local\Temp\ccGRKbG3.s 			page 80


 3769              		.type	u8g2_Setup_ssd1325_i2c_nhd_128x64_2, %function
 3770              	u8g2_Setup_ssd1325_i2c_nhd_128x64_2:
 3771              	.LFB52:
 476:..\..\u8g2\csrc/u8g2_d_setup.c **** /* ssd1325 2 */
 477:..\..\u8g2\csrc/u8g2_d_setup.c **** void u8g2_Setup_ssd1325_i2c_nhd_128x64_2(u8g2_t *u8g2, const u8g2_cb_t *rotation, u8x8_msg_cb byte_
 478:..\..\u8g2\csrc/u8g2_d_setup.c **** {
 3772              		.loc 1 478 0
 3773              		.cfi_startproc
 3774              		@ args = 0, pretend = 0, frame = 8
 3775              		@ frame_needed = 0, uses_anonymous_args = 0
 3776              	.LVL572:
 3777 0000 7FB5     		push	{r0, r1, r2, r3, r4, r5, r6, lr}
 3778              		.cfi_def_cfa_offset 32
 3779              		.cfi_offset 0, -32
 3780              		.cfi_offset 1, -28
 3781              		.cfi_offset 2, -24
 3782              		.cfi_offset 3, -20
 3783              		.cfi_offset 4, -16
 3784              		.cfi_offset 5, -12
 3785              		.cfi_offset 6, -8
 3786              		.cfi_offset 14, -4
 479:..\..\u8g2\csrc/u8g2_d_setup.c ****   uint8_t tile_buf_height;
 480:..\..\u8g2\csrc/u8g2_d_setup.c ****   uint8_t *buf;
 481:..\..\u8g2\csrc/u8g2_d_setup.c ****   u8g2_SetupDisplay(u8g2, u8x8_d_ssd1325_nhd_128x64, u8x8_cad_ssd13xx_i2c, byte_cb, gpio_and_delay_
 482:..\..\u8g2\csrc/u8g2_d_setup.c ****   buf = u8g2_m_ssd1325_16_2(&tile_buf_height);
 3787              		.loc 1 482 0
 3788 0002 0F25     		movs	r5, #15
 478:..\..\u8g2\csrc/u8g2_d_setup.c ****   uint8_t tile_buf_height;
 3789              		.loc 1 478 0
 3790 0004 0E00     		movs	r6, r1
 3791              		.loc 1 482 0
 3792 0006 6D44     		add	r5, r5, sp
 481:..\..\u8g2\csrc/u8g2_d_setup.c ****   buf = u8g2_m_ssd1325_16_2(&tile_buf_height);
 3793              		.loc 1 481 0
 3794 0008 0093     		str	r3, [sp]
 3795 000a 0849     		ldr	r1, .L158
 3796              	.LVL573:
 3797 000c 1300     		movs	r3, r2
 3798              	.LVL574:
 3799 000e 084A     		ldr	r2, .L158+4
 3800              	.LVL575:
 478:..\..\u8g2\csrc/u8g2_d_setup.c ****   uint8_t tile_buf_height;
 3801              		.loc 1 478 0
 3802 0010 0400     		movs	r4, r0
 481:..\..\u8g2\csrc/u8g2_d_setup.c ****   buf = u8g2_m_ssd1325_16_2(&tile_buf_height);
 3803              		.loc 1 481 0
 3804 0012 FFF7FEFF 		bl	u8x8_Setup
 3805              	.LVL576:
 3806              		.loc 1 482 0
 3807 0016 2800     		movs	r0, r5
 3808 0018 FFF7FEFF 		bl	u8g2_m_ssd1325_16_2
 3809              	.LVL577:
 483:..\..\u8g2\csrc/u8g2_d_setup.c ****   u8g2_SetupBuffer(u8g2, buf, tile_buf_height, u8g2_ll_hvline_vertical_top_lsb, rotation);
 3810              		.loc 1 483 0
 3811 001c 2A78     		ldrb	r2, [r5]
 482:..\..\u8g2\csrc/u8g2_d_setup.c ****   u8g2_SetupBuffer(u8g2, buf, tile_buf_height, u8g2_ll_hvline_vertical_top_lsb, rotation);
 3812              		.loc 1 482 0
ARM GAS  C:\Users\Greg\AppData\Local\Temp\ccGRKbG3.s 			page 81


 3813 001e 0100     		movs	r1, r0
 3814              	.LVL578:
 3815              		.loc 1 483 0
 3816 0020 0096     		str	r6, [sp]
 3817 0022 044B     		ldr	r3, .L158+8
 3818 0024 2000     		movs	r0, r4
 3819              	.LVL579:
 3820 0026 FFF7FEFF 		bl	u8g2_SetupBuffer
 3821              	.LVL580:
 484:..\..\u8g2\csrc/u8g2_d_setup.c **** }
 3822              		.loc 1 484 0
 3823              		@ sp needed
 3824              	.LVL581:
 3825              	.LVL582:
 3826 002a 7FBD     		pop	{r0, r1, r2, r3, r4, r5, r6, pc}
 3827              	.L159:
 3828              		.align	2
 3829              	.L158:
 3830 002c 00000000 		.word	u8x8_d_ssd1325_nhd_128x64
 3831 0030 00000000 		.word	u8x8_cad_ssd13xx_i2c
 3832 0034 00000000 		.word	u8g2_ll_hvline_vertical_top_lsb
 3833              		.cfi_endproc
 3834              	.LFE52:
 3835              		.size	u8g2_Setup_ssd1325_i2c_nhd_128x64_2, .-u8g2_Setup_ssd1325_i2c_nhd_128x64_2
 3836              		.section	.text.u8g2_Setup_ssd1325_i2c_nhd_128x64_f,"ax",%progbits
 3837              		.align	1
 3838              		.global	u8g2_Setup_ssd1325_i2c_nhd_128x64_f
 3839              		.code	16
 3840              		.thumb_func
 3841              		.type	u8g2_Setup_ssd1325_i2c_nhd_128x64_f, %function
 3842              	u8g2_Setup_ssd1325_i2c_nhd_128x64_f:
 3843              	.LFB53:
 485:..\..\u8g2\csrc/u8g2_d_setup.c **** /* ssd1325 f */
 486:..\..\u8g2\csrc/u8g2_d_setup.c **** void u8g2_Setup_ssd1325_i2c_nhd_128x64_f(u8g2_t *u8g2, const u8g2_cb_t *rotation, u8x8_msg_cb byte_
 487:..\..\u8g2\csrc/u8g2_d_setup.c **** {
 3844              		.loc 1 487 0
 3845              		.cfi_startproc
 3846              		@ args = 0, pretend = 0, frame = 8
 3847              		@ frame_needed = 0, uses_anonymous_args = 0
 3848              	.LVL583:
 3849 0000 7FB5     		push	{r0, r1, r2, r3, r4, r5, r6, lr}
 3850              		.cfi_def_cfa_offset 32
 3851              		.cfi_offset 0, -32
 3852              		.cfi_offset 1, -28
 3853              		.cfi_offset 2, -24
 3854              		.cfi_offset 3, -20
 3855              		.cfi_offset 4, -16
 3856              		.cfi_offset 5, -12
 3857              		.cfi_offset 6, -8
 3858              		.cfi_offset 14, -4
 488:..\..\u8g2\csrc/u8g2_d_setup.c ****   uint8_t tile_buf_height;
 489:..\..\u8g2\csrc/u8g2_d_setup.c ****   uint8_t *buf;
 490:..\..\u8g2\csrc/u8g2_d_setup.c ****   u8g2_SetupDisplay(u8g2, u8x8_d_ssd1325_nhd_128x64, u8x8_cad_ssd13xx_i2c, byte_cb, gpio_and_delay_
 491:..\..\u8g2\csrc/u8g2_d_setup.c ****   buf = u8g2_m_ssd1325_16_f(&tile_buf_height);
 3859              		.loc 1 491 0
 3860 0002 0F25     		movs	r5, #15
 487:..\..\u8g2\csrc/u8g2_d_setup.c ****   uint8_t tile_buf_height;
ARM GAS  C:\Users\Greg\AppData\Local\Temp\ccGRKbG3.s 			page 82


 3861              		.loc 1 487 0
 3862 0004 0E00     		movs	r6, r1
 3863              		.loc 1 491 0
 3864 0006 6D44     		add	r5, r5, sp
 490:..\..\u8g2\csrc/u8g2_d_setup.c ****   buf = u8g2_m_ssd1325_16_f(&tile_buf_height);
 3865              		.loc 1 490 0
 3866 0008 0093     		str	r3, [sp]
 3867 000a 0849     		ldr	r1, .L161
 3868              	.LVL584:
 3869 000c 1300     		movs	r3, r2
 3870              	.LVL585:
 3871 000e 084A     		ldr	r2, .L161+4
 3872              	.LVL586:
 487:..\..\u8g2\csrc/u8g2_d_setup.c ****   uint8_t tile_buf_height;
 3873              		.loc 1 487 0
 3874 0010 0400     		movs	r4, r0
 490:..\..\u8g2\csrc/u8g2_d_setup.c ****   buf = u8g2_m_ssd1325_16_f(&tile_buf_height);
 3875              		.loc 1 490 0
 3876 0012 FFF7FEFF 		bl	u8x8_Setup
 3877              	.LVL587:
 3878              		.loc 1 491 0
 3879 0016 2800     		movs	r0, r5
 3880 0018 FFF7FEFF 		bl	u8g2_m_ssd1325_16_f
 3881              	.LVL588:
 492:..\..\u8g2\csrc/u8g2_d_setup.c ****   u8g2_SetupBuffer(u8g2, buf, tile_buf_height, u8g2_ll_hvline_vertical_top_lsb, rotation);
 3882              		.loc 1 492 0
 3883 001c 2A78     		ldrb	r2, [r5]
 491:..\..\u8g2\csrc/u8g2_d_setup.c ****   u8g2_SetupBuffer(u8g2, buf, tile_buf_height, u8g2_ll_hvline_vertical_top_lsb, rotation);
 3884              		.loc 1 491 0
 3885 001e 0100     		movs	r1, r0
 3886              	.LVL589:
 3887              		.loc 1 492 0
 3888 0020 0096     		str	r6, [sp]
 3889 0022 044B     		ldr	r3, .L161+8
 3890 0024 2000     		movs	r0, r4
 3891              	.LVL590:
 3892 0026 FFF7FEFF 		bl	u8g2_SetupBuffer
 3893              	.LVL591:
 493:..\..\u8g2\csrc/u8g2_d_setup.c **** }
 3894              		.loc 1 493 0
 3895              		@ sp needed
 3896              	.LVL592:
 3897              	.LVL593:
 3898 002a 7FBD     		pop	{r0, r1, r2, r3, r4, r5, r6, pc}
 3899              	.L162:
 3900              		.align	2
 3901              	.L161:
 3902 002c 00000000 		.word	u8x8_d_ssd1325_nhd_128x64
 3903 0030 00000000 		.word	u8x8_cad_ssd13xx_i2c
 3904 0034 00000000 		.word	u8g2_ll_hvline_vertical_top_lsb
 3905              		.cfi_endproc
 3906              	.LFE53:
 3907              		.size	u8g2_Setup_ssd1325_i2c_nhd_128x64_f, .-u8g2_Setup_ssd1325_i2c_nhd_128x64_f
 3908              		.section	.text.u8g2_Setup_ssd1327_seeed_96x96_1,"ax",%progbits
 3909              		.align	1
 3910              		.global	u8g2_Setup_ssd1327_seeed_96x96_1
 3911              		.code	16
ARM GAS  C:\Users\Greg\AppData\Local\Temp\ccGRKbG3.s 			page 83


 3912              		.thumb_func
 3913              		.type	u8g2_Setup_ssd1327_seeed_96x96_1, %function
 3914              	u8g2_Setup_ssd1327_seeed_96x96_1:
 3915              	.LFB54:
 494:..\..\u8g2\csrc/u8g2_d_setup.c **** /* ssd1327 */
 495:..\..\u8g2\csrc/u8g2_d_setup.c **** /* ssd1327 1 */
 496:..\..\u8g2\csrc/u8g2_d_setup.c **** void u8g2_Setup_ssd1327_seeed_96x96_1(u8g2_t *u8g2, const u8g2_cb_t *rotation, u8x8_msg_cb byte_cb,
 497:..\..\u8g2\csrc/u8g2_d_setup.c **** {
 3916              		.loc 1 497 0
 3917              		.cfi_startproc
 3918              		@ args = 0, pretend = 0, frame = 8
 3919              		@ frame_needed = 0, uses_anonymous_args = 0
 3920              	.LVL594:
 3921 0000 7FB5     		push	{r0, r1, r2, r3, r4, r5, r6, lr}
 3922              		.cfi_def_cfa_offset 32
 3923              		.cfi_offset 0, -32
 3924              		.cfi_offset 1, -28
 3925              		.cfi_offset 2, -24
 3926              		.cfi_offset 3, -20
 3927              		.cfi_offset 4, -16
 3928              		.cfi_offset 5, -12
 3929              		.cfi_offset 6, -8
 3930              		.cfi_offset 14, -4
 498:..\..\u8g2\csrc/u8g2_d_setup.c ****   uint8_t tile_buf_height;
 499:..\..\u8g2\csrc/u8g2_d_setup.c ****   uint8_t *buf;
 500:..\..\u8g2\csrc/u8g2_d_setup.c ****   u8g2_SetupDisplay(u8g2, u8x8_d_ssd1327_seeed_96x96, u8x8_cad_001, byte_cb, gpio_and_delay_cb);
 501:..\..\u8g2\csrc/u8g2_d_setup.c ****   buf = u8g2_m_ssd1327_12_1(&tile_buf_height);
 3931              		.loc 1 501 0
 3932 0002 0F25     		movs	r5, #15
 497:..\..\u8g2\csrc/u8g2_d_setup.c ****   uint8_t tile_buf_height;
 3933              		.loc 1 497 0
 3934 0004 0E00     		movs	r6, r1
 3935              		.loc 1 501 0
 3936 0006 6D44     		add	r5, r5, sp
 500:..\..\u8g2\csrc/u8g2_d_setup.c ****   buf = u8g2_m_ssd1327_12_1(&tile_buf_height);
 3937              		.loc 1 500 0
 3938 0008 0093     		str	r3, [sp]
 3939 000a 0849     		ldr	r1, .L164
 3940              	.LVL595:
 3941 000c 1300     		movs	r3, r2
 3942              	.LVL596:
 3943 000e 084A     		ldr	r2, .L164+4
 3944              	.LVL597:
 497:..\..\u8g2\csrc/u8g2_d_setup.c ****   uint8_t tile_buf_height;
 3945              		.loc 1 497 0
 3946 0010 0400     		movs	r4, r0
 500:..\..\u8g2\csrc/u8g2_d_setup.c ****   buf = u8g2_m_ssd1327_12_1(&tile_buf_height);
 3947              		.loc 1 500 0
 3948 0012 FFF7FEFF 		bl	u8x8_Setup
 3949              	.LVL598:
 3950              		.loc 1 501 0
 3951 0016 2800     		movs	r0, r5
 3952 0018 FFF7FEFF 		bl	u8g2_m_ssd1327_12_1
 3953              	.LVL599:
 502:..\..\u8g2\csrc/u8g2_d_setup.c ****   u8g2_SetupBuffer(u8g2, buf, tile_buf_height, u8g2_ll_hvline_vertical_top_lsb, rotation);
 3954              		.loc 1 502 0
 3955 001c 2A78     		ldrb	r2, [r5]
ARM GAS  C:\Users\Greg\AppData\Local\Temp\ccGRKbG3.s 			page 84


 501:..\..\u8g2\csrc/u8g2_d_setup.c ****   u8g2_SetupBuffer(u8g2, buf, tile_buf_height, u8g2_ll_hvline_vertical_top_lsb, rotation);
 3956              		.loc 1 501 0
 3957 001e 0100     		movs	r1, r0
 3958              	.LVL600:
 3959              		.loc 1 502 0
 3960 0020 0096     		str	r6, [sp]
 3961 0022 044B     		ldr	r3, .L164+8
 3962 0024 2000     		movs	r0, r4
 3963              	.LVL601:
 3964 0026 FFF7FEFF 		bl	u8g2_SetupBuffer
 3965              	.LVL602:
 503:..\..\u8g2\csrc/u8g2_d_setup.c **** }
 3966              		.loc 1 503 0
 3967              		@ sp needed
 3968              	.LVL603:
 3969              	.LVL604:
 3970 002a 7FBD     		pop	{r0, r1, r2, r3, r4, r5, r6, pc}
 3971              	.L165:
 3972              		.align	2
 3973              	.L164:
 3974 002c 00000000 		.word	u8x8_d_ssd1327_seeed_96x96
 3975 0030 00000000 		.word	u8x8_cad_001
 3976 0034 00000000 		.word	u8g2_ll_hvline_vertical_top_lsb
 3977              		.cfi_endproc
 3978              	.LFE54:
 3979              		.size	u8g2_Setup_ssd1327_seeed_96x96_1, .-u8g2_Setup_ssd1327_seeed_96x96_1
 3980              		.section	.text.u8g2_Setup_ssd1327_seeed_96x96_2,"ax",%progbits
 3981              		.align	1
 3982              		.global	u8g2_Setup_ssd1327_seeed_96x96_2
 3983              		.code	16
 3984              		.thumb_func
 3985              		.type	u8g2_Setup_ssd1327_seeed_96x96_2, %function
 3986              	u8g2_Setup_ssd1327_seeed_96x96_2:
 3987              	.LFB55:
 504:..\..\u8g2\csrc/u8g2_d_setup.c **** /* ssd1327 2 */
 505:..\..\u8g2\csrc/u8g2_d_setup.c **** void u8g2_Setup_ssd1327_seeed_96x96_2(u8g2_t *u8g2, const u8g2_cb_t *rotation, u8x8_msg_cb byte_cb,
 506:..\..\u8g2\csrc/u8g2_d_setup.c **** {
 3988              		.loc 1 506 0
 3989              		.cfi_startproc
 3990              		@ args = 0, pretend = 0, frame = 8
 3991              		@ frame_needed = 0, uses_anonymous_args = 0
 3992              	.LVL605:
 3993 0000 7FB5     		push	{r0, r1, r2, r3, r4, r5, r6, lr}
 3994              		.cfi_def_cfa_offset 32
 3995              		.cfi_offset 0, -32
 3996              		.cfi_offset 1, -28
 3997              		.cfi_offset 2, -24
 3998              		.cfi_offset 3, -20
 3999              		.cfi_offset 4, -16
 4000              		.cfi_offset 5, -12
 4001              		.cfi_offset 6, -8
 4002              		.cfi_offset 14, -4
 507:..\..\u8g2\csrc/u8g2_d_setup.c ****   uint8_t tile_buf_height;
 508:..\..\u8g2\csrc/u8g2_d_setup.c ****   uint8_t *buf;
 509:..\..\u8g2\csrc/u8g2_d_setup.c ****   u8g2_SetupDisplay(u8g2, u8x8_d_ssd1327_seeed_96x96, u8x8_cad_001, byte_cb, gpio_and_delay_cb);
 510:..\..\u8g2\csrc/u8g2_d_setup.c ****   buf = u8g2_m_ssd1327_12_2(&tile_buf_height);
 4003              		.loc 1 510 0
ARM GAS  C:\Users\Greg\AppData\Local\Temp\ccGRKbG3.s 			page 85


 4004 0002 0F25     		movs	r5, #15
 506:..\..\u8g2\csrc/u8g2_d_setup.c ****   uint8_t tile_buf_height;
 4005              		.loc 1 506 0
 4006 0004 0E00     		movs	r6, r1
 4007              		.loc 1 510 0
 4008 0006 6D44     		add	r5, r5, sp
 509:..\..\u8g2\csrc/u8g2_d_setup.c ****   buf = u8g2_m_ssd1327_12_2(&tile_buf_height);
 4009              		.loc 1 509 0
 4010 0008 0093     		str	r3, [sp]
 4011 000a 0849     		ldr	r1, .L167
 4012              	.LVL606:
 4013 000c 1300     		movs	r3, r2
 4014              	.LVL607:
 4015 000e 084A     		ldr	r2, .L167+4
 4016              	.LVL608:
 506:..\..\u8g2\csrc/u8g2_d_setup.c ****   uint8_t tile_buf_height;
 4017              		.loc 1 506 0
 4018 0010 0400     		movs	r4, r0
 509:..\..\u8g2\csrc/u8g2_d_setup.c ****   buf = u8g2_m_ssd1327_12_2(&tile_buf_height);
 4019              		.loc 1 509 0
 4020 0012 FFF7FEFF 		bl	u8x8_Setup
 4021              	.LVL609:
 4022              		.loc 1 510 0
 4023 0016 2800     		movs	r0, r5
 4024 0018 FFF7FEFF 		bl	u8g2_m_ssd1327_12_2
 4025              	.LVL610:
 511:..\..\u8g2\csrc/u8g2_d_setup.c ****   u8g2_SetupBuffer(u8g2, buf, tile_buf_height, u8g2_ll_hvline_vertical_top_lsb, rotation);
 4026              		.loc 1 511 0
 4027 001c 2A78     		ldrb	r2, [r5]
 510:..\..\u8g2\csrc/u8g2_d_setup.c ****   u8g2_SetupBuffer(u8g2, buf, tile_buf_height, u8g2_ll_hvline_vertical_top_lsb, rotation);
 4028              		.loc 1 510 0
 4029 001e 0100     		movs	r1, r0
 4030              	.LVL611:
 4031              		.loc 1 511 0
 4032 0020 0096     		str	r6, [sp]
 4033 0022 044B     		ldr	r3, .L167+8
 4034 0024 2000     		movs	r0, r4
 4035              	.LVL612:
 4036 0026 FFF7FEFF 		bl	u8g2_SetupBuffer
 4037              	.LVL613:
 512:..\..\u8g2\csrc/u8g2_d_setup.c **** }
 4038              		.loc 1 512 0
 4039              		@ sp needed
 4040              	.LVL614:
 4041              	.LVL615:
 4042 002a 7FBD     		pop	{r0, r1, r2, r3, r4, r5, r6, pc}
 4043              	.L168:
 4044              		.align	2
 4045              	.L167:
 4046 002c 00000000 		.word	u8x8_d_ssd1327_seeed_96x96
 4047 0030 00000000 		.word	u8x8_cad_001
 4048 0034 00000000 		.word	u8g2_ll_hvline_vertical_top_lsb
 4049              		.cfi_endproc
 4050              	.LFE55:
 4051              		.size	u8g2_Setup_ssd1327_seeed_96x96_2, .-u8g2_Setup_ssd1327_seeed_96x96_2
 4052              		.section	.text.u8g2_Setup_ssd1327_seeed_96x96_f,"ax",%progbits
 4053              		.align	1
ARM GAS  C:\Users\Greg\AppData\Local\Temp\ccGRKbG3.s 			page 86


 4054              		.global	u8g2_Setup_ssd1327_seeed_96x96_f
 4055              		.code	16
 4056              		.thumb_func
 4057              		.type	u8g2_Setup_ssd1327_seeed_96x96_f, %function
 4058              	u8g2_Setup_ssd1327_seeed_96x96_f:
 4059              	.LFB56:
 513:..\..\u8g2\csrc/u8g2_d_setup.c **** /* ssd1327 f */
 514:..\..\u8g2\csrc/u8g2_d_setup.c **** void u8g2_Setup_ssd1327_seeed_96x96_f(u8g2_t *u8g2, const u8g2_cb_t *rotation, u8x8_msg_cb byte_cb,
 515:..\..\u8g2\csrc/u8g2_d_setup.c **** {
 4060              		.loc 1 515 0
 4061              		.cfi_startproc
 4062              		@ args = 0, pretend = 0, frame = 8
 4063              		@ frame_needed = 0, uses_anonymous_args = 0
 4064              	.LVL616:
 4065 0000 7FB5     		push	{r0, r1, r2, r3, r4, r5, r6, lr}
 4066              		.cfi_def_cfa_offset 32
 4067              		.cfi_offset 0, -32
 4068              		.cfi_offset 1, -28
 4069              		.cfi_offset 2, -24
 4070              		.cfi_offset 3, -20
 4071              		.cfi_offset 4, -16
 4072              		.cfi_offset 5, -12
 4073              		.cfi_offset 6, -8
 4074              		.cfi_offset 14, -4
 516:..\..\u8g2\csrc/u8g2_d_setup.c ****   uint8_t tile_buf_height;
 517:..\..\u8g2\csrc/u8g2_d_setup.c ****   uint8_t *buf;
 518:..\..\u8g2\csrc/u8g2_d_setup.c ****   u8g2_SetupDisplay(u8g2, u8x8_d_ssd1327_seeed_96x96, u8x8_cad_001, byte_cb, gpio_and_delay_cb);
 519:..\..\u8g2\csrc/u8g2_d_setup.c ****   buf = u8g2_m_ssd1327_12_f(&tile_buf_height);
 4075              		.loc 1 519 0
 4076 0002 0F25     		movs	r5, #15
 515:..\..\u8g2\csrc/u8g2_d_setup.c ****   uint8_t tile_buf_height;
 4077              		.loc 1 515 0
 4078 0004 0E00     		movs	r6, r1
 4079              		.loc 1 519 0
 4080 0006 6D44     		add	r5, r5, sp
 518:..\..\u8g2\csrc/u8g2_d_setup.c ****   buf = u8g2_m_ssd1327_12_f(&tile_buf_height);
 4081              		.loc 1 518 0
 4082 0008 0093     		str	r3, [sp]
 4083 000a 0849     		ldr	r1, .L170
 4084              	.LVL617:
 4085 000c 1300     		movs	r3, r2
 4086              	.LVL618:
 4087 000e 084A     		ldr	r2, .L170+4
 4088              	.LVL619:
 515:..\..\u8g2\csrc/u8g2_d_setup.c ****   uint8_t tile_buf_height;
 4089              		.loc 1 515 0
 4090 0010 0400     		movs	r4, r0
 518:..\..\u8g2\csrc/u8g2_d_setup.c ****   buf = u8g2_m_ssd1327_12_f(&tile_buf_height);
 4091              		.loc 1 518 0
 4092 0012 FFF7FEFF 		bl	u8x8_Setup
 4093              	.LVL620:
 4094              		.loc 1 519 0
 4095 0016 2800     		movs	r0, r5
 4096 0018 FFF7FEFF 		bl	u8g2_m_ssd1327_12_f
 4097              	.LVL621:
 520:..\..\u8g2\csrc/u8g2_d_setup.c ****   u8g2_SetupBuffer(u8g2, buf, tile_buf_height, u8g2_ll_hvline_vertical_top_lsb, rotation);
 4098              		.loc 1 520 0
ARM GAS  C:\Users\Greg\AppData\Local\Temp\ccGRKbG3.s 			page 87


 4099 001c 2A78     		ldrb	r2, [r5]
 519:..\..\u8g2\csrc/u8g2_d_setup.c ****   u8g2_SetupBuffer(u8g2, buf, tile_buf_height, u8g2_ll_hvline_vertical_top_lsb, rotation);
 4100              		.loc 1 519 0
 4101 001e 0100     		movs	r1, r0
 4102              	.LVL622:
 4103              		.loc 1 520 0
 4104 0020 0096     		str	r6, [sp]
 4105 0022 044B     		ldr	r3, .L170+8
 4106 0024 2000     		movs	r0, r4
 4107              	.LVL623:
 4108 0026 FFF7FEFF 		bl	u8g2_SetupBuffer
 4109              	.LVL624:
 521:..\..\u8g2\csrc/u8g2_d_setup.c **** }
 4110              		.loc 1 521 0
 4111              		@ sp needed
 4112              	.LVL625:
 4113              	.LVL626:
 4114 002a 7FBD     		pop	{r0, r1, r2, r3, r4, r5, r6, pc}
 4115              	.L171:
 4116              		.align	2
 4117              	.L170:
 4118 002c 00000000 		.word	u8x8_d_ssd1327_seeed_96x96
 4119 0030 00000000 		.word	u8x8_cad_001
 4120 0034 00000000 		.word	u8g2_ll_hvline_vertical_top_lsb
 4121              		.cfi_endproc
 4122              	.LFE56:
 4123              		.size	u8g2_Setup_ssd1327_seeed_96x96_f, .-u8g2_Setup_ssd1327_seeed_96x96_f
 4124              		.section	.text.u8g2_Setup_ssd1327_i2c_seeed_96x96_1,"ax",%progbits
 4125              		.align	1
 4126              		.global	u8g2_Setup_ssd1327_i2c_seeed_96x96_1
 4127              		.code	16
 4128              		.thumb_func
 4129              		.type	u8g2_Setup_ssd1327_i2c_seeed_96x96_1, %function
 4130              	u8g2_Setup_ssd1327_i2c_seeed_96x96_1:
 4131              	.LFB57:
 522:..\..\u8g2\csrc/u8g2_d_setup.c **** /* ssd1327 */
 523:..\..\u8g2\csrc/u8g2_d_setup.c **** /* ssd1327 1 */
 524:..\..\u8g2\csrc/u8g2_d_setup.c **** void u8g2_Setup_ssd1327_i2c_seeed_96x96_1(u8g2_t *u8g2, const u8g2_cb_t *rotation, u8x8_msg_cb byte
 525:..\..\u8g2\csrc/u8g2_d_setup.c **** {
 4132              		.loc 1 525 0
 4133              		.cfi_startproc
 4134              		@ args = 0, pretend = 0, frame = 8
 4135              		@ frame_needed = 0, uses_anonymous_args = 0
 4136              	.LVL627:
 4137 0000 7FB5     		push	{r0, r1, r2, r3, r4, r5, r6, lr}
 4138              		.cfi_def_cfa_offset 32
 4139              		.cfi_offset 0, -32
 4140              		.cfi_offset 1, -28
 4141              		.cfi_offset 2, -24
 4142              		.cfi_offset 3, -20
 4143              		.cfi_offset 4, -16
 4144              		.cfi_offset 5, -12
 4145              		.cfi_offset 6, -8
 4146              		.cfi_offset 14, -4
 526:..\..\u8g2\csrc/u8g2_d_setup.c ****   uint8_t tile_buf_height;
 527:..\..\u8g2\csrc/u8g2_d_setup.c ****   uint8_t *buf;
 528:..\..\u8g2\csrc/u8g2_d_setup.c ****   u8g2_SetupDisplay(u8g2, u8x8_d_ssd1327_seeed_96x96, u8x8_cad_ssd13xx_i2c, byte_cb, gpio_and_delay
ARM GAS  C:\Users\Greg\AppData\Local\Temp\ccGRKbG3.s 			page 88


 529:..\..\u8g2\csrc/u8g2_d_setup.c ****   buf = u8g2_m_ssd1327_12_1(&tile_buf_height);
 4147              		.loc 1 529 0
 4148 0002 0F25     		movs	r5, #15
 525:..\..\u8g2\csrc/u8g2_d_setup.c ****   uint8_t tile_buf_height;
 4149              		.loc 1 525 0
 4150 0004 0E00     		movs	r6, r1
 4151              		.loc 1 529 0
 4152 0006 6D44     		add	r5, r5, sp
 528:..\..\u8g2\csrc/u8g2_d_setup.c ****   buf = u8g2_m_ssd1327_12_1(&tile_buf_height);
 4153              		.loc 1 528 0
 4154 0008 0093     		str	r3, [sp]
 4155 000a 0849     		ldr	r1, .L173
 4156              	.LVL628:
 4157 000c 1300     		movs	r3, r2
 4158              	.LVL629:
 4159 000e 084A     		ldr	r2, .L173+4
 4160              	.LVL630:
 525:..\..\u8g2\csrc/u8g2_d_setup.c ****   uint8_t tile_buf_height;
 4161              		.loc 1 525 0
 4162 0010 0400     		movs	r4, r0
 528:..\..\u8g2\csrc/u8g2_d_setup.c ****   buf = u8g2_m_ssd1327_12_1(&tile_buf_height);
 4163              		.loc 1 528 0
 4164 0012 FFF7FEFF 		bl	u8x8_Setup
 4165              	.LVL631:
 4166              		.loc 1 529 0
 4167 0016 2800     		movs	r0, r5
 4168 0018 FFF7FEFF 		bl	u8g2_m_ssd1327_12_1
 4169              	.LVL632:
 530:..\..\u8g2\csrc/u8g2_d_setup.c ****   u8g2_SetupBuffer(u8g2, buf, tile_buf_height, u8g2_ll_hvline_vertical_top_lsb, rotation);
 4170              		.loc 1 530 0
 4171 001c 2A78     		ldrb	r2, [r5]
 529:..\..\u8g2\csrc/u8g2_d_setup.c ****   u8g2_SetupBuffer(u8g2, buf, tile_buf_height, u8g2_ll_hvline_vertical_top_lsb, rotation);
 4172              		.loc 1 529 0
 4173 001e 0100     		movs	r1, r0
 4174              	.LVL633:
 4175              		.loc 1 530 0
 4176 0020 0096     		str	r6, [sp]
 4177 0022 044B     		ldr	r3, .L173+8
 4178 0024 2000     		movs	r0, r4
 4179              	.LVL634:
 4180 0026 FFF7FEFF 		bl	u8g2_SetupBuffer
 4181              	.LVL635:
 531:..\..\u8g2\csrc/u8g2_d_setup.c **** }
 4182              		.loc 1 531 0
 4183              		@ sp needed
 4184              	.LVL636:
 4185              	.LVL637:
 4186 002a 7FBD     		pop	{r0, r1, r2, r3, r4, r5, r6, pc}
 4187              	.L174:
 4188              		.align	2
 4189              	.L173:
 4190 002c 00000000 		.word	u8x8_d_ssd1327_seeed_96x96
 4191 0030 00000000 		.word	u8x8_cad_ssd13xx_i2c
 4192 0034 00000000 		.word	u8g2_ll_hvline_vertical_top_lsb
 4193              		.cfi_endproc
 4194              	.LFE57:
 4195              		.size	u8g2_Setup_ssd1327_i2c_seeed_96x96_1, .-u8g2_Setup_ssd1327_i2c_seeed_96x96_1
ARM GAS  C:\Users\Greg\AppData\Local\Temp\ccGRKbG3.s 			page 89


 4196              		.section	.text.u8g2_Setup_ssd1327_i2c_seeed_96x96_2,"ax",%progbits
 4197              		.align	1
 4198              		.global	u8g2_Setup_ssd1327_i2c_seeed_96x96_2
 4199              		.code	16
 4200              		.thumb_func
 4201              		.type	u8g2_Setup_ssd1327_i2c_seeed_96x96_2, %function
 4202              	u8g2_Setup_ssd1327_i2c_seeed_96x96_2:
 4203              	.LFB58:
 532:..\..\u8g2\csrc/u8g2_d_setup.c **** /* ssd1327 2 */
 533:..\..\u8g2\csrc/u8g2_d_setup.c **** void u8g2_Setup_ssd1327_i2c_seeed_96x96_2(u8g2_t *u8g2, const u8g2_cb_t *rotation, u8x8_msg_cb byte
 534:..\..\u8g2\csrc/u8g2_d_setup.c **** {
 4204              		.loc 1 534 0
 4205              		.cfi_startproc
 4206              		@ args = 0, pretend = 0, frame = 8
 4207              		@ frame_needed = 0, uses_anonymous_args = 0
 4208              	.LVL638:
 4209 0000 7FB5     		push	{r0, r1, r2, r3, r4, r5, r6, lr}
 4210              		.cfi_def_cfa_offset 32
 4211              		.cfi_offset 0, -32
 4212              		.cfi_offset 1, -28
 4213              		.cfi_offset 2, -24
 4214              		.cfi_offset 3, -20
 4215              		.cfi_offset 4, -16
 4216              		.cfi_offset 5, -12
 4217              		.cfi_offset 6, -8
 4218              		.cfi_offset 14, -4
 535:..\..\u8g2\csrc/u8g2_d_setup.c ****   uint8_t tile_buf_height;
 536:..\..\u8g2\csrc/u8g2_d_setup.c ****   uint8_t *buf;
 537:..\..\u8g2\csrc/u8g2_d_setup.c ****   u8g2_SetupDisplay(u8g2, u8x8_d_ssd1327_seeed_96x96, u8x8_cad_ssd13xx_i2c, byte_cb, gpio_and_delay
 538:..\..\u8g2\csrc/u8g2_d_setup.c ****   buf = u8g2_m_ssd1327_12_2(&tile_buf_height);
 4219              		.loc 1 538 0
 4220 0002 0F25     		movs	r5, #15
 534:..\..\u8g2\csrc/u8g2_d_setup.c ****   uint8_t tile_buf_height;
 4221              		.loc 1 534 0
 4222 0004 0E00     		movs	r6, r1
 4223              		.loc 1 538 0
 4224 0006 6D44     		add	r5, r5, sp
 537:..\..\u8g2\csrc/u8g2_d_setup.c ****   buf = u8g2_m_ssd1327_12_2(&tile_buf_height);
 4225              		.loc 1 537 0
 4226 0008 0093     		str	r3, [sp]
 4227 000a 0849     		ldr	r1, .L176
 4228              	.LVL639:
 4229 000c 1300     		movs	r3, r2
 4230              	.LVL640:
 4231 000e 084A     		ldr	r2, .L176+4
 4232              	.LVL641:
 534:..\..\u8g2\csrc/u8g2_d_setup.c ****   uint8_t tile_buf_height;
 4233              		.loc 1 534 0
 4234 0010 0400     		movs	r4, r0
 537:..\..\u8g2\csrc/u8g2_d_setup.c ****   buf = u8g2_m_ssd1327_12_2(&tile_buf_height);
 4235              		.loc 1 537 0
 4236 0012 FFF7FEFF 		bl	u8x8_Setup
 4237              	.LVL642:
 4238              		.loc 1 538 0
 4239 0016 2800     		movs	r0, r5
 4240 0018 FFF7FEFF 		bl	u8g2_m_ssd1327_12_2
 4241              	.LVL643:
ARM GAS  C:\Users\Greg\AppData\Local\Temp\ccGRKbG3.s 			page 90


 539:..\..\u8g2\csrc/u8g2_d_setup.c ****   u8g2_SetupBuffer(u8g2, buf, tile_buf_height, u8g2_ll_hvline_vertical_top_lsb, rotation);
 4242              		.loc 1 539 0
 4243 001c 2A78     		ldrb	r2, [r5]
 538:..\..\u8g2\csrc/u8g2_d_setup.c ****   u8g2_SetupBuffer(u8g2, buf, tile_buf_height, u8g2_ll_hvline_vertical_top_lsb, rotation);
 4244              		.loc 1 538 0
 4245 001e 0100     		movs	r1, r0
 4246              	.LVL644:
 4247              		.loc 1 539 0
 4248 0020 0096     		str	r6, [sp]
 4249 0022 044B     		ldr	r3, .L176+8
 4250 0024 2000     		movs	r0, r4
 4251              	.LVL645:
 4252 0026 FFF7FEFF 		bl	u8g2_SetupBuffer
 4253              	.LVL646:
 540:..\..\u8g2\csrc/u8g2_d_setup.c **** }
 4254              		.loc 1 540 0
 4255              		@ sp needed
 4256              	.LVL647:
 4257              	.LVL648:
 4258 002a 7FBD     		pop	{r0, r1, r2, r3, r4, r5, r6, pc}
 4259              	.L177:
 4260              		.align	2
 4261              	.L176:
 4262 002c 00000000 		.word	u8x8_d_ssd1327_seeed_96x96
 4263 0030 00000000 		.word	u8x8_cad_ssd13xx_i2c
 4264 0034 00000000 		.word	u8g2_ll_hvline_vertical_top_lsb
 4265              		.cfi_endproc
 4266              	.LFE58:
 4267              		.size	u8g2_Setup_ssd1327_i2c_seeed_96x96_2, .-u8g2_Setup_ssd1327_i2c_seeed_96x96_2
 4268              		.section	.text.u8g2_Setup_ssd1327_i2c_seeed_96x96_f,"ax",%progbits
 4269              		.align	1
 4270              		.global	u8g2_Setup_ssd1327_i2c_seeed_96x96_f
 4271              		.code	16
 4272              		.thumb_func
 4273              		.type	u8g2_Setup_ssd1327_i2c_seeed_96x96_f, %function
