ARM GAS  C:\Users\gjl\AppData\Local\Temp\ccg70AS9.s 			page 1


   1              		.syntax unified
   2              		.cpu cortex-m0
   3              		.fpu softvfp
   4              		.eabi_attribute 20, 1
   5              		.eabi_attribute 21, 1
   6              		.eabi_attribute 23, 3
   7              		.eabi_attribute 24, 1
   8              		.eabi_attribute 25, 1
   9              		.eabi_attribute 26, 1
  10              		.eabi_attribute 30, 4
  11              		.eabi_attribute 34, 0
  12              		.eabi_attribute 18, 4
  13              		.thumb
  14              		.syntax unified
  15              		.file	"u8g2_font.c"
  16              		.text
  17              	.Ltext0:
  18              		.cfi_sections	.debug_frame
  19              		.section	.text.u8g2_font_get_word,"ax",%progbits
  20              		.align	1
  21              		.code	16
  22              		.thumb_func
  23              		.type	u8g2_font_get_word, %function
  24              	u8g2_font_get_word:
  25              	.LFB1:
  26              		.file 1 "..\\..\\u8g2\\csrc\\u8g2_font.c"
   1:..\..\u8g2\csrc/u8g2_font.c **** /*
   2:..\..\u8g2\csrc/u8g2_font.c **** 
   3:..\..\u8g2\csrc/u8g2_font.c ****   u8g2_font.c
   4:..\..\u8g2\csrc/u8g2_font.c **** 
   5:..\..\u8g2\csrc/u8g2_font.c ****   Universal 8bit Graphics Library (https://github.com/olikraus/u8g2/)
   6:..\..\u8g2\csrc/u8g2_font.c **** 
   7:..\..\u8g2\csrc/u8g2_font.c ****   Copyright (c) 2016, olikraus@gmail.com
   8:..\..\u8g2\csrc/u8g2_font.c ****   All rights reserved.
   9:..\..\u8g2\csrc/u8g2_font.c **** 
  10:..\..\u8g2\csrc/u8g2_font.c ****   Redistribution and use in source and binary forms, with or without modification, 
  11:..\..\u8g2\csrc/u8g2_font.c ****   are permitted provided that the following conditions are met:
  12:..\..\u8g2\csrc/u8g2_font.c **** 
  13:..\..\u8g2\csrc/u8g2_font.c ****   * Redistributions of source code must retain the above copyright notice, this list 
  14:..\..\u8g2\csrc/u8g2_font.c ****     of conditions and the following disclaimer.
  15:..\..\u8g2\csrc/u8g2_font.c ****     
  16:..\..\u8g2\csrc/u8g2_font.c ****   * Redistributions in binary form must reproduce the above copyright notice, this 
  17:..\..\u8g2\csrc/u8g2_font.c ****     list of conditions and the following disclaimer in the documentation and/or other 
  18:..\..\u8g2\csrc/u8g2_font.c ****     materials provided with the distribution.
  19:..\..\u8g2\csrc/u8g2_font.c **** 
  20:..\..\u8g2\csrc/u8g2_font.c ****   THIS SOFTWARE IS PROVIDED BY THE COPYRIGHT HOLDERS AND 
  21:..\..\u8g2\csrc/u8g2_font.c ****   CONTRIBUTORS "AS IS" AND ANY EXPRESS OR IMPLIED WARRANTIES, 
  22:..\..\u8g2\csrc/u8g2_font.c ****   INCLUDING, BUT NOT LIMITED TO, THE IMPLIED WARRANTIES OF 
  23:..\..\u8g2\csrc/u8g2_font.c ****   MERCHANTABILITY AND FITNESS FOR A PARTICULAR PURPOSE ARE 
  24:..\..\u8g2\csrc/u8g2_font.c ****   DISCLAIMED. IN NO EVENT SHALL THE COPYRIGHT HOLDER OR 
  25:..\..\u8g2\csrc/u8g2_font.c ****   CONTRIBUTORS BE LIABLE FOR ANY DIRECT, INDIRECT, INCIDENTAL, 
  26:..\..\u8g2\csrc/u8g2_font.c ****   SPECIAL, EXEMPLARY, OR CONSEQUENTIAL DAMAGES (INCLUDING, BUT 
  27:..\..\u8g2\csrc/u8g2_font.c ****   NOT LIMITED TO, PROCUREMENT OF SUBSTITUTE GOODS OR SERVICES; 
  28:..\..\u8g2\csrc/u8g2_font.c ****   LOSS OF USE, DATA, OR PROFITS; OR BUSINESS INTERRUPTION) HOWEVER 
  29:..\..\u8g2\csrc/u8g2_font.c ****   CAUSED AND ON ANY THEORY OF LIABILITY, WHETHER IN CONTRACT, 
  30:..\..\u8g2\csrc/u8g2_font.c ****   STRICT LIABILITY, OR TORT (INCLUDING NEGLIGENCE OR OTHERWISE) 
  31:..\..\u8g2\csrc/u8g2_font.c ****   ARISING IN ANY WAY OUT OF THE USE OF THIS SOFTWARE, EVEN IF 
ARM GAS  C:\Users\gjl\AppData\Local\Temp\ccg70AS9.s 			page 2


  32:..\..\u8g2\csrc/u8g2_font.c ****   ADVISED OF THE POSSIBILITY OF SUCH DAMAGE.  
  33:..\..\u8g2\csrc/u8g2_font.c **** 
  34:..\..\u8g2\csrc/u8g2_font.c **** */
  35:..\..\u8g2\csrc/u8g2_font.c **** 
  36:..\..\u8g2\csrc/u8g2_font.c **** #include "u8g2.h"
  37:..\..\u8g2\csrc/u8g2_font.c **** 
  38:..\..\u8g2\csrc/u8g2_font.c **** /* size of the font data structure, there is no struct or class... */
  39:..\..\u8g2\csrc/u8g2_font.c **** /* this is the size for the new font format */
  40:..\..\u8g2\csrc/u8g2_font.c **** #define U8G2_FONT_DATA_STRUCT_SIZE 23
  41:..\..\u8g2\csrc/u8g2_font.c **** 
  42:..\..\u8g2\csrc/u8g2_font.c **** /*
  43:..\..\u8g2\csrc/u8g2_font.c ****   font data:
  44:..\..\u8g2\csrc/u8g2_font.c **** 
  45:..\..\u8g2\csrc/u8g2_font.c ****   offset	bytes	description
  46:..\..\u8g2\csrc/u8g2_font.c ****   0		1		glyph_cnt		number of glyphs
  47:..\..\u8g2\csrc/u8g2_font.c ****   1		1		bbx_mode	0: proportional, 1: common height, 2: monospace, 3: multiple of 8
  48:..\..\u8g2\csrc/u8g2_font.c ****   2		1		bits_per_0	glyph rle parameter
  49:..\..\u8g2\csrc/u8g2_font.c ****   3		1		bits_per_1	glyph rle parameter
  50:..\..\u8g2\csrc/u8g2_font.c **** 
  51:..\..\u8g2\csrc/u8g2_font.c ****   4		1		bits_per_char_width		glyph rle parameter
  52:..\..\u8g2\csrc/u8g2_font.c ****   5		1		bits_per_char_height	glyph rle parameter
  53:..\..\u8g2\csrc/u8g2_font.c ****   6		1		bits_per_char_x		glyph rle parameter
  54:..\..\u8g2\csrc/u8g2_font.c ****   7		1		bits_per_char_y		glyph rle parameter
  55:..\..\u8g2\csrc/u8g2_font.c ****   8		1		bits_per_delta_x		glyph rle parameter
  56:..\..\u8g2\csrc/u8g2_font.c **** 
  57:..\..\u8g2\csrc/u8g2_font.c ****   9		1		max_char_width
  58:..\..\u8g2\csrc/u8g2_font.c ****   10		1		max_char_height
  59:..\..\u8g2\csrc/u8g2_font.c ****   11		1		x offset
  60:..\..\u8g2\csrc/u8g2_font.c ****   12		1		y offset (descent)
  61:..\..\u8g2\csrc/u8g2_font.c ****   
  62:..\..\u8g2\csrc/u8g2_font.c ****   13		1		ascent (capital A)
  63:..\..\u8g2\csrc/u8g2_font.c ****   14		1		descent (lower g)
  64:..\..\u8g2\csrc/u8g2_font.c ****   15		1		ascent '('
  65:..\..\u8g2\csrc/u8g2_font.c ****   16		1		descent ')'
  66:..\..\u8g2\csrc/u8g2_font.c ****   
  67:..\..\u8g2\csrc/u8g2_font.c ****   17		1		start pos 'A' high byte
  68:..\..\u8g2\csrc/u8g2_font.c ****   18		1		start pos 'A' low byte
  69:..\..\u8g2\csrc/u8g2_font.c **** 
  70:..\..\u8g2\csrc/u8g2_font.c ****   19		1		start pos 'a' high byte
  71:..\..\u8g2\csrc/u8g2_font.c ****   20		1		start pos 'a' low byte
  72:..\..\u8g2\csrc/u8g2_font.c **** 
  73:..\..\u8g2\csrc/u8g2_font.c ****   21		1		start pos unicode high byte
  74:..\..\u8g2\csrc/u8g2_font.c ****   22		1		start pos unicode low byte
  75:..\..\u8g2\csrc/u8g2_font.c **** 
  76:..\..\u8g2\csrc/u8g2_font.c ****   Font build mode, 0: proportional, 1: common height, 2: monospace, 3: multiple of 8
  77:..\..\u8g2\csrc/u8g2_font.c **** 
  78:..\..\u8g2\csrc/u8g2_font.c ****   Font build mode 0:		
  79:..\..\u8g2\csrc/u8g2_font.c ****     - "t"
  80:..\..\u8g2\csrc/u8g2_font.c ****     - Ref height mode: U8G2_FONT_HEIGHT_MODE_TEXT, U8G2_FONT_HEIGHT_MODE_XTEXT or U8G2_FONT_HEIGHT_
  81:..\..\u8g2\csrc/u8g2_font.c ****     - use in transparent mode only (does not look good in solid mode)
  82:..\..\u8g2\csrc/u8g2_font.c ****     - most compact format
  83:..\..\u8g2\csrc/u8g2_font.c ****     - different font heights possible
  84:..\..\u8g2\csrc/u8g2_font.c ****     
  85:..\..\u8g2\csrc/u8g2_font.c ****   Font build mode 1:		
  86:..\..\u8g2\csrc/u8g2_font.c ****     - "h"
  87:..\..\u8g2\csrc/u8g2_font.c ****     - Ref height mode: U8G2_FONT_HEIGHT_MODE_ALL
  88:..\..\u8g2\csrc/u8g2_font.c ****     - transparent or solid mode
ARM GAS  C:\Users\gjl\AppData\Local\Temp\ccg70AS9.s 			page 3


  89:..\..\u8g2\csrc/u8g2_font.c ****     - The height of the glyphs depend on the largest glyph in the font. This means font height depe
  90:..\..\u8g2\csrc/u8g2_font.c **** 
  91:..\..\u8g2\csrc/u8g2_font.c **** */
  92:..\..\u8g2\csrc/u8g2_font.c **** 
  93:..\..\u8g2\csrc/u8g2_font.c **** /* use case: What is the width and the height of the minimal box into which string s fints? */
  94:..\..\u8g2\csrc/u8g2_font.c **** void u8g2_font_GetStrSize(const void *font, const char *s, u8g2_uint_t *width, u8g2_uint_t *height)
  95:..\..\u8g2\csrc/u8g2_font.c **** void u8g2_font_GetStrSizeP(const void *font, const char *s, u8g2_uint_t *width, u8g2_uint_t *height
  96:..\..\u8g2\csrc/u8g2_font.c **** 
  97:..\..\u8g2\csrc/u8g2_font.c **** /* use case: lower left edge of a minimal box is known, what is the correct x, y position for the s
  98:..\..\u8g2\csrc/u8g2_font.c **** void u8g2_font_AdjustXYToDraw(const void *font, const char *s, u8g2_uint_t *x, u8g2_uint_t *y);
  99:..\..\u8g2\csrc/u8g2_font.c **** void u8g2_font_AdjustXYToDrawP(const void *font, const char *s, u8g2_uint_t *x, u8g2_uint_t *y);
 100:..\..\u8g2\csrc/u8g2_font.c **** 
 101:..\..\u8g2\csrc/u8g2_font.c **** /* use case: Baseline origin known, return minimal box */
 102:..\..\u8g2\csrc/u8g2_font.c **** void u8g2_font_GetStrMinBox(u8g2_t *u8g2, const void *font, const char *s, u8g2_uint_t *x, u8g2_uin
 103:..\..\u8g2\csrc/u8g2_font.c **** 
 104:..\..\u8g2\csrc/u8g2_font.c **** /* procedures */
 105:..\..\u8g2\csrc/u8g2_font.c **** 
 106:..\..\u8g2\csrc/u8g2_font.c **** /*========================================================================*/
 107:..\..\u8g2\csrc/u8g2_font.c **** /* low level byte and word access */
 108:..\..\u8g2\csrc/u8g2_font.c **** 
 109:..\..\u8g2\csrc/u8g2_font.c **** /* removed NOINLINE, because it leads to smaller code, might also be faster */
 110:..\..\u8g2\csrc/u8g2_font.c **** //static uint8_t u8g2_font_get_byte(const uint8_t *font, uint8_t offset) U8G2_NOINLINE;
 111:..\..\u8g2\csrc/u8g2_font.c **** static uint8_t u8g2_font_get_byte(const uint8_t *font, uint8_t offset)
 112:..\..\u8g2\csrc/u8g2_font.c **** {
 113:..\..\u8g2\csrc/u8g2_font.c ****   font += offset;
 114:..\..\u8g2\csrc/u8g2_font.c ****   return u8x8_pgm_read( font );  
 115:..\..\u8g2\csrc/u8g2_font.c **** }
 116:..\..\u8g2\csrc/u8g2_font.c **** 
 117:..\..\u8g2\csrc/u8g2_font.c **** static uint16_t u8g2_font_get_word(const uint8_t *font, uint8_t offset) U8G2_NOINLINE; 
 118:..\..\u8g2\csrc/u8g2_font.c **** static uint16_t u8g2_font_get_word(const uint8_t *font, uint8_t offset)
 119:..\..\u8g2\csrc/u8g2_font.c **** {
  27              		.loc 1 119 0
  28              		.cfi_startproc
  29              		@ args = 0, pretend = 0, frame = 0
  30              		@ frame_needed = 0, uses_anonymous_args = 0
  31              		@ link register save eliminated.
  32              	.LVL0:
 120:..\..\u8g2\csrc/u8g2_font.c ****     uint16_t pos;
 121:..\..\u8g2\csrc/u8g2_font.c ****     font += offset;
  33              		.loc 1 121 0
  34 0000 4118     		adds	r1, r0, r1
  35              	.LVL1:
 122:..\..\u8g2\csrc/u8g2_font.c ****     pos = u8x8_pgm_read( font );
  36              		.loc 1 122 0
  37 0002 0878     		ldrb	r0, [r1]
  38              	.LVL2:
 123:..\..\u8g2\csrc/u8g2_font.c ****     font++;
 124:..\..\u8g2\csrc/u8g2_font.c ****     pos <<= 8;
 125:..\..\u8g2\csrc/u8g2_font.c ****     pos += u8x8_pgm_read( font);
 126:..\..\u8g2\csrc/u8g2_font.c ****     return pos;
  39              		.loc 1 126 0
  40 0004 4B78     		ldrb	r3, [r1, #1]
 124:..\..\u8g2\csrc/u8g2_font.c ****     pos += u8x8_pgm_read( font);
  41              		.loc 1 124 0
  42 0006 0002     		lsls	r0, r0, #8
  43              	.LVL3:
  44              		.loc 1 126 0
ARM GAS  C:\Users\gjl\AppData\Local\Temp\ccg70AS9.s 			page 4


  45 0008 C018     		adds	r0, r0, r3
  46              	.LVL4:
  47 000a 80B2     		uxth	r0, r0
 127:..\..\u8g2\csrc/u8g2_font.c **** }
  48              		.loc 1 127 0
  49              		@ sp needed
  50 000c 7047     		bx	lr
  51              		.cfi_endproc
  52              	.LFE1:
  53              		.size	u8g2_font_get_word, .-u8g2_font_get_word
  54              		.section	.text.u8g2_add_vector_y,"ax",%progbits
  55              		.align	1
  56              		.code	16
  57              		.thumb_func
  58              		.type	u8g2_add_vector_y, %function
  59              	u8g2_add_vector_y:
  60              	.LFB11:
 128:..\..\u8g2\csrc/u8g2_font.c **** 
 129:..\..\u8g2\csrc/u8g2_font.c **** /*========================================================================*/
 130:..\..\u8g2\csrc/u8g2_font.c **** /* new font format */
 131:..\..\u8g2\csrc/u8g2_font.c **** void u8g2_read_font_info(u8g2_font_info_t *font_info, const uint8_t *font)
 132:..\..\u8g2\csrc/u8g2_font.c **** {
 133:..\..\u8g2\csrc/u8g2_font.c ****   /* offset 0 */
 134:..\..\u8g2\csrc/u8g2_font.c ****   font_info->glyph_cnt = u8g2_font_get_byte(font, 0);
 135:..\..\u8g2\csrc/u8g2_font.c ****   font_info->bbx_mode = u8g2_font_get_byte(font, 1);
 136:..\..\u8g2\csrc/u8g2_font.c ****   font_info->bits_per_0 = u8g2_font_get_byte(font, 2);
 137:..\..\u8g2\csrc/u8g2_font.c ****   font_info->bits_per_1 = u8g2_font_get_byte(font, 3);
 138:..\..\u8g2\csrc/u8g2_font.c ****   
 139:..\..\u8g2\csrc/u8g2_font.c ****   /* offset 4 */
 140:..\..\u8g2\csrc/u8g2_font.c ****   font_info->bits_per_char_width = u8g2_font_get_byte(font, 4);
 141:..\..\u8g2\csrc/u8g2_font.c ****   font_info->bits_per_char_height = u8g2_font_get_byte(font, 5);
 142:..\..\u8g2\csrc/u8g2_font.c ****   font_info->bits_per_char_x = u8g2_font_get_byte(font, 6);
 143:..\..\u8g2\csrc/u8g2_font.c ****   font_info->bits_per_char_y = u8g2_font_get_byte(font, 7);
 144:..\..\u8g2\csrc/u8g2_font.c ****   font_info->bits_per_delta_x = u8g2_font_get_byte(font, 8);
 145:..\..\u8g2\csrc/u8g2_font.c ****   
 146:..\..\u8g2\csrc/u8g2_font.c ****   /* offset 9 */
 147:..\..\u8g2\csrc/u8g2_font.c ****   font_info->max_char_width = u8g2_font_get_byte(font, 9);
 148:..\..\u8g2\csrc/u8g2_font.c ****   font_info->max_char_height = u8g2_font_get_byte(font, 10);
 149:..\..\u8g2\csrc/u8g2_font.c ****   font_info->x_offset = u8g2_font_get_byte(font, 11);
 150:..\..\u8g2\csrc/u8g2_font.c ****   font_info->y_offset = u8g2_font_get_byte(font, 12);
 151:..\..\u8g2\csrc/u8g2_font.c ****   
 152:..\..\u8g2\csrc/u8g2_font.c ****   /* offset 13 */
 153:..\..\u8g2\csrc/u8g2_font.c ****   font_info->ascent_A = u8g2_font_get_byte(font, 13);
 154:..\..\u8g2\csrc/u8g2_font.c ****   font_info->descent_g = u8g2_font_get_byte(font, 14);
 155:..\..\u8g2\csrc/u8g2_font.c ****   font_info->ascent_para = u8g2_font_get_byte(font, 15);
 156:..\..\u8g2\csrc/u8g2_font.c ****   font_info->descent_para = u8g2_font_get_byte(font, 16);
 157:..\..\u8g2\csrc/u8g2_font.c ****   
 158:..\..\u8g2\csrc/u8g2_font.c ****   /* offset 17 */
 159:..\..\u8g2\csrc/u8g2_font.c ****   font_info->start_pos_upper_A = u8g2_font_get_word(font, 17);
 160:..\..\u8g2\csrc/u8g2_font.c ****   font_info->start_pos_lower_a = u8g2_font_get_word(font, 19); 
 161:..\..\u8g2\csrc/u8g2_font.c ****   
 162:..\..\u8g2\csrc/u8g2_font.c ****   /* offset 21 */
 163:..\..\u8g2\csrc/u8g2_font.c **** #ifdef U8G2_WITH_UNICODE
 164:..\..\u8g2\csrc/u8g2_font.c ****   font_info->start_pos_unicode = u8g2_font_get_word(font, 21); 
 165:..\..\u8g2\csrc/u8g2_font.c **** #endif
 166:..\..\u8g2\csrc/u8g2_font.c **** }
 167:..\..\u8g2\csrc/u8g2_font.c **** 
ARM GAS  C:\Users\gjl\AppData\Local\Temp\ccg70AS9.s 			page 5


 168:..\..\u8g2\csrc/u8g2_font.c **** 
 169:..\..\u8g2\csrc/u8g2_font.c **** /* calculate the overall length of the font, only used to create the picture for the google wiki */
 170:..\..\u8g2\csrc/u8g2_font.c **** size_t u8g2_GetFontSize(const uint8_t *font_arg)
 171:..\..\u8g2\csrc/u8g2_font.c **** {
 172:..\..\u8g2\csrc/u8g2_font.c ****   uint16_t e;
 173:..\..\u8g2\csrc/u8g2_font.c ****   const uint8_t *font = font_arg;
 174:..\..\u8g2\csrc/u8g2_font.c ****   font += U8G2_FONT_DATA_STRUCT_SIZE;
 175:..\..\u8g2\csrc/u8g2_font.c ****   
 176:..\..\u8g2\csrc/u8g2_font.c ****   for(;;)
 177:..\..\u8g2\csrc/u8g2_font.c ****   {
 178:..\..\u8g2\csrc/u8g2_font.c ****     if ( u8x8_pgm_read( font + 1 ) == 0 )
 179:..\..\u8g2\csrc/u8g2_font.c ****       break;
 180:..\..\u8g2\csrc/u8g2_font.c ****     font += u8x8_pgm_read( font + 1 );
 181:..\..\u8g2\csrc/u8g2_font.c ****   }
 182:..\..\u8g2\csrc/u8g2_font.c ****   
 183:..\..\u8g2\csrc/u8g2_font.c ****   /* continue with unicode section */
 184:..\..\u8g2\csrc/u8g2_font.c ****   font += 2;
 185:..\..\u8g2\csrc/u8g2_font.c ****   
 186:..\..\u8g2\csrc/u8g2_font.c ****   for(;;)
 187:..\..\u8g2\csrc/u8g2_font.c ****   {
 188:..\..\u8g2\csrc/u8g2_font.c ****     e = u8x8_pgm_read( font );
 189:..\..\u8g2\csrc/u8g2_font.c ****     e <<= 8;
 190:..\..\u8g2\csrc/u8g2_font.c ****     e |= u8x8_pgm_read( font + 1 );
 191:..\..\u8g2\csrc/u8g2_font.c ****     if ( e == 0 )
 192:..\..\u8g2\csrc/u8g2_font.c ****       break;
 193:..\..\u8g2\csrc/u8g2_font.c ****     font += u8x8_pgm_read( font + 2 );    
 194:..\..\u8g2\csrc/u8g2_font.c ****   }
 195:..\..\u8g2\csrc/u8g2_font.c ****   
 196:..\..\u8g2\csrc/u8g2_font.c ****   return (font - font_arg) + 2;
 197:..\..\u8g2\csrc/u8g2_font.c **** }
 198:..\..\u8g2\csrc/u8g2_font.c **** 
 199:..\..\u8g2\csrc/u8g2_font.c **** /*========================================================================*/
 200:..\..\u8g2\csrc/u8g2_font.c **** /* u8g2 interface, font access */
 201:..\..\u8g2\csrc/u8g2_font.c **** 
 202:..\..\u8g2\csrc/u8g2_font.c **** uint8_t u8g2_GetFontBBXWidth(u8g2_t *u8g2)
 203:..\..\u8g2\csrc/u8g2_font.c **** {
 204:..\..\u8g2\csrc/u8g2_font.c ****   return u8g2->font_info.max_char_width;		/* new font info structure */
 205:..\..\u8g2\csrc/u8g2_font.c **** }
 206:..\..\u8g2\csrc/u8g2_font.c **** 
 207:..\..\u8g2\csrc/u8g2_font.c **** uint8_t u8g2_GetFontBBXHeight(u8g2_t *u8g2)
 208:..\..\u8g2\csrc/u8g2_font.c **** {
 209:..\..\u8g2\csrc/u8g2_font.c ****   return u8g2->font_info.max_char_height;		/* new font info structure */
 210:..\..\u8g2\csrc/u8g2_font.c **** }
 211:..\..\u8g2\csrc/u8g2_font.c **** 
 212:..\..\u8g2\csrc/u8g2_font.c **** int8_t u8g_GetFontBBXOffX(u8g2_t *u8g2) U8G2_NOINLINE;
 213:..\..\u8g2\csrc/u8g2_font.c **** int8_t u8g_GetFontBBXOffX(u8g2_t *u8g2)
 214:..\..\u8g2\csrc/u8g2_font.c **** {
 215:..\..\u8g2\csrc/u8g2_font.c ****   return u8g2->font_info.x_offset;		/* new font info structure */
 216:..\..\u8g2\csrc/u8g2_font.c **** }
 217:..\..\u8g2\csrc/u8g2_font.c **** 
 218:..\..\u8g2\csrc/u8g2_font.c **** int8_t u8g2_GetFontBBXOffY(u8g2_t *u8g2) U8G2_NOINLINE;
 219:..\..\u8g2\csrc/u8g2_font.c **** int8_t u8g2_GetFontBBXOffY(u8g2_t *u8g2)
 220:..\..\u8g2\csrc/u8g2_font.c **** {
 221:..\..\u8g2\csrc/u8g2_font.c ****   return u8g2->font_info.y_offset;		/* new font info structure */
 222:..\..\u8g2\csrc/u8g2_font.c **** }
 223:..\..\u8g2\csrc/u8g2_font.c **** 
 224:..\..\u8g2\csrc/u8g2_font.c **** uint8_t u8g2_GetFontCapitalAHeight(u8g2_t *u8g2) U8G2_NOINLINE; 
ARM GAS  C:\Users\gjl\AppData\Local\Temp\ccg70AS9.s 			page 6


 225:..\..\u8g2\csrc/u8g2_font.c **** uint8_t u8g2_GetFontCapitalAHeight(u8g2_t *u8g2)
 226:..\..\u8g2\csrc/u8g2_font.c **** {
 227:..\..\u8g2\csrc/u8g2_font.c ****   return u8g2->font_info.ascent_A;		/* new font info structure */
 228:..\..\u8g2\csrc/u8g2_font.c **** }
 229:..\..\u8g2\csrc/u8g2_font.c **** 
 230:..\..\u8g2\csrc/u8g2_font.c **** /*========================================================================*/
 231:..\..\u8g2\csrc/u8g2_font.c **** /* glyph handling */
 232:..\..\u8g2\csrc/u8g2_font.c **** 
 233:..\..\u8g2\csrc/u8g2_font.c **** /* optimized */
 234:..\..\u8g2\csrc/u8g2_font.c **** uint8_t u8g2_font_decode_get_unsigned_bits(u8g2_font_decode_t *f, uint8_t cnt) 
 235:..\..\u8g2\csrc/u8g2_font.c **** {
 236:..\..\u8g2\csrc/u8g2_font.c ****   uint8_t val;
 237:..\..\u8g2\csrc/u8g2_font.c ****   uint8_t bit_pos = f->decode_bit_pos;
 238:..\..\u8g2\csrc/u8g2_font.c ****   uint8_t bit_pos_plus_cnt;
 239:..\..\u8g2\csrc/u8g2_font.c ****   
 240:..\..\u8g2\csrc/u8g2_font.c ****   //val = *(f->decode_ptr);
 241:..\..\u8g2\csrc/u8g2_font.c ****   val = u8x8_pgm_read( f->decode_ptr );  
 242:..\..\u8g2\csrc/u8g2_font.c ****   
 243:..\..\u8g2\csrc/u8g2_font.c ****   val >>= bit_pos;
 244:..\..\u8g2\csrc/u8g2_font.c ****   bit_pos_plus_cnt = bit_pos;
 245:..\..\u8g2\csrc/u8g2_font.c ****   bit_pos_plus_cnt += cnt;
 246:..\..\u8g2\csrc/u8g2_font.c ****   if ( bit_pos_plus_cnt >= 8 )
 247:..\..\u8g2\csrc/u8g2_font.c ****   {
 248:..\..\u8g2\csrc/u8g2_font.c ****     uint8_t s = 8;
 249:..\..\u8g2\csrc/u8g2_font.c ****     s -= bit_pos;
 250:..\..\u8g2\csrc/u8g2_font.c ****     f->decode_ptr++;
 251:..\..\u8g2\csrc/u8g2_font.c ****     //val |= *(f->decode_ptr) << (8-bit_pos);
 252:..\..\u8g2\csrc/u8g2_font.c ****     val |= u8x8_pgm_read( f->decode_ptr ) << (s);
 253:..\..\u8g2\csrc/u8g2_font.c ****     //bit_pos -= 8;
 254:..\..\u8g2\csrc/u8g2_font.c ****     bit_pos_plus_cnt -= 8;
 255:..\..\u8g2\csrc/u8g2_font.c ****   }
 256:..\..\u8g2\csrc/u8g2_font.c ****   val &= (1U<<cnt)-1;
 257:..\..\u8g2\csrc/u8g2_font.c ****   //bit_pos += cnt;
 258:..\..\u8g2\csrc/u8g2_font.c ****   
 259:..\..\u8g2\csrc/u8g2_font.c ****   f->decode_bit_pos = bit_pos_plus_cnt;
 260:..\..\u8g2\csrc/u8g2_font.c ****   return val;
 261:..\..\u8g2\csrc/u8g2_font.c **** }
 262:..\..\u8g2\csrc/u8g2_font.c **** 
 263:..\..\u8g2\csrc/u8g2_font.c **** 
 264:..\..\u8g2\csrc/u8g2_font.c **** /*
 265:..\..\u8g2\csrc/u8g2_font.c ****     2 bit --> cnt = 2
 266:..\..\u8g2\csrc/u8g2_font.c ****       -2,-1,0. 1
 267:..\..\u8g2\csrc/u8g2_font.c **** 
 268:..\..\u8g2\csrc/u8g2_font.c ****     3 bit --> cnt = 3
 269:..\..\u8g2\csrc/u8g2_font.c ****       -2,-1,0. 1
 270:..\..\u8g2\csrc/u8g2_font.c ****       -4,-3,-2,-1,0,1,2,3
 271:..\..\u8g2\csrc/u8g2_font.c **** 
 272:..\..\u8g2\csrc/u8g2_font.c ****       if ( x < 0 )
 273:..\..\u8g2\csrc/u8g2_font.c **** 	r = bits(x-1)+1;
 274:..\..\u8g2\csrc/u8g2_font.c ****     else
 275:..\..\u8g2\csrc/u8g2_font.c **** 	r = bits(x)+1;
 276:..\..\u8g2\csrc/u8g2_font.c **** 
 277:..\..\u8g2\csrc/u8g2_font.c **** */
 278:..\..\u8g2\csrc/u8g2_font.c **** /* optimized */
 279:..\..\u8g2\csrc/u8g2_font.c **** int8_t u8g2_font_decode_get_signed_bits(u8g2_font_decode_t *f, uint8_t cnt)
 280:..\..\u8g2\csrc/u8g2_font.c **** {
 281:..\..\u8g2\csrc/u8g2_font.c ****   int8_t v, d;
ARM GAS  C:\Users\gjl\AppData\Local\Temp\ccg70AS9.s 			page 7


 282:..\..\u8g2\csrc/u8g2_font.c ****   v = (int8_t)u8g2_font_decode_get_unsigned_bits(f, cnt);
 283:..\..\u8g2\csrc/u8g2_font.c ****   d = 1;
 284:..\..\u8g2\csrc/u8g2_font.c ****   cnt--;
 285:..\..\u8g2\csrc/u8g2_font.c ****   d <<= cnt;
 286:..\..\u8g2\csrc/u8g2_font.c ****   v -= d;
 287:..\..\u8g2\csrc/u8g2_font.c ****   return v;
 288:..\..\u8g2\csrc/u8g2_font.c ****   //return (int8_t)u8g2_font_decode_get_unsigned_bits(f, cnt) - ((1<<cnt)>>1);
 289:..\..\u8g2\csrc/u8g2_font.c **** }
 290:..\..\u8g2\csrc/u8g2_font.c **** 
 291:..\..\u8g2\csrc/u8g2_font.c **** 
 292:..\..\u8g2\csrc/u8g2_font.c **** #ifdef U8G2_WITH_FONT_ROTATION
 293:..\..\u8g2\csrc/u8g2_font.c **** static u8g2_uint_t u8g2_add_vector_y(u8g2_uint_t dy, int8_t x, int8_t y, uint8_t dir) U8G2_NOINLINE
 294:..\..\u8g2\csrc/u8g2_font.c **** static u8g2_uint_t u8g2_add_vector_y(u8g2_uint_t dy, int8_t x, int8_t y, uint8_t dir)
 295:..\..\u8g2\csrc/u8g2_font.c **** {
  61              		.loc 1 295 0
  62              		.cfi_startproc
  63              		@ args = 0, pretend = 0, frame = 0
  64              		@ frame_needed = 0, uses_anonymous_args = 0
  65              	.LVL5:
  66 0000 10B5     		push	{r4, lr}
  67              		.cfi_def_cfa_offset 8
  68              		.cfi_offset 4, -8
  69              		.cfi_offset 14, -4
 296:..\..\u8g2\csrc/u8g2_font.c ****   switch(dir)
 297:..\..\u8g2\csrc/u8g2_font.c ****   {
 298:..\..\u8g2\csrc/u8g2_font.c ****     case 0:
 299:..\..\u8g2\csrc/u8g2_font.c ****       dy += y;
 300:..\..\u8g2\csrc/u8g2_font.c ****       break;
 301:..\..\u8g2\csrc/u8g2_font.c ****     case 1:
 302:..\..\u8g2\csrc/u8g2_font.c ****       dy += x;
  70              		.loc 1 302 0
  71 0002 4418     		adds	r4, r0, r1
  72 0004 E4B2     		uxtb	r4, r4
 296:..\..\u8g2\csrc/u8g2_font.c ****   switch(dir)
  73              		.loc 1 296 0
  74 0006 012B     		cmp	r3, #1
  75 0008 09D0     		beq	.L7
 299:..\..\u8g2\csrc/u8g2_font.c ****       break;
  76              		.loc 1 299 0
  77 000a 8418     		adds	r4, r0, r2
  78 000c E4B2     		uxtb	r4, r4
 296:..\..\u8g2\csrc/u8g2_font.c ****   switch(dir)
  79              		.loc 1 296 0
  80 000e 002B     		cmp	r3, #0
  81 0010 05D0     		beq	.L7
 303:..\..\u8g2\csrc/u8g2_font.c ****       break;
 304:..\..\u8g2\csrc/u8g2_font.c ****     case 2:
 305:..\..\u8g2\csrc/u8g2_font.c ****       dy -= y;
  82              		.loc 1 305 0
  83 0012 821A     		subs	r2, r0, r2
  84              	.LVL6:
  85 0014 D4B2     		uxtb	r4, r2
 296:..\..\u8g2\csrc/u8g2_font.c ****   {
  86              		.loc 1 296 0
  87 0016 022B     		cmp	r3, #2
  88 0018 01D0     		beq	.L7
 306:..\..\u8g2\csrc/u8g2_font.c ****       break;
ARM GAS  C:\Users\gjl\AppData\Local\Temp\ccg70AS9.s 			page 8


 307:..\..\u8g2\csrc/u8g2_font.c ****     default:
 308:..\..\u8g2\csrc/u8g2_font.c ****       dy -= x;
  89              		.loc 1 308 0
  90 001a 401A     		subs	r0, r0, r1
  91              	.LVL7:
  92 001c C4B2     		uxtb	r4, r0
  93              	.LVL8:
  94              	.L7:
 309:..\..\u8g2\csrc/u8g2_font.c ****       break;      
 310:..\..\u8g2\csrc/u8g2_font.c ****   }
 311:..\..\u8g2\csrc/u8g2_font.c ****   return dy;
 312:..\..\u8g2\csrc/u8g2_font.c **** }
  95              		.loc 1 312 0
  96 001e 2000     		movs	r0, r4
  97              		@ sp needed
  98              	.LVL9:
  99 0020 10BD     		pop	{r4, pc}
 100              		.cfi_endproc
 101              	.LFE11:
 102              		.size	u8g2_add_vector_y, .-u8g2_add_vector_y
 103              		.section	.text.u8g2_add_vector_x,"ax",%progbits
 104              		.align	1
 105              		.code	16
 106              		.thumb_func
 107              		.type	u8g2_add_vector_x, %function
 108              	u8g2_add_vector_x:
 109              	.LFB12:
 313:..\..\u8g2\csrc/u8g2_font.c **** 
 314:..\..\u8g2\csrc/u8g2_font.c **** static u8g2_uint_t u8g2_add_vector_x(u8g2_uint_t dx, int8_t x, int8_t y, uint8_t dir) U8G2_NOINLINE
 315:..\..\u8g2\csrc/u8g2_font.c **** static u8g2_uint_t u8g2_add_vector_x(u8g2_uint_t dx, int8_t x, int8_t y, uint8_t dir)
 316:..\..\u8g2\csrc/u8g2_font.c **** {
 110              		.loc 1 316 0
 111              		.cfi_startproc
 112              		@ args = 0, pretend = 0, frame = 0
 113              		@ frame_needed = 0, uses_anonymous_args = 0
 114              	.LVL10:
 115 0000 30B5     		push	{r4, r5, lr}
 116              		.cfi_def_cfa_offset 12
 117              		.cfi_offset 4, -12
 118              		.cfi_offset 5, -8
 119              		.cfi_offset 14, -4
 317:..\..\u8g2\csrc/u8g2_font.c ****   switch(dir)
 318:..\..\u8g2\csrc/u8g2_font.c ****   {
 319:..\..\u8g2\csrc/u8g2_font.c ****     case 0:
 320:..\..\u8g2\csrc/u8g2_font.c ****       dx += x;
 321:..\..\u8g2\csrc/u8g2_font.c ****       break;
 322:..\..\u8g2\csrc/u8g2_font.c ****     case 1:
 323:..\..\u8g2\csrc/u8g2_font.c ****       dx -= y;
 120              		.loc 1 323 0
 121 0002 851A     		subs	r5, r0, r2
 122 0004 ECB2     		uxtb	r4, r5
 317:..\..\u8g2\csrc/u8g2_font.c ****   switch(dir)
 123              		.loc 1 317 0
 124 0006 012B     		cmp	r3, #1
 125 0008 09D0     		beq	.L14
 320:..\..\u8g2\csrc/u8g2_font.c ****       break;
 126              		.loc 1 320 0
ARM GAS  C:\Users\gjl\AppData\Local\Temp\ccg70AS9.s 			page 9


 127 000a 4518     		adds	r5, r0, r1
 128 000c ECB2     		uxtb	r4, r5
 317:..\..\u8g2\csrc/u8g2_font.c ****   switch(dir)
 129              		.loc 1 317 0
 130 000e 002B     		cmp	r3, #0
 131 0010 05D0     		beq	.L14
 324:..\..\u8g2\csrc/u8g2_font.c ****       break;
 325:..\..\u8g2\csrc/u8g2_font.c ****     case 2:
 326:..\..\u8g2\csrc/u8g2_font.c ****       dx -= x;
 132              		.loc 1 326 0
 133 0012 411A     		subs	r1, r0, r1
 134              	.LVL11:
 135 0014 CCB2     		uxtb	r4, r1
 317:..\..\u8g2\csrc/u8g2_font.c ****   {
 136              		.loc 1 317 0
 137 0016 022B     		cmp	r3, #2
 138 0018 01D0     		beq	.L14
 327:..\..\u8g2\csrc/u8g2_font.c ****       break;
 328:..\..\u8g2\csrc/u8g2_font.c ****     default:
 329:..\..\u8g2\csrc/u8g2_font.c ****       dx += y;
 139              		.loc 1 329 0
 140 001a 8218     		adds	r2, r0, r2
 141              	.LVL12:
 142 001c D4B2     		uxtb	r4, r2
 143              	.LVL13:
 144              	.L14:
 330:..\..\u8g2\csrc/u8g2_font.c ****       break;      
 331:..\..\u8g2\csrc/u8g2_font.c ****   }
 332:..\..\u8g2\csrc/u8g2_font.c ****   return dx;
 333:..\..\u8g2\csrc/u8g2_font.c **** }
 145              		.loc 1 333 0
 146 001e 2000     		movs	r0, r4
 147              		@ sp needed
 148              	.LVL14:
 149 0020 30BD     		pop	{r4, r5, pc}
 150              		.cfi_endproc
 151              	.LFE12:
 152              		.size	u8g2_add_vector_x, .-u8g2_add_vector_x
 153              		.section	.text.u8g2_font_calc_vref_font,"ax",%progbits
 154              		.align	1
 155              		.global	u8g2_font_calc_vref_font
 156              		.code	16
 157              		.thumb_func
 158              		.type	u8g2_font_calc_vref_font, %function
 159              	u8g2_font_calc_vref_font:
 160              	.LFB31:
 334:..\..\u8g2\csrc/u8g2_font.c **** #endif
 335:..\..\u8g2\csrc/u8g2_font.c **** 
 336:..\..\u8g2\csrc/u8g2_font.c **** 
 337:..\..\u8g2\csrc/u8g2_font.c **** 
 338:..\..\u8g2\csrc/u8g2_font.c **** /*
 339:..\..\u8g2\csrc/u8g2_font.c ****   Description:
 340:..\..\u8g2\csrc/u8g2_font.c ****     Draw a run-length area of the glyph. "len" can have any size and the line
 341:..\..\u8g2\csrc/u8g2_font.c ****     length has to be wrapped at the glyph border.
 342:..\..\u8g2\csrc/u8g2_font.c ****   Args:
 343:..\..\u8g2\csrc/u8g2_font.c ****     len: 					Length of the line
 344:..\..\u8g2\csrc/u8g2_font.c ****     is_foreground			foreground/background?
ARM GAS  C:\Users\gjl\AppData\Local\Temp\ccg70AS9.s 			page 10


 345:..\..\u8g2\csrc/u8g2_font.c ****     u8g2->font_decode.target_x		X position
 346:..\..\u8g2\csrc/u8g2_font.c ****     u8g2->font_decode.target_y		Y position
 347:..\..\u8g2\csrc/u8g2_font.c ****     u8g2->font_decode.is_transparent	Transparent mode
 348:..\..\u8g2\csrc/u8g2_font.c ****   Return:
 349:..\..\u8g2\csrc/u8g2_font.c ****     -
 350:..\..\u8g2\csrc/u8g2_font.c ****   Calls:
 351:..\..\u8g2\csrc/u8g2_font.c ****     u8g2_Draw90Line()
 352:..\..\u8g2\csrc/u8g2_font.c ****   Called by:
 353:..\..\u8g2\csrc/u8g2_font.c ****     u8g2_font_decode_glyph()
 354:..\..\u8g2\csrc/u8g2_font.c **** */
 355:..\..\u8g2\csrc/u8g2_font.c **** /* optimized */
 356:..\..\u8g2\csrc/u8g2_font.c **** void u8g2_font_decode_len(u8g2_t *u8g2, uint8_t len, uint8_t is_foreground)
 357:..\..\u8g2\csrc/u8g2_font.c **** {
 358:..\..\u8g2\csrc/u8g2_font.c ****   uint8_t cnt;	/* total number of remaining pixels, which have to be drawn */
 359:..\..\u8g2\csrc/u8g2_font.c ****   uint8_t rem; 	/* remaining pixel to the right edge of the glyph */
 360:..\..\u8g2\csrc/u8g2_font.c ****   uint8_t current;	/* number of pixels, which need to be drawn for the draw procedure */
 361:..\..\u8g2\csrc/u8g2_font.c ****     /* current is either equal to cnt or equal to rem */
 362:..\..\u8g2\csrc/u8g2_font.c ****   
 363:..\..\u8g2\csrc/u8g2_font.c ****   /* local coordinates of the glyph */
 364:..\..\u8g2\csrc/u8g2_font.c ****   uint8_t lx,ly;
 365:..\..\u8g2\csrc/u8g2_font.c ****   
 366:..\..\u8g2\csrc/u8g2_font.c ****   /* target position on the screen */
 367:..\..\u8g2\csrc/u8g2_font.c ****   u8g2_uint_t x, y;
 368:..\..\u8g2\csrc/u8g2_font.c ****   
 369:..\..\u8g2\csrc/u8g2_font.c ****   u8g2_font_decode_t *decode = &(u8g2->font_decode);
 370:..\..\u8g2\csrc/u8g2_font.c ****   
 371:..\..\u8g2\csrc/u8g2_font.c ****   cnt = len;
 372:..\..\u8g2\csrc/u8g2_font.c ****   
 373:..\..\u8g2\csrc/u8g2_font.c ****   /* get the local position */
 374:..\..\u8g2\csrc/u8g2_font.c ****   lx = decode->x;
 375:..\..\u8g2\csrc/u8g2_font.c ****   ly = decode->y;
 376:..\..\u8g2\csrc/u8g2_font.c ****   
 377:..\..\u8g2\csrc/u8g2_font.c ****   for(;;)
 378:..\..\u8g2\csrc/u8g2_font.c ****   {
 379:..\..\u8g2\csrc/u8g2_font.c ****     /* calculate the number of pixel to the right edge of the glyph */
 380:..\..\u8g2\csrc/u8g2_font.c ****     rem = decode->glyph_width;
 381:..\..\u8g2\csrc/u8g2_font.c ****     rem -= lx;
 382:..\..\u8g2\csrc/u8g2_font.c ****     
 383:..\..\u8g2\csrc/u8g2_font.c ****     /* calculate how many pixel to draw. This is either to the right edge */
 384:..\..\u8g2\csrc/u8g2_font.c ****     /* or lesser, if not enough pixel are left */
 385:..\..\u8g2\csrc/u8g2_font.c ****     current = rem;
 386:..\..\u8g2\csrc/u8g2_font.c ****     if ( cnt < rem )
 387:..\..\u8g2\csrc/u8g2_font.c ****       current = cnt;
 388:..\..\u8g2\csrc/u8g2_font.c ****     
 389:..\..\u8g2\csrc/u8g2_font.c ****     
 390:..\..\u8g2\csrc/u8g2_font.c ****     /* now draw the line, but apply the rotation around the glyph target position */
 391:..\..\u8g2\csrc/u8g2_font.c ****     //u8g2_font_decode_draw_pixel(u8g2, lx,ly,current, is_foreground);
 392:..\..\u8g2\csrc/u8g2_font.c **** 
 393:..\..\u8g2\csrc/u8g2_font.c ****     /* get target position */
 394:..\..\u8g2\csrc/u8g2_font.c ****     x = decode->target_x;
 395:..\..\u8g2\csrc/u8g2_font.c ****     y = decode->target_y;
 396:..\..\u8g2\csrc/u8g2_font.c **** 
 397:..\..\u8g2\csrc/u8g2_font.c ****     /* apply rotation */
 398:..\..\u8g2\csrc/u8g2_font.c **** #ifdef U8G2_WITH_FONT_ROTATION
 399:..\..\u8g2\csrc/u8g2_font.c ****     x = u8g2_add_vector_x(x, lx, ly, decode->dir);
 400:..\..\u8g2\csrc/u8g2_font.c ****     y = u8g2_add_vector_y(y, lx, ly, decode->dir);
 401:..\..\u8g2\csrc/u8g2_font.c **** #else
ARM GAS  C:\Users\gjl\AppData\Local\Temp\ccg70AS9.s 			page 11


 402:..\..\u8g2\csrc/u8g2_font.c ****     x += lx;
 403:..\..\u8g2\csrc/u8g2_font.c ****     y += ly;
 404:..\..\u8g2\csrc/u8g2_font.c **** #endif
 405:..\..\u8g2\csrc/u8g2_font.c ****     
 406:..\..\u8g2\csrc/u8g2_font.c ****     /* draw foreground and background (if required) */
 407:..\..\u8g2\csrc/u8g2_font.c ****     if ( is_foreground )
 408:..\..\u8g2\csrc/u8g2_font.c ****     {
 409:..\..\u8g2\csrc/u8g2_font.c ****       u8g2->draw_color = decode->fg_color;			/* draw_color will be restored later */
 410:..\..\u8g2\csrc/u8g2_font.c ****       u8g2_DrawHVLine(u8g2, 
 411:..\..\u8g2\csrc/u8g2_font.c **** 	x, 
 412:..\..\u8g2\csrc/u8g2_font.c **** 	y, 
 413:..\..\u8g2\csrc/u8g2_font.c **** 	current, 
 414:..\..\u8g2\csrc/u8g2_font.c **** #ifdef U8G2_WITH_FONT_ROTATION
 415:..\..\u8g2\csrc/u8g2_font.c **** 	/* dir */ decode->dir
 416:..\..\u8g2\csrc/u8g2_font.c **** #else
 417:..\..\u8g2\csrc/u8g2_font.c **** 	0
 418:..\..\u8g2\csrc/u8g2_font.c **** #endif
 419:..\..\u8g2\csrc/u8g2_font.c ****       );
 420:..\..\u8g2\csrc/u8g2_font.c ****     }
 421:..\..\u8g2\csrc/u8g2_font.c ****     else if ( decode->is_transparent == 0 )    
 422:..\..\u8g2\csrc/u8g2_font.c ****     {
 423:..\..\u8g2\csrc/u8g2_font.c ****       u8g2->draw_color = decode->bg_color;			/* draw_color will be restored later */
 424:..\..\u8g2\csrc/u8g2_font.c ****       u8g2_DrawHVLine(u8g2, 
 425:..\..\u8g2\csrc/u8g2_font.c **** 	x, 
 426:..\..\u8g2\csrc/u8g2_font.c **** 	y, 
 427:..\..\u8g2\csrc/u8g2_font.c **** 	current, 
 428:..\..\u8g2\csrc/u8g2_font.c **** #ifdef U8G2_WITH_FONT_ROTATION
 429:..\..\u8g2\csrc/u8g2_font.c **** 	/* dir */ decode->dir
 430:..\..\u8g2\csrc/u8g2_font.c **** #else
 431:..\..\u8g2\csrc/u8g2_font.c **** 	0
 432:..\..\u8g2\csrc/u8g2_font.c **** #endif
 433:..\..\u8g2\csrc/u8g2_font.c ****       );   
 434:..\..\u8g2\csrc/u8g2_font.c ****     }
 435:..\..\u8g2\csrc/u8g2_font.c ****     
 436:..\..\u8g2\csrc/u8g2_font.c ****     /* check, whether the end of the run length code has been reached */
 437:..\..\u8g2\csrc/u8g2_font.c ****     if ( cnt < rem )
 438:..\..\u8g2\csrc/u8g2_font.c ****       break;
 439:..\..\u8g2\csrc/u8g2_font.c ****     cnt -= rem;
 440:..\..\u8g2\csrc/u8g2_font.c ****     lx = 0;
 441:..\..\u8g2\csrc/u8g2_font.c ****     ly++;
 442:..\..\u8g2\csrc/u8g2_font.c ****   }
 443:..\..\u8g2\csrc/u8g2_font.c ****   lx += cnt;
 444:..\..\u8g2\csrc/u8g2_font.c ****   
 445:..\..\u8g2\csrc/u8g2_font.c ****   decode->x = lx;
 446:..\..\u8g2\csrc/u8g2_font.c ****   decode->y = ly;
 447:..\..\u8g2\csrc/u8g2_font.c ****   
 448:..\..\u8g2\csrc/u8g2_font.c **** }
 449:..\..\u8g2\csrc/u8g2_font.c **** 
 450:..\..\u8g2\csrc/u8g2_font.c **** static void u8g2_font_setup_decode(u8g2_t *u8g2, const uint8_t *glyph_data)
 451:..\..\u8g2\csrc/u8g2_font.c **** {
 452:..\..\u8g2\csrc/u8g2_font.c ****   u8g2_font_decode_t *decode = &(u8g2->font_decode);
 453:..\..\u8g2\csrc/u8g2_font.c ****   decode->decode_ptr = glyph_data;
 454:..\..\u8g2\csrc/u8g2_font.c ****   decode->decode_bit_pos = 0;
 455:..\..\u8g2\csrc/u8g2_font.c ****   
 456:..\..\u8g2\csrc/u8g2_font.c ****   /* 8 Nov 2015, this is already done in the glyph data search procedure */
 457:..\..\u8g2\csrc/u8g2_font.c ****   /*
 458:..\..\u8g2\csrc/u8g2_font.c ****   decode->decode_ptr += 1;
ARM GAS  C:\Users\gjl\AppData\Local\Temp\ccg70AS9.s 			page 12


 459:..\..\u8g2\csrc/u8g2_font.c ****   decode->decode_ptr += 1;
 460:..\..\u8g2\csrc/u8g2_font.c ****   */
 461:..\..\u8g2\csrc/u8g2_font.c ****   
 462:..\..\u8g2\csrc/u8g2_font.c ****   decode->glyph_width = u8g2_font_decode_get_unsigned_bits(decode, u8g2->font_info.bits_per_char_wi
 463:..\..\u8g2\csrc/u8g2_font.c ****   decode->glyph_height = u8g2_font_decode_get_unsigned_bits(decode,u8g2->font_info.bits_per_char_he
 464:..\..\u8g2\csrc/u8g2_font.c ****   
 465:..\..\u8g2\csrc/u8g2_font.c ****   decode->fg_color = u8g2->draw_color;
 466:..\..\u8g2\csrc/u8g2_font.c ****   decode->bg_color = (decode->fg_color == 0 ? 1 : 0);
 467:..\..\u8g2\csrc/u8g2_font.c **** }
 468:..\..\u8g2\csrc/u8g2_font.c **** 
 469:..\..\u8g2\csrc/u8g2_font.c **** 
 470:..\..\u8g2\csrc/u8g2_font.c **** /*
 471:..\..\u8g2\csrc/u8g2_font.c ****   Description:
 472:..\..\u8g2\csrc/u8g2_font.c ****     Decode and draw a glyph.
 473:..\..\u8g2\csrc/u8g2_font.c ****   Args:
 474:..\..\u8g2\csrc/u8g2_font.c ****     glyph_data: 					Pointer to the compressed glyph data of the font
 475:..\..\u8g2\csrc/u8g2_font.c ****     u8g2->font_decode.target_x		X position
 476:..\..\u8g2\csrc/u8g2_font.c ****     u8g2->font_decode.target_y		Y position
 477:..\..\u8g2\csrc/u8g2_font.c ****     u8g2->font_decode.is_transparent	Transparent mode
 478:..\..\u8g2\csrc/u8g2_font.c ****   Return:
 479:..\..\u8g2\csrc/u8g2_font.c ****     Width (delta x advance) of the glyph.
 480:..\..\u8g2\csrc/u8g2_font.c ****   Calls:
 481:..\..\u8g2\csrc/u8g2_font.c ****     u8g2_font_decode_len()
 482:..\..\u8g2\csrc/u8g2_font.c **** */
 483:..\..\u8g2\csrc/u8g2_font.c **** /* optimized */
 484:..\..\u8g2\csrc/u8g2_font.c **** int8_t u8g2_font_decode_glyph(u8g2_t *u8g2, const uint8_t *glyph_data)
 485:..\..\u8g2\csrc/u8g2_font.c **** {
 486:..\..\u8g2\csrc/u8g2_font.c ****   uint8_t a, b;
 487:..\..\u8g2\csrc/u8g2_font.c ****   int8_t x, y;
 488:..\..\u8g2\csrc/u8g2_font.c ****   int8_t d;
 489:..\..\u8g2\csrc/u8g2_font.c ****   int8_t h;
 490:..\..\u8g2\csrc/u8g2_font.c ****   u8g2_font_decode_t *decode = &(u8g2->font_decode);
 491:..\..\u8g2\csrc/u8g2_font.c ****     
 492:..\..\u8g2\csrc/u8g2_font.c ****   u8g2_font_setup_decode(u8g2, glyph_data);
 493:..\..\u8g2\csrc/u8g2_font.c ****   h = u8g2->font_decode.glyph_height;
 494:..\..\u8g2\csrc/u8g2_font.c ****   
 495:..\..\u8g2\csrc/u8g2_font.c ****   x = u8g2_font_decode_get_signed_bits(decode, u8g2->font_info.bits_per_char_x);
 496:..\..\u8g2\csrc/u8g2_font.c ****   y = u8g2_font_decode_get_signed_bits(decode, u8g2->font_info.bits_per_char_y);
 497:..\..\u8g2\csrc/u8g2_font.c ****   d = u8g2_font_decode_get_signed_bits(decode, u8g2->font_info.bits_per_delta_x);
 498:..\..\u8g2\csrc/u8g2_font.c ****   
 499:..\..\u8g2\csrc/u8g2_font.c ****   if ( decode->glyph_width > 0 )
 500:..\..\u8g2\csrc/u8g2_font.c ****   {
 501:..\..\u8g2\csrc/u8g2_font.c **** #ifdef U8G2_WITH_FONT_ROTATION
 502:..\..\u8g2\csrc/u8g2_font.c ****     decode->target_x = u8g2_add_vector_x(decode->target_x, x, -(h+y), decode->dir);
 503:..\..\u8g2\csrc/u8g2_font.c ****     decode->target_y = u8g2_add_vector_y(decode->target_y, x, -(h+y), decode->dir);
 504:..\..\u8g2\csrc/u8g2_font.c **** #else
 505:..\..\u8g2\csrc/u8g2_font.c ****     decode->target_x += x;
 506:..\..\u8g2\csrc/u8g2_font.c ****     decode->target_y -= h+y;
 507:..\..\u8g2\csrc/u8g2_font.c **** #endif
 508:..\..\u8g2\csrc/u8g2_font.c ****     //u8g2_add_vector(&(decode->target_x), &(decode->target_y), x, -(h+y), decode->dir);
 509:..\..\u8g2\csrc/u8g2_font.c **** 
 510:..\..\u8g2\csrc/u8g2_font.c **** #ifdef U8G2_WITH_INTERSECTION
 511:..\..\u8g2\csrc/u8g2_font.c ****     {
 512:..\..\u8g2\csrc/u8g2_font.c ****       u8g2_uint_t x0, x1, y0, y1;
 513:..\..\u8g2\csrc/u8g2_font.c ****       x0 = decode->target_x;
 514:..\..\u8g2\csrc/u8g2_font.c ****       y0 = decode->target_y;
 515:..\..\u8g2\csrc/u8g2_font.c ****       x1 = x0;
ARM GAS  C:\Users\gjl\AppData\Local\Temp\ccg70AS9.s 			page 13


 516:..\..\u8g2\csrc/u8g2_font.c ****       y1 = y0;
 517:..\..\u8g2\csrc/u8g2_font.c ****       
 518:..\..\u8g2\csrc/u8g2_font.c **** #ifdef U8G2_WITH_FONT_ROTATION
 519:..\..\u8g2\csrc/u8g2_font.c ****       switch(decode->dir)
 520:..\..\u8g2\csrc/u8g2_font.c ****       {
 521:..\..\u8g2\csrc/u8g2_font.c **** 	case 0:
 522:..\..\u8g2\csrc/u8g2_font.c **** 	    x1 += decode->glyph_width;
 523:..\..\u8g2\csrc/u8g2_font.c **** 	    y1 += h;
 524:..\..\u8g2\csrc/u8g2_font.c **** 	    break;
 525:..\..\u8g2\csrc/u8g2_font.c **** 	case 1:
 526:..\..\u8g2\csrc/u8g2_font.c **** 	    x0 -= h;
 527:..\..\u8g2\csrc/u8g2_font.c **** 	    x0++;	/* shift down, because of assymetric boundaries for the interseciton test */
 528:..\..\u8g2\csrc/u8g2_font.c **** 	    x1++;
 529:..\..\u8g2\csrc/u8g2_font.c **** 	    y1 += decode->glyph_width;
 530:..\..\u8g2\csrc/u8g2_font.c **** 	    break;
 531:..\..\u8g2\csrc/u8g2_font.c **** 	case 2:
 532:..\..\u8g2\csrc/u8g2_font.c **** 	    x0 -= decode->glyph_width;
 533:..\..\u8g2\csrc/u8g2_font.c **** 	    x0++;	/* shift down, because of assymetric boundaries for the interseciton test */
 534:..\..\u8g2\csrc/u8g2_font.c **** 	    x1++;
 535:..\..\u8g2\csrc/u8g2_font.c **** 	    y0 -= h;
 536:..\..\u8g2\csrc/u8g2_font.c **** 	    y0++;	/* shift down, because of assymetric boundaries for the interseciton test */
 537:..\..\u8g2\csrc/u8g2_font.c **** 	    y1++;
 538:..\..\u8g2\csrc/u8g2_font.c **** 	    break;	  
 539:..\..\u8g2\csrc/u8g2_font.c **** 	case 3:
 540:..\..\u8g2\csrc/u8g2_font.c **** 	    x1 += h;
 541:..\..\u8g2\csrc/u8g2_font.c **** 	    y0 -= decode->glyph_width;
 542:..\..\u8g2\csrc/u8g2_font.c **** 	    y0++;	/* shift down, because of assymetric boundaries for the interseciton test */
 543:..\..\u8g2\csrc/u8g2_font.c **** 	    y1++;
 544:..\..\u8g2\csrc/u8g2_font.c **** 	    break;	  
 545:..\..\u8g2\csrc/u8g2_font.c ****       }
 546:..\..\u8g2\csrc/u8g2_font.c **** #else /* U8G2_WITH_FONT_ROTATION */
 547:..\..\u8g2\csrc/u8g2_font.c ****       x1 += decode->glyph_width;
 548:..\..\u8g2\csrc/u8g2_font.c ****       y1 += h;      
 549:..\..\u8g2\csrc/u8g2_font.c **** #endif
 550:..\..\u8g2\csrc/u8g2_font.c ****       
 551:..\..\u8g2\csrc/u8g2_font.c ****       if ( u8g2_IsIntersection(u8g2, x0, y0, x1, y1) == 0 ) 
 552:..\..\u8g2\csrc/u8g2_font.c **** 	return d;
 553:..\..\u8g2\csrc/u8g2_font.c ****     }
 554:..\..\u8g2\csrc/u8g2_font.c **** #endif /* U8G2_WITH_INTERSECTION */
 555:..\..\u8g2\csrc/u8g2_font.c ****    
 556:..\..\u8g2\csrc/u8g2_font.c ****     /* reset local x/y position */
 557:..\..\u8g2\csrc/u8g2_font.c ****     decode->x = 0;
 558:..\..\u8g2\csrc/u8g2_font.c ****     decode->y = 0;
 559:..\..\u8g2\csrc/u8g2_font.c ****     
 560:..\..\u8g2\csrc/u8g2_font.c ****     /* decode glyph */
 561:..\..\u8g2\csrc/u8g2_font.c ****     for(;;)
 562:..\..\u8g2\csrc/u8g2_font.c ****     {
 563:..\..\u8g2\csrc/u8g2_font.c ****       a = u8g2_font_decode_get_unsigned_bits(decode, u8g2->font_info.bits_per_0);
 564:..\..\u8g2\csrc/u8g2_font.c ****       b = u8g2_font_decode_get_unsigned_bits(decode, u8g2->font_info.bits_per_1);
 565:..\..\u8g2\csrc/u8g2_font.c ****       do
 566:..\..\u8g2\csrc/u8g2_font.c ****       {
 567:..\..\u8g2\csrc/u8g2_font.c **** 	u8g2_font_decode_len(u8g2, a, 0);
 568:..\..\u8g2\csrc/u8g2_font.c **** 	u8g2_font_decode_len(u8g2, b, 1);
 569:..\..\u8g2\csrc/u8g2_font.c ****       } while( u8g2_font_decode_get_unsigned_bits(decode, 1) != 0 );
 570:..\..\u8g2\csrc/u8g2_font.c **** 
 571:..\..\u8g2\csrc/u8g2_font.c ****       if ( decode->y >= h )
 572:..\..\u8g2\csrc/u8g2_font.c **** 	break;
ARM GAS  C:\Users\gjl\AppData\Local\Temp\ccg70AS9.s 			page 14


 573:..\..\u8g2\csrc/u8g2_font.c ****     }
 574:..\..\u8g2\csrc/u8g2_font.c ****     
 575:..\..\u8g2\csrc/u8g2_font.c ****     /* restore the u8g2 draw color, because this is modified by the decode algo */
 576:..\..\u8g2\csrc/u8g2_font.c ****     u8g2->draw_color = decode->fg_color;
 577:..\..\u8g2\csrc/u8g2_font.c ****   }
 578:..\..\u8g2\csrc/u8g2_font.c ****   return d;
 579:..\..\u8g2\csrc/u8g2_font.c **** }
 580:..\..\u8g2\csrc/u8g2_font.c **** 
 581:..\..\u8g2\csrc/u8g2_font.c **** /*
 582:..\..\u8g2\csrc/u8g2_font.c ****   Description:
 583:..\..\u8g2\csrc/u8g2_font.c ****     Find the starting point of the glyph data.
 584:..\..\u8g2\csrc/u8g2_font.c ****   Args:
 585:..\..\u8g2\csrc/u8g2_font.c ****     encoding: Encoding (ASCII or Unicode) of the glyph
 586:..\..\u8g2\csrc/u8g2_font.c ****   Return:
 587:..\..\u8g2\csrc/u8g2_font.c ****     Address of the glyph data or NULL, if the encoding is not avialable in the font.
 588:..\..\u8g2\csrc/u8g2_font.c **** */
 589:..\..\u8g2\csrc/u8g2_font.c **** const uint8_t *u8g2_font_get_glyph_data(u8g2_t *u8g2, uint16_t encoding)
 590:..\..\u8g2\csrc/u8g2_font.c **** {
 591:..\..\u8g2\csrc/u8g2_font.c ****   const uint8_t *font = u8g2->font;
 592:..\..\u8g2\csrc/u8g2_font.c ****   font += U8G2_FONT_DATA_STRUCT_SIZE;
 593:..\..\u8g2\csrc/u8g2_font.c **** 
 594:..\..\u8g2\csrc/u8g2_font.c ****   
 595:..\..\u8g2\csrc/u8g2_font.c ****   if ( encoding <= 255 )
 596:..\..\u8g2\csrc/u8g2_font.c ****   {
 597:..\..\u8g2\csrc/u8g2_font.c ****     if ( encoding >= 'a' )
 598:..\..\u8g2\csrc/u8g2_font.c ****     {
 599:..\..\u8g2\csrc/u8g2_font.c ****       font += u8g2->font_info.start_pos_lower_a;
 600:..\..\u8g2\csrc/u8g2_font.c ****     }
 601:..\..\u8g2\csrc/u8g2_font.c ****     else if ( encoding >= 'A' )
 602:..\..\u8g2\csrc/u8g2_font.c ****     {
 603:..\..\u8g2\csrc/u8g2_font.c ****       font += u8g2->font_info.start_pos_upper_A;
 604:..\..\u8g2\csrc/u8g2_font.c ****     }
 605:..\..\u8g2\csrc/u8g2_font.c ****     
 606:..\..\u8g2\csrc/u8g2_font.c ****     for(;;)
 607:..\..\u8g2\csrc/u8g2_font.c ****     {
 608:..\..\u8g2\csrc/u8g2_font.c ****       if ( u8x8_pgm_read( font + 1 ) == 0 )
 609:..\..\u8g2\csrc/u8g2_font.c **** 	break;
 610:..\..\u8g2\csrc/u8g2_font.c ****       if ( u8x8_pgm_read( font ) == encoding )
 611:..\..\u8g2\csrc/u8g2_font.c ****       {
 612:..\..\u8g2\csrc/u8g2_font.c **** 	return font+2;	/* skip encoding and glyph size */
 613:..\..\u8g2\csrc/u8g2_font.c ****       }
 614:..\..\u8g2\csrc/u8g2_font.c ****       font += u8x8_pgm_read( font + 1 );
 615:..\..\u8g2\csrc/u8g2_font.c ****     }
 616:..\..\u8g2\csrc/u8g2_font.c ****   }
 617:..\..\u8g2\csrc/u8g2_font.c **** #ifdef U8G2_WITH_UNICODE
 618:..\..\u8g2\csrc/u8g2_font.c ****   else
 619:..\..\u8g2\csrc/u8g2_font.c ****   {
 620:..\..\u8g2\csrc/u8g2_font.c ****     uint16_t e;
 621:..\..\u8g2\csrc/u8g2_font.c ****     font += u8g2->font_info.start_pos_unicode;
 622:..\..\u8g2\csrc/u8g2_font.c ****     for(;;)
 623:..\..\u8g2\csrc/u8g2_font.c ****     {
 624:..\..\u8g2\csrc/u8g2_font.c ****       e = u8x8_pgm_read( font );
 625:..\..\u8g2\csrc/u8g2_font.c ****       e <<= 8;
 626:..\..\u8g2\csrc/u8g2_font.c ****       e |= u8x8_pgm_read( font + 1 );
 627:..\..\u8g2\csrc/u8g2_font.c ****   
 628:..\..\u8g2\csrc/u8g2_font.c ****       if ( e == 0 )
 629:..\..\u8g2\csrc/u8g2_font.c **** 	break;
ARM GAS  C:\Users\gjl\AppData\Local\Temp\ccg70AS9.s 			page 15


 630:..\..\u8g2\csrc/u8g2_font.c ****   
 631:..\..\u8g2\csrc/u8g2_font.c ****       if ( e == encoding )
 632:..\..\u8g2\csrc/u8g2_font.c ****       {
 633:..\..\u8g2\csrc/u8g2_font.c **** 	return font+3;	/* skip encoding and glyph size */
 634:..\..\u8g2\csrc/u8g2_font.c ****       }
 635:..\..\u8g2\csrc/u8g2_font.c ****       font += u8x8_pgm_read( font + 2 );
 636:..\..\u8g2\csrc/u8g2_font.c ****     }  
 637:..\..\u8g2\csrc/u8g2_font.c ****   }
 638:..\..\u8g2\csrc/u8g2_font.c **** #endif
 639:..\..\u8g2\csrc/u8g2_font.c ****   
 640:..\..\u8g2\csrc/u8g2_font.c ****   return NULL;
 641:..\..\u8g2\csrc/u8g2_font.c **** }
 642:..\..\u8g2\csrc/u8g2_font.c **** 
 643:..\..\u8g2\csrc/u8g2_font.c **** static u8g2_uint_t u8g2_font_draw_glyph(u8g2_t *u8g2, u8g2_uint_t x, u8g2_uint_t y, uint16_t encodi
 644:..\..\u8g2\csrc/u8g2_font.c **** {
 645:..\..\u8g2\csrc/u8g2_font.c ****   u8g2_uint_t dx = 0;
 646:..\..\u8g2\csrc/u8g2_font.c ****   u8g2->font_decode.target_x = x;
 647:..\..\u8g2\csrc/u8g2_font.c ****   u8g2->font_decode.target_y = y;
 648:..\..\u8g2\csrc/u8g2_font.c ****   //u8g2->font_decode.is_transparent = is_transparent; this is already set
 649:..\..\u8g2\csrc/u8g2_font.c ****   //u8g2->font_decode.dir = dir;
 650:..\..\u8g2\csrc/u8g2_font.c ****   const uint8_t *glyph_data = u8g2_font_get_glyph_data(u8g2, encoding);
 651:..\..\u8g2\csrc/u8g2_font.c ****   if ( glyph_data != NULL )
 652:..\..\u8g2\csrc/u8g2_font.c ****   {
 653:..\..\u8g2\csrc/u8g2_font.c ****     dx = u8g2_font_decode_glyph(u8g2, glyph_data);
 654:..\..\u8g2\csrc/u8g2_font.c ****   }
 655:..\..\u8g2\csrc/u8g2_font.c ****   return dx;
 656:..\..\u8g2\csrc/u8g2_font.c **** }
 657:..\..\u8g2\csrc/u8g2_font.c **** 
 658:..\..\u8g2\csrc/u8g2_font.c **** 
 659:..\..\u8g2\csrc/u8g2_font.c **** 
 660:..\..\u8g2\csrc/u8g2_font.c **** uint8_t u8g2_IsGlyph(u8g2_t *u8g2, uint16_t requested_encoding)
 661:..\..\u8g2\csrc/u8g2_font.c **** {
 662:..\..\u8g2\csrc/u8g2_font.c ****   /* updated to new code */
 663:..\..\u8g2\csrc/u8g2_font.c ****   if ( u8g2_font_get_glyph_data(u8g2, requested_encoding) != NULL )
 664:..\..\u8g2\csrc/u8g2_font.c ****     return 1;
 665:..\..\u8g2\csrc/u8g2_font.c ****   return 0;
 666:..\..\u8g2\csrc/u8g2_font.c **** }
 667:..\..\u8g2\csrc/u8g2_font.c **** 
 668:..\..\u8g2\csrc/u8g2_font.c **** /* side effect: updates u8g2->font_decode and u8g2->glyph_x_offset */
 669:..\..\u8g2\csrc/u8g2_font.c **** int8_t u8g2_GetGlyphWidth(u8g2_t *u8g2, uint16_t requested_encoding)
 670:..\..\u8g2\csrc/u8g2_font.c **** {
 671:..\..\u8g2\csrc/u8g2_font.c ****   const uint8_t *glyph_data = u8g2_font_get_glyph_data(u8g2, requested_encoding);
 672:..\..\u8g2\csrc/u8g2_font.c ****   if ( glyph_data == NULL )
 673:..\..\u8g2\csrc/u8g2_font.c ****     return 0; 
 674:..\..\u8g2\csrc/u8g2_font.c ****   
 675:..\..\u8g2\csrc/u8g2_font.c ****   u8g2_font_setup_decode(u8g2, glyph_data);
 676:..\..\u8g2\csrc/u8g2_font.c ****   u8g2->glyph_x_offset = u8g2_font_decode_get_signed_bits(&(u8g2->font_decode), u8g2->font_info.bit
 677:..\..\u8g2\csrc/u8g2_font.c ****   u8g2_font_decode_get_signed_bits(&(u8g2->font_decode), u8g2->font_info.bits_per_char_y);
 678:..\..\u8g2\csrc/u8g2_font.c ****   
 679:..\..\u8g2\csrc/u8g2_font.c ****   /* glyph width is here: u8g2->font_decode.glyph_width */
 680:..\..\u8g2\csrc/u8g2_font.c **** 
 681:..\..\u8g2\csrc/u8g2_font.c ****   return u8g2_font_decode_get_signed_bits(&(u8g2->font_decode), u8g2->font_info.bits_per_delta_x);
 682:..\..\u8g2\csrc/u8g2_font.c **** }
 683:..\..\u8g2\csrc/u8g2_font.c **** 
 684:..\..\u8g2\csrc/u8g2_font.c **** 
 685:..\..\u8g2\csrc/u8g2_font.c **** /*
 686:..\..\u8g2\csrc/u8g2_font.c ****   set one of:
ARM GAS  C:\Users\gjl\AppData\Local\Temp\ccg70AS9.s 			page 16


 687:..\..\u8g2\csrc/u8g2_font.c ****     U8G2_FONT_MODE_TRANSPARENT
 688:..\..\u8g2\csrc/u8g2_font.c ****     U8G2_FONT_MODE_SOLID
 689:..\..\u8g2\csrc/u8g2_font.c ****     U8G2_FONT_MODE_NONE
 690:..\..\u8g2\csrc/u8g2_font.c ****   This has been changed for the new font procedures  
 691:..\..\u8g2\csrc/u8g2_font.c **** */
 692:..\..\u8g2\csrc/u8g2_font.c **** void u8g2_SetFontMode(u8g2_t *u8g2, uint8_t is_transparent)
 693:..\..\u8g2\csrc/u8g2_font.c **** {
 694:..\..\u8g2\csrc/u8g2_font.c ****   u8g2->font_decode.is_transparent = is_transparent;		// new font procedures
 695:..\..\u8g2\csrc/u8g2_font.c **** }
 696:..\..\u8g2\csrc/u8g2_font.c **** 
 697:..\..\u8g2\csrc/u8g2_font.c **** u8g2_uint_t u8g2_DrawGlyph(u8g2_t *u8g2, u8g2_uint_t x, u8g2_uint_t y, uint16_t encoding)
 698:..\..\u8g2\csrc/u8g2_font.c **** {
 699:..\..\u8g2\csrc/u8g2_font.c **** #ifdef U8G2_WITH_FONT_ROTATION
 700:..\..\u8g2\csrc/u8g2_font.c ****   switch(u8g2->font_decode.dir)
 701:..\..\u8g2\csrc/u8g2_font.c ****   {
 702:..\..\u8g2\csrc/u8g2_font.c ****     case 0:
 703:..\..\u8g2\csrc/u8g2_font.c ****       y += u8g2->font_calc_vref(u8g2);
 704:..\..\u8g2\csrc/u8g2_font.c ****       break;
 705:..\..\u8g2\csrc/u8g2_font.c ****     case 1:
 706:..\..\u8g2\csrc/u8g2_font.c ****       x -= u8g2->font_calc_vref(u8g2);
 707:..\..\u8g2\csrc/u8g2_font.c ****       break;
 708:..\..\u8g2\csrc/u8g2_font.c ****     case 2:
 709:..\..\u8g2\csrc/u8g2_font.c ****       y -= u8g2->font_calc_vref(u8g2);
 710:..\..\u8g2\csrc/u8g2_font.c ****       break;
 711:..\..\u8g2\csrc/u8g2_font.c ****     case 3:
 712:..\..\u8g2\csrc/u8g2_font.c ****       x += u8g2->font_calc_vref(u8g2);
 713:..\..\u8g2\csrc/u8g2_font.c ****       break;
 714:..\..\u8g2\csrc/u8g2_font.c ****   }
 715:..\..\u8g2\csrc/u8g2_font.c **** #else
 716:..\..\u8g2\csrc/u8g2_font.c ****   y += u8g2->font_calc_vref(u8g2);
 717:..\..\u8g2\csrc/u8g2_font.c **** #endif
 718:..\..\u8g2\csrc/u8g2_font.c ****   return u8g2_font_draw_glyph(u8g2, x, y, encoding);
 719:..\..\u8g2\csrc/u8g2_font.c **** }
 720:..\..\u8g2\csrc/u8g2_font.c **** 
 721:..\..\u8g2\csrc/u8g2_font.c **** static u8g2_uint_t u8g2_draw_string(u8g2_t *u8g2, u8g2_uint_t x, u8g2_uint_t y, const char *str) U8
 722:..\..\u8g2\csrc/u8g2_font.c **** static u8g2_uint_t u8g2_draw_string(u8g2_t *u8g2, u8g2_uint_t x, u8g2_uint_t y, const char *str)
 723:..\..\u8g2\csrc/u8g2_font.c **** {
 724:..\..\u8g2\csrc/u8g2_font.c ****   uint16_t e;
 725:..\..\u8g2\csrc/u8g2_font.c ****   u8g2_uint_t delta, sum;
 726:..\..\u8g2\csrc/u8g2_font.c ****   u8x8_utf8_init(u8g2_GetU8x8(u8g2));
 727:..\..\u8g2\csrc/u8g2_font.c ****   sum = 0;
 728:..\..\u8g2\csrc/u8g2_font.c ****   for(;;)
 729:..\..\u8g2\csrc/u8g2_font.c ****   {
 730:..\..\u8g2\csrc/u8g2_font.c ****     e = u8g2->u8x8.next_cb(u8g2_GetU8x8(u8g2), (uint8_t)*str);
 731:..\..\u8g2\csrc/u8g2_font.c ****     if ( e == 0x0ffff )
 732:..\..\u8g2\csrc/u8g2_font.c ****       break;
 733:..\..\u8g2\csrc/u8g2_font.c ****     str++;
 734:..\..\u8g2\csrc/u8g2_font.c ****     if ( e != 0x0fffe )
 735:..\..\u8g2\csrc/u8g2_font.c ****     {
 736:..\..\u8g2\csrc/u8g2_font.c ****       delta = u8g2_DrawGlyph(u8g2, x, y, e);
 737:..\..\u8g2\csrc/u8g2_font.c ****     
 738:..\..\u8g2\csrc/u8g2_font.c **** #ifdef U8G2_WITH_FONT_ROTATION
 739:..\..\u8g2\csrc/u8g2_font.c ****       switch(u8g2->font_decode.dir)
 740:..\..\u8g2\csrc/u8g2_font.c ****       {
 741:..\..\u8g2\csrc/u8g2_font.c **** 	case 0:
 742:..\..\u8g2\csrc/u8g2_font.c **** 	  x += delta;
 743:..\..\u8g2\csrc/u8g2_font.c **** 	  break;
ARM GAS  C:\Users\gjl\AppData\Local\Temp\ccg70AS9.s 			page 17


 744:..\..\u8g2\csrc/u8g2_font.c **** 	case 1:
 745:..\..\u8g2\csrc/u8g2_font.c **** 	  y += delta;
 746:..\..\u8g2\csrc/u8g2_font.c **** 	  break;
 747:..\..\u8g2\csrc/u8g2_font.c **** 	case 2:
 748:..\..\u8g2\csrc/u8g2_font.c **** 	  x -= delta;
 749:..\..\u8g2\csrc/u8g2_font.c **** 	  break;
 750:..\..\u8g2\csrc/u8g2_font.c **** 	case 3:
 751:..\..\u8g2\csrc/u8g2_font.c **** 	  y -= delta;
 752:..\..\u8g2\csrc/u8g2_font.c **** 	  break;
 753:..\..\u8g2\csrc/u8g2_font.c ****       }
 754:..\..\u8g2\csrc/u8g2_font.c **** #else
 755:..\..\u8g2\csrc/u8g2_font.c ****       x += delta;
 756:..\..\u8g2\csrc/u8g2_font.c **** #endif
 757:..\..\u8g2\csrc/u8g2_font.c **** 
 758:..\..\u8g2\csrc/u8g2_font.c ****       sum += delta;    
 759:..\..\u8g2\csrc/u8g2_font.c ****     }
 760:..\..\u8g2\csrc/u8g2_font.c ****   }
 761:..\..\u8g2\csrc/u8g2_font.c ****   return sum;
 762:..\..\u8g2\csrc/u8g2_font.c **** }
 763:..\..\u8g2\csrc/u8g2_font.c **** 
 764:..\..\u8g2\csrc/u8g2_font.c **** u8g2_uint_t u8g2_DrawStr(u8g2_t *u8g2, u8g2_uint_t x, u8g2_uint_t y, const char *str)
 765:..\..\u8g2\csrc/u8g2_font.c **** {
 766:..\..\u8g2\csrc/u8g2_font.c ****   u8g2->u8x8.next_cb = u8x8_ascii_next;
 767:..\..\u8g2\csrc/u8g2_font.c ****   return u8g2_draw_string(u8g2, x, y, str);
 768:..\..\u8g2\csrc/u8g2_font.c **** }
 769:..\..\u8g2\csrc/u8g2_font.c **** 
 770:..\..\u8g2\csrc/u8g2_font.c **** /*
 771:..\..\u8g2\csrc/u8g2_font.c **** source: https://en.wikipedia.org/wiki/UTF-8
 772:..\..\u8g2\csrc/u8g2_font.c **** Bits	from 		to			bytes	Byte 1 		Byte 2 		Byte 3 		Byte 4 		Byte 5 		Byte 6
 773:..\..\u8g2\csrc/u8g2_font.c ****   7 	U+0000 		U+007F 		1 		0xxxxxxx
 774:..\..\u8g2\csrc/u8g2_font.c **** 11 	U+0080 		U+07FF 		2 		110xxxxx 	10xxxxxx
 775:..\..\u8g2\csrc/u8g2_font.c **** 16 	U+0800 		U+FFFF 		3 		1110xxxx 	10xxxxxx 	10xxxxxx
 776:..\..\u8g2\csrc/u8g2_font.c **** 21 	U+10000 	U+1FFFFF 	4 		11110xxx 	10xxxxxx 	10xxxxxx 	10xxxxxx
 777:..\..\u8g2\csrc/u8g2_font.c **** 26 	U+200000 	U+3FFFFFF 	5 		111110xx 	10xxxxxx 	10xxxxxx 	10xxxxxx 	10xxxxxx
 778:..\..\u8g2\csrc/u8g2_font.c **** 31 	U+4000000 	U+7FFFFFFF 	6 		1111110x 	10xxxxxx 	10xxxxxx 	10xxxxxx 	10xxxxxx 	10xxxxxx  
 779:..\..\u8g2\csrc/u8g2_font.c **** */
 780:..\..\u8g2\csrc/u8g2_font.c **** u8g2_uint_t u8g2_DrawUTF8(u8g2_t *u8g2, u8g2_uint_t x, u8g2_uint_t y, const char *str)
 781:..\..\u8g2\csrc/u8g2_font.c **** {
 782:..\..\u8g2\csrc/u8g2_font.c ****   u8g2->u8x8.next_cb = u8x8_utf8_next;
 783:..\..\u8g2\csrc/u8g2_font.c ****   return u8g2_draw_string(u8g2, x, y, str);
 784:..\..\u8g2\csrc/u8g2_font.c **** }
 785:..\..\u8g2\csrc/u8g2_font.c **** 
 786:..\..\u8g2\csrc/u8g2_font.c **** 
 787:..\..\u8g2\csrc/u8g2_font.c **** 
 788:..\..\u8g2\csrc/u8g2_font.c **** u8g2_uint_t u8g2_DrawExtendedUTF8(u8g2_t *u8g2, u8g2_uint_t x, u8g2_uint_t y, uint8_t to_left, u8g2
 789:..\..\u8g2\csrc/u8g2_font.c **** {
 790:..\..\u8g2\csrc/u8g2_font.c ****   u8g2->u8x8.next_cb = u8x8_utf8_next;
 791:..\..\u8g2\csrc/u8g2_font.c ****   uint16_t e_prev = 0x0ffff;
 792:..\..\u8g2\csrc/u8g2_font.c ****   uint16_t e;
 793:..\..\u8g2\csrc/u8g2_font.c ****   u8g2_uint_t delta, sum, k;
 794:..\..\u8g2\csrc/u8g2_font.c ****   u8x8_utf8_init(u8g2_GetU8x8(u8g2));
 795:..\..\u8g2\csrc/u8g2_font.c ****   sum = 0;
 796:..\..\u8g2\csrc/u8g2_font.c ****   for(;;)
 797:..\..\u8g2\csrc/u8g2_font.c ****   {
 798:..\..\u8g2\csrc/u8g2_font.c ****     e = u8g2->u8x8.next_cb(u8g2_GetU8x8(u8g2), (uint8_t)*str);
 799:..\..\u8g2\csrc/u8g2_font.c ****     if ( e == 0x0ffff )
 800:..\..\u8g2\csrc/u8g2_font.c ****       break;
ARM GAS  C:\Users\gjl\AppData\Local\Temp\ccg70AS9.s 			page 18


 801:..\..\u8g2\csrc/u8g2_font.c ****     str++;
 802:..\..\u8g2\csrc/u8g2_font.c ****     if ( e != 0x0fffe )
 803:..\..\u8g2\csrc/u8g2_font.c ****     {
 804:..\..\u8g2\csrc/u8g2_font.c ****       delta = u8g2_GetGlyphWidth(u8g2, e);
 805:..\..\u8g2\csrc/u8g2_font.c **** 	    
 806:..\..\u8g2\csrc/u8g2_font.c ****       if ( to_left )
 807:..\..\u8g2\csrc/u8g2_font.c ****       {
 808:..\..\u8g2\csrc/u8g2_font.c ****         k = u8g2_GetKerning(u8g2, kerning, e, e_prev);
 809:..\..\u8g2\csrc/u8g2_font.c **** 	delta -= k;
 810:..\..\u8g2\csrc/u8g2_font.c **** 	x -= delta;
 811:..\..\u8g2\csrc/u8g2_font.c ****       }
 812:..\..\u8g2\csrc/u8g2_font.c ****       else
 813:..\..\u8g2\csrc/u8g2_font.c ****       {
 814:..\..\u8g2\csrc/u8g2_font.c ****         k = u8g2_GetKerning(u8g2, kerning, e_prev, e);
 815:..\..\u8g2\csrc/u8g2_font.c **** 	delta -= k;
 816:..\..\u8g2\csrc/u8g2_font.c ****       }
 817:..\..\u8g2\csrc/u8g2_font.c ****       e_prev = e;
 818:..\..\u8g2\csrc/u8g2_font.c **** 
 819:..\..\u8g2\csrc/u8g2_font.c ****       u8g2_DrawGlyph(u8g2, x, y, e);
 820:..\..\u8g2\csrc/u8g2_font.c ****       if ( to_left )
 821:..\..\u8g2\csrc/u8g2_font.c ****       {
 822:..\..\u8g2\csrc/u8g2_font.c ****       }
 823:..\..\u8g2\csrc/u8g2_font.c ****       else
 824:..\..\u8g2\csrc/u8g2_font.c ****       {
 825:..\..\u8g2\csrc/u8g2_font.c **** 	x += delta;
 826:..\..\u8g2\csrc/u8g2_font.c **** 	x -= k;
 827:..\..\u8g2\csrc/u8g2_font.c ****       }
 828:..\..\u8g2\csrc/u8g2_font.c ****       
 829:..\..\u8g2\csrc/u8g2_font.c ****       sum += delta;    
 830:..\..\u8g2\csrc/u8g2_font.c ****     }
 831:..\..\u8g2\csrc/u8g2_font.c ****   }
 832:..\..\u8g2\csrc/u8g2_font.c ****   return sum;
 833:..\..\u8g2\csrc/u8g2_font.c **** }
 834:..\..\u8g2\csrc/u8g2_font.c **** 
 835:..\..\u8g2\csrc/u8g2_font.c **** u8g2_uint_t u8g2_DrawExtUTF8(u8g2_t *u8g2, u8g2_uint_t x, u8g2_uint_t y, uint8_t to_left, const uin
 836:..\..\u8g2\csrc/u8g2_font.c **** {
 837:..\..\u8g2\csrc/u8g2_font.c ****   u8g2->u8x8.next_cb = u8x8_utf8_next;
 838:..\..\u8g2\csrc/u8g2_font.c ****   uint16_t e_prev = 0x0ffff;
 839:..\..\u8g2\csrc/u8g2_font.c ****   uint16_t e;
 840:..\..\u8g2\csrc/u8g2_font.c ****   u8g2_uint_t delta, sum, k;
 841:..\..\u8g2\csrc/u8g2_font.c ****   u8x8_utf8_init(u8g2_GetU8x8(u8g2));
 842:..\..\u8g2\csrc/u8g2_font.c ****   sum = 0;
 843:..\..\u8g2\csrc/u8g2_font.c ****   for(;;)
 844:..\..\u8g2\csrc/u8g2_font.c ****   {
 845:..\..\u8g2\csrc/u8g2_font.c ****     e = u8g2->u8x8.next_cb(u8g2_GetU8x8(u8g2), (uint8_t)*str);
 846:..\..\u8g2\csrc/u8g2_font.c ****     if ( e == 0x0ffff )
 847:..\..\u8g2\csrc/u8g2_font.c ****       break;
 848:..\..\u8g2\csrc/u8g2_font.c ****     str++;
 849:..\..\u8g2\csrc/u8g2_font.c ****     if ( e != 0x0fffe )
 850:..\..\u8g2\csrc/u8g2_font.c ****     {
 851:..\..\u8g2\csrc/u8g2_font.c ****       delta = u8g2_GetGlyphWidth(u8g2, e);
 852:..\..\u8g2\csrc/u8g2_font.c **** 	    
 853:..\..\u8g2\csrc/u8g2_font.c ****       if ( to_left )
 854:..\..\u8g2\csrc/u8g2_font.c ****       {
 855:..\..\u8g2\csrc/u8g2_font.c ****         k = u8g2_GetKerningByTable(u8g2, kerning_table, e, e_prev);
 856:..\..\u8g2\csrc/u8g2_font.c **** 	delta -= k;
 857:..\..\u8g2\csrc/u8g2_font.c **** 	x -= delta;
ARM GAS  C:\Users\gjl\AppData\Local\Temp\ccg70AS9.s 			page 19


 858:..\..\u8g2\csrc/u8g2_font.c ****       }
 859:..\..\u8g2\csrc/u8g2_font.c ****       else
 860:..\..\u8g2\csrc/u8g2_font.c ****       {
 861:..\..\u8g2\csrc/u8g2_font.c ****         k = u8g2_GetKerningByTable(u8g2, kerning_table, e_prev, e);
 862:..\..\u8g2\csrc/u8g2_font.c **** 	delta -= k;
 863:..\..\u8g2\csrc/u8g2_font.c ****       }
 864:..\..\u8g2\csrc/u8g2_font.c ****       e_prev = e;
 865:..\..\u8g2\csrc/u8g2_font.c **** 
 866:..\..\u8g2\csrc/u8g2_font.c ****       u8g2_DrawGlyph(u8g2, x, y, e);
 867:..\..\u8g2\csrc/u8g2_font.c ****       if ( to_left )
 868:..\..\u8g2\csrc/u8g2_font.c ****       {
 869:..\..\u8g2\csrc/u8g2_font.c ****       }
 870:..\..\u8g2\csrc/u8g2_font.c ****       else
 871:..\..\u8g2\csrc/u8g2_font.c ****       {
 872:..\..\u8g2\csrc/u8g2_font.c **** 	x += delta;
 873:..\..\u8g2\csrc/u8g2_font.c **** 	x -= k;
 874:..\..\u8g2\csrc/u8g2_font.c ****       }
 875:..\..\u8g2\csrc/u8g2_font.c ****       
 876:..\..\u8g2\csrc/u8g2_font.c ****       sum += delta;    
 877:..\..\u8g2\csrc/u8g2_font.c ****     }
 878:..\..\u8g2\csrc/u8g2_font.c ****   }
 879:..\..\u8g2\csrc/u8g2_font.c ****   return sum;
 880:..\..\u8g2\csrc/u8g2_font.c **** }
 881:..\..\u8g2\csrc/u8g2_font.c **** 
 882:..\..\u8g2\csrc/u8g2_font.c **** 
 883:..\..\u8g2\csrc/u8g2_font.c **** 
 884:..\..\u8g2\csrc/u8g2_font.c **** /*===============================================*/
 885:..\..\u8g2\csrc/u8g2_font.c **** 
 886:..\..\u8g2\csrc/u8g2_font.c **** /* set ascent/descent for reference point calculation */
 887:..\..\u8g2\csrc/u8g2_font.c **** 
 888:..\..\u8g2\csrc/u8g2_font.c **** void u8g2_UpdateRefHeight(u8g2_t *u8g2)
 889:..\..\u8g2\csrc/u8g2_font.c **** {
 890:..\..\u8g2\csrc/u8g2_font.c ****   if ( u8g2->font == NULL )
 891:..\..\u8g2\csrc/u8g2_font.c ****     return;
 892:..\..\u8g2\csrc/u8g2_font.c ****   u8g2->font_ref_ascent = u8g2->font_info.ascent_A;
 893:..\..\u8g2\csrc/u8g2_font.c ****   u8g2->font_ref_descent = u8g2->font_info.descent_g;
 894:..\..\u8g2\csrc/u8g2_font.c ****   if ( u8g2->font_height_mode == U8G2_FONT_HEIGHT_MODE_TEXT )
 895:..\..\u8g2\csrc/u8g2_font.c ****   {
 896:..\..\u8g2\csrc/u8g2_font.c ****   }
 897:..\..\u8g2\csrc/u8g2_font.c ****   else if ( u8g2->font_height_mode == U8G2_FONT_HEIGHT_MODE_XTEXT )
 898:..\..\u8g2\csrc/u8g2_font.c ****   {
 899:..\..\u8g2\csrc/u8g2_font.c ****     if ( u8g2->font_ref_ascent < u8g2->font_info.ascent_para )
 900:..\..\u8g2\csrc/u8g2_font.c ****       u8g2->font_ref_ascent = u8g2->font_info.ascent_para;
 901:..\..\u8g2\csrc/u8g2_font.c ****     if ( u8g2->font_ref_descent > u8g2->font_info.descent_para )
 902:..\..\u8g2\csrc/u8g2_font.c ****       u8g2->font_ref_descent = u8g2->font_info.descent_para;
 903:..\..\u8g2\csrc/u8g2_font.c ****   }
 904:..\..\u8g2\csrc/u8g2_font.c ****   else
 905:..\..\u8g2\csrc/u8g2_font.c ****   {
 906:..\..\u8g2\csrc/u8g2_font.c ****     if ( u8g2->font_ref_ascent < u8g2->font_info.max_char_height+u8g2->font_info.y_offset )
 907:..\..\u8g2\csrc/u8g2_font.c ****       u8g2->font_ref_ascent = u8g2->font_info.max_char_height+u8g2->font_info.y_offset;
 908:..\..\u8g2\csrc/u8g2_font.c ****     if ( u8g2->font_ref_descent > u8g2->font_info.y_offset )
 909:..\..\u8g2\csrc/u8g2_font.c ****       u8g2->font_ref_descent = u8g2->font_info.y_offset;
 910:..\..\u8g2\csrc/u8g2_font.c ****   }  
 911:..\..\u8g2\csrc/u8g2_font.c **** }
 912:..\..\u8g2\csrc/u8g2_font.c **** 
 913:..\..\u8g2\csrc/u8g2_font.c **** void u8g2_SetFontRefHeightText(u8g2_t *u8g2)
 914:..\..\u8g2\csrc/u8g2_font.c **** {
ARM GAS  C:\Users\gjl\AppData\Local\Temp\ccg70AS9.s 			page 20


 915:..\..\u8g2\csrc/u8g2_font.c ****   u8g2->font_height_mode = U8G2_FONT_HEIGHT_MODE_TEXT;
 916:..\..\u8g2\csrc/u8g2_font.c ****   u8g2_UpdateRefHeight(u8g2);
 917:..\..\u8g2\csrc/u8g2_font.c **** }
 918:..\..\u8g2\csrc/u8g2_font.c **** 
 919:..\..\u8g2\csrc/u8g2_font.c **** void u8g2_SetFontRefHeightExtendedText(u8g2_t *u8g2)
 920:..\..\u8g2\csrc/u8g2_font.c **** {
 921:..\..\u8g2\csrc/u8g2_font.c ****   u8g2->font_height_mode = U8G2_FONT_HEIGHT_MODE_XTEXT;
 922:..\..\u8g2\csrc/u8g2_font.c ****   u8g2_UpdateRefHeight(u8g2);
 923:..\..\u8g2\csrc/u8g2_font.c **** }
 924:..\..\u8g2\csrc/u8g2_font.c **** 
 925:..\..\u8g2\csrc/u8g2_font.c **** void u8g2_SetFontRefHeightAll(u8g2_t *u8g2)
 926:..\..\u8g2\csrc/u8g2_font.c **** {
 927:..\..\u8g2\csrc/u8g2_font.c ****   u8g2->font_height_mode = U8G2_FONT_HEIGHT_MODE_ALL;
 928:..\..\u8g2\csrc/u8g2_font.c ****   u8g2_UpdateRefHeight(u8g2);
 929:..\..\u8g2\csrc/u8g2_font.c **** }
 930:..\..\u8g2\csrc/u8g2_font.c **** 
 931:..\..\u8g2\csrc/u8g2_font.c **** /*===============================================*/
 932:..\..\u8g2\csrc/u8g2_font.c **** /* callback procedures to correct the y position */
 933:..\..\u8g2\csrc/u8g2_font.c **** 
 934:..\..\u8g2\csrc/u8g2_font.c **** u8g2_uint_t u8g2_font_calc_vref_font(U8X8_UNUSED u8g2_t *u8g2)
 935:..\..\u8g2\csrc/u8g2_font.c **** {
 161              		.loc 1 935 0
 162              		.cfi_startproc
 163              		@ args = 0, pretend = 0, frame = 0
 164              		@ frame_needed = 0, uses_anonymous_args = 0
 165              		@ link register save eliminated.
 166              	.LVL15:
 936:..\..\u8g2\csrc/u8g2_font.c ****   return 0;
 937:..\..\u8g2\csrc/u8g2_font.c **** }
 167              		.loc 1 937 0
 168 0000 0020     		movs	r0, #0
 169              	.LVL16:
 170              		@ sp needed
 171 0002 7047     		bx	lr
 172              		.cfi_endproc
 173              	.LFE31:
 174              		.size	u8g2_font_calc_vref_font, .-u8g2_font_calc_vref_font
 175              		.section	.text.u8g2_font_calc_vref_bottom,"ax",%progbits
 176              		.align	1
 177              		.global	u8g2_font_calc_vref_bottom
 178              		.code	16
 179              		.thumb_func
 180              		.type	u8g2_font_calc_vref_bottom, %function
 181              	u8g2_font_calc_vref_bottom:
 182              	.LFB33:
 938:..\..\u8g2\csrc/u8g2_font.c **** 
 939:..\..\u8g2\csrc/u8g2_font.c **** void u8g2_SetFontPosBaseline(u8g2_t *u8g2)
 940:..\..\u8g2\csrc/u8g2_font.c **** {
 941:..\..\u8g2\csrc/u8g2_font.c ****   u8g2->font_calc_vref = u8g2_font_calc_vref_font;
 942:..\..\u8g2\csrc/u8g2_font.c **** }
 943:..\..\u8g2\csrc/u8g2_font.c **** 
 944:..\..\u8g2\csrc/u8g2_font.c **** 
 945:..\..\u8g2\csrc/u8g2_font.c **** u8g2_uint_t u8g2_font_calc_vref_bottom(u8g2_t *u8g2)
 946:..\..\u8g2\csrc/u8g2_font.c **** {
 183              		.loc 1 946 0
 184              		.cfi_startproc
 185              		@ args = 0, pretend = 0, frame = 0
ARM GAS  C:\Users\gjl\AppData\Local\Temp\ccg70AS9.s 			page 21


 186              		@ frame_needed = 0, uses_anonymous_args = 0
 187              		@ link register save eliminated.
 188              	.LVL17:
 947:..\..\u8g2\csrc/u8g2_font.c ****   return (u8g2_uint_t)(u8g2->font_ref_descent);
 189              		.loc 1 947 0
 190 0000 7A30     		adds	r0, r0, #122
 191              	.LVL18:
 192 0002 0078     		ldrb	r0, [r0]
 193              	.LVL19:
 948:..\..\u8g2\csrc/u8g2_font.c **** }
 194              		.loc 1 948 0
 195              		@ sp needed
 196 0004 7047     		bx	lr
 197              		.cfi_endproc
 198              	.LFE33:
 199              		.size	u8g2_font_calc_vref_bottom, .-u8g2_font_calc_vref_bottom
 200              		.section	.text.u8g2_font_calc_vref_top,"ax",%progbits
 201              		.align	1
 202              		.global	u8g2_font_calc_vref_top
 203              		.code	16
 204              		.thumb_func
 205              		.type	u8g2_font_calc_vref_top, %function
 206              	u8g2_font_calc_vref_top:
 207              	.LFB35:
 949:..\..\u8g2\csrc/u8g2_font.c **** 
 950:..\..\u8g2\csrc/u8g2_font.c **** void u8g2_SetFontPosBottom(u8g2_t *u8g2)
 951:..\..\u8g2\csrc/u8g2_font.c **** {
 952:..\..\u8g2\csrc/u8g2_font.c ****   u8g2->font_calc_vref = u8g2_font_calc_vref_bottom;
 953:..\..\u8g2\csrc/u8g2_font.c **** }
 954:..\..\u8g2\csrc/u8g2_font.c **** 
 955:..\..\u8g2\csrc/u8g2_font.c **** u8g2_uint_t u8g2_font_calc_vref_top(u8g2_t *u8g2)
 956:..\..\u8g2\csrc/u8g2_font.c **** {
 208              		.loc 1 956 0
 209              		.cfi_startproc
 210              		@ args = 0, pretend = 0, frame = 0
 211              		@ frame_needed = 0, uses_anonymous_args = 0
 212              		@ link register save eliminated.
 213              	.LVL20:
 957:..\..\u8g2\csrc/u8g2_font.c ****   u8g2_uint_t tmp;
 958:..\..\u8g2\csrc/u8g2_font.c ****   /* reference pos is one pixel above the upper edge of the reference glyph */
 959:..\..\u8g2\csrc/u8g2_font.c ****   tmp = (u8g2_uint_t)(u8g2->font_ref_ascent);
 214              		.loc 1 959 0
 215 0000 7930     		adds	r0, r0, #121
 216              	.LVL21:
 217 0002 0078     		ldrb	r0, [r0]
 218              	.LVL22:
 960:..\..\u8g2\csrc/u8g2_font.c ****   tmp++;
 961:..\..\u8g2\csrc/u8g2_font.c ****   return tmp;
 962:..\..\u8g2\csrc/u8g2_font.c **** }
 219              		.loc 1 962 0
 220              		@ sp needed
 961:..\..\u8g2\csrc/u8g2_font.c **** }
 221              		.loc 1 961 0
 222 0004 0130     		adds	r0, r0, #1
 223              	.LVL23:
 224 0006 C0B2     		uxtb	r0, r0
 225              	.LVL24:
ARM GAS  C:\Users\gjl\AppData\Local\Temp\ccg70AS9.s 			page 22


 226              		.loc 1 962 0
 227 0008 7047     		bx	lr
 228              		.cfi_endproc
 229              	.LFE35:
 230              		.size	u8g2_font_calc_vref_top, .-u8g2_font_calc_vref_top
 231              		.section	.text.u8g2_font_calc_vref_center,"ax",%progbits
 232              		.align	1
 233              		.global	u8g2_font_calc_vref_center
 234              		.code	16
 235              		.thumb_func
 236              		.type	u8g2_font_calc_vref_center, %function
 237              	u8g2_font_calc_vref_center:
 238              	.LFB37:
 963:..\..\u8g2\csrc/u8g2_font.c **** 
 964:..\..\u8g2\csrc/u8g2_font.c **** void u8g2_SetFontPosTop(u8g2_t *u8g2)
 965:..\..\u8g2\csrc/u8g2_font.c **** {
 966:..\..\u8g2\csrc/u8g2_font.c ****   u8g2->font_calc_vref = u8g2_font_calc_vref_top;
 967:..\..\u8g2\csrc/u8g2_font.c **** }
 968:..\..\u8g2\csrc/u8g2_font.c **** 
 969:..\..\u8g2\csrc/u8g2_font.c **** u8g2_uint_t u8g2_font_calc_vref_center(u8g2_t *u8g2)
 970:..\..\u8g2\csrc/u8g2_font.c **** {
 239              		.loc 1 970 0
 240              		.cfi_startproc
 241              		@ args = 0, pretend = 0, frame = 0
 242              		@ frame_needed = 0, uses_anonymous_args = 0
 243              		@ link register save eliminated.
 244              	.LVL25:
 245              		.loc 1 970 0
 246 0000 0200     		movs	r2, r0
 971:..\..\u8g2\csrc/u8g2_font.c ****   int8_t tmp;
 972:..\..\u8g2\csrc/u8g2_font.c ****   tmp = u8g2->font_ref_ascent;
 973:..\..\u8g2\csrc/u8g2_font.c ****   tmp -= u8g2->font_ref_descent;
 247              		.loc 1 973 0
 248 0002 0300     		movs	r3, r0
 972:..\..\u8g2\csrc/u8g2_font.c ****   tmp -= u8g2->font_ref_descent;
 249              		.loc 1 972 0
 250 0004 7932     		adds	r2, r2, #121
 251              	.LVL26:
 252              		.loc 1 973 0
 253 0006 7A33     		adds	r3, r3, #122
 254 0008 1878     		ldrb	r0, [r3]
 255              	.LVL27:
 256 000a 1378     		ldrb	r3, [r2]
 257              	.LVL28:
 974:..\..\u8g2\csrc/u8g2_font.c ****   tmp /= 2;
 975:..\..\u8g2\csrc/u8g2_font.c ****   tmp += u8g2->font_ref_descent;  
 976:..\..\u8g2\csrc/u8g2_font.c ****   return tmp;
 977:..\..\u8g2\csrc/u8g2_font.c **** }
 258              		.loc 1 977 0
 259              		@ sp needed
 973:..\..\u8g2\csrc/u8g2_font.c ****   tmp /= 2;
 260              		.loc 1 973 0
 261 000c 1B1A     		subs	r3, r3, r0
 262 000e 5BB2     		sxtb	r3, r3
 263              	.LVL29:
 976:..\..\u8g2\csrc/u8g2_font.c **** }
 264              		.loc 1 976 0
ARM GAS  C:\Users\gjl\AppData\Local\Temp\ccg70AS9.s 			page 23


 265 0010 DA0F     		lsrs	r2, r3, #31
 266              	.LVL30:
 267 0012 D318     		adds	r3, r2, r3
 268              	.LVL31:
 269 0014 5B10     		asrs	r3, r3, #1
 270 0016 C018     		adds	r0, r0, r3
 271              	.LVL32:
 272 0018 C0B2     		uxtb	r0, r0
 273              		.loc 1 977 0
 274 001a 7047     		bx	lr
 275              		.cfi_endproc
 276              	.LFE37:
 277              		.size	u8g2_font_calc_vref_center, .-u8g2_font_calc_vref_center
 278              		.section	.text.u8g2_read_font_info,"ax",%progbits
 279              		.align	1
 280              		.global	u8g2_read_font_info
 281              		.code	16
 282              		.thumb_func
 283              		.type	u8g2_read_font_info, %function
 284              	u8g2_read_font_info:
 285              	.LFB2:
 132:..\..\u8g2\csrc/u8g2_font.c ****   /* offset 0 */
 286              		.loc 1 132 0
 287              		.cfi_startproc
 288              		@ args = 0, pretend = 0, frame = 0
 289              		@ frame_needed = 0, uses_anonymous_args = 0
 290              	.LVL33:
 291 0000 70B5     		push	{r4, r5, r6, lr}
 292              		.cfi_def_cfa_offset 16
 293              		.cfi_offset 4, -16
 294              		.cfi_offset 5, -12
 295              		.cfi_offset 6, -8
 296              		.cfi_offset 14, -4
 297              	.LBB36:
 298              	.LBB37:
 114:..\..\u8g2\csrc/u8g2_font.c **** }
 299              		.loc 1 114 0
 300 0002 0B78     		ldrb	r3, [r1]
 301              	.LVL34:
 302              	.LBE37:
 303              	.LBE36:
 132:..\..\u8g2\csrc/u8g2_font.c ****   /* offset 0 */
 304              		.loc 1 132 0
 305 0004 0D00     		movs	r5, r1
 134:..\..\u8g2\csrc/u8g2_font.c ****   font_info->bbx_mode = u8g2_font_get_byte(font, 1);
 306              		.loc 1 134 0
 307 0006 0370     		strb	r3, [r0]
 308              	.LVL35:
 309              	.LBB38:
 310              	.LBB39:
 114:..\..\u8g2\csrc/u8g2_font.c **** }
 311              		.loc 1 114 0
 312 0008 4B78     		ldrb	r3, [r1, #1]
 313              	.LVL36:
 314              	.LBE39:
 315              	.LBE38:
 132:..\..\u8g2\csrc/u8g2_font.c ****   /* offset 0 */
ARM GAS  C:\Users\gjl\AppData\Local\Temp\ccg70AS9.s 			page 24


 316              		.loc 1 132 0
 317 000a 0400     		movs	r4, r0
 135:..\..\u8g2\csrc/u8g2_font.c ****   font_info->bits_per_0 = u8g2_font_get_byte(font, 2);
 318              		.loc 1 135 0
 319 000c 4370     		strb	r3, [r0, #1]
 320              	.LVL37:
 321              	.LBB40:
 322              	.LBB41:
 114:..\..\u8g2\csrc/u8g2_font.c **** }
 323              		.loc 1 114 0
 324 000e 8B78     		ldrb	r3, [r1, #2]
 325              	.LVL38:
 326              	.LBE41:
 327              	.LBE40:
 166:..\..\u8g2\csrc/u8g2_font.c **** 
 328              		.loc 1 166 0
 329              		@ sp needed
 136:..\..\u8g2\csrc/u8g2_font.c ****   font_info->bits_per_1 = u8g2_font_get_byte(font, 3);
 330              		.loc 1 136 0
 331 0010 8370     		strb	r3, [r0, #2]
 332              	.LVL39:
 333              	.LBB42:
 334              	.LBB43:
 114:..\..\u8g2\csrc/u8g2_font.c **** }
 335              		.loc 1 114 0
 336 0012 CB78     		ldrb	r3, [r1, #3]
 337              	.LVL40:
 338              	.LBE43:
 339              	.LBE42:
 137:..\..\u8g2\csrc/u8g2_font.c ****   
 340              		.loc 1 137 0
 341 0014 C370     		strb	r3, [r0, #3]
 342              	.LVL41:
 343              	.LBB44:
 344              	.LBB45:
 114:..\..\u8g2\csrc/u8g2_font.c **** }
 345              		.loc 1 114 0
 346 0016 0B79     		ldrb	r3, [r1, #4]
 347              	.LVL42:
 348              	.LBE45:
 349              	.LBE44:
 140:..\..\u8g2\csrc/u8g2_font.c ****   font_info->bits_per_char_height = u8g2_font_get_byte(font, 5);
 350              		.loc 1 140 0
 351 0018 0371     		strb	r3, [r0, #4]
 352              	.LVL43:
 353              	.LBB46:
 354              	.LBB47:
 114:..\..\u8g2\csrc/u8g2_font.c **** }
 355              		.loc 1 114 0
 356 001a 4B79     		ldrb	r3, [r1, #5]
 357              	.LVL44:
 358              	.LBE47:
 359              	.LBE46:
 141:..\..\u8g2\csrc/u8g2_font.c ****   font_info->bits_per_char_x = u8g2_font_get_byte(font, 6);
 360              		.loc 1 141 0
 361 001c 4371     		strb	r3, [r0, #5]
 362              	.LVL45:
ARM GAS  C:\Users\gjl\AppData\Local\Temp\ccg70AS9.s 			page 25


 363              	.LBB48:
 364              	.LBB49:
 114:..\..\u8g2\csrc/u8g2_font.c **** }
 365              		.loc 1 114 0
 366 001e 8B79     		ldrb	r3, [r1, #6]
 367              	.LVL46:
 368              	.LBE49:
 369              	.LBE48:
 142:..\..\u8g2\csrc/u8g2_font.c ****   font_info->bits_per_char_y = u8g2_font_get_byte(font, 7);
 370              		.loc 1 142 0
 371 0020 8371     		strb	r3, [r0, #6]
 372              	.LVL47:
 373              	.LBB50:
 374              	.LBB51:
 114:..\..\u8g2\csrc/u8g2_font.c **** }
 375              		.loc 1 114 0
 376 0022 CB79     		ldrb	r3, [r1, #7]
 377              	.LVL48:
 378              	.LBE51:
 379              	.LBE50:
 143:..\..\u8g2\csrc/u8g2_font.c ****   font_info->bits_per_delta_x = u8g2_font_get_byte(font, 8);
 380              		.loc 1 143 0
 381 0024 C371     		strb	r3, [r0, #7]
 382              	.LVL49:
 383              	.LBB52:
 384              	.LBB53:
 114:..\..\u8g2\csrc/u8g2_font.c **** }
 385              		.loc 1 114 0
 386 0026 0B7A     		ldrb	r3, [r1, #8]
 387              	.LVL50:
 388              	.LBE53:
 389              	.LBE52:
 144:..\..\u8g2\csrc/u8g2_font.c ****   
 390              		.loc 1 144 0
 391 0028 0372     		strb	r3, [r0, #8]
 147:..\..\u8g2\csrc/u8g2_font.c ****   font_info->max_char_height = u8g2_font_get_byte(font, 10);
 392              		.loc 1 147 0
 393 002a 4B7A     		ldrb	r3, [r1, #9]
 394 002c 4372     		strb	r3, [r0, #9]
 148:..\..\u8g2\csrc/u8g2_font.c ****   font_info->x_offset = u8g2_font_get_byte(font, 11);
 395              		.loc 1 148 0
 396 002e 8B7A     		ldrb	r3, [r1, #10]
 397 0030 8372     		strb	r3, [r0, #10]
 149:..\..\u8g2\csrc/u8g2_font.c ****   font_info->y_offset = u8g2_font_get_byte(font, 12);
 398              		.loc 1 149 0
 399 0032 CB7A     		ldrb	r3, [r1, #11]
 400 0034 C372     		strb	r3, [r0, #11]
 150:..\..\u8g2\csrc/u8g2_font.c ****   
 401              		.loc 1 150 0
 402 0036 0B7B     		ldrb	r3, [r1, #12]
 403 0038 0373     		strb	r3, [r0, #12]
 153:..\..\u8g2\csrc/u8g2_font.c ****   font_info->descent_g = u8g2_font_get_byte(font, 14);
 404              		.loc 1 153 0
 405 003a 4B7B     		ldrb	r3, [r1, #13]
 406 003c 4373     		strb	r3, [r0, #13]
 154:..\..\u8g2\csrc/u8g2_font.c ****   font_info->ascent_para = u8g2_font_get_byte(font, 15);
 407              		.loc 1 154 0
ARM GAS  C:\Users\gjl\AppData\Local\Temp\ccg70AS9.s 			page 26


 408 003e 8B7B     		ldrb	r3, [r1, #14]
 409 0040 8373     		strb	r3, [r0, #14]
 155:..\..\u8g2\csrc/u8g2_font.c ****   font_info->descent_para = u8g2_font_get_byte(font, 16);
 410              		.loc 1 155 0
 411 0042 CB7B     		ldrb	r3, [r1, #15]
 412 0044 C373     		strb	r3, [r0, #15]
 156:..\..\u8g2\csrc/u8g2_font.c ****   
 413              		.loc 1 156 0
 414 0046 0B7C     		ldrb	r3, [r1, #16]
 159:..\..\u8g2\csrc/u8g2_font.c ****   font_info->start_pos_lower_a = u8g2_font_get_word(font, 19); 
 415              		.loc 1 159 0
 416 0048 1121     		movs	r1, #17
 417              	.LVL51:
 156:..\..\u8g2\csrc/u8g2_font.c ****   
 418              		.loc 1 156 0
 419 004a 0374     		strb	r3, [r0, #16]
 159:..\..\u8g2\csrc/u8g2_font.c ****   font_info->start_pos_lower_a = u8g2_font_get_word(font, 19); 
 420              		.loc 1 159 0
 421 004c 2800     		movs	r0, r5
 422              	.LVL52:
 423 004e FFF7FEFF 		bl	u8g2_font_get_word
 424              	.LVL53:
 160:..\..\u8g2\csrc/u8g2_font.c ****   
 425              		.loc 1 160 0
 426 0052 1321     		movs	r1, #19
 159:..\..\u8g2\csrc/u8g2_font.c ****   font_info->start_pos_lower_a = u8g2_font_get_word(font, 19); 
 427              		.loc 1 159 0
 428 0054 6082     		strh	r0, [r4, #18]
 160:..\..\u8g2\csrc/u8g2_font.c ****   
 429              		.loc 1 160 0
 430 0056 2800     		movs	r0, r5
 431 0058 FFF7FEFF 		bl	u8g2_font_get_word
 432              	.LVL54:
 164:..\..\u8g2\csrc/u8g2_font.c **** #endif
 433              		.loc 1 164 0
 434 005c 1521     		movs	r1, #21
 160:..\..\u8g2\csrc/u8g2_font.c ****   
 435              		.loc 1 160 0
 436 005e A082     		strh	r0, [r4, #20]
 164:..\..\u8g2\csrc/u8g2_font.c **** #endif
 437              		.loc 1 164 0
 438 0060 2800     		movs	r0, r5
 439 0062 FFF7FEFF 		bl	u8g2_font_get_word
 440              	.LVL55:
 441 0066 E082     		strh	r0, [r4, #22]
 442              	.LVL56:
 443              	.LVL57:
 166:..\..\u8g2\csrc/u8g2_font.c **** 
 444              		.loc 1 166 0
 445 0068 70BD     		pop	{r4, r5, r6, pc}
 446              		.cfi_endproc
 447              	.LFE2:
 448              		.size	u8g2_read_font_info, .-u8g2_read_font_info
 449              		.section	.text.u8g2_GetFontSize,"ax",%progbits
 450              		.align	1
 451              		.global	u8g2_GetFontSize
 452              		.code	16
ARM GAS  C:\Users\gjl\AppData\Local\Temp\ccg70AS9.s 			page 27


 453              		.thumb_func
 454              		.type	u8g2_GetFontSize, %function
 455              	u8g2_GetFontSize:
 456              	.LFB3:
 171:..\..\u8g2\csrc/u8g2_font.c ****   uint16_t e;
 457              		.loc 1 171 0
 458              		.cfi_startproc
 459              		@ args = 0, pretend = 0, frame = 0
 460              		@ frame_needed = 0, uses_anonymous_args = 0
 461              		@ link register save eliminated.
 462              	.LVL58:
 174:..\..\u8g2\csrc/u8g2_font.c ****   
 463              		.loc 1 174 0
 464 0000 0300     		movs	r3, r0
 465 0002 1733     		adds	r3, r3, #23
 466              	.LVL59:
 467              	.L22:
 178:..\..\u8g2\csrc/u8g2_font.c ****       break;
 468              		.loc 1 178 0
 469 0004 5A78     		ldrb	r2, [r3, #1]
 470 0006 002A     		cmp	r2, #0
 471 0008 01D0     		beq	.L21
 180:..\..\u8g2\csrc/u8g2_font.c ****   }
 472              		.loc 1 180 0
 473 000a 9B18     		adds	r3, r3, r2
 474              	.LVL60:
 181:..\..\u8g2\csrc/u8g2_font.c ****   
 475              		.loc 1 181 0
 476 000c FAE7     		b	.L22
 477              	.L21:
 184:..\..\u8g2\csrc/u8g2_font.c ****   
 478              		.loc 1 184 0
 479 000e 0233     		adds	r3, r3, #2
 480              	.LVL61:
 481              	.L24:
 188:..\..\u8g2\csrc/u8g2_font.c ****     e <<= 8;
 482              		.loc 1 188 0
 483 0010 1A78     		ldrb	r2, [r3]
 484              	.LVL62:
 191:..\..\u8g2\csrc/u8g2_font.c ****       break;
 485              		.loc 1 191 0
 486 0012 5978     		ldrb	r1, [r3, #1]
 189:..\..\u8g2\csrc/u8g2_font.c ****     e |= u8x8_pgm_read( font + 1 );
 487              		.loc 1 189 0
 488 0014 1202     		lsls	r2, r2, #8
 489              	.LVL63:
 191:..\..\u8g2\csrc/u8g2_font.c ****       break;
 490              		.loc 1 191 0
 491 0016 0A43     		orrs	r2, r1
 492              	.LVL64:
 493 0018 02D0     		beq	.L23
 193:..\..\u8g2\csrc/u8g2_font.c ****   }
 494              		.loc 1 193 0
 495 001a 9A78     		ldrb	r2, [r3, #2]
 496 001c 9B18     		adds	r3, r3, r2
 497              	.LVL65:
 194:..\..\u8g2\csrc/u8g2_font.c ****   
ARM GAS  C:\Users\gjl\AppData\Local\Temp\ccg70AS9.s 			page 28


 498              		.loc 1 194 0
 499 001e F7E7     		b	.L24
 500              	.LVL66:
 501              	.L23:
 196:..\..\u8g2\csrc/u8g2_font.c **** }
 502              		.loc 1 196 0
 503 0020 181A     		subs	r0, r3, r0
 504              	.LVL67:
 505 0022 0230     		adds	r0, r0, #2
 197:..\..\u8g2\csrc/u8g2_font.c **** 
 506              		.loc 1 197 0
 507              		@ sp needed
 508 0024 7047     		bx	lr
 509              		.cfi_endproc
 510              	.LFE3:
 511              		.size	u8g2_GetFontSize, .-u8g2_GetFontSize
 512              		.section	.text.u8g2_GetFontBBXWidth,"ax",%progbits
 513              		.align	1
 514              		.global	u8g2_GetFontBBXWidth
 515              		.code	16
 516              		.thumb_func
 517              		.type	u8g2_GetFontBBXWidth, %function
 518              	u8g2_GetFontBBXWidth:
 519              	.LFB4:
 203:..\..\u8g2\csrc/u8g2_font.c ****   return u8g2->font_info.max_char_width;		/* new font info structure */
 520              		.loc 1 203 0
 521              		.cfi_startproc
 522              		@ args = 0, pretend = 0, frame = 0
 523              		@ frame_needed = 0, uses_anonymous_args = 0
 524              		@ link register save eliminated.
 525              	.LVL68:
 204:..\..\u8g2\csrc/u8g2_font.c **** }
 526              		.loc 1 204 0
 527 0000 6930     		adds	r0, r0, #105
 528              	.LVL69:
 529 0002 0078     		ldrb	r0, [r0]
 530              	.LVL70:
 205:..\..\u8g2\csrc/u8g2_font.c **** 
 531              		.loc 1 205 0
 532              		@ sp needed
 533 0004 7047     		bx	lr
 534              		.cfi_endproc
 535              	.LFE4:
 536              		.size	u8g2_GetFontBBXWidth, .-u8g2_GetFontBBXWidth
 537              		.section	.text.u8g2_GetFontBBXHeight,"ax",%progbits
 538              		.align	1
 539              		.global	u8g2_GetFontBBXHeight
 540              		.code	16
 541              		.thumb_func
 542              		.type	u8g2_GetFontBBXHeight, %function
 543              	u8g2_GetFontBBXHeight:
 544              	.LFB5:
 208:..\..\u8g2\csrc/u8g2_font.c ****   return u8g2->font_info.max_char_height;		/* new font info structure */
 545              		.loc 1 208 0
 546              		.cfi_startproc
 547              		@ args = 0, pretend = 0, frame = 0
 548              		@ frame_needed = 0, uses_anonymous_args = 0
ARM GAS  C:\Users\gjl\AppData\Local\Temp\ccg70AS9.s 			page 29


 549              		@ link register save eliminated.
 550              	.LVL71:
 209:..\..\u8g2\csrc/u8g2_font.c **** }
 551              		.loc 1 209 0
 552 0000 6A30     		adds	r0, r0, #106
 553              	.LVL72:
 554 0002 0078     		ldrb	r0, [r0]
 555              	.LVL73:
 210:..\..\u8g2\csrc/u8g2_font.c **** 
 556              		.loc 1 210 0
 557              		@ sp needed
 558 0004 7047     		bx	lr
 559              		.cfi_endproc
 560              	.LFE5:
 561              		.size	u8g2_GetFontBBXHeight, .-u8g2_GetFontBBXHeight
 562              		.section	.text.u8g_GetFontBBXOffX,"ax",%progbits
 563              		.align	1
 564              		.global	u8g_GetFontBBXOffX
 565              		.code	16
 566              		.thumb_func
 567              		.type	u8g_GetFontBBXOffX, %function
 568              	u8g_GetFontBBXOffX:
 569              	.LFB6:
 214:..\..\u8g2\csrc/u8g2_font.c ****   return u8g2->font_info.x_offset;		/* new font info structure */
 570              		.loc 1 214 0
 571              		.cfi_startproc
 572              		@ args = 0, pretend = 0, frame = 0
 573              		@ frame_needed = 0, uses_anonymous_args = 0
 574              		@ link register save eliminated.
 575              	.LVL74:
 215:..\..\u8g2\csrc/u8g2_font.c **** }
 576              		.loc 1 215 0
 577 0000 6B30     		adds	r0, r0, #107
 578              	.LVL75:
 579 0002 0078     		ldrb	r0, [r0]
 580              	.LVL76:
 216:..\..\u8g2\csrc/u8g2_font.c **** 
 581              		.loc 1 216 0
 582              		@ sp needed
 215:..\..\u8g2\csrc/u8g2_font.c **** }
 583              		.loc 1 215 0
 584 0004 40B2     		sxtb	r0, r0
 216:..\..\u8g2\csrc/u8g2_font.c **** 
 585              		.loc 1 216 0
 586 0006 7047     		bx	lr
 587              		.cfi_endproc
 588              	.LFE6:
 589              		.size	u8g_GetFontBBXOffX, .-u8g_GetFontBBXOffX
 590              		.section	.text.u8g2_GetFontBBXOffY,"ax",%progbits
 591              		.align	1
 592              		.global	u8g2_GetFontBBXOffY
 593              		.code	16
 594              		.thumb_func
 595              		.type	u8g2_GetFontBBXOffY, %function
 596              	u8g2_GetFontBBXOffY:
 597              	.LFB7:
 220:..\..\u8g2\csrc/u8g2_font.c ****   return u8g2->font_info.y_offset;		/* new font info structure */
ARM GAS  C:\Users\gjl\AppData\Local\Temp\ccg70AS9.s 			page 30


 598              		.loc 1 220 0
 599              		.cfi_startproc
 600              		@ args = 0, pretend = 0, frame = 0
 601              		@ frame_needed = 0, uses_anonymous_args = 0
 602              		@ link register save eliminated.
 603              	.LVL77:
 221:..\..\u8g2\csrc/u8g2_font.c **** }
 604              		.loc 1 221 0
 605 0000 6C30     		adds	r0, r0, #108
 606              	.LVL78:
 607 0002 0078     		ldrb	r0, [r0]
 608              	.LVL79:
 222:..\..\u8g2\csrc/u8g2_font.c **** 
 609              		.loc 1 222 0
 610              		@ sp needed
 221:..\..\u8g2\csrc/u8g2_font.c **** }
 611              		.loc 1 221 0
 612 0004 40B2     		sxtb	r0, r0
 222:..\..\u8g2\csrc/u8g2_font.c **** 
 613              		.loc 1 222 0
 614 0006 7047     		bx	lr
 615              		.cfi_endproc
 616              	.LFE7:
 617              		.size	u8g2_GetFontBBXOffY, .-u8g2_GetFontBBXOffY
 618              		.section	.text.u8g2_GetFontCapitalAHeight,"ax",%progbits
 619              		.align	1
 620              		.global	u8g2_GetFontCapitalAHeight
 621              		.code	16
 622              		.thumb_func
 623              		.type	u8g2_GetFontCapitalAHeight, %function
 624              	u8g2_GetFontCapitalAHeight:
 625              	.LFB8:
 226:..\..\u8g2\csrc/u8g2_font.c ****   return u8g2->font_info.ascent_A;		/* new font info structure */
 626              		.loc 1 226 0
 627              		.cfi_startproc
 628              		@ args = 0, pretend = 0, frame = 0
 629              		@ frame_needed = 0, uses_anonymous_args = 0
 630              		@ link register save eliminated.
 631              	.LVL80:
 227:..\..\u8g2\csrc/u8g2_font.c **** }
 632              		.loc 1 227 0
 633 0000 6D30     		adds	r0, r0, #109
 634              	.LVL81:
 635 0002 0078     		ldrb	r0, [r0]
 636              	.LVL82:
 228:..\..\u8g2\csrc/u8g2_font.c **** 
 637              		.loc 1 228 0
 638              		@ sp needed
 639 0004 7047     		bx	lr
 640              		.cfi_endproc
 641              	.LFE8:
 642              		.size	u8g2_GetFontCapitalAHeight, .-u8g2_GetFontCapitalAHeight
 643              		.section	.text.u8g2_font_decode_get_unsigned_bits,"ax",%progbits
 644              		.align	1
 645              		.global	u8g2_font_decode_get_unsigned_bits
 646              		.code	16
 647              		.thumb_func
ARM GAS  C:\Users\gjl\AppData\Local\Temp\ccg70AS9.s 			page 31


 648              		.type	u8g2_font_decode_get_unsigned_bits, %function
 649              	u8g2_font_decode_get_unsigned_bits:
 650              	.LFB9:
 235:..\..\u8g2\csrc/u8g2_font.c ****   uint8_t val;
 651              		.loc 1 235 0
 652              		.cfi_startproc
 653              		@ args = 0, pretend = 0, frame = 0
 654              		@ frame_needed = 0, uses_anonymous_args = 0
 655              	.LVL83:
 656 0000 70B5     		push	{r4, r5, r6, lr}
 657              		.cfi_def_cfa_offset 16
 658              		.cfi_offset 4, -16
 659              		.cfi_offset 5, -12
 660              		.cfi_offset 6, -8
 661              		.cfi_offset 14, -4
 241:..\..\u8g2\csrc/u8g2_font.c ****   
 662              		.loc 1 241 0
 663 0002 0468     		ldr	r4, [r0]
 237:..\..\u8g2\csrc/u8g2_font.c ****   uint8_t bit_pos_plus_cnt;
 664              		.loc 1 237 0
 665 0004 867A     		ldrb	r6, [r0, #10]
 666              	.LVL84:
 243:..\..\u8g2\csrc/u8g2_font.c ****   bit_pos_plus_cnt = bit_pos;
 667              		.loc 1 243 0
 668 0006 2378     		ldrb	r3, [r4]
 245:..\..\u8g2\csrc/u8g2_font.c ****   if ( bit_pos_plus_cnt >= 8 )
 669              		.loc 1 245 0
 670 0008 7218     		adds	r2, r6, r1
 671 000a D2B2     		uxtb	r2, r2
 243:..\..\u8g2\csrc/u8g2_font.c ****   bit_pos_plus_cnt = bit_pos;
 672              		.loc 1 243 0
 673 000c 3341     		asrs	r3, r3, r6
 674              	.LVL85:
 246:..\..\u8g2\csrc/u8g2_font.c ****   {
 675              		.loc 1 246 0
 676 000e 072A     		cmp	r2, #7
 677 0010 01D8     		bhi	.L31
 243:..\..\u8g2\csrc/u8g2_font.c ****   bit_pos_plus_cnt = bit_pos;
 678              		.loc 1 243 0
 679 0012 DBB2     		uxtb	r3, r3
 680 0014 0AE0     		b	.L32
 681              	.L31:
 682              	.LVL86:
 683              	.LBB54:
 250:..\..\u8g2\csrc/u8g2_font.c ****     //val |= *(f->decode_ptr) << (8-bit_pos);
 684              		.loc 1 250 0
 685 0016 651C     		adds	r5, r4, #1
 686 0018 0560     		str	r5, [r0]
 252:..\..\u8g2\csrc/u8g2_font.c ****     //bit_pos -= 8;
 687              		.loc 1 252 0
 688 001a 6578     		ldrb	r5, [r4, #1]
 689 001c 0824     		movs	r4, #8
 690 001e A41B     		subs	r4, r4, r6
 691 0020 E4B2     		uxtb	r4, r4
 692 0022 A540     		lsls	r5, r5, r4
 254:..\..\u8g2\csrc/u8g2_font.c ****   }
 693              		.loc 1 254 0
ARM GAS  C:\Users\gjl\AppData\Local\Temp\ccg70AS9.s 			page 32


 694 0024 083A     		subs	r2, r2, #8
 695              	.LVL87:
 252:..\..\u8g2\csrc/u8g2_font.c ****     //bit_pos -= 8;
 696              		.loc 1 252 0
 697 0026 2B43     		orrs	r3, r5
 698              	.LVL88:
 699 0028 DBB2     		uxtb	r3, r3
 700              	.LVL89:
 254:..\..\u8g2\csrc/u8g2_font.c ****   }
 701              		.loc 1 254 0
 702 002a D2B2     		uxtb	r2, r2
 703              	.LVL90:
 704              	.L32:
 705              	.LBE54:
 259:..\..\u8g2\csrc/u8g2_font.c ****   return val;
 706              		.loc 1 259 0
 707 002c 8272     		strb	r2, [r0, #10]
 260:..\..\u8g2\csrc/u8g2_font.c **** }
 708              		.loc 1 260 0
 709 002e 0120     		movs	r0, #1
 710              	.LVL91:
 711 0030 8840     		lsls	r0, r0, r1
 712 0032 0138     		subs	r0, r0, #1
 713 0034 1840     		ands	r0, r3
 261:..\..\u8g2\csrc/u8g2_font.c **** 
 714              		.loc 1 261 0
 715              		@ sp needed
 716              	.LVL92:
 717 0036 70BD     		pop	{r4, r5, r6, pc}
 718              		.cfi_endproc
 719              	.LFE9:
 720              		.size	u8g2_font_decode_get_unsigned_bits, .-u8g2_font_decode_get_unsigned_bits
 721              		.section	.text.u8g2_font_setup_decode,"ax",%progbits
 722              		.align	1
 723              		.code	16
 724              		.thumb_func
 725              		.type	u8g2_font_setup_decode, %function
 726              	u8g2_font_setup_decode:
 727              	.LFB14:
 451:..\..\u8g2\csrc/u8g2_font.c ****   u8g2_font_decode_t *decode = &(u8g2->font_decode);
 728              		.loc 1 451 0
 729              		.cfi_startproc
 730              		@ args = 0, pretend = 0, frame = 0
 731              		@ frame_needed = 0, uses_anonymous_args = 0
 732              	.LVL93:
 733 0000 70B5     		push	{r4, r5, r6, lr}
 734              		.cfi_def_cfa_offset 16
 735              		.cfi_offset 4, -16
 736              		.cfi_offset 5, -12
 737              		.cfi_offset 6, -8
 738              		.cfi_offset 14, -4
 452:..\..\u8g2\csrc/u8g2_font.c ****   decode->decode_ptr = glyph_data;
 739              		.loc 1 452 0
 740 0002 0400     		movs	r4, r0
 454:..\..\u8g2\csrc/u8g2_font.c ****   
 741              		.loc 1 454 0
 742 0004 0023     		movs	r3, #0
ARM GAS  C:\Users\gjl\AppData\Local\Temp\ccg70AS9.s 			page 33


 452:..\..\u8g2\csrc/u8g2_font.c ****   decode->decode_ptr = glyph_data;
 743              		.loc 1 452 0
 744 0006 5034     		adds	r4, r4, #80
 745              	.LVL94:
 453:..\..\u8g2\csrc/u8g2_font.c ****   decode->decode_bit_pos = 0;
 746              		.loc 1 453 0
 747 0008 0165     		str	r1, [r0, #80]
 454:..\..\u8g2\csrc/u8g2_font.c ****   
 748              		.loc 1 454 0
 749 000a A372     		strb	r3, [r4, #10]
 462:..\..\u8g2\csrc/u8g2_font.c ****   decode->glyph_height = u8g2_font_decode_get_unsigned_bits(decode,u8g2->font_info.bits_per_char_he
 750              		.loc 1 462 0
 751 000c 0300     		movs	r3, r0
 451:..\..\u8g2\csrc/u8g2_font.c ****   u8g2_font_decode_t *decode = &(u8g2->font_decode);
 752              		.loc 1 451 0
 753 000e 0500     		movs	r5, r0
 462:..\..\u8g2\csrc/u8g2_font.c ****   decode->glyph_height = u8g2_font_decode_get_unsigned_bits(decode,u8g2->font_info.bits_per_char_he
 754              		.loc 1 462 0
 755 0010 6433     		adds	r3, r3, #100
 756 0012 1978     		ldrb	r1, [r3]
 757              	.LVL95:
 758 0014 2000     		movs	r0, r4
 759              	.LVL96:
 760 0016 FFF7FEFF 		bl	u8g2_font_decode_get_unsigned_bits
 761              	.LVL97:
 463:..\..\u8g2\csrc/u8g2_font.c ****   
 762              		.loc 1 463 0
 763 001a 2B00     		movs	r3, r5
 462:..\..\u8g2\csrc/u8g2_font.c ****   decode->glyph_height = u8g2_font_decode_get_unsigned_bits(decode,u8g2->font_info.bits_per_char_he
 764              		.loc 1 462 0
 765 001c 2072     		strb	r0, [r4, #8]
 463:..\..\u8g2\csrc/u8g2_font.c ****   
 766              		.loc 1 463 0
 767 001e 6533     		adds	r3, r3, #101
 768 0020 1978     		ldrb	r1, [r3]
 769 0022 2000     		movs	r0, r4
 770 0024 FFF7FEFF 		bl	u8g2_font_decode_get_unsigned_bits
 771              	.LVL98:
 465:..\..\u8g2\csrc/u8g2_font.c ****   decode->bg_color = (decode->fg_color == 0 ? 1 : 0);
 772              		.loc 1 465 0
 773 0028 7C35     		adds	r5, r5, #124
 774              	.LVL99:
 463:..\..\u8g2\csrc/u8g2_font.c ****   
 775              		.loc 1 463 0
 776 002a 6072     		strb	r0, [r4, #9]
 465:..\..\u8g2\csrc/u8g2_font.c ****   decode->bg_color = (decode->fg_color == 0 ? 1 : 0);
 777              		.loc 1 465 0
 778 002c 2B78     		ldrb	r3, [r5]
 467:..\..\u8g2\csrc/u8g2_font.c **** 
 779              		.loc 1 467 0
 780              		@ sp needed
 465:..\..\u8g2\csrc/u8g2_font.c ****   decode->bg_color = (decode->fg_color == 0 ? 1 : 0);
 781              		.loc 1 465 0
 782 002e 2373     		strb	r3, [r4, #12]
 466:..\..\u8g2\csrc/u8g2_font.c **** }
 783              		.loc 1 466 0
 784 0030 5A42     		rsbs	r2, r3, #0
ARM GAS  C:\Users\gjl\AppData\Local\Temp\ccg70AS9.s 			page 34


 785 0032 5341     		adcs	r3, r3, r2
 786 0034 6373     		strb	r3, [r4, #13]
 787              	.LVL100:
 788              	.LVL101:
 467:..\..\u8g2\csrc/u8g2_font.c **** 
 789              		.loc 1 467 0
 790 0036 70BD     		pop	{r4, r5, r6, pc}
 791              		.cfi_endproc
 792              	.LFE14:
 793              		.size	u8g2_font_setup_decode, .-u8g2_font_setup_decode
 794              		.section	.text.u8g2_font_decode_get_signed_bits,"ax",%progbits
 795              		.align	1
 796              		.global	u8g2_font_decode_get_signed_bits
 797              		.code	16
 798              		.thumb_func
 799              		.type	u8g2_font_decode_get_signed_bits, %function
 800              	u8g2_font_decode_get_signed_bits:
 801              	.LFB10:
 280:..\..\u8g2\csrc/u8g2_font.c ****   int8_t v, d;
 802              		.loc 1 280 0
 803              		.cfi_startproc
 804              		@ args = 0, pretend = 0, frame = 0
 805              		@ frame_needed = 0, uses_anonymous_args = 0
 806              	.LVL102:
 807 0000 10B5     		push	{r4, lr}
 808              		.cfi_def_cfa_offset 8
 809              		.cfi_offset 4, -8
 810              		.cfi_offset 14, -4
 280:..\..\u8g2\csrc/u8g2_font.c ****   int8_t v, d;
 811              		.loc 1 280 0
 812 0002 0C00     		movs	r4, r1
 282:..\..\u8g2\csrc/u8g2_font.c ****   d = 1;
 813              		.loc 1 282 0
 814 0004 FFF7FEFF 		bl	u8g2_font_decode_get_unsigned_bits
 815              	.LVL103:
 287:..\..\u8g2\csrc/u8g2_font.c ****   //return (int8_t)u8g2_font_decode_get_unsigned_bits(f, cnt) - ((1<<cnt)>>1);
 816              		.loc 1 287 0
 817 0008 0123     		movs	r3, #1
 818 000a 013C     		subs	r4, r4, #1
 819              	.LVL104:
 820 000c E4B2     		uxtb	r4, r4
 821 000e A340     		lsls	r3, r3, r4
 822 0010 C01A     		subs	r0, r0, r3
 823 0012 40B2     		sxtb	r0, r0
 289:..\..\u8g2\csrc/u8g2_font.c **** 
 824              		.loc 1 289 0
 825              		@ sp needed
 826 0014 10BD     		pop	{r4, pc}
 827              		.cfi_endproc
 828              	.LFE10:
 829              		.size	u8g2_font_decode_get_signed_bits, .-u8g2_font_decode_get_signed_bits
 830              		.section	.text.u8g2_font_decode_len,"ax",%progbits
 831              		.align	1
 832              		.global	u8g2_font_decode_len
 833              		.code	16
 834              		.thumb_func
 835              		.type	u8g2_font_decode_len, %function
ARM GAS  C:\Users\gjl\AppData\Local\Temp\ccg70AS9.s 			page 35


 836              	u8g2_font_decode_len:
 837              	.LFB13:
 357:..\..\u8g2\csrc/u8g2_font.c ****   uint8_t cnt;	/* total number of remaining pixels, which have to be drawn */
 838              		.loc 1 357 0
 839              		.cfi_startproc
 840              		@ args = 0, pretend = 0, frame = 40
 841              		@ frame_needed = 0, uses_anonymous_args = 0
 842              	.LVL105:
 374:..\..\u8g2\csrc/u8g2_font.c ****   ly = decode->y;
 843              		.loc 1 374 0
 844 0000 0300     		movs	r3, r0
 357:..\..\u8g2\csrc/u8g2_font.c ****   uint8_t cnt;	/* total number of remaining pixels, which have to be drawn */
 845              		.loc 1 357 0
 846 0002 F0B5     		push	{r4, r5, r6, r7, lr}
 847              		.cfi_def_cfa_offset 20
 848              		.cfi_offset 4, -20
 849              		.cfi_offset 5, -16
 850              		.cfi_offset 6, -12
 851              		.cfi_offset 7, -8
 852              		.cfi_offset 14, -4
 853 0004 0400     		movs	r4, r0
 854 0006 0E00     		movs	r6, r1
 855              	.LVL106:
 856 0008 8DB0     		sub	sp, sp, #52
 857              		.cfi_def_cfa_offset 72
 357:..\..\u8g2\csrc/u8g2_font.c ****   uint8_t cnt;	/* total number of remaining pixels, which have to be drawn */
 858              		.loc 1 357 0
 859 000a 0B92     		str	r2, [sp, #44]
 374:..\..\u8g2\csrc/u8g2_font.c ****   ly = decode->y;
 860              		.loc 1 374 0
 861 000c 5033     		adds	r3, r3, #80
 862              	.LVL107:
 863 000e 9F79     		ldrb	r7, [r3, #6]
 864              	.LVL108:
 375:..\..\u8g2\csrc/u8g2_font.c ****   
 865              		.loc 1 375 0
 866 0010 DB79     		ldrb	r3, [r3, #7]
 867              	.LVL109:
 868 0012 0593     		str	r3, [sp, #20]
 869              	.LVL110:
 870              	.L40:
 380:..\..\u8g2\csrc/u8g2_font.c ****     rem -= lx;
 871              		.loc 1 380 0
 872 0014 2500     		movs	r5, r4
 873 0016 5035     		adds	r5, r5, #80
 381:..\..\u8g2\csrc/u8g2_font.c ****     
 874              		.loc 1 381 0
 875 0018 2B7A     		ldrb	r3, [r5, #8]
 876 001a DB1B     		subs	r3, r3, r7
 877 001c DBB2     		uxtb	r3, r3
 878 001e 0393     		str	r3, [sp, #12]
 879              	.LVL111:
 880 0020 039A     		ldr	r2, [sp, #12]
 881 0022 331C     		adds	r3, r6, #0
 882 0024 9642     		cmp	r6, r2
 883 0026 01D9     		bls	.L36
 884              	.LVL112:
ARM GAS  C:\Users\gjl\AppData\Local\Temp\ccg70AS9.s 			page 36


 885 0028 6B46     		mov	r3, sp
 886              	.LVL113:
 887 002a 1B7B     		ldrb	r3, [r3, #12]
 888              	.L36:
 889 002c DBB2     		uxtb	r3, r3
 890 002e 0893     		str	r3, [sp, #32]
 891              	.LVL114:
 395:..\..\u8g2\csrc/u8g2_font.c **** 
 892              		.loc 1 395 0
 893 0030 6B79     		ldrb	r3, [r5, #5]
 394:..\..\u8g2\csrc/u8g2_font.c ****     y = decode->target_y;
 894              		.loc 1 394 0
 895 0032 2879     		ldrb	r0, [r5, #4]
 896              	.LVL115:
 395:..\..\u8g2\csrc/u8g2_font.c **** 
 897              		.loc 1 395 0
 898 0034 0A93     		str	r3, [sp, #40]
 899              	.LVL116:
 399:..\..\u8g2\csrc/u8g2_font.c ****     y = u8g2_add_vector_y(y, lx, ly, decode->dir);
 900              		.loc 1 399 0
 901 0036 6B46     		mov	r3, sp
 902 0038 1B7D     		ldrb	r3, [r3, #20]
 903 003a 79B2     		sxtb	r1, r7
 904 003c 5BB2     		sxtb	r3, r3
 905 003e 0693     		str	r3, [sp, #24]
 906 0040 AB7B     		ldrb	r3, [r5, #14]
 907 0042 069A     		ldr	r2, [sp, #24]
 908 0044 0493     		str	r3, [sp, #16]
 909 0046 0791     		str	r1, [sp, #28]
 910 0048 FFF7FEFF 		bl	u8g2_add_vector_x
 911              	.LVL117:
 400:..\..\u8g2\csrc/u8g2_font.c **** #else
 912              		.loc 1 400 0
 913 004c 049B     		ldr	r3, [sp, #16]
 399:..\..\u8g2\csrc/u8g2_font.c ****     y = u8g2_add_vector_y(y, lx, ly, decode->dir);
 914              		.loc 1 399 0
 915 004e 0990     		str	r0, [sp, #36]
 916              	.LVL118:
 400:..\..\u8g2\csrc/u8g2_font.c **** #else
 917              		.loc 1 400 0
 918 0050 069A     		ldr	r2, [sp, #24]
 919 0052 0799     		ldr	r1, [sp, #28]
 920 0054 0A98     		ldr	r0, [sp, #40]
 921 0056 FFF7FEFF 		bl	u8g2_add_vector_y
 922              	.LVL119:
 407:..\..\u8g2\csrc/u8g2_font.c ****     {
 923              		.loc 1 407 0
 924 005a 0B9B     		ldr	r3, [sp, #44]
 400:..\..\u8g2\csrc/u8g2_font.c **** #else
 925              		.loc 1 400 0
 926 005c 0200     		movs	r2, r0
 927              	.LVL120:
 407:..\..\u8g2\csrc/u8g2_font.c ****     {
 928              		.loc 1 407 0
 929 005e 002B     		cmp	r3, #0
 930 0060 01D0     		beq	.L37
 409:..\..\u8g2\csrc/u8g2_font.c ****       u8g2_DrawHVLine(u8g2, 
ARM GAS  C:\Users\gjl\AppData\Local\Temp\ccg70AS9.s 			page 37


 931              		.loc 1 409 0
 932 0062 297B     		ldrb	r1, [r5, #12]
 933 0064 03E0     		b	.L41
 934              	.L37:
 421:..\..\u8g2\csrc/u8g2_font.c ****     {
 935              		.loc 1 421 0
 936 0066 EB7A     		ldrb	r3, [r5, #11]
 937 0068 002B     		cmp	r3, #0
 938 006a 0AD1     		bne	.L38
 423:..\..\u8g2\csrc/u8g2_font.c ****       u8g2_DrawHVLine(u8g2, 
 939              		.loc 1 423 0
 940 006c 697B     		ldrb	r1, [r5, #13]
 941              	.L41:
 942 006e 2300     		movs	r3, r4
 943 0070 7C33     		adds	r3, r3, #124
 944 0072 1970     		strb	r1, [r3]
 424:..\..\u8g2\csrc/u8g2_font.c **** 	x, 
 945              		.loc 1 424 0
 946 0074 049B     		ldr	r3, [sp, #16]
 947 0076 0999     		ldr	r1, [sp, #36]
 948 0078 0093     		str	r3, [sp]
 949 007a 2000     		movs	r0, r4
 950 007c 089B     		ldr	r3, [sp, #32]
 951 007e FFF7FEFF 		bl	u8g2_DrawHVLine
 952              	.LVL121:
 953              	.L38:
 437:..\..\u8g2\csrc/u8g2_font.c ****       break;
 954              		.loc 1 437 0
 955 0082 039B     		ldr	r3, [sp, #12]
 956 0084 9E42     		cmp	r6, r3
 957 0086 07D3     		bcc	.L39
 439:..\..\u8g2\csrc/u8g2_font.c ****     lx = 0;
 958              		.loc 1 439 0
 959 0088 F31A     		subs	r3, r6, r3
 960 008a DEB2     		uxtb	r6, r3
 961              	.LVL122:
 441:..\..\u8g2\csrc/u8g2_font.c ****   }
 962              		.loc 1 441 0
 963 008c 059B     		ldr	r3, [sp, #20]
 440:..\..\u8g2\csrc/u8g2_font.c ****     ly++;
 964              		.loc 1 440 0
 965 008e 0027     		movs	r7, #0
 441:..\..\u8g2\csrc/u8g2_font.c ****   }
 966              		.loc 1 441 0
 967 0090 0133     		adds	r3, r3, #1
 968 0092 DBB2     		uxtb	r3, r3
 969 0094 0593     		str	r3, [sp, #20]
 970              	.LVL123:
 442:..\..\u8g2\csrc/u8g2_font.c ****   lx += cnt;
 971              		.loc 1 442 0
 972 0096 BDE7     		b	.L40
 973              	.LVL124:
 974              	.L39:
 445:..\..\u8g2\csrc/u8g2_font.c ****   decode->y = ly;
 975              		.loc 1 445 0
 976 0098 5034     		adds	r4, r4, #80
 977              	.LVL125:
ARM GAS  C:\Users\gjl\AppData\Local\Temp\ccg70AS9.s 			page 38


 978 009a F319     		adds	r3, r6, r7
 979 009c A371     		strb	r3, [r4, #6]
 446:..\..\u8g2\csrc/u8g2_font.c ****   
 980              		.loc 1 446 0
 981 009e 6B46     		mov	r3, sp
 982 00a0 1B7E     		ldrb	r3, [r3, #24]
 983 00a2 E371     		strb	r3, [r4, #7]
 448:..\..\u8g2\csrc/u8g2_font.c **** 
 984              		.loc 1 448 0
 985 00a4 0DB0     		add	sp, sp, #52
 986              		@ sp needed
 987              	.LVL126:
 988              	.LVL127:
 989 00a6 F0BD     		pop	{r4, r5, r6, r7, pc}
 990              		.cfi_endproc
 991              	.LFE13:
 992              		.size	u8g2_font_decode_len, .-u8g2_font_decode_len
 993              		.section	.text.u8g2_font_decode_glyph,"ax",%progbits
 994              		.align	1
 995              		.global	u8g2_font_decode_glyph
 996              		.code	16
 997              		.thumb_func
 998              		.type	u8g2_font_decode_glyph, %function
 999              	u8g2_font_decode_glyph:
 1000              	.LFB15:
 485:..\..\u8g2\csrc/u8g2_font.c ****   uint8_t a, b;
 1001              		.loc 1 485 0
 1002              		.cfi_startproc
 1003              		@ args = 0, pretend = 0, frame = 32
 1004              		@ frame_needed = 0, uses_anonymous_args = 0
 1005              	.LVL128:
 1006 0000 F0B5     		push	{r4, r5, r6, r7, lr}
 1007              		.cfi_def_cfa_offset 20
 1008              		.cfi_offset 4, -20
 1009              		.cfi_offset 5, -16
 1010              		.cfi_offset 6, -12
 1011              		.cfi_offset 7, -8
 1012              		.cfi_offset 14, -4
 1013 0002 0500     		movs	r5, r0
 1014 0004 8BB0     		sub	sp, sp, #44
 1015              		.cfi_def_cfa_offset 64
 490:..\..\u8g2\csrc/u8g2_font.c ****     
 1016              		.loc 1 490 0
 1017 0006 0700     		movs	r7, r0
 492:..\..\u8g2\csrc/u8g2_font.c ****   h = u8g2->font_decode.glyph_height;
 1018              		.loc 1 492 0
 1019 0008 FFF7FEFF 		bl	u8g2_font_setup_decode
 1020              	.LVL129:
 493:..\..\u8g2\csrc/u8g2_font.c ****   
 1021              		.loc 1 493 0
 1022 000c 2B00     		movs	r3, r5
 1023 000e 5933     		adds	r3, r3, #89
 1024 0010 1B78     		ldrb	r3, [r3]
 490:..\..\u8g2\csrc/u8g2_font.c ****     
 1025              		.loc 1 490 0
 1026 0012 5037     		adds	r7, r7, #80
 1027              	.LVL130:
ARM GAS  C:\Users\gjl\AppData\Local\Temp\ccg70AS9.s 			page 39


 493:..\..\u8g2\csrc/u8g2_font.c ****   
 1028              		.loc 1 493 0
 1029 0014 5BB2     		sxtb	r3, r3
 1030 0016 0693     		str	r3, [sp, #24]
 1031              	.LVL131:
 495:..\..\u8g2\csrc/u8g2_font.c ****   y = u8g2_font_decode_get_signed_bits(decode, u8g2->font_info.bits_per_char_y);
 1032              		.loc 1 495 0
 1033 0018 2B00     		movs	r3, r5
 1034 001a 6633     		adds	r3, r3, #102
 1035 001c 1978     		ldrb	r1, [r3]
 1036 001e 3800     		movs	r0, r7
 1037 0020 FFF7FEFF 		bl	u8g2_font_decode_get_signed_bits
 1038              	.LVL132:
 496:..\..\u8g2\csrc/u8g2_font.c ****   d = u8g2_font_decode_get_signed_bits(decode, u8g2->font_info.bits_per_delta_x);
 1039              		.loc 1 496 0
 1040 0024 2B00     		movs	r3, r5
 495:..\..\u8g2\csrc/u8g2_font.c ****   y = u8g2_font_decode_get_signed_bits(decode, u8g2->font_info.bits_per_char_y);
 1041              		.loc 1 495 0
 1042 0026 0890     		str	r0, [sp, #32]
 1043              	.LVL133:
 496:..\..\u8g2\csrc/u8g2_font.c ****   d = u8g2_font_decode_get_signed_bits(decode, u8g2->font_info.bits_per_delta_x);
 1044              		.loc 1 496 0
 1045 0028 6733     		adds	r3, r3, #103
 1046 002a 1978     		ldrb	r1, [r3]
 1047 002c 3800     		movs	r0, r7
 1048 002e FFF7FEFF 		bl	u8g2_font_decode_get_signed_bits
 1049              	.LVL134:
 497:..\..\u8g2\csrc/u8g2_font.c ****   
 1050              		.loc 1 497 0
 1051 0032 2B00     		movs	r3, r5
 1052 0034 6833     		adds	r3, r3, #104
 1053 0036 1978     		ldrb	r1, [r3]
 496:..\..\u8g2\csrc/u8g2_font.c ****   d = u8g2_font_decode_get_signed_bits(decode, u8g2->font_info.bits_per_delta_x);
 1054              		.loc 1 496 0
 1055 0038 0400     		movs	r4, r0
 1056              	.LVL135:
 497:..\..\u8g2\csrc/u8g2_font.c ****   
 1057              		.loc 1 497 0
 1058 003a 3800     		movs	r0, r7
 1059 003c FFF7FEFF 		bl	u8g2_font_decode_get_signed_bits
 1060              	.LVL136:
 499:..\..\u8g2\csrc/u8g2_font.c ****   {
 1061              		.loc 1 499 0
 1062 0040 0823     		movs	r3, #8
 497:..\..\u8g2\csrc/u8g2_font.c ****   
 1063              		.loc 1 497 0
 1064 0042 0990     		str	r0, [sp, #36]
 1065              	.LVL137:
 499:..\..\u8g2\csrc/u8g2_font.c ****   {
 1066              		.loc 1 499 0
 1067 0044 FB56     		ldrsb	r3, [r7, r3]
 1068 0046 0393     		str	r3, [sp, #12]
 1069 0048 002B     		cmp	r3, #0
 1070 004a 00DC     		bgt	.LCB891
 1071 004c 7FE0     		b	.L44	@long jump
 1072              	.LCB891:
 502:..\..\u8g2\csrc/u8g2_font.c ****     decode->target_y = u8g2_add_vector_y(decode->target_y, x, -(h+y), decode->dir);
ARM GAS  C:\Users\gjl\AppData\Local\Temp\ccg70AS9.s 			page 40


 1073              		.loc 1 502 0
 1074 004e 6B46     		mov	r3, sp
 1075 0050 1B7E     		ldrb	r3, [r3, #24]
 1076 0052 0899     		ldr	r1, [sp, #32]
 1077 0054 1C19     		adds	r4, r3, r4
 1078              	.LVL138:
 1079 0056 6442     		rsbs	r4, r4, #0
 1080 0058 0493     		str	r3, [sp, #16]
 1081 005a 63B2     		sxtb	r3, r4
 1082 005c 0793     		str	r3, [sp, #28]
 1083 005e BB7B     		ldrb	r3, [r7, #14]
 1084 0060 079A     		ldr	r2, [sp, #28]
 1085 0062 0593     		str	r3, [sp, #20]
 1086 0064 3879     		ldrb	r0, [r7, #4]
 1087 0066 FFF7FEFF 		bl	u8g2_add_vector_x
 1088              	.LVL139:
 503:..\..\u8g2\csrc/u8g2_font.c **** #else
 1089              		.loc 1 503 0
 1090 006a 059B     		ldr	r3, [sp, #20]
 502:..\..\u8g2\csrc/u8g2_font.c ****     decode->target_y = u8g2_add_vector_y(decode->target_y, x, -(h+y), decode->dir);
 1091              		.loc 1 502 0
 1092 006c 3871     		strb	r0, [r7, #4]
 503:..\..\u8g2\csrc/u8g2_font.c **** #else
 1093              		.loc 1 503 0
 1094 006e 079A     		ldr	r2, [sp, #28]
 1095 0070 0899     		ldr	r1, [sp, #32]
 502:..\..\u8g2\csrc/u8g2_font.c ****     decode->target_y = u8g2_add_vector_y(decode->target_y, x, -(h+y), decode->dir);
 1096              		.loc 1 502 0
 1097 0072 0600     		movs	r6, r0
 1098 0074 0400     		movs	r4, r0
 503:..\..\u8g2\csrc/u8g2_font.c **** #else
 1099              		.loc 1 503 0
 1100 0076 7879     		ldrb	r0, [r7, #5]
 1101 0078 FFF7FEFF 		bl	u8g2_add_vector_y
 1102              	.LVL140:
 1103              	.LBB55:
 519:..\..\u8g2\csrc/u8g2_font.c ****       {
 1104              		.loc 1 519 0
 1105 007c 059B     		ldr	r3, [sp, #20]
 1106              	.LBE55:
 503:..\..\u8g2\csrc/u8g2_font.c **** #else
 1107              		.loc 1 503 0
 1108 007e 0200     		movs	r2, r0
 1109 0080 0100     		movs	r1, r0
 1110 0082 7871     		strb	r0, [r7, #5]
 1111              	.LVL141:
 1112              	.LBB56:
 519:..\..\u8g2\csrc/u8g2_font.c ****       {
 1113              		.loc 1 519 0
 1114 0084 032B     		cmp	r3, #3
 1115 0086 2CD8     		bhi	.L54
 1116 0088 1800     		movs	r0, r3
 1117              	.LVL142:
 1118 008a FFF7FEFF 		bl	__gnu_thumb1_case_uqi
 1119              	.L47:
 1120 008e 02       		.byte	(.L46-.L47)/2
 1121 008f 09       		.byte	(.L48-.L47)/2
ARM GAS  C:\Users\gjl\AppData\Local\Temp\ccg70AS9.s 			page 41


 1122 0090 12       		.byte	(.L49-.L47)/2
 1123 0091 20       		.byte	(.L50-.L47)/2
 1124              		.p2align 1
 1125              	.L46:
 522:..\..\u8g2\csrc/u8g2_font.c **** 	    y1 += h;
 1126              		.loc 1 522 0
 1127 0092 039B     		ldr	r3, [sp, #12]
 523:..\..\u8g2\csrc/u8g2_font.c **** 	    break;
 1128              		.loc 1 523 0
 1129 0094 0498     		ldr	r0, [sp, #16]
 522:..\..\u8g2\csrc/u8g2_font.c **** 	    y1 += h;
 1130              		.loc 1 522 0
 1131 0096 F418     		adds	r4, r6, r3
 523:..\..\u8g2\csrc/u8g2_font.c **** 	    break;
 1132              		.loc 1 523 0
 1133 0098 8118     		adds	r1, r0, r2
 522:..\..\u8g2\csrc/u8g2_font.c **** 	    y1 += h;
 1134              		.loc 1 522 0
 1135 009a E3B2     		uxtb	r3, r4
 1136              	.LVL143:
 523:..\..\u8g2\csrc/u8g2_font.c **** 	    break;
 1137              		.loc 1 523 0
 1138 009c C9B2     		uxtb	r1, r1
 1139              	.LVL144:
 524:..\..\u8g2\csrc/u8g2_font.c **** 	case 1:
 1140              		.loc 1 524 0
 1141 009e 22E0     		b	.L45
 1142              	.LVL145:
 1143              	.L48:
 527:..\..\u8g2\csrc/u8g2_font.c **** 	    x1++;
 1144              		.loc 1 527 0
 1145 00a0 049B     		ldr	r3, [sp, #16]
 529:..\..\u8g2\csrc/u8g2_font.c **** 	    break;
 1146              		.loc 1 529 0
 1147 00a2 0398     		ldr	r0, [sp, #12]
 527:..\..\u8g2\csrc/u8g2_font.c **** 	    x1++;
 1148              		.loc 1 527 0
 1149 00a4 F61A     		subs	r6, r6, r3
 1150              	.LVL146:
 528:..\..\u8g2\csrc/u8g2_font.c **** 	    y1 += decode->glyph_width;
 1151              		.loc 1 528 0
 1152 00a6 0134     		adds	r4, r4, #1
 529:..\..\u8g2\csrc/u8g2_font.c **** 	    break;
 1153              		.loc 1 529 0
 1154 00a8 1118     		adds	r1, r2, r0
 527:..\..\u8g2\csrc/u8g2_font.c **** 	    x1++;
 1155              		.loc 1 527 0
 1156 00aa 0136     		adds	r6, r6, #1
 1157              	.LVL147:
 528:..\..\u8g2\csrc/u8g2_font.c **** 	    y1 += decode->glyph_width;
 1158              		.loc 1 528 0
 1159 00ac E3B2     		uxtb	r3, r4
 1160              	.LVL148:
 529:..\..\u8g2\csrc/u8g2_font.c **** 	    break;
 1161              		.loc 1 529 0
 1162 00ae C9B2     		uxtb	r1, r1
 1163              	.LVL149:
ARM GAS  C:\Users\gjl\AppData\Local\Temp\ccg70AS9.s 			page 42


 1164 00b0 0BE0     		b	.L60
 1165              	.LVL150:
 1166              	.L49:
 533:..\..\u8g2\csrc/u8g2_font.c **** 	    x1++;
 1167              		.loc 1 533 0
 1168 00b2 0122     		movs	r2, #1
 1169 00b4 039B     		ldr	r3, [sp, #12]
 536:..\..\u8g2\csrc/u8g2_font.c **** 	    y1++;
 1170              		.loc 1 536 0
 1171 00b6 0498     		ldr	r0, [sp, #16]
 533:..\..\u8g2\csrc/u8g2_font.c **** 	    x1++;
 1172              		.loc 1 533 0
 1173 00b8 D61A     		subs	r6, r2, r3
 1174              	.LVL151:
 1175 00ba A619     		adds	r6, r4, r6
 1176              	.LVL152:
 534:..\..\u8g2\csrc/u8g2_font.c **** 	    y0 -= h;
 1177              		.loc 1 534 0
 1178 00bc A418     		adds	r4, r4, r2
 536:..\..\u8g2\csrc/u8g2_font.c **** 	    y1++;
 1179              		.loc 1 536 0
 1180 00be 121A     		subs	r2, r2, r0
 1181 00c0 8A18     		adds	r2, r1, r2
 537:..\..\u8g2\csrc/u8g2_font.c **** 	    break;	  
 1182              		.loc 1 537 0
 1183 00c2 0131     		adds	r1, r1, #1
 534:..\..\u8g2\csrc/u8g2_font.c **** 	    y0 -= h;
 1184              		.loc 1 534 0
 1185 00c4 E3B2     		uxtb	r3, r4
 1186              	.LVL153:
 537:..\..\u8g2\csrc/u8g2_font.c **** 	    break;	  
 1187              		.loc 1 537 0
 1188 00c6 C9B2     		uxtb	r1, r1
 1189              	.LVL154:
 536:..\..\u8g2\csrc/u8g2_font.c **** 	    y1++;
 1190              		.loc 1 536 0
 1191 00c8 D2B2     		uxtb	r2, r2
 1192              	.LVL155:
 1193              	.L60:
 533:..\..\u8g2\csrc/u8g2_font.c **** 	    x1++;
 1194              		.loc 1 533 0
 1195 00ca F6B2     		uxtb	r6, r6
 538:..\..\u8g2\csrc/u8g2_font.c **** 	case 3:
 1196              		.loc 1 538 0
 1197 00cc 0BE0     		b	.L45
 1198              	.LVL156:
 1199              	.L50:
 542:..\..\u8g2\csrc/u8g2_font.c **** 	    y1++;
 1200              		.loc 1 542 0
 1201 00ce 039A     		ldr	r2, [sp, #12]
 540:..\..\u8g2\csrc/u8g2_font.c **** 	    y0 -= decode->glyph_width;
 1202              		.loc 1 540 0
 1203 00d0 049B     		ldr	r3, [sp, #16]
 542:..\..\u8g2\csrc/u8g2_font.c **** 	    y1++;
 1204              		.loc 1 542 0
 1205 00d2 8A1A     		subs	r2, r1, r2
 540:..\..\u8g2\csrc/u8g2_font.c **** 	    y0 -= decode->glyph_width;
ARM GAS  C:\Users\gjl\AppData\Local\Temp\ccg70AS9.s 			page 43


 1206              		.loc 1 540 0
 1207 00d4 9C19     		adds	r4, r3, r6
 542:..\..\u8g2\csrc/u8g2_font.c **** 	    y1++;
 1208              		.loc 1 542 0
 1209 00d6 0132     		adds	r2, r2, #1
 543:..\..\u8g2\csrc/u8g2_font.c **** 	    break;	  
 1210              		.loc 1 543 0
 1211 00d8 0131     		adds	r1, r1, #1
 540:..\..\u8g2\csrc/u8g2_font.c **** 	    y0 -= decode->glyph_width;
 1212              		.loc 1 540 0
 1213 00da E3B2     		uxtb	r3, r4
 1214              	.LVL157:
 543:..\..\u8g2\csrc/u8g2_font.c **** 	    break;	  
 1215              		.loc 1 543 0
 1216 00dc C9B2     		uxtb	r1, r1
 1217              	.LVL158:
 542:..\..\u8g2\csrc/u8g2_font.c **** 	    y1++;
 1218              		.loc 1 542 0
 1219 00de D2B2     		uxtb	r2, r2
 544:..\..\u8g2\csrc/u8g2_font.c ****       }
 1220              		.loc 1 544 0
 1221 00e0 01E0     		b	.L45
 1222              	.LVL159:
 1223              	.L54:
 516:..\..\u8g2\csrc/u8g2_font.c ****       
 1224              		.loc 1 516 0
 1225 00e2 0100     		movs	r1, r0
 515:..\..\u8g2\csrc/u8g2_font.c ****       y1 = y0;
 1226              		.loc 1 515 0
 1227 00e4 3300     		movs	r3, r6
 1228              	.LVL160:
 1229              	.L45:
 551:..\..\u8g2\csrc/u8g2_font.c **** 	return d;
 1230              		.loc 1 551 0
 1231 00e6 0091     		str	r1, [sp]
 1232 00e8 2800     		movs	r0, r5
 1233 00ea 3100     		movs	r1, r6
 1234              	.LVL161:
 1235 00ec FFF7FEFF 		bl	u8g2_IsIntersection
 1236              	.LVL162:
 1237 00f0 0028     		cmp	r0, #0
 1238 00f2 2CD0     		beq	.L44
 1239              	.LBE56:
 557:..\..\u8g2\csrc/u8g2_font.c ****     decode->y = 0;
 1240              		.loc 1 557 0
 1241 00f4 2B00     		movs	r3, r5
 1242 00f6 0022     		movs	r2, #0
 1243 00f8 5033     		adds	r3, r3, #80
 1244 00fa 9A71     		strb	r2, [r3, #6]
 558:..\..\u8g2\csrc/u8g2_font.c ****     
 1245              		.loc 1 558 0
 1246 00fc DA71     		strb	r2, [r3, #7]
 1247              	.LVL163:
 1248              	.L53:
 563:..\..\u8g2\csrc/u8g2_font.c ****       b = u8g2_font_decode_get_unsigned_bits(decode, u8g2->font_info.bits_per_1);
 1249              		.loc 1 563 0
 1250 00fe 2B00     		movs	r3, r5
ARM GAS  C:\Users\gjl\AppData\Local\Temp\ccg70AS9.s 			page 44


 1251 0100 6233     		adds	r3, r3, #98
 1252 0102 1978     		ldrb	r1, [r3]
 1253 0104 3800     		movs	r0, r7
 1254 0106 FFF7FEFF 		bl	u8g2_font_decode_get_unsigned_bits
 1255              	.LVL164:
 564:..\..\u8g2\csrc/u8g2_font.c ****       do
 1256              		.loc 1 564 0
 1257 010a 2B00     		movs	r3, r5
 1258 010c 6333     		adds	r3, r3, #99
 563:..\..\u8g2\csrc/u8g2_font.c ****       b = u8g2_font_decode_get_unsigned_bits(decode, u8g2->font_info.bits_per_1);
 1259              		.loc 1 563 0
 1260 010e 0600     		movs	r6, r0
 1261              	.LVL165:
 564:..\..\u8g2\csrc/u8g2_font.c ****       do
 1262              		.loc 1 564 0
 1263 0110 1978     		ldrb	r1, [r3]
 1264 0112 3800     		movs	r0, r7
 1265              	.LVL166:
 1266 0114 FFF7FEFF 		bl	u8g2_font_decode_get_unsigned_bits
 1267              	.LVL167:
 1268 0118 0400     		movs	r4, r0
 1269              	.LVL168:
 1270              	.L52:
 567:..\..\u8g2\csrc/u8g2_font.c **** 	u8g2_font_decode_len(u8g2, b, 1);
 1271              		.loc 1 567 0 discriminator 1
 1272 011a 0022     		movs	r2, #0
 1273 011c 3100     		movs	r1, r6
 1274 011e 2800     		movs	r0, r5
 1275 0120 FFF7FEFF 		bl	u8g2_font_decode_len
 1276              	.LVL169:
 568:..\..\u8g2\csrc/u8g2_font.c ****       } while( u8g2_font_decode_get_unsigned_bits(decode, 1) != 0 );
 1277              		.loc 1 568 0 discriminator 1
 1278 0124 2100     		movs	r1, r4
 1279 0126 2800     		movs	r0, r5
 1280 0128 0122     		movs	r2, #1
 1281 012a FFF7FEFF 		bl	u8g2_font_decode_len
 1282              	.LVL170:
 569:..\..\u8g2\csrc/u8g2_font.c **** 
 1283              		.loc 1 569 0 discriminator 1
 1284 012e 0121     		movs	r1, #1
 1285 0130 3800     		movs	r0, r7
 1286 0132 FFF7FEFF 		bl	u8g2_font_decode_get_unsigned_bits
 1287              	.LVL171:
 1288 0136 0028     		cmp	r0, #0
 1289 0138 EFD1     		bne	.L52
 571:..\..\u8g2\csrc/u8g2_font.c **** 	break;
 1290              		.loc 1 571 0
 1291 013a 2B00     		movs	r3, r5
 1292 013c 0722     		movs	r2, #7
 1293 013e 5033     		adds	r3, r3, #80
 1294 0140 9A56     		ldrsb	r2, [r3, r2]
 1295 0142 0699     		ldr	r1, [sp, #24]
 1296 0144 8A42     		cmp	r2, r1
 1297 0146 DADB     		blt	.L53
 576:..\..\u8g2\csrc/u8g2_font.c ****   }
 1298              		.loc 1 576 0
 1299 0148 1B7B     		ldrb	r3, [r3, #12]
ARM GAS  C:\Users\gjl\AppData\Local\Temp\ccg70AS9.s 			page 45


 1300 014a 7C35     		adds	r5, r5, #124
 1301              	.LVL172:
 1302 014c 2B70     		strb	r3, [r5]
 1303              	.LVL173:
 1304              	.L44:
 579:..\..\u8g2\csrc/u8g2_font.c **** 
 1305              		.loc 1 579 0
 1306 014e 0998     		ldr	r0, [sp, #36]
 1307 0150 0BB0     		add	sp, sp, #44
 1308              		@ sp needed
 1309              	.LVL174:
 1310 0152 F0BD     		pop	{r4, r5, r6, r7, pc}
 1311              		.cfi_endproc
 1312              	.LFE15:
 1313              		.size	u8g2_font_decode_glyph, .-u8g2_font_decode_glyph
 1314              		.section	.text.u8g2_font_get_glyph_data,"ax",%progbits
 1315              		.align	1
 1316              		.global	u8g2_font_get_glyph_data
 1317              		.code	16
 1318              		.thumb_func
 1319              		.type	u8g2_font_get_glyph_data, %function
 1320              	u8g2_font_get_glyph_data:
 1321              	.LFB16:
 590:..\..\u8g2\csrc/u8g2_font.c ****   const uint8_t *font = u8g2->font;
 1322              		.loc 1 590 0
 1323              		.cfi_startproc
 1324              		@ args = 0, pretend = 0, frame = 0
 1325              		@ frame_needed = 0, uses_anonymous_args = 0
 1326              		@ link register save eliminated.
 1327              	.LVL175:
 592:..\..\u8g2\csrc/u8g2_font.c **** 
 1328              		.loc 1 592 0
 1329 0000 826C     		ldr	r2, [r0, #72]
 1330 0002 1732     		adds	r2, r2, #23
 1331              	.LVL176:
 595:..\..\u8g2\csrc/u8g2_font.c ****   {
 1332              		.loc 1 595 0
 1333 0004 FF29     		cmp	r1, #255
 1334 0006 10D8     		bhi	.L62
 597:..\..\u8g2\csrc/u8g2_font.c ****     {
 1335              		.loc 1 597 0
 1336 0008 6029     		cmp	r1, #96
 1337 000a 01D9     		bls	.L63
 599:..\..\u8g2\csrc/u8g2_font.c ****     }
 1338              		.loc 1 599 0
 1339 000c 7430     		adds	r0, r0, #116
 1340              	.LVL177:
 1341 000e 02E0     		b	.L72
 1342              	.LVL178:
 1343              	.L63:
 601:..\..\u8g2\csrc/u8g2_font.c ****     {
 1344              		.loc 1 601 0
 1345 0010 4029     		cmp	r1, #64
 1346 0012 02D9     		bls	.L67
 603:..\..\u8g2\csrc/u8g2_font.c ****     }
 1347              		.loc 1 603 0
 1348 0014 7230     		adds	r0, r0, #114
ARM GAS  C:\Users\gjl\AppData\Local\Temp\ccg70AS9.s 			page 46


 1349              	.LVL179:
 1350              	.L72:
 1351 0016 0388     		ldrh	r3, [r0]
 1352              	.L73:
 1353 0018 D218     		adds	r2, r2, r3
 1354              	.LVL180:
 1355              	.L67:
 608:..\..\u8g2\csrc/u8g2_font.c **** 	break;
 1356              		.loc 1 608 0
 1357 001a 5378     		ldrb	r3, [r2, #1]
 1358 001c 002B     		cmp	r3, #0
 1359 001e 13D0     		beq	.L71
 610:..\..\u8g2\csrc/u8g2_font.c ****       {
 1360              		.loc 1 610 0
 1361 0020 1078     		ldrb	r0, [r2]
 1362 0022 8842     		cmp	r0, r1
 1363 0024 F8D1     		bne	.L73
 612:..\..\u8g2\csrc/u8g2_font.c ****       }
 1364              		.loc 1 612 0
 1365 0026 901C     		adds	r0, r2, #2
 1366 0028 0FE0     		b	.L65
 1367              	.LVL181:
 1368              	.L62:
 1369              	.LBB57:
 621:..\..\u8g2\csrc/u8g2_font.c ****     for(;;)
 1370              		.loc 1 621 0
 1371 002a 7630     		adds	r0, r0, #118
 1372              	.LVL182:
 1373 002c 0088     		ldrh	r0, [r0]
 1374              	.LVL183:
 1375 002e 1018     		adds	r0, r2, r0
 1376              	.LVL184:
 1377              	.L69:
 624:..\..\u8g2\csrc/u8g2_font.c ****       e <<= 8;
 1378              		.loc 1 624 0
 1379 0030 0378     		ldrb	r3, [r0]
 1380              	.LVL185:
 626:..\..\u8g2\csrc/u8g2_font.c ****   
 1381              		.loc 1 626 0
 1382 0032 4278     		ldrb	r2, [r0, #1]
 625:..\..\u8g2\csrc/u8g2_font.c ****       e |= u8x8_pgm_read( font + 1 );
 1383              		.loc 1 625 0
 1384 0034 1B02     		lsls	r3, r3, #8
 1385              	.LVL186:
 626:..\..\u8g2\csrc/u8g2_font.c ****   
 1386              		.loc 1 626 0
 1387 0036 1343     		orrs	r3, r2
 1388              	.LVL187:
 628:..\..\u8g2\csrc/u8g2_font.c **** 	break;
 1389              		.loc 1 628 0
 1390 0038 06D0     		beq	.L71
 631:..\..\u8g2\csrc/u8g2_font.c ****       {
 1391              		.loc 1 631 0
 1392 003a 9942     		cmp	r1, r3
 1393 003c 01D1     		bne	.L68
 633:..\..\u8g2\csrc/u8g2_font.c ****       }
 1394              		.loc 1 633 0
ARM GAS  C:\Users\gjl\AppData\Local\Temp\ccg70AS9.s 			page 47


 1395 003e 0330     		adds	r0, r0, #3
 1396              	.LVL188:
 1397 0040 03E0     		b	.L65
 1398              	.LVL189:
 1399              	.L68:
 635:..\..\u8g2\csrc/u8g2_font.c ****     }  
 1400              		.loc 1 635 0
 1401 0042 8378     		ldrb	r3, [r0, #2]
 1402              	.LVL190:
 1403 0044 C018     		adds	r0, r0, r3
 1404              	.LVL191:
 636:..\..\u8g2\csrc/u8g2_font.c ****   }
 1405              		.loc 1 636 0
 1406 0046 F3E7     		b	.L69
 1407              	.LVL192:
 1408              	.L71:
 1409              	.LBE57:
 640:..\..\u8g2\csrc/u8g2_font.c **** }
 1410              		.loc 1 640 0
 1411 0048 1800     		movs	r0, r3
 1412              	.L65:
 641:..\..\u8g2\csrc/u8g2_font.c **** 
 1413              		.loc 1 641 0
 1414              		@ sp needed
 1415 004a 7047     		bx	lr
 1416              		.cfi_endproc
 1417              	.LFE16:
 1418              		.size	u8g2_font_get_glyph_data, .-u8g2_font_get_glyph_data
 1419              		.section	.text.u8g2_GetGlyphHorizontalProperties,"ax",%progbits
 1420              		.align	1
 1421              		.code	16
 1422              		.thumb_func
 1423              		.type	u8g2_GetGlyphHorizontalProperties, %function
 1424              	u8g2_GetGlyphHorizontalProperties:
 1425              	.LFB41:
 978:..\..\u8g2\csrc/u8g2_font.c **** 
 979:..\..\u8g2\csrc/u8g2_font.c **** void u8g2_SetFontPosCenter(u8g2_t *u8g2)
 980:..\..\u8g2\csrc/u8g2_font.c **** {
 981:..\..\u8g2\csrc/u8g2_font.c ****   u8g2->font_calc_vref = u8g2_font_calc_vref_center;
 982:..\..\u8g2\csrc/u8g2_font.c **** }
 983:..\..\u8g2\csrc/u8g2_font.c **** 
 984:..\..\u8g2\csrc/u8g2_font.c **** /*===============================================*/
 985:..\..\u8g2\csrc/u8g2_font.c **** 
 986:..\..\u8g2\csrc/u8g2_font.c **** void u8g2_SetFont(u8g2_t *u8g2, const uint8_t  *font)
 987:..\..\u8g2\csrc/u8g2_font.c **** {
 988:..\..\u8g2\csrc/u8g2_font.c ****   if ( u8g2->font != font )
 989:..\..\u8g2\csrc/u8g2_font.c ****   {
 990:..\..\u8g2\csrc/u8g2_font.c ****     u8g2->font = font;
 991:..\..\u8g2\csrc/u8g2_font.c ****     u8g2_read_font_info(&(u8g2->font_info), font);
 992:..\..\u8g2\csrc/u8g2_font.c ****     u8g2_UpdateRefHeight(u8g2);
 993:..\..\u8g2\csrc/u8g2_font.c ****     /* u8g2_SetFontPosBaseline(u8g2); */ /* removed with issue 195 */
 994:..\..\u8g2\csrc/u8g2_font.c ****   }
 995:..\..\u8g2\csrc/u8g2_font.c **** }
 996:..\..\u8g2\csrc/u8g2_font.c **** 
 997:..\..\u8g2\csrc/u8g2_font.c **** /*===============================================*/
 998:..\..\u8g2\csrc/u8g2_font.c **** 
 999:..\..\u8g2\csrc/u8g2_font.c **** /* string calculation is stilll not 100% perfect as it addes the initial string offset to the overa
ARM GAS  C:\Users\gjl\AppData\Local\Temp\ccg70AS9.s 			page 48


1000:..\..\u8g2\csrc/u8g2_font.c **** static u8g2_uint_t u8g2_string_width(u8g2_t *u8g2, const char *str) U8G2_NOINLINE;
1001:..\..\u8g2\csrc/u8g2_font.c **** static u8g2_uint_t u8g2_string_width(u8g2_t *u8g2, const char *str)
1002:..\..\u8g2\csrc/u8g2_font.c **** {
1003:..\..\u8g2\csrc/u8g2_font.c ****   uint16_t e;
1004:..\..\u8g2\csrc/u8g2_font.c ****   u8g2_uint_t  w, dx;
1005:..\..\u8g2\csrc/u8g2_font.c ****   
1006:..\..\u8g2\csrc/u8g2_font.c ****   u8g2->font_decode.glyph_width = 0;
1007:..\..\u8g2\csrc/u8g2_font.c ****   u8x8_utf8_init(u8g2_GetU8x8(u8g2));
1008:..\..\u8g2\csrc/u8g2_font.c ****   
1009:..\..\u8g2\csrc/u8g2_font.c ****   /* reset the total width to zero, this will be expanded during calculation */
1010:..\..\u8g2\csrc/u8g2_font.c ****   w = 0;
1011:..\..\u8g2\csrc/u8g2_font.c ****   dx = 0;
1012:..\..\u8g2\csrc/u8g2_font.c **** 
1013:..\..\u8g2\csrc/u8g2_font.c ****   // printf("str=<%s>\n", str);
1014:..\..\u8g2\csrc/u8g2_font.c **** 	
1015:..\..\u8g2\csrc/u8g2_font.c ****   for(;;)
1016:..\..\u8g2\csrc/u8g2_font.c ****   {
1017:..\..\u8g2\csrc/u8g2_font.c ****     e = u8g2->u8x8.next_cb(u8g2_GetU8x8(u8g2), (uint8_t)*str);
1018:..\..\u8g2\csrc/u8g2_font.c ****     if ( e == 0x0ffff )
1019:..\..\u8g2\csrc/u8g2_font.c ****       break;
1020:..\..\u8g2\csrc/u8g2_font.c ****     str++;
1021:..\..\u8g2\csrc/u8g2_font.c ****     if ( e != 0x0fffe )
1022:..\..\u8g2\csrc/u8g2_font.c ****     {
1023:..\..\u8g2\csrc/u8g2_font.c ****       dx = u8g2_GetGlyphWidth(u8g2, e);		/* delta x value of the glyph */
1024:..\..\u8g2\csrc/u8g2_font.c ****       w += dx;
1025:..\..\u8g2\csrc/u8g2_font.c ****     }
1026:..\..\u8g2\csrc/u8g2_font.c ****   }
1027:..\..\u8g2\csrc/u8g2_font.c ****   
1028:..\..\u8g2\csrc/u8g2_font.c ****   /* adjust the last glyph, check for issue #16: do not adjust if width is 0 */
1029:..\..\u8g2\csrc/u8g2_font.c ****   if ( u8g2->font_decode.glyph_width != 0 )
1030:..\..\u8g2\csrc/u8g2_font.c ****   {
1031:..\..\u8g2\csrc/u8g2_font.c ****     w -= dx;
1032:..\..\u8g2\csrc/u8g2_font.c ****     w += u8g2->font_decode.glyph_width;  /* the real pixel width of the glyph, sideeffect of GetGly
1033:..\..\u8g2\csrc/u8g2_font.c ****     /* issue #46: we have to add the x offset also */
1034:..\..\u8g2\csrc/u8g2_font.c ****     w += u8g2->glyph_x_offset;	/* this value is set as a side effect of u8g2_GetGlyphWidth() */
1035:..\..\u8g2\csrc/u8g2_font.c ****   }
1036:..\..\u8g2\csrc/u8g2_font.c ****   // printf("w=%d \n", w);
1037:..\..\u8g2\csrc/u8g2_font.c ****   
1038:..\..\u8g2\csrc/u8g2_font.c ****   return w;  
1039:..\..\u8g2\csrc/u8g2_font.c **** }
1040:..\..\u8g2\csrc/u8g2_font.c **** 
1041:..\..\u8g2\csrc/u8g2_font.c **** static void u8g2_GetGlyphHorizontalProperties(u8g2_t *u8g2, uint16_t requested_encoding, uint8_t *w
1042:..\..\u8g2\csrc/u8g2_font.c **** {
 1426              		.loc 1 1042 0
 1427              		.cfi_startproc
 1428              		@ args = 4, pretend = 0, frame = 0
 1429              		@ frame_needed = 0, uses_anonymous_args = 0
 1430              	.LVL193:
 1431 0000 70B5     		push	{r4, r5, r6, lr}
 1432              		.cfi_def_cfa_offset 16
 1433              		.cfi_offset 4, -16
 1434              		.cfi_offset 5, -12
 1435              		.cfi_offset 6, -8
 1436              		.cfi_offset 14, -4
 1437              		.loc 1 1042 0
 1438 0002 0400     		movs	r4, r0
 1439 0004 1500     		movs	r5, r2
ARM GAS  C:\Users\gjl\AppData\Local\Temp\ccg70AS9.s 			page 49


 1440 0006 1E00     		movs	r6, r3
1043:..\..\u8g2\csrc/u8g2_font.c ****   const uint8_t *glyph_data = u8g2_font_get_glyph_data(u8g2, requested_encoding);
 1441              		.loc 1 1043 0
 1442 0008 FFF7FEFF 		bl	u8g2_font_get_glyph_data
 1443              	.LVL194:
 1444 000c 011E     		subs	r1, r0, #0
 1445              	.LVL195:
1044:..\..\u8g2\csrc/u8g2_font.c ****   if ( glyph_data == NULL )
 1446              		.loc 1 1044 0
 1447 000e 1CD0     		beq	.L74
1045:..\..\u8g2\csrc/u8g2_font.c ****     return; 
1046:..\..\u8g2\csrc/u8g2_font.c ****   
1047:..\..\u8g2\csrc/u8g2_font.c ****   u8g2_font_setup_decode(u8g2, glyph_data);
 1448              		.loc 1 1047 0
 1449 0010 2000     		movs	r0, r4
 1450              	.LVL196:
 1451 0012 FFF7FEFF 		bl	u8g2_font_setup_decode
 1452              	.LVL197:
1048:..\..\u8g2\csrc/u8g2_font.c ****   *w = u8g2->font_decode.glyph_width;
 1453              		.loc 1 1048 0
 1454 0016 2300     		movs	r3, r4
 1455 0018 5833     		adds	r3, r3, #88
 1456 001a 1B78     		ldrb	r3, [r3]
 1457 001c 2B70     		strb	r3, [r5]
1049:..\..\u8g2\csrc/u8g2_font.c ****   *ox =  u8g2_font_decode_get_signed_bits(&(u8g2->font_decode), u8g2->font_info.bits_per_char_x);
 1458              		.loc 1 1049 0
 1459 001e 2500     		movs	r5, r4
 1460              	.LVL198:
 1461 0020 2300     		movs	r3, r4
 1462 0022 5035     		adds	r5, r5, #80
 1463 0024 6633     		adds	r3, r3, #102
 1464 0026 1978     		ldrb	r1, [r3]
 1465 0028 2800     		movs	r0, r5
 1466 002a FFF7FEFF 		bl	u8g2_font_decode_get_signed_bits
 1467              	.LVL199:
1050:..\..\u8g2\csrc/u8g2_font.c ****   u8g2_font_decode_get_signed_bits(&(u8g2->font_decode), u8g2->font_info.bits_per_char_y);
 1468              		.loc 1 1050 0
 1469 002e 2300     		movs	r3, r4
1049:..\..\u8g2\csrc/u8g2_font.c ****   *ox =  u8g2_font_decode_get_signed_bits(&(u8g2->font_decode), u8g2->font_info.bits_per_char_x);
 1470              		.loc 1 1049 0
 1471 0030 3070     		strb	r0, [r6]
 1472              		.loc 1 1050 0
 1473 0032 6733     		adds	r3, r3, #103
 1474 0034 1978     		ldrb	r1, [r3]
 1475 0036 2800     		movs	r0, r5
1051:..\..\u8g2\csrc/u8g2_font.c ****   *dx = u8g2_font_decode_get_signed_bits(&(u8g2->font_decode), u8g2->font_info.bits_per_delta_x);
 1476              		.loc 1 1051 0
 1477 0038 6834     		adds	r4, r4, #104
 1478              	.LVL200:
1050:..\..\u8g2\csrc/u8g2_font.c ****   u8g2_font_decode_get_signed_bits(&(u8g2->font_decode), u8g2->font_info.bits_per_char_y);
 1479              		.loc 1 1050 0
 1480 003a FFF7FEFF 		bl	u8g2_font_decode_get_signed_bits
 1481              	.LVL201:
 1482              		.loc 1 1051 0
 1483 003e 2178     		ldrb	r1, [r4]
 1484 0040 2800     		movs	r0, r5
 1485 0042 FFF7FEFF 		bl	u8g2_font_decode_get_signed_bits
ARM GAS  C:\Users\gjl\AppData\Local\Temp\ccg70AS9.s 			page 50


 1486              	.LVL202:
 1487 0046 049B     		ldr	r3, [sp, #16]
 1488 0048 1870     		strb	r0, [r3]
 1489              	.LVL203:
 1490              	.L74:
1052:..\..\u8g2\csrc/u8g2_font.c **** }
 1491              		.loc 1 1052 0
 1492              		@ sp needed
 1493              	.LVL204:
 1494 004a 70BD     		pop	{r4, r5, r6, pc}
 1495              		.cfi_endproc
 1496              	.LFE41:
 1497              		.size	u8g2_GetGlyphHorizontalProperties, .-u8g2_GetGlyphHorizontalProperties
 1498              		.section	.text.u8g2_IsGlyph,"ax",%progbits
 1499              		.align	1
 1500              		.global	u8g2_IsGlyph
 1501              		.code	16
 1502              		.thumb_func
 1503              		.type	u8g2_IsGlyph, %function
 1504              	u8g2_IsGlyph:
 1505              	.LFB18:
 661:..\..\u8g2\csrc/u8g2_font.c ****   /* updated to new code */
 1506              		.loc 1 661 0
 1507              		.cfi_startproc
 1508              		@ args = 0, pretend = 0, frame = 0
 1509              		@ frame_needed = 0, uses_anonymous_args = 0
 1510              	.LVL205:
 1511 0000 10B5     		push	{r4, lr}
 1512              		.cfi_def_cfa_offset 8
 1513              		.cfi_offset 4, -8
 1514              		.cfi_offset 14, -4
 663:..\..\u8g2\csrc/u8g2_font.c ****     return 1;
 1515              		.loc 1 663 0
 1516 0002 FFF7FEFF 		bl	u8g2_font_get_glyph_data
 1517              	.LVL206:
 1518 0006 431E     		subs	r3, r0, #1
 1519 0008 9841     		sbcs	r0, r0, r3
 666:..\..\u8g2\csrc/u8g2_font.c **** 
 1520              		.loc 1 666 0
 1521              		@ sp needed
 1522 000a C0B2     		uxtb	r0, r0
 1523 000c 10BD     		pop	{r4, pc}
 1524              		.cfi_endproc
 1525              	.LFE18:
 1526              		.size	u8g2_IsGlyph, .-u8g2_IsGlyph
 1527              		.section	.text.u8g2_GetGlyphWidth,"ax",%progbits
 1528              		.align	1
 1529              		.global	u8g2_GetGlyphWidth
 1530              		.code	16
 1531              		.thumb_func
 1532              		.type	u8g2_GetGlyphWidth, %function
 1533              	u8g2_GetGlyphWidth:
 1534              	.LFB19:
 670:..\..\u8g2\csrc/u8g2_font.c ****   const uint8_t *glyph_data = u8g2_font_get_glyph_data(u8g2, requested_encoding);
 1535              		.loc 1 670 0
 1536              		.cfi_startproc
 1537              		@ args = 0, pretend = 0, frame = 0
ARM GAS  C:\Users\gjl\AppData\Local\Temp\ccg70AS9.s 			page 51


 1538              		@ frame_needed = 0, uses_anonymous_args = 0
 1539              	.LVL207:
 1540 0000 70B5     		push	{r4, r5, r6, lr}
 1541              		.cfi_def_cfa_offset 16
 1542              		.cfi_offset 4, -16
 1543              		.cfi_offset 5, -12
 1544              		.cfi_offset 6, -8
 1545              		.cfi_offset 14, -4
 670:..\..\u8g2\csrc/u8g2_font.c ****   const uint8_t *glyph_data = u8g2_font_get_glyph_data(u8g2, requested_encoding);
 1546              		.loc 1 670 0
 1547 0002 0400     		movs	r4, r0
 671:..\..\u8g2\csrc/u8g2_font.c ****   if ( glyph_data == NULL )
 1548              		.loc 1 671 0
 1549 0004 FFF7FEFF 		bl	u8g2_font_get_glyph_data
 1550              	.LVL208:
 1551 0008 011E     		subs	r1, r0, #0
 1552              	.LVL209:
 672:..\..\u8g2\csrc/u8g2_font.c ****     return 0; 
 1553              		.loc 1 672 0
 1554 000a 17D0     		beq	.L81
 675:..\..\u8g2\csrc/u8g2_font.c ****   u8g2->glyph_x_offset = u8g2_font_decode_get_signed_bits(&(u8g2->font_decode), u8g2->font_info.bit
 1555              		.loc 1 675 0
 1556 000c 2000     		movs	r0, r4
 1557              	.LVL210:
 1558 000e FFF7FEFF 		bl	u8g2_font_setup_decode
 1559              	.LVL211:
 676:..\..\u8g2\csrc/u8g2_font.c ****   u8g2_font_decode_get_signed_bits(&(u8g2->font_decode), u8g2->font_info.bits_per_char_y);
 1560              		.loc 1 676 0
 1561 0012 2500     		movs	r5, r4
 1562 0014 2300     		movs	r3, r4
 1563 0016 5035     		adds	r5, r5, #80
 1564 0018 6633     		adds	r3, r3, #102
 1565 001a 1978     		ldrb	r1, [r3]
 1566 001c 2800     		movs	r0, r5
 1567 001e FFF7FEFF 		bl	u8g2_font_decode_get_signed_bits
 1568              	.LVL212:
 1569 0022 2300     		movs	r3, r4
 1570 0024 7B33     		adds	r3, r3, #123
 1571 0026 1870     		strb	r0, [r3]
 677:..\..\u8g2\csrc/u8g2_font.c ****   
 1572              		.loc 1 677 0
 1573 0028 143B     		subs	r3, r3, #20
 1574 002a 1978     		ldrb	r1, [r3]
 1575 002c 2800     		movs	r0, r5
 681:..\..\u8g2\csrc/u8g2_font.c **** }
 1576              		.loc 1 681 0
 1577 002e 6834     		adds	r4, r4, #104
 1578              	.LVL213:
 677:..\..\u8g2\csrc/u8g2_font.c ****   
 1579              		.loc 1 677 0
 1580 0030 FFF7FEFF 		bl	u8g2_font_decode_get_signed_bits
 1581              	.LVL214:
 681:..\..\u8g2\csrc/u8g2_font.c **** }
 1582              		.loc 1 681 0
 1583 0034 2178     		ldrb	r1, [r4]
 1584 0036 2800     		movs	r0, r5
 1585 0038 FFF7FEFF 		bl	u8g2_font_decode_get_signed_bits
ARM GAS  C:\Users\gjl\AppData\Local\Temp\ccg70AS9.s 			page 52


 1586              	.LVL215:
 1587              	.L81:
 682:..\..\u8g2\csrc/u8g2_font.c **** 
 1588              		.loc 1 682 0
 1589              		@ sp needed
 1590 003c 70BD     		pop	{r4, r5, r6, pc}
 1591              		.cfi_endproc
 1592              	.LFE19:
 1593              		.size	u8g2_GetGlyphWidth, .-u8g2_GetGlyphWidth
 1594              		.section	.text.u8g2_string_width,"ax",%progbits
 1595              		.align	1
 1596              		.code	16
 1597              		.thumb_func
 1598              		.type	u8g2_string_width, %function
 1599              	u8g2_string_width:
 1600              	.LFB40:
1002:..\..\u8g2\csrc/u8g2_font.c ****   uint16_t e;
 1601              		.loc 1 1002 0
 1602              		.cfi_startproc
 1603              		@ args = 0, pretend = 0, frame = 8
 1604              		@ frame_needed = 0, uses_anonymous_args = 0
 1605              	.LVL216:
1006:..\..\u8g2\csrc/u8g2_font.c ****   u8x8_utf8_init(u8g2_GetU8x8(u8g2));
 1606              		.loc 1 1006 0
 1607 0000 0300     		movs	r3, r0
1002:..\..\u8g2\csrc/u8g2_font.c ****   uint16_t e;
 1608              		.loc 1 1002 0
 1609 0002 F7B5     		push	{r0, r1, r2, r4, r5, r6, r7, lr}
 1610              		.cfi_def_cfa_offset 32
 1611              		.cfi_offset 0, -32
 1612              		.cfi_offset 1, -28
 1613              		.cfi_offset 2, -24
 1614              		.cfi_offset 4, -20
 1615              		.cfi_offset 5, -16
 1616              		.cfi_offset 6, -12
 1617              		.cfi_offset 7, -8
 1618              		.cfi_offset 14, -4
1006:..\..\u8g2\csrc/u8g2_font.c ****   u8x8_utf8_init(u8g2_GetU8x8(u8g2));
 1619              		.loc 1 1006 0
 1620 0004 0024     		movs	r4, #0
 1621 0006 5833     		adds	r3, r3, #88
 1622 0008 1C70     		strb	r4, [r3]
1002:..\..\u8g2\csrc/u8g2_font.c ****   uint16_t e;
 1623              		.loc 1 1002 0
 1624 000a 0500     		movs	r5, r0
 1625 000c 0F00     		movs	r7, r1
1006:..\..\u8g2\csrc/u8g2_font.c ****   u8x8_utf8_init(u8g2_GetU8x8(u8g2));
 1626              		.loc 1 1006 0
 1627 000e 0193     		str	r3, [sp, #4]
1010:..\..\u8g2\csrc/u8g2_font.c ****   dx = 0;
 1628              		.loc 1 1010 0
 1629 0010 2600     		movs	r6, r4
1007:..\..\u8g2\csrc/u8g2_font.c ****   
 1630              		.loc 1 1007 0
 1631 0012 FFF7FEFF 		bl	u8x8_utf8_init
 1632              	.LVL217:
 1633              	.L84:
ARM GAS  C:\Users\gjl\AppData\Local\Temp\ccg70AS9.s 			page 53


1017:..\..\u8g2\csrc/u8g2_font.c ****     if ( e == 0x0ffff )
 1634              		.loc 1 1017 0
 1635 0016 3978     		ldrb	r1, [r7]
 1636 0018 6B68     		ldr	r3, [r5, #4]
 1637 001a 2800     		movs	r0, r5
 1638 001c 9847     		blx	r3
 1639              	.LVL218:
1018:..\..\u8g2\csrc/u8g2_font.c ****       break;
 1640              		.loc 1 1018 0
 1641 001e 0E4B     		ldr	r3, .L91
1017:..\..\u8g2\csrc/u8g2_font.c ****     if ( e == 0x0ffff )
 1642              		.loc 1 1017 0
 1643 0020 0100     		movs	r1, r0
 1644              	.LVL219:
1018:..\..\u8g2\csrc/u8g2_font.c ****       break;
 1645              		.loc 1 1018 0
 1646 0022 9842     		cmp	r0, r3
 1647 0024 0AD0     		beq	.L85
1021:..\..\u8g2\csrc/u8g2_font.c ****     {
 1648              		.loc 1 1021 0
 1649 0026 0D4B     		ldr	r3, .L91+4
1020:..\..\u8g2\csrc/u8g2_font.c ****     if ( e != 0x0fffe )
 1650              		.loc 1 1020 0
 1651 0028 0137     		adds	r7, r7, #1
 1652              	.LVL220:
1021:..\..\u8g2\csrc/u8g2_font.c ****     {
 1653              		.loc 1 1021 0
 1654 002a 9842     		cmp	r0, r3
 1655 002c F3D0     		beq	.L84
1023:..\..\u8g2\csrc/u8g2_font.c ****       w += dx;
 1656              		.loc 1 1023 0
 1657 002e 2800     		movs	r0, r5
 1658              	.LVL221:
 1659 0030 FFF7FEFF 		bl	u8g2_GetGlyphWidth
 1660              	.LVL222:
 1661 0034 C4B2     		uxtb	r4, r0
 1662              	.LVL223:
1024:..\..\u8g2\csrc/u8g2_font.c ****     }
 1663              		.loc 1 1024 0
 1664 0036 3619     		adds	r6, r6, r4
 1665              	.LVL224:
 1666 0038 F6B2     		uxtb	r6, r6
 1667              	.LVL225:
 1668 003a ECE7     		b	.L84
 1669              	.LVL226:
 1670              	.L85:
1029:..\..\u8g2\csrc/u8g2_font.c ****   {
 1671              		.loc 1 1029 0
 1672 003c 019B     		ldr	r3, [sp, #4]
 1673 003e 1B78     		ldrb	r3, [r3]
 1674 0040 5BB2     		sxtb	r3, r3
 1675 0042 002B     		cmp	r3, #0
 1676 0044 05D0     		beq	.L87
 1677              	.LVL227:
1034:..\..\u8g2\csrc/u8g2_font.c ****   }
 1678              		.loc 1 1034 0
 1679 0046 7B35     		adds	r5, r5, #123
ARM GAS  C:\Users\gjl\AppData\Local\Temp\ccg70AS9.s 			page 54


 1680              	.LVL228:
 1681 0048 2878     		ldrb	r0, [r5]
 1682              	.LVL229:
 1683 004a C318     		adds	r3, r0, r3
 1684              	.LVL230:
 1685 004c F618     		adds	r6, r6, r3
 1686              	.LVL231:
 1687 004e 361B     		subs	r6, r6, r4
 1688 0050 F6B2     		uxtb	r6, r6
 1689              	.LVL232:
 1690              	.L87:
1039:..\..\u8g2\csrc/u8g2_font.c **** 
 1691              		.loc 1 1039 0
 1692 0052 3000     		movs	r0, r6
 1693              		@ sp needed
 1694              	.LVL233:
 1695              	.LVL234:
 1696              	.LVL235:
 1697 0054 FEBD     		pop	{r1, r2, r3, r4, r5, r6, r7, pc}
 1698              	.L92:
 1699 0056 C046     		.align	2
 1700              	.L91:
 1701 0058 FFFF0000 		.word	65535
 1702 005c FEFF0000 		.word	65534
 1703              		.cfi_endproc
 1704              	.LFE40:
 1705              		.size	u8g2_string_width, .-u8g2_string_width
 1706              		.section	.text.u8g2_SetFontMode,"ax",%progbits
 1707              		.align	1
 1708              		.global	u8g2_SetFontMode
 1709              		.code	16
 1710              		.thumb_func
 1711              		.type	u8g2_SetFontMode, %function
 1712              	u8g2_SetFontMode:
 1713              	.LFB20:
 693:..\..\u8g2\csrc/u8g2_font.c ****   u8g2->font_decode.is_transparent = is_transparent;		// new font procedures
 1714              		.loc 1 693 0
 1715              		.cfi_startproc
 1716              		@ args = 0, pretend = 0, frame = 0
 1717              		@ frame_needed = 0, uses_anonymous_args = 0
 1718              		@ link register save eliminated.
 1719              	.LVL236:
 694:..\..\u8g2\csrc/u8g2_font.c **** }
 1720              		.loc 1 694 0
 1721 0000 5B30     		adds	r0, r0, #91
 1722              	.LVL237:
 1723 0002 0170     		strb	r1, [r0]
 695:..\..\u8g2\csrc/u8g2_font.c **** 
 1724              		.loc 1 695 0
 1725              		@ sp needed
 1726 0004 7047     		bx	lr
 1727              		.cfi_endproc
 1728              	.LFE20:
 1729              		.size	u8g2_SetFontMode, .-u8g2_SetFontMode
 1730              		.section	.text.u8g2_DrawGlyph,"ax",%progbits
 1731              		.align	1
 1732              		.global	u8g2_DrawGlyph
ARM GAS  C:\Users\gjl\AppData\Local\Temp\ccg70AS9.s 			page 55


 1733              		.code	16
 1734              		.thumb_func
 1735              		.type	u8g2_DrawGlyph, %function
 1736              	u8g2_DrawGlyph:
 1737              	.LFB21:
 698:..\..\u8g2\csrc/u8g2_font.c **** #ifdef U8G2_WITH_FONT_ROTATION
 1738              		.loc 1 698 0
 1739              		.cfi_startproc
 1740              		@ args = 0, pretend = 0, frame = 0
 1741              		@ frame_needed = 0, uses_anonymous_args = 0
 1742              	.LVL238:
 1743 0000 F8B5     		push	{r3, r4, r5, r6, r7, lr}
 1744              		.cfi_def_cfa_offset 24
 1745              		.cfi_offset 3, -24
 1746              		.cfi_offset 4, -20
 1747              		.cfi_offset 5, -16
 1748              		.cfi_offset 6, -12
 1749              		.cfi_offset 7, -8
 1750              		.cfi_offset 14, -4
 698:..\..\u8g2\csrc/u8g2_font.c **** #ifdef U8G2_WITH_FONT_ROTATION
 1751              		.loc 1 698 0
 1752 0002 1F00     		movs	r7, r3
 700:..\..\u8g2\csrc/u8g2_font.c ****   {
 1753              		.loc 1 700 0
 1754 0004 0300     		movs	r3, r0
 1755              	.LVL239:
 1756 0006 5E33     		adds	r3, r3, #94
 698:..\..\u8g2\csrc/u8g2_font.c **** #ifdef U8G2_WITH_FONT_ROTATION
 1757              		.loc 1 698 0
 1758 0008 0400     		movs	r4, r0
 700:..\..\u8g2\csrc/u8g2_font.c ****   {
 1759              		.loc 1 700 0
 1760 000a 1878     		ldrb	r0, [r3]
 1761              	.LVL240:
 698:..\..\u8g2\csrc/u8g2_font.c **** #ifdef U8G2_WITH_FONT_ROTATION
 1762              		.loc 1 698 0
 1763 000c 0E00     		movs	r6, r1
 1764 000e 1500     		movs	r5, r2
 700:..\..\u8g2\csrc/u8g2_font.c ****   {
 1765              		.loc 1 700 0
 1766 0010 0328     		cmp	r0, #3
 1767 0012 15D8     		bhi	.L95
 1768 0014 E36C     		ldr	r3, [r4, #76]
 1769 0016 FFF7FEFF 		bl	__gnu_thumb1_case_uqi
 1770              	.L97:
 1771 001a 02       		.byte	(.L96-.L97)/2
 1772 001b 06       		.byte	(.L98-.L97)/2
 1773 001c 0A       		.byte	(.L99-.L97)/2
 1774 001d 0F       		.byte	(.L100-.L97)/2
 1775              		.p2align 1
 1776              	.L96:
 703:..\..\u8g2\csrc/u8g2_font.c ****       break;
 1777              		.loc 1 703 0
 1778 001e 2000     		movs	r0, r4
 1779 0020 9847     		blx	r3
 1780              	.LVL241:
 1781 0022 2D18     		adds	r5, r5, r0
ARM GAS  C:\Users\gjl\AppData\Local\Temp\ccg70AS9.s 			page 56


 1782 0024 06E0     		b	.L103
 1783              	.LVL242:
 1784              	.L98:
 706:..\..\u8g2\csrc/u8g2_font.c ****       break;
 1785              		.loc 1 706 0
 1786 0026 2000     		movs	r0, r4
 1787 0028 9847     		blx	r3
 1788              	.LVL243:
 1789 002a 361A     		subs	r6, r6, r0
 1790 002c 07E0     		b	.L104
 1791              	.LVL244:
 1792              	.L99:
 709:..\..\u8g2\csrc/u8g2_font.c ****       break;
 1793              		.loc 1 709 0
 1794 002e 2000     		movs	r0, r4
 1795 0030 9847     		blx	r3
 1796              	.LVL245:
 1797 0032 2D1A     		subs	r5, r5, r0
 1798              	.L103:
 1799 0034 EDB2     		uxtb	r5, r5
 1800              	.LVL246:
 710:..\..\u8g2\csrc/u8g2_font.c ****     case 3:
 1801              		.loc 1 710 0
 1802 0036 03E0     		b	.L95
 1803              	.LVL247:
 1804              	.L100:
 712:..\..\u8g2\csrc/u8g2_font.c ****       break;
 1805              		.loc 1 712 0
 1806 0038 2000     		movs	r0, r4
 1807 003a 9847     		blx	r3
 1808              	.LVL248:
 1809 003c 3618     		adds	r6, r6, r0
 1810              	.L104:
 1811 003e F6B2     		uxtb	r6, r6
 1812              	.LVL249:
 1813              	.L95:
 1814              	.LBB60:
 1815              	.LBB61:
 646:..\..\u8g2\csrc/u8g2_font.c ****   u8g2->font_decode.target_y = y;
 1816              		.loc 1 646 0
 1817 0040 2300     		movs	r3, r4
 1818 0042 5433     		adds	r3, r3, #84
 650:..\..\u8g2\csrc/u8g2_font.c ****   if ( glyph_data != NULL )
 1819              		.loc 1 650 0
 1820 0044 3900     		movs	r1, r7
 646:..\..\u8g2\csrc/u8g2_font.c ****   u8g2->font_decode.target_y = y;
 1821              		.loc 1 646 0
 1822 0046 1E70     		strb	r6, [r3]
 647:..\..\u8g2\csrc/u8g2_font.c ****   //u8g2->font_decode.is_transparent = is_transparent; this is already set
 1823              		.loc 1 647 0
 1824 0048 5D70     		strb	r5, [r3, #1]
 650:..\..\u8g2\csrc/u8g2_font.c ****   if ( glyph_data != NULL )
 1825              		.loc 1 650 0
 1826 004a 2000     		movs	r0, r4
 1827 004c FFF7FEFF 		bl	u8g2_font_get_glyph_data
 1828              	.LVL250:
 1829 0050 011E     		subs	r1, r0, #0
ARM GAS  C:\Users\gjl\AppData\Local\Temp\ccg70AS9.s 			page 57


 1830              	.LVL251:
 651:..\..\u8g2\csrc/u8g2_font.c ****   {
 1831              		.loc 1 651 0
 1832 0052 03D0     		beq	.L101
 653:..\..\u8g2\csrc/u8g2_font.c ****   }
 1833              		.loc 1 653 0
 1834 0054 2000     		movs	r0, r4
 1835              	.LVL252:
 1836 0056 FFF7FEFF 		bl	u8g2_font_decode_glyph
 1837              	.LVL253:
 1838 005a C0B2     		uxtb	r0, r0
 1839              	.LVL254:
 1840              	.L101:
 1841              	.LBE61:
 1842              	.LBE60:
 719:..\..\u8g2\csrc/u8g2_font.c **** 
 1843              		.loc 1 719 0
 1844              		@ sp needed
 1845              	.LVL255:
 1846              	.LVL256:
 1847              	.LVL257:
 1848 005c F8BD     		pop	{r3, r4, r5, r6, r7, pc}
 1849              		.cfi_endproc
 1850              	.LFE21:
 1851              		.size	u8g2_DrawGlyph, .-u8g2_DrawGlyph
 1852              		.section	.text.u8g2_draw_string,"ax",%progbits
 1853              		.align	1
 1854              		.code	16
 1855              		.thumb_func
 1856              		.type	u8g2_draw_string, %function
 1857              	u8g2_draw_string:
 1858              	.LFB22:
 723:..\..\u8g2\csrc/u8g2_font.c ****   uint16_t e;
 1859              		.loc 1 723 0
 1860              		.cfi_startproc
 1861              		@ args = 0, pretend = 0, frame = 8
 1862              		@ frame_needed = 0, uses_anonymous_args = 0
 1863              	.LVL258:
 1864 0000 F7B5     		push	{r0, r1, r2, r4, r5, r6, r7, lr}
 1865              		.cfi_def_cfa_offset 32
 1866              		.cfi_offset 0, -32
 1867              		.cfi_offset 1, -28
 1868              		.cfi_offset 2, -24
 1869              		.cfi_offset 4, -20
 1870              		.cfi_offset 5, -16
 1871              		.cfi_offset 6, -12
 1872              		.cfi_offset 7, -8
 1873              		.cfi_offset 14, -4
 723:..\..\u8g2\csrc/u8g2_font.c ****   uint16_t e;
 1874              		.loc 1 723 0
 1875 0002 1F00     		movs	r7, r3
 1876 0004 0600     		movs	r6, r0
 1877 0006 0C00     		movs	r4, r1
 1878 0008 1500     		movs	r5, r2
 726:..\..\u8g2\csrc/u8g2_font.c ****   sum = 0;
 1879              		.loc 1 726 0
 1880 000a FFF7FEFF 		bl	u8x8_utf8_init
ARM GAS  C:\Users\gjl\AppData\Local\Temp\ccg70AS9.s 			page 58


 1881              	.LVL259:
 727:..\..\u8g2\csrc/u8g2_font.c ****   for(;;)
 1882              		.loc 1 727 0
 1883 000e 0023     		movs	r3, #0
 1884              	.LVL260:
 1885              	.L115:
 1886 0010 0193     		str	r3, [sp, #4]
 1887              	.L106:
 1888              	.LVL261:
 730:..\..\u8g2\csrc/u8g2_font.c ****     if ( e == 0x0ffff )
 1889              		.loc 1 730 0
 1890 0012 7368     		ldr	r3, [r6, #4]
 1891 0014 3978     		ldrb	r1, [r7]
 1892 0016 3000     		movs	r0, r6
 1893 0018 9847     		blx	r3
 1894              	.LVL262:
 731:..\..\u8g2\csrc/u8g2_font.c ****       break;
 1895              		.loc 1 731 0
 1896 001a 134A     		ldr	r2, .L118
 730:..\..\u8g2\csrc/u8g2_font.c ****     if ( e == 0x0ffff )
 1897              		.loc 1 730 0
 1898 001c 0300     		movs	r3, r0
 1899              	.LVL263:
 731:..\..\u8g2\csrc/u8g2_font.c ****       break;
 1900              		.loc 1 731 0
 1901 001e 9042     		cmp	r0, r2
 1902 0020 1FD0     		beq	.L107
 734:..\..\u8g2\csrc/u8g2_font.c ****     {
 1903              		.loc 1 734 0
 1904 0022 124A     		ldr	r2, .L118+4
 733:..\..\u8g2\csrc/u8g2_font.c ****     if ( e != 0x0fffe )
 1905              		.loc 1 733 0
 1906 0024 0137     		adds	r7, r7, #1
 1907              	.LVL264:
 734:..\..\u8g2\csrc/u8g2_font.c ****     {
 1908              		.loc 1 734 0
 1909 0026 9042     		cmp	r0, r2
 1910 0028 F3D0     		beq	.L106
 736:..\..\u8g2\csrc/u8g2_font.c ****     
 1911              		.loc 1 736 0
 1912 002a 2A00     		movs	r2, r5
 1913 002c 2100     		movs	r1, r4
 1914 002e 3000     		movs	r0, r6
 1915              	.LVL265:
 1916 0030 FFF7FEFF 		bl	u8g2_DrawGlyph
 1917              	.LVL266:
 739:..\..\u8g2\csrc/u8g2_font.c ****       {
 1918              		.loc 1 739 0
 1919 0034 3200     		movs	r2, r6
 1920 0036 5E32     		adds	r2, r2, #94
 736:..\..\u8g2\csrc/u8g2_font.c ****     
 1921              		.loc 1 736 0
 1922 0038 0300     		movs	r3, r0
 1923              	.LVL267:
 739:..\..\u8g2\csrc/u8g2_font.c ****       {
 1924              		.loc 1 739 0
 1925 003a 1078     		ldrb	r0, [r2]
ARM GAS  C:\Users\gjl\AppData\Local\Temp\ccg70AS9.s 			page 59


 1926 003c 0328     		cmp	r0, #3
 1927 003e 0CD8     		bhi	.L109
 1928 0040 FFF7FEFF 		bl	__gnu_thumb1_case_uqi
 1929              	.L111:
 1930 0044 02       		.byte	(.L110-.L111)/2
 1931 0045 04       		.byte	(.L112-.L111)/2
 1932 0046 06       		.byte	(.L113-.L111)/2
 1933 0047 09       		.byte	(.L114-.L111)/2
 1934              		.p2align 1
 1935              	.L110:
 742:..\..\u8g2\csrc/u8g2_font.c **** 	  break;
 1936              		.loc 1 742 0
 1937 0048 E418     		adds	r4, r4, r3
 1938              	.LVL268:
 1939 004a 02E0     		b	.L116
 1940              	.LVL269:
 1941              	.L112:
 745:..\..\u8g2\csrc/u8g2_font.c **** 	  break;
 1942              		.loc 1 745 0
 1943 004c ED18     		adds	r5, r5, r3
 1944              	.LVL270:
 1945 004e 03E0     		b	.L117
 1946              	.LVL271:
 1947              	.L113:
 748:..\..\u8g2\csrc/u8g2_font.c **** 	  break;
 1948              		.loc 1 748 0
 1949 0050 E41A     		subs	r4, r4, r3
 1950              	.LVL272:
 1951              	.L116:
 1952 0052 E4B2     		uxtb	r4, r4
 1953              	.LVL273:
 749:..\..\u8g2\csrc/u8g2_font.c **** 	case 3:
 1954              		.loc 1 749 0
 1955 0054 01E0     		b	.L109
 1956              	.L114:
 751:..\..\u8g2\csrc/u8g2_font.c **** 	  break;
 1957              		.loc 1 751 0
 1958 0056 ED1A     		subs	r5, r5, r3
 1959              	.LVL274:
 1960              	.L117:
 1961 0058 EDB2     		uxtb	r5, r5
 1962              	.LVL275:
 1963              	.L109:
 758:..\..\u8g2\csrc/u8g2_font.c ****     }
 1964              		.loc 1 758 0
 1965 005a 019A     		ldr	r2, [sp, #4]
 1966 005c D318     		adds	r3, r2, r3
 1967              	.LVL276:
 1968 005e DBB2     		uxtb	r3, r3
 1969 0060 D6E7     		b	.L115
 1970              	.LVL277:
 1971              	.L107:
 762:..\..\u8g2\csrc/u8g2_font.c **** 
 1972              		.loc 1 762 0
 1973 0062 0198     		ldr	r0, [sp, #4]
 1974              	.LVL278:
 1975              		@ sp needed
ARM GAS  C:\Users\gjl\AppData\Local\Temp\ccg70AS9.s 			page 60


 1976              	.LVL279:
 1977              	.LVL280:
 1978              	.LVL281:
 1979              	.LVL282:
 1980 0064 FEBD     		pop	{r1, r2, r3, r4, r5, r6, r7, pc}
 1981              	.L119:
 1982 0066 C046     		.align	2
 1983              	.L118:
 1984 0068 FFFF0000 		.word	65535
 1985 006c FEFF0000 		.word	65534
 1986              		.cfi_endproc
 1987              	.LFE22:
 1988              		.size	u8g2_draw_string, .-u8g2_draw_string
 1989              		.section	.text.u8g2_DrawStr,"ax",%progbits
 1990              		.align	1
 1991              		.global	u8g2_DrawStr
 1992              		.code	16
 1993              		.thumb_func
 1994              		.type	u8g2_DrawStr, %function
 1995              	u8g2_DrawStr:
 1996              	.LFB23:
 765:..\..\u8g2\csrc/u8g2_font.c ****   u8g2->u8x8.next_cb = u8x8_ascii_next;
 1997              		.loc 1 765 0
 1998              		.cfi_startproc
 1999              		@ args = 0, pretend = 0, frame = 0
 2000              		@ frame_needed = 0, uses_anonymous_args = 0
 2001              	.LVL283:
 2002 0000 10B5     		push	{r4, lr}
 2003              		.cfi_def_cfa_offset 8
 2004              		.cfi_offset 4, -8
 2005              		.cfi_offset 14, -4
 766:..\..\u8g2\csrc/u8g2_font.c ****   return u8g2_draw_string(u8g2, x, y, str);
 2006              		.loc 1 766 0
 2007 0002 024C     		ldr	r4, .L121
 768:..\..\u8g2\csrc/u8g2_font.c **** 
 2008              		.loc 1 768 0
 2009              		@ sp needed
 766:..\..\u8g2\csrc/u8g2_font.c ****   return u8g2_draw_string(u8g2, x, y, str);
 2010              		.loc 1 766 0
 2011 0004 4460     		str	r4, [r0, #4]
 767:..\..\u8g2\csrc/u8g2_font.c **** }
 2012              		.loc 1 767 0
 2013 0006 FFF7FEFF 		bl	u8g2_draw_string
 2014              	.LVL284:
 768:..\..\u8g2\csrc/u8g2_font.c **** 
 2015              		.loc 1 768 0
 2016 000a 10BD     		pop	{r4, pc}
 2017              	.L122:
 2018              		.align	2
 2019              	.L121:
 2020 000c 00000000 		.word	u8x8_ascii_next
 2021              		.cfi_endproc
 2022              	.LFE23:
 2023              		.size	u8g2_DrawStr, .-u8g2_DrawStr
 2024              		.section	.text.u8g2_DrawUTF8,"ax",%progbits
 2025              		.align	1
 2026              		.global	u8g2_DrawUTF8
ARM GAS  C:\Users\gjl\AppData\Local\Temp\ccg70AS9.s 			page 61


 2027              		.code	16
 2028              		.thumb_func
 2029              		.type	u8g2_DrawUTF8, %function
 2030              	u8g2_DrawUTF8:
 2031              	.LFB24:
 781:..\..\u8g2\csrc/u8g2_font.c ****   u8g2->u8x8.next_cb = u8x8_utf8_next;
 2032              		.loc 1 781 0
 2033              		.cfi_startproc
 2034              		@ args = 0, pretend = 0, frame = 0
 2035              		@ frame_needed = 0, uses_anonymous_args = 0
 2036              	.LVL285:
 2037 0000 10B5     		push	{r4, lr}
 2038              		.cfi_def_cfa_offset 8
 2039              		.cfi_offset 4, -8
 2040              		.cfi_offset 14, -4
 782:..\..\u8g2\csrc/u8g2_font.c ****   return u8g2_draw_string(u8g2, x, y, str);
 2041              		.loc 1 782 0
 2042 0002 024C     		ldr	r4, .L124
 784:..\..\u8g2\csrc/u8g2_font.c **** 
 2043              		.loc 1 784 0
 2044              		@ sp needed
 782:..\..\u8g2\csrc/u8g2_font.c ****   return u8g2_draw_string(u8g2, x, y, str);
 2045              		.loc 1 782 0
 2046 0004 4460     		str	r4, [r0, #4]
 783:..\..\u8g2\csrc/u8g2_font.c **** }
 2047              		.loc 1 783 0
 2048 0006 FFF7FEFF 		bl	u8g2_draw_string
 2049              	.LVL286:
 784:..\..\u8g2\csrc/u8g2_font.c **** 
 2050              		.loc 1 784 0
 2051 000a 10BD     		pop	{r4, pc}
 2052              	.L125:
 2053              		.align	2
 2054              	.L124:
 2055 000c 00000000 		.word	u8x8_utf8_next
 2056              		.cfi_endproc
 2057              	.LFE24:
 2058              		.size	u8g2_DrawUTF8, .-u8g2_DrawUTF8
 2059              		.section	.text.u8g2_DrawExtendedUTF8,"ax",%progbits
 2060              		.align	1
 2061              		.global	u8g2_DrawExtendedUTF8
 2062              		.code	16
 2063              		.thumb_func
 2064              		.type	u8g2_DrawExtendedUTF8, %function
 2065              	u8g2_DrawExtendedUTF8:
 2066              	.LFB25:
 789:..\..\u8g2\csrc/u8g2_font.c ****   u8g2->u8x8.next_cb = u8x8_utf8_next;
 2067              		.loc 1 789 0
 2068              		.cfi_startproc
 2069              		@ args = 8, pretend = 0, frame = 16
 2070              		@ frame_needed = 0, uses_anonymous_args = 0
 2071              	.LVL287:
 2072 0000 F0B5     		push	{r4, r5, r6, r7, lr}
 2073              		.cfi_def_cfa_offset 20
 2074              		.cfi_offset 4, -20
 2075              		.cfi_offset 5, -16
 2076              		.cfi_offset 6, -12
ARM GAS  C:\Users\gjl\AppData\Local\Temp\ccg70AS9.s 			page 62


 2077              		.cfi_offset 7, -8
 2078              		.cfi_offset 14, -4
 2079 0002 85B0     		sub	sp, sp, #20
 2080              		.cfi_def_cfa_offset 40
 789:..\..\u8g2\csrc/u8g2_font.c ****   u8g2->u8x8.next_cb = u8x8_utf8_next;
 2081              		.loc 1 789 0
 2082 0004 0293     		str	r3, [sp, #8]
 790:..\..\u8g2\csrc/u8g2_font.c ****   uint16_t e_prev = 0x0ffff;
 2083              		.loc 1 790 0
 2084 0006 274B     		ldr	r3, .L133
 2085              	.LVL288:
 789:..\..\u8g2\csrc/u8g2_font.c ****   u8g2->u8x8.next_cb = u8x8_utf8_next;
 2086              		.loc 1 789 0
 2087 0008 0500     		movs	r5, r0
 790:..\..\u8g2\csrc/u8g2_font.c ****   uint16_t e_prev = 0x0ffff;
 2088              		.loc 1 790 0
 2089 000a 4360     		str	r3, [r0, #4]
 2090              	.LVL289:
 789:..\..\u8g2\csrc/u8g2_font.c ****   u8g2->u8x8.next_cb = u8x8_utf8_next;
 2091              		.loc 1 789 0
 2092 000c 0091     		str	r1, [sp]
 2093 000e 0392     		str	r2, [sp, #12]
 794:..\..\u8g2\csrc/u8g2_font.c ****   sum = 0;
 2094              		.loc 1 794 0
 2095 0010 FFF7FEFF 		bl	u8x8_utf8_init
 2096              	.LVL290:
 795:..\..\u8g2\csrc/u8g2_font.c ****   for(;;)
 2097              		.loc 1 795 0
 2098 0014 0023     		movs	r3, #0
 791:..\..\u8g2\csrc/u8g2_font.c ****   uint16_t e;
 2099              		.loc 1 791 0
 2100 0016 244E     		ldr	r6, .L133+4
 795:..\..\u8g2\csrc/u8g2_font.c ****   for(;;)
 2101              		.loc 1 795 0
 2102 0018 0193     		str	r3, [sp, #4]
 2103              	.LVL291:
 2104              	.L127:
 798:..\..\u8g2\csrc/u8g2_font.c ****     if ( e == 0x0ffff )
 2105              		.loc 1 798 0
 2106 001a 0B9B     		ldr	r3, [sp, #44]
 2107 001c 2800     		movs	r0, r5
 2108 001e 1978     		ldrb	r1, [r3]
 2109 0020 6B68     		ldr	r3, [r5, #4]
 2110 0022 9847     		blx	r3
 2111              	.LVL292:
 799:..\..\u8g2\csrc/u8g2_font.c ****       break;
 2112              		.loc 1 799 0
 2113 0024 204B     		ldr	r3, .L133+4
 798:..\..\u8g2\csrc/u8g2_font.c ****     if ( e == 0x0ffff )
 2114              		.loc 1 798 0
 2115 0026 0700     		movs	r7, r0
 2116              	.LVL293:
 799:..\..\u8g2\csrc/u8g2_font.c ****       break;
 2117              		.loc 1 799 0
 2118 0028 9842     		cmp	r0, r3
 2119 002a 38D0     		beq	.L128
 801:..\..\u8g2\csrc/u8g2_font.c ****     if ( e != 0x0fffe )
ARM GAS  C:\Users\gjl\AppData\Local\Temp\ccg70AS9.s 			page 63


 2120              		.loc 1 801 0
 2121 002c 0B9B     		ldr	r3, [sp, #44]
 2122 002e 0133     		adds	r3, r3, #1
 2123 0030 0B93     		str	r3, [sp, #44]
 2124              	.LVL294:
 802:..\..\u8g2\csrc/u8g2_font.c ****     {
 2125              		.loc 1 802 0
 2126 0032 1E4B     		ldr	r3, .L133+8
 2127              	.LVL295:
 2128 0034 9842     		cmp	r0, r3
 2129 0036 F0D0     		beq	.L127
 804:..\..\u8g2\csrc/u8g2_font.c **** 	    
 2130              		.loc 1 804 0
 2131 0038 0100     		movs	r1, r0
 2132 003a 2800     		movs	r0, r5
 2133              	.LVL296:
 2134 003c FFF7FEFF 		bl	u8g2_GetGlyphWidth
 2135              	.LVL297:
 806:..\..\u8g2\csrc/u8g2_font.c ****       {
 2136              		.loc 1 806 0
 2137 0040 029B     		ldr	r3, [sp, #8]
 804:..\..\u8g2\csrc/u8g2_font.c **** 	    
 2138              		.loc 1 804 0
 2139 0042 C4B2     		uxtb	r4, r0
 2140              	.LVL298:
 806:..\..\u8g2\csrc/u8g2_font.c ****       {
 2141              		.loc 1 806 0
 2142 0044 002B     		cmp	r3, #0
 2143 0046 0DD0     		beq	.L130
 808:..\..\u8g2\csrc/u8g2_font.c **** 	delta -= k;
 2144              		.loc 1 808 0
 2145 0048 3300     		movs	r3, r6
 2146 004a 3A00     		movs	r2, r7
 2147 004c 0A99     		ldr	r1, [sp, #40]
 2148 004e 2800     		movs	r0, r5
 2149 0050 FFF7FEFF 		bl	u8g2_GetKerning
 2150              	.LVL299:
 810:..\..\u8g2\csrc/u8g2_font.c ****       }
 2151              		.loc 1 810 0
 2152 0054 009B     		ldr	r3, [sp]
 809:..\..\u8g2\csrc/u8g2_font.c **** 	x -= delta;
 2153              		.loc 1 809 0
 2154 0056 241A     		subs	r4, r4, r0
 2155              	.LVL300:
 2156 0058 E4B2     		uxtb	r4, r4
 810:..\..\u8g2\csrc/u8g2_font.c ****       }
 2157              		.loc 1 810 0
 2158 005a 1B1B     		subs	r3, r3, r4
 2159 005c DBB2     		uxtb	r3, r3
 808:..\..\u8g2\csrc/u8g2_font.c **** 	delta -= k;
 2160              		.loc 1 808 0
 2161 005e 0600     		movs	r6, r0
 2162              	.LVL301:
 810:..\..\u8g2\csrc/u8g2_font.c ****       }
 2163              		.loc 1 810 0
 2164 0060 0093     		str	r3, [sp]
 2165              	.LVL302:
ARM GAS  C:\Users\gjl\AppData\Local\Temp\ccg70AS9.s 			page 64


 2166 0062 08E0     		b	.L131
 2167              	.LVL303:
 2168              	.L130:
 814:..\..\u8g2\csrc/u8g2_font.c **** 	delta -= k;
 2169              		.loc 1 814 0
 2170 0064 3200     		movs	r2, r6
 2171 0066 3B00     		movs	r3, r7
 2172 0068 0A99     		ldr	r1, [sp, #40]
 2173 006a 2800     		movs	r0, r5
 2174 006c FFF7FEFF 		bl	u8g2_GetKerning
 2175              	.LVL304:
 2176 0070 0600     		movs	r6, r0
 2177              	.LVL305:
 815:..\..\u8g2\csrc/u8g2_font.c ****       }
 2178              		.loc 1 815 0
 2179 0072 241A     		subs	r4, r4, r0
 2180              	.LVL306:
 2181 0074 E4B2     		uxtb	r4, r4
 2182              	.LVL307:
 2183              	.L131:
 819:..\..\u8g2\csrc/u8g2_font.c ****       if ( to_left )
 2184              		.loc 1 819 0
 2185 0076 3B00     		movs	r3, r7
 2186 0078 039A     		ldr	r2, [sp, #12]
 2187 007a 0099     		ldr	r1, [sp]
 2188 007c 2800     		movs	r0, r5
 2189 007e FFF7FEFF 		bl	u8g2_DrawGlyph
 2190              	.LVL308:
 820:..\..\u8g2\csrc/u8g2_font.c ****       {
 2191              		.loc 1 820 0
 2192 0082 029B     		ldr	r3, [sp, #8]
 2193 0084 002B     		cmp	r3, #0
 2194 0086 04D1     		bne	.L132
 825:..\..\u8g2\csrc/u8g2_font.c **** 	x -= k;
 2195              		.loc 1 825 0
 2196 0088 009B     		ldr	r3, [sp]
 2197 008a 1B19     		adds	r3, r3, r4
 2198              	.LVL309:
 826:..\..\u8g2\csrc/u8g2_font.c ****       }
 2199              		.loc 1 826 0
 2200 008c 9E1B     		subs	r6, r3, r6
 2201              	.LVL310:
 2202 008e F3B2     		uxtb	r3, r6
 2203              	.LVL311:
 2204 0090 0093     		str	r3, [sp]
 2205              	.LVL312:
 2206              	.L132:
 829:..\..\u8g2\csrc/u8g2_font.c ****     }
 2207              		.loc 1 829 0
 2208 0092 019B     		ldr	r3, [sp, #4]
 2209 0094 3E00     		movs	r6, r7
 2210 0096 E418     		adds	r4, r4, r3
 2211              	.LVL313:
 2212 0098 E3B2     		uxtb	r3, r4
 2213 009a 0193     		str	r3, [sp, #4]
 2214              	.LVL314:
 2215 009c BDE7     		b	.L127
ARM GAS  C:\Users\gjl\AppData\Local\Temp\ccg70AS9.s 			page 65


 2216              	.LVL315:
 2217              	.L128:
 833:..\..\u8g2\csrc/u8g2_font.c **** 
 2218              		.loc 1 833 0
 2219 009e 0198     		ldr	r0, [sp, #4]
 2220              	.LVL316:
 2221 00a0 05B0     		add	sp, sp, #20
 2222              	.LVL317:
 2223              		@ sp needed
 2224              	.LVL318:
 2225              	.LVL319:
 2226 00a2 F0BD     		pop	{r4, r5, r6, r7, pc}
 2227              	.L134:
 2228              		.align	2
 2229              	.L133:
 2230 00a4 00000000 		.word	u8x8_utf8_next
 2231 00a8 FFFF0000 		.word	65535
 2232 00ac FEFF0000 		.word	65534
 2233              		.cfi_endproc
 2234              	.LFE25:
 2235              		.size	u8g2_DrawExtendedUTF8, .-u8g2_DrawExtendedUTF8
 2236              		.section	.text.u8g2_DrawExtUTF8,"ax",%progbits
 2237              		.align	1
 2238              		.global	u8g2_DrawExtUTF8
 2239              		.code	16
 2240              		.thumb_func
 2241              		.type	u8g2_DrawExtUTF8, %function
 2242              	u8g2_DrawExtUTF8:
 2243              	.LFB26:
 836:..\..\u8g2\csrc/u8g2_font.c ****   u8g2->u8x8.next_cb = u8x8_utf8_next;
 2244              		.loc 1 836 0
 2245              		.cfi_startproc
 2246              		@ args = 8, pretend = 0, frame = 16
 2247              		@ frame_needed = 0, uses_anonymous_args = 0
 2248              	.LVL320:
 2249 0000 F0B5     		push	{r4, r5, r6, r7, lr}
 2250              		.cfi_def_cfa_offset 20
 2251              		.cfi_offset 4, -20
 2252              		.cfi_offset 5, -16
 2253              		.cfi_offset 6, -12
 2254              		.cfi_offset 7, -8
 2255              		.cfi_offset 14, -4
 2256 0002 85B0     		sub	sp, sp, #20
 2257              		.cfi_def_cfa_offset 40
 836:..\..\u8g2\csrc/u8g2_font.c ****   u8g2->u8x8.next_cb = u8x8_utf8_next;
 2258              		.loc 1 836 0
 2259 0004 0293     		str	r3, [sp, #8]
 837:..\..\u8g2\csrc/u8g2_font.c ****   uint16_t e_prev = 0x0ffff;
 2260              		.loc 1 837 0
 2261 0006 274B     		ldr	r3, .L142
 2262              	.LVL321:
 836:..\..\u8g2\csrc/u8g2_font.c ****   u8g2->u8x8.next_cb = u8x8_utf8_next;
 2263              		.loc 1 836 0
 2264 0008 0500     		movs	r5, r0
 837:..\..\u8g2\csrc/u8g2_font.c ****   uint16_t e_prev = 0x0ffff;
 2265              		.loc 1 837 0
 2266 000a 4360     		str	r3, [r0, #4]
ARM GAS  C:\Users\gjl\AppData\Local\Temp\ccg70AS9.s 			page 66


 2267              	.LVL322:
 836:..\..\u8g2\csrc/u8g2_font.c ****   u8g2->u8x8.next_cb = u8x8_utf8_next;
 2268              		.loc 1 836 0
 2269 000c 0091     		str	r1, [sp]
 2270 000e 0392     		str	r2, [sp, #12]
 841:..\..\u8g2\csrc/u8g2_font.c ****   sum = 0;
 2271              		.loc 1 841 0
 2272 0010 FFF7FEFF 		bl	u8x8_utf8_init
 2273              	.LVL323:
 842:..\..\u8g2\csrc/u8g2_font.c ****   for(;;)
 2274              		.loc 1 842 0
 2275 0014 0023     		movs	r3, #0
 838:..\..\u8g2\csrc/u8g2_font.c ****   uint16_t e;
 2276              		.loc 1 838 0
 2277 0016 244E     		ldr	r6, .L142+4
 842:..\..\u8g2\csrc/u8g2_font.c ****   for(;;)
 2278              		.loc 1 842 0
 2279 0018 0193     		str	r3, [sp, #4]
 2280              	.LVL324:
 2281              	.L136:
 845:..\..\u8g2\csrc/u8g2_font.c ****     if ( e == 0x0ffff )
 2282              		.loc 1 845 0
 2283 001a 0B9B     		ldr	r3, [sp, #44]
 2284 001c 2800     		movs	r0, r5
 2285 001e 1978     		ldrb	r1, [r3]
 2286 0020 6B68     		ldr	r3, [r5, #4]
 2287 0022 9847     		blx	r3
 2288              	.LVL325:
 846:..\..\u8g2\csrc/u8g2_font.c ****       break;
 2289              		.loc 1 846 0
 2290 0024 204B     		ldr	r3, .L142+4
 845:..\..\u8g2\csrc/u8g2_font.c ****     if ( e == 0x0ffff )
 2291              		.loc 1 845 0
 2292 0026 0700     		movs	r7, r0
 2293              	.LVL326:
 846:..\..\u8g2\csrc/u8g2_font.c ****       break;
 2294              		.loc 1 846 0
 2295 0028 9842     		cmp	r0, r3
 2296 002a 38D0     		beq	.L137
 848:..\..\u8g2\csrc/u8g2_font.c ****     if ( e != 0x0fffe )
 2297              		.loc 1 848 0
 2298 002c 0B9B     		ldr	r3, [sp, #44]
 2299 002e 0133     		adds	r3, r3, #1
 2300 0030 0B93     		str	r3, [sp, #44]
 2301              	.LVL327:
 849:..\..\u8g2\csrc/u8g2_font.c ****     {
 2302              		.loc 1 849 0
 2303 0032 1E4B     		ldr	r3, .L142+8
 2304              	.LVL328:
 2305 0034 9842     		cmp	r0, r3
 2306 0036 F0D0     		beq	.L136
 851:..\..\u8g2\csrc/u8g2_font.c **** 	    
 2307              		.loc 1 851 0
 2308 0038 0100     		movs	r1, r0
 2309 003a 2800     		movs	r0, r5
 2310              	.LVL329:
 2311 003c FFF7FEFF 		bl	u8g2_GetGlyphWidth
ARM GAS  C:\Users\gjl\AppData\Local\Temp\ccg70AS9.s 			page 67


 2312              	.LVL330:
 853:..\..\u8g2\csrc/u8g2_font.c ****       {
 2313              		.loc 1 853 0
 2314 0040 029B     		ldr	r3, [sp, #8]
 851:..\..\u8g2\csrc/u8g2_font.c **** 	    
 2315              		.loc 1 851 0
 2316 0042 C4B2     		uxtb	r4, r0
 2317              	.LVL331:
 853:..\..\u8g2\csrc/u8g2_font.c ****       {
 2318              		.loc 1 853 0
 2319 0044 002B     		cmp	r3, #0
 2320 0046 0DD0     		beq	.L139
 855:..\..\u8g2\csrc/u8g2_font.c **** 	delta -= k;
 2321              		.loc 1 855 0
 2322 0048 3300     		movs	r3, r6
 2323 004a 3A00     		movs	r2, r7
 2324 004c 0A99     		ldr	r1, [sp, #40]
 2325 004e 2800     		movs	r0, r5
 2326 0050 FFF7FEFF 		bl	u8g2_GetKerningByTable
 2327              	.LVL332:
 857:..\..\u8g2\csrc/u8g2_font.c ****       }
 2328              		.loc 1 857 0
 2329 0054 009B     		ldr	r3, [sp]
 856:..\..\u8g2\csrc/u8g2_font.c **** 	x -= delta;
 2330              		.loc 1 856 0
 2331 0056 241A     		subs	r4, r4, r0
 2332              	.LVL333:
 2333 0058 E4B2     		uxtb	r4, r4
 857:..\..\u8g2\csrc/u8g2_font.c ****       }
 2334              		.loc 1 857 0
 2335 005a 1B1B     		subs	r3, r3, r4
 2336 005c DBB2     		uxtb	r3, r3
 855:..\..\u8g2\csrc/u8g2_font.c **** 	delta -= k;
 2337              		.loc 1 855 0
 2338 005e 0600     		movs	r6, r0
 2339              	.LVL334:
 857:..\..\u8g2\csrc/u8g2_font.c ****       }
 2340              		.loc 1 857 0
 2341 0060 0093     		str	r3, [sp]
 2342              	.LVL335:
 2343 0062 08E0     		b	.L140
 2344              	.LVL336:
 2345              	.L139:
 861:..\..\u8g2\csrc/u8g2_font.c **** 	delta -= k;
 2346              		.loc 1 861 0
 2347 0064 3200     		movs	r2, r6
 2348 0066 3B00     		movs	r3, r7
 2349 0068 0A99     		ldr	r1, [sp, #40]
 2350 006a 2800     		movs	r0, r5
 2351 006c FFF7FEFF 		bl	u8g2_GetKerningByTable
 2352              	.LVL337:
 2353 0070 0600     		movs	r6, r0
 2354              	.LVL338:
 862:..\..\u8g2\csrc/u8g2_font.c ****       }
 2355              		.loc 1 862 0
 2356 0072 241A     		subs	r4, r4, r0
 2357              	.LVL339:
ARM GAS  C:\Users\gjl\AppData\Local\Temp\ccg70AS9.s 			page 68


 2358 0074 E4B2     		uxtb	r4, r4
 2359              	.LVL340:
 2360              	.L140:
 866:..\..\u8g2\csrc/u8g2_font.c ****       if ( to_left )
 2361              		.loc 1 866 0
 2362 0076 3B00     		movs	r3, r7
 2363 0078 039A     		ldr	r2, [sp, #12]
 2364 007a 0099     		ldr	r1, [sp]
 2365 007c 2800     		movs	r0, r5
 2366 007e FFF7FEFF 		bl	u8g2_DrawGlyph
 2367              	.LVL341:
 867:..\..\u8g2\csrc/u8g2_font.c ****       {
 2368              		.loc 1 867 0
 2369 0082 029B     		ldr	r3, [sp, #8]
 2370 0084 002B     		cmp	r3, #0
 2371 0086 04D1     		bne	.L141
 872:..\..\u8g2\csrc/u8g2_font.c **** 	x -= k;
 2372              		.loc 1 872 0
 2373 0088 009B     		ldr	r3, [sp]
 2374 008a 1B19     		adds	r3, r3, r4
 2375              	.LVL342:
 873:..\..\u8g2\csrc/u8g2_font.c ****       }
 2376              		.loc 1 873 0
 2377 008c 9E1B     		subs	r6, r3, r6
 2378              	.LVL343:
 2379 008e F3B2     		uxtb	r3, r6
 2380              	.LVL344:
 2381 0090 0093     		str	r3, [sp]
 2382              	.LVL345:
 2383              	.L141:
 876:..\..\u8g2\csrc/u8g2_font.c ****     }
 2384              		.loc 1 876 0
 2385 0092 019B     		ldr	r3, [sp, #4]
 2386 0094 3E00     		movs	r6, r7
 2387 0096 E418     		adds	r4, r4, r3
 2388              	.LVL346:
 2389 0098 E3B2     		uxtb	r3, r4
 2390 009a 0193     		str	r3, [sp, #4]
 2391              	.LVL347:
 2392 009c BDE7     		b	.L136
 2393              	.LVL348:
 2394              	.L137:
 880:..\..\u8g2\csrc/u8g2_font.c **** 
 2395              		.loc 1 880 0
 2396 009e 0198     		ldr	r0, [sp, #4]
 2397              	.LVL349:
 2398 00a0 05B0     		add	sp, sp, #20
 2399              	.LVL350:
 2400              		@ sp needed
 2401              	.LVL351:
 2402              	.LVL352:
 2403 00a2 F0BD     		pop	{r4, r5, r6, r7, pc}
 2404              	.L143:
 2405              		.align	2
 2406              	.L142:
 2407 00a4 00000000 		.word	u8x8_utf8_next
 2408 00a8 FFFF0000 		.word	65535
ARM GAS  C:\Users\gjl\AppData\Local\Temp\ccg70AS9.s 			page 69


 2409 00ac FEFF0000 		.word	65534
 2410              		.cfi_endproc
 2411              	.LFE26:
 2412              		.size	u8g2_DrawExtUTF8, .-u8g2_DrawExtUTF8
 2413              		.section	.text.u8g2_UpdateRefHeight,"ax",%progbits
 2414              		.align	1
 2415              		.global	u8g2_UpdateRefHeight
 2416              		.code	16
 2417              		.thumb_func
 2418              		.type	u8g2_UpdateRefHeight, %function
 2419              	u8g2_UpdateRefHeight:
 2420              	.LFB27:
 889:..\..\u8g2\csrc/u8g2_font.c ****   if ( u8g2->font == NULL )
 2421              		.loc 1 889 0
 2422              		.cfi_startproc
 2423              		@ args = 0, pretend = 0, frame = 0
 2424              		@ frame_needed = 0, uses_anonymous_args = 0
 2425              	.LVL353:
 890:..\..\u8g2\csrc/u8g2_font.c ****     return;
 2426              		.loc 1 890 0
 2427 0000 836C     		ldr	r3, [r0, #72]
 889:..\..\u8g2\csrc/u8g2_font.c ****   if ( u8g2->font == NULL )
 2428              		.loc 1 889 0
 2429 0002 70B5     		push	{r4, r5, r6, lr}
 2430              		.cfi_def_cfa_offset 16
 2431              		.cfi_offset 4, -16
 2432              		.cfi_offset 5, -12
 2433              		.cfi_offset 6, -8
 2434              		.cfi_offset 14, -4
 890:..\..\u8g2\csrc/u8g2_font.c ****     return;
 2435              		.loc 1 890 0
 2436 0004 002B     		cmp	r3, #0
 2437 0006 2BD0     		beq	.L144
 892:..\..\u8g2\csrc/u8g2_font.c ****   u8g2->font_ref_descent = u8g2->font_info.descent_g;
 2438              		.loc 1 892 0
 2439 0008 0300     		movs	r3, r0
 2440 000a 0026     		movs	r6, #0
 2441 000c 0500     		movs	r5, r0
 893:..\..\u8g2\csrc/u8g2_font.c ****   if ( u8g2->font_height_mode == U8G2_FONT_HEIGHT_MODE_TEXT )
 2442              		.loc 1 893 0
 2443 000e 0124     		movs	r4, #1
 2444 0010 0200     		movs	r2, r0
 892:..\..\u8g2\csrc/u8g2_font.c ****   u8g2->font_ref_descent = u8g2->font_info.descent_g;
 2445              		.loc 1 892 0
 2446 0012 6D33     		adds	r3, r3, #109
 2447 0014 9E57     		ldrsb	r6, [r3, r6]
 2448 0016 7935     		adds	r5, r5, #121
 2449 0018 2E70     		strb	r6, [r5]
 893:..\..\u8g2\csrc/u8g2_font.c ****   if ( u8g2->font_height_mode == U8G2_FONT_HEIGHT_MODE_TEXT )
 2450              		.loc 1 893 0
 2451 001a 1C57     		ldrsb	r4, [r3, r4]
 2452 001c 7A32     		adds	r2, r2, #122
 2453 001e 1470     		strb	r4, [r2]
 894:..\..\u8g2\csrc/u8g2_font.c ****   {
 2454              		.loc 1 894 0
 2455 0020 0B33     		adds	r3, r3, #11
 2456 0022 1B78     		ldrb	r3, [r3]
ARM GAS  C:\Users\gjl\AppData\Local\Temp\ccg70AS9.s 			page 70


 2457 0024 002B     		cmp	r3, #0
 2458 0026 1BD0     		beq	.L144
 897:..\..\u8g2\csrc/u8g2_font.c ****   {
 2459              		.loc 1 897 0
 2460 0028 012B     		cmp	r3, #1
 2461 002a 0CD1     		bne	.L148
 899:..\..\u8g2\csrc/u8g2_font.c ****       u8g2->font_ref_ascent = u8g2->font_info.ascent_para;
 2462              		.loc 1 899 0
 2463 002c 0300     		movs	r3, r0
 2464 002e 6F33     		adds	r3, r3, #111
 2465 0030 1B78     		ldrb	r3, [r3]
 2466 0032 5BB2     		sxtb	r3, r3
 2467 0034 9E42     		cmp	r6, r3
 2468 0036 00DA     		bge	.L149
 900:..\..\u8g2\csrc/u8g2_font.c ****     if ( u8g2->font_ref_descent > u8g2->font_info.descent_para )
 2469              		.loc 1 900 0
 2470 0038 2B70     		strb	r3, [r5]
 2471              	.L149:
 901:..\..\u8g2\csrc/u8g2_font.c ****       u8g2->font_ref_descent = u8g2->font_info.descent_para;
 2472              		.loc 1 901 0
 2473 003a 7023     		movs	r3, #112
 2474 003c C356     		ldrsb	r3, [r0, r3]
 2475 003e 9C42     		cmp	r4, r3
 2476 0040 0EDD     		ble	.L144
 902:..\..\u8g2\csrc/u8g2_font.c ****   }
 2477              		.loc 1 902 0
 2478 0042 1370     		strb	r3, [r2]
 2479 0044 0CE0     		b	.L144
 2480              	.L148:
 906:..\..\u8g2\csrc/u8g2_font.c ****       u8g2->font_ref_ascent = u8g2->font_info.max_char_height+u8g2->font_info.y_offset;
 2481              		.loc 1 906 0
 2482 0046 0300     		movs	r3, r0
 2483 0048 6C21     		movs	r1, #108
 2484 004a 6A33     		adds	r3, r3, #106
 2485 004c 1B78     		ldrb	r3, [r3]
 2486 004e 4156     		ldrsb	r1, [r0, r1]
 2487 0050 5BB2     		sxtb	r3, r3
 2488 0052 5B18     		adds	r3, r3, r1
 2489 0054 9E42     		cmp	r6, r3
 2490 0056 00DA     		bge	.L150
 907:..\..\u8g2\csrc/u8g2_font.c ****     if ( u8g2->font_ref_descent > u8g2->font_info.y_offset )
 2491              		.loc 1 907 0
 2492 0058 2B70     		strb	r3, [r5]
 2493              	.L150:
 908:..\..\u8g2\csrc/u8g2_font.c ****       u8g2->font_ref_descent = u8g2->font_info.y_offset;
 2494              		.loc 1 908 0
 2495 005a 8C42     		cmp	r4, r1
 2496 005c 00DD     		ble	.L144
 909:..\..\u8g2\csrc/u8g2_font.c ****   }  
 2497              		.loc 1 909 0
 2498 005e 1170     		strb	r1, [r2]
 2499              	.L144:
 911:..\..\u8g2\csrc/u8g2_font.c **** 
 2500              		.loc 1 911 0
 2501              		@ sp needed
 2502 0060 70BD     		pop	{r4, r5, r6, pc}
 2503              		.cfi_endproc
ARM GAS  C:\Users\gjl\AppData\Local\Temp\ccg70AS9.s 			page 71


 2504              	.LFE27:
 2505              		.size	u8g2_UpdateRefHeight, .-u8g2_UpdateRefHeight
 2506              		.section	.text.u8g2_SetFontRefHeightText,"ax",%progbits
 2507              		.align	1
 2508              		.global	u8g2_SetFontRefHeightText
 2509              		.code	16
 2510              		.thumb_func
 2511              		.type	u8g2_SetFontRefHeightText, %function
 2512              	u8g2_SetFontRefHeightText:
 2513              	.LFB28:
 914:..\..\u8g2\csrc/u8g2_font.c ****   u8g2->font_height_mode = U8G2_FONT_HEIGHT_MODE_TEXT;
 2514              		.loc 1 914 0
 2515              		.cfi_startproc
 2516              		@ args = 0, pretend = 0, frame = 0
 2517              		@ frame_needed = 0, uses_anonymous_args = 0
 2518              	.LVL354:
 915:..\..\u8g2\csrc/u8g2_font.c ****   u8g2_UpdateRefHeight(u8g2);
 2519              		.loc 1 915 0
 2520 0000 0300     		movs	r3, r0
 2521 0002 0022     		movs	r2, #0
 914:..\..\u8g2\csrc/u8g2_font.c ****   u8g2->font_height_mode = U8G2_FONT_HEIGHT_MODE_TEXT;
 2522              		.loc 1 914 0
 2523 0004 10B5     		push	{r4, lr}
 2524              		.cfi_def_cfa_offset 8
 2525              		.cfi_offset 4, -8
 2526              		.cfi_offset 14, -4
 915:..\..\u8g2\csrc/u8g2_font.c ****   u8g2_UpdateRefHeight(u8g2);
 2527              		.loc 1 915 0
 2528 0006 7833     		adds	r3, r3, #120
 2529 0008 1A70     		strb	r2, [r3]
 916:..\..\u8g2\csrc/u8g2_font.c **** }
 2530              		.loc 1 916 0
 2531 000a FFF7FEFF 		bl	u8g2_UpdateRefHeight
 2532              	.LVL355:
 917:..\..\u8g2\csrc/u8g2_font.c **** 
 2533              		.loc 1 917 0
 2534              		@ sp needed
 2535 000e 10BD     		pop	{r4, pc}
 2536              		.cfi_endproc
 2537              	.LFE28:
 2538              		.size	u8g2_SetFontRefHeightText, .-u8g2_SetFontRefHeightText
 2539              		.section	.text.u8g2_SetFontRefHeightExtendedText,"ax",%progbits
 2540              		.align	1
 2541              		.global	u8g2_SetFontRefHeightExtendedText
 2542              		.code	16
 2543              		.thumb_func
 2544              		.type	u8g2_SetFontRefHeightExtendedText, %function
 2545              	u8g2_SetFontRefHeightExtendedText:
 2546              	.LFB29:
 920:..\..\u8g2\csrc/u8g2_font.c ****   u8g2->font_height_mode = U8G2_FONT_HEIGHT_MODE_XTEXT;
 2547              		.loc 1 920 0
 2548              		.cfi_startproc
 2549              		@ args = 0, pretend = 0, frame = 0
 2550              		@ frame_needed = 0, uses_anonymous_args = 0
 2551              	.LVL356:
 921:..\..\u8g2\csrc/u8g2_font.c ****   u8g2_UpdateRefHeight(u8g2);
 2552              		.loc 1 921 0
ARM GAS  C:\Users\gjl\AppData\Local\Temp\ccg70AS9.s 			page 72


 2553 0000 0300     		movs	r3, r0
 2554 0002 0122     		movs	r2, #1
 920:..\..\u8g2\csrc/u8g2_font.c ****   u8g2->font_height_mode = U8G2_FONT_HEIGHT_MODE_XTEXT;
 2555              		.loc 1 920 0
 2556 0004 10B5     		push	{r4, lr}
 2557              		.cfi_def_cfa_offset 8
 2558              		.cfi_offset 4, -8
 2559              		.cfi_offset 14, -4
 921:..\..\u8g2\csrc/u8g2_font.c ****   u8g2_UpdateRefHeight(u8g2);
 2560              		.loc 1 921 0
 2561 0006 7833     		adds	r3, r3, #120
 2562 0008 1A70     		strb	r2, [r3]
 922:..\..\u8g2\csrc/u8g2_font.c **** }
 2563              		.loc 1 922 0
 2564 000a FFF7FEFF 		bl	u8g2_UpdateRefHeight
 2565              	.LVL357:
 923:..\..\u8g2\csrc/u8g2_font.c **** 
 2566              		.loc 1 923 0
 2567              		@ sp needed
 2568 000e 10BD     		pop	{r4, pc}
 2569              		.cfi_endproc
 2570              	.LFE29:
 2571              		.size	u8g2_SetFontRefHeightExtendedText, .-u8g2_SetFontRefHeightExtendedText
 2572              		.section	.text.u8g2_SetFontRefHeightAll,"ax",%progbits
 2573              		.align	1
 2574              		.global	u8g2_SetFontRefHeightAll
 2575              		.code	16
 2576              		.thumb_func
 2577              		.type	u8g2_SetFontRefHeightAll, %function
 2578              	u8g2_SetFontRefHeightAll:
 2579              	.LFB30:
 926:..\..\u8g2\csrc/u8g2_font.c ****   u8g2->font_height_mode = U8G2_FONT_HEIGHT_MODE_ALL;
 2580              		.loc 1 926 0
 2581              		.cfi_startproc
 2582              		@ args = 0, pretend = 0, frame = 0
 2583              		@ frame_needed = 0, uses_anonymous_args = 0
 2584              	.LVL358:
 927:..\..\u8g2\csrc/u8g2_font.c ****   u8g2_UpdateRefHeight(u8g2);
 2585              		.loc 1 927 0
 2586 0000 0300     		movs	r3, r0
 2587 0002 0222     		movs	r2, #2
 926:..\..\u8g2\csrc/u8g2_font.c ****   u8g2->font_height_mode = U8G2_FONT_HEIGHT_MODE_ALL;
 2588              		.loc 1 926 0
 2589 0004 10B5     		push	{r4, lr}
 2590              		.cfi_def_cfa_offset 8
 2591              		.cfi_offset 4, -8
 2592              		.cfi_offset 14, -4
 927:..\..\u8g2\csrc/u8g2_font.c ****   u8g2_UpdateRefHeight(u8g2);
 2593              		.loc 1 927 0
 2594 0006 7833     		adds	r3, r3, #120
 2595 0008 1A70     		strb	r2, [r3]
 928:..\..\u8g2\csrc/u8g2_font.c **** }
 2596              		.loc 1 928 0
 2597 000a FFF7FEFF 		bl	u8g2_UpdateRefHeight
 2598              	.LVL359:
 929:..\..\u8g2\csrc/u8g2_font.c **** 
 2599              		.loc 1 929 0
ARM GAS  C:\Users\gjl\AppData\Local\Temp\ccg70AS9.s 			page 73


 2600              		@ sp needed
 2601 000e 10BD     		pop	{r4, pc}
 2602              		.cfi_endproc
 2603              	.LFE30:
 2604              		.size	u8g2_SetFontRefHeightAll, .-u8g2_SetFontRefHeightAll
 2605              		.section	.text.u8g2_SetFontPosBaseline,"ax",%progbits
 2606              		.align	1
 2607              		.global	u8g2_SetFontPosBaseline
 2608              		.code	16
 2609              		.thumb_func
 2610              		.type	u8g2_SetFontPosBaseline, %function
 2611              	u8g2_SetFontPosBaseline:
 2612              	.LFB32:
 940:..\..\u8g2\csrc/u8g2_font.c ****   u8g2->font_calc_vref = u8g2_font_calc_vref_font;
 2613              		.loc 1 940 0
 2614              		.cfi_startproc
 2615              		@ args = 0, pretend = 0, frame = 0
 2616              		@ frame_needed = 0, uses_anonymous_args = 0
 2617              		@ link register save eliminated.
 2618              	.LVL360:
 941:..\..\u8g2\csrc/u8g2_font.c **** }
 2619              		.loc 1 941 0
 2620 0000 014B     		ldr	r3, .L158
 942:..\..\u8g2\csrc/u8g2_font.c **** 
 2621              		.loc 1 942 0
 2622              		@ sp needed
 941:..\..\u8g2\csrc/u8g2_font.c **** }
 2623              		.loc 1 941 0
 2624 0002 C364     		str	r3, [r0, #76]
 942:..\..\u8g2\csrc/u8g2_font.c **** 
 2625              		.loc 1 942 0
 2626 0004 7047     		bx	lr
 2627              	.L159:
 2628 0006 C046     		.align	2
 2629              	.L158:
 2630 0008 00000000 		.word	u8g2_font_calc_vref_font
 2631              		.cfi_endproc
 2632              	.LFE32:
 2633              		.size	u8g2_SetFontPosBaseline, .-u8g2_SetFontPosBaseline
 2634              		.section	.text.u8g2_SetFontPosBottom,"ax",%progbits
 2635              		.align	1
 2636              		.global	u8g2_SetFontPosBottom
 2637              		.code	16
 2638              		.thumb_func
 2639              		.type	u8g2_SetFontPosBottom, %function
 2640              	u8g2_SetFontPosBottom:
 2641              	.LFB34:
 951:..\..\u8g2\csrc/u8g2_font.c ****   u8g2->font_calc_vref = u8g2_font_calc_vref_bottom;
 2642              		.loc 1 951 0
 2643              		.cfi_startproc
 2644              		@ args = 0, pretend = 0, frame = 0
 2645              		@ frame_needed = 0, uses_anonymous_args = 0
 2646              		@ link register save eliminated.
 2647              	.LVL361:
 952:..\..\u8g2\csrc/u8g2_font.c **** }
 2648              		.loc 1 952 0
 2649 0000 014B     		ldr	r3, .L161
ARM GAS  C:\Users\gjl\AppData\Local\Temp\ccg70AS9.s 			page 74


 953:..\..\u8g2\csrc/u8g2_font.c **** 
 2650              		.loc 1 953 0
 2651              		@ sp needed
 952:..\..\u8g2\csrc/u8g2_font.c **** }
 2652              		.loc 1 952 0
 2653 0002 C364     		str	r3, [r0, #76]
 953:..\..\u8g2\csrc/u8g2_font.c **** 
 2654              		.loc 1 953 0
 2655 0004 7047     		bx	lr
 2656              	.L162:
 2657 0006 C046     		.align	2
 2658              	.L161:
 2659 0008 00000000 		.word	u8g2_font_calc_vref_bottom
 2660              		.cfi_endproc
 2661              	.LFE34:
 2662              		.size	u8g2_SetFontPosBottom, .-u8g2_SetFontPosBottom
 2663              		.section	.text.u8g2_SetFontPosTop,"ax",%progbits
 2664              		.align	1
 2665              		.global	u8g2_SetFontPosTop
 2666              		.code	16
 2667              		.thumb_func
 2668              		.type	u8g2_SetFontPosTop, %function
 2669              	u8g2_SetFontPosTop:
 2670              	.LFB36:
 965:..\..\u8g2\csrc/u8g2_font.c ****   u8g2->font_calc_vref = u8g2_font_calc_vref_top;
 2671              		.loc 1 965 0
 2672              		.cfi_startproc
 2673              		@ args = 0, pretend = 0, frame = 0
 2674              		@ frame_needed = 0, uses_anonymous_args = 0
 2675              		@ link register save eliminated.
 2676              	.LVL362:
 966:..\..\u8g2\csrc/u8g2_font.c **** }
 2677              		.loc 1 966 0
 2678 0000 014B     		ldr	r3, .L164
 967:..\..\u8g2\csrc/u8g2_font.c **** 
 2679              		.loc 1 967 0
 2680              		@ sp needed
 966:..\..\u8g2\csrc/u8g2_font.c **** }
 2681              		.loc 1 966 0
 2682 0002 C364     		str	r3, [r0, #76]
 967:..\..\u8g2\csrc/u8g2_font.c **** 
 2683              		.loc 1 967 0
 2684 0004 7047     		bx	lr
 2685              	.L165:
 2686 0006 C046     		.align	2
 2687              	.L164:
 2688 0008 00000000 		.word	u8g2_font_calc_vref_top
 2689              		.cfi_endproc
 2690              	.LFE36:
 2691              		.size	u8g2_SetFontPosTop, .-u8g2_SetFontPosTop
 2692              		.section	.text.u8g2_SetFontPosCenter,"ax",%progbits
 2693              		.align	1
 2694              		.global	u8g2_SetFontPosCenter
 2695              		.code	16
 2696              		.thumb_func
 2697              		.type	u8g2_SetFontPosCenter, %function
 2698              	u8g2_SetFontPosCenter:
ARM GAS  C:\Users\gjl\AppData\Local\Temp\ccg70AS9.s 			page 75


 2699              	.LFB38:
 980:..\..\u8g2\csrc/u8g2_font.c ****   u8g2->font_calc_vref = u8g2_font_calc_vref_center;
 2700              		.loc 1 980 0
 2701              		.cfi_startproc
 2702              		@ args = 0, pretend = 0, frame = 0
 2703              		@ frame_needed = 0, uses_anonymous_args = 0
 2704              		@ link register save eliminated.
 2705              	.LVL363:
 981:..\..\u8g2\csrc/u8g2_font.c **** }
 2706              		.loc 1 981 0
 2707 0000 014B     		ldr	r3, .L167
 982:..\..\u8g2\csrc/u8g2_font.c **** 
 2708              		.loc 1 982 0
 2709              		@ sp needed
 981:..\..\u8g2\csrc/u8g2_font.c **** }
 2710              		.loc 1 981 0
 2711 0002 C364     		str	r3, [r0, #76]
 982:..\..\u8g2\csrc/u8g2_font.c **** 
 2712              		.loc 1 982 0
 2713 0004 7047     		bx	lr
 2714              	.L168:
 2715 0006 C046     		.align	2
 2716              	.L167:
 2717 0008 00000000 		.word	u8g2_font_calc_vref_center
 2718              		.cfi_endproc
 2719              	.LFE38:
 2720              		.size	u8g2_SetFontPosCenter, .-u8g2_SetFontPosCenter
 2721              		.section	.text.u8g2_SetFont,"ax",%progbits
 2722              		.align	1
 2723              		.global	u8g2_SetFont
 2724              		.code	16
 2725              		.thumb_func
 2726              		.type	u8g2_SetFont, %function
 2727              	u8g2_SetFont:
 2728              	.LFB39:
 987:..\..\u8g2\csrc/u8g2_font.c ****   if ( u8g2->font != font )
 2729              		.loc 1 987 0
 2730              		.cfi_startproc
 2731              		@ args = 0, pretend = 0, frame = 0
 2732              		@ frame_needed = 0, uses_anonymous_args = 0
 2733              	.LVL364:
 988:..\..\u8g2\csrc/u8g2_font.c ****   {
 2734              		.loc 1 988 0
 2735 0000 836C     		ldr	r3, [r0, #72]
 987:..\..\u8g2\csrc/u8g2_font.c ****   if ( u8g2->font != font )
 2736              		.loc 1 987 0
 2737 0002 10B5     		push	{r4, lr}
 2738              		.cfi_def_cfa_offset 8
 2739              		.cfi_offset 4, -8
 2740              		.cfi_offset 14, -4
 987:..\..\u8g2\csrc/u8g2_font.c ****   if ( u8g2->font != font )
 2741              		.loc 1 987 0
 2742 0004 0400     		movs	r4, r0
 988:..\..\u8g2\csrc/u8g2_font.c ****   {
 2743              		.loc 1 988 0
 2744 0006 8B42     		cmp	r3, r1
 2745 0008 06D0     		beq	.L169
ARM GAS  C:\Users\gjl\AppData\Local\Temp\ccg70AS9.s 			page 76


 990:..\..\u8g2\csrc/u8g2_font.c ****     u8g2_read_font_info(&(u8g2->font_info), font);
 2746              		.loc 1 990 0
 2747 000a 8164     		str	r1, [r0, #72]
 991:..\..\u8g2\csrc/u8g2_font.c ****     u8g2_UpdateRefHeight(u8g2);
 2748              		.loc 1 991 0
 2749 000c 6030     		adds	r0, r0, #96
 2750              	.LVL365:
 2751 000e FFF7FEFF 		bl	u8g2_read_font_info
 2752              	.LVL366:
 992:..\..\u8g2\csrc/u8g2_font.c ****     /* u8g2_SetFontPosBaseline(u8g2); */ /* removed with issue 195 */
 2753              		.loc 1 992 0
 2754 0012 2000     		movs	r0, r4
 2755 0014 FFF7FEFF 		bl	u8g2_UpdateRefHeight
 2756              	.LVL367:
 2757              	.L169:
 995:..\..\u8g2\csrc/u8g2_font.c **** 
 2758              		.loc 1 995 0
 2759              		@ sp needed
 2760              	.LVL368:
 2761 0018 10BD     		pop	{r4, pc}
 2762              		.cfi_endproc
 2763              	.LFE39:
 2764              		.size	u8g2_SetFont, .-u8g2_SetFont
 2765              		.section	.text.u8g2_GetStrX,"ax",%progbits
 2766              		.align	1
 2767              		.global	u8g2_GetStrX
 2768              		.code	16
 2769              		.thumb_func
 2770              		.type	u8g2_GetStrX, %function
 2771              	u8g2_GetStrX:
 2772              	.LFB42:
1053:..\..\u8g2\csrc/u8g2_font.c **** 
1054:..\..\u8g2\csrc/u8g2_font.c **** /* u8g compatible GetStrX function */
1055:..\..\u8g2\csrc/u8g2_font.c **** int8_t u8g2_GetStrX(u8g2_t *u8g2, const char *s)
1056:..\..\u8g2\csrc/u8g2_font.c **** {
 2773              		.loc 1 1056 0
 2774              		.cfi_startproc
 2775              		@ args = 0, pretend = 0, frame = 8
 2776              		@ frame_needed = 0, uses_anonymous_args = 0
 2777              	.LVL369:
 2778 0000 1FB5     		push	{r0, r1, r2, r3, r4, lr}
 2779              		.cfi_def_cfa_offset 24
 2780              		.cfi_offset 0, -24
 2781              		.cfi_offset 1, -20
 2782              		.cfi_offset 2, -16
 2783              		.cfi_offset 3, -12
 2784              		.cfi_offset 4, -8
 2785              		.cfi_offset 14, -4
1057:..\..\u8g2\csrc/u8g2_font.c ****   uint8_t w;
1058:..\..\u8g2\csrc/u8g2_font.c ****   int8_t ox, dx;
1059:..\..\u8g2\csrc/u8g2_font.c ****   u8g2_GetGlyphHorizontalProperties(u8g2, *s, &w, &ox, &dx);
 2786              		.loc 1 1059 0
 2787 0002 0E24     		movs	r4, #14
 2788 0004 0F23     		movs	r3, #15
 2789 0006 0D22     		movs	r2, #13
 2790 0008 6C44     		add	r4, r4, sp
 2791 000a 6B44     		add	r3, r3, sp
ARM GAS  C:\Users\gjl\AppData\Local\Temp\ccg70AS9.s 			page 77


 2792 000c 0978     		ldrb	r1, [r1]
 2793              	.LVL370:
 2794 000e 6A44     		add	r2, r2, sp
 2795 0010 0093     		str	r3, [sp]
 2796 0012 2300     		movs	r3, r4
 2797 0014 FFF7FEFF 		bl	u8g2_GetGlyphHorizontalProperties
 2798              	.LVL371:
1060:..\..\u8g2\csrc/u8g2_font.c ****   return ox;
 2799              		.loc 1 1060 0
 2800 0018 0020     		movs	r0, #0
 2801 001a 2056     		ldrsb	r0, [r4, r0]
1061:..\..\u8g2\csrc/u8g2_font.c **** }
 2802              		.loc 1 1061 0
 2803 001c 04B0     		add	sp, sp, #16
 2804              		@ sp needed
 2805 001e 10BD     		pop	{r4, pc}
 2806              		.cfi_endproc
 2807              	.LFE42:
 2808              		.size	u8g2_GetStrX, .-u8g2_GetStrX
 2809              		.section	.text.u8g2_GetStrWidth,"ax",%progbits
 2810              		.align	1
 2811              		.global	u8g2_GetStrWidth
 2812              		.code	16
 2813              		.thumb_func
 2814              		.type	u8g2_GetStrWidth, %function
 2815              	u8g2_GetStrWidth:
 2816              	.LFB44:
1062:..\..\u8g2\csrc/u8g2_font.c **** 
1063:..\..\u8g2\csrc/u8g2_font.c **** 
1064:..\..\u8g2\csrc/u8g2_font.c **** 
1065:..\..\u8g2\csrc/u8g2_font.c **** static u8g2_uint_t u8g2_calculate_exact_string_width(u8g2_t *u8g2, const char *str)
1066:..\..\u8g2\csrc/u8g2_font.c **** {
1067:..\..\u8g2\csrc/u8g2_font.c **** 
1068:..\..\u8g2\csrc/u8g2_font.c ****   u8g2_uint_t  w;
1069:..\..\u8g2\csrc/u8g2_font.c ****   uint16_t enc;
1070:..\..\u8g2\csrc/u8g2_font.c ****   uint8_t gw; 
1071:..\..\u8g2\csrc/u8g2_font.c ****   int8_t ox, dx;
1072:..\..\u8g2\csrc/u8g2_font.c ****   
1073:..\..\u8g2\csrc/u8g2_font.c ****   /* reset the total minimal width to zero, this will be expanded during calculation */
1074:..\..\u8g2\csrc/u8g2_font.c ****   w = 0;
1075:..\..\u8g2\csrc/u8g2_font.c ****     
1076:..\..\u8g2\csrc/u8g2_font.c ****   
1077:..\..\u8g2\csrc/u8g2_font.c ****   /* check for empty string, width is already 0 */
1078:..\..\u8g2\csrc/u8g2_font.c ****   do
1079:..\..\u8g2\csrc/u8g2_font.c ****   {
1080:..\..\u8g2\csrc/u8g2_font.c ****     enc = u8g2->u8x8.next_cb(u8g2_GetU8x8(u8g2), (uint8_t)*str);
1081:..\..\u8g2\csrc/u8g2_font.c ****     str++;
1082:..\..\u8g2\csrc/u8g2_font.c ****   } while( enc == 0x0fffe );
1083:..\..\u8g2\csrc/u8g2_font.c ****   
1084:..\..\u8g2\csrc/u8g2_font.c ****   if ( enc== 0x0ffff )
1085:..\..\u8g2\csrc/u8g2_font.c ****      return w;
1086:..\..\u8g2\csrc/u8g2_font.c ****   
1087:..\..\u8g2\csrc/u8g2_font.c ****   /* get the glyph information of the first char. This must be valid, because we already checked fo
1088:..\..\u8g2\csrc/u8g2_font.c ****   /* if *s is not inside the font, then the cached parameters of the glyph are all zero */
1089:..\..\u8g2\csrc/u8g2_font.c ****   u8g2_GetGlyphHorizontalProperties(u8g2, enc, &gw, &ox, &dx);  
1090:..\..\u8g2\csrc/u8g2_font.c **** 
1091:..\..\u8g2\csrc/u8g2_font.c ****   /* strlen(s) == 1:       width = width(s[0]) */
ARM GAS  C:\Users\gjl\AppData\Local\Temp\ccg70AS9.s 			page 78


1092:..\..\u8g2\csrc/u8g2_font.c ****   /* strlen(s) == 2:       width = - offx(s[0]) + deltax(s[0]) + offx(s[1]) + width(s[1]) */
1093:..\..\u8g2\csrc/u8g2_font.c ****   /* strlen(s) == 3:       width = - offx(s[0]) + deltax(s[0]) + deltax(s[1]) + offx(s[2]) + width(
1094:..\..\u8g2\csrc/u8g2_font.c ****   
1095:..\..\u8g2\csrc/u8g2_font.c ****   /* assume that the string has size 2 or more, than start with negative offset-x */
1096:..\..\u8g2\csrc/u8g2_font.c ****   /* for string with size 1, this will be nullified after the loop */
1097:..\..\u8g2\csrc/u8g2_font.c ****   w = -ox;  
1098:..\..\u8g2\csrc/u8g2_font.c ****   for(;;)
1099:..\..\u8g2\csrc/u8g2_font.c ****   {
1100:..\..\u8g2\csrc/u8g2_font.c ****     
1101:..\..\u8g2\csrc/u8g2_font.c ****     /* check and stop if the end of the string is reached */
1102:..\..\u8g2\csrc/u8g2_font.c ****     do
1103:..\..\u8g2\csrc/u8g2_font.c ****     {
1104:..\..\u8g2\csrc/u8g2_font.c ****       enc = u8g2->u8x8.next_cb(u8g2_GetU8x8(u8g2), (uint8_t)*str);
1105:..\..\u8g2\csrc/u8g2_font.c ****       str++;
1106:..\..\u8g2\csrc/u8g2_font.c ****     } while( enc == 0x0fffe );
1107:..\..\u8g2\csrc/u8g2_font.c ****     if ( enc== 0x0ffff )
1108:..\..\u8g2\csrc/u8g2_font.c ****       break;
1109:..\..\u8g2\csrc/u8g2_font.c **** 
1110:..\..\u8g2\csrc/u8g2_font.c ****     u8g2_GetGlyphHorizontalProperties(u8g2, enc, &gw, &ox, &dx);  
1111:..\..\u8g2\csrc/u8g2_font.c ****     
1112:..\..\u8g2\csrc/u8g2_font.c ****     /* if there are still more characters, add the delta to the next glyph */
1113:..\..\u8g2\csrc/u8g2_font.c ****     w += dx;    
1114:..\..\u8g2\csrc/u8g2_font.c ****   }
1115:..\..\u8g2\csrc/u8g2_font.c ****   
1116:..\..\u8g2\csrc/u8g2_font.c ****   /* finally calculate the width of the last char */
1117:..\..\u8g2\csrc/u8g2_font.c ****   /* here is another exception, if the last char is a black, use the dx value instead */
1118:..\..\u8g2\csrc/u8g2_font.c ****   if ( enc != ' ' )
1119:..\..\u8g2\csrc/u8g2_font.c ****   {
1120:..\..\u8g2\csrc/u8g2_font.c ****     /* if g was not updated in the for loop (strlen() == 1), then the initial offset x gets removed
1121:..\..\u8g2\csrc/u8g2_font.c ****     w += gw;
1122:..\..\u8g2\csrc/u8g2_font.c ****     w += ox;
1123:..\..\u8g2\csrc/u8g2_font.c ****   }
1124:..\..\u8g2\csrc/u8g2_font.c ****   else
1125:..\..\u8g2\csrc/u8g2_font.c ****   {
1126:..\..\u8g2\csrc/u8g2_font.c ****     w += dx;
1127:..\..\u8g2\csrc/u8g2_font.c ****   }
1128:..\..\u8g2\csrc/u8g2_font.c ****   
1129:..\..\u8g2\csrc/u8g2_font.c ****   
1130:..\..\u8g2\csrc/u8g2_font.c ****   return w;
1131:..\..\u8g2\csrc/u8g2_font.c **** 	
1132:..\..\u8g2\csrc/u8g2_font.c **** }
1133:..\..\u8g2\csrc/u8g2_font.c **** 
1134:..\..\u8g2\csrc/u8g2_font.c **** 
1135:..\..\u8g2\csrc/u8g2_font.c **** 
1136:..\..\u8g2\csrc/u8g2_font.c **** 
1137:..\..\u8g2\csrc/u8g2_font.c **** 
1138:..\..\u8g2\csrc/u8g2_font.c **** u8g2_uint_t u8g2_GetStrWidth(u8g2_t *u8g2, const char *s)
1139:..\..\u8g2\csrc/u8g2_font.c **** {
 2817              		.loc 1 1139 0
 2818              		.cfi_startproc
 2819              		@ args = 0, pretend = 0, frame = 0
 2820              		@ frame_needed = 0, uses_anonymous_args = 0
 2821              	.LVL372:
 2822 0000 10B5     		push	{r4, lr}
 2823              		.cfi_def_cfa_offset 8
 2824              		.cfi_offset 4, -8
 2825              		.cfi_offset 14, -4
ARM GAS  C:\Users\gjl\AppData\Local\Temp\ccg70AS9.s 			page 79


1140:..\..\u8g2\csrc/u8g2_font.c ****   u8g2->u8x8.next_cb = u8x8_ascii_next;
 2826              		.loc 1 1140 0
 2827 0002 024B     		ldr	r3, .L173
1141:..\..\u8g2\csrc/u8g2_font.c ****   return u8g2_string_width(u8g2, s);
1142:..\..\u8g2\csrc/u8g2_font.c **** }
 2828              		.loc 1 1142 0
 2829              		@ sp needed
1140:..\..\u8g2\csrc/u8g2_font.c ****   u8g2->u8x8.next_cb = u8x8_ascii_next;
 2830              		.loc 1 1140 0
 2831 0004 4360     		str	r3, [r0, #4]
1141:..\..\u8g2\csrc/u8g2_font.c ****   return u8g2_string_width(u8g2, s);
 2832              		.loc 1 1141 0
 2833 0006 FFF7FEFF 		bl	u8g2_string_width
 2834              	.LVL373:
 2835              		.loc 1 1142 0
 2836 000a 10BD     		pop	{r4, pc}
 2837              	.L174:
 2838              		.align	2
 2839              	.L173:
 2840 000c 00000000 		.word	u8x8_ascii_next
 2841              		.cfi_endproc
 2842              	.LFE44:
 2843              		.size	u8g2_GetStrWidth, .-u8g2_GetStrWidth
 2844              		.section	.text.u8g2_GetExactStrWidth,"ax",%progbits
 2845              		.align	1
 2846              		.global	u8g2_GetExactStrWidth
 2847              		.code	16
 2848              		.thumb_func
 2849              		.type	u8g2_GetExactStrWidth, %function
 2850              	u8g2_GetExactStrWidth:
 2851              	.LFB45:
1143:..\..\u8g2\csrc/u8g2_font.c **** 
1144:..\..\u8g2\csrc/u8g2_font.c **** u8g2_uint_t u8g2_GetExactStrWidth(u8g2_t *u8g2, const char *s)
1145:..\..\u8g2\csrc/u8g2_font.c **** {
 2852              		.loc 1 1145 0
 2853              		.cfi_startproc
 2854              		@ args = 0, pretend = 0, frame = 8
 2855              		@ frame_needed = 0, uses_anonymous_args = 0
 2856              	.LVL374:
 2857 0000 F0B5     		push	{r4, r5, r6, r7, lr}
 2858              		.cfi_def_cfa_offset 20
 2859              		.cfi_offset 4, -20
 2860              		.cfi_offset 5, -16
 2861              		.cfi_offset 6, -12
 2862              		.cfi_offset 7, -8
 2863              		.cfi_offset 14, -4
 2864 0002 0400     		movs	r4, r0
 2865 0004 0D00     		movs	r5, r1
1146:..\..\u8g2\csrc/u8g2_font.c ****   u8g2->u8x8.next_cb = u8x8_ascii_next;
 2866              		.loc 1 1146 0
 2867 0006 1F4B     		ldr	r3, .L184
1145:..\..\u8g2\csrc/u8g2_font.c ****   u8g2->u8x8.next_cb = u8x8_ascii_next;
 2868              		.loc 1 1145 0
 2869 0008 85B0     		sub	sp, sp, #20
 2870              		.cfi_def_cfa_offset 40
 2871              		.loc 1 1146 0
 2872 000a 4360     		str	r3, [r0, #4]
ARM GAS  C:\Users\gjl\AppData\Local\Temp\ccg70AS9.s 			page 80


 2873              	.LVL375:
 2874              	.L176:
 2875              	.LBB64:
 2876              	.LBB65:
1080:..\..\u8g2\csrc/u8g2_font.c ****     str++;
 2877              		.loc 1 1080 0
 2878 000c 2978     		ldrb	r1, [r5]
 2879 000e 6368     		ldr	r3, [r4, #4]
 2880 0010 2000     		movs	r0, r4
 2881 0012 9847     		blx	r3
 2882              	.LVL376:
1082:..\..\u8g2\csrc/u8g2_font.c ****   
 2883              		.loc 1 1082 0
 2884 0014 1C4B     		ldr	r3, .L184+4
1080:..\..\u8g2\csrc/u8g2_font.c ****     str++;
 2885              		.loc 1 1080 0
 2886 0016 0100     		movs	r1, r0
 2887              	.LVL377:
1081:..\..\u8g2\csrc/u8g2_font.c ****   } while( enc == 0x0fffe );
 2888              		.loc 1 1081 0
 2889 0018 0135     		adds	r5, r5, #1
 2890              	.LVL378:
1082:..\..\u8g2\csrc/u8g2_font.c ****   
 2891              		.loc 1 1082 0
 2892 001a 9842     		cmp	r0, r3
 2893 001c F6D0     		beq	.L176
1084:..\..\u8g2\csrc/u8g2_font.c ****      return w;
 2894              		.loc 1 1084 0
 2895 001e 1B4B     		ldr	r3, .L184+8
1085:..\..\u8g2\csrc/u8g2_font.c ****   
 2896              		.loc 1 1085 0
 2897 0020 0020     		movs	r0, #0
 2898              	.LVL379:
1084:..\..\u8g2\csrc/u8g2_font.c ****      return w;
 2899              		.loc 1 1084 0
 2900 0022 9942     		cmp	r1, r3
 2901 0024 2BD0     		beq	.L177
1089:..\..\u8g2\csrc/u8g2_font.c **** 
 2902              		.loc 1 1089 0
 2903 0026 0E26     		movs	r6, #14
 2904 0028 0F23     		movs	r3, #15
 2905 002a 0D22     		movs	r2, #13
 2906 002c 6E44     		add	r6, r6, sp
 2907 002e 6B44     		add	r3, r3, sp
 2908 0030 0093     		str	r3, [sp]
 2909 0032 2000     		movs	r0, r4
 2910 0034 3300     		movs	r3, r6
 2911 0036 6A44     		add	r2, r2, sp
 2912 0038 FFF7FEFF 		bl	u8g2_GetGlyphHorizontalProperties
 2913              	.LVL380:
1097:..\..\u8g2\csrc/u8g2_font.c ****   for(;;)
 2914              		.loc 1 1097 0
 2915 003c 3078     		ldrb	r0, [r6]
 2916 003e 4042     		rsbs	r0, r0, #0
 2917              	.LVL381:
 2918              	.L183:
 2919 0040 C7B2     		uxtb	r7, r0
ARM GAS  C:\Users\gjl\AppData\Local\Temp\ccg70AS9.s 			page 81


 2920              	.LVL382:
 2921              	.L178:
1104:..\..\u8g2\csrc/u8g2_font.c ****       str++;
 2922              		.loc 1 1104 0
 2923 0042 2978     		ldrb	r1, [r5]
 2924 0044 6368     		ldr	r3, [r4, #4]
 2925 0046 2000     		movs	r0, r4
 2926 0048 9847     		blx	r3
 2927              	.LVL383:
1106:..\..\u8g2\csrc/u8g2_font.c ****     if ( enc== 0x0ffff )
 2928              		.loc 1 1106 0
 2929 004a 0F4B     		ldr	r3, .L184+4
1104:..\..\u8g2\csrc/u8g2_font.c ****       str++;
 2930              		.loc 1 1104 0
 2931 004c 0100     		movs	r1, r0
 2932              	.LVL384:
1105:..\..\u8g2\csrc/u8g2_font.c ****     } while( enc == 0x0fffe );
 2933              		.loc 1 1105 0
 2934 004e 0135     		adds	r5, r5, #1
 2935              	.LVL385:
1106:..\..\u8g2\csrc/u8g2_font.c ****     if ( enc== 0x0ffff )
 2936              		.loc 1 1106 0
 2937 0050 9842     		cmp	r0, r3
 2938 0052 F6D0     		beq	.L178
 2939 0054 0D22     		movs	r2, #13
1107:..\..\u8g2\csrc/u8g2_font.c ****       break;
 2940              		.loc 1 1107 0
 2941 0056 0D4B     		ldr	r3, .L184+8
 2942 0058 6A44     		add	r2, r2, sp
 2943 005a 9842     		cmp	r0, r3
 2944 005c 0AD0     		beq	.L180
1110:..\..\u8g2\csrc/u8g2_font.c ****     
 2945              		.loc 1 1110 0
 2946 005e 0F23     		movs	r3, #15
 2947 0060 6B44     		add	r3, r3, sp
 2948 0062 0093     		str	r3, [sp]
 2949 0064 2000     		movs	r0, r4
 2950              	.LVL386:
 2951 0066 3300     		movs	r3, r6
 2952 0068 FFF7FEFF 		bl	u8g2_GetGlyphHorizontalProperties
 2953              	.LVL387:
1113:..\..\u8g2\csrc/u8g2_font.c ****   }
 2954              		.loc 1 1113 0
 2955 006c 6B46     		mov	r3, sp
 2956 006e D87B     		ldrb	r0, [r3, #15]
 2957 0070 3818     		adds	r0, r7, r0
 2958 0072 E5E7     		b	.L183
 2959              	.LVL388:
 2960              	.L180:
1122:..\..\u8g2\csrc/u8g2_font.c ****   }
 2961              		.loc 1 1122 0
 2962 0074 1078     		ldrb	r0, [r2]
 2963              	.LVL389:
 2964 0076 3378     		ldrb	r3, [r6]
 2965 0078 C018     		adds	r0, r0, r3
 2966 007a 3818     		adds	r0, r7, r0
 2967 007c C0B2     		uxtb	r0, r0
ARM GAS  C:\Users\gjl\AppData\Local\Temp\ccg70AS9.s 			page 82


 2968              	.LVL390:
 2969              	.L177:
 2970              	.LBE65:
 2971              	.LBE64:
1147:..\..\u8g2\csrc/u8g2_font.c ****   return u8g2_calculate_exact_string_width(u8g2, s);
1148:..\..\u8g2\csrc/u8g2_font.c **** }
 2972              		.loc 1 1148 0
 2973 007e 05B0     		add	sp, sp, #20
 2974              		@ sp needed
 2975              	.LVL391:
 2976 0080 F0BD     		pop	{r4, r5, r6, r7, pc}
 2977              	.L185:
 2978 0082 C046     		.align	2
 2979              	.L184:
 2980 0084 00000000 		.word	u8x8_ascii_next
 2981 0088 FEFF0000 		.word	65534
 2982 008c FFFF0000 		.word	65535
 2983              		.cfi_endproc
 2984              	.LFE45:
 2985              		.size	u8g2_GetExactStrWidth, .-u8g2_GetExactStrWidth
 2986              		.section	.text.u8g2_GetUTF8Width,"ax",%progbits
 2987              		.align	1
 2988              		.global	u8g2_GetUTF8Width
 2989              		.code	16
 2990              		.thumb_func
 2991              		.type	u8g2_GetUTF8Width, %function
 2992              	u8g2_GetUTF8Width:
 2993              	.LFB46:
1149:..\..\u8g2\csrc/u8g2_font.c **** 
1150:..\..\u8g2\csrc/u8g2_font.c **** /*
1151:..\..\u8g2\csrc/u8g2_font.c **** source: https://en.wikipedia.org/wiki/UTF-8
1152:..\..\u8g2\csrc/u8g2_font.c **** Bits	from 		to			bytes	Byte 1 		Byte 2 		Byte 3 		Byte 4 		Byte 5 		Byte 6
1153:..\..\u8g2\csrc/u8g2_font.c ****   7 	U+0000 		U+007F 		1 		0xxxxxxx
1154:..\..\u8g2\csrc/u8g2_font.c **** 11 	U+0080 		U+07FF 		2 		110xxxxx 	10xxxxxx
1155:..\..\u8g2\csrc/u8g2_font.c **** 16 	U+0800 		U+FFFF 		3 		1110xxxx 	10xxxxxx 	10xxxxxx
1156:..\..\u8g2\csrc/u8g2_font.c **** 21 	U+10000 	U+1FFFFF 	4 		11110xxx 	10xxxxxx 	10xxxxxx 	10xxxxxx
1157:..\..\u8g2\csrc/u8g2_font.c **** 26 	U+200000 	U+3FFFFFF 	5 		111110xx 	10xxxxxx 	10xxxxxx 	10xxxxxx 	10xxxxxx
1158:..\..\u8g2\csrc/u8g2_font.c **** 31 	U+4000000 	U+7FFFFFFF 	6 		1111110x 	10xxxxxx 	10xxxxxx 	10xxxxxx 	10xxxxxx 	10xxxxxx  
1159:..\..\u8g2\csrc/u8g2_font.c **** */
1160:..\..\u8g2\csrc/u8g2_font.c **** u8g2_uint_t u8g2_GetUTF8Width(u8g2_t *u8g2, const char *str)
1161:..\..\u8g2\csrc/u8g2_font.c **** {
 2994              		.loc 1 1161 0
 2995              		.cfi_startproc
 2996              		@ args = 0, pretend = 0, frame = 0
 2997              		@ frame_needed = 0, uses_anonymous_args = 0
 2998              	.LVL392:
 2999 0000 10B5     		push	{r4, lr}
 3000              		.cfi_def_cfa_offset 8
 3001              		.cfi_offset 4, -8
 3002              		.cfi_offset 14, -4
1162:..\..\u8g2\csrc/u8g2_font.c ****   u8g2->u8x8.next_cb = u8x8_utf8_next;
 3003              		.loc 1 1162 0
 3004 0002 024B     		ldr	r3, .L187
1163:..\..\u8g2\csrc/u8g2_font.c ****   return u8g2_string_width(u8g2, str);
1164:..\..\u8g2\csrc/u8g2_font.c **** }
 3005              		.loc 1 1164 0
 3006              		@ sp needed
ARM GAS  C:\Users\gjl\AppData\Local\Temp\ccg70AS9.s 			page 83


1162:..\..\u8g2\csrc/u8g2_font.c ****   u8g2->u8x8.next_cb = u8x8_utf8_next;
 3007              		.loc 1 1162 0
 3008 0004 4360     		str	r3, [r0, #4]
1163:..\..\u8g2\csrc/u8g2_font.c ****   return u8g2_string_width(u8g2, str);
 3009              		.loc 1 1163 0
 3010 0006 FFF7FEFF 		bl	u8g2_string_width
 3011              	.LVL393:
 3012              		.loc 1 1164 0
 3013 000a 10BD     		pop	{r4, pc}
 3014              	.L188:
 3015              		.align	2
 3016              	.L187:
 3017 000c 00000000 		.word	u8x8_utf8_next
 3018              		.cfi_endproc
 3019              	.LFE46:
 3020              		.size	u8g2_GetUTF8Width, .-u8g2_GetUTF8Width
 3021              		.section	.text.u8g2_SetFontDirection,"ax",%progbits
 3022              		.align	1
 3023              		.global	u8g2_SetFontDirection
 3024              		.code	16
 3025              		.thumb_func
 3026              		.type	u8g2_SetFontDirection, %function
 3027              	u8g2_SetFontDirection:
 3028              	.LFB47:
1165:..\..\u8g2\csrc/u8g2_font.c **** 
1166:..\..\u8g2\csrc/u8g2_font.c **** 
1167:..\..\u8g2\csrc/u8g2_font.c **** 
1168:..\..\u8g2\csrc/u8g2_font.c **** void u8g2_SetFontDirection(u8g2_t *u8g2, uint8_t dir)
1169:..\..\u8g2\csrc/u8g2_font.c **** {
 3029              		.loc 1 1169 0
 3030              		.cfi_startproc
 3031              		@ args = 0, pretend = 0, frame = 0
 3032              		@ frame_needed = 0, uses_anonymous_args = 0
 3033              		@ link register save eliminated.
 3034              	.LVL394:
1170:..\..\u8g2\csrc/u8g2_font.c **** #ifdef U8G2_WITH_FONT_ROTATION  
1171:..\..\u8g2\csrc/u8g2_font.c ****   u8g2->font_decode.dir = dir;
 3035              		.loc 1 1171 0
 3036 0000 5E30     		adds	r0, r0, #94
 3037              	.LVL395:
 3038 0002 0170     		strb	r1, [r0]
1172:..\..\u8g2\csrc/u8g2_font.c **** #endif
1173:..\..\u8g2\csrc/u8g2_font.c **** }
 3039              		.loc 1 1173 0
 3040              		@ sp needed
 3041 0004 7047     		bx	lr
 3042              		.cfi_endproc
 3043              	.LFE47:
 3044              		.size	u8g2_SetFontDirection, .-u8g2_SetFontDirection
 3045              		.text
 3046              	.Letext0:
 3047              		.file 2 "c:\\program files (x86)\\cypress\\psoc creator\\4.1\\psoc creator\\import\\gnu\\arm\\5.4.
 3048              		.file 3 "c:\\program files (x86)\\cypress\\psoc creator\\4.1\\psoc creator\\import\\gnu\\arm\\5.4.
 3049              		.file 4 "c:\\program files (x86)\\cypress\\psoc creator\\4.1\\psoc creator\\import\\gnu\\arm\\5.4.
 3050              		.file 5 "..\\..\\u8g2\\csrc\\u8x8.h"
 3051              		.file 6 "..\\..\\u8g2\\csrc\\u8g2.h"