ARM GAS  C:\Users\Alan\AppData\Local\Temp\cctK6Fgm.s 			page 1


   1              		.syntax unified
   2              		.cpu cortex-m0
   3              		.fpu softvfp
   4              		.eabi_attribute 20, 1
   5              		.eabi_attribute 21, 1
   6              		.eabi_attribute 23, 3
   7              		.eabi_attribute 24, 1
   8              		.eabi_attribute 25, 1
   9              		.eabi_attribute 26, 1
  10              		.eabi_attribute 30, 4
  11              		.eabi_attribute 34, 0
  12              		.eabi_attribute 18, 4
  13              		.thumb
  14              		.syntax unified
  15              		.file	"u8g2_hvline.c"
  16              		.text
  17              	.Ltext0:
  18              		.cfi_sections	.debug_frame
  19              		.section	.text.u8g2_draw_hv_line_4dir,"ax",%progbits
  20              		.align	1
  21              		.global	u8g2_draw_hv_line_4dir
  22              		.code	16
  23              		.thumb_func
  24              		.type	u8g2_draw_hv_line_4dir, %function
  25              	u8g2_draw_hv_line_4dir:
  26              	.LFB2:
  27              		.file 1 "..\\..\\u8g2\\csrc\\u8g2_hvline.c"
   1:..\..\u8g2\csrc/u8g2_hvline.c **** /*
   2:..\..\u8g2\csrc/u8g2_hvline.c **** 
   3:..\..\u8g2\csrc/u8g2_hvline.c ****   u8g2_hvline.c
   4:..\..\u8g2\csrc/u8g2_hvline.c **** 
   5:..\..\u8g2\csrc/u8g2_hvline.c ****   Universal 8bit Graphics Library (https://github.com/olikraus/u8g2/)
   6:..\..\u8g2\csrc/u8g2_hvline.c **** 
   7:..\..\u8g2\csrc/u8g2_hvline.c ****   Copyright (c) 2016, olikraus@gmail.com
   8:..\..\u8g2\csrc/u8g2_hvline.c ****   All rights reserved.
   9:..\..\u8g2\csrc/u8g2_hvline.c **** 
  10:..\..\u8g2\csrc/u8g2_hvline.c ****   Redistribution and use in source and binary forms, with or without modification, 
  11:..\..\u8g2\csrc/u8g2_hvline.c ****   are permitted provided that the following conditions are met:
  12:..\..\u8g2\csrc/u8g2_hvline.c **** 
  13:..\..\u8g2\csrc/u8g2_hvline.c ****   * Redistributions of source code must retain the above copyright notice, this list 
  14:..\..\u8g2\csrc/u8g2_hvline.c ****     of conditions and the following disclaimer.
  15:..\..\u8g2\csrc/u8g2_hvline.c ****     
  16:..\..\u8g2\csrc/u8g2_hvline.c ****   * Redistributions in binary form must reproduce the above copyright notice, this 
  17:..\..\u8g2\csrc/u8g2_hvline.c ****     list of conditions and the following disclaimer in the documentation and/or other 
  18:..\..\u8g2\csrc/u8g2_hvline.c ****     materials provided with the distribution.
  19:..\..\u8g2\csrc/u8g2_hvline.c **** 
  20:..\..\u8g2\csrc/u8g2_hvline.c ****   THIS SOFTWARE IS PROVIDED BY THE COPYRIGHT HOLDERS AND 
  21:..\..\u8g2\csrc/u8g2_hvline.c ****   CONTRIBUTORS "AS IS" AND ANY EXPRESS OR IMPLIED WARRANTIES, 
  22:..\..\u8g2\csrc/u8g2_hvline.c ****   INCLUDING, BUT NOT LIMITED TO, THE IMPLIED WARRANTIES OF 
  23:..\..\u8g2\csrc/u8g2_hvline.c ****   MERCHANTABILITY AND FITNESS FOR A PARTICULAR PURPOSE ARE 
  24:..\..\u8g2\csrc/u8g2_hvline.c ****   DISCLAIMED. IN NO EVENT SHALL THE COPYRIGHT HOLDER OR 
  25:..\..\u8g2\csrc/u8g2_hvline.c ****   CONTRIBUTORS BE LIABLE FOR ANY DIRECT, INDIRECT, INCIDENTAL, 
  26:..\..\u8g2\csrc/u8g2_hvline.c ****   SPECIAL, EXEMPLARY, OR CONSEQUENTIAL DAMAGES (INCLUDING, BUT 
  27:..\..\u8g2\csrc/u8g2_hvline.c ****   NOT LIMITED TO, PROCUREMENT OF SUBSTITUTE GOODS OR SERVICES; 
  28:..\..\u8g2\csrc/u8g2_hvline.c ****   LOSS OF USE, DATA, OR PROFITS; OR BUSINESS INTERRUPTION) HOWEVER 
  29:..\..\u8g2\csrc/u8g2_hvline.c ****   CAUSED AND ON ANY THEORY OF LIABILITY, WHETHER IN CONTRACT, 
  30:..\..\u8g2\csrc/u8g2_hvline.c ****   STRICT LIABILITY, OR TORT (INCLUDING NEGLIGENCE OR OTHERWISE) 
ARM GAS  C:\Users\Alan\AppData\Local\Temp\cctK6Fgm.s 			page 2


  31:..\..\u8g2\csrc/u8g2_hvline.c ****   ARISING IN ANY WAY OUT OF THE USE OF THIS SOFTWARE, EVEN IF 
  32:..\..\u8g2\csrc/u8g2_hvline.c ****   ADVISED OF THE POSSIBILITY OF SUCH DAMAGE.  
  33:..\..\u8g2\csrc/u8g2_hvline.c **** 
  34:..\..\u8g2\csrc/u8g2_hvline.c **** 
  35:..\..\u8g2\csrc/u8g2_hvline.c ****   Calltree
  36:..\..\u8g2\csrc/u8g2_hvline.c ****     void u8g2_DrawHVLine(u8g2_t *u8g2, u8g2_uint_t x, u8g2_uint_t y, u8g2_uint_t len, uint8_t dir)
  37:..\..\u8g2\csrc/u8g2_hvline.c ****     u8g2->cb->draw_l90
  38:..\..\u8g2\csrc/u8g2_hvline.c ****     void u8g2_draw_hv_line_4dir(u8g2_t *u8g2, u8g2_uint_t x, u8g2_uint_t y, u8g2_uint_t len, uint8_
  39:..\..\u8g2\csrc/u8g2_hvline.c ****     void u8g2_draw_hv_line_2dir(u8g2_t *u8g2, u8g2_uint_t x, u8g2_uint_t y, u8g2_uint_t len, uint8_
  40:..\..\u8g2\csrc/u8g2_hvline.c ****     void u8g2_draw_low_level_hv_line(u8g2_t *u8g2, u8g2_uint_t x, u8g2_uint_t y, u8g2_uint_t len, u
  41:..\..\u8g2\csrc/u8g2_hvline.c ****     void u8g2_draw_pixel(u8g2_t *u8g2, u8g2_uint_t x, u8g2_uint_t y)
  42:..\..\u8g2\csrc/u8g2_hvline.c **** 
  43:..\..\u8g2\csrc/u8g2_hvline.c **** */
  44:..\..\u8g2\csrc/u8g2_hvline.c **** 
  45:..\..\u8g2\csrc/u8g2_hvline.c **** #include "u8g2.h"
  46:..\..\u8g2\csrc/u8g2_hvline.c **** #include <assert.h>
  47:..\..\u8g2\csrc/u8g2_hvline.c **** 
  48:..\..\u8g2\csrc/u8g2_hvline.c **** 
  49:..\..\u8g2\csrc/u8g2_hvline.c **** 
  50:..\..\u8g2\csrc/u8g2_hvline.c **** 
  51:..\..\u8g2\csrc/u8g2_hvline.c **** #ifdef U8G2_WITH_CLIPPING
  52:..\..\u8g2\csrc/u8g2_hvline.c **** 
  53:..\..\u8g2\csrc/u8g2_hvline.c **** /*
  54:..\..\u8g2\csrc/u8g2_hvline.c ****   Description:
  55:..\..\u8g2\csrc/u8g2_hvline.c ****     clip range from a (included) to b (excluded) agains c (included) to d (excluded)
  56:..\..\u8g2\csrc/u8g2_hvline.c ****   Assumptions:
  57:..\..\u8g2\csrc/u8g2_hvline.c ****     a <= b		(this is checked and handled correctly)
  58:..\..\u8g2\csrc/u8g2_hvline.c ****     c <= d		(this is not checked)
  59:..\..\u8g2\csrc/u8g2_hvline.c ****   will return 0 if there is no intersection and if a > b
  60:..\..\u8g2\csrc/u8g2_hvline.c **** 
  61:..\..\u8g2\csrc/u8g2_hvline.c ****   optimized clipping: c is set to 0
  62:..\..\u8g2\csrc/u8g2_hvline.c **** */
  63:..\..\u8g2\csrc/u8g2_hvline.c **** //static uint8_t u8g2_clip_intersection(u8g2_uint_t *ap, u8g2_uint_t *bp, u8g2_uint_t c, u8g2_uint_
  64:..\..\u8g2\csrc/u8g2_hvline.c **** static uint8_t u8g2_clip_intersection(u8g2_uint_t *ap, u8g2_uint_t *bp, u8g2_uint_t d)
  65:..\..\u8g2\csrc/u8g2_hvline.c **** {
  66:..\..\u8g2\csrc/u8g2_hvline.c ****   u8g2_uint_t a = *ap;
  67:..\..\u8g2\csrc/u8g2_hvline.c ****   u8g2_uint_t b = *bp;
  68:..\..\u8g2\csrc/u8g2_hvline.c ****   
  69:..\..\u8g2\csrc/u8g2_hvline.c ****   /* handle the a>b case correctly. If code and time is critical, this could */
  70:..\..\u8g2\csrc/u8g2_hvline.c ****   /* be removed completly (be aware about memory curruption for wrong */
  71:..\..\u8g2\csrc/u8g2_hvline.c ****   /* arguments) or return 0 for a>b (will lead to skipped lines for wrong */
  72:..\..\u8g2\csrc/u8g2_hvline.c ****   /* arguments) */  
  73:..\..\u8g2\csrc/u8g2_hvline.c ****   
  74:..\..\u8g2\csrc/u8g2_hvline.c ****   /* removing the following if clause completly may lead to memory corruption of a>b */
  75:..\..\u8g2\csrc/u8g2_hvline.c ****   if ( a > b )
  76:..\..\u8g2\csrc/u8g2_hvline.c ****   {    
  77:..\..\u8g2\csrc/u8g2_hvline.c ****     /* replacing this if with a simple "return 0;" will not handle the case with negative a */    
  78:..\..\u8g2\csrc/u8g2_hvline.c ****     if ( a < d )
  79:..\..\u8g2\csrc/u8g2_hvline.c ****     {
  80:..\..\u8g2\csrc/u8g2_hvline.c ****       b = d;
  81:..\..\u8g2\csrc/u8g2_hvline.c ****       b--;
  82:..\..\u8g2\csrc/u8g2_hvline.c ****       *bp = b;
  83:..\..\u8g2\csrc/u8g2_hvline.c ****     }
  84:..\..\u8g2\csrc/u8g2_hvline.c ****     else
  85:..\..\u8g2\csrc/u8g2_hvline.c ****     {
  86:..\..\u8g2\csrc/u8g2_hvline.c ****       a = 0;
  87:..\..\u8g2\csrc/u8g2_hvline.c ****       *ap = a;
ARM GAS  C:\Users\Alan\AppData\Local\Temp\cctK6Fgm.s 			page 3


  88:..\..\u8g2\csrc/u8g2_hvline.c ****     }
  89:..\..\u8g2\csrc/u8g2_hvline.c ****   }
  90:..\..\u8g2\csrc/u8g2_hvline.c ****   
  91:..\..\u8g2\csrc/u8g2_hvline.c ****   /* from now on, the asumption a <= b is ok */
  92:..\..\u8g2\csrc/u8g2_hvline.c ****   
  93:..\..\u8g2\csrc/u8g2_hvline.c ****   if ( a >= d )
  94:..\..\u8g2\csrc/u8g2_hvline.c ****     return 0;
  95:..\..\u8g2\csrc/u8g2_hvline.c ****   if ( b <= 0 )		// was b <= c, could be replaced with b == 0
  96:..\..\u8g2\csrc/u8g2_hvline.c ****     return 0;
  97:..\..\u8g2\csrc/u8g2_hvline.c ****   //if ( a < c )		// never true with c == 0
  98:..\..\u8g2\csrc/u8g2_hvline.c ****   //  *ap = c;
  99:..\..\u8g2\csrc/u8g2_hvline.c ****   if ( b > d )
 100:..\..\u8g2\csrc/u8g2_hvline.c ****     *bp = d;
 101:..\..\u8g2\csrc/u8g2_hvline.c ****     
 102:..\..\u8g2\csrc/u8g2_hvline.c ****   return 1;
 103:..\..\u8g2\csrc/u8g2_hvline.c **** }
 104:..\..\u8g2\csrc/u8g2_hvline.c **** 
 105:..\..\u8g2\csrc/u8g2_hvline.c **** 
 106:..\..\u8g2\csrc/u8g2_hvline.c **** 
 107:..\..\u8g2\csrc/u8g2_hvline.c **** /*
 108:..\..\u8g2\csrc/u8g2_hvline.c ****   x,y		Upper left position of the line
 109:..\..\u8g2\csrc/u8g2_hvline.c ****   len		length of the line in pixel, len must not be 0
 110:..\..\u8g2\csrc/u8g2_hvline.c ****   dir		0: horizontal line (left to right)
 111:..\..\u8g2\csrc/u8g2_hvline.c **** 		1: vertical line (top to bottom)
 112:..\..\u8g2\csrc/u8g2_hvline.c ****   This function first adjusts the y position to the local buffer. Then it
 113:..\..\u8g2\csrc/u8g2_hvline.c ****   will clip the line and call u8g2_draw_low_level_hv_line()
 114:..\..\u8g2\csrc/u8g2_hvline.c ****   
 115:..\..\u8g2\csrc/u8g2_hvline.c **** */
 116:..\..\u8g2\csrc/u8g2_hvline.c **** static void u8g2_draw_hv_line_2dir(u8g2_t *u8g2, u8g2_uint_t x, u8g2_uint_t y, u8g2_uint_t len, uin
 117:..\..\u8g2\csrc/u8g2_hvline.c **** {
 118:..\..\u8g2\csrc/u8g2_hvline.c ****   u8g2_uint_t a;
 119:..\..\u8g2\csrc/u8g2_hvline.c ****   register u8g2_uint_t w, h;
 120:..\..\u8g2\csrc/u8g2_hvline.c **** 
 121:..\..\u8g2\csrc/u8g2_hvline.c ****   y -= u8g2->tile_curr_row*8;
 122:..\..\u8g2\csrc/u8g2_hvline.c ****   
 123:..\..\u8g2\csrc/u8g2_hvline.c ****   
 124:..\..\u8g2\csrc/u8g2_hvline.c ****   h = u8g2->pixel_buf_height;		// this must be the real buffer height
 125:..\..\u8g2\csrc/u8g2_hvline.c ****   w = u8g2->pixel_buf_width;		// this could be replaced by u8g2->u8x8.display_info->pixel_width
 126:..\..\u8g2\csrc/u8g2_hvline.c **** 
 127:..\..\u8g2\csrc/u8g2_hvline.c **** 
 128:..\..\u8g2\csrc/u8g2_hvline.c ****   if ( dir == 0 )
 129:..\..\u8g2\csrc/u8g2_hvline.c ****   {
 130:..\..\u8g2\csrc/u8g2_hvline.c ****     if ( y >= h )
 131:..\..\u8g2\csrc/u8g2_hvline.c ****       return;
 132:..\..\u8g2\csrc/u8g2_hvline.c ****     a = x;
 133:..\..\u8g2\csrc/u8g2_hvline.c ****     a += len;
 134:..\..\u8g2\csrc/u8g2_hvline.c ****     if ( u8g2_clip_intersection(&x, &a, w) == 0 )
 135:..\..\u8g2\csrc/u8g2_hvline.c ****       return;
 136:..\..\u8g2\csrc/u8g2_hvline.c ****     len = a;
 137:..\..\u8g2\csrc/u8g2_hvline.c ****     len -= x;
 138:..\..\u8g2\csrc/u8g2_hvline.c ****   }
 139:..\..\u8g2\csrc/u8g2_hvline.c ****   else
 140:..\..\u8g2\csrc/u8g2_hvline.c ****   {
 141:..\..\u8g2\csrc/u8g2_hvline.c ****     if ( x >= w )
 142:..\..\u8g2\csrc/u8g2_hvline.c ****       return;
 143:..\..\u8g2\csrc/u8g2_hvline.c ****     a = y;
 144:..\..\u8g2\csrc/u8g2_hvline.c ****     a += len;
ARM GAS  C:\Users\Alan\AppData\Local\Temp\cctK6Fgm.s 			page 4


 145:..\..\u8g2\csrc/u8g2_hvline.c ****     if ( u8g2_clip_intersection(&y, &a, h) == 0 )
 146:..\..\u8g2\csrc/u8g2_hvline.c ****       return;
 147:..\..\u8g2\csrc/u8g2_hvline.c ****     len = a;
 148:..\..\u8g2\csrc/u8g2_hvline.c ****     len -= y;
 149:..\..\u8g2\csrc/u8g2_hvline.c ****   }
 150:..\..\u8g2\csrc/u8g2_hvline.c ****   
 151:..\..\u8g2\csrc/u8g2_hvline.c ****   u8g2->ll_hvline(u8g2, x, y, len, dir);
 152:..\..\u8g2\csrc/u8g2_hvline.c ****   //u8g2_draw_low_level_hv_line(u8g2, x, y, len, dir);
 153:..\..\u8g2\csrc/u8g2_hvline.c **** }
 154:..\..\u8g2\csrc/u8g2_hvline.c **** 
 155:..\..\u8g2\csrc/u8g2_hvline.c **** #endif
 156:..\..\u8g2\csrc/u8g2_hvline.c **** 
 157:..\..\u8g2\csrc/u8g2_hvline.c **** /*
 158:..\..\u8g2\csrc/u8g2_hvline.c ****   x,y		Upper left position of the line
 159:..\..\u8g2\csrc/u8g2_hvline.c ****   len		length of the line in pixel, len must not be 0
 160:..\..\u8g2\csrc/u8g2_hvline.c ****   dir		0: horizontal line (left to right)
 161:..\..\u8g2\csrc/u8g2_hvline.c **** 		1: vertical line (top to bottom)
 162:..\..\u8g2\csrc/u8g2_hvline.c **** 		2: horizontal line (right to left)
 163:..\..\u8g2\csrc/u8g2_hvline.c **** 		3: vertical line (bottom to top)
 164:..\..\u8g2\csrc/u8g2_hvline.c **** 
 165:..\..\u8g2\csrc/u8g2_hvline.c ****   This function will remove directions 2 and 3. Instead 0 and 1 are used.
 166:..\..\u8g2\csrc/u8g2_hvline.c **** 
 167:..\..\u8g2\csrc/u8g2_hvline.c **** */
 168:..\..\u8g2\csrc/u8g2_hvline.c **** void u8g2_draw_hv_line_4dir(u8g2_t *u8g2, u8g2_uint_t x, u8g2_uint_t y, u8g2_uint_t len, uint8_t di
 169:..\..\u8g2\csrc/u8g2_hvline.c **** {
  28              		.loc 1 169 0
  29              		.cfi_startproc
  30              		@ args = 4, pretend = 0, frame = 0
  31              		@ frame_needed = 0, uses_anonymous_args = 0
  32              	.LVL0:
  33 0000 73B5     		push	{r0, r1, r4, r5, r6, lr}
  34              		.cfi_def_cfa_offset 24
  35              		.cfi_offset 0, -24
  36              		.cfi_offset 1, -20
  37              		.cfi_offset 4, -16
  38              		.cfi_offset 5, -12
  39              		.cfi_offset 6, -8
  40              		.cfi_offset 14, -4
  41 0002 0600     		movs	r6, r0
  42              		.loc 1 169 0
  43 0004 06AC     		add	r4, sp, #24
  44              	.LVL1:
  45 0006 2478     		ldrb	r4, [r4]
  46              	.LVL2:
  47 0008 3A36     		adds	r6, r6, #58
 170:..\..\u8g2\csrc/u8g2_hvline.c **** #ifdef U8G2_WITH_HVLINE_COUNT
 171:..\..\u8g2\csrc/u8g2_hvline.c ****   u8g2->hv_cnt++;
 172:..\..\u8g2\csrc/u8g2_hvline.c **** #endif /* U8G2_WITH_HVLINE_COUNT */   
 173:..\..\u8g2\csrc/u8g2_hvline.c **** 
 174:..\..\u8g2\csrc/u8g2_hvline.c ****   /* additional optimization for one pixel draw */
 175:..\..\u8g2\csrc/u8g2_hvline.c ****   /* requires about 60 bytes on the ATMega flash memory */
 176:..\..\u8g2\csrc/u8g2_hvline.c ****   /* 20% improvement for single pixel draw test in FPS.ino */
 177:..\..\u8g2\csrc/u8g2_hvline.c **** #ifdef U8G2_WITH_ONE_PIXEL_OPTIMIZATION
 178:..\..\u8g2\csrc/u8g2_hvline.c ****   if ( len == 1 )
  48              		.loc 1 178 0
  49 000a 012B     		cmp	r3, #1
  50 000c 0ED1     		bne	.L2
ARM GAS  C:\Users\Alan\AppData\Local\Temp\cctK6Fgm.s 			page 5


  51              	.LVL3:
 179:..\..\u8g2\csrc/u8g2_hvline.c ****   {
 180:..\..\u8g2\csrc/u8g2_hvline.c ****     y -= u8g2->tile_curr_row*8;
 181:..\..\u8g2\csrc/u8g2_hvline.c ****     if ( x < u8g2->pixel_buf_width && y < u8g2->pixel_buf_height )
  52              		.loc 1 181 0
  53 000e 3578     		ldrb	r5, [r6]
  54 0010 8D42     		cmp	r5, r1
  55 0012 53D9     		bls	.L1
 180:..\..\u8g2\csrc/u8g2_hvline.c ****     if ( x < u8g2->pixel_buf_width && y < u8g2->pixel_buf_height )
  56              		.loc 1 180 0 discriminator 1
  57 0014 0500     		movs	r5, r0
  58 0016 3935     		adds	r5, r5, #57
  59              	.LVL4:
  60 0018 2D78     		ldrb	r5, [r5]
  61              	.LVL5:
  62 001a ED00     		lsls	r5, r5, #3
  63 001c 521B     		subs	r2, r2, r5
  64              	.LVL6:
  65              		.loc 1 181 0 discriminator 1
  66 001e 0500     		movs	r5, r0
  67 0020 3B35     		adds	r5, r5, #59
  68 0022 2D78     		ldrb	r5, [r5]
 180:..\..\u8g2\csrc/u8g2_hvline.c ****     if ( x < u8g2->pixel_buf_width && y < u8g2->pixel_buf_height )
  69              		.loc 1 180 0 discriminator 1
  70 0024 D2B2     		uxtb	r2, r2
  71              		.loc 1 181 0 discriminator 1
  72 0026 9542     		cmp	r5, r2
  73 0028 48D9     		bls	.L1
  74 002a 44E0     		b	.L23
  75              	.LVL7:
  76              	.L2:
 182:..\..\u8g2\csrc/u8g2_hvline.c ****       u8g2->ll_hvline(u8g2, x, y, len, dir);
 183:..\..\u8g2\csrc/u8g2_hvline.c ****     return;
 184:..\..\u8g2\csrc/u8g2_hvline.c ****   }
 185:..\..\u8g2\csrc/u8g2_hvline.c **** #endif
 186:..\..\u8g2\csrc/u8g2_hvline.c ****   
 187:..\..\u8g2\csrc/u8g2_hvline.c ****   if ( dir == 2 )
  77              		.loc 1 187 0
  78 002c 022C     		cmp	r4, #2
  79 002e 03D1     		bne	.L4
  80 0030 0131     		adds	r1, r1, #1
  81              	.LVL8:
 188:..\..\u8g2\csrc/u8g2_hvline.c ****   {
 189:..\..\u8g2\csrc/u8g2_hvline.c ****     x -= len;
 190:..\..\u8g2\csrc/u8g2_hvline.c ****     x++;
  82              		.loc 1 190 0
  83 0032 C91A     		subs	r1, r1, r3
  84              	.LVL9:
  85 0034 C9B2     		uxtb	r1, r1
  86 0036 04E0     		b	.L5
  87              	.LVL10:
  88              	.L4:
 191:..\..\u8g2\csrc/u8g2_hvline.c ****   }
 192:..\..\u8g2\csrc/u8g2_hvline.c ****   else if ( dir == 3 )
  89              		.loc 1 192 0
  90 0038 032C     		cmp	r4, #3
  91 003a 02D1     		bne	.L5
ARM GAS  C:\Users\Alan\AppData\Local\Temp\cctK6Fgm.s 			page 6


  92 003c 0132     		adds	r2, r2, #1
  93              	.LVL11:
 193:..\..\u8g2\csrc/u8g2_hvline.c ****   {
 194:..\..\u8g2\csrc/u8g2_hvline.c ****     y -= len;
 195:..\..\u8g2\csrc/u8g2_hvline.c ****     y++;
  94              		.loc 1 195 0
  95 003e D21A     		subs	r2, r2, r3
  96              	.LVL12:
  97 0040 D2B2     		uxtb	r2, r2
  98              	.LVL13:
  99              	.L5:
 196:..\..\u8g2\csrc/u8g2_hvline.c ****   }
 197:..\..\u8g2\csrc/u8g2_hvline.c ****   dir &= 1;  
 100              		.loc 1 197 0
 101 0042 0125     		movs	r5, #1
 102 0044 2C40     		ands	r4, r5
 103              	.LVL14:
 104              	.LBB10:
 105              	.LBB11:
 121:..\..\u8g2\csrc/u8g2_hvline.c ****   
 106              		.loc 1 121 0
 107 0046 0500     		movs	r5, r0
 108 0048 3935     		adds	r5, r5, #57
 109 004a 2D78     		ldrb	r5, [r5]
 125:..\..\u8g2\csrc/u8g2_hvline.c **** 
 110              		.loc 1 125 0
 111 004c 3678     		ldrb	r6, [r6]
 121:..\..\u8g2\csrc/u8g2_hvline.c ****   
 112              		.loc 1 121 0
 113 004e ED00     		lsls	r5, r5, #3
 114 0050 521B     		subs	r2, r2, r5
 124:..\..\u8g2\csrc/u8g2_hvline.c ****   w = u8g2->pixel_buf_width;		// this could be replaced by u8g2->u8x8.display_info->pixel_width
 115              		.loc 1 124 0
 116 0052 0500     		movs	r5, r0
 117 0054 3B35     		adds	r5, r5, #59
 121:..\..\u8g2\csrc/u8g2_hvline.c ****   
 118              		.loc 1 121 0
 119 0056 D2B2     		uxtb	r2, r2
 120              	.LVL15:
 124:..\..\u8g2\csrc/u8g2_hvline.c ****   w = u8g2->pixel_buf_width;		// this could be replaced by u8g2->u8x8.display_info->pixel_width
 121              		.loc 1 124 0
 122 0058 2D78     		ldrb	r5, [r5]
 123              	.LVL16:
 128:..\..\u8g2\csrc/u8g2_hvline.c ****   {
 124              		.loc 1 128 0
 125 005a 002C     		cmp	r4, #0
 126 005c 15D1     		bne	.L6
 127              	.LVL17:
 130:..\..\u8g2\csrc/u8g2_hvline.c ****       return;
 128              		.loc 1 130 0
 129 005e AA42     		cmp	r2, r5
 130 0060 2CD2     		bcs	.L1
 131              	.LVL18:
 133:..\..\u8g2\csrc/u8g2_hvline.c ****     if ( u8g2_clip_intersection(&x, &a, w) == 0 )
 132              		.loc 1 133 0
 133 0062 CB18     		adds	r3, r1, r3
 134              	.LVL19:
ARM GAS  C:\Users\Alan\AppData\Local\Temp\cctK6Fgm.s 			page 7


 135 0064 DBB2     		uxtb	r3, r3
 136              	.LVL20:
 137              	.LBB12:
 138              	.LBB13:
  75:..\..\u8g2\csrc/u8g2_hvline.c ****   {    
 139              		.loc 1 75 0
 140 0066 9942     		cmp	r1, r3
 141 0068 05D9     		bls	.L7
  78:..\..\u8g2\csrc/u8g2_hvline.c ****     {
 142              		.loc 1 78 0
 143 006a B142     		cmp	r1, r6
 144 006c 02D2     		bcs	.L14
 145              	.LVL21:
  81:..\..\u8g2\csrc/u8g2_hvline.c ****       *bp = b;
 146              		.loc 1 81 0
 147 006e 731E     		subs	r3, r6, #1
 148              	.LVL22:
 149 0070 DBB2     		uxtb	r3, r3
 150              	.LVL23:
 151 0072 02E0     		b	.L8
 152              	.L14:
 153              	.LVL24:
  86:..\..\u8g2\csrc/u8g2_hvline.c ****       *ap = a;
 154              		.loc 1 86 0
 155 0074 2100     		movs	r1, r4
 156              	.LVL25:
 157              	.L7:
  93:..\..\u8g2\csrc/u8g2_hvline.c ****     return 0;
 158              		.loc 1 93 0
 159 0076 8E42     		cmp	r6, r1
 160 0078 20D9     		bls	.L1
 161              	.L8:
  95:..\..\u8g2\csrc/u8g2_hvline.c ****     return 0;
 162              		.loc 1 95 0
 163 007a 002B     		cmp	r3, #0
 164 007c 1ED0     		beq	.L1
 165              	.LVL26:
 166              	.LBE13:
 167              	.LBE12:
 137:..\..\u8g2\csrc/u8g2_hvline.c ****   }
 168              		.loc 1 137 0
 169 007e 351C     		adds	r5, r6, #0
 170              	.LVL27:
 171 0080 9E42     		cmp	r6, r3
 172 0082 00D9     		bls	.L9
 173              	.LVL28:
 174 0084 1D1C     		adds	r5, r3, #0
 175              	.LVL29:
 176              	.L9:
 177 0086 6B1A     		subs	r3, r5, r1
 178              	.LVL30:
 179 0088 14E0     		b	.L22
 180              	.LVL31:
 181              	.L6:
 141:..\..\u8g2\csrc/u8g2_hvline.c ****       return;
 182              		.loc 1 141 0
 183 008a B142     		cmp	r1, r6
ARM GAS  C:\Users\Alan\AppData\Local\Temp\cctK6Fgm.s 			page 8


 184 008c 16D2     		bcs	.L1
 185              	.LVL32:
 144:..\..\u8g2\csrc/u8g2_hvline.c ****     if ( u8g2_clip_intersection(&y, &a, h) == 0 )
 186              		.loc 1 144 0
 187 008e 9B18     		adds	r3, r3, r2
 188              	.LVL33:
 189 0090 DBB2     		uxtb	r3, r3
 190              	.LVL34:
 191              	.LBB14:
 192              	.LBB15:
  75:..\..\u8g2\csrc/u8g2_hvline.c ****   {    
 193              		.loc 1 75 0
 194 0092 9A42     		cmp	r2, r3
 195 0094 05D9     		bls	.L11
  78:..\..\u8g2\csrc/u8g2_hvline.c ****     {
 196              		.loc 1 78 0
 197 0096 AA42     		cmp	r2, r5
 198 0098 02D2     		bcs	.L15
 199              	.LVL35:
  81:..\..\u8g2\csrc/u8g2_hvline.c ****       *bp = b;
 200              		.loc 1 81 0
 201 009a 6B1E     		subs	r3, r5, #1
 202              	.LVL36:
 203 009c DBB2     		uxtb	r3, r3
 204              	.LVL37:
 205 009e 02E0     		b	.L12
 206              	.L15:
  86:..\..\u8g2\csrc/u8g2_hvline.c ****       *ap = a;
 207              		.loc 1 86 0
 208 00a0 0022     		movs	r2, #0
 209              	.LVL38:
 210              	.L11:
  93:..\..\u8g2\csrc/u8g2_hvline.c ****     return 0;
 211              		.loc 1 93 0
 212 00a2 9542     		cmp	r5, r2
 213 00a4 0AD9     		bls	.L1
 214              	.L12:
  95:..\..\u8g2\csrc/u8g2_hvline.c ****     return 0;
 215              		.loc 1 95 0
 216 00a6 002B     		cmp	r3, #0
 217 00a8 08D0     		beq	.L1
 218              	.LVL39:
 219              	.LBE15:
 220              	.LBE14:
 148:..\..\u8g2\csrc/u8g2_hvline.c ****   }
 221              		.loc 1 148 0
 222 00aa 2E1C     		adds	r6, r5, #0
 223              	.LVL40:
 224 00ac 9D42     		cmp	r5, r3
 225 00ae 00D9     		bls	.L13
 226 00b0 1E1C     		adds	r6, r3, #0
 227              	.L13:
 228 00b2 B31A     		subs	r3, r6, r2
 229              	.LVL41:
 230              	.L22:
 231 00b4 DBB2     		uxtb	r3, r3
 232              	.LVL42:
ARM GAS  C:\Users\Alan\AppData\Local\Temp\cctK6Fgm.s 			page 9


 233              	.L23:
 151:..\..\u8g2\csrc/u8g2_hvline.c ****   //u8g2_draw_low_level_hv_line(u8g2, x, y, len, dir);
 234              		.loc 1 151 0
 235 00b6 0094     		str	r4, [sp]
 236 00b8 C46A     		ldr	r4, [r0, #44]
 237 00ba A047     		blx	r4
 238              	.LVL43:
 239              	.L1:
 240              	.LBE11:
 241              	.LBE10:
 198:..\..\u8g2\csrc/u8g2_hvline.c **** #ifdef U8G2_WITH_CLIPPING
 199:..\..\u8g2\csrc/u8g2_hvline.c ****   u8g2_draw_hv_line_2dir(u8g2, x, y, len, dir);
 200:..\..\u8g2\csrc/u8g2_hvline.c **** #else
 201:..\..\u8g2\csrc/u8g2_hvline.c ****   u8g2->ll_hvline(u8g2, x, y, len, dir);
 202:..\..\u8g2\csrc/u8g2_hvline.c ****   //u8g2_draw_low_level_hv_line(u8g2, x, y, len, dir);
 203:..\..\u8g2\csrc/u8g2_hvline.c **** #endif
 204:..\..\u8g2\csrc/u8g2_hvline.c **** }
 242              		.loc 1 204 0
 243              		@ sp needed
 244 00bc 73BD     		pop	{r0, r1, r4, r5, r6, pc}
 245              		.cfi_endproc
 246              	.LFE2:
 247              		.size	u8g2_draw_hv_line_4dir, .-u8g2_draw_hv_line_4dir
 248              		.section	.text.u8g2_DrawHVLine,"ax",%progbits
 249              		.align	1
 250              		.global	u8g2_DrawHVLine
 251              		.code	16
 252              		.thumb_func
 253              		.type	u8g2_DrawHVLine, %function
 254              	u8g2_DrawHVLine:
 255              	.LFB3:
 205:..\..\u8g2\csrc/u8g2_hvline.c **** 
 206:..\..\u8g2\csrc/u8g2_hvline.c **** /*
 207:..\..\u8g2\csrc/u8g2_hvline.c ****   This is the toplevel function for the hv line draw procedures.
 208:..\..\u8g2\csrc/u8g2_hvline.c ****   This function should be called by the user.
 209:..\..\u8g2\csrc/u8g2_hvline.c **** */
 210:..\..\u8g2\csrc/u8g2_hvline.c **** void u8g2_DrawHVLine(u8g2_t *u8g2, u8g2_uint_t x, u8g2_uint_t y, u8g2_uint_t len, uint8_t dir)
 211:..\..\u8g2\csrc/u8g2_hvline.c **** {
 256              		.loc 1 211 0
 257              		.cfi_startproc
 258              		@ args = 4, pretend = 0, frame = 0
 259              		@ frame_needed = 0, uses_anonymous_args = 0
 260              	.LVL44:
 261 0000 37B5     		push	{r0, r1, r2, r4, r5, lr}
 262              		.cfi_def_cfa_offset 24
 263              		.cfi_offset 0, -24
 264              		.cfi_offset 1, -20
 265              		.cfi_offset 2, -16
 266              		.cfi_offset 4, -12
 267              		.cfi_offset 5, -8
 268              		.cfi_offset 14, -4
 269              		.loc 1 211 0
 270 0002 06AC     		add	r4, sp, #24
 271              	.LVL45:
 272 0004 2578     		ldrb	r5, [r4]
 212:..\..\u8g2\csrc/u8g2_hvline.c ****   
 213:..\..\u8g2\csrc/u8g2_hvline.c ****   
ARM GAS  C:\Users\Alan\AppData\Local\Temp\cctK6Fgm.s 			page 10


 214:..\..\u8g2\csrc/u8g2_hvline.c ****   /* Make a call to the callback function (e.g. u8g2_draw_l90_r0). */
 215:..\..\u8g2\csrc/u8g2_hvline.c ****   /* The callback may rotate the hv line */
 216:..\..\u8g2\csrc/u8g2_hvline.c ****   /* after rotation this will call u8g2_draw_hv_line_4dir() */
 217:..\..\u8g2\csrc/u8g2_hvline.c ****   if ( len != 0 )
 273              		.loc 1 217 0
 274 0006 002B     		cmp	r3, #0
 275 0008 03D0     		beq	.L25
 276              	.LVL46:
 277              	.LBB18:
 278              	.LBB19:
 218:..\..\u8g2\csrc/u8g2_hvline.c ****     u8g2->cb->draw_l90(u8g2, x, y, len, dir);
 279              		.loc 1 218 0
 280 000a 046B     		ldr	r4, [r0, #48]
 281              	.LVL47:
 282 000c 0095     		str	r5, [sp]
 283 000e 6468     		ldr	r4, [r4, #4]
 284 0010 A047     		blx	r4
 285              	.LVL48:
 286              	.L25:
 287              	.LBE19:
 288              	.LBE18:
 219:..\..\u8g2\csrc/u8g2_hvline.c **** }
 289              		.loc 1 219 0
 290              		@ sp needed
 291 0012 37BD     		pop	{r0, r1, r2, r4, r5, pc}
 292              		.cfi_endproc
 293              	.LFE3:
 294              		.size	u8g2_DrawHVLine, .-u8g2_DrawHVLine
 295              		.section	.text.u8g2_DrawHLine,"ax",%progbits
 296              		.align	1
 297              		.global	u8g2_DrawHLine
 298              		.code	16
 299              		.thumb_func
 300              		.type	u8g2_DrawHLine, %function
 301              	u8g2_DrawHLine:
 302              	.LFB4:
 220:..\..\u8g2\csrc/u8g2_hvline.c **** 
 221:..\..\u8g2\csrc/u8g2_hvline.c **** void u8g2_DrawHLine(u8g2_t *u8g2, u8g2_uint_t x, u8g2_uint_t y, u8g2_uint_t len)
 222:..\..\u8g2\csrc/u8g2_hvline.c **** {
 303              		.loc 1 222 0
 304              		.cfi_startproc
 305              		@ args = 0, pretend = 0, frame = 0
 306              		@ frame_needed = 0, uses_anonymous_args = 0
 307              	.LVL49:
 308 0000 F7B5     		push	{r0, r1, r2, r4, r5, r6, r7, lr}
 309              		.cfi_def_cfa_offset 32
 310              		.cfi_offset 0, -32
 311              		.cfi_offset 1, -28
 312              		.cfi_offset 2, -24
 313              		.cfi_offset 4, -20
 314              		.cfi_offset 5, -16
 315              		.cfi_offset 6, -12
 316              		.cfi_offset 7, -8
 317              		.cfi_offset 14, -4
 318              		.loc 1 222 0
 319 0002 1500     		movs	r5, r2
 223:..\..\u8g2\csrc/u8g2_hvline.c **** #ifdef U8G2_WITH_INTERSECTION
ARM GAS  C:\Users\Alan\AppData\Local\Temp\cctK6Fgm.s 			page 11


 224:..\..\u8g2\csrc/u8g2_hvline.c ****   if ( u8g2_IsIntersection(u8g2, x, y, x+len, y+1) == 0 ) 
 320              		.loc 1 224 0
 321 0004 0132     		adds	r2, r2, #1
 322              	.LVL50:
 323 0006 D2B2     		uxtb	r2, r2
 222:..\..\u8g2\csrc/u8g2_hvline.c **** #ifdef U8G2_WITH_INTERSECTION
 324              		.loc 1 222 0
 325 0008 1F00     		movs	r7, r3
 326              		.loc 1 224 0
 327 000a CB18     		adds	r3, r1, r3
 328              	.LVL51:
 329 000c 0092     		str	r2, [sp]
 330 000e DBB2     		uxtb	r3, r3
 331 0010 2A00     		movs	r2, r5
 222:..\..\u8g2\csrc/u8g2_hvline.c **** #ifdef U8G2_WITH_INTERSECTION
 332              		.loc 1 222 0
 333 0012 0600     		movs	r6, r0
 334 0014 0C00     		movs	r4, r1
 335              		.loc 1 224 0
 336 0016 FFF7FEFF 		bl	u8g2_IsIntersection
 337              	.LVL52:
 338 001a 0028     		cmp	r0, #0
 339 001c 07D0     		beq	.L30
 225:..\..\u8g2\csrc/u8g2_hvline.c ****     return;
 226:..\..\u8g2\csrc/u8g2_hvline.c **** #endif /* U8G2_WITH_INTERSECTION */
 227:..\..\u8g2\csrc/u8g2_hvline.c ****   u8g2_DrawHVLine(u8g2, x, y, len, 0);
 340              		.loc 1 227 0
 341 001e 0023     		movs	r3, #0
 342 0020 2A00     		movs	r2, r5
 343 0022 0093     		str	r3, [sp]
 344 0024 2100     		movs	r1, r4
 345 0026 3B00     		movs	r3, r7
 346 0028 3000     		movs	r0, r6
 347 002a FFF7FEFF 		bl	u8g2_DrawHVLine
 348              	.LVL53:
 349              	.L30:
 228:..\..\u8g2\csrc/u8g2_hvline.c **** }
 350              		.loc 1 228 0
 351              		@ sp needed
 352              	.LVL54:
 353 002e F7BD     		pop	{r0, r1, r2, r4, r5, r6, r7, pc}
 354              		.cfi_endproc
 355              	.LFE4:
 356              		.size	u8g2_DrawHLine, .-u8g2_DrawHLine
 357              		.section	.text.u8g2_DrawVLine,"ax",%progbits
 358              		.align	1
 359              		.global	u8g2_DrawVLine
 360              		.code	16
 361              		.thumb_func
 362              		.type	u8g2_DrawVLine, %function
 363              	u8g2_DrawVLine:
 364              	.LFB5:
 229:..\..\u8g2\csrc/u8g2_hvline.c **** 
 230:..\..\u8g2\csrc/u8g2_hvline.c **** void u8g2_DrawVLine(u8g2_t *u8g2, u8g2_uint_t x, u8g2_uint_t y, u8g2_uint_t len)
 231:..\..\u8g2\csrc/u8g2_hvline.c **** {
 365              		.loc 1 231 0
 366              		.cfi_startproc
ARM GAS  C:\Users\Alan\AppData\Local\Temp\cctK6Fgm.s 			page 12


 367              		@ args = 0, pretend = 0, frame = 0
 368              		@ frame_needed = 0, uses_anonymous_args = 0
 369              	.LVL55:
 370 0000 F7B5     		push	{r0, r1, r2, r4, r5, r6, r7, lr}
 371              		.cfi_def_cfa_offset 32
 372              		.cfi_offset 0, -32
 373              		.cfi_offset 1, -28
 374              		.cfi_offset 2, -24
 375              		.cfi_offset 4, -20
 376              		.cfi_offset 5, -16
 377              		.cfi_offset 6, -12
 378              		.cfi_offset 7, -8
 379              		.cfi_offset 14, -4
 380              		.loc 1 231 0
 381 0002 1F00     		movs	r7, r3
 382 0004 1500     		movs	r5, r2
 232:..\..\u8g2\csrc/u8g2_hvline.c **** #ifdef U8G2_WITH_INTERSECTION
 233:..\..\u8g2\csrc/u8g2_hvline.c ****   if ( u8g2_IsIntersection(u8g2, x, y, x+1, y+len) == 0 ) 
 383              		.loc 1 233 0
 384 0006 D219     		adds	r2, r2, r7
 385              	.LVL56:
 386 0008 D2B2     		uxtb	r2, r2
 387 000a 4B1C     		adds	r3, r1, #1
 388              	.LVL57:
 389 000c 0092     		str	r2, [sp]
 390 000e DBB2     		uxtb	r3, r3
 391 0010 2A00     		movs	r2, r5
 231:..\..\u8g2\csrc/u8g2_hvline.c **** #ifdef U8G2_WITH_INTERSECTION
 392              		.loc 1 231 0
 393 0012 0600     		movs	r6, r0
 394 0014 0C00     		movs	r4, r1
 395              		.loc 1 233 0
 396 0016 FFF7FEFF 		bl	u8g2_IsIntersection
 397              	.LVL58:
 398 001a 0028     		cmp	r0, #0
 399 001c 07D0     		beq	.L35
 234:..\..\u8g2\csrc/u8g2_hvline.c ****     return;
 235:..\..\u8g2\csrc/u8g2_hvline.c **** #endif /* U8G2_WITH_INTERSECTION */
 236:..\..\u8g2\csrc/u8g2_hvline.c ****   u8g2_DrawHVLine(u8g2, x, y, len, 1);
 400              		.loc 1 236 0
 401 001e 0123     		movs	r3, #1
 402 0020 2A00     		movs	r2, r5
 403 0022 0093     		str	r3, [sp]
 404 0024 2100     		movs	r1, r4
 405 0026 3B00     		movs	r3, r7
 406 0028 3000     		movs	r0, r6
 407 002a FFF7FEFF 		bl	u8g2_DrawHVLine
 408              	.LVL59:
 409              	.L35:
 237:..\..\u8g2\csrc/u8g2_hvline.c **** }
 410              		.loc 1 237 0
 411              		@ sp needed
 412              	.LVL60:
 413 002e F7BD     		pop	{r0, r1, r2, r4, r5, r6, r7, pc}
 414              		.cfi_endproc
 415              	.LFE5:
 416              		.size	u8g2_DrawVLine, .-u8g2_DrawVLine
ARM GAS  C:\Users\Alan\AppData\Local\Temp\cctK6Fgm.s 			page 13


 417              		.section	.text.u8g2_DrawPixel,"ax",%progbits
 418              		.align	1
 419              		.global	u8g2_DrawPixel
 420              		.code	16
 421              		.thumb_func
 422              		.type	u8g2_DrawPixel, %function
 423              	u8g2_DrawPixel:
 424              	.LFB6:
 238:..\..\u8g2\csrc/u8g2_hvline.c **** 
 239:..\..\u8g2\csrc/u8g2_hvline.c **** void u8g2_DrawPixel(u8g2_t *u8g2, u8g2_uint_t x, u8g2_uint_t y)
 240:..\..\u8g2\csrc/u8g2_hvline.c **** {
 425              		.loc 1 240 0
 426              		.cfi_startproc
 427              		@ args = 0, pretend = 0, frame = 0
 428              		@ frame_needed = 0, uses_anonymous_args = 0
 429              	.LVL61:
 241:..\..\u8g2\csrc/u8g2_hvline.c **** #ifdef U8G2_WITH_INTERSECTION
 242:..\..\u8g2\csrc/u8g2_hvline.c ****   if ( y < u8g2->user_y0 )
 430              		.loc 1 242 0
 431 0000 0300     		movs	r3, r0
 240:..\..\u8g2\csrc/u8g2_hvline.c **** #ifdef U8G2_WITH_INTERSECTION
 432              		.loc 1 240 0
 433 0002 13B5     		push	{r0, r1, r4, lr}
 434              		.cfi_def_cfa_offset 16
 435              		.cfi_offset 0, -16
 436              		.cfi_offset 1, -12
 437              		.cfi_offset 4, -8
 438              		.cfi_offset 14, -4
 439              		.loc 1 242 0
 440 0004 4333     		adds	r3, r3, #67
 441 0006 1B78     		ldrb	r3, [r3]
 442 0008 9342     		cmp	r3, r2
 443 000a 14D8     		bhi	.L40
 243:..\..\u8g2\csrc/u8g2_hvline.c ****     return;
 244:..\..\u8g2\csrc/u8g2_hvline.c ****   if ( y >= u8g2->user_y1 )
 444              		.loc 1 244 0
 445 000c 0300     		movs	r3, r0
 446 000e 4433     		adds	r3, r3, #68
 447 0010 1B78     		ldrb	r3, [r3]
 448 0012 9342     		cmp	r3, r2
 449 0014 0FD9     		bls	.L40
 245:..\..\u8g2\csrc/u8g2_hvline.c ****     return;
 246:..\..\u8g2\csrc/u8g2_hvline.c ****   if ( x < u8g2->user_x0 )
 450              		.loc 1 246 0
 451 0016 0300     		movs	r3, r0
 452 0018 4133     		adds	r3, r3, #65
 453 001a 1B78     		ldrb	r3, [r3]
 454 001c 8B42     		cmp	r3, r1
 455 001e 0AD8     		bhi	.L40
 247:..\..\u8g2\csrc/u8g2_hvline.c ****     return;
 248:..\..\u8g2\csrc/u8g2_hvline.c ****   if ( x >= u8g2->user_x1 )
 456              		.loc 1 248 0
 457 0020 0300     		movs	r3, r0
 458 0022 4233     		adds	r3, r3, #66
 459 0024 1B78     		ldrb	r3, [r3]
 460 0026 8B42     		cmp	r3, r1
 461 0028 05D9     		bls	.L40
ARM GAS  C:\Users\Alan\AppData\Local\Temp\cctK6Fgm.s 			page 14


 462              	.LVL62:
 463              	.LBB24:
 464              	.LBB25:
 465              	.LBB26:
 218:..\..\u8g2\csrc/u8g2_hvline.c **** }
 466              		.loc 1 218 0
 467 002a 0024     		movs	r4, #0
 468 002c 036B     		ldr	r3, [r0, #48]
 469 002e 0094     		str	r4, [sp]
 470 0030 5C68     		ldr	r4, [r3, #4]
 471 0032 0123     		movs	r3, #1
 472 0034 A047     		blx	r4
 473              	.LVL63:
 474              	.L40:
 475              	.LBE26:
 476              	.LBE25:
 477              	.LBE24:
 249:..\..\u8g2\csrc/u8g2_hvline.c ****     return;
 250:..\..\u8g2\csrc/u8g2_hvline.c **** #endif /* U8G2_WITH_INTERSECTION */
 251:..\..\u8g2\csrc/u8g2_hvline.c ****   u8g2_DrawHVLine(u8g2, x, y, 1, 0);
 252:..\..\u8g2\csrc/u8g2_hvline.c **** }
 478              		.loc 1 252 0
 479              		@ sp needed
 480 0036 13BD     		pop	{r0, r1, r4, pc}
 481              		.cfi_endproc
 482              	.LFE6:
 483              		.size	u8g2_DrawPixel, .-u8g2_DrawPixel
 484              		.section	.text.u8g2_SetDrawColor,"ax",%progbits
 485              		.align	1
 486              		.global	u8g2_SetDrawColor
 487              		.code	16
 488              		.thumb_func
 489              		.type	u8g2_SetDrawColor, %function
 490              	u8g2_SetDrawColor:
 491              	.LFB7:
 253:..\..\u8g2\csrc/u8g2_hvline.c **** 
 254:..\..\u8g2\csrc/u8g2_hvline.c **** /*
 255:..\..\u8g2\csrc/u8g2_hvline.c ****   Assign the draw color for all drawing functions.
 256:..\..\u8g2\csrc/u8g2_hvline.c ****   color may be 0 or 1. The actual color is defined by the display.
 257:..\..\u8g2\csrc/u8g2_hvline.c ****   With color = 1 the drawing function will set the display memory to 1.
 258:..\..\u8g2\csrc/u8g2_hvline.c ****   For OLEDs this ususally means, that the pixel is enabled and the LED 
 259:..\..\u8g2\csrc/u8g2_hvline.c ****   at the pixel is turned on.
 260:..\..\u8g2\csrc/u8g2_hvline.c ****   On an LCD it usually means that the LCD segment of the pixel is enabled, 
 261:..\..\u8g2\csrc/u8g2_hvline.c ****   which absorbs the light.
 262:..\..\u8g2\csrc/u8g2_hvline.c ****   For eInk/ePaper it means black ink.
 263:..\..\u8g2\csrc/u8g2_hvline.c **** 
 264:..\..\u8g2\csrc/u8g2_hvline.c ****   7 Jan 2017: Allow color value 2 for XOR operation.
 265:..\..\u8g2\csrc/u8g2_hvline.c ****   
 266:..\..\u8g2\csrc/u8g2_hvline.c **** */
 267:..\..\u8g2\csrc/u8g2_hvline.c **** void u8g2_SetDrawColor(u8g2_t *u8g2, uint8_t color)
 268:..\..\u8g2\csrc/u8g2_hvline.c **** {
 492              		.loc 1 268 0
 493              		.cfi_startproc
 494              		@ args = 0, pretend = 0, frame = 0
 495              		@ frame_needed = 0, uses_anonymous_args = 0
 496              		@ link register save eliminated.
 497              	.LVL64:
ARM GAS  C:\Users\Alan\AppData\Local\Temp\cctK6Fgm.s 			page 15


 498 0000 7C30     		adds	r0, r0, #124
 499              	.LVL65:
 269:..\..\u8g2\csrc/u8g2_hvline.c ****   u8g2->draw_color = color;	/* u8g2_SetDrawColor: just assign the argument */ 
 270:..\..\u8g2\csrc/u8g2_hvline.c ****   if ( color >= 3 )
 500              		.loc 1 270 0
 501 0002 0229     		cmp	r1, #2
 502 0004 01D8     		bhi	.L43
 269:..\..\u8g2\csrc/u8g2_hvline.c ****   u8g2->draw_color = color;	/* u8g2_SetDrawColor: just assign the argument */ 
 503              		.loc 1 269 0
 504 0006 0170     		strb	r1, [r0]
 505 0008 01E0     		b	.L42
 506              	.L43:
 271:..\..\u8g2\csrc/u8g2_hvline.c ****     u8g2->draw_color = 1;	/* u8g2_SetDrawColor: make color as one if arg is invalid */
 507              		.loc 1 271 0
 508 000a 0123     		movs	r3, #1
 509 000c 0370     		strb	r3, [r0]
 510              	.L42:
 272:..\..\u8g2\csrc/u8g2_hvline.c **** }
 511              		.loc 1 272 0
 512              		@ sp needed
 513 000e 7047     		bx	lr
 514              		.cfi_endproc
 515              	.LFE7:
 516              		.size	u8g2_SetDrawColor, .-u8g2_SetDrawColor
 517              		.text
 518              	.Letext0:
 519              		.file 2 "c:\\program files (x86)\\cypress\\psoc creator\\4.1\\psoc creator\\import\\gnu\\arm\\5.4.
 520              		.file 3 "c:\\program files (x86)\\cypress\\psoc creator\\4.1\\psoc creator\\import\\gnu\\arm\\5.4.
 521              		.file 4 "..\\..\\u8g2\\csrc\\u8x8.h"
 522              		.file 5 "..\\..\\u8g2\\csrc\\u8g2.h"