ARM GAS  C:\Users\Greg\AppData\Local\Temp\ccmVjFLF.s 			page 1


   1              		.syntax unified
   2              		.cpu cortex-m0
   3              		.fpu softvfp
   4              		.eabi_attribute 20, 1
   5              		.eabi_attribute 21, 1
   6              		.eabi_attribute 23, 3
   7              		.eabi_attribute 24, 1
   8              		.eabi_attribute 25, 1
   9              		.eabi_attribute 26, 1
  10              		.eabi_attribute 30, 4
  11              		.eabi_attribute 34, 0
  12              		.eabi_attribute 18, 4
  13              		.thumb
  14              		.syntax unified
  15              		.file	"u8g2_bitmap.c"
  16              		.text
  17              	.Ltext0:
  18              		.cfi_sections	.debug_frame
  19              		.section	.text.u8g2_DrawHorizontalBitmap,"ax",%progbits
  20              		.align	1
  21              		.global	u8g2_DrawHorizontalBitmap
  22              		.code	16
  23              		.thumb_func
  24              		.type	u8g2_DrawHorizontalBitmap, %function
  25              	u8g2_DrawHorizontalBitmap:
  26              	.LFB0:
  27              		.file 1 "..\\..\\u8g2\\csrc\\u8g2_bitmap.c"
   1:..\..\u8g2\csrc/u8g2_bitmap.c **** /*
   2:..\..\u8g2\csrc/u8g2_bitmap.c **** 
   3:..\..\u8g2\csrc/u8g2_bitmap.c ****   u8g2_bitmap.c
   4:..\..\u8g2\csrc/u8g2_bitmap.c **** 
   5:..\..\u8g2\csrc/u8g2_bitmap.c ****   Universal 8bit Graphics Library (https://github.com/olikraus/u8g2/)
   6:..\..\u8g2\csrc/u8g2_bitmap.c **** 
   7:..\..\u8g2\csrc/u8g2_bitmap.c ****   Copyright (c) 2016, olikraus@gmail.com
   8:..\..\u8g2\csrc/u8g2_bitmap.c ****   All rights reserved.
   9:..\..\u8g2\csrc/u8g2_bitmap.c **** 
  10:..\..\u8g2\csrc/u8g2_bitmap.c ****   Redistribution and use in source and binary forms, with or without modification, 
  11:..\..\u8g2\csrc/u8g2_bitmap.c ****   are permitted provided that the following conditions are met:
  12:..\..\u8g2\csrc/u8g2_bitmap.c **** 
  13:..\..\u8g2\csrc/u8g2_bitmap.c ****   * Redistributions of source code must retain the above copyright notice, this list 
  14:..\..\u8g2\csrc/u8g2_bitmap.c ****     of conditions and the following disclaimer.
  15:..\..\u8g2\csrc/u8g2_bitmap.c ****     
  16:..\..\u8g2\csrc/u8g2_bitmap.c ****   * Redistributions in binary form must reproduce the above copyright notice, this 
  17:..\..\u8g2\csrc/u8g2_bitmap.c ****     list of conditions and the following disclaimer in the documentation and/or other 
  18:..\..\u8g2\csrc/u8g2_bitmap.c ****     materials provided with the distribution.
  19:..\..\u8g2\csrc/u8g2_bitmap.c **** 
  20:..\..\u8g2\csrc/u8g2_bitmap.c ****   THIS SOFTWARE IS PROVIDED BY THE COPYRIGHT HOLDERS AND 
  21:..\..\u8g2\csrc/u8g2_bitmap.c ****   CONTRIBUTORS "AS IS" AND ANY EXPRESS OR IMPLIED WARRANTIES, 
  22:..\..\u8g2\csrc/u8g2_bitmap.c ****   INCLUDING, BUT NOT LIMITED TO, THE IMPLIED WARRANTIES OF 
  23:..\..\u8g2\csrc/u8g2_bitmap.c ****   MERCHANTABILITY AND FITNESS FOR A PARTICULAR PURPOSE ARE 
  24:..\..\u8g2\csrc/u8g2_bitmap.c ****   DISCLAIMED. IN NO EVENT SHALL THE COPYRIGHT HOLDER OR 
  25:..\..\u8g2\csrc/u8g2_bitmap.c ****   CONTRIBUTORS BE LIABLE FOR ANY DIRECT, INDIRECT, INCIDENTAL, 
  26:..\..\u8g2\csrc/u8g2_bitmap.c ****   SPECIAL, EXEMPLARY, OR CONSEQUENTIAL DAMAGES (INCLUDING, BUT 
  27:..\..\u8g2\csrc/u8g2_bitmap.c ****   NOT LIMITED TO, PROCUREMENT OF SUBSTITUTE GOODS OR SERVICES; 
  28:..\..\u8g2\csrc/u8g2_bitmap.c ****   LOSS OF USE, DATA, OR PROFITS; OR BUSINESS INTERRUPTION) HOWEVER 
  29:..\..\u8g2\csrc/u8g2_bitmap.c ****   CAUSED AND ON ANY THEORY OF LIABILITY, WHETHER IN CONTRACT, 
  30:..\..\u8g2\csrc/u8g2_bitmap.c ****   STRICT LIABILITY, OR TORT (INCLUDING NEGLIGENCE OR OTHERWISE) 
ARM GAS  C:\Users\Greg\AppData\Local\Temp\ccmVjFLF.s 			page 2


  31:..\..\u8g2\csrc/u8g2_bitmap.c ****   ARISING IN ANY WAY OUT OF THE USE OF THIS SOFTWARE, EVEN IF 
  32:..\..\u8g2\csrc/u8g2_bitmap.c ****   ADVISED OF THE POSSIBILITY OF SUCH DAMAGE.  
  33:..\..\u8g2\csrc/u8g2_bitmap.c **** 
  34:..\..\u8g2\csrc/u8g2_bitmap.c **** */
  35:..\..\u8g2\csrc/u8g2_bitmap.c **** 
  36:..\..\u8g2\csrc/u8g2_bitmap.c **** #include "u8g2.h"
  37:..\..\u8g2\csrc/u8g2_bitmap.c **** 
  38:..\..\u8g2\csrc/u8g2_bitmap.c **** /*
  39:..\..\u8g2\csrc/u8g2_bitmap.c ****   x,y 	Position on the display
  40:..\..\u8g2\csrc/u8g2_bitmap.c ****   len		Length of bitmap line in pixel. Note: This differs from u8glib which had a bytecount here.
  41:..\..\u8g2\csrc/u8g2_bitmap.c ****   b		Pointer to the bitmap line.
  42:..\..\u8g2\csrc/u8g2_bitmap.c ****   Only draw pixels which are set.
  43:..\..\u8g2\csrc/u8g2_bitmap.c **** */
  44:..\..\u8g2\csrc/u8g2_bitmap.c **** 
  45:..\..\u8g2\csrc/u8g2_bitmap.c **** void u8g2_DrawHorizontalBitmap(u8g2_t *u8g2, u8g2_uint_t x, u8g2_uint_t y, u8g2_uint_t len, const u
  46:..\..\u8g2\csrc/u8g2_bitmap.c **** {
  28              		.loc 1 46 0
  29              		.cfi_startproc
  30              		@ args = 4, pretend = 0, frame = 8
  31              		@ frame_needed = 0, uses_anonymous_args = 0
  32              	.LVL0:
  33 0000 F0B5     		push	{r4, r5, r6, r7, lr}
  34              		.cfi_def_cfa_offset 20
  35              		.cfi_offset 4, -20
  36              		.cfi_offset 5, -16
  37              		.cfi_offset 6, -12
  38              		.cfi_offset 7, -8
  39              		.cfi_offset 14, -4
  47:..\..\u8g2\csrc/u8g2_bitmap.c ****   uint8_t mask;
  48:..\..\u8g2\csrc/u8g2_bitmap.c **** #ifdef U8G2_WITH_INTERSECTION
  49:..\..\u8g2\csrc/u8g2_bitmap.c ****   if ( u8g2_IsIntersection(u8g2, x, y, x+len, y+1) == 0 ) 
  40              		.loc 1 49 0
  41 0002 CB18     		adds	r3, r1, r3
  42              	.LVL1:
  43 0004 DFB2     		uxtb	r7, r3
  44 0006 531C     		adds	r3, r2, #1
  46:..\..\u8g2\csrc/u8g2_bitmap.c ****   uint8_t mask;
  45              		.loc 1 46 0
  46 0008 85B0     		sub	sp, sp, #20
  47              		.cfi_def_cfa_offset 40
  48              		.loc 1 49 0
  49 000a DBB2     		uxtb	r3, r3
  50 000c 0093     		str	r3, [sp]
  51 000e 3B00     		movs	r3, r7
  46:..\..\u8g2\csrc/u8g2_bitmap.c ****   uint8_t mask;
  52              		.loc 1 46 0
  53 0010 0390     		str	r0, [sp, #12]
  54 0012 0C00     		movs	r4, r1
  55 0014 1600     		movs	r6, r2
  56              		.loc 1 49 0
  57 0016 FFF7FEFF 		bl	u8g2_IsIntersection
  58              	.LVL2:
  59 001a 8025     		movs	r5, #128
  60 001c 0028     		cmp	r0, #0
  61 001e 16D0     		beq	.L1
  62              	.L10:
  63              	.LVL3:
ARM GAS  C:\Users\Greg\AppData\Local\Temp\ccmVjFLF.s 			page 3


  64              	.LBB4:
  65              	.LBB5:
  50:..\..\u8g2\csrc/u8g2_bitmap.c ****     return;
  51:..\..\u8g2\csrc/u8g2_bitmap.c **** #endif /* U8G2_WITH_INTERSECTION */
  52:..\..\u8g2\csrc/u8g2_bitmap.c ****   
  53:..\..\u8g2\csrc/u8g2_bitmap.c ****   mask = 128;
  54:..\..\u8g2\csrc/u8g2_bitmap.c ****   while(len > 0)
  66              		.loc 1 54 0
  67 0020 A742     		cmp	r7, r4
  68 0022 14D0     		beq	.L1
  55:..\..\u8g2\csrc/u8g2_bitmap.c ****   {
  56:..\..\u8g2\csrc/u8g2_bitmap.c ****     if ( *b & mask )
  69              		.loc 1 56 0
  70 0024 0A9B     		ldr	r3, [sp, #40]
  71 0026 1B78     		ldrb	r3, [r3]
  72 0028 2B42     		tst	r3, r5
  73 002a 07D0     		beq	.L3
  57:..\..\u8g2\csrc/u8g2_bitmap.c ****       u8g2_DrawHVLine(u8g2, x, y, 1, 0);
  74              		.loc 1 57 0
  75 002c 0023     		movs	r3, #0
  76 002e 3200     		movs	r2, r6
  77 0030 0093     		str	r3, [sp]
  78 0032 2100     		movs	r1, r4
  79 0034 0133     		adds	r3, r3, #1
  80 0036 0398     		ldr	r0, [sp, #12]
  81 0038 FFF7FEFF 		bl	u8g2_DrawHVLine
  82              	.LVL4:
  83              	.L3:
  58:..\..\u8g2\csrc/u8g2_bitmap.c ****     x++;
  84              		.loc 1 58 0
  85 003c 0134     		adds	r4, r4, #1
  86              	.LVL5:
  87 003e E4B2     		uxtb	r4, r4
  88              	.LVL6:
  59:..\..\u8g2\csrc/u8g2_bitmap.c ****     mask >>= 1;
  89              		.loc 1 59 0
  90 0040 6D08     		lsrs	r5, r5, #1
  91              	.LVL7:
  60:..\..\u8g2\csrc/u8g2_bitmap.c ****     if ( mask == 0 )
  92              		.loc 1 60 0
  93 0042 EDD1     		bne	.L10
  94              	.LVL8:
  61:..\..\u8g2\csrc/u8g2_bitmap.c ****     {
  62:..\..\u8g2\csrc/u8g2_bitmap.c ****       mask = 128;
  63:..\..\u8g2\csrc/u8g2_bitmap.c ****       b++;
  95              		.loc 1 63 0
  96 0044 0A9B     		ldr	r3, [sp, #40]
  62:..\..\u8g2\csrc/u8g2_bitmap.c ****       b++;
  97              		.loc 1 62 0
  98 0046 8035     		adds	r5, r5, #128
  99              		.loc 1 63 0
 100 0048 0133     		adds	r3, r3, #1
 101 004a 0A93     		str	r3, [sp, #40]
 102              	.LVL9:
 103 004c E8E7     		b	.L10
 104              	.LVL10:
 105              	.L1:
ARM GAS  C:\Users\Greg\AppData\Local\Temp\ccmVjFLF.s 			page 4


 106              	.LBE5:
 107              	.LBE4:
  64:..\..\u8g2\csrc/u8g2_bitmap.c ****     }
  65:..\..\u8g2\csrc/u8g2_bitmap.c ****     len--;
  66:..\..\u8g2\csrc/u8g2_bitmap.c ****   }
  67:..\..\u8g2\csrc/u8g2_bitmap.c **** }
 108              		.loc 1 67 0
 109 004e 05B0     		add	sp, sp, #20
 110              		@ sp needed
 111 0050 F0BD     		pop	{r4, r5, r6, r7, pc}
 112              		.cfi_endproc
 113              	.LFE0:
 114              		.size	u8g2_DrawHorizontalBitmap, .-u8g2_DrawHorizontalBitmap
 115              		.section	.text.u8g2_DrawBitmap,"ax",%progbits
 116              		.align	1
 117              		.global	u8g2_DrawBitmap
 118              		.code	16
 119              		.thumb_func
 120              		.type	u8g2_DrawBitmap, %function
 121              	u8g2_DrawBitmap:
 122              	.LFB1:
  68:..\..\u8g2\csrc/u8g2_bitmap.c **** 
  69:..\..\u8g2\csrc/u8g2_bitmap.c **** 
  70:..\..\u8g2\csrc/u8g2_bitmap.c **** /* u8glib compatible bitmap draw function */
  71:..\..\u8g2\csrc/u8g2_bitmap.c **** void u8g2_DrawBitmap(u8g2_t *u8g2, u8g2_uint_t x, u8g2_uint_t y, u8g2_uint_t cnt, u8g2_uint_t h, co
  72:..\..\u8g2\csrc/u8g2_bitmap.c **** {
 123              		.loc 1 72 0
 124              		.cfi_startproc
 125              		@ args = 8, pretend = 0, frame = 8
 126              		@ frame_needed = 0, uses_anonymous_args = 0
 127              	.LVL11:
 128 0000 F0B5     		push	{r4, r5, r6, r7, lr}
 129              		.cfi_def_cfa_offset 20
 130              		.cfi_offset 4, -20
 131              		.cfi_offset 5, -16
 132              		.cfi_offset 6, -12
 133              		.cfi_offset 7, -8
 134              		.cfi_offset 14, -4
 135 0002 1400     		movs	r4, r2
 136 0004 85B0     		sub	sp, sp, #20
 137              		.cfi_def_cfa_offset 40
 138              		.loc 1 72 0
 139 0006 0393     		str	r3, [sp, #12]
  73:..\..\u8g2\csrc/u8g2_bitmap.c ****   u8g2_uint_t w;
  74:..\..\u8g2\csrc/u8g2_bitmap.c ****   w = cnt;
  75:..\..\u8g2\csrc/u8g2_bitmap.c ****   w *= 8;
 140              		.loc 1 75 0
 141 0008 039A     		ldr	r2, [sp, #12]
 142              	.LVL12:
  72:..\..\u8g2\csrc/u8g2_bitmap.c ****   u8g2_uint_t w;
 143              		.loc 1 72 0
 144 000a 0AAB     		add	r3, sp, #40
 145              	.LVL13:
 146 000c 1B78     		ldrb	r3, [r3]
 147              	.LVL14:
 148              		.loc 1 75 0
 149 000e D200     		lsls	r2, r2, #3
ARM GAS  C:\Users\Greg\AppData\Local\Temp\ccmVjFLF.s 			page 5


 150 0010 D2B2     		uxtb	r2, r2
  76:..\..\u8g2\csrc/u8g2_bitmap.c **** #ifdef U8G2_WITH_INTERSECTION
  77:..\..\u8g2\csrc/u8g2_bitmap.c ****   if ( u8g2_IsIntersection(u8g2, x, y, x+w, y+h) == 0 ) 
 151              		.loc 1 77 0
 152 0012 E318     		adds	r3, r4, r3
 153 0014 DEB2     		uxtb	r6, r3
 154 0016 5318     		adds	r3, r2, r1
  75:..\..\u8g2\csrc/u8g2_bitmap.c **** #ifdef U8G2_WITH_INTERSECTION
 155              		.loc 1 75 0
 156 0018 0292     		str	r2, [sp, #8]
 157              	.LVL15:
 158              		.loc 1 77 0
 159 001a DBB2     		uxtb	r3, r3
 160 001c 0096     		str	r6, [sp]
 161 001e 2200     		movs	r2, r4
  72:..\..\u8g2\csrc/u8g2_bitmap.c ****   u8g2_uint_t w;
 162              		.loc 1 72 0
 163 0020 0700     		movs	r7, r0
 164 0022 0D00     		movs	r5, r1
 165              		.loc 1 77 0
 166 0024 FFF7FEFF 		bl	u8g2_IsIntersection
 167              	.LVL16:
 168 0028 0028     		cmp	r0, #0
 169 002a 11D0     		beq	.L13
 170              	.LVL17:
 171              	.L17:
  78:..\..\u8g2\csrc/u8g2_bitmap.c ****     return;
  79:..\..\u8g2\csrc/u8g2_bitmap.c **** #endif /* U8G2_WITH_INTERSECTION */
  80:..\..\u8g2\csrc/u8g2_bitmap.c ****   
  81:..\..\u8g2\csrc/u8g2_bitmap.c ****   while( h > 0 )
 172              		.loc 1 81 0
 173 002c B442     		cmp	r4, r6
 174 002e 0FD0     		beq	.L13
  82:..\..\u8g2\csrc/u8g2_bitmap.c ****   {
  83:..\..\u8g2\csrc/u8g2_bitmap.c ****     u8g2_DrawHorizontalBitmap(u8g2, x, y, w, bitmap);
 175              		.loc 1 83 0
 176 0030 0B9B     		ldr	r3, [sp, #44]
 177 0032 2200     		movs	r2, r4
 178 0034 0093     		str	r3, [sp]
 179 0036 2900     		movs	r1, r5
 180 0038 029B     		ldr	r3, [sp, #8]
 181 003a 3800     		movs	r0, r7
 182 003c FFF7FEFF 		bl	u8g2_DrawHorizontalBitmap
 183              	.LVL18:
 184 0040 039A     		ldr	r2, [sp, #12]
 185 0042 0B9B     		ldr	r3, [sp, #44]
 186 0044 9446     		mov	ip, r2
  84:..\..\u8g2\csrc/u8g2_bitmap.c ****     bitmap += cnt;
  85:..\..\u8g2\csrc/u8g2_bitmap.c ****     y++;
 187              		.loc 1 85 0
 188 0046 0134     		adds	r4, r4, #1
 189              	.LVL19:
 190 0048 6344     		add	r3, r3, ip
 191 004a 0B93     		str	r3, [sp, #44]
 192              	.LVL20:
 193 004c E4B2     		uxtb	r4, r4
 194              	.LVL21:
ARM GAS  C:\Users\Greg\AppData\Local\Temp\ccmVjFLF.s 			page 6


 195 004e EDE7     		b	.L17
 196              	.LVL22:
 197              	.L13:
  86:..\..\u8g2\csrc/u8g2_bitmap.c ****     h--;
  87:..\..\u8g2\csrc/u8g2_bitmap.c ****   }
  88:..\..\u8g2\csrc/u8g2_bitmap.c **** }
 198              		.loc 1 88 0
 199 0050 05B0     		add	sp, sp, #20
 200              		@ sp needed
 201              	.LVL23:
 202 0052 F0BD     		pop	{r4, r5, r6, r7, pc}
 203              		.cfi_endproc
 204              	.LFE1:
 205              		.size	u8g2_DrawBitmap, .-u8g2_DrawBitmap
 206              		.section	.text.u8g2_DrawHXBMP,"ax",%progbits
 207              		.align	1
 208              		.global	u8g2_DrawHXBMP
 209              		.code	16
 210              		.thumb_func
 211              		.type	u8g2_DrawHXBMP, %function
 212              	u8g2_DrawHXBMP:
 213              	.LFB4:
  89:..\..\u8g2\csrc/u8g2_bitmap.c **** 
  90:..\..\u8g2\csrc/u8g2_bitmap.c **** 
  91:..\..\u8g2\csrc/u8g2_bitmap.c **** 
  92:..\..\u8g2\csrc/u8g2_bitmap.c **** void u8g2_DrawHXBM(u8g2_t *u8g2, u8g2_uint_t x, u8g2_uint_t y, u8g2_uint_t len, const uint8_t *b)
  93:..\..\u8g2\csrc/u8g2_bitmap.c **** {
  94:..\..\u8g2\csrc/u8g2_bitmap.c ****   uint8_t mask;
  95:..\..\u8g2\csrc/u8g2_bitmap.c ****   uint8_t color = u8g2->draw_color;
  96:..\..\u8g2\csrc/u8g2_bitmap.c ****   uint8_t ncolor = (color == 0 ? 1 : 0);
  97:..\..\u8g2\csrc/u8g2_bitmap.c **** #ifdef U8G2_WITH_INTERSECTION
  98:..\..\u8g2\csrc/u8g2_bitmap.c ****   if ( u8g2_IsIntersection(u8g2, x, y, x+len, y+1) == 0 ) 
  99:..\..\u8g2\csrc/u8g2_bitmap.c ****     return;
 100:..\..\u8g2\csrc/u8g2_bitmap.c **** #endif /* U8G2_WITH_INTERSECTION */
 101:..\..\u8g2\csrc/u8g2_bitmap.c ****   
 102:..\..\u8g2\csrc/u8g2_bitmap.c ****   mask = 1;
 103:..\..\u8g2\csrc/u8g2_bitmap.c ****   while(len > 0)
 104:..\..\u8g2\csrc/u8g2_bitmap.c ****   {
 105:..\..\u8g2\csrc/u8g2_bitmap.c ****     if ( *b & mask )
 106:..\..\u8g2\csrc/u8g2_bitmap.c ****       u8g2->draw_color = color;
 107:..\..\u8g2\csrc/u8g2_bitmap.c ****     else
 108:..\..\u8g2\csrc/u8g2_bitmap.c ****       u8g2->draw_color = ncolor;
 109:..\..\u8g2\csrc/u8g2_bitmap.c ****     u8g2_DrawHVLine(u8g2, x, y, 1, 0);
 110:..\..\u8g2\csrc/u8g2_bitmap.c ****     x++;
 111:..\..\u8g2\csrc/u8g2_bitmap.c ****     mask <<= 1;
 112:..\..\u8g2\csrc/u8g2_bitmap.c ****     if ( mask == 0 )
 113:..\..\u8g2\csrc/u8g2_bitmap.c ****     {
 114:..\..\u8g2\csrc/u8g2_bitmap.c ****       mask = 1;
 115:..\..\u8g2\csrc/u8g2_bitmap.c ****       b++;
 116:..\..\u8g2\csrc/u8g2_bitmap.c ****     }
 117:..\..\u8g2\csrc/u8g2_bitmap.c ****     len--;
 118:..\..\u8g2\csrc/u8g2_bitmap.c ****   }
 119:..\..\u8g2\csrc/u8g2_bitmap.c ****   u8g2->draw_color = color;
 120:..\..\u8g2\csrc/u8g2_bitmap.c **** }
 121:..\..\u8g2\csrc/u8g2_bitmap.c **** 
 122:..\..\u8g2\csrc/u8g2_bitmap.c **** 
 123:..\..\u8g2\csrc/u8g2_bitmap.c **** void u8g2_DrawXBM(u8g2_t *u8g2, u8g2_uint_t x, u8g2_uint_t y, u8g2_uint_t w, u8g2_uint_t h, const u
ARM GAS  C:\Users\Greg\AppData\Local\Temp\ccmVjFLF.s 			page 7


 124:..\..\u8g2\csrc/u8g2_bitmap.c **** {
 125:..\..\u8g2\csrc/u8g2_bitmap.c ****   u8g2_uint_t blen;
 126:..\..\u8g2\csrc/u8g2_bitmap.c ****   blen = w;
 127:..\..\u8g2\csrc/u8g2_bitmap.c ****   blen += 7;
 128:..\..\u8g2\csrc/u8g2_bitmap.c ****   blen >>= 3;
 129:..\..\u8g2\csrc/u8g2_bitmap.c **** #ifdef U8G2_WITH_INTERSECTION
 130:..\..\u8g2\csrc/u8g2_bitmap.c ****   if ( u8g2_IsIntersection(u8g2, x, y, x+w, y+h) == 0 ) 
 131:..\..\u8g2\csrc/u8g2_bitmap.c ****     return;
 132:..\..\u8g2\csrc/u8g2_bitmap.c **** #endif /* U8G2_WITH_INTERSECTION */
 133:..\..\u8g2\csrc/u8g2_bitmap.c ****   
 134:..\..\u8g2\csrc/u8g2_bitmap.c ****   while( h > 0 )
 135:..\..\u8g2\csrc/u8g2_bitmap.c ****   {
 136:..\..\u8g2\csrc/u8g2_bitmap.c ****     u8g2_DrawHXBM(u8g2, x, y, w, bitmap);
 137:..\..\u8g2\csrc/u8g2_bitmap.c ****     bitmap += blen;
 138:..\..\u8g2\csrc/u8g2_bitmap.c ****     y++;
 139:..\..\u8g2\csrc/u8g2_bitmap.c ****     h--;
 140:..\..\u8g2\csrc/u8g2_bitmap.c ****   }
 141:..\..\u8g2\csrc/u8g2_bitmap.c **** }
 142:..\..\u8g2\csrc/u8g2_bitmap.c **** 
 143:..\..\u8g2\csrc/u8g2_bitmap.c **** 
 144:..\..\u8g2\csrc/u8g2_bitmap.c **** 
 145:..\..\u8g2\csrc/u8g2_bitmap.c **** 
 146:..\..\u8g2\csrc/u8g2_bitmap.c **** 
 147:..\..\u8g2\csrc/u8g2_bitmap.c **** 
 148:..\..\u8g2\csrc/u8g2_bitmap.c **** void u8g2_DrawHXBMP(u8g2_t *u8g2, u8g2_uint_t x, u8g2_uint_t y, u8g2_uint_t len, const uint8_t *b)
 149:..\..\u8g2\csrc/u8g2_bitmap.c **** {
 214              		.loc 1 149 0
 215              		.cfi_startproc
 216              		@ args = 4, pretend = 0, frame = 8
 217              		@ frame_needed = 0, uses_anonymous_args = 0
 218              	.LVL24:
 219 0000 F0B5     		push	{r4, r5, r6, r7, lr}
 220              		.cfi_def_cfa_offset 20
 221              		.cfi_offset 4, -20
 222              		.cfi_offset 5, -16
 223              		.cfi_offset 6, -12
 224              		.cfi_offset 7, -8
 225              		.cfi_offset 14, -4
 226 0002 85B0     		sub	sp, sp, #20
 227              		.cfi_def_cfa_offset 40
 228              		.loc 1 149 0
 229 0004 0292     		str	r2, [sp, #8]
 150:..\..\u8g2\csrc/u8g2_bitmap.c ****   uint8_t mask;
 151:..\..\u8g2\csrc/u8g2_bitmap.c ****   uint8_t color = u8g2->draw_color;
 230              		.loc 1 151 0
 231 0006 0200     		movs	r2, r0
 232              	.LVL25:
 152:..\..\u8g2\csrc/u8g2_bitmap.c ****   uint8_t ncolor = (color == 0 ? 1 : 0);
 153:..\..\u8g2\csrc/u8g2_bitmap.c **** #ifdef U8G2_WITH_INTERSECTION
 154:..\..\u8g2\csrc/u8g2_bitmap.c ****   if ( u8g2_IsIntersection(u8g2, x, y, x+len, y+1) == 0 ) 
 233              		.loc 1 154 0
 234 0008 CB18     		adds	r3, r1, r3
 235              	.LVL26:
 151:..\..\u8g2\csrc/u8g2_bitmap.c ****   uint8_t ncolor = (color == 0 ? 1 : 0);
 236              		.loc 1 151 0
 237 000a 7C32     		adds	r2, r2, #124
 238              		.loc 1 154 0
ARM GAS  C:\Users\Greg\AppData\Local\Temp\ccmVjFLF.s 			page 8


 239 000c DBB2     		uxtb	r3, r3
 151:..\..\u8g2\csrc/u8g2_bitmap.c ****   uint8_t ncolor = (color == 0 ? 1 : 0);
 240              		.loc 1 151 0
 241 000e 1778     		ldrb	r7, [r2]
 242              	.LVL27:
 243              		.loc 1 154 0
 244 0010 0393     		str	r3, [sp, #12]
 245 0012 029B     		ldr	r3, [sp, #8]
 246 0014 029A     		ldr	r2, [sp, #8]
 247 0016 0133     		adds	r3, r3, #1
 248 0018 DBB2     		uxtb	r3, r3
 249 001a 0093     		str	r3, [sp]
 250 001c 039B     		ldr	r3, [sp, #12]
 149:..\..\u8g2\csrc/u8g2_bitmap.c ****   uint8_t mask;
 251              		.loc 1 149 0
 252 001e 0600     		movs	r6, r0
 253 0020 0C00     		movs	r4, r1
 254              		.loc 1 154 0
 255 0022 FFF7FEFF 		bl	u8g2_IsIntersection
 256              	.LVL28:
 257 0026 0125     		movs	r5, #1
 258 0028 0028     		cmp	r0, #0
 259 002a 21D0     		beq	.L18
 260              	.LVL29:
 261              	.L20:
 262 002c 3300     		movs	r3, r6
 155:..\..\u8g2\csrc/u8g2_bitmap.c ****     return;
 156:..\..\u8g2\csrc/u8g2_bitmap.c **** #endif /* U8G2_WITH_INTERSECTION */
 157:..\..\u8g2\csrc/u8g2_bitmap.c ****   
 158:..\..\u8g2\csrc/u8g2_bitmap.c ****   mask = 1;
 159:..\..\u8g2\csrc/u8g2_bitmap.c ****   while(len > 0)
 263              		.loc 1 159 0
 264 002e 039A     		ldr	r2, [sp, #12]
 265 0030 7C33     		adds	r3, r3, #124
 266 0032 9442     		cmp	r4, r2
 267 0034 1BD0     		beq	.L28
 160:..\..\u8g2\csrc/u8g2_bitmap.c ****   {
 161:..\..\u8g2\csrc/u8g2_bitmap.c ****     if ( u8x8_pgm_read(b) & mask )
 268              		.loc 1 161 0
 269 0036 0A9A     		ldr	r2, [sp, #40]
 270 0038 1278     		ldrb	r2, [r2]
 271 003a 2A42     		tst	r2, r5
 272 003c 01D0     		beq	.L21
 162:..\..\u8g2\csrc/u8g2_bitmap.c ****       u8g2->draw_color = color;
 273              		.loc 1 162 0
 274 003e 1F70     		strb	r7, [r3]
 275 0040 02E0     		b	.L22
 276              	.L21:
 163:..\..\u8g2\csrc/u8g2_bitmap.c ****     else
 164:..\..\u8g2\csrc/u8g2_bitmap.c ****       u8g2->draw_color = ncolor;
 277              		.loc 1 164 0
 278 0042 7A42     		rsbs	r2, r7, #0
 279 0044 7A41     		adcs	r2, r2, r7
 280 0046 1A70     		strb	r2, [r3]
 281              	.L22:
 165:..\..\u8g2\csrc/u8g2_bitmap.c ****     u8g2_DrawHVLine(u8g2, x, y, 1, 0);
 282              		.loc 1 165 0
ARM GAS  C:\Users\Greg\AppData\Local\Temp\ccmVjFLF.s 			page 9


 283 0048 0023     		movs	r3, #0
 166:..\..\u8g2\csrc/u8g2_bitmap.c ****     x++;
 167:..\..\u8g2\csrc/u8g2_bitmap.c ****     mask <<= 1;
 284              		.loc 1 167 0
 285 004a 6D00     		lsls	r5, r5, #1
 286              	.LVL30:
 165:..\..\u8g2\csrc/u8g2_bitmap.c ****     u8g2_DrawHVLine(u8g2, x, y, 1, 0);
 287              		.loc 1 165 0
 288 004c 0093     		str	r3, [sp]
 289 004e 2100     		movs	r1, r4
 290 0050 0133     		adds	r3, r3, #1
 291 0052 029A     		ldr	r2, [sp, #8]
 292 0054 3000     		movs	r0, r6
 166:..\..\u8g2\csrc/u8g2_bitmap.c ****     x++;
 293              		.loc 1 166 0
 294 0056 0134     		adds	r4, r4, #1
 295              	.LVL31:
 296              		.loc 1 167 0
 297 0058 EDB2     		uxtb	r5, r5
 165:..\..\u8g2\csrc/u8g2_bitmap.c ****     u8g2_DrawHVLine(u8g2, x, y, 1, 0);
 298              		.loc 1 165 0
 299 005a FFF7FEFF 		bl	u8g2_DrawHVLine
 300              	.LVL32:
 166:..\..\u8g2\csrc/u8g2_bitmap.c ****     x++;
 301              		.loc 1 166 0
 302 005e E4B2     		uxtb	r4, r4
 303              	.LVL33:
 168:..\..\u8g2\csrc/u8g2_bitmap.c ****     if ( mask == 0 )
 304              		.loc 1 168 0
 305 0060 002D     		cmp	r5, #0
 306 0062 E3D1     		bne	.L20
 307              	.LVL34:
 169:..\..\u8g2\csrc/u8g2_bitmap.c ****     {
 170:..\..\u8g2\csrc/u8g2_bitmap.c ****       mask = 1;
 171:..\..\u8g2\csrc/u8g2_bitmap.c ****       b++;
 308              		.loc 1 171 0
 309 0064 0A9B     		ldr	r3, [sp, #40]
 170:..\..\u8g2\csrc/u8g2_bitmap.c ****       b++;
 310              		.loc 1 170 0
 311 0066 0135     		adds	r5, r5, #1
 312              		.loc 1 171 0
 313 0068 0133     		adds	r3, r3, #1
 314 006a 0A93     		str	r3, [sp, #40]
 315              	.LVL35:
 316 006c DEE7     		b	.L20
 317              	.LVL36:
 318              	.L28:
 172:..\..\u8g2\csrc/u8g2_bitmap.c ****     }
 173:..\..\u8g2\csrc/u8g2_bitmap.c ****     len--;
 174:..\..\u8g2\csrc/u8g2_bitmap.c ****   }
 175:..\..\u8g2\csrc/u8g2_bitmap.c ****   u8g2->draw_color = color;
 319              		.loc 1 175 0
 320 006e 1F70     		strb	r7, [r3]
 321              	.LVL37:
 322              	.L18:
 176:..\..\u8g2\csrc/u8g2_bitmap.c **** }
 323              		.loc 1 176 0
ARM GAS  C:\Users\Greg\AppData\Local\Temp\ccmVjFLF.s 			page 10


 324 0070 05B0     		add	sp, sp, #20
 325              		@ sp needed
 326              	.LVL38:
 327              	.LVL39:
 328 0072 F0BD     		pop	{r4, r5, r6, r7, pc}
 329              		.cfi_endproc
 330              	.LFE4:
 331              		.size	u8g2_DrawHXBMP, .-u8g2_DrawHXBMP
 332              		.section	.text.u8g2_DrawHXBM,"ax",%progbits
 333              		.align	1
 334              		.global	u8g2_DrawHXBM
 335              		.code	16
 336              		.thumb_func
 337              		.type	u8g2_DrawHXBM, %function
 338              	u8g2_DrawHXBM:
 339              	.LFB8:
 340              		.cfi_startproc
 341              		@ args = 4, pretend = 0, frame = 0
 342              		@ frame_needed = 0, uses_anonymous_args = 0
 343 0000 13B5     		push	{r0, r1, r4, lr}
 344              		.cfi_def_cfa_offset 16
 345              		.cfi_offset 0, -16
 346              		.cfi_offset 1, -12
 347              		.cfi_offset 4, -8
 348              		.cfi_offset 14, -4
 349 0002 049C     		ldr	r4, [sp, #16]
 350              		@ sp needed
 351 0004 0094     		str	r4, [sp]
 352 0006 FFF7FEFF 		bl	u8g2_DrawHXBMP
 353 000a 13BD     		pop	{r0, r1, r4, pc}
 354              		.cfi_endproc
 355              	.LFE8:
 356              		.size	u8g2_DrawHXBM, .-u8g2_DrawHXBM
 357              		.section	.text.u8g2_DrawXBMP,"ax",%progbits
 358              		.align	1
 359              		.global	u8g2_DrawXBMP
 360              		.code	16
 361              		.thumb_func
 362              		.type	u8g2_DrawXBMP, %function
 363              	u8g2_DrawXBMP:
 364              	.LFB5:
 177:..\..\u8g2\csrc/u8g2_bitmap.c **** 
 178:..\..\u8g2\csrc/u8g2_bitmap.c **** 
 179:..\..\u8g2\csrc/u8g2_bitmap.c **** void u8g2_DrawXBMP(u8g2_t *u8g2, u8g2_uint_t x, u8g2_uint_t y, u8g2_uint_t w, u8g2_uint_t h, const 
 180:..\..\u8g2\csrc/u8g2_bitmap.c **** {
 365              		.loc 1 180 0
 366              		.cfi_startproc
 367              		@ args = 8, pretend = 0, frame = 8
 368              		@ frame_needed = 0, uses_anonymous_args = 0
 369              	.LVL40:
 370              		.loc 1 180 0
 371 0000 F0B5     		push	{r4, r5, r6, r7, lr}
 372              		.cfi_def_cfa_offset 20
 373              		.cfi_offset 4, -20
 374              		.cfi_offset 5, -16
 375              		.cfi_offset 6, -12
 376              		.cfi_offset 7, -8
ARM GAS  C:\Users\Greg\AppData\Local\Temp\ccmVjFLF.s 			page 11


 377              		.cfi_offset 14, -4
 378 0002 1E00     		movs	r6, r3
 379 0004 85B0     		sub	sp, sp, #20
 380              		.cfi_def_cfa_offset 40
 381              		.loc 1 180 0
 382 0006 0AAB     		add	r3, sp, #40
 383              	.LVL41:
 384 0008 1B78     		ldrb	r3, [r3]
 385              	.LVL42:
 386 000a 0290     		str	r0, [sp, #8]
 181:..\..\u8g2\csrc/u8g2_bitmap.c ****   u8g2_uint_t blen;
 182:..\..\u8g2\csrc/u8g2_bitmap.c ****   blen = w;
 183:..\..\u8g2\csrc/u8g2_bitmap.c ****   blen += 7;
 184:..\..\u8g2\csrc/u8g2_bitmap.c ****   blen >>= 3;
 185:..\..\u8g2\csrc/u8g2_bitmap.c **** #ifdef U8G2_WITH_INTERSECTION
 186:..\..\u8g2\csrc/u8g2_bitmap.c ****   if ( u8g2_IsIntersection(u8g2, x, y, x+w, y+h) == 0 ) 
 387              		.loc 1 186 0
 388 000c D318     		adds	r3, r2, r3
 389 000e DFB2     		uxtb	r7, r3
 390 0010 7318     		adds	r3, r6, r1
 391 0012 DBB2     		uxtb	r3, r3
 392 0014 0097     		str	r7, [sp]
 180:..\..\u8g2\csrc/u8g2_bitmap.c ****   u8g2_uint_t blen;
 393              		.loc 1 180 0
 394 0016 0D00     		movs	r5, r1
 395 0018 1400     		movs	r4, r2
 396              		.loc 1 186 0
 397 001a FFF7FEFF 		bl	u8g2_IsIntersection
 398              	.LVL43:
 399 001e 0028     		cmp	r0, #0
 400 0020 15D0     		beq	.L30
 183:..\..\u8g2\csrc/u8g2_bitmap.c ****   blen >>= 3;
 401              		.loc 1 183 0
 402 0022 F31D     		adds	r3, r6, #7
 403 0024 DBB2     		uxtb	r3, r3
 187:..\..\u8g2\csrc/u8g2_bitmap.c ****     return;
 188:..\..\u8g2\csrc/u8g2_bitmap.c **** #endif /* U8G2_WITH_INTERSECTION */
 189:..\..\u8g2\csrc/u8g2_bitmap.c ****   
 190:..\..\u8g2\csrc/u8g2_bitmap.c ****   while( h > 0 )
 191:..\..\u8g2\csrc/u8g2_bitmap.c ****   {
 192:..\..\u8g2\csrc/u8g2_bitmap.c ****     u8g2_DrawHXBMP(u8g2, x, y, w, bitmap);
 193:..\..\u8g2\csrc/u8g2_bitmap.c ****     bitmap += blen;
 404              		.loc 1 193 0
 405 0026 DB08     		lsrs	r3, r3, #3
 406 0028 0393     		str	r3, [sp, #12]
 407              	.LVL44:
 408              	.L32:
 190:..\..\u8g2\csrc/u8g2_bitmap.c ****   {
 409              		.loc 1 190 0
 410 002a BC42     		cmp	r4, r7
 411 002c 0FD0     		beq	.L30
 192:..\..\u8g2\csrc/u8g2_bitmap.c ****     bitmap += blen;
 412              		.loc 1 192 0
 413 002e 0B9B     		ldr	r3, [sp, #44]
 414 0030 2200     		movs	r2, r4
 415 0032 0093     		str	r3, [sp]
 416 0034 2900     		movs	r1, r5
ARM GAS  C:\Users\Greg\AppData\Local\Temp\ccmVjFLF.s 			page 12


 417 0036 3300     		movs	r3, r6
 418 0038 0298     		ldr	r0, [sp, #8]
 419 003a FFF7FEFF 		bl	u8g2_DrawHXBMP
 420              	.LVL45:
 421              		.loc 1 193 0
 422 003e 039A     		ldr	r2, [sp, #12]
 423 0040 0B9B     		ldr	r3, [sp, #44]
 424 0042 9446     		mov	ip, r2
 194:..\..\u8g2\csrc/u8g2_bitmap.c ****     y++;
 425              		.loc 1 194 0
 426 0044 0134     		adds	r4, r4, #1
 427              	.LVL46:
 193:..\..\u8g2\csrc/u8g2_bitmap.c ****     y++;
 428              		.loc 1 193 0
 429 0046 6344     		add	r3, r3, ip
 430 0048 0B93     		str	r3, [sp, #44]
 431              	.LVL47:
 432              		.loc 1 194 0
 433 004a E4B2     		uxtb	r4, r4
 434              	.LVL48:
 435 004c EDE7     		b	.L32
 436              	.LVL49:
 437              	.L30:
 195:..\..\u8g2\csrc/u8g2_bitmap.c ****     h--;
 196:..\..\u8g2\csrc/u8g2_bitmap.c ****   }
 197:..\..\u8g2\csrc/u8g2_bitmap.c **** }
 438              		.loc 1 197 0
 439 004e 05B0     		add	sp, sp, #20
 440              		@ sp needed
 441              	.LVL50:
 442 0050 F0BD     		pop	{r4, r5, r6, r7, pc}
 443              		.cfi_endproc
 444              	.LFE5:
 445              		.size	u8g2_DrawXBMP, .-u8g2_DrawXBMP
 446              		.section	.text.u8g2_DrawXBM,"ax",%progbits
 447              		.align	1
 448              		.global	u8g2_DrawXBM
 449              		.code	16
 450              		.thumb_func
 451              		.type	u8g2_DrawXBM, %function
 452              	u8g2_DrawXBM:
 453              	.LFB10:
 454              		.cfi_startproc
 455              		@ args = 8, pretend = 0, frame = 0
 456              		@ frame_needed = 0, uses_anonymous_args = 0
 457 0000 37B5     		push	{r0, r1, r2, r4, r5, lr}
 458              		.cfi_def_cfa_offset 24
 459              		.cfi_offset 0, -24
 460              		.cfi_offset 1, -20
 461              		.cfi_offset 2, -16
 462              		.cfi_offset 4, -12
 463              		.cfi_offset 5, -8
 464              		.cfi_offset 14, -4
 465 0002 06AC     		add	r4, sp, #24
 466 0004 2478     		ldrb	r4, [r4]
 467 0006 079D     		ldr	r5, [sp, #28]
 468 0008 0094     		str	r4, [sp]
ARM GAS  C:\Users\Greg\AppData\Local\Temp\ccmVjFLF.s 			page 13


 469 000a 0195     		str	r5, [sp, #4]
 470 000c FFF7FEFF 		bl	u8g2_DrawXBMP
 471              		@ sp needed
 472 0010 37BD     		pop	{r0, r1, r2, r4, r5, pc}
 473              		.cfi_endproc
 474              	.LFE10:
 475              		.size	u8g2_DrawXBM, .-u8g2_DrawXBM
 476              		.text
 477              	.Letext0:
 478              		.file 2 "c:\\program files\\cypress\\psoc creator\\4.1\\psoc creator\\import\\gnu\\arm\\5.4.1\\arm
 479              		.file 3 "c:\\program files\\cypress\\psoc creator\\4.1\\psoc creator\\import\\gnu\\arm\\5.4.1\\arm
 480              		.file 4 "..\\..\\u8g2\\csrc\\u8x8.h"
 481              		.file 5 "..\\..\\u8g2\\csrc\\u8g2.h"