ARM GAS  C:\Users\gjl\AppData\Local\Temp\ccg70AS9.s 			page 1


   1              		.syntax unified
   2              		.cpu cortex-m0
   3              		.fpu softvfp
   4              		.eabi_attribute 20, 1
   5              		.eabi_attribute 21, 1
   6              		.eabi_attribute 23, 3
   7              		.eabi_attribute 24, 1
   8              		.eabi_attribute 25, 1
   9              		.eabi_attribute 26, 1
  10              		.eabi_attribute 30, 4
  11              		.eabi_attribute 34, 0
  12              		.eabi_attribute 18, 4
  13              		.thumb
  14              		.syntax unified
  15              		.file	"u8g2_font.c"
  16              		.text
  17              	.Ltext0:
  18              		.cfi_sections	.debug_frame
  19              		.section	.text.u8g2_font_get_word,"ax",%progbits
  20              		.align	1
  21              		.code	16
  22              		.thumb_func
  23              		.type	u8g2_font_get_word, %function
  24              	u8g2_font_get_word:
  25              	.LFB1:
  26              		.file 1 "..\\..\\u8g2\\csrc\\u8g2_font.c"
   1:..\..\u8g2\csrc/u8g2_font.c **** /*
   2:..\..\u8g2\csrc/u8g2_font.c **** 
   3:..\..\u8g2\csrc/u8g2_font.c ****   u8g2_font.c
   4:..\..\u8g2\csrc/u8g2_font.c **** 
   5:..\..\u8g2\csrc/u8g2_font.c ****   Universal 8bit Graphics Library (https://github.com/olikraus/u8g2/)
   6:..\..\u8g2\csrc/u8g2_font.c **** 
   7:..\..\u8g2\csrc/u8g2_font.c ****   Copyright (c) 2016, olikraus@gmail.com
   8:..\..\u8g2\csrc/u8g2_font.c ****   All rights reserved.
   9:..\..\u8g2\csrc/u8g2_font.c **** 
  10:..\..\u8g2\csrc/u8g2_font.c ****   Redistribution and use in source and binary forms, with or without modification, 
  11:..\..\u8g2\csrc/u8g2_font.c ****   are permitted provided that the following conditions are met:
  12:..\..\u8g2\csrc/u8g2_font.c **** 
  13:..\..\u8g2\csrc/u8g2_font.c ****   * Redistributions of source code must retain the above copyright notice, this list 
  14:..\..\u8g2\csrc/u8g2_font.c ****     of conditions and the following disclaimer.
  15:..\..\u8g2\csrc/u8g2_font.c ****     
  16:..\..\u8g2\csrc/u8g2_font.c ****   * Redistributions in binary form must reproduce the above copyright notice, this 
  17:..\..\u8g2\csrc/u8g2_font.c ****     list of conditions and the following disclaimer in the documentation and/or other 
  18:..\..\u8g2\csrc/u8g2_font.c ****     materials provided with the distribution.
  19:..\..\u8g2\csrc/u8g2_font.c **** 
  20:..\..\u8g2\csrc/u8g2_font.c ****   THIS SOFTWARE IS PROVIDED BY THE COPYRIGHT HOLDERS AND 
  21:..\..\u8g2\csrc/u8g2_font.c ****   CONTRIBUTORS "AS IS" AND ANY EXPRESS OR IMPLIED WARRANTIES, 
  22:..\..\u8g2\csrc/u8g2_font.c ****   INCLUDING, BUT NOT LIMITED TO, THE IMPLIED WARRANTIES OF 
  23:..\..\u8g2\csrc/u8g2_font.c ****   MERCHANTABILITY AND FITNESS FOR A PARTICULAR PURPOSE ARE 
  24:..\..\u8g2\csrc/u8g2_font.c ****   DISCLAIMED. IN NO EVENT SHALL THE COPYRIGHT HOLDER OR 
  25:..\..\u8g2\csrc/u8g2_font.c ****   CONTRIBUTORS BE LIABLE FOR ANY DIRECT, INDIRECT, INCIDENTAL, 
  26:..\..\u8g2\csrc/u8g2_font.c ****   SPECIAL, EXEMPLARY, OR CONSEQUENTIAL DAMAGES (INCLUDING, BUT 
  27:..\..\u8g2\csrc/u8g2_font.c ****   NOT LIMITED TO, PROCUREMENT OF SUBSTITUTE GOODS OR SERVICES; 
  28:..\..\u8g2\csrc/u8g2_font.c ****   LOSS OF USE, DATA, OR PROFITS; OR BUSINESS INTERRUPTION) HOWEVER 
  29:..\..\u8g2\csrc/u8g2_font.c ****   CAUSED AND ON ANY THEORY OF LIABILITY, WHETHER IN CONTRACT, 
  30:..\..\u8g2\csrc/u8g2_font.c ****   STRICT LIABILITY, OR TORT (INCLUDING NEGLIGENCE OR OTHERWISE) 
  31:..\..\u8g2\csrc/u8g2_font.c ****   ARISING IN ANY WAY OUT OF THE USE OF THIS SOFTWARE, EVEN IF 
ARM GAS  C:\Users\gjl\AppData\Local\Temp\ccg70AS9.s 			page 2


  32:..\..\u8g2\csrc/u8g2_font.c ****   ADVISED OF THE POSSIBILITY OF SUCH DAMAGE.  
  33:..\..\u8g2\csrc/u8g2_font.c **** 
  34:..\..\u8g2\csrc/u8g2_font.c **** */
  35:..\..\u8g2\csrc/u8g2_font.c **** 
  36:..\..\u8g2\csrc/u8g2_font.c **** #include "u8g2.h"
  37:..\..\u8g2\csrc/u8g2_font.c **** 
  38:..\..\u8g2\csrc/u8g2_font.c **** /* size of the font data structure, there is no struct or class... */
  39:..\..\u8g2\csrc/u8g2_font.c **** /* this is the size for the new font format */
  40:..\..\u8g2\csrc/u8g2_font.c **** #define U8G2_FONT_DATA_STRUCT_SIZE 23
  41:..\..\u8g2\csrc/u8g2_font.c **** 
  42:..\..\u8g2\csrc/u8g2_font.c **** /*
  43:..\..\u8g2\csrc/u8g2_font.c ****   font data:
  44:..\..\u8g2\csrc/u8g2_font.c **** 
  45:..\..\u8g2\csrc/u8g2_font.c ****   offset	bytes	description
  46:..\..\u8g2\csrc/u8g2_font.c ****   0		1		glyph_cnt		number of glyphs
  47:..\..\u8g2\csrc/u8g2_font.c ****   1		1		bbx_mode	0: proportional, 1: common height, 2: monospace, 3: multiple of 8
  48:..\..\u8g2\csrc/u8g2_font.c ****   2		1		bits_per_0	glyph rle parameter
  49:..\..\u8g2\csrc/u8g2_font.c ****   3		1		bits_per_1	glyph rle parameter
  50:..\..\u8g2\csrc/u8g2_font.c **** 
  51:..\..\u8g2\csrc/u8g2_font.c ****   4		1		bits_per_char_width		glyph rle parameter
  52:..\..\u8g2\csrc/u8g2_font.c ****   5		1		bits_per_char_height	glyph rle parameter
  53:..\..\u8g2\csrc/u8g2_font.c ****   6		1		bits_per_char_x		glyph rle parameter
  54:..\..\u8g2\csrc/u8g2_font.c ****   7		1		bits_per_char_y		glyph rle parameter
  55:..\..\u8g2\csrc/u8g2_font.c ****   8		1		bits_per_delta_x		glyph rle parameter
  56:..\..\u8g2\csrc/u8g2_font.c **** 
  57:..\..\u8g2\csrc/u8g2_font.c ****   9		1		max_char_width
  58:..\..\u8g2\csrc/u8g2_font.c ****   10		1		max_char_height
  59:..\..\u8g2\csrc/u8g2_font.c ****   11		1		x offset
  60:..\..\u8g2\csrc/u8g2_font.c ****   12		1		y offset (descent)
  61:..\..\u8g2\csrc/u8g2_font.c ****   
  62:..\..\u8g2\csrc/u8g2_font.c ****   13		1		ascent (capital A)
  63:..\..\u8g2\csrc/u8g2_font.c ****   14		1		descent (lower g)
  64:..\..\u8g2\csrc/u8g2_font.c ****   15		1		ascent '('
  65:..\..\u8g2\csrc/u8g2_font.c ****   16		1		descent ')'
  66:..\..\u8g2\csrc/u8g2_font.c ****   
  67:..\..\u8g2\csrc/u8g2_font.c ****   17		1		start pos 'A' high byte
  68:..\..\u8g2\csrc/u8g2_font.c ****   18		1		start pos 'A' low byte
  69:..\..\u8g2\csrc/u8g2_font.c **** 
  70:..\..\u8g2\csrc/u8g2_font.c ****   19		1		start pos 'a' high byte
  71:..\..\u8g2\csrc/u8g2_font.c ****   20		1		start pos 'a' low byte
  72:..\..\u8g2\csrc/u8g2_font.c **** 
  73:..\..\u8g2\csrc/u8g2_font.c ****   21		1		start pos unicode high byte
  74:..\..\u8g2\csrc/u8g2_font.c ****   22		1		start pos unicode low byte
  75:..\..\u8g2\csrc/u8g2_font.c **** 
  76:..\..\u8g2\csrc/u8g2_font.c ****   Font build mode, 0: proportional, 1: common height, 2: monospace, 3: multiple of 8
  77:..\..\u8g2\csrc/u8g2_font.c **** 
  78:..\..\u8g2\csrc/u8g2_font.c ****   Font build mode 0:		
  79:..\..\u8g2\csrc/u8g2_font.c ****     - "t"
  80:..\..\u8g2\csrc/u8g2_font.c ****     - Ref height mode: U8G2_FONT_HEIGHT_MODE_TEXT, U8G2_FONT_HEIGHT_MODE_XTEXT or U8G2_FONT_HEIGHT_
  81:..\..\u8g2\csrc/u8g2_font.c ****     - use in transparent mode only (does not look good in solid mode)
  82:..\..\u8g2\csrc/u8g2_font.c ****     - most compact format
  83:..\..\u8g2\csrc/u8g2_font.c ****     - different font heights possible
  84:..\..\u8g2\csrc/u8g2_font.c ****     
  85:..\..\u8g2\csrc/u8g2_font.c ****   Font build mode 1:		
  86:..\..\u8g2\csrc/u8g2_font.c ****     - "h"
  87:..\..\u8g2\csrc/u8g2_font.c ****     - Ref height mode: U8G2_FONT_HEIGHT_MODE_ALL
  88:..\..\u8g2\csrc/u8g2_font.c ****     - transparent or solid mode
ARM GAS  C:\Users\gjl\AppData\Local\Temp\ccg70AS9.s 			page 3


  89:..\..\u8g2\csrc/u8g2_font.c ****     - The height of the glyphs depend on the largest glyph in the font. This means font height depe
  90:..\..\u8g2\csrc/u8g2_font.c **** 
  91:..\..\u8g2\csrc/u8g2_font.c **** */
  92:..\..\u8g2\csrc/u8g2_font.c **** 
  93:..\..\u8g2\csrc/u8g2_font.c **** /* use case: What is the width and the height of the minimal box into which string s fints? */
  94:..\..\u8g2\csrc/u8g2_font.c **** void u8g2_font_GetStrSize(const void *font, const char *s, u8g2_uint_t *width, u8g2_uint_t *height)
  95:..\..\u8g2\csrc/u8g2_font.c **** void u8g2_font_GetStrSizeP(const void *font, const char *s, u8g2_uint_t *width, u8g2_uint_t *height
  96:..\..\u8g2\csrc/u8g2_font.c **** 
  97:..\..\u8g2\csrc/u8g2_font.c **** /* use case: lower left edge of a minimal box is known, what is the correct x, y position for the s
  98:..\..\u8g2\csrc/u8g2_font.c **** void u8g2_font_AdjustXYToDraw(const void *font, const char *s, u8g2_uint_t *x, u8g2_uint_t *y);
  99:..\..\u8g2\csrc/u8g2_font.c **** void u8g2_font_AdjustXYToDrawP(const void *font, const char *s, u8g2_uint_t *x, u8g2_uint_t *y);
 100:..\..\u8g2\csrc/u8g2_font.c **** 
 101:..\..\u8g2\csrc/u8g2_font.c **** /* use case: Baseline origin known, return minimal box */
 102:..\..\u8g2\csrc/u8g2_font.c **** void u8g2_font_GetStrMinBox(u8g2_t *u8g2, const void *font, const char *s, u8g2_uint_t *x, u8g2_uin
 103:..\..\u8g2\csrc/u8g2_font.c **** 
 104:..\..\u8g2\csrc/u8g2_font.c **** /* procedures */
 105:..\..\u8g2\csrc/u8g2_font.c **** 
 106:..\..\u8g2\csrc/u8g2_font.c **** /*========================================================================*/
 107:..\..\u8g2\csrc/u8g2_font.c **** /* low level byte and word access */
 108:..\..\u8g2\csrc/u8g2_font.c **** 
 109:..\..\u8g2\csrc/u8g2_font.c **** /* removed NOINLINE, because it leads to smaller code, might also be faster */
 110:..\..\u8g2\csrc/u8g2_font.c **** //static uint8_t u8g2_font_get_byte(const uint8_t *font, uint8_t offset) U8G2_NOINLINE;
 111:..\..\u8g2\csrc/u8g2_font.c **** static uint8_t u8g2_font_get_byte(const uint8_t *font, uint8_t offset)
 112:..\..\u8g2\csrc/u8g2_font.c **** {
 113:..\..\u8g2\csrc/u8g2_font.c ****   font += offset;
 114:..\..\u8g2\csrc/u8g2_font.c ****   return u8x8_pgm_read( font );  
 115:..\..\u8g2\csrc/u8g2_font.c **** }
 116:..\..\u8g2\csrc/u8g2_font.c **** 
 117:..\..\u8g2\csrc/u8g2_font.c **** static uint16_t u8g2_font_get_word(const uint8_t *font, uint8_t offset) U8G2_NOINLINE; 
 118:..\..\u8g2\csrc/u8g2_font.c **** static uint16_t u8g2_font_get_word(const uint8_t *font, uint8_t offset)
 119:..\..\u8g2\csrc/u8g2_font.c **** {
  27              		.loc 1 119 0
  28              		.cfi_startproc
  29              		@ args = 0, pretend = 0, frame = 0
  30              		@ frame_needed = 0, uses_anonymous_args = 0
  31              		@ link register save eliminated.
  32              	.LVL0:
 120:..\..\u8g2\csrc/u8g2_font.c ****     uint16_t pos;
 121:..\..\u8g2\csrc/u8g2_font.c ****     font += offset;
  33              		.loc 1 121 0
  34 0000 4118     		adds	r1, r0, r1
  35              	.LVL1:
 122:..\..\u8g2\csrc/u8g2_font.c ****     pos = u8x8_pgm_read( font );
  36              		.loc 1 122 0
  37 0002 0878     		ldrb	r0, [r1]
  38              	.LVL2:
 123:..\..\u8g2\csrc/u8g2_font.c ****     font++;
 124:..\..\u8g2\csrc/u8g2_font.c ****     pos <<= 8;
 125:..\..\u8g2\csrc/u8g2_font.c ****     pos += u8x8_pgm_read( font);
 126:..\..\u8g2\csrc/u8g2_font.c ****     return pos;
  39              		.loc 1 126 0
  40 0004 4B78     		ldrb	r3, [r1, #1]
 124:..\..\u8g2\csrc/u8g2_font.c ****     pos += u8x8_pgm_read( font);
  41              		.loc 1 124 0
  42 0006 0002     		lsls	r0, r0, #8
  43              	.LVL3:
  44              		.loc 1 126 0
ARM GAS  C:\Users\gjl\AppData\Local\Temp\ccg70AS9.s 			page 4


  45 0008 C018     		adds	r0, r0, r3
  46              	.LVL4:
  47 000a 80B2     		uxth	r0, r0
 127:..\..\u8g2\csrc/u8g2_font.c **** }
  48              		.loc 1 127 0
  49              		@ sp needed
  50 000c 7047     		bx	lr
  51              		.cfi_endproc
  52              	.LFE1:
  53              		.size	u8g2_font_get_word, .-u8g2_font_get_word
  54              		.section	.text.u8g2_add_vector_y,"ax",%progbits
  55              		.align	1
  56              		.code	16
  57              		.thumb_func
  58              		.type	u8g2_add_vector_y, %function
  59              	u8g2_add_vector_y:
  60              	.LFB11:
 128:..\..\u8g2\csrc/u8g2_font.c **** 
 129:..\..\u8g2\csrc/u8g2_font.c **** /*========================================================================*/
 130:..\..\u8g2\csrc/u8g2_font.c **** /* new font format */
 131:..\..\u8g2\csrc/u8g2_font.c **** void u8g2_read_font_info(u8g2_font_info_t *font_info, const uint8_t *font)
 132:..\..\u8g2\csrc/u8g2_font.c **** {
 133:..\..\u8g2\csrc/u8g2_font.c ****   /* offset 0 */
 134:..\..\u8g2\csrc/u8g2_font.c ****   font_info->glyph_cnt = u8g2_font_get_byte(font, 0);
 135:..\..\u8g2\csrc/u8g2_font.c ****   font_info->bbx_mode = u8g2_font_get_byte(font, 1);
 136:..\..\u8g2\csrc/u8g2_font.c ****   font_info->bits_per_0 = u8g2_font_get_byte(font, 2);
 137:..\..\u8g2\csrc/u8g2_font.c ****   font_info->bits_per_1 = u8g2_font_get_byte(font, 3);
 138:..\..\u8g2\csrc/u8g2_font.c ****   
 139:..\..\u8g2\csrc/u8g2_font.c ****   /* offset 4 */
 140:..\..\u8g2\csrc/u8g2_font.c ****   font_info->bits_per_char_width = u8g2_font_get_byte(font, 4);
 141:..\..\u8g2\csrc/u8g2_font.c ****   font_info->bits_per_char_height = u8g2_font_get_byte(font, 5);
 142:..\..\u8g2\csrc/u8g2_font.c ****   font_info->bits_per_char_x = u8g2_font_get_byte(font, 6);
 143:..\..\u8g2\csrc/u8g2_font.c ****   font_info->bits_per_char_y = u8g2_font_get_byte(font, 7);
 144:..\..\u8g2\csrc/u8g2_font.c ****   font_info->bits_per_delta_x = u8g2_font_get_byte(font, 8);
 145:..\..\u8g2\csrc/u8g2_font.c ****   
 146:..\..\u8g2\csrc/u8g2_font.c ****   /* offset 9 */
 147:..\..\u8g2\csrc/u8g2_font.c ****   font_info->max_char_width = u8g2_font_get_byte(font, 9);
 148:..\..\u8g2\csrc/u8g2_font.c ****   font_info->max_char_height = u8g2_font_get_byte(font, 10);
 149:..\..\u8g2\csrc/u8g2_font.c ****   font_info->x_offset = u8g2_font_get_byte(font, 11);
 150:..\..\u8g2\csrc/u8g2_font.c ****   font_info->y_offset = u8g2_font_get_byte(font, 12);
 151:..\..\u8g2\csrc/u8g2_font.c ****   
 152:..\..\u8g2\csrc/u8g2_font.c ****   /* offset 13 */
 153:..\..\u8g2\csrc/u8g2_font.c ****   font_info->ascent_A = u8g2_font_get_byte(font, 13);
 154:..\..\u8g2\csrc/u8g2_font.c ****   font_info->descent_g = u8g2_font_get_byte(font, 14);
 155:..\..\u8g2\csrc/u8g2_font.c ****   font_info->ascent_para = u8g2_font_get_byte(font, 15);
 156:..\..\u8g2\csrc/u8g2_font.c ****   font_info->descent_para = u8g2_font_get_byte(font, 16);
 157:..\..\u8g2\csrc/u8g2_font.c ****   
 158:..\..\u8g2\csrc/u8g2_font.c ****   /* offset 17 */
 159:..\..\u8g2\csrc/u8g2_font.c ****   font_info->start_pos_upper_A = u8g2_font_get_word(font, 17);
 160:..\..\u8g2\csrc/u8g2_font.c ****   font_info->start_pos_lower_a = u8g2_font_get_word(font, 19); 
 161:..\..\u8g2\csrc/u8g2_font.c ****   
 162:..\..\u8g2\csrc/u8g2_font.c ****   /* offset 21 */
 163:..\..\u8g2\csrc/u8g2_font.c **** #ifdef U8G2_WITH_UNICODE
 164:..\..\u8g2\csrc/u8g2_font.c ****   font_info->start_pos_unicode = u8g2_font_get_word(font, 21); 
 165:..\..\u8g2\csrc/u8g2_font.c **** #endif
 166:..\..\u8g2\csrc/u8g2_font.c **** }
 167:..\..\u8g2\csrc/u8g2_font.c **** 
ARM GAS  C:\Users\gjl\AppData\Local\Temp\ccg70AS9.s 			page 5


 168:..\..\u8g2\csrc/u8g2_font.c **** 
 169:..\..\u8g2\csrc/u8g2_font.c **** /* calculate the overall length of the font, only used to create the picture for the google wiki */
 170:..\..\u8g2\csrc/u8g2_font.c **** size_t u8g2_GetFontSize(const uint8_t *font_arg)
 171:..\..\u8g2\csrc/u8g2_font.c **** {
 172:..\..\u8g2\csrc/u8g2_font.c ****   uint16_t e;
 173:..\..\u8g2\csrc/u8g2_font.c ****   const uint8_t *font = font_arg;
 174:..\..\u8g2\csrc/u8g2_font.c ****   font += U8G2_FONT_DATA_STRUCT_SIZE;
 175:..\..\u8g2\csrc/u8g2_font.c ****   
 176:..\..\u8g2\csrc/u8g2_font.c ****   for(;;)
 177:..\..\u8g2\csrc/u8g2_font.c ****   {
 178:..\..\u8g2\csrc/u8g2_font.c ****     if ( u8x8_pgm_read( font + 1 ) == 0 )
 179:..\..\u8g2\csrc/u8g2_font.c ****       break;
 180:..\..\u8g2\csrc/u8g2_font.c ****     font += u8x8_pgm_read( font + 1 );
 181:..\..\u8g2\csrc/u8g2_font.c ****   }
 182:..\..\u8g2\csrc/u8g2_font.c ****   
 183:..\..\u8g2\csrc/u8g2_font.c ****   /* continue with unicode section */
 184:..\..\u8g2\csrc/u8g2_font.c ****   font += 2;
 185:..\..\u8g2\csrc/u8g2_font.c ****   
 186:..\..\u8g2\csrc/u8g2_font.c ****   for(;;)
 187:..\..\u8g2\csrc/u8g2_font.c ****   {
 188:..\..\u8g2\csrc/u8g2_font.c ****     e = u8x8_pgm_read( font );
 189:..\..\u8g2\csrc/u8g2_font.c ****     e <<= 8;
 190:..\..\u8g2\csrc/u8g2_font.c ****     e |= u8x8_pgm_read( font + 1 );
 191:..\..\u8g2\csrc/u8g2_font.c ****     if ( e == 0 )
 192:..\..\u8g2\csrc/u8g2_font.c ****       break;
 193:..\..\u8g2\csrc/u8g2_font.c ****     font += u8x8_pgm_read( font + 2 );    
 194:..\..\u8g2\csrc/u8g2_font.c ****   }
 195:..\..\u8g2\csrc/u8g2_font.c ****   
 196:..\..\u8g2\csrc/u8g2_font.c ****   return (font - font_arg) + 2;
 197:..\..\u8g2\csrc/u8g2_font.c **** }
 198:..\..\u8g2\csrc/u8g2_font.c **** 
 199:..\..\u8g2\csrc/u8g2_font.c **** /*========================================================================*/
 200:..\..\u8g2\csrc/u8g2_font.c **** /* u8g2 interface, font access */
 201:..\..\u8g2\csrc/u8g2_font.c **** 
 202:..\..\u8g2\csrc/u8g2_font.c **** uint8_t u8g2_GetFontBBXWidth(u8g2_t *u8g2)
 203:..\..\u8g2\csrc/u8g2_font.c **** {
 204:..\..\u8g2\csrc/u8g2_font.c ****   return u8g2->font_info.max_char_width;		/* new font info structure */
 205:..\..\u8g2\csrc/u8g2_font.c **** }
 206:..\..\u8g2\csrc/u8g2_font.c **** 
 207:..\..\u8g2\csrc/u8g2_font.c **** uint8_t u8g2_GetFontBBXHeight(u8g2_t *u8g2)
 208:..\..\u8g2\csrc/u8g2_font.c **** {
 209:..\..\u8g2\csrc/u8g2_font.c ****   return u8g2->font_info.max_char_height;		/* new font info structure */
 210:..\..\u8g2\csrc/u8g2_font.c **** }
 211:..\..\u8g2\csrc/u8g2_font.c **** 
 212:..\..\u8g2\csrc/u8g2_font.c **** int8_t u8g_GetFontBBXOffX(u8g2_t *u8g2) U8G2_NOINLINE;
 213:..\..\u8g2\csrc/u8g2_font.c **** int8_t u8g_GetFontBBXOffX(u8g2_t *u8g2)
 214:..\..\u8g2\csrc/u8g2_font.c **** {
 215:..\..\u8g2\csrc/u8g2_font.c ****   return u8g2->font_info.x_offset;		/* new font info structure */
 216:..\..\u8g2\csrc/u8g2_font.c **** }
 217:..\..\u8g2\csrc/u8g2_font.c **** 
 218:..\..\u8g2\csrc/u8g2_font.c **** int8_t u8g2_GetFontBBXOffY(u8g2_t *u8g2) U8G2_NOINLINE;
 219:..\..\u8g2\csrc/u8g2_font.c **** int8_t u8g2_GetFontBBXOffY(u8g2_t *u8g2)
 220:..\..\u8g2\csrc/u8g2_font.c **** {
 221:..\..\u8g2\csrc/u8g2_font.c ****   return u8g2->font_info.y_offset;		/* new font info structure */
 222:..\..\u8g2\csrc/u8g2_font.c **** }
 223:..\..\u8g2\csrc/u8g2_font.c **** 
 224:..\..\u8g2\csrc/u8g2_font.c **** uint8_t u8g2_GetFontCapitalAHeight(u8g2_t *u8g2) U8G2_NOINLINE; 
ARM GAS  C:\Users\gjl\AppData\Local\Temp\ccg70AS9.s 			page 6


 225:..\..\u8g2\csrc/u8g2_font.c **** uint8_t u8g2_GetFontCapitalAHeight(u8g2_t *u8g2)
 226:..\..\u8g2\csrc/u8g2_font.c **** {
 227:..\..\u8g2\csrc/u8g2_font.c ****   return u8g2->font_info.ascent_A;		/* new font info structure */
 228:..\..\u8g2\csrc/u8g2_font.c **** }
 229:..\..\u8g2\csrc/u8g2_font.c **** 
 230:..\..\u8g2\csrc/u8g2_font.c **** /*========================================================================*/
 231:..\..\u8g2\csrc/u8g2_font.c **** /* glyph handling */
 232:..\..\u8g2\csrc/u8g2_font.c **** 
 233:..\..\u8g2\csrc/u8g2_font.c **** /* optimized */
 234:..\..\u8g2\csrc/u8g2_font.c **** uint8_t u8g2_font_decode_get_unsigned_bits(u8g2_font_decode_t *f, uint8_t cnt) 
 235:..\..\u8g2\csrc/u8g2_font.c **** {
 236:..\..\u8g2\csrc/u8g2_font.c ****   uint8_t val;
 237:..\..\u8g2\csrc/u8g2_font.c ****   uint8_t bit_pos = f->decode_bit_pos;
 238:..\..\u8g2\csrc/u8g2_font.c ****   uint8_t bit_pos_plus_cnt;
 239:..\..\u8g2\csrc/u8g2_font.c ****   
 240:..\..\u8g2\csrc/u8g2_font.c ****   //val = *(f->decode_ptr);
 241:..\..\u8g2\csrc/u8g2_font.c ****   val = u8x8_pgm_read( f->decode_ptr );  
 242:..\..\u8g2\csrc/u8g2_font.c ****   
 243:..\..\u8g2\csrc/u8g2_font.c ****   val >>= bit_pos;
 244:..\..\u8g2\csrc/u8g2_font.c ****   bit_pos_plus_cnt = bit_pos;
 245:..\..\u8g2\csrc/u8g2_font.c ****   bit_pos_plus_cnt += cnt;
 246:..\..\u8g2\csrc/u8g2_font.c ****   if ( bit_pos_plus_cnt >= 8 )
 247:..\..\u8g2\csrc/u8g2_font.c ****   {
 248:..\..\u8g2\csrc/u8g2_font.c ****     uint8_t s = 8;
 249:..\..\u8g2\csrc/u8g2_font.c ****     s -= bit_pos;
 250:..\..\u8g2\csrc/u8g2_font.c ****     f->decode_ptr++;
 251:..\..\u8g2\csrc/u8g2_font.c ****     //val |= *(f->decode_ptr) << (8-bit_pos);
 252:..\..\u8g2\csrc/u8g2_font.c ****     val |= u8x8_pgm_read( f->decode_ptr ) << (s);
 253:..\..\u8g2\csrc/u8g2_font.c ****     //bit_pos -= 8;
 254:..\..\u8g2\csrc/u8g2_font.c ****     bit_pos_plus_cnt -= 8;
 255:..\..\u8g2\csrc/u8g2_font.c ****   }
 256:..\..\u8g2\csrc/u8g2_font.c ****   val &= (1U<<cnt)-1;
 257:..\..\u8g2\csrc/u8g2_font.c ****   //bit_pos += cnt;
 258:..\..\u8g2\csrc/u8g2_font.c ****   
 259:..\..\u8g2\csrc/u8g2_font.c ****   f->decode_bit_pos = bit_pos_plus_cnt;
 260:..\..\u8g2\csrc/u8g2_font.c ****   return val;
 261:..\..\u8g2\csrc/u8g2_font.c **** }
 262:..\..\u8g2\csrc/u8g2_font.c **** 
 263:..\..\u8g2\csrc/u8g2_font.c **** 
 264:..\..\u8g2\csrc/u8g2_font.c **** /*
 265:..\..\u8g2\csrc/u8g2_font.c ****     2 bit --> cnt = 2
 266:..\..\u8g2\csrc/u8g2_font.c ****       -2,-1,0. 1
 267:..\..\u8g2\csrc/u8g2_font.c **** 
 268:..\..\u8g2\csrc/u8g2_font.c ****     3 bit --> cnt = 3
 269:..\..\u8g2\csrc/u8g2_font.c ****       -2,-1,0. 1
 270:..\..\u8g2\csrc/u8g2_font.c ****       -4,-3,-2,-1,0,1,2,3
 271:..\..\u8g2\csrc/u8g2_font.c **** 
 272:..\..\u8g2\csrc/u8g2_font.c ****       if ( x < 0 )
 273:..\..\u8g2\csrc/u8g2_font.c **** 	r = bits(x-1)+1;
 274:..\..\u8g2\csrc/u8g2_font.c ****     else
 275:..\..\u8g2\csrc/u8g2_font.c **** 	r = bits(x)+1;
 276:..\..\u8g2\csrc/u8g2_font.c **** 
 277:..\..\u8g2\csrc/u8g2_font.c **** */
 278:..\..\u8g2\csrc/u8g2_font.c **** /* optimized */
 279:..\..\u8g2\csrc/u8g2_font.c **** int8_t u8g2_font_decode_get_signed_bits(u8g2_font_decode_t *f, uint8_t cnt)
 280:..\..\u8g2\csrc/u8g2_font.c **** {
 281:..\..\u8g2\csrc/u8g2_font.c ****   int8_t v, d;
ARM GAS  C:\Users\gjl\AppData\Local\Temp\ccg70AS9.s 			page 7


 282:..\..\u8g2\csrc/u8g2_font.c ****   v = (int8_t)u8g2_font_decode_get_unsigned_bits(f, cnt);
 283:..\..\u8g2\csrc/u8g2_font.c ****   d = 1;
 284:..\..\u8g2\csrc/u8g2_font.c ****   cnt--;
 285:..\..\u8g2\csrc/u8g2_font.c ****   d <<= cnt;
 286:..\..\u8g2\csrc/u8g2_font.c ****   v -= d;
 287:..\..\u8g2\csrc/u8g2_font.c ****   return v;
 288:..\..\u8g2\csrc/u8g2_font.c ****   //return (int8_t)u8g2_font_decode_get_unsigned_bits(f, cnt) - ((1<<cnt)>>1);
 289:..\..\u8g2\csrc/u8g2_font.c **** }
 290:..\..\u8g2\csrc/u8g2_font.c **** 
 291:..\..\u8g2\csrc/u8g2_font.c **** 
 292:..\..\u8g2\csrc/u8g2_font.c **** #ifdef U8G2_WITH_FONT_ROTATION
 293:..\..\u8g2\csrc/u8g2_font.c **** static u8g2_uint_t u8g2_add_vector_y(u8g2_uint_t dy, int8_t x, int8_t y, uint8_t dir) U8G2_NOINLINE
 294:..\..\u8g2\csrc/u8g2_font.c **** static u8g2_uint_t u8g2_add_vector_y(u8g2_uint_t dy, int8_t x, int8_t y, uint8_t dir)
 295:..\..\u8g2\csrc/u8g2_font.c **** {
  61              		.loc 1 295 0
  62              		.cfi_startproc
  63              		@ args = 0, pretend = 0, frame = 0
  64              		@ frame_needed = 0, uses_anonymous_args = 0
  65              	.LVL5:
  66 0000 10B5     		push	{r4, lr}
  67              		.cfi_def_cfa_offset 8
  68              		.cfi_offset 4, -8
  69              		.cfi_offset 14, -4
 296:..\..\u8g2\csrc/u8g2_font.c ****   switch(dir)
 297:..\..\u8g2\csrc/u8g2_font.c ****   {
 298:..\..\u8g2\csrc/u8g2_font.c ****     case 0:
 299:..\..\u8g2\csrc/u8g2_font.c ****       dy += y;
 300:..\..\u8g2\csrc/u8g2_font.c ****       break;
 301:..\..\u8g2\csrc/u8g2_font.c ****     case 1:
 302:..\..\u8g2\csrc/u8g2_font.c ****       dy += x;
  70              		.loc 1 302 0
  71 0002 4418     		adds	r4, r0, r1
  72 0004 E4B2     		uxtb	r4, r4
 296:..\..\u8g2\csrc/u8g2_font.c ****   switch(dir)
  73              		.loc 1 296 0
  74 0006 012B     		cmp	r3, #1
  75 0008 09D0     		beq	.L7
 299:..\..\u8g2\csrc/u8g2_font.c ****       break;
  76              		.loc 1 299 0
  77 000a 8418     		adds	r4, r0, r2
  78 000c E4B2     		uxtb	r4, r4
 296:..\..\u8g2\csrc/u8g2_font.c ****   switch(dir)
  79              		.loc 1 296 0
  80 000e 002B     		cmp	r3, #0
  81 0010 05D0     		beq	.L7
 303:..\..\u8g2\csrc/u8g2_font.c ****       break;
 304:..\..\u8g2\csrc/u8g2_font.c ****     case 2:
 305:..\..\u8g2\csrc/u8g2_font.c ****       dy -= y;
  82              		.loc 1 305 0
  83 0012 821A     		subs	r2, r0, r2
  84              	.LVL6:
  85 0014 D4B2     		uxtb	r4, r2
 296:..\..\u8g2\csrc/u8g2_font.c ****   {
  86              		.loc 1 296 0
  87 0016 022B     		cmp	r3, #2
  88 0018 01D0     		beq	.L7
 306:..\..\u8g2\csrc/u8g2_font.c ****       break;
ARM GAS  C:\Users\gjl\AppData\Local\Temp\ccg70AS9.s 			page 8


 307:..\..\u8g2\csrc/u8g2_font.c ****     default:
 308:..\..\u8g2\csrc/u8g2_font.c ****       dy -= x;
  89              		.loc 1 308 0
  90 001a 401A     		subs	r0, r0, r1
  91              	.LVL7:
  92 001c C4B2     		uxtb	r4, r0
  93              	.LVL8:
  94              	.L7:
 309:..\..\u8g2\csrc/u8g2_font.c ****       break;      
 310:..\..\u8g2\csrc/u8g2_font.c ****   }
 311:..\..\u8g2\csrc/u8g2_font.c ****   return dy;
 312:..\..\u8g2\csrc/u8g2_font.c **** }
  95              		.loc 1 312 0
  96 001e 2000     		movs	r0, r4
  97              		@ sp needed
  98              	.LVL9:
  99 0020 10BD     		pop	{r4, pc}
 100              		.cfi_endproc
 101              	.LFE11:
 102              		.size	u8g2_add_vector_y, .-u8g2_add_vector_y
 103              		.section	.text.u8g2_add_vector_x,"ax",%progbits
 104              		.align	1
 105              		.code	16
 106              		.thumb_func
 107              		.type	u8g2_add_vector_x, %function
 108              	u8g2_add_vector_x:
 109              	.LFB12:
 313:..\..\u8g2\csrc/u8g2_font.c **** 
 314:..\..\u8g2\csrc/u8g2_font.c **** static u8g2_uint_t u8g2_add_vector_x(u8g2_uint_t dx, int8_t x, int8_t y, uint8_t dir) U8G2_NOINLINE
 315:..\..\u8g2\csrc/u8g2_font.c **** static u8g2_uint_t u8g2_add_vector_x(u8g2_uint_t dx, int8_t x, int8_t y, uint8_t dir)
 316:..\..\u8g2\csrc/u8g2_font.c **** {
 110              		.loc 1 316 0
 111              		.cfi_startproc
 112              		@ args = 0, pretend = 0, frame = 0
 113              		@ frame_needed = 0, uses_anonymous_args = 0
 114              	.LVL10:
 115 0000 30B5     		push	{r4, r5, lr}
 116              		.cfi_def_cfa_offset 12
 117              		.cfi_offset 4, -12
 118              		.cfi_offset 5, -8
 119              		.cfi_offset 14, -4
 317:..\..\u8g2\csrc/u8g2_font.c ****   switch(dir)
 318:..\..\u8g2\csrc/u8g2_font.c ****   {
 319:..\..\u8g2\csrc/u8g2_font.c ****     case 0:
 320:..\..\u8g2\csrc/u8g2_font.c ****       dx += x;
 321:..\..\u8g2\csrc/u8g2_font.c ****       break;
 322:..\..\u8g2\csrc/u8g2_font.c ****     case 1:
 323:..\..\u8g2\csrc/u8g2_font.c ****       dx -= y;
 120              		.loc 1 323 0
 121 0002 851A     		subs	r5, r0, r2
 122 0004 ECB2     		uxtb	r4, r5
 317:..\..\u8g2\csrc/u8g2_font.c ****   switch(dir)
 123              		.loc 1 317 0
 124 0006 012B     		cmp	r3, #1
 125 0008 09D0     		beq	.L14
 320:..\..\u8g2\csrc/u8g2_font.c ****       break;
 126              		.loc 1 320 0
ARM GAS  C:\Users\gjl\AppData\Local\Temp\ccg70AS9.s 			page 9


 127 000a 4518     		adds	r5, r0, r1
 128 000c ECB2     		uxtb	r4, r5
 317:..\..\u8g2\csrc/u8g2_font.c ****   switch(dir)
 129              		.loc 1 317 0
 130 000e 002B     		cmp	r3, #0
 131 0010 05D0     		beq	.L14
 324:..\..\u8g2\csrc/u8g2_font.c ****       break;
 325:..\..\u8g2\csrc/u8g2_font.c ****     case 2:
 326:..\..\u8g2\csrc/u8g2_font.c ****       dx -= x;
 132              		.loc 1 326 0
 133 0012 411A     		subs	r1, r0, r1
 134              	.LVL11:
 135 0014 CCB2     		uxtb	r4, r1
 317:..\..\u8g2\csrc/u8g2_font.c ****   {
 136              		.loc 1 317 0
 137 0016 022B     		cmp	r3, #2
 138 0018 01D0     		beq	.L14
 327:..\..\u8g2\csrc/u8g2_font.c ****       break;
 328:..\..\u8g2\csrc/u8g2_font.c ****     default:
 329:..\..\u8g2\csrc/u8g2_font.c ****       dx += y;
 139              		.loc 1 329 0
 140 001a 8218     		adds	r2, r0, r2
 141              	.LVL12:
 142 001c D4B2     		uxtb	r4, r2
 143              	.LVL13:
 144              	.L14:
 330:..\..\u8g2\csrc/u8g2_font.c ****       break;      
 331:..\..\u8g2\csrc/u8g2_font.c ****   }
 332:..\..\u8g2\csrc/u8g2_font.c ****   return dx;
 333:..\..\u8g2\csrc/u8g2_font.c **** }
 145              		.loc 1 333 0
 146 001e 2000     		movs	r0, r4
 147              		@ sp needed
 148              	.LVL14:
 149 0020 30BD     		pop	{r4, r5, pc}
 150              		.cfi_endproc
 151              	.LFE12:
 152              		.size	u8g2_add_vector_x, .-u8g2_add_vector_x
 153              		.section	.text.u8g2_font_calc_vref_font,"ax",%progbits
 154              		.align	1
 155              		.global	u8g2_font_calc_vref_font
 156              		.code	16
 157              		.thumb_func
 158              		.type	u8g2_font_calc_vref_font, %function
 159              	u8g2_font_calc_vref_font:
 160              	.LFB31:
 334:..\..\u8g2\csrc/u8g2_font.c **** #endif
 335:..\..\u8g2\csrc/u8g2_font.c **** 
 336:..\..\u8g2\csrc/u8g2_font.c **** 
 337:..\..\u8g2\csrc/u8g2_font.c **** 
 338:..\..\u8g2\csrc/u8g2_font.c **** /*
 339:..\..\u8g2\csrc/u8g2_font.c ****   Description:
 340:..\..\u8g2\csrc/u8g2_font.c ****     Draw a run-length area of the glyph. "len" can have any size and the line
 341:..\..\u8g2\csrc/u8g2_font.c ****     length has to be wrapped at the glyph border.
 342:..\..\u8g2\csrc/u8g2_font.c ****   Args:
 343:..\..\u8g2\csrc/u8g2_font.c ****     len: 					Length of the line
 344:..\..\u8g2\csrc/u8g2_font.c ****     is_foreground			foreground/background?
ARM GAS  C:\Users\gjl\AppData\Local\Temp\ccg70AS9.s 			page 10


 345:..\..\u8g2\csrc/u8g2_font.c ****     u8g2->font_decode.target_x		X position
 346:..\..\u8g2\csrc/u8g2_font.c ****     u8g2->font_decode.target_y		Y position
 347:..\..\u8g2\csrc/u8g2_font.c ****     u8g2->font_decode.is_transparent	Transparent mode
 348:..\..\u8g2\csrc/u8g2_font.c ****   Return:
 349:..\..\u8g2\csrc/u8g2_font.c ****     -
 350:..\..\u8g2\csrc/u8g2_font.c ****   Calls:
 351:..\..\u8g2\csrc/u8g2_font.c ****     u8g2_Draw90Line()
 352:..\..\u8g2\csrc/u8g2_font.c ****   Called by:
 353:..\..\u8g2\csrc/u8g2_font.c ****     u8g2_font_decode_glyph()
 354:..\..\u8g2\csrc/u8g2_font.c **** */
 355:..\..\u8g2\csrc/u8g2_font.c **** /* optimized */
 356:..\..\u8g2\csrc/u8g2_font.c **** void u8g2_font_decode_len(u8g2_t *u8g2, uint8_t len, uint8_t is_foreground)
 357:..\..\u8g2\csrc/u8g2_font.c **** {
 358:..\..\u8g2\csrc/u8g2_font.c ****   uint8_t cnt;	/* total number of remaining pixels, which have to be drawn */
 359:..\..\u8g2\csrc/u8g2_font.c ****   uint8_t rem; 	/* remaining pixel to the right edge of the glyph */
 360:..\..\u8g2\csrc/u8g2_font.c ****   uint8_t current;	/* number of pixels, which need to be drawn for the draw procedure */
 361:..\..\u8g2\csrc/u8g2_font.c ****     /* current is either equal to cnt or equal to rem */
 362:..\..\u8g2\csrc/u8g2_font.c ****   
 363:..\..\u8g2\csrc/u8g2_font.c ****   /* local coordinates of the glyph */
 364:..\..\u8g2\csrc/u8g2_font.c ****   uint8_t lx,ly;
 365:..\..\u8g2\csrc/u8g2_font.c ****   
 366:..\..\u8g2\csrc/u8g2_font.c ****   /* target position on the screen */
 367:..\..\u8g2\csrc/u8g2_font.c ****   u8g2_uint_t x, y;
 368:..\..\u8g2\csrc/u8g2_font.c ****   
 369:..\..\u8g2\csrc/u8g2_font.c ****   u8g2_font_decode_t *decode = &(u8g2->font_decode);
 370:..\..\u8g2\csrc/u8g2_font.c ****   
 371:..\..\u8g2\csrc/u8g2_font.c ****   cnt = len;
 372:..\..\u8g2\csrc/u8g2_font.c ****   
 373:..\..\u8g2\csrc/u8g2_font.c ****   /* get the local position */
 374:..\..\u8g2\csrc/u8g2_font.c ****   lx = decode->x;
 375:..\..\u8g2\csrc/u8g2_font.c ****   ly = decode->y;
 376:..\..\u8g2\csrc/u8g2_font.c ****   
 377:..\..\u8g2\csrc/u8g2_font.c ****   for(;;)
 378:..\..\u8g2\csrc/u8g2_font.c ****   {
 379:..\..\u8g2\csrc/u8g2_font.c ****     /* calculate the number of pixel to the right edge of the glyph */
 380:..\..\u8g2\csrc/u8g2_font.c ****     rem = decode->glyph_width;
 381:..\..\u8g2\csrc/u8g2_font.c ****     rem -= lx;
 382:..\..\u8g2\csrc/u8g2_font.c ****     
 383:..\..\u8g2\csrc/u8g2_font.c ****     /* calculate how many pixel to draw. This is either to the right edge */
 384:..\..\u8g2\csrc/u8g2_font.c ****     /* or lesser, if not enough pixel are left */
 385:..\..\u8g2\csrc/u8g2_font.c ****     current = rem;
 386:..\..\u8g2\csrc/u8g2_font.c ****     if ( cnt < rem )
 387:..\..\u8g2\csrc/u8g2_font.c ****       current = cnt;
 388:..\..\u8g2\csrc/u8g2_font.c ****     
 389:..\..\u8g2\csrc/u8g2_font.c ****     
 390:..\..\u8g2\csrc/u8g2_font.c ****     /* now draw the line, but apply the rotation around the glyph target position */
 391:..\..\u8g2\csrc/u8g2_font.c ****     //u8g2_font_decode_draw_pixel(u8g2, lx,ly,current, is_foreground);
 392:..\..\u8g2\csrc/u8g2_font.c **** 
 393:..\..\u8g2\csrc/u8g2_font.c ****     /* get target position */
 394:..\..\u8g2\csrc/u8g2_font.c ****     x = decode->target_x;
 395:..\..\u8g2\csrc/u8g2_font.c ****     y = decode->target_y;
 396:..\..\u8g2\csrc/u8g2_font.c **** 
 397:..\..\u8g2\csrc/u8g2_font.c ****     /* apply rotation */
 398:..\..\u8g2\csrc/u8g2_font.c **** #ifdef U8G2_WITH_FONT_ROTATION
 399:..\..\u8g2\csrc/u8g2_font.c ****     x = u8g2_add_vector_x(x, lx, ly, decode->dir);
 400:..\..\u8g2\csrc/u8g2_font.c ****     y = u8g2_add_vector_y(y, lx, ly, decode->dir);
 401:..\..\u8g2\csrc/u8g2_font.c **** #else
ARM GAS  C:\Users\gjl\AppData\Local\Temp\ccg70AS9.s 			page 11


 402:..\..\u8g2\csrc/u8g2_font.c ****     x += lx;
 403:..\..\u8g2\csrc/u8g2_font.c ****     y += ly;
 404:..\..\u8g2\csrc/u8g2_font.c **** #endif
 405:..\..\u8g2\csrc/u8g2_font.c ****     
 406:..\..\u8g2\csrc/u8g2_font.c ****     /* draw foreground and background (if required) */
 407:..\..\u8g2\csrc/u8g2_font.c ****     if ( is_foreground )
 408:..\..\u8g2\csrc/u8g2_font.c ****     {
 409:..\..\u8g2\csrc/u8g2_font.c ****       u8g2->draw_color = decode->fg_color;			/* draw_color will be restored later */
 410:..\..\u8g2\csrc/u8g2_font.c ****       u8g2_DrawHVLine(u8g2, 
 411:..\..\u8g2\csrc/u8g2_font.c **** 	x, 
 412:..\..\u8g2\csrc/u8g2_font.c **** 	y, 
 413:..\..\u8g2\csrc/u8g2_font.c **** 	current, 
 414:..\..\u8g2\csrc/u8g2_font.c **** #ifdef U8G2_WITH_FONT_ROTATION
 415:..\..\u8g2\csrc/u8g2_font.c **** 	/* dir */ decode->dir
 416:..\..\u8g2\csrc/u8g2_font.c **** #else
 417:..\..\u8g2\csrc/u8g2_font.c **** 	0
 418:..\..\u8g2\csrc/u8g2_font.c **** #endif
 419:..\..\u8g2\csrc/u8g2_font.c ****       );
 420:..\..\u8g2\csrc/u8g2_font.c ****     }
 421:..\..\u8g2\csrc/u8g2_font.c ****     else if ( decode->is_transparent == 0 )    
 422:..\..\u8g2\csrc/u8g2_font.c ****     {
 423:..\..\u8g2\csrc/u8g2_font.c ****       u8g2->draw_color = decode->bg_color;			/* draw_color will be restored later */
 424:..\..\u8g2\csrc/u8g2_font.c ****       u8g2_DrawHVLine(u8g2, 
 425:..\..\u8g2\csrc/u8g2_font.c **** 	x, 
 426:..\..\u8g2\csrc/u8g2_font.c **** 	y, 
 427:..\..\u8g2\csrc/u8g2_font.c **** 	current, 
 428:..\..\u8g2\csrc/u8g2_font.c **** #ifdef U8G2_WITH_FONT_ROTATION
 429:..\..\u8g2\csrc/u8g2_font.c **** 	/* dir */ decode->dir
 430:..\..\u8g2\csrc/u8g2_font.c **** #else
 431:..\..\u8g2\csrc/u8g2_font.c **** 	0
 432:..\..\u8g2\csrc/u8g2_font.c **** #endif
 433:..\..\u8g2\csrc/u8g2_font.c ****       );   
 434:..\..\u8g2\csrc/u8g2_font.c ****     }
 435:..\..\u8g2\csrc/u8g2_font.c ****     
 436:..\..\u8g2\csrc/u8g2_font.c ****     /* check, whether the end of the run length code has been reached */
 437:..\..\u8g2\csrc/u8g2_font.c ****     if ( cnt < rem )
 438:..\..\u8g2\csrc/u8g2_font.c ****       break;
 439:..\..\u8g2\csrc/u8g2_font.c ****     cnt -= rem;
 440:..\..\u8g2\csrc/u8g2_font.c ****     lx = 0;
 441:..\..\u8g2\csrc/u8g2_font.c ****     ly++;
 442:..\..\u8g2\csrc/u8g2_font.c ****   }
 443:..\..\u8g2\csrc/u8g2_font.c ****   lx += cnt;
 444:..\..\u8g2\csrc/u8g2_font.c ****   
 445:..\..\u8g2\csrc/u8g2_font.c ****   decode->x = lx;
 446:..\..\u8g2\csrc/u8g2_font.c ****   decode->y = ly;
 447:..\..\u8g2\csrc/u8g2_font.c ****   
 448:..\..\u8g2\csrc/u8g2_font.c **** }
 449:..\..\u8g2\csrc/u8g2_font.c **** 
 450:..\..\u8g2\csrc/u8g2_font.c **** static void u8g2_font_setup_decode(u8g2_t *u8g2, const uint8_t *glyph_data)
 451:..\..\u8g2\csrc/u8g2_font.c **** {
 452:..\..\u8g2\csrc/u8g2_font.c ****   u8g2_font_decode_t *decode = &(u8g2->font_decode);
 453:..\..\u8g2\csrc/u8g2_font.c ****   decode->decode_ptr = glyph_data;
 454:..\..\u8g2\csrc/u8g2_font.c ****   decode->decode_bit_pos = 0;
 455:..\..\u8g2\csrc/u8g2_font.c ****   
 456:..\..\u8g2\csrc/u8g2_font.c ****   /* 8 Nov 2015, this is already done in the glyph data search procedure */
 457:..\..\u8g2\csrc/u8g2_font.c ****   /*
 458:..\..\u8g2\csrc/u8g2_font.c ****   decode->decode_ptr += 1;
ARM GAS  C:\Users\gjl\AppData\Local\Temp\ccg70AS9.s 			page 12


 459:..\..\u8g2\csrc/u8g2_font.c ****   decode->decode_ptr += 1;
 460:..\..\u8g2\csrc/u8g2_font.c ****   */
 461:..\..\u8g2\csrc/u8g2_font.c ****   
 462:..\..\u8g2\csrc/u8g2_font.c ****   decode->glyph_width = u8g2_font_decode_get_unsigned_bits(decode, u8g2->font_info.bits_per_char_wi
 463:..\..\u8g2\csrc/u8g2_font.c ****   decode->glyph_height = u8g2_font_decode_get_unsigned_bits(decode,u8g2->font_info.bits_per_char_he
 464:..\..\u8g2\csrc/u8g2_font.c ****   
 465:..\..\u8g2\csrc/u8g2_font.c ****   decode->fg_color = u8g2->draw_color;
 466:..\..\u8g2\csrc/u8g2_font.c ****   decode->bg_color = (decode->fg_color == 0 ? 1 : 0);
 467:..\..\u8g2\csrc/u8g2_font.c **** }
 468:..\..\u8g2\csrc/u8g2_font.c **** 
 469:..\..\u8g2\csrc/u8g2_font.c **** 
 470:..\..\u8g2\csrc/u8g2_font.c **** /*
 471:..\..\u8g2\csrc/u8g2_font.c ****   Description:
 472:..\..\u8g2\csrc/u8g2_font.c ****     Decode and draw a glyph.
 473:..\..\u8g2\csrc/u8g2_font.c ****   Args:
 474:..\..\u8g2\csrc/u8g2_font.c ****     glyph_data: 					Pointer to the compressed glyph data of the font
 475:..\..\u8g2\csrc/u8g2_font.c ****     u8g2->font_decode.target_x		X position
 476:..\..\u8g2\csrc/u8g2_font.c ****     u8g2->font_decode.target_y		Y position
 477:..\..\u8g2\csrc/u8g2_font.c ****     u8g2->font_decode.is_transparent	Transparent mode
 478:..\..\u8g2\csrc/u8g2_font.c ****   Return:
 479:..\..\u8g2\csrc/u8g2_font.c ****     Width (delta x advance) of the glyph.
 480:..\..\u8g2\csrc/u8g2_font.c ****   Calls:
 481:..\..\u8g2\csrc/u8g2_font.c ****     u8g2_font_decode_len()
 482:..\..\u8g2\csrc/u8g2_font.c **** */
 483:..\..\u8g2\csrc/u8g2_font.c **** /* optimized */
 484:..\..\u8g2\csrc/u8g2_font.c **** int8_t u8g2_font_decode_glyph(u8g2_t *u8g2, const uint8_t *glyph_data)
 485:..\..\u8g2\csrc/u8g2_font.c **** {
 486:..\..\u8g2\csrc/u8g2_font.c ****   uint8_t a, b;
 487:..\..\u8g2\csrc/u8g2_font.c ****   int8_t x, y;
 488:..\..\u8g2\csrc/u8g2_font.c ****   int8_t d;
 489:..\..\u8g2\csrc/u8g2_font.c ****   int8_t h;
 490:..\..\u8g2\csrc/u8g2_font.c ****   u8g2_font_decode_t *decode = &(u8g2->font_decode);
 491:..\..\u8g2\csrc/u8g2_font.c ****     
 492:..\..\u8g2\csrc/u8g2_font.c ****   u8g2_font_setup_decode(u8g2, glyph_data);
 493:..\..\u8g2\csrc/u8g2_font.c ****   h = u8g2->font_decode.glyph_height;
 494:..\..\u8g2\csrc/u8g2_font.c ****   
 495:..\..\u8g2\csrc/u8g2_font.c ****   x = u8g2_font_decode_get_signed_bits(decode, u8g2->font_info.bits_per_char_x);
 496:..\..\u8g2\csrc/u8g2_font.c ****   y = u8g2_font_decode_get_signed_bits(decode, u8g2->font_info.bits_per_char_y);
 497:..\..\u8g2\csrc/u8g2_font.c ****   d = u8g2_font_decode_get_signed_bits(decode, u8g2->font_info.bits_per_delta_x);
 498:..\..\u8g2\csrc/u8g2_font.c ****   
 499:..\..\u8g2\csrc/u8g2_font.c ****   if ( decode->glyph_width > 0 )
 500:..\..\u8g2\csrc/u8g2_font.c ****   {
 501:..\..\u8g2\csrc/u8g2_font.c **** #ifdef U8G2_WITH_FONT_ROTATION
 502:..\..\u8g2\csrc/u8g2_font.c ****     decode->target_x = u8g2_add_vector_x(decode->target_x, x, -(h+y), decode->dir);
 503:..\..\u8g2\csrc/u8g2_font.c ****     decode->target_y = u8g2_add_vector_y(decode->target_y, x, -(h+y), decode->dir);
 504:..\..\u8g2\csrc/u8g2_font.c **** #else
 505:..\..\u8g2\csrc/u8g2_font.c ****     decode->target_x += x;
 506:..\..\u8g2\csrc/u8g2_font.c ****     decode->target_y -= h+y;
 507:..\..\u8g2\csrc/u8g2_font.c **** #endif
 508:..\..\u8g2\csrc/u8g2_font.c ****     //u8g2_add_vector(&(decode->target_x), &(decode->target_y), x, -(h+y), decode->dir);
 509:..\..\u8g2\csrc/u8g2_font.c **** 
 510:..\..\u8g2\csrc/u8g2_font.c **** #ifdef U8G2_WITH_INTERSECTION
 511:..\..\u8g2\csrc/u8g2_font.c ****     {
 512:..\..\u8g2\csrc/u8g2_font.c ****       u8g2_uint_t x0, x1, y0, y1;
 513:..\..\u8g2\csrc/u8g2_font.c ****       x0 = decode->target_x;
 514:..\..\u8g2\csrc/u8g2_font.c ****       y0 = decode->target_y;
 515:..\..\u8g2\csrc/u8g2_font.c ****       x1 = x0;
ARM GAS  C:\Users\gjl\AppData\Local\Temp\ccg70AS9.s 			page 13


 516:..\..\u8g2\csrc/u8g2_font.c ****       y1 = y0;
 517:..\..\u8g2\csrc/u8g2_font.c ****       
 518:..\..\u8g2\csrc/u8g2_font.c **** #ifdef U8G2_WITH_FONT_ROTATION
 519:..\..\u8g2\csrc/u8g2_font.c ****       switch(decode->dir)
 520:..\..\u8g2\csrc/u8g2_font.c ****       {
 521:..\..\u8g2\csrc/u8g2_font.c **** 	case 0:
 522:..\..\u8g2\csrc/u8g2_font.c **** 	    x1 += decode->glyph_width;
 523:..\..\u8g2\csrc/u8g2_font.c **** 	    y1 += h;
 524:..\..\u8g2\csrc/u8g2_font.c **** 	    break;
 525:..\..\u8g2\csrc/u8g2_font.c **** 	case 1:
 526:..\..\u8g2\csrc/u8g2_font.c **** 	    x0 -= h;
 527:..\..\u8g2\csrc/u8g2_font.c **** 	    x0++;	/* shift down, because of assymetric boundaries for the interseciton test */
 528:..\..\u8g2\csrc/u8g2_font.c **** 	    x1++;
 529:..\..\u8g2\csrc/u8g2_font.c **** 	    y1 += decode->glyph_width;
 530:..\..\u8g2\csrc/u8g2_font.c **** 	    break;
 531:..\..\u8g2\csrc/u8g2_font.c **** 	case 2:
 532:..\..\u8g2\csrc/u8g2_font.c **** 	    x0 -= decode->glyph_width;
 533:..\..\u8g2\csrc/u8g2_font.c **** 	    x0++;	/* shift down, because of assymetric boundaries for the interseciton test */
 534:..\..\u8g2\csrc/u8g2_font.c **** 	    x1++;
 535:..\..\u8g2\csrc/u8g2_font.c **** 	    y0 -= h;
 536:..\..\u8g2\csrc/u8g2_font.c **** 	    y0++;	/* shift down, because of assymetric boundaries for the interseciton test */
 537:..\..\u8g2\csrc/u8g2_font.c **** 	    y1++;
 538:..\..\u8g2\csrc/u8g2_font.c **** 	    break;	  
 539:..\..\u8g2\csrc/u8g2_font.c **** 	case 3:
 540:..\..\u8g2\csrc/u8g2_font.c **** 	    x1 += h;
 541:..\..\u8g2\csrc/u8g2_font.c **** 	    y0 -= decode->glyph_width;
 542:..\..\u8g2\csrc/u8g2_font.c **** 	    y0++;	/* shift down, because of assymetric boundaries for the interseciton test */
 543:..\..\u8g2\csrc/u8g2_font.c **** 	    y1++;
 544:..\..\u8g2\csrc/u8g2_font.c **** 	    break;	  
 545:..\..\u8g2\csrc/u8g2_font.c ****       }
 546:..\..\u8g2\csrc/u8g2_font.c **** #else /* U8G2_WITH_FONT_ROTATION */
 547:..\..\u8g2\csrc/u8g2_font.c ****       x1 += decode->glyph_width;
 548:..\..\u8g2\csrc/u8g2_font.c ****       y1 += h;      
 549:..\..\u8g2\csrc/u8g2_font.c **** #endif
 550:..\..\u8g2\csrc/u8g2_font.c ****       
 551:..\..\u8g2\csrc/u8g2_font.c ****       if ( u8g2_IsIntersection(u8g2, x0, y0, x1, y1) == 0 ) 
 552:..\..\u8g2\csrc/u8g2_font.c **** 	return d;
 553:..\..\u8g2\csrc/u8g2_font.c ****     }
 554:..\..\u8g2\csrc/u8g2_font.c **** #endif /* U8G2_WITH_INTERSECTION */
 555:..\..\u8g2\csrc/u8g2_font.c ****    
 556:..\..\u8g2\csrc/u8g2_font.c ****     /* reset local x/y position */
 557:..\..\u8g2\csrc/u8g2_font.c ****     decode->x = 0;
 558:..\..\u8g2\csrc/u8g2_font.c ****     decode->y = 0;
 559:..\..\u8g2\csrc/u8g2_font.c ****     
 560:..\..\u8g2\csrc/u8g2_font.c ****     /* decode glyph */
 561:..\..\u8g2\csrc/u8g2_font.c ****     for(;;)
 562:..\..\u8g2\csrc/u8g2_font.c ****     {
 563:..\..\u8g2\csrc/u8g2_font.c ****       a = u8g2_font_decode_get_unsigned_bits(decode, u8g2->font_info.bits_per_0);
 564:..\..\u8g2\csrc/u8g2_font.c ****       b = u8g2_font_decode_get_unsigned_bits(decode, u8g2->font_info.bits_per_1);
 565:..\..\u8g2\csrc/u8g2_font.c ****       do
 566:..\..\u8g2\csrc/u8g2_font.c ****       {
 567:..\..\u8g2\csrc/u8g2_font.c **** 	u8g2_font_decode_len(u8g2, a, 0);
 568:..\..\u8g2\csrc/u8g2_font.c **** 	u8g2_font_decode_len(u8g2, b, 1);
 569:..\..\u8g2\csrc/u8g2_font.c ****       } while( u8g2_font_decode_get_unsigned_bits(decode, 1) != 0 );
 570:..\..\u8g2\csrc/u8g2_font.c **** 
 571:..\..\u8g2\csrc/u8g2_font.c ****       if ( decode->y >= h )
 572:..\..\u8g2\csrc/u8g2_font.c **** 	break;
ARM GAS  C:\Users\gjl\AppData\Local\Temp\ccg70AS9.s 			page 14


 573:..\..\u8g2\csrc/u8g2_font.c ****     }
 574:..\..\u8g2\csrc/u8g2_font.c ****     
 575:..\..\u8g2\csrc/u8g2_font.c ****     /* restore the u8g2 draw color, because this is modified by the decode algo */
 576:..\..\u8g2\csrc/u8g2_font.c ****     u8g2->draw_color = decode->fg_color;
 577:..\..\u8g2\csrc/u8g2_font.c ****   }
 578:..\..\u8g2\csrc/u8g2_font.c ****   return d;
 579:..\..\u8g2\csrc/u8g2_font.c **** }
 580:..\..\u8g2\csrc/u8g2_font.c **** 
 581:..\..\u8g2\csrc/u8g2_font.c **** /*
 582:..\..\u8g2\csrc/u8g2_font.c ****   Description:
 583:..\..\u8g2\csrc/u8g2_font.c ****     Find the starting point of the glyph data.
 584:..\..\u8g2\csrc/u8g2_font.c ****   Args:
 585:..\..\u8g2\csrc/u8g2_font.c ****     encoding: Encoding (ASCII or Unicode) of the glyph
 586:..\..\u8g2\csrc/u8g2_font.c ****   Return:
 587:..\..\u8g2\csrc/u8g2_font.c ****     Address of the glyph data or NULL, if the encoding is not avialable in the font.
 588:..\..\u8g2\csrc/u8g2_font.c **** */
 589:..\..\u8g2\csrc/u8g2_font.c **** const uint8_t *u8g2_font_get_glyph_data(u8g2_t *u8g2, uint16_t encoding)
 590:..\..\u8g2\csrc/u8g2_font.c **** {
 591:..\..\u8g2\csrc/u8g2_font.c ****   const uint8_t *font = u8g2->font;
 592:..\..\u8g2\csrc/u8g2_font.c ****   font += U8G2_FONT_DATA_STRUCT_SIZE;
 593:..\..\u8g2\csrc/u8g2_font.c **** 
 594:..\..\u8g2\csrc/u8g2_font.c ****   
 595:..\..\u8g2\csrc/u8g2_font.c ****   if ( encoding <= 255 )
 596:..\..\u8g2\csrc/u8g2_font.c ****   {
 597:..\..\u8g2\csrc/u8g2_font.c ****     if ( encoding >= 'a' )
 598:..\..\u8g2\csrc/u8g2_font.c ****     {
 599:..\..\u8g2\csrc/u8g2_font.c ****       font += u8g2->font_info.start_pos_lower_a;
 600:..\..\u8g2\csrc/u8g2_font.c ****     }
 601:..\..\u8g2\csrc/u8g2_font.c ****     else if ( encoding >= 'A' )
 602:..\..\u8g2\csrc/u8g2_font.c ****     {
 603:..\..\u8g2\csrc/u8g2_font.c ****       font += u8g2->font_info.start_pos_upper_A;
 604:..\..\u8g2\csrc/u8g2_font.c ****     }
 605:..\..\u8g2\csrc/u8g2_font.c ****     
 606:..\..\u8g2\csrc/u8g2_font.c ****     for(;;)
 607:..\..\u8g2\csrc/u8g2_font.c ****     {
 608:..\..\u8g2\csrc/u8g2_font.c ****       if ( u8x8_pgm_read( font + 1 ) == 0 )
 609:..\..\u8g2\csrc/u8g2_font.c **** 	break;
 610:..\..\u8g2\csrc/u8g2_font.c ****       if ( u8x8_pgm_read( font ) == encoding )
 611:..\..\u8g2\csrc/u8g2_font.c ****       {
 612:..\..\u8g2\csrc/u8g2_font.c **** 	return font+2;	/* skip encoding and glyph size */
 613:..\..\u8g2\csrc/u8g2_font.c ****       }
 614:..\..\u8g2\csrc/u8g2_font.c ****       font += u8x8_pgm_read( font + 1 );
 615:..\..\u8g2\csrc/u8g2_font.c ****     }
 616:..\..\u8g2\csrc/u8g2_font.c ****   }
 617:..\..\u8g2\csrc/u8g2_font.c **** #ifdef U8G2_WITH_UNICODE
 618:..\..\u8g2\csrc/u8g2_font.c ****   else
 619:..\..\u8g2\csrc/u8g2_font.c ****   {
 620:..\..\u8g2\csrc/u8g2_font.c ****     uint16_t e;
 621:..\..\u8g2\csrc/u8g2_font.c ****     font += u8g2->font_info.start_pos_unicode;
 622:..\..\u8g2\csrc/u8g2_font.c ****     for(;;)
 623:..\..\u8g2\csrc/u8g2_font.c ****     {
 624:..\..\u8g2\csrc/u8g2_font.c ****       e = u8x8_pgm_read( font );
 625:..\..\u8g2\csrc/u8g2_font.c ****       e <<= 8;
 626:..\..\u8g2\csrc/u8g2_font.c ****       e |= u8x8_pgm_read( font + 1 );
 627:..\..\u8g2\csrc/u8g2_font.c ****   
 628:..\..\u8g2\csrc/u8g2_font.c ****       if ( e == 0 )
 629:..\..\u8g2\csrc/u8g2_font.c **** 	break;
ARM GAS  C:\Users\gjl\AppData\Local\Temp\ccg70AS9.s 			page 15


 630:..\..\u8g2\csrc/u8g2_font.c ****   
 631:..\..\u8g2\csrc/u8g2_font.c ****       if ( e == encoding )
 632:..\..\u8g2\csrc/u8g2_font.c ****       {
 633:..\..\u8g2\csrc/u8g2_font.c **** 	return font+3;	/* skip encoding and glyph size */
 634:..\..\u8g2\csrc/u8g2_font.c ****       }
 635:..\..\u8g2\csrc/u8g2_font.c ****       font += u8x8_pgm_read( font + 2 );
 636:..\..\u8g2\csrc/u8g2_font.c ****     }  
 637:..\..\u8g2\csrc/u8g2_font.c ****   }
 638:..\..\u8g2\csrc/u8g2_font.c **** #endif
 639:..\..\u8g2\csrc/u8g2_font.c ****   
 640:..\..\u8g2\csrc/u8g2_font.c ****   return NULL;
 641:..\..\u8g2\csrc/u8g2_font.c **** }
 642:..\..\u8g2\csrc/u8g2_font.c **** 
 643:..\..\u8g2\csrc/u8g2_font.c **** static u8g2_uint_t u8g2_font_draw_glyph(u8g2_t *u8g2, u8g2_uint_t x, u8g2_uint_t y, uint16_t encodi
 644:..\..\u8g2\csrc/u8g2_font.c **** {
 645:..\..\u8g2\csrc/u8g2_font.c ****   u8g2_uint_t dx = 0;
 646:..\..\u8g2\csrc/u8g2_font.c ****   u8g2->font_decode.target_x = x;
 647:..\..\u8g2\csrc/u8g2_font.c ****   u8g2->font_decode.target_y = y;
 648:..\..\u8g2\csrc/u8g2_font.c ****   //u8g2->font_decode.is_transparent = is_transparent; this is already set
 649:..\..\u8g2\csrc/u8g2_font.c ****   //u8g2->font_decode.dir = dir;
 650:..\..\u8g2\csrc/u8g2_font.c ****   const uint8_t *glyph_data = u8g2_font_get_glyph_data(u8g2, encoding);
 651:..\..\u8g2\csrc/u8g2_font.c ****   if ( glyph_data != NULL )
 652:..\..\u8g2\csrc/u8g2_font.c ****   {
 653:..\..\u8g2\csrc/u8g2_font.c ****     dx = u8g2_font_decode_glyph(u8g2, glyph_data);
 654:..\..\u8g2\csrc/u8g2_font.c ****   }
 655:..\..\u8g2\csrc/u8g2_font.c ****   return dx;
 656:..\..\u8g2\csrc/u8g2_font.c **** }
 657:..\..\u8g2\csrc/u8g2_font.c **** 
 658:..\..\u8g2\csrc/u8g2_font.c **** 
 659:..\..\u8g2\csrc/u8g2_font.c **** 
 660:..\..\u8g2\csrc/u8g2_font.c **** uint8_t u8g2_IsGlyph(u8g2_t *u8g2, uint16_t requested_encoding)
 661:..\..\u8g2\csrc/u8g2_font.c **** {
 662:..\..\u8g2\csrc/u8g2_font.c ****   /* updated to new code */
 663:..\..\u8g2\csrc/u8g2_font.c ****   if ( u8g2_font_get_glyph_data(u8g2, requested_encoding) != NULL )
 664:..\..\u8g2\csrc/u8g2_font.c ****     return 1;
 665:..\..\u8g2\csrc/u8g2_font.c ****   return 0;
 666:..\..\u8g2\csrc/u8g2_font.c **** }
 667:..\..\u8g2\csrc/u8g2_font.c **** 
 668:..\..\u8g2\csrc/u8g2_font.c **** /* side effect: updates u8g2->font_decode and u8g2->glyph_x_offset */
 669:..\..\u8g2\csrc/u8g2_font.c **** int8_t u8g2_GetGlyphWidth(u8g2_t *u8g2, uint16_t requested_encoding)
 670:..\..\u8g2\csrc/u8g2_font.c **** {
 671:..\..\u8g2\csrc/u8g2_font.c ****   const uint8_t *glyph_data = u8g2_font_get_glyph_data(u8g2, requested_encoding);
 672:..\..\u8g2\csrc/u8g2_font.c ****   if ( glyph_data == NULL )
 673:..\..\u8g2\csrc/u8g2_font.c ****     return 0; 
 674:..\..\u8g2\csrc/u8g2_font.c ****   
 675:..\..\u8g2\csrc/u8g2_font.c ****   u8g2_font_setup_decode(u8g2, glyph_data);
 676:..\..\u8g2\csrc/u8g2_font.c ****   u8g2->glyph_x_offset = u8g2_font_decode_get_signed_bits(&(u8g2->font_decode), u8g2->font_info.bit
 677:..\..\u8g2\csrc/u8g2_font.c ****   u8g2_font_decode_get_signed_bits(&(u8g2->font_decode), u8g2->font_info.bits_per_char_y);
 678:..\..\u8g2\csrc/u8g2_font.c ****   
 679:..\..\u8g2\csrc/u8g2_font.c ****   /* glyph width is here: u8g2->font_decode.glyph_width */
 680:..\..\u8g2\csrc/u8g2_font.c **** 
 681:..\..\u8g2\csrc/u8g2_font.c ****   return u8g2_font_decode_get_signed_bits(&(u8g2->font_decode), u8g2->font_info.bits_per_delta_x);
 682:..\..\u8g2\csrc/u8g2_font.c **** }
 683:..\..\u8g2\csrc/u8g2_font.c **** 
 684:..\..\u8g2\csrc/u8g2_font.c **** 
 685:..\..\u8g2\csrc/u8g2_font.c **** /*
 686:..\..\u8g2\csrc/u8g2_font.c ****   set one of:
ARM GAS  C:\Users\gjl\AppData\Local\Temp\ccg70AS9.s 			page 16


 687:..\..\u8g2\csrc/u8g2_font.c ****     U8G2_FONT_MODE_TRANSPARENT
 688:..\..\u8g2\csrc/u8g2_font.c ****     U8G2_FONT_MODE_SOLID
 689:..\..\u8g2\csrc/u8g2_font.c ****     U8G2_FONT_MODE_NONE
 690:..\..\u8g2\csrc/u8g2_font.c ****   This has been changed for the new font procedures  
 691:..\..\u8g2\csrc/u8g2_font.c **** */
 692:..\..\u8g2\csrc/u8g2_font.c **** void u8g2_SetFontMode(u8g2_t *u8g2, uint8_t is_transparent)
 693:..\..\u8g2\csrc/u8g2_font.c **** {
 694:..\..\u8g2\csrc/u8g2_font.c ****   u8g2->font_decode.is_transparent = is_transparent;		// new font procedures
 695:..\..\u8g2\csrc/u8g2_font.c **** }
 696:..\..\u8g2\csrc/u8g2_font.c **** 
 697:..\..\u8g2\csrc/u8g2_font.c **** u8g2_uint_t u8g2_DrawGlyph(u8g2_t *u8g2, u8g2_uint_t x, u8g2_uint_t y, uint16_t encoding)
 698:..\..\u8g2\csrc/u8g2_font.c **** {
 699:..\..\u8g2\csrc/u8g2_font.c **** #ifdef U8G2_WITH_FONT_ROTATION
 700:..\..\u8g2\csrc/u8g2_font.c ****   switch(u8g2->font_decode.dir)
 701:..\..\u8g2\csrc/u8g2_font.c ****   {
 702:..\..\u8g2\csrc/u8g2_font.c ****     case 0:
 703:..\..\u8g2\csrc/u8g2_font.c ****       y += u8g2->font_calc_vref(u8g2);
 704:..\..\u8g2\csrc/u8g2_font.c ****       break;
 705:..\..\u8g2\csrc/u8g2_font.c ****     case 1:
 706:..\..\u8g2\csrc/u8g2_font.c ****       x -= u8g2->font_calc_vref(u8g2);
 707:..\..\u8g2\csrc/u8g2_font.c ****       break;
 708:..\..\u8g2\csrc/u8g2_font.c ****     case 2:
 709:..\..\u8g2\csrc/u8g2_font.c ****       y -= u8g2->font_calc_vref(u8g2);
 710:..\..\u8g2\csrc/u8g2_font.c ****       break;
 711:..\..\u8g2\csrc/u8g2_font.c ****     case 3:
 712:..\..\u8g2\csrc/u8g2_font.c ****       x += u8g2->font_calc_vref(u8g2);
 713:..\..\u8g2\csrc/u8g2_font.c ****       break;
 714:..\..\u8g2\csrc/u8g2_font.c ****   }
 715:..\..\u8g2\csrc/u8g2_font.c **** #else
 716:..\..\u8g2\csrc/u8g2_font.c ****   y += u8g2->font_calc_vref(u8g2);
 717:..\..\u8g2\csrc/u8g2_font.c **** #endif
 718:..\..\u8g2\csrc/u8g2_font.c ****   return u8g2_font_draw_glyph(u8g2, x, y, encoding);
 719:..\..\u8g2\csrc/u8g2_font.c **** }
 720:..\..\u8g2\csrc/u8g2_font.c **** 
 721:..\..\u8g2\csrc/u8g2_font.c **** static u8g2_uint_t u8g2_draw_string(u8g2_t *u8g2, u8g2_uint_t x, u8g2_uint_t y, const char *str) U8
 722:..\..\u8g2\csrc/u8g2_font.c **** static u8g2_uint_t u8g2_draw_string(u8g2_t *u8g2, u8g2_uint_t x, u8g2_uint_t y, const char *str)
 723:..\..\u8g2\csrc/u8g2_font.c **** {
 724:..\..\u8g2\csrc/u8g2_font.c ****   uint16_t e;
 725:..\..\u8g2\csrc/u8g2_font.c ****   u8g2_uint_t delta, sum;
 726:..\..\u8g2\csrc/u8g2_font.c ****   u8x8_utf8_init(u8g2_GetU8x8(u8g2));
 727:..\..\u8g2\csrc/u8g2_font.c ****   sum = 0;
 728:..\..\u8g2\csrc/u8g2_font.c ****   for(;;)
 729:..\..\u8g2\csrc/u8g2_font.c ****   {
 730:..\..\u8g2\csrc/u8g2_font.c ****     e = u8g2->u8x8.next_cb(u8g2_GetU8x8(u8g2), (uint8_t)*str);
 731:..\..\u8g2\csrc/u8g2_font.c ****     if ( e == 0x0ffff )
 732:..\..\u8g2\csrc/u8g2_font.c ****       break;
 733:..\..\u8g2\csrc/u8g2_font.c ****     str++;
 734:..\..\u8g2\csrc/u8g2_font.c ****     if ( e != 0x0fffe )
 735:..\..\u8g2\csrc/u8g2_font.c ****     {
 736:..\..\u8g2\csrc/u8g2_font.c ****       delta = u8g2_DrawGlyph(u8g2, x, y, e);
 737:..\..\u8g2\csrc/u8g2_font.c ****     
 738:..\..\u8g2\csrc/u8g2_font.c **** #ifdef U8G2_WITH_FONT_ROTATION
 739:..\..\u8g2\csrc/u8g2_font.c ****       switch(u8g2->font_decode.dir)
 740:..\..\u8g2\csrc/u8g2_font.c ****       {
 741:..\..\u8g2\csrc/u8g2_font.c **** 	case 0:
 742:..\..\u8g2\csrc/u8g2_font.c **** 	  x += delta;
 743:..\..\u8g2\csrc/u8g2_font.c **** 	  break;
ARM GAS  C:\Users\gjl\AppData\Local\Temp\ccg70AS9.s 			page 17


 744:..\..\u8g2\csrc/u8g2_font.c **** 	case 1:
 745:..\..\u8g2\csrc/u8g2_font.c **** 	  y += delta;
 746:..\..\u8g2\csrc/u8g2_font.c **** 	  break;
 747:..\..\u8g2\csrc/u8g2_font.c **** 	case 2:
 748:..\..\u8g2\csrc/u8g2_font.c **** 	  x -= delta;
 749:..\..\u8g2\csrc/u8g2_font.c **** 	  break;
 750:..\..\u8g2\csrc/u8g2_font.c **** 	case 3:
 751:..\..\u8g2\csrc/u8g2_font.c **** 	  y -= delta;
 752:..\..\u8g2\csrc/u8g2_font.c **** 	  break;
 753:..\..\u8g2\csrc/u8g2_font.c ****       }
 754:..\..\u8g2\csrc/u8g2_font.c **** #else
 755:..\..\u8g2\csrc/u8g2_font.c ****       x += delta;
 756:..\..\u8g2\csrc/u8g2_font.c **** #endif
 757:..\..\u8g2\csrc/u8g2_font.c **** 
 758:..\..\u8g2\csrc/u8g2_font.c ****       sum += delta;    
 759:..\..\u8g2\csrc/u8g2_font.c ****     }
 760:..\..\u8g2\csrc/u8g2_font.c ****   }
 761:..\..\u8g2\csrc/u8g2_font.c ****   return sum;
 762:..\..\u8g2\csrc/u8g2_font.c **** }
 763:..\..\u8g2\csrc/u8g2_font.c **** 
 764:..\..\u8g2\csrc/u8g2_font.c **** u8g2_uint_t u8g2_DrawStr(u8g2_t *u8g2, u8g2_uint_t x, u8g2_uint_t y, const char *str)
 765:..\..\u8g2\csrc/u8g2_font.c **** {
 766:..\..\u8g2\csrc/u8g2_font.c ****   u8g2->u8x8.next_cb = u8x8_ascii_next;
 767:..\..\u8g2\csrc/u8g2_font.c ****   return u8g2_draw_string(u8g2, x, y, str);
 768:..\..\u8g2\csrc/u8g2_font.c **** }
 769:..\..\u8g2\csrc/u8g2_font.c **** 
 770:..\..\u8g2\csrc/u8g2_font.c **** /*
 771:..\..\u8g2\csrc/u8g2_font.c **** source: https://en.wikipedia.org/wiki/UTF-8
 772:..\..\u8g2\csrc/u8g2_font.c **** Bits	from 		to			bytes	Byte 1 		Byte 2 		Byte 3 		Byte 4 		Byte 5 		Byte 6
 773:..\..\u8g2\csrc/u8g2_font.c ****   7 	U+0000 		U+007F 		1 		0xxxxxxx
 774:..\..\u8g2\csrc/u8g2_font.c **** 11 	U+0080 		U+07FF 		2 		110xxxxx 	10xxxxxx
 775:..\..\u8g2\csrc/u8g2_font.c **** 16 	U+0800 		U+FFFF 		3 		1110xxxx 	10xxxxxx 	10xxxxxx
 776:..\..\u8g2\csrc/u8g2_font.c **** 21 	U+10000 	U+1FFFFF 	4 		11110xxx 	10xxxxxx 	10xxxxxx 	10xxxxxx
 777:..\..\u8g2\csrc/u8g2_font.c **** 26 	U+200000 	U+3FFFFFF 	5 		111110xx 	10xxxxxx 	10xxxxxx 	10xxxxxx 	10xxxxxx
 778:..\..\u8g2\csrc/u8g2_font.c **** 31 	U+4000000 	U+7FFFFFFF 	6 		1111110x 	10xxxxxx 	10xxxxxx 	10xxxxxx 	10xxxxxx 	10xxxxxx  
 779:..\..\u8g2\csrc/u8g2_font.c **** */
 780:..\..\u8g2\csrc/u8g2_font.c **** u8g2_uint_t u8g2_DrawUTF8(u8g2_t *u8g2, u8g2_uint_t x, u8g2_uint_t y, const char *str)
 781:..\..\u8g2\csrc/u8g2_font.c **** {
 782:..\..\u8g2\csrc/u8g2_font.c ****   u8g2->u8x8.next_cb = u8x8_utf8_next;
 783:..\..\u8g2\csrc/u8g2_font.c ****   return u8g2_draw_string(u8g2, x, y, str);
 784:..\..\u8g2\csrc/u8g2_font.c **** }
 785:..\..\u8g2\csrc/u8g2_font.c **** 
 786:..\..\u8g2\csrc/u8g2_font.c **** 
 787:..\..\u8g2\csrc/u8g2_font.c **** 
 788:..\..\u8g2\csrc/u8g2_font.c **** u8g2_uint_t u8g2_DrawExtendedUTF8(u8g2_t *u8g2, u8g2_uint_t x, u8g2_uint_t y, uint8_t to_left, u8g2
 789:..\..\u8g2\csrc/u8g2_font.c **** {
 790:..\..\u8g2\csrc/u8g2_font.c ****   u8g2->u8x8.next_cb = u8x8_utf8_next;
 791:..\..\u8g2\csrc/u8g2_font.c ****   uint16_t e_prev = 0x0ffff;
 792:..\..\u8g2\csrc/u8g2_font.c ****   uint16_t e;
 793:..\..\u8g2\csrc/u8g2_font.c ****   u8g2_uint_t delta, sum, k;
 794:..\..\u8g2\csrc/u8g2_font.c ****   u8x8_utf8_init(u8g2_GetU8x8(u8g2));
 795:..\..\u8g2\csrc/u8g2_font.c ****   sum = 0;
 796:..\..\u8g2\csrc/u8g2_font.c ****   for(;;)
 797:..\..\u8g2\csrc/u8g2_font.c ****   {
 798:..\..\u8g2\csrc/u8g2_font.c ****     e = u8g2->u8x8.next_cb(u8g2_GetU8x8(u8g2), (uint8_t)*str);
 799:..\..\u8g2\csrc/u8g2_font.c ****     if ( e == 0x0ffff )
 800:..\..\u8g2\csrc/u8g2_font.c ****       break;
ARM GAS  C:\Users\gjl\AppData\Local\Temp\ccg70AS9.s 			page 18


 801:..\..\u8g2\csrc/u8g2_font.c ****     str++;
 802:..\..\u8g2\csrc/u8g2_font.c ****     if ( e != 0x0fffe )
 803:..\..\u8g2\csrc/u8g2_font.c ****     {
 804:..\..\u8g2\csrc/u8g2_font.c ****       delta = u8g2_GetGlyphWidth(u8g2, e);
 805:..\..\u8g2\csrc/u8g2_font.c **** 	    
 806:..\..\u8g2\csrc/u8g2_font.c ****       if ( to_left )
 807:..\..\u8g2\csrc/u8g2_font.c ****       {
 808:..\..\u8g2\csrc/u8g2_font.c ****         k = u8g2_GetKerning(u8g2, kerning, e, e_prev);
 809:..\..\u8g2\csrc/u8g2_font.c **** 	delta -= k;
 810:..\..\u8g2\csrc/u8g2_font.c **** 	x -= delta;
 811:..\..\u8g2\csrc/u8g2_font.c ****       }
 812:..\..\u8g2\csrc/u8g2_font.c ****       else
 813:..\..\u8g2\csrc/u8g2_font.c ****       {
 814:..\..\u8g2\csrc/u8g2_font.c ****         k = u8g2_GetKerning(u8g2, kerning, e_prev, e);
 815:..\..\u8g2\csrc/u8g2_font.c **** 	delta -= k;
 816:..\..\u8g2\csrc/u8g2_font.c ****       }
 817:..\..\u8g2\csrc/u8g2_font.c ****       e_prev = e;
 818:..\..\u8g2\csrc/u8g2_font.c **** 
 819:..\..\u8g2\csrc/u8g2_font.c ****       u8g2_DrawGlyph(u8g2, x, y, e);
 820:..\..\u8g2\csrc/u8g2_font.c ****       if ( to_left )
 821:..\..\u8g2\csrc/u8g2_font.c ****       {
 822:..\..\u8g2\csrc/u8g2_font.c ****       }
 823:..\..\u8g2\csrc/u8g2_font.c ****       else
 824:..\..\u8g2\csrc/u8g2_font.c ****       {
 825:..\..\u8g2\csrc/u8g2_font.c **** 	x += delta;
 826:..\..\u8g2\csrc/u8g2_font.c **** 	x -= k;
 827:..\..\u8g2\csrc/u8g2_font.c ****       }
 828:..\..\u8g2\csrc/u8g2_font.c ****       
 829:..\..\u8g2\csrc/u8g2_font.c ****       sum += delta;    
 830:..\..\u8g2\csrc/u8g2_font.c ****     }
 831:..\..\u8g2\csrc/u8g2_font.c ****   }
 832:..\..\u8g2\csrc/u8g2_font.c ****   return sum;
 833:..\..\u8g2\csrc/u8g2_font.c **** }
 834:..\..\u8g2\csrc/u8g2_font.c **** 
 835:..\..\u8g2\csrc/u8g2_font.c **** u8g2_uint_t u8g2_DrawExtUTF8(u8g2_t *u8g2, u8g2_uint_t x, u8g2_uint_t y, uint8_t to_left, const uin
 836:..\..\u8g2\csrc/u8g2_font.c **** {
 837:..\..\u8g2\csrc/u8g2_font.c ****   u8g2->u8x8.next_cb = u8x8_utf8_next;
 838:..\..\u8g2\csrc/u8g2_font.c ****   uint16_t e_prev = 0x0ffff;
 839:..\..\u8g2\csrc/u8g2_font.c ****   uint16_t e;
 840:..\..\u8g2\csrc/u8g2_font.c ****   u8g2_uint_t delta, sum, k;
 841:..\..\u8g2\csrc/u8g2_font.c ****   u8x8_utf8_init(u8g2_GetU8x8(u8g2));
 842:..\..\u8g2\csrc/u8g2_font.c ****   sum = 0;
 843:..\..\u8g2\csrc/u8g2_font.c ****   for(;;)
 844:..\..\u8g2\csrc/u8g2_font.c ****   {
 845:..\..\u8g2\csrc/u8g2_font.c ****     e = u8g2->u8x8.next_cb(u8g2_GetU8x8(u8g2), (uint8_t)*str);
 846:..\..\u8g2\csrc/u8g2_font.c ****     if ( e == 0x0ffff )
 847:..\..\u8g2\csrc/u8g2_font.c ****       break;
 848:..\..\u8g2\csrc/u8g2_font.c ****     str++;
 849:..\..\u8g2\csrc/u8g2_font.c ****     if ( e != 0x0fffe )
 850:..\..\u8g2\csrc/u8g2_font.c ****     {
 851:..\..\u8g2\csrc/u8g2_font.c ****       delta = u8g2_GetGlyphWidth(u8g2, e);
 852:..\..\u8g2\csrc/u8g2_font.c **** 	    
 853:..\..\u8g2\csrc/u8g2_font.c ****       if ( to_left )
 854:..\..\u8g2\csrc/u8g2_font.c ****       {
 855:..\..\u8g2\csrc/u8g2_font.c ****         k = u8g2_GetKerningByTable(u8g2, kerning_table, e, e_prev);
 856:..\..\u8g2\csrc/u8g2_font.c **** 	delta -= k;
 857:..\..\u8g2\csrc/u8g2_font.c **** 	x -= delta;
ARM GAS  C:\Users\gjl\AppData\Local\Temp\ccg70AS9.s 			page 19


 858:..\..\u8g2\csrc/u8g2_font.c ****       }
 859:..\..\u8g2\csrc/u8g2_font.c ****       else
 860:..\..\u8g2\csrc/u8g2_font.c ****       {
 861:..\..\u8g2\csrc/u8g2_font.c ****         k = u8g2_GetKerningByTable(u8g2, kerning_table, e_prev, e);
 862:..\..\u8g2\csrc/u8g2_font.c **** 	delta -= k;
 863:..\..\u8g2\csrc/u8g2_font.c ****       }
 864:..\..\u8g2\csrc/u8g2_font.c ****       e_prev = e;
 865:..\..\u8g2\csrc/u8g2_font.c **** 
 866:..\..\u8g2\csrc/u8g2_font.c ****       u8g2_DrawGlyph(u8g2, x, y, e);
 867:..\..\u8g2\csrc/u8g2_font.c ****       if ( to_left )
 868:..\..\u8g2\csrc/u8g2_font.c ****       {
 869:..\..\u8g2\csrc/u8g2_font.c ****       }
 870:..\..\u8g2\csrc/u8g2_font.c ****       else
 871:..\..\u8g2\csrc/u8g2_font.c ****       {
 872:..\..\u8g2\csrc/u8g2_font.c **** 	x += delta;
 873:..\..\u8g2\csrc/u8g2_font.c **** 	x -= k;
 874:..\..\u8g2\csrc/u8g2_font.c ****       }
 875:..\..\u8g2\csrc/u8g2_font.c ****       
 876:..\..\u8g2\csrc/u8g2_font.c ****       sum += delta;    
 877:..\..\u8g2\csrc/u8g2_font.c ****     }
 878:..\..\u8g2\csrc/u8g2_font.c ****   }
 879:..\..\u8g2\csrc/u8g2_font.c ****   return sum;
 880:..\..\u8g2\csrc/u8g2_font.c **** }
 881:..\..\u8g2\csrc/u8g2_font.c **** 
 882:..\..\u8g2\csrc/u8g2_font.c **** 
 883:..\..\u8g2\csrc/u8g2_font.c **** 
 884:..\..\u8g2\csrc/u8g2_font.c **** /*===============================================*/
 885:..\..\u8g2\csrc/u8g2_font.c **** 
 886:..\..\u8g2\csrc/u8g2_font.c **** /* set ascent/descent for reference point calculation */
 887:..\..\u8g2\csrc/u8g2_font.c **** 
 888:..\..\u8g2\csrc/u8g2_font.c **** void u8g2_UpdateRefHeight(u8g2_t *u8g2)
 889:..\..\u8g2\csrc/u8g2_font.c **** {
 890:..\..\u8g2\csrc/u8g2_font.c ****   if ( u8g2->font == NULL )
 891:..\..\u8g2\csrc/u8g2_font.c ****     return;
 892:..\..\u8g2\csrc/u8g2_font.c ****   u8g2->font_ref_ascent = u8g2->font_info.ascent_A;
 893:..\..\u8g2\csrc/u8g2_font.c ****   u8g2->font_ref_descent = u8g2->font_info.descent_g;
 894:..\..\u8g2\csrc/u8g2_font.c ****   if ( u8g2->font_height_mode == U8G2_FONT_HEIGHT_MODE_TEXT )
 895:..\..\u8g2\csrc/u8g2_font.c ****   {
 896:..\..\u8g2\csrc/u8g2_font.c ****   }
 897:..\..\u8g2\csrc/u8g2_font.c ****   else if ( u8g2->font_height_mode == U8G2_FONT_HEIGHT_MODE_XTEXT )
 898:..\..\u8g2\csrc/u8g2_font.c ****   {
 899:..\..\u8g2\csrc/u8g2_font.c ****     if ( u8g2->font_ref_ascent < u8g2->font_info.ascent_para )
 900:..\..\u8g2\csrc/u8g2_font.c ****       u8g2->font_ref_ascent = u8g2->font_info.ascent_para;
 901:..\..\u8g2\csrc/u8g2_font.c ****     if ( u8g2->font_ref_descent > u8g2->font_info.descent_para )
 902:..\..\u8g2\csrc/u8g2_font.c ****       u8g2->font_ref_descent = u8g2->font_info.descent_para;
 903:..\..\u8g2\csrc/u8g2_font.c ****   }
 904:..\..\u8g2\csrc/u8g2_font.c ****   else
 905:..\..\u8g2\csrc/u8g2_font.c ****   {
 906:..\..\u8g2\csrc/u8g2_font.c ****     if ( u8g2->font_ref_ascent < u8g2->font_info.max_char_height+u8g2->font_info.y_offset )
 907:..\..\u8g2\csrc/u8g2_font.c ****       u8g2->font_ref_ascent = u8g2->font_info.max_char_height+u8g2->font_info.y_offset;
 908:..\..\u8g2\csrc/u8g2_font.c ****     if ( u8g2->font_ref_descent > u8g2->font_info.y_offset )
 909:..\..\u8g2\csrc/u8g2_font.c ****       u8g2->font_ref_descent = u8g2->font_info.y_offset;
 910:..\..\u8g2\csrc/u8g2_font.c ****   }  
 911:..\..\u8g2\csrc/u8g2_font.c **** }
 912:..\..\u8g2\csrc/u8g2_font.c **** 
 913:..\..\u8g2\csrc/u8g2_font.c **** void u8g2_SetFontRefHeightText(u8g2_t *u8g2)
 914:..\..\u8g2\csrc/u8g2_font.c **** {
ARM GAS  C:\Users\gjl\AppData\Local\Temp\ccg70AS9.s 			page 20


 915:..\..\u8g2\csrc/u8g2_font.c ****   u8g2->font_height_mode = U8G2_FONT_HEIGHT_MODE_TEXT;
 916:..\..\u8g2\csrc/u8g2_font.c ****   u8g2_UpdateRefHeight(u8g2);
 917:..\..\u8g2\csrc/u8g2_font.c **** }
 918:..\..\u8g2\csrc/u8g2_font.c **** 
 919:..\..\u8g2\csrc/u8g2_font.c **** void u8g2_SetFontRefHeightExtendedText(u8g2_t *u8g2)
 920:..\..\u8g2\csrc/u8g2_font.c **** {
 921:..\..\u8g2\csrc/u8g2_font.c ****   u8g2->font_height_mode = U8G2_FONT_HEIGHT_MODE_XTEXT;
 922:..\..\u8g2\csrc/u8g2_font.c ****   u8g2_UpdateRefHeight(u8g2);
 923:..\..\u8g2\csrc/u8g2_font.c **** }
 924:..\..\u8g2\csrc/u8g2_font.c **** 
 925:..\..\u8g2\csrc/u8g2_font.c **** void u8g2_SetFontRefHeightAll(u8g2_t *u8g2)
 926:..\..\u8g2\csrc/u8g2_font.c **** {
 927:..\..\u8g2\csrc/u8g2_font.c ****   u8g2->font_height_mode = U8G2_FONT_HEIGHT_MODE_ALL;
 928:..\..\u8g2\csrc/u8g2_font.c ****   u8g2_UpdateRefHeight(u8g2);
 929:..\..\u8g2\csrc/u8g2_font.c **** }
 930:..\..\u8g2\csrc/u8g2_font.c **** 
 931:..\..\u8g2\csrc/u8g2_font.c **** /*===============================================*/
 932:..\..\u8g2\csrc/u8g2_font.c **** /* callback procedures to correct the y position */
 933:..\..\u8g2\csrc/u8g2_font.c **** 
 934:..\..\u8g2\csrc/u8g2_font.c **** u8g2_uint_t u8g2_font_calc_vref_font(U8X8_UNUSED u8g2_t *u8g2)
 935:..\..\u8g2\csrc/u8g2_font.c **** {
 161              		.loc 1 935 0
 162              		.cfi_startproc
 163              		@ args = 0, pretend = 0, frame = 0
 164              		@ frame_needed = 0, uses_anonymous_args = 0
 165              		@ link register save eliminated.
 166              	.LVL15:
 936:..\..\u8g2\csrc/u8g2_font.c ****   return 0;
 937:..\..\u8g2\csrc/u8g2_font.c **** }
 167              		.loc 1 937 0
 168 0000 0020     		movs	r0, #0
 169              	.LVL16:
 170              		@ sp needed
 171 0002 7047     		bx	lr
 172              		.cfi_endproc
 173              	.LFE31:
 174              		.size	u8g2_font_calc_vref_font, .-u8g2_font_calc_vref_font
 175              		.section	.text.u8g2_font_calc_vref_bottom,"ax",%progbits
 176              		.align	1
 177              		.global	u8g2_font_calc_vref_bottom
 178              		.code	16
 179              		.thumb_func
 180              		.type	u8g2_font_calc_vref_bottom, %function
 181              	u8g2_font_calc_vref_bottom:
 182              	.LFB33:
 938:..\..\u8g2\csrc/u8g2_font.c **** 
 939:..\..\u8g2\csrc/u8g2_font.c **** void u8g2_SetFontPosBaseline(u8g2_t *u8g2)
 940:..\..\u8g2\csrc/u8g2_font.c **** {
 941:..\..\u8g2\csrc/u8g2_font.c ****   u8g2->font_calc_vref = u8g2_font_calc_vref_font;
 942:..\..\u8g2\csrc/u8g2_font.c **** }
 943:..\..\u8g2\csrc/u8g2_font.c **** 
 944:..\..\u8g2\csrc/u8g2_font.c **** 
 945:..\..\u8g2\csrc/u8g2_font.c **** u8g2_uint_t u8g2_font_calc_vref_bottom(u8g2_t *u8g2)
 946:..\..\u8g2\csrc/u8g2_font.c **** {
 183              		.loc 1 946 0
 184              		.cfi_startproc
 185              		@ args = 0, pretend = 0, frame = 0
ARM GAS  C:\Users\gjl\AppData\Local\Temp\ccg70AS9.s 			page 21


 186              		@ frame_needed = 0, uses_anonymous_args = 0
 187              		@ link register save eliminated.
 188              	.LVL17:
 947:..\..\u8g2\csrc/u8g2_font.c ****   return (u8g2_uint_t)(u8g2->font_ref_descent);
 189              		.loc 1 947 0
 190 0000 7A30     		adds	r0, r0, #122
 191              	.LVL18:
 192 0002 0078     		ldrb	r0, [r0]
 193              	.LVL19:
 948:..\..\u8g2\csrc/u8g2_font.c **** }
 194              		.loc 1 948 0
 195              		@ sp needed
 196 0004 7047     		bx	lr
 197              		.cfi_endproc
 198              	.LFE33:
 199              		.size	u8g2_font_calc_vref_bottom, .-u8g2_font_calc_vref_bottom
 200              		.section	.text.u8g2_font_calc_vref_top,"ax",%progbits
 201              		.align	1
 202              		.global	u8g2_font_calc_vref_top
 203              		.code	16
 204              		.thumb_func
 205              		.type	u8g2_font_calc_vref_top, %function
 206              	u8g2_font_calc_vref_top:
 207              	.LFB35:
 949:..\..\u8g2\csrc/u8g2_font.c **** 
 950:..\..\u8g2\csrc/u8g2_font.c **** void u8g2_SetFontPosBottom(u8g2_t *u8g2)
 951:..\..\u8g2\csrc/u8g2_font.c **** {
 952:..\..\u8g2\csrc/u8g2_font.c ****   u8g2->font_calc_vref = u8g2_font_calc_vref_bottom;
 953:..\..\u8g2\csrc/u8g2_font.c **** }
 954:..\..\u8g2\csrc/u8g2_font.c **** 
 955:..\..\u8g2\csrc/u8g2_font.c **** u8g2_uint_t u8g2_font_calc_vref_top(u8g2_t *u8g2)
 956:..\..\u8g2\csrc/u8g2_font.c **** {
 208              		.loc 1 956 0
 209              		.cfi_startproc
 210              		@ args = 0, pretend = 0, frame = 0
 211              		@ frame_needed = 0, uses_anonymous_args = 0
 212              		@ link register save eliminated.
 213              	.LVL20:
 957:..\..\u8g2\csrc/u8g2_font.c ****   u8g2_uint_t tmp;
 958:..\..\u8g2\csrc/u8g2_font.c ****   /* reference pos is one pixel above the upper edge of the reference glyph */
 959:..\..\u8g2\csrc/u8g2_font.c ****   tmp = (u8g2_uint_t)(u8g2->font_ref_ascent);
 214              		.loc 1 959 0
 215 0000 7930     		adds	r0, r0, #121
 216              	.LVL21:
 217 0002 0078     		ldrb	r0, [r0]
 218              	.LVL22:
 960:..\..\u8g2\csrc/u8g2_font.c ****   tmp++;
 961:..\..\u8g2\csrc/u8g2_font.c ****   return tmp;
 962:..\..\u8g2\csrc/u8g2_font.c **** }
 219              		.loc 1 962 0
 220              		@ sp needed
 961:..\..\u8g2\csrc/u8g2_font.c **** }
 221              		.loc 1 961 0
 222 0004 0130     		adds	r0, r0, #1
 223              	.LVL23:
 224 0006 C0B2     		uxtb	r0, r0
 225              	.LVL24:
ARM GAS  C:\Users\gjl\AppData\Local\Temp\ccg70AS9.s 			page 22


 226              		.loc 1 962 0
 227 0008 7047     		bx	lr
 228              		.cfi_endproc
 229              	.LFE35:
 230              		.size	u8g2_font_calc_vref_top, .-u8g2_font_calc_vref_top
 231              		.section	.text.u8g2_font_calc_vref_center,"ax",%progbits
 232              		.align	1
 233              		.global	u8g2_font_calc_vref_center
 234              		.code	16
 235              		.thumb_func
 236              		.type	u8g2_font_calc_vref_center, %function
 237              	u8g2_font_calc_vref_center:
 238              	.LFB37:
 963:..\..\u8g2\csrc/u8g2_font.c **** 
 964:..\..\u8g2\csrc/u8g2_font.c **** void u8g2_SetFontPosTop(u8g2_t *u8g2)
 965:..\..\u8g2\csrc/u8g2_font.c **** {
 966:..\..\u8g2\csrc/u8g2_font.c ****   u8g2->font_calc_vref = u8g2_font_calc_vref_top;
 967:..\..\u8g2\csrc/u8g2_font.c **** }
 968:..\..\u8g2\csrc/u8g2_font.c **** 
 969:..\..\u8g2\csrc/u8g2_font.c **** u8g2_uint_t u8g2_font_calc_vref_center(u8g2_t *u8g2)
 970:..\..\u8g2\csrc/u8g2_font.c **** {
 239              		.loc 1 970 0
 240              		.cfi_startproc
 241              		@ args = 0, pretend = 0, frame = 0
 242              		@ frame_needed = 0, uses_anonymous_args = 0
 243              		@ link register save eliminated.
 244              	.LVL25:
 245              		.loc 1 970 0
 246 0000 0200     		movs	r2, r0
 971:..\..\u8g2\csrc/u8g2_font.c ****   int8_t tmp;
 972:..\..\u8g2\csrc/u8g2_font.c ****   tmp = u8g2->font_ref_ascent;
 973:..\..\u8g2\csrc/u8g2_font.c ****   tmp -= u8g2->font_ref_descent;
 247              		.loc 1 973 0
 248 0002 0300     		movs	r3, r0
 972:..\..\u8g2\csrc/u8g2_font.c ****   tmp -= u8g2->font_ref_descent;
 249              		.loc 1 972 0
 250 0004 7932     		adds	r2, r2, #121
 251              	.LVL26:
 252              		.loc 1 973 0
 253 0006 7A33     		adds	r3, r3, #122
 254 0008 1878     		ldrb	r0, [r3]
 255              	.LVL27:
 256 000a 1378     		ldrb	r3, [r2]
 257              	.LVL28:
 974:..\..\u8g2\csrc/u8g2_font.c ****   tmp /= 2;
 975:..\..\u8g2\csrc/u8g2_font.c ****   tmp += u8g2->font_ref_descent;  
 976:..\..\u8g2\csrc/u8g2_font.c ****   return tmp;
 977:..\..\u8g2\csrc/u8g2_font.c **** }
 258              		.loc 1 977 0
 259              		@ sp needed
 973:..\..\u8g2\csrc/u8g2_font.c ****   tmp /= 2;
 260              		.loc 1 973 0
 261 000c 1B1A     		subs	r3, r3, r0
 262 000e 5BB2     		sxtb	r3, r3
 263              	.LVL29:
 976:..\..\u8g2\csrc/u8g2_font.c **** }
 264              		.loc 1 976 0
ARM GAS  C:\Users\gjl\AppData\Local\Temp\ccg70AS9.s 			page 23


 265 0010 DA0F     		lsrs	r2, r3, #31
 266              	.LVL30:
 267 0012 D318     		adds	r3, r2, r3
 268              	.LVL31:
 269 0014 5B10     		asrs	r3, r3, #1
 270 0016 C018     		adds	r0, r0, r3
 271              	.LVL32:
 272 0018 C0B2     		uxtb	r0, r0
 273              		.loc 1 977 0
 274 001a 7047     		bx	lr
 275              		.cfi_endproc
 276              	.LFE37:
 277              		.size	u8g2_font_calc_vref_center, .-u8g2_font_calc_vref_center
 278              		.section	.text.u8g2_read_font_info,"ax",%progbits
 279              		.align	1
 280              		.global	u8g2_read_font_info
 281              		.code	16
 282              		.thumb_func
 283              		.type	u8g2_read_font_info, %function
 284              	u8g2_read_font_info:
 285              	.LFB2:
 132:..\..\u8g2\csrc/u8g2_font.c ****   /* offset 0 */
 286              		.loc 1 132 0
 287              		.cfi_startproc
 288              		@ args = 0, pretend = 0, frame = 0
 289              		@ frame_needed = 0, uses_anonymous_args = 0
 290              	.LVL33:
 291 0000 70B5     		push	{r4, r5, r6, lr}
 292              		.cfi_def_cfa_offset 16
 293              		.cfi_offset 4, -16
 294              		.cfi_offset 5, -12
 295              		.cfi_offset 6, -8
 296              		.cfi_offset 14, -4
 297              	.LBB36:
 298              	.LBB37:
 114:..\..\u8g2\csrc/u8g2_font.c **** }
 299              		.loc 1 114 0
 300 0002 0B78     		ldrb	r3, [r1]
 301              	.LVL34:
 302              	.LBE37:
 303              	.LBE36:
 132:..\..\u8g2\csrc/u8g2_font.c ****   /* offset 0 */
 304              		.loc 1 132 0
 305 0004 0D00     		movs	r5, r1
 134:..\..\u8g2\csrc/u8g2_font.c ****   font_info->bbx_mode = u8g2_font_get_byte(font, 1);
 306              		.loc 1 134 0
 307 0006 0370     		strb	r3, [r0]
 308              	.LVL35:
 309              	.LBB38:
 310              	.LBB39:
 114:..\..\u8g2\csrc/u8g2_font.c **** }
 311              		.loc 1 114 0
 312 0008 4B78     		ldrb	r3, [r1, #1]
 313              	.LVL36:
 314              	.LBE39:
 315              	.LBE38:
 132:..\..\u8g2\csrc/u8g2_font.c ****   /* offset 0 */
ARM GAS  C:\Users\gjl\AppData\Local\Temp\ccg70AS9.s 			page 24


 316              		.loc 1 132 0
 317 000a 0400     		movs	r4, r0
 135:..\..\u8g2\csrc/u8g2_font.c ****   font_info->bits_per_0 = u8g2_font_get_byte(font, 2);
 318              		.loc 1 135 0
 319 000c 4370     		strb	r3, [r0, #1]
 320              	.LVL37:
 321              	.LBB40:
 322              	.LBB41:
 114:..\..\u8g2\csrc/u8g2_font.c **** }
 323              		.loc 1 114 0
 324 000e 8B78     		ldrb	r3, [r1, #2]
 325              	.LVL38:
 326              	.LBE41:
 327              	.LBE40:
 166:..\..\u8g2\csrc/u8g2_font.c **** 
 328              		.loc 1 166 0
 329              		@ sp needed
 136:..\..\u8g2\csrc/u8g2_font.c ****   font_info->bits_per_1 = u8g2_font_get_byte(font, 3);
 330              		.loc 1 136 0
 331 0010 8370     		strb	r3, [r0, #2]
 332              	.LVL39:
 333              	.LBB42:
 334              	.LBB43:
 114:..\..\u8g2\csrc/u8g2_font.c **** }
 335              		.loc 1 114 0
 336 0012 CB78     		ldrb	r3, [r1, #3]
 337              	.LVL40:
 338              	.LBE43:
 339              	.LBE42:
 137:..\..\u8g2\csrc/u8g2_font.c ****   
 340              		.loc 1 137 0
 341 0014 C370     		strb	r3, [r0, #3]
 342              	.LVL41:
 343              	.LBB44:
 344              	.LBB45:
 114:..\..\u8g2\csrc/u8g2_font.c **** }
 345              		.loc 1 114 0
 346 0016 0B79     		ldrb	r3, [r1, #4]
 347              	.LVL42:
 348              	.LBE45:
 349              	.LBE44:
 140:..\..\u8g2\csrc/u8g2_font.c ****   font_info->bits_per_char_height = u8g2_font_get_byte(font, 5);
 350              		.loc 1 140 0
 351 0018 0371     		strb	r3, [r0, #4]
 352              	.LVL43:
 353              	.LBB46:
 354              	.LBB47:
 114:..\..\u8g2\csrc/u8g2_font.c **** }
 355              		.loc 1 114 0
 356 001a 4B79     		ldrb	r3, [r1, #5]
 357              	.LVL44:
 358              	.LBE47:
 359              	.LBE46:
 141:..\..\u8g2\csrc/u8g2_font.c ****   font_info->bits_per_char_x = u8g2_font_get_byte(font, 6);
 360              		.loc 1 141 0
 361 001c 4371     		strb	r3, [r0, #5]
 362              	.LVL45:
ARM GAS  C:\Users\gjl\AppData\Local\Temp\ccg70AS9.s 			page 25


 363              	.LBB48:
 364              	.LBB49:
 114:..\..\u8g2\csrc/u8g2_font.c **** }
 365              		.loc 1 114 0
 366 001e 8B79     		ldrb	r3, [r1, #6]
 367              	.LVL46:
 368              	.LBE49:
 369              	.LBE48:
 142:..\..\u8g2\csrc/u8g2_font.c ****   font_info->bits_per_char_y = u8g2_font_get_byte(font, 7);
 370              		.loc 1 142 0
 371 0020 8371     		strb	r3, [r0, #6]
 372              	.LVL47:
 373              	.LBB50:
 374              	.LBB51:
 114:..\..\u8g2\csrc/u8g2_font.c **** }
 375              		.loc 1 114 0
 376 0022 CB79     		ldrb	r3, [r1, #7]
 377              	.LVL48:
 378              	.LBE51:
 379              	.LBE50:
 143:..\..\u8g2\csrc/u8g2_font.c ****   font_info->bits_per_delta_x = u8g2_font_get_byte(font, 8);
 380              		.loc 1 143 0
 381 0024 C371     		strb	r3, [r0, #7]
 382              	.LVL49:
 383              	.LBB52:
 384              	.LBB53:
 114:..\..\u8g2\csrc/u8g2_font.c **** }
 385              		.loc 1 114 0
 386 0026 0B7A     		ldrb	r3, [r1, #8]
 387              	.LVL50:
 388              	.LBE53:
 389              	.LBE52:
 144:..\..\u8g2\csrc/u8g2_font.c ****   
 390              		.loc 1 144 0
 391 0028 0372     		strb	r3, [r0, #8]
 147:..\..\u8g2\csrc/u8g2_font.c ****   font_info->max_char_height = u8g2_font_get_byte(font, 10);
 392              		.loc 1 147 0
 393 002a 4B7A     		ldrb	r3, [r1, #9]
 394 002c 4372     		strb	r3, [r0, #9]
 148:..\..\u8g2\csrc/u8g2_font.c ****   font_info->x_offset = u8g2_font_get_byte(font, 11);
 395              		.loc 1 148 0
 396 002e 8B7A     		ldrb	r3, [r1, #10]
 397 0030 8372     		strb	r3, [r0, #10]
 149:..\..\u8g2\csrc/u8g2_font.c ****   font_info->y_offset = u8g2_font_get_byte(font, 12);
 398              		.loc 1 149 0
 399 0032 CB7A     		ldrb	r3, [r1, #11]
 400 0034 C372     		strb	r3, [r0, #11]
 150:..\..\u8g2\csrc/u8g2_font.c ****   
 401              		.loc 1 150 0
 402 0036 0B7B     		ldrb	r3, [r1, #12]
 403 0038 0373     		strb	r3, [r0, #12]
 153:..\..\u8g2\csrc/u8g2_font.c ****   font_info->descent_g = u8g2_font_get_byte(font, 14);
 404              		.loc 1 153 0
 405 003a 4B7B     		ldrb	r3, [r1, #13]
 406 003c 4373     		strb	r3, [r0, #13]
 154:..\..\u8g2\csrc/u8g2_font.c ****   font_info->ascent_para = u8g2_font_get_byte(font, 15);
 407              		.loc 1 154 0
ARM GAS  C:\Users\gjl\AppData\Local\Temp\ccg70AS9.s 			page 26


 408 003e 8B7B     		ldrb	r3, [r1, #14]
 409 0040 8373     		strb	r3, [r0, #14]
 155:..\..\u8g2\csrc/u8g2_font.c ****   font_info->descent_para = u8g2_font_get_byte(font, 16);
 410              		.loc 1 155 0
 411 0042 CB7B     		ldrb	r3, [r1, #15]
 412 0044 C373     		strb	r3, [r0, #15]
 156:..\..\u8g2\csrc/u8g2_font.c ****   
 413              		.loc 1 156 0
 414 0046 0B7C     		ldrb	r3, [r1, #16]
 159:..\..\u8g2\csrc/u8g2_font.c ****   font_info->start_pos_lower_a = u8g2_font_get_word(font, 19); 
 415              		.loc 1 159 0
 416 0048 1121     		movs	r1, #17
 417              	.LVL51:
 156:..\..\u8g2\csrc/u8g2_font.c ****   
 418              		.loc 1 156 0
 419 004a 0374     		strb	r3, [r0, #16]
 159:..\..\u8g2\csrc/u8g2_font.c ****   font_info->start_pos_lower_a = u8g2_font_get_word(font, 19); 
 420              		.loc 1 159 0
 421 004c 2800     		movs	r0, r5
 422              	.LVL52:
 423 004e FFF7FEFF 		bl	u8g2_font_get_word
 424              	.LVL53:
 160:..\..\u8g2\csrc/u8g2_font.c ****   
 425              		.loc 1 160 0
 426 0052 1321     		movs	r1, #19
 159:..\..\u8g2\csrc/u8g2_font.c ****   font_info->start_pos_lower_a = u8g2_font_get_word(font, 19); 
 427              		.loc 1 159 0
 428 0054 6082     		strh	r0, [r4, #18]
 160:..\..\u8g2\csrc/u8g2_font.c ****   
 429              		.loc 1 160 0
 430 0056 2800     		movs	r0, r5
 431 0058 FFF7FEFF 		bl	u8g2_font_get_word
 432              	.LVL54:
 164:..\..\u8g2\csrc/u8g2_font.c **** #endif
 433              		.loc 1 164 0
 434 005c 1521     		movs	r1, #21
 160:..\..\u8g2\csrc/u8g2_font.c ****   
 435              		.loc 1 160 0
 436 005e A082     		strh	r0, [r4, #20]
 164:..\..\u8g2\csrc/u8g2_font.c **** #endif
 437              		.loc 1 164 0
 438 0060 2800     		movs	r0, r5
 439 0062 FFF7FEFF 		bl	u8g2_font_get_word
 440              	.LVL55:
 441 0066 E082     		strh	r0, [r4, #22]
 442              	.LVL56:
 443              	.LVL57:
 166:..\..\u8g2\csrc/u8g2_font.c **** 
 444              		.loc 1 166 0
 445 0068 70BD     		pop	{r4, r5, r6, pc}
 446              		.cfi_endproc
 447              	.LFE2:
 448              		.size	u8g2_read_font_info, .-u8g2_read_font_info
 449              		.section	.text.u8g2_GetFontSize,"ax",%progbits
 450              		.align	1
 451              		.global	u8g2_GetFontSize
 452              		.code	16
ARM GAS  C:\Users\gjl\AppData\Local\Temp\ccg70AS9.s 			page 27


 453              		.thumb_func
 454              		.type	u8g2_GetFontSize, %function
 455              	u8g2_GetFontSize:
 456              	.LFB3:
 171:..\..\u8g2\csrc/u8g2_font.c ****   uint16_t e;
 457              		.loc 1 171 0
 458              		.cfi_startproc
 459              		@ args = 0, pretend = 0, frame = 0
 460              		@ frame_needed = 0, uses_anonymous_args = 0
 461              		@ link register save eliminated.
 462              	.LVL58:
 174:..\..\u8g2\csrc/u8g2_font.c ****   
 463              		.loc 1 174 0
 464 0000 0300     		movs	r3, r0
 465 0002 1733     		adds	r3, r3, #23
 466              	.LVL59:
 467              	.L22:
 178:..\..\u8g2\csrc/u8g2_font.c ****       break;
 468              		.loc 1 178 0
 469 0004 5A78     		ldrb	r2, [r3, #1]
 470 0006 002A     		cmp	r2, #0
 471 0008 01D0     		beq	.L21
 180:..\..\u8g2\csrc/u8g2_font.c ****   }
 472              		.loc 1 180 0
 473 000a 9B18     		adds	r3, r3, r2
 474              	.LVL60:
 181:..\..\u8g2\csrc/u8g2_font.c ****   
 475              		.loc 1 181 0
 476 000c FAE7     		b	.L22
 477              	.L21:
 184:..\..\u8g2\csrc/u8g2_font.c ****   
 478              		.loc 1 184 0
 479 000e 0233     		adds	r3, r3, #2
 480              	.LVL61:
 481              	.L24:
 188:..\..\u8g2\csrc/u8g2_font.c ****     e <<= 8;
 482              		.loc 1 188 0
 483 0010 1A78     		ldrb	r2, [r3]
 484              	.LVL62:
 191:..\..\u8g2\csrc/u8g2_font.c ****       break;
 485              		.loc 1 191 0
 486 0012 5978     		ldrb	r1, [r3, #1]
 189:..\..\u8g2\csrc/u8g2_font.c ****     e |= u8x8_pgm_read( font + 1 );
 487              		.loc 1 189 0
 488 0014 1202     		lsls	r2, r2, #8
 489              	.LVL63:
 191:..\..\u8g2\csrc/u8g2_font.c ****       break;
 490              		.loc 1 191 0
 491 0016 0A43     		orrs	r2, r1
 492              	.LVL64:
 493 0018 02D0     		beq	.L23
 193:..\..\u8g2\csrc/u8g2_font.c ****   }
 494              		.loc 1 193 0
 495 001a 9A78     		ldrb	r2, [r3, #2]
 496 001c 9B18     		adds	r3, r3, r2
 497              	.LVL65:
 194:..\..\u8g2\csrc/u8g2_font.c ****   
ARM GAS  C:\Users\gjl\AppData\Local\Temp\ccg70AS9.s 			page 28


 498              		.loc 1 194 0
 499 001e F7E7     		b	.L24
 500              	.LVL66:
 501              	.L23:
 196:..\..\u8g2\csrc/u8g2_font.c **** }
 502              		.loc 1 196 0
 503 0020 181A     		subs	r0, r3, r0
 504              	.LVL67:
 505 0022 0230     		adds	r0, r0, #2
 197:..\..\u8g2\csrc/u8g2_font.c **** 
 506              		.loc 1 197 0
 507              		@ sp needed
 508 0024 7047     		bx	lr
 509              		.cfi_endproc
 510              	.LFE3:
 511              		.size	u8g2_GetFontSize, .-u8g2_GetFontSize
 512              		.section	.text.u8g2_GetFontBBXWidth,"ax",%progbits
 513              		.align	1
 514              		.global	u8g2_GetFontBBXWidth
 515              		.code	16
 516              		.thumb_func
 517              		.type	u8g2_GetFontBBXWidth, %function
 518              	u8g2_GetFontBBXWidth:
 519              	.LFB4:
 203:..\..\u8g2\csrc/u8g2_font.c ****   return u8g2->font_info.max_char_width;		/* new font info structure */
 520              		.loc 1 203 0
 521              		.cfi_startproc
 522              		@ args = 0, pretend = 0, frame = 0
 523              		@ frame_needed = 0, uses_anonymous_args = 0
 524              		@ link register save eliminated.
 525              	.LVL68:
 204:..\..\u8g2\csrc/u8g2_font.c **** }
 526              		.loc 1 204 0
 527 0000 6930     		adds	r0, r0, #105
 528              	.LVL69:
 529 0002 0078     		ldrb	r0, [r0]
 530              	.LVL70:
 205:..\..\u8g2\csrc/u8g2_font.c **** 
 531              		.loc 1 205 0
 532              		@ sp needed
 533 0004 7047     		bx	lr
 534              		.cfi_endproc
 535              	.LFE4:
 536              		.size	u8g2_GetFontBBXWidth, .-u8g2_GetFontBBXWidth
 537              		.section	.text.u8g2_GetFontBBXHeight,"ax",%progbits
 538              		.align	1
 539              		.global	u8g2_GetFontBBXHeight
 540              		.code	16
 541              		.thumb_func
 542              		.type	u8g2_GetFontBBXHeight, %function
 543              	u8g2_GetFontBBXHeight:
 544              	.LFB5:
 208:..\..\u8g2\csrc/u8g2_font.c ****   return u8g2->font_info.max_char_height;		/* new font info structure */
 545              		.loc 1 208 0
 546              		.cfi_startproc
 547              		@ args = 0, pretend = 0, frame = 0
 548              		@ frame_needed = 0, uses_anonymous_args = 0
ARM GAS  C:\Users\gjl\AppData\Local\Temp\ccg70AS9.s 			page 29


 549              		@ link register save eliminated.
 550              	.LVL71:
 209:..\..\u8g2\csrc/u8g2_font.c **** }
 551              		.loc 1 209 0
 552 0000 6A30     		adds	r0, r0, #106
 553              	.LVL72:
 554 0002 0078     		ldrb	r0, [r0]
 555              	.LVL73:
 210:..\..\u8g2\csrc/u8g2_font.c **** 
 556              		.loc 1 210 0
 557              		@ sp needed
 558 0004 7047     		bx	lr
 559              		.cfi_endproc
 560              	.LFE5:
 561              		.size	u8g2_GetFontBBXHeight, .-u8g2_GetFontBBXHeight
 562              		.section	.text.u8g_GetFontBBXOffX,"ax",%progbits
 563              		.align	1
 564              		.global	u8g_GetFontBBXOffX
 565              		.code	16
 566              		.thumb_func
 567              		.type	u8g_GetFontBBXOffX, %function
 568              	u8g_GetFontBBXOffX:
 569              	.LFB6:
 214:..\..\u8g2\csrc/u8g2_font.c ****   return u8g2->font_info.x_offset;		/* new font info structure */
 570              		.loc 1 214 0
 571              		.cfi_startproc
 572              		@ args = 0, pretend = 0, frame = 0
 573              		@ frame_needed = 0, uses_anonymous_args = 0
 574              		@ link register save eliminated.
 575              	.LVL74:
 215:..\..\u8g2\csrc/u8g2_font.c **** }
 576              		.loc 1 215 0
 577 0000 6B30     		adds	r0, r0, #107
 578              	.LVL75:
 579 0002 0078     		ldrb	r0, [r0]
 580              	.LVL76:
 216:..\..\u8g2\csrc/u8g2_font.c **** 
 581              		.loc 1 216 0
 582              		@ sp needed
 215:..\..\u8g2\csrc/u8g2_font.c **** }
 583              		.loc 1 215 0
 584 0004 40B2     		sxtb	r0, r0
 216:..\..\u8g2\csrc/u8g2_font.c **** 
 585              		.loc 1 216 0
 586 0006 7047     		bx	lr
 587              		.cfi_endproc
 588              	.LFE6:
 589              		.size	u8g_GetFontBBXOffX, .-u8g_GetFontBBXOffX
 590              		.section	.text.u8g2_GetFontBBXOffY,"ax",%progbits
 591              		.align	1
 592              		.global	u8g2_GetFontBBXOffY
 593              		.code	16
 594              		.thumb_func
 595              		.type	u8g2_GetFontBBXOffY, %function
 596              	u8g2_GetFontBBXOffY:
 597              	.LFB7:
 220:..\..\u8g2\csrc/u8g2_font.c ****   return u8g2->font_info.y_offset;		/* new font info structure */
ARM GAS  C:\Users\gjl\AppData\Local\Temp\ccg70AS9.s 			page 30


 598              		.loc 1 220 0
 599              		.cfi_startproc
 600              		@ args = 0, pretend = 0, frame = 0
 601              		@ frame_needed = 0, uses_anonymous_args = 0
 602              		@ link register save eliminated.
 603              	.LVL77:
 221:..\..\u8g2\csrc/u8g2_font.c **** }
 604              		.loc 1 221 0
 605 0000 6C30     		adds	r0, r0, #108
 606              	.LVL78:
 607 0002 0078     		ldrb	r0, [r0]
 608              	.LVL79:
 222:..\..\u8g2\csrc/u8g2_font.c **** 
 609              		.loc 1 222 0
 610              		@ sp needed
 221:..\..\u8g2\csrc/u8g2_font.c **** }
 611              		.loc 1 221 0
 612 0004 40B2     		sxtb	r0, r0
 222:..\..\u8g2\csrc/u8g2_font.c **** 
 613              		.loc 1 222 0
 614 0006 7047     		bx	lr
 615              		.cfi_endproc
 616              	.LFE7:
 617              		.size	u8g2_GetFontBBXOffY, .-u8g2_GetFontBBXOffY
 618              		.section	.text.u8g2_GetFontCapitalAHeight,"ax",%progbits
 619              		.align	1
 620              		.global	u8g2_GetFontCapitalAHeight
 621              		.code	16
 622              		.thumb_func
 623              		.type	u8g2_GetFontCapitalAHeight, %function
 624              	u8g2_GetFontCapitalAHeight:
 625              	.LFB8:
 226:..\..\u8g2\csrc/u8g2_font.c ****   return u8g2->font_info.ascent_A;		/* new font info structure */
 626              		.loc 1 226 0
 627              		.cfi_startproc
 628              		@ args = 0, pretend = 0, frame = 0
 629              		@ frame_needed = 0, uses_anonymous_args = 0
 630              		@ link register save eliminated.
 631              	.LVL80:
 227:..\..\u8g2\csrc/u8g2_font.c **** }
 632              		.loc 1 227 0
 633 0000 6D30     		adds	r0, r0, #109
 634              	.LVL81:
 635 0002 0078     		ldrb	r0, [r0]
 636              	.LVL82:
 228:..\..\u8g2\csrc/u8g2_font.c **** 
 637              		.loc 1 228 0
 638              		@ sp needed
 639 0004 7047     		bx	lr
 640              		.cfi_endproc
 641              	.LFE8:
 642              		.size	u8g2_GetFontCapitalAHeight, .-u8g2_GetFontCapitalAHeight
 643              		.section	.text.u8g2_font_decode_get_unsigned_bits,"ax",%progbits
 644              		.align	1
 645              		.global	u8g2_font_decode_get_unsigned_bits
 646              		.code	16
 647              		.thumb_func
ARM GAS  C:\Users\gjl\AppData\Local\Temp\ccg70AS9.s 			page 31


 648              		.type	u8g2_font_decode_get_unsigned_bits, %function
 649              	u8g2_font_decode_get_unsigned_bits:
 650              	.LFB9:
 235:..\..\u8g2\csrc/u8g2_font.c ****   uint8_t val;
 651              		.loc 1 235 0
 652              		.cfi_startproc
 653              		@ args = 0, pretend = 0, frame = 0
 654              		@ frame_needed = 0, uses_anonymous_args = 0
 655              	.LVL83:
 656 0000 70B5     		push	{r4, r5, r6, lr}
 657              		.cfi_def_cfa_offset 16
 658              		.cfi_offset 4, -16
 659              		.cfi_offset 5, -12
 660              		.cfi_offset 6, -8
 661              		.cfi_offset 14, -4
 241:..\..\u8g2\csrc/u8g2_font.c ****   
 662              		.loc 1 241 0
 663 0002 0468     		ldr	r4, [r0]
 237:..\..\u8g2\csrc/u8g2_font.c ****   uint8_t bit_pos_plus_cnt;
 664              		.loc 1 237 0
 665 0004 867A     		ldrb	r6, [r0, #10]
 666              	.LVL84:
 243:..\..\u8g2\csrc/u8g2_font.c ****   bit_pos_plus_cnt = bit_pos;
 667              		.loc 1 243 0
 668 0006 2378     		ldrb	r3, [r4]
 245:..\..\u8g2\csrc/u8g2_font.c ****   if ( bit_pos_plus_cnt >= 8 )
 669              		.loc 1 245 0
 670 0008 7218     		adds	r2, r6, r1
 671 000a D2B2     		uxtb	r2, r2
 243:..\..\u8g2\csrc/u8g2_font.c ****   bit_pos_plus_cnt = bit_pos;
 672              		.loc 1 243 0
 673 000c 3341     		asrs	r3, r3, r6
 674              	.LVL85:
 246:..\..\u8g2\csrc/u8g2_font.c ****   {
 675              		.loc 1 246 0
 676 000e 072A     		cmp	r2, #7
 677 0010 01D8     		bhi	.L31
 243:..\..\u8g2\csrc/u8g2_font.c ****   bit_pos_plus_cnt = bit_pos;
 678              		.loc 1 243 0
 679 0012 DBB2     		uxtb	r3, r3
 680 0014 0AE0     		b	.L32
 681              	.L31:
 682              	.LVL86:
 683              	.LBB54:
 250:..\..\u8g2\csrc/u8g2_font.c ****     //val |= *(f->decode_ptr) << (8-bit_pos);
 684              		.loc 1 250 0
 685 0016 651C     		adds	r5, r4, #1
 686 0018 0560     		str	r5, [r0]
 252:..\..\u8g2\csrc/u8g2_font.c ****     //bit_pos -= 8;
 687              		.loc 1 252 0
 688 001a 6578     		ldrb	r5, [r4, #1]
 689 001c 0824     		movs	r4, #8
 690 001e A41B     		subs	r4, r4, r6
 691 0020 E4B2     		uxtb	r4, r4
 692 0022 A540     		lsls	r5, r5, r4
 254:..\..\u8g2\csrc/u8g2_font.c ****   }
 693              		.loc 1 254 0
ARM GAS  C:\Users\gjl\AppData\Local\Temp\ccg70AS9.s 			page 32


 694 0024 083A     		subs	r2, r2, #8
 695              	.LVL87:
 252:..\..\u8g2\csrc/u8g2_font.c ****     //bit_pos -= 8;
 696              		.loc 1 252 0
 697 0026 2B43     		orrs	r3, r5
 698              	.LVL88:
 699 0028 DBB2     		uxtb	r3, r3
 700              	.LVL89:
 254:..\..\u8g2\csrc/u8g2_font.c ****   }
 701              		.loc 1 254 0
 702 002a D2B2     		uxtb	r2, r2
 703              	.LVL90:
 704              	.L32:
 705              	.LBE54:
 259:..\..\u8g2\csrc/u8g2_font.c ****   return val;
 706              		.loc 1 259 0
 707 002c 8272     		strb	r2, [r0, #10]
 260:..\..\u8g2\csrc/u8g2_font.c **** }
 708              		.loc 1 260 0
 709 002e 0120     		movs	r0, #1
 710              	.LVL91:
 711 0030 8840     		lsls	r0, r0, r1
 712 0032 0138     		subs	r0, r0, #1
 713 0034 1840     		ands	r0, r3
 261:..\..\u8g2\csrc/u8g2_font.c **** 
 714              		.loc 1 261 0
 715              		@ sp needed
 716              	.LVL92:
 717 0036 70BD     		pop	{r4, r5, r6, pc}
 718              		.cfi_endproc
 719              	.LFE9:
 720              		.size	u8g2_font_decode_get_unsigned_bits, .-u8g2_font_decode_get_unsigned_bits
 721              		.section	.text.u8g2_font_setup_decode,"ax",%progbits
 722              		.align	1
 723              		.code	16
 724              		.thumb_func
 725              		.type	u8g2_font_setup_decode, %function
 726              	u8g2_font_setup_decode:
 727              	.LFB14:
 451:..\..\u8g2\csrc/u8g2_font.c ****   u8g2_font_decode_t *decode = &(u8g2->font_decode);
 728              		.loc 1 451 0
 729              		.cfi_startproc
 730              		@ args = 0, pretend = 0, frame = 0
 731              		@ frame_needed = 0, uses_anonymous_args = 0
 732              	.LVL93:
 733 0000 70B5     		push	{r4, r5, r6, lr}
 734              		.cfi_def_cfa_offset 16
 735              		.cfi_offset 4, -16
 736              		.cfi_offset 5, -12
 737              		.cfi_offset 6, -8
 738              		.cfi_offset 14, -4
 452:..\..\u8g2\csrc/u8g2_font.c ****   decode->decode_ptr = glyph_data;
 739              		.loc 1 452 0
 740 0002 0400     		movs	r4, r0
 454:..\..\u8g2\csrc/u8g2_font.c ****   
 741              		.loc 1 454 0
 742 0004 0023     		movs	r3, #0
ARM GAS  C:\Users\gjl\AppData\Local\Temp\ccg70AS9.s 			page 33


 452:..\..\u8g2\csrc/u8g2_font.c ****   decode->decode_ptr = glyph_data;
 743              		.loc 1 452 0
 744 0006 5034     		adds	r4, r4, #80
 745              	.LVL94:
 453:..\..\u8g2\csrc/u8g2_font.c ****   decode->decode_bit_pos = 0;
 746              		.loc 1 453 0
 747 0008 0165     		str	r1, [r0, #80]
 454:..\..\u8g2\csrc/u8g2_font.c ****   
 748              		.loc 1 454 0
 749 000a A372     		strb	r3, [r4, #10]
 462:..\..\u8g2\csrc/u8g2_font.c ****   decode->glyph_height = u8g2_font_decode_get_unsigned_bits(decode,u8g2->font_info.bits_per_char_he
 750              		.loc 1 462 0
 751 000c 0300     		movs	r3, r0
 451:..\..\u8g2\csrc/u8g2_font.c ****   u8g2_font_decode_t *decode = &(u8g2->font_decode);
 752              		.loc 1 451 0
 753 000e 0500     		movs	r5, r0
 462:..\..\u8g2\csrc/u8g2_font.c ****   decode->glyph_height = u8g2_font_decode_get_unsigned_bits(decode,u8g2->font_info.bits_per_char_he
 754              		.loc 1 462 0
 755 0010 6433     		adds	r3, r3, #100
 756 0012 1978     		ldrb	r1, [r3]
 757              	.LVL95:
 758 0014 2000     		movs	r0, r4
 759              	.LVL96:
 760 0016 FFF7FEFF 		bl	u8g2_font_decode_get_unsigned_bits
 761              	.LVL97:
 463:..\..\u8g2\csrc/u8g2_font.c ****   
 762              		.loc 1 463 0
 763 001a 2B00     		movs	r3, r5
 462:..\..\u8g2\csrc/u8g2_font.c ****   decode->glyph_height = u8g2_font_decode_get_unsigned_bits(decode,u8g2->font_info.bits_per_char_he
 764              		.loc 1 462 0
 765 001c 2072     		strb	r0, [r4, #8]
 463:..\..\u8g2\csrc/u8g2_font.c ****   
 766              		.loc 1 463 0
 767 001e 6533     		adds	r3, r3, #101
 768 0020 1978     		ldrb	r1, [r3]
 769 0022 2000     		movs	r0, r4
 770 0024 FFF7FEFF 		bl	u8g2_font_decode_get_unsigned_bits
 771              	.LVL98:
 465:..\..\u8g2\csrc/u8g2_font.c ****   decode->bg_color = (decode->fg_color == 0 ? 1 : 0);
 772              		.loc 1 465 0
 773 0028 7C35     		adds	r5, r5, #124
 774              	.LVL99:
 463:..\..\u8g2\csrc/u8g2_font.c ****   
 775              		.loc 1 463 0
 776 002a 6072     		strb	r0, [r4, #9]
 465:..\..\u8g2\csrc/u8g2_font.c ****   decode->bg_color = (decode->fg_color == 0 ? 1 : 0);
 777              		.loc 1 465 0
 778 002c 2B78     		ldrb	r3, [r5]
 467:..\..\u8g2\csrc/u8g2_font.c **** 
 779              		.loc 1 467 0
 780              		@ sp needed
 465:..\..\u8g2\csrc/u8g2_font.c ****   decode->bg_color = (decode->fg_color == 0 ? 1 : 0);
 781              		.loc 1 465 0
 782 002e 2373     		strb	r3, [r4, #12]
 466:..\..\u8g2\csrc/u8g2_font.c **** }
 783              		.loc 1 466 0
 784 0030 5A42     		rsbs	r2, r3, #0
ARM GAS  C:\Users\gjl\AppData\Local\Temp\ccg70AS9.s 			page 34


 785 0032 5341     		adcs	r3, r3, r2
 786 0034 6373     		strb	r3, [r4, #13]
 787              	.LVL100:
 788              	.LVL101:
 467:..\..\u8g2\csrc/u8g2_font.c **** 
 789              		.loc 1 467 0
 790 0036 70BD     		pop	{r4, r5, r6, pc}
 791              		.cfi_endproc
 792              	.LFE14:
 793              		.size	u8g2_font_setup_decode, .-u8g2_font_setup_decode
 794              		.section	.text.u8g2_font_decode_get_signed_bits,"ax",%progbits
 795              		.align	1
 796              		.global	u8g2_font_decode_get_signed_bits
 797              		.code	16
 798              		.thumb_func
 799              		.type	u8g2_font_decode_get_signed_bits, %function
 800              	u8g2_font_decode_get_signed_bits:
 801              	.LFB10:
 280:..\..\u8g2\csrc/u8g2_font.c ****   int8_t v, d;
 802              		.loc 1 280 0
 803              		.cfi_startproc
 804              		@ args = 0, pretend = 0, frame = 0
 805              		@ frame_needed = 0, uses_anonymous_args = 0
 806              	.LVL102:
 807 0000 10B5     		push	{r4, lr}
 808              		.cfi_def_cfa_offset 8
 809              		.cfi_offset 4, -8
 810              		.cfi_offset 14, -4
 280:..\..\u8g2\csrc/u8g2_font.c ****   int8_t v, d;
 811              		.loc 1 280 0
 812 0002 0C00     		movs	r4, r1
 282:..\..\u8g2\csrc/u8g2_font.c ****   d = 1;
 813              		.loc 1 282 0
 814 0004 FFF7FEFF 		bl	u8g2_font_decode_get_unsigned_bits
 815              	.LVL103:
 287:..\..\u8g2\csrc/u8g2_font.c ****   //return (int8_t)u8g2_font_decode_get_unsigned_bits(f, cnt) - ((1<<cnt)>>1);
 816              		.loc 1 287 0
 817 0008 0123     		movs	r3, #1
 818 000a 013C     		subs	r4, r4, #1
 819              	.LVL104:
 820 000c E4B2     		uxtb	r4, r4
 821 000e A340     		lsls	r3, r3, r4
 822 0010 C01A     		subs	r0, r0, r3
 823 0012 40B2     		sxtb	r0, r0
 289:..\..\u8g2\csrc/u8g2_font.c **** 
 824              		.loc 1 289 0
 825              		@ sp needed
 826 0014 10BD     		pop	{r4, pc}
 827              		.cfi_endproc
 828              	.LFE10:
 829              		.size	u8g2_font_decode_get_signed_bits, .-u8g2_font_decode_get_signed_bits
 830              		.section	.text.u8g2_font_decode_len,"ax",%progbits
 831              		.align	1
 832              		.global	u8g2_font_decode_len
 833              		.code	16
 834              		.thumb_func
 835              		.type	u8g2_font_decode_len, %function
ARM GAS  C:\Users\gjl\AppData\Local\Temp\ccg70AS9.s 			page 35


 836              	u8g2_font_decode_len:
 837              	.LFB13:
 357:..\..\u8g2\csrc/u8g2_font.c ****   uint8_t cnt;	/* total number of remaining pixels, which have to be drawn */
 838              		.loc 1 357 0
 839              		.cfi_startproc
 840              		@ args = 0, pretend = 0, frame = 40
 841              		@ frame_needed = 0, uses_anonymous_args = 0
 842              	.LVL105:
 374:..\..\u8g2\csrc/u8g2_font.c ****   ly = decode->y;
 843              		.loc 1 374 0
 844 0000 0300     		movs	r3, r0
 357:..\..\u8g2\csrc/u8g2_font.c ****   uint8_t cnt;	/* total number of remaining pixels, which have to be drawn */
 845              		.loc 1 357 0
 846 0002 F0B5     		push	{r4, r5, r6, r7, lr}
 847              		.cfi_def_cfa_offset 20
 848              		.cfi_offset 4, -20
 849              		.cfi_offset 5, -16
 850              		.cfi_offset 6, -12
 851              		.cfi_offset 7, -8
 852              		.cfi_offset 14, -4
 853 0004 0400     		movs	r4, r0
 854 0006 0E00     		movs	r6, r1
 855              	.LVL106:
 856 0008 8DB0     		sub	sp, sp, #52
 857              		.cfi_def_cfa_offset 72
 357:..\..\u8g2\csrc/u8g2_font.c ****   uint8_t cnt;	/* total number of remaining pixels, which have to be drawn */
 858              		.loc 1 357 0
 859 000a 0B92     		str	r2, [sp, #44]
 374:..\..\u8g2\csrc/u8g2_font.c ****   ly = decode->y;
 860              		.loc 1 374 0
 861 000c 5033     		adds	r3, r3, #80
 862              	.LVL107:
 863 000e 9F79     		ldrb	r7, [r3, #6]
 864              	.LVL108:
 375:..\..\u8g2\csrc/u8g2_font.c ****   
 865              		.loc 1 375 0
 866 0010 DB79     		ldrb	r3, [r3, #7]
 867              	.LVL109:
 868 0012 0593     		str	r3, [sp, #20]
 869              	.LVL110:
 870              	.L40:
 380:..\..\u8g2\csrc/u8g2_font.c ****     rem -= lx;
 871              		.loc 1 380 0
 872 0014 2500     		movs	r5, r4
 873 0016 5035     		adds	r5, r5, #80
 381:..\..\u8g2\csrc/u8g2_font.c ****     
 874              		.loc 1 381 0
 875 0018 2B7A     		ldrb	r3, [r5, #8]
 876 001a DB1B     		subs	r3, r3, r7
 877 001c DBB2     		uxtb	r3, r3
 878 001e 0393     		str	r3, [sp, #12]
 879              	.LVL111:
 880 0020 039A     		ldr	r2, [sp, #12]
 881 0022 331C     		adds	r3, r6, #0
 882 0024 9642     		cmp	r6, r2
 883 0026 01D9     		bls	.L36
 884              	.LVL112:
ARM GAS  C:\Users\gjl\AppData\Local\Temp\ccg70AS9.s 			page 36


 885 0028 6B46     		mov	r3, sp
 886              	.LVL113:
 887 002a 1B7B     		ldrb	r3, [r3, #12]
 888              	.L36:
 889 002c DBB2     		uxtb	r3, r3
 890 002e 0893     		str	r3, [sp, #32]
 891              	.LVL114:
 395:..\..\u8g2\csrc/u8g2_font.c **** 
 892              		.loc 1 395 0
 893 0030 6B79     		ldrb	r3, [r5, #5]
 394:..\..\u8g2\csrc/u8g2_font.c ****     y = decode->target_y;
 894              		.loc 1 394 0
 895 0032 2879     		ldrb	r0, [r5, #4]
 896              	.LVL115:
 395:..\..\u8g2\csrc/u8g2_font.c **** 
 897              		.loc 1 395 0
 898 0034 0A93     		str	r3, [sp, #40]
 899              	.LVL116:
 399:..\..\u8g2\csrc/u8g2_font.c ****     y = u8g2_add_vector_y(y, lx, ly, decode->dir);
 900              		.loc 1 399 0
 901 0036 6B46     		mov	r3, sp
 902 0038 1B7D     		ldrb	r3, [r3, #20]
 903 003a 79B2     		sxtb	r1, r7
 904 003c 5BB2     		sxtb	r3, r3
 905 003e 0693     		str	r3, [sp, #24]
 906 0040 AB7B     		ldrb	r3, [r5, #14]
 907 0042 069A     		ldr	r2, [sp, #24]
 908 0044 0493     		str	r3, [sp, #16]
 909 0046 0791     		str	r1, [sp, #28]
 910 0048 FFF7FEFF 		bl	u8g2_add_vector_x
 911              	.LVL117:
 400:..\..\u8g2\csrc/u8g2_font.c **** #else
 912              		.loc 1 400 0
 913 004c 049B     		ldr	r3, [sp, #16]
 399:..\..\u8g2\csrc/u8g2_font.c ****     y = u8g2_add_vector_y(y, lx, ly, decode->dir);
 914              		.loc 1 399 0
 915 004e 0990     		str	r0, [sp, #36]
 916              	.LVL118:
 400:..\..\u8g2\csrc/u8g2_font.c **** #else
 917              		.loc 1 400 0
 918 0050 069A     		ldr	r2, [sp, #24]
 919 0052 0799     		ldr	r1, [sp, #28]
 920 0054 0A98     		ldr	r0, [sp, #40]
 921 0056 FFF7FEFF 		bl	u8g2_add_vector_y
 922              	.LVL119:
 407:..\..\u8g2\csrc/u8g2_font.c ****     {
 923              		.loc 1 407 0
 924 005a 0B9B     		ldr	r3, [sp, #44]
 400:..\..\u8g2\csrc/u8g2_font.c **** #else
 925              		.loc 1 400 0
 926 005c 0200     		movs	r2, r0
 927              	.LVL120:
 407:..\..\u8g2\csrc/u8g2_font.c ****     {
 928              		.loc 1 407 0
 929 005e 002B     		cmp	r3, #0
 930 0060 01D0     		beq	.L37
 409:..\..\u8g2\csrc/u8g2_font.c ****       u8g2_DrawHVLine(u8g2, 
ARM GAS  C:\Users\gjl\AppData\Local\Temp\ccg70AS9.s 			page 37


 931              		.loc 1 409 0
 932 0062 297B     		ldrb	r1, [r5, #12]
 933 0064 03E0     		b	.L41
 934              	.L37:
 421:..\..\u8g2\csrc/u8g2_font.c ****     {
 935              		.loc 1 421 0
 936 0066 EB7A     		ldrb	r3, [r5, #11]
 937 0068 002B     		cmp	r3, #0
 938 006a 0AD1     		bne	.L38
 423:..\..\u8g2\csrc/u8g2_font.c ****       u8g2_DrawHVLine(u8g2, 
 939              		.loc 1 423 0
 940 006c 697B     		ldrb	r1, [r5, #13]
 941              	.L41:
 942 006e 2300     		movs	r3, r4
 943 0070 7C33     		adds	r3, r3, #124
 944 0072 1970     		strb	r1, [r3]
 424:..\..\u8g2\csrc/u8g2_font.c **** 	x, 
 945              		.loc 1 424 0
 946 0074 049B     		ldr	r3, [sp, #16]
 947 0076 0999     		ldr	r1, [sp, #36]
 948 0078 0093     		str	r3, [sp]
 949 007a 2000     		movs	r0, r4
 950 007c 089B     		ldr	r3, [sp, #32]
 951 007e FFF7FEFF 		bl	u8g2_DrawHVLine
 952              	.LVL121:
 953              	.L38:
 437:..\..\u8g2\csrc/u8g2_font.c ****       break;
 954              		.loc 1 437 0
 955 0082 039B     		ldr	r3, [sp, #12]
 956 0084 9E42     		cmp	r6, r3
 957 0086 07D3     		bcc	.L39
 439:..\..\u8g2\csrc/u8g2_font.c ****     lx = 0;
 958              		.loc 1 439 0
 959 0088 F31A     		subs	r3, r6, r3
 960 008a DEB2     		uxtb	r6, r3
 961              	.LVL122:
 441:..\..\u8g2\csrc/u8g2_font.c ****   }
 962              		.loc 1 441 0
 963 008c 059B     		ldr	r3, [sp, #20]
 440:..\..\u8g2\csrc/u8g2_font.c ****     ly++;
 964              		.loc 1 440 0
 965 008e 0027     		movs	r7, #0
 441:..\..\u8g2\csrc/u8g2_font.c ****   }
 966              		.loc 1 441 0
 967 0090 0133     		adds	r3, r3, #1
 968 0092 DBB2     		uxtb	r3, r3
 969 0094 0593     		str	r3, [sp, #20]
 970              	.LVL123:
 442:..\..\u8g2\csrc/u8g2_font.c ****   lx += cnt;
 971              		.loc 1 442 0
 972 0096 BDE7     		b	.L40
 973              	.LVL124:
 974              	.L39:
 445:..\..\u8g2\csrc/u8g2_font.c ****   decode->y = ly;
 975              		.loc 1 445 0
 976 0098 5034     		adds	r4, r4, #80
 977              	.LVL125:
ARM GAS  C:\Users\gjl\AppData\Local\Temp\ccg70AS9.s 			page 38


 978 009a F319     		adds	r3, r6, r7
 979 009c A371     		strb	r3, [r4, #6]
 446:..\..\u8g2\csrc/u8g2_font.c ****   
 980              		.loc 1 446 0
 981 009e 6B46     		mov	r3, sp
 982 00a0 1B7E     		ldrb	r3, [r3, #24]
 983 00a2 E371     		strb	r3, [r4, #7]
 448:..\..\u8g2\csrc/u8g2_font.c **** 
 984              		.loc 1 448 0
 985 00a4 0DB0     		add	sp, sp, #52
 986              		@ sp needed
 987              	.LVL126:
 988              	.LVL127:
 989 00a6 F0BD     		pop	{r4, r5, r6, r7, pc}
 990              		.cfi_endproc
 991              	.LFE13:
 992              		.size	u8g2_font_decode_len, .-u8g2_font_decode_len
 993              		.section	.text.u8g2_font_decode_glyph,"ax",%progbits
 994              		.align	1
 995              		.global	u8g2_font_decode_glyph
 996              		.code	16
 997              		.thumb_func
 998              		.type	u8g2_font_decode_glyph, %function
 999              	u8g2_font_decode_glyph:
 1000              	.LFB15:
 485:..\..\u8g2\csrc/u8g2_font.c ****   uint8_t a, b;
 1001              		.loc 1 485 0
 1002              		.cfi_startproc
 1003              		@ args = 0, pretend = 0, frame = 32
 1004              		@ frame_needed = 0, uses_anonymous_args = 0
 1005              	.LVL128:
 1006 0000 F0B5     		push	{r4, r5, r6, r7, lr}
 1007              		.cfi_def_cfa_offset 20
 1008              		.cfi_offset 4, -20
 1009              		.cfi_offset 5, -16
 1010              		.cfi_offset 6, -12
 1011              		.cfi_offset 7, -8
 1012              		.cfi_offset 14, -4
 1013 0002 0500     		movs	r5, r0
 1014 0004 8BB0     		sub	sp, sp, #44
 1015              		.cfi_def_cfa_offset 64
 490:..\..\u8g2\csrc/u8g2_font.c ****     
 1016              		.loc 1 490 0
 1017 0006 0700     		movs	r7, r0
 492:..\..\u8g2\csrc/u8g2_font.c ****   h = u8g2->font_decode.glyph_height;
 1018              		.loc 1 492 0
 1019 0008 FFF7FEFF 		bl	u8g2_font_setup_decode
 1020              	.LVL129:
 493:..\..\u8g2\csrc/u8g2_font.c ****   
 1021              		.loc 1 493 0
 1022 000c 2B00     		movs	r3, r5
 1023 000e 5933     		adds	r3, r3, #89
 1024 0010 1B78     		ldrb	r3, [r3]
 490:..\..\u8g2\csrc/u8g2_font.c ****     
 1025              		.loc 1 490 0
 1026 0012 5037     		adds	r7, r7, #80
 1027              	.LVL130:
ARM GAS  C:\Users\gjl\AppData\Local\Temp\ccg70AS9.s 			page 39


 493:..\..\u8g2\csrc/u8g2_font.c ****   
 1028              		.loc 1 493 0
 1029 0014 5BB2     		sxtb	r3, r3
 1030 0016 0693     		str	r3, [sp, #24]
 1031              	.LVL131:
 495:..\..\u8g2\csrc/u8g2_font.c ****   y = u8g2_font_decode_get_signed_bits(decode, u8g2->font_info.bits_per_char_y);
 1032              		.loc 1 495 0
 1033 0018 2B00     		movs	r3, r5
 1034 001a 6633     		adds	r3, r3, #102
 1035 001c 1978     		ldrb	r1, [r3]
 1036 001e 3800     		movs	r0, r7
 1037 0020 FFF7FEFF 		bl	u8g2_font_decode_get_signed_bits
 1038              	.LVL132:
 496:..\..\u8g2\csrc/u8g2_font.c ****   d = u8g2_font_decode_get_signed_bits(decode, u8g2->font_info.bits_per_delta_x);
 1039              		.loc 1 496 0
 1040 0024 2B00     		movs	r3, r5
 495:..\..\u8g2\csrc/u8g2_font.c ****   y = u8g2_font_decode_get_signed_bits(decode, u8g2->font_info.bits_per_char_y);
 1041              		.loc 1 495 0
 1042 0026 0890     		str	r0, [sp, #32]
 1043              	.LVL133:
 496:..\..\u8g2\csrc/u8g2_font.c ****   d = u8g2_font_decode_get_signed_bits(decode, u8g2->font_info.bits_per_delta_x);
 1044              		.loc 1 496 0
 1045 0028 6733     		adds	r3, r3, #103
 1046 002a 1978     		ldrb	r1, [r3]
 1047 002c 3800     		movs	r0, r7
 1048 002e FFF7FEFF 		bl	u8g2_font_decode_get_signed_bits
 1049              	.LVL134:
 497:..\..\u8g2\csrc/u8g2_font.c ****   
 1050              		.loc 1 497 0
 1051 0032 2B00     		movs	r3, r5
 1052 0034 6833     		adds	r3, r3, #104
 1053 0036 1978     		ldrb	r1, [r3]
 496:..\..\u8g2\csrc/u8g2_font.c ****   d = u8g2_font_decode_get_signed_bits(decode, u8g2->font_info.bits_per_delta_x);
 1054              		.loc 1 496 0
 1055 0038 0400     		movs	r4, r0
 1056              	.LVL135:
 497:..\..\u8g2\csrc/u8g2_font.c ****   
 1057              		.loc 1 497 0
 1058 003a 3800     		movs	r0, r7
 1059 003c FFF7FEFF 		bl	u8g2_font_decode_get_signed_bits
 1060              	.LVL136:
 499:..\..\u8g2\csrc/u8g2_font.c ****   {
 1061              		.loc 1 499 0
 1062 0040 0823     		movs	r3, #8
 497:..\..\u8g2\csrc/u8g2_font.c ****   
 1063              		.loc 1 497 0
 1064 0042 0990     		str	r0, [sp, #36]
 1065              	.LVL137:
 499:..\..\u8g2\csrc/u8g2_font.c ****   {
 1066              		.loc 1 499 0
 1067 0044 FB56     		ldrsb	r3, [r7, r3]
 1068 0046 0393     		str	r3, [sp, #12]
 1069 0048 002B     		cmp	r3, #0
 1070 004a 00DC     		bgt	.LCB891
 1071 004c 7FE0     		b	.L44	@long jump
 1072              	.LCB891:
 502:..\..\u8g2\csrc/u8g2_font.c ****     decode->target_y = u8g2_add_vector_y(decode->target_y, x, -(h+y), decode->dir);
ARM GAS  C:\Users\gjl\AppData\Local\Temp\ccg70AS9.s 			page 40


 1073              		.loc 1 502 0
 1074 004e 6B46     		mov	r3, sp
 1075 0050 1B7E     		ldrb	r3, [r3, #24]
 1076 0052 0899     		ldr	r1, [sp, #32]
 1077 0054 1C19     		adds	r4, r3, r4
 1078              	.LVL138:
 1079 0056 6442     		rsbs	r4, r4, #0
 1080 0058 0493     		str	r3, [sp, #16]
 1081 005a 63B2     		sxtb	r3, r4
 1082 005c 0793     		str	r3, [sp, #28]
 1083 005e BB7B     		ldrb	r3, [r7, #14]
 1084 0060 079A     		ldr	r2, [sp, #28]
 1085 0062 0593     		str	r3, [sp, #20]
 1086 0064 3879     		ldrb	r0, [r7, #4]
 1087 0066 FFF7FEFF 		bl	u8g2_add_vector_x
 1088              	.LVL139:
 503:..\..\u8g2\csrc/u8g2_font.c **** #else
 1089              		.loc 1 503 0
 1090 006a 059B     		ldr	r3, [sp, #20]
 502:..\..\u8g2\csrc/u8g2_font.c ****     decode->target_y = u8g2_add_vector_y(decode->target_y, x, -(h+y), decode->dir);
 1091              		.loc 1 502 0
 1092 006c 3871     		strb	r0, [r7, #4]
 503:..\..\u8g2\csrc/u8g2_font.c **** #else
 1093              		.loc 1 503 0
 1094 006e 079A     		ldr	r2, [sp, #28]
 1095 0070 0899     		ldr	r1, [sp, #32]
 502:..\..\u8g2\csrc/u8g2_font.c ****     decode->target_y = u8g2_add_vector_y(decode->target_y, x, -(h+y), decode->dir);
 1096              		.loc 1 502 0
 1097 0072 0600     		movs	r6, r0
 1098 0074 0400     		movs	r4, r0
 503:..\..\u8g2\csrc/u8g2_font.c **** #else
 1099              		.loc 1 503 0
 1100 0076 7879     		ldrb	r0, [r7, #5]
 1101 0078 FFF7FEFF 		bl	u8g2_add_vector_y
 1102              	.LVL140:
 1103              	.LBB55:
 519:..\..\u8g2\csrc/u8g2_font.c ****       {
 1104              		.loc 1 519 0
 1105 007c 059B     		ldr	r3, [sp, #20]
 1106              	.LBE55:
 503:..\..\u8g2\csrc/u8g2_font.c **** #else
 1107              		.loc 1 503 0
 1108 007e 0200     		movs	r2, r0
 1109 0080 0100     		movs	r1, r0
 1110 0082 7871     		strb	r0, [r7, #5]
 1111              	.LVL141:
 1112              	.LBB56:
 519:..\..\u8g2\csrc/u8g2_font.c ****       {
 1113              		.loc 1 519 0
 1114 0084 032B     		cmp	r3, #3
 1115 0086 2CD8     		bhi	.L54
 1116 0088 1800     		movs	r0, r3
 1117              	.LVL142:
 1118 008a FFF7FEFF 		bl	__gnu_thumb1_case_uqi
 1119              	.L47:
 1120 008e 02       		.byte	(.L46-.L47)/2
 1121 008f 09       		.byte	(.L48-.L47)/2
ARM GAS  C:\Users\gjl\AppData\Local\Temp\ccg70AS9.s 			page 41


 1122 0090 12       		.byte	(.L49-.L47)/2
 1123 0091 20       		.byte	(.L50-.L47)/2
 1124              		.p2align 1
 1125              	.L46:
 522:..\..\u8g2\csrc/u8g2_font.c **** 	    y1 += h;
 1126              		.loc 1 522 0
 1127 0092 039B     		ldr	r3, [sp, #12]
 523:..\..\u8g2\csrc/u8g2_font.c **** 	    break;
 1128              		.loc 1 523 0
 1129 0094 0498     		ldr	r0, [sp, #16]
 522:..\..\u8g2\csrc/u8g2_font.c **** 	    y1 += h;
 1130              		.loc 1 522 0
 1131 0096 F418     		adds	r4, r6, r3
 523:..\..\u8g2\csrc/u8g2_font.c **** 	    break;
 1132              		.loc 1 523 0
 1133 0098 8118     		adds	r1, r0, r2
 522:..\..\u8g2\csrc/u8g2_font.c **** 	    y1 += h;
 1134              		.loc 1 522 0
 1135 009a E3B2     		uxtb	r3, r4
 1136              	.LVL143:
 523:..\..\u8g2\csrc/u8g2_font.c **** 	    break;
 1137              		.loc 1 523 0
 1138 009c C9B2     		uxtb	r1, r1
 1139              	.LVL144:
 524:..\..\u8g2\csrc/u8g2_font.c **** 	case 1:
 1140              		.loc 1 524 0
 1141 009e 22E0     		b	.L45
 1142              	.LVL145:
 1143              	.L48:
 527:..\..\u8g2\csrc/u8g2_font.c **** 	    x1++;
 1144              		.loc 1 527 0
 1145 00a0 049B     		ldr	r3, [sp, #16]
 529:..\..\u8g2\csrc/u8g2_font.c **** 	    break;
 1146              		.loc 1 529 0
 1147 00a2 0398     		ldr	r0, [sp, #12]
 527:..\..\u8g2\csrc/u8g2_font.c **** 	    x1++;
 1148              		.loc 1 527 0
 1149 00a4 F61A     		subs	r6, r6, r3
 1150              	.LVL146:
 528:..\..\u8g2\csrc/u8g2_font.c **** 	    y1 += decode->glyph_width;
 1151              		.loc 1 528 0
 1152 00a6 0134     		adds	r4, r4, #1
 529:..\..\u8g2\csrc/u8g2_font.c **** 	    break;
 1153              		.loc 1 529 0
 1154 00a8 1118     		adds	r1, r2, r0
 527:..\..\u8g2\csrc/u8g2_font.c **** 	    x1++;
 1155              		.loc 1 527 0
 1156 00aa 0136     		adds	r6, r6, #1
 1157              	.LVL147:
 528:..\..\u8g2\csrc/u8g2_font.c **** 	    y1 += decode->glyph_width;
 1158              		.loc 1 528 0
 1159 00ac E3B2     		uxtb	r3, r4
 1160              	.LVL148:
 529:..\..\u8g2\csrc/u8g2_font.c **** 	    break;
 1161              		.loc 1 529 0
 1162 00ae C9B2     		uxtb	r1, r1
 1163              	.LVL149:
ARM GAS  C:\Users\gjl\AppData\Local\Temp\ccg70AS9.s 			page 42


 1164 00b0 0BE0     		b	.L60
 1165              	.LVL150:
 1166              	.L49:
 533:..\..\u8g2\csrc/u8g2_font.c **** 	    x1++;
 1167              		.loc 1 533 0
 1168 00b2 0122     		movs	r2, #1
 1169 00b4 039B     		ldr	r3, [sp, #12]
 536:..\..\u8g2\csrc/u8g2_font.c **** 	    y1++;
 1170              		.loc 1 536 0
 1171 00b6 0498     		ldr	r0, [sp, #16]
 533:..\..\u8g2\csrc/u8g2_font.c **** 	    x1++;
 1172              		.loc 1 533 0
 1173 00b8 D61A     		subs	r6, r2, r3
 1174              	.LVL151:
 1175 00ba A619     		adds	r6, r4, r6
 1176              	.LVL152:
 534:..\..\u8g2\csrc/u8g2_font.c **** 	    y0 -= h;
 1177              		.loc 1 534 0
 1178 00bc A418     		adds	r4, r4, r2
 536:..\..\u8g2\csrc/u8g2_font.c **** 	    y1++;
 1179              		.loc 1 536 0
 1180 00be 121A     		subs	r2, r2, r0
 1181 00c0 8A18     		adds	r2, r1, r2
 537:..\..\u8g2\csrc/u8g2_font.c **** 	    break;	  
 1182              		.loc 1 537 0
 1183 00c2 0131     		adds	r1, r1, #1
 534:..\..\u8g2\csrc/u8g2_font.c **** 	    y0 -= h;
 1184              		.loc 1 534 0
 1185 00c4 E3B2     		uxtb	r3, r4
 1186              	.LVL153:
 537:..\..\u8g2\csrc/u8g2_font.c **** 	    break;	  
 1187              		.loc 1 537 0
 1188 00c6 C9B2     		uxtb	r1, r1
 1189              	.LVL154:
 536:..\..\u8g2\csrc/u8g2_font.c **** 	    y1++;
 1190              		.loc 1 536 0
 1191 00c8 D2B2     		uxtb	r2, r2
 1192              	.LVL155:
 1193              	.L60:
 533:..\..\u8g2\csrc/u8g2_font.c **** 	    x1++;
 1194              		.loc 1 533 0
 1195 00ca F6B2     		uxtb	r6, r6
 538:..\..\u8g2\csrc/u8g2_font.c **** 	case 3:
 1196              		.loc 1 538 0
 1197 00cc 0BE0     		b	.L45
 1198              	.LVL156:
 1199              	.L50:
 542:..\..\u8g2\csrc/u8g2_font.c **** 	    y1++;
 1200              		.loc 1 542 0
 1201 00ce 039A     		ldr	r2, [sp, #12]
 540:..\..\u8g2\csrc/u8g2_font.c **** 	    y0 -= decode->glyph_width;
 1202              		.loc 1 540 0
 1203 00d0 049B     		ldr	r3, [sp, #16]
 542:..\..\u8g2\csrc/u8g2_font.c **** 	    y1++;
 1204              		.loc 1 542 0
 1205 00d2 8A1A     		subs	r2, r1, r2
 540:..\..\u8g2\csrc/u8g2_font.c **** 	    y0 -= decode->glyph_width;
ARM GAS  C:\Users\gjl\AppData\Local\Temp\ccg70AS9.s 			page 43


 1206              		.loc 1 540 0
 1207 00d4 9C19     		adds	r4, r3, r6
 542:..\..\u8g2\csrc/u8g2_font.c **** 	    y1++;
 1208              		.loc 1 542 0
 1209 00d6 0132     		adds	r2, r2, #1
 543:..\..\u8g2\csrc/u8g2_font.c **** 	    break;	  
 1210              		.loc 1 543 0
 1211 00d8 0131     		adds	r1, r1, #1
 540:..\..\u8g2\csrc/u8g2_font.c **** 	    y0 -= decode->glyph_width;
 1212              		.loc 1 540 0
 1213 00da E3B2     		uxtb	r3, r4
 1214              	.LVL157:
 543:..\..\u8g2\csrc/u8g2_font.c **** 	    break;	  
 1215              		.loc 1 543 0
 1216 00dc C9B2     		uxtb	r1, r1
 1217              	.LVL158:
 542:..\..\u8g2\csrc/u8g2_font.c **** 	    y1++;
 1218              		.loc 1 542 0
 1219 00de D2B2     		uxtb	r2, r2
 544:..\..\u8g2\csrc/u8g2_font.c ****       }
 1220              		.loc 1 544 0
 1221 00e0 01E0     		b	.L45
 1222              	.LVL159:
 1223              	.L54:
 516:..\..\u8g2\csrc/u8g2_font.c ****       
 1224              		.loc 1 516 0
 1225 00e2 0100     		movs	r1, r0
 515:..\..\u8g2\csrc/u8g2_font.c ****       y1 = y0;
 1226              		.loc 1 515 0
 1227 00e4 3300     		movs	r3, r6
 1228              	.LVL160:
 1229              	.L45:
 551:..\..\u8g2\csrc/u8g2_font.c **** 	return d;
 1230              		.loc 1 551 0
 1231 00e6 0091     		str	r1, [sp]
 1232 00e8 2800     		movs	r0, r5
 1233 00ea 3100     		movs	r1, r6
 1234              	.LVL161:
 1235 00ec FFF7FEFF 		bl	u8g2_IsIntersection
 1236              	.LVL162:
 1237 00f0 0028     		cmp	r0, #0
 1238 00f2 2CD0     		beq	.L44
 1239              	.LBE56:
 557:..\..\u8g2\csrc/u8g2_font.c ****     decode->y = 0;
 1240              		.loc 1 557 0
 1241 00f4 2B00     		movs	r3, r5
 1242 00f6 0022     		movs	r2, #0
 1243 00f8 5033     		adds	r3, r3, #80
 1244 00fa 9A71     		strb	r2, [r3, #6]
 558:..\..\u8g2\csrc/u8g2_font.c ****     
 1245              		.loc 1 558 0
 1246 00fc DA71     		strb	r2, [r3, #7]
 1247              	.LVL163:
 1248              	.L53:
 563:..\..\u8g2\csrc/u8g2_font.c ****       b = u8g2_font_decode_get_unsigned_bits(decode, u8g2->font_info.bits_per_1);
 1249              		.loc 1 563 0
 1250 00fe 2B00     		movs	r3, r5
ARM GAS  C:\Users\gjl\AppData\Local\Temp\ccg70AS9.s 			page 44


 1251 0100 6233     		adds	r3, r3, #98
 1252 0102 1978     		ldrb	r1, [r3]
 1253 0104 3800     		movs	r0, r7
 1254 0106 FFF7FEFF 		bl	u8g2_font_decode_get_unsigned_bits
 1255              	.LVL164:
 564:..\..\u8g2\csrc/u8g2_font.c ****       do
 1256              		.loc 1 564 0
 1257 010a 2B00     		movs	r3, r5
 1258 010c 6333     		adds	r3, r3, #99
 563:..\..\u8g2\csrc/u8g2_font.c ****       b = u8g2_font_decode_get_unsigned_bits(decode, u8g2->font_info.bits_per_1);
 1259              		.loc 1 563 0
 1260 010e 0600     		movs	r6, r0
 1261              	.LVL165:
 564:..\..\u8g2\csrc/u8g2_font.c ****       do
 1262              		.loc 1 564 0
 1263 0110 1978     		ldrb	r1, [r3]
 1264 0112 3800     		movs	r0, r7
 1265              	.LVL166:
 1266 0114 FFF7FEFF 		bl	u8g2_font_decode_get_unsigned_bits
 1267              	.LVL167:
 1268 0118 0400     		movs	r4, r0
 1269              	.LVL168:
 1270              	.L52:
 567:..\..\u8g2\csrc/u8g2_font.c **** 	u8g2_font_decode_len(u8g2, b, 1);
 1271              		.loc 1 567 0 discriminator 1
 1272 011a 0022     		movs	r2, #0
 1273 011c 3100     		movs	r1, r6
 1274 011e 2800     		movs	r0, r5
 1275 0120 FFF7FEFF 		bl	u8g2_font_decode_len
 1276              	.LVL169:
 568:..\..\u8g2\csrc/u8g2_font.c ****       } while( u8g2_font_decode_get_unsigned_bits(decode, 1) != 0 );
 1277              		.loc 1 568 0 discriminator 1
 1278 0124 2100     		movs	r1, r4
 1279 0126 2800     		movs	r0, r5
 1280 0128 0122     		movs	r2, #1
 1281 012a FFF7FEFF 		bl	u8g2_font_decode_len
 1282              	.LVL170:
 569:..\..\u8g2\csrc/u8g2_font.c **** 
 1283              		.loc 1 569 0 discriminator 1
 1284 012e 0121     		movs	r1, #1
 1285 0130 3800     		movs	r0, r7
 1286 0132 FFF7FEFF 		bl	u8g2_font_decode_get_unsigned_bits
 1287              	.LVL171:
 1288 0136 0028     		cmp	r0, #0
 1289 0138 EFD1     		bne	.L52
 571:..\..\u8g2\csrc/u8g2_font.c **** 	break;
 1290              		.loc 1 571 0
 1291 013a 2B00     		movs	r3, r5
 1292 013c 0722     		movs	r2, #7
 1293 013e 5033     		adds	r3, r3, #80
 1294 0140 9A56     		ldrsb	r2, [r3, r2]
 1295 0142 0699     		ldr	r1, [sp, #24]
 1296 0144 8A42     		cmp	r2, r1
 1297 0146 DADB     		blt	.L53
 576:..\..\u8g2\csrc/u8g2_font.c ****   }
 1298              		.loc 1 576 0
 1299 0148 1B7B     		ldrb	r3, [r3, #12]
ARM GAS  C:\Users\gjl\AppData\Local\Temp\ccg70AS9.s 			page 45


 1300 014a 7C35     		adds	r5, r5, #124
 1301              	.LVL172:
 1302 014c 2B70     		strb	r3, [r5]
 1303              	.LVL173:
 1304              	.L44:
 579:..\..\u8g2\csrc/u8g2_font.c **** 
 1305              		.loc 1 579 0
 1306 014e 0998     		ldr	r0, [sp, #36]
 1307 0150 0BB0     		add	sp, sp, #44
 1308              		@ sp needed
 1309              	.LVL174:
 1310 0152 F0BD     		pop	{r4, r5, r6, r7, pc}
 1311              		.cfi_endproc
 1312              	.LFE15:
 1313              		.size	u8g2_font_decode_glyph, .-u8g2_font_decode_glyph
 1314              		.section	.text.u8g2_font_get_glyph_data,"ax",%progbits
 1315              		.align	1
 1316              		.global	u8g2_font_get_glyph_data
 1317              		.code	16
 1318              		.thumb_func
 1319              		.type	u8g2_font_get_glyph_data, %function
 1320              	u8g2_font_get_glyph_data:
 1321              	.LFB16:
 590:..\..\u8g2\csrc/u8g2_font.c ****   const uint8_t *font = u8g2->font;
 1322              		.loc 1 590 0
 1323              		.cfi_startproc
 1324              		@ args = 0, pretend = 0, frame = 0
 1325              		@ frame_needed = 0, uses_anonymous_args = 0
 1326              		@ link register save eliminated.
 1327              	.LVL175:
 592:..\..\u8g2\csrc/u8g2_font.c **** 
 1328              		.loc 1 592 0
 1329 0000 826C     		ldr	r2, [r0, #72]
 1330 0002 1732     		adds	r2, r2, #23
 1331              	.LVL176:
 595:..\..\u8g2\csrc/u8g2_font.c ****   {
 1332              		.loc 1 595 0
 1333 0004 FF29     		cmp	r1, #255
 1334 0006 10D8     		bhi	.L62
 597:..\..\u8g2\csrc/u8g2_font.c ****     {
 1335              		.loc 1 597 0
 1336 0008 6029     		cmp	r1, #96
 1337 000a 01D9     		bls	.L63
 599:..\..\u8g2\csrc/u8g2_font.c ****     }
 1338              		.loc 1 599 0
 1339 000c 7430     		adds	r0, r0, #116
 1340              	.LVL177:
 1341 000e 02E0     		b	.L72
 1342              	.LVL178:
 1343              	.L63:
 601:..\..\u8g2\csrc/u8g2_font.c ****     {
 1344              		.loc 1 601 0
 1345 0010 4029     		cmp	r1, #64
 1346 0012 02D9     		bls	.L67
 603:..\..\u8g2\csrc/u8g2_font.c ****     }
 1347              		.loc 1 603 0
 1348 0014 7230     		adds	r0, r0, #114
ARM GAS  C:\Users\gjl\AppData\Local\Temp\ccg70AS9.s 			page 46


 1349              	.LVL179:
 1350              	.L72:
 1351 0016 0388     		ldrh	r3, [r0]
 1352              	.L73:
 1353 0018 D218     		adds	r2, r2, r3
 1354              	.LVL180:
 1355              	.L67:
 608:..\..\u8g2\csrc/u8g2_font.c **** 	break;
 1356              		.loc 1 608 0
 1357 001a 5378     		ldrb	r3, [r2, #1]
 1358 001c 002B     		cmp	r3, #0
 1359 001e 13D0     		beq	.L71
 610:..\..\u8g2\csrc/u8g2_font.c ****       {
 1360              		.loc 1 610 0
 1361 0020 1078     		ldrb	r0, [r2]
 1362 0022 8842     		cmp	r0, r1
 1363 0024 F8D1     		bne	.L73
 612:..\..\u8g2\csrc/u8g2_font.c ****       }
 1364              		.loc 1 612 0
 1365 0026 901C     		adds	r0, r2, #2
 1366 0028 0FE0     		b	.L65
 1367              	.LVL181:
 1368              	.L62:
 1369              	.LBB57:
 621:..\..\u8g2\csrc/u8g2_font.c ****     for(;;)
 1370              		.loc 1 621 0
 1371 002a 7630     		adds	r0, r0, #118
 1372              	.LVL182:
 1373 002c 0088     		ldrh	r0, [r0]
 1374              	.LVL183:
 1375 002e 1018     		adds	r0, r2, r0
 1376              	.LVL184:
 1377              	.L69:
 624:..\..\u8g2\csrc/u8g2_font.c ****       e <<= 8;
 1378              		.loc 1 624 0
 1379 0030 0378     		ldrb	r3, [r0]
 1380              	.LVL185:
 626:..\..\u8g2\csrc/u8g2_font.c ****   
 1381              		.loc 1 626 0
 1382 0032 4278     		ldrb	r2, [r0, #1]
 625:..\..\u8g2\csrc/u8g2_font.c ****       e |= u8x8_pgm_read( font + 1 );
 1383              		.loc 1 625 0
 1384 0034 1B02     		lsls	r3, r3, #8
 1385              	.LVL186:
 626:..\..\u8g2\csrc/u8g2_font.c ****   
 1386              		.loc 1 626 0
 1387 0036 1343     		orrs	r3, r2
 1388              	.LVL187:
 628:..\..\u8g2\csrc/u8g2_font.c **** 	break;
 1389              		.loc 1 628 0
 1390 0038 06D0     		beq	.L71
 631:..\..\u8g2\csrc/u8g2_font.c ****       {
 1391              		.loc 1 631 0
 1392 003a 9942     		cmp	r1, r3
 1393 003c 01D1     		bne	.L68
 633:..\..\u8g2\csrc/u8g2_font.c ****       }
 1394              		.loc 1 633 0
ARM GAS  C:\Users\gjl\AppData\Local\Temp\ccg70AS9.s 			page 47


 1395 003e 0330     		adds	r0, r0, #3
 1396              	.LVL188:
 1397 0040 03E0     		b	.L65
 1398              	.LVL189:
 1399              	.L68:
 635:..\..\u8g2\csrc/u8g2_font.c ****     }  
 1400              		.loc 1 635 0
 1401 0042 8378     		ldrb	r3, [r0, #2]
 1402              	.LVL190:
 1403 0044 C018     		adds	r0, r0, r3
 1404              	.LVL191:
 636:..\..\u8g2\csrc/u8g2_font.c ****   }
 1405              		.loc 1 636 0
 1406 0046 F3E7     		b	.L69
 1407              	.LVL192:
 1408              	.L71:
 1409              	.LBE57:
 640:..\..\u8g2\csrc/u8g2_font.c **** }
 1410              		.loc 1 640 0
 1411 0048 1800     		movs	r0, r3
 1412              	.L65:
 641:..\..\u8g2\csrc/u8g2_font.c **** 
 1413              		.loc 1 641 0
 1414              		@ sp needed
 1415 004a 7047     		bx	lr
 1416              		.cfi_endproc
 1417              	.LFE16:
 1418              		.size	u8g2_font_get_glyph_data, .-u8g2_font_get_glyph_data
 1419              		.section	.text.u8g2_GetGlyphHorizontalProperties,"ax",%progbits
 1420              		.align	1
 1421              		.code	16
 1422              		.thumb_func
 1423              		.type	u8g2_GetGlyphHorizontalProperties, %function
 1424              	u8g2_GetGlyphHorizontalProperties:
 1425              	.LFB41:
 978:..\..\u8g2\csrc/u8g2_font.c **** 
 979:..\..\u8g2\csrc/u8g2_font.c **** void u8g2_SetFontPosCenter(u8g2_t *u8g2)
 980:..\..\u8g2\csrc/u8g2_font.c **** {
 981:..\..\u8g2\csrc/u8g2_font.c ****   u8g2->font_calc_vref = u8g2_font_calc_vref_center;
 982:..\..\u8g2\csrc/u8g2_font.c **** }
 983:..\..\u8g2\csrc/u8g2_font.c **** 
 984:..\..\u8g2\csrc/u8g2_font.c **** /*===============================================*/
 985:..\..\u8g2\csrc/u8g2_font.c **** 
 986:..\..\u8g2\csrc/u8g2_font.c **** void u8g2_SetFont(u8g2_t *u8g2, const uint8_t  *font)
 987:..\..\u8g2\csrc/u8g2_font.c **** {
 988:..\..\u8g2\csrc/u8g2_font.c ****   if ( u8g2->font != font )
 989:..\..\u8g2\csrc/u8g2_font.c ****   {
 990:..\..\u8g2\csrc/u8g2_font.c ****     u8g2->font = font;
 991:..\..\u8g2\csrc/u8g2_font.c ****     u8g2_read_font_info(&(u8g2->font_info), font);
 992:..\..\u8g2\csrc/u8g2_font.c ****     u8g2_UpdateRefHeight(u8g2);
 993:..\..\u8g2\csrc/u8g2_font.c ****     /* u8g2_SetFontPosBaseline(u8g2); */ /* removed with issue 195 */
 994:..\..\u8g2\csrc/u8g2_font.c ****   }
 995:..\..\u8g2\csrc/u8g2_font.c **** }
 996:..\..\u8g2\csrc/u8g2_font.c **** 
 997:..\..\u8g2\csrc/u8g2_font.c **** /*===============================================*/
 998:..\..\u8g2\csrc/u8g2_font.c **** 
 999:..\..\u8g2\csrc/u8g2_font.c **** /* string calculation is stilll not 100% perfect as it addes the initial string offset to the overa
ARM GAS  C:\Users\gjl\AppData\Local\Temp\ccg70AS9.s 			page 48


1000:..\..\u8g2\csrc/u8g2_font.c **** static u8g2_uint_t u8g2_string_width(u8g2_t *u8g2, const char *str) U8G2_NOINLINE;
1001:..\..\u8g2\csrc/u8g2_font.c **** static u8g2_uint_t u8g2_string_width(u8g2_t *u8g2, const char *str)
1002:..\..\u8g2\csrc/u8g2_font.c **** {
1003:..\..\u8g2\csrc/u8g2_font.c ****   uint16_t e;
1004:..\..\u8g2\csrc/u8g2_font.c ****   u8g2_uint_t  w, dx;
1005:..\..\u8g2\csrc/u8g2_font.c ****   
1006:..\..\u8g2\csrc/u8g2_font.c ****   u8g2->font_decode.glyph_width = 0;
1007:..\..\u8g2\csrc/u8g2_font.c ****   u8x8_utf8_init(u8g2_GetU8x8(u8g2));
1008:..\..\u8g2\csrc/u8g2_font.c ****   
1009:..\..\u8g2\csrc/u8g2_font.c ****   /* reset the total width to zero, this will be expanded during calculation */
1010:..\..\u8g2\csrc/u8g2_font.c ****   w = 0;
1011:..\..\u8g2\csrc/u8g2_font.c ****   dx = 0;
1012:..\..\u8g2\csrc/u8g2_font.c **** 
1013:..\..\u8g2\csrc/u8g2_font.c ****   // printf("str=<%s>\n", str);
1014:..\..\u8g2\csrc/u8g2_font.c **** 	
1015:..\..\u8g2\csrc/u8g2_font.c ****   for(;;)
1016:..\..\u8g2\csrc/u8g2_font.c ****   {
1017:..\..\u8g2\csrc/u8g2_font.c ****     e = u8g2->u8x8.next_cb(u8g2_GetU8x8(u8g2), (uint8_t)*str);
1018:..\..\u8g2\csrc/u8g2_font.c ****     if ( e == 0x0ffff )
1019:..\..\u8g2\csrc/u8g2_font.c ****       break;
1020:..\..\u8g2\csrc/u8g2_font.c ****     str++;
1021:..\..\u8g2\csrc/u8g2_font.c ****     if ( e != 0x0fffe )
1022:..\..\u8g2\csrc/u8g2_font.c ****     {
1023:..\..\u8g2\csrc/u8g2_font.c ****       dx = u8g2_GetGlyphWidth(u8g2, e);		/* delta x value of the glyph */
1024:..\..\u8g2\csrc/u8g2_font.c ****       w += dx;
1025:..\..\u8g2\csrc/u8g2_font.c ****     }
1026:..\..\u8g2\csrc/u8g2_font.c ****   }
1027:..\..\u8g2\csrc/u8g2_font.c ****   
1028:..\..\u8g2\csrc/u8g2_font.c ****   /* adjust the last glyph, check for issue #16: do not adjust if width is 0 */
1029:..\..\u8g2\csrc/u8g2_font.c ****   if ( u8g2->font_decode.glyph_width != 0 )
1030:..\..\u8g2\csrc/u8g2_font.c ****   {
1031:..\..\u8g2\csrc/u8g2_font.c ****     w -= dx;
1032:..\..\u8g2\csrc/u8g2_font.c ****     w += u8g2->font_decode.glyph_width;  /* the real pixel width of the glyph, sideeffect of GetGly
1033:..\..\u8g2\csrc/u8g2_font.c ****     /* issue #46: we have to add the x offset also */
1034:..\..\u8g2\csrc/u8g2_font.c ****     w += u8g2->glyph_x_offset;	/* this value is set as a side effect of u8g2_GetGlyphWidth() */
1035:..\..\u8g2\csrc/u8g2_font.c ****   }
1036:..\..\u8g2\csrc/u8g2_font.c ****   // printf("w=%d \n", w);
1037:..\..\u8g2\csrc/u8g2_font.c ****   
1038:..\..\u8g2\csrc/u8g2_font.c ****   return w;  
1039:..\..\u8g2\csrc/u8g2_font.c **** }
1040:..\..\u8g2\csrc/u8g2_font.c **** 
1041:..\..\u8g2\csrc/u8g2_font.c **** static void u8g2_GetGlyphHorizontalProperties(u8g2_t *u8g2, uint16_t requested_encoding, uint8_t *w
1042:..\..\u8g2\csrc/u8g2_font.c **** {
 1426              		.loc 1 1042 0
 1427              		.cfi_startproc
 1428              		@ args = 4, pretend = 0, frame = 0
 1429              		@ frame_needed = 0, uses_anonymous_args = 0
 1430              	.LVL193:
 1431 0000 70B5     		push	{r4, r5, r6, lr}
 1432              		.cfi_def_cfa_offset 16
 1433              		.cfi_offset 4, -16
 1434              		.cfi_offset 5, -12
 1435              		.cfi_offset 6, -8
 1436              		.cfi_offset 14, -4
 1437              		.loc 1 1042 0
 1438 0002 0400     		movs	r4, r0
 1439 0004 1500     		movs	r5, r2
ARM GAS  C:\Users\gjl\AppData\Local\Temp\ccg70AS9.s 			page 49


 1440 0006 1E00     		movs	r6, r3
1043:..\..\u8g2\csrc/u8g2_font.c ****   const uint8_t *glyph_data = u8g2_font_get_glyph_data(u8g2, requested_encoding);
 1441              		.loc 1 1043 0
 1442 0008 FFF7FEFF 		bl	u8g2_font_get_glyph_data
 1443              	.LVL194:
 1444 000c 011E     		subs	r1, r0, #0
 1445              	.LVL195:
1044:..\..\u8g2\csrc/u8g2_font.c ****   if ( glyph_data == NULL )
 1446              		.loc 1 1044 0
 1447 000e 1CD0     		beq	.L74
1045:..\..\u8g2\csrc/u8g2_font.c ****     return; 
1046:..\..\u8g2\csrc/u8g2_font.c ****   
1047:..\..\u8g2\csrc/u8g2_font.c ****   u8g2_font_setup_decode(u8g2, glyph_data);
 1448              		.loc 1 1047 0
 1449 0010 2000     		movs	r0, r4
 1450              	.LVL196:
 1451 0012 FFF7FEFF 		bl	u8g2_font_setup_decode
 1452              	.LVL197:
1048:..\..\u8g2\csrc/u8g2_font.c ****   *w = u8g2->font_decode.glyph_width;
 1453              		.loc 1 1048 0
 1454 0016 2300     		movs	r3, r4
 1455 0018 5833     		adds	r3, r3, #88
 1456 001a 1B78     		ldrb	r3, [r3]
 1457 001c 2B70     		strb	r3, [r5]
1049:..\..\u8g2\csrc/u8g2_font.c ****   *ox =  u8g2_font_decode_get_signed_bits(&(u8g2->font_decode), u8g2->font_info.bits_per_char_x);
 1458              		.loc 1 1049 0
 1459 001e 2500     		movs	r5, r4
 1460              	.LVL198:
 1461 0020 2300     		movs	r3, r4
 1462 0022 5035     		adds	r5, r5, #80
 1463 0024 6633     		adds	r3, r3, #102
 1464 0026 1978     		ldrb	r1, [r3]
 1465 0028 2800     		movs	r0, r5
 1466 002a FFF7FEFF 		bl	u8g2_font_decode_get_signed_bits
 1467              	.LVL199:
1050:..\..\u8g2\csrc/u8g2_font.c ****   u8g2_font_decode_get_signed_bits(&(u8g2->font_decode), u8g2->font_info.bits_per_char_y);
 1468              		.loc 1 1050 0
 1469 002e 2300     		movs	r3, r4
1049:..\..\u8g2\csrc/u8g2_font.c ****   *ox =  u8g2_font_decode_get_signed_bits(&(u8g2->font_decode), u8g2->font_info.bits_per_char_x);
 1470              		.loc 1 1049 0
 1471 0030 3070     		strb	r0, [r6]
 1472              		.loc 1 1050 0
 1473 0032 6733     		adds	r3, r3, #103
 1474 0034 1978     		ldrb	r1, [r3]
 1475 0036 2800     		movs	r0, r5
1051:..\..\u8g2\csrc/u8g2_font.c ****   *dx = u8g2_font_decode_get_signed_bits(&(u8g2->font_decode), u8g2->font_info.bits_per_delta_x);
 1476              		.loc 1 1051 0
 1477 0038 6834     		adds	r4, r4, #104
 1478              	.LVL200:
1050:..\..\u8g2\csrc/u8g2_font.c ****   u8g2_font_decode_get_signed_bits(&(u8g2->font_decode), u8g2->font_info.bits_per_char_y);
 1479              		.loc 1 1050 0
 1480 003a FFF7FEFF 		bl	u8g2_font_decode_get_signed_bits
 1481              	.LVL201:
 1482              		.loc 1 1051 0
 1483 003e 2178     		ldrb	r1, [r4]
 1484 0040 2800     		movs	r0, r5
 1485 0042 FFF7FEFF 		bl	u8g2_font_decode_get_signed_bits
ARM GAS  C:\Users\gjl\AppData\Local\Temp\ccg70AS9.s 			page 50


 1486              	.LVL202:
 1487 0046 049B     		ldr	r3, [sp, #16]
 1488 0048 1870     		strb	r0, [r3]
 1489              	.LVL203:
 1490              	.L74:
1052:..\..\u8g2\csrc/u8g2_font.c **** }
 1491              		.loc 1 1052 0
 1492              		@ sp needed
 1493              	.LVL204:
 1494 004a 70BD     		pop	{r4, r5, r6, pc}
 1495              		.cfi_endproc
 1496              	.LFE41:
 1497              		.size	u8g2_GetGlyphHorizontalProperties, .-u8g2_GetGlyphHorizontalProperties
 1498              		.section	.text.u8g2_IsGlyph,"ax",%progbits
 1499              		.align	1
 1500              		.global	u8g2_IsGlyph
 1501              		.code	16
 1502              		.thumb_func
 1503              		.type	u8g2_IsGlyph, %function
 1504              	u8g2_IsGlyph:
 1505              	.LFB18:
 661:..\..\u8g2\csrc/u8g2_font.c ****   /* updated to new code */
 1506              		.loc 1 661 0
 1507              		.cfi_startproc
 1508              		@ args = 0, pretend = 0, frame = 0
 1509              		@ frame_needed = 0, uses_anonymous_args = 0
 1510              	.LVL205:
 1511 0000 10B5     		push	{r4, lr}
 1512              		.cfi_def_cfa_offset 8
 1513              		.cfi_offset 4, -8
 1514              		.cfi_offset 14, -4
 663:..\..\u8g2\csrc/u8g2_font.c ****     return 1;
 1515              		.loc 1 663 0
 1516 0002 FFF7FEFF 		bl	u8g2_font_get_glyph_data
 1517              	.LVL206:
 1518 0006 431E     		subs	r3, r0, #1
 1519 0008 9841     		sbcs	r0, r0, r3
 666:..\..\u8g2\csrc/u8g2_font.c **** 
 1520              		.loc 1 666 0
 1521              		@ sp needed
 1522 000a C0B2     		uxtb	r0, r0
 1523 000c 10BD     		pop	{r4, pc}
 1524              		.cfi_endproc
 1525              	.LFE18:
 1526              		.size	u8g2_IsGlyph, .-u8g2_IsGlyph
 1527              		.section	.text.u8g2_GetGlyphWidth,"ax",%progbits
 1528              		.align	1
 1529              		.global	u8g2_GetGlyphWidth
 1530              		.code	16
 1531              		.thumb_func
 1532              		.type	u8g2_GetGlyphWidth, %function
 1533              	u8g2_GetGlyphWidth:
 1534              	.LFB19:
 670:..\..\u8g2\csrc/u8g2_font.c ****   const uint8_t *glyph_data = u8g2_font_get_glyph_data(u8g2, requested_encoding);
 1535              		.loc 1 670 0
 1536              		.cfi_startproc
 1537              		@ args = 0, pretend = 0, frame = 0
ARM GAS  C:\Users\gjl\AppData\Local\Temp\ccg70AS9.s 			page 51


 1538              		@ frame_needed = 0, uses_anonymous_args = 0
 1539              	.LVL207:
 1540 0000 70B5     		push	{r4, r5, r6, lr}
 1541              		.cfi_def_cfa_offset 16
 1542              		.cfi_offset 4, -16
 1543              		.cfi_offset 5, -12
 1544              		.cfi_offset 6, -8
 1545              		.cfi_offset 14, -4
 670:..\..\u8g2\csrc/u8g2_font.c ****   const uint8_t *glyph_data = u8g2_font_get_glyph_data(u8g2, requested_encoding);
 1546              		.loc 1 670 0
 1547 0002 0400     		movs	r4, r0
 671:..\..\u8g2\csrc/u8g2_font.c ****   if ( glyph_data == NULL )
 1548              		.loc 1 671 0
 1549 0004 FFF7FEFF 		bl	u8g2_font_get_glyph_data
 1550              	.LVL208:
 1551 0008 011E     		subs	r1, r0, #0
 1552              	.LVL209:
 672:..\..\u8g2\csrc/u8g2_font.c ****     return 0; 
 1553              		.loc 1 672 0
 1554 000a 17D0     		beq	.L81
 675:..\..\u8g2\csrc/u8g2_font.c ****   u8g2->glyph_x_offset = u8g2_font_decode_get_signed_bits(&(u8g2->font_decode), u8g2->font_info.bit
 1555              		.loc 1 675 0
 1556 000c 2000     		movs	r0, r4
 1557              	.LVL210:
 1558 000e FFF7FEFF 		bl	u8g2_font_setup_decode
 1559              	.LVL211:
 676:..\..\u8g2\csrc/u8g2_font.c ****   u8g2_font_decode_get_signed_bits(&(u8g2->font_decode), u8g2->font_info.bits_per_char_y);
 1560              		.loc 1 676 0
 1561 0012 2500     		movs	r5, r4
 1562 0014 2300     		movs	r3, r4
 1563 0016 5035     		adds	r5, r5, #80
 1564 0018 6633     		adds	r3, r3, #102
 1565 001a 1978     		ldrb	r1, [r3]
 1566 001c 2800     		movs	r0, r5
 1567 001e FFF7FEFF 		bl	u8g2_font_decode_get_signed_bits
 1568              	.LVL212:
 1569 0022 2300     		movs	r3, r4
 1570 0024 7B33     		adds	r3, r3, #123
 1571 0026 1870     		strb	r0, [r3]
 677:..\..\u8g2\csrc/u8g2_font.c ****   
 1572              		.loc 1 677 0
 1573 0028 143B     		subs	r3, r3, #20
 1574 002a 1978     		ldrb	r1, [r3]
 1575 002c 2800     		movs	r0, r5
 681:..\..\u8g2\csrc/u8g2_font.c **** }
 1576              		.loc 1 681 0
 1577 002e 6834     		adds	r4, r4, #104
 1578              	.LVL213:
 677:..\..\u8g2\csrc/u8g2_font.c ****   
 1579              		.loc 1 677 0
 1580 0030 FFF7FEFF 		bl	u8g2_font_decode_get_signed_bits
 1581              	.LVL214:
 681:..\..\u8g2\csrc/u8g2_font.c **** }
 1582              		.loc 1 681 0
 1583 0034 2178     		ldrb	r1, [r4]
 1584 0036 2800     		movs	r0, r5
 1585 0038 FFF7FEFF 		bl	u8g2_font_decode_get_signed_bits
ARM GAS  C:\Users\gjl\AppData\Local\Temp\ccg70AS9.s 			page 52


 1586              	.LVL215:
 1587              	.L81:
 682:..\..\u8g2\csrc/u8g2_font.c **** 
 1588              		.loc 1 682 0
 1589              		@ sp needed
 1590 003c 70BD     		pop	{r4, r5, r6, pc}
 1591              		.cfi_endproc
 1592              	.LFE19:
 1593              		.size	u8g2_GetGlyphWidth, .-u8g2_GetGlyphWidth
 1594              		.section	.text.u8g2_string_width,"ax",%progbits
 1595              		.align	1
 1596              		.code	16
 1597              		.thumb_func
 1598              		.type	u8g2_string_width, %function
 1599              	u8g2_string_width:
 1600              	.LFB40:
1002:..\..\u8g2\csrc/u8g2_font.c ****   uint16_t e;
 1601              		.loc 1 1002 0
 1602              		.cfi_startproc
 1603              		@ args = 0, pretend = 0, frame = 8
 1604              		@ frame_needed = 0, uses_anonymous_args = 0
 1605              	.LVL216:
1006:..\..\u8g2\csrc/u8g2_font.c ****   u8x8_utf8_init(u8g2_GetU8x8(u8g2));
 1606              		.loc 1 1006 0
 1607 0000 0300     		movs	r3, r0
1002:..\..\u8g2\csrc/u8g2_font.c ****   uint16_t e;
 1608              		.loc 1 1002 0
 1609 0002 F7B5     		push	{r0, r1, r2, r4, r5, r6, r7, lr}
 1610              		.cfi_def_cfa_offset 32
 1611              		.cfi_offset 0, -32
 1612              		.cfi_offset 1, -28
 1613              		.cfi_offset 2, -24
 1614              		.cfi_offset 4, -20
 1615              		.cfi_offset 5, -16
 1616              		.cfi_offset 6, -12
 1617              		.cfi_offset 7, -8
 1618              		.cfi_offset 14, -4
1006:..\..\u8g2\csrc/u8g2_font.c ****   u8x8_utf8_init(u8g2_GetU8x8(u8g2));
 1619              		.loc 1 1006 0
 1620 0004 0024     		movs	r4, #0
 1621 0006 5833     		adds	r3, r3, #88
 1622 0008 1C70     		strb	r4, [r3]
1002:..\..\u8g2\csrc/u8g2_font.c ****   uint16_t e;
 1623              		.loc 1 1002 0
 1624 000a 0500     		movs	r5, r0
 1625 000c 0F00     		movs	r7, r1
1006:..\..\u8g2\csrc/u8g2_font.c ****   u8x8_utf8_init(u8g2_GetU8x8(u8g2));
 1626              		.loc 1 1006 0
 1627 000e 0193     		str	r3, [sp, #4]
1010:..\..\u8g2\csrc/u8g2_font.c ****   dx = 0;
 1628              		.loc 1 1010 0
 1629 0010 2600     		movs	r6, r4
1007:..\..\u8g2\csrc/u8g2_font.c ****   
 1630              		.loc 1 1007 0
 1631 0012 FFF7FEFF 		bl	u8x8_utf8_init
 1632              	.LVL217:
 1633              	.L84:
ARM GAS  C:\Users\gjl\AppData\Local\Temp\ccg70AS9.s 			page 53


1017:..\..\u8g2\csrc/u8g2_font.c ****     if ( e == 0x0ffff )
 1634              		.loc 1 1017 0
 1635 0016 3978     		ldrb	r1, [r7]
 1636 0018 6B68     		ldr	r3, [r5, #4]
 1637 001a 2800     		movs	r0, r5
 1638 001c 9847     		blx	r3
 1639              	.LVL218:
1018:..\..\u8g2\csrc/u8g2_font.c ****       break;
 1640              		.loc 1 1018 0
 1641 001e 0E4B     		ldr	r3, .L91
1017:..\..\u8g2\csrc/u8g2_font.c ****     if ( e == 0x0ffff )
 1642              		.loc 1 1017 0
 1643 0020 0100     		movs	r1, r0
 1644              	.LVL219:
1018:..\..\u8g2\csrc/u8g2_font.c ****       break;
 1645              		.loc 1 1018 0
 1646 0022 9842     		cmp	r0, r3
 1647 0024 0AD0     		beq	.L85
1021:..\..\u8g2\csrc/u8g2_font.c ****     {
 1648              		.loc 1 1021 0
 1649 0026 0D4B     		ldr	r3, .L91+4
1020:..\..\u8g2\csrc/u8g2_font.c ****     if ( e != 0x0fffe )
 1650              		.loc 1 1020 0
 1651 0028 0137     		adds	r7, r7, #1
 1652              	.LVL220:
1021:..\..\u8g2\csrc/u8g2_font.c ****     {
 1653              		.loc 1 1021 0
 1654 002a 9842     		cmp	r0, r3
 1655 002c F3D0     		beq	.L84
1023:..\..\u8g2\csrc/u8g2_font.c ****       w += dx;
 1656              		.loc 1 1023 0
 1657 002e 2800     		movs	r0, r5
 1658              	.LVL221:
 1659 0030 FFF7FEFF 		bl	u8g2_GetGlyphWidth
 1660              	.LVL222:
 1661 0034 C4B2     		uxtb	r4, r0
 1662              	.LVL223:
1024:..\..\u8g2\csrc/u8g2_font.c ****     }
 1663              		.loc 1 1024 0
 1664 0036 3619     		adds	r6, r6, r4
 1665              	.LVL224:
 1666 0038 F6B2     		uxtb	r6, r6
 1667              	.LVL225:
 1668 003a ECE7     		b	.L84
 1669              	.LVL226:
 1670              	.L85:
1029:..\..\u8g2\csrc/u8g2_font.c ****   {
 1671              		.loc 1 1029 0
 1672 003c 019B     		ldr	r3, [sp, #4]
 1673 003e 1B78     		ldrb	r3, [r3]
 1674 0040 5BB2     		sxtb	r3, r3
 1675 0042 002B     		cmp	r3, #0
 1676 0044 05D0     		beq	.L87
 1677              	.LVL227:
1034:..\..\u8g2\csrc/u8g2_font.c ****   }
 1678              		.loc 1 1034 0
 1679 0046 7B35     		adds	r5, r5, #123
ARM GAS  C:\Users\gjl\AppData\Local\Temp\ccg70AS9.s 			page 54


 1680              	.LVL228:
 1681 0048 2878     		ldrb	r0, [r5]
 1682              	.LVL229:
 1683 004a C318     		adds	r3, r0, r3
 1684              	.LVL230:
 1685 004c F618     		adds	r6, r6, r3
 1686              	.LVL231:
 1687 004e 361B     		subs	r6, r6, r4
 1688 0050 F6B2     		uxtb	r6, r6
 1689              	.LVL232:
 1690              	.L87:
1039:..\..\u8g2\csrc/u8g2_font.c **** 
 1691              		.loc 1 1039 0
 1692 0052 3000     		movs	r0, r6
 1693              		@ sp needed
 1694              	.LVL233:
 1695              	.LVL234:
 1696              	.LVL235:
 1697 0054 FEBD     		pop	{r1, r2, r3, r4, r5, r6, r7, pc}
 1698              	.L92:
 1699 0056 C046     		.align	2
 1700              	.L91:
 1701 0058 FFFF0000 		.word	65535
 1702 005c FEFF0000 		.word	65534
 1703              		.cfi_endproc
 1704              	.LFE40:
 1705              		.size	u8g2_string_width, .-u8g2_string_width
 1706              		.section	.text.u8g2_SetFontMode,"ax",%progbits
 1707              		.align	1
 1708              		.global	u8g2_SetFontMode
 1709              		.code	16
 1710              		.thumb_func
 1711              		.type	u8g2_SetFontMode, %function
 1712              	u8g2_SetFontMode:
 1713              	.LFB20:
 693:..\..\u8g2\csrc/u8g2_font.c ****   u8g2->font_decode.is_transparent = is_transparent;		// new font procedures
 1714              		.loc 1 693 0
 1715              		.cfi_startproc
 1716              		@ args = 0, pretend = 0, frame = 0
 1717              		@ frame_needed = 0, uses_anonymous_args = 0
 1718              		@ link register save eliminated.
 1719              	.LVL236:
 694:..\..\u8g2\csrc/u8g2_font.c **** }
 1720              		.loc 1 694 0
 1721 0000 5B30     		adds	r0, r0, #91
 1722              	.LVL237:
 1723 0002 0170     		strb	r1, [r0]
 695:..\..\u8g2\csrc/u8g2_font.c **** 
 1724              		.loc 1 695 0
 1725              		@ sp needed
 1726 0004 7047     		bx	lr
 1727              		.cfi_endproc
 1728              	.LFE20:
 1729              		.size	u8g2_SetFontMode, .-u8g2_SetFontMode
 1730              		.section	.text.u8g2_DrawGlyph,"ax",%progbits
 1731              		.align	1
 1732              		.global	u8g2_DrawGlyph
ARM GAS  C:\Users\gjl\AppData\Local\Temp\ccg70AS9.s 			page 55


 1733              		.code	16
 1734              		.thumb_func
 1735              		.type	u8g2_DrawGlyph, %function
 1736              	u8g2_DrawGlyph:
 1737              	.LFB21:
 698:..\..\u8g2\csrc/u8g2_font.c **** #ifdef U8G2_WITH_FONT_ROTATION
 1738              		.loc 1 698 0
 1739              		.cfi_startproc
 1740              		@ args = 0, pretend = 0, frame = 0
 1741              		@ frame_needed = 0, uses_anonymous_args = 0
 1742              	.LVL238:
 1743 0000 F8B5     		push	{r3, r4, r5, r6, r7, lr}
 1744              		.cfi_def_cfa_offset 24
 1745              		.cfi_offset 3, -24
 1746              		.cfi_offset 4, -20
 1747              		.cfi_offset 5, -16
 1748              		.cfi_offset 6, -12
 1749              		.cfi_offset 7, -8
 1750              		.cfi_offset 14, -4
 698:..\..\u8g2\csrc/u8g2_font.c **** #ifdef U8G2_WITH_FONT_ROTATION
 1751              		.loc 1 698 0
 1752 0002 1F00     		movs	r7, r3
 700:..\..\u8g2\csrc/u8g2_font.c ****   {
 1753              		.loc 1 700 0
 1754 0004 0300     		movs	r3, r0
 1755              	.LVL239:
 1756 0006 5E33     		adds	r3, r3, #94
 698:..\..\u8g2\csrc/u8g2_font.c **** #ifdef U8G2_WITH_FONT_ROTATION
 1757              		.loc 1 698 0
 1758 0008 0400     		movs	r4, r0
 700:..\..\u8g2\csrc/u8g2_font.c ****   {
 1759              		.loc 1 700 0
 1760 000a 1878     		ldrb	r0, [r3]
 1761              	.LVL240:
 698:..\..\u8g2\csrc/u8g2_font.c **** #ifdef U8G2_WITH_FONT_ROTATION
 1762              		.loc 1 698 0
 1763 000c 0E00     		movs	r6, r1
 1764 000e 1500     		movs	r5, r2
 700:..\..\u8g2\csrc/u8g2_font.c ****   {
 1765              		.loc 1 700 0
 1766 0010 0328     		cmp	r0, #3
 1767 0012 15D8     		bhi	.L95
 1768 0014 E36C     		ldr	r3, [r4, #76]
 1769 0016 FFF7FEFF 		bl	__gnu_thumb1_case_uqi
 1770              	.L97:
 1771 001a 02       		.byte	(.L96-.L97)/2
 1772 001b 06       		.byte	(.L98-.L97)/2
 1773 001c 0A       		.byte	(.L99-.L97)/2
 1774 001d 0F       		.byte	(.L100-.L97)/2
 1775              		.p2align 1
 1776              	.L96:
 703:..\..\u8g2\csrc/u8g2_font.c ****       break;
 1777              		.loc 1 703 0
 1778 001e 2000     		movs	r0, r4
 1779 0020 9847     		blx	r3
 1780              	.LVL241:
 1781 0022 2D18     		adds	r5, r5, r0
ARM GAS  C:\Users\gjl\AppData\Local\Temp\ccg70AS9.s 			page 56


 1782 0024 06E0     		b	.L103
 1783              	.LVL242:
 1784              	.L98:
 706:..\..\u8g2\csrc/u8g2_font.c ****       break;
 1785              		.loc 1 706 0
 1786 0026 2000     		movs	r0, r4
 1787 0028 9847     		blx	r3
 1788              	.LVL243:
 1789 002a 361A     		subs	r6, r6, r0
 1790 002c 07E0     		b	.L104
 1791              	.LVL244:
 1792              	.L99:
 709:..\..\u8g2\csrc/u8g2_font.c ****       break;
 1793              		.loc 1 709 0
 1794 002e 2000     		movs	r0, r4
 1795 0030 9847     		blx	r3
 1796              	.LVL245:
 1797 0032 2D1A     		subs	r5, r5, r0
 1798              	.L103:
 1799 0034 EDB2     		uxtb	r5, r5
 1800              	.LVL246:
 710:..\..\u8g2\csrc/u8g2_font.c ****     case 3:
 1801              		.loc 1 710 0
 1802 0036 03E0     		b	.L95
 1803              	.LVL247:
 1804              	.L100:
 712:..\..\u8g2\csrc/u8g2_font.c ****       break;
 1805              		.loc 1 712 0
 1806 0038 2000     		movs	r0, r4
 1807 003a 9847     		blx	r3
 1808              	.LVL248:
 1809 003c 3618     		adds	r6, r6, r0
 1810              	.L104:
 1811 003e F6B2     		uxtb	r6, r6
 1812              	.LVL249:
 1813              	.L95:
 1814              	.LBB60:
 1815              	.LBB61:
 646:..\..\u8g2\csrc/u8g2_font.c ****   u8g2->font_decode.target_y = y;
 1816              		.loc 1 646 0
 1817 0040 2300     		movs	r3, r4
 1818 0042 5433     		adds	r3, r3, #84
 650:..\..\u8g2\csrc/u8g2_font.c ****   if ( glyph_data != NULL )
 1819              		.loc 1 650 0
 1820 0044 3900     		movs	r1, r7
 646:..\..\u8g2\csrc/u8g2_font.c ****   u8g2->font_decode.target_y = y;
 1821              		.loc 1 646 0
 1822 0046 1E70     		strb	r6, [r3]
 647:..\..\u8g2\csrc/u8g2_font.c ****   //u8g2->font_decode.is_transparent = is_transparent; this is already set
 1823              		.loc 1 647 0
 1824 0048 5D70     		strb	r5, [r3, #1]
 650:..\..\u8g2\csrc/u8g2_font.c ****   if ( glyph_data != NULL )
 1825              		.loc 1 650 0
 1826 004a 2000     		movs	r0, r4
 1827 004c FFF7FEFF 		bl	u8g2_font_get_glyph_data
 1828              	.LVL250:
 1829 0050 011E     		subs	r1, r0, #0
ARM GAS  C:\Users\gjl\AppData\Local\Temp\ccg70AS9.s 			page 57


 1830              	.LVL251:
 651:..\..\u8g2\csrc/u8g2_font.c ****   {
 1831              		.loc 1 651 0
 1832 0052 03D0     		beq	.L101
 653:..\..\u8g2\csrc/u8g2_font.c ****   }
 1833              		.loc 1 653 0
 1834 0054 2000     		movs	r0, r4
 1835              	.LVL252:
 1836 0056 FFF7FEFF 		bl	u8g2_font_decode_glyph
 1837              	.LVL253:
 1838 005a C0B2     		uxtb	r0, r0
 1839              	.LVL254:
 1840              	.L101:
 1841              	.LBE61:
 1842              	.LBE60:
 719:..\..\u8g2\csrc/u8g2_font.c **** 
 1843              		.loc 1 719 0
 1844              		@ sp needed
 1845              	.LVL255:
 1846              	.LVL256:
 1847              	.LVL257:
 1848 005c F8BD     		pop	{r3, r4, r5, r6, r7, pc}
 1849              		.cfi_endproc
 1850              	.LFE21:
 1851              		.size	u8g2_DrawGlyph, .-u8g2_DrawGlyph
 1852              		.section	.text.u8g2_draw_string,"ax",%progbits
 1853              		.align	1
 1854              		.code	16
 1855              		.thumb_func
 1856              		.type	u8g2_draw_string, %function
 1857              	u8g2_draw_string:
 1858              	.LFB22:
 723:..\..\u8g2\csrc/u8g2_font.c ****   uint16_t e;
 1859              		.loc 1 723 0
 1860              		.cfi_startproc
 1861              		@ args = 0, pretend = 0, frame = 8
 1862              		@ frame_needed = 0, uses_anonymous_args = 0
 1863              	.LVL258:
 1864 0000 F7B5     		push	{r0, r1, r2, r4, r5, r6, r7, lr}
 1865              		.cfi_def_cfa_offset 32
 1866              		.cfi_offset 0, -32
 1867              		.cfi_offset 1, -28
 1868              		.cfi_offset 2, -24
 1869              		.cfi_offset 4, -20
 1870              		.cfi_offset 5, -16
 1871              		.cfi_offset 6, -12
 1872              		.cfi_offset 7, -8
 1873              		.cfi_offset 14, -4
 723:..\..\u8g2\csrc/u8g2_font.c ****   uint16_t e;
 1874              		.loc 1 723 0
 1875 0002 1F00     		movs	r7, r3
 1876 0004 0600     		movs	r6, r0
 1877 0006 0C00     		movs	r4, r1
 1878 0008 1500     		movs	r5, r2
 726:..\..\u8g2\csrc/u8g2_font.c ****   sum = 0;
 1879              		.loc 1 726 0
 1880 000a FFF7FEFF 		bl	u8x8_utf8_init
ARM GAS  C:\Users\gjl\AppData\Local\Temp\ccg70AS9.s 			page 58


 1881              	.LVL259:
 727:..\..\u8g2\csrc/u8g2_font.c ****   for(;;)
 1882              		.loc 1 727 0
 1883 000e 0023     		movs	r3, #0
 1884              	.LVL260:
 1885              	.L115:
 1886 0010 0193     		str	r3, [sp, #4]
 1887              	.L106:
 1888              	.LVL261:
 730:..\..\u8g2\csrc/u8g2_font.c ****     if ( e == 0x0ffff )
 1889              		.loc 1 730 0
 1890 0012 7368     		ldr	r3, [r6, #4]
 1891 0014 3978     		ldrb	r1, [r7]
 1892 0016 3000     		movs	r0, r6
 1893 0018 9847     		blx	r3
 1894              	.LVL262:
 731:..\..\u8g2\csrc/u8g2_font.c ****       break;
 1895              		.loc 1 731 0
 1896 001a 134A     		ldr	r2, .L118
 730:..\..\u8g2\csrc/u8g2_font.c ****     if ( e == 0x0ffff )
 1897              		.loc 1 730 0
 1898 001c 0300     		movs	r3, r0
 1899              	.LVL263:
 731:..\..\u8g2\csrc/u8g2_font.c ****       break;
 1900              		.loc 1 731 0
 1901 001e 9042     		cmp	r0, r2
 1902 0020 1FD0     		beq	.L107
 734:..\..\u8g2\csrc/u8g2_font.c ****     {
 1903              		.loc 1 734 0
 1904 0022 124A     		ldr	r2, .L118+4
 733:..\..\u8g2\csrc/u8g2_font.c ****     if ( e != 0x0fffe )
 1905              		.loc 1 733 0
 1906 0024 0137     		adds	r7, r7, #1
 1907              	.LVL264:
 734:..\..\u8g2\csrc/u8g2_font.c ****     {
 1908              		.loc 1 734 0
 1909 0026 9042     		cmp	r0, r2
 1910 0028 F3D0     		beq	.L106
 736:..\..\u8g2\csrc/u8g2_font.c ****     
 1911              		.loc 1 736 0
 1912 002a 2A00     		movs	r2, r5
 1913 002c 2100     		movs	r1, r4
 1914 002e 3000     		movs	r0, r6
 1915              	.LVL265:
 1916 0030 FFF7FEFF 		bl	u8g2_DrawGlyph
 1917              	.LVL266:
 739:..\..\u8g2\csrc/u8g2_font.c ****       {
 1918              		.loc 1 739 0
 1919 0034 3200     		movs	r2, r6
 1920 0036 5E32     		adds	r2, r2, #94
 736:..\..\u8g2\csrc/u8g2_font.c ****     
 1921              		.loc 1 736 0
 1922 0038 0300     		movs	r3, r0
 1923              	.LVL267:
 739:..\..\u8g2\csrc/u8g2_font.c ****       {
 1924              		.loc 1 739 0
 1925 003a 1078     		ldrb	r0, [r2]
ARM GAS  C:\Users\gjl\AppData\Local\Temp\ccg70AS9.s 			page 59


 1926 003c 0328     		cmp	r0, #3
 1927 003e 0CD8     		bhi	.L109
 1928 0040 FFF7FEFF 		bl	__gnu_thumb1_case_uqi
 1929              	.L111:
 1930 0044 02       		.byte	(.L110-.L111)/2
 1931 0045 04       		.byte	(.L112-.L111)/2
 1932 0046 06       		.byte	(.L113-.L111)/2
 1933 0047 09       		.byte	(.L114-.L111)/2
 1934              		.p2align 1
 1935              	.L110:
 742:..\..\u8g2\csrc/u8g2_font.c **** 	  break;
 1936              		.loc 1 742 0
 1937 0048 E418     		adds	r4, r4, r3
 1938              	.LVL268:
 1939 004a 02E0     		b	.L116
 1940              	.LVL269:
 1941              	.L112:
 745:..\..\u8g2\csrc/u8g2_font.c **** 	  break;
 1942              		.loc 1 745 0
 1943 004c ED18     		adds	r5, r5, r3
 1944              	.LVL270:
 1945 004e 03E0     		b	.L117
 1946              	.LVL271:
 1947              	.L113:
 748:..\..\u8g2\csrc/u8g2_font.c **** 	  break;
 1948              		.loc 1 748 0
 1949 0050 E41A     		subs	r4, r4, r3
 1950              	.LVL272:
 1951              	.L116:
 1952 0052 E4B2     		uxtb	r4, r4
 1953              	.LVL273:
 749:..\..\u8g2\csrc/u8g2_font.c **** 	case 3:
 1954              		.loc 1 749 0
 1955 0054 01E0     		b	.L109
 1956              	.L114:
 751:..\..\u8g2\csrc/u8g2_font.c **** 	  break;
 1957              		.loc 1 751 0
 1958 0056 ED1A     		subs	r5, r5, r3
 1959              	.LVL274:
 1960              	.L117:
 1961 0058 EDB2     		uxtb	r5, r5
 1962              	.LVL275:
 1963              	.L109:
 758:..\..\u8g2\csrc/u8g2_font.c ****     }
 1964              		.loc 1 758 0
 1965 005a 019A     		ldr	r2, [sp, #4]
 1966 005c D318     		adds	r3, r2, r3
 1967              	.LVL276:
 1968 005e DBB2     		uxtb	r3, r3
 1969 0060 D6E7     		b	.L115
 1970              	.LVL277:
 1971              	.L107:
 762:..\..\u8g2\csrc/u8g2_font.c **** 
 1972              		.loc 1 762 0
 1973 0062 0198     		ldr	r0, [sp, #4]
 1974              	.LVL278:
 1975              		@ sp needed
ARM GAS  C:\Users\gjl\AppData\Local\Temp\ccg70AS9.s 			page 60


 1976              	.LVL279:
 1977              	.LVL280:
 1978              	.LVL281:
 1979              	.LVL282:
 1980 0064 FEBD     		pop	{r1, r2, r3, r4, r5, r6, r7, pc}
 1981              	.L119:
 1982 0066 C046     		.align	2
 1983              	.L118:
 1984 0068 FFFF0000 		.word	65535
 1985 006c FEFF0000 		.word	65534
 1986              		.cfi_endproc
 1987              	.LFE22:
 1988              		.size	u8g2_draw_string, .-u8g2_draw_string
 1989              		.section	.text.u8g2_DrawStr,"ax",%progbits
 1990              		.align	1
 1991              		.global	u8g2_DrawStr
 1992              		.code	16
 1993              		.thumb_func
 1994              		.type	u8g2_DrawStr, %function
 1995              	u8g2_DrawStr:
 1996              	.LFB23:
 765:..\..\u8g2\csrc/u8g2_font.c ****   u8g2->u8x8.next_cb = u8x8_ascii_next;
 1997              		.loc 1 765 0
 1998              		.cfi_startproc
 1999              		@ args = 0, pretend = 0, frame = 0
 2000              		@ frame_needed = 0, uses_anonymous_args = 0
 2001              	.LVL283:
 2002 0000 10B5     		push	{r4, lr}
 2003              		.cfi_def_cfa_offset 8
 2004              		.cfi_offset 4, -8
 2005              		.cfi_offset 14, -4
 766:..\..\u8g2\csrc/u8g2_font.c ****   return u8g2_draw_string(u8g2, x, y, str);
 2006              		.loc 1 766 0
 2007 0002 024C     		ldr	r4, .L121
 768:..\..\u8g2\csrc/u8g2_font.c **** 
 2008              		.loc 1 768 0
 2009              		@ sp needed
 766:..\..\u8g2\csrc/u8g2_font.c ****   return u8g2_draw_string(u8g2, x, y, str);
 2010              		.loc 1 766 0
 2011 0004 4460     		str	r4, [r0, #4]
 767:..\..\u8g2\csrc/u8g2_font.c **** }
 2012              		.loc 1 767 0
 2013 0006 FFF7FEFF 		bl	u8g2_draw_string
 2014              	.LVL284:
 768:..\..\u8g2\csrc/u8g2_font.c **** 
 2015              		.loc 1 768 0
 2016 000a 10BD     		pop	{r4, pc}
 2017              	.L122:
 2018              		.align	2
 2019              	.L121:
 2020 000c 00000000 		.word	u8x8_ascii_next
 2021              		.cfi_endproc
 2022              	.LFE23:
 2023              		.size	u8g2_DrawStr, .-u8g2_DrawStr
 2024              		.section	.text.u8g2_DrawUTF8,"ax",%progbits
 2025              		.align	1
 2026              		.global	u8g2_DrawUTF8
ARM GAS  C:\Users\gjl\AppData\Local\Temp\ccg70AS9.s 			page 61


 2027              		.code	16
 2028              		.thumb_func
 2029              		.type	u8g2_DrawUTF8, %function
 2030              	u8g2_DrawUTF8:
 2031              	.LFB24:
 781:..\..\u8g2\csrc/u8g2_font.c ****   u8g2->u8x8.next_cb = u8x8_utf8_next;
 2032              		.loc 1 781 0
 2033              		.cfi_startproc
 2034              		@ args = 0, pretend = 0, frame = 0
 2035              		@ frame_needed = 0, uses_anonymous_args = 0
 2036              	.LVL285:
 2037 0000 10B5     		push	{r4, lr}
 2038              		.cfi_def_cfa_offset 8
 2039              		.cfi_offset 4, -8
 2040              		.cfi_offset 14, -4
 782:..\..\u8g2\csrc/u8g2_font.c ****   return u8g2_draw_string(u8g2, x, y, str);
 2041              		.loc 1 782 0
 2042 0002 024C     		ldr	r4, .L124
 784:..\..\u8g2\csrc/u8g2_font.c **** 
 2043              		.loc 1 784 0
 2044              		@ sp needed
 782:..\..\u8g2\csrc/u8g2_font.c ****   return u8g2_draw_string(u8g2, x, y, str);
 2045              		.loc 1 782 0
 2046 0004 4460     		str	r4, [r0, #4]
 783:..\..\u8g2\csrc/u8g2_font.c **** }
 2047              		.loc 1 783 0
 2048 0006 FFF7FEFF 		bl	u8g2_draw_string
 2049              	.LVL286:
 784:..\..\u8g2\csrc/u8g2_font.c **** 
 2050              		.loc 1 784 0
 2051 000a 10BD     		pop	{r4, pc}
 2052              	.L125:
 2053              		.align	2
 2054              	.L124:
 2055 000c 00000000 		.word	u8x8_utf8_next
 2056              		.cfi_endproc
 2057              	.LFE24:
 2058              		.size	u8g2_DrawUTF8, .-u8g2_DrawUTF8
 2059              		.section	.text.u8g2_DrawExtendedUTF8,"ax",%progbits
 2060              		.align	1
 2061              		.global	u8g2_DrawExtendedUTF8
 2062              		.code	16
 2063              		.thumb_func
 2064              		.type	u8g2_DrawExtendedUTF8, %function
 2065              	u8g2_DrawExtendedUTF8:
 2066              	.LFB25:
 789:..\..\u8g2\csrc/u8g2_font.c ****   u8g2->u8x8.next_cb = u8x8_utf8_next;
 2067              		.loc 1 789 0
 2068              		.cfi_startproc
 2069              		@ args = 8, pretend = 0, frame = 16
 2070              		@ frame_needed = 0, uses_anonymous_args = 0
 2071              	.LVL287:
 2072 0000 F0B5     		push	{r4, r5, r6, r7, lr}
 2073              		.cfi_def_cfa_offset 20
 2074              		.cfi_offset 4, -20
 2075              		.cfi_offset 5, -16
 2076              		.cfi_offset 6, -12
ARM GAS  C:\Users\gjl\AppData\Local\Temp\ccg70AS9.s 			page 62


 2077              		.cfi_offset 7, -8
 2078              		.cfi_offset 14, -4
 2079 0002 85B0     		sub	sp, sp, #20
 2080              		.cfi_def_cfa_offset 40
 789:..\..\u8g2\csrc/u8g2_font.c ****   u8g2->u8x8.next_cb = u8x8_utf8_next;
 2081              		.loc 1 789 0
 2082 0004 0293     		str	r3, [sp, #8]
 790:..\..\u8g2\csrc/u8g2_font.c ****   uint16_t e_prev = 0x0ffff;
 2083              		.loc 1 790 0
 2084 0006 274B     		ldr	r3, .L133
 2085              	.LVL288:
 789:..\..\u8g2\csrc/u8g2_font.c ****   u8g2->u8x8.next_cb = u8x8_utf8_next;
 2086              		.loc 1 789 0
 2087 0008 0500     		movs	r5, r0
 790:..\..\u8g2\csrc/u8g2_font.c ****   uint16_t e_prev = 0x0ffff;
 2088              		.loc 1 790 0
 2089 000a 4360     		str	r3, [r0, #4]
 2090              	.LVL289:
 789:..\..\u8g2\csrc/u8g2_font.c ****   u8g2->u8x8.next_cb = u8x8_utf8_next;
 2091              		.loc 1 789 0
 2092 000c 0091     		str	r1, [sp]
 2093 000e 0392     		str	r2, [sp, #12]
 794:..\..\u8g2\csrc/u8g2_font.c ****   sum = 0;
 2094              		.loc 1 794 0
 2095 0010 FFF7FEFF 		bl	u8x8_utf8_init
 2096              	.LVL290:
 795:..\..\u8g2\csrc/u8g2_font.c ****   for(;;)
 2097              		.loc 1 795 0
 2098 0014 0023     		movs	r3, #0
 791:..\..\u8g2\csrc/u8g2_font.c ****   uint16_t e;
 2099              		.loc 1 791 0
 2100 0016 244E     		ldr	r6, .L133+4
 795:..\..\u8g2\csrc/u8g2_font.c ****   for(;;)
 2101              		.loc 1 795 0
 2102 0018 0193     		str	r3, [sp, #4]
 2103              	.LVL291:
 2104              	.L127:
 798:..\..\u8g2\csrc/u8g2_font.c ****     if ( e == 0x0ffff )
 2105              		.loc 1 798 0
 2106 001a 0B9B     		ldr	r3, [sp, #44]
 2107 001c 2800     		movs	r0, r5
 2108 001e 1978     		ldrb	r1, [r3]
 2109 0020 6B68     		ldr	r3, [r5, #4]
 2110 0022 9847     		blx	r3
 2111              	.LVL292:
 799:..\..\u8g2\csrc/u8g2_font.c ****       break;
 2112              		.loc 1 799 0
 2113 0024 204B     		ldr	r3, .L133+4
 798:..\..\u8g2\csrc/u8g2_font.c ****     if ( e == 0x0ffff )
 2114              		.loc 1 798 0
 2115 0026 0700     		movs	r7, r0
 2116              	.LVL293:
 799:..\..\u8g2\csrc/u8g2_font.c ****       break;
 2117              		.loc 1 799 0
 2118 0028 9842     		cmp	r0, r3
 2119 002a 38D0     		beq	.L128
 801:..\..\u8g2\csrc/u8g2_font.c ****     if ( e != 0x0fffe )
ARM GAS  C:\Users\gjl\AppData\Local\Temp\ccg70AS9.s 			page 63


 2120              		.loc 1 801 0
 2121 002c 0B9B     		ldr	r3, [sp, #44]
 2122 002e 0133     		adds	r3, r3, #1
 2123 0030 0B93     		str	r3, [sp, #44]
 2124              	.LVL294:
 802:..\..\u8g2\csrc/u8g2_font.c ****     {
 2125              		.loc 1 802 0
 2126 0032 1E4B     		ldr	r3, .L133+8
 2127              	.LVL295:
 2128 0034 9842     		cmp	r0, r3
 2129 0036 F0D0     		beq	.L127
 804:..\..\u8g2\csrc/u8g2_font.c **** 	    
 2130              		.loc 1 804 0
 2131 0038 0100     		movs	r1, r0
 2132 003a 2800     		movs	r0, r5
 2133              	.LVL296:
 2134 003c FFF7FEFF 		bl	u8g2_GetGlyphWidth
 2135              	.LVL297:
 806:..\..\u8g2\csrc/u8g2_font.c ****       {
 2136              		.loc 1 806 0
 2137 0040 029B     		ldr	r3, [sp, #8]
 804:..\..\u8g2\csrc/u8g2_font.c **** 	    
 2138              		.loc 1 804 0
 2139 0042 C4B2     		uxtb	r4, r0
 2140              	.LVL298:
 806:..\..\u8g2\csrc/u8g2_font.c ****       {
 2141              		.loc 1 806 0
 2142 0044 002B     		cmp	r3, #0
 2143 0046 0DD0     		beq	.L130
 808:..\..\u8g2\csrc/u8g2_font.c **** 	delta -= k;
 2144              		.loc 1 808 0
 2145 0048 3300     		movs	r3, r6
 2146 004a 3A00     		movs	r2, r7
 2147 004c 0A99     		ldr	r1, [sp, #40]
 2148 004e 2800     		movs	r0, r5
 2149 0050 FFF7FEFF 		bl	u8g2_GetKerning
 2150              	.LVL299:
 810:..\..\u8g2\csrc/u8g2_font.c ****       }
 2151              		.loc 1 810 0
 2152 0054 009B     		ldr	r3, [sp]
 809:..\..\u8g2\csrc/u8g2_font.c **** 	x -= delta;
 2153              		.loc 1 809 0
 2154 0056 241A     		subs	r4, r4, r0
 2155              	.LVL300:
 2156 0058 E4B2     		uxtb	r4, r4
 810:..\..\u8g2\csrc/u8g2_font.c ****       }
 2157              		.loc 1 810 0
 2158 005a 1B1B     		subs	r3, r3, r4
 2159 005c DBB2     		uxtb	r3, r3
 808:..\..\u8g2\csrc/u8g2_font.c **** 	delta -= k;
 2160              		.loc 1 808 0
 2161 005e 0600     		movs	r6, r0
 2162              	.LVL301:
 810:..\..\u8g2\csrc/u8g2_font.c ****       }
 2163              		.loc 1 810 0
 2164 0060 0093     		str	r3, [sp]
 2165              	.LVL302:
ARM GAS  C:\Users\gjl\AppData\Local\Temp\ccg70AS9.s 			page 64


 2166 0062 08E0     		b	.L131
 2167              	.LVL303:
 2168              	.L130:
 814:..\..\u8g2\csrc/u8g2_font.c **** 	delta -= k;
 2169              		.loc 1 814 0
 2170 0064 3200     		movs	r2, r6
 2171 0066 3B00     		movs	r3, r7
 2172 0068 0A99     		ldr	r1, [sp, #40]
 2173 006a 2800     		movs	r0, r5
 2174 006c FFF7FEFF 		bl	u8g2_GetKerning
 2175              	.LVL304:
 2176 0070 0600     		movs	r6, r0
 2177              	.LVL305:
 815:..\..\u8g2\csrc/u8g2_font.c ****       }
 2178              		.loc 1 815 0
 2179 0072 241A     		subs	r4, r4, r0
 2180              	.LVL306:
 2181 0074 E4B2     		uxtb	r4, r4
 2182              	.LVL307:
 2183              	.L131:
 819:..\..\u8g2\csrc/u8g2_font.c ****       if ( to_left )
 2184              		.loc 1 819 0
 2185 0076 3B00     		movs	r3, r7
 2186 0078 039A     		ldr	r2, [sp, #12]
 2187 007a 0099     		ldr	r1, [sp]
 2188 007c 2800     		movs	r0, r5
 2189 007e FFF7FEFF 		bl	u8g2_DrawGlyph
 2190              	.LVL308:
 820:..\..\u8g2\csrc/u8g2_font.c ****       {
 2191              		.loc 1 820 0
 2192 0082 029B     		ldr	r3, [sp, #8]
 2193 0084 002B     		cmp	r3, #0
 2194 0086 04D1     		bne	.L132
 825:..\..\u8g2\csrc/u8g2_font.c **** 	x -= k;
 2195              		.loc 1 825 0
 2196 0088 009B     		ldr	r3, [sp]
 2197 008a 1B19     		adds	r3, r3, r4
 2198              	.LVL309:
 826:..\..\u8g2\csrc/u8g2_font.c ****       }
 2199              		.loc 1 826 0
 2200 008c 9E1B     		subs	r6, r3, r6
 2201              	.LVL310:
 2202 008e F3B2     		uxtb	r3, r6
 2203              	.LVL311:
 2204 0090 0093     		str	r3, [sp]
 2205              	.LVL312:
 2206              	.L132:
 829:..\..\u8g2\csrc/u8g2_font.c ****     }
 2207              		.loc 1 829 0
 2208 0092 019B     		ldr	r3, [sp, #4]
 2209 0094 3E00     		movs	r6, r7
 2210 0096 E418     		adds	r4, r4, r3
 2211              	.LVL313:
 2212 0098 E3B2     		uxtb	r3, r4
 2213 009a 0193     		str	r3, [sp, #4]
 2214              	.LVL314:
 2215 009c BDE7     		b	.L127
ARM GAS  C:\Users\gjl\AppData\Local\Temp\ccg70AS9.s 			page 65


 2216              	.LVL315:
 2217              	.L128:
 833:..\..\u8g2\csrc/u8g2_font.c **** 
 2218              		.loc 1 833 0
 2219 009e 0198     		ldr	r0, [sp, #4]
 2220              	.LVL316:
 2221 00a0 05B0     		add	sp, sp, #20
 2222              	.LVL317:
 2223              		@ sp needed
 2224              	.LVL318:
 2225              	.LVL319:
 2226 00a2 F0BD     		pop	{r4, r5, r6, r7, pc}
 2227              	.L134:
 2228              		.align	2
 2229              	.L133:
 2230 00a4 00000000 		.word	u8x8_utf8_next
 2231 00a8 FFFF0000 		.word	65535
 2232 00ac FEFF0000 		.word	65534
 2233              		.cfi_endproc
 2234              	.LFE25:
 2235              		.size	u8g2_DrawExtendedUTF8, .-u8g2_DrawExtendedUTF8
 2236              		.section	.text.u8g2_DrawExtUTF8,"ax",%progbits
 2237              		.align	1
 2238              		.global	u8g2_DrawExtUTF8
 2239              		.code	16
 2240              		.thumb_func
 2241              		.type	u8g2_DrawExtUTF8, %function
 2242              	u8g2_DrawExtUTF8:
 2243              	.LFB26:
 836:..\..\u8g2\csrc/u8g2_font.c ****   u8g2->u8x8.next_cb = u8x8_utf8_next;
 2244              		.loc 1 836 0
 2245              		.cfi_startproc
 2246              		@ args = 8, pretend = 0, frame = 16
 2247              		@ frame_needed = 0, uses_anonymous_args = 0
 2248              	.LVL320:
 2249 0000 F0B5     		push	{r4, r5, r6, r7, lr}
 2250              		.cfi_def_cfa_offset 20
 2251              		.cfi_offset 4, -20
 2252              		.cfi_offset 5, -16
 2253              		.cfi_offset 6, -12
 2254              		.cfi_offset 7, -8
 2255              		.cfi_offset 14, -4
 2256 0002 85B0     		sub	sp, sp, #20
 2257              		.cfi_def_cfa_offset 40
 836:..\..\u8g2\csrc/u8g2_font.c ****   u8g2->u8x8.next_cb = u8x8_utf8_next;
 2258              		.loc 1 836 0
 2259 0004 0293     		str	r3, [sp, #8]
 837:..\..\u8g2\csrc/u8g2_font.c ****   uint16_t e_prev = 0x0ffff;
 2260              		.loc 1 837 0
 2261 0006 274B     		ldr	r3, .L142
 2262              	.LVL321:
 836:..\..\u8g2\csrc/u8g2_font.c ****   u8g2->u8x8.next_cb = u8x8_utf8_next;
 2263              		.loc 1 836 0
 2264 0008 0500     		movs	r5, r0
 837:..\..\u8g2\csrc/u8g2_font.c ****   uint16_t e_prev = 0x0ffff;
 2265              		.loc 1 837 0
 2266 000a 4360     		str	r3, [r0, #4]
ARM GAS  C:\Users\gjl\AppData\Local\Temp\ccg70AS9.s 			page 66


 2267              	.LVL322:
 836:..\..\u8g2\csrc/u8g2_font.c ****   u8g2->u8x8.next_cb = u8x8_utf8_next;
 2268              		.loc 1 836 0
 2269 000c 0091     		str	r1, [sp]
 2270 000e 0392     		str	r2, [sp, #12]
 841:..\..\u8g2\csrc/u8g2_font.c ****   sum = 0;
 2271              		.loc 1 841 0
 2272 0010 FFF7FEFF 		bl	u8x8_utf8_init
 2273              	.LVL323:
 842:..\..\u8g2\csrc/u8g2_font.c ****   for(;;)
 2274              		.loc 1 842 0
 2275 0014 0023     		movs	r3, #0
 838:..\..\u8g2\csrc/u8g2_font.c ****   uint16_t e;
 2276              		.loc 1 838 0
 2277 0016 244E     		ldr	r6, .L142+4
 842:..\..\u8g2\csrc/u8g2_font.c ****   for(;;)
 2278              		.loc 1 842 0
 2279 0018 0193     		str	r3, [sp, #4]
 2280              	.LVL324:
 2281              	.L136:
 845:..\..\u8g2\csrc/u8g2_font.c ****     if ( e == 0x0ffff )
 2282              		.loc 1 845 0
 2283 001a 0B9B     		ldr	r3, [sp, #44]
 2284 001c 2800     		movs	r0, r5
 2285 001e 1978     		ldrb	r1, [r3]
 2286 0020 6B68     		ldr	r3, [r5, #4]
 2287 0022 9847     		blx	r3
 2288              	.LVL325:
 846:..\..\u8g2\csrc/u8g2_font.c ****       break;
 2289              		.loc 1 846 0
 2290 0024 204B     		ldr	r3, .L142+4
 845:..\..\u8g2\csrc/u8g2_font.c ****     if ( e == 0x0ffff )
 2291              		.loc 1 845 0
 2292 0026 0700     		movs	r7, r0
 2293              	.LVL326:
 846:..\..\u8g2\csrc/u8g2_font.c ****       break;
 2294              		.loc 1 846 0
 2295 0028 9842     		cmp	r0, r3
 2296 002a 38D0     		beq	.L137
 848:..\..\u8g2\csrc/u8g2_font.c ****     if ( e != 0x0fffe )
 2297              		.loc 1 848 0
 2298 002c 0B9B     		ldr	r3, [sp, #44]
 2299 002e 0133     		adds	r3, r3, #1
 2300 0030 0B93     		str	r3, [sp, #44]
 2301              	.LVL327:
 849:..\..\u8g2\csrc/u8g2_font.c ****     {
 2302              		.loc 1 849 0
 2303 0032 1E4B     		ldr	r3, .L142+8
 2304              	.LVL328:
 2305 0034 9842     		cmp	r0, r3
 2306 0036 F0D0     		beq	.L136
 851:..\..\u8g2\csrc/u8g2_font.c **** 	    
 2307              		.loc 1 851 0
 2308 0038 0100     		movs	r1, r0
 2309 003a 2800     		movs	r0, r5
 2310              	.LVL329:
 2311 003c FFF7FEFF 		bl	u8g2_GetGlyphWidth
ARM GAS  C:\Users\gjl\AppData\Local\Temp\ccg70AS9.s 			page 67


 2312              	.LVL330:
 853:..\..\u8g2\csrc/u8g2_font.c ****       {
 2313              		.loc 1 853 0
 2314 0040 029B     		ldr	r3, [sp, #8]
 851:..\..\u8g2\csrc/u8g2_font.c **** 	    
 2315              		.loc 1 851 0
 2316 0042 C4B2     		uxtb	r4, r0
 2317              	.LVL331:
 853:..\..\u8g2\csrc/u8g2_font.c ****       {
 2318              		.loc 1 853 0
 2319 0044 002B     		cmp	r3, #0
 2320 0046 0DD0     		beq	.L139
 855:..\..\u8g2\csrc/u8g2_font.c **** 	delta -= k;
 2321              		.loc 1 855 0
 2322 0048 3300     		movs	r3, r6
 2323 004a 3A00     		movs	r2, r7
 2324 004c 0A99     		ldr	r1, [sp, #40]
 2325 004e 2800     		movs	r0, r5
 2326 0050 FFF7FEFF 		bl	u8g2_GetKerningByTable
 2327              	.LVL332:
 857:..\..\u8g2\csrc/u8g2_font.c ****       }
 2328              		.loc 1 857 0
 2329 0054 009B     		ldr	r3, [sp]
 856:..\..\u8g2\csrc/u8g2_font.c **** 	x -= delta;
 2330              		.loc 1 856 0
 2331 0056 241A     		subs	r4, r4, r0
 2332              	.LVL333:
 2333 0058 E4B2     		uxtb	r4, r4
 857:..\..\u8g2\csrc/u8g2_font.c ****       }
 2334              		.loc 1 857 0
 2335 005a 1B1B     		subs	r3, r3, r4
 2336 005c DBB2     		uxtb	r3, r3
 855:..\..\u8g2\csrc/u8g2_font.c **** 	delta -= k;
 2337              		.loc 1 855 0
 2338 005e 0600     		movs	r6, r0
 2339              	.LVL334:
 857:..\..\u8g2\csrc/u8g2_font.c ****       }
 2340              		.loc 1 857 0
 2341 0060 0093     		str	r3, [sp]
 2342              	.LVL335:
 2343 0062 08E0     		b	.L140
 2344              	.LVL336:
 2345              	.L139:
 861:..\..\u8g2\csrc/u8g2_font.c **** 	delta -= k;
 2346              		.loc 1 861 0
 2347 0064 3200     		movs	r2, r6
 2348 0066 3B00     		movs	r3, r7
 2349 0068 0A99     		ldr	r1, [sp, #40]
 2350 006a 2800     		movs	r0, r5
 2351 006c FFF7FEFF 		bl	u8g2_GetKerningByTable
 2352              	.LVL337:
 2353 0070 0600     		movs	r6, r0
 2354              	.LVL338:
 862:..\..\u8g2\csrc/u8g2_font.c ****       }
 2355              		.loc 1 862 0
 2356 0072 241A     		subs	r4, r4, r0
 2357              	.LVL339:
ARM GAS  C:\Users\gjl\AppData\Local\Temp\ccg70AS9.s 			page 68


 2358 0074 E4B2     		uxtb	r4, r4
 2359              	.LVL340:
 2360              	.L140:
 866:..\..\u8g2\csrc/u8g2_font.c ****       if ( to_left )
 2361              		.loc 1 866 0
 2362 0076 3B00     		movs	r3, r7
 2363 0078 039A     		ldr	r2, [sp, #12]
 2364 007a 0099     		ldr	r1, [sp]
 2365 007c 2800     		movs	r0, r5
 2366 007e FFF7FEFF 		bl	u8g2_DrawGlyph
 2367              	.LVL341:
 867:..\..\u8g2\csrc/u8g2_font.c ****       {
 2368              		.loc 1 867 0
 2369 0082 029B     		ldr	r3, [sp, #8]
 2370 0084 002B     		cmp	r3, #0
 2371 0086 04D1     		bne	.L141
 872:..\..\u8g2\csrc/u8g2_font.c **** 	x -= k;
 2372              		.loc 1 872 0
 2373 0088 009B     		ldr	r3, [sp]
 2374 008a 1B19     		adds	r3, r3, r4
 2375              	.LVL342:
 873:..\..\u8g2\csrc/u8g2_font.c ****       }
 2376              		.loc 1 873 0
 2377 008c 9E1B     		subs	r6, r3, r6
 2378              	.LVL343:
 2379 008e F3B2     		uxtb	r3, r6
 2380              	.LVL344:
 2381 0090 0093     		str	r3, [sp]
 2382              	.LVL345:
 2383              	.L141:
 876:..\..\u8g2\csrc/u8g2_font.c ****     }
 2384              		.loc 1 876 0
 2385 0092 019B     		ldr	r3, [sp, #4]
 2386 0094 3E00     		movs	r6, r7
 2387 0096 E418     		adds	r4, r4, r3
 2388              	.LVL346:
 2389 0098 E3B2     		uxtb	r3, r4
 2390 009a 0193     		str	r3, [sp, #4]
 2391              	.LVL347:
 2392 009c BDE7     		b	.L136
 2393              	.LVL348:
 2394              	.L137:
 880:..\..\u8g2\csrc/u8g2_font.c **** 
 2395              		.loc 1 880 0
 2396 009e 0198     		ldr	r0, [sp, #4]
 2397              	.LVL349:
 2398 00a0 05B0     		add	sp, sp, #20
 2399              	.LVL350:
 2400              		@ sp needed
 2401              	.LVL351:
 2402              	.LVL352:
 2403 00a2 F0BD     		pop	{r4, r5, r6, r7, pc}
 2404              	.L143:
 2405              		.align	2
 2406              	.L142:
 2407 00a4 00000000 		.word	u8x8_utf8_next
 2408 00a8 FFFF0000 		.word	65535
ARM GAS  C:\Users\gjl\AppData\Local\Temp\ccg70AS9.s 			page 69


 2409 00ac FEFF0000 		.word	65534
 2410              		.cfi_endproc
 2411              	.LFE26:
 2412              		.size	u8g2_DrawExtUTF8, .-u8g2_DrawExtUTF8
 2413              		.section	.text.u8g2_UpdateRefHeight,"ax",%progbits
 2414              		.align	1
 2415              		.global	u8g2_UpdateRefHeight
 2416              		.code	16
 2417              		.thumb_func
 2418              		.type	u8g2_UpdateRefHeight, %function
 2419              	u8g2_UpdateRefHeight:
 2420              	.LFB27:
 889:..\..\u8g2\csrc/u8g2_font.c ****   if ( u8g2->font == NULL )
 2421              		.loc 1 889 0
 2422              		.cfi_startproc
 2423              		@ args = 0, pretend = 0, frame = 0
 2424              		@ frame_needed = 0, uses_anonymous_args = 0
 2425              	.LVL353:
 890:..\..\u8g2\csrc/u8g2_font.c ****     return;
 2426              		.loc 1 890 0
 2427 0000 836C     		ldr	r3, [r0, #72]
 889:..\..\u8g2\csrc/u8g2_font.c ****   if ( u8g2->font == NULL )
 2428              		.loc 1 889 0
 2429 0002 70B5     		push	{r4, r5, r6, lr}
 2430              		.cfi_def_cfa_offset 16
 2431              		.cfi_offset 4, -16
 2432              		.cfi_offset 5, -12
 2433              		.cfi_offset 6, -8
 2434              		.cfi_offset 14, -4
 890:..\..\u8g2\csrc/u8g2_font.c ****     return;
 2435              		.loc 1 890 0
 2436 0004 002B     		cmp	r3, #0
 2437 0006 2BD0     		beq	.L144
 892:..\..\u8g2\csrc/u8g2_font.c ****   u8g2->font_ref_descent = u8g2->font_info.descent_g;
 2438              		.loc 1 892 0
 2439 0008 0300     		movs	r3, r0
 2440 000a 0026     		movs	r6, #0
 2441 000c 0500     		movs	r5, r0
 893:..\..\u8g2\csrc/u8g2_font.c ****   if ( u8g2->font_height_mode == U8G2_FONT_HEIGHT_MODE_TEXT )
 2442              		.loc 1 893 0
 2443 000e 0124     		movs	r4, #1
 2444 0010 0200     		movs	r2, r0
 892:..\..\u8g2\csrc/u8g2_font.c ****   u8g2->font_ref_descent = u8g2->font_info.descent_g;
 2445              		.loc 1 892 0
 2446 0012 6D33     		adds	r3, r3, #109
 2447 0014 9E57     		ldrsb	r6, [r3, r6]
 2448 0016 7935     		adds	r5, r5, #121
 2449 0018 2E70     		strb	r6, [r5]
 893:..\..\u8g2\csrc/u8g2_font.c ****   if ( u8g2->font_height_mode == U8G2_FONT_HEIGHT_MODE_TEXT )
 2450              		.loc 1 893 0
 2451 001a 1C57     		ldrsb	r4, [r3, r4]
 2452 001c 7A32     		adds	r2, r2, #122
 2453 001e 1470     		strb	r4, [r2]
 894:..\..\u8g2\csrc/u8g2_font.c ****   {
 2454              		.loc 1 894 0
 2455 0020 0B33     		adds	r3, r3, #11
 2456 0022 1B78     		ldrb	r3, [r3]
ARM GAS  C:\Users\gjl\AppData\Local\Temp\ccg70AS9.s 			page 70


 2457 0024 002B     		cmp	r3, #0
 2458 0026 1BD0     		beq	.L144
 897:..\..\u8g2\csrc/u8g2_font.c ****   {
 2459              		.loc 1 897 0
 2460 0028 012B     		cmp	r3, #1
 2461 002a 0CD1     		bne	.L148
 899:..\..\u8g2\csrc/u8g2_font.c ****       u8g2->font_ref_ascent = u8g2->font_info.ascent_para;
 2462              		.loc 1 899 0
 2463 002c 0300     		movs	r3, r0
 2464 002e 6F33     		adds	r3, r3, #111
 2465 0030 1B78     		ldrb	r3, [r3]
 2466 0032 5BB2     		sxtb	r3, r3
 2467 0034 9E42     		cmp	r6, r3
 2468 0036 00DA     		bge	.L149
 900:..\..\u8g2\csrc/u8g2_font.c ****     if ( u8g2->font_ref_descent > u8g2->font_info.descent_para )
 2469              		.loc 1 900 0
 2470 0038 2B70     		strb	r3, [r5]
 2471              	.L149:
 901:..\..\u8g2\csrc/u8g2_font.c ****       u8g2->font_ref_descent = u8g2->font_info.descent_para;
 2472              		.loc 1 901 0
 2473 003a 7023     		movs	r3, #112
 2474 003c C356     		ldrsb	r3, [r0, r3]
 2475 003e 9C42     		cmp	r4, r3
 2476 0040 0EDD     		ble	.L144
 902:..\..\u8g2\csrc/u8g2_font.c ****   }
 2477              		.loc 1 902 0
 2478 0042 1370     		strb	r3, [r2]
 2479 0044 0CE0     		b	.L144
 2480              	.L148:
 906:..\..\u8g2\csrc/u8g2_font.c ****       u8g2->font_ref_ascent = u8g2->font_info.max_char_height+u8g2->font_info.y_offset;
 2481              		.loc 1 906 0
 2482 0046 0300     		movs	r3, r0
 2483 0048 6C21     		movs	r1, #108
 2484 004a 6A33     		adds	r3, r3, #106
 2485 004c 1B78     		ldrb	r3, [r3]
 2486 004e 4156     		ldrsb	r1, [r0, r1]
 2487 0050 5BB2     		sxtb	r3, r3
 2488 0052 5B18     		adds	r3, r3, r1
 2489 0054 9E42     		cmp	r6, r3
 2490 0056 00DA     		bge	.L150
 907:..\..\u8g2\csrc/u8g2_font.c ****     if ( u8g2->font_ref_descent > u8g2->font_info.y_offset )
 2491              		.loc 1 907 0
 2492 0058 2B70     		strb	r3, [r5]
 2493              	.L150:
 908:..\..\u8g2\csrc/u8g2_font.c ****       u8g2->font_ref_descent = u8g2->font_info.y_offset;
 2494              		.loc 1 908 0
 2495 005a 8C42     		cmp	r4, r1
 2496 005c 00DD     		ble	.L144
 909:..\..\u8g2\csrc/u8g2_font.c ****   }  
 2497              		.loc 1 909 0
 2498 005e 1170     		strb	r1, [r2]
 2499              	.L144:
 911:..\..\u8g2\csrc/u8g2_font.c **** 
 2500              		.loc 1 911 0
 2501              		@ sp needed
 2502 0060 70BD     		pop	{r4, r5, r6, pc}
 2503              		.cfi_endproc
ARM GAS  C:\Users\gjl\AppData\Local\Temp\ccg70AS9.s 			page 71


 2504              	.LFE27:
 2505              		.size	u8g2_UpdateRefHeight, .-u8g2_UpdateRefHeight
 2506              		.section	.text.u8g2_SetFontRefHeightText,"ax",%progbits
 2507              		.align	1
 2508              		.global	u8g2_SetFontRefHeightText
 2509              		.code	16
 2510              		.thumb_func
 2511              		.type	u8g2_SetFontRefHeightText, %function
 2512              	u8g2_SetFontRefHeightText:
 2513              	.LFB28:
 914:..\..\u8g2\csrc/u8g2_font.c ****   u8g2->font_height_mode = U8G2_FONT_HEIGHT_MODE_TEXT;
 2514              		.loc 1 914 0
 2515              		.cfi_startproc
 2516              		@ args = 0, pretend = 0, frame = 0
 2517              		@ frame_needed = 0, uses_anonymous_args = 0
 2518              	.LVL354:
 915:..\..\u8g2\csrc/u8g2_font.c ****   u8g2_UpdateRefHeight(u8g2);
 2519              		.loc 1 915 0
 2520 0000 0300     		movs	r3, r0
 2521 0002 0022     		movs	r2, #0
 914:..\..\u8g2\csrc/u8g2_font.c ****   u8g2->font_height_mode = U8G2_FONT_HEIGHT_MODE_TEXT;
 2522              		.loc 1 914 0
 2523 0004 10B5     		push	{r4, lr}
 2524              		.cfi_def_cfa_offset 8
 2525              		.cfi_offset 4, -8
 2526              		.cfi_offset 14, -4
 915:..\..\u8g2\csrc/u8g2_font.c ****   u8g2_UpdateRefHeight(u8g2);
 2527              		.loc 1 915 0
 2528 0006 7833     		adds	r3, r3, #120
 2529 0008 1A70     		strb	r2, [r3]
 916:..\..\u8g2\csrc/u8g2_font.c **** }
 2530              		.loc 1 916 0
 2531 000a FFF7FEFF 		bl	u8g2_UpdateRefHeight
 2532              	.LVL355:
 917:..\..\u8g2\csrc/u8g2_font.c **** 
 2533              		.loc 1 917 0
 2534              		@ sp needed
 2535 000e 10BD     		pop	{r4, pc}
 2536              		.cfi_endproc
 2537              	.LFE28:
 2538              		.size	u8g2_SetFontRefHeightText, .-u8g2_SetFontRefHeightText
 2539              		.section	.text.u8g2_SetFontRefHeightExtendedText,"ax",%progbits
 2540              		.align	1
 2541              		.global	u8g2_SetFontRefHeightExtendedText
 2542              		.code	16
 2543              		.thumb_func
 2544              		.type	u8g2_SetFontRefHeightExtendedText, %function
 2545              	u8g2_SetFontRefHeightExtendedText:
 2546              	.LFB29:
 920:..\..\u8g2\csrc/u8g2_font.c ****   u8g2->font_height_mode = U8G2_FONT_HEIGHT_MODE_XTEXT;
 2547              		.loc 1 920 0
 2548              		.cfi_startproc
 2549              		@ args = 0, pretend = 0, frame = 0
 2550              		@ frame_needed = 0, uses_anonymous_args = 0
 2551              	.LVL356:
 921:..\..\u8g2\csrc/u8g2_font.c ****   u8g2_UpdateRefHeight(u8g2);
 2552              		.loc 1 921 0
ARM GAS  C:\Users\gjl\AppData\Local\Temp\ccg70AS9.s 			page 72


 2553 0000 0300     		movs	r3, r0
 2554 0002 0122     		movs	r2, #1
 920:..\..\u8g2\csrc/u8g2_font.c ****   u8g2->font_height_mode = U8G2_FONT_HEIGHT_MODE_XTEXT;
 2555              		.loc 1 920 0
 2556 0004 10B5     		push	{r4, lr}
 2557              		.cfi_def_cfa_offset 8
 2558              		.cfi_offset 4, -8
 2559              		.cfi_offset 14, -4
 921:..\..\u8g2\csrc/u8g2_font.c ****   u8g2_UpdateRefHeight(u8g2);
 2560              		.loc 1 921 0
 2561 0006 7833     		adds	r3, r3, #120
 2562 0008 1A70     		strb	r2, [r3]
 922:..\..\u8g2\csrc/u8g2_font.c **** }
 2563              		.loc 1 922 0
 2564 000a FFF7FEFF 		bl	u8g2_UpdateRefHeight
 2565              	.LVL357:
 923:..\..\u8g2\csrc/u8g2_font.c **** 
 2566              		.loc 1 923 0
 2567              		@ sp needed
 2568 000e 10BD     		pop	{r4, pc}
 2569              		.cfi_endproc
 2570              	.LFE29:
 2571              		.size	u8g2_SetFontRefHeightExtendedText, .-u8g2_SetFontRefHeightExtendedText
 2572              		.section	.text.u8g2_SetFontRefHeightAll,"ax",%progbits
 2573              		.align	1
 2574              		.global	u8g2_SetFontRefHeightAll
 2575              		.code	16
 2576              		.thumb_func
 2577              		.type	u8g2_SetFontRefHeightAll, %function
 2578              	u8g2_SetFontRefHeightAll:
 2579              	.LFB30:
 926:..\..\u8g2\csrc/u8g2_font.c ****   u8g2->font_height_mode = U8G2_FONT_HEIGHT_MODE_ALL;
 2580              		.loc 1 926 0
 2581              		.cfi_startproc
 2582              		@ args = 0, pretend = 0, frame = 0
 2583              		@ frame_needed = 0, uses_anonymous_args = 0
 2584              	.LVL358:
 927:..\..\u8g2\csrc/u8g2_font.c ****   u8g2_UpdateRefHeight(u8g2);
 2585              		.loc 1 927 0
 2586 0000 0300     		movs	r3, r0
 2587 0002 0222     		movs	r2, #2
 926:..\..\u8g2\csrc/u8g2_font.c ****   u8g2->font_height_mode = U8G2_FONT_HEIGHT_MODE_ALL;
 2588              		.loc 1 926 0
 2589 0004 10B5     		push	{r4, lr}
 2590              		.cfi_def_cfa_offset 8
 2591              		.cfi_offset 4, -8
 2592              		.cfi_offset 14, -4
 927:..\..\u8g2\csrc/u8g2_font.c ****   u8g2_UpdateRefHeight(u8g2);
 2593              		.loc 1 927 0
 2594 0006 7833     		adds	r3, r3, #120
 2595 0008 1A70     		strb	r2, [r3]
 928:..\..\u8g2\csrc/u8g2_font.c **** }
 2596              		.loc 1 928 0
 2597 000a FFF7FEFF 		bl	u8g2_UpdateRefHeight
 2598              	.LVL359:
 929:..\..\u8g2\csrc/u8g2_font.c **** 
 2599              		.loc 1 929 0
ARM GAS  C:\Users\gjl\AppData\Local\Temp\ccg70AS9.s 			page 73


 2600              		@ sp needed
 2601 000e 10BD     		pop	{r4, pc}
 2602              		.cfi_endproc
 2603              	.LFE30:
 2604              		.size	u8g2_SetFontRefHeightAll, .-u8g2_SetFontRefHeightAll
 2605              		.section	.text.u8g2_SetFontPosBaseline,"ax",%progbits
 2606              		.align	1
 2607              		.global	u8g2_SetFontPosBaseline
 2608              		.code	16
 2609              		.thumb_func
 2610              		.type	u8g2_SetFontPosBaseline, %function
 2611              	u8g2_SetFontPosBaseline:
 2612              	.LFB32:
 940:..\..\u8g2\csrc/u8g2_font.c ****   u8g2->font_calc_vref = u8g2_font_calc_vref_font;
 2613              		.loc 1 940 0
 2614              		.cfi_startproc
 2615              		@ args = 0, pretend = 0, frame = 0
 2616              		@ frame_needed = 0, uses_anonymous_args = 0
 2617              		@ link register save eliminated.
 2618              	.LVL360:
 941:..\..\u8g2\csrc/u8g2_font.c **** }
 2619              		.loc 1 941 0
 2620 0000 014B     		ldr	r3, .L158
 942:..\..\u8g2\csrc/u8g2_font.c **** 
 2621              		.loc 1 942 0
 2622              		@ sp needed
 941:..\..\u8g2\csrc/u8g2_font.c **** }
 2623              		.loc 1 941 0
 2624 0002 C364     		str	r3, [r0, #76]
 942:..\..\u8g2\csrc/u8g2_font.c **** 
 2625              		.loc 1 942 0
 2626 0004 7047     		bx	lr
 2627              	.L159:
 2628 0006 C046     		.align	2
 2629              	.L158:
 2630 0008 00000000 		.word	u8g2_font_calc_vref_font
 2631              		.cfi_endproc
 2632              	.LFE32:
 2633              		.size	u8g2_SetFontPosBaseline, .-u8g2_SetFontPosBaseline
 2634              		.section	.text.u8g2_SetFontPosBottom,"ax",%progbits
 2635              		.align	1
 2636              		.global	u8g2_SetFontPosBottom
 2637              		.code	16
 2638              		.thumb_func
 2639              		.type	u8g2_SetFontPosBottom, %function
 2640              	u8g2_SetFontPosBottom:
 2641              	.LFB34:
 951:..\..\u8g2\csrc/u8g2_font.c ****   u8g2->font_calc_vref = u8g2_font_calc_vref_bottom;
 2642              		.loc 1 951 0
 2643              		.cfi_startproc
 2644              		@ args = 0, pretend = 0, frame = 0
 2645              		@ frame_needed = 0, uses_anonymous_args = 0
 2646              		@ link register save eliminated.
 2647              	.LVL361:
 952:..\..\u8g2\csrc/u8g2_font.c **** }
 2648              		.loc 1 952 0
 2649 0000 014B     		ldr	r3, .L161
ARM GAS  C:\Users\gjl\AppData\Local\Temp\ccg70AS9.s 			page 74


 953:..\..\u8g2\csrc/u8g2_font.c **** 
 2650              		.loc 1 953 0
 2651              		@ sp needed
 952:..\..\u8g2\csrc/u8g2_font.c **** }
 2652              		.loc 1 952 0
 2653 0002 C364     		str	r3, [r0, #76]
 953:..\..\u8g2\csrc/u8g2_font.c **** 
 2654              		.loc 1 953 0
 2655 0004 7047     		bx	lr
 2656              	.L162:
 2657 0006 C046     		.align	2
 2658              	.L161:
 2659 0008 00000000 		.word	u8g2_font_calc_vref_bottom
 2660              		.cfi_endproc
 2661              	.LFE34:
 2662              		.size	u8g2_SetFontPosBottom, .-u8g2_SetFontPosBottom
 2663              		.section	.text.u8g2_SetFontPosTop,"ax",%progbits
 2664              		.align	1
 2665              		.global	u8g2_SetFontPosTop
 2666              		.code	16
 2667              		.thumb_func
 2668              		.type	u8g2_SetFontPosTop, %function
 2669              	u8g2_SetFontPosTop:
 2670              	.LFB36:
 965:..\..\u8g2\csrc/u8g2_font.c ****   u8g2->font_calc_vref = u8g2_font_calc_vref_top;
 2671              		.loc 1 965 0
 2672              		.cfi_startproc
 2673              		@ args = 0, pretend = 0, frame = 0
 2674              		@ frame_needed = 0, uses_anonymous_args = 0
 2675              		@ link register save eliminated.
 2676              	.LVL362:
 966:..\..\u8g2\csrc/u8g2_font.c **** }
 2677              		.loc 1 966 0
 2678 0000 014B     		ldr	r3, .L164
 967:..\..\u8g2\csrc/u8g2_font.c **** 
 2679              		.loc 1 967 0
 2680              		@ sp needed
 966:..\..\u8g2\csrc/u8g2_font.c **** }
 2681              		.loc 1 966 0
 2682 0002 C364     		str	r3, [r0, #76]
 967:..\..\u8g2\csrc/u8g2_font.c **** 
 2683              		.loc 1 967 0
 2684 0004 7047     		bx	lr
 2685              	.L165:
 2686 0006 C046     		.align	2
 2687              	.L164:
 2688 0008 00000000 		.word	u8g2_font_calc_vref_top
 2689              		.cfi_endproc
 2690              	.LFE36:
 2691              		.size	u8g2_SetFontPosTop, .-u8g2_SetFontPosTop
 2692              		.section	.text.u8g2_SetFontPosCenter,"ax",%progbits
 2693              		.align	1
 2694              		.global	u8g2_SetFontPosCenter
 2695              		.code	16
 2696              		.thumb_func
 2697              		.type	u8g2_SetFontPosCenter, %function
 2698              	u8g2_SetFontPosCenter:
ARM GAS  C:\Users\gjl\AppData\Local\Temp\ccg70AS9.s 			page 75


 2699              	.LFB38:
 980:..\..\u8g2\csrc/u8g2_font.c ****   u8g2->font_calc_vref = u8g2_font_calc_vref_center;
 2700              		.loc 1 980 0
 2701              		.cfi_startproc
 2702              		@ args = 0, pretend = 0, frame = 0
 2703              		@ frame_needed = 0, uses_anonymous_args = 0
 2704              		@ link register save eliminated.
 2705              	.LVL363:
 981:..\..\u8g2\csrc/u8g2_font.c **** }
 2706              		.loc 1 981 0
 2707 0000 014B     		ldr	r3, .L167
 982:..\..\u8g2\csrc/u8g2_font.c **** 
 2708              		.loc 1 982 0
 2709              		@ sp needed
 981:..\..\u8g2\csrc/u8g2_font.c **** }
 2710              		.loc 1 981 0
 2711 0002 C364     		str	r3, [r0, #76]
 982:..\..\u8g2\csrc/u8g2_font.c **** 
 2712              		.loc 1 982 0
 2713 0004 7047     		bx	lr
 2714              	.L168:
 2715 0006 C046     		.align	2
 2716              	.L167:
 2717 0008 00000000 		.word	u8g2_font_calc_vref_center
 2718              		.cfi_endproc
 2719              	.LFE38:
 2720              		.size	u8g2_SetFontPosCenter, .-u8g2_SetFontPosCenter
 2721              		.section	.text.u8g2_SetFont,"ax",%progbits
 2722              		.align	1
 2723              		.global	u8g2_SetFont
 2724              		.code	16
 2725              		.thumb_func
 2726              		.type	u8g2_SetFont, %function
 2727              	u8g2_SetFont:
 2728              	.LFB39:
 987:..\..\u8g2\csrc/u8g2_font.c ****   if ( u8g2->font != font )
 2729              		.loc 1 987 0
 2730              		.cfi_startproc
 2731              		@ args = 0, pretend = 0, frame = 0
 2732              		@ frame_needed = 0, uses_anonymous_args = 0
 2733              	.LVL364:
 988:..\..\u8g2\csrc/u8g2_font.c ****   {
 2734              		.loc 1 988 0
 2735 0000 836C     		ldr	r3, [r0, #72]
 987:..\..\u8g2\csrc/u8g2_font.c ****   if ( u8g2->font != font )
 2736              		.loc 1 987 0
 2737 0002 10B5     		push	{r4, lr}
 2738              		.cfi_def_cfa_offset 8
 2739              		.cfi_offset 4, -8
 2740              		.cfi_offset 14, -4
 987:..\..\u8g2\csrc/u8g2_font.c ****   if ( u8g2->font != font )
 2741              		.loc 1 987 0
 2742 0004 0400     		movs	r4, r0
 988:..\..\u8g2\csrc/u8g2_font.c ****   {
 2743              		.loc 1 988 0
 2744 0006 8B42     		cmp	r3, r1
 2745 0008 06D0     		beq	.L169
ARM GAS  C:\Users\gjl\AppData\Local\Temp\ccg70AS9.s 			page 76


 990:..\..\u8g2\csrc/u8g2_font.c ****     u8g2_read_font_info(&(u8g2->font_info), font);
 2746              		.loc 1 990 0
 2747 000a 8164     		str	r1, [r0, #72]
 991:..\..\u8g2\csrc/u8g2_font.c ****     u8g2_UpdateRefHeight(u8g2);
 2748              		.loc 1 991 0
 2749 000c 6030     		adds	r0, r0, #96
 2750              	.LVL365:
 2751 000e FFF7FEFF 		bl	u8g2_read_font_info
 2752              	.LVL366:
 992:..\..\u8g2\csrc/u8g2_font.c ****     /* u8g2_SetFontPosBaseline(u8g2); */ /* removed with issue 195 */
 2753              		.loc 1 992 0
 2754 0012 2000     		movs	r0, r4
 2755 0014 FFF7FEFF 		bl	u8g2_UpdateRefHeight
 2756              	.LVL367:
 2757              	.L169:
 995:..\..\u8g2\csrc/u8g2_font.c **** 
 2758              		.loc 1 995 0
 2759              		@ sp needed
 2760              	.LVL368:
 2761 0018 10BD     		pop	{r4, pc}
 2762              		.cfi_endproc
 2763              	.LFE39:
 2764              		.size	u8g2_SetFont, .-u8g2_SetFont
 2765              		.section	.text.u8g2_GetStrX,"ax",%progbits
 2766              		.align	1
 2767              		.global	u8g2_GetStrX
 2768              		.code	16
 2769              		.thumb_func
 2770              		.type	u8g2_GetStrX, %function
 2771              	u8g2_GetStrX:
 2772              	.LFB42:
1053:..\..\u8g2\csrc/u8g2_font.c **** 
1054:..\..\u8g2\csrc/u8g2_font.c **** /* u8g compatible GetStrX function */
1055:..\..\u8g2\csrc/u8g2_font.c **** int8_t u8g2_GetStrX(u8g2_t *u8g2, const char *s)
1056:..\..\u8g2\csrc/u8g2_font.c **** {
 2773              		.loc 1 1056 0
 2774              		.cfi_startproc
 2775              		@ args = 0, pretend = 0, frame = 8
 2776              		@ frame_needed = 0, uses_anonymous_args = 0
 2777              	.LVL369:
 2778 0000 1FB5     		push	{r0, r1, r2, r3, r4, lr}
 2779              		.cfi_def_cfa_offset 24
 2780              		.cfi_offset 0, -24
 2781              		.cfi_offset 1, -20
 2782              		.cfi_offset 2, -16
 2783              		.cfi_offset 3, -12
 2784              		.cfi_offset 4, -8
 2785              		.cfi_offset 14, -4
1057:..\..\u8g2\csrc/u8g2_font.c ****   uint8_t w;
1058:..\..\u8g2\csrc/u8g2_font.c ****   int8_t ox, dx;
1059:..\..\u8g2\csrc/u8g2_font.c ****   u8g2_GetGlyphHorizontalProperties(u8g2, *s, &w, &ox, &dx);
 2786              		.loc 1 1059 0
 2787 0002 0E24     		movs	r4, #14
 2788 0004 0F23     		movs	r3, #15
 2789 0006 0D22     		movs	r2, #13
 2790 0008 6C44     		add	r4, r4, sp
 2791 000a 6B44     		add	r3, r3, sp
ARM GAS  C:\Users\gjl\AppData\Local\Temp\ccg70AS9.s 			page 77


 2792 000c 0978     		ldrb	r1, [r1]
 2793              	.LVL370:
 2794 000e 6A44     		add	r2, r2, sp
 2795 0010 0093     		str	r3, [sp]
 2796 0012 2300     		movs	r3, r4
 2797 0014 FFF7FEFF 		bl	u8g2_GetGlyphHorizontalProperties
 2798              	.LVL371:
1060:..\..\u8g2\csrc/u8g2_font.c ****   return ox;
 2799              		.loc 1 1060 0
 2800 0018 0020     		movs	r0, #0
 2801 001a 2056     		ldrsb	r0, [r4, r0]
1061:..\..\u8g2\csrc/u8g2_font.c **** }
 2802              		.loc 1 1061 0
 2803 001c 04B0     		add	sp, sp, #16
 2804              		@ sp needed
 2805 001e 10BD     		pop	{r4, pc}
 2806              		.cfi_endproc
 2807              	.LFE42:
 2808              		.size	u8g2_GetStrX, .-u8g2_GetStrX
 2809              		.section	.text.u8g2_GetStrWidth,"ax",%progbits
 2810              		.align	1
 2811              		.global	u8g2_GetStrWidth
 2812              		.code	16
 2813              		.thumb_func
 2814              		.type	u8g2_GetStrWidth, %function
 2815              	u8g2_GetStrWidth:
 2816              	.LFB44:
1062:..\..\u8g2\csrc/u8g2_font.c **** 
1063:..\..\u8g2\csrc/u8g2_font.c **** 
1064:..\..\u8g2\csrc/u8g2_font.c **** 
1065:..\..\u8g2\csrc/u8g2_font.c **** static u8g2_uint_t u8g2_calculate_exact_string_width(u8g2_t *u8g2, const char *str)
1066:..\..\u8g2\csrc/u8g2_font.c **** {
1067:..\..\u8g2\csrc/u8g2_font.c **** 
1068:..\..\u8g2\csrc/u8g2_font.c ****   u8g2_uint_t  w;
1069:..\..\u8g2\csrc/u8g2_font.c ****   uint16_t enc;
1070:..\..\u8g2\csrc/u8g2_font.c ****   uint8_t gw; 
1071:..\..\u8g2\csrc/u8g2_font.c ****   int8_t ox, dx;
1072:..\..\u8g2\csrc/u8g2_font.c ****   
1073:..\..\u8g2\csrc/u8g2_font.c ****   /* reset the total minimal width to zero, this will be expanded during calculation */
1074:..\..\u8g2\csrc/u8g2_font.c ****   w = 0;
1075:..\..\u8g2\csrc/u8g2_font.c ****     
1076:..\..\u8g2\csrc/u8g2_font.c ****   
1077:..\..\u8g2\csrc/u8g2_font.c ****   /* check for empty string, width is already 0 */
1078:..\..\u8g2\csrc/u8g2_font.c ****   do
1079:..\..\u8g2\csrc/u8g2_font.c ****   {
1080:..\..\u8g2\csrc/u8g2_font.c ****     enc = u8g2->u8x8.next_cb(u8g2_GetU8x8(u8g2), (uint8_t)*str);
1081:..\..\u8g2\csrc/u8g2_font.c ****     str++;
1082:..\..\u8g2\csrc/u8g2_font.c ****   } while( enc == 0x0fffe );
1083:..\..\u8g2\csrc/u8g2_font.c ****   
1084:..\..\u8g2\csrc/u8g2_font.c ****   if ( enc== 0x0ffff )
1085:..\..\u8g2\csrc/u8g2_font.c ****      return w;
1086:..\..\u8g2\csrc/u8g2_font.c ****   
1087:..\..\u8g2\csrc/u8g2_font.c ****   /* get the glyph information of the first char. This must be valid, because we already checked fo
1088:..\..\u8g2\csrc/u8g2_font.c ****   /* if *s is not inside the font, then the cached parameters of the glyph are all zero */
1089:..\..\u8g2\csrc/u8g2_font.c ****   u8g2_GetGlyphHorizontalProperties(u8g2, enc, &gw, &ox, &dx);  
1090:..\..\u8g2\csrc/u8g2_font.c **** 
1091:..\..\u8g2\csrc/u8g2_font.c ****   /* strlen(s) == 1:       width = width(s[0]) */
ARM GAS  C:\Users\gjl\AppData\Local\Temp\ccg70AS9.s 			page 78


1092:..\..\u8g2\csrc/u8g2_font.c ****   /* strlen(s) == 2:       width = - offx(s[0]) + deltax(s[0]) + offx(s[1]) + width(s[1]) */
1093:..\..\u8g2\csrc/u8g2_font.c ****   /* strlen(s) == 3:       width = - offx(s[0]) + deltax(s[0]) + deltax(s[1]) + offx(s[2]) + width(
1094:..\..\u8g2\csrc/u8g2_font.c ****   
1095:..\..\u8g2\csrc/u8g2_font.c ****   /* assume that the string has size 2 or more, than start with negative offset-x */
1096:..\..\u8g2\csrc/u8g2_font.c ****   /* for string with size 1, this will be nullified after the loop */
1097:..\..\u8g2\csrc/u8g2_font.c ****   w = -ox;  
1098:..\..\u8g2\csrc/u8g2_font.c ****   for(;;)
1099:..\..\u8g2\csrc/u8g2_font.c ****   {
1100:..\..\u8g2\csrc/u8g2_font.c ****     
1101:..\..\u8g2\csrc/u8g2_font.c ****     /* check and stop if the end of the string is reached */
1102:..\..\u8g2\csrc/u8g2_font.c ****     do
1103:..\..\u8g2\csrc/u8g2_font.c ****     {
1104:..\..\u8g2\csrc/u8g2_font.c ****       enc = u8g2->u8x8.next_cb(u8g2_GetU8x8(u8g2), (uint8_t)*str);
1105:..\..\u8g2\csrc/u8g2_font.c ****       str++;
1106:..\..\u8g2\csrc/u8g2_font.c ****     } while( enc == 0x0fffe );
1107:..\..\u8g2\csrc/u8g2_font.c ****     if ( enc== 0x0ffff )
1108:..\..\u8g2\csrc/u8g2_font.c ****       break;
1109:..\..\u8g2\csrc/u8g2_font.c **** 
1110:..\..\u8g2\csrc/u8g2_font.c ****     u8g2_GetGlyphHorizontalProperties(u8g2, enc, &gw, &ox, &dx);  
1111:..\..\u8g2\csrc/u8g2_font.c ****     
1112:..\..\u8g2\csrc/u8g2_font.c ****     /* if there are still more characters, add the delta to the next glyph */
1113:..\..\u8g2\csrc/u8g2_font.c ****     w += dx;    
1114:..\..\u8g2\csrc/u8g2_font.c ****   }
1115:..\..\u8g2\csrc/u8g2_font.c ****   
1116:..\..\u8g2\csrc/u8g2_font.c ****   /* finally calculate the width of the last char */
1117:..\..\u8g2\csrc/u8g2_font.c ****   /* here is another exception, if the last char is a black, use the dx value instead */
1118:..\..\u8g2\csrc/u8g2_font.c ****   if ( enc != ' ' )
1119:..\..\u8g2\csrc/u8g2_font.c ****   {
1120:..\..\u8g2\csrc/u8g2_font.c ****     /* if g was not updated in the for loop (strlen() == 1), then the initial offset x gets removed
1121:..\..\u8g2\csrc/u8g2_font.c ****     w += gw;
1122:..\..\u8g2\csrc/u8g2_font.c ****     w += ox;
1123:..\..\u8g2\csrc/u8g2_font.c ****   }
1124:..\..\u8g2\csrc/u8g2_font.c ****   else
1125:..\..\u8g2\csrc/u8g2_font.c ****   {
1126:..\..\u8g2\csrc/u8g2_font.c ****     w += dx;
1127:..\..\u8g2\csrc/u8g2_font.c ****   }
1128:..\..\u8g2\csrc/u8g2_font.c ****   
1129:..\..\u8g2\csrc/u8g2_font.c ****   
1130:..\..\u8g2\csrc/u8g2_font.c ****   return w;
1131:..\..\u8g2\csrc/u8g2_font.c **** 	
1132:..\..\u8g2\csrc/u8g2_font.c **** }
1133:..\..\u8g2\csrc/u8g2_font.c **** 
1134:..\..\u8g2\csrc/u8g2_font.c **** 
1135:..\..\u8g2\csrc/u8g2_font.c **** 
1136:..\..\u8g2\csrc/u8g2_font.c **** 
1137:..\..\u8g2\csrc/u8g2_font.c **** 
1138:..\..\u8g2\csrc/u8g2_font.c **** u8g2_uint_t u8g2_GetStrWidth(u8g2_t *u8g2, const char *s)
1139:..\..\u8g2\csrc/u8g2_font.c **** {
 2817              		.loc 1 1139 0
 2818              		.cfi_startproc
 2819              		@ args = 0, pretend = 0, frame = 0
 2820              		@ frame_needed = 0, uses_anonymous_args = 0
 2821              	.LVL372:
 2822 0000 10B5     		push	{r4, lr}
 2823              		.cfi_def_cfa_offset 8
 2824              		.cfi_offset 4, -8
 2825              		.cfi_offset 14, -4
ARM GAS  C:\Users\gjl\AppData\Local\Temp\ccg70AS9.s 			page 79


1140:..\..\u8g2\csrc/u8g2_font.c ****   u8g2->u8x8.next_cb = u8x8_ascii_next;
 2826              		.loc 1 1140 0
 2827 0002 024B     		ldr	r3, .L173
1141:..\..\u8g2\csrc/u8g2_font.c ****   return u8g2_string_width(u8g2, s);
1142:..\..\u8g2\csrc/u8g2_font.c **** }
 2828              		.loc 1 1142 0
 2829              		@ sp needed
1140:..\..\u8g2\csrc/u8g2_font.c ****   u8g2->u8x8.next_cb = u8x8_ascii_next;
 2830              		.loc 1 1140 0
 2831 0004 4360     		str	r3, [r0, #4]
1141:..\..\u8g2\csrc/u8g2_font.c ****   return u8g2_string_width(u8g2, s);
 2832              		.loc 1 1141 0
 2833 0006 FFF7FEFF 		bl	u8g2_string_width
 2834              	.LVL373:
 2835              		.loc 1 1142 0
 2836 000a 10BD     		pop	{r4, pc}
 2837              	.L174:
 2838              		.align	2
 2839              	.L173:
 2840 000c 00000000 		.word	u8x8_ascii_next
 2841              		.cfi_endproc
 2842              	.LFE44:
 2843              		.size	u8g2_GetStrWidth, .-u8g2_GetStrWidth
 2844              		.section	.text.u8g2_GetExactStrWidth,"ax",%progbits
 2845              		.align	1
 2846              		.global	u8g2_GetExactStrWidth
 2847              		.code	16
 2848              		.thumb_func
 2849              		.type	u8g2_GetExactStrWidth, %function
 2850              	u8g2_GetExactStrWidth:
 2851              	.LFB45:
1143:..\..\u8g2\csrc/u8g2_font.c **** 
1144:..\..\u8g2\csrc/u8g2_font.c **** u8g2_uint_t u8g2_GetExactStrWidth(u8g2_t *u8g2, const char *s)
1145:..\..\u8g2\csrc/u8g2_font.c **** {
 2852              		.loc 1 1145 0
 2853              		.cfi_startproc
 2854              		@ args = 0, pretend = 0, frame = 8
 2855              		@ frame_needed = 0, uses_anonymous_args = 0
 2856              	.LVL374:
 2857 0000 F0B5     		push	{r4, r5, r6, r7, lr}
 2858              		.cfi_def_cfa_offset 20
 2859              		.cfi_offset 4, -20
 2860              		.cfi_offset 5, -16
 2861              		.cfi_offset 6, -12
 2862              		.cfi_offset 7, -8
 2863              		.cfi_offset 14, -4
 2864 0002 0400     		movs	r4, r0
 2865 0004 0D00     		movs	r5, r1
1146:..\..\u8g2\csrc/u8g2_font.c ****   u8g2->u8x8.next_cb = u8x8_ascii_next;
 2866              		.loc 1 1146 0
 2867 0006 1F4B     		ldr	r3, .L184
1145:..\..\u8g2\csrc/u8g2_font.c ****   u8g2->u8x8.next_cb = u8x8_ascii_next;
 2868              		.loc 1 1145 0
 2869 0008 85B0     		sub	sp, sp, #20
 2870              		.cfi_def_cfa_offset 40
 2871              		.loc 1 1146 0
 2872 000a 4360     		str	r3, [r0, #4]
ARM GAS  C:\Users\gjl\AppData\Local\Temp\ccg70AS9.s 			page 80


 2873              	.LVL375:
 2874              	.L176:
 2875              	.LBB64:
 2876              	.LBB65:
1080:..\..\u8g2\csrc/u8g2_font.c ****     str++;
 2877              		.loc 1 1080 0
 2878 000c 2978     		ldrb	r1, [r5]
 2879 000e 6368     		ldr	r3, [r4, #4]
 2880 0010 2000     		movs	r0, r4
 2881 0012 9847     		blx	r3
 2882              	.LVL376:
1082:..\..\u8g2\csrc/u8g2_font.c ****   
 2883              		.loc 1 1082 0
 2884 0014 1C4B     		ldr	r3, .L184+4
1080:..\..\u8g2\csrc/u8g2_font.c ****     str++;
 2885              		.loc 1 1080 0
 2886 0016 0100     		movs	r1, r0
 2887              	.LVL377:
1081:..\..\u8g2\csrc/u8g2_font.c ****   } while( enc == 0x0fffe );
 2888              		.loc 1 1081 0
 2889 0018 0135     		adds	r5, r5, #1
 2890              	.LVL378:
1082:..\..\u8g2\csrc/u8g2_font.c ****   
 2891              		.loc 1 1082 0
 2892 001a 9842     		cmp	r0, r3
 2893 001c F6D0     		beq	.L176
1084:..\..\u8g2\csrc/u8g2_font.c ****      return w;
 2894              		.loc 1 1084 0
 2895 001e 1B4B     		ldr	r3, .L184+8
1085:..\..\u8g2\csrc/u8g2_font.c ****   
 2896              		.loc 1 1085 0
 2897 0020 0020     		movs	r0, #0
 2898              	.LVL379:
1084:..\..\u8g2\csrc/u8g2_font.c ****      return w;
 2899              		.loc 1 1084 0
 2900 0022 9942     		cmp	r1, r3
 2901 0024 2BD0     		beq	.L177
1089:..\..\u8g2\csrc/u8g2_font.c **** 
 2902              		.loc 1 1089 0
 2903 0026 0E26     		movs	r6, #14
 2904 0028 0F23     		movs	r3, #15
 2905 002a 0D22     		movs	r2, #13
 2906 002c 6E44     		add	r6, r6, sp
 2907 002e 6B44     		add	r3, r3, sp
 2908 0030 0093     		str	r3, [sp]
 2909 0032 2000     		movs	r0, r4
 2910 0034 3300     		movs	r3, r6
 2911 0036 6A44     		add	r2, r2, sp
 2912 0038 FFF7FEFF 		bl	u8g2_GetGlyphHorizontalProperties
 2913              	.LVL380:
1097:..\..\u8g2\csrc/u8g2_font.c ****   for(;;)
 2914              		.loc 1 1097 0
 2915 003c 3078     		ldrb	r0, [r6]
 2916 003e 4042     		rsbs	r0, r0, #0
 2917              	.LVL381:
 2918              	.L183:
 2919 0040 C7B2     		uxtb	r7, r0
ARM GAS  C:\Users\gjl\AppData\Local\Temp\ccg70AS9.s 			page 81


 2920              	.LVL382:
 2921              	.L178:
1104:..\..\u8g2\csrc/u8g2_font.c ****       str++;
 2922              		.loc 1 1104 0
 2923 0042 2978     		ldrb	r1, [r5]
 2924 0044 6368     		ldr	r3, [r4, #4]
 2925 0046 2000     		movs	r0, r4
 2926 0048 9847     		blx	r3
 2927              	.LVL383:
1106:..\..\u8g2\csrc/u8g2_font.c ****     if ( enc== 0x0ffff )
 2928              		.loc 1 1106 0
 2929 004a 0F4B     		ldr	r3, .L184+4
1104:..\..\u8g2\csrc/u8g2_font.c ****       str++;
 2930              		.loc 1 1104 0
 2931 004c 0100     		movs	r1, r0
 2932              	.LVL384:
1105:..\..\u8g2\csrc/u8g2_font.c ****     } while( enc == 0x0fffe );
 2933              		.loc 1 1105 0
 2934 004e 0135     		adds	r5, r5, #1
 2935              	.LVL385:
1106:..\..\u8g2\csrc/u8g2_font.c ****     if ( enc== 0x0ffff )
 2936              		.loc 1 1106 0
 2937 0050 9842     		cmp	r0, r3
 2938 0052 F6D0     		beq	.L178
 2939 0054 0D22     		movs	r2, #13
1107:..\..\u8g2\csrc/u8g2_font.c ****       break;
 2940              		.loc 1 1107 0
 2941 0056 0D4B     		ldr	r3, .L184+8
 2942 0058 6A44     		add	r2, r2, sp
 2943 005a 9842     		cmp	r0, r3
 2944 005c 0AD0     		beq	.L180
1110:..\..\u8g2\csrc/u8g2_font.c ****     
 2945              		.loc 1 1110 0
 2946 005e 0F23     		movs	r3, #15
 2947 0060 6B44     		add	r3, r3, sp
 2948 0062 0093     		str	r3, [sp]
 2949 0064 2000     		movs	r0, r4
 2950              	.LVL386:
 2951 0066 3300     		movs	r3, r6
 2952 0068 FFF7FEFF 		bl	u8g2_GetGlyphHorizontalProperties
 2953              	.LVL387:
1113:..\..\u8g2\csrc/u8g2_font.c ****   }
 2954              		.loc 1 1113 0
 2955 006c 6B46     		mov	r3, sp
 2956 006e D87B     		ldrb	r0, [r3, #15]
 2957 0070 3818     		adds	r0, r7, r0
 2958 0072 E5E7     		b	.L183
 2959              	.LVL388:
 2960              	.L180:
1122:..\..\u8g2\csrc/u8g2_font.c ****   }
 2961              		.loc 1 1122 0
 2962 0074 1078     		ldrb	r0, [r2]
 2963              	.LVL389:
 2964 0076 3378     		ldrb	r3, [r6]
 2965 0078 C018     		adds	r0, r0, r3
 2966 007a 3818     		adds	r0, r7, r0
 2967 007c C0B2     		uxtb	r0, r0
ARM GAS  C:\Users\gjl\AppData\Local\Temp\ccg70AS9.s 			page 82


 2968              	.LVL390:
 2969              	.L177:
 2970              	.LBE65:
 2971              	.LBE64:
1147:..\..\u8g2\csrc/u8g2_font.c ****   return u8g2_calculate_exact_string_width(u8g2, s);
1148:..\..\u8g2\csrc/u8g2_font.c **** }
 2972              		.loc 1 1148 0
 2973 007e 05B0     		add	sp, sp, #20
 2974              		@ sp needed
 2975              	.LVL391:
 2976 0080 F0BD     		pop	{r4, r5, r6, r7, pc}
 2977              	.L185:
 2978 0082 C046     		.align	2
 2979              	.L184:
 2980 0084 00000000 		.word	u8x8_ascii_next
 2981 0088 FEFF0000 		.word	65534
 2982 008c FFFF0000 		.word	65535
 2983              		.cfi_endproc
 2984              	.LFE45:
 2985              		.size	u8g2_GetExactStrWidth, .-u8g2_GetExactStrWidth
 2986              		.section	.text.u8g2_GetUTF8Width,"ax",%progbits
 2987              		.align	1
 2988              		.global	u8g2_GetUTF8Width
 2989              		.code	16
 2990              		.thumb_func
 2991              		.type	u8g2_GetUTF8Width, %function
 2992              	u8g2_GetUTF8Width:
 2993              	.LFB46:
1149:..\..\u8g2\csrc/u8g2_font.c **** 
1150:..\..\u8g2\csrc/u8g2_font.c **** /*
1151:..\..\u8g2\csrc/u8g2_font.c **** source: https://en.wikipedia.org/wiki/UTF-8
1152:..\..\u8g2\csrc/u8g2_font.c **** Bits	from 		to			bytes	Byte 1 		Byte 2 		Byte 3 		Byte 4 		Byte 5 		Byte 6
1153:..\..\u8g2\csrc/u8g2_font.c ****   7 	U+0000 		U+007F 		1 		0xxxxxxx
1154:..\..\u8g2\csrc/u8g2_font.c **** 11 	U+0080 		U+07FF 		2 		110xxxxx 	10xxxxxx
1155:..\..\u8g2\csrc/u8g2_font.c **** 16 	U+0800 		U+FFFF 		3 		1110xxxx 	10xxxxxx 	10xxxxxx
1156:..\..\u8g2\csrc/u8g2_font.c **** 21 	U+10000 	U+1FFFFF 	4 		11110xxx 	10xxxxxx 	10xxxxxx 	10xxxxxx
1157:..\..\u8g2\csrc/u8g2_font.c **** 26 	U+200000 	U+3FFFFFF 	5 		111110xx 	10xxxxxx 	10xxxxxx 	10xxxxxx 	10xxxxxx
1158:..\..\u8g2\csrc/u8g2_font.c **** 31 	U+4000000 	U+7FFFFFFF 	6 		1111110x 	10xxxxxx 	10xxxxxx 	10xxxxxx 	10xxxxxx 	10xxxxxx  
1159:..\..\u8g2\csrc/u8g2_font.c **** */
1160:..\..\u8g2\csrc/u8g2_font.c **** u8g2_uint_t u8g2_GetUTF8Width(u8g2_t *u8g2, const char *str)
1161:..\..\u8g2\csrc/u8g2_font.c **** {
 2994              		.loc 1 1161 0
 2995              		.cfi_startproc
 2996              		@ args = 0, pretend = 0, frame = 0
 2997              		@ frame_needed = 0, uses_anonymous_args = 0
 2998              	.LVL392:
 2999 0000 10B5     		push	{r4, lr}
 3000              		.cfi_def_cfa_offset 8
 3001              		.cfi_offset 4, -8
 3002              		.cfi_offset 14, -4
1162:..\..\u8g2\csrc/u8g2_font.c ****   u8g2->u8x8.next_cb = u8x8_utf8_next;
 3003              		.loc 1 1162 0
 3004 0002 024B     		ldr	r3, .L187
1163:..\..\u8g2\csrc/u8g2_font.c ****   return u8g2_string_width(u8g2, str);
1164:..\..\u8g2\csrc/u8g2_font.c **** }
 3005              		.loc 1 1164 0
 3006              		@ sp needed
ARM GAS  C:\Users\gjl\AppData\Local\Temp\ccg70AS9.s 			page 83


1162:..\..\u8g2\csrc/u8g2_font.c ****   u8g2->u8x8.next_cb = u8x8_utf8_next;
 3007              		.loc 1 1162 0
 3008 0004 4360     		str	r3, [r0, #4]
1163:..\..\u8g2\csrc/u8g2_font.c ****   return u8g2_string_width(u8g2, str);
 3009              		.loc 1 1163 0
 3010 0006 FFF7FEFF 		bl	u8g2_string_width
 3011              	.LVL393:
 3012              		.loc 1 1164 0
 3013 000a 10BD     		pop	{r4, pc}
 3014              	.L188:
 3015              		.align	2
 3016              	.L187:
 3017 000c 00000000 		.word	u8x8_utf8_next
 3018              		.cfi_endproc
 3019              	.LFE46:
 3020              		.size	u8g2_GetUTF8Width, .-u8g2_GetUTF8Width
 3021              		.section	.text.u8g2_SetFontDirection,"ax",%progbits
 3022              		.align	1
 3023              		.global	u8g2_SetFontDirection
 3024              		.code	16
 3025              		.thumb_func
 3026              		.type	u8g2_SetFontDirection, %function
 3027              	u8g2_SetFontDirection:
 3028              	.LFB47:
1165:..\..\u8g2\csrc/u8g2_font.c **** 
1166:..\..\u8g2\csrc/u8g2_font.c **** 
1167:..\..\u8g2\csrc/u8g2_font.c **** 
1168:..\..\u8g2\csrc/u8g2_font.c **** void u8g2_SetFontDirection(u8g2_t *u8g2, uint8_t dir)
1169:..\..\u8g2\csrc/u8g2_font.c **** {
 3029              		.loc 1 1169 0
 3030              		.cfi_startproc
 3031              		@ args = 0, pretend = 0, frame = 0
 3032              		@ frame_needed = 0, uses_anonymous_args = 0
 3033              		@ link register save eliminated.
 3034              	.LVL394:
1170:..\..\u8g2\csrc/u8g2_font.c **** #ifdef U8G2_WITH_FONT_ROTATION  
1171:..\..\u8g2\csrc/u8g2_font.c ****   u8g2->font_decode.dir = dir;
 3035              		.loc 1 1171 0
 3036 0000 5E30     		adds	r0, r0, #94
 3037              	.LVL395:
 3038 0002 0170     		strb	r1, [r0]
1172:..\..\u8g2\csrc/u8g2_font.c **** #endif
1173:..\..\u8g2\csrc/u8g2_font.c **** }
 3039              		.loc 1 1173 0
 3040              		@ sp needed
 3041 0004 7047     		bx	lr
 3042              		.cfi_endproc
 3043              	.LFE47:
 3044              		.size	u8g2_SetFontDirection, .-u8g2_SetFontDirection
 3045              		.text
 3046              	.Letext0:
 3047              		.file 2 "c:\\program files (x86)\\cypress\\psoc creator\\4.1\\psoc creator\\import\\gnu\\arm\\5.4.
 3048              		.file 3 "c:\\program files (x86)\\cypress\\psoc creator\\4.1\\psoc creator\\import\\gnu\\arm\\5.4.
 3049              		.file 4 "c:\\program files (x86)\\cypress\\psoc creator\\4.1\\psoc creator\\import\\gnu\\arm\\5.4.
 3050              		.file 5 "..\\..\\u8g2\\csrc\\u8x8.h"
 3051              		.file 6 "..\\..\\u8g2\\csrc\\u8g2.h"
 3052              		.section	.debug_info,"",%progbits
ARM GAS  C:\Users\gjl\AppData\Local\Temp\ccg70AS9.s 			page 84


 3053              	.Ldebug_info0:
 3054 0000 EF1E0000 		.4byte	0x1eef
 3055 0004 0400     		.2byte	0x4
 3056 0006 00000000 		.4byte	.Ldebug_abbrev0
 3057 000a 04       		.byte	0x4
 3058 000b 01       		.uleb128 0x1
 3059 000c A5060000 		.4byte	.LASF208
 3060 0010 0C       		.byte	0xc
 3061 0011 86050000 		.4byte	.LASF209
 3062 0015 CB020000 		.4byte	.LASF210
 3063 0019 18000000 		.4byte	.Ldebug_ranges0+0x18
 3064 001d 00000000 		.4byte	0
 3065 0021 00000000 		.4byte	.Ldebug_line0
 3066 0025 02       		.uleb128 0x2
 3067 0026 0F010000 		.4byte	.LASF0
 3068 002a 02       		.byte	0x2
 3069 002b 1B       		.byte	0x1b
 3070 002c 30000000 		.4byte	0x30
 3071 0030 03       		.uleb128 0x3
 3072 0031 01       		.byte	0x1
 3073 0032 06       		.byte	0x6
 3074 0033 91010000 		.4byte	.LASF2
 3075 0037 02       		.uleb128 0x2
 3076 0038 83000000 		.4byte	.LASF1
 3077 003c 02       		.byte	0x2
 3078 003d 1D       		.byte	0x1d
 3079 003e 42000000 		.4byte	0x42
 3080 0042 03       		.uleb128 0x3
 3081 0043 01       		.byte	0x1
 3082 0044 08       		.byte	0x8
 3083 0045 A6080000 		.4byte	.LASF3
 3084 0049 03       		.uleb128 0x3
 3085 004a 02       		.byte	0x2
 3086 004b 05       		.byte	0x5
 3087 004c 07090000 		.4byte	.LASF4
 3088 0050 02       		.uleb128 0x2
 3089 0051 800A0000 		.4byte	.LASF5
 3090 0055 02       		.byte	0x2
 3091 0056 2B       		.byte	0x2b
 3092 0057 5B000000 		.4byte	0x5b
 3093 005b 03       		.uleb128 0x3
 3094 005c 02       		.byte	0x2
 3095 005d 07       		.byte	0x7
 3096 005e A8040000 		.4byte	.LASF6
 3097 0062 03       		.uleb128 0x3
 3098 0063 04       		.byte	0x4
 3099 0064 05       		.byte	0x5
 3100 0065 31020000 		.4byte	.LASF7
 3101 0069 02       		.uleb128 0x2
 3102 006a 27030000 		.4byte	.LASF8
 3103 006e 02       		.byte	0x2
 3104 006f 41       		.byte	0x41
 3105 0070 74000000 		.4byte	0x74
 3106 0074 03       		.uleb128 0x3
 3107 0075 04       		.byte	0x4
 3108 0076 07       		.byte	0x7
 3109 0077 3E040000 		.4byte	.LASF9
ARM GAS  C:\Users\gjl\AppData\Local\Temp\ccg70AS9.s 			page 85


 3110 007b 03       		.uleb128 0x3
 3111 007c 08       		.byte	0x8
 3112 007d 05       		.byte	0x5
 3113 007e 83010000 		.4byte	.LASF10
 3114 0082 03       		.uleb128 0x3
 3115 0083 08       		.byte	0x8
 3116 0084 07       		.byte	0x7
 3117 0085 CF000000 		.4byte	.LASF11
 3118 0089 04       		.uleb128 0x4
 3119 008a 04       		.byte	0x4
 3120 008b 05       		.byte	0x5
 3121 008c 696E7400 		.ascii	"int\000"
 3122 0090 03       		.uleb128 0x3
 3123 0091 04       		.byte	0x4
 3124 0092 07       		.byte	0x7
 3125 0093 BE030000 		.4byte	.LASF12
 3126 0097 02       		.uleb128 0x2
 3127 0098 750B0000 		.4byte	.LASF13
 3128 009c 03       		.byte	0x3
 3129 009d 14       		.byte	0x14
 3130 009e 25000000 		.4byte	0x25
 3131 00a2 02       		.uleb128 0x2
 3132 00a3 5B0C0000 		.4byte	.LASF14
 3133 00a7 03       		.byte	0x3
 3134 00a8 18       		.byte	0x18
 3135 00a9 37000000 		.4byte	0x37
 3136 00ad 02       		.uleb128 0x2
 3137 00ae 71020000 		.4byte	.LASF15
 3138 00b2 03       		.byte	0x3
 3139 00b3 24       		.byte	0x24
 3140 00b4 50000000 		.4byte	0x50
 3141 00b8 02       		.uleb128 0x2
 3142 00b9 DE090000 		.4byte	.LASF16
 3143 00bd 03       		.byte	0x3
 3144 00be 30       		.byte	0x30
 3145 00bf 69000000 		.4byte	0x69
 3146 00c3 02       		.uleb128 0x2
 3147 00c4 52000000 		.4byte	.LASF17
 3148 00c8 04       		.byte	0x4
 3149 00c9 D8       		.byte	0xd8
 3150 00ca 90000000 		.4byte	0x90
 3151 00ce 03       		.uleb128 0x3
 3152 00cf 08       		.byte	0x8
 3153 00d0 04       		.byte	0x4
 3154 00d1 60060000 		.4byte	.LASF18
 3155 00d5 02       		.uleb128 0x2
 3156 00d6 2F0B0000 		.4byte	.LASF19
 3157 00da 05       		.byte	0x5
 3158 00db B5       		.byte	0xb5
 3159 00dc E0000000 		.4byte	0xe0
 3160 00e0 05       		.uleb128 0x5
 3161 00e1 44050000 		.4byte	.LASF40
 3162 00e5 2C       		.byte	0x2c
 3163 00e6 05       		.byte	0x5
 3164 00e7 3801     		.2byte	0x138
 3165 00e9 E5010000 		.4byte	0x1e5
 3166 00ed 06       		.uleb128 0x6
ARM GAS  C:\Users\gjl\AppData\Local\Temp\ccg70AS9.s 			page 86


 3167 00ee 05050000 		.4byte	.LASF20
 3168 00f2 05       		.byte	0x5
 3169 00f3 3A01     		.2byte	0x13a
 3170 00f5 48030000 		.4byte	0x348
 3171 00f9 00       		.byte	0
 3172 00fa 06       		.uleb128 0x6
 3173 00fb 7A020000 		.4byte	.LASF21
 3174 00ff 05       		.byte	0x5
 3175 0100 3B01     		.2byte	0x13b
 3176 0102 1D030000 		.4byte	0x31d
 3177 0106 04       		.byte	0x4
 3178 0107 06       		.uleb128 0x6
 3179 0108 CD010000 		.4byte	.LASF22
 3180 010c 05       		.byte	0x5
 3181 010d 3C01     		.2byte	0x13c
 3182 010f E6020000 		.4byte	0x2e6
 3183 0113 08       		.byte	0x8
 3184 0114 06       		.uleb128 0x6
 3185 0115 50070000 		.4byte	.LASF23
 3186 0119 05       		.byte	0x5
 3187 011a 3D01     		.2byte	0x13d
 3188 011c E6020000 		.4byte	0x2e6
 3189 0120 0C       		.byte	0xc
 3190 0121 06       		.uleb128 0x6
 3191 0122 8D000000 		.4byte	.LASF24
 3192 0126 05       		.byte	0x5
 3193 0127 3E01     		.2byte	0x13e
 3194 0129 E6020000 		.4byte	0x2e6
 3195 012d 10       		.byte	0x10
 3196 012e 06       		.uleb128 0x6
 3197 012f 8F020000 		.4byte	.LASF25
 3198 0133 05       		.byte	0x5
 3199 0134 3F01     		.2byte	0x13f
 3200 0136 E6020000 		.4byte	0x2e6
 3201 013a 14       		.byte	0x14
 3202 013b 06       		.uleb128 0x6
 3203 013c 330C0000 		.4byte	.LASF26
 3204 0140 05       		.byte	0x5
 3205 0141 4001     		.2byte	0x140
 3206 0143 53030000 		.4byte	0x353
 3207 0147 18       		.byte	0x18
 3208 0148 06       		.uleb128 0x6
 3209 0149 C1050000 		.4byte	.LASF27
 3210 014d 05       		.byte	0x5
 3211 014e 4101     		.2byte	0x141
 3212 0150 AD000000 		.4byte	0xad
 3213 0154 1C       		.byte	0x1c
 3214 0155 06       		.uleb128 0x6
 3215 0156 DC070000 		.4byte	.LASF28
 3216 015a 05       		.byte	0x5
 3217 015b 4201     		.2byte	0x142
 3218 015d A2000000 		.4byte	0xa2
 3219 0161 1E       		.byte	0x1e
 3220 0162 06       		.uleb128 0x6
 3221 0163 A9010000 		.4byte	.LASF29
 3222 0167 05       		.byte	0x5
 3223 0168 4301     		.2byte	0x143
ARM GAS  C:\Users\gjl\AppData\Local\Temp\ccg70AS9.s 			page 87


 3224 016a A2000000 		.4byte	0xa2
 3225 016e 1F       		.byte	0x1f
 3226 016f 06       		.uleb128 0x6
 3227 0170 1F040000 		.4byte	.LASF30
 3228 0174 05       		.byte	0x5
 3229 0175 4401     		.2byte	0x144
 3230 0177 A2000000 		.4byte	0xa2
 3231 017b 20       		.byte	0x20
 3232 017c 06       		.uleb128 0x6
 3233 017d 7D0C0000 		.4byte	.LASF31
 3234 0181 05       		.byte	0x5
 3235 0182 4701     		.2byte	0x147
 3236 0184 A2000000 		.4byte	0xa2
 3237 0188 21       		.byte	0x21
 3238 0189 06       		.uleb128 0x6
 3239 018a BB070000 		.4byte	.LASF32
 3240 018e 05       		.byte	0x5
 3241 018f 4801     		.2byte	0x148
 3242 0191 A2000000 		.4byte	0xa2
 3243 0195 22       		.byte	0x22
 3244 0196 06       		.uleb128 0x6
 3245 0197 34010000 		.4byte	.LASF33
 3246 019b 05       		.byte	0x5
 3247 019c 4901     		.2byte	0x149
 3248 019e A2000000 		.4byte	0xa2
 3249 01a2 23       		.byte	0x23
 3250 01a3 06       		.uleb128 0x6
 3251 01a4 57010000 		.4byte	.LASF34
 3252 01a8 05       		.byte	0x5
 3253 01a9 4A01     		.2byte	0x14a
 3254 01ab A2000000 		.4byte	0xa2
 3255 01af 24       		.byte	0x24
 3256 01b0 06       		.uleb128 0x6
 3257 01b1 DB0C0000 		.4byte	.LASF35
 3258 01b5 05       		.byte	0x5
 3259 01b6 4B01     		.2byte	0x14b
 3260 01b8 A2000000 		.4byte	0xa2
 3261 01bc 25       		.byte	0x25
 3262 01bd 06       		.uleb128 0x6
 3263 01be DB040000 		.4byte	.LASF36
 3264 01c2 05       		.byte	0x5
 3265 01c3 4C01     		.2byte	0x14c
 3266 01c5 A2000000 		.4byte	0xa2
 3267 01c9 26       		.byte	0x26
 3268 01ca 06       		.uleb128 0x6
 3269 01cb 910B0000 		.4byte	.LASF37
 3270 01cf 05       		.byte	0x5
 3271 01d0 4D01     		.2byte	0x14d
 3272 01d2 A2000000 		.4byte	0xa2
 3273 01d6 27       		.byte	0x27
 3274 01d7 06       		.uleb128 0x6
 3275 01d8 AA030000 		.4byte	.LASF38
 3276 01dc 05       		.byte	0x5
 3277 01dd 4E01     		.2byte	0x14e
 3278 01df A2000000 		.4byte	0xa2
 3279 01e3 28       		.byte	0x28
 3280 01e4 00       		.byte	0
ARM GAS  C:\Users\gjl\AppData\Local\Temp\ccg70AS9.s 			page 88


 3281 01e5 02       		.uleb128 0x2
 3282 01e6 13030000 		.4byte	.LASF39
 3283 01ea 05       		.byte	0x5
 3284 01eb B6       		.byte	0xb6
 3285 01ec F0010000 		.4byte	0x1f0
 3286 01f0 07       		.uleb128 0x7
 3287 01f1 010D0000 		.4byte	.LASF41
 3288 01f5 18       		.byte	0x18
 3289 01f6 05       		.byte	0x5
 3290 01f7 CF       		.byte	0xcf
 3291 01f8 E6020000 		.4byte	0x2e6
 3292 01fc 08       		.uleb128 0x8
 3293 01fd 1F0A0000 		.4byte	.LASF42
 3294 0201 05       		.byte	0x5
 3295 0202 D3       		.byte	0xd3
 3296 0203 A2000000 		.4byte	0xa2
 3297 0207 00       		.byte	0
 3298 0208 08       		.uleb128 0x8
 3299 0209 F00B0000 		.4byte	.LASF43
 3300 020d 05       		.byte	0x5
 3301 020e D4       		.byte	0xd4
 3302 020f A2000000 		.4byte	0xa2
 3303 0213 01       		.byte	0x1
 3304 0214 08       		.uleb128 0x8
 3305 0215 B80A0000 		.4byte	.LASF44
 3306 0219 05       		.byte	0x5
 3307 021a D6       		.byte	0xd6
 3308 021b A2000000 		.4byte	0xa2
 3309 021f 02       		.byte	0x2
 3310 0220 08       		.uleb128 0x8
 3311 0221 04020000 		.4byte	.LASF45
 3312 0225 05       		.byte	0x5
 3313 0226 D7       		.byte	0xd7
 3314 0227 A2000000 		.4byte	0xa2
 3315 022b 03       		.byte	0x3
 3316 022c 08       		.uleb128 0x8
 3317 022d 3D000000 		.4byte	.LASF46
 3318 0231 05       		.byte	0x5
 3319 0232 D8       		.byte	0xd8
 3320 0233 A2000000 		.4byte	0xa2
 3321 0237 04       		.byte	0x4
 3322 0238 08       		.uleb128 0x8
 3323 0239 18010000 		.4byte	.LASF47
 3324 023d 05       		.byte	0x5
 3325 023e D9       		.byte	0xd9
 3326 023f A2000000 		.4byte	0xa2
 3327 0243 05       		.byte	0x5
 3328 0244 08       		.uleb128 0x8
 3329 0245 63030000 		.4byte	.LASF48
 3330 0249 05       		.byte	0x5
 3331 024a E0       		.byte	0xe0
 3332 024b A2000000 		.4byte	0xa2
 3333 024f 06       		.byte	0x6
 3334 0250 08       		.uleb128 0x8
 3335 0251 1C050000 		.4byte	.LASF49
 3336 0255 05       		.byte	0x5
 3337 0256 E4       		.byte	0xe4
ARM GAS  C:\Users\gjl\AppData\Local\Temp\ccg70AS9.s 			page 89


 3338 0257 A2000000 		.4byte	0xa2
 3339 025b 07       		.byte	0x7
 3340 025c 08       		.uleb128 0x8
 3341 025d 700D0000 		.4byte	.LASF50
 3342 0261 05       		.byte	0x5
 3343 0262 E7       		.byte	0xe7
 3344 0263 B8000000 		.4byte	0xb8
 3345 0267 08       		.byte	0x8
 3346 0268 08       		.uleb128 0x8
 3347 0269 160A0000 		.4byte	.LASF51
 3348 026d 05       		.byte	0x5
 3349 026e F1       		.byte	0xf1
 3350 026f A2000000 		.4byte	0xa2
 3351 0273 0C       		.byte	0xc
 3352 0274 08       		.uleb128 0x8
 3353 0275 C9090000 		.4byte	.LASF52
 3354 0279 05       		.byte	0x5
 3355 027a F4       		.byte	0xf4
 3356 027b A2000000 		.4byte	0xa2
 3357 027f 0D       		.byte	0xd
 3358 0280 08       		.uleb128 0x8
 3359 0281 8B090000 		.4byte	.LASF53
 3360 0285 05       		.byte	0x5
 3361 0286 FA       		.byte	0xfa
 3362 0287 A2000000 		.4byte	0xa2
 3363 028b 0E       		.byte	0xe
 3364 028c 08       		.uleb128 0x8
 3365 028d 98070000 		.4byte	.LASF54
 3366 0291 05       		.byte	0x5
 3367 0292 FC       		.byte	0xfc
 3368 0293 A2000000 		.4byte	0xa2
 3369 0297 0F       		.byte	0xf
 3370 0298 08       		.uleb128 0x8
 3371 0299 BE0C0000 		.4byte	.LASF55
 3372 029d 05       		.byte	0x5
 3373 029e FF       		.byte	0xff
 3374 029f A2000000 		.4byte	0xa2
 3375 02a3 10       		.byte	0x10
 3376 02a4 06       		.uleb128 0x6
 3377 02a5 0F080000 		.4byte	.LASF56
 3378 02a9 05       		.byte	0x5
 3379 02aa 0001     		.2byte	0x100
 3380 02ac A2000000 		.4byte	0xa2
 3381 02b0 11       		.byte	0x11
 3382 02b1 06       		.uleb128 0x6
 3383 02b2 B0050000 		.4byte	.LASF57
 3384 02b6 05       		.byte	0x5
 3385 02b7 0201     		.2byte	0x102
 3386 02b9 A2000000 		.4byte	0xa2
 3387 02bd 12       		.byte	0x12
 3388 02be 06       		.uleb128 0x6
 3389 02bf 06060000 		.4byte	.LASF58
 3390 02c3 05       		.byte	0x5
 3391 02c4 0301     		.2byte	0x103
 3392 02c6 A2000000 		.4byte	0xa2
 3393 02ca 13       		.byte	0x13
 3394 02cb 06       		.uleb128 0x6
ARM GAS  C:\Users\gjl\AppData\Local\Temp\ccg70AS9.s 			page 90


 3395 02cc 9F0C0000 		.4byte	.LASF59
 3396 02d0 05       		.byte	0x5
 3397 02d1 0B01     		.2byte	0x10b
 3398 02d3 AD000000 		.4byte	0xad
 3399 02d7 14       		.byte	0x14
 3400 02d8 06       		.uleb128 0x6
 3401 02d9 630D0000 		.4byte	.LASF60
 3402 02dd 05       		.byte	0x5
 3403 02de 0C01     		.2byte	0x10c
 3404 02e0 AD000000 		.4byte	0xad
 3405 02e4 16       		.byte	0x16
 3406 02e5 00       		.byte	0
 3407 02e6 02       		.uleb128 0x2
 3408 02e7 7F080000 		.4byte	.LASF61
 3409 02eb 05       		.byte	0x5
 3410 02ec B9       		.byte	0xb9
 3411 02ed F1020000 		.4byte	0x2f1
 3412 02f1 09       		.uleb128 0x9
 3413 02f2 04       		.byte	0x4
 3414 02f3 F7020000 		.4byte	0x2f7
 3415 02f7 0A       		.uleb128 0xa
 3416 02f8 A2000000 		.4byte	0xa2
 3417 02fc 15030000 		.4byte	0x315
 3418 0300 0B       		.uleb128 0xb
 3419 0301 15030000 		.4byte	0x315
 3420 0305 0B       		.uleb128 0xb
 3421 0306 A2000000 		.4byte	0xa2
 3422 030a 0B       		.uleb128 0xb
 3423 030b A2000000 		.4byte	0xa2
 3424 030f 0B       		.uleb128 0xb
 3425 0310 1B030000 		.4byte	0x31b
 3426 0314 00       		.byte	0
 3427 0315 09       		.uleb128 0x9
 3428 0316 04       		.byte	0x4
 3429 0317 D5000000 		.4byte	0xd5
 3430 031b 0C       		.uleb128 0xc
 3431 031c 04       		.byte	0x4
 3432 031d 02       		.uleb128 0x2
 3433 031e 82020000 		.4byte	.LASF62
 3434 0322 05       		.byte	0x5
 3435 0323 BA       		.byte	0xba
 3436 0324 28030000 		.4byte	0x328
 3437 0328 09       		.uleb128 0x9
 3438 0329 04       		.byte	0x4
 3439 032a 2E030000 		.4byte	0x32e
 3440 032e 0A       		.uleb128 0xa
 3441 032f AD000000 		.4byte	0xad
 3442 0333 42030000 		.4byte	0x342
 3443 0337 0B       		.uleb128 0xb
 3444 0338 15030000 		.4byte	0x315
 3445 033c 0B       		.uleb128 0xb
 3446 033d A2000000 		.4byte	0xa2
 3447 0341 00       		.byte	0
 3448 0342 09       		.uleb128 0x9
 3449 0343 04       		.byte	0x4
 3450 0344 A2000000 		.4byte	0xa2
 3451 0348 09       		.uleb128 0x9
ARM GAS  C:\Users\gjl\AppData\Local\Temp\ccg70AS9.s 			page 91


 3452 0349 04       		.byte	0x4
 3453 034a 4E030000 		.4byte	0x34e
 3454 034e 0D       		.uleb128 0xd
 3455 034f E5010000 		.4byte	0x1e5
 3456 0353 09       		.uleb128 0x9
 3457 0354 04       		.byte	0x4
 3458 0355 59030000 		.4byte	0x359
 3459 0359 0D       		.uleb128 0xd
 3460 035a A2000000 		.4byte	0xa2
 3461 035e 02       		.uleb128 0x2
 3462 035f 9D010000 		.4byte	.LASF63
 3463 0363 06       		.byte	0x6
 3464 0364 B9       		.byte	0xb9
 3465 0365 A2000000 		.4byte	0xa2
 3466 0369 02       		.uleb128 0x2
 3467 036a 50040000 		.4byte	.LASF64
 3468 036e 06       		.byte	0x6
 3469 036f BF       		.byte	0xbf
 3470 0370 74030000 		.4byte	0x374
 3471 0374 05       		.uleb128 0x5
 3472 0375 AC090000 		.4byte	.LASF65
 3473 0379 80       		.byte	0x80
 3474 037a 06       		.byte	0x6
 3475 037b 1C01     		.2byte	0x11c
 3476 037d E0040000 		.4byte	0x4e0
 3477 0381 06       		.uleb128 0x6
 3478 0382 42090000 		.4byte	.LASF66
 3479 0386 06       		.byte	0x6
 3480 0387 1E01     		.2byte	0x11e
 3481 0389 D5000000 		.4byte	0xd5
 3482 038d 00       		.byte	0
 3483 038e 06       		.uleb128 0x6
 3484 038f 49080000 		.4byte	.LASF67
 3485 0393 06       		.byte	0x6
 3486 0394 1F01     		.2byte	0x11f
 3487 0396 65050000 		.4byte	0x565
 3488 039a 2C       		.byte	0x2c
 3489 039b 0E       		.uleb128 0xe
 3490 039c 636200   		.ascii	"cb\000"
 3491 039f 06       		.byte	0x6
 3492 03a0 2001     		.2byte	0x120
 3493 03a2 B3070000 		.4byte	0x7b3
 3494 03a6 30       		.byte	0x30
 3495 03a7 06       		.uleb128 0x6
 3496 03a8 69000000 		.4byte	.LASF68
 3497 03ac 06       		.byte	0x6
 3498 03ad 2301     		.2byte	0x123
 3499 03af 42030000 		.4byte	0x342
 3500 03b3 34       		.byte	0x34
 3501 03b4 06       		.uleb128 0x6
 3502 03b5 98040000 		.4byte	.LASF69
 3503 03b9 06       		.byte	0x6
 3504 03ba 2401     		.2byte	0x124
 3505 03bc A2000000 		.4byte	0xa2
 3506 03c0 38       		.byte	0x38
 3507 03c1 06       		.uleb128 0x6
 3508 03c2 F9090000 		.4byte	.LASF70
ARM GAS  C:\Users\gjl\AppData\Local\Temp\ccg70AS9.s 			page 92


 3509 03c6 06       		.byte	0x6
 3510 03c7 2501     		.2byte	0x125
 3511 03c9 A2000000 		.4byte	0xa2
 3512 03cd 39       		.byte	0x39
 3513 03ce 06       		.uleb128 0x6
 3514 03cf E6080000 		.4byte	.LASF71
 3515 03d3 06       		.byte	0x6
 3516 03d4 2801     		.2byte	0x128
 3517 03d6 5E030000 		.4byte	0x35e
 3518 03da 3A       		.byte	0x3a
 3519 03db 06       		.uleb128 0x6
 3520 03dc DC030000 		.4byte	.LASF72
 3521 03e0 06       		.byte	0x6
 3522 03e1 2901     		.2byte	0x129
 3523 03e3 5E030000 		.4byte	0x35e
 3524 03e7 3B       		.byte	0x3b
 3525 03e8 06       		.uleb128 0x6
 3526 03e9 96060000 		.4byte	.LASF73
 3527 03ed 06       		.byte	0x6
 3528 03ee 2A01     		.2byte	0x12a
 3529 03f0 5E030000 		.4byte	0x35e
 3530 03f4 3C       		.byte	0x3c
 3531 03f5 06       		.uleb128 0x6
 3532 03f6 AD070000 		.4byte	.LASF74
 3533 03fa 06       		.byte	0x6
 3534 03fb 3001     		.2byte	0x130
 3535 03fd 5E030000 		.4byte	0x35e
 3536 0401 3D       		.byte	0x3d
 3537 0402 06       		.uleb128 0x6
 3538 0403 B4070000 		.4byte	.LASF75
 3539 0407 06       		.byte	0x6
 3540 0408 3101     		.2byte	0x131
 3541 040a 5E030000 		.4byte	0x35e
 3542 040e 3E       		.byte	0x3e
 3543 040f 06       		.uleb128 0x6
 3544 0410 92040000 		.4byte	.LASF76
 3545 0414 06       		.byte	0x6
 3546 0415 3401     		.2byte	0x134
 3547 0417 5E030000 		.4byte	0x35e
 3548 041b 3F       		.byte	0x3f
 3549 041c 06       		.uleb128 0x6
 3550 041d 220D0000 		.4byte	.LASF77
 3551 0421 06       		.byte	0x6
 3552 0422 3501     		.2byte	0x135
 3553 0424 5E030000 		.4byte	0x35e
 3554 0428 40       		.byte	0x40
 3555 0429 06       		.uleb128 0x6
 3556 042a 5A090000 		.4byte	.LASF78
 3557 042e 06       		.byte	0x6
 3558 042f 3A01     		.2byte	0x13a
 3559 0431 5E030000 		.4byte	0x35e
 3560 0435 41       		.byte	0x41
 3561 0436 06       		.uleb128 0x6
 3562 0437 62090000 		.4byte	.LASF79
 3563 043b 06       		.byte	0x6
 3564 043c 3B01     		.2byte	0x13b
 3565 043e 5E030000 		.4byte	0x35e
ARM GAS  C:\Users\gjl\AppData\Local\Temp\ccg70AS9.s 			page 93


 3566 0442 42       		.byte	0x42
 3567 0443 06       		.uleb128 0x6
 3568 0444 510B0000 		.4byte	.LASF80
 3569 0448 06       		.byte	0x6
 3570 0449 3C01     		.2byte	0x13c
 3571 044b 5E030000 		.4byte	0x35e
 3572 044f 43       		.byte	0x43
 3573 0450 06       		.uleb128 0x6
 3574 0451 590B0000 		.4byte	.LASF81
 3575 0455 06       		.byte	0x6
 3576 0456 3D01     		.2byte	0x13d
 3577 0458 5E030000 		.4byte	0x35e
 3578 045c 44       		.byte	0x44
 3579 045d 06       		.uleb128 0x6
 3580 045e 330C0000 		.4byte	.LASF26
 3581 0462 06       		.byte	0x6
 3582 0463 4001     		.2byte	0x140
 3583 0465 53030000 		.4byte	0x353
 3584 0469 48       		.byte	0x48
 3585 046a 06       		.uleb128 0x6
 3586 046b 3D030000 		.4byte	.LASF82
 3587 046f 06       		.byte	0x6
 3588 0470 4401     		.2byte	0x144
 3589 0472 92070000 		.4byte	0x792
 3590 0476 4C       		.byte	0x4c
 3591 0477 06       		.uleb128 0x6
 3592 0478 480A0000 		.4byte	.LASF83
 3593 047c 06       		.byte	0x6
 3594 047d 4501     		.2byte	0x145
 3595 047f 13070000 		.4byte	0x713
 3596 0483 50       		.byte	0x50
 3597 0484 06       		.uleb128 0x6
 3598 0485 12050000 		.4byte	.LASF84
 3599 0489 06       		.byte	0x6
 3600 048a 4601     		.2byte	0x146
 3601 048c 6D060000 		.4byte	0x66d
 3602 0490 60       		.byte	0x60
 3603 0491 06       		.uleb128 0x6
 3604 0492 CA050000 		.4byte	.LASF85
 3605 0496 06       		.byte	0x6
 3606 0497 4801     		.2byte	0x148
 3607 0499 A2000000 		.4byte	0xa2
 3608 049d 78       		.byte	0x78
 3609 049e 06       		.uleb128 0x6
 3610 049f 4C030000 		.4byte	.LASF86
 3611 04a3 06       		.byte	0x6
 3612 04a4 4901     		.2byte	0x149
 3613 04a6 97000000 		.4byte	0x97
 3614 04aa 79       		.byte	0x79
 3615 04ab 06       		.uleb128 0x6
 3616 04ac 02030000 		.4byte	.LASF87
 3617 04b0 06       		.byte	0x6
 3618 04b1 4A01     		.2byte	0x14a
 3619 04b3 97000000 		.4byte	0x97
 3620 04b7 7A       		.byte	0x7a
 3621 04b8 06       		.uleb128 0x6
 3622 04b9 F5010000 		.4byte	.LASF88
ARM GAS  C:\Users\gjl\AppData\Local\Temp\ccg70AS9.s 			page 94


 3623 04bd 06       		.byte	0x6
 3624 04be 4C01     		.2byte	0x14c
 3625 04c0 97000000 		.4byte	0x97
 3626 04c4 7B       		.byte	0x7b
 3627 04c5 06       		.uleb128 0x6
 3628 04c6 8B0A0000 		.4byte	.LASF89
 3629 04ca 06       		.byte	0x6
 3630 04cb 4F01     		.2byte	0x14f
 3631 04cd A2000000 		.4byte	0xa2
 3632 04d1 7C       		.byte	0x7c
 3633 04d2 06       		.uleb128 0x6
 3634 04d3 D3080000 		.4byte	.LASF90
 3635 04d7 06       		.byte	0x6
 3636 04d8 5201     		.2byte	0x152
 3637 04da A2000000 		.4byte	0xa2
 3638 04de 7D       		.byte	0x7d
 3639 04df 00       		.byte	0
 3640 04e0 02       		.uleb128 0x2
 3641 04e1 0C0A0000 		.4byte	.LASF91
 3642 04e5 06       		.byte	0x6
 3643 04e6 C0       		.byte	0xc0
 3644 04e7 EB040000 		.4byte	0x4eb
 3645 04eb 05       		.uleb128 0x5
 3646 04ec 8B080000 		.4byte	.LASF92
 3647 04f0 08       		.byte	0x8
 3648 04f1 06       		.byte	0x6
 3649 04f2 1301     		.2byte	0x113
 3650 04f4 13050000 		.4byte	0x513
 3651 04f8 06       		.uleb128 0x6
 3652 04f9 DA0B0000 		.4byte	.LASF93
 3653 04fd 06       		.byte	0x6
 3654 04fe 1501     		.2byte	0x115
 3655 0500 13050000 		.4byte	0x513
 3656 0504 00       		.byte	0
 3657 0505 06       		.uleb128 0x6
 3658 0506 60070000 		.4byte	.LASF94
 3659 050a 06       		.byte	0x6
 3660 050b 1601     		.2byte	0x116
 3661 050d 35050000 		.4byte	0x535
 3662 0511 04       		.byte	0x4
 3663 0512 00       		.byte	0
 3664 0513 02       		.uleb128 0x2
 3665 0514 EF0A0000 		.4byte	.LASF95
 3666 0518 06       		.byte	0x6
 3667 0519 C2       		.byte	0xc2
 3668 051a 1E050000 		.4byte	0x51e
 3669 051e 09       		.uleb128 0x9
 3670 051f 04       		.byte	0x4
 3671 0520 24050000 		.4byte	0x524
 3672 0524 0F       		.uleb128 0xf
 3673 0525 2F050000 		.4byte	0x52f
 3674 0529 0B       		.uleb128 0xb
 3675 052a 2F050000 		.4byte	0x52f
 3676 052e 00       		.byte	0
 3677 052f 09       		.uleb128 0x9
 3678 0530 04       		.byte	0x4
 3679 0531 69030000 		.4byte	0x369
ARM GAS  C:\Users\gjl\AppData\Local\Temp\ccg70AS9.s 			page 95


 3680 0535 02       		.uleb128 0x2
 3681 0536 B8090000 		.4byte	.LASF96
 3682 053a 06       		.byte	0x6
 3683 053b C3       		.byte	0xc3
 3684 053c 40050000 		.4byte	0x540
 3685 0540 09       		.uleb128 0x9
 3686 0541 04       		.byte	0x4
 3687 0542 46050000 		.4byte	0x546
 3688 0546 0F       		.uleb128 0xf
 3689 0547 65050000 		.4byte	0x565
 3690 054b 0B       		.uleb128 0xb
 3691 054c 2F050000 		.4byte	0x52f
 3692 0550 0B       		.uleb128 0xb
 3693 0551 5E030000 		.4byte	0x35e
 3694 0555 0B       		.uleb128 0xb
 3695 0556 5E030000 		.4byte	0x35e
 3696 055a 0B       		.uleb128 0xb
 3697 055b 5E030000 		.4byte	0x35e
 3698 055f 0B       		.uleb128 0xb
 3699 0560 A2000000 		.4byte	0xa2
 3700 0564 00       		.byte	0
 3701 0565 02       		.uleb128 0x2
 3702 0566 75030000 		.4byte	.LASF97
 3703 056a 06       		.byte	0x6
 3704 056b C4       		.byte	0xc4
 3705 056c 40050000 		.4byte	0x540
 3706 0570 07       		.uleb128 0x7
 3707 0571 E7090000 		.4byte	.LASF98
 3708 0575 18       		.byte	0x18
 3709 0576 06       		.byte	0x6
 3710 0577 CA       		.byte	0xca
 3711 0578 6D060000 		.4byte	0x66d
 3712 057c 08       		.uleb128 0x8
 3713 057d C5000000 		.4byte	.LASF99
 3714 0581 06       		.byte	0x6
 3715 0582 CD       		.byte	0xcd
 3716 0583 A2000000 		.4byte	0xa2
 3717 0587 00       		.byte	0
 3718 0588 08       		.uleb128 0x8
 3719 0589 2B010000 		.4byte	.LASF100
 3720 058d 06       		.byte	0x6
 3721 058e CE       		.byte	0xce
 3722 058f A2000000 		.4byte	0xa2
 3723 0593 01       		.byte	0x1
 3724 0594 08       		.uleb128 0x8
 3725 0595 32030000 		.4byte	.LASF101
 3726 0599 06       		.byte	0x6
 3727 059a CF       		.byte	0xcf
 3728 059b A2000000 		.4byte	0xa2
 3729 059f 02       		.byte	0x2
 3730 05a0 08       		.uleb128 0x8
 3731 05a1 18060000 		.4byte	.LASF102
 3732 05a5 06       		.byte	0x6
 3733 05a6 D0       		.byte	0xd0
 3734 05a7 A2000000 		.4byte	0xa2
 3735 05ab 03       		.byte	0x3
 3736 05ac 08       		.uleb128 0x8
ARM GAS  C:\Users\gjl\AppData\Local\Temp\ccg70AS9.s 			page 96


 3737 05ad 96030000 		.4byte	.LASF103
 3738 05b1 06       		.byte	0x6
 3739 05b2 D3       		.byte	0xd3
 3740 05b3 A2000000 		.4byte	0xa2
 3741 05b7 04       		.byte	0x4
 3742 05b8 08       		.uleb128 0x8
 3743 05b9 6B0A0000 		.4byte	.LASF104
 3744 05bd 06       		.byte	0x6
 3745 05be D4       		.byte	0xd4
 3746 05bf A2000000 		.4byte	0xa2
 3747 05c3 05       		.byte	0x5
 3748 05c4 08       		.uleb128 0x8
 3749 05c5 63010000 		.4byte	.LASF105
 3750 05c9 06       		.byte	0x6
 3751 05ca D5       		.byte	0xd5
 3752 05cb A2000000 		.4byte	0xa2
 3753 05cf 06       		.byte	0x6
 3754 05d0 08       		.uleb128 0x8
 3755 05d1 73010000 		.4byte	.LASF106
 3756 05d5 06       		.byte	0x6
 3757 05d6 D6       		.byte	0xd6
 3758 05d7 A2000000 		.4byte	0xa2
 3759 05db 07       		.byte	0x7
 3760 05dc 08       		.uleb128 0x8
 3761 05dd 23060000 		.4byte	.LASF107
 3762 05e1 06       		.byte	0x6
 3763 05e2 D7       		.byte	0xd7
 3764 05e3 A2000000 		.4byte	0xa2
 3765 05e7 08       		.byte	0x8
 3766 05e8 08       		.uleb128 0x8
 3767 05e9 78070000 		.4byte	.LASF108
 3768 05ed 06       		.byte	0x6
 3769 05ee DA       		.byte	0xda
 3770 05ef 97000000 		.4byte	0x97
 3771 05f3 09       		.byte	0x9
 3772 05f4 08       		.uleb128 0x8
 3773 05f5 61020000 		.4byte	.LASF109
 3774 05f9 06       		.byte	0x6
 3775 05fa DB       		.byte	0xdb
 3776 05fb 97000000 		.4byte	0x97
 3777 05ff 0A       		.byte	0xa
 3778 0600 08       		.uleb128 0x8
 3779 0601 DC070000 		.4byte	.LASF28
 3780 0605 06       		.byte	0x6
 3781 0606 DC       		.byte	0xdc
 3782 0607 97000000 		.4byte	0x97
 3783 060b 0B       		.byte	0xb
 3784 060c 08       		.uleb128 0x8
 3785 060d 3F010000 		.4byte	.LASF110
 3786 0611 06       		.byte	0x6
 3787 0612 DD       		.byte	0xdd
 3788 0613 97000000 		.4byte	0x97
 3789 0617 0C       		.byte	0xc
 3790 0618 08       		.uleb128 0x8
 3791 0619 CA080000 		.4byte	.LASF111
 3792 061d 06       		.byte	0x6
 3793 061e E0       		.byte	0xe0
ARM GAS  C:\Users\gjl\AppData\Local\Temp\ccg70AS9.s 			page 97


 3794 061f 97000000 		.4byte	0x97
 3795 0623 0D       		.byte	0xd
 3796 0624 08       		.uleb128 0x8
 3797 0625 8C030000 		.4byte	.LASF112
 3798 0629 06       		.byte	0x6
 3799 062a E1       		.byte	0xe1
 3800 062b 97000000 		.4byte	0x97
 3801 062f 0E       		.byte	0xe
 3802 0630 08       		.uleb128 0x8
 3803 0631 E9010000 		.4byte	.LASF113
 3804 0635 06       		.byte	0x6
 3805 0636 E2       		.byte	0xe2
 3806 0637 97000000 		.4byte	0x97
 3807 063b 0F       		.byte	0xf
 3808 063c 08       		.uleb128 0x8
 3809 063d F8040000 		.4byte	.LASF114
 3810 0641 06       		.byte	0x6
 3811 0642 E3       		.byte	0xe3
 3812 0643 97000000 		.4byte	0x97
 3813 0647 10       		.byte	0x10
 3814 0648 08       		.uleb128 0x8
 3815 0649 F4050000 		.4byte	.LASF115
 3816 064d 06       		.byte	0x6
 3817 064e E6       		.byte	0xe6
 3818 064f AD000000 		.4byte	0xad
 3819 0653 12       		.byte	0x12
 3820 0654 08       		.uleb128 0x8
 3821 0655 400C0000 		.4byte	.LASF116
 3822 0659 06       		.byte	0x6
 3823 065a E7       		.byte	0xe7
 3824 065b AD000000 		.4byte	0xad
 3825 065f 14       		.byte	0x14
 3826 0660 08       		.uleb128 0x8
 3827 0661 2B000000 		.4byte	.LASF117
 3828 0665 06       		.byte	0x6
 3829 0666 EB       		.byte	0xeb
 3830 0667 AD000000 		.4byte	0xad
 3831 066b 16       		.byte	0x16
 3832 066c 00       		.byte	0
 3833 066d 02       		.uleb128 0x2
 3834 066e A1020000 		.4byte	.LASF118
 3835 0672 06       		.byte	0x6
 3836 0673 EE       		.byte	0xee
 3837 0674 70050000 		.4byte	0x570
 3838 0678 07       		.uleb128 0x7
 3839 0679 610B0000 		.4byte	.LASF119
 3840 067d 10       		.byte	0x10
 3841 067e 06       		.byte	0x6
 3842 067f F1       		.byte	0xf1
 3843 0680 13070000 		.4byte	0x713
 3844 0684 08       		.uleb128 0x8
 3845 0685 87040000 		.4byte	.LASF120
 3846 0689 06       		.byte	0x6
 3847 068a F3       		.byte	0xf3
 3848 068b 53030000 		.4byte	0x353
 3849 068f 00       		.byte	0
 3850 0690 08       		.uleb128 0x8
ARM GAS  C:\Users\gjl\AppData\Local\Temp\ccg70AS9.s 			page 98


 3851 0691 080B0000 		.4byte	.LASF121
 3852 0695 06       		.byte	0x6
 3853 0696 F5       		.byte	0xf5
 3854 0697 5E030000 		.4byte	0x35e
 3855 069b 04       		.byte	0x4
 3856 069c 08       		.uleb128 0x8
 3857 069d 110B0000 		.4byte	.LASF122
 3858 06a1 06       		.byte	0x6
 3859 06a2 F6       		.byte	0xf6
 3860 06a3 5E030000 		.4byte	0x35e
 3861 06a7 05       		.byte	0x5
 3862 06a8 10       		.uleb128 0x10
 3863 06a9 7800     		.ascii	"x\000"
 3864 06ab 06       		.byte	0x6
 3865 06ac F8       		.byte	0xf8
 3866 06ad 97000000 		.4byte	0x97
 3867 06b1 06       		.byte	0x6
 3868 06b2 10       		.uleb128 0x10
 3869 06b3 7900     		.ascii	"y\000"
 3870 06b5 06       		.byte	0x6
 3871 06b6 F9       		.byte	0xf9
 3872 06b7 97000000 		.4byte	0x97
 3873 06bb 07       		.byte	0x7
 3874 06bc 08       		.uleb128 0x8
 3875 06bd 9A080000 		.4byte	.LASF123
 3876 06c1 06       		.byte	0x6
 3877 06c2 FA       		.byte	0xfa
 3878 06c3 97000000 		.4byte	0x97
 3879 06c7 08       		.byte	0x8
 3880 06c8 08       		.uleb128 0x8
 3881 06c9 43060000 		.4byte	.LASF124
 3882 06cd 06       		.byte	0x6
 3883 06ce FB       		.byte	0xfb
 3884 06cf 97000000 		.4byte	0x97
 3885 06d3 09       		.byte	0x9
 3886 06d4 08       		.uleb128 0x8
 3887 06d5 34060000 		.4byte	.LASF125
 3888 06d9 06       		.byte	0x6
 3889 06da FD       		.byte	0xfd
 3890 06db A2000000 		.4byte	0xa2
 3891 06df 0A       		.byte	0xa
 3892 06e0 08       		.uleb128 0x8
 3893 06e1 10040000 		.4byte	.LASF126
 3894 06e5 06       		.byte	0x6
 3895 06e6 FE       		.byte	0xfe
 3896 06e7 A2000000 		.4byte	0xa2
 3897 06eb 0B       		.byte	0xb
 3898 06ec 08       		.uleb128 0x8
 3899 06ed 60080000 		.4byte	.LASF127
 3900 06f1 06       		.byte	0x6
 3901 06f2 FF       		.byte	0xff
 3902 06f3 A2000000 		.4byte	0xa2
 3903 06f7 0C       		.byte	0xc
 3904 06f8 06       		.uleb128 0x6
 3905 06f9 57070000 		.4byte	.LASF128
 3906 06fd 06       		.byte	0x6
 3907 06fe 0001     		.2byte	0x100
ARM GAS  C:\Users\gjl\AppData\Local\Temp\ccg70AS9.s 			page 99


 3908 0700 A2000000 		.4byte	0xa2
 3909 0704 0D       		.byte	0xd
 3910 0705 0E       		.uleb128 0xe
 3911 0706 64697200 		.ascii	"dir\000"
 3912 070a 06       		.byte	0x6
 3913 070b 0201     		.2byte	0x102
 3914 070d A2000000 		.4byte	0xa2
 3915 0711 0E       		.byte	0xe
 3916 0712 00       		.byte	0
 3917 0713 11       		.uleb128 0x11
 3918 0714 AA000000 		.4byte	.LASF129
 3919 0718 06       		.byte	0x6
 3920 0719 0501     		.2byte	0x105
 3921 071b 78060000 		.4byte	0x678
 3922 071f 05       		.uleb128 0x5
 3923 0720 D10A0000 		.4byte	.LASF130
 3924 0724 14       		.byte	0x14
 3925 0725 06       		.byte	0x6
 3926 0726 0701     		.2byte	0x107
 3927 0728 7B070000 		.4byte	0x77b
 3928 072c 06       		.uleb128 0x6
 3929 072d 59000000 		.4byte	.LASF131
 3930 0731 06       		.byte	0x6
 3931 0732 0901     		.2byte	0x109
 3932 0734 AD000000 		.4byte	0xad
 3933 0738 00       		.byte	0
 3934 0739 06       		.uleb128 0x6
 3935 073a 68050000 		.4byte	.LASF132
 3936 073e 06       		.byte	0x6
 3937 073f 0A01     		.2byte	0x10a
 3938 0741 AD000000 		.4byte	0xad
 3939 0745 02       		.byte	0x2
 3940 0746 06       		.uleb128 0x6
 3941 0747 4C020000 		.4byte	.LASF133
 3942 074b 06       		.byte	0x6
 3943 074c 0B01     		.2byte	0x10b
 3944 074e 7B070000 		.4byte	0x77b
 3945 0752 04       		.byte	0x4
 3946 0753 06       		.uleb128 0x6
 3947 0754 6C060000 		.4byte	.LASF134
 3948 0758 06       		.byte	0x6
 3949 0759 0C01     		.2byte	0x10c
 3950 075b 7B070000 		.4byte	0x77b
 3951 075f 08       		.byte	0x8
 3952 0760 06       		.uleb128 0x6
 3953 0761 69080000 		.4byte	.LASF135
 3954 0765 06       		.byte	0x6
 3955 0766 0D01     		.2byte	0x10d
 3956 0768 7B070000 		.4byte	0x77b
 3957 076c 0C       		.byte	0xc
 3958 076d 06       		.uleb128 0x6
 3959 076e 69070000 		.4byte	.LASF136
 3960 0772 06       		.byte	0x6
 3961 0773 0E01     		.2byte	0x10e
 3962 0775 53030000 		.4byte	0x353
 3963 0779 10       		.byte	0x10
 3964 077a 00       		.byte	0
ARM GAS  C:\Users\gjl\AppData\Local\Temp\ccg70AS9.s 			page 100


 3965 077b 09       		.uleb128 0x9
 3966 077c 04       		.byte	0x4
 3967 077d 81070000 		.4byte	0x781
 3968 0781 0D       		.uleb128 0xd
 3969 0782 AD000000 		.4byte	0xad
 3970 0786 11       		.uleb128 0x11
 3971 0787 E10B0000 		.4byte	.LASF137
 3972 078b 06       		.byte	0x6
 3973 078c 1001     		.2byte	0x110
 3974 078e 1F070000 		.4byte	0x71f
 3975 0792 11       		.uleb128 0x11
 3976 0793 630C0000 		.4byte	.LASF138
 3977 0797 06       		.byte	0x6
 3978 0798 1901     		.2byte	0x119
 3979 079a 9E070000 		.4byte	0x79e
 3980 079e 09       		.uleb128 0x9
 3981 079f 04       		.byte	0x4
 3982 07a0 A4070000 		.4byte	0x7a4
 3983 07a4 0A       		.uleb128 0xa
 3984 07a5 5E030000 		.4byte	0x35e
 3985 07a9 B3070000 		.4byte	0x7b3
 3986 07ad 0B       		.uleb128 0xb
 3987 07ae 2F050000 		.4byte	0x52f
 3988 07b2 00       		.byte	0
 3989 07b3 09       		.uleb128 0x9
 3990 07b4 04       		.byte	0x4
 3991 07b5 B9070000 		.4byte	0x7b9
 3992 07b9 0D       		.uleb128 0xd
 3993 07ba E0040000 		.4byte	0x4e0
 3994 07be 12       		.uleb128 0x12
 3995 07bf AB0C0000 		.4byte	.LASF175
 3996 07c3 01       		.byte	0x1
 3997 07c4 6F       		.byte	0x6f
 3998 07c5 A2000000 		.4byte	0xa2
 3999 07c9 01       		.byte	0x1
 4000 07ca E5070000 		.4byte	0x7e5
 4001 07ce 13       		.uleb128 0x13
 4002 07cf 330C0000 		.4byte	.LASF26
 4003 07d3 01       		.byte	0x1
 4004 07d4 6F       		.byte	0x6f
 4005 07d5 53030000 		.4byte	0x353
 4006 07d9 13       		.uleb128 0x13
 4007 07da 5C030000 		.4byte	.LASF139
 4008 07de 01       		.byte	0x1
 4009 07df 6F       		.byte	0x6f
 4010 07e0 A2000000 		.4byte	0xa2
 4011 07e4 00       		.byte	0
 4012 07e5 14       		.uleb128 0x14
 4013 07e6 500D0000 		.4byte	.LASF140
 4014 07ea 01       		.byte	0x1
 4015 07eb 76       		.byte	0x76
 4016 07ec AD000000 		.4byte	0xad
 4017 07f0 00000000 		.4byte	.LFB1
 4018 07f4 0E000000 		.4byte	.LFE1-.LFB1
 4019 07f8 01       		.uleb128 0x1
 4020 07f9 9C       		.byte	0x9c
 4021 07fa 2C080000 		.4byte	0x82c
ARM GAS  C:\Users\gjl\AppData\Local\Temp\ccg70AS9.s 			page 101


 4022 07fe 15       		.uleb128 0x15
 4023 07ff 330C0000 		.4byte	.LASF26
 4024 0803 01       		.byte	0x1
 4025 0804 76       		.byte	0x76
 4026 0805 53030000 		.4byte	0x353
 4027 0809 00000000 		.4byte	.LLST0
 4028 080d 15       		.uleb128 0x15
 4029 080e 5C030000 		.4byte	.LASF139
 4030 0812 01       		.byte	0x1
 4031 0813 76       		.byte	0x76
 4032 0814 A2000000 		.4byte	0xa2
 4033 0818 2B000000 		.4byte	.LLST1
 4034 081c 16       		.uleb128 0x16
 4035 081d 706F7300 		.ascii	"pos\000"
 4036 0821 01       		.byte	0x1
 4037 0822 78       		.byte	0x78
 4038 0823 AD000000 		.4byte	0xad
 4039 0827 4C000000 		.4byte	.LLST2
 4040 082b 00       		.byte	0
 4041 082c 17       		.uleb128 0x17
 4042 082d CA070000 		.4byte	.LASF141
 4043 0831 01       		.byte	0x1
 4044 0832 2601     		.2byte	0x126
 4045 0834 5E030000 		.4byte	0x35e
 4046 0838 00000000 		.4byte	.LFB11
 4047 083c 22000000 		.4byte	.LFE11-.LFB11
 4048 0840 01       		.uleb128 0x1
 4049 0841 9C       		.byte	0x9c
 4050 0842 7E080000 		.4byte	0x87e
 4051 0846 18       		.uleb128 0x18
 4052 0847 647900   		.ascii	"dy\000"
 4053 084a 01       		.byte	0x1
 4054 084b 2601     		.2byte	0x126
 4055 084d 5E030000 		.4byte	0x35e
 4056 0851 90000000 		.4byte	.LLST3
 4057 0855 19       		.uleb128 0x19
 4058 0856 7800     		.ascii	"x\000"
 4059 0858 01       		.byte	0x1
 4060 0859 2601     		.2byte	0x126
 4061 085b 97000000 		.4byte	0x97
 4062 085f 01       		.uleb128 0x1
 4063 0860 51       		.byte	0x51
 4064 0861 18       		.uleb128 0x18
 4065 0862 7900     		.ascii	"y\000"
 4066 0864 01       		.byte	0x1
 4067 0865 2601     		.2byte	0x126
 4068 0867 97000000 		.4byte	0x97
 4069 086b BC000000 		.4byte	.LLST4
 4070 086f 19       		.uleb128 0x19
 4071 0870 64697200 		.ascii	"dir\000"
 4072 0874 01       		.byte	0x1
 4073 0875 2601     		.2byte	0x126
 4074 0877 A2000000 		.4byte	0xa2
 4075 087b 01       		.uleb128 0x1
 4076 087c 53       		.byte	0x53
 4077 087d 00       		.byte	0
 4078 087e 17       		.uleb128 0x17
ARM GAS  C:\Users\gjl\AppData\Local\Temp\ccg70AS9.s 			page 102


 4079 087f C90C0000 		.4byte	.LASF142
 4080 0883 01       		.byte	0x1
 4081 0884 3B01     		.2byte	0x13b
 4082 0886 5E030000 		.4byte	0x35e
 4083 088a 00000000 		.4byte	.LFB12
 4084 088e 22000000 		.4byte	.LFE12-.LFB12
 4085 0892 01       		.uleb128 0x1
 4086 0893 9C       		.byte	0x9c
 4087 0894 D2080000 		.4byte	0x8d2
 4088 0898 18       		.uleb128 0x18
 4089 0899 647800   		.ascii	"dx\000"
 4090 089c 01       		.byte	0x1
 4091 089d 3B01     		.2byte	0x13b
 4092 089f 5E030000 		.4byte	0x35e
 4093 08a3 DD000000 		.4byte	.LLST5
 4094 08a7 18       		.uleb128 0x18
 4095 08a8 7800     		.ascii	"x\000"
 4096 08aa 01       		.byte	0x1
 4097 08ab 3B01     		.2byte	0x13b
 4098 08ad 97000000 		.4byte	0x97
 4099 08b1 FB000000 		.4byte	.LLST6
 4100 08b5 18       		.uleb128 0x18
 4101 08b6 7900     		.ascii	"y\000"
 4102 08b8 01       		.byte	0x1
 4103 08b9 3B01     		.2byte	0x13b
 4104 08bb 97000000 		.4byte	0x97
 4105 08bf 1C010000 		.4byte	.LLST7
 4106 08c3 19       		.uleb128 0x19
 4107 08c4 64697200 		.ascii	"dir\000"
 4108 08c8 01       		.byte	0x1
 4109 08c9 3B01     		.2byte	0x13b
 4110 08cb A2000000 		.4byte	0xa2
 4111 08cf 01       		.uleb128 0x1
 4112 08d0 53       		.byte	0x53
 4113 08d1 00       		.byte	0
 4114 08d2 1A       		.uleb128 0x1a
 4115 08d3 B2020000 		.4byte	.LASF144
 4116 08d7 01       		.byte	0x1
 4117 08d8 A603     		.2byte	0x3a6
 4118 08da 5E030000 		.4byte	0x35e
 4119 08de 00000000 		.4byte	.LFB31
 4120 08e2 04000000 		.4byte	.LFE31-.LFB31
 4121 08e6 01       		.uleb128 0x1
 4122 08e7 9C       		.byte	0x9c
 4123 08e8 FD080000 		.4byte	0x8fd
 4124 08ec 1B       		.uleb128 0x1b
 4125 08ed F3040000 		.4byte	.LASF143
 4126 08f1 01       		.byte	0x1
 4127 08f2 A603     		.2byte	0x3a6
 4128 08f4 2F050000 		.4byte	0x52f
 4129 08f8 3D010000 		.4byte	.LLST8
 4130 08fc 00       		.byte	0
 4131 08fd 1A       		.uleb128 0x1a
 4132 08fe 2E080000 		.4byte	.LASF145
 4133 0902 01       		.byte	0x1
 4134 0903 B103     		.2byte	0x3b1
 4135 0905 5E030000 		.4byte	0x35e
ARM GAS  C:\Users\gjl\AppData\Local\Temp\ccg70AS9.s 			page 103


 4136 0909 00000000 		.4byte	.LFB33
 4137 090d 06000000 		.4byte	.LFE33-.LFB33
 4138 0911 01       		.uleb128 0x1
 4139 0912 9C       		.byte	0x9c
 4140 0913 28090000 		.4byte	0x928
 4141 0917 1B       		.uleb128 0x1b
 4142 0918 F3040000 		.4byte	.LASF143
 4143 091c 01       		.byte	0x1
 4144 091d B103     		.2byte	0x3b1
 4145 091f 2F050000 		.4byte	0x52f
 4146 0923 5E010000 		.4byte	.LLST9
 4147 0927 00       		.byte	0
 4148 0928 1A       		.uleb128 0x1a
 4149 0929 C20B0000 		.4byte	.LASF146
 4150 092d 01       		.byte	0x1
 4151 092e BB03     		.2byte	0x3bb
 4152 0930 5E030000 		.4byte	0x35e
 4153 0934 00000000 		.4byte	.LFB35
 4154 0938 0A000000 		.4byte	.LFE35-.LFB35
 4155 093c 01       		.uleb128 0x1
 4156 093d 9C       		.byte	0x9c
 4157 093e 63090000 		.4byte	0x963
 4158 0942 1B       		.uleb128 0x1b
 4159 0943 F3040000 		.4byte	.LASF143
 4160 0947 01       		.byte	0x1
 4161 0948 BB03     		.2byte	0x3bb
 4162 094a 2F050000 		.4byte	0x52f
 4163 094e 8D010000 		.4byte	.LLST10
 4164 0952 1C       		.uleb128 0x1c
 4165 0953 746D7000 		.ascii	"tmp\000"
 4166 0957 01       		.byte	0x1
 4167 0958 BD03     		.2byte	0x3bd
 4168 095a 5E030000 		.4byte	0x35e
 4169 095e BC010000 		.4byte	.LLST11
 4170 0962 00       		.byte	0
 4171 0963 1A       		.uleb128 0x1a
 4172 0964 11090000 		.4byte	.LASF147
 4173 0968 01       		.byte	0x1
 4174 0969 C903     		.2byte	0x3c9
 4175 096b 5E030000 		.4byte	0x35e
 4176 096f 00000000 		.4byte	.LFB37
 4177 0973 1C000000 		.4byte	.LFE37-.LFB37
 4178 0977 01       		.uleb128 0x1
 4179 0978 9C       		.byte	0x9c
 4180 0979 9E090000 		.4byte	0x99e
 4181 097d 1B       		.uleb128 0x1b
 4182 097e F3040000 		.4byte	.LASF143
 4183 0982 01       		.byte	0x1
 4184 0983 C903     		.2byte	0x3c9
 4185 0985 2F050000 		.4byte	0x52f
 4186 0989 F2010000 		.4byte	.LLST12
 4187 098d 1C       		.uleb128 0x1c
 4188 098e 746D7000 		.ascii	"tmp\000"
 4189 0992 01       		.byte	0x1
 4190 0993 CB03     		.2byte	0x3cb
 4191 0995 97000000 		.4byte	0x97
 4192 0999 2F020000 		.4byte	.LLST13
ARM GAS  C:\Users\gjl\AppData\Local\Temp\ccg70AS9.s 			page 104


 4193 099d 00       		.byte	0
 4194 099e 1D       		.uleb128 0x1d
 4195 099f 1D020000 		.4byte	.LASF161
 4196 09a3 01       		.byte	0x1
 4197 09a4 83       		.byte	0x83
 4198 09a5 00000000 		.4byte	.LFB2
 4199 09a9 6A000000 		.4byte	.LFE2-.LFB2
 4200 09ad 01       		.uleb128 0x1
 4201 09ae 9C       		.byte	0x9c
 4202 09af 6F0B0000 		.4byte	0xb6f
 4203 09b3 15       		.uleb128 0x15
 4204 09b4 12050000 		.4byte	.LASF84
 4205 09b8 01       		.byte	0x1
 4206 09b9 83       		.byte	0x83
 4207 09ba 6F0B0000 		.4byte	0xb6f
 4208 09be A9020000 		.4byte	.LLST14
 4209 09c2 15       		.uleb128 0x15
 4210 09c3 330C0000 		.4byte	.LASF26
 4211 09c7 01       		.byte	0x1
 4212 09c8 83       		.byte	0x83
 4213 09c9 53030000 		.4byte	0x353
 4214 09cd D5020000 		.4byte	.LLST15
 4215 09d1 1E       		.uleb128 0x1e
 4216 09d2 BE070000 		.4byte	0x7be
 4217 09d6 02000000 		.4byte	.LBB36
 4218 09da 02000000 		.4byte	.LBE36-.LBB36
 4219 09de 01       		.byte	0x1
 4220 09df 86       		.byte	0x86
 4221 09e0 F7090000 		.4byte	0x9f7
 4222 09e4 1F       		.uleb128 0x1f
 4223 09e5 D9070000 		.4byte	0x7d9
 4224 09e9 01030000 		.4byte	.LLST16
 4225 09ed 1F       		.uleb128 0x1f
 4226 09ee CE070000 		.4byte	0x7ce
 4227 09f2 15030000 		.4byte	.LLST17
 4228 09f6 00       		.byte	0
 4229 09f7 1E       		.uleb128 0x1e
 4230 09f8 BE070000 		.4byte	0x7be
 4231 09fc 08000000 		.4byte	.LBB38
 4232 0a00 02000000 		.4byte	.LBE38-.LBB38
 4233 0a04 01       		.byte	0x1
 4234 0a05 87       		.byte	0x87
 4235 0a06 1D0A0000 		.4byte	0xa1d
 4236 0a0a 1F       		.uleb128 0x1f
 4237 0a0b D9070000 		.4byte	0x7d9
 4238 0a0f 28030000 		.4byte	.LLST18
 4239 0a13 1F       		.uleb128 0x1f
 4240 0a14 CE070000 		.4byte	0x7ce
 4241 0a18 3C030000 		.4byte	.LLST19
 4242 0a1c 00       		.byte	0
 4243 0a1d 1E       		.uleb128 0x1e
 4244 0a1e BE070000 		.4byte	0x7be
 4245 0a22 0E000000 		.4byte	.LBB40
 4246 0a26 02000000 		.4byte	.LBE40-.LBB40
 4247 0a2a 01       		.byte	0x1
 4248 0a2b 88       		.byte	0x88
 4249 0a2c 430A0000 		.4byte	0xa43
ARM GAS  C:\Users\gjl\AppData\Local\Temp\ccg70AS9.s 			page 105


 4250 0a30 1F       		.uleb128 0x1f
 4251 0a31 D9070000 		.4byte	0x7d9
 4252 0a35 51030000 		.4byte	.LLST20
 4253 0a39 1F       		.uleb128 0x1f
 4254 0a3a CE070000 		.4byte	0x7ce
 4255 0a3e 65030000 		.4byte	.LLST21
 4256 0a42 00       		.byte	0
 4257 0a43 1E       		.uleb128 0x1e
 4258 0a44 BE070000 		.4byte	0x7be
 4259 0a48 12000000 		.4byte	.LBB42
 4260 0a4c 02000000 		.4byte	.LBE42-.LBB42
 4261 0a50 01       		.byte	0x1
 4262 0a51 89       		.byte	0x89
 4263 0a52 690A0000 		.4byte	0xa69
 4264 0a56 1F       		.uleb128 0x1f
 4265 0a57 D9070000 		.4byte	0x7d9
 4266 0a5b 7A030000 		.4byte	.LLST22
 4267 0a5f 1F       		.uleb128 0x1f
 4268 0a60 CE070000 		.4byte	0x7ce
 4269 0a64 8E030000 		.4byte	.LLST23
 4270 0a68 00       		.byte	0
 4271 0a69 1E       		.uleb128 0x1e
 4272 0a6a BE070000 		.4byte	0x7be
 4273 0a6e 16000000 		.4byte	.LBB44
 4274 0a72 02000000 		.4byte	.LBE44-.LBB44
 4275 0a76 01       		.byte	0x1
 4276 0a77 8C       		.byte	0x8c
 4277 0a78 8F0A0000 		.4byte	0xa8f
 4278 0a7c 1F       		.uleb128 0x1f
 4279 0a7d D9070000 		.4byte	0x7d9
 4280 0a81 A3030000 		.4byte	.LLST24
 4281 0a85 1F       		.uleb128 0x1f
 4282 0a86 CE070000 		.4byte	0x7ce
 4283 0a8a B7030000 		.4byte	.LLST25
 4284 0a8e 00       		.byte	0
 4285 0a8f 1E       		.uleb128 0x1e
 4286 0a90 BE070000 		.4byte	0x7be
 4287 0a94 1A000000 		.4byte	.LBB46
 4288 0a98 02000000 		.4byte	.LBE46-.LBB46
 4289 0a9c 01       		.byte	0x1
 4290 0a9d 8D       		.byte	0x8d
 4291 0a9e B50A0000 		.4byte	0xab5
 4292 0aa2 1F       		.uleb128 0x1f
 4293 0aa3 D9070000 		.4byte	0x7d9
 4294 0aa7 CC030000 		.4byte	.LLST26
 4295 0aab 1F       		.uleb128 0x1f
 4296 0aac CE070000 		.4byte	0x7ce
 4297 0ab0 E0030000 		.4byte	.LLST27
 4298 0ab4 00       		.byte	0
 4299 0ab5 1E       		.uleb128 0x1e
 4300 0ab6 BE070000 		.4byte	0x7be
 4301 0aba 1E000000 		.4byte	.LBB48
 4302 0abe 02000000 		.4byte	.LBE48-.LBB48
 4303 0ac2 01       		.byte	0x1
 4304 0ac3 8E       		.byte	0x8e
 4305 0ac4 DB0A0000 		.4byte	0xadb
 4306 0ac8 1F       		.uleb128 0x1f
ARM GAS  C:\Users\gjl\AppData\Local\Temp\ccg70AS9.s 			page 106


 4307 0ac9 D9070000 		.4byte	0x7d9
 4308 0acd F5030000 		.4byte	.LLST28
 4309 0ad1 1F       		.uleb128 0x1f
 4310 0ad2 CE070000 		.4byte	0x7ce
 4311 0ad6 09040000 		.4byte	.LLST29
 4312 0ada 00       		.byte	0
 4313 0adb 1E       		.uleb128 0x1e
 4314 0adc BE070000 		.4byte	0x7be
 4315 0ae0 22000000 		.4byte	.LBB50
 4316 0ae4 02000000 		.4byte	.LBE50-.LBB50
 4317 0ae8 01       		.byte	0x1
 4318 0ae9 8F       		.byte	0x8f
 4319 0aea 010B0000 		.4byte	0xb01
 4320 0aee 1F       		.uleb128 0x1f
 4321 0aef D9070000 		.4byte	0x7d9
 4322 0af3 1E040000 		.4byte	.LLST30
 4323 0af7 1F       		.uleb128 0x1f
 4324 0af8 CE070000 		.4byte	0x7ce
 4325 0afc 32040000 		.4byte	.LLST31
 4326 0b00 00       		.byte	0
 4327 0b01 1E       		.uleb128 0x1e
 4328 0b02 BE070000 		.4byte	0x7be
 4329 0b06 26000000 		.4byte	.LBB52
 4330 0b0a 02000000 		.4byte	.LBE52-.LBB52
 4331 0b0e 01       		.byte	0x1
 4332 0b0f 90       		.byte	0x90
 4333 0b10 270B0000 		.4byte	0xb27
 4334 0b14 1F       		.uleb128 0x1f
 4335 0b15 D9070000 		.4byte	0x7d9
 4336 0b19 47040000 		.4byte	.LLST32
 4337 0b1d 1F       		.uleb128 0x1f
 4338 0b1e CE070000 		.4byte	0x7ce
 4339 0b22 5B040000 		.4byte	.LLST33
 4340 0b26 00       		.byte	0
 4341 0b27 20       		.uleb128 0x20
 4342 0b28 52000000 		.4byte	.LVL53
 4343 0b2c E5070000 		.4byte	0x7e5
 4344 0b30 400B0000 		.4byte	0xb40
 4345 0b34 21       		.uleb128 0x21
 4346 0b35 01       		.uleb128 0x1
 4347 0b36 50       		.byte	0x50
 4348 0b37 02       		.uleb128 0x2
 4349 0b38 75       		.byte	0x75
 4350 0b39 00       		.sleb128 0
 4351 0b3a 21       		.uleb128 0x21
 4352 0b3b 01       		.uleb128 0x1
 4353 0b3c 51       		.byte	0x51
 4354 0b3d 01       		.uleb128 0x1
 4355 0b3e 41       		.byte	0x41
 4356 0b3f 00       		.byte	0
 4357 0b40 20       		.uleb128 0x20
 4358 0b41 5C000000 		.4byte	.LVL54
 4359 0b45 E5070000 		.4byte	0x7e5
 4360 0b49 590B0000 		.4byte	0xb59
 4361 0b4d 21       		.uleb128 0x21
 4362 0b4e 01       		.uleb128 0x1
 4363 0b4f 50       		.byte	0x50
ARM GAS  C:\Users\gjl\AppData\Local\Temp\ccg70AS9.s 			page 107


 4364 0b50 02       		.uleb128 0x2
 4365 0b51 75       		.byte	0x75
 4366 0b52 00       		.sleb128 0
 4367 0b53 21       		.uleb128 0x21
 4368 0b54 01       		.uleb128 0x1
 4369 0b55 51       		.byte	0x51
 4370 0b56 01       		.uleb128 0x1
 4371 0b57 43       		.byte	0x43
 4372 0b58 00       		.byte	0
 4373 0b59 22       		.uleb128 0x22
 4374 0b5a 66000000 		.4byte	.LVL55
 4375 0b5e E5070000 		.4byte	0x7e5
 4376 0b62 21       		.uleb128 0x21
 4377 0b63 01       		.uleb128 0x1
 4378 0b64 50       		.byte	0x50
 4379 0b65 02       		.uleb128 0x2
 4380 0b66 75       		.byte	0x75
 4381 0b67 00       		.sleb128 0
 4382 0b68 21       		.uleb128 0x21
 4383 0b69 01       		.uleb128 0x1
 4384 0b6a 51       		.byte	0x51
 4385 0b6b 01       		.uleb128 0x1
 4386 0b6c 45       		.byte	0x45
 4387 0b6d 00       		.byte	0
 4388 0b6e 00       		.byte	0
 4389 0b6f 09       		.uleb128 0x9
 4390 0b70 04       		.byte	0x4
 4391 0b71 6D060000 		.4byte	0x66d
 4392 0b75 23       		.uleb128 0x23
 4393 0b76 F6080000 		.4byte	.LASF148
 4394 0b7a 01       		.byte	0x1
 4395 0b7b AA       		.byte	0xaa
 4396 0b7c C3000000 		.4byte	0xc3
 4397 0b80 00000000 		.4byte	.LFB3
 4398 0b84 26000000 		.4byte	.LFE3-.LFB3
 4399 0b88 01       		.uleb128 0x1
 4400 0b89 9C       		.byte	0x9c
 4401 0b8a BA0B0000 		.4byte	0xbba
 4402 0b8e 15       		.uleb128 0x15
 4403 0b8f 520C0000 		.4byte	.LASF149
 4404 0b93 01       		.byte	0x1
 4405 0b94 AA       		.byte	0xaa
 4406 0b95 53030000 		.4byte	0x353
 4407 0b99 70040000 		.4byte	.LLST34
 4408 0b9d 16       		.uleb128 0x16
 4409 0b9e 6500     		.ascii	"e\000"
 4410 0ba0 01       		.byte	0x1
 4411 0ba1 AC       		.byte	0xac
 4412 0ba2 AD000000 		.4byte	0xad
 4413 0ba6 91040000 		.4byte	.LLST35
 4414 0baa 24       		.uleb128 0x24
 4415 0bab 330C0000 		.4byte	.LASF26
 4416 0baf 01       		.byte	0x1
 4417 0bb0 AD       		.byte	0xad
 4418 0bb1 53030000 		.4byte	0x353
 4419 0bb5 EF040000 		.4byte	.LLST36
 4420 0bb9 00       		.byte	0
ARM GAS  C:\Users\gjl\AppData\Local\Temp\ccg70AS9.s 			page 108


 4421 0bba 23       		.uleb128 0x23
 4422 0bbb 2F050000 		.4byte	.LASF150
 4423 0bbf 01       		.byte	0x1
 4424 0bc0 CA       		.byte	0xca
 4425 0bc1 A2000000 		.4byte	0xa2
 4426 0bc5 00000000 		.4byte	.LFB4
 4427 0bc9 06000000 		.4byte	.LFE4-.LFB4
 4428 0bcd 01       		.uleb128 0x1
 4429 0bce 9C       		.byte	0x9c
 4430 0bcf E30B0000 		.4byte	0xbe3
 4431 0bd3 15       		.uleb128 0x15
 4432 0bd4 F3040000 		.4byte	.LASF143
 4433 0bd8 01       		.byte	0x1
 4434 0bd9 CA       		.byte	0xca
 4435 0bda 2F050000 		.4byte	0x52f
 4436 0bde 0D050000 		.4byte	.LLST37
 4437 0be2 00       		.byte	0
 4438 0be3 23       		.uleb128 0x23
 4439 0be4 B4080000 		.4byte	.LASF151
 4440 0be8 01       		.byte	0x1
 4441 0be9 CF       		.byte	0xcf
 4442 0bea A2000000 		.4byte	0xa2
 4443 0bee 00000000 		.4byte	.LFB5
 4444 0bf2 06000000 		.4byte	.LFE5-.LFB5
 4445 0bf6 01       		.uleb128 0x1
 4446 0bf7 9C       		.byte	0x9c
 4447 0bf8 0C0C0000 		.4byte	0xc0c
 4448 0bfc 15       		.uleb128 0x15
 4449 0bfd F3040000 		.4byte	.LASF143
 4450 0c01 01       		.byte	0x1
 4451 0c02 CF       		.byte	0xcf
 4452 0c03 2F050000 		.4byte	0x52f
 4453 0c07 3C050000 		.4byte	.LLST38
 4454 0c0b 00       		.byte	0
 4455 0c0c 23       		.uleb128 0x23
 4456 0c0d 2B040000 		.4byte	.LASF152
 4457 0c11 01       		.byte	0x1
 4458 0c12 D5       		.byte	0xd5
 4459 0c13 97000000 		.4byte	0x97
 4460 0c17 00000000 		.4byte	.LFB6
 4461 0c1b 08000000 		.4byte	.LFE6-.LFB6
 4462 0c1f 01       		.uleb128 0x1
 4463 0c20 9C       		.byte	0x9c
 4464 0c21 350C0000 		.4byte	0xc35
 4465 0c25 15       		.uleb128 0x15
 4466 0c26 F3040000 		.4byte	.LASF143
 4467 0c2a 01       		.byte	0x1
 4468 0c2b D5       		.byte	0xd5
 4469 0c2c 2F050000 		.4byte	0x52f
 4470 0c30 6B050000 		.4byte	.LLST39
 4471 0c34 00       		.byte	0
 4472 0c35 23       		.uleb128 0x23
 4473 0c36 17000000 		.4byte	.LASF153
 4474 0c3a 01       		.byte	0x1
 4475 0c3b DB       		.byte	0xdb
 4476 0c3c 97000000 		.4byte	0x97
 4477 0c40 00000000 		.4byte	.LFB7
ARM GAS  C:\Users\gjl\AppData\Local\Temp\ccg70AS9.s 			page 109


 4478 0c44 08000000 		.4byte	.LFE7-.LFB7
 4479 0c48 01       		.uleb128 0x1
 4480 0c49 9C       		.byte	0x9c
 4481 0c4a 5E0C0000 		.4byte	0xc5e
 4482 0c4e 15       		.uleb128 0x15
 4483 0c4f F3040000 		.4byte	.LASF143
 4484 0c53 01       		.byte	0x1
 4485 0c54 DB       		.byte	0xdb
 4486 0c55 2F050000 		.4byte	0x52f
 4487 0c59 9A050000 		.4byte	.LLST40
 4488 0c5d 00       		.byte	0
 4489 0c5e 23       		.uleb128 0x23
 4490 0c5f 360B0000 		.4byte	.LASF154
 4491 0c63 01       		.byte	0x1
 4492 0c64 E1       		.byte	0xe1
 4493 0c65 A2000000 		.4byte	0xa2
 4494 0c69 00000000 		.4byte	.LFB8
 4495 0c6d 06000000 		.4byte	.LFE8-.LFB8
 4496 0c71 01       		.uleb128 0x1
 4497 0c72 9C       		.byte	0x9c
 4498 0c73 870C0000 		.4byte	0xc87
 4499 0c77 15       		.uleb128 0x15
 4500 0c78 F3040000 		.4byte	.LASF143
 4501 0c7c 01       		.byte	0x1
 4502 0c7d E1       		.byte	0xe1
 4503 0c7e 2F050000 		.4byte	0x52f
 4504 0c82 C9050000 		.4byte	.LLST41
 4505 0c86 00       		.byte	0
 4506 0c87 23       		.uleb128 0x23
 4507 0c88 ED030000 		.4byte	.LASF155
 4508 0c8c 01       		.byte	0x1
 4509 0c8d EA       		.byte	0xea
 4510 0c8e A2000000 		.4byte	0xa2
 4511 0c92 00000000 		.4byte	.LFB9
 4512 0c96 38000000 		.4byte	.LFE9-.LFB9
 4513 0c9a 01       		.uleb128 0x1
 4514 0c9b 9C       		.byte	0x9c
 4515 0c9c FF0C0000 		.4byte	0xcff
 4516 0ca0 25       		.uleb128 0x25
 4517 0ca1 6600     		.ascii	"f\000"
 4518 0ca3 01       		.byte	0x1
 4519 0ca4 EA       		.byte	0xea
 4520 0ca5 FF0C0000 		.4byte	0xcff
 4521 0ca9 F8050000 		.4byte	.LLST42
 4522 0cad 26       		.uleb128 0x26
 4523 0cae 636E7400 		.ascii	"cnt\000"
 4524 0cb2 01       		.byte	0x1
 4525 0cb3 EA       		.byte	0xea
 4526 0cb4 A2000000 		.4byte	0xa2
 4527 0cb8 01       		.uleb128 0x1
 4528 0cb9 51       		.byte	0x51
 4529 0cba 16       		.uleb128 0x16
 4530 0cbb 76616C00 		.ascii	"val\000"
 4531 0cbf 01       		.byte	0x1
 4532 0cc0 EC       		.byte	0xec
 4533 0cc1 A2000000 		.4byte	0xa2
 4534 0cc5 19060000 		.4byte	.LLST43
ARM GAS  C:\Users\gjl\AppData\Local\Temp\ccg70AS9.s 			page 110


 4535 0cc9 24       		.uleb128 0x24
 4536 0cca 380C0000 		.4byte	.LASF156
 4537 0cce 01       		.byte	0x1
 4538 0ccf ED       		.byte	0xed
 4539 0cd0 A2000000 		.4byte	0xa2
 4540 0cd4 57060000 		.4byte	.LLST44
 4541 0cd8 24       		.uleb128 0x24
 4542 0cd9 87070000 		.4byte	.LASF157
 4543 0cdd 01       		.byte	0x1
 4544 0cde EE       		.byte	0xee
 4545 0cdf A2000000 		.4byte	0xa2
 4546 0ce3 6A060000 		.4byte	.LLST45
 4547 0ce7 27       		.uleb128 0x27
 4548 0ce8 16000000 		.4byte	.LBB54
 4549 0cec 16000000 		.4byte	.LBE54-.LBB54
 4550 0cf0 16       		.uleb128 0x16
 4551 0cf1 7300     		.ascii	"s\000"
 4552 0cf3 01       		.byte	0x1
 4553 0cf4 F8       		.byte	0xf8
 4554 0cf5 A2000000 		.4byte	0xa2
 4555 0cf9 95060000 		.4byte	.LLST46
 4556 0cfd 00       		.byte	0
 4557 0cfe 00       		.byte	0
 4558 0cff 09       		.uleb128 0x9
 4559 0d00 04       		.byte	0x4
 4560 0d01 13070000 		.4byte	0x713
 4561 0d05 28       		.uleb128 0x28
 4562 0d06 00000000 		.4byte	.LASF167
 4563 0d0a 01       		.byte	0x1
 4564 0d0b C201     		.2byte	0x1c2
 4565 0d0d 00000000 		.4byte	.LFB14
 4566 0d11 38000000 		.4byte	.LFE14-.LFB14
 4567 0d15 01       		.uleb128 0x1
 4568 0d16 9C       		.byte	0x9c
 4569 0d17 700D0000 		.4byte	0xd70
 4570 0d1b 1B       		.uleb128 0x1b
 4571 0d1c F3040000 		.4byte	.LASF143
 4572 0d20 01       		.byte	0x1
 4573 0d21 C201     		.2byte	0x1c2
 4574 0d23 2F050000 		.4byte	0x52f
 4575 0d27 AC060000 		.4byte	.LLST47
 4576 0d2b 1B       		.uleb128 0x1b
 4577 0d2c F60C0000 		.4byte	.LASF158
 4578 0d30 01       		.byte	0x1
 4579 0d31 C201     		.2byte	0x1c2
 4580 0d33 53030000 		.4byte	0x353
 4581 0d37 E6060000 		.4byte	.LLST48
 4582 0d3b 29       		.uleb128 0x29
 4583 0d3c 33070000 		.4byte	.LASF159
 4584 0d40 01       		.byte	0x1
 4585 0d41 C401     		.2byte	0x1c4
 4586 0d43 FF0C0000 		.4byte	0xcff
 4587 0d47 13070000 		.4byte	.LLST49
 4588 0d4b 20       		.uleb128 0x20
 4589 0d4c 1A000000 		.4byte	.LVL97
 4590 0d50 870C0000 		.4byte	0xc87
 4591 0d54 5F0D0000 		.4byte	0xd5f
ARM GAS  C:\Users\gjl\AppData\Local\Temp\ccg70AS9.s 			page 111


 4592 0d58 21       		.uleb128 0x21
 4593 0d59 01       		.uleb128 0x1
 4594 0d5a 50       		.byte	0x50
 4595 0d5b 02       		.uleb128 0x2
 4596 0d5c 74       		.byte	0x74
 4597 0d5d 00       		.sleb128 0
 4598 0d5e 00       		.byte	0
 4599 0d5f 22       		.uleb128 0x22
 4600 0d60 28000000 		.4byte	.LVL98
 4601 0d64 870C0000 		.4byte	0xc87
 4602 0d68 21       		.uleb128 0x21
 4603 0d69 01       		.uleb128 0x1
 4604 0d6a 50       		.byte	0x50
 4605 0d6b 02       		.uleb128 0x2
 4606 0d6c 74       		.byte	0x74
 4607 0d6d 00       		.sleb128 0
 4608 0d6e 00       		.byte	0
 4609 0d6f 00       		.byte	0
 4610 0d70 1A       		.uleb128 0x1a
 4611 0d71 6A090000 		.4byte	.LASF160
 4612 0d75 01       		.byte	0x1
 4613 0d76 1701     		.2byte	0x117
 4614 0d78 97000000 		.4byte	0x97
 4615 0d7c 00000000 		.4byte	.LFB10
 4616 0d80 16000000 		.4byte	.LFE10-.LFB10
 4617 0d84 01       		.uleb128 0x1
 4618 0d85 9C       		.byte	0x9c
 4619 0d86 DC0D0000 		.4byte	0xddc
 4620 0d8a 18       		.uleb128 0x18
 4621 0d8b 6600     		.ascii	"f\000"
 4622 0d8d 01       		.byte	0x1
 4623 0d8e 1701     		.2byte	0x117
 4624 0d90 FF0C0000 		.4byte	0xcff
 4625 0d94 43070000 		.4byte	.LLST50
 4626 0d98 18       		.uleb128 0x18
 4627 0d99 636E7400 		.ascii	"cnt\000"
 4628 0d9d 01       		.byte	0x1
 4629 0d9e 1701     		.2byte	0x117
 4630 0da0 A2000000 		.4byte	0xa2
 4631 0da4 64070000 		.4byte	.LLST51
 4632 0da8 1C       		.uleb128 0x1c
 4633 0da9 7600     		.ascii	"v\000"
 4634 0dab 01       		.byte	0x1
 4635 0dac 1901     		.2byte	0x119
 4636 0dae 97000000 		.4byte	0x97
 4637 0db2 92070000 		.4byte	.LLST52
 4638 0db6 1C       		.uleb128 0x1c
 4639 0db7 6400     		.ascii	"d\000"
 4640 0db9 01       		.byte	0x1
 4641 0dba 1901     		.2byte	0x119
 4642 0dbc 97000000 		.4byte	0x97
 4643 0dc0 AC070000 		.4byte	.LLST53
 4644 0dc4 22       		.uleb128 0x22
 4645 0dc5 08000000 		.4byte	.LVL103
 4646 0dc9 870C0000 		.4byte	0xc87
 4647 0dcd 21       		.uleb128 0x21
 4648 0dce 01       		.uleb128 0x1
ARM GAS  C:\Users\gjl\AppData\Local\Temp\ccg70AS9.s 			page 112


 4649 0dcf 50       		.byte	0x50
 4650 0dd0 03       		.uleb128 0x3
 4651 0dd1 F3       		.byte	0xf3
 4652 0dd2 01       		.uleb128 0x1
 4653 0dd3 50       		.byte	0x50
 4654 0dd4 21       		.uleb128 0x21
 4655 0dd5 01       		.uleb128 0x1
 4656 0dd6 51       		.byte	0x51
 4657 0dd7 02       		.uleb128 0x2
 4658 0dd8 74       		.byte	0x74
 4659 0dd9 00       		.sleb128 0
 4660 0dda 00       		.byte	0
 4661 0ddb 00       		.byte	0
 4662 0ddc 2A       		.uleb128 0x2a
 4663 0ddd 7C0B0000 		.4byte	.LASF162
 4664 0de1 01       		.byte	0x1
 4665 0de2 6401     		.2byte	0x164
 4666 0de4 00000000 		.4byte	.LFB13
 4667 0de8 A8000000 		.4byte	.LFE13-.LFB13
 4668 0dec 01       		.uleb128 0x1
 4669 0ded 9C       		.byte	0x9c
 4670 0dee 190F0000 		.4byte	0xf19
 4671 0df2 1B       		.uleb128 0x1b
 4672 0df3 F3040000 		.4byte	.LASF143
 4673 0df7 01       		.byte	0x1
 4674 0df8 6401     		.2byte	0x164
 4675 0dfa 2F050000 		.4byte	0x52f
 4676 0dfe C3070000 		.4byte	.LLST54
 4677 0e02 18       		.uleb128 0x18
 4678 0e03 6C656E00 		.ascii	"len\000"
 4679 0e07 01       		.byte	0x1
 4680 0e08 6401     		.2byte	0x164
 4681 0e0a A2000000 		.4byte	0xa2
 4682 0e0e FD070000 		.4byte	.LLST55
 4683 0e12 1B       		.uleb128 0x1b
 4684 0e13 9E090000 		.4byte	.LASF163
 4685 0e17 01       		.byte	0x1
 4686 0e18 6401     		.2byte	0x164
 4687 0e1a A2000000 		.4byte	0xa2
 4688 0e1e 1E080000 		.4byte	.LLST56
 4689 0e22 1C       		.uleb128 0x1c
 4690 0e23 636E7400 		.ascii	"cnt\000"
 4691 0e27 01       		.byte	0x1
 4692 0e28 6601     		.2byte	0x166
 4693 0e2a A2000000 		.4byte	0xa2
 4694 0e2e 3F080000 		.4byte	.LLST57
 4695 0e32 1C       		.uleb128 0x1c
 4696 0e33 72656D00 		.ascii	"rem\000"
 4697 0e37 01       		.byte	0x1
 4698 0e38 6701     		.2byte	0x167
 4699 0e3a A2000000 		.4byte	0xa2
 4700 0e3e 68080000 		.4byte	.LLST58
 4701 0e42 29       		.uleb128 0x29
 4702 0e43 E5070000 		.4byte	.LASF164
 4703 0e47 01       		.byte	0x1
 4704 0e48 6801     		.2byte	0x168
 4705 0e4a A2000000 		.4byte	0xa2
ARM GAS  C:\Users\gjl\AppData\Local\Temp\ccg70AS9.s 			page 113


 4706 0e4e 89080000 		.4byte	.LLST59
 4707 0e52 1C       		.uleb128 0x1c
 4708 0e53 6C7800   		.ascii	"lx\000"
 4709 0e56 01       		.byte	0x1
 4710 0e57 6C01     		.2byte	0x16c
 4711 0e59 A2000000 		.4byte	0xa2
 4712 0e5d 9D080000 		.4byte	.LLST60
 4713 0e61 2B       		.uleb128 0x2b
 4714 0e62 6C7900   		.ascii	"ly\000"
 4715 0e65 01       		.byte	0x1
 4716 0e66 6C01     		.2byte	0x16c
 4717 0e68 A2000000 		.4byte	0xa2
 4718 0e6c 02       		.uleb128 0x2
 4719 0e6d 91       		.byte	0x91
 4720 0e6e 4C       		.sleb128 -52
 4721 0e6f 1C       		.uleb128 0x1c
 4722 0e70 7800     		.ascii	"x\000"
 4723 0e72 01       		.byte	0x1
 4724 0e73 6F01     		.2byte	0x16f
 4725 0e75 5E030000 		.4byte	0x35e
 4726 0e79 CC080000 		.4byte	.LLST61
 4727 0e7d 1C       		.uleb128 0x1c
 4728 0e7e 7900     		.ascii	"y\000"
 4729 0e80 01       		.byte	0x1
 4730 0e81 6F01     		.2byte	0x16f
 4731 0e83 5E030000 		.4byte	0x35e
 4732 0e87 EB080000 		.4byte	.LLST62
 4733 0e8b 29       		.uleb128 0x29
 4734 0e8c 33070000 		.4byte	.LASF159
 4735 0e90 01       		.byte	0x1
 4736 0e91 7101     		.2byte	0x171
 4737 0e93 FF0C0000 		.4byte	0xcff
 4738 0e97 0A090000 		.4byte	.LLST63
 4739 0e9b 20       		.uleb128 0x20
 4740 0e9c 4C000000 		.4byte	.LVL117
 4741 0ea0 7E080000 		.4byte	0x87e
 4742 0ea4 C10E0000 		.4byte	0xec1
 4743 0ea8 21       		.uleb128 0x21
 4744 0ea9 01       		.uleb128 0x1
 4745 0eaa 51       		.byte	0x51
 4746 0eab 04       		.uleb128 0x4
 4747 0eac 91       		.byte	0x91
 4748 0ead 54       		.sleb128 -44
 4749 0eae 94       		.byte	0x94
 4750 0eaf 01       		.byte	0x1
 4751 0eb0 21       		.uleb128 0x21
 4752 0eb1 01       		.uleb128 0x1
 4753 0eb2 52       		.byte	0x52
 4754 0eb3 04       		.uleb128 0x4
 4755 0eb4 91       		.byte	0x91
 4756 0eb5 50       		.sleb128 -48
 4757 0eb6 94       		.byte	0x94
 4758 0eb7 01       		.byte	0x1
 4759 0eb8 21       		.uleb128 0x21
 4760 0eb9 01       		.uleb128 0x1
 4761 0eba 53       		.byte	0x53
 4762 0ebb 04       		.uleb128 0x4
ARM GAS  C:\Users\gjl\AppData\Local\Temp\ccg70AS9.s 			page 114


 4763 0ebc 91       		.byte	0x91
 4764 0ebd 48       		.sleb128 -56
 4765 0ebe 94       		.byte	0x94
 4766 0ebf 01       		.byte	0x1
 4767 0ec0 00       		.byte	0
 4768 0ec1 20       		.uleb128 0x20
 4769 0ec2 5A000000 		.4byte	.LVL119
 4770 0ec6 2C080000 		.4byte	0x82c
 4771 0eca EF0E0000 		.4byte	0xeef
 4772 0ece 21       		.uleb128 0x21
 4773 0ecf 01       		.uleb128 0x1
 4774 0ed0 50       		.byte	0x50
 4775 0ed1 04       		.uleb128 0x4
 4776 0ed2 91       		.byte	0x91
 4777 0ed3 60       		.sleb128 -32
 4778 0ed4 94       		.byte	0x94
 4779 0ed5 01       		.byte	0x1
 4780 0ed6 21       		.uleb128 0x21
 4781 0ed7 01       		.uleb128 0x1
 4782 0ed8 51       		.byte	0x51
 4783 0ed9 04       		.uleb128 0x4
 4784 0eda 91       		.byte	0x91
 4785 0edb 54       		.sleb128 -44
 4786 0edc 94       		.byte	0x94
 4787 0edd 01       		.byte	0x1
 4788 0ede 21       		.uleb128 0x21
 4789 0edf 01       		.uleb128 0x1
 4790 0ee0 52       		.byte	0x52
 4791 0ee1 04       		.uleb128 0x4
 4792 0ee2 91       		.byte	0x91
 4793 0ee3 50       		.sleb128 -48
 4794 0ee4 94       		.byte	0x94
 4795 0ee5 01       		.byte	0x1
 4796 0ee6 21       		.uleb128 0x21
 4797 0ee7 01       		.uleb128 0x1
 4798 0ee8 53       		.byte	0x53
 4799 0ee9 04       		.uleb128 0x4
 4800 0eea 91       		.byte	0x91
 4801 0eeb 48       		.sleb128 -56
 4802 0eec 94       		.byte	0x94
 4803 0eed 01       		.byte	0x1
 4804 0eee 00       		.byte	0
 4805 0eef 22       		.uleb128 0x22
 4806 0ef0 82000000 		.4byte	.LVL121
 4807 0ef4 B61E0000 		.4byte	0x1eb6
 4808 0ef8 21       		.uleb128 0x21
 4809 0ef9 01       		.uleb128 0x1
 4810 0efa 50       		.byte	0x50
 4811 0efb 02       		.uleb128 0x2
 4812 0efc 74       		.byte	0x74
 4813 0efd 00       		.sleb128 0
 4814 0efe 21       		.uleb128 0x21
 4815 0eff 01       		.uleb128 0x1
 4816 0f00 51       		.byte	0x51
 4817 0f01 04       		.uleb128 0x4
 4818 0f02 91       		.byte	0x91
 4819 0f03 5C       		.sleb128 -36
ARM GAS  C:\Users\gjl\AppData\Local\Temp\ccg70AS9.s 			page 115


 4820 0f04 94       		.byte	0x94
 4821 0f05 01       		.byte	0x1
 4822 0f06 21       		.uleb128 0x21
 4823 0f07 01       		.uleb128 0x1
 4824 0f08 53       		.byte	0x53
 4825 0f09 04       		.uleb128 0x4
 4826 0f0a 91       		.byte	0x91
 4827 0f0b 58       		.sleb128 -40
 4828 0f0c 94       		.byte	0x94
 4829 0f0d 01       		.byte	0x1
 4830 0f0e 21       		.uleb128 0x21
 4831 0f0f 02       		.uleb128 0x2
 4832 0f10 7D       		.byte	0x7d
 4833 0f11 00       		.sleb128 0
 4834 0f12 04       		.uleb128 0x4
 4835 0f13 91       		.byte	0x91
 4836 0f14 48       		.sleb128 -56
 4837 0f15 94       		.byte	0x94
 4838 0f16 01       		.byte	0x1
 4839 0f17 00       		.byte	0
 4840 0f18 00       		.byte	0
 4841 0f19 1A       		.uleb128 0x1a
 4842 0f1a 310A0000 		.4byte	.LASF165
 4843 0f1e 01       		.byte	0x1
 4844 0f1f E401     		.2byte	0x1e4
 4845 0f21 97000000 		.4byte	0x97
 4846 0f25 00000000 		.4byte	.LFB15
 4847 0f29 54010000 		.4byte	.LFE15-.LFB15
 4848 0f2d 01       		.uleb128 0x1
 4849 0f2e 9C       		.byte	0x9c
 4850 0f2f 2F110000 		.4byte	0x112f
 4851 0f33 1B       		.uleb128 0x1b
 4852 0f34 F3040000 		.4byte	.LASF143
 4853 0f38 01       		.byte	0x1
 4854 0f39 E401     		.2byte	0x1e4
 4855 0f3b 2F050000 		.4byte	0x52f
 4856 0f3f 62090000 		.4byte	.LLST64
 4857 0f43 1B       		.uleb128 0x1b
 4858 0f44 F60C0000 		.4byte	.LASF158
 4859 0f48 01       		.byte	0x1
 4860 0f49 E401     		.2byte	0x1e4
 4861 0f4b 53030000 		.4byte	0x353
 4862 0f4f AA090000 		.4byte	.LLST65
 4863 0f53 1C       		.uleb128 0x1c
 4864 0f54 6100     		.ascii	"a\000"
 4865 0f56 01       		.byte	0x1
 4866 0f57 E601     		.2byte	0x1e6
 4867 0f59 A2000000 		.4byte	0xa2
 4868 0f5d CB090000 		.4byte	.LLST66
 4869 0f61 1C       		.uleb128 0x1c
 4870 0f62 6200     		.ascii	"b\000"
 4871 0f64 01       		.byte	0x1
 4872 0f65 E601     		.2byte	0x1e6
 4873 0f67 A2000000 		.4byte	0xa2
 4874 0f6b E9090000 		.4byte	.LLST67
 4875 0f6f 2B       		.uleb128 0x2b
 4876 0f70 7800     		.ascii	"x\000"
ARM GAS  C:\Users\gjl\AppData\Local\Temp\ccg70AS9.s 			page 116


 4877 0f72 01       		.byte	0x1
 4878 0f73 E701     		.2byte	0x1e7
 4879 0f75 97000000 		.4byte	0x97
 4880 0f79 02       		.uleb128 0x2
 4881 0f7a 91       		.byte	0x91
 4882 0f7b 60       		.sleb128 -32
 4883 0f7c 1C       		.uleb128 0x1c
 4884 0f7d 7900     		.ascii	"y\000"
 4885 0f7f 01       		.byte	0x1
 4886 0f80 E701     		.2byte	0x1e7
 4887 0f82 97000000 		.4byte	0x97
 4888 0f86 FC090000 		.4byte	.LLST68
 4889 0f8a 2B       		.uleb128 0x2b
 4890 0f8b 6400     		.ascii	"d\000"
 4891 0f8d 01       		.byte	0x1
 4892 0f8e E801     		.2byte	0x1e8
 4893 0f90 97000000 		.4byte	0x97
 4894 0f94 02       		.uleb128 0x2
 4895 0f95 91       		.byte	0x91
 4896 0f96 64       		.sleb128 -28
 4897 0f97 2B       		.uleb128 0x2b
 4898 0f98 6800     		.ascii	"h\000"
 4899 0f9a 01       		.byte	0x1
 4900 0f9b E901     		.2byte	0x1e9
 4901 0f9d 97000000 		.4byte	0x97
 4902 0fa1 02       		.uleb128 0x2
 4903 0fa2 91       		.byte	0x91
 4904 0fa3 58       		.sleb128 -40
 4905 0fa4 29       		.uleb128 0x29
 4906 0fa5 33070000 		.4byte	.LASF159
 4907 0fa9 01       		.byte	0x1
 4908 0faa EA01     		.2byte	0x1ea
 4909 0fac FF0C0000 		.4byte	0xcff
 4910 0fb0 0F0A0000 		.4byte	.LLST69
 4911 0fb4 2C       		.uleb128 0x2c
 4912 0fb5 00000000 		.4byte	.Ldebug_ranges0+0
 4913 0fb9 10100000 		.4byte	0x1010
 4914 0fbd 1C       		.uleb128 0x1c
 4915 0fbe 783000   		.ascii	"x0\000"
 4916 0fc1 01       		.byte	0x1
 4917 0fc2 0002     		.2byte	0x200
 4918 0fc4 5E030000 		.4byte	0x35e
 4919 0fc8 320A0000 		.4byte	.LLST70
 4920 0fcc 1C       		.uleb128 0x1c
 4921 0fcd 783100   		.ascii	"x1\000"
 4922 0fd0 01       		.byte	0x1
 4923 0fd1 0002     		.2byte	0x200
 4924 0fd3 5E030000 		.4byte	0x35e
 4925 0fd7 7F0A0000 		.4byte	.LLST71
 4926 0fdb 1C       		.uleb128 0x1c
 4927 0fdc 793000   		.ascii	"y0\000"
 4928 0fdf 01       		.byte	0x1
 4929 0fe0 0002     		.2byte	0x200
 4930 0fe2 5E030000 		.4byte	0x35e
 4931 0fe6 F50A0000 		.4byte	.LLST72
 4932 0fea 1C       		.uleb128 0x1c
 4933 0feb 793100   		.ascii	"y1\000"
ARM GAS  C:\Users\gjl\AppData\Local\Temp\ccg70AS9.s 			page 117


 4934 0fee 01       		.byte	0x1
 4935 0fef 0002     		.2byte	0x200
 4936 0ff1 5E030000 		.4byte	0x35e
 4937 0ff5 4C0B0000 		.4byte	.LLST73
 4938 0ff9 22       		.uleb128 0x22
 4939 0ffa F0000000 		.4byte	.LVL162
 4940 0ffe C21E0000 		.4byte	0x1ec2
 4941 1002 21       		.uleb128 0x21
 4942 1003 01       		.uleb128 0x1
 4943 1004 50       		.byte	0x50
 4944 1005 02       		.uleb128 0x2
 4945 1006 75       		.byte	0x75
 4946 1007 00       		.sleb128 0
 4947 1008 21       		.uleb128 0x21
 4948 1009 01       		.uleb128 0x1
 4949 100a 51       		.byte	0x51
 4950 100b 02       		.uleb128 0x2
 4951 100c 76       		.byte	0x76
 4952 100d 00       		.sleb128 0
 4953 100e 00       		.byte	0
 4954 100f 00       		.byte	0
 4955 1010 20       		.uleb128 0x20
 4956 1011 0C000000 		.4byte	.LVL129
 4957 1015 050D0000 		.4byte	0xd05
 4958 1019 2B100000 		.4byte	0x102b
 4959 101d 21       		.uleb128 0x21
 4960 101e 01       		.uleb128 0x1
 4961 101f 50       		.byte	0x50
 4962 1020 02       		.uleb128 0x2
 4963 1021 75       		.byte	0x75
 4964 1022 00       		.sleb128 0
 4965 1023 21       		.uleb128 0x21
 4966 1024 01       		.uleb128 0x1
 4967 1025 51       		.byte	0x51
 4968 1026 03       		.uleb128 0x3
 4969 1027 F3       		.byte	0xf3
 4970 1028 01       		.uleb128 0x1
 4971 1029 51       		.byte	0x51
 4972 102a 00       		.byte	0
 4973 102b 20       		.uleb128 0x20
 4974 102c 24000000 		.4byte	.LVL132
 4975 1030 700D0000 		.4byte	0xd70
 4976 1034 3F100000 		.4byte	0x103f
 4977 1038 21       		.uleb128 0x21
 4978 1039 01       		.uleb128 0x1
 4979 103a 50       		.byte	0x50
 4980 103b 02       		.uleb128 0x2
 4981 103c 77       		.byte	0x77
 4982 103d 00       		.sleb128 0
 4983 103e 00       		.byte	0
 4984 103f 20       		.uleb128 0x20
 4985 1040 32000000 		.4byte	.LVL134
 4986 1044 700D0000 		.4byte	0xd70
 4987 1048 53100000 		.4byte	0x1053
 4988 104c 21       		.uleb128 0x21
 4989 104d 01       		.uleb128 0x1
 4990 104e 50       		.byte	0x50
ARM GAS  C:\Users\gjl\AppData\Local\Temp\ccg70AS9.s 			page 118


 4991 104f 02       		.uleb128 0x2
 4992 1050 77       		.byte	0x77
 4993 1051 00       		.sleb128 0
 4994 1052 00       		.byte	0
 4995 1053 20       		.uleb128 0x20
 4996 1054 40000000 		.4byte	.LVL136
 4997 1058 700D0000 		.4byte	0xd70
 4998 105c 67100000 		.4byte	0x1067
 4999 1060 21       		.uleb128 0x21
 5000 1061 01       		.uleb128 0x1
 5001 1062 50       		.byte	0x50
 5002 1063 02       		.uleb128 0x2
 5003 1064 77       		.byte	0x77
 5004 1065 00       		.sleb128 0
 5005 1066 00       		.byte	0
 5006 1067 20       		.uleb128 0x20
 5007 1068 6A000000 		.4byte	.LVL139
 5008 106c 7E080000 		.4byte	0x87e
 5009 1070 8D100000 		.4byte	0x108d
 5010 1074 21       		.uleb128 0x21
 5011 1075 01       		.uleb128 0x1
 5012 1076 51       		.byte	0x51
 5013 1077 04       		.uleb128 0x4
 5014 1078 91       		.byte	0x91
 5015 1079 60       		.sleb128 -32
 5016 107a 94       		.byte	0x94
 5017 107b 01       		.byte	0x1
 5018 107c 21       		.uleb128 0x21
 5019 107d 01       		.uleb128 0x1
 5020 107e 52       		.byte	0x52
 5021 107f 04       		.uleb128 0x4
 5022 1080 91       		.byte	0x91
 5023 1081 5C       		.sleb128 -36
 5024 1082 94       		.byte	0x94
 5025 1083 01       		.byte	0x1
 5026 1084 21       		.uleb128 0x21
 5027 1085 01       		.uleb128 0x1
 5028 1086 53       		.byte	0x53
 5029 1087 04       		.uleb128 0x4
 5030 1088 91       		.byte	0x91
 5031 1089 54       		.sleb128 -44
 5032 108a 94       		.byte	0x94
 5033 108b 01       		.byte	0x1
 5034 108c 00       		.byte	0
 5035 108d 20       		.uleb128 0x20
 5036 108e 7C000000 		.4byte	.LVL140
 5037 1092 2C080000 		.4byte	0x82c
 5038 1096 B3100000 		.4byte	0x10b3
 5039 109a 21       		.uleb128 0x21
 5040 109b 01       		.uleb128 0x1
 5041 109c 51       		.byte	0x51
 5042 109d 04       		.uleb128 0x4
 5043 109e 91       		.byte	0x91
 5044 109f 60       		.sleb128 -32
 5045 10a0 94       		.byte	0x94
 5046 10a1 01       		.byte	0x1
 5047 10a2 21       		.uleb128 0x21
ARM GAS  C:\Users\gjl\AppData\Local\Temp\ccg70AS9.s 			page 119


 5048 10a3 01       		.uleb128 0x1
 5049 10a4 52       		.byte	0x52
 5050 10a5 04       		.uleb128 0x4
 5051 10a6 91       		.byte	0x91
 5052 10a7 5C       		.sleb128 -36
 5053 10a8 94       		.byte	0x94
 5054 10a9 01       		.byte	0x1
 5055 10aa 21       		.uleb128 0x21
 5056 10ab 01       		.uleb128 0x1
 5057 10ac 53       		.byte	0x53
 5058 10ad 04       		.uleb128 0x4
 5059 10ae 91       		.byte	0x91
 5060 10af 54       		.sleb128 -44
 5061 10b0 94       		.byte	0x94
 5062 10b1 01       		.byte	0x1
 5063 10b2 00       		.byte	0
 5064 10b3 20       		.uleb128 0x20
 5065 10b4 0A010000 		.4byte	.LVL164
 5066 10b8 870C0000 		.4byte	0xc87
 5067 10bc C7100000 		.4byte	0x10c7
 5068 10c0 21       		.uleb128 0x21
 5069 10c1 01       		.uleb128 0x1
 5070 10c2 50       		.byte	0x50
 5071 10c3 02       		.uleb128 0x2
 5072 10c4 77       		.byte	0x77
 5073 10c5 00       		.sleb128 0
 5074 10c6 00       		.byte	0
 5075 10c7 20       		.uleb128 0x20
 5076 10c8 18010000 		.4byte	.LVL167
 5077 10cc 870C0000 		.4byte	0xc87
 5078 10d0 DB100000 		.4byte	0x10db
 5079 10d4 21       		.uleb128 0x21
 5080 10d5 01       		.uleb128 0x1
 5081 10d6 50       		.byte	0x50
 5082 10d7 02       		.uleb128 0x2
 5083 10d8 77       		.byte	0x77
 5084 10d9 00       		.sleb128 0
 5085 10da 00       		.byte	0
 5086 10db 20       		.uleb128 0x20
 5087 10dc 24010000 		.4byte	.LVL169
 5088 10e0 DC0D0000 		.4byte	0xddc
 5089 10e4 FA100000 		.4byte	0x10fa
 5090 10e8 21       		.uleb128 0x21
 5091 10e9 01       		.uleb128 0x1
 5092 10ea 50       		.byte	0x50
 5093 10eb 02       		.uleb128 0x2
 5094 10ec 75       		.byte	0x75
 5095 10ed 00       		.sleb128 0
 5096 10ee 21       		.uleb128 0x21
 5097 10ef 01       		.uleb128 0x1
 5098 10f0 51       		.byte	0x51
 5099 10f1 02       		.uleb128 0x2
 5100 10f2 76       		.byte	0x76
 5101 10f3 00       		.sleb128 0
 5102 10f4 21       		.uleb128 0x21
 5103 10f5 01       		.uleb128 0x1
 5104 10f6 52       		.byte	0x52
ARM GAS  C:\Users\gjl\AppData\Local\Temp\ccg70AS9.s 			page 120


 5105 10f7 01       		.uleb128 0x1
 5106 10f8 30       		.byte	0x30
 5107 10f9 00       		.byte	0
 5108 10fa 20       		.uleb128 0x20
 5109 10fb 2E010000 		.4byte	.LVL170
 5110 10ff DC0D0000 		.4byte	0xddc
 5111 1103 19110000 		.4byte	0x1119
 5112 1107 21       		.uleb128 0x21
 5113 1108 01       		.uleb128 0x1
 5114 1109 50       		.byte	0x50
 5115 110a 02       		.uleb128 0x2
 5116 110b 75       		.byte	0x75
 5117 110c 00       		.sleb128 0
 5118 110d 21       		.uleb128 0x21
 5119 110e 01       		.uleb128 0x1
 5120 110f 51       		.byte	0x51
 5121 1110 02       		.uleb128 0x2
 5122 1111 74       		.byte	0x74
 5123 1112 00       		.sleb128 0
 5124 1113 21       		.uleb128 0x21
 5125 1114 01       		.uleb128 0x1
 5126 1115 52       		.byte	0x52
 5127 1116 01       		.uleb128 0x1
 5128 1117 31       		.byte	0x31
 5129 1118 00       		.byte	0
 5130 1119 22       		.uleb128 0x22
 5131 111a 36010000 		.4byte	.LVL171
 5132 111e 870C0000 		.4byte	0xc87
 5133 1122 21       		.uleb128 0x21
 5134 1123 01       		.uleb128 0x1
 5135 1124 50       		.byte	0x50
 5136 1125 02       		.uleb128 0x2
 5137 1126 77       		.byte	0x77
 5138 1127 00       		.sleb128 0
 5139 1128 21       		.uleb128 0x21
 5140 1129 01       		.uleb128 0x1
 5141 112a 51       		.byte	0x51
 5142 112b 01       		.uleb128 0x1
 5143 112c 31       		.byte	0x31
 5144 112d 00       		.byte	0
 5145 112e 00       		.byte	0
 5146 112f 1A       		.uleb128 0x1a
 5147 1130 DB050000 		.4byte	.LASF166
 5148 1134 01       		.byte	0x1
 5149 1135 4D02     		.2byte	0x24d
 5150 1137 53030000 		.4byte	0x353
 5151 113b 00000000 		.4byte	.LFB16
 5152 113f 4C000000 		.4byte	.LFE16-.LFB16
 5153 1143 01       		.uleb128 0x1
 5154 1144 9C       		.byte	0x9c
 5155 1145 90110000 		.4byte	0x1190
 5156 1149 1B       		.uleb128 0x1b
 5157 114a F3040000 		.4byte	.LASF143
 5158 114e 01       		.byte	0x1
 5159 114f 4D02     		.2byte	0x24d
 5160 1151 2F050000 		.4byte	0x52f
 5161 1155 D10B0000 		.4byte	.LLST74
ARM GAS  C:\Users\gjl\AppData\Local\Temp\ccg70AS9.s 			page 121


 5162 1159 2D       		.uleb128 0x2d
 5163 115a C1050000 		.4byte	.LASF27
 5164 115e 01       		.byte	0x1
 5165 115f 4D02     		.2byte	0x24d
 5166 1161 AD000000 		.4byte	0xad
 5167 1165 01       		.uleb128 0x1
 5168 1166 51       		.byte	0x51
 5169 1167 29       		.uleb128 0x29
 5170 1168 330C0000 		.4byte	.LASF26
 5171 116c 01       		.byte	0x1
 5172 116d 4F02     		.2byte	0x24f
 5173 116f 53030000 		.4byte	0x353
 5174 1173 320C0000 		.4byte	.LLST75
 5175 1177 27       		.uleb128 0x27
 5176 1178 2A000000 		.4byte	.LBB57
 5177 117c 1E000000 		.4byte	.LBE57-.LBB57
 5178 1180 1C       		.uleb128 0x1c
 5179 1181 6500     		.ascii	"e\000"
 5180 1183 01       		.byte	0x1
 5181 1184 6C02     		.2byte	0x26c
 5182 1186 AD000000 		.4byte	0xad
 5183 118a 750C0000 		.4byte	.LLST76
 5184 118e 00       		.byte	0
 5185 118f 00       		.byte	0
 5186 1190 28       		.uleb128 0x28
 5187 1191 A00B0000 		.4byte	.LASF168
 5188 1195 01       		.byte	0x1
 5189 1196 1104     		.2byte	0x411
 5190 1198 00000000 		.4byte	.LFB41
 5191 119c 4C000000 		.4byte	.LFE41-.LFB41
 5192 11a0 01       		.uleb128 0x1
 5193 11a1 9C       		.byte	0x9c
 5194 11a2 62120000 		.4byte	0x1262
 5195 11a6 1B       		.uleb128 0x1b
 5196 11a7 F3040000 		.4byte	.LASF143
 5197 11ab 01       		.byte	0x1
 5198 11ac 1104     		.2byte	0x411
 5199 11ae 2F050000 		.4byte	0x52f
 5200 11b2 9F0C0000 		.4byte	.LLST77
 5201 11b6 1B       		.uleb128 0x1b
 5202 11b7 BB040000 		.4byte	.LASF169
 5203 11bb 01       		.byte	0x1
 5204 11bc 1104     		.2byte	0x411
 5205 11be AD000000 		.4byte	0xad
 5206 11c2 D90C0000 		.4byte	.LLST78
 5207 11c6 18       		.uleb128 0x18
 5208 11c7 7700     		.ascii	"w\000"
 5209 11c9 01       		.byte	0x1
 5210 11ca 1104     		.2byte	0x411
 5211 11cc 42030000 		.4byte	0x342
 5212 11d0 FA0C0000 		.4byte	.LLST79
 5213 11d4 18       		.uleb128 0x18
 5214 11d5 6F7800   		.ascii	"ox\000"
 5215 11d8 01       		.byte	0x1
 5216 11d9 1104     		.2byte	0x411
 5217 11db 62120000 		.4byte	0x1262
 5218 11df 260D0000 		.4byte	.LLST80
ARM GAS  C:\Users\gjl\AppData\Local\Temp\ccg70AS9.s 			page 122


 5219 11e3 19       		.uleb128 0x19
 5220 11e4 647800   		.ascii	"dx\000"
 5221 11e7 01       		.byte	0x1
 5222 11e8 1104     		.2byte	0x411
 5223 11ea 62120000 		.4byte	0x1262
 5224 11ee 02       		.uleb128 0x2
 5225 11ef 91       		.byte	0x91
 5226 11f0 00       		.sleb128 0
 5227 11f1 29       		.uleb128 0x29
 5228 11f2 F60C0000 		.4byte	.LASF158
 5229 11f6 01       		.byte	0x1
 5230 11f7 1304     		.2byte	0x413
 5231 11f9 53030000 		.4byte	0x353
 5232 11fd 520D0000 		.4byte	.LLST81
 5233 1201 20       		.uleb128 0x20
 5234 1202 0C000000 		.4byte	.LVL194
 5235 1206 2F110000 		.4byte	0x112f
 5236 120a 15120000 		.4byte	0x1215
 5237 120e 21       		.uleb128 0x21
 5238 120f 01       		.uleb128 0x1
 5239 1210 50       		.byte	0x50
 5240 1211 02       		.uleb128 0x2
 5241 1212 74       		.byte	0x74
 5242 1213 00       		.sleb128 0
 5243 1214 00       		.byte	0
 5244 1215 20       		.uleb128 0x20
 5245 1216 16000000 		.4byte	.LVL197
 5246 121a 050D0000 		.4byte	0xd05
 5247 121e 29120000 		.4byte	0x1229
 5248 1222 21       		.uleb128 0x21
 5249 1223 01       		.uleb128 0x1
 5250 1224 50       		.byte	0x50
 5251 1225 02       		.uleb128 0x2
 5252 1226 74       		.byte	0x74
 5253 1227 00       		.sleb128 0
 5254 1228 00       		.byte	0
 5255 1229 20       		.uleb128 0x20
 5256 122a 2E000000 		.4byte	.LVL199
 5257 122e 700D0000 		.4byte	0xd70
 5258 1232 3D120000 		.4byte	0x123d
 5259 1236 21       		.uleb128 0x21
 5260 1237 01       		.uleb128 0x1
 5261 1238 50       		.byte	0x50
 5262 1239 02       		.uleb128 0x2
 5263 123a 75       		.byte	0x75
 5264 123b 00       		.sleb128 0
 5265 123c 00       		.byte	0
 5266 123d 20       		.uleb128 0x20
 5267 123e 3E000000 		.4byte	.LVL201
 5268 1242 700D0000 		.4byte	0xd70
 5269 1246 51120000 		.4byte	0x1251
 5270 124a 21       		.uleb128 0x21
 5271 124b 01       		.uleb128 0x1
 5272 124c 50       		.byte	0x50
 5273 124d 02       		.uleb128 0x2
 5274 124e 75       		.byte	0x75
 5275 124f 00       		.sleb128 0
ARM GAS  C:\Users\gjl\AppData\Local\Temp\ccg70AS9.s 			page 123


 5276 1250 00       		.byte	0
 5277 1251 22       		.uleb128 0x22
 5278 1252 46000000 		.4byte	.LVL202
 5279 1256 700D0000 		.4byte	0xd70
 5280 125a 21       		.uleb128 0x21
 5281 125b 01       		.uleb128 0x1
 5282 125c 50       		.byte	0x50
 5283 125d 02       		.uleb128 0x2
 5284 125e 75       		.byte	0x75
 5285 125f 00       		.sleb128 0
 5286 1260 00       		.byte	0
 5287 1261 00       		.byte	0
 5288 1262 09       		.uleb128 0x9
 5289 1263 04       		.byte	0x4
 5290 1264 97000000 		.4byte	0x97
 5291 1268 1A       		.uleb128 0x1a
 5292 1269 79050000 		.4byte	.LASF170
 5293 126d 01       		.byte	0x1
 5294 126e 9402     		.2byte	0x294
 5295 1270 A2000000 		.4byte	0xa2
 5296 1274 00000000 		.4byte	.LFB18
 5297 1278 0E000000 		.4byte	.LFE18-.LFB18
 5298 127c 01       		.uleb128 0x1
 5299 127d 9C       		.byte	0x9c
 5300 127e B4120000 		.4byte	0x12b4
 5301 1282 1B       		.uleb128 0x1b
 5302 1283 F3040000 		.4byte	.LASF143
 5303 1287 01       		.byte	0x1
 5304 1288 9402     		.2byte	0x294
 5305 128a 2F050000 		.4byte	0x52f
 5306 128e 700D0000 		.4byte	.LLST82
 5307 1292 1B       		.uleb128 0x1b
 5308 1293 BB040000 		.4byte	.LASF169
 5309 1297 01       		.byte	0x1
 5310 1298 9402     		.2byte	0x294
 5311 129a AD000000 		.4byte	0xad
 5312 129e 910D0000 		.4byte	.LLST83
 5313 12a2 22       		.uleb128 0x22
 5314 12a3 06000000 		.4byte	.LVL206
 5315 12a7 2F110000 		.4byte	0x112f
 5316 12ab 21       		.uleb128 0x21
 5317 12ac 01       		.uleb128 0x1
 5318 12ad 50       		.byte	0x50
 5319 12ae 03       		.uleb128 0x3
 5320 12af F3       		.byte	0xf3
 5321 12b0 01       		.uleb128 0x1
 5322 12b1 50       		.byte	0x50
 5323 12b2 00       		.byte	0
 5324 12b3 00       		.byte	0
 5325 12b4 1A       		.uleb128 0x1a
 5326 12b5 47090000 		.4byte	.LASF171
 5327 12b9 01       		.byte	0x1
 5328 12ba 9D02     		.2byte	0x29d
 5329 12bc 97000000 		.4byte	0x97
 5330 12c0 00000000 		.4byte	.LFB19
 5331 12c4 3E000000 		.4byte	.LFE19-.LFB19
 5332 12c8 01       		.uleb128 0x1
ARM GAS  C:\Users\gjl\AppData\Local\Temp\ccg70AS9.s 			page 124


 5333 12c9 9C       		.byte	0x9c
 5334 12ca 5F130000 		.4byte	0x135f
 5335 12ce 1B       		.uleb128 0x1b
 5336 12cf F3040000 		.4byte	.LASF143
 5337 12d3 01       		.byte	0x1
 5338 12d4 9D02     		.2byte	0x29d
 5339 12d6 2F050000 		.4byte	0x52f
 5340 12da B20D0000 		.4byte	.LLST84
 5341 12de 1B       		.uleb128 0x1b
 5342 12df BB040000 		.4byte	.LASF169
 5343 12e3 01       		.byte	0x1
 5344 12e4 9D02     		.2byte	0x29d
 5345 12e6 AD000000 		.4byte	0xad
 5346 12ea EC0D0000 		.4byte	.LLST85
 5347 12ee 29       		.uleb128 0x29
 5348 12ef F60C0000 		.4byte	.LASF158
 5349 12f3 01       		.byte	0x1
 5350 12f4 9F02     		.2byte	0x29f
 5351 12f6 53030000 		.4byte	0x353
 5352 12fa 0D0E0000 		.4byte	.LLST86
 5353 12fe 20       		.uleb128 0x20
 5354 12ff 08000000 		.4byte	.LVL208
 5355 1303 2F110000 		.4byte	0x112f
 5356 1307 12130000 		.4byte	0x1312
 5357 130b 21       		.uleb128 0x21
 5358 130c 01       		.uleb128 0x1
 5359 130d 50       		.byte	0x50
 5360 130e 02       		.uleb128 0x2
 5361 130f 74       		.byte	0x74
 5362 1310 00       		.sleb128 0
 5363 1311 00       		.byte	0
 5364 1312 20       		.uleb128 0x20
 5365 1313 12000000 		.4byte	.LVL211
 5366 1317 050D0000 		.4byte	0xd05
 5367 131b 26130000 		.4byte	0x1326
 5368 131f 21       		.uleb128 0x21
 5369 1320 01       		.uleb128 0x1
 5370 1321 50       		.byte	0x50
 5371 1322 02       		.uleb128 0x2
 5372 1323 74       		.byte	0x74
 5373 1324 00       		.sleb128 0
 5374 1325 00       		.byte	0
 5375 1326 20       		.uleb128 0x20
 5376 1327 22000000 		.4byte	.LVL212
 5377 132b 700D0000 		.4byte	0xd70
 5378 132f 3A130000 		.4byte	0x133a
 5379 1333 21       		.uleb128 0x21
 5380 1334 01       		.uleb128 0x1
 5381 1335 50       		.byte	0x50
 5382 1336 02       		.uleb128 0x2
 5383 1337 75       		.byte	0x75
 5384 1338 00       		.sleb128 0
 5385 1339 00       		.byte	0
 5386 133a 20       		.uleb128 0x20
 5387 133b 34000000 		.4byte	.LVL214
 5388 133f 700D0000 		.4byte	0xd70
 5389 1343 4E130000 		.4byte	0x134e
ARM GAS  C:\Users\gjl\AppData\Local\Temp\ccg70AS9.s 			page 125


 5390 1347 21       		.uleb128 0x21
 5391 1348 01       		.uleb128 0x1
 5392 1349 50       		.byte	0x50
 5393 134a 02       		.uleb128 0x2
 5394 134b 75       		.byte	0x75
 5395 134c 00       		.sleb128 0
 5396 134d 00       		.byte	0
 5397 134e 22       		.uleb128 0x22
 5398 134f 3C000000 		.4byte	.LVL215
 5399 1353 700D0000 		.4byte	0xd70
 5400 1357 21       		.uleb128 0x21
 5401 1358 01       		.uleb128 0x1
 5402 1359 50       		.byte	0x50
 5403 135a 02       		.uleb128 0x2
 5404 135b 75       		.byte	0x75
 5405 135c 00       		.sleb128 0
 5406 135d 00       		.byte	0
 5407 135e 00       		.byte	0
 5408 135f 17       		.uleb128 0x17
 5409 1360 E6000000 		.4byte	.LASF172
 5410 1364 01       		.byte	0x1
 5411 1365 E903     		.2byte	0x3e9
 5412 1367 5E030000 		.4byte	0x35e
 5413 136b 00000000 		.4byte	.LFB40
 5414 136f 60000000 		.4byte	.LFE40-.LFB40
 5415 1373 01       		.uleb128 0x1
 5416 1374 9C       		.byte	0x9c
 5417 1375 F9130000 		.4byte	0x13f9
 5418 1379 1B       		.uleb128 0x1b
 5419 137a F3040000 		.4byte	.LASF143
 5420 137e 01       		.byte	0x1
 5421 137f E903     		.2byte	0x3e9
 5422 1381 2F050000 		.4byte	0x52f
 5423 1385 2B0E0000 		.4byte	.LLST87
 5424 1389 18       		.uleb128 0x18
 5425 138a 73747200 		.ascii	"str\000"
 5426 138e 01       		.byte	0x1
 5427 138f E903     		.2byte	0x3e9
 5428 1391 F9130000 		.4byte	0x13f9
 5429 1395 680E0000 		.4byte	.LLST88
 5430 1399 1C       		.uleb128 0x1c
 5431 139a 6500     		.ascii	"e\000"
 5432 139c 01       		.byte	0x1
 5433 139d EB03     		.2byte	0x3eb
 5434 139f AD000000 		.4byte	0xad
 5435 13a3 860E0000 		.4byte	.LLST89
 5436 13a7 1C       		.uleb128 0x1c
 5437 13a8 7700     		.ascii	"w\000"
 5438 13aa 01       		.byte	0x1
 5439 13ab EC03     		.2byte	0x3ec
 5440 13ad 5E030000 		.4byte	0x35e
 5441 13b1 A40E0000 		.4byte	.LLST90
 5442 13b5 1C       		.uleb128 0x1c
 5443 13b6 647800   		.ascii	"dx\000"
 5444 13b9 01       		.byte	0x1
 5445 13ba EC03     		.2byte	0x3ec
 5446 13bc 5E030000 		.4byte	0x35e
ARM GAS  C:\Users\gjl\AppData\Local\Temp\ccg70AS9.s 			page 126


 5447 13c0 F60E0000 		.4byte	.LLST91
 5448 13c4 20       		.uleb128 0x20
 5449 13c5 16000000 		.4byte	.LVL217
 5450 13c9 CE1E0000 		.4byte	0x1ece
 5451 13cd D8130000 		.4byte	0x13d8
 5452 13d1 21       		.uleb128 0x21
 5453 13d2 01       		.uleb128 0x1
 5454 13d3 50       		.byte	0x50
 5455 13d4 02       		.uleb128 0x2
 5456 13d5 75       		.byte	0x75
 5457 13d6 00       		.sleb128 0
 5458 13d7 00       		.byte	0
 5459 13d8 2E       		.uleb128 0x2e
 5460 13d9 1E000000 		.4byte	.LVL218
 5461 13dd E8130000 		.4byte	0x13e8
 5462 13e1 21       		.uleb128 0x21
 5463 13e2 01       		.uleb128 0x1
 5464 13e3 50       		.byte	0x50
 5465 13e4 02       		.uleb128 0x2
 5466 13e5 75       		.byte	0x75
 5467 13e6 00       		.sleb128 0
 5468 13e7 00       		.byte	0
 5469 13e8 22       		.uleb128 0x22
 5470 13e9 34000000 		.4byte	.LVL222
 5471 13ed B4120000 		.4byte	0x12b4
 5472 13f1 21       		.uleb128 0x21
 5473 13f2 01       		.uleb128 0x1
 5474 13f3 50       		.byte	0x50
 5475 13f4 02       		.uleb128 0x2
 5476 13f5 75       		.byte	0x75
 5477 13f6 00       		.sleb128 0
 5478 13f7 00       		.byte	0
 5479 13f8 00       		.byte	0
 5480 13f9 09       		.uleb128 0x9
 5481 13fa 04       		.byte	0x4
 5482 13fb 06140000 		.4byte	0x1406
 5483 13ff 03       		.uleb128 0x3
 5484 1400 01       		.byte	0x1
 5485 1401 08       		.byte	0x8
 5486 1402 070A0000 		.4byte	.LASF173
 5487 1406 0D       		.uleb128 0xd
 5488 1407 FF130000 		.4byte	0x13ff
 5489 140b 2A       		.uleb128 0x2a
 5490 140c CB030000 		.4byte	.LASF174
 5491 1410 01       		.byte	0x1
 5492 1411 B402     		.2byte	0x2b4
 5493 1413 00000000 		.4byte	.LFB20
 5494 1417 06000000 		.4byte	.LFE20-.LFB20
 5495 141b 01       		.uleb128 0x1
 5496 141c 9C       		.byte	0x9c
 5497 141d 40140000 		.4byte	0x1440
 5498 1421 1B       		.uleb128 0x1b
 5499 1422 F3040000 		.4byte	.LASF143
 5500 1426 01       		.byte	0x1
 5501 1427 B402     		.2byte	0x2b4
 5502 1429 2F050000 		.4byte	0x52f
 5503 142d 090F0000 		.4byte	.LLST92
ARM GAS  C:\Users\gjl\AppData\Local\Temp\ccg70AS9.s 			page 127


 5504 1431 2D       		.uleb128 0x2d
 5505 1432 10040000 		.4byte	.LASF126
 5506 1436 01       		.byte	0x1
 5507 1437 B402     		.2byte	0x2b4
 5508 1439 A2000000 		.4byte	0xa2
 5509 143d 01       		.uleb128 0x1
 5510 143e 51       		.byte	0x51
 5511 143f 00       		.byte	0
 5512 1440 2F       		.uleb128 0x2f
 5513 1441 95000000 		.4byte	.LASF176
 5514 1445 01       		.byte	0x1
 5515 1446 8302     		.2byte	0x283
 5516 1448 5E030000 		.4byte	0x35e
 5517 144c 01       		.byte	0x1
 5518 144d 95140000 		.4byte	0x1495
 5519 1451 30       		.uleb128 0x30
 5520 1452 F3040000 		.4byte	.LASF143
 5521 1456 01       		.byte	0x1
 5522 1457 8302     		.2byte	0x283
 5523 1459 2F050000 		.4byte	0x52f
 5524 145d 31       		.uleb128 0x31
 5525 145e 7800     		.ascii	"x\000"
 5526 1460 01       		.byte	0x1
 5527 1461 8302     		.2byte	0x283
 5528 1463 5E030000 		.4byte	0x35e
 5529 1467 31       		.uleb128 0x31
 5530 1468 7900     		.ascii	"y\000"
 5531 146a 01       		.byte	0x1
 5532 146b 8302     		.2byte	0x283
 5533 146d 5E030000 		.4byte	0x35e
 5534 1471 30       		.uleb128 0x30
 5535 1472 C1050000 		.4byte	.LASF27
 5536 1476 01       		.byte	0x1
 5537 1477 8302     		.2byte	0x283
 5538 1479 AD000000 		.4byte	0xad
 5539 147d 32       		.uleb128 0x32
 5540 147e 647800   		.ascii	"dx\000"
 5541 1481 01       		.byte	0x1
 5542 1482 8502     		.2byte	0x285
 5543 1484 5E030000 		.4byte	0x35e
 5544 1488 33       		.uleb128 0x33
 5545 1489 F60C0000 		.4byte	.LASF158
 5546 148d 01       		.byte	0x1
 5547 148e 8A02     		.2byte	0x28a
 5548 1490 53030000 		.4byte	0x353
 5549 1494 00       		.byte	0
 5550 1495 1A       		.uleb128 0x1a
 5551 1496 BE010000 		.4byte	.LASF177
 5552 149a 01       		.byte	0x1
 5553 149b B902     		.2byte	0x2b9
 5554 149d 5E030000 		.4byte	0x35e
 5555 14a1 00000000 		.4byte	.LFB21
 5556 14a5 5E000000 		.4byte	.LFE21-.LFB21
 5557 14a9 01       		.uleb128 0x1
 5558 14aa 9C       		.byte	0x9c
 5559 14ab A7150000 		.4byte	0x15a7
 5560 14af 1B       		.uleb128 0x1b
ARM GAS  C:\Users\gjl\AppData\Local\Temp\ccg70AS9.s 			page 128


 5561 14b0 F3040000 		.4byte	.LASF143
 5562 14b4 01       		.byte	0x1
 5563 14b5 B902     		.2byte	0x2b9
 5564 14b7 2F050000 		.4byte	0x52f
 5565 14bb 2A0F0000 		.4byte	.LLST93
 5566 14bf 18       		.uleb128 0x18
 5567 14c0 7800     		.ascii	"x\000"
 5568 14c2 01       		.byte	0x1
 5569 14c3 B902     		.2byte	0x2b9
 5570 14c5 5E030000 		.4byte	0x35e
 5571 14c9 560F0000 		.4byte	.LLST94
 5572 14cd 18       		.uleb128 0x18
 5573 14ce 7900     		.ascii	"y\000"
 5574 14d0 01       		.byte	0x1
 5575 14d1 B902     		.2byte	0x2b9
 5576 14d3 5E030000 		.4byte	0x35e
 5577 14d7 CD0F0000 		.4byte	.LLST95
 5578 14db 1B       		.uleb128 0x1b
 5579 14dc C1050000 		.4byte	.LASF27
 5580 14e0 01       		.byte	0x1
 5581 14e1 B902     		.2byte	0x2b9
 5582 14e3 AD000000 		.4byte	0xad
 5583 14e7 4F100000 		.4byte	.LLST96
 5584 14eb 34       		.uleb128 0x34
 5585 14ec 40140000 		.4byte	0x1440
 5586 14f0 40000000 		.4byte	.LBB60
 5587 14f4 1C000000 		.4byte	.LBE60-.LBB60
 5588 14f8 01       		.byte	0x1
 5589 14f9 CE02     		.2byte	0x2ce
 5590 14fb 6A150000 		.4byte	0x156a
 5591 14ff 1F       		.uleb128 0x1f
 5592 1500 71140000 		.4byte	0x1471
 5593 1504 70100000 		.4byte	.LLST97
 5594 1508 1F       		.uleb128 0x1f
 5595 1509 67140000 		.4byte	0x1467
 5596 150d 83100000 		.4byte	.LLST98
 5597 1511 1F       		.uleb128 0x1f
 5598 1512 5D140000 		.4byte	0x145d
 5599 1516 96100000 		.4byte	.LLST99
 5600 151a 1F       		.uleb128 0x1f
 5601 151b 51140000 		.4byte	0x1451
 5602 151f A9100000 		.4byte	.LLST100
 5603 1523 27       		.uleb128 0x27
 5604 1524 40000000 		.4byte	.LBB61
 5605 1528 1C000000 		.4byte	.LBE61-.LBB61
 5606 152c 35       		.uleb128 0x35
 5607 152d 7D140000 		.4byte	0x147d
 5608 1531 BC100000 		.4byte	.LLST101
 5609 1535 35       		.uleb128 0x35
 5610 1536 88140000 		.4byte	0x1488
 5611 153a D0100000 		.4byte	.LLST102
 5612 153e 20       		.uleb128 0x20
 5613 153f 50000000 		.4byte	.LVL250
 5614 1543 2F110000 		.4byte	0x112f
 5615 1547 58150000 		.4byte	0x1558
 5616 154b 21       		.uleb128 0x21
 5617 154c 01       		.uleb128 0x1
ARM GAS  C:\Users\gjl\AppData\Local\Temp\ccg70AS9.s 			page 129


 5618 154d 50       		.byte	0x50
 5619 154e 02       		.uleb128 0x2
 5620 154f 74       		.byte	0x74
 5621 1550 00       		.sleb128 0
 5622 1551 21       		.uleb128 0x21
 5623 1552 01       		.uleb128 0x1
 5624 1553 51       		.byte	0x51
 5625 1554 02       		.uleb128 0x2
 5626 1555 77       		.byte	0x77
 5627 1556 00       		.sleb128 0
 5628 1557 00       		.byte	0
 5629 1558 22       		.uleb128 0x22
 5630 1559 5A000000 		.4byte	.LVL253
 5631 155d 190F0000 		.4byte	0xf19
 5632 1561 21       		.uleb128 0x21
 5633 1562 01       		.uleb128 0x1
 5634 1563 50       		.byte	0x50
 5635 1564 02       		.uleb128 0x2
 5636 1565 74       		.byte	0x74
 5637 1566 00       		.sleb128 0
 5638 1567 00       		.byte	0
 5639 1568 00       		.byte	0
 5640 1569 00       		.byte	0
 5641 156a 2E       		.uleb128 0x2e
 5642 156b 22000000 		.4byte	.LVL241
 5643 156f 7A150000 		.4byte	0x157a
 5644 1573 21       		.uleb128 0x21
 5645 1574 01       		.uleb128 0x1
 5646 1575 50       		.byte	0x50
 5647 1576 02       		.uleb128 0x2
 5648 1577 74       		.byte	0x74
 5649 1578 00       		.sleb128 0
 5650 1579 00       		.byte	0
 5651 157a 2E       		.uleb128 0x2e
 5652 157b 2A000000 		.4byte	.LVL243
 5653 157f 8A150000 		.4byte	0x158a
 5654 1583 21       		.uleb128 0x21
 5655 1584 01       		.uleb128 0x1
 5656 1585 50       		.byte	0x50
 5657 1586 02       		.uleb128 0x2
 5658 1587 74       		.byte	0x74
 5659 1588 00       		.sleb128 0
 5660 1589 00       		.byte	0
 5661 158a 2E       		.uleb128 0x2e
 5662 158b 32000000 		.4byte	.LVL245
 5663 158f 9A150000 		.4byte	0x159a
 5664 1593 21       		.uleb128 0x21
 5665 1594 01       		.uleb128 0x1
 5666 1595 50       		.byte	0x50
 5667 1596 02       		.uleb128 0x2
 5668 1597 74       		.byte	0x74
 5669 1598 00       		.sleb128 0
 5670 1599 00       		.byte	0
 5671 159a 36       		.uleb128 0x36
 5672 159b 3C000000 		.4byte	.LVL248
 5673 159f 21       		.uleb128 0x21
 5674 15a0 01       		.uleb128 0x1
ARM GAS  C:\Users\gjl\AppData\Local\Temp\ccg70AS9.s 			page 130


 5675 15a1 50       		.byte	0x50
 5676 15a2 02       		.uleb128 0x2
 5677 15a3 74       		.byte	0x74
 5678 15a4 00       		.sleb128 0
 5679 15a5 00       		.byte	0
 5680 15a6 00       		.byte	0
 5681 15a7 17       		.uleb128 0x17
 5682 15a8 290D0000 		.4byte	.LASF178
 5683 15ac 01       		.byte	0x1
 5684 15ad D202     		.2byte	0x2d2
 5685 15af 5E030000 		.4byte	0x35e
 5686 15b3 00000000 		.4byte	.LFB22
 5687 15b7 70000000 		.4byte	.LFE22-.LFB22
 5688 15bb 01       		.uleb128 0x1
 5689 15bc 9C       		.byte	0x9c
 5690 15bd 6C160000 		.4byte	0x166c
 5691 15c1 1B       		.uleb128 0x1b
 5692 15c2 F3040000 		.4byte	.LASF143
 5693 15c6 01       		.byte	0x1
 5694 15c7 D202     		.2byte	0x2d2
 5695 15c9 2F050000 		.4byte	0x52f
 5696 15cd EE100000 		.4byte	.LLST103
 5697 15d1 18       		.uleb128 0x18
 5698 15d2 7800     		.ascii	"x\000"
 5699 15d4 01       		.byte	0x1
 5700 15d5 D202     		.2byte	0x2d2
 5701 15d7 5E030000 		.4byte	0x35e
 5702 15db 1A110000 		.4byte	.LLST104
 5703 15df 18       		.uleb128 0x18
 5704 15e0 7900     		.ascii	"y\000"
 5705 15e2 01       		.byte	0x1
 5706 15e3 D202     		.2byte	0x2d2
 5707 15e5 5E030000 		.4byte	0x35e
 5708 15e9 5C110000 		.4byte	.LLST105
 5709 15ed 18       		.uleb128 0x18
 5710 15ee 73747200 		.ascii	"str\000"
 5711 15f2 01       		.byte	0x1
 5712 15f3 D202     		.2byte	0x2d2
 5713 15f5 F9130000 		.4byte	0x13f9
 5714 15f9 9E110000 		.4byte	.LLST106
 5715 15fd 1C       		.uleb128 0x1c
 5716 15fe 6500     		.ascii	"e\000"
 5717 1600 01       		.byte	0x1
 5718 1601 D402     		.2byte	0x2d4
 5719 1603 AD000000 		.4byte	0xad
 5720 1607 BC110000 		.4byte	.LLST107
 5721 160b 29       		.uleb128 0x29
 5722 160c 09010000 		.4byte	.LASF179
 5723 1610 01       		.byte	0x1
 5724 1611 D502     		.2byte	0x2d5
 5725 1613 5E030000 		.4byte	0x35e
 5726 1617 DA110000 		.4byte	.LLST108
 5727 161b 1C       		.uleb128 0x1c
 5728 161c 73756D00 		.ascii	"sum\000"
 5729 1620 01       		.byte	0x1
 5730 1621 D502     		.2byte	0x2d5
 5731 1623 5E030000 		.4byte	0x35e
ARM GAS  C:\Users\gjl\AppData\Local\Temp\ccg70AS9.s 			page 131


 5732 1627 ED110000 		.4byte	.LLST109
 5733 162b 20       		.uleb128 0x20
 5734 162c 0E000000 		.4byte	.LVL259
 5735 1630 CE1E0000 		.4byte	0x1ece
 5736 1634 3F160000 		.4byte	0x163f
 5737 1638 21       		.uleb128 0x21
 5738 1639 01       		.uleb128 0x1
 5739 163a 50       		.byte	0x50
 5740 163b 02       		.uleb128 0x2
 5741 163c 76       		.byte	0x76
 5742 163d 00       		.sleb128 0
 5743 163e 00       		.byte	0
 5744 163f 2E       		.uleb128 0x2e
 5745 1640 1A000000 		.4byte	.LVL262
 5746 1644 4F160000 		.4byte	0x164f
 5747 1648 21       		.uleb128 0x21
 5748 1649 01       		.uleb128 0x1
 5749 164a 50       		.byte	0x50
 5750 164b 02       		.uleb128 0x2
 5751 164c 76       		.byte	0x76
 5752 164d 00       		.sleb128 0
 5753 164e 00       		.byte	0
 5754 164f 22       		.uleb128 0x22
 5755 1650 34000000 		.4byte	.LVL266
 5756 1654 95140000 		.4byte	0x1495
 5757 1658 21       		.uleb128 0x21
 5758 1659 01       		.uleb128 0x1
 5759 165a 50       		.byte	0x50
 5760 165b 02       		.uleb128 0x2
 5761 165c 76       		.byte	0x76
 5762 165d 00       		.sleb128 0
 5763 165e 21       		.uleb128 0x21
 5764 165f 01       		.uleb128 0x1
 5765 1660 51       		.byte	0x51
 5766 1661 02       		.uleb128 0x2
 5767 1662 74       		.byte	0x74
 5768 1663 00       		.sleb128 0
 5769 1664 21       		.uleb128 0x21
 5770 1665 01       		.uleb128 0x1
 5771 1666 52       		.byte	0x52
 5772 1667 02       		.uleb128 0x2
 5773 1668 75       		.byte	0x75
 5774 1669 00       		.sleb128 0
 5775 166a 00       		.byte	0
 5776 166b 00       		.byte	0
 5777 166c 1A       		.uleb128 0x1a
 5778 166d 76000000 		.4byte	.LASF180
 5779 1671 01       		.byte	0x1
 5780 1672 FC02     		.2byte	0x2fc
 5781 1674 5E030000 		.4byte	0x35e
 5782 1678 00000000 		.4byte	.LFB23
 5783 167c 10000000 		.4byte	.LFE23-.LFB23
 5784 1680 01       		.uleb128 0x1
 5785 1681 9C       		.byte	0x9c
 5786 1682 DB160000 		.4byte	0x16db
 5787 1686 1B       		.uleb128 0x1b
 5788 1687 F3040000 		.4byte	.LASF143
ARM GAS  C:\Users\gjl\AppData\Local\Temp\ccg70AS9.s 			page 132


 5789 168b 01       		.byte	0x1
 5790 168c FC02     		.2byte	0x2fc
 5791 168e 2F050000 		.4byte	0x52f
 5792 1692 0D120000 		.4byte	.LLST110
 5793 1696 18       		.uleb128 0x18
 5794 1697 7800     		.ascii	"x\000"
 5795 1699 01       		.byte	0x1
 5796 169a FC02     		.2byte	0x2fc
 5797 169c 5E030000 		.4byte	0x35e
 5798 16a0 2E120000 		.4byte	.LLST111
 5799 16a4 18       		.uleb128 0x18
 5800 16a5 7900     		.ascii	"y\000"
 5801 16a7 01       		.byte	0x1
 5802 16a8 FC02     		.2byte	0x2fc
 5803 16aa 5E030000 		.4byte	0x35e
 5804 16ae 4F120000 		.4byte	.LLST112
 5805 16b2 18       		.uleb128 0x18
 5806 16b3 73747200 		.ascii	"str\000"
 5807 16b7 01       		.byte	0x1
 5808 16b8 FC02     		.2byte	0x2fc
 5809 16ba F9130000 		.4byte	0x13f9
 5810 16be 70120000 		.4byte	.LLST113
 5811 16c2 22       		.uleb128 0x22
 5812 16c3 0A000000 		.4byte	.LVL284
 5813 16c7 A7150000 		.4byte	0x15a7
 5814 16cb 21       		.uleb128 0x21
 5815 16cc 01       		.uleb128 0x1
 5816 16cd 50       		.byte	0x50
 5817 16ce 03       		.uleb128 0x3
 5818 16cf F3       		.byte	0xf3
 5819 16d0 01       		.uleb128 0x1
 5820 16d1 50       		.byte	0x50
 5821 16d2 21       		.uleb128 0x21
 5822 16d3 01       		.uleb128 0x1
 5823 16d4 53       		.byte	0x53
 5824 16d5 03       		.uleb128 0x3
 5825 16d6 F3       		.byte	0xf3
 5826 16d7 01       		.uleb128 0x1
 5827 16d8 53       		.byte	0x53
 5828 16d9 00       		.byte	0
 5829 16da 00       		.byte	0
 5830 16db 1A       		.uleb128 0x1a
 5831 16dc A2050000 		.4byte	.LASF181
 5832 16e0 01       		.byte	0x1
 5833 16e1 0C03     		.2byte	0x30c
 5834 16e3 5E030000 		.4byte	0x35e
 5835 16e7 00000000 		.4byte	.LFB24
 5836 16eb 10000000 		.4byte	.LFE24-.LFB24
 5837 16ef 01       		.uleb128 0x1
 5838 16f0 9C       		.byte	0x9c
 5839 16f1 4A170000 		.4byte	0x174a
 5840 16f5 1B       		.uleb128 0x1b
 5841 16f6 F3040000 		.4byte	.LASF143
 5842 16fa 01       		.byte	0x1
 5843 16fb 0C03     		.2byte	0x30c
 5844 16fd 2F050000 		.4byte	0x52f
 5845 1701 91120000 		.4byte	.LLST114
ARM GAS  C:\Users\gjl\AppData\Local\Temp\ccg70AS9.s 			page 133


 5846 1705 18       		.uleb128 0x18
 5847 1706 7800     		.ascii	"x\000"
 5848 1708 01       		.byte	0x1
 5849 1709 0C03     		.2byte	0x30c
 5850 170b 5E030000 		.4byte	0x35e
 5851 170f B2120000 		.4byte	.LLST115
 5852 1713 18       		.uleb128 0x18
 5853 1714 7900     		.ascii	"y\000"
 5854 1716 01       		.byte	0x1
 5855 1717 0C03     		.2byte	0x30c
 5856 1719 5E030000 		.4byte	0x35e
 5857 171d D3120000 		.4byte	.LLST116
 5858 1721 18       		.uleb128 0x18
 5859 1722 73747200 		.ascii	"str\000"
 5860 1726 01       		.byte	0x1
 5861 1727 0C03     		.2byte	0x30c
 5862 1729 F9130000 		.4byte	0x13f9
 5863 172d F4120000 		.4byte	.LLST117
 5864 1731 22       		.uleb128 0x22
 5865 1732 0A000000 		.4byte	.LVL286
 5866 1736 A7150000 		.4byte	0x15a7
 5867 173a 21       		.uleb128 0x21
 5868 173b 01       		.uleb128 0x1
 5869 173c 50       		.byte	0x50
 5870 173d 03       		.uleb128 0x3
 5871 173e F3       		.byte	0xf3
 5872 173f 01       		.uleb128 0x1
 5873 1740 50       		.byte	0x50
 5874 1741 21       		.uleb128 0x21
 5875 1742 01       		.uleb128 0x1
 5876 1743 53       		.byte	0x53
 5877 1744 03       		.uleb128 0x3
 5878 1745 F3       		.byte	0xf3
 5879 1746 01       		.uleb128 0x1
 5880 1747 53       		.byte	0x53
 5881 1748 00       		.byte	0
 5882 1749 00       		.byte	0
 5883 174a 1A       		.uleb128 0x1a
 5884 174b 3A070000 		.4byte	.LASF182
 5885 174f 01       		.byte	0x1
 5886 1750 1403     		.2byte	0x314
 5887 1752 5E030000 		.4byte	0x35e
 5888 1756 00000000 		.4byte	.LFB25
 5889 175a B0000000 		.4byte	.LFE25-.LFB25
 5890 175e 01       		.uleb128 0x1
 5891 175f 9C       		.byte	0x9c
 5892 1760 BE180000 		.4byte	0x18be
 5893 1764 1B       		.uleb128 0x1b
 5894 1765 F3040000 		.4byte	.LASF143
 5895 1769 01       		.byte	0x1
 5896 176a 1403     		.2byte	0x314
 5897 176c 2F050000 		.4byte	0x52f
 5898 1770 15130000 		.4byte	.LLST118
 5899 1774 18       		.uleb128 0x18
 5900 1775 7800     		.ascii	"x\000"
 5901 1777 01       		.byte	0x1
 5902 1778 1403     		.2byte	0x314
ARM GAS  C:\Users\gjl\AppData\Local\Temp\ccg70AS9.s 			page 134


 5903 177a 5E030000 		.4byte	0x35e
 5904 177e 41130000 		.4byte	.LLST119
 5905 1782 18       		.uleb128 0x18
 5906 1783 7900     		.ascii	"y\000"
 5907 1785 01       		.byte	0x1
 5908 1786 1403     		.2byte	0x314
 5909 1788 5E030000 		.4byte	0x35e
 5910 178c A2130000 		.4byte	.LLST120
 5911 1790 1B       		.uleb128 0x1b
 5912 1791 1A0D0000 		.4byte	.LASF183
 5913 1795 01       		.byte	0x1
 5914 1796 1403     		.2byte	0x314
 5915 1798 A2000000 		.4byte	0xa2
 5916 179c C3130000 		.4byte	.LLST121
 5917 17a0 2D       		.uleb128 0x2d
 5918 17a1 BD000000 		.4byte	.LASF184
 5919 17a5 01       		.byte	0x1
 5920 17a6 1403     		.2byte	0x314
 5921 17a8 BE180000 		.4byte	0x18be
 5922 17ac 02       		.uleb128 0x2
 5923 17ad 91       		.byte	0x91
 5924 17ae 00       		.sleb128 0
 5925 17af 18       		.uleb128 0x18
 5926 17b0 73747200 		.ascii	"str\000"
 5927 17b4 01       		.byte	0x1
 5928 17b5 1403     		.2byte	0x314
 5929 17b7 F9130000 		.4byte	0x13f9
 5930 17bb E4130000 		.4byte	.LLST122
 5931 17bf 29       		.uleb128 0x29
 5932 17c0 80040000 		.4byte	.LASF185
 5933 17c4 01       		.byte	0x1
 5934 17c5 1703     		.2byte	0x317
 5935 17c7 AD000000 		.4byte	0xad
 5936 17cb 0F140000 		.4byte	.LLST123
 5937 17cf 1C       		.uleb128 0x1c
 5938 17d0 6500     		.ascii	"e\000"
 5939 17d2 01       		.byte	0x1
 5940 17d3 1803     		.2byte	0x318
 5941 17d5 AD000000 		.4byte	0xad
 5942 17d9 50140000 		.4byte	.LLST124
 5943 17dd 29       		.uleb128 0x29
 5944 17de 09010000 		.4byte	.LASF179
 5945 17e2 01       		.byte	0x1
 5946 17e3 1903     		.2byte	0x319
 5947 17e5 5E030000 		.4byte	0x35e
 5948 17e9 6E140000 		.4byte	.LLST125
 5949 17ed 1C       		.uleb128 0x1c
 5950 17ee 73756D00 		.ascii	"sum\000"
 5951 17f2 01       		.byte	0x1
 5952 17f3 1903     		.2byte	0x319
 5953 17f5 5E030000 		.4byte	0x35e
 5954 17f9 97140000 		.4byte	.LLST126
 5955 17fd 1C       		.uleb128 0x1c
 5956 17fe 6B00     		.ascii	"k\000"
 5957 1800 01       		.byte	0x1
 5958 1801 1903     		.2byte	0x319
 5959 1803 5E030000 		.4byte	0x35e
ARM GAS  C:\Users\gjl\AppData\Local\Temp\ccg70AS9.s 			page 135


 5960 1807 B7140000 		.4byte	.LLST127
 5961 180b 20       		.uleb128 0x20
 5962 180c 14000000 		.4byte	.LVL290
 5963 1810 CE1E0000 		.4byte	0x1ece
 5964 1814 1F180000 		.4byte	0x181f
 5965 1818 21       		.uleb128 0x21
 5966 1819 01       		.uleb128 0x1
 5967 181a 50       		.byte	0x50
 5968 181b 02       		.uleb128 0x2
 5969 181c 75       		.byte	0x75
 5970 181d 00       		.sleb128 0
 5971 181e 00       		.byte	0
 5972 181f 2E       		.uleb128 0x2e
 5973 1820 24000000 		.4byte	.LVL292
 5974 1824 2F180000 		.4byte	0x182f
 5975 1828 21       		.uleb128 0x21
 5976 1829 01       		.uleb128 0x1
 5977 182a 50       		.byte	0x50
 5978 182b 02       		.uleb128 0x2
 5979 182c 75       		.byte	0x75
 5980 182d 00       		.sleb128 0
 5981 182e 00       		.byte	0
 5982 182f 20       		.uleb128 0x20
 5983 1830 40000000 		.4byte	.LVL297
 5984 1834 B4120000 		.4byte	0x12b4
 5985 1838 49180000 		.4byte	0x1849
 5986 183c 21       		.uleb128 0x21
 5987 183d 01       		.uleb128 0x1
 5988 183e 50       		.byte	0x50
 5989 183f 02       		.uleb128 0x2
 5990 1840 75       		.byte	0x75
 5991 1841 00       		.sleb128 0
 5992 1842 21       		.uleb128 0x21
 5993 1843 01       		.uleb128 0x1
 5994 1844 51       		.byte	0x51
 5995 1845 02       		.uleb128 0x2
 5996 1846 77       		.byte	0x77
 5997 1847 00       		.sleb128 0
 5998 1848 00       		.byte	0
 5999 1849 20       		.uleb128 0x20
 6000 184a 54000000 		.4byte	.LVL299
 6001 184e DA1E0000 		.4byte	0x1eda
 6002 1852 70180000 		.4byte	0x1870
 6003 1856 21       		.uleb128 0x21
 6004 1857 01       		.uleb128 0x1
 6005 1858 50       		.byte	0x50
 6006 1859 02       		.uleb128 0x2
 6007 185a 75       		.byte	0x75
 6008 185b 00       		.sleb128 0
 6009 185c 21       		.uleb128 0x21
 6010 185d 01       		.uleb128 0x1
 6011 185e 51       		.byte	0x51
 6012 185f 03       		.uleb128 0x3
 6013 1860 91       		.byte	0x91
 6014 1861 00       		.sleb128 0
 6015 1862 06       		.byte	0x6
 6016 1863 21       		.uleb128 0x21
ARM GAS  C:\Users\gjl\AppData\Local\Temp\ccg70AS9.s 			page 136


 6017 1864 01       		.uleb128 0x1
 6018 1865 52       		.byte	0x52
 6019 1866 02       		.uleb128 0x2
 6020 1867 77       		.byte	0x77
 6021 1868 00       		.sleb128 0
 6022 1869 21       		.uleb128 0x21
 6023 186a 01       		.uleb128 0x1
 6024 186b 53       		.byte	0x53
 6025 186c 02       		.uleb128 0x2
 6026 186d 76       		.byte	0x76
 6027 186e 00       		.sleb128 0
 6028 186f 00       		.byte	0
 6029 1870 20       		.uleb128 0x20
 6030 1871 70000000 		.4byte	.LVL304
 6031 1875 DA1E0000 		.4byte	0x1eda
 6032 1879 97180000 		.4byte	0x1897
 6033 187d 21       		.uleb128 0x21
 6034 187e 01       		.uleb128 0x1
 6035 187f 50       		.byte	0x50
 6036 1880 02       		.uleb128 0x2
 6037 1881 75       		.byte	0x75
 6038 1882 00       		.sleb128 0
 6039 1883 21       		.uleb128 0x21
 6040 1884 01       		.uleb128 0x1
 6041 1885 51       		.byte	0x51
 6042 1886 03       		.uleb128 0x3
 6043 1887 91       		.byte	0x91
 6044 1888 00       		.sleb128 0
 6045 1889 06       		.byte	0x6
 6046 188a 21       		.uleb128 0x21
 6047 188b 01       		.uleb128 0x1
 6048 188c 52       		.byte	0x52
 6049 188d 02       		.uleb128 0x2
 6050 188e 76       		.byte	0x76
 6051 188f 00       		.sleb128 0
 6052 1890 21       		.uleb128 0x21
 6053 1891 01       		.uleb128 0x1
 6054 1892 53       		.byte	0x53
 6055 1893 02       		.uleb128 0x2
 6056 1894 77       		.byte	0x77
 6057 1895 00       		.sleb128 0
 6058 1896 00       		.byte	0
 6059 1897 22       		.uleb128 0x22
 6060 1898 82000000 		.4byte	.LVL308
 6061 189c 95140000 		.4byte	0x1495
 6062 18a0 21       		.uleb128 0x21
 6063 18a1 01       		.uleb128 0x1
 6064 18a2 50       		.byte	0x50
 6065 18a3 02       		.uleb128 0x2
 6066 18a4 75       		.byte	0x75
 6067 18a5 00       		.sleb128 0
 6068 18a6 21       		.uleb128 0x21
 6069 18a7 01       		.uleb128 0x1
 6070 18a8 51       		.byte	0x51
 6071 18a9 04       		.uleb128 0x4
 6072 18aa 7D       		.byte	0x7d
 6073 18ab 00       		.sleb128 0
ARM GAS  C:\Users\gjl\AppData\Local\Temp\ccg70AS9.s 			page 137


 6074 18ac 94       		.byte	0x94
 6075 18ad 01       		.byte	0x1
 6076 18ae 21       		.uleb128 0x21
 6077 18af 01       		.uleb128 0x1
 6078 18b0 52       		.byte	0x52
 6079 18b1 04       		.uleb128 0x4
 6080 18b2 91       		.byte	0x91
 6081 18b3 64       		.sleb128 -28
 6082 18b4 94       		.byte	0x94
 6083 18b5 01       		.byte	0x1
 6084 18b6 21       		.uleb128 0x21
 6085 18b7 01       		.uleb128 0x1
 6086 18b8 53       		.byte	0x53
 6087 18b9 02       		.uleb128 0x2
 6088 18ba 77       		.byte	0x77
 6089 18bb 00       		.sleb128 0
 6090 18bc 00       		.byte	0
 6091 18bd 00       		.byte	0
 6092 18be 09       		.uleb128 0x9
 6093 18bf 04       		.byte	0x4
 6094 18c0 86070000 		.4byte	0x786
 6095 18c4 1A       		.uleb128 0x1a
 6096 18c5 F8000000 		.4byte	.LASF186
 6097 18c9 01       		.byte	0x1
 6098 18ca 4303     		.2byte	0x343
 6099 18cc 5E030000 		.4byte	0x35e
 6100 18d0 00000000 		.4byte	.LFB26
 6101 18d4 B0000000 		.4byte	.LFE26-.LFB26
 6102 18d8 01       		.uleb128 0x1
 6103 18d9 9C       		.byte	0x9c
 6104 18da 381A0000 		.4byte	0x1a38
 6105 18de 1B       		.uleb128 0x1b
 6106 18df F3040000 		.4byte	.LASF143
 6107 18e3 01       		.byte	0x1
 6108 18e4 4303     		.2byte	0x343
 6109 18e6 2F050000 		.4byte	0x52f
 6110 18ea E0140000 		.4byte	.LLST128
 6111 18ee 18       		.uleb128 0x18
 6112 18ef 7800     		.ascii	"x\000"
 6113 18f1 01       		.byte	0x1
 6114 18f2 4303     		.2byte	0x343
 6115 18f4 5E030000 		.4byte	0x35e
 6116 18f8 0C150000 		.4byte	.LLST129
 6117 18fc 18       		.uleb128 0x18
 6118 18fd 7900     		.ascii	"y\000"
 6119 18ff 01       		.byte	0x1
 6120 1900 4303     		.2byte	0x343
 6121 1902 5E030000 		.4byte	0x35e
 6122 1906 6D150000 		.4byte	.LLST130
 6123 190a 1B       		.uleb128 0x1b
 6124 190b 1A0D0000 		.4byte	.LASF183
 6125 190f 01       		.byte	0x1
 6126 1910 4303     		.2byte	0x343
 6127 1912 A2000000 		.4byte	0xa2
 6128 1916 8E150000 		.4byte	.LLST131
 6129 191a 2D       		.uleb128 0x2d
 6130 191b E10A0000 		.4byte	.LASF187
ARM GAS  C:\Users\gjl\AppData\Local\Temp\ccg70AS9.s 			page 138


 6131 191f 01       		.byte	0x1
 6132 1920 4303     		.2byte	0x343
 6133 1922 7B070000 		.4byte	0x77b
 6134 1926 02       		.uleb128 0x2
 6135 1927 91       		.byte	0x91
 6136 1928 00       		.sleb128 0
 6137 1929 18       		.uleb128 0x18
 6138 192a 73747200 		.ascii	"str\000"
 6139 192e 01       		.byte	0x1
 6140 192f 4303     		.2byte	0x343
 6141 1931 F9130000 		.4byte	0x13f9
 6142 1935 AF150000 		.4byte	.LLST132
 6143 1939 29       		.uleb128 0x29
 6144 193a 80040000 		.4byte	.LASF185
 6145 193e 01       		.byte	0x1
 6146 193f 4603     		.2byte	0x346
 6147 1941 AD000000 		.4byte	0xad
 6148 1945 DA150000 		.4byte	.LLST133
 6149 1949 1C       		.uleb128 0x1c
 6150 194a 6500     		.ascii	"e\000"
 6151 194c 01       		.byte	0x1
 6152 194d 4703     		.2byte	0x347
 6153 194f AD000000 		.4byte	0xad
 6154 1953 1B160000 		.4byte	.LLST134
 6155 1957 29       		.uleb128 0x29
 6156 1958 09010000 		.4byte	.LASF179
 6157 195c 01       		.byte	0x1
 6158 195d 4803     		.2byte	0x348
 6159 195f 5E030000 		.4byte	0x35e
 6160 1963 39160000 		.4byte	.LLST135
 6161 1967 1C       		.uleb128 0x1c
 6162 1968 73756D00 		.ascii	"sum\000"
 6163 196c 01       		.byte	0x1
 6164 196d 4803     		.2byte	0x348
 6165 196f 5E030000 		.4byte	0x35e
 6166 1973 62160000 		.4byte	.LLST136
 6167 1977 1C       		.uleb128 0x1c
 6168 1978 6B00     		.ascii	"k\000"
 6169 197a 01       		.byte	0x1
 6170 197b 4803     		.2byte	0x348
 6171 197d 5E030000 		.4byte	0x35e
 6172 1981 82160000 		.4byte	.LLST137
 6173 1985 20       		.uleb128 0x20
 6174 1986 14000000 		.4byte	.LVL323
 6175 198a CE1E0000 		.4byte	0x1ece
 6176 198e 99190000 		.4byte	0x1999
 6177 1992 21       		.uleb128 0x21
 6178 1993 01       		.uleb128 0x1
 6179 1994 50       		.byte	0x50
 6180 1995 02       		.uleb128 0x2
 6181 1996 75       		.byte	0x75
 6182 1997 00       		.sleb128 0
 6183 1998 00       		.byte	0
 6184 1999 2E       		.uleb128 0x2e
 6185 199a 24000000 		.4byte	.LVL325
 6186 199e A9190000 		.4byte	0x19a9
 6187 19a2 21       		.uleb128 0x21
ARM GAS  C:\Users\gjl\AppData\Local\Temp\ccg70AS9.s 			page 139


 6188 19a3 01       		.uleb128 0x1
 6189 19a4 50       		.byte	0x50
 6190 19a5 02       		.uleb128 0x2
 6191 19a6 75       		.byte	0x75
 6192 19a7 00       		.sleb128 0
 6193 19a8 00       		.byte	0
 6194 19a9 20       		.uleb128 0x20
 6195 19aa 40000000 		.4byte	.LVL330
 6196 19ae B4120000 		.4byte	0x12b4
 6197 19b2 C3190000 		.4byte	0x19c3
 6198 19b6 21       		.uleb128 0x21
 6199 19b7 01       		.uleb128 0x1
 6200 19b8 50       		.byte	0x50
 6201 19b9 02       		.uleb128 0x2
 6202 19ba 75       		.byte	0x75
 6203 19bb 00       		.sleb128 0
 6204 19bc 21       		.uleb128 0x21
 6205 19bd 01       		.uleb128 0x1
 6206 19be 51       		.byte	0x51
 6207 19bf 02       		.uleb128 0x2
 6208 19c0 77       		.byte	0x77
 6209 19c1 00       		.sleb128 0
 6210 19c2 00       		.byte	0
 6211 19c3 20       		.uleb128 0x20
 6212 19c4 54000000 		.4byte	.LVL332
 6213 19c8 E61E0000 		.4byte	0x1ee6
 6214 19cc EA190000 		.4byte	0x19ea
 6215 19d0 21       		.uleb128 0x21
 6216 19d1 01       		.uleb128 0x1
 6217 19d2 50       		.byte	0x50
 6218 19d3 02       		.uleb128 0x2
 6219 19d4 75       		.byte	0x75
 6220 19d5 00       		.sleb128 0
 6221 19d6 21       		.uleb128 0x21
 6222 19d7 01       		.uleb128 0x1
 6223 19d8 51       		.byte	0x51
 6224 19d9 03       		.uleb128 0x3
 6225 19da 91       		.byte	0x91
 6226 19db 00       		.sleb128 0
 6227 19dc 06       		.byte	0x6
 6228 19dd 21       		.uleb128 0x21
 6229 19de 01       		.uleb128 0x1
 6230 19df 52       		.byte	0x52
 6231 19e0 02       		.uleb128 0x2
 6232 19e1 77       		.byte	0x77
 6233 19e2 00       		.sleb128 0
 6234 19e3 21       		.uleb128 0x21
 6235 19e4 01       		.uleb128 0x1
 6236 19e5 53       		.byte	0x53
 6237 19e6 02       		.uleb128 0x2
 6238 19e7 76       		.byte	0x76
 6239 19e8 00       		.sleb128 0
 6240 19e9 00       		.byte	0
 6241 19ea 20       		.uleb128 0x20
 6242 19eb 70000000 		.4byte	.LVL337
 6243 19ef E61E0000 		.4byte	0x1ee6
 6244 19f3 111A0000 		.4byte	0x1a11
ARM GAS  C:\Users\gjl\AppData\Local\Temp\ccg70AS9.s 			page 140


 6245 19f7 21       		.uleb128 0x21
 6246 19f8 01       		.uleb128 0x1
 6247 19f9 50       		.byte	0x50
 6248 19fa 02       		.uleb128 0x2
 6249 19fb 75       		.byte	0x75
 6250 19fc 00       		.sleb128 0
 6251 19fd 21       		.uleb128 0x21
 6252 19fe 01       		.uleb128 0x1
 6253 19ff 51       		.byte	0x51
 6254 1a00 03       		.uleb128 0x3
 6255 1a01 91       		.byte	0x91
 6256 1a02 00       		.sleb128 0
 6257 1a03 06       		.byte	0x6
 6258 1a04 21       		.uleb128 0x21
 6259 1a05 01       		.uleb128 0x1
 6260 1a06 52       		.byte	0x52
 6261 1a07 02       		.uleb128 0x2
 6262 1a08 76       		.byte	0x76
 6263 1a09 00       		.sleb128 0
 6264 1a0a 21       		.uleb128 0x21
 6265 1a0b 01       		.uleb128 0x1
 6266 1a0c 53       		.byte	0x53
 6267 1a0d 02       		.uleb128 0x2
 6268 1a0e 77       		.byte	0x77
 6269 1a0f 00       		.sleb128 0
 6270 1a10 00       		.byte	0
 6271 1a11 22       		.uleb128 0x22
 6272 1a12 82000000 		.4byte	.LVL341
 6273 1a16 95140000 		.4byte	0x1495
 6274 1a1a 21       		.uleb128 0x21
 6275 1a1b 01       		.uleb128 0x1
 6276 1a1c 50       		.byte	0x50
 6277 1a1d 02       		.uleb128 0x2
 6278 1a1e 75       		.byte	0x75
 6279 1a1f 00       		.sleb128 0
 6280 1a20 21       		.uleb128 0x21
 6281 1a21 01       		.uleb128 0x1
 6282 1a22 51       		.byte	0x51
 6283 1a23 04       		.uleb128 0x4
 6284 1a24 7D       		.byte	0x7d
 6285 1a25 00       		.sleb128 0
 6286 1a26 94       		.byte	0x94
 6287 1a27 01       		.byte	0x1
 6288 1a28 21       		.uleb128 0x21
 6289 1a29 01       		.uleb128 0x1
 6290 1a2a 52       		.byte	0x52
 6291 1a2b 04       		.uleb128 0x4
 6292 1a2c 91       		.byte	0x91
 6293 1a2d 64       		.sleb128 -28
 6294 1a2e 94       		.byte	0x94
 6295 1a2f 01       		.byte	0x1
 6296 1a30 21       		.uleb128 0x21
 6297 1a31 01       		.uleb128 0x1
 6298 1a32 53       		.byte	0x53
 6299 1a33 02       		.uleb128 0x2
 6300 1a34 77       		.byte	0x77
 6301 1a35 00       		.sleb128 0
ARM GAS  C:\Users\gjl\AppData\Local\Temp\ccg70AS9.s 			page 141


 6302 1a36 00       		.byte	0
 6303 1a37 00       		.byte	0
 6304 1a38 2A       		.uleb128 0x2a
 6305 1a39 1A0B0000 		.4byte	.LASF188
 6306 1a3d 01       		.byte	0x1
 6307 1a3e 7803     		.2byte	0x378
 6308 1a40 00000000 		.4byte	.LFB27
 6309 1a44 62000000 		.4byte	.LFE27-.LFB27
 6310 1a48 01       		.uleb128 0x1
 6311 1a49 9C       		.byte	0x9c
 6312 1a4a 5D1A0000 		.4byte	0x1a5d
 6313 1a4e 2D       		.uleb128 0x2d
 6314 1a4f F3040000 		.4byte	.LASF143
 6315 1a53 01       		.byte	0x1
 6316 1a54 7803     		.2byte	0x378
 6317 1a56 2F050000 		.4byte	0x52f
 6318 1a5a 01       		.uleb128 0x1
 6319 1a5b 50       		.byte	0x50
 6320 1a5c 00       		.byte	0
 6321 1a5d 2A       		.uleb128 0x2a
 6322 1a5e 030C0000 		.4byte	.LASF189
 6323 1a62 01       		.byte	0x1
 6324 1a63 9103     		.2byte	0x391
 6325 1a65 00000000 		.4byte	.LFB28
 6326 1a69 10000000 		.4byte	.LFE28-.LFB28
 6327 1a6d 01       		.uleb128 0x1
 6328 1a6e 9C       		.byte	0x9c
 6329 1a6f 951A0000 		.4byte	0x1a95
 6330 1a73 1B       		.uleb128 0x1b
 6331 1a74 F3040000 		.4byte	.LASF143
 6332 1a78 01       		.byte	0x1
 6333 1a79 9103     		.2byte	0x391
 6334 1a7b 2F050000 		.4byte	0x52f
 6335 1a7f AB160000 		.4byte	.LLST138
 6336 1a83 22       		.uleb128 0x22
 6337 1a84 0E000000 		.4byte	.LVL355
 6338 1a88 381A0000 		.4byte	0x1a38
 6339 1a8c 21       		.uleb128 0x21
 6340 1a8d 01       		.uleb128 0x1
 6341 1a8e 50       		.byte	0x50
 6342 1a8f 03       		.uleb128 0x3
 6343 1a90 F3       		.byte	0xf3
 6344 1a91 01       		.uleb128 0x1
 6345 1a92 50       		.byte	0x50
 6346 1a93 00       		.byte	0
 6347 1a94 00       		.byte	0
 6348 1a95 2A       		.uleb128 0x2a
 6349 1a96 960A0000 		.4byte	.LASF190
 6350 1a9a 01       		.byte	0x1
 6351 1a9b 9703     		.2byte	0x397
 6352 1a9d 00000000 		.4byte	.LFB29
 6353 1aa1 10000000 		.4byte	.LFE29-.LFB29
 6354 1aa5 01       		.uleb128 0x1
 6355 1aa6 9C       		.byte	0x9c
 6356 1aa7 CD1A0000 		.4byte	0x1acd
 6357 1aab 1B       		.uleb128 0x1b
 6358 1aac F3040000 		.4byte	.LASF143
ARM GAS  C:\Users\gjl\AppData\Local\Temp\ccg70AS9.s 			page 142


 6359 1ab0 01       		.byte	0x1
 6360 1ab1 9703     		.2byte	0x397
 6361 1ab3 2F050000 		.4byte	0x52f
 6362 1ab7 CC160000 		.4byte	.LLST139
 6363 1abb 22       		.uleb128 0x22
 6364 1abc 0E000000 		.4byte	.LVL357
 6365 1ac0 381A0000 		.4byte	0x1a38
 6366 1ac4 21       		.uleb128 0x21
 6367 1ac5 01       		.uleb128 0x1
 6368 1ac6 50       		.byte	0x50
 6369 1ac7 03       		.uleb128 0x3
 6370 1ac8 F3       		.byte	0xf3
 6371 1ac9 01       		.uleb128 0x1
 6372 1aca 50       		.byte	0x50
 6373 1acb 00       		.byte	0
 6374 1acc 00       		.byte	0
 6375 1acd 2A       		.uleb128 0x2a
 6376 1ace 67040000 		.4byte	.LASF191
 6377 1ad2 01       		.byte	0x1
 6378 1ad3 9D03     		.2byte	0x39d
 6379 1ad5 00000000 		.4byte	.LFB30
 6380 1ad9 10000000 		.4byte	.LFE30-.LFB30
 6381 1add 01       		.uleb128 0x1
 6382 1ade 9C       		.byte	0x9c
 6383 1adf 051B0000 		.4byte	0x1b05
 6384 1ae3 1B       		.uleb128 0x1b
 6385 1ae4 F3040000 		.4byte	.LASF143
 6386 1ae8 01       		.byte	0x1
 6387 1ae9 9D03     		.2byte	0x39d
 6388 1aeb 2F050000 		.4byte	0x52f
 6389 1aef ED160000 		.4byte	.LLST140
 6390 1af3 22       		.uleb128 0x22
 6391 1af4 0E000000 		.4byte	.LVL359
 6392 1af8 381A0000 		.4byte	0x1a38
 6393 1afc 21       		.uleb128 0x21
 6394 1afd 01       		.uleb128 0x1
 6395 1afe 50       		.byte	0x50
 6396 1aff 03       		.uleb128 0x3
 6397 1b00 F3       		.byte	0xf3
 6398 1b01 01       		.uleb128 0x1
 6399 1b02 50       		.byte	0x50
 6400 1b03 00       		.byte	0
 6401 1b04 00       		.byte	0
 6402 1b05 2A       		.uleb128 0x2a
 6403 1b06 50050000 		.4byte	.LASF192
 6404 1b0a 01       		.byte	0x1
 6405 1b0b AB03     		.2byte	0x3ab
 6406 1b0d 00000000 		.4byte	.LFB32
 6407 1b11 0C000000 		.4byte	.LFE32-.LFB32
 6408 1b15 01       		.uleb128 0x1
 6409 1b16 9C       		.byte	0x9c
 6410 1b17 2A1B0000 		.4byte	0x1b2a
 6411 1b1b 2D       		.uleb128 0x2d
 6412 1b1c F3040000 		.4byte	.LASF143
 6413 1b20 01       		.byte	0x1
 6414 1b21 AB03     		.2byte	0x3ab
 6415 1b23 2F050000 		.4byte	0x52f
ARM GAS  C:\Users\gjl\AppData\Local\Temp\ccg70AS9.s 			page 143


 6416 1b27 01       		.uleb128 0x1
 6417 1b28 50       		.byte	0x50
 6418 1b29 00       		.byte	0
 6419 1b2a 2A       		.uleb128 0x2a
 6420 1b2b 890C0000 		.4byte	.LASF193
 6421 1b2f 01       		.byte	0x1
 6422 1b30 B603     		.2byte	0x3b6
 6423 1b32 00000000 		.4byte	.LFB34
 6424 1b36 0C000000 		.4byte	.LFE34-.LFB34
 6425 1b3a 01       		.uleb128 0x1
 6426 1b3b 9C       		.byte	0x9c
 6427 1b3c 4F1B0000 		.4byte	0x1b4f
 6428 1b40 2D       		.uleb128 0x2d
 6429 1b41 F3040000 		.4byte	.LASF143
 6430 1b45 01       		.byte	0x1
 6431 1b46 B603     		.2byte	0x3b6
 6432 1b48 2F050000 		.4byte	0x52f
 6433 1b4c 01       		.uleb128 0x1
 6434 1b4d 50       		.byte	0x50
 6435 1b4e 00       		.byte	0
 6436 1b4f 2A       		.uleb128 0x2a
 6437 1b50 1B080000 		.4byte	.LASF194
 6438 1b54 01       		.byte	0x1
 6439 1b55 C403     		.2byte	0x3c4
 6440 1b57 00000000 		.4byte	.LFB36
 6441 1b5b 0C000000 		.4byte	.LFE36-.LFB36
 6442 1b5f 01       		.uleb128 0x1
 6443 1b60 9C       		.byte	0x9c
 6444 1b61 741B0000 		.4byte	0x1b74
 6445 1b65 2D       		.uleb128 0x2d
 6446 1b66 F3040000 		.4byte	.LASF143
 6447 1b6a 01       		.byte	0x1
 6448 1b6b C403     		.2byte	0x3c4
 6449 1b6d 2F050000 		.4byte	0x52f
 6450 1b71 01       		.uleb128 0x1
 6451 1b72 50       		.byte	0x50
 6452 1b73 00       		.byte	0
 6453 1b74 2A       		.uleb128 0x2a
 6454 1b75 2C090000 		.4byte	.LASF195
 6455 1b79 01       		.byte	0x1
 6456 1b7a D303     		.2byte	0x3d3
 6457 1b7c 00000000 		.4byte	.LFB38
 6458 1b80 0C000000 		.4byte	.LFE38-.LFB38
 6459 1b84 01       		.uleb128 0x1
 6460 1b85 9C       		.byte	0x9c
 6461 1b86 991B0000 		.4byte	0x1b99
 6462 1b8a 2D       		.uleb128 0x2d
 6463 1b8b F3040000 		.4byte	.LASF143
 6464 1b8f 01       		.byte	0x1
 6465 1b90 D303     		.2byte	0x3d3
 6466 1b92 2F050000 		.4byte	0x52f
 6467 1b96 01       		.uleb128 0x1
 6468 1b97 50       		.byte	0x50
 6469 1b98 00       		.byte	0
 6470 1b99 2A       		.uleb128 0x2a
 6471 1b9a 53080000 		.4byte	.LASF196
 6472 1b9e 01       		.byte	0x1
ARM GAS  C:\Users\gjl\AppData\Local\Temp\ccg70AS9.s 			page 144


 6473 1b9f DA03     		.2byte	0x3da
 6474 1ba1 00000000 		.4byte	.LFB39
 6475 1ba5 1A000000 		.4byte	.LFE39-.LFB39
 6476 1ba9 01       		.uleb128 0x1
 6477 1baa 9C       		.byte	0x9c
 6478 1bab FC1B0000 		.4byte	0x1bfc
 6479 1baf 1B       		.uleb128 0x1b
 6480 1bb0 F3040000 		.4byte	.LASF143
 6481 1bb4 01       		.byte	0x1
 6482 1bb5 DA03     		.2byte	0x3da
 6483 1bb7 2F050000 		.4byte	0x52f
 6484 1bbb 0E170000 		.4byte	.LLST141
 6485 1bbf 1B       		.uleb128 0x1b
 6486 1bc0 330C0000 		.4byte	.LASF26
 6487 1bc4 01       		.byte	0x1
 6488 1bc5 DA03     		.2byte	0x3da
 6489 1bc7 53030000 		.4byte	0x353
 6490 1bcb 3A170000 		.4byte	.LLST142
 6491 1bcf 20       		.uleb128 0x20
 6492 1bd0 12000000 		.4byte	.LVL366
 6493 1bd4 9E090000 		.4byte	0x99e
 6494 1bd8 EB1B0000 		.4byte	0x1beb
 6495 1bdc 21       		.uleb128 0x21
 6496 1bdd 01       		.uleb128 0x1
 6497 1bde 50       		.byte	0x50
 6498 1bdf 03       		.uleb128 0x3
 6499 1be0 74       		.byte	0x74
 6500 1be1 E000     		.sleb128 96
 6501 1be3 21       		.uleb128 0x21
 6502 1be4 01       		.uleb128 0x1
 6503 1be5 51       		.byte	0x51
 6504 1be6 03       		.uleb128 0x3
 6505 1be7 F3       		.byte	0xf3
 6506 1be8 01       		.uleb128 0x1
 6507 1be9 51       		.byte	0x51
 6508 1bea 00       		.byte	0
 6509 1beb 22       		.uleb128 0x22
 6510 1bec 18000000 		.4byte	.LVL367
 6511 1bf0 381A0000 		.4byte	0x1a38
 6512 1bf4 21       		.uleb128 0x21
 6513 1bf5 01       		.uleb128 0x1
 6514 1bf6 50       		.byte	0x50
 6515 1bf7 02       		.uleb128 0x2
 6516 1bf8 74       		.byte	0x74
 6517 1bf9 00       		.sleb128 0
 6518 1bfa 00       		.byte	0
 6519 1bfb 00       		.byte	0
 6520 1bfc 1A       		.uleb128 0x1a
 6521 1bfd CE040000 		.4byte	.LASF197
 6522 1c01 01       		.byte	0x1
 6523 1c02 1F04     		.2byte	0x41f
 6524 1c04 97000000 		.4byte	0x97
 6525 1c08 00000000 		.4byte	.LFB42
 6526 1c0c 20000000 		.4byte	.LFE42-.LFB42
 6527 1c10 01       		.uleb128 0x1
 6528 1c11 9C       		.byte	0x9c
 6529 1c12 821C0000 		.4byte	0x1c82
ARM GAS  C:\Users\gjl\AppData\Local\Temp\ccg70AS9.s 			page 145


 6530 1c16 1B       		.uleb128 0x1b
 6531 1c17 F3040000 		.4byte	.LASF143
 6532 1c1b 01       		.byte	0x1
 6533 1c1c 1F04     		.2byte	0x41f
 6534 1c1e 2F050000 		.4byte	0x52f
 6535 1c22 5B170000 		.4byte	.LLST143
 6536 1c26 18       		.uleb128 0x18
 6537 1c27 7300     		.ascii	"s\000"
 6538 1c29 01       		.byte	0x1
 6539 1c2a 1F04     		.2byte	0x41f
 6540 1c2c F9130000 		.4byte	0x13f9
 6541 1c30 7C170000 		.4byte	.LLST144
 6542 1c34 2B       		.uleb128 0x2b
 6543 1c35 7700     		.ascii	"w\000"
 6544 1c37 01       		.byte	0x1
 6545 1c38 2104     		.2byte	0x421
 6546 1c3a A2000000 		.4byte	0xa2
 6547 1c3e 02       		.uleb128 0x2
 6548 1c3f 91       		.byte	0x91
 6549 1c40 75       		.sleb128 -11
 6550 1c41 2B       		.uleb128 0x2b
 6551 1c42 6F7800   		.ascii	"ox\000"
 6552 1c45 01       		.byte	0x1
 6553 1c46 2204     		.2byte	0x422
 6554 1c48 97000000 		.4byte	0x97
 6555 1c4c 02       		.uleb128 0x2
 6556 1c4d 91       		.byte	0x91
 6557 1c4e 76       		.sleb128 -10
 6558 1c4f 2B       		.uleb128 0x2b
 6559 1c50 647800   		.ascii	"dx\000"
 6560 1c53 01       		.byte	0x1
 6561 1c54 2204     		.2byte	0x422
 6562 1c56 97000000 		.4byte	0x97
 6563 1c5a 02       		.uleb128 0x2
 6564 1c5b 91       		.byte	0x91
 6565 1c5c 77       		.sleb128 -9
 6566 1c5d 22       		.uleb128 0x22
 6567 1c5e 18000000 		.4byte	.LVL371
 6568 1c62 90110000 		.4byte	0x1190
 6569 1c66 21       		.uleb128 0x21
 6570 1c67 01       		.uleb128 0x1
 6571 1c68 50       		.byte	0x50
 6572 1c69 03       		.uleb128 0x3
 6573 1c6a F3       		.byte	0xf3
 6574 1c6b 01       		.uleb128 0x1
 6575 1c6c 50       		.byte	0x50
 6576 1c6d 21       		.uleb128 0x21
 6577 1c6e 01       		.uleb128 0x1
 6578 1c6f 52       		.byte	0x52
 6579 1c70 02       		.uleb128 0x2
 6580 1c71 91       		.byte	0x91
 6581 1c72 75       		.sleb128 -11
 6582 1c73 21       		.uleb128 0x21
 6583 1c74 01       		.uleb128 0x1
 6584 1c75 53       		.byte	0x53
 6585 1c76 02       		.uleb128 0x2
 6586 1c77 74       		.byte	0x74
ARM GAS  C:\Users\gjl\AppData\Local\Temp\ccg70AS9.s 			page 146


 6587 1c78 00       		.sleb128 0
 6588 1c79 21       		.uleb128 0x21
 6589 1c7a 02       		.uleb128 0x2
 6590 1c7b 7D       		.byte	0x7d
 6591 1c7c 00       		.sleb128 0
 6592 1c7d 02       		.uleb128 0x2
 6593 1c7e 91       		.byte	0x91
 6594 1c7f 77       		.sleb128 -9
 6595 1c80 00       		.byte	0
 6596 1c81 00       		.byte	0
 6597 1c82 1A       		.uleb128 0x1a
 6598 1c83 D8010000 		.4byte	.LASF198
 6599 1c87 01       		.byte	0x1
 6600 1c88 7204     		.2byte	0x472
 6601 1c8a 5E030000 		.4byte	0x35e
 6602 1c8e 00000000 		.4byte	.LFB44
 6603 1c92 10000000 		.4byte	.LFE44-.LFB44
 6604 1c96 01       		.uleb128 0x1
 6605 1c97 9C       		.byte	0x9c
 6606 1c98 D31C0000 		.4byte	0x1cd3
 6607 1c9c 1B       		.uleb128 0x1b
 6608 1c9d F3040000 		.4byte	.LASF143
 6609 1ca1 01       		.byte	0x1
 6610 1ca2 7204     		.2byte	0x472
 6611 1ca4 2F050000 		.4byte	0x52f
 6612 1ca8 9D170000 		.4byte	.LLST145
 6613 1cac 18       		.uleb128 0x18
 6614 1cad 7300     		.ascii	"s\000"
 6615 1caf 01       		.byte	0x1
 6616 1cb0 7204     		.2byte	0x472
 6617 1cb2 F9130000 		.4byte	0x13f9
 6618 1cb6 BE170000 		.4byte	.LLST146
 6619 1cba 22       		.uleb128 0x22
 6620 1cbb 0A000000 		.4byte	.LVL373
 6621 1cbf 5F130000 		.4byte	0x135f
 6622 1cc3 21       		.uleb128 0x21
 6623 1cc4 01       		.uleb128 0x1
 6624 1cc5 50       		.byte	0x50
 6625 1cc6 03       		.uleb128 0x3
 6626 1cc7 F3       		.byte	0xf3
 6627 1cc8 01       		.uleb128 0x1
 6628 1cc9 50       		.byte	0x50
 6629 1cca 21       		.uleb128 0x21
 6630 1ccb 01       		.uleb128 0x1
 6631 1ccc 51       		.byte	0x51
 6632 1ccd 03       		.uleb128 0x3
 6633 1cce F3       		.byte	0xf3
 6634 1ccf 01       		.uleb128 0x1
 6635 1cd0 51       		.byte	0x51
 6636 1cd1 00       		.byte	0
 6637 1cd2 00       		.byte	0
 6638 1cd3 2F       		.uleb128 0x2f
 6639 1cd4 ED070000 		.4byte	.LASF199
 6640 1cd8 01       		.byte	0x1
 6641 1cd9 2904     		.2byte	0x429
 6642 1cdb 5E030000 		.4byte	0x35e
 6643 1cdf 01       		.byte	0x1
ARM GAS  C:\Users\gjl\AppData\Local\Temp\ccg70AS9.s 			page 147


 6644 1ce0 341D0000 		.4byte	0x1d34
 6645 1ce4 30       		.uleb128 0x30
 6646 1ce5 F3040000 		.4byte	.LASF143
 6647 1ce9 01       		.byte	0x1
 6648 1cea 2904     		.2byte	0x429
 6649 1cec 2F050000 		.4byte	0x52f
 6650 1cf0 31       		.uleb128 0x31
 6651 1cf1 73747200 		.ascii	"str\000"
 6652 1cf5 01       		.byte	0x1
 6653 1cf6 2904     		.2byte	0x429
 6654 1cf8 F9130000 		.4byte	0x13f9
 6655 1cfc 32       		.uleb128 0x32
 6656 1cfd 7700     		.ascii	"w\000"
 6657 1cff 01       		.byte	0x1
 6658 1d00 2C04     		.2byte	0x42c
 6659 1d02 5E030000 		.4byte	0x35e
 6660 1d06 32       		.uleb128 0x32
 6661 1d07 656E6300 		.ascii	"enc\000"
 6662 1d0b 01       		.byte	0x1
 6663 1d0c 2D04     		.2byte	0x42d
 6664 1d0e AD000000 		.4byte	0xad
 6665 1d12 32       		.uleb128 0x32
 6666 1d13 677700   		.ascii	"gw\000"
 6667 1d16 01       		.byte	0x1
 6668 1d17 2E04     		.2byte	0x42e
 6669 1d19 A2000000 		.4byte	0xa2
 6670 1d1d 32       		.uleb128 0x32
 6671 1d1e 6F7800   		.ascii	"ox\000"
 6672 1d21 01       		.byte	0x1
 6673 1d22 2F04     		.2byte	0x42f
 6674 1d24 97000000 		.4byte	0x97
 6675 1d28 32       		.uleb128 0x32
 6676 1d29 647800   		.ascii	"dx\000"
 6677 1d2c 01       		.byte	0x1
 6678 1d2d 2F04     		.2byte	0x42f
 6679 1d2f 97000000 		.4byte	0x97
 6680 1d33 00       		.byte	0
 6681 1d34 1A       		.uleb128 0x1a
 6682 1d35 1D0C0000 		.4byte	.LASF200
 6683 1d39 01       		.byte	0x1
 6684 1d3a 7804     		.2byte	0x478
 6685 1d3c 5E030000 		.4byte	0x35e
 6686 1d40 00000000 		.4byte	.LFB45
 6687 1d44 90000000 		.4byte	.LFE45-.LFB45
 6688 1d48 01       		.uleb128 0x1
 6689 1d49 9C       		.byte	0x9c
 6690 1d4a 2E1E0000 		.4byte	0x1e2e
 6691 1d4e 1B       		.uleb128 0x1b
 6692 1d4f F3040000 		.4byte	.LASF143
 6693 1d53 01       		.byte	0x1
 6694 1d54 7804     		.2byte	0x478
 6695 1d56 2F050000 		.4byte	0x52f
 6696 1d5a DF170000 		.4byte	.LLST147
 6697 1d5e 18       		.uleb128 0x18
 6698 1d5f 7300     		.ascii	"s\000"
 6699 1d61 01       		.byte	0x1
 6700 1d62 7804     		.2byte	0x478
ARM GAS  C:\Users\gjl\AppData\Local\Temp\ccg70AS9.s 			page 148


 6701 1d64 F9130000 		.4byte	0x13f9
 6702 1d68 0B180000 		.4byte	.LLST148
 6703 1d6c 37       		.uleb128 0x37
 6704 1d6d D31C0000 		.4byte	0x1cd3
 6705 1d71 0C000000 		.4byte	.LBB64
 6706 1d75 72000000 		.4byte	.LBE64-.LBB64
 6707 1d79 01       		.byte	0x1
 6708 1d7a 7B04     		.2byte	0x47b
 6709 1d7c 1F       		.uleb128 0x1f
 6710 1d7d F01C0000 		.4byte	0x1cf0
 6711 1d81 2C180000 		.4byte	.LLST149
 6712 1d85 1F       		.uleb128 0x1f
 6713 1d86 E41C0000 		.4byte	0x1ce4
 6714 1d8a 3F180000 		.4byte	.LLST150
 6715 1d8e 27       		.uleb128 0x27
 6716 1d8f 0C000000 		.4byte	.LBB65
 6717 1d93 72000000 		.4byte	.LBE65-.LBB65
 6718 1d97 35       		.uleb128 0x35
 6719 1d98 FC1C0000 		.4byte	0x1cfc
 6720 1d9c 52180000 		.4byte	.LLST151
 6721 1da0 35       		.uleb128 0x35
 6722 1da1 061D0000 		.4byte	0x1d06
 6723 1da5 83180000 		.4byte	.LLST152
 6724 1da9 38       		.uleb128 0x38
 6725 1daa 121D0000 		.4byte	0x1d12
 6726 1dae 02       		.uleb128 0x2
 6727 1daf 91       		.byte	0x91
 6728 1db0 65       		.sleb128 -27
 6729 1db1 38       		.uleb128 0x38
 6730 1db2 1D1D0000 		.4byte	0x1d1d
 6731 1db6 02       		.uleb128 0x2
 6732 1db7 91       		.byte	0x91
 6733 1db8 66       		.sleb128 -26
 6734 1db9 38       		.uleb128 0x38
 6735 1dba 281D0000 		.4byte	0x1d28
 6736 1dbe 02       		.uleb128 0x2
 6737 1dbf 91       		.byte	0x91
 6738 1dc0 67       		.sleb128 -25
 6739 1dc1 2E       		.uleb128 0x2e
 6740 1dc2 14000000 		.4byte	.LVL376
 6741 1dc6 D11D0000 		.4byte	0x1dd1
 6742 1dca 21       		.uleb128 0x21
 6743 1dcb 01       		.uleb128 0x1
 6744 1dcc 50       		.byte	0x50
 6745 1dcd 02       		.uleb128 0x2
 6746 1dce 74       		.byte	0x74
 6747 1dcf 00       		.sleb128 0
 6748 1dd0 00       		.byte	0
 6749 1dd1 20       		.uleb128 0x20
 6750 1dd2 3C000000 		.4byte	.LVL380
 6751 1dd6 90110000 		.4byte	0x1190
 6752 1dda F81D0000 		.4byte	0x1df8
 6753 1dde 21       		.uleb128 0x21
 6754 1ddf 01       		.uleb128 0x1
 6755 1de0 50       		.byte	0x50
 6756 1de1 02       		.uleb128 0x2
 6757 1de2 74       		.byte	0x74
ARM GAS  C:\Users\gjl\AppData\Local\Temp\ccg70AS9.s 			page 149


 6758 1de3 00       		.sleb128 0
 6759 1de4 21       		.uleb128 0x21
 6760 1de5 01       		.uleb128 0x1
 6761 1de6 52       		.byte	0x52
 6762 1de7 02       		.uleb128 0x2
 6763 1de8 91       		.byte	0x91
 6764 1de9 65       		.sleb128 -27
 6765 1dea 21       		.uleb128 0x21
 6766 1deb 01       		.uleb128 0x1
 6767 1dec 53       		.byte	0x53
 6768 1ded 02       		.uleb128 0x2
 6769 1dee 76       		.byte	0x76
 6770 1def 00       		.sleb128 0
 6771 1df0 21       		.uleb128 0x21
 6772 1df1 02       		.uleb128 0x2
 6773 1df2 7D       		.byte	0x7d
 6774 1df3 00       		.sleb128 0
 6775 1df4 02       		.uleb128 0x2
 6776 1df5 91       		.byte	0x91
 6777 1df6 67       		.sleb128 -25
 6778 1df7 00       		.byte	0
 6779 1df8 2E       		.uleb128 0x2e
 6780 1df9 4A000000 		.4byte	.LVL383
 6781 1dfd 081E0000 		.4byte	0x1e08
 6782 1e01 21       		.uleb128 0x21
 6783 1e02 01       		.uleb128 0x1
 6784 1e03 50       		.byte	0x50
 6785 1e04 02       		.uleb128 0x2
 6786 1e05 74       		.byte	0x74
 6787 1e06 00       		.sleb128 0
 6788 1e07 00       		.byte	0
 6789 1e08 22       		.uleb128 0x22
 6790 1e09 6C000000 		.4byte	.LVL387
 6791 1e0d 90110000 		.4byte	0x1190
 6792 1e11 21       		.uleb128 0x21
 6793 1e12 01       		.uleb128 0x1
 6794 1e13 50       		.byte	0x50
 6795 1e14 02       		.uleb128 0x2
 6796 1e15 74       		.byte	0x74
 6797 1e16 00       		.sleb128 0
 6798 1e17 21       		.uleb128 0x21
 6799 1e18 01       		.uleb128 0x1
 6800 1e19 52       		.byte	0x52
 6801 1e1a 02       		.uleb128 0x2
 6802 1e1b 91       		.byte	0x91
 6803 1e1c 65       		.sleb128 -27
 6804 1e1d 21       		.uleb128 0x21
 6805 1e1e 01       		.uleb128 0x1
 6806 1e1f 53       		.byte	0x53
 6807 1e20 02       		.uleb128 0x2
 6808 1e21 76       		.byte	0x76
 6809 1e22 00       		.sleb128 0
 6810 1e23 21       		.uleb128 0x21
 6811 1e24 02       		.uleb128 0x2
 6812 1e25 7D       		.byte	0x7d
 6813 1e26 00       		.sleb128 0
 6814 1e27 02       		.uleb128 0x2
ARM GAS  C:\Users\gjl\AppData\Local\Temp\ccg70AS9.s 			page 150


 6815 1e28 91       		.byte	0x91
 6816 1e29 67       		.sleb128 -25
 6817 1e2a 00       		.byte	0
 6818 1e2b 00       		.byte	0
 6819 1e2c 00       		.byte	0
 6820 1e2d 00       		.byte	0
 6821 1e2e 1A       		.uleb128 0x1a
 6822 1e2f 3A020000 		.4byte	.LASF201
 6823 1e33 01       		.byte	0x1
 6824 1e34 8804     		.2byte	0x488
 6825 1e36 5E030000 		.4byte	0x35e
 6826 1e3a 00000000 		.4byte	.LFB46
 6827 1e3e 10000000 		.4byte	.LFE46-.LFB46
 6828 1e42 01       		.uleb128 0x1
 6829 1e43 9C       		.byte	0x9c
 6830 1e44 811E0000 		.4byte	0x1e81
 6831 1e48 1B       		.uleb128 0x1b
 6832 1e49 F3040000 		.4byte	.LASF143
 6833 1e4d 01       		.byte	0x1
 6834 1e4e 8804     		.2byte	0x488
 6835 1e50 2F050000 		.4byte	0x52f
 6836 1e54 AC180000 		.4byte	.LLST153
 6837 1e58 18       		.uleb128 0x18
 6838 1e59 73747200 		.ascii	"str\000"
 6839 1e5d 01       		.byte	0x1
 6840 1e5e 8804     		.2byte	0x488
 6841 1e60 F9130000 		.4byte	0x13f9
 6842 1e64 CD180000 		.4byte	.LLST154
 6843 1e68 22       		.uleb128 0x22
 6844 1e69 0A000000 		.4byte	.LVL393
 6845 1e6d 5F130000 		.4byte	0x135f
 6846 1e71 21       		.uleb128 0x21
 6847 1e72 01       		.uleb128 0x1
 6848 1e73 50       		.byte	0x50
 6849 1e74 03       		.uleb128 0x3
 6850 1e75 F3       		.byte	0xf3
 6851 1e76 01       		.uleb128 0x1
 6852 1e77 50       		.byte	0x50
 6853 1e78 21       		.uleb128 0x21
 6854 1e79 01       		.uleb128 0x1
 6855 1e7a 51       		.byte	0x51
 6856 1e7b 03       		.uleb128 0x3
 6857 1e7c F3       		.byte	0xf3
 6858 1e7d 01       		.uleb128 0x1
 6859 1e7e 51       		.byte	0x51
 6860 1e7f 00       		.byte	0
 6861 1e80 00       		.byte	0
 6862 1e81 2A       		.uleb128 0x2a
 6863 1e82 3A0D0000 		.4byte	.LASF202
 6864 1e86 01       		.byte	0x1
 6865 1e87 9004     		.2byte	0x490
 6866 1e89 00000000 		.4byte	.LFB47
 6867 1e8d 06000000 		.4byte	.LFE47-.LFB47
 6868 1e91 01       		.uleb128 0x1
 6869 1e92 9C       		.byte	0x9c
 6870 1e93 B61E0000 		.4byte	0x1eb6
 6871 1e97 1B       		.uleb128 0x1b
ARM GAS  C:\Users\gjl\AppData\Local\Temp\ccg70AS9.s 			page 151


 6872 1e98 F3040000 		.4byte	.LASF143
 6873 1e9c 01       		.byte	0x1
 6874 1e9d 9004     		.2byte	0x490
 6875 1e9f 2F050000 		.4byte	0x52f
 6876 1ea3 EE180000 		.4byte	.LLST155
 6877 1ea7 19       		.uleb128 0x19
 6878 1ea8 64697200 		.ascii	"dir\000"
 6879 1eac 01       		.byte	0x1
 6880 1ead 9004     		.2byte	0x490
 6881 1eaf A2000000 		.4byte	0xa2
 6882 1eb3 01       		.uleb128 0x1
 6883 1eb4 51       		.byte	0x51
 6884 1eb5 00       		.byte	0
 6885 1eb6 39       		.uleb128 0x39
 6886 1eb7 57040000 		.4byte	.LASF203
 6887 1ebb 57040000 		.4byte	.LASF203
 6888 1ebf 06       		.byte	0x6
 6889 1ec0 0C03     		.2byte	0x30c
 6890 1ec2 39       		.uleb128 0x39
 6891 1ec3 82060000 		.4byte	.LASF204
 6892 1ec7 82060000 		.4byte	.LASF204
 6893 1ecb 06       		.byte	0x6
 6894 1ecc 2003     		.2byte	0x320
 6895 1ece 39       		.uleb128 0x39
 6896 1ecf 48010000 		.4byte	.LASF205
 6897 1ed3 48010000 		.4byte	.LASF205
 6898 1ed7 05       		.byte	0x5
 6899 1ed8 1003     		.2byte	0x310
 6900 1eda 39       		.uleb128 0x39
 6901 1edb 50060000 		.4byte	.LASF206
 6902 1edf 50060000 		.4byte	.LASF206
 6903 1ee3 06       		.byte	0x6
 6904 1ee4 4A03     		.2byte	0x34a
 6905 1ee6 39       		.uleb128 0x39
 6906 1ee7 540A0000 		.4byte	.LASF207
 6907 1eeb 540A0000 		.4byte	.LASF207
 6908 1eef 06       		.byte	0x6
 6909 1ef0 4B03     		.2byte	0x34b
 6910 1ef2 00       		.byte	0
 6911              		.section	.debug_abbrev,"",%progbits
 6912              	.Ldebug_abbrev0:
 6913 0000 01       		.uleb128 0x1
 6914 0001 11       		.uleb128 0x11
 6915 0002 01       		.byte	0x1
 6916 0003 25       		.uleb128 0x25
 6917 0004 0E       		.uleb128 0xe
 6918 0005 13       		.uleb128 0x13
 6919 0006 0B       		.uleb128 0xb
 6920 0007 03       		.uleb128 0x3
 6921 0008 0E       		.uleb128 0xe
 6922 0009 1B       		.uleb128 0x1b
 6923 000a 0E       		.uleb128 0xe
 6924 000b 55       		.uleb128 0x55
 6925 000c 17       		.uleb128 0x17
 6926 000d 11       		.uleb128 0x11
 6927 000e 01       		.uleb128 0x1
 6928 000f 10       		.uleb128 0x10
ARM GAS  C:\Users\gjl\AppData\Local\Temp\ccg70AS9.s 			page 152


 6929 0010 17       		.uleb128 0x17
 6930 0011 00       		.byte	0
 6931 0012 00       		.byte	0
 6932 0013 02       		.uleb128 0x2
 6933 0014 16       		.uleb128 0x16
 6934 0015 00       		.byte	0
 6935 0016 03       		.uleb128 0x3
 6936 0017 0E       		.uleb128 0xe
 6937 0018 3A       		.uleb128 0x3a
 6938 0019 0B       		.uleb128 0xb
 6939 001a 3B       		.uleb128 0x3b
 6940 001b 0B       		.uleb128 0xb
 6941 001c 49       		.uleb128 0x49
 6942 001d 13       		.uleb128 0x13
 6943 001e 00       		.byte	0
 6944 001f 00       		.byte	0
 6945 0020 03       		.uleb128 0x3
 6946 0021 24       		.uleb128 0x24
 6947 0022 00       		.byte	0
 6948 0023 0B       		.uleb128 0xb
 6949 0024 0B       		.uleb128 0xb
 6950 0025 3E       		.uleb128 0x3e
 6951 0026 0B       		.uleb128 0xb
 6952 0027 03       		.uleb128 0x3
 6953 0028 0E       		.uleb128 0xe
 6954 0029 00       		.byte	0
 6955 002a 00       		.byte	0
 6956 002b 04       		.uleb128 0x4
 6957 002c 24       		.uleb128 0x24
 6958 002d 00       		.byte	0
 6959 002e 0B       		.uleb128 0xb
 6960 002f 0B       		.uleb128 0xb
 6961 0030 3E       		.uleb128 0x3e
 6962 0031 0B       		.uleb128 0xb
 6963 0032 03       		.uleb128 0x3
 6964 0033 08       		.uleb128 0x8
 6965 0034 00       		.byte	0
 6966 0035 00       		.byte	0
 6967 0036 05       		.uleb128 0x5
 6968 0037 13       		.uleb128 0x13
 6969 0038 01       		.byte	0x1
 6970 0039 03       		.uleb128 0x3
 6971 003a 0E       		.uleb128 0xe
 6972 003b 0B       		.uleb128 0xb
 6973 003c 0B       		.uleb128 0xb
 6974 003d 3A       		.uleb128 0x3a
 6975 003e 0B       		.uleb128 0xb
 6976 003f 3B       		.uleb128 0x3b
 6977 0040 05       		.uleb128 0x5
 6978 0041 01       		.uleb128 0x1
 6979 0042 13       		.uleb128 0x13
 6980 0043 00       		.byte	0
 6981 0044 00       		.byte	0
 6982 0045 06       		.uleb128 0x6
 6983 0046 0D       		.uleb128 0xd
 6984 0047 00       		.byte	0
 6985 0048 03       		.uleb128 0x3
ARM GAS  C:\Users\gjl\AppData\Local\Temp\ccg70AS9.s 			page 153


 6986 0049 0E       		.uleb128 0xe
 6987 004a 3A       		.uleb128 0x3a
 6988 004b 0B       		.uleb128 0xb
 6989 004c 3B       		.uleb128 0x3b
 6990 004d 05       		.uleb128 0x5
 6991 004e 49       		.uleb128 0x49
 6992 004f 13       		.uleb128 0x13
 6993 0050 38       		.uleb128 0x38
 6994 0051 0B       		.uleb128 0xb
 6995 0052 00       		.byte	0
 6996 0053 00       		.byte	0
 6997 0054 07       		.uleb128 0x7
 6998 0055 13       		.uleb128 0x13
 6999 0056 01       		.byte	0x1
 7000 0057 03       		.uleb128 0x3
 7001 0058 0E       		.uleb128 0xe
 7002 0059 0B       		.uleb128 0xb
 7003 005a 0B       		.uleb128 0xb
 7004 005b 3A       		.uleb128 0x3a
 7005 005c 0B       		.uleb128 0xb
 7006 005d 3B       		.uleb128 0x3b
 7007 005e 0B       		.uleb128 0xb
 7008 005f 01       		.uleb128 0x1
 7009 0060 13       		.uleb128 0x13
 7010 0061 00       		.byte	0
 7011 0062 00       		.byte	0
 7012 0063 08       		.uleb128 0x8
 7013 0064 0D       		.uleb128 0xd
 7014 0065 00       		.byte	0
 7015 0066 03       		.uleb128 0x3
 7016 0067 0E       		.uleb128 0xe
 7017 0068 3A       		.uleb128 0x3a
 7018 0069 0B       		.uleb128 0xb
 7019 006a 3B       		.uleb128 0x3b
 7020 006b 0B       		.uleb128 0xb
 7021 006c 49       		.uleb128 0x49
 7022 006d 13       		.uleb128 0x13
 7023 006e 38       		.uleb128 0x38
 7024 006f 0B       		.uleb128 0xb
 7025 0070 00       		.byte	0
 7026 0071 00       		.byte	0
 7027 0072 09       		.uleb128 0x9
 7028 0073 0F       		.uleb128 0xf
 7029 0074 00       		.byte	0
 7030 0075 0B       		.uleb128 0xb
 7031 0076 0B       		.uleb128 0xb
 7032 0077 49       		.uleb128 0x49
 7033 0078 13       		.uleb128 0x13
 7034 0079 00       		.byte	0
 7035 007a 00       		.byte	0
 7036 007b 0A       		.uleb128 0xa
 7037 007c 15       		.uleb128 0x15
 7038 007d 01       		.byte	0x1
 7039 007e 27       		.uleb128 0x27
 7040 007f 19       		.uleb128 0x19
 7041 0080 49       		.uleb128 0x49
 7042 0081 13       		.uleb128 0x13
ARM GAS  C:\Users\gjl\AppData\Local\Temp\ccg70AS9.s 			page 154


 7043 0082 01       		.uleb128 0x1
 7044 0083 13       		.uleb128 0x13
 7045 0084 00       		.byte	0
 7046 0085 00       		.byte	0
 7047 0086 0B       		.uleb128 0xb
 7048 0087 05       		.uleb128 0x5
 7049 0088 00       		.byte	0
 7050 0089 49       		.uleb128 0x49
 7051 008a 13       		.uleb128 0x13
 7052 008b 00       		.byte	0
 7053 008c 00       		.byte	0
 7054 008d 0C       		.uleb128 0xc
 7055 008e 0F       		.uleb128 0xf
 7056 008f 00       		.byte	0
 7057 0090 0B       		.uleb128 0xb
 7058 0091 0B       		.uleb128 0xb
 7059 0092 00       		.byte	0
 7060 0093 00       		.byte	0
 7061 0094 0D       		.uleb128 0xd
 7062 0095 26       		.uleb128 0x26
 7063 0096 00       		.byte	0
 7064 0097 49       		.uleb128 0x49
 7065 0098 13       		.uleb128 0x13
 7066 0099 00       		.byte	0
 7067 009a 00       		.byte	0
 7068 009b 0E       		.uleb128 0xe
 7069 009c 0D       		.uleb128 0xd
 7070 009d 00       		.byte	0
 7071 009e 03       		.uleb128 0x3
 7072 009f 08       		.uleb128 0x8
 7073 00a0 3A       		.uleb128 0x3a
 7074 00a1 0B       		.uleb128 0xb
 7075 00a2 3B       		.uleb128 0x3b
 7076 00a3 05       		.uleb128 0x5
 7077 00a4 49       		.uleb128 0x49
 7078 00a5 13       		.uleb128 0x13
 7079 00a6 38       		.uleb128 0x38
 7080 00a7 0B       		.uleb128 0xb
 7081 00a8 00       		.byte	0
 7082 00a9 00       		.byte	0
 7083 00aa 0F       		.uleb128 0xf
 7084 00ab 15       		.uleb128 0x15
 7085 00ac 01       		.byte	0x1
 7086 00ad 27       		.uleb128 0x27
 7087 00ae 19       		.uleb128 0x19
 7088 00af 01       		.uleb128 0x1
 7089 00b0 13       		.uleb128 0x13
 7090 00b1 00       		.byte	0
 7091 00b2 00       		.byte	0
 7092 00b3 10       		.uleb128 0x10
 7093 00b4 0D       		.uleb128 0xd
 7094 00b5 00       		.byte	0
 7095 00b6 03       		.uleb128 0x3
 7096 00b7 08       		.uleb128 0x8
 7097 00b8 3A       		.uleb128 0x3a
 7098 00b9 0B       		.uleb128 0xb
 7099 00ba 3B       		.uleb128 0x3b
ARM GAS  C:\Users\gjl\AppData\Local\Temp\ccg70AS9.s 			page 155


 7100 00bb 0B       		.uleb128 0xb
 7101 00bc 49       		.uleb128 0x49
 7102 00bd 13       		.uleb128 0x13
 7103 00be 38       		.uleb128 0x38
 7104 00bf 0B       		.uleb128 0xb
 7105 00c0 00       		.byte	0
 7106 00c1 00       		.byte	0
 7107 00c2 11       		.uleb128 0x11
 7108 00c3 16       		.uleb128 0x16
 7109 00c4 00       		.byte	0
 7110 00c5 03       		.uleb128 0x3
 7111 00c6 0E       		.uleb128 0xe
 7112 00c7 3A       		.uleb128 0x3a
 7113 00c8 0B       		.uleb128 0xb
 7114 00c9 3B       		.uleb128 0x3b
 7115 00ca 05       		.uleb128 0x5
 7116 00cb 49       		.uleb128 0x49
 7117 00cc 13       		.uleb128 0x13
 7118 00cd 00       		.byte	0
 7119 00ce 00       		.byte	0
 7120 00cf 12       		.uleb128 0x12
 7121 00d0 2E       		.uleb128 0x2e
 7122 00d1 01       		.byte	0x1
 7123 00d2 03       		.uleb128 0x3
 7124 00d3 0E       		.uleb128 0xe
 7125 00d4 3A       		.uleb128 0x3a
 7126 00d5 0B       		.uleb128 0xb
 7127 00d6 3B       		.uleb128 0x3b
 7128 00d7 0B       		.uleb128 0xb
 7129 00d8 27       		.uleb128 0x27
 7130 00d9 19       		.uleb128 0x19
 7131 00da 49       		.uleb128 0x49
 7132 00db 13       		.uleb128 0x13
 7133 00dc 20       		.uleb128 0x20
 7134 00dd 0B       		.uleb128 0xb
 7135 00de 01       		.uleb128 0x1
 7136 00df 13       		.uleb128 0x13
 7137 00e0 00       		.byte	0
 7138 00e1 00       		.byte	0
 7139 00e2 13       		.uleb128 0x13
 7140 00e3 05       		.uleb128 0x5
 7141 00e4 00       		.byte	0
 7142 00e5 03       		.uleb128 0x3
 7143 00e6 0E       		.uleb128 0xe
 7144 00e7 3A       		.uleb128 0x3a
 7145 00e8 0B       		.uleb128 0xb
 7146 00e9 3B       		.uleb128 0x3b
 7147 00ea 0B       		.uleb128 0xb
 7148 00eb 49       		.uleb128 0x49
 7149 00ec 13       		.uleb128 0x13
 7150 00ed 00       		.byte	0
 7151 00ee 00       		.byte	0
 7152 00ef 14       		.uleb128 0x14
 7153 00f0 2E       		.uleb128 0x2e
 7154 00f1 01       		.byte	0x1
 7155 00f2 03       		.uleb128 0x3
 7156 00f3 0E       		.uleb128 0xe
ARM GAS  C:\Users\gjl\AppData\Local\Temp\ccg70AS9.s 			page 156


 7157 00f4 3A       		.uleb128 0x3a
 7158 00f5 0B       		.uleb128 0xb
 7159 00f6 3B       		.uleb128 0x3b
 7160 00f7 0B       		.uleb128 0xb
 7161 00f8 27       		.uleb128 0x27
 7162 00f9 19       		.uleb128 0x19
 7163 00fa 49       		.uleb128 0x49
 7164 00fb 13       		.uleb128 0x13
 7165 00fc 11       		.uleb128 0x11
 7166 00fd 01       		.uleb128 0x1
 7167 00fe 12       		.uleb128 0x12
 7168 00ff 06       		.uleb128 0x6
 7169 0100 40       		.uleb128 0x40
 7170 0101 18       		.uleb128 0x18
 7171 0102 9742     		.uleb128 0x2117
 7172 0104 19       		.uleb128 0x19
 7173 0105 01       		.uleb128 0x1
 7174 0106 13       		.uleb128 0x13
 7175 0107 00       		.byte	0
 7176 0108 00       		.byte	0
 7177 0109 15       		.uleb128 0x15
 7178 010a 05       		.uleb128 0x5
 7179 010b 00       		.byte	0
 7180 010c 03       		.uleb128 0x3
 7181 010d 0E       		.uleb128 0xe
 7182 010e 3A       		.uleb128 0x3a
 7183 010f 0B       		.uleb128 0xb
 7184 0110 3B       		.uleb128 0x3b
 7185 0111 0B       		.uleb128 0xb
 7186 0112 49       		.uleb128 0x49
 7187 0113 13       		.uleb128 0x13
 7188 0114 02       		.uleb128 0x2
 7189 0115 17       		.uleb128 0x17
 7190 0116 00       		.byte	0
 7191 0117 00       		.byte	0
 7192 0118 16       		.uleb128 0x16
 7193 0119 34       		.uleb128 0x34
 7194 011a 00       		.byte	0
 7195 011b 03       		.uleb128 0x3
 7196 011c 08       		.uleb128 0x8
 7197 011d 3A       		.uleb128 0x3a
 7198 011e 0B       		.uleb128 0xb
 7199 011f 3B       		.uleb128 0x3b
 7200 0120 0B       		.uleb128 0xb
 7201 0121 49       		.uleb128 0x49
 7202 0122 13       		.uleb128 0x13
 7203 0123 02       		.uleb128 0x2
 7204 0124 17       		.uleb128 0x17
 7205 0125 00       		.byte	0
 7206 0126 00       		.byte	0
 7207 0127 17       		.uleb128 0x17
 7208 0128 2E       		.uleb128 0x2e
 7209 0129 01       		.byte	0x1
 7210 012a 03       		.uleb128 0x3
 7211 012b 0E       		.uleb128 0xe
 7212 012c 3A       		.uleb128 0x3a
 7213 012d 0B       		.uleb128 0xb
ARM GAS  C:\Users\gjl\AppData\Local\Temp\ccg70AS9.s 			page 157


 7214 012e 3B       		.uleb128 0x3b
 7215 012f 05       		.uleb128 0x5
 7216 0130 27       		.uleb128 0x27
 7217 0131 19       		.uleb128 0x19
 7218 0132 49       		.uleb128 0x49
 7219 0133 13       		.uleb128 0x13
 7220 0134 11       		.uleb128 0x11
 7221 0135 01       		.uleb128 0x1
 7222 0136 12       		.uleb128 0x12
 7223 0137 06       		.uleb128 0x6
 7224 0138 40       		.uleb128 0x40
 7225 0139 18       		.uleb128 0x18
 7226 013a 9742     		.uleb128 0x2117
 7227 013c 19       		.uleb128 0x19
 7228 013d 01       		.uleb128 0x1
 7229 013e 13       		.uleb128 0x13
 7230 013f 00       		.byte	0
 7231 0140 00       		.byte	0
 7232 0141 18       		.uleb128 0x18
 7233 0142 05       		.uleb128 0x5
 7234 0143 00       		.byte	0
 7235 0144 03       		.uleb128 0x3
 7236 0145 08       		.uleb128 0x8
 7237 0146 3A       		.uleb128 0x3a
 7238 0147 0B       		.uleb128 0xb
 7239 0148 3B       		.uleb128 0x3b
 7240 0149 05       		.uleb128 0x5
 7241 014a 49       		.uleb128 0x49
 7242 014b 13       		.uleb128 0x13
 7243 014c 02       		.uleb128 0x2
 7244 014d 17       		.uleb128 0x17
 7245 014e 00       		.byte	0
 7246 014f 00       		.byte	0
 7247 0150 19       		.uleb128 0x19
 7248 0151 05       		.uleb128 0x5
 7249 0152 00       		.byte	0
 7250 0153 03       		.uleb128 0x3
 7251 0154 08       		.uleb128 0x8
 7252 0155 3A       		.uleb128 0x3a
 7253 0156 0B       		.uleb128 0xb
 7254 0157 3B       		.uleb128 0x3b
 7255 0158 05       		.uleb128 0x5
 7256 0159 49       		.uleb128 0x49
 7257 015a 13       		.uleb128 0x13
 7258 015b 02       		.uleb128 0x2
 7259 015c 18       		.uleb128 0x18
 7260 015d 00       		.byte	0
 7261 015e 00       		.byte	0
 7262 015f 1A       		.uleb128 0x1a
 7263 0160 2E       		.uleb128 0x2e
 7264 0161 01       		.byte	0x1
 7265 0162 3F       		.uleb128 0x3f
 7266 0163 19       		.uleb128 0x19
 7267 0164 03       		.uleb128 0x3
 7268 0165 0E       		.uleb128 0xe
 7269 0166 3A       		.uleb128 0x3a
 7270 0167 0B       		.uleb128 0xb
ARM GAS  C:\Users\gjl\AppData\Local\Temp\ccg70AS9.s 			page 158


 7271 0168 3B       		.uleb128 0x3b
 7272 0169 05       		.uleb128 0x5
 7273 016a 27       		.uleb128 0x27
 7274 016b 19       		.uleb128 0x19
 7275 016c 49       		.uleb128 0x49
 7276 016d 13       		.uleb128 0x13
 7277 016e 11       		.uleb128 0x11
 7278 016f 01       		.uleb128 0x1
 7279 0170 12       		.uleb128 0x12
 7280 0171 06       		.uleb128 0x6
 7281 0172 40       		.uleb128 0x40
 7282 0173 18       		.uleb128 0x18
 7283 0174 9742     		.uleb128 0x2117
 7284 0176 19       		.uleb128 0x19
 7285 0177 01       		.uleb128 0x1
 7286 0178 13       		.uleb128 0x13
 7287 0179 00       		.byte	0
 7288 017a 00       		.byte	0
 7289 017b 1B       		.uleb128 0x1b
 7290 017c 05       		.uleb128 0x5
 7291 017d 00       		.byte	0
 7292 017e 03       		.uleb128 0x3
 7293 017f 0E       		.uleb128 0xe
 7294 0180 3A       		.uleb128 0x3a
 7295 0181 0B       		.uleb128 0xb
 7296 0182 3B       		.uleb128 0x3b
 7297 0183 05       		.uleb128 0x5
 7298 0184 49       		.uleb128 0x49
 7299 0185 13       		.uleb128 0x13
 7300 0186 02       		.uleb128 0x2
 7301 0187 17       		.uleb128 0x17
 7302 0188 00       		.byte	0
 7303 0189 00       		.byte	0
 7304 018a 1C       		.uleb128 0x1c
 7305 018b 34       		.uleb128 0x34
 7306 018c 00       		.byte	0
 7307 018d 03       		.uleb128 0x3
 7308 018e 08       		.uleb128 0x8
 7309 018f 3A       		.uleb128 0x3a
 7310 0190 0B       		.uleb128 0xb
 7311 0191 3B       		.uleb128 0x3b
 7312 0192 05       		.uleb128 0x5
 7313 0193 49       		.uleb128 0x49
 7314 0194 13       		.uleb128 0x13
 7315 0195 02       		.uleb128 0x2
 7316 0196 17       		.uleb128 0x17
 7317 0197 00       		.byte	0
 7318 0198 00       		.byte	0
 7319 0199 1D       		.uleb128 0x1d
 7320 019a 2E       		.uleb128 0x2e
 7321 019b 01       		.byte	0x1
 7322 019c 3F       		.uleb128 0x3f
 7323 019d 19       		.uleb128 0x19
 7324 019e 03       		.uleb128 0x3
 7325 019f 0E       		.uleb128 0xe
 7326 01a0 3A       		.uleb128 0x3a
 7327 01a1 0B       		.uleb128 0xb
ARM GAS  C:\Users\gjl\AppData\Local\Temp\ccg70AS9.s 			page 159


 7328 01a2 3B       		.uleb128 0x3b
 7329 01a3 0B       		.uleb128 0xb
 7330 01a4 27       		.uleb128 0x27
 7331 01a5 19       		.uleb128 0x19
 7332 01a6 11       		.uleb128 0x11
 7333 01a7 01       		.uleb128 0x1
 7334 01a8 12       		.uleb128 0x12
 7335 01a9 06       		.uleb128 0x6
 7336 01aa 40       		.uleb128 0x40
 7337 01ab 18       		.uleb128 0x18
 7338 01ac 9742     		.uleb128 0x2117
 7339 01ae 19       		.uleb128 0x19
 7340 01af 01       		.uleb128 0x1
 7341 01b0 13       		.uleb128 0x13
 7342 01b1 00       		.byte	0
 7343 01b2 00       		.byte	0
 7344 01b3 1E       		.uleb128 0x1e
 7345 01b4 1D       		.uleb128 0x1d
 7346 01b5 01       		.byte	0x1
 7347 01b6 31       		.uleb128 0x31
 7348 01b7 13       		.uleb128 0x13
 7349 01b8 11       		.uleb128 0x11
 7350 01b9 01       		.uleb128 0x1
 7351 01ba 12       		.uleb128 0x12
 7352 01bb 06       		.uleb128 0x6
 7353 01bc 58       		.uleb128 0x58
 7354 01bd 0B       		.uleb128 0xb
 7355 01be 59       		.uleb128 0x59
 7356 01bf 0B       		.uleb128 0xb
 7357 01c0 01       		.uleb128 0x1
 7358 01c1 13       		.uleb128 0x13
 7359 01c2 00       		.byte	0
 7360 01c3 00       		.byte	0
 7361 01c4 1F       		.uleb128 0x1f
 7362 01c5 05       		.uleb128 0x5
 7363 01c6 00       		.byte	0
 7364 01c7 31       		.uleb128 0x31
 7365 01c8 13       		.uleb128 0x13
 7366 01c9 02       		.uleb128 0x2
 7367 01ca 17       		.uleb128 0x17
 7368 01cb 00       		.byte	0
 7369 01cc 00       		.byte	0
 7370 01cd 20       		.uleb128 0x20
 7371 01ce 898201   		.uleb128 0x4109
 7372 01d1 01       		.byte	0x1
 7373 01d2 11       		.uleb128 0x11
 7374 01d3 01       		.uleb128 0x1
 7375 01d4 31       		.uleb128 0x31
 7376 01d5 13       		.uleb128 0x13
 7377 01d6 01       		.uleb128 0x1
 7378 01d7 13       		.uleb128 0x13
 7379 01d8 00       		.byte	0
 7380 01d9 00       		.byte	0
 7381 01da 21       		.uleb128 0x21
 7382 01db 8A8201   		.uleb128 0x410a
 7383 01de 00       		.byte	0
 7384 01df 02       		.uleb128 0x2
ARM GAS  C:\Users\gjl\AppData\Local\Temp\ccg70AS9.s 			page 160


 7385 01e0 18       		.uleb128 0x18
 7386 01e1 9142     		.uleb128 0x2111
 7387 01e3 18       		.uleb128 0x18
 7388 01e4 00       		.byte	0
 7389 01e5 00       		.byte	0
 7390 01e6 22       		.uleb128 0x22
 7391 01e7 898201   		.uleb128 0x4109
 7392 01ea 01       		.byte	0x1
 7393 01eb 11       		.uleb128 0x11
 7394 01ec 01       		.uleb128 0x1
 7395 01ed 31       		.uleb128 0x31
 7396 01ee 13       		.uleb128 0x13
 7397 01ef 00       		.byte	0
 7398 01f0 00       		.byte	0
 7399 01f1 23       		.uleb128 0x23
 7400 01f2 2E       		.uleb128 0x2e
 7401 01f3 01       		.byte	0x1
 7402 01f4 3F       		.uleb128 0x3f
 7403 01f5 19       		.uleb128 0x19
 7404 01f6 03       		.uleb128 0x3
 7405 01f7 0E       		.uleb128 0xe
 7406 01f8 3A       		.uleb128 0x3a
 7407 01f9 0B       		.uleb128 0xb
 7408 01fa 3B       		.uleb128 0x3b
 7409 01fb 0B       		.uleb128 0xb
 7410 01fc 27       		.uleb128 0x27
 7411 01fd 19       		.uleb128 0x19
 7412 01fe 49       		.uleb128 0x49
 7413 01ff 13       		.uleb128 0x13
 7414 0200 11       		.uleb128 0x11
 7415 0201 01       		.uleb128 0x1
 7416 0202 12       		.uleb128 0x12
 7417 0203 06       		.uleb128 0x6
 7418 0204 40       		.uleb128 0x40
 7419 0205 18       		.uleb128 0x18
 7420 0206 9742     		.uleb128 0x2117
 7421 0208 19       		.uleb128 0x19
 7422 0209 01       		.uleb128 0x1
 7423 020a 13       		.uleb128 0x13
 7424 020b 00       		.byte	0
 7425 020c 00       		.byte	0
 7426 020d 24       		.uleb128 0x24
 7427 020e 34       		.uleb128 0x34
 7428 020f 00       		.byte	0
 7429 0210 03       		.uleb128 0x3
 7430 0211 0E       		.uleb128 0xe
 7431 0212 3A       		.uleb128 0x3a
 7432 0213 0B       		.uleb128 0xb
 7433 0214 3B       		.uleb128 0x3b
 7434 0215 0B       		.uleb128 0xb
 7435 0216 49       		.uleb128 0x49
 7436 0217 13       		.uleb128 0x13
 7437 0218 02       		.uleb128 0x2
 7438 0219 17       		.uleb128 0x17
 7439 021a 00       		.byte	0
 7440 021b 00       		.byte	0
 7441 021c 25       		.uleb128 0x25
ARM GAS  C:\Users\gjl\AppData\Local\Temp\ccg70AS9.s 			page 161


 7442 021d 05       		.uleb128 0x5
 7443 021e 00       		.byte	0
 7444 021f 03       		.uleb128 0x3
 7445 0220 08       		.uleb128 0x8
 7446 0221 3A       		.uleb128 0x3a
 7447 0222 0B       		.uleb128 0xb
 7448 0223 3B       		.uleb128 0x3b
 7449 0224 0B       		.uleb128 0xb
 7450 0225 49       		.uleb128 0x49
 7451 0226 13       		.uleb128 0x13
 7452 0227 02       		.uleb128 0x2
 7453 0228 17       		.uleb128 0x17
 7454 0229 00       		.byte	0
 7455 022a 00       		.byte	0
 7456 022b 26       		.uleb128 0x26
 7457 022c 05       		.uleb128 0x5
 7458 022d 00       		.byte	0
 7459 022e 03       		.uleb128 0x3
 7460 022f 08       		.uleb128 0x8
 7461 0230 3A       		.uleb128 0x3a
 7462 0231 0B       		.uleb128 0xb
 7463 0232 3B       		.uleb128 0x3b
 7464 0233 0B       		.uleb128 0xb
 7465 0234 49       		.uleb128 0x49
 7466 0235 13       		.uleb128 0x13
 7467 0236 02       		.uleb128 0x2
 7468 0237 18       		.uleb128 0x18
 7469 0238 00       		.byte	0
 7470 0239 00       		.byte	0
 7471 023a 27       		.uleb128 0x27
 7472 023b 0B       		.uleb128 0xb
 7473 023c 01       		.byte	0x1
 7474 023d 11       		.uleb128 0x11
 7475 023e 01       		.uleb128 0x1
 7476 023f 12       		.uleb128 0x12
 7477 0240 06       		.uleb128 0x6
 7478 0241 00       		.byte	0
 7479 0242 00       		.byte	0
 7480 0243 28       		.uleb128 0x28
 7481 0244 2E       		.uleb128 0x2e
 7482 0245 01       		.byte	0x1
 7483 0246 03       		.uleb128 0x3
 7484 0247 0E       		.uleb128 0xe
 7485 0248 3A       		.uleb128 0x3a
 7486 0249 0B       		.uleb128 0xb
 7487 024a 3B       		.uleb128 0x3b
 7488 024b 05       		.uleb128 0x5
 7489 024c 27       		.uleb128 0x27
 7490 024d 19       		.uleb128 0x19
 7491 024e 11       		.uleb128 0x11
 7492 024f 01       		.uleb128 0x1
 7493 0250 12       		.uleb128 0x12
 7494 0251 06       		.uleb128 0x6
 7495 0252 40       		.uleb128 0x40
 7496 0253 18       		.uleb128 0x18
 7497 0254 9742     		.uleb128 0x2117
 7498 0256 19       		.uleb128 0x19
ARM GAS  C:\Users\gjl\AppData\Local\Temp\ccg70AS9.s 			page 162


 7499 0257 01       		.uleb128 0x1
 7500 0258 13       		.uleb128 0x13
 7501 0259 00       		.byte	0
 7502 025a 00       		.byte	0
 7503 025b 29       		.uleb128 0x29
 7504 025c 34       		.uleb128 0x34
 7505 025d 00       		.byte	0
 7506 025e 03       		.uleb128 0x3
 7507 025f 0E       		.uleb128 0xe
 7508 0260 3A       		.uleb128 0x3a
 7509 0261 0B       		.uleb128 0xb
 7510 0262 3B       		.uleb128 0x3b
 7511 0263 05       		.uleb128 0x5
 7512 0264 49       		.uleb128 0x49
 7513 0265 13       		.uleb128 0x13
 7514 0266 02       		.uleb128 0x2
 7515 0267 17       		.uleb128 0x17
 7516 0268 00       		.byte	0
 7517 0269 00       		.byte	0
 7518 026a 2A       		.uleb128 0x2a
 7519 026b 2E       		.uleb128 0x2e
 7520 026c 01       		.byte	0x1
 7521 026d 3F       		.uleb128 0x3f
 7522 026e 19       		.uleb128 0x19
 7523 026f 03       		.uleb128 0x3
 7524 0270 0E       		.uleb128 0xe
 7525 0271 3A       		.uleb128 0x3a
 7526 0272 0B       		.uleb128 0xb
 7527 0273 3B       		.uleb128 0x3b
 7528 0274 05       		.uleb128 0x5
 7529 0275 27       		.uleb128 0x27
 7530 0276 19       		.uleb128 0x19
 7531 0277 11       		.uleb128 0x11
 7532 0278 01       		.uleb128 0x1
 7533 0279 12       		.uleb128 0x12
 7534 027a 06       		.uleb128 0x6
 7535 027b 40       		.uleb128 0x40
 7536 027c 18       		.uleb128 0x18
 7537 027d 9742     		.uleb128 0x2117
 7538 027f 19       		.uleb128 0x19
 7539 0280 01       		.uleb128 0x1
 7540 0281 13       		.uleb128 0x13
 7541 0282 00       		.byte	0
 7542 0283 00       		.byte	0
 7543 0284 2B       		.uleb128 0x2b
 7544 0285 34       		.uleb128 0x34
 7545 0286 00       		.byte	0
 7546 0287 03       		.uleb128 0x3
 7547 0288 08       		.uleb128 0x8
 7548 0289 3A       		.uleb128 0x3a
 7549 028a 0B       		.uleb128 0xb
 7550 028b 3B       		.uleb128 0x3b
 7551 028c 05       		.uleb128 0x5
 7552 028d 49       		.uleb128 0x49
 7553 028e 13       		.uleb128 0x13
 7554 028f 02       		.uleb128 0x2
 7555 0290 18       		.uleb128 0x18
ARM GAS  C:\Users\gjl\AppData\Local\Temp\ccg70AS9.s 			page 163


 7556 0291 00       		.byte	0
 7557 0292 00       		.byte	0
 7558 0293 2C       		.uleb128 0x2c
 7559 0294 0B       		.uleb128 0xb
 7560 0295 01       		.byte	0x1
 7561 0296 55       		.uleb128 0x55
 7562 0297 17       		.uleb128 0x17
 7563 0298 01       		.uleb128 0x1
 7564 0299 13       		.uleb128 0x13
 7565 029a 00       		.byte	0
 7566 029b 00       		.byte	0
 7567 029c 2D       		.uleb128 0x2d
 7568 029d 05       		.uleb128 0x5
 7569 029e 00       		.byte	0
 7570 029f 03       		.uleb128 0x3
 7571 02a0 0E       		.uleb128 0xe
 7572 02a1 3A       		.uleb128 0x3a
 7573 02a2 0B       		.uleb128 0xb
 7574 02a3 3B       		.uleb128 0x3b
 7575 02a4 05       		.uleb128 0x5
 7576 02a5 49       		.uleb128 0x49
 7577 02a6 13       		.uleb128 0x13
 7578 02a7 02       		.uleb128 0x2
 7579 02a8 18       		.uleb128 0x18
 7580 02a9 00       		.byte	0
 7581 02aa 00       		.byte	0
 7582 02ab 2E       		.uleb128 0x2e
 7583 02ac 898201   		.uleb128 0x4109
 7584 02af 01       		.byte	0x1
 7585 02b0 11       		.uleb128 0x11
 7586 02b1 01       		.uleb128 0x1
 7587 02b2 01       		.uleb128 0x1
 7588 02b3 13       		.uleb128 0x13
 7589 02b4 00       		.byte	0
 7590 02b5 00       		.byte	0
 7591 02b6 2F       		.uleb128 0x2f
 7592 02b7 2E       		.uleb128 0x2e
 7593 02b8 01       		.byte	0x1
 7594 02b9 03       		.uleb128 0x3
 7595 02ba 0E       		.uleb128 0xe
 7596 02bb 3A       		.uleb128 0x3a
 7597 02bc 0B       		.uleb128 0xb
 7598 02bd 3B       		.uleb128 0x3b
 7599 02be 05       		.uleb128 0x5
 7600 02bf 27       		.uleb128 0x27
 7601 02c0 19       		.uleb128 0x19
 7602 02c1 49       		.uleb128 0x49
 7603 02c2 13       		.uleb128 0x13
 7604 02c3 20       		.uleb128 0x20
 7605 02c4 0B       		.uleb128 0xb
 7606 02c5 01       		.uleb128 0x1
 7607 02c6 13       		.uleb128 0x13
 7608 02c7 00       		.byte	0
 7609 02c8 00       		.byte	0
 7610 02c9 30       		.uleb128 0x30
 7611 02ca 05       		.uleb128 0x5
 7612 02cb 00       		.byte	0
ARM GAS  C:\Users\gjl\AppData\Local\Temp\ccg70AS9.s 			page 164


 7613 02cc 03       		.uleb128 0x3
 7614 02cd 0E       		.uleb128 0xe
 7615 02ce 3A       		.uleb128 0x3a
 7616 02cf 0B       		.uleb128 0xb
 7617 02d0 3B       		.uleb128 0x3b
 7618 02d1 05       		.uleb128 0x5
 7619 02d2 49       		.uleb128 0x49
 7620 02d3 13       		.uleb128 0x13
 7621 02d4 00       		.byte	0
 7622 02d5 00       		.byte	0
 7623 02d6 31       		.uleb128 0x31
 7624 02d7 05       		.uleb128 0x5
 7625 02d8 00       		.byte	0
 7626 02d9 03       		.uleb128 0x3
 7627 02da 08       		.uleb128 0x8
 7628 02db 3A       		.uleb128 0x3a
 7629 02dc 0B       		.uleb128 0xb
 7630 02dd 3B       		.uleb128 0x3b
 7631 02de 05       		.uleb128 0x5
 7632 02df 49       		.uleb128 0x49
 7633 02e0 13       		.uleb128 0x13
 7634 02e1 00       		.byte	0
 7635 02e2 00       		.byte	0
 7636 02e3 32       		.uleb128 0x32
 7637 02e4 34       		.uleb128 0x34
 7638 02e5 00       		.byte	0
 7639 02e6 03       		.uleb128 0x3
 7640 02e7 08       		.uleb128 0x8
 7641 02e8 3A       		.uleb128 0x3a
 7642 02e9 0B       		.uleb128 0xb
 7643 02ea 3B       		.uleb128 0x3b
 7644 02eb 05       		.uleb128 0x5
 7645 02ec 49       		.uleb128 0x49
 7646 02ed 13       		.uleb128 0x13
 7647 02ee 00       		.byte	0
 7648 02ef 00       		.byte	0
 7649 02f0 33       		.uleb128 0x33
 7650 02f1 34       		.uleb128 0x34
 7651 02f2 00       		.byte	0
 7652 02f3 03       		.uleb128 0x3
 7653 02f4 0E       		.uleb128 0xe
 7654 02f5 3A       		.uleb128 0x3a
 7655 02f6 0B       		.uleb128 0xb
 7656 02f7 3B       		.uleb128 0x3b
 7657 02f8 05       		.uleb128 0x5
 7658 02f9 49       		.uleb128 0x49
 7659 02fa 13       		.uleb128 0x13
 7660 02fb 00       		.byte	0
 7661 02fc 00       		.byte	0
 7662 02fd 34       		.uleb128 0x34
 7663 02fe 1D       		.uleb128 0x1d
 7664 02ff 01       		.byte	0x1
 7665 0300 31       		.uleb128 0x31
 7666 0301 13       		.uleb128 0x13
 7667 0302 11       		.uleb128 0x11
 7668 0303 01       		.uleb128 0x1
 7669 0304 12       		.uleb128 0x12
ARM GAS  C:\Users\gjl\AppData\Local\Temp\ccg70AS9.s 			page 165


 7670 0305 06       		.uleb128 0x6
 7671 0306 58       		.uleb128 0x58
 7672 0307 0B       		.uleb128 0xb
 7673 0308 59       		.uleb128 0x59
 7674 0309 05       		.uleb128 0x5
 7675 030a 01       		.uleb128 0x1
 7676 030b 13       		.uleb128 0x13
 7677 030c 00       		.byte	0
 7678 030d 00       		.byte	0
 7679 030e 35       		.uleb128 0x35
 7680 030f 34       		.uleb128 0x34
 7681 0310 00       		.byte	0
 7682 0311 31       		.uleb128 0x31
 7683 0312 13       		.uleb128 0x13
 7684 0313 02       		.uleb128 0x2
 7685 0314 17       		.uleb128 0x17
 7686 0315 00       		.byte	0
 7687 0316 00       		.byte	0
 7688 0317 36       		.uleb128 0x36
 7689 0318 898201   		.uleb128 0x4109
 7690 031b 01       		.byte	0x1
 7691 031c 11       		.uleb128 0x11
 7692 031d 01       		.uleb128 0x1
 7693 031e 00       		.byte	0
 7694 031f 00       		.byte	0
 7695 0320 37       		.uleb128 0x37
 7696 0321 1D       		.uleb128 0x1d
 7697 0322 01       		.byte	0x1
 7698 0323 31       		.uleb128 0x31
 7699 0324 13       		.uleb128 0x13
 7700 0325 11       		.uleb128 0x11
 7701 0326 01       		.uleb128 0x1
 7702 0327 12       		.uleb128 0x12
 7703 0328 06       		.uleb128 0x6
 7704 0329 58       		.uleb128 0x58
 7705 032a 0B       		.uleb128 0xb
 7706 032b 59       		.uleb128 0x59
 7707 032c 05       		.uleb128 0x5
 7708 032d 00       		.byte	0
 7709 032e 00       		.byte	0
 7710 032f 38       		.uleb128 0x38
 7711 0330 34       		.uleb128 0x34
 7712 0331 00       		.byte	0
 7713 0332 31       		.uleb128 0x31
 7714 0333 13       		.uleb128 0x13
 7715 0334 02       		.uleb128 0x2
 7716 0335 18       		.uleb128 0x18
 7717 0336 00       		.byte	0
 7718 0337 00       		.byte	0
 7719 0338 39       		.uleb128 0x39
 7720 0339 2E       		.uleb128 0x2e
 7721 033a 00       		.byte	0
 7722 033b 3F       		.uleb128 0x3f
 7723 033c 19       		.uleb128 0x19
 7724 033d 3C       		.uleb128 0x3c
 7725 033e 19       		.uleb128 0x19
 7726 033f 6E       		.uleb128 0x6e
ARM GAS  C:\Users\gjl\AppData\Local\Temp\ccg70AS9.s 			page 166


 7727 0340 0E       		.uleb128 0xe
 7728 0341 03       		.uleb128 0x3
 7729 0342 0E       		.uleb128 0xe
 7730 0343 3A       		.uleb128 0x3a
 7731 0344 0B       		.uleb128 0xb
 7732 0345 3B       		.uleb128 0x3b
 7733 0346 05       		.uleb128 0x5
 7734 0347 00       		.byte	0
 7735 0348 00       		.byte	0
 7736 0349 00       		.byte	0
 7737              		.section	.debug_loc,"",%progbits
 7738              	.Ldebug_loc0:
 7739              	.LLST0:
 7740 0000 00000000 		.4byte	.LVL0
 7741 0004 02000000 		.4byte	.LVL1
 7742 0008 0100     		.2byte	0x1
 7743 000a 50       		.byte	0x50
 7744 000b 02000000 		.4byte	.LVL1
 7745 000f 04000000 		.4byte	.LVL2
 7746 0013 0100     		.2byte	0x1
 7747 0015 51       		.byte	0x51
 7748 0016 04000000 		.4byte	.LVL2
 7749 001a 0E000000 		.4byte	.LFE1
 7750 001e 0300     		.2byte	0x3
 7751 0020 71       		.byte	0x71
 7752 0021 01       		.sleb128 1
 7753 0022 9F       		.byte	0x9f
 7754 0023 00000000 		.4byte	0
 7755 0027 00000000 		.4byte	0
 7756              	.LLST1:
 7757 002b 00000000 		.4byte	.LVL0
 7758 002f 02000000 		.4byte	.LVL1
 7759 0033 0100     		.2byte	0x1
 7760 0035 51       		.byte	0x51
 7761 0036 02000000 		.4byte	.LVL1
 7762 003a 0E000000 		.4byte	.LFE1
 7763 003e 0400     		.2byte	0x4
 7764 0040 F3       		.byte	0xf3
 7765 0041 01       		.uleb128 0x1
 7766 0042 51       		.byte	0x51
 7767 0043 9F       		.byte	0x9f
 7768 0044 00000000 		.4byte	0
 7769 0048 00000000 		.4byte	0
 7770              	.LLST2:
 7771 004c 04000000 		.4byte	.LVL2
 7772 0050 08000000 		.4byte	.LVL3
 7773 0054 0100     		.2byte	0x1
 7774 0056 50       		.byte	0x50
 7775 0057 08000000 		.4byte	.LVL3
 7776 005b 0A000000 		.4byte	.LVL4
 7777 005f 0B00     		.2byte	0xb
 7778 0061 71       		.byte	0x71
 7779 0062 01       		.sleb128 1
 7780 0063 94       		.byte	0x94
 7781 0064 01       		.byte	0x1
 7782 0065 08       		.byte	0x8
 7783 0066 FF       		.byte	0xff
ARM GAS  C:\Users\gjl\AppData\Local\Temp\ccg70AS9.s 			page 167


 7784 0067 1A       		.byte	0x1a
 7785 0068 70       		.byte	0x70
 7786 0069 00       		.sleb128 0
 7787 006a 22       		.byte	0x22
 7788 006b 9F       		.byte	0x9f
 7789 006c 0A000000 		.4byte	.LVL4
 7790 0070 0E000000 		.4byte	.LFE1
 7791 0074 1200     		.2byte	0x12
 7792 0076 71       		.byte	0x71
 7793 0077 01       		.sleb128 1
 7794 0078 94       		.byte	0x94
 7795 0079 01       		.byte	0x1
 7796 007a 08       		.byte	0x8
 7797 007b FF       		.byte	0xff
 7798 007c 1A       		.byte	0x1a
 7799 007d 71       		.byte	0x71
 7800 007e 00       		.sleb128 0
 7801 007f 94       		.byte	0x94
 7802 0080 01       		.byte	0x1
 7803 0081 08       		.byte	0x8
 7804 0082 FF       		.byte	0xff
 7805 0083 1A       		.byte	0x1a
 7806 0084 38       		.byte	0x38
 7807 0085 24       		.byte	0x24
 7808 0086 22       		.byte	0x22
 7809 0087 9F       		.byte	0x9f
 7810 0088 00000000 		.4byte	0
 7811 008c 00000000 		.4byte	0
 7812              	.LLST3:
 7813 0090 00000000 		.4byte	.LVL5
 7814 0094 1C000000 		.4byte	.LVL7
 7815 0098 0100     		.2byte	0x1
 7816 009a 50       		.byte	0x50
 7817 009b 1C000000 		.4byte	.LVL7
 7818 009f 1E000000 		.4byte	.LVL8
 7819 00a3 0400     		.2byte	0x4
 7820 00a5 F3       		.byte	0xf3
 7821 00a6 01       		.uleb128 0x1
 7822 00a7 50       		.byte	0x50
 7823 00a8 9F       		.byte	0x9f
 7824 00a9 1E000000 		.4byte	.LVL8
 7825 00ad 20000000 		.4byte	.LVL9
 7826 00b1 0100     		.2byte	0x1
 7827 00b3 54       		.byte	0x54
 7828 00b4 00000000 		.4byte	0
 7829 00b8 00000000 		.4byte	0
 7830              	.LLST4:
 7831 00bc 00000000 		.4byte	.LVL5
 7832 00c0 14000000 		.4byte	.LVL6
 7833 00c4 0100     		.2byte	0x1
 7834 00c6 52       		.byte	0x52
 7835 00c7 14000000 		.4byte	.LVL6
 7836 00cb 22000000 		.4byte	.LFE11
 7837 00cf 0400     		.2byte	0x4
 7838 00d1 F3       		.byte	0xf3
 7839 00d2 01       		.uleb128 0x1
 7840 00d3 52       		.byte	0x52
ARM GAS  C:\Users\gjl\AppData\Local\Temp\ccg70AS9.s 			page 168


 7841 00d4 9F       		.byte	0x9f
 7842 00d5 00000000 		.4byte	0
 7843 00d9 00000000 		.4byte	0
 7844              	.LLST5:
 7845 00dd 00000000 		.4byte	.LVL10
 7846 00e1 1E000000 		.4byte	.LVL13
 7847 00e5 0100     		.2byte	0x1
 7848 00e7 50       		.byte	0x50
 7849 00e8 1E000000 		.4byte	.LVL13
 7850 00ec 20000000 		.4byte	.LVL14
 7851 00f0 0100     		.2byte	0x1
 7852 00f2 54       		.byte	0x54
 7853 00f3 00000000 		.4byte	0
 7854 00f7 00000000 		.4byte	0
 7855              	.LLST6:
 7856 00fb 00000000 		.4byte	.LVL10
 7857 00ff 14000000 		.4byte	.LVL11
 7858 0103 0100     		.2byte	0x1
 7859 0105 51       		.byte	0x51
 7860 0106 14000000 		.4byte	.LVL11
 7861 010a 22000000 		.4byte	.LFE12
 7862 010e 0400     		.2byte	0x4
 7863 0110 F3       		.byte	0xf3
 7864 0111 01       		.uleb128 0x1
 7865 0112 51       		.byte	0x51
 7866 0113 9F       		.byte	0x9f
 7867 0114 00000000 		.4byte	0
 7868 0118 00000000 		.4byte	0
 7869              	.LLST7:
 7870 011c 00000000 		.4byte	.LVL10
 7871 0120 1C000000 		.4byte	.LVL12
 7872 0124 0100     		.2byte	0x1
 7873 0126 52       		.byte	0x52
 7874 0127 1C000000 		.4byte	.LVL12
 7875 012b 22000000 		.4byte	.LFE12
 7876 012f 0400     		.2byte	0x4
 7877 0131 F3       		.byte	0xf3
 7878 0132 01       		.uleb128 0x1
 7879 0133 52       		.byte	0x52
 7880 0134 9F       		.byte	0x9f
 7881 0135 00000000 		.4byte	0
 7882 0139 00000000 		.4byte	0
 7883              	.LLST8:
 7884 013d 00000000 		.4byte	.LVL15
 7885 0141 02000000 		.4byte	.LVL16
 7886 0145 0100     		.2byte	0x1
 7887 0147 50       		.byte	0x50
 7888 0148 02000000 		.4byte	.LVL16
 7889 014c 04000000 		.4byte	.LFE31
 7890 0150 0400     		.2byte	0x4
 7891 0152 F3       		.byte	0xf3
 7892 0153 01       		.uleb128 0x1
 7893 0154 50       		.byte	0x50
 7894 0155 9F       		.byte	0x9f
 7895 0156 00000000 		.4byte	0
 7896 015a 00000000 		.4byte	0
 7897              	.LLST9:
ARM GAS  C:\Users\gjl\AppData\Local\Temp\ccg70AS9.s 			page 169


 7898 015e 00000000 		.4byte	.LVL17
 7899 0162 02000000 		.4byte	.LVL18
 7900 0166 0100     		.2byte	0x1
 7901 0168 50       		.byte	0x50
 7902 0169 02000000 		.4byte	.LVL18
 7903 016d 04000000 		.4byte	.LVL19
 7904 0171 0400     		.2byte	0x4
 7905 0173 70       		.byte	0x70
 7906 0174 867F     		.sleb128 -122
 7907 0176 9F       		.byte	0x9f
 7908 0177 04000000 		.4byte	.LVL19
 7909 017b 06000000 		.4byte	.LFE33
 7910 017f 0400     		.2byte	0x4
 7911 0181 F3       		.byte	0xf3
 7912 0182 01       		.uleb128 0x1
 7913 0183 50       		.byte	0x50
 7914 0184 9F       		.byte	0x9f
 7915 0185 00000000 		.4byte	0
 7916 0189 00000000 		.4byte	0
 7917              	.LLST10:
 7918 018d 00000000 		.4byte	.LVL20
 7919 0191 02000000 		.4byte	.LVL21
 7920 0195 0100     		.2byte	0x1
 7921 0197 50       		.byte	0x50
 7922 0198 02000000 		.4byte	.LVL21
 7923 019c 04000000 		.4byte	.LVL22
 7924 01a0 0400     		.2byte	0x4
 7925 01a2 70       		.byte	0x70
 7926 01a3 877F     		.sleb128 -121
 7927 01a5 9F       		.byte	0x9f
 7928 01a6 04000000 		.4byte	.LVL22
 7929 01aa 0A000000 		.4byte	.LFE35
 7930 01ae 0400     		.2byte	0x4
 7931 01b0 F3       		.byte	0xf3
 7932 01b1 01       		.uleb128 0x1
 7933 01b2 50       		.byte	0x50
 7934 01b3 9F       		.byte	0x9f
 7935 01b4 00000000 		.4byte	0
 7936 01b8 00000000 		.4byte	0
 7937              	.LLST11:
 7938 01bc 04000000 		.4byte	.LVL22
 7939 01c0 06000000 		.4byte	.LVL23
 7940 01c4 0300     		.2byte	0x3
 7941 01c6 70       		.byte	0x70
 7942 01c7 01       		.sleb128 1
 7943 01c8 9F       		.byte	0x9f
 7944 01c9 06000000 		.4byte	.LVL23
 7945 01cd 08000000 		.4byte	.LVL24
 7946 01d1 0300     		.2byte	0x3
 7947 01d3 70       		.byte	0x70
 7948 01d4 00       		.sleb128 0
 7949 01d5 9F       		.byte	0x9f
 7950 01d6 08000000 		.4byte	.LVL24
 7951 01da 0A000000 		.4byte	.LFE35
 7952 01de 0A00     		.2byte	0xa
 7953 01e0 F3       		.byte	0xf3
 7954 01e1 01       		.uleb128 0x1
ARM GAS  C:\Users\gjl\AppData\Local\Temp\ccg70AS9.s 			page 170


 7955 01e2 50       		.byte	0x50
 7956 01e3 23       		.byte	0x23
 7957 01e4 79       		.uleb128 0x79
 7958 01e5 94       		.byte	0x94
 7959 01e6 01       		.byte	0x1
 7960 01e7 23       		.byte	0x23
 7961 01e8 01       		.uleb128 0x1
 7962 01e9 9F       		.byte	0x9f
 7963 01ea 00000000 		.4byte	0
 7964 01ee 00000000 		.4byte	0
 7965              	.LLST12:
 7966 01f2 00000000 		.4byte	.LVL25
 7967 01f6 0A000000 		.4byte	.LVL27
 7968 01fa 0100     		.2byte	0x1
 7969 01fc 50       		.byte	0x50
 7970 01fd 0A000000 		.4byte	.LVL27
 7971 0201 0C000000 		.4byte	.LVL28
 7972 0205 0400     		.2byte	0x4
 7973 0207 73       		.byte	0x73
 7974 0208 867F     		.sleb128 -122
 7975 020a 9F       		.byte	0x9f
 7976 020b 0C000000 		.4byte	.LVL28
 7977 020f 12000000 		.4byte	.LVL30
 7978 0213 0400     		.2byte	0x4
 7979 0215 72       		.byte	0x72
 7980 0216 877F     		.sleb128 -121
 7981 0218 9F       		.byte	0x9f
 7982 0219 12000000 		.4byte	.LVL30
 7983 021d 1C000000 		.4byte	.LFE37
 7984 0221 0400     		.2byte	0x4
 7985 0223 F3       		.byte	0xf3
 7986 0224 01       		.uleb128 0x1
 7987 0225 50       		.byte	0x50
 7988 0226 9F       		.byte	0x9f
 7989 0227 00000000 		.4byte	0
 7990 022b 00000000 		.4byte	0
 7991              	.LLST13:
 7992 022f 00000000 		.4byte	.LVL25
 7993 0233 06000000 		.4byte	.LVL26
 7994 0237 0300     		.2byte	0x3
 7995 0239 70       		.byte	0x70
 7996 023a F900     		.sleb128 121
 7997 023c 06000000 		.4byte	.LVL26
 7998 0240 10000000 		.4byte	.LVL29
 7999 0244 0200     		.2byte	0x2
 8000 0246 72       		.byte	0x72
 8001 0247 00       		.sleb128 0
 8002 0248 10000000 		.4byte	.LVL29
 8003 024c 14000000 		.4byte	.LVL31
 8004 0250 0800     		.2byte	0x8
 8005 0252 73       		.byte	0x73
 8006 0253 00       		.sleb128 0
 8007 0254 32       		.byte	0x32
 8008 0255 1B       		.byte	0x1b
 8009 0256 70       		.byte	0x70
 8010 0257 00       		.sleb128 0
 8011 0258 22       		.byte	0x22
ARM GAS  C:\Users\gjl\AppData\Local\Temp\ccg70AS9.s 			page 171


 8012 0259 9F       		.byte	0x9f
 8013 025a 14000000 		.4byte	.LVL31
 8014 025e 18000000 		.4byte	.LVL32
 8015 0262 1300     		.2byte	0x13
 8016 0264 F3       		.byte	0xf3
 8017 0265 01       		.uleb128 0x1
 8018 0266 50       		.byte	0x50
 8019 0267 23       		.byte	0x23
 8020 0268 79       		.uleb128 0x79
 8021 0269 94       		.byte	0x94
 8022 026a 01       		.byte	0x1
 8023 026b 08       		.byte	0x8
 8024 026c FF       		.byte	0xff
 8025 026d 1A       		.byte	0x1a
 8026 026e 70       		.byte	0x70
 8027 026f 00       		.sleb128 0
 8028 0270 1C       		.byte	0x1c
 8029 0271 32       		.byte	0x32
 8030 0272 1B       		.byte	0x1b
 8031 0273 70       		.byte	0x70
 8032 0274 00       		.sleb128 0
 8033 0275 22       		.byte	0x22
 8034 0276 9F       		.byte	0x9f
 8035 0277 18000000 		.4byte	.LVL32
 8036 027b 1C000000 		.4byte	.LFE37
 8037 027f 2000     		.2byte	0x20
 8038 0281 F3       		.byte	0xf3
 8039 0282 01       		.uleb128 0x1
 8040 0283 50       		.byte	0x50
 8041 0284 23       		.byte	0x23
 8042 0285 79       		.uleb128 0x79
 8043 0286 94       		.byte	0x94
 8044 0287 01       		.byte	0x1
 8045 0288 08       		.byte	0x8
 8046 0289 FF       		.byte	0xff
 8047 028a 1A       		.byte	0x1a
 8048 028b F3       		.byte	0xf3
 8049 028c 01       		.uleb128 0x1
 8050 028d 50       		.byte	0x50
 8051 028e 23       		.byte	0x23
 8052 028f 7A       		.uleb128 0x7a
 8053 0290 94       		.byte	0x94
 8054 0291 01       		.byte	0x1
 8055 0292 08       		.byte	0x8
 8056 0293 FF       		.byte	0xff
 8057 0294 1A       		.byte	0x1a
 8058 0295 1C       		.byte	0x1c
 8059 0296 32       		.byte	0x32
 8060 0297 1B       		.byte	0x1b
 8061 0298 F3       		.byte	0xf3
 8062 0299 01       		.uleb128 0x1
 8063 029a 50       		.byte	0x50
 8064 029b 23       		.byte	0x23
 8065 029c 7A       		.uleb128 0x7a
 8066 029d 94       		.byte	0x94
 8067 029e 01       		.byte	0x1
 8068 029f 22       		.byte	0x22
ARM GAS  C:\Users\gjl\AppData\Local\Temp\ccg70AS9.s 			page 172


 8069 02a0 9F       		.byte	0x9f
 8070 02a1 00000000 		.4byte	0
 8071 02a5 00000000 		.4byte	0
 8072              	.LLST14:
 8073 02a9 00000000 		.4byte	.LVL33
 8074 02ad 4E000000 		.4byte	.LVL52
 8075 02b1 0100     		.2byte	0x1
 8076 02b3 50       		.byte	0x50
 8077 02b4 4E000000 		.4byte	.LVL52
 8078 02b8 68000000 		.4byte	.LVL56
 8079 02bc 0100     		.2byte	0x1
 8080 02be 54       		.byte	0x54
 8081 02bf 68000000 		.4byte	.LVL56
 8082 02c3 6A000000 		.4byte	.LFE2
 8083 02c7 0400     		.2byte	0x4
 8084 02c9 F3       		.byte	0xf3
 8085 02ca 01       		.uleb128 0x1
 8086 02cb 50       		.byte	0x50
 8087 02cc 9F       		.byte	0x9f
 8088 02cd 00000000 		.4byte	0
 8089 02d1 00000000 		.4byte	0
 8090              	.LLST15:
 8091 02d5 00000000 		.4byte	.LVL33
 8092 02d9 4A000000 		.4byte	.LVL51
 8093 02dd 0100     		.2byte	0x1
 8094 02df 51       		.byte	0x51
 8095 02e0 4A000000 		.4byte	.LVL51
 8096 02e4 68000000 		.4byte	.LVL57
 8097 02e8 0100     		.2byte	0x1
 8098 02ea 55       		.byte	0x55
 8099 02eb 68000000 		.4byte	.LVL57
 8100 02ef 6A000000 		.4byte	.LFE2
 8101 02f3 0400     		.2byte	0x4
 8102 02f5 F3       		.byte	0xf3
 8103 02f6 01       		.uleb128 0x1
 8104 02f7 51       		.byte	0x51
 8105 02f8 9F       		.byte	0x9f
 8106 02f9 00000000 		.4byte	0
 8107 02fd 00000000 		.4byte	0
 8108              	.LLST16:
 8109 0301 00000000 		.4byte	.LVL33
 8110 0305 04000000 		.4byte	.LVL34
 8111 0309 0200     		.2byte	0x2
 8112 030b 30       		.byte	0x30
 8113 030c 9F       		.byte	0x9f
 8114 030d 00000000 		.4byte	0
 8115 0311 00000000 		.4byte	0
 8116              	.LLST17:
 8117 0315 00000000 		.4byte	.LVL33
 8118 0319 04000000 		.4byte	.LVL34
 8119 031d 0100     		.2byte	0x1
 8120 031f 51       		.byte	0x51
 8121 0320 00000000 		.4byte	0
 8122 0324 00000000 		.4byte	0
 8123              	.LLST18:
 8124 0328 08000000 		.4byte	.LVL35
 8125 032c 0A000000 		.4byte	.LVL36
ARM GAS  C:\Users\gjl\AppData\Local\Temp\ccg70AS9.s 			page 173


 8126 0330 0200     		.2byte	0x2
 8127 0332 31       		.byte	0x31
 8128 0333 9F       		.byte	0x9f
 8129 0334 00000000 		.4byte	0
 8130 0338 00000000 		.4byte	0
 8131              	.LLST19:
 8132 033c 08000000 		.4byte	.LVL35
 8133 0340 0A000000 		.4byte	.LVL36
 8134 0344 0300     		.2byte	0x3
 8135 0346 71       		.byte	0x71
 8136 0347 01       		.sleb128 1
 8137 0348 9F       		.byte	0x9f
 8138 0349 00000000 		.4byte	0
 8139 034d 00000000 		.4byte	0
 8140              	.LLST20:
 8141 0351 0E000000 		.4byte	.LVL37
 8142 0355 10000000 		.4byte	.LVL38
 8143 0359 0200     		.2byte	0x2
 8144 035b 32       		.byte	0x32
 8145 035c 9F       		.byte	0x9f
 8146 035d 00000000 		.4byte	0
 8147 0361 00000000 		.4byte	0
 8148              	.LLST21:
 8149 0365 0E000000 		.4byte	.LVL37
 8150 0369 10000000 		.4byte	.LVL38
 8151 036d 0300     		.2byte	0x3
 8152 036f 71       		.byte	0x71
 8153 0370 02       		.sleb128 2
 8154 0371 9F       		.byte	0x9f
 8155 0372 00000000 		.4byte	0
 8156 0376 00000000 		.4byte	0
 8157              	.LLST22:
 8158 037a 12000000 		.4byte	.LVL39
 8159 037e 14000000 		.4byte	.LVL40
 8160 0382 0200     		.2byte	0x2
 8161 0384 33       		.byte	0x33
 8162 0385 9F       		.byte	0x9f
 8163 0386 00000000 		.4byte	0
 8164 038a 00000000 		.4byte	0
 8165              	.LLST23:
 8166 038e 12000000 		.4byte	.LVL39
 8167 0392 14000000 		.4byte	.LVL40
 8168 0396 0300     		.2byte	0x3
 8169 0398 71       		.byte	0x71
 8170 0399 03       		.sleb128 3
 8171 039a 9F       		.byte	0x9f
 8172 039b 00000000 		.4byte	0
 8173 039f 00000000 		.4byte	0
 8174              	.LLST24:
 8175 03a3 16000000 		.4byte	.LVL41
 8176 03a7 18000000 		.4byte	.LVL42
 8177 03ab 0200     		.2byte	0x2
 8178 03ad 34       		.byte	0x34
 8179 03ae 9F       		.byte	0x9f
 8180 03af 00000000 		.4byte	0
 8181 03b3 00000000 		.4byte	0
 8182              	.LLST25:
ARM GAS  C:\Users\gjl\AppData\Local\Temp\ccg70AS9.s 			page 174


 8183 03b7 16000000 		.4byte	.LVL41
 8184 03bb 18000000 		.4byte	.LVL42
 8185 03bf 0300     		.2byte	0x3
 8186 03c1 71       		.byte	0x71
 8187 03c2 04       		.sleb128 4
 8188 03c3 9F       		.byte	0x9f
 8189 03c4 00000000 		.4byte	0
 8190 03c8 00000000 		.4byte	0
 8191              	.LLST26:
 8192 03cc 1A000000 		.4byte	.LVL43
 8193 03d0 1C000000 		.4byte	.LVL44
 8194 03d4 0200     		.2byte	0x2
 8195 03d6 35       		.byte	0x35
 8196 03d7 9F       		.byte	0x9f
 8197 03d8 00000000 		.4byte	0
 8198 03dc 00000000 		.4byte	0
 8199              	.LLST27:
 8200 03e0 1A000000 		.4byte	.LVL43
 8201 03e4 1C000000 		.4byte	.LVL44
 8202 03e8 0300     		.2byte	0x3
 8203 03ea 71       		.byte	0x71
 8204 03eb 05       		.sleb128 5
 8205 03ec 9F       		.byte	0x9f
 8206 03ed 00000000 		.4byte	0
 8207 03f1 00000000 		.4byte	0
 8208              	.LLST28:
 8209 03f5 1E000000 		.4byte	.LVL45
 8210 03f9 20000000 		.4byte	.LVL46
 8211 03fd 0200     		.2byte	0x2
 8212 03ff 36       		.byte	0x36
 8213 0400 9F       		.byte	0x9f
 8214 0401 00000000 		.4byte	0
 8215 0405 00000000 		.4byte	0
 8216              	.LLST29:
 8217 0409 1E000000 		.4byte	.LVL45
 8218 040d 20000000 		.4byte	.LVL46
 8219 0411 0300     		.2byte	0x3
 8220 0413 71       		.byte	0x71
 8221 0414 06       		.sleb128 6
 8222 0415 9F       		.byte	0x9f
 8223 0416 00000000 		.4byte	0
 8224 041a 00000000 		.4byte	0
 8225              	.LLST30:
 8226 041e 22000000 		.4byte	.LVL47
 8227 0422 24000000 		.4byte	.LVL48
 8228 0426 0200     		.2byte	0x2
 8229 0428 37       		.byte	0x37
 8230 0429 9F       		.byte	0x9f
 8231 042a 00000000 		.4byte	0
 8232 042e 00000000 		.4byte	0
 8233              	.LLST31:
 8234 0432 22000000 		.4byte	.LVL47
 8235 0436 24000000 		.4byte	.LVL48
 8236 043a 0300     		.2byte	0x3
 8237 043c 71       		.byte	0x71
 8238 043d 07       		.sleb128 7
 8239 043e 9F       		.byte	0x9f
ARM GAS  C:\Users\gjl\AppData\Local\Temp\ccg70AS9.s 			page 175


 8240 043f 00000000 		.4byte	0
 8241 0443 00000000 		.4byte	0
 8242              	.LLST32:
 8243 0447 26000000 		.4byte	.LVL49
 8244 044b 28000000 		.4byte	.LVL50
 8245 044f 0200     		.2byte	0x2
 8246 0451 38       		.byte	0x38
 8247 0452 9F       		.byte	0x9f
 8248 0453 00000000 		.4byte	0
 8249 0457 00000000 		.4byte	0
 8250              	.LLST33:
 8251 045b 26000000 		.4byte	.LVL49
 8252 045f 28000000 		.4byte	.LVL50
 8253 0463 0300     		.2byte	0x3
 8254 0465 71       		.byte	0x71
 8255 0466 08       		.sleb128 8
 8256 0467 9F       		.byte	0x9f
 8257 0468 00000000 		.4byte	0
 8258 046c 00000000 		.4byte	0
 8259              	.LLST34:
 8260 0470 00000000 		.4byte	.LVL58
 8261 0474 22000000 		.4byte	.LVL67
 8262 0478 0100     		.2byte	0x1
 8263 047a 50       		.byte	0x50
 8264 047b 22000000 		.4byte	.LVL67
 8265 047f 26000000 		.4byte	.LFE3
 8266 0483 0400     		.2byte	0x4
 8267 0485 F3       		.byte	0xf3
 8268 0486 01       		.uleb128 0x1
 8269 0487 50       		.byte	0x50
 8270 0488 9F       		.byte	0x9f
 8271 0489 00000000 		.4byte	0
 8272 048d 00000000 		.4byte	0
 8273              	.LLST35:
 8274 0491 12000000 		.4byte	.LVL62
 8275 0495 16000000 		.4byte	.LVL63
 8276 0499 0100     		.2byte	0x1
 8277 049b 52       		.byte	0x52
 8278 049c 16000000 		.4byte	.LVL63
 8279 04a0 18000000 		.4byte	.LVL64
 8280 04a4 0B00     		.2byte	0xb
 8281 04a6 73       		.byte	0x73
 8282 04a7 01       		.sleb128 1
 8283 04a8 94       		.byte	0x94
 8284 04a9 01       		.byte	0x1
 8285 04aa 08       		.byte	0x8
 8286 04ab FF       		.byte	0xff
 8287 04ac 1A       		.byte	0x1a
 8288 04ad 72       		.byte	0x72
 8289 04ae 00       		.sleb128 0
 8290 04af 21       		.byte	0x21
 8291 04b0 9F       		.byte	0x9f
 8292 04b1 18000000 		.4byte	.LVL64
 8293 04b5 1E000000 		.4byte	.LVL65
 8294 04b9 1200     		.2byte	0x12
 8295 04bb 73       		.byte	0x73
 8296 04bc 01       		.sleb128 1
ARM GAS  C:\Users\gjl\AppData\Local\Temp\ccg70AS9.s 			page 176


 8297 04bd 94       		.byte	0x94
 8298 04be 01       		.byte	0x1
 8299 04bf 08       		.byte	0x8
 8300 04c0 FF       		.byte	0xff
 8301 04c1 1A       		.byte	0x1a
 8302 04c2 73       		.byte	0x73
 8303 04c3 00       		.sleb128 0
 8304 04c4 94       		.byte	0x94
 8305 04c5 01       		.byte	0x1
 8306 04c6 08       		.byte	0x8
 8307 04c7 FF       		.byte	0xff
 8308 04c8 1A       		.byte	0x1a
 8309 04c9 38       		.byte	0x38
 8310 04ca 24       		.byte	0x24
 8311 04cb 21       		.byte	0x21
 8312 04cc 9F       		.byte	0x9f
 8313 04cd 20000000 		.4byte	.LVL66
 8314 04d1 26000000 		.4byte	.LFE3
 8315 04d5 1000     		.2byte	0x10
 8316 04d7 71       		.byte	0x71
 8317 04d8 00       		.sleb128 0
 8318 04d9 08       		.byte	0x8
 8319 04da FF       		.byte	0xff
 8320 04db 1A       		.byte	0x1a
 8321 04dc 73       		.byte	0x73
 8322 04dd 00       		.sleb128 0
 8323 04de 94       		.byte	0x94
 8324 04df 01       		.byte	0x1
 8325 04e0 08       		.byte	0x8
 8326 04e1 FF       		.byte	0xff
 8327 04e2 1A       		.byte	0x1a
 8328 04e3 38       		.byte	0x38
 8329 04e4 24       		.byte	0x24
 8330 04e5 21       		.byte	0x21
 8331 04e6 9F       		.byte	0x9f
 8332 04e7 00000000 		.4byte	0
 8333 04eb 00000000 		.4byte	0
 8334              	.LLST36:
 8335 04ef 00000000 		.4byte	.LVL58
 8336 04f3 04000000 		.4byte	.LVL59
 8337 04f7 0100     		.2byte	0x1
 8338 04f9 50       		.byte	0x50
 8339 04fa 04000000 		.4byte	.LVL59
 8340 04fe 26000000 		.4byte	.LFE3
 8341 0502 0100     		.2byte	0x1
 8342 0504 53       		.byte	0x53
 8343 0505 00000000 		.4byte	0
 8344 0509 00000000 		.4byte	0
 8345              	.LLST37:
 8346 050d 00000000 		.4byte	.LVL68
 8347 0511 02000000 		.4byte	.LVL69
 8348 0515 0100     		.2byte	0x1
 8349 0517 50       		.byte	0x50
 8350 0518 02000000 		.4byte	.LVL69
 8351 051c 04000000 		.4byte	.LVL70
 8352 0520 0400     		.2byte	0x4
 8353 0522 70       		.byte	0x70
ARM GAS  C:\Users\gjl\AppData\Local\Temp\ccg70AS9.s 			page 177


 8354 0523 977F     		.sleb128 -105
 8355 0525 9F       		.byte	0x9f
 8356 0526 04000000 		.4byte	.LVL70
 8357 052a 06000000 		.4byte	.LFE4
 8358 052e 0400     		.2byte	0x4
 8359 0530 F3       		.byte	0xf3
 8360 0531 01       		.uleb128 0x1
 8361 0532 50       		.byte	0x50
 8362 0533 9F       		.byte	0x9f
 8363 0534 00000000 		.4byte	0
 8364 0538 00000000 		.4byte	0
 8365              	.LLST38:
 8366 053c 00000000 		.4byte	.LVL71
 8367 0540 02000000 		.4byte	.LVL72
 8368 0544 0100     		.2byte	0x1
 8369 0546 50       		.byte	0x50
 8370 0547 02000000 		.4byte	.LVL72
 8371 054b 04000000 		.4byte	.LVL73
 8372 054f 0400     		.2byte	0x4
 8373 0551 70       		.byte	0x70
 8374 0552 967F     		.sleb128 -106
 8375 0554 9F       		.byte	0x9f
 8376 0555 04000000 		.4byte	.LVL73
 8377 0559 06000000 		.4byte	.LFE5
 8378 055d 0400     		.2byte	0x4
 8379 055f F3       		.byte	0xf3
 8380 0560 01       		.uleb128 0x1
 8381 0561 50       		.byte	0x50
 8382 0562 9F       		.byte	0x9f
 8383 0563 00000000 		.4byte	0
 8384 0567 00000000 		.4byte	0
 8385              	.LLST39:
 8386 056b 00000000 		.4byte	.LVL74
 8387 056f 02000000 		.4byte	.LVL75
 8388 0573 0100     		.2byte	0x1
 8389 0575 50       		.byte	0x50
 8390 0576 02000000 		.4byte	.LVL75
 8391 057a 04000000 		.4byte	.LVL76
 8392 057e 0400     		.2byte	0x4
 8393 0580 70       		.byte	0x70
 8394 0581 957F     		.sleb128 -107
 8395 0583 9F       		.byte	0x9f
 8396 0584 04000000 		.4byte	.LVL76
 8397 0588 08000000 		.4byte	.LFE6
 8398 058c 0400     		.2byte	0x4
 8399 058e F3       		.byte	0xf3
 8400 058f 01       		.uleb128 0x1
 8401 0590 50       		.byte	0x50
 8402 0591 9F       		.byte	0x9f
 8403 0592 00000000 		.4byte	0
 8404 0596 00000000 		.4byte	0
 8405              	.LLST40:
 8406 059a 00000000 		.4byte	.LVL77
 8407 059e 02000000 		.4byte	.LVL78
 8408 05a2 0100     		.2byte	0x1
 8409 05a4 50       		.byte	0x50
 8410 05a5 02000000 		.4byte	.LVL78
ARM GAS  C:\Users\gjl\AppData\Local\Temp\ccg70AS9.s 			page 178


 8411 05a9 04000000 		.4byte	.LVL79
 8412 05ad 0400     		.2byte	0x4
 8413 05af 70       		.byte	0x70
 8414 05b0 947F     		.sleb128 -108
 8415 05b2 9F       		.byte	0x9f
 8416 05b3 04000000 		.4byte	.LVL79
 8417 05b7 08000000 		.4byte	.LFE7
 8418 05bb 0400     		.2byte	0x4
 8419 05bd F3       		.byte	0xf3
 8420 05be 01       		.uleb128 0x1
 8421 05bf 50       		.byte	0x50
 8422 05c0 9F       		.byte	0x9f
 8423 05c1 00000000 		.4byte	0
 8424 05c5 00000000 		.4byte	0
 8425              	.LLST41:
 8426 05c9 00000000 		.4byte	.LVL80
 8427 05cd 02000000 		.4byte	.LVL81
 8428 05d1 0100     		.2byte	0x1
 8429 05d3 50       		.byte	0x50
 8430 05d4 02000000 		.4byte	.LVL81
 8431 05d8 04000000 		.4byte	.LVL82
 8432 05dc 0400     		.2byte	0x4
 8433 05de 70       		.byte	0x70
 8434 05df 937F     		.sleb128 -109
 8435 05e1 9F       		.byte	0x9f
 8436 05e2 04000000 		.4byte	.LVL82
 8437 05e6 06000000 		.4byte	.LFE8
 8438 05ea 0400     		.2byte	0x4
 8439 05ec F3       		.byte	0xf3
 8440 05ed 01       		.uleb128 0x1
 8441 05ee 50       		.byte	0x50
 8442 05ef 9F       		.byte	0x9f
 8443 05f0 00000000 		.4byte	0
 8444 05f4 00000000 		.4byte	0
 8445              	.LLST42:
 8446 05f8 00000000 		.4byte	.LVL83
 8447 05fc 30000000 		.4byte	.LVL91
 8448 0600 0100     		.2byte	0x1
 8449 0602 50       		.byte	0x50
 8450 0603 30000000 		.4byte	.LVL91
 8451 0607 38000000 		.4byte	.LFE9
 8452 060b 0400     		.2byte	0x4
 8453 060d F3       		.byte	0xf3
 8454 060e 01       		.uleb128 0x1
 8455 060f 50       		.byte	0x50
 8456 0610 9F       		.byte	0x9f
 8457 0611 00000000 		.4byte	0
 8458 0615 00000000 		.4byte	0
 8459              	.LLST43:
 8460 0619 06000000 		.4byte	.LVL84
 8461 061d 0E000000 		.4byte	.LVL85
 8462 0621 0200     		.2byte	0x2
 8463 0623 74       		.byte	0x74
 8464 0624 00       		.sleb128 0
 8465 0625 0E000000 		.4byte	.LVL85
 8466 0629 28000000 		.4byte	.LVL88
 8467 062d 0100     		.2byte	0x1
ARM GAS  C:\Users\gjl\AppData\Local\Temp\ccg70AS9.s 			page 179


 8468 062f 53       		.byte	0x53
 8469 0630 2A000000 		.4byte	.LVL89
 8470 0634 2C000000 		.4byte	.LVL90
 8471 0638 0100     		.2byte	0x1
 8472 063a 53       		.byte	0x53
 8473 063b 2C000000 		.4byte	.LVL90
 8474 063f 38000000 		.4byte	.LFE9
 8475 0643 0A00     		.2byte	0xa
 8476 0645 31       		.byte	0x31
 8477 0646 71       		.byte	0x71
 8478 0647 00       		.sleb128 0
 8479 0648 24       		.byte	0x24
 8480 0649 31       		.byte	0x31
 8481 064a 1C       		.byte	0x1c
 8482 064b 73       		.byte	0x73
 8483 064c 00       		.sleb128 0
 8484 064d 1A       		.byte	0x1a
 8485 064e 9F       		.byte	0x9f
 8486 064f 00000000 		.4byte	0
 8487 0653 00000000 		.4byte	0
 8488              	.LLST44:
 8489 0657 06000000 		.4byte	.LVL84
 8490 065b 36000000 		.4byte	.LVL92
 8491 065f 0100     		.2byte	0x1
 8492 0661 56       		.byte	0x56
 8493 0662 00000000 		.4byte	0
 8494 0666 00000000 		.4byte	0
 8495              	.LLST45:
 8496 066a 0E000000 		.4byte	.LVL85
 8497 066e 26000000 		.4byte	.LVL87
 8498 0672 0100     		.2byte	0x1
 8499 0674 52       		.byte	0x52
 8500 0675 26000000 		.4byte	.LVL87
 8501 0679 2C000000 		.4byte	.LVL90
 8502 067d 0300     		.2byte	0x3
 8503 067f 72       		.byte	0x72
 8504 0680 08       		.sleb128 8
 8505 0681 9F       		.byte	0x9f
 8506 0682 2C000000 		.4byte	.LVL90
 8507 0686 38000000 		.4byte	.LFE9
 8508 068a 0100     		.2byte	0x1
 8509 068c 52       		.byte	0x52
 8510 068d 00000000 		.4byte	0
 8511 0691 00000000 		.4byte	0
 8512              	.LLST46:
 8513 0695 16000000 		.4byte	.LVL86
 8514 0699 2C000000 		.4byte	.LVL90
 8515 069d 0500     		.2byte	0x5
 8516 069f 38       		.byte	0x38
 8517 06a0 76       		.byte	0x76
 8518 06a1 00       		.sleb128 0
 8519 06a2 1C       		.byte	0x1c
 8520 06a3 9F       		.byte	0x9f
 8521 06a4 00000000 		.4byte	0
 8522 06a8 00000000 		.4byte	0
 8523              	.LLST47:
 8524 06ac 00000000 		.4byte	.LVL93
ARM GAS  C:\Users\gjl\AppData\Local\Temp\ccg70AS9.s 			page 180


 8525 06b0 16000000 		.4byte	.LVL96
 8526 06b4 0100     		.2byte	0x1
 8527 06b6 50       		.byte	0x50
 8528 06b7 16000000 		.4byte	.LVL96
 8529 06bb 2A000000 		.4byte	.LVL99
 8530 06bf 0100     		.2byte	0x1
 8531 06c1 55       		.byte	0x55
 8532 06c2 2A000000 		.4byte	.LVL99
 8533 06c6 36000000 		.4byte	.LVL101
 8534 06ca 0400     		.2byte	0x4
 8535 06cc 75       		.byte	0x75
 8536 06cd 847F     		.sleb128 -124
 8537 06cf 9F       		.byte	0x9f
 8538 06d0 36000000 		.4byte	.LVL101
 8539 06d4 38000000 		.4byte	.LFE14
 8540 06d8 0400     		.2byte	0x4
 8541 06da F3       		.byte	0xf3
 8542 06db 01       		.uleb128 0x1
 8543 06dc 50       		.byte	0x50
 8544 06dd 9F       		.byte	0x9f
 8545 06de 00000000 		.4byte	0
 8546 06e2 00000000 		.4byte	0
 8547              	.LLST48:
 8548 06e6 00000000 		.4byte	.LVL93
 8549 06ea 14000000 		.4byte	.LVL95
 8550 06ee 0100     		.2byte	0x1
 8551 06f0 51       		.byte	0x51
 8552 06f1 14000000 		.4byte	.LVL95
 8553 06f5 19000000 		.4byte	.LVL97-1
 8554 06f9 0200     		.2byte	0x2
 8555 06fb 74       		.byte	0x74
 8556 06fc 00       		.sleb128 0
 8557 06fd 19000000 		.4byte	.LVL97-1
 8558 0701 38000000 		.4byte	.LFE14
 8559 0705 0400     		.2byte	0x4
 8560 0707 F3       		.byte	0xf3
 8561 0708 01       		.uleb128 0x1
 8562 0709 51       		.byte	0x51
 8563 070a 9F       		.byte	0x9f
 8564 070b 00000000 		.4byte	0
 8565 070f 00000000 		.4byte	0
 8566              	.LLST49:
 8567 0713 08000000 		.4byte	.LVL94
 8568 0717 36000000 		.4byte	.LVL100
 8569 071b 0100     		.2byte	0x1
 8570 071d 54       		.byte	0x54
 8571 071e 36000000 		.4byte	.LVL100
 8572 0722 36000000 		.4byte	.LVL101
 8573 0726 0300     		.2byte	0x3
 8574 0728 75       		.byte	0x75
 8575 0729 54       		.sleb128 -44
 8576 072a 9F       		.byte	0x9f
 8577 072b 36000000 		.4byte	.LVL101
 8578 072f 38000000 		.4byte	.LFE14
 8579 0733 0600     		.2byte	0x6
 8580 0735 F3       		.byte	0xf3
 8581 0736 01       		.uleb128 0x1
ARM GAS  C:\Users\gjl\AppData\Local\Temp\ccg70AS9.s 			page 181


 8582 0737 50       		.byte	0x50
 8583 0738 23       		.byte	0x23
 8584 0739 50       		.uleb128 0x50
 8585 073a 9F       		.byte	0x9f
 8586 073b 00000000 		.4byte	0
 8587 073f 00000000 		.4byte	0
 8588              	.LLST50:
 8589 0743 00000000 		.4byte	.LVL102
 8590 0747 07000000 		.4byte	.LVL103-1
 8591 074b 0100     		.2byte	0x1
 8592 074d 50       		.byte	0x50
 8593 074e 07000000 		.4byte	.LVL103-1
 8594 0752 16000000 		.4byte	.LFE10
 8595 0756 0400     		.2byte	0x4
 8596 0758 F3       		.byte	0xf3
 8597 0759 01       		.uleb128 0x1
 8598 075a 50       		.byte	0x50
 8599 075b 9F       		.byte	0x9f
 8600 075c 00000000 		.4byte	0
 8601 0760 00000000 		.4byte	0
 8602              	.LLST51:
 8603 0764 00000000 		.4byte	.LVL102
 8604 0768 07000000 		.4byte	.LVL103-1
 8605 076c 0100     		.2byte	0x1
 8606 076e 51       		.byte	0x51
 8607 076f 07000000 		.4byte	.LVL103-1
 8608 0773 08000000 		.4byte	.LVL103
 8609 0777 0400     		.2byte	0x4
 8610 0779 F3       		.byte	0xf3
 8611 077a 01       		.uleb128 0x1
 8612 077b 51       		.byte	0x51
 8613 077c 9F       		.byte	0x9f
 8614 077d 08000000 		.4byte	.LVL103
 8615 0781 0C000000 		.4byte	.LVL104
 8616 0785 0300     		.2byte	0x3
 8617 0787 74       		.byte	0x74
 8618 0788 7F       		.sleb128 -1
 8619 0789 9F       		.byte	0x9f
 8620 078a 00000000 		.4byte	0
 8621 078e 00000000 		.4byte	0
 8622              	.LLST52:
 8623 0792 08000000 		.4byte	.LVL103
 8624 0796 0C000000 		.4byte	.LVL104
 8625 079a 0800     		.2byte	0x8
 8626 079c 70       		.byte	0x70
 8627 079d 00       		.sleb128 0
 8628 079e 31       		.byte	0x31
 8629 079f 74       		.byte	0x74
 8630 07a0 7F       		.sleb128 -1
 8631 07a1 24       		.byte	0x24
 8632 07a2 1C       		.byte	0x1c
 8633 07a3 9F       		.byte	0x9f
 8634 07a4 00000000 		.4byte	0
 8635 07a8 00000000 		.4byte	0
 8636              	.LLST53:
 8637 07ac 08000000 		.4byte	.LVL103
 8638 07b0 0C000000 		.4byte	.LVL104
ARM GAS  C:\Users\gjl\AppData\Local\Temp\ccg70AS9.s 			page 182


 8639 07b4 0500     		.2byte	0x5
 8640 07b6 31       		.byte	0x31
 8641 07b7 74       		.byte	0x74
 8642 07b8 7F       		.sleb128 -1
 8643 07b9 24       		.byte	0x24
 8644 07ba 9F       		.byte	0x9f
 8645 07bb 00000000 		.4byte	0
 8646 07bf 00000000 		.4byte	0
 8647              	.LLST54:
 8648 07c3 00000000 		.4byte	.LVL105
 8649 07c7 14000000 		.4byte	.LVL110
 8650 07cb 0100     		.2byte	0x1
 8651 07cd 50       		.byte	0x50
 8652 07ce 14000000 		.4byte	.LVL110
 8653 07d2 9A000000 		.4byte	.LVL125
 8654 07d6 0100     		.2byte	0x1
 8655 07d8 54       		.byte	0x54
 8656 07d9 9A000000 		.4byte	.LVL125
 8657 07dd A6000000 		.4byte	.LVL126
 8658 07e1 0400     		.2byte	0x4
 8659 07e3 75       		.byte	0x75
 8660 07e4 B07F     		.sleb128 -80
 8661 07e6 9F       		.byte	0x9f
 8662 07e7 A6000000 		.4byte	.LVL126
 8663 07eb A8000000 		.4byte	.LFE13
 8664 07ef 0400     		.2byte	0x4
 8665 07f1 F3       		.byte	0xf3
 8666 07f2 01       		.uleb128 0x1
 8667 07f3 50       		.byte	0x50
 8668 07f4 9F       		.byte	0x9f
 8669 07f5 00000000 		.4byte	0
 8670 07f9 00000000 		.4byte	0
 8671              	.LLST55:
 8672 07fd 00000000 		.4byte	.LVL105
 8673 0801 14000000 		.4byte	.LVL110
 8674 0805 0100     		.2byte	0x1
 8675 0807 51       		.byte	0x51
 8676 0808 14000000 		.4byte	.LVL110
 8677 080c A8000000 		.4byte	.LFE13
 8678 0810 0400     		.2byte	0x4
 8679 0812 F3       		.byte	0xf3
 8680 0813 01       		.uleb128 0x1
 8681 0814 51       		.byte	0x51
 8682 0815 9F       		.byte	0x9f
 8683 0816 00000000 		.4byte	0
 8684 081a 00000000 		.4byte	0
 8685              	.LLST56:
 8686 081e 00000000 		.4byte	.LVL105
 8687 0822 14000000 		.4byte	.LVL110
 8688 0826 0100     		.2byte	0x1
 8689 0828 52       		.byte	0x52
 8690 0829 14000000 		.4byte	.LVL110
 8691 082d A8000000 		.4byte	.LFE13
 8692 0831 0400     		.2byte	0x4
 8693 0833 F3       		.byte	0xf3
 8694 0834 01       		.uleb128 0x1
 8695 0835 52       		.byte	0x52
ARM GAS  C:\Users\gjl\AppData\Local\Temp\ccg70AS9.s 			page 183


 8696 0836 9F       		.byte	0x9f
 8697 0837 00000000 		.4byte	0
 8698 083b 00000000 		.4byte	0
 8699              	.LLST57:
 8700 083f 08000000 		.4byte	.LVL106
 8701 0843 28000000 		.4byte	.LVL112
 8702 0847 0100     		.2byte	0x1
 8703 0849 56       		.byte	0x56
 8704 084a 28000000 		.4byte	.LVL112
 8705 084e 2A000000 		.4byte	.LVL113
 8706 0852 0100     		.2byte	0x1
 8707 0854 53       		.byte	0x53
 8708 0855 2A000000 		.4byte	.LVL113
 8709 0859 A6000000 		.4byte	.LVL127
 8710 085d 0100     		.2byte	0x1
 8711 085f 56       		.byte	0x56
 8712 0860 00000000 		.4byte	0
 8713 0864 00000000 		.4byte	0
 8714              	.LLST58:
 8715 0868 14000000 		.4byte	.LVL110
 8716 086c 20000000 		.4byte	.LVL111
 8717 0870 0300     		.2byte	0x3
 8718 0872 74       		.byte	0x74
 8719 0873 D800     		.sleb128 88
 8720 0875 20000000 		.4byte	.LVL111
 8721 0879 A8000000 		.4byte	.LFE13
 8722 087d 0200     		.2byte	0x2
 8723 087f 91       		.byte	0x91
 8724 0880 44       		.sleb128 -60
 8725 0881 00000000 		.4byte	0
 8726 0885 00000000 		.4byte	0
 8727              	.LLST59:
 8728 0889 20000000 		.4byte	.LVL111
 8729 088d 30000000 		.4byte	.LVL114
 8730 0891 0200     		.2byte	0x2
 8731 0893 91       		.byte	0x91
 8732 0894 44       		.sleb128 -60
 8733 0895 00000000 		.4byte	0
 8734 0899 00000000 		.4byte	0
 8735              	.LLST60:
 8736 089d 10000000 		.4byte	.LVL108
 8737 08a1 8C000000 		.4byte	.LVL122
 8738 08a5 0100     		.2byte	0x1
 8739 08a7 57       		.byte	0x57
 8740 08a8 8C000000 		.4byte	.LVL122
 8741 08ac 98000000 		.4byte	.LVL124
 8742 08b0 0200     		.2byte	0x2
 8743 08b2 30       		.byte	0x30
 8744 08b3 9F       		.byte	0x9f
 8745 08b4 98000000 		.4byte	.LVL124
 8746 08b8 A6000000 		.4byte	.LVL127
 8747 08bc 0600     		.2byte	0x6
 8748 08be 76       		.byte	0x76
 8749 08bf 00       		.sleb128 0
 8750 08c0 77       		.byte	0x77
 8751 08c1 00       		.sleb128 0
 8752 08c2 22       		.byte	0x22
ARM GAS  C:\Users\gjl\AppData\Local\Temp\ccg70AS9.s 			page 184


 8753 08c3 9F       		.byte	0x9f
 8754 08c4 00000000 		.4byte	0
 8755 08c8 00000000 		.4byte	0
 8756              	.LLST61:
 8757 08cc 34000000 		.4byte	.LVL115
 8758 08d0 4B000000 		.4byte	.LVL117-1
 8759 08d4 0100     		.2byte	0x1
 8760 08d6 50       		.byte	0x50
 8761 08d7 50000000 		.4byte	.LVL118
 8762 08db A8000000 		.4byte	.LFE13
 8763 08df 0200     		.2byte	0x2
 8764 08e1 91       		.byte	0x91
 8765 08e2 5C       		.sleb128 -36
 8766 08e3 00000000 		.4byte	0
 8767 08e7 00000000 		.4byte	0
 8768              	.LLST62:
 8769 08eb 36000000 		.4byte	.LVL116
 8770 08ef 5E000000 		.4byte	.LVL120
 8771 08f3 0200     		.2byte	0x2
 8772 08f5 91       		.byte	0x91
 8773 08f6 60       		.sleb128 -32
 8774 08f7 5E000000 		.4byte	.LVL120
 8775 08fb 81000000 		.4byte	.LVL121-1
 8776 08ff 0100     		.2byte	0x1
 8777 0901 52       		.byte	0x52
 8778 0902 00000000 		.4byte	0
 8779 0906 00000000 		.4byte	0
 8780              	.LLST63:
 8781 090a 00000000 		.4byte	.LVL105
 8782 090e 0E000000 		.4byte	.LVL107
 8783 0912 0400     		.2byte	0x4
 8784 0914 70       		.byte	0x70
 8785 0915 D000     		.sleb128 80
 8786 0917 9F       		.byte	0x9f
 8787 0918 0E000000 		.4byte	.LVL107
 8788 091c 12000000 		.4byte	.LVL109
 8789 0920 0100     		.2byte	0x1
 8790 0922 53       		.byte	0x53
 8791 0923 12000000 		.4byte	.LVL109
 8792 0927 14000000 		.4byte	.LVL110
 8793 092b 0400     		.2byte	0x4
 8794 092d 70       		.byte	0x70
 8795 092e D000     		.sleb128 80
 8796 0930 9F       		.byte	0x9f
 8797 0931 14000000 		.4byte	.LVL110
 8798 0935 9A000000 		.4byte	.LVL125
 8799 0939 0400     		.2byte	0x4
 8800 093b 74       		.byte	0x74
 8801 093c D000     		.sleb128 80
 8802 093e 9F       		.byte	0x9f
 8803 093f 9A000000 		.4byte	.LVL125
 8804 0943 A6000000 		.4byte	.LVL126
 8805 0947 0100     		.2byte	0x1
 8806 0949 55       		.byte	0x55
 8807 094a A6000000 		.4byte	.LVL126
 8808 094e A8000000 		.4byte	.LFE13
 8809 0952 0600     		.2byte	0x6
ARM GAS  C:\Users\gjl\AppData\Local\Temp\ccg70AS9.s 			page 185


 8810 0954 F3       		.byte	0xf3
 8811 0955 01       		.uleb128 0x1
 8812 0956 50       		.byte	0x50
 8813 0957 23       		.byte	0x23
 8814 0958 50       		.uleb128 0x50
 8815 0959 9F       		.byte	0x9f
 8816 095a 00000000 		.4byte	0
 8817 095e 00000000 		.4byte	0
 8818              	.LLST64:
 8819 0962 00000000 		.4byte	.LVL128
 8820 0966 0B000000 		.4byte	.LVL129-1
 8821 096a 0100     		.2byte	0x1
 8822 096c 50       		.byte	0x50
 8823 096d 0B000000 		.4byte	.LVL129-1
 8824 0971 4C010000 		.4byte	.LVL172
 8825 0975 0100     		.2byte	0x1
 8826 0977 55       		.byte	0x55
 8827 0978 4C010000 		.4byte	.LVL172
 8828 097c 4E010000 		.4byte	.LVL173
 8829 0980 0400     		.2byte	0x4
 8830 0982 75       		.byte	0x75
 8831 0983 847F     		.sleb128 -124
 8832 0985 9F       		.byte	0x9f
 8833 0986 4E010000 		.4byte	.LVL173
 8834 098a 52010000 		.4byte	.LVL174
 8835 098e 0400     		.2byte	0x4
 8836 0990 77       		.byte	0x77
 8837 0991 B07F     		.sleb128 -80
 8838 0993 9F       		.byte	0x9f
 8839 0994 52010000 		.4byte	.LVL174
 8840 0998 54010000 		.4byte	.LFE15
 8841 099c 0400     		.2byte	0x4
 8842 099e F3       		.byte	0xf3
 8843 099f 01       		.uleb128 0x1
 8844 09a0 50       		.byte	0x50
 8845 09a1 9F       		.byte	0x9f
 8846 09a2 00000000 		.4byte	0
 8847 09a6 00000000 		.4byte	0
 8848              	.LLST65:
 8849 09aa 00000000 		.4byte	.LVL128
 8850 09ae 0B000000 		.4byte	.LVL129-1
 8851 09b2 0100     		.2byte	0x1
 8852 09b4 51       		.byte	0x51
 8853 09b5 0B000000 		.4byte	.LVL129-1
 8854 09b9 54010000 		.4byte	.LFE15
 8855 09bd 0400     		.2byte	0x4
 8856 09bf F3       		.byte	0xf3
 8857 09c0 01       		.uleb128 0x1
 8858 09c1 51       		.byte	0x51
 8859 09c2 9F       		.byte	0x9f
 8860 09c3 00000000 		.4byte	0
 8861 09c7 00000000 		.4byte	0
 8862              	.LLST66:
 8863 09cb 10010000 		.4byte	.LVL165
 8864 09cf 14010000 		.4byte	.LVL166
 8865 09d3 0100     		.2byte	0x1
 8866 09d5 50       		.byte	0x50
ARM GAS  C:\Users\gjl\AppData\Local\Temp\ccg70AS9.s 			page 186


 8867 09d6 14010000 		.4byte	.LVL166
 8868 09da 4E010000 		.4byte	.LVL173
 8869 09de 0100     		.2byte	0x1
 8870 09e0 56       		.byte	0x56
 8871 09e1 00000000 		.4byte	0
 8872 09e5 00000000 		.4byte	0
 8873              	.LLST67:
 8874 09e9 1A010000 		.4byte	.LVL168
 8875 09ed 4E010000 		.4byte	.LVL173
 8876 09f1 0100     		.2byte	0x1
 8877 09f3 54       		.byte	0x54
 8878 09f4 00000000 		.4byte	0
 8879 09f8 00000000 		.4byte	0
 8880              	.LLST68:
 8881 09fc 3A000000 		.4byte	.LVL135
 8882 0a00 56000000 		.4byte	.LVL138
 8883 0a04 0100     		.2byte	0x1
 8884 0a06 54       		.byte	0x54
 8885 0a07 00000000 		.4byte	0
 8886 0a0b 00000000 		.4byte	0
 8887              	.LLST69:
 8888 0a0f 14000000 		.4byte	.LVL130
 8889 0a13 52010000 		.4byte	.LVL174
 8890 0a17 0100     		.2byte	0x1
 8891 0a19 57       		.byte	0x57
 8892 0a1a 52010000 		.4byte	.LVL174
 8893 0a1e 54010000 		.4byte	.LFE15
 8894 0a22 0600     		.2byte	0x6
 8895 0a24 F3       		.byte	0xf3
 8896 0a25 01       		.uleb128 0x1
 8897 0a26 50       		.byte	0x50
 8898 0a27 23       		.byte	0x23
 8899 0a28 50       		.uleb128 0x50
 8900 0a29 9F       		.byte	0x9f
 8901 0a2a 00000000 		.4byte	0
 8902 0a2e 00000000 		.4byte	0
 8903              	.LLST70:
 8904 0a32 84000000 		.4byte	.LVL141
 8905 0a36 A0000000 		.4byte	.LVL145
 8906 0a3a 0100     		.2byte	0x1
 8907 0a3c 56       		.byte	0x56
 8908 0a3d A0000000 		.4byte	.LVL145
 8909 0a41 A6000000 		.4byte	.LVL146
 8910 0a45 0800     		.2byte	0x8
 8911 0a47 76       		.byte	0x76
 8912 0a48 00       		.sleb128 0
 8913 0a49 91       		.byte	0x91
 8914 0a4a 50       		.sleb128 -48
 8915 0a4b 94       		.byte	0x94
 8916 0a4c 01       		.byte	0x1
 8917 0a4d 1C       		.byte	0x1c
 8918 0a4e 9F       		.byte	0x9f
 8919 0a4f AC000000 		.4byte	.LVL147
 8920 0a53 B2000000 		.4byte	.LVL150
 8921 0a57 0100     		.2byte	0x1
 8922 0a59 56       		.byte	0x56
 8923 0a5a B2000000 		.4byte	.LVL150
ARM GAS  C:\Users\gjl\AppData\Local\Temp\ccg70AS9.s 			page 187


 8924 0a5e BC000000 		.4byte	.LVL152
 8925 0a62 0800     		.2byte	0x8
 8926 0a64 74       		.byte	0x74
 8927 0a65 00       		.sleb128 0
 8928 0a66 91       		.byte	0x91
 8929 0a67 4C       		.sleb128 -52
 8930 0a68 94       		.byte	0x94
 8931 0a69 01       		.byte	0x1
 8932 0a6a 1C       		.byte	0x1c
 8933 0a6b 9F       		.byte	0x9f
 8934 0a6c BC000000 		.4byte	.LVL152
 8935 0a70 FE000000 		.4byte	.LVL163
 8936 0a74 0100     		.2byte	0x1
 8937 0a76 56       		.byte	0x56
 8938 0a77 00000000 		.4byte	0
 8939 0a7b 00000000 		.4byte	0
 8940              	.LLST71:
 8941 0a7f 84000000 		.4byte	.LVL141
 8942 0a83 9C000000 		.4byte	.LVL143
 8943 0a87 0100     		.2byte	0x1
 8944 0a89 56       		.byte	0x56
 8945 0a8a 9C000000 		.4byte	.LVL143
 8946 0a8e A0000000 		.4byte	.LVL145
 8947 0a92 0100     		.2byte	0x1
 8948 0a94 53       		.byte	0x53
 8949 0a95 A0000000 		.4byte	.LVL145
 8950 0a99 A6000000 		.4byte	.LVL146
 8951 0a9d 0100     		.2byte	0x1
 8952 0a9f 56       		.byte	0x56
 8953 0aa0 AE000000 		.4byte	.LVL148
 8954 0aa4 B2000000 		.4byte	.LVL150
 8955 0aa8 0100     		.2byte	0x1
 8956 0aaa 53       		.byte	0x53
 8957 0aab B2000000 		.4byte	.LVL150
 8958 0aaf BA000000 		.4byte	.LVL151
 8959 0ab3 0100     		.2byte	0x1
 8960 0ab5 56       		.byte	0x56
 8961 0ab6 C6000000 		.4byte	.LVL153
 8962 0aba CE000000 		.4byte	.LVL156
 8963 0abe 0100     		.2byte	0x1
 8964 0ac0 53       		.byte	0x53
 8965 0ac1 CE000000 		.4byte	.LVL156
 8966 0ac5 DC000000 		.4byte	.LVL157
 8967 0ac9 0100     		.2byte	0x1
 8968 0acb 56       		.byte	0x56
 8969 0acc DC000000 		.4byte	.LVL157
 8970 0ad0 E2000000 		.4byte	.LVL159
 8971 0ad4 0100     		.2byte	0x1
 8972 0ad6 53       		.byte	0x53
 8973 0ad7 E2000000 		.4byte	.LVL159
 8974 0adb E6000000 		.4byte	.LVL160
 8975 0adf 0100     		.2byte	0x1
 8976 0ae1 56       		.byte	0x56
 8977 0ae2 E6000000 		.4byte	.LVL160
 8978 0ae6 EF000000 		.4byte	.LVL162-1
 8979 0aea 0100     		.2byte	0x1
 8980 0aec 53       		.byte	0x53
ARM GAS  C:\Users\gjl\AppData\Local\Temp\ccg70AS9.s 			page 188


 8981 0aed 00000000 		.4byte	0
 8982 0af1 00000000 		.4byte	0
 8983              	.LLST72:
 8984 0af5 84000000 		.4byte	.LVL141
 8985 0af9 8A000000 		.4byte	.LVL142
 8986 0afd 0100     		.2byte	0x1
 8987 0aff 50       		.byte	0x50
 8988 0b00 8A000000 		.4byte	.LVL142
 8989 0b04 C6000000 		.4byte	.LVL153
 8990 0b08 0200     		.2byte	0x2
 8991 0b0a 77       		.byte	0x77
 8992 0b0b 05       		.sleb128 5
 8993 0b0c C6000000 		.4byte	.LVL153
 8994 0b10 CA000000 		.4byte	.LVL155
 8995 0b14 0100     		.2byte	0x1
 8996 0b16 52       		.byte	0x52
 8997 0b17 CE000000 		.4byte	.LVL156
 8998 0b1b DC000000 		.4byte	.LVL157
 8999 0b1f 0200     		.2byte	0x2
 9000 0b21 77       		.byte	0x77
 9001 0b22 05       		.sleb128 5
 9002 0b23 DC000000 		.4byte	.LVL157
 9003 0b27 E2000000 		.4byte	.LVL159
 9004 0b2b 0100     		.2byte	0x1
 9005 0b2d 52       		.byte	0x52
 9006 0b2e E2000000 		.4byte	.LVL159
 9007 0b32 E6000000 		.4byte	.LVL160
 9008 0b36 0100     		.2byte	0x1
 9009 0b38 50       		.byte	0x50
 9010 0b39 E6000000 		.4byte	.LVL160
 9011 0b3d EF000000 		.4byte	.LVL162-1
 9012 0b41 0100     		.2byte	0x1
 9013 0b43 52       		.byte	0x52
 9014 0b44 00000000 		.4byte	0
 9015 0b48 00000000 		.4byte	0
 9016              	.LLST73:
 9017 0b4c 84000000 		.4byte	.LVL141
 9018 0b50 8A000000 		.4byte	.LVL142
 9019 0b54 0100     		.2byte	0x1
 9020 0b56 50       		.byte	0x50
 9021 0b57 8A000000 		.4byte	.LVL142
 9022 0b5b 9E000000 		.4byte	.LVL144
 9023 0b5f 0200     		.2byte	0x2
 9024 0b61 77       		.byte	0x77
 9025 0b62 05       		.sleb128 5
 9026 0b63 9E000000 		.4byte	.LVL144
 9027 0b67 A0000000 		.4byte	.LVL145
 9028 0b6b 0100     		.2byte	0x1
 9029 0b6d 51       		.byte	0x51
 9030 0b6e A0000000 		.4byte	.LVL145
 9031 0b72 B0000000 		.4byte	.LVL149
 9032 0b76 0200     		.2byte	0x2
 9033 0b78 77       		.byte	0x77
 9034 0b79 05       		.sleb128 5
 9035 0b7a B0000000 		.4byte	.LVL149
 9036 0b7e B2000000 		.4byte	.LVL150
 9037 0b82 0100     		.2byte	0x1
ARM GAS  C:\Users\gjl\AppData\Local\Temp\ccg70AS9.s 			page 189


 9038 0b84 51       		.byte	0x51
 9039 0b85 B2000000 		.4byte	.LVL150
 9040 0b89 C8000000 		.4byte	.LVL154
 9041 0b8d 0200     		.2byte	0x2
 9042 0b8f 77       		.byte	0x77
 9043 0b90 05       		.sleb128 5
 9044 0b91 C8000000 		.4byte	.LVL154
 9045 0b95 CE000000 		.4byte	.LVL156
 9046 0b99 0100     		.2byte	0x1
 9047 0b9b 51       		.byte	0x51
 9048 0b9c CE000000 		.4byte	.LVL156
 9049 0ba0 DE000000 		.4byte	.LVL158
 9050 0ba4 0200     		.2byte	0x2
 9051 0ba6 77       		.byte	0x77
 9052 0ba7 05       		.sleb128 5
 9053 0ba8 DE000000 		.4byte	.LVL158
 9054 0bac E2000000 		.4byte	.LVL159
 9055 0bb0 0100     		.2byte	0x1
 9056 0bb2 51       		.byte	0x51
 9057 0bb3 E2000000 		.4byte	.LVL159
 9058 0bb7 E6000000 		.4byte	.LVL160
 9059 0bbb 0100     		.2byte	0x1
 9060 0bbd 50       		.byte	0x50
 9061 0bbe E6000000 		.4byte	.LVL160
 9062 0bc2 EC000000 		.4byte	.LVL161
 9063 0bc6 0100     		.2byte	0x1
 9064 0bc8 51       		.byte	0x51
 9065 0bc9 00000000 		.4byte	0
 9066 0bcd 00000000 		.4byte	0
 9067              	.LLST74:
 9068 0bd1 00000000 		.4byte	.LVL175
 9069 0bd5 0E000000 		.4byte	.LVL177
 9070 0bd9 0100     		.2byte	0x1
 9071 0bdb 50       		.byte	0x50
 9072 0bdc 0E000000 		.4byte	.LVL177
 9073 0be0 10000000 		.4byte	.LVL178
 9074 0be4 0400     		.2byte	0x4
 9075 0be6 70       		.byte	0x70
 9076 0be7 8C7F     		.sleb128 -116
 9077 0be9 9F       		.byte	0x9f
 9078 0bea 10000000 		.4byte	.LVL178
 9079 0bee 16000000 		.4byte	.LVL179
 9080 0bf2 0100     		.2byte	0x1
 9081 0bf4 50       		.byte	0x50
 9082 0bf5 16000000 		.4byte	.LVL179
 9083 0bf9 2A000000 		.4byte	.LVL181
 9084 0bfd 0400     		.2byte	0x4
 9085 0bff F3       		.byte	0xf3
 9086 0c00 01       		.uleb128 0x1
 9087 0c01 50       		.byte	0x50
 9088 0c02 9F       		.byte	0x9f
 9089 0c03 2A000000 		.4byte	.LVL181
 9090 0c07 2C000000 		.4byte	.LVL182
 9091 0c0b 0100     		.2byte	0x1
 9092 0c0d 50       		.byte	0x50
 9093 0c0e 2C000000 		.4byte	.LVL182
 9094 0c12 2E000000 		.4byte	.LVL183
ARM GAS  C:\Users\gjl\AppData\Local\Temp\ccg70AS9.s 			page 190


 9095 0c16 0400     		.2byte	0x4
 9096 0c18 70       		.byte	0x70
 9097 0c19 8A7F     		.sleb128 -118
 9098 0c1b 9F       		.byte	0x9f
 9099 0c1c 2E000000 		.4byte	.LVL183
 9100 0c20 4C000000 		.4byte	.LFE16
 9101 0c24 0400     		.2byte	0x4
 9102 0c26 F3       		.byte	0xf3
 9103 0c27 01       		.uleb128 0x1
 9104 0c28 50       		.byte	0x50
 9105 0c29 9F       		.byte	0x9f
 9106 0c2a 00000000 		.4byte	0
 9107 0c2e 00000000 		.4byte	0
 9108              	.LLST75:
 9109 0c32 00000000 		.4byte	.LVL175
 9110 0c36 04000000 		.4byte	.LVL176
 9111 0c3a 0300     		.2byte	0x3
 9112 0c3c 70       		.byte	0x70
 9113 0c3d C800     		.sleb128 72
 9114 0c3f 04000000 		.4byte	.LVL176
 9115 0c43 30000000 		.4byte	.LVL184
 9116 0c47 0100     		.2byte	0x1
 9117 0c49 52       		.byte	0x52
 9118 0c4a 30000000 		.4byte	.LVL184
 9119 0c4e 40000000 		.4byte	.LVL188
 9120 0c52 0100     		.2byte	0x1
 9121 0c54 50       		.byte	0x50
 9122 0c55 40000000 		.4byte	.LVL188
 9123 0c59 42000000 		.4byte	.LVL189
 9124 0c5d 0300     		.2byte	0x3
 9125 0c5f 70       		.byte	0x70
 9126 0c60 7D       		.sleb128 -3
 9127 0c61 9F       		.byte	0x9f
 9128 0c62 42000000 		.4byte	.LVL189
 9129 0c66 48000000 		.4byte	.LVL192
 9130 0c6a 0100     		.2byte	0x1
 9131 0c6c 50       		.byte	0x50
 9132 0c6d 00000000 		.4byte	0
 9133 0c71 00000000 		.4byte	0
 9134              	.LLST76:
 9135 0c75 32000000 		.4byte	.LVL185
 9136 0c79 44000000 		.4byte	.LVL190
 9137 0c7d 0100     		.2byte	0x1
 9138 0c7f 53       		.byte	0x53
 9139 0c80 44000000 		.4byte	.LVL190
 9140 0c84 46000000 		.4byte	.LVL191
 9141 0c88 0D00     		.2byte	0xd
 9142 0c8a 70       		.byte	0x70
 9143 0c8b 00       		.sleb128 0
 9144 0c8c 94       		.byte	0x94
 9145 0c8d 01       		.byte	0x1
 9146 0c8e 08       		.byte	0x8
 9147 0c8f FF       		.byte	0xff
 9148 0c90 1A       		.byte	0x1a
 9149 0c91 38       		.byte	0x38
 9150 0c92 24       		.byte	0x24
 9151 0c93 72       		.byte	0x72
ARM GAS  C:\Users\gjl\AppData\Local\Temp\ccg70AS9.s 			page 191


 9152 0c94 00       		.sleb128 0
 9153 0c95 21       		.byte	0x21
 9154 0c96 9F       		.byte	0x9f
 9155 0c97 00000000 		.4byte	0
 9156 0c9b 00000000 		.4byte	0
 9157              	.LLST77:
 9158 0c9f 00000000 		.4byte	.LVL193
 9159 0ca3 0B000000 		.4byte	.LVL194-1
 9160 0ca7 0100     		.2byte	0x1
 9161 0ca9 50       		.byte	0x50
 9162 0caa 0B000000 		.4byte	.LVL194-1
 9163 0cae 3A000000 		.4byte	.LVL200
 9164 0cb2 0100     		.2byte	0x1
 9165 0cb4 54       		.byte	0x54
 9166 0cb5 3A000000 		.4byte	.LVL200
 9167 0cb9 4A000000 		.4byte	.LVL203
 9168 0cbd 0400     		.2byte	0x4
 9169 0cbf 74       		.byte	0x74
 9170 0cc0 987F     		.sleb128 -104
 9171 0cc2 9F       		.byte	0x9f
 9172 0cc3 4A000000 		.4byte	.LVL203
 9173 0cc7 4C000000 		.4byte	.LFE41
 9174 0ccb 0400     		.2byte	0x4
 9175 0ccd F3       		.byte	0xf3
 9176 0cce 01       		.uleb128 0x1
 9177 0ccf 50       		.byte	0x50
 9178 0cd0 9F       		.byte	0x9f
 9179 0cd1 00000000 		.4byte	0
 9180 0cd5 00000000 		.4byte	0
 9181              	.LLST78:
 9182 0cd9 00000000 		.4byte	.LVL193
 9183 0cdd 0B000000 		.4byte	.LVL194-1
 9184 0ce1 0100     		.2byte	0x1
 9185 0ce3 51       		.byte	0x51
 9186 0ce4 0B000000 		.4byte	.LVL194-1
 9187 0ce8 4C000000 		.4byte	.LFE41
 9188 0cec 0400     		.2byte	0x4
 9189 0cee F3       		.byte	0xf3
 9190 0cef 01       		.uleb128 0x1
 9191 0cf0 51       		.byte	0x51
 9192 0cf1 9F       		.byte	0x9f
 9193 0cf2 00000000 		.4byte	0
 9194 0cf6 00000000 		.4byte	0
 9195              	.LLST79:
 9196 0cfa 00000000 		.4byte	.LVL193
 9197 0cfe 0B000000 		.4byte	.LVL194-1
 9198 0d02 0100     		.2byte	0x1
 9199 0d04 52       		.byte	0x52
 9200 0d05 0B000000 		.4byte	.LVL194-1
 9201 0d09 20000000 		.4byte	.LVL198
 9202 0d0d 0100     		.2byte	0x1
 9203 0d0f 55       		.byte	0x55
 9204 0d10 20000000 		.4byte	.LVL198
 9205 0d14 4C000000 		.4byte	.LFE41
 9206 0d18 0400     		.2byte	0x4
 9207 0d1a F3       		.byte	0xf3
 9208 0d1b 01       		.uleb128 0x1
ARM GAS  C:\Users\gjl\AppData\Local\Temp\ccg70AS9.s 			page 192


 9209 0d1c 52       		.byte	0x52
 9210 0d1d 9F       		.byte	0x9f
 9211 0d1e 00000000 		.4byte	0
 9212 0d22 00000000 		.4byte	0
 9213              	.LLST80:
 9214 0d26 00000000 		.4byte	.LVL193
 9215 0d2a 0B000000 		.4byte	.LVL194-1
 9216 0d2e 0100     		.2byte	0x1
 9217 0d30 53       		.byte	0x53
 9218 0d31 0B000000 		.4byte	.LVL194-1
 9219 0d35 4A000000 		.4byte	.LVL204
 9220 0d39 0100     		.2byte	0x1
 9221 0d3b 56       		.byte	0x56
 9222 0d3c 4A000000 		.4byte	.LVL204
 9223 0d40 4C000000 		.4byte	.LFE41
 9224 0d44 0400     		.2byte	0x4
 9225 0d46 F3       		.byte	0xf3
 9226 0d47 01       		.uleb128 0x1
 9227 0d48 53       		.byte	0x53
 9228 0d49 9F       		.byte	0x9f
 9229 0d4a 00000000 		.4byte	0
 9230 0d4e 00000000 		.4byte	0
 9231              	.LLST81:
 9232 0d52 0E000000 		.4byte	.LVL195
 9233 0d56 12000000 		.4byte	.LVL196
 9234 0d5a 0100     		.2byte	0x1
 9235 0d5c 50       		.byte	0x50
 9236 0d5d 12000000 		.4byte	.LVL196
 9237 0d61 15000000 		.4byte	.LVL197-1
 9238 0d65 0100     		.2byte	0x1
 9239 0d67 51       		.byte	0x51
 9240 0d68 00000000 		.4byte	0
 9241 0d6c 00000000 		.4byte	0
 9242              	.LLST82:
 9243 0d70 00000000 		.4byte	.LVL205
 9244 0d74 05000000 		.4byte	.LVL206-1
 9245 0d78 0100     		.2byte	0x1
 9246 0d7a 50       		.byte	0x50
 9247 0d7b 05000000 		.4byte	.LVL206-1
 9248 0d7f 0E000000 		.4byte	.LFE18
 9249 0d83 0400     		.2byte	0x4
 9250 0d85 F3       		.byte	0xf3
 9251 0d86 01       		.uleb128 0x1
 9252 0d87 50       		.byte	0x50
 9253 0d88 9F       		.byte	0x9f
 9254 0d89 00000000 		.4byte	0
 9255 0d8d 00000000 		.4byte	0
 9256              	.LLST83:
 9257 0d91 00000000 		.4byte	.LVL205
 9258 0d95 05000000 		.4byte	.LVL206-1
 9259 0d99 0100     		.2byte	0x1
 9260 0d9b 51       		.byte	0x51
 9261 0d9c 05000000 		.4byte	.LVL206-1
 9262 0da0 0E000000 		.4byte	.LFE18
 9263 0da4 0400     		.2byte	0x4
 9264 0da6 F3       		.byte	0xf3
 9265 0da7 01       		.uleb128 0x1
ARM GAS  C:\Users\gjl\AppData\Local\Temp\ccg70AS9.s 			page 193


 9266 0da8 51       		.byte	0x51
 9267 0da9 9F       		.byte	0x9f
 9268 0daa 00000000 		.4byte	0
 9269 0dae 00000000 		.4byte	0
 9270              	.LLST84:
 9271 0db2 00000000 		.4byte	.LVL207
 9272 0db6 07000000 		.4byte	.LVL208-1
 9273 0dba 0100     		.2byte	0x1
 9274 0dbc 50       		.byte	0x50
 9275 0dbd 07000000 		.4byte	.LVL208-1
 9276 0dc1 30000000 		.4byte	.LVL213
 9277 0dc5 0100     		.2byte	0x1
 9278 0dc7 54       		.byte	0x54
 9279 0dc8 30000000 		.4byte	.LVL213
 9280 0dcc 3C000000 		.4byte	.LVL215
 9281 0dd0 0400     		.2byte	0x4
 9282 0dd2 74       		.byte	0x74
 9283 0dd3 987F     		.sleb128 -104
 9284 0dd5 9F       		.byte	0x9f
 9285 0dd6 3C000000 		.4byte	.LVL215
 9286 0dda 3E000000 		.4byte	.LFE19
 9287 0dde 0400     		.2byte	0x4
 9288 0de0 F3       		.byte	0xf3
 9289 0de1 01       		.uleb128 0x1
 9290 0de2 50       		.byte	0x50
 9291 0de3 9F       		.byte	0x9f
 9292 0de4 00000000 		.4byte	0
 9293 0de8 00000000 		.4byte	0
 9294              	.LLST85:
 9295 0dec 00000000 		.4byte	.LVL207
 9296 0df0 07000000 		.4byte	.LVL208-1
 9297 0df4 0100     		.2byte	0x1
 9298 0df6 51       		.byte	0x51
 9299 0df7 07000000 		.4byte	.LVL208-1
 9300 0dfb 3E000000 		.4byte	.LFE19
 9301 0dff 0400     		.2byte	0x4
 9302 0e01 F3       		.byte	0xf3
 9303 0e02 01       		.uleb128 0x1
 9304 0e03 51       		.byte	0x51
 9305 0e04 9F       		.byte	0x9f
 9306 0e05 00000000 		.4byte	0
 9307 0e09 00000000 		.4byte	0
 9308              	.LLST86:
 9309 0e0d 0A000000 		.4byte	.LVL209
 9310 0e11 0E000000 		.4byte	.LVL210
 9311 0e15 0100     		.2byte	0x1
 9312 0e17 50       		.byte	0x50
 9313 0e18 0E000000 		.4byte	.LVL210
 9314 0e1c 11000000 		.4byte	.LVL211-1
 9315 0e20 0100     		.2byte	0x1
 9316 0e22 51       		.byte	0x51
 9317 0e23 00000000 		.4byte	0
 9318 0e27 00000000 		.4byte	0
 9319              	.LLST87:
 9320 0e2b 00000000 		.4byte	.LVL216
 9321 0e2f 15000000 		.4byte	.LVL217-1
 9322 0e33 0100     		.2byte	0x1
ARM GAS  C:\Users\gjl\AppData\Local\Temp\ccg70AS9.s 			page 194


 9323 0e35 50       		.byte	0x50
 9324 0e36 15000000 		.4byte	.LVL217-1
 9325 0e3a 48000000 		.4byte	.LVL228
 9326 0e3e 0100     		.2byte	0x1
 9327 0e40 55       		.byte	0x55
 9328 0e41 48000000 		.4byte	.LVL228
 9329 0e45 52000000 		.4byte	.LVL232
 9330 0e49 0400     		.2byte	0x4
 9331 0e4b 75       		.byte	0x75
 9332 0e4c 857F     		.sleb128 -123
 9333 0e4e 9F       		.byte	0x9f
 9334 0e4f 52000000 		.4byte	.LVL232
 9335 0e53 60000000 		.4byte	.LFE40
 9336 0e57 0700     		.2byte	0x7
 9337 0e59 91       		.byte	0x91
 9338 0e5a 64       		.sleb128 -28
 9339 0e5b 06       		.byte	0x6
 9340 0e5c 08       		.byte	0x8
 9341 0e5d 58       		.byte	0x58
 9342 0e5e 1C       		.byte	0x1c
 9343 0e5f 9F       		.byte	0x9f
 9344 0e60 00000000 		.4byte	0
 9345 0e64 00000000 		.4byte	0
 9346              	.LLST88:
 9347 0e68 00000000 		.4byte	.LVL216
 9348 0e6c 15000000 		.4byte	.LVL217-1
 9349 0e70 0100     		.2byte	0x1
 9350 0e72 51       		.byte	0x51
 9351 0e73 15000000 		.4byte	.LVL217-1
 9352 0e77 54000000 		.4byte	.LVL235
 9353 0e7b 0100     		.2byte	0x1
 9354 0e7d 57       		.byte	0x57
 9355 0e7e 00000000 		.4byte	0
 9356 0e82 00000000 		.4byte	0
 9357              	.LLST89:
 9358 0e86 22000000 		.4byte	.LVL219
 9359 0e8a 30000000 		.4byte	.LVL221
 9360 0e8e 0100     		.2byte	0x1
 9361 0e90 50       		.byte	0x50
 9362 0e91 3C000000 		.4byte	.LVL226
 9363 0e95 4A000000 		.4byte	.LVL229
 9364 0e99 0100     		.2byte	0x1
 9365 0e9b 50       		.byte	0x50
 9366 0e9c 00000000 		.4byte	0
 9367 0ea0 00000000 		.4byte	0
 9368              	.LLST90:
 9369 0ea4 16000000 		.4byte	.LVL217
 9370 0ea8 38000000 		.4byte	.LVL224
 9371 0eac 0100     		.2byte	0x1
 9372 0eae 56       		.byte	0x56
 9373 0eaf 3A000000 		.4byte	.LVL225
 9374 0eb3 46000000 		.4byte	.LVL227
 9375 0eb7 0100     		.2byte	0x1
 9376 0eb9 56       		.byte	0x56
 9377 0eba 46000000 		.4byte	.LVL227
 9378 0ebe 4C000000 		.4byte	.LVL230
 9379 0ec2 0900     		.2byte	0x9
ARM GAS  C:\Users\gjl\AppData\Local\Temp\ccg70AS9.s 			page 195


 9380 0ec4 73       		.byte	0x73
 9381 0ec5 00       		.sleb128 0
 9382 0ec6 74       		.byte	0x74
 9383 0ec7 00       		.sleb128 0
 9384 0ec8 1C       		.byte	0x1c
 9385 0ec9 76       		.byte	0x76
 9386 0eca 00       		.sleb128 0
 9387 0ecb 22       		.byte	0x22
 9388 0ecc 9F       		.byte	0x9f
 9389 0ecd 4C000000 		.4byte	.LVL230
 9390 0ed1 4E000000 		.4byte	.LVL231
 9391 0ed5 0C00     		.2byte	0xc
 9392 0ed7 76       		.byte	0x76
 9393 0ed8 00       		.sleb128 0
 9394 0ed9 91       		.byte	0x91
 9395 0eda 64       		.sleb128 -28
 9396 0edb 06       		.byte	0x6
 9397 0edc 94       		.byte	0x94
 9398 0edd 01       		.byte	0x1
 9399 0ede 22       		.byte	0x22
 9400 0edf 74       		.byte	0x74
 9401 0ee0 00       		.sleb128 0
 9402 0ee1 1C       		.byte	0x1c
 9403 0ee2 9F       		.byte	0x9f
 9404 0ee3 52000000 		.4byte	.LVL232
 9405 0ee7 54000000 		.4byte	.LVL234
 9406 0eeb 0100     		.2byte	0x1
 9407 0eed 56       		.byte	0x56
 9408 0eee 00000000 		.4byte	0
 9409 0ef2 00000000 		.4byte	0
 9410              	.LLST91:
 9411 0ef6 16000000 		.4byte	.LVL217
 9412 0efa 54000000 		.4byte	.LVL233
 9413 0efe 0100     		.2byte	0x1
 9414 0f00 54       		.byte	0x54
 9415 0f01 00000000 		.4byte	0
 9416 0f05 00000000 		.4byte	0
 9417              	.LLST92:
 9418 0f09 00000000 		.4byte	.LVL236
 9419 0f0d 02000000 		.4byte	.LVL237
 9420 0f11 0100     		.2byte	0x1
 9421 0f13 50       		.byte	0x50
 9422 0f14 02000000 		.4byte	.LVL237
 9423 0f18 06000000 		.4byte	.LFE20
 9424 0f1c 0400     		.2byte	0x4
 9425 0f1e 70       		.byte	0x70
 9426 0f1f A57F     		.sleb128 -91
 9427 0f21 9F       		.byte	0x9f
 9428 0f22 00000000 		.4byte	0
 9429 0f26 00000000 		.4byte	0
 9430              	.LLST93:
 9431 0f2a 00000000 		.4byte	.LVL238
 9432 0f2e 0C000000 		.4byte	.LVL240
 9433 0f32 0100     		.2byte	0x1
 9434 0f34 50       		.byte	0x50
 9435 0f35 0C000000 		.4byte	.LVL240
 9436 0f39 5C000000 		.4byte	.LVL255
ARM GAS  C:\Users\gjl\AppData\Local\Temp\ccg70AS9.s 			page 196


 9437 0f3d 0100     		.2byte	0x1
 9438 0f3f 54       		.byte	0x54
 9439 0f40 5C000000 		.4byte	.LVL255
 9440 0f44 5E000000 		.4byte	.LFE21
 9441 0f48 0400     		.2byte	0x4
 9442 0f4a F3       		.byte	0xf3
 9443 0f4b 01       		.uleb128 0x1
 9444 0f4c 50       		.byte	0x50
 9445 0f4d 9F       		.byte	0x9f
 9446 0f4e 00000000 		.4byte	0
 9447 0f52 00000000 		.4byte	0
 9448              	.LLST94:
 9449 0f56 00000000 		.4byte	.LVL238
 9450 0f5a 21000000 		.4byte	.LVL241-1
 9451 0f5e 0100     		.2byte	0x1
 9452 0f60 51       		.byte	0x51
 9453 0f61 21000000 		.4byte	.LVL241-1
 9454 0f65 26000000 		.4byte	.LVL242
 9455 0f69 0400     		.2byte	0x4
 9456 0f6b F3       		.byte	0xf3
 9457 0f6c 01       		.uleb128 0x1
 9458 0f6d 51       		.byte	0x51
 9459 0f6e 9F       		.byte	0x9f
 9460 0f6f 26000000 		.4byte	.LVL242
 9461 0f73 29000000 		.4byte	.LVL243-1
 9462 0f77 0100     		.2byte	0x1
 9463 0f79 51       		.byte	0x51
 9464 0f7a 29000000 		.4byte	.LVL243-1
 9465 0f7e 2E000000 		.4byte	.LVL244
 9466 0f82 0400     		.2byte	0x4
 9467 0f84 F3       		.byte	0xf3
 9468 0f85 01       		.uleb128 0x1
 9469 0f86 51       		.byte	0x51
 9470 0f87 9F       		.byte	0x9f
 9471 0f88 2E000000 		.4byte	.LVL244
 9472 0f8c 31000000 		.4byte	.LVL245-1
 9473 0f90 0100     		.2byte	0x1
 9474 0f92 51       		.byte	0x51
 9475 0f93 31000000 		.4byte	.LVL245-1
 9476 0f97 38000000 		.4byte	.LVL247
 9477 0f9b 0400     		.2byte	0x4
 9478 0f9d F3       		.byte	0xf3
 9479 0f9e 01       		.uleb128 0x1
 9480 0f9f 51       		.byte	0x51
 9481 0fa0 9F       		.byte	0x9f
 9482 0fa1 38000000 		.4byte	.LVL247
 9483 0fa5 3B000000 		.4byte	.LVL248-1
 9484 0fa9 0100     		.2byte	0x1
 9485 0fab 51       		.byte	0x51
 9486 0fac 3B000000 		.4byte	.LVL248-1
 9487 0fb0 40000000 		.4byte	.LVL249
 9488 0fb4 0400     		.2byte	0x4
 9489 0fb6 F3       		.byte	0xf3
 9490 0fb7 01       		.uleb128 0x1
 9491 0fb8 51       		.byte	0x51
 9492 0fb9 9F       		.byte	0x9f
 9493 0fba 40000000 		.4byte	.LVL249
ARM GAS  C:\Users\gjl\AppData\Local\Temp\ccg70AS9.s 			page 197


 9494 0fbe 5C000000 		.4byte	.LVL257
 9495 0fc2 0100     		.2byte	0x1
 9496 0fc4 56       		.byte	0x56
 9497 0fc5 00000000 		.4byte	0
 9498 0fc9 00000000 		.4byte	0
 9499              	.LLST95:
 9500 0fcd 00000000 		.4byte	.LVL238
 9501 0fd1 21000000 		.4byte	.LVL241-1
 9502 0fd5 0100     		.2byte	0x1
 9503 0fd7 52       		.byte	0x52
 9504 0fd8 21000000 		.4byte	.LVL241-1
 9505 0fdc 26000000 		.4byte	.LVL242
 9506 0fe0 0400     		.2byte	0x4
 9507 0fe2 F3       		.byte	0xf3
 9508 0fe3 01       		.uleb128 0x1
 9509 0fe4 52       		.byte	0x52
 9510 0fe5 9F       		.byte	0x9f
 9511 0fe6 26000000 		.4byte	.LVL242
 9512 0fea 29000000 		.4byte	.LVL243-1
 9513 0fee 0100     		.2byte	0x1
 9514 0ff0 52       		.byte	0x52
 9515 0ff1 29000000 		.4byte	.LVL243-1
 9516 0ff5 2E000000 		.4byte	.LVL244
 9517 0ff9 0400     		.2byte	0x4
 9518 0ffb F3       		.byte	0xf3
 9519 0ffc 01       		.uleb128 0x1
 9520 0ffd 52       		.byte	0x52
 9521 0ffe 9F       		.byte	0x9f
 9522 0fff 2E000000 		.4byte	.LVL244
 9523 1003 31000000 		.4byte	.LVL245-1
 9524 1007 0100     		.2byte	0x1
 9525 1009 52       		.byte	0x52
 9526 100a 31000000 		.4byte	.LVL245-1
 9527 100e 36000000 		.4byte	.LVL246
 9528 1012 0400     		.2byte	0x4
 9529 1014 F3       		.byte	0xf3
 9530 1015 01       		.uleb128 0x1
 9531 1016 52       		.byte	0x52
 9532 1017 9F       		.byte	0x9f
 9533 1018 36000000 		.4byte	.LVL246
 9534 101c 38000000 		.4byte	.LVL247
 9535 1020 0100     		.2byte	0x1
 9536 1022 55       		.byte	0x55
 9537 1023 38000000 		.4byte	.LVL247
 9538 1027 3B000000 		.4byte	.LVL248-1
 9539 102b 0100     		.2byte	0x1
 9540 102d 52       		.byte	0x52
 9541 102e 3B000000 		.4byte	.LVL248-1
 9542 1032 40000000 		.4byte	.LVL249
 9543 1036 0400     		.2byte	0x4
 9544 1038 F3       		.byte	0xf3
 9545 1039 01       		.uleb128 0x1
 9546 103a 52       		.byte	0x52
 9547 103b 9F       		.byte	0x9f
 9548 103c 40000000 		.4byte	.LVL249
 9549 1040 5C000000 		.4byte	.LVL256
 9550 1044 0100     		.2byte	0x1
ARM GAS  C:\Users\gjl\AppData\Local\Temp\ccg70AS9.s 			page 198


 9551 1046 55       		.byte	0x55
 9552 1047 00000000 		.4byte	0
 9553 104b 00000000 		.4byte	0
 9554              	.LLST96:
 9555 104f 00000000 		.4byte	.LVL238
 9556 1053 06000000 		.4byte	.LVL239
 9557 1057 0100     		.2byte	0x1
 9558 1059 53       		.byte	0x53
 9559 105a 06000000 		.4byte	.LVL239
 9560 105e 5E000000 		.4byte	.LFE21
 9561 1062 0400     		.2byte	0x4
 9562 1064 F3       		.byte	0xf3
 9563 1065 01       		.uleb128 0x1
 9564 1066 53       		.byte	0x53
 9565 1067 9F       		.byte	0x9f
 9566 1068 00000000 		.4byte	0
 9567 106c 00000000 		.4byte	0
 9568              	.LLST97:
 9569 1070 40000000 		.4byte	.LVL249
 9570 1074 5C000000 		.4byte	.LVL254
 9571 1078 0100     		.2byte	0x1
 9572 107a 57       		.byte	0x57
 9573 107b 00000000 		.4byte	0
 9574 107f 00000000 		.4byte	0
 9575              	.LLST98:
 9576 1083 40000000 		.4byte	.LVL249
 9577 1087 5C000000 		.4byte	.LVL254
 9578 108b 0100     		.2byte	0x1
 9579 108d 55       		.byte	0x55
 9580 108e 00000000 		.4byte	0
 9581 1092 00000000 		.4byte	0
 9582              	.LLST99:
 9583 1096 40000000 		.4byte	.LVL249
 9584 109a 5C000000 		.4byte	.LVL254
 9585 109e 0100     		.2byte	0x1
 9586 10a0 56       		.byte	0x56
 9587 10a1 00000000 		.4byte	0
 9588 10a5 00000000 		.4byte	0
 9589              	.LLST100:
 9590 10a9 40000000 		.4byte	.LVL249
 9591 10ad 5C000000 		.4byte	.LVL254
 9592 10b1 0100     		.2byte	0x1
 9593 10b3 54       		.byte	0x54
 9594 10b4 00000000 		.4byte	0
 9595 10b8 00000000 		.4byte	0
 9596              	.LLST101:
 9597 10bc 40000000 		.4byte	.LVL249
 9598 10c0 5C000000 		.4byte	.LVL254
 9599 10c4 0200     		.2byte	0x2
 9600 10c6 30       		.byte	0x30
 9601 10c7 9F       		.byte	0x9f
 9602 10c8 00000000 		.4byte	0
 9603 10cc 00000000 		.4byte	0
 9604              	.LLST102:
 9605 10d0 52000000 		.4byte	.LVL251
 9606 10d4 56000000 		.4byte	.LVL252
 9607 10d8 0100     		.2byte	0x1
ARM GAS  C:\Users\gjl\AppData\Local\Temp\ccg70AS9.s 			page 199


 9608 10da 50       		.byte	0x50
 9609 10db 56000000 		.4byte	.LVL252
 9610 10df 59000000 		.4byte	.LVL253-1
 9611 10e3 0100     		.2byte	0x1
 9612 10e5 51       		.byte	0x51
 9613 10e6 00000000 		.4byte	0
 9614 10ea 00000000 		.4byte	0
 9615              	.LLST103:
 9616 10ee 00000000 		.4byte	.LVL258
 9617 10f2 0D000000 		.4byte	.LVL259-1
 9618 10f6 0100     		.2byte	0x1
 9619 10f8 50       		.byte	0x50
 9620 10f9 0D000000 		.4byte	.LVL259-1
 9621 10fd 64000000 		.4byte	.LVL281
 9622 1101 0100     		.2byte	0x1
 9623 1103 56       		.byte	0x56
 9624 1104 64000000 		.4byte	.LVL281
 9625 1108 70000000 		.4byte	.LFE22
 9626 110c 0400     		.2byte	0x4
 9627 110e F3       		.byte	0xf3
 9628 110f 01       		.uleb128 0x1
 9629 1110 50       		.byte	0x50
 9630 1111 9F       		.byte	0x9f
 9631 1112 00000000 		.4byte	0
 9632 1116 00000000 		.4byte	0
 9633              	.LLST104:
 9634 111a 00000000 		.4byte	.LVL258
 9635 111e 0D000000 		.4byte	.LVL259-1
 9636 1122 0100     		.2byte	0x1
 9637 1124 51       		.byte	0x51
 9638 1125 0D000000 		.4byte	.LVL259-1
 9639 1129 10000000 		.4byte	.LVL260
 9640 112d 0400     		.2byte	0x4
 9641 112f F3       		.byte	0xf3
 9642 1130 01       		.uleb128 0x1
 9643 1131 51       		.byte	0x51
 9644 1132 9F       		.byte	0x9f
 9645 1133 12000000 		.4byte	.LVL261
 9646 1137 4A000000 		.4byte	.LVL268
 9647 113b 0100     		.2byte	0x1
 9648 113d 54       		.byte	0x54
 9649 113e 4C000000 		.4byte	.LVL269
 9650 1142 52000000 		.4byte	.LVL272
 9651 1146 0100     		.2byte	0x1
 9652 1148 54       		.byte	0x54
 9653 1149 54000000 		.4byte	.LVL273
 9654 114d 64000000 		.4byte	.LVL279
 9655 1151 0100     		.2byte	0x1
 9656 1153 54       		.byte	0x54
 9657 1154 00000000 		.4byte	0
 9658 1158 00000000 		.4byte	0
 9659              	.LLST105:
 9660 115c 00000000 		.4byte	.LVL258
 9661 1160 0D000000 		.4byte	.LVL259-1
 9662 1164 0100     		.2byte	0x1
 9663 1166 52       		.byte	0x52
 9664 1167 0D000000 		.4byte	.LVL259-1
ARM GAS  C:\Users\gjl\AppData\Local\Temp\ccg70AS9.s 			page 200


 9665 116b 10000000 		.4byte	.LVL260
 9666 116f 0400     		.2byte	0x4
 9667 1171 F3       		.byte	0xf3
 9668 1172 01       		.uleb128 0x1
 9669 1173 52       		.byte	0x52
 9670 1174 9F       		.byte	0x9f
 9671 1175 12000000 		.4byte	.LVL261
 9672 1179 4E000000 		.4byte	.LVL270
 9673 117d 0100     		.2byte	0x1
 9674 117f 55       		.byte	0x55
 9675 1180 50000000 		.4byte	.LVL271
 9676 1184 58000000 		.4byte	.LVL274
 9677 1188 0100     		.2byte	0x1
 9678 118a 55       		.byte	0x55
 9679 118b 5A000000 		.4byte	.LVL275
 9680 118f 64000000 		.4byte	.LVL280
 9681 1193 0100     		.2byte	0x1
 9682 1195 55       		.byte	0x55
 9683 1196 00000000 		.4byte	0
 9684 119a 00000000 		.4byte	0
 9685              	.LLST106:
 9686 119e 00000000 		.4byte	.LVL258
 9687 11a2 0D000000 		.4byte	.LVL259-1
 9688 11a6 0100     		.2byte	0x1
 9689 11a8 53       		.byte	0x53
 9690 11a9 0D000000 		.4byte	.LVL259-1
 9691 11ad 64000000 		.4byte	.LVL282
 9692 11b1 0100     		.2byte	0x1
 9693 11b3 57       		.byte	0x57
 9694 11b4 00000000 		.4byte	0
 9695 11b8 00000000 		.4byte	0
 9696              	.LLST107:
 9697 11bc 1E000000 		.4byte	.LVL263
 9698 11c0 30000000 		.4byte	.LVL265
 9699 11c4 0100     		.2byte	0x1
 9700 11c6 50       		.byte	0x50
 9701 11c7 62000000 		.4byte	.LVL277
 9702 11cb 64000000 		.4byte	.LVL278
 9703 11cf 0100     		.2byte	0x1
 9704 11d1 50       		.byte	0x50
 9705 11d2 00000000 		.4byte	0
 9706 11d6 00000000 		.4byte	0
 9707              	.LLST108:
 9708 11da 3A000000 		.4byte	.LVL267
 9709 11de 5E000000 		.4byte	.LVL276
 9710 11e2 0100     		.2byte	0x1
 9711 11e4 53       		.byte	0x53
 9712 11e5 00000000 		.4byte	0
 9713 11e9 00000000 		.4byte	0
 9714              	.LLST109:
 9715 11ed 0E000000 		.4byte	.LVL259
 9716 11f1 10000000 		.4byte	.LVL260
 9717 11f5 0200     		.2byte	0x2
 9718 11f7 30       		.byte	0x30
 9719 11f8 9F       		.byte	0x9f
 9720 11f9 12000000 		.4byte	.LVL261
 9721 11fd 70000000 		.4byte	.LFE22
ARM GAS  C:\Users\gjl\AppData\Local\Temp\ccg70AS9.s 			page 201


 9722 1201 0200     		.2byte	0x2
 9723 1203 91       		.byte	0x91
 9724 1204 64       		.sleb128 -28
 9725 1205 00000000 		.4byte	0
 9726 1209 00000000 		.4byte	0
 9727              	.LLST110:
 9728 120d 00000000 		.4byte	.LVL283
 9729 1211 09000000 		.4byte	.LVL284-1
 9730 1215 0100     		.2byte	0x1
 9731 1217 50       		.byte	0x50
 9732 1218 09000000 		.4byte	.LVL284-1
 9733 121c 10000000 		.4byte	.LFE23
 9734 1220 0400     		.2byte	0x4
 9735 1222 F3       		.byte	0xf3
 9736 1223 01       		.uleb128 0x1
 9737 1224 50       		.byte	0x50
 9738 1225 9F       		.byte	0x9f
 9739 1226 00000000 		.4byte	0
 9740 122a 00000000 		.4byte	0
 9741              	.LLST111:
 9742 122e 00000000 		.4byte	.LVL283
 9743 1232 09000000 		.4byte	.LVL284-1
 9744 1236 0100     		.2byte	0x1
 9745 1238 51       		.byte	0x51
 9746 1239 09000000 		.4byte	.LVL284-1
 9747 123d 10000000 		.4byte	.LFE23
 9748 1241 0400     		.2byte	0x4
 9749 1243 F3       		.byte	0xf3
 9750 1244 01       		.uleb128 0x1
 9751 1245 51       		.byte	0x51
 9752 1246 9F       		.byte	0x9f
 9753 1247 00000000 		.4byte	0
 9754 124b 00000000 		.4byte	0
 9755              	.LLST112:
 9756 124f 00000000 		.4byte	.LVL283
 9757 1253 09000000 		.4byte	.LVL284-1
 9758 1257 0100     		.2byte	0x1
 9759 1259 52       		.byte	0x52
 9760 125a 09000000 		.4byte	.LVL284-1
 9761 125e 10000000 		.4byte	.LFE23
 9762 1262 0400     		.2byte	0x4
 9763 1264 F3       		.byte	0xf3
 9764 1265 01       		.uleb128 0x1
 9765 1266 52       		.byte	0x52
 9766 1267 9F       		.byte	0x9f
 9767 1268 00000000 		.4byte	0
 9768 126c 00000000 		.4byte	0
 9769              	.LLST113:
 9770 1270 00000000 		.4byte	.LVL283
 9771 1274 09000000 		.4byte	.LVL284-1
 9772 1278 0100     		.2byte	0x1
 9773 127a 53       		.byte	0x53
 9774 127b 09000000 		.4byte	.LVL284-1
 9775 127f 10000000 		.4byte	.LFE23
 9776 1283 0400     		.2byte	0x4
 9777 1285 F3       		.byte	0xf3
 9778 1286 01       		.uleb128 0x1
ARM GAS  C:\Users\gjl\AppData\Local\Temp\ccg70AS9.s 			page 202


 9779 1287 53       		.byte	0x53
 9780 1288 9F       		.byte	0x9f
 9781 1289 00000000 		.4byte	0
 9782 128d 00000000 		.4byte	0
 9783              	.LLST114:
 9784 1291 00000000 		.4byte	.LVL285
 9785 1295 09000000 		.4byte	.LVL286-1
 9786 1299 0100     		.2byte	0x1
 9787 129b 50       		.byte	0x50
 9788 129c 09000000 		.4byte	.LVL286-1
 9789 12a0 10000000 		.4byte	.LFE24
 9790 12a4 0400     		.2byte	0x4
 9791 12a6 F3       		.byte	0xf3
 9792 12a7 01       		.uleb128 0x1
 9793 12a8 50       		.byte	0x50
 9794 12a9 9F       		.byte	0x9f
 9795 12aa 00000000 		.4byte	0
 9796 12ae 00000000 		.4byte	0
 9797              	.LLST115:
 9798 12b2 00000000 		.4byte	.LVL285
 9799 12b6 09000000 		.4byte	.LVL286-1
 9800 12ba 0100     		.2byte	0x1
 9801 12bc 51       		.byte	0x51
 9802 12bd 09000000 		.4byte	.LVL286-1
 9803 12c1 10000000 		.4byte	.LFE24
 9804 12c5 0400     		.2byte	0x4
 9805 12c7 F3       		.byte	0xf3
 9806 12c8 01       		.uleb128 0x1
 9807 12c9 51       		.byte	0x51
 9808 12ca 9F       		.byte	0x9f
 9809 12cb 00000000 		.4byte	0
 9810 12cf 00000000 		.4byte	0
 9811              	.LLST116:
 9812 12d3 00000000 		.4byte	.LVL285
 9813 12d7 09000000 		.4byte	.LVL286-1
 9814 12db 0100     		.2byte	0x1
 9815 12dd 52       		.byte	0x52
 9816 12de 09000000 		.4byte	.LVL286-1
 9817 12e2 10000000 		.4byte	.LFE24
 9818 12e6 0400     		.2byte	0x4
 9819 12e8 F3       		.byte	0xf3
 9820 12e9 01       		.uleb128 0x1
 9821 12ea 52       		.byte	0x52
 9822 12eb 9F       		.byte	0x9f
 9823 12ec 00000000 		.4byte	0
 9824 12f0 00000000 		.4byte	0
 9825              	.LLST117:
 9826 12f4 00000000 		.4byte	.LVL285
 9827 12f8 09000000 		.4byte	.LVL286-1
 9828 12fc 0100     		.2byte	0x1
 9829 12fe 53       		.byte	0x53
 9830 12ff 09000000 		.4byte	.LVL286-1
 9831 1303 10000000 		.4byte	.LFE24
 9832 1307 0400     		.2byte	0x4
 9833 1309 F3       		.byte	0xf3
 9834 130a 01       		.uleb128 0x1
 9835 130b 53       		.byte	0x53
ARM GAS  C:\Users\gjl\AppData\Local\Temp\ccg70AS9.s 			page 203


 9836 130c 9F       		.byte	0x9f
 9837 130d 00000000 		.4byte	0
 9838 1311 00000000 		.4byte	0
 9839              	.LLST118:
 9840 1315 00000000 		.4byte	.LVL287
 9841 1319 13000000 		.4byte	.LVL290-1
 9842 131d 0100     		.2byte	0x1
 9843 131f 50       		.byte	0x50
 9844 1320 13000000 		.4byte	.LVL290-1
 9845 1324 A2000000 		.4byte	.LVL318
 9846 1328 0100     		.2byte	0x1
 9847 132a 55       		.byte	0x55
 9848 132b A2000000 		.4byte	.LVL318
 9849 132f B0000000 		.4byte	.LFE25
 9850 1333 0400     		.2byte	0x4
 9851 1335 F3       		.byte	0xf3
 9852 1336 01       		.uleb128 0x1
 9853 1337 50       		.byte	0x50
 9854 1338 9F       		.byte	0x9f
 9855 1339 00000000 		.4byte	0
 9856 133d 00000000 		.4byte	0
 9857              	.LLST119:
 9858 1341 00000000 		.4byte	.LVL287
 9859 1345 13000000 		.4byte	.LVL290-1
 9860 1349 0100     		.2byte	0x1
 9861 134b 51       		.byte	0x51
 9862 134c 13000000 		.4byte	.LVL290-1
 9863 1350 1A000000 		.4byte	.LVL291
 9864 1354 0400     		.2byte	0x4
 9865 1356 F3       		.byte	0xf3
 9866 1357 01       		.uleb128 0x1
 9867 1358 51       		.byte	0x51
 9868 1359 9F       		.byte	0x9f
 9869 135a 1A000000 		.4byte	.LVL291
 9870 135e 8C000000 		.4byte	.LVL309
 9871 1362 0200     		.2byte	0x2
 9872 1364 7D       		.byte	0x7d
 9873 1365 00       		.sleb128 0
 9874 1366 8C000000 		.4byte	.LVL309
 9875 136a 90000000 		.4byte	.LVL311
 9876 136e 0100     		.2byte	0x1
 9877 1370 53       		.byte	0x53
 9878 1371 90000000 		.4byte	.LVL311
 9879 1375 92000000 		.4byte	.LVL312
 9880 1379 0700     		.2byte	0x7
 9881 137b 7D       		.byte	0x7d
 9882 137c 00       		.sleb128 0
 9883 137d 06       		.byte	0x6
 9884 137e 74       		.byte	0x74
 9885 137f 00       		.sleb128 0
 9886 1380 22       		.byte	0x22
 9887 1381 9F       		.byte	0x9f
 9888 1382 92000000 		.4byte	.LVL312
 9889 1386 A2000000 		.4byte	.LVL317
 9890 138a 0200     		.2byte	0x2
 9891 138c 7D       		.byte	0x7d
 9892 138d 00       		.sleb128 0
ARM GAS  C:\Users\gjl\AppData\Local\Temp\ccg70AS9.s 			page 204


 9893 138e A2000000 		.4byte	.LVL317
 9894 1392 B0000000 		.4byte	.LFE25
 9895 1396 0200     		.2byte	0x2
 9896 1398 91       		.byte	0x91
 9897 1399 58       		.sleb128 -40
 9898 139a 00000000 		.4byte	0
 9899 139e 00000000 		.4byte	0
 9900              	.LLST120:
 9901 13a2 00000000 		.4byte	.LVL287
 9902 13a6 13000000 		.4byte	.LVL290-1
 9903 13aa 0100     		.2byte	0x1
 9904 13ac 52       		.byte	0x52
 9905 13ad 13000000 		.4byte	.LVL290-1
 9906 13b1 B0000000 		.4byte	.LFE25
 9907 13b5 0400     		.2byte	0x4
 9908 13b7 F3       		.byte	0xf3
 9909 13b8 01       		.uleb128 0x1
 9910 13b9 52       		.byte	0x52
 9911 13ba 9F       		.byte	0x9f
 9912 13bb 00000000 		.4byte	0
 9913 13bf 00000000 		.4byte	0
 9914              	.LLST121:
 9915 13c3 00000000 		.4byte	.LVL287
 9916 13c7 08000000 		.4byte	.LVL288
 9917 13cb 0100     		.2byte	0x1
 9918 13cd 53       		.byte	0x53
 9919 13ce 08000000 		.4byte	.LVL288
 9920 13d2 B0000000 		.4byte	.LFE25
 9921 13d6 0400     		.2byte	0x4
 9922 13d8 F3       		.byte	0xf3
 9923 13d9 01       		.uleb128 0x1
 9924 13da 53       		.byte	0x53
 9925 13db 9F       		.byte	0x9f
 9926 13dc 00000000 		.4byte	0
 9927 13e0 00000000 		.4byte	0
 9928              	.LLST122:
 9929 13e4 00000000 		.4byte	.LVL287
 9930 13e8 32000000 		.4byte	.LVL294
 9931 13ec 0200     		.2byte	0x2
 9932 13ee 91       		.byte	0x91
 9933 13ef 04       		.sleb128 4
 9934 13f0 32000000 		.4byte	.LVL294
 9935 13f4 34000000 		.4byte	.LVL295
 9936 13f8 0100     		.2byte	0x1
 9937 13fa 53       		.byte	0x53
 9938 13fb 34000000 		.4byte	.LVL295
 9939 13ff B0000000 		.4byte	.LFE25
 9940 1403 0200     		.2byte	0x2
 9941 1405 91       		.byte	0x91
 9942 1406 04       		.sleb128 4
 9943 1407 00000000 		.4byte	0
 9944 140b 00000000 		.4byte	0
 9945              	.LLST123:
 9946 140f 0C000000 		.4byte	.LVL289
 9947 1413 1A000000 		.4byte	.LVL291
 9948 1417 0300     		.2byte	0x3
 9949 1419 09       		.byte	0x9
ARM GAS  C:\Users\gjl\AppData\Local\Temp\ccg70AS9.s 			page 205


 9950 141a FF       		.byte	0xff
 9951 141b 9F       		.byte	0x9f
 9952 141c 1A000000 		.4byte	.LVL291
 9953 1420 60000000 		.4byte	.LVL301
 9954 1424 0100     		.2byte	0x1
 9955 1426 56       		.byte	0x56
 9956 1427 64000000 		.4byte	.LVL303
 9957 142b 72000000 		.4byte	.LVL305
 9958 142f 0100     		.2byte	0x1
 9959 1431 56       		.byte	0x56
 9960 1432 76000000 		.4byte	.LVL307
 9961 1436 9E000000 		.4byte	.LVL315
 9962 143a 0100     		.2byte	0x1
 9963 143c 57       		.byte	0x57
 9964 143d 9E000000 		.4byte	.LVL315
 9965 1441 A2000000 		.4byte	.LVL319
 9966 1445 0100     		.2byte	0x1
 9967 1447 56       		.byte	0x56
 9968 1448 00000000 		.4byte	0
 9969 144c 00000000 		.4byte	0
 9970              	.LLST124:
 9971 1450 28000000 		.4byte	.LVL293
 9972 1454 3C000000 		.4byte	.LVL296
 9973 1458 0100     		.2byte	0x1
 9974 145a 50       		.byte	0x50
 9975 145b 9E000000 		.4byte	.LVL315
 9976 145f A0000000 		.4byte	.LVL316
 9977 1463 0100     		.2byte	0x1
 9978 1465 50       		.byte	0x50
 9979 1466 00000000 		.4byte	0
 9980 146a 00000000 		.4byte	0
 9981              	.LLST125:
 9982 146e 44000000 		.4byte	.LVL298
 9983 1472 58000000 		.4byte	.LVL300
 9984 1476 0100     		.2byte	0x1
 9985 1478 54       		.byte	0x54
 9986 1479 60000000 		.4byte	.LVL301
 9987 147d 74000000 		.4byte	.LVL306
 9988 1481 0100     		.2byte	0x1
 9989 1483 54       		.byte	0x54
 9990 1484 76000000 		.4byte	.LVL307
 9991 1488 98000000 		.4byte	.LVL313
 9992 148c 0100     		.2byte	0x1
 9993 148e 54       		.byte	0x54
 9994 148f 00000000 		.4byte	0
 9995 1493 00000000 		.4byte	0
 9996              	.LLST126:
 9997 1497 14000000 		.4byte	.LVL290
 9998 149b 1A000000 		.4byte	.LVL291
 9999 149f 0200     		.2byte	0x2
 10000 14a1 30       		.byte	0x30
 10001 14a2 9F       		.byte	0x9f
 10002 14a3 1A000000 		.4byte	.LVL291
 10003 14a7 B0000000 		.4byte	.LFE25
 10004 14ab 0200     		.2byte	0x2
 10005 14ad 91       		.byte	0x91
 10006 14ae 5C       		.sleb128 -36
ARM GAS  C:\Users\gjl\AppData\Local\Temp\ccg70AS9.s 			page 206


 10007 14af 00000000 		.4byte	0
 10008 14b3 00000000 		.4byte	0
 10009              	.LLST127:
 10010 14b7 60000000 		.4byte	.LVL301
 10011 14bb 64000000 		.4byte	.LVL303
 10012 14bf 0100     		.2byte	0x1
 10013 14c1 50       		.byte	0x50
 10014 14c2 72000000 		.4byte	.LVL305
 10015 14c6 76000000 		.4byte	.LVL307
 10016 14ca 0100     		.2byte	0x1
 10017 14cc 50       		.byte	0x50
 10018 14cd 76000000 		.4byte	.LVL307
 10019 14d1 8E000000 		.4byte	.LVL310
 10020 14d5 0100     		.2byte	0x1
 10021 14d7 56       		.byte	0x56
 10022 14d8 00000000 		.4byte	0
 10023 14dc 00000000 		.4byte	0
 10024              	.LLST128:
 10025 14e0 00000000 		.4byte	.LVL320
 10026 14e4 13000000 		.4byte	.LVL323-1
 10027 14e8 0100     		.2byte	0x1
 10028 14ea 50       		.byte	0x50
 10029 14eb 13000000 		.4byte	.LVL323-1
 10030 14ef A2000000 		.4byte	.LVL351
 10031 14f3 0100     		.2byte	0x1
 10032 14f5 55       		.byte	0x55
 10033 14f6 A2000000 		.4byte	.LVL351
 10034 14fa B0000000 		.4byte	.LFE26
 10035 14fe 0400     		.2byte	0x4
 10036 1500 F3       		.byte	0xf3
 10037 1501 01       		.uleb128 0x1
 10038 1502 50       		.byte	0x50
 10039 1503 9F       		.byte	0x9f
 10040 1504 00000000 		.4byte	0
 10041 1508 00000000 		.4byte	0
 10042              	.LLST129:
 10043 150c 00000000 		.4byte	.LVL320
 10044 1510 13000000 		.4byte	.LVL323-1
 10045 1514 0100     		.2byte	0x1
 10046 1516 51       		.byte	0x51
 10047 1517 13000000 		.4byte	.LVL323-1
 10048 151b 1A000000 		.4byte	.LVL324
 10049 151f 0400     		.2byte	0x4
 10050 1521 F3       		.byte	0xf3
 10051 1522 01       		.uleb128 0x1
 10052 1523 51       		.byte	0x51
 10053 1524 9F       		.byte	0x9f
 10054 1525 1A000000 		.4byte	.LVL324
 10055 1529 8C000000 		.4byte	.LVL342
 10056 152d 0200     		.2byte	0x2
 10057 152f 7D       		.byte	0x7d
 10058 1530 00       		.sleb128 0
 10059 1531 8C000000 		.4byte	.LVL342
 10060 1535 90000000 		.4byte	.LVL344
 10061 1539 0100     		.2byte	0x1
 10062 153b 53       		.byte	0x53
 10063 153c 90000000 		.4byte	.LVL344
ARM GAS  C:\Users\gjl\AppData\Local\Temp\ccg70AS9.s 			page 207


 10064 1540 92000000 		.4byte	.LVL345
 10065 1544 0700     		.2byte	0x7
 10066 1546 7D       		.byte	0x7d
 10067 1547 00       		.sleb128 0
 10068 1548 06       		.byte	0x6
 10069 1549 74       		.byte	0x74
 10070 154a 00       		.sleb128 0
 10071 154b 22       		.byte	0x22
 10072 154c 9F       		.byte	0x9f
 10073 154d 92000000 		.4byte	.LVL345
 10074 1551 A2000000 		.4byte	.LVL350
 10075 1555 0200     		.2byte	0x2
 10076 1557 7D       		.byte	0x7d
 10077 1558 00       		.sleb128 0
 10078 1559 A2000000 		.4byte	.LVL350
 10079 155d B0000000 		.4byte	.LFE26
 10080 1561 0200     		.2byte	0x2
 10081 1563 91       		.byte	0x91
 10082 1564 58       		.sleb128 -40
 10083 1565 00000000 		.4byte	0
 10084 1569 00000000 		.4byte	0
 10085              	.LLST130:
 10086 156d 00000000 		.4byte	.LVL320
 10087 1571 13000000 		.4byte	.LVL323-1
 10088 1575 0100     		.2byte	0x1
 10089 1577 52       		.byte	0x52
 10090 1578 13000000 		.4byte	.LVL323-1
 10091 157c B0000000 		.4byte	.LFE26
 10092 1580 0400     		.2byte	0x4
 10093 1582 F3       		.byte	0xf3
 10094 1583 01       		.uleb128 0x1
 10095 1584 52       		.byte	0x52
 10096 1585 9F       		.byte	0x9f
 10097 1586 00000000 		.4byte	0
 10098 158a 00000000 		.4byte	0
 10099              	.LLST131:
 10100 158e 00000000 		.4byte	.LVL320
 10101 1592 08000000 		.4byte	.LVL321
 10102 1596 0100     		.2byte	0x1
 10103 1598 53       		.byte	0x53
 10104 1599 08000000 		.4byte	.LVL321
 10105 159d B0000000 		.4byte	.LFE26
 10106 15a1 0400     		.2byte	0x4
 10107 15a3 F3       		.byte	0xf3
 10108 15a4 01       		.uleb128 0x1
 10109 15a5 53       		.byte	0x53
 10110 15a6 9F       		.byte	0x9f
 10111 15a7 00000000 		.4byte	0
 10112 15ab 00000000 		.4byte	0
 10113              	.LLST132:
 10114 15af 00000000 		.4byte	.LVL320
 10115 15b3 32000000 		.4byte	.LVL327
 10116 15b7 0200     		.2byte	0x2
 10117 15b9 91       		.byte	0x91
 10118 15ba 04       		.sleb128 4
 10119 15bb 32000000 		.4byte	.LVL327
 10120 15bf 34000000 		.4byte	.LVL328
ARM GAS  C:\Users\gjl\AppData\Local\Temp\ccg70AS9.s 			page 208


 10121 15c3 0100     		.2byte	0x1
 10122 15c5 53       		.byte	0x53
 10123 15c6 34000000 		.4byte	.LVL328
 10124 15ca B0000000 		.4byte	.LFE26
 10125 15ce 0200     		.2byte	0x2
 10126 15d0 91       		.byte	0x91
 10127 15d1 04       		.sleb128 4
 10128 15d2 00000000 		.4byte	0
 10129 15d6 00000000 		.4byte	0
 10130              	.LLST133:
 10131 15da 0C000000 		.4byte	.LVL322
 10132 15de 1A000000 		.4byte	.LVL324
 10133 15e2 0300     		.2byte	0x3
 10134 15e4 09       		.byte	0x9
 10135 15e5 FF       		.byte	0xff
 10136 15e6 9F       		.byte	0x9f
 10137 15e7 1A000000 		.4byte	.LVL324
 10138 15eb 60000000 		.4byte	.LVL334
 10139 15ef 0100     		.2byte	0x1
 10140 15f1 56       		.byte	0x56
 10141 15f2 64000000 		.4byte	.LVL336
 10142 15f6 72000000 		.4byte	.LVL338
 10143 15fa 0100     		.2byte	0x1
 10144 15fc 56       		.byte	0x56
 10145 15fd 76000000 		.4byte	.LVL340
 10146 1601 9E000000 		.4byte	.LVL348
 10147 1605 0100     		.2byte	0x1
 10148 1607 57       		.byte	0x57
 10149 1608 9E000000 		.4byte	.LVL348
 10150 160c A2000000 		.4byte	.LVL352
 10151 1610 0100     		.2byte	0x1
 10152 1612 56       		.byte	0x56
 10153 1613 00000000 		.4byte	0
 10154 1617 00000000 		.4byte	0
 10155              	.LLST134:
 10156 161b 28000000 		.4byte	.LVL326
 10157 161f 3C000000 		.4byte	.LVL329
 10158 1623 0100     		.2byte	0x1
 10159 1625 50       		.byte	0x50
 10160 1626 9E000000 		.4byte	.LVL348
 10161 162a A0000000 		.4byte	.LVL349
 10162 162e 0100     		.2byte	0x1
 10163 1630 50       		.byte	0x50
 10164 1631 00000000 		.4byte	0
 10165 1635 00000000 		.4byte	0
 10166              	.LLST135:
 10167 1639 44000000 		.4byte	.LVL331
 10168 163d 58000000 		.4byte	.LVL333
 10169 1641 0100     		.2byte	0x1
 10170 1643 54       		.byte	0x54
 10171 1644 60000000 		.4byte	.LVL334
 10172 1648 74000000 		.4byte	.LVL339
 10173 164c 0100     		.2byte	0x1
 10174 164e 54       		.byte	0x54
 10175 164f 76000000 		.4byte	.LVL340
 10176 1653 98000000 		.4byte	.LVL346
 10177 1657 0100     		.2byte	0x1
ARM GAS  C:\Users\gjl\AppData\Local\Temp\ccg70AS9.s 			page 209


 10178 1659 54       		.byte	0x54
 10179 165a 00000000 		.4byte	0
 10180 165e 00000000 		.4byte	0
 10181              	.LLST136:
 10182 1662 14000000 		.4byte	.LVL323
 10183 1666 1A000000 		.4byte	.LVL324
 10184 166a 0200     		.2byte	0x2
 10185 166c 30       		.byte	0x30
 10186 166d 9F       		.byte	0x9f
 10187 166e 1A000000 		.4byte	.LVL324
 10188 1672 B0000000 		.4byte	.LFE26
 10189 1676 0200     		.2byte	0x2
 10190 1678 91       		.byte	0x91
 10191 1679 5C       		.sleb128 -36
 10192 167a 00000000 		.4byte	0
 10193 167e 00000000 		.4byte	0
 10194              	.LLST137:
 10195 1682 60000000 		.4byte	.LVL334
 10196 1686 64000000 		.4byte	.LVL336
 10197 168a 0100     		.2byte	0x1
 10198 168c 50       		.byte	0x50
 10199 168d 72000000 		.4byte	.LVL338
 10200 1691 76000000 		.4byte	.LVL340
 10201 1695 0100     		.2byte	0x1
 10202 1697 50       		.byte	0x50
 10203 1698 76000000 		.4byte	.LVL340
 10204 169c 8E000000 		.4byte	.LVL343
 10205 16a0 0100     		.2byte	0x1
 10206 16a2 56       		.byte	0x56
 10207 16a3 00000000 		.4byte	0
 10208 16a7 00000000 		.4byte	0
 10209              	.LLST138:
 10210 16ab 00000000 		.4byte	.LVL354
 10211 16af 0D000000 		.4byte	.LVL355-1
 10212 16b3 0100     		.2byte	0x1
 10213 16b5 50       		.byte	0x50
 10214 16b6 0D000000 		.4byte	.LVL355-1
 10215 16ba 10000000 		.4byte	.LFE28
 10216 16be 0400     		.2byte	0x4
 10217 16c0 F3       		.byte	0xf3
 10218 16c1 01       		.uleb128 0x1
 10219 16c2 50       		.byte	0x50
 10220 16c3 9F       		.byte	0x9f
 10221 16c4 00000000 		.4byte	0
 10222 16c8 00000000 		.4byte	0
 10223              	.LLST139:
 10224 16cc 00000000 		.4byte	.LVL356
 10225 16d0 0D000000 		.4byte	.LVL357-1
 10226 16d4 0100     		.2byte	0x1
 10227 16d6 50       		.byte	0x50
 10228 16d7 0D000000 		.4byte	.LVL357-1
 10229 16db 10000000 		.4byte	.LFE29
 10230 16df 0400     		.2byte	0x4
 10231 16e1 F3       		.byte	0xf3
 10232 16e2 01       		.uleb128 0x1
 10233 16e3 50       		.byte	0x50
 10234 16e4 9F       		.byte	0x9f
ARM GAS  C:\Users\gjl\AppData\Local\Temp\ccg70AS9.s 			page 210


 10235 16e5 00000000 		.4byte	0
 10236 16e9 00000000 		.4byte	0
 10237              	.LLST140:
 10238 16ed 00000000 		.4byte	.LVL358
 10239 16f1 0D000000 		.4byte	.LVL359-1
 10240 16f5 0100     		.2byte	0x1
 10241 16f7 50       		.byte	0x50
 10242 16f8 0D000000 		.4byte	.LVL359-1
 10243 16fc 10000000 		.4byte	.LFE30
 10244 1700 0400     		.2byte	0x4
 10245 1702 F3       		.byte	0xf3
 10246 1703 01       		.uleb128 0x1
 10247 1704 50       		.byte	0x50
 10248 1705 9F       		.byte	0x9f
 10249 1706 00000000 		.4byte	0
 10250 170a 00000000 		.4byte	0
 10251              	.LLST141:
 10252 170e 00000000 		.4byte	.LVL364
 10253 1712 0E000000 		.4byte	.LVL365
 10254 1716 0100     		.2byte	0x1
 10255 1718 50       		.byte	0x50
 10256 1719 0E000000 		.4byte	.LVL365
 10257 171d 18000000 		.4byte	.LVL368
 10258 1721 0100     		.2byte	0x1
 10259 1723 54       		.byte	0x54
 10260 1724 18000000 		.4byte	.LVL368
 10261 1728 1A000000 		.4byte	.LFE39
 10262 172c 0400     		.2byte	0x4
 10263 172e F3       		.byte	0xf3
 10264 172f 01       		.uleb128 0x1
 10265 1730 50       		.byte	0x50
 10266 1731 9F       		.byte	0x9f
 10267 1732 00000000 		.4byte	0
 10268 1736 00000000 		.4byte	0
 10269              	.LLST142:
 10270 173a 00000000 		.4byte	.LVL364
 10271 173e 11000000 		.4byte	.LVL366-1
 10272 1742 0100     		.2byte	0x1
 10273 1744 51       		.byte	0x51
 10274 1745 11000000 		.4byte	.LVL366-1
 10275 1749 1A000000 		.4byte	.LFE39
 10276 174d 0400     		.2byte	0x4
 10277 174f F3       		.byte	0xf3
 10278 1750 01       		.uleb128 0x1
 10279 1751 51       		.byte	0x51
 10280 1752 9F       		.byte	0x9f
 10281 1753 00000000 		.4byte	0
 10282 1757 00000000 		.4byte	0
 10283              	.LLST143:
 10284 175b 00000000 		.4byte	.LVL369
 10285 175f 17000000 		.4byte	.LVL371-1
 10286 1763 0100     		.2byte	0x1
 10287 1765 50       		.byte	0x50
 10288 1766 17000000 		.4byte	.LVL371-1
 10289 176a 20000000 		.4byte	.LFE42
 10290 176e 0400     		.2byte	0x4
 10291 1770 F3       		.byte	0xf3
ARM GAS  C:\Users\gjl\AppData\Local\Temp\ccg70AS9.s 			page 211


 10292 1771 01       		.uleb128 0x1
 10293 1772 50       		.byte	0x50
 10294 1773 9F       		.byte	0x9f
 10295 1774 00000000 		.4byte	0
 10296 1778 00000000 		.4byte	0
 10297              	.LLST144:
 10298 177c 00000000 		.4byte	.LVL369
 10299 1780 0E000000 		.4byte	.LVL370
 10300 1784 0100     		.2byte	0x1
 10301 1786 51       		.byte	0x51
 10302 1787 0E000000 		.4byte	.LVL370
 10303 178b 20000000 		.4byte	.LFE42
 10304 178f 0400     		.2byte	0x4
 10305 1791 F3       		.byte	0xf3
 10306 1792 01       		.uleb128 0x1
 10307 1793 51       		.byte	0x51
 10308 1794 9F       		.byte	0x9f
 10309 1795 00000000 		.4byte	0
 10310 1799 00000000 		.4byte	0
 10311              	.LLST145:
 10312 179d 00000000 		.4byte	.LVL372
 10313 17a1 09000000 		.4byte	.LVL373-1
 10314 17a5 0100     		.2byte	0x1
 10315 17a7 50       		.byte	0x50
 10316 17a8 09000000 		.4byte	.LVL373-1
 10317 17ac 10000000 		.4byte	.LFE44
 10318 17b0 0400     		.2byte	0x4
 10319 17b2 F3       		.byte	0xf3
 10320 17b3 01       		.uleb128 0x1
 10321 17b4 50       		.byte	0x50
 10322 17b5 9F       		.byte	0x9f
 10323 17b6 00000000 		.4byte	0
 10324 17ba 00000000 		.4byte	0
 10325              	.LLST146:
 10326 17be 00000000 		.4byte	.LVL372
 10327 17c2 09000000 		.4byte	.LVL373-1
 10328 17c6 0100     		.2byte	0x1
 10329 17c8 51       		.byte	0x51
 10330 17c9 09000000 		.4byte	.LVL373-1
 10331 17cd 10000000 		.4byte	.LFE44
 10332 17d1 0400     		.2byte	0x4
 10333 17d3 F3       		.byte	0xf3
 10334 17d4 01       		.uleb128 0x1
 10335 17d5 51       		.byte	0x51
 10336 17d6 9F       		.byte	0x9f
 10337 17d7 00000000 		.4byte	0
 10338 17db 00000000 		.4byte	0
 10339              	.LLST147:
 10340 17df 00000000 		.4byte	.LVL374
 10341 17e3 0C000000 		.4byte	.LVL375
 10342 17e7 0100     		.2byte	0x1
 10343 17e9 50       		.byte	0x50
 10344 17ea 0C000000 		.4byte	.LVL375
 10345 17ee 80000000 		.4byte	.LVL391
 10346 17f2 0100     		.2byte	0x1
 10347 17f4 54       		.byte	0x54
 10348 17f5 80000000 		.4byte	.LVL391
ARM GAS  C:\Users\gjl\AppData\Local\Temp\ccg70AS9.s 			page 212


 10349 17f9 90000000 		.4byte	.LFE45
 10350 17fd 0400     		.2byte	0x4
 10351 17ff F3       		.byte	0xf3
 10352 1800 01       		.uleb128 0x1
 10353 1801 50       		.byte	0x50
 10354 1802 9F       		.byte	0x9f
 10355 1803 00000000 		.4byte	0
 10356 1807 00000000 		.4byte	0
 10357              	.LLST148:
 10358 180b 00000000 		.4byte	.LVL374
 10359 180f 0C000000 		.4byte	.LVL375
 10360 1813 0100     		.2byte	0x1
 10361 1815 51       		.byte	0x51
 10362 1816 0C000000 		.4byte	.LVL375
 10363 181a 90000000 		.4byte	.LFE45
 10364 181e 0400     		.2byte	0x4
 10365 1820 F3       		.byte	0xf3
 10366 1821 01       		.uleb128 0x1
 10367 1822 51       		.byte	0x51
 10368 1823 9F       		.byte	0x9f
 10369 1824 00000000 		.4byte	0
 10370 1828 00000000 		.4byte	0
 10371              	.LLST149:
 10372 182c 0C000000 		.4byte	.LVL375
 10373 1830 7E000000 		.4byte	.LVL390
 10374 1834 0100     		.2byte	0x1
 10375 1836 55       		.byte	0x55
 10376 1837 00000000 		.4byte	0
 10377 183b 00000000 		.4byte	0
 10378              	.LLST150:
 10379 183f 0C000000 		.4byte	.LVL375
 10380 1843 7E000000 		.4byte	.LVL390
 10381 1847 0100     		.2byte	0x1
 10382 1849 54       		.byte	0x54
 10383 184a 00000000 		.4byte	0
 10384 184e 00000000 		.4byte	0
 10385              	.LLST151:
 10386 1852 0C000000 		.4byte	.LVL375
 10387 1856 40000000 		.4byte	.LVL381
 10388 185a 0200     		.2byte	0x2
 10389 185c 30       		.byte	0x30
 10390 185d 9F       		.byte	0x9f
 10391 185e 42000000 		.4byte	.LVL382
 10392 1862 74000000 		.4byte	.LVL388
 10393 1866 0100     		.2byte	0x1
 10394 1868 57       		.byte	0x57
 10395 1869 74000000 		.4byte	.LVL388
 10396 186d 7E000000 		.4byte	.LVL390
 10397 1871 0800     		.2byte	0x8
 10398 1873 91       		.byte	0x91
 10399 1874 65       		.sleb128 -27
 10400 1875 94       		.byte	0x94
 10401 1876 01       		.byte	0x1
 10402 1877 77       		.byte	0x77
 10403 1878 00       		.sleb128 0
 10404 1879 22       		.byte	0x22
 10405 187a 9F       		.byte	0x9f
ARM GAS  C:\Users\gjl\AppData\Local\Temp\ccg70AS9.s 			page 213


 10406 187b 00000000 		.4byte	0
 10407 187f 00000000 		.4byte	0
 10408              	.LLST152:
 10409 1883 18000000 		.4byte	.LVL377
 10410 1887 22000000 		.4byte	.LVL379
 10411 188b 0100     		.2byte	0x1
 10412 188d 50       		.byte	0x50
 10413 188e 4E000000 		.4byte	.LVL384
 10414 1892 66000000 		.4byte	.LVL386
 10415 1896 0100     		.2byte	0x1
 10416 1898 50       		.byte	0x50
 10417 1899 74000000 		.4byte	.LVL388
 10418 189d 76000000 		.4byte	.LVL389
 10419 18a1 0100     		.2byte	0x1
 10420 18a3 50       		.byte	0x50
 10421 18a4 00000000 		.4byte	0
 10422 18a8 00000000 		.4byte	0
 10423              	.LLST153:
 10424 18ac 00000000 		.4byte	.LVL392
 10425 18b0 09000000 		.4byte	.LVL393-1
 10426 18b4 0100     		.2byte	0x1
 10427 18b6 50       		.byte	0x50
 10428 18b7 09000000 		.4byte	.LVL393-1
 10429 18bb 10000000 		.4byte	.LFE46
 10430 18bf 0400     		.2byte	0x4
 10431 18c1 F3       		.byte	0xf3
 10432 18c2 01       		.uleb128 0x1
 10433 18c3 50       		.byte	0x50
 10434 18c4 9F       		.byte	0x9f
 10435 18c5 00000000 		.4byte	0
 10436 18c9 00000000 		.4byte	0
 10437              	.LLST154:
 10438 18cd 00000000 		.4byte	.LVL392
 10439 18d1 09000000 		.4byte	.LVL393-1
 10440 18d5 0100     		.2byte	0x1
 10441 18d7 51       		.byte	0x51
 10442 18d8 09000000 		.4byte	.LVL393-1
 10443 18dc 10000000 		.4byte	.LFE46
 10444 18e0 0400     		.2byte	0x4
 10445 18e2 F3       		.byte	0xf3
 10446 18e3 01       		.uleb128 0x1
 10447 18e4 51       		.byte	0x51
 10448 18e5 9F       		.byte	0x9f
 10449 18e6 00000000 		.4byte	0
 10450 18ea 00000000 		.4byte	0
 10451              	.LLST155:
 10452 18ee 00000000 		.4byte	.LVL394
 10453 18f2 02000000 		.4byte	.LVL395
 10454 18f6 0100     		.2byte	0x1
 10455 18f8 50       		.byte	0x50
 10456 18f9 02000000 		.4byte	.LVL395
 10457 18fd 06000000 		.4byte	.LFE47
 10458 1901 0400     		.2byte	0x4
 10459 1903 70       		.byte	0x70
 10460 1904 A27F     		.sleb128 -94
 10461 1906 9F       		.byte	0x9f
 10462 1907 00000000 		.4byte	0
ARM GAS  C:\Users\gjl\AppData\Local\Temp\ccg70AS9.s 			page 214


 10463 190b 00000000 		.4byte	0
 10464              		.section	.debug_aranges,"",%progbits
 10465 0000 7C010000 		.4byte	0x17c
 10466 0004 0200     		.2byte	0x2
 10467 0006 00000000 		.4byte	.Ldebug_info0
 10468 000a 04       		.byte	0x4
 10469 000b 00       		.byte	0
 10470 000c 0000     		.2byte	0
 10471 000e 0000     		.2byte	0
 10472 0010 00000000 		.4byte	.LFB1
 10473 0014 0E000000 		.4byte	.LFE1-.LFB1
 10474 0018 00000000 		.4byte	.LFB11
 10475 001c 22000000 		.4byte	.LFE11-.LFB11
 10476 0020 00000000 		.4byte	.LFB12
 10477 0024 22000000 		.4byte	.LFE12-.LFB12
 10478 0028 00000000 		.4byte	.LFB31
 10479 002c 04000000 		.4byte	.LFE31-.LFB31
 10480 0030 00000000 		.4byte	.LFB33
 10481 0034 06000000 		.4byte	.LFE33-.LFB33
 10482 0038 00000000 		.4byte	.LFB35
 10483 003c 0A000000 		.4byte	.LFE35-.LFB35
 10484 0040 00000000 		.4byte	.LFB37
 10485 0044 1C000000 		.4byte	.LFE37-.LFB37
 10486 0048 00000000 		.4byte	.LFB2
 10487 004c 6A000000 		.4byte	.LFE2-.LFB2
 10488 0050 00000000 		.4byte	.LFB3
 10489 0054 26000000 		.4byte	.LFE3-.LFB3
 10490 0058 00000000 		.4byte	.LFB4
 10491 005c 06000000 		.4byte	.LFE4-.LFB4
 10492 0060 00000000 		.4byte	.LFB5
 10493 0064 06000000 		.4byte	.LFE5-.LFB5
 10494 0068 00000000 		.4byte	.LFB6
 10495 006c 08000000 		.4byte	.LFE6-.LFB6
 10496 0070 00000000 		.4byte	.LFB7
 10497 0074 08000000 		.4byte	.LFE7-.LFB7
 10498 0078 00000000 		.4byte	.LFB8
 10499 007c 06000000 		.4byte	.LFE8-.LFB8
 10500 0080 00000000 		.4byte	.LFB9
 10501 0084 38000000 		.4byte	.LFE9-.LFB9
 10502 0088 00000000 		.4byte	.LFB14
 10503 008c 38000000 		.4byte	.LFE14-.LFB14
 10504 0090 00000000 		.4byte	.LFB10
 10505 0094 16000000 		.4byte	.LFE10-.LFB10
 10506 0098 00000000 		.4byte	.LFB13
 10507 009c A8000000 		.4byte	.LFE13-.LFB13
 10508 00a0 00000000 		.4byte	.LFB15
 10509 00a4 54010000 		.4byte	.LFE15-.LFB15
 10510 00a8 00000000 		.4byte	.LFB16
 10511 00ac 4C000000 		.4byte	.LFE16-.LFB16
 10512 00b0 00000000 		.4byte	.LFB41
 10513 00b4 4C000000 		.4byte	.LFE41-.LFB41
 10514 00b8 00000000 		.4byte	.LFB18
 10515 00bc 0E000000 		.4byte	.LFE18-.LFB18
 10516 00c0 00000000 		.4byte	.LFB19
 10517 00c4 3E000000 		.4byte	.LFE19-.LFB19
 10518 00c8 00000000 		.4byte	.LFB40
 10519 00cc 60000000 		.4byte	.LFE40-.LFB40
ARM GAS  C:\Users\gjl\AppData\Local\Temp\ccg70AS9.s 			page 215


 10520 00d0 00000000 		.4byte	.LFB20
 10521 00d4 06000000 		.4byte	.LFE20-.LFB20
 10522 00d8 00000000 		.4byte	.LFB21
 10523 00dc 5E000000 		.4byte	.LFE21-.LFB21
 10524 00e0 00000000 		.4byte	.LFB22
 10525 00e4 70000000 		.4byte	.LFE22-.LFB22
 10526 00e8 00000000 		.4byte	.LFB23
 10527 00ec 10000000 		.4byte	.LFE23-.LFB23
 10528 00f0 00000000 		.4byte	.LFB24
 10529 00f4 10000000 		.4byte	.LFE24-.LFB24
 10530 00f8 00000000 		.4byte	.LFB25
 10531 00fc B0000000 		.4byte	.LFE25-.LFB25
 10532 0100 00000000 		.4byte	.LFB26
 10533 0104 B0000000 		.4byte	.LFE26-.LFB26
 10534 0108 00000000 		.4byte	.LFB27
 10535 010c 62000000 		.4byte	.LFE27-.LFB27
 10536 0110 00000000 		.4byte	.LFB28
 10537 0114 10000000 		.4byte	.LFE28-.LFB28
 10538 0118 00000000 		.4byte	.LFB29
 10539 011c 10000000 		.4byte	.LFE29-.LFB29
 10540 0120 00000000 		.4byte	.LFB30
 10541 0124 10000000 		.4byte	.LFE30-.LFB30
 10542 0128 00000000 		.4byte	.LFB32
 10543 012c 0C000000 		.4byte	.LFE32-.LFB32
 10544 0130 00000000 		.4byte	.LFB34
 10545 0134 0C000000 		.4byte	.LFE34-.LFB34
 10546 0138 00000000 		.4byte	.LFB36
 10547 013c 0C000000 		.4byte	.LFE36-.LFB36
 10548 0140 00000000 		.4byte	.LFB38
 10549 0144 0C000000 		.4byte	.LFE38-.LFB38
 10550 0148 00000000 		.4byte	.LFB39
 10551 014c 1A000000 		.4byte	.LFE39-.LFB39
 10552 0150 00000000 		.4byte	.LFB42
 10553 0154 20000000 		.4byte	.LFE42-.LFB42
 10554 0158 00000000 		.4byte	.LFB44
 10555 015c 10000000 		.4byte	.LFE44-.LFB44
 10556 0160 00000000 		.4byte	.LFB45
 10557 0164 90000000 		.4byte	.LFE45-.LFB45
 10558 0168 00000000 		.4byte	.LFB46
 10559 016c 10000000 		.4byte	.LFE46-.LFB46
 10560 0170 00000000 		.4byte	.LFB47
 10561 0174 06000000 		.4byte	.LFE47-.LFB47
 10562 0178 00000000 		.4byte	0
 10563 017c 00000000 		.4byte	0
 10564              		.section	.debug_ranges,"",%progbits
 10565              	.Ldebug_ranges0:
 10566 0000 7C000000 		.4byte	.LBB55
 10567 0004 7E000000 		.4byte	.LBE55
 10568 0008 84000000 		.4byte	.LBB56
 10569 000c F4000000 		.4byte	.LBE56
 10570 0010 00000000 		.4byte	0
 10571 0014 00000000 		.4byte	0
 10572 0018 00000000 		.4byte	.LFB1
 10573 001c 0E000000 		.4byte	.LFE1
 10574 0020 00000000 		.4byte	.LFB11
 10575 0024 22000000 		.4byte	.LFE11
 10576 0028 00000000 		.4byte	.LFB12
ARM GAS  C:\Users\gjl\AppData\Local\Temp\ccg70AS9.s 			page 216


 10577 002c 22000000 		.4byte	.LFE12
 10578 0030 00000000 		.4byte	.LFB31
 10579 0034 04000000 		.4byte	.LFE31
 10580 0038 00000000 		.4byte	.LFB33
 10581 003c 06000000 		.4byte	.LFE33
 10582 0040 00000000 		.4byte	.LFB35
 10583 0044 0A000000 		.4byte	.LFE35
 10584 0048 00000000 		.4byte	.LFB37
 10585 004c 1C000000 		.4byte	.LFE37
 10586 0050 00000000 		.4byte	.LFB2
 10587 0054 6A000000 		.4byte	.LFE2
 10588 0058 00000000 		.4byte	.LFB3
 10589 005c 26000000 		.4byte	.LFE3
 10590 0060 00000000 		.4byte	.LFB4
 10591 0064 06000000 		.4byte	.LFE4
 10592 0068 00000000 		.4byte	.LFB5
 10593 006c 06000000 		.4byte	.LFE5
 10594 0070 00000000 		.4byte	.LFB6
 10595 0074 08000000 		.4byte	.LFE6
 10596 0078 00000000 		.4byte	.LFB7
 10597 007c 08000000 		.4byte	.LFE7
 10598 0080 00000000 		.4byte	.LFB8
 10599 0084 06000000 		.4byte	.LFE8
 10600 0088 00000000 		.4byte	.LFB9
 10601 008c 38000000 		.4byte	.LFE9
 10602 0090 00000000 		.4byte	.LFB14
 10603 0094 38000000 		.4byte	.LFE14
 10604 0098 00000000 		.4byte	.LFB10
 10605 009c 16000000 		.4byte	.LFE10
 10606 00a0 00000000 		.4byte	.LFB13
 10607 00a4 A8000000 		.4byte	.LFE13
 10608 00a8 00000000 		.4byte	.LFB15
 10609 00ac 54010000 		.4byte	.LFE15
 10610 00b0 00000000 		.4byte	.LFB16
 10611 00b4 4C000000 		.4byte	.LFE16
 10612 00b8 00000000 		.4byte	.LFB41
 10613 00bc 4C000000 		.4byte	.LFE41
 10614 00c0 00000000 		.4byte	.LFB18
 10615 00c4 0E000000 		.4byte	.LFE18
 10616 00c8 00000000 		.4byte	.LFB19
 10617 00cc 3E000000 		.4byte	.LFE19
 10618 00d0 00000000 		.4byte	.LFB40
 10619 00d4 60000000 		.4byte	.LFE40
 10620 00d8 00000000 		.4byte	.LFB20
 10621 00dc 06000000 		.4byte	.LFE20
 10622 00e0 00000000 		.4byte	.LFB21
 10623 00e4 5E000000 		.4byte	.LFE21
 10624 00e8 00000000 		.4byte	.LFB22
 10625 00ec 70000000 		.4byte	.LFE22
 10626 00f0 00000000 		.4byte	.LFB23
 10627 00f4 10000000 		.4byte	.LFE23
 10628 00f8 00000000 		.4byte	.LFB24
 10629 00fc 10000000 		.4byte	.LFE24
 10630 0100 00000000 		.4byte	.LFB25
 10631 0104 B0000000 		.4byte	.LFE25
 10632 0108 00000000 		.4byte	.LFB26
 10633 010c B0000000 		.4byte	.LFE26
ARM GAS  C:\Users\gjl\AppData\Local\Temp\ccg70AS9.s 			page 217


 10634 0110 00000000 		.4byte	.LFB27
 10635 0114 62000000 		.4byte	.LFE27
 10636 0118 00000000 		.4byte	.LFB28
 10637 011c 10000000 		.4byte	.LFE28
 10638 0120 00000000 		.4byte	.LFB29
 10639 0124 10000000 		.4byte	.LFE29
 10640 0128 00000000 		.4byte	.LFB30
 10641 012c 10000000 		.4byte	.LFE30
 10642 0130 00000000 		.4byte	.LFB32
 10643 0134 0C000000 		.4byte	.LFE32
 10644 0138 00000000 		.4byte	.LFB34
 10645 013c 0C000000 		.4byte	.LFE34
 10646 0140 00000000 		.4byte	.LFB36
 10647 0144 0C000000 		.4byte	.LFE36
 10648 0148 00000000 		.4byte	.LFB38
 10649 014c 0C000000 		.4byte	.LFE38
 10650 0150 00000000 		.4byte	.LFB39
 10651 0154 1A000000 		.4byte	.LFE39
 10652 0158 00000000 		.4byte	.LFB42
 10653 015c 20000000 		.4byte	.LFE42
 10654 0160 00000000 		.4byte	.LFB44
 10655 0164 10000000 		.4byte	.LFE44
 10656 0168 00000000 		.4byte	.LFB45
 10657 016c 90000000 		.4byte	.LFE45
 10658 0170 00000000 		.4byte	.LFB46
 10659 0174 10000000 		.4byte	.LFE46
 10660 0178 00000000 		.4byte	.LFB47
 10661 017c 06000000 		.4byte	.LFE47
 10662 0180 00000000 		.4byte	0
 10663 0184 00000000 		.4byte	0
 10664              		.section	.debug_line,"",%progbits
 10665              	.Ldebug_line0:
 10666 0000 15070000 		.section	.debug_str,"MS",%progbits,1
 10666      0200C501 
 10666      00000201 
 10666      FB0E0D00 
 10666      01010101 
 10667              	.LASF167:
 10668 0000 75386732 		.ascii	"u8g2_font_setup_decode\000"
 10668      5F666F6E 
 10668      745F7365 
 10668      7475705F 
 10668      6465636F 
 10669              	.LASF153:
 10670 0017 75386732 		.ascii	"u8g2_GetFontBBXOffY\000"
 10670      5F476574 
 10670      466F6E74 
 10670      4242584F 
 10670      66665900 
 10671              	.LASF117:
 10672 002b 73746172 		.ascii	"start_pos_unicode\000"
 10672      745F706F 
 10672      735F756E 
 10672      69636F64 
 10672      6500
 10673              	.LASF46:
 10674 003d 72657365 		.ascii	"reset_pulse_width_ms\000"
ARM GAS  C:\Users\gjl\AppData\Local\Temp\ccg70AS9.s 			page 218


 10674      745F7075 
 10674      6C73655F 
 10674      77696474 
 10674      685F6D73 
 10675              	.LASF17:
 10676 0052 73697A65 		.ascii	"size_t\000"
 10676      5F7400
 10677              	.LASF131:
 10678 0059 66697273 		.ascii	"first_table_cnt\000"
 10678      745F7461 
 10678      626C655F 
 10678      636E7400 
 10679              	.LASF68:
 10680 0069 74696C65 		.ascii	"tile_buf_ptr\000"
 10680      5F627566 
 10680      5F707472 
 10680      00
 10681              	.LASF180:
 10682 0076 75386732 		.ascii	"u8g2_DrawStr\000"
 10682      5F447261 
 10682      77537472 
 10682      00
 10683              	.LASF1:
 10684 0083 5F5F7569 		.ascii	"__uint8_t\000"
 10684      6E74385F 
 10684      7400
 10685              	.LASF24:
 10686 008d 62797465 		.ascii	"byte_cb\000"
 10686      5F636200 
 10687              	.LASF176:
 10688 0095 75386732 		.ascii	"u8g2_font_draw_glyph\000"
 10688      5F666F6E 
 10688      745F6472 
 10688      61775F67 
 10688      6C797068 
 10689              	.LASF129:
 10690 00aa 75386732 		.ascii	"u8g2_font_decode_t\000"
 10690      5F666F6E 
 10690      745F6465 
 10690      636F6465 
 10690      5F7400
 10691              	.LASF184:
 10692 00bd 6B65726E 		.ascii	"kerning\000"
 10692      696E6700 
 10693              	.LASF99:
 10694 00c5 676C7970 		.ascii	"glyph_cnt\000"
 10694      685F636E 
 10694      7400
 10695              	.LASF11:
 10696 00cf 6C6F6E67 		.ascii	"long long unsigned int\000"
 10696      206C6F6E 
 10696      6720756E 
 10696      7369676E 
 10696      65642069 
 10697              	.LASF172:
 10698 00e6 75386732 		.ascii	"u8g2_string_width\000"
 10698      5F737472 
ARM GAS  C:\Users\gjl\AppData\Local\Temp\ccg70AS9.s 			page 219


 10698      696E675F 
 10698      77696474 
 10698      6800
 10699              	.LASF186:
 10700 00f8 75386732 		.ascii	"u8g2_DrawExtUTF8\000"
 10700      5F447261 
 10700      77457874 
 10700      55544638 
 10700      00
 10701              	.LASF179:
 10702 0109 64656C74 		.ascii	"delta\000"
 10702      6100
 10703              	.LASF0:
 10704 010f 5F5F696E 		.ascii	"__int8_t\000"
 10704      74385F74 
 10704      00
 10705              	.LASF47:
 10706 0118 706F7374 		.ascii	"post_reset_wait_ms\000"
 10706      5F726573 
 10706      65745F77 
 10706      6169745F 
 10706      6D7300
 10707              	.LASF100:
 10708 012b 6262785F 		.ascii	"bbx_mode\000"
 10708      6D6F6465 
 10708      00
 10709              	.LASF33:
 10710 0134 75746638 		.ascii	"utf8_state\000"
 10710      5F737461 
 10710      746500
 10711              	.LASF110:
 10712 013f 795F6F66 		.ascii	"y_offset\000"
 10712      66736574 
 10712      00
 10713              	.LASF205:
 10714 0148 75387838 		.ascii	"u8x8_utf8_init\000"
 10714      5F757466 
 10714      385F696E 
 10714      697400
 10715              	.LASF34:
 10716 0157 6770696F 		.ascii	"gpio_result\000"
 10716      5F726573 
 10716      756C7400 
 10717              	.LASF105:
 10718 0163 62697473 		.ascii	"bits_per_char_x\000"
 10718      5F706572 
 10718      5F636861 
 10718      725F7800 
 10719              	.LASF106:
 10720 0173 62697473 		.ascii	"bits_per_char_y\000"
 10720      5F706572 
 10720      5F636861 
 10720      725F7900 
 10721              	.LASF10:
 10722 0183 6C6F6E67 		.ascii	"long long int\000"
 10722      206C6F6E 
 10722      6720696E 
ARM GAS  C:\Users\gjl\AppData\Local\Temp\ccg70AS9.s 			page 220


 10722      7400
 10723              	.LASF2:
 10724 0191 7369676E 		.ascii	"signed char\000"
 10724      65642063 
 10724      68617200 
 10725              	.LASF63:
 10726 019d 75386732 		.ascii	"u8g2_uint_t\000"
 10726      5F75696E 
 10726      745F7400 
 10727              	.LASF29:
 10728 01a9 69735F66 		.ascii	"is_font_inverse_mode\000"
 10728      6F6E745F 
 10728      696E7665 
 10728      7273655F 
 10728      6D6F6465 
 10729              	.LASF177:
 10730 01be 75386732 		.ascii	"u8g2_DrawGlyph\000"
 10730      5F447261 
 10730      77476C79 
 10730      706800
 10731              	.LASF22:
 10732 01cd 64697370 		.ascii	"display_cb\000"
 10732      6C61795F 
 10732      636200
 10733              	.LASF198:
 10734 01d8 75386732 		.ascii	"u8g2_GetStrWidth\000"
 10734      5F476574 
 10734      53747257 
 10734      69647468 
 10734      00
 10735              	.LASF113:
 10736 01e9 61736365 		.ascii	"ascent_para\000"
 10736      6E745F70 
 10736      61726100 
 10737              	.LASF88:
 10738 01f5 676C7970 		.ascii	"glyph_x_offset\000"
 10738      685F785F 
 10738      6F666673 
 10738      657400
 10739              	.LASF45:
 10740 0204 7072655F 		.ascii	"pre_chip_disable_wait_ns\000"
 10740      63686970 
 10740      5F646973 
 10740      61626C65 
 10740      5F776169 
 10741              	.LASF161:
 10742 021d 75386732 		.ascii	"u8g2_read_font_info\000"
 10742      5F726561 
 10742      645F666F 
 10742      6E745F69 
 10742      6E666F00 
 10743              	.LASF7:
 10744 0231 6C6F6E67 		.ascii	"long int\000"
 10744      20696E74 
 10744      00
 10745              	.LASF201:
 10746 023a 75386732 		.ascii	"u8g2_GetUTF8Width\000"
ARM GAS  C:\Users\gjl\AppData\Local\Temp\ccg70AS9.s 			page 221


 10746      5F476574 
 10746      55544638 
 10746      57696474 
 10746      6800
 10747              	.LASF133:
 10748 024c 66697273 		.ascii	"first_encoding_table\000"
 10748      745F656E 
 10748      636F6469 
 10748      6E675F74 
 10748      61626C65 
 10749              	.LASF109:
 10750 0261 6D61785F 		.ascii	"max_char_height\000"
 10750      63686172 
 10750      5F686569 
 10750      67687400 
 10751              	.LASF15:
 10752 0271 75696E74 		.ascii	"uint16_t\000"
 10752      31365F74 
 10752      00
 10753              	.LASF21:
 10754 027a 6E657874 		.ascii	"next_cb\000"
 10754      5F636200 
 10755              	.LASF62:
 10756 0282 75387838 		.ascii	"u8x8_char_cb\000"
 10756      5F636861 
 10756      725F6362 
 10756      00
 10757              	.LASF25:
 10758 028f 6770696F 		.ascii	"gpio_and_delay_cb\000"
 10758      5F616E64 
 10758      5F64656C 
 10758      61795F63 
 10758      6200
 10759              	.LASF118:
 10760 02a1 75386732 		.ascii	"u8g2_font_info_t\000"
 10760      5F666F6E 
 10760      745F696E 
 10760      666F5F74 
 10760      00
 10761              	.LASF144:
 10762 02b2 75386732 		.ascii	"u8g2_font_calc_vref_font\000"
 10762      5F666F6E 
 10762      745F6361 
 10762      6C635F76 
 10762      7265665F 
 10763              	.LASF210:
 10764 02cb 433A5C47 		.ascii	"C:\\Git\\WA101\\ww101-shield\\firmware\\TestProgram"
 10764      69745C57 
 10764      41313031 
 10764      5C777731 
 10764      30312D73 
 10765 02f9 344D2E63 		.ascii	"4M.cydsn\000"
 10765      7964736E 
 10765      00
 10766              	.LASF87:
 10767 0302 666F6E74 		.ascii	"font_ref_descent\000"
 10767      5F726566 
ARM GAS  C:\Users\gjl\AppData\Local\Temp\ccg70AS9.s 			page 222


 10767      5F646573 
 10767      63656E74 
 10767      00
 10768              	.LASF39:
 10769 0313 75387838 		.ascii	"u8x8_display_info_t\000"
 10769      5F646973 
 10769      706C6179 
 10769      5F696E66 
 10769      6F5F7400 
 10770              	.LASF8:
 10771 0327 5F5F7569 		.ascii	"__uint32_t\000"
 10771      6E743332 
 10771      5F7400
 10772              	.LASF101:
 10773 0332 62697473 		.ascii	"bits_per_0\000"
 10773      5F706572 
 10773      5F3000
 10774              	.LASF82:
 10775 033d 666F6E74 		.ascii	"font_calc_vref\000"
 10775      5F63616C 
 10775      635F7672 
 10775      656600
 10776              	.LASF86:
 10777 034c 666F6E74 		.ascii	"font_ref_ascent\000"
 10777      5F726566 
 10777      5F617363 
 10777      656E7400 
 10778              	.LASF139:
 10779 035c 6F666673 		.ascii	"offset\000"
 10779      657400
 10780              	.LASF48:
 10781 0363 7364615F 		.ascii	"sda_setup_time_ns\000"
 10781      73657475 
 10781      705F7469 
 10781      6D655F6E 
 10781      7300
 10782              	.LASF97:
 10783 0375 75386732 		.ascii	"u8g2_draw_ll_hvline_cb\000"
 10783      5F647261 
 10783      775F6C6C 
 10783      5F68766C 
 10783      696E655F 
 10784              	.LASF112:
 10785 038c 64657363 		.ascii	"descent_g\000"
 10785      656E745F 
 10785      6700
 10786              	.LASF103:
 10787 0396 62697473 		.ascii	"bits_per_char_width\000"
 10787      5F706572 
 10787      5F636861 
 10787      725F7769 
 10787      64746800 
 10788              	.LASF38:
 10789 03aa 6465626F 		.ascii	"debounce_result_msg\000"
 10789      756E6365 
 10789      5F726573 
 10789      756C745F 
ARM GAS  C:\Users\gjl\AppData\Local\Temp\ccg70AS9.s 			page 223


 10789      6D736700 
 10790              	.LASF12:
 10791 03be 756E7369 		.ascii	"unsigned int\000"
 10791      676E6564 
 10791      20696E74 
 10791      00
 10792              	.LASF174:
 10793 03cb 75386732 		.ascii	"u8g2_SetFontMode\000"
 10793      5F536574 
 10793      466F6E74 
 10793      4D6F6465 
 10793      00
 10794              	.LASF72:
 10795 03dc 70697865 		.ascii	"pixel_buf_height\000"
 10795      6C5F6275 
 10795      665F6865 
 10795      69676874 
 10795      00
 10796              	.LASF155:
 10797 03ed 75386732 		.ascii	"u8g2_font_decode_get_unsigned_bits\000"
 10797      5F666F6E 
 10797      745F6465 
 10797      636F6465 
 10797      5F676574 
 10798              	.LASF126:
 10799 0410 69735F74 		.ascii	"is_transparent\000"
 10799      72616E73 
 10799      70617265 
 10799      6E7400
 10800              	.LASF30:
 10801 041f 6932635F 		.ascii	"i2c_address\000"
 10801      61646472 
 10801      65737300 
 10802              	.LASF152:
 10803 042b 7538675F 		.ascii	"u8g_GetFontBBXOffX\000"
 10803      47657446 
 10803      6F6E7442 
 10803      42584F66 
 10803      665800
 10804              	.LASF9:
 10805 043e 6C6F6E67 		.ascii	"long unsigned int\000"
 10805      20756E73 
 10805      69676E65 
 10805      6420696E 
 10805      7400
 10806              	.LASF64:
 10807 0450 75386732 		.ascii	"u8g2_t\000"
 10807      5F7400
 10808              	.LASF203:
 10809 0457 75386732 		.ascii	"u8g2_DrawHVLine\000"
 10809      5F447261 
 10809      7748564C 
 10809      696E6500 
 10810              	.LASF191:
 10811 0467 75386732 		.ascii	"u8g2_SetFontRefHeightAll\000"
 10811      5F536574 
 10811      466F6E74 
ARM GAS  C:\Users\gjl\AppData\Local\Temp\ccg70AS9.s 			page 224


 10811      52656648 
 10811      65696768 
 10812              	.LASF185:
 10813 0480 655F7072 		.ascii	"e_prev\000"
 10813      657600
 10814              	.LASF120:
 10815 0487 6465636F 		.ascii	"decode_ptr\000"
 10815      64655F70 
 10815      747200
 10816              	.LASF76:
 10817 0492 77696474 		.ascii	"width\000"
 10817      6800
 10818              	.LASF69:
 10819 0498 74696C65 		.ascii	"tile_buf_height\000"
 10819      5F627566 
 10819      5F686569 
 10819      67687400 
 10820              	.LASF6:
 10821 04a8 73686F72 		.ascii	"short unsigned int\000"
 10821      7420756E 
 10821      7369676E 
 10821      65642069 
 10821      6E7400
 10822              	.LASF169:
 10823 04bb 72657175 		.ascii	"requested_encoding\000"
 10823      65737465 
 10823      645F656E 
 10823      636F6469 
 10823      6E6700
 10824              	.LASF197:
 10825 04ce 75386732 		.ascii	"u8g2_GetStrX\000"
 10825      5F476574 
 10825      53747258 
 10825      00
 10826              	.LASF36:
 10827 04db 6465626F 		.ascii	"debounce_last_pin_state\000"
 10827      756E6365 
 10827      5F6C6173 
 10827      745F7069 
 10827      6E5F7374 
 10828              	.LASF143:
 10829 04f3 75386732 		.ascii	"u8g2\000"
 10829      00
 10830              	.LASF114:
 10831 04f8 64657363 		.ascii	"descent_para\000"
 10831      656E745F 
 10831      70617261 
 10831      00
 10832              	.LASF20:
 10833 0505 64697370 		.ascii	"display_info\000"
 10833      6C61795F 
 10833      696E666F 
 10833      00
 10834              	.LASF84:
 10835 0512 666F6E74 		.ascii	"font_info\000"
 10835      5F696E66 
 10835      6F00
ARM GAS  C:\Users\gjl\AppData\Local\Temp\ccg70AS9.s 			page 225


 10836              	.LASF49:
 10837 051c 73636B5F 		.ascii	"sck_pulse_width_ns\000"
 10837      70756C73 
 10837      655F7769 
 10837      6474685F 
 10837      6E7300
 10838              	.LASF150:
 10839 052f 75386732 		.ascii	"u8g2_GetFontBBXWidth\000"
 10839      5F476574 
 10839      466F6E74 
 10839      42425857 
 10839      69647468 
 10840              	.LASF40:
 10841 0544 75387838 		.ascii	"u8x8_struct\000"
 10841      5F737472 
 10841      75637400 
 10842              	.LASF192:
 10843 0550 75386732 		.ascii	"u8g2_SetFontPosBaseline\000"
 10843      5F536574 
 10843      466F6E74 
 10843      506F7342 
 10843      6173656C 
 10844              	.LASF132:
 10845 0568 7365636F 		.ascii	"second_table_cnt\000"
 10845      6E645F74 
 10845      61626C65 
 10845      5F636E74 
 10845      00
 10846              	.LASF170:
 10847 0579 75386732 		.ascii	"u8g2_IsGlyph\000"
 10847      5F497347 
 10847      6C797068 
 10847      00
 10848              	.LASF209:
 10849 0586 2E2E5C2E 		.ascii	"..\\..\\u8g2\\csrc\\u8g2_font.c\000"
 10849      2E5C7538 
 10849      67325C63 
 10849      7372635C 
 10849      75386732 
 10850              	.LASF181:
 10851 05a2 75386732 		.ascii	"u8g2_DrawUTF8\000"
 10851      5F447261 
 10851      77555446 
 10851      3800
 10852              	.LASF57:
 10853 05b0 64656661 		.ascii	"default_x_offset\000"
 10853      756C745F 
 10853      785F6F66 
 10853      66736574 
 10853      00
 10854              	.LASF27:
 10855 05c1 656E636F 		.ascii	"encoding\000"
 10855      64696E67 
 10855      00
 10856              	.LASF85:
 10857 05ca 666F6E74 		.ascii	"font_height_mode\000"
 10857      5F686569 
ARM GAS  C:\Users\gjl\AppData\Local\Temp\ccg70AS9.s 			page 226


 10857      6768745F 
 10857      6D6F6465 
 10857      00
 10858              	.LASF166:
 10859 05db 75386732 		.ascii	"u8g2_font_get_glyph_data\000"
 10859      5F666F6E 
 10859      745F6765 
 10859      745F676C 
 10859      7970685F 
 10860              	.LASF115:
 10861 05f4 73746172 		.ascii	"start_pos_upper_A\000"
 10861      745F706F 
 10861      735F7570 
 10861      7065725F 
 10861      4100
 10862              	.LASF58:
 10863 0606 666C6970 		.ascii	"flipmode_x_offset\000"
 10863      6D6F6465 
 10863      5F785F6F 
 10863      66667365 
 10863      7400
 10864              	.LASF102:
 10865 0618 62697473 		.ascii	"bits_per_1\000"
 10865      5F706572 
 10865      5F3100
 10866              	.LASF107:
 10867 0623 62697473 		.ascii	"bits_per_delta_x\000"
 10867      5F706572 
 10867      5F64656C 
 10867      74615F78 
 10867      00
 10868              	.LASF125:
 10869 0634 6465636F 		.ascii	"decode_bit_pos\000"
 10869      64655F62 
 10869      69745F70 
 10869      6F7300
 10870              	.LASF124:
 10871 0643 676C7970 		.ascii	"glyph_height\000"
 10871      685F6865 
 10871      69676874 
 10871      00
 10872              	.LASF206:
 10873 0650 75386732 		.ascii	"u8g2_GetKerning\000"
 10873      5F476574 
 10873      4B65726E 
 10873      696E6700 
 10874              	.LASF18:
 10875 0660 6C6F6E67 		.ascii	"long double\000"
 10875      20646F75 
 10875      626C6500 
 10876              	.LASF134:
 10877 066c 696E6465 		.ascii	"index_to_second_table\000"
 10877      785F746F 
 10877      5F736563 
 10877      6F6E645F 
 10877      7461626C 
 10878              	.LASF204:
ARM GAS  C:\Users\gjl\AppData\Local\Temp\ccg70AS9.s 			page 227


 10879 0682 75386732 		.ascii	"u8g2_IsIntersection\000"
 10879      5F497349 
 10879      6E746572 
 10879      73656374 
 10879      696F6E00 
 10880              	.LASF73:
 10881 0696 70697865 		.ascii	"pixel_curr_row\000"
 10881      6C5F6375 
 10881      72725F72 
 10881      6F7700
 10882              	.LASF208:
 10883 06a5 474E5520 		.ascii	"GNU C11 5.4.1 20160609 (release) [ARM/embedded-5-br"
 10883      43313120 
 10883      352E342E 
 10883      31203230 
 10883      31363036 
 10884 06d8 616E6368 		.ascii	"anch revision 237715] -mcpu=cortex-m0 -mthumb -g -O"
 10884      20726576 
 10884      6973696F 
 10884      6E203233 
 10884      37373135 
 10885 070b 73202D66 		.ascii	"s -ffunction-sections -ffat-lto-objects\000"
 10885      66756E63 
 10885      74696F6E 
 10885      2D736563 
 10885      74696F6E 
 10886              	.LASF159:
 10887 0733 6465636F 		.ascii	"decode\000"
 10887      646500
 10888              	.LASF182:
 10889 073a 75386732 		.ascii	"u8g2_DrawExtendedUTF8\000"
 10889      5F447261 
 10889      77457874 
 10889      656E6465 
 10889      64555446 
 10890              	.LASF23:
 10891 0750 6361645F 		.ascii	"cad_cb\000"
 10891      636200
 10892              	.LASF128:
 10893 0757 62675F63 		.ascii	"bg_color\000"
 10893      6F6C6F72 
 10893      00
 10894              	.LASF94:
 10895 0760 64726177 		.ascii	"draw_l90\000"
 10895      5F6C3930 
 10895      00
 10896              	.LASF136:
 10897 0769 6B65726E 		.ascii	"kerning_values\000"
 10897      696E675F 
 10897      76616C75 
 10897      657300
 10898              	.LASF108:
 10899 0778 6D61785F 		.ascii	"max_char_width\000"
 10899      63686172 
 10899      5F776964 
 10899      746800
 10900              	.LASF157:
ARM GAS  C:\Users\gjl\AppData\Local\Temp\ccg70AS9.s 			page 228


 10901 0787 6269745F 		.ascii	"bit_pos_plus_cnt\000"
 10901      706F735F 
 10901      706C7573 
 10901      5F636E74 
 10901      00
 10902              	.LASF54:
 10903 0798 77726974 		.ascii	"write_pulse_width_ns\000"
 10903      655F7075 
 10903      6C73655F 
 10903      77696474 
 10903      685F6E73 
 10904              	.LASF74:
 10905 07ad 6275665F 		.ascii	"buf_y0\000"
 10905      793000
 10906              	.LASF75:
 10907 07b4 6275665F 		.ascii	"buf_y1\000"
 10907      793100
 10908              	.LASF32:
 10909 07bb 64657669 		.ascii	"device_address\000"
 10909      63655F61 
 10909      64647265 
 10909      737300
 10910              	.LASF141:
 10911 07ca 75386732 		.ascii	"u8g2_add_vector_y\000"
 10911      5F616464 
 10911      5F766563 
 10911      746F725F 
 10911      7900
 10912              	.LASF28:
 10913 07dc 785F6F66 		.ascii	"x_offset\000"
 10913      66736574 
 10913      00
 10914              	.LASF164:
 10915 07e5 63757272 		.ascii	"current\000"
 10915      656E7400 
 10916              	.LASF199:
 10917 07ed 75386732 		.ascii	"u8g2_calculate_exact_string_width\000"
 10917      5F63616C 
 10917      63756C61 
 10917      74655F65 
 10917      78616374 
 10918              	.LASF56:
 10919 080f 74696C65 		.ascii	"tile_height\000"
 10919      5F686569 
 10919      67687400 
 10920              	.LASF194:
 10921 081b 75386732 		.ascii	"u8g2_SetFontPosTop\000"
 10921      5F536574 
 10921      466F6E74 
 10921      506F7354 
 10921      6F7000
 10922              	.LASF145:
 10923 082e 75386732 		.ascii	"u8g2_font_calc_vref_bottom\000"
 10923      5F666F6E 
 10923      745F6361 
 10923      6C635F76 
 10923      7265665F 
ARM GAS  C:\Users\gjl\AppData\Local\Temp\ccg70AS9.s 			page 229


 10924              	.LASF67:
 10925 0849 6C6C5F68 		.ascii	"ll_hvline\000"
 10925      766C696E 
 10925      6500
 10926              	.LASF196:
 10927 0853 75386732 		.ascii	"u8g2_SetFont\000"
 10927      5F536574 
 10927      466F6E74 
 10927      00
 10928              	.LASF127:
 10929 0860 66675F63 		.ascii	"fg_color\000"
 10929      6F6C6F72 
 10929      00
 10930              	.LASF135:
 10931 0869 7365636F 		.ascii	"second_encoding_table\000"
 10931      6E645F65 
 10931      6E636F64 
 10931      696E675F 
 10931      7461626C 
 10932              	.LASF61:
 10933 087f 75387838 		.ascii	"u8x8_msg_cb\000"
 10933      5F6D7367 
 10933      5F636200 
 10934              	.LASF92:
 10935 088b 75386732 		.ascii	"u8g2_cb_struct\000"
 10935      5F63625F 
 10935      73747275 
 10935      637400
 10936              	.LASF123:
 10937 089a 676C7970 		.ascii	"glyph_width\000"
 10937      685F7769 
 10937      64746800 
 10938              	.LASF3:
 10939 08a6 756E7369 		.ascii	"unsigned char\000"
 10939      676E6564 
 10939      20636861 
 10939      7200
 10940              	.LASF151:
 10941 08b4 75386732 		.ascii	"u8g2_GetFontBBXHeight\000"
 10941      5F476574 
 10941      466F6E74 
 10941      42425848 
 10941      65696768 
 10942              	.LASF111:
 10943 08ca 61736365 		.ascii	"ascent_A\000"
 10943      6E745F41 
 10943      00
 10944              	.LASF90:
 10945 08d3 69735F61 		.ascii	"is_auto_page_clear\000"
 10945      75746F5F 
 10945      70616765 
 10945      5F636C65 
 10945      617200
 10946              	.LASF71:
 10947 08e6 70697865 		.ascii	"pixel_buf_width\000"
 10947      6C5F6275 
 10947      665F7769 
ARM GAS  C:\Users\gjl\AppData\Local\Temp\ccg70AS9.s 			page 230


 10947      64746800 
 10948              	.LASF148:
 10949 08f6 75386732 		.ascii	"u8g2_GetFontSize\000"
 10949      5F476574 
 10949      466F6E74 
 10949      53697A65 
 10949      00
 10950              	.LASF4:
 10951 0907 73686F72 		.ascii	"short int\000"
 10951      7420696E 
 10951      7400
 10952              	.LASF147:
 10953 0911 75386732 		.ascii	"u8g2_font_calc_vref_center\000"
 10953      5F666F6E 
 10953      745F6361 
 10953      6C635F76 
 10953      7265665F 
 10954              	.LASF195:
 10955 092c 75386732 		.ascii	"u8g2_SetFontPosCenter\000"
 10955      5F536574 
 10955      466F6E74 
 10955      506F7343 
 10955      656E7465 
 10956              	.LASF66:
 10957 0942 75387838 		.ascii	"u8x8\000"
 10957      00
 10958              	.LASF171:
 10959 0947 75386732 		.ascii	"u8g2_GetGlyphWidth\000"
 10959      5F476574 
 10959      476C7970 
 10959      68576964 
 10959      746800
 10960              	.LASF78:
 10961 095a 75736572 		.ascii	"user_x0\000"
 10961      5F783000 
 10962              	.LASF79:
 10963 0962 75736572 		.ascii	"user_x1\000"
 10963      5F783100 
 10964              	.LASF160:
 10965 096a 75386732 		.ascii	"u8g2_font_decode_get_signed_bits\000"
 10965      5F666F6E 
 10965      745F6465 
 10965      636F6465 
 10965      5F676574 
 10966              	.LASF53:
 10967 098b 64617461 		.ascii	"data_setup_time_ns\000"
 10967      5F736574 
 10967      75705F74 
 10967      696D655F 
 10967      6E7300
 10968              	.LASF163:
 10969 099e 69735F66 		.ascii	"is_foreground\000"
 10969      6F726567 
 10969      726F756E 
 10969      6400
 10970              	.LASF65:
 10971 09ac 75386732 		.ascii	"u8g2_struct\000"
ARM GAS  C:\Users\gjl\AppData\Local\Temp\ccg70AS9.s 			page 231


 10971      5F737472 
 10971      75637400 
 10972              	.LASF96:
 10973 09b8 75386732 		.ascii	"u8g2_draw_l90_cb\000"
 10973      5F647261 
 10973      775F6C39 
 10973      305F6362 
 10973      00
 10974              	.LASF52:
 10975 09c9 6932635F 		.ascii	"i2c_bus_clock_100kHz\000"
 10975      6275735F 
 10975      636C6F63 
 10975      6B5F3130 
 10975      306B487A 
 10976              	.LASF16:
 10977 09de 75696E74 		.ascii	"uint32_t\000"
 10977      33325F74 
 10977      00
 10978              	.LASF98:
 10979 09e7 5F753867 		.ascii	"_u8g2_font_info_t\000"
 10979      325F666F 
 10979      6E745F69 
 10979      6E666F5F 
 10979      7400
 10980              	.LASF70:
 10981 09f9 74696C65 		.ascii	"tile_curr_row\000"
 10981      5F637572 
 10981      725F726F 
 10981      7700
 10982              	.LASF173:
 10983 0a07 63686172 		.ascii	"char\000"
 10983      00
 10984              	.LASF91:
 10985 0a0c 75386732 		.ascii	"u8g2_cb_t\000"
 10985      5F63625F 
 10985      7400
 10986              	.LASF51:
 10987 0a16 7370695F 		.ascii	"spi_mode\000"
 10987      6D6F6465 
 10987      00
 10988              	.LASF42:
 10989 0a1f 63686970 		.ascii	"chip_enable_level\000"
 10989      5F656E61 
 10989      626C655F 
 10989      6C657665 
 10989      6C00
 10990              	.LASF165:
 10991 0a31 75386732 		.ascii	"u8g2_font_decode_glyph\000"
 10991      5F666F6E 
 10991      745F6465 
 10991      636F6465 
 10991      5F676C79 
 10992              	.LASF83:
 10993 0a48 666F6E74 		.ascii	"font_decode\000"
 10993      5F646563 
 10993      6F646500 
 10994              	.LASF207:
ARM GAS  C:\Users\gjl\AppData\Local\Temp\ccg70AS9.s 			page 232


 10995 0a54 75386732 		.ascii	"u8g2_GetKerningByTable\000"
 10995      5F476574 
 10995      4B65726E 
 10995      696E6742 
 10995      79546162 
 10996              	.LASF104:
 10997 0a6b 62697473 		.ascii	"bits_per_char_height\000"
 10997      5F706572 
 10997      5F636861 
 10997      725F6865 
 10997      69676874 
 10998              	.LASF5:
 10999 0a80 5F5F7569 		.ascii	"__uint16_t\000"
 10999      6E743136 
 10999      5F7400
 11000              	.LASF89:
 11001 0a8b 64726177 		.ascii	"draw_color\000"
 11001      5F636F6C 
 11001      6F7200
 11002              	.LASF190:
 11003 0a96 75386732 		.ascii	"u8g2_SetFontRefHeightExtendedText\000"
 11003      5F536574 
 11003      466F6E74 
 11003      52656648 
 11003      65696768 
 11004              	.LASF44:
 11005 0ab8 706F7374 		.ascii	"post_chip_enable_wait_ns\000"
 11005      5F636869 
 11005      705F656E 
 11005      61626C65 
 11005      5F776169 
 11006              	.LASF130:
 11007 0ad1 5F753867 		.ascii	"_u8g2_kerning_t\000"
 11007      325F6B65 
 11007      726E696E 
 11007      675F7400 
 11008              	.LASF187:
 11009 0ae1 6B65726E 		.ascii	"kerning_table\000"
 11009      696E675F 
 11009      7461626C 
 11009      6500
 11010              	.LASF95:
 11011 0aef 75386732 		.ascii	"u8g2_update_dimension_cb\000"
 11011      5F757064 
 11011      6174655F 
 11011      64696D65 
 11011      6E73696F 
 11012              	.LASF121:
 11013 0b08 74617267 		.ascii	"target_x\000"
 11013      65745F78 
 11013      00
 11014              	.LASF122:
 11015 0b11 74617267 		.ascii	"target_y\000"
 11015      65745F79 
 11015      00
 11016              	.LASF188:
 11017 0b1a 75386732 		.ascii	"u8g2_UpdateRefHeight\000"
ARM GAS  C:\Users\gjl\AppData\Local\Temp\ccg70AS9.s 			page 233


 11017      5F557064 
 11017      61746552 
 11017      65664865 
 11017      69676874 
 11018              	.LASF19:
 11019 0b2f 75387838 		.ascii	"u8x8_t\000"
 11019      5F7400
 11020              	.LASF154:
 11021 0b36 75386732 		.ascii	"u8g2_GetFontCapitalAHeight\000"
 11021      5F476574 
 11021      466F6E74 
 11021      43617069 
 11021      74616C41 
 11022              	.LASF80:
 11023 0b51 75736572 		.ascii	"user_y0\000"
 11023      5F793000 
 11024              	.LASF81:
 11025 0b59 75736572 		.ascii	"user_y1\000"
 11025      5F793100 
 11026              	.LASF119:
 11027 0b61 5F753867 		.ascii	"_u8g2_font_decode_t\000"
 11027      325F666F 
 11027      6E745F64 
 11027      65636F64 
 11027      655F7400 
 11028              	.LASF13:
 11029 0b75 696E7438 		.ascii	"int8_t\000"
 11029      5F7400
 11030              	.LASF162:
 11031 0b7c 75386732 		.ascii	"u8g2_font_decode_len\000"
 11031      5F666F6E 
 11031      745F6465 
 11031      636F6465 
 11031      5F6C656E 
 11032              	.LASF37:
 11033 0b91 6465626F 		.ascii	"debounce_state\000"
 11033      756E6365 
 11033      5F737461 
 11033      746500
 11034              	.LASF168:
 11035 0ba0 75386732 		.ascii	"u8g2_GetGlyphHorizontalProperties\000"
 11035      5F476574 
 11035      476C7970 
 11035      68486F72 
 11035      697A6F6E 
 11036              	.LASF146:
 11037 0bc2 75386732 		.ascii	"u8g2_font_calc_vref_top\000"
 11037      5F666F6E 
 11037      745F6361 
 11037      6C635F76 
 11037      7265665F 
 11038              	.LASF93:
 11039 0bda 75706461 		.ascii	"update\000"
 11039      746500
 11040              	.LASF137:
 11041 0be1 75386732 		.ascii	"u8g2_kerning_t\000"
 11041      5F6B6572 
ARM GAS  C:\Users\gjl\AppData\Local\Temp\ccg70AS9.s 			page 234


 11041      6E696E67 
 11041      5F7400
 11042              	.LASF43:
 11043 0bf0 63686970 		.ascii	"chip_disable_level\000"
 11043      5F646973 
 11043      61626C65 
 11043      5F6C6576 
 11043      656C00
 11044              	.LASF189:
 11045 0c03 75386732 		.ascii	"u8g2_SetFontRefHeightText\000"
 11045      5F536574 
 11045      466F6E74 
 11045      52656648 
 11045      65696768 
 11046              	.LASF200:
 11047 0c1d 75386732 		.ascii	"u8g2_GetExactStrWidth\000"
 11047      5F476574 
 11047      45786163 
 11047      74537472 
 11047      57696474 
 11048              	.LASF26:
 11049 0c33 666F6E74 		.ascii	"font\000"
 11049      00
 11050              	.LASF156:
 11051 0c38 6269745F 		.ascii	"bit_pos\000"
 11051      706F7300 
 11052              	.LASF116:
 11053 0c40 73746172 		.ascii	"start_pos_lower_a\000"
 11053      745F706F 
 11053      735F6C6F 
 11053      7765725F 
 11053      6100
 11054              	.LASF149:
 11055 0c52 666F6E74 		.ascii	"font_arg\000"
 11055      5F617267 
 11055      00
 11056              	.LASF14:
 11057 0c5b 75696E74 		.ascii	"uint8_t\000"
 11057      385F7400 
 11058              	.LASF138:
 11059 0c63 75386732 		.ascii	"u8g2_font_calc_vref_fnptr\000"
 11059      5F666F6E 
 11059      745F6361 
 11059      6C635F76 
 11059      7265665F 
 11060              	.LASF31:
 11061 0c7d 6932635F 		.ascii	"i2c_started\000"
 11061      73746172 
 11061      74656400 
 11062              	.LASF193:
 11063 0c89 75386732 		.ascii	"u8g2_SetFontPosBottom\000"
 11063      5F536574 
 11063      466F6E74 
 11063      506F7342 
 11063      6F74746F 
 11064              	.LASF59:
 11065 0c9f 70697865 		.ascii	"pixel_width\000"
ARM GAS  C:\Users\gjl\AppData\Local\Temp\ccg70AS9.s 			page 235


 11065      6C5F7769 
 11065      64746800 
 11066              	.LASF175:
 11067 0cab 75386732 		.ascii	"u8g2_font_get_byte\000"
 11067      5F666F6E 
 11067      745F6765 
 11067      745F6279 
 11067      746500
 11068              	.LASF55:
 11069 0cbe 74696C65 		.ascii	"tile_width\000"
 11069      5F776964 
 11069      746800
 11070              	.LASF142:
 11071 0cc9 75386732 		.ascii	"u8g2_add_vector_x\000"
 11071      5F616464 
 11071      5F766563 
 11071      746F725F 
 11071      7800
 11072              	.LASF35:
 11073 0cdb 6465626F 		.ascii	"debounce_default_pin_state\000"
 11073      756E6365 
 11073      5F646566 
 11073      61756C74 
 11073      5F70696E 
 11074              	.LASF158:
 11075 0cf6 676C7970 		.ascii	"glyph_data\000"
 11075      685F6461 
 11075      746100
 11076              	.LASF41:
 11077 0d01 75387838 		.ascii	"u8x8_display_info_struct\000"
 11077      5F646973 
 11077      706C6179 
 11077      5F696E66 
 11077      6F5F7374 
 11078              	.LASF183:
 11079 0d1a 746F5F6C 		.ascii	"to_left\000"
 11079      65667400 
 11080              	.LASF77:
 11081 0d22 68656967 		.ascii	"height\000"
 11081      687400
 11082              	.LASF178:
 11083 0d29 75386732 		.ascii	"u8g2_draw_string\000"
 11083      5F647261 
 11083      775F7374 
 11083      72696E67 
 11083      00
 11084              	.LASF202:
 11085 0d3a 75386732 		.ascii	"u8g2_SetFontDirection\000"
 11085      5F536574 
 11085      466F6E74 
 11085      44697265 
 11085      6374696F 
 11086              	.LASF140:
 11087 0d50 75386732 		.ascii	"u8g2_font_get_word\000"
 11087      5F666F6E 
 11087      745F6765 
 11087      745F776F 
ARM GAS  C:\Users\gjl\AppData\Local\Temp\ccg70AS9.s 			page 236


 11087      726400
 11088              	.LASF60:
 11089 0d63 70697865 		.ascii	"pixel_height\000"
 11089      6C5F6865 
 11089      69676874 
 11089      00
 11090              	.LASF50:
 11091 0d70 73636B5F 		.ascii	"sck_clock_hz\000"
 11091      636C6F63 
 11091      6B5F687A 
 11091      00
 11092              		.ident	"GCC: (GNU Tools for ARM Embedded Processors) 5.4.1 20160609 (release) [ARM/embedded-5-bran
