ARM GAS  C:\Users\Greg\AppData\Local\Temp\ccZ87YNo.s 			page 1


   1              		.syntax unified
   2              		.cpu cortex-m0
   3              		.fpu softvfp
   4              		.eabi_attribute 20, 1
   5              		.eabi_attribute 21, 1
   6              		.eabi_attribute 23, 3
   7              		.eabi_attribute 24, 1
   8              		.eabi_attribute 25, 1
   9              		.eabi_attribute 26, 1
  10              		.eabi_attribute 30, 4
  11              		.eabi_attribute 34, 0
  12              		.eabi_attribute 18, 4
  13              		.thumb
  14              		.syntax unified
  15              		.file	"u8g2_message.c"
  16              		.text
  17              	.Ltext0:
  18              		.cfi_sections	.debug_frame
  19              		.section	.text.u8g2_draw_button_line,"ax",%progbits
  20              		.align	1
  21              		.global	u8g2_draw_button_line
  22              		.code	16
  23              		.thumb_func
  24              		.type	u8g2_draw_button_line, %function
  25              	u8g2_draw_button_line:
  26              	.LFB0:
  27              		.file 1 "..\\..\\u8g2\\csrc\\u8g2_message.c"
   1:..\..\u8g2\csrc/u8g2_message.c **** /*
   2:..\..\u8g2\csrc/u8g2_message.c **** 
   3:..\..\u8g2\csrc/u8g2_message.c ****   u8g2_message.c
   4:..\..\u8g2\csrc/u8g2_message.c ****   
   5:..\..\u8g2\csrc/u8g2_message.c ****   Universal 8bit Graphics Library (https://github.com/olikraus/u8g2/)
   6:..\..\u8g2\csrc/u8g2_message.c **** 
   7:..\..\u8g2\csrc/u8g2_message.c ****   Copyright (c) 2016, olikraus@gmail.com
   8:..\..\u8g2\csrc/u8g2_message.c ****   All rights reserved.
   9:..\..\u8g2\csrc/u8g2_message.c **** 
  10:..\..\u8g2\csrc/u8g2_message.c ****   Redistribution and use in source and binary forms, with or without modification, 
  11:..\..\u8g2\csrc/u8g2_message.c ****   are permitted provided that the following conditions are met:
  12:..\..\u8g2\csrc/u8g2_message.c **** 
  13:..\..\u8g2\csrc/u8g2_message.c ****   * Redistributions of source code must retain the above copyright notice, this list 
  14:..\..\u8g2\csrc/u8g2_message.c ****     of conditions and the following disclaimer.
  15:..\..\u8g2\csrc/u8g2_message.c ****     
  16:..\..\u8g2\csrc/u8g2_message.c ****   * Redistributions in binary form must reproduce the above copyright notice, this 
  17:..\..\u8g2\csrc/u8g2_message.c ****     list of conditions and the following disclaimer in the documentation and/or other 
  18:..\..\u8g2\csrc/u8g2_message.c ****     materials provided with the distribution.
  19:..\..\u8g2\csrc/u8g2_message.c **** 
  20:..\..\u8g2\csrc/u8g2_message.c ****   THIS SOFTWARE IS PROVIDED BY THE COPYRIGHT HOLDERS AND 
  21:..\..\u8g2\csrc/u8g2_message.c ****   CONTRIBUTORS "AS IS" AND ANY EXPRESS OR IMPLIED WARRANTIES, 
  22:..\..\u8g2\csrc/u8g2_message.c ****   INCLUDING, BUT NOT LIMITED TO, THE IMPLIED WARRANTIES OF 
  23:..\..\u8g2\csrc/u8g2_message.c ****   MERCHANTABILITY AND FITNESS FOR A PARTICULAR PURPOSE ARE 
  24:..\..\u8g2\csrc/u8g2_message.c ****   DISCLAIMED. IN NO EVENT SHALL THE COPYRIGHT HOLDER OR 
  25:..\..\u8g2\csrc/u8g2_message.c ****   CONTRIBUTORS BE LIABLE FOR ANY DIRECT, INDIRECT, INCIDENTAL, 
  26:..\..\u8g2\csrc/u8g2_message.c ****   SPECIAL, EXEMPLARY, OR CONSEQUENTIAL DAMAGES (INCLUDING, BUT 
  27:..\..\u8g2\csrc/u8g2_message.c ****   NOT LIMITED TO, PROCUREMENT OF SUBSTITUTE GOODS OR SERVICES; 
  28:..\..\u8g2\csrc/u8g2_message.c ****   LOSS OF USE, DATA, OR PROFITS; OR BUSINESS INTERRUPTION) HOWEVER 
  29:..\..\u8g2\csrc/u8g2_message.c ****   CAUSED AND ON ANY THEORY OF LIABILITY, WHETHER IN CONTRACT, 
  30:..\..\u8g2\csrc/u8g2_message.c ****   STRICT LIABILITY, OR TORT (INCLUDING NEGLIGENCE OR OTHERWISE) 
ARM GAS  C:\Users\Greg\AppData\Local\Temp\ccZ87YNo.s 			page 2


  31:..\..\u8g2\csrc/u8g2_message.c ****   ARISING IN ANY WAY OUT OF THE USE OF THIS SOFTWARE, EVEN IF 
  32:..\..\u8g2\csrc/u8g2_message.c ****   ADVISED OF THE POSSIBILITY OF SUCH DAMAGE.  
  33:..\..\u8g2\csrc/u8g2_message.c ****   
  34:..\..\u8g2\csrc/u8g2_message.c **** */
  35:..\..\u8g2\csrc/u8g2_message.c **** 
  36:..\..\u8g2\csrc/u8g2_message.c **** #include "u8g2.h"
  37:..\..\u8g2\csrc/u8g2_message.c **** 
  38:..\..\u8g2\csrc/u8g2_message.c **** #define SPACE_BETWEEN_BUTTONS_IN_PIXEL 6
  39:..\..\u8g2\csrc/u8g2_message.c **** #define SPACE_BETWEEN_TEXT_AND_BUTTONS_IN_PIXEL 3
  40:..\..\u8g2\csrc/u8g2_message.c **** 
  41:..\..\u8g2\csrc/u8g2_message.c **** uint8_t u8g2_draw_button_line(u8g2_t *u8g2, u8g2_uint_t y, u8g2_uint_t w, uint8_t cursor, const cha
  42:..\..\u8g2\csrc/u8g2_message.c **** {
  28              		.loc 1 42 0
  29              		.cfi_startproc
  30              		@ args = 4, pretend = 0, frame = 16
  31              		@ frame_needed = 0, uses_anonymous_args = 0
  32              	.LVL0:
  33 0000 F0B5     		push	{r4, r5, r6, r7, lr}
  34              		.cfi_def_cfa_offset 20
  35              		.cfi_offset 4, -20
  36              		.cfi_offset 5, -16
  37              		.cfi_offset 6, -12
  38              		.cfi_offset 7, -8
  39              		.cfi_offset 14, -4
  43:..\..\u8g2\csrc/u8g2_message.c ****   u8g2_uint_t button_line_width;
  44:..\..\u8g2\csrc/u8g2_message.c **** 	
  45:..\..\u8g2\csrc/u8g2_message.c ****   uint8_t i;
  46:..\..\u8g2\csrc/u8g2_message.c ****   uint8_t cnt;
  47:..\..\u8g2\csrc/u8g2_message.c ****   uint8_t is_invert;
  48:..\..\u8g2\csrc/u8g2_message.c **** 	
  49:..\..\u8g2\csrc/u8g2_message.c ****   u8g2_uint_t d;
  50:..\..\u8g2\csrc/u8g2_message.c ****   u8g2_uint_t x;
  51:..\..\u8g2\csrc/u8g2_message.c **** 	
  52:..\..\u8g2\csrc/u8g2_message.c ****   cnt = u8x8_GetStringLineCnt(s);
  53:..\..\u8g2\csrc/u8g2_message.c ****   
  54:..\..\u8g2\csrc/u8g2_message.c **** 	
  55:..\..\u8g2\csrc/u8g2_message.c ****   /* calculate the width of the button line */
  56:..\..\u8g2\csrc/u8g2_message.c ****   button_line_width = 0;
  57:..\..\u8g2\csrc/u8g2_message.c ****   for( i = 0; i < cnt; i++ )
  40              		.loc 1 57 0
  41 0002 0024     		movs	r4, #0
  42:..\..\u8g2\csrc/u8g2_message.c ****   u8g2_uint_t button_line_width;
  42              		.loc 1 42 0
  43 0004 89B0     		sub	sp, sp, #36
  44              		.cfi_def_cfa_offset 56
  42:..\..\u8g2\csrc/u8g2_message.c ****   u8g2_uint_t button_line_width;
  45              		.loc 1 42 0
  46 0006 0600     		movs	r6, r0
  52:..\..\u8g2\csrc/u8g2_message.c ****   
  47              		.loc 1 52 0
  48 0008 0E98     		ldr	r0, [sp, #56]
  49              	.LVL1:
  42:..\..\u8g2\csrc/u8g2_message.c ****   u8g2_uint_t button_line_width;
  50              		.loc 1 42 0
  51 000a 0691     		str	r1, [sp, #24]
  52 000c 1500     		movs	r5, r2
  53 000e 0793     		str	r3, [sp, #28]
ARM GAS  C:\Users\Greg\AppData\Local\Temp\ccZ87YNo.s 			page 3


  52:..\..\u8g2\csrc/u8g2_message.c ****   
  54              		.loc 1 52 0
  55 0010 FFF7FEFF 		bl	u8x8_GetStringLineCnt
  56              	.LVL2:
  56:..\..\u8g2\csrc/u8g2_message.c ****   for( i = 0; i < cnt; i++ )
  57              		.loc 1 56 0
  58 0014 2700     		movs	r7, r4
  52:..\..\u8g2\csrc/u8g2_message.c ****   
  59              		.loc 1 52 0
  60 0016 0590     		str	r0, [sp, #20]
  61              	.LVL3:
  62              	.L2:
  63              		.loc 1 57 0 discriminator 1
  64 0018 059B     		ldr	r3, [sp, #20]
  65 001a 9C42     		cmp	r4, r3
  66 001c 0CD0     		beq	.L9
  58:..\..\u8g2\csrc/u8g2_message.c ****   {
  59:..\..\u8g2\csrc/u8g2_message.c ****     button_line_width += u8g2_GetUTF8Width(u8g2, u8x8_GetStringLineStart(i, s));
  67              		.loc 1 59 0 discriminator 3
  68 001e 0E99     		ldr	r1, [sp, #56]
  69 0020 2000     		movs	r0, r4
  70 0022 FFF7FEFF 		bl	u8x8_GetStringLineStart
  71              	.LVL4:
  72 0026 0100     		movs	r1, r0
  73 0028 3000     		movs	r0, r6
  74 002a FFF7FEFF 		bl	u8g2_GetUTF8Width
  75              	.LVL5:
  57:..\..\u8g2\csrc/u8g2_message.c ****   {
  76              		.loc 1 57 0 discriminator 3
  77 002e 0134     		adds	r4, r4, #1
  78              	.LVL6:
  79              		.loc 1 59 0 discriminator 3
  80 0030 3F18     		adds	r7, r7, r0
  81              	.LVL7:
  82 0032 FFB2     		uxtb	r7, r7
  83              	.LVL8:
  57:..\..\u8g2\csrc/u8g2_message.c ****   {
  84              		.loc 1 57 0 discriminator 3
  85 0034 E4B2     		uxtb	r4, r4
  86              	.LVL9:
  87 0036 EFE7     		b	.L2
  88              	.L9:
  60:..\..\u8g2\csrc/u8g2_message.c ****   }
  61:..\..\u8g2\csrc/u8g2_message.c ****   button_line_width += (cnt-1)*SPACE_BETWEEN_BUTTONS_IN_PIXEL;	/* add some space between the button
  89              		.loc 1 61 0
  90 0038 5C1E     		subs	r4, r3, #1
  91              	.LVL10:
  92 003a 0623     		movs	r3, #6
  93 003c 5C43     		muls	r4, r3
  94 003e 3F19     		adds	r7, r7, r4
  95              	.LVL11:
  96 0040 FFB2     		uxtb	r7, r7
  97              	.LVL12:
  62:..\..\u8g2\csrc/u8g2_message.c ****   
  63:..\..\u8g2\csrc/u8g2_message.c ****   /* calculate the left offset */
  64:..\..\u8g2\csrc/u8g2_message.c ****   d = 0;
  98              		.loc 1 64 0
ARM GAS  C:\Users\Greg\AppData\Local\Temp\ccZ87YNo.s 			page 4


  99 0042 0024     		movs	r4, #0
  65:..\..\u8g2\csrc/u8g2_message.c ****   if ( button_line_width < w )
 100              		.loc 1 65 0
 101 0044 AF42     		cmp	r7, r5
 102 0046 02D2     		bcs	.L4
 103              	.LVL13:
  66:..\..\u8g2\csrc/u8g2_message.c ****   {
  67:..\..\u8g2\csrc/u8g2_message.c ****     d = w;
  68:..\..\u8g2\csrc/u8g2_message.c ****     d -= button_line_width;
  69:..\..\u8g2\csrc/u8g2_message.c ****     d /= 2;
 104              		.loc 1 69 0
 105 0048 EC1B     		subs	r4, r5, r7
 106 004a E4B2     		uxtb	r4, r4
 107 004c 6408     		lsrs	r4, r4, #1
 108              	.LVL14:
 109              	.L4:
  64:..\..\u8g2\csrc/u8g2_message.c ****   if ( button_line_width < w )
 110              		.loc 1 64 0 discriminator 1
 111 004e 0027     		movs	r7, #0
 112              	.LVL15:
  70:..\..\u8g2\csrc/u8g2_message.c ****   }
  71:..\..\u8g2\csrc/u8g2_message.c ****   
  72:..\..\u8g2\csrc/u8g2_message.c ****   /* draw the buttons */
  73:..\..\u8g2\csrc/u8g2_message.c ****   x = d;
  74:..\..\u8g2\csrc/u8g2_message.c ****   for( i = 0; i < cnt; i++ )
  75:..\..\u8g2\csrc/u8g2_message.c ****   {
  76:..\..\u8g2\csrc/u8g2_message.c ****     is_invert = 0;
  77:..\..\u8g2\csrc/u8g2_message.c ****     if ( i == cursor )
  78:..\..\u8g2\csrc/u8g2_message.c ****       is_invert = 1;
  79:..\..\u8g2\csrc/u8g2_message.c **** 
  80:..\..\u8g2\csrc/u8g2_message.c ****     u8g2_DrawUTF8Line(u8g2, x, y, 0, u8x8_GetStringLineStart(i, s), 1, is_invert);
 113              		.loc 1 80 0 discriminator 1
 114 0050 0125     		movs	r5, #1
 115              	.L5:
 116              	.LVL16:
  74:..\..\u8g2\csrc/u8g2_message.c ****   {
 117              		.loc 1 74 0 discriminator 1
 118 0052 059B     		ldr	r3, [sp, #20]
 119 0054 9F42     		cmp	r7, r3
 120 0056 1ED0     		beq	.L10
 121              	.LVL17:
 122              		.loc 1 80 0
 123 0058 0E99     		ldr	r1, [sp, #56]
 124 005a 3800     		movs	r0, r7
 125 005c FFF7FEFF 		bl	u8x8_GetStringLineStart
 126              	.LVL18:
 127 0060 079B     		ldr	r3, [sp, #28]
 128 0062 2100     		movs	r1, r4
 129 0064 FB1A     		subs	r3, r7, r3
 130 0066 5A42     		rsbs	r2, r3, #0
 131 0068 5341     		adcs	r3, r3, r2
 132 006a 0090     		str	r0, [sp]
 133 006c 069A     		ldr	r2, [sp, #24]
 134 006e 0293     		str	r3, [sp, #8]
 135 0070 3000     		movs	r0, r6
 136 0072 0023     		movs	r3, #0
 137 0074 0195     		str	r5, [sp, #4]
ARM GAS  C:\Users\Greg\AppData\Local\Temp\ccZ87YNo.s 			page 5


 138 0076 FFF7FEFF 		bl	u8g2_DrawUTF8Line
 139              	.LVL19:
  81:..\..\u8g2\csrc/u8g2_message.c ****     x += u8g2_GetUTF8Width(u8g2, u8x8_GetStringLineStart(i, s));
 140              		.loc 1 81 0
 141 007a 0E99     		ldr	r1, [sp, #56]
 142 007c 3800     		movs	r0, r7
 143 007e FFF7FEFF 		bl	u8x8_GetStringLineStart
 144              	.LVL20:
 145 0082 0100     		movs	r1, r0
 146 0084 3000     		movs	r0, r6
 147 0086 FFF7FEFF 		bl	u8g2_GetUTF8Width
 148              	.LVL21:
  82:..\..\u8g2\csrc/u8g2_message.c ****     x += SPACE_BETWEEN_BUTTONS_IN_PIXEL;
 149              		.loc 1 82 0
 150 008a 0630     		adds	r0, r0, #6
 151              	.LVL22:
 152 008c 2418     		adds	r4, r4, r0
  74:..\..\u8g2\csrc/u8g2_message.c ****   {
 153              		.loc 1 74 0
 154 008e 0137     		adds	r7, r7, #1
 155              	.LVL23:
 156              		.loc 1 82 0
 157 0090 E4B2     		uxtb	r4, r4
 158              	.LVL24:
  74:..\..\u8g2\csrc/u8g2_message.c ****   {
 159              		.loc 1 74 0
 160 0092 FFB2     		uxtb	r7, r7
 161              	.LVL25:
 162 0094 DDE7     		b	.L5
 163              	.L10:
  83:..\..\u8g2\csrc/u8g2_message.c ****   }
  84:..\..\u8g2\csrc/u8g2_message.c ****   
  85:..\..\u8g2\csrc/u8g2_message.c ****   /* return the number of buttons */
  86:..\..\u8g2\csrc/u8g2_message.c ****   return cnt;
  87:..\..\u8g2\csrc/u8g2_message.c **** }
 164              		.loc 1 87 0
 165 0096 3800     		movs	r0, r7
 166 0098 09B0     		add	sp, sp, #36
 167              		@ sp needed
 168              	.LVL26:
 169              	.LVL27:
 170              	.LVL28:
 171 009a F0BD     		pop	{r4, r5, r6, r7, pc}
 172              		.cfi_endproc
 173              	.LFE0:
 174              		.size	u8g2_draw_button_line, .-u8g2_draw_button_line
 175              		.section	.text.u8g2_UserInterfaceMessage,"ax",%progbits
 176              		.align	1
 177              		.global	u8g2_UserInterfaceMessage
 178              		.code	16
 179              		.thumb_func
 180              		.type	u8g2_UserInterfaceMessage, %function
 181              	u8g2_UserInterfaceMessage:
 182              	.LFB1:
  88:..\..\u8g2\csrc/u8g2_message.c **** 
  89:..\..\u8g2\csrc/u8g2_message.c **** /*
  90:..\..\u8g2\csrc/u8g2_message.c ****   title1:	Multiple lines,separated by '\n'
ARM GAS  C:\Users\Greg\AppData\Local\Temp\ccZ87YNo.s 			page 6


  91:..\..\u8g2\csrc/u8g2_message.c ****   title2:	A single line/string which is terminated by '\0' or '\n' . "title2" accepts the return va
  92:..\..\u8g2\csrc/u8g2_message.c ****   title3:	Multiple lines,separated by '\n'
  93:..\..\u8g2\csrc/u8g2_message.c ****   buttons:	one more more buttons separated by '\n' and terminated with '\0'
  94:..\..\u8g2\csrc/u8g2_message.c ****   side effects:
  95:..\..\u8g2\csrc/u8g2_message.c ****     u8g2_SetFontDirection(u8g2, 0);
  96:..\..\u8g2\csrc/u8g2_message.c ****     u8g2_SetFontPosBaseline(u8g2);
  97:..\..\u8g2\csrc/u8g2_message.c **** */
  98:..\..\u8g2\csrc/u8g2_message.c **** 
  99:..\..\u8g2\csrc/u8g2_message.c **** uint8_t u8g2_UserInterfaceMessage(u8g2_t *u8g2, const char *title1, const char *title2, const char 
 100:..\..\u8g2\csrc/u8g2_message.c **** {
 183              		.loc 1 100 0
 184              		.cfi_startproc
 185              		@ args = 4, pretend = 0, frame = 24
 186              		@ frame_needed = 0, uses_anonymous_args = 0
 187              	.LVL29:
 188 0000 F0B5     		push	{r4, r5, r6, r7, lr}
 189              		.cfi_def_cfa_offset 20
 190              		.cfi_offset 4, -20
 191              		.cfi_offset 5, -16
 192              		.cfi_offset 6, -12
 193              		.cfi_offset 7, -8
 194              		.cfi_offset 14, -4
 195 0002 0500     		movs	r5, r0
 196 0004 8BB0     		sub	sp, sp, #44
 197              		.cfi_def_cfa_offset 64
 198              		.loc 1 100 0
 199 0006 0791     		str	r1, [sp, #28]
 101:..\..\u8g2\csrc/u8g2_message.c ****   uint8_t height;
 102:..\..\u8g2\csrc/u8g2_message.c ****   uint8_t line_height;
 103:..\..\u8g2\csrc/u8g2_message.c ****   u8g2_uint_t pixel_height;
 104:..\..\u8g2\csrc/u8g2_message.c ****   u8g2_uint_t y, yy;
 105:..\..\u8g2\csrc/u8g2_message.c **** 	
 106:..\..\u8g2\csrc/u8g2_message.c ****   uint8_t cursor = 0;
 107:..\..\u8g2\csrc/u8g2_message.c ****   uint8_t button_cnt;
 108:..\..\u8g2\csrc/u8g2_message.c ****   uint8_t event;
 109:..\..\u8g2\csrc/u8g2_message.c **** 	
 110:..\..\u8g2\csrc/u8g2_message.c ****   /* only horizontal strings are supported, so force this here */
 111:..\..\u8g2\csrc/u8g2_message.c ****   u8g2_SetFontDirection(u8g2, 0);
 200              		.loc 1 111 0
 201 0008 0021     		movs	r1, #0
 202              	.LVL30:
 100:..\..\u8g2\csrc/u8g2_message.c ****   uint8_t height;
 203              		.loc 1 100 0
 204 000a 0592     		str	r2, [sp, #20]
 205 000c 0893     		str	r3, [sp, #32]
 206              		.loc 1 111 0
 207 000e FFF7FEFF 		bl	u8g2_SetFontDirection
 208              	.LVL31:
 112:..\..\u8g2\csrc/u8g2_message.c **** 
 113:..\..\u8g2\csrc/u8g2_message.c ****   /* force baseline position */
 114:..\..\u8g2\csrc/u8g2_message.c ****   u8g2_SetFontPosBaseline(u8g2);
 209              		.loc 1 114 0
 210 0012 2800     		movs	r0, r5
 211 0014 FFF7FEFF 		bl	u8g2_SetFontPosBaseline
 212              	.LVL32:
 115:..\..\u8g2\csrc/u8g2_message.c **** 	
 116:..\..\u8g2\csrc/u8g2_message.c **** 	
ARM GAS  C:\Users\Greg\AppData\Local\Temp\ccZ87YNo.s 			page 7


 117:..\..\u8g2\csrc/u8g2_message.c ****   /* calculate line height */
 118:..\..\u8g2\csrc/u8g2_message.c ****   line_height = u8g2_GetAscent(u8g2);
 213              		.loc 1 118 0
 214 0018 2E00     		movs	r6, r5
 119:..\..\u8g2\csrc/u8g2_message.c ****   line_height -= u8g2_GetDescent(u8g2);
 215              		.loc 1 119 0
 216 001a 2A00     		movs	r2, r5
 118:..\..\u8g2\csrc/u8g2_message.c ****   line_height -= u8g2_GetDescent(u8g2);
 217              		.loc 1 118 0
 218 001c 7936     		adds	r6, r6, #121
 219              		.loc 1 119 0
 220 001e 7A32     		adds	r2, r2, #122
 118:..\..\u8g2\csrc/u8g2_message.c ****   line_height -= u8g2_GetDescent(u8g2);
 221              		.loc 1 118 0
 222 0020 3378     		ldrb	r3, [r6]
 223              	.LVL33:
 224              		.loc 1 119 0
 225 0022 1278     		ldrb	r2, [r2]
 120:..\..\u8g2\csrc/u8g2_message.c **** 
 121:..\..\u8g2\csrc/u8g2_message.c ****   /* calculate overall height of the message box in lines*/
 122:..\..\u8g2\csrc/u8g2_message.c ****   height = 1;	/* button line */
 123:..\..\u8g2\csrc/u8g2_message.c ****   height += u8x8_GetStringLineCnt(title1);
 226              		.loc 1 123 0
 227 0024 0798     		ldr	r0, [sp, #28]
 119:..\..\u8g2\csrc/u8g2_message.c **** 
 228              		.loc 1 119 0
 229 0026 9B1A     		subs	r3, r3, r2
 230              	.LVL34:
 231 0028 DBB2     		uxtb	r3, r3
 232 002a 0493     		str	r3, [sp, #16]
 233              	.LVL35:
 234              		.loc 1 123 0
 235 002c FFF7FEFF 		bl	u8x8_GetStringLineCnt
 236              	.LVL36:
 124:..\..\u8g2\csrc/u8g2_message.c ****   if ( title2 != NULL )
 237              		.loc 1 124 0
 238 0030 059B     		ldr	r3, [sp, #20]
 125:..\..\u8g2\csrc/u8g2_message.c ****     height++;
 239              		.loc 1 125 0
 240 0032 841C     		adds	r4, r0, #2
 241 0034 E4B2     		uxtb	r4, r4
 124:..\..\u8g2\csrc/u8g2_message.c ****   if ( title2 != NULL )
 242              		.loc 1 124 0
 243 0036 002B     		cmp	r3, #0
 244 0038 01D1     		bne	.L13
 123:..\..\u8g2\csrc/u8g2_message.c ****   if ( title2 != NULL )
 245              		.loc 1 123 0
 246 003a 0130     		adds	r0, r0, #1
 247              	.LVL37:
 248 003c C4B2     		uxtb	r4, r0
 249              	.L13:
 250              	.LVL38:
 126:..\..\u8g2\csrc/u8g2_message.c ****   height += u8x8_GetStringLineCnt(title3);
 251              		.loc 1 126 0
 252 003e 0898     		ldr	r0, [sp, #32]
 253 0040 FFF7FEFF 		bl	u8x8_GetStringLineCnt
 254              	.LVL39:
ARM GAS  C:\Users\Greg\AppData\Local\Temp\ccZ87YNo.s 			page 8


 127:..\..\u8g2\csrc/u8g2_message.c ****   
 128:..\..\u8g2\csrc/u8g2_message.c ****   /* calculate the height in pixel */
 129:..\..\u8g2\csrc/u8g2_message.c ****   pixel_height = height;
 130:..\..\u8g2\csrc/u8g2_message.c ****   pixel_height *= line_height;
 255              		.loc 1 130 0
 256 0044 049B     		ldr	r3, [sp, #16]
 126:..\..\u8g2\csrc/u8g2_message.c ****   height += u8x8_GetStringLineCnt(title3);
 257              		.loc 1 126 0
 258 0046 2418     		adds	r4, r4, r0
 259              	.LVL40:
 260              		.loc 1 130 0
 261 0048 5C43     		muls	r4, r3
 262              	.LVL41:
 131:..\..\u8g2\csrc/u8g2_message.c ****   
 132:..\..\u8g2\csrc/u8g2_message.c ****   /* ... and add the space between the text and the buttons */
 133:..\..\u8g2\csrc/u8g2_message.c ****   pixel_height +=SPACE_BETWEEN_TEXT_AND_BUTTONS_IN_PIXEL;
 134:..\..\u8g2\csrc/u8g2_message.c ****   
 135:..\..\u8g2\csrc/u8g2_message.c ****   /* calculate offset from top */
 136:..\..\u8g2\csrc/u8g2_message.c ****   y = 0;
 137:..\..\u8g2\csrc/u8g2_message.c ****   if ( pixel_height < u8g2_GetDisplayHeight(u8g2)   )
 263              		.loc 1 137 0
 264 004a 2B00     		movs	r3, r5
 265 004c 4033     		adds	r3, r3, #64
 133:..\..\u8g2\csrc/u8g2_message.c ****   
 266              		.loc 1 133 0
 267 004e 0334     		adds	r4, r4, #3
 268              	.LVL42:
 269              		.loc 1 137 0
 270 0050 1A78     		ldrb	r2, [r3]
 133:..\..\u8g2\csrc/u8g2_message.c ****   
 271              		.loc 1 133 0
 272 0052 E4B2     		uxtb	r4, r4
 273              	.LVL43:
 136:..\..\u8g2\csrc/u8g2_message.c ****   if ( pixel_height < u8g2_GetDisplayHeight(u8g2)   )
 274              		.loc 1 136 0
 275 0054 0023     		movs	r3, #0
 276              		.loc 1 137 0
 277 0056 9442     		cmp	r4, r2
 278 0058 02D2     		bcs	.L14
 279              	.LVL44:
 138:..\..\u8g2\csrc/u8g2_message.c ****   {
 139:..\..\u8g2\csrc/u8g2_message.c ****     y = u8g2_GetDisplayHeight(u8g2);
 140:..\..\u8g2\csrc/u8g2_message.c ****     y -= pixel_height;
 280              		.loc 1 140 0
 281 005a 131B     		subs	r3, r2, r4
 282 005c DBB2     		uxtb	r3, r3
 283              	.LVL45:
 141:..\..\u8g2\csrc/u8g2_message.c ****     y /= 2;
 284              		.loc 1 141 0
 285 005e 5B08     		lsrs	r3, r3, #1
 286              	.LVL46:
 287              	.L14:
 142:..\..\u8g2\csrc/u8g2_message.c ****   }
 143:..\..\u8g2\csrc/u8g2_message.c ****   y += u8g2_GetAscent(u8g2);
 288              		.loc 1 143 0
 289 0060 3478     		ldrb	r4, [r6]
 290              	.LVL47:
ARM GAS  C:\Users\Greg\AppData\Local\Temp\ccZ87YNo.s 			page 9


 291 0062 1B19     		adds	r3, r3, r4
 292              	.LVL48:
 106:..\..\u8g2\csrc/u8g2_message.c ****   uint8_t button_cnt;
 293              		.loc 1 106 0
 294 0064 0024     		movs	r4, #0
 295              		.loc 1 143 0
 296 0066 DBB2     		uxtb	r3, r3
 297 0068 0693     		str	r3, [sp, #24]
 298              	.LVL49:
 299              	.L15:
 144:..\..\u8g2\csrc/u8g2_message.c **** 
 145:..\..\u8g2\csrc/u8g2_message.c ****   
 146:..\..\u8g2\csrc/u8g2_message.c ****   for(;;)
 147:..\..\u8g2\csrc/u8g2_message.c ****   {
 148:..\..\u8g2\csrc/u8g2_message.c ****       u8g2_FirstPage(u8g2);
 300              		.loc 1 148 0
 301 006a 2800     		movs	r0, r5
 149:..\..\u8g2\csrc/u8g2_message.c ****       do
 150:..\..\u8g2\csrc/u8g2_message.c ****       {
 151:..\..\u8g2\csrc/u8g2_message.c **** 	  yy = y;
 152:..\..\u8g2\csrc/u8g2_message.c **** 	  /* draw message box */
 153:..\..\u8g2\csrc/u8g2_message.c **** 	  
 154:..\..\u8g2\csrc/u8g2_message.c **** 	  yy += u8g2_DrawUTF8Lines(u8g2, 0, yy, u8g2_GetDisplayWidth(u8g2), line_height, title1);
 302              		.loc 1 154 0
 303 006c 2F00     		movs	r7, r5
 148:..\..\u8g2\csrc/u8g2_message.c ****       do
 304              		.loc 1 148 0
 305 006e FFF7FEFF 		bl	u8g2_FirstPage
 306              	.LVL50:
 307              		.loc 1 154 0
 308 0072 3F37     		adds	r7, r7, #63
 309              	.L17:
 310              	.LVL51:
 311 0074 079A     		ldr	r2, [sp, #28]
 312 0076 3B78     		ldrb	r3, [r7]
 313 0078 0192     		str	r2, [sp, #4]
 314 007a 049A     		ldr	r2, [sp, #16]
 315 007c 0021     		movs	r1, #0
 316 007e 0092     		str	r2, [sp]
 317 0080 2800     		movs	r0, r5
 318 0082 069A     		ldr	r2, [sp, #24]
 319 0084 FFF7FEFF 		bl	u8g2_DrawUTF8Lines
 320              	.LVL52:
 321 0088 069B     		ldr	r3, [sp, #24]
 322 008a 1818     		adds	r0, r3, r0
 155:..\..\u8g2\csrc/u8g2_message.c **** 	  if ( title2 != NULL )
 323              		.loc 1 155 0
 324 008c 059B     		ldr	r3, [sp, #20]
 154:..\..\u8g2\csrc/u8g2_message.c **** 	  if ( title2 != NULL )
 325              		.loc 1 154 0
 326 008e C6B2     		uxtb	r6, r0
 327              	.LVL53:
 328              		.loc 1 155 0
 329 0090 002B     		cmp	r3, #0
 330 0092 0DD0     		beq	.L16
 156:..\..\u8g2\csrc/u8g2_message.c **** 	  {
 157:..\..\u8g2\csrc/u8g2_message.c **** 	    u8g2_DrawUTF8Line(u8g2, 0, yy, u8g2_GetDisplayWidth(u8g2), title2, 0, 0);
ARM GAS  C:\Users\Greg\AppData\Local\Temp\ccZ87YNo.s 			page 10


 331              		.loc 1 157 0
 332 0094 0022     		movs	r2, #0
 333 0096 3B78     		ldrb	r3, [r7]
 334 0098 0292     		str	r2, [sp, #8]
 335 009a 0192     		str	r2, [sp, #4]
 336 009c 059A     		ldr	r2, [sp, #20]
 337 009e 0021     		movs	r1, #0
 338 00a0 0092     		str	r2, [sp]
 339 00a2 2800     		movs	r0, r5
 340 00a4 3200     		movs	r2, r6
 341 00a6 FFF7FEFF 		bl	u8g2_DrawUTF8Line
 342              	.LVL54:
 158:..\..\u8g2\csrc/u8g2_message.c **** 	    yy+=line_height;
 343              		.loc 1 158 0
 344 00aa 049B     		ldr	r3, [sp, #16]
 345 00ac 9E19     		adds	r6, r3, r6
 346              	.LVL55:
 347 00ae F6B2     		uxtb	r6, r6
 348              	.LVL56:
 349              	.L16:
 159:..\..\u8g2\csrc/u8g2_message.c **** 	  }
 160:..\..\u8g2\csrc/u8g2_message.c **** 	  yy += u8g2_DrawUTF8Lines(u8g2, 0, yy, u8g2_GetDisplayWidth(u8g2), line_height, title3);
 350              		.loc 1 160 0
 351 00b0 089A     		ldr	r2, [sp, #32]
 352 00b2 3B78     		ldrb	r3, [r7]
 353 00b4 0192     		str	r2, [sp, #4]
 354 00b6 049A     		ldr	r2, [sp, #16]
 355 00b8 0021     		movs	r1, #0
 356 00ba 0092     		str	r2, [sp]
 357 00bc 2800     		movs	r0, r5
 358 00be 3200     		movs	r2, r6
 359 00c0 FFF7FEFF 		bl	u8g2_DrawUTF8Lines
 360              	.LVL57:
 161:..\..\u8g2\csrc/u8g2_message.c **** 	  yy += SPACE_BETWEEN_TEXT_AND_BUTTONS_IN_PIXEL;
 162:..\..\u8g2\csrc/u8g2_message.c **** 
 163:..\..\u8g2\csrc/u8g2_message.c **** 	  button_cnt = u8g2_draw_button_line(u8g2, yy, u8g2_GetDisplayWidth(u8g2), cursor, buttons);
 361              		.loc 1 163 0
 362 00c4 109B     		ldr	r3, [sp, #64]
 160:..\..\u8g2\csrc/u8g2_message.c **** 	  yy += SPACE_BETWEEN_TEXT_AND_BUTTONS_IN_PIXEL;
 363              		.loc 1 160 0
 364 00c6 3618     		adds	r6, r6, r0
 365              	.LVL58:
 366              		.loc 1 163 0
 367 00c8 0336     		adds	r6, r6, #3
 368              	.LVL59:
 369 00ca 3A78     		ldrb	r2, [r7]
 370 00cc F1B2     		uxtb	r1, r6
 371 00ce 0093     		str	r3, [sp]
 372 00d0 2800     		movs	r0, r5
 373 00d2 2300     		movs	r3, r4
 374 00d4 FFF7FEFF 		bl	u8g2_draw_button_line
 375              	.LVL60:
 376 00d8 0990     		str	r0, [sp, #36]
 377              	.LVL61:
 164:..\..\u8g2\csrc/u8g2_message.c **** 	  
 165:..\..\u8g2\csrc/u8g2_message.c ****       } while( u8g2_NextPage(u8g2) );
 378              		.loc 1 165 0
ARM GAS  C:\Users\Greg\AppData\Local\Temp\ccZ87YNo.s 			page 11


 379 00da 2800     		movs	r0, r5
 380              	.LVL62:
 381 00dc FFF7FEFF 		bl	u8g2_NextPage
 382              	.LVL63:
 383 00e0 061E     		subs	r6, r0, #0
 384              	.LVL64:
 385 00e2 C7D1     		bne	.L17
 386              	.L22:
 166:..\..\u8g2\csrc/u8g2_message.c **** 
 167:..\..\u8g2\csrc/u8g2_message.c **** #ifdef U8G2_REF_MAN_PIC
 168:..\..\u8g2\csrc/u8g2_message.c ****       return 0;
 169:..\..\u8g2\csrc/u8g2_message.c **** #endif
 170:..\..\u8g2\csrc/u8g2_message.c **** 	  
 171:..\..\u8g2\csrc/u8g2_message.c ****       for(;;)
 172:..\..\u8g2\csrc/u8g2_message.c ****       {
 173:..\..\u8g2\csrc/u8g2_message.c **** 	    event = u8x8_GetMenuEvent(u8g2_GetU8x8(u8g2));
 387              		.loc 1 173 0
 388 00e4 2800     		movs	r0, r5
 389 00e6 FFF7FEFF 		bl	u8x8_GetMenuEvent
 390              	.LVL65:
 174:..\..\u8g2\csrc/u8g2_message.c **** 	    if ( event == U8X8_MSG_GPIO_MENU_SELECT )
 391              		.loc 1 174 0
 392 00ea 5028     		cmp	r0, #80
 393 00ec 02D1     		bne	.L18
 175:..\..\u8g2\csrc/u8g2_message.c **** 	      return cursor+1;
 394              		.loc 1 175 0
 395 00ee 0134     		adds	r4, r4, #1
 396              	.LVL66:
 397 00f0 E6B2     		uxtb	r6, r4
 398 00f2 1AE0     		b	.L19
 399              	.LVL67:
 400              	.L18:
 176:..\..\u8g2\csrc/u8g2_message.c **** 	    else if ( event == U8X8_MSG_GPIO_MENU_HOME )
 401              		.loc 1 176 0
 402 00f4 5328     		cmp	r0, #83
 403 00f6 18D0     		beq	.L19
 177:..\..\u8g2\csrc/u8g2_message.c **** 	      return 0;
 178:..\..\u8g2\csrc/u8g2_message.c **** 	    else if ( event == U8X8_MSG_GPIO_MENU_NEXT || event == U8X8_MSG_GPIO_MENU_DOWN )
 404              		.loc 1 178 0
 405 00f8 0300     		movs	r3, r0
 406 00fa 0422     		movs	r2, #4
 407 00fc 9343     		bics	r3, r2
 408 00fe DBB2     		uxtb	r3, r3
 409 0100 512B     		cmp	r3, #81
 410 0102 06D1     		bne	.L20
 179:..\..\u8g2\csrc/u8g2_message.c **** 	    {
 180:..\..\u8g2\csrc/u8g2_message.c **** 	      cursor++;
 411              		.loc 1 180 0
 412 0104 0134     		adds	r4, r4, #1
 413              	.LVL68:
 181:..\..\u8g2\csrc/u8g2_message.c **** 	      if ( cursor >= button_cnt )
 182:..\..\u8g2\csrc/u8g2_message.c **** 		cursor = 0;
 414              		.loc 1 182 0
 415 0106 099B     		ldr	r3, [sp, #36]
 180:..\..\u8g2\csrc/u8g2_message.c **** 	      if ( cursor >= button_cnt )
 416              		.loc 1 180 0
 417 0108 E4B2     		uxtb	r4, r4
ARM GAS  C:\Users\Greg\AppData\Local\Temp\ccZ87YNo.s 			page 12


 418              	.LVL69:
 419              		.loc 1 182 0
 420 010a 9C42     		cmp	r4, r3
 421 010c BF41     		sbcs	r7, r7, r7
 422 010e 3C40     		ands	r4, r7
 423              	.LVL70:
 424 0110 ABE7     		b	.L15
 425              	.LVL71:
 426              	.L20:
 183:..\..\u8g2\csrc/u8g2_message.c **** 	      break;
 184:..\..\u8g2\csrc/u8g2_message.c **** 	    }
 185:..\..\u8g2\csrc/u8g2_message.c **** 	    else if ( event == U8X8_MSG_GPIO_MENU_PREV || event == U8X8_MSG_GPIO_MENU_UP )
 427              		.loc 1 185 0
 428 0112 0223     		movs	r3, #2
 429 0114 5238     		subs	r0, r0, #82
 430              	.LVL72:
 431 0116 9843     		bics	r0, r3
 432 0118 C0B2     		uxtb	r0, r0
 433 011a 0028     		cmp	r0, #0
 434 011c E2D1     		bne	.L22
 186:..\..\u8g2\csrc/u8g2_message.c **** 	    {
 187:..\..\u8g2\csrc/u8g2_message.c **** 	      if ( cursor == 0 )
 435              		.loc 1 187 0
 436 011e 002C     		cmp	r4, #0
 437 0120 00D1     		bne	.L23
 163:..\..\u8g2\csrc/u8g2_message.c **** 	  
 438              		.loc 1 163 0
 439 0122 099C     		ldr	r4, [sp, #36]
 440              	.LVL73:
 441              	.L23:
 188:..\..\u8g2\csrc/u8g2_message.c **** 		cursor = button_cnt;
 189:..\..\u8g2\csrc/u8g2_message.c **** 	      cursor--;
 442              		.loc 1 189 0
 443 0124 013C     		subs	r4, r4, #1
 444              	.LVL74:
 445 0126 E4B2     		uxtb	r4, r4
 446              	.LVL75:
 190:..\..\u8g2\csrc/u8g2_message.c **** 	      break;
 447              		.loc 1 190 0
 448 0128 9FE7     		b	.L15
 449              	.LVL76:
 450              	.L19:
 191:..\..\u8g2\csrc/u8g2_message.c **** 	    }    
 192:..\..\u8g2\csrc/u8g2_message.c ****       }
 193:..\..\u8g2\csrc/u8g2_message.c ****   }
 194:..\..\u8g2\csrc/u8g2_message.c ****   /* never reached */
 195:..\..\u8g2\csrc/u8g2_message.c ****   //return 0;
 196:..\..\u8g2\csrc/u8g2_message.c **** }
 451              		.loc 1 196 0
 452 012a 3000     		movs	r0, r6
 453              	.LVL77:
 454 012c 0BB0     		add	sp, sp, #44
 455              		@ sp needed
 456              	.LVL78:
 457              	.LVL79:
 458 012e F0BD     		pop	{r4, r5, r6, r7, pc}
 459              		.cfi_endproc
ARM GAS  C:\Users\Greg\AppData\Local\Temp\ccZ87YNo.s 			page 13


 460              	.LFE1:
 461              		.size	u8g2_UserInterfaceMessage, .-u8g2_UserInterfaceMessage
 462              		.text
 463              	.Letext0:
 464              		.file 2 "c:\\program files\\cypress\\psoc creator\\4.1\\psoc creator\\import\\gnu\\arm\\5.4.1\\arm
 465              		.file 3 "c:\\program files\\cypress\\psoc creator\\4.1\\psoc creator\\import\\gnu\\arm\\5.4.1\\arm
 466              		.file 4 "..\\..\\u8g2\\csrc\\u8x8.h"
 467              		.file 5 "..\\..\\u8g2\\csrc\\u8g2.h"