ARM GAS  C:\Users\Greg\AppData\Local\Temp\ccum9vLS.s 			page 1


   1              		.syntax unified
   2              		.cpu cortex-m0
   3              		.fpu softvfp
   4              		.eabi_attribute 20, 1
   5              		.eabi_attribute 21, 1
   6              		.eabi_attribute 23, 3
   7              		.eabi_attribute 24, 1
   8              		.eabi_attribute 25, 1
   9              		.eabi_attribute 26, 1
  10              		.eabi_attribute 30, 4
  11              		.eabi_attribute 34, 0
  12              		.eabi_attribute 18, 4
  13              		.thumb
  14              		.syntax unified
  15              		.file	"u8g2_circle.c"
  16              		.text
  17              	.Ltext0:
  18              		.cfi_sections	.debug_frame
  19              		.section	.text.u8g2_draw_circle_section,"ax",%progbits
  20              		.align	1
  21              		.code	16
  22              		.thumb_func
  23              		.type	u8g2_draw_circle_section, %function
  24              	u8g2_draw_circle_section:
  25              	.LFB0:
  26              		.file 1 "..\\..\\u8g2\\csrc\\u8g2_circle.c"
   1:..\..\u8g2\csrc/u8g2_circle.c **** /*
   2:..\..\u8g2\csrc/u8g2_circle.c **** 
   3:..\..\u8g2\csrc/u8g2_circle.c ****   u8g2_box.c
   4:..\..\u8g2\csrc/u8g2_circle.c **** 
   5:..\..\u8g2\csrc/u8g2_circle.c ****   Universal 8bit Graphics Library (https://github.com/olikraus/u8g2/)
   6:..\..\u8g2\csrc/u8g2_circle.c **** 
   7:..\..\u8g2\csrc/u8g2_circle.c ****   Copyright (c) 2016, olikraus@gmail.com
   8:..\..\u8g2\csrc/u8g2_circle.c ****   All rights reserved.
   9:..\..\u8g2\csrc/u8g2_circle.c **** 
  10:..\..\u8g2\csrc/u8g2_circle.c ****   Redistribution and use in source and binary forms, with or without modification, 
  11:..\..\u8g2\csrc/u8g2_circle.c ****   are permitted provided that the following conditions are met:
  12:..\..\u8g2\csrc/u8g2_circle.c **** 
  13:..\..\u8g2\csrc/u8g2_circle.c ****   * Redistributions of source code must retain the above copyright notice, this list 
  14:..\..\u8g2\csrc/u8g2_circle.c ****     of conditions and the following disclaimer.
  15:..\..\u8g2\csrc/u8g2_circle.c ****     
  16:..\..\u8g2\csrc/u8g2_circle.c ****   * Redistributions in binary form must reproduce the above copyright notice, this 
  17:..\..\u8g2\csrc/u8g2_circle.c ****     list of conditions and the following disclaimer in the documentation and/or other 
  18:..\..\u8g2\csrc/u8g2_circle.c ****     materials provided with the distribution.
  19:..\..\u8g2\csrc/u8g2_circle.c **** 
  20:..\..\u8g2\csrc/u8g2_circle.c ****   THIS SOFTWARE IS PROVIDED BY THE COPYRIGHT HOLDERS AND 
  21:..\..\u8g2\csrc/u8g2_circle.c ****   CONTRIBUTORS "AS IS" AND ANY EXPRESS OR IMPLIED WARRANTIES, 
  22:..\..\u8g2\csrc/u8g2_circle.c ****   INCLUDING, BUT NOT LIMITED TO, THE IMPLIED WARRANTIES OF 
  23:..\..\u8g2\csrc/u8g2_circle.c ****   MERCHANTABILITY AND FITNESS FOR A PARTICULAR PURPOSE ARE 
  24:..\..\u8g2\csrc/u8g2_circle.c ****   DISCLAIMED. IN NO EVENT SHALL THE COPYRIGHT HOLDER OR 
  25:..\..\u8g2\csrc/u8g2_circle.c ****   CONTRIBUTORS BE LIABLE FOR ANY DIRECT, INDIRECT, INCIDENTAL, 
  26:..\..\u8g2\csrc/u8g2_circle.c ****   SPECIAL, EXEMPLARY, OR CONSEQUENTIAL DAMAGES (INCLUDING, BUT 
  27:..\..\u8g2\csrc/u8g2_circle.c ****   NOT LIMITED TO, PROCUREMENT OF SUBSTITUTE GOODS OR SERVICES; 
  28:..\..\u8g2\csrc/u8g2_circle.c ****   LOSS OF USE, DATA, OR PROFITS; OR BUSINESS INTERRUPTION) HOWEVER 
  29:..\..\u8g2\csrc/u8g2_circle.c ****   CAUSED AND ON ANY THEORY OF LIABILITY, WHETHER IN CONTRACT, 
  30:..\..\u8g2\csrc/u8g2_circle.c ****   STRICT LIABILITY, OR TORT (INCLUDING NEGLIGENCE OR OTHERWISE) 
  31:..\..\u8g2\csrc/u8g2_circle.c ****   ARISING IN ANY WAY OUT OF THE USE OF THIS SOFTWARE, EVEN IF 
ARM GAS  C:\Users\Greg\AppData\Local\Temp\ccum9vLS.s 			page 2


  32:..\..\u8g2\csrc/u8g2_circle.c ****   ADVISED OF THE POSSIBILITY OF SUCH DAMAGE.  
  33:..\..\u8g2\csrc/u8g2_circle.c **** 
  34:..\..\u8g2\csrc/u8g2_circle.c **** */
  35:..\..\u8g2\csrc/u8g2_circle.c **** 
  36:..\..\u8g2\csrc/u8g2_circle.c **** #include "u8g2.h"
  37:..\..\u8g2\csrc/u8g2_circle.c **** 
  38:..\..\u8g2\csrc/u8g2_circle.c **** /*==============================================*/
  39:..\..\u8g2\csrc/u8g2_circle.c **** /* Circle */
  40:..\..\u8g2\csrc/u8g2_circle.c **** 
  41:..\..\u8g2\csrc/u8g2_circle.c **** static void u8g2_draw_circle_section(u8g2_t *u8g2, u8g2_uint_t x, u8g2_uint_t y, u8g2_uint_t x0, u8
  42:..\..\u8g2\csrc/u8g2_circle.c **** 
  43:..\..\u8g2\csrc/u8g2_circle.c **** static void u8g2_draw_circle_section(u8g2_t *u8g2, u8g2_uint_t x, u8g2_uint_t y, u8g2_uint_t x0, u8
  44:..\..\u8g2\csrc/u8g2_circle.c **** {
  27              		.loc 1 44 0
  28              		.cfi_startproc
  29              		@ args = 8, pretend = 0, frame = 8
  30              		@ frame_needed = 0, uses_anonymous_args = 0
  31              	.LVL0:
  32 0000 F7B5     		push	{r0, r1, r2, r4, r5, r6, r7, lr}
  33              		.cfi_def_cfa_offset 32
  34              		.cfi_offset 0, -32
  35              		.cfi_offset 1, -28
  36              		.cfi_offset 2, -24
  37              		.cfi_offset 4, -20
  38              		.cfi_offset 5, -16
  39              		.cfi_offset 6, -12
  40              		.cfi_offset 7, -8
  41              		.cfi_offset 14, -4
  42              		.loc 1 44 0
  43 0002 0093     		str	r3, [sp]
  44 0004 08AB     		add	r3, sp, #32
  45              	.LVL1:
  46 0006 1C78     		ldrb	r4, [r3]
  47 0008 09AB     		add	r3, sp, #36
  48              	.LVL2:
  49 000a 1B78     		ldrb	r3, [r3]
  50              	.LVL3:
  51 000c 0500     		movs	r5, r0
  52 000e 0F00     		movs	r7, r1
  53 0010 1600     		movs	r6, r2
  54 0012 0193     		str	r3, [sp, #4]
  45:..\..\u8g2\csrc/u8g2_circle.c ****     /* upper right */
  46:..\..\u8g2\csrc/u8g2_circle.c ****     if ( option & U8G2_DRAW_UPPER_RIGHT )
  55              		.loc 1 46 0
  56 0014 DB07     		lsls	r3, r3, #31
  57 0016 0ED5     		bpl	.L2
  47:..\..\u8g2\csrc/u8g2_circle.c ****     {
  48:..\..\u8g2\csrc/u8g2_circle.c ****       u8g2_DrawPixel(u8g2, x0 + x, y0 - y);
  58              		.loc 1 48 0
  59 0018 009B     		ldr	r3, [sp]
  60 001a A21A     		subs	r2, r4, r2
  61              	.LVL4:
  62 001c 5918     		adds	r1, r3, r1
  63              	.LVL5:
  64 001e D2B2     		uxtb	r2, r2
  65 0020 C9B2     		uxtb	r1, r1
  66 0022 FFF7FEFF 		bl	u8g2_DrawPixel
ARM GAS  C:\Users\Greg\AppData\Local\Temp\ccum9vLS.s 			page 3


  67              	.LVL6:
  49:..\..\u8g2\csrc/u8g2_circle.c ****       u8g2_DrawPixel(u8g2, x0 + y, y0 - x);
  68              		.loc 1 49 0
  69 0026 009B     		ldr	r3, [sp]
  70 0028 E21B     		subs	r2, r4, r7
  71 002a 9919     		adds	r1, r3, r6
  72 002c D2B2     		uxtb	r2, r2
  73 002e C9B2     		uxtb	r1, r1
  74 0030 2800     		movs	r0, r5
  75 0032 FFF7FEFF 		bl	u8g2_DrawPixel
  76              	.LVL7:
  77              	.L2:
  50:..\..\u8g2\csrc/u8g2_circle.c ****     }
  51:..\..\u8g2\csrc/u8g2_circle.c ****     
  52:..\..\u8g2\csrc/u8g2_circle.c ****     /* upper left */
  53:..\..\u8g2\csrc/u8g2_circle.c ****     if ( option & U8G2_DRAW_UPPER_LEFT )
  78              		.loc 1 53 0
  79 0036 019B     		ldr	r3, [sp, #4]
  80 0038 9B07     		lsls	r3, r3, #30
  81 003a 0FD5     		bpl	.L3
  54:..\..\u8g2\csrc/u8g2_circle.c ****     {
  55:..\..\u8g2\csrc/u8g2_circle.c ****       u8g2_DrawPixel(u8g2, x0 - x, y0 - y);
  82              		.loc 1 55 0
  83 003c 009B     		ldr	r3, [sp]
  84 003e A21B     		subs	r2, r4, r6
  85 0040 D91B     		subs	r1, r3, r7
  86 0042 D2B2     		uxtb	r2, r2
  87 0044 C9B2     		uxtb	r1, r1
  88 0046 2800     		movs	r0, r5
  89 0048 FFF7FEFF 		bl	u8g2_DrawPixel
  90              	.LVL8:
  56:..\..\u8g2\csrc/u8g2_circle.c ****       u8g2_DrawPixel(u8g2, x0 - y, y0 - x);
  91              		.loc 1 56 0
  92 004c 009B     		ldr	r3, [sp]
  93 004e E21B     		subs	r2, r4, r7
  94 0050 991B     		subs	r1, r3, r6
  95 0052 D2B2     		uxtb	r2, r2
  96 0054 C9B2     		uxtb	r1, r1
  97 0056 2800     		movs	r0, r5
  98 0058 FFF7FEFF 		bl	u8g2_DrawPixel
  99              	.LVL9:
 100              	.L3:
  57:..\..\u8g2\csrc/u8g2_circle.c ****     }
  58:..\..\u8g2\csrc/u8g2_circle.c ****     
  59:..\..\u8g2\csrc/u8g2_circle.c ****     /* lower right */
  60:..\..\u8g2\csrc/u8g2_circle.c ****     if ( option & U8G2_DRAW_LOWER_RIGHT )
 101              		.loc 1 60 0
 102 005c 019B     		ldr	r3, [sp, #4]
 103 005e 1B07     		lsls	r3, r3, #28
 104 0060 0FD5     		bpl	.L4
  61:..\..\u8g2\csrc/u8g2_circle.c ****     {
  62:..\..\u8g2\csrc/u8g2_circle.c ****       u8g2_DrawPixel(u8g2, x0 + x, y0 + y);
 105              		.loc 1 62 0
 106 0062 009B     		ldr	r3, [sp]
 107 0064 A219     		adds	r2, r4, r6
 108 0066 D919     		adds	r1, r3, r7
 109 0068 D2B2     		uxtb	r2, r2
ARM GAS  C:\Users\Greg\AppData\Local\Temp\ccum9vLS.s 			page 4


 110 006a C9B2     		uxtb	r1, r1
 111 006c 2800     		movs	r0, r5
 112 006e FFF7FEFF 		bl	u8g2_DrawPixel
 113              	.LVL10:
  63:..\..\u8g2\csrc/u8g2_circle.c ****       u8g2_DrawPixel(u8g2, x0 + y, y0 + x);
 114              		.loc 1 63 0
 115 0072 009B     		ldr	r3, [sp]
 116 0074 3A19     		adds	r2, r7, r4
 117 0076 9919     		adds	r1, r3, r6
 118 0078 D2B2     		uxtb	r2, r2
 119 007a C9B2     		uxtb	r1, r1
 120 007c 2800     		movs	r0, r5
 121 007e FFF7FEFF 		bl	u8g2_DrawPixel
 122              	.LVL11:
 123              	.L4:
  64:..\..\u8g2\csrc/u8g2_circle.c ****     }
  65:..\..\u8g2\csrc/u8g2_circle.c ****     
  66:..\..\u8g2\csrc/u8g2_circle.c ****     /* lower left */
  67:..\..\u8g2\csrc/u8g2_circle.c ****     if ( option & U8G2_DRAW_LOWER_LEFT )
 124              		.loc 1 67 0
 125 0082 019B     		ldr	r3, [sp, #4]
 126 0084 5B07     		lsls	r3, r3, #29
 127 0086 0FD5     		bpl	.L1
  68:..\..\u8g2\csrc/u8g2_circle.c ****     {
  69:..\..\u8g2\csrc/u8g2_circle.c ****       u8g2_DrawPixel(u8g2, x0 - x, y0 + y);
 128              		.loc 1 69 0
 129 0088 009B     		ldr	r3, [sp]
 130 008a A219     		adds	r2, r4, r6
 131 008c D91B     		subs	r1, r3, r7
 132 008e D2B2     		uxtb	r2, r2
 133 0090 C9B2     		uxtb	r1, r1
 134 0092 2800     		movs	r0, r5
 135 0094 FFF7FEFF 		bl	u8g2_DrawPixel
 136              	.LVL12:
  70:..\..\u8g2\csrc/u8g2_circle.c ****       u8g2_DrawPixel(u8g2, x0 - y, y0 + x);
 137              		.loc 1 70 0
 138 0098 009B     		ldr	r3, [sp]
 139 009a 3C19     		adds	r4, r7, r4
 140 009c 9E1B     		subs	r6, r3, r6
 141 009e E2B2     		uxtb	r2, r4
 142 00a0 F1B2     		uxtb	r1, r6
 143 00a2 2800     		movs	r0, r5
 144 00a4 FFF7FEFF 		bl	u8g2_DrawPixel
 145              	.LVL13:
 146              	.L1:
  71:..\..\u8g2\csrc/u8g2_circle.c ****     }
  72:..\..\u8g2\csrc/u8g2_circle.c **** }
 147              		.loc 1 72 0
 148              		@ sp needed
 149              	.LVL14:
 150 00a8 F7BD     		pop	{r0, r1, r2, r4, r5, r6, r7, pc}
 151              		.cfi_endproc
 152              	.LFE0:
 153              		.size	u8g2_draw_circle_section, .-u8g2_draw_circle_section
 154              		.section	.text.u8g2_draw_ellipse_section,"ax",%progbits
 155              		.align	1
 156              		.code	16
ARM GAS  C:\Users\Greg\AppData\Local\Temp\ccum9vLS.s 			page 5


 157              		.thumb_func
 158              		.type	u8g2_draw_ellipse_section, %function
 159              	u8g2_draw_ellipse_section:
 160              	.LFB6:
  73:..\..\u8g2\csrc/u8g2_circle.c **** 
  74:..\..\u8g2\csrc/u8g2_circle.c **** static void u8g2_draw_circle(u8g2_t *u8g2, u8g2_uint_t x0, u8g2_uint_t y0, u8g2_uint_t rad, uint8_t
  75:..\..\u8g2\csrc/u8g2_circle.c **** {
  76:..\..\u8g2\csrc/u8g2_circle.c ****     u8g2_int_t f;
  77:..\..\u8g2\csrc/u8g2_circle.c ****     u8g2_int_t ddF_x;
  78:..\..\u8g2\csrc/u8g2_circle.c ****     u8g2_int_t ddF_y;
  79:..\..\u8g2\csrc/u8g2_circle.c ****     u8g2_uint_t x;
  80:..\..\u8g2\csrc/u8g2_circle.c ****     u8g2_uint_t y;
  81:..\..\u8g2\csrc/u8g2_circle.c **** 
  82:..\..\u8g2\csrc/u8g2_circle.c ****     f = 1;
  83:..\..\u8g2\csrc/u8g2_circle.c ****     f -= rad;
  84:..\..\u8g2\csrc/u8g2_circle.c ****     ddF_x = 1;
  85:..\..\u8g2\csrc/u8g2_circle.c ****     ddF_y = 0;
  86:..\..\u8g2\csrc/u8g2_circle.c ****     ddF_y -= rad;
  87:..\..\u8g2\csrc/u8g2_circle.c ****     ddF_y *= 2;
  88:..\..\u8g2\csrc/u8g2_circle.c ****     x = 0;
  89:..\..\u8g2\csrc/u8g2_circle.c ****     y = rad;
  90:..\..\u8g2\csrc/u8g2_circle.c **** 
  91:..\..\u8g2\csrc/u8g2_circle.c ****     u8g2_draw_circle_section(u8g2, x, y, x0, y0, option);
  92:..\..\u8g2\csrc/u8g2_circle.c ****     
  93:..\..\u8g2\csrc/u8g2_circle.c ****     while ( x < y )
  94:..\..\u8g2\csrc/u8g2_circle.c ****     {
  95:..\..\u8g2\csrc/u8g2_circle.c ****       if (f >= 0) 
  96:..\..\u8g2\csrc/u8g2_circle.c ****       {
  97:..\..\u8g2\csrc/u8g2_circle.c ****         y--;
  98:..\..\u8g2\csrc/u8g2_circle.c ****         ddF_y += 2;
  99:..\..\u8g2\csrc/u8g2_circle.c ****         f += ddF_y;
 100:..\..\u8g2\csrc/u8g2_circle.c ****       }
 101:..\..\u8g2\csrc/u8g2_circle.c ****       x++;
 102:..\..\u8g2\csrc/u8g2_circle.c ****       ddF_x += 2;
 103:..\..\u8g2\csrc/u8g2_circle.c ****       f += ddF_x;
 104:..\..\u8g2\csrc/u8g2_circle.c **** 
 105:..\..\u8g2\csrc/u8g2_circle.c ****       u8g2_draw_circle_section(u8g2, x, y, x0, y0, option);    
 106:..\..\u8g2\csrc/u8g2_circle.c ****     }
 107:..\..\u8g2\csrc/u8g2_circle.c **** }
 108:..\..\u8g2\csrc/u8g2_circle.c **** 
 109:..\..\u8g2\csrc/u8g2_circle.c **** void u8g2_DrawCircle(u8g2_t *u8g2, u8g2_uint_t x0, u8g2_uint_t y0, u8g2_uint_t rad, uint8_t option)
 110:..\..\u8g2\csrc/u8g2_circle.c **** {
 111:..\..\u8g2\csrc/u8g2_circle.c ****   /* check for bounding box */
 112:..\..\u8g2\csrc/u8g2_circle.c **** #ifdef U8G2_WITH_INTERSECTION
 113:..\..\u8g2\csrc/u8g2_circle.c ****   {
 114:..\..\u8g2\csrc/u8g2_circle.c ****     if ( u8g2_IsIntersection(u8g2, x0-rad, y0-rad, x0+rad+1, y0+rad+1) == 0 ) 
 115:..\..\u8g2\csrc/u8g2_circle.c ****       return;
 116:..\..\u8g2\csrc/u8g2_circle.c ****   }
 117:..\..\u8g2\csrc/u8g2_circle.c **** #endif /* U8G2_WITH_INTERSECTION */
 118:..\..\u8g2\csrc/u8g2_circle.c ****   
 119:..\..\u8g2\csrc/u8g2_circle.c ****   
 120:..\..\u8g2\csrc/u8g2_circle.c ****   /* draw circle */
 121:..\..\u8g2\csrc/u8g2_circle.c ****   u8g2_draw_circle(u8g2, x0, y0, rad, option);
 122:..\..\u8g2\csrc/u8g2_circle.c **** }
 123:..\..\u8g2\csrc/u8g2_circle.c **** 
 124:..\..\u8g2\csrc/u8g2_circle.c **** /*==============================================*/
 125:..\..\u8g2\csrc/u8g2_circle.c **** /* Disk */
ARM GAS  C:\Users\Greg\AppData\Local\Temp\ccum9vLS.s 			page 6


 126:..\..\u8g2\csrc/u8g2_circle.c **** 
 127:..\..\u8g2\csrc/u8g2_circle.c **** static void u8g2_draw_disc_section(u8g2_t *u8g2, u8g2_uint_t x, u8g2_uint_t y, u8g2_uint_t x0, u8g2
 128:..\..\u8g2\csrc/u8g2_circle.c **** 
 129:..\..\u8g2\csrc/u8g2_circle.c **** static void u8g2_draw_disc_section(u8g2_t *u8g2, u8g2_uint_t x, u8g2_uint_t y, u8g2_uint_t x0, u8g2
 130:..\..\u8g2\csrc/u8g2_circle.c **** {
 131:..\..\u8g2\csrc/u8g2_circle.c ****     /* upper right */
 132:..\..\u8g2\csrc/u8g2_circle.c ****     if ( option & U8G2_DRAW_UPPER_RIGHT )
 133:..\..\u8g2\csrc/u8g2_circle.c ****     {
 134:..\..\u8g2\csrc/u8g2_circle.c ****       u8g2_DrawVLine(u8g2, x0+x, y0-y, y+1);
 135:..\..\u8g2\csrc/u8g2_circle.c ****       u8g2_DrawVLine(u8g2, x0+y, y0-x, x+1);
 136:..\..\u8g2\csrc/u8g2_circle.c ****     }
 137:..\..\u8g2\csrc/u8g2_circle.c ****     
 138:..\..\u8g2\csrc/u8g2_circle.c ****     /* upper left */
 139:..\..\u8g2\csrc/u8g2_circle.c ****     if ( option & U8G2_DRAW_UPPER_LEFT )
 140:..\..\u8g2\csrc/u8g2_circle.c ****     {
 141:..\..\u8g2\csrc/u8g2_circle.c ****       u8g2_DrawVLine(u8g2, x0-x, y0-y, y+1);
 142:..\..\u8g2\csrc/u8g2_circle.c ****       u8g2_DrawVLine(u8g2, x0-y, y0-x, x+1);
 143:..\..\u8g2\csrc/u8g2_circle.c ****     }
 144:..\..\u8g2\csrc/u8g2_circle.c ****     
 145:..\..\u8g2\csrc/u8g2_circle.c ****     /* lower right */
 146:..\..\u8g2\csrc/u8g2_circle.c ****     if ( option & U8G2_DRAW_LOWER_RIGHT )
 147:..\..\u8g2\csrc/u8g2_circle.c ****     {
 148:..\..\u8g2\csrc/u8g2_circle.c ****       u8g2_DrawVLine(u8g2, x0+x, y0, y+1);
 149:..\..\u8g2\csrc/u8g2_circle.c ****       u8g2_DrawVLine(u8g2, x0+y, y0, x+1);
 150:..\..\u8g2\csrc/u8g2_circle.c ****     }
 151:..\..\u8g2\csrc/u8g2_circle.c ****     
 152:..\..\u8g2\csrc/u8g2_circle.c ****     /* lower left */
 153:..\..\u8g2\csrc/u8g2_circle.c ****     if ( option & U8G2_DRAW_LOWER_LEFT )
 154:..\..\u8g2\csrc/u8g2_circle.c ****     {
 155:..\..\u8g2\csrc/u8g2_circle.c ****       u8g2_DrawVLine(u8g2, x0-x, y0, y+1);
 156:..\..\u8g2\csrc/u8g2_circle.c ****       u8g2_DrawVLine(u8g2, x0-y, y0, x+1);
 157:..\..\u8g2\csrc/u8g2_circle.c ****     }
 158:..\..\u8g2\csrc/u8g2_circle.c **** }
 159:..\..\u8g2\csrc/u8g2_circle.c **** 
 160:..\..\u8g2\csrc/u8g2_circle.c **** static void u8g2_draw_disc(u8g2_t *u8g2, u8g2_uint_t x0, u8g2_uint_t y0, u8g2_uint_t rad, uint8_t o
 161:..\..\u8g2\csrc/u8g2_circle.c **** {
 162:..\..\u8g2\csrc/u8g2_circle.c ****   u8g2_int_t f;
 163:..\..\u8g2\csrc/u8g2_circle.c ****   u8g2_int_t ddF_x;
 164:..\..\u8g2\csrc/u8g2_circle.c ****   u8g2_int_t ddF_y;
 165:..\..\u8g2\csrc/u8g2_circle.c ****   u8g2_uint_t x;
 166:..\..\u8g2\csrc/u8g2_circle.c ****   u8g2_uint_t y;
 167:..\..\u8g2\csrc/u8g2_circle.c **** 
 168:..\..\u8g2\csrc/u8g2_circle.c ****   f = 1;
 169:..\..\u8g2\csrc/u8g2_circle.c ****   f -= rad;
 170:..\..\u8g2\csrc/u8g2_circle.c ****   ddF_x = 1;
 171:..\..\u8g2\csrc/u8g2_circle.c ****   ddF_y = 0;
 172:..\..\u8g2\csrc/u8g2_circle.c ****   ddF_y -= rad;
 173:..\..\u8g2\csrc/u8g2_circle.c ****   ddF_y *= 2;
 174:..\..\u8g2\csrc/u8g2_circle.c ****   x = 0;
 175:..\..\u8g2\csrc/u8g2_circle.c ****   y = rad;
 176:..\..\u8g2\csrc/u8g2_circle.c **** 
 177:..\..\u8g2\csrc/u8g2_circle.c ****   u8g2_draw_disc_section(u8g2, x, y, x0, y0, option);
 178:..\..\u8g2\csrc/u8g2_circle.c ****   
 179:..\..\u8g2\csrc/u8g2_circle.c ****   while ( x < y )
 180:..\..\u8g2\csrc/u8g2_circle.c ****   {
 181:..\..\u8g2\csrc/u8g2_circle.c ****     if (f >= 0) 
 182:..\..\u8g2\csrc/u8g2_circle.c ****     {
ARM GAS  C:\Users\Greg\AppData\Local\Temp\ccum9vLS.s 			page 7


 183:..\..\u8g2\csrc/u8g2_circle.c ****       y--;
 184:..\..\u8g2\csrc/u8g2_circle.c ****       ddF_y += 2;
 185:..\..\u8g2\csrc/u8g2_circle.c ****       f += ddF_y;
 186:..\..\u8g2\csrc/u8g2_circle.c ****     }
 187:..\..\u8g2\csrc/u8g2_circle.c ****     x++;
 188:..\..\u8g2\csrc/u8g2_circle.c ****     ddF_x += 2;
 189:..\..\u8g2\csrc/u8g2_circle.c ****     f += ddF_x;
 190:..\..\u8g2\csrc/u8g2_circle.c **** 
 191:..\..\u8g2\csrc/u8g2_circle.c ****     u8g2_draw_disc_section(u8g2, x, y, x0, y0, option);    
 192:..\..\u8g2\csrc/u8g2_circle.c ****   }
 193:..\..\u8g2\csrc/u8g2_circle.c **** }
 194:..\..\u8g2\csrc/u8g2_circle.c **** 
 195:..\..\u8g2\csrc/u8g2_circle.c **** void u8g2_DrawDisc(u8g2_t *u8g2, u8g2_uint_t x0, u8g2_uint_t y0, u8g2_uint_t rad, uint8_t option)
 196:..\..\u8g2\csrc/u8g2_circle.c **** {
 197:..\..\u8g2\csrc/u8g2_circle.c ****   /* check for bounding box */
 198:..\..\u8g2\csrc/u8g2_circle.c **** #ifdef U8G2_WITH_INTERSECTION
 199:..\..\u8g2\csrc/u8g2_circle.c ****   {
 200:..\..\u8g2\csrc/u8g2_circle.c ****     if ( u8g2_IsIntersection(u8g2, x0-rad, y0-rad, x0+rad+1, y0+rad+1) == 0 ) 
 201:..\..\u8g2\csrc/u8g2_circle.c ****       return;
 202:..\..\u8g2\csrc/u8g2_circle.c ****   }
 203:..\..\u8g2\csrc/u8g2_circle.c **** #endif /* U8G2_WITH_INTERSECTION */
 204:..\..\u8g2\csrc/u8g2_circle.c ****   
 205:..\..\u8g2\csrc/u8g2_circle.c ****   /* draw disc */
 206:..\..\u8g2\csrc/u8g2_circle.c ****   u8g2_draw_disc(u8g2, x0, y0, rad, option);
 207:..\..\u8g2\csrc/u8g2_circle.c **** }
 208:..\..\u8g2\csrc/u8g2_circle.c **** 
 209:..\..\u8g2\csrc/u8g2_circle.c **** /*==============================================*/
 210:..\..\u8g2\csrc/u8g2_circle.c **** /* Ellipse */
 211:..\..\u8g2\csrc/u8g2_circle.c **** 
 212:..\..\u8g2\csrc/u8g2_circle.c **** /*
 213:..\..\u8g2\csrc/u8g2_circle.c ****   Source: 
 214:..\..\u8g2\csrc/u8g2_circle.c ****     Foley, Computer Graphics, p 90
 215:..\..\u8g2\csrc/u8g2_circle.c **** */
 216:..\..\u8g2\csrc/u8g2_circle.c **** static void u8g2_draw_ellipse_section(u8g2_t *u8g2, u8g2_uint_t x, u8g2_uint_t y, u8g2_uint_t x0, u
 217:..\..\u8g2\csrc/u8g2_circle.c **** static void u8g2_draw_ellipse_section(u8g2_t *u8g2, u8g2_uint_t x, u8g2_uint_t y, u8g2_uint_t x0, u
 218:..\..\u8g2\csrc/u8g2_circle.c **** {
 161              		.loc 1 218 0
 162              		.cfi_startproc
 163              		@ args = 8, pretend = 0, frame = 8
 164              		@ frame_needed = 0, uses_anonymous_args = 0
 165              	.LVL15:
 166 0000 F7B5     		push	{r0, r1, r2, r4, r5, r6, r7, lr}
 167              		.cfi_def_cfa_offset 32
 168              		.cfi_offset 0, -32
 169              		.cfi_offset 1, -28
 170              		.cfi_offset 2, -24
 171              		.cfi_offset 4, -20
 172              		.cfi_offset 5, -16
 173              		.cfi_offset 6, -12
 174              		.cfi_offset 7, -8
 175              		.cfi_offset 14, -4
 176              		.loc 1 218 0
 177 0002 0093     		str	r3, [sp]
 178 0004 08AB     		add	r3, sp, #32
 179              	.LVL16:
 180 0006 1B78     		ldrb	r3, [r3]
 181              	.LVL17:
ARM GAS  C:\Users\Greg\AppData\Local\Temp\ccum9vLS.s 			page 8


 182 0008 0500     		movs	r5, r0
 183 000a 0193     		str	r3, [sp, #4]
 184 000c 09AB     		add	r3, sp, #36
 185              	.LVL18:
 186 000e 1F78     		ldrb	r7, [r3]
 187 0010 0E00     		movs	r6, r1
 188 0012 1400     		movs	r4, r2
 219:..\..\u8g2\csrc/u8g2_circle.c ****     /* upper right */
 220:..\..\u8g2\csrc/u8g2_circle.c ****     if ( option & U8G2_DRAW_UPPER_RIGHT )
 189              		.loc 1 220 0
 190 0014 FB07     		lsls	r3, r7, #31
 191 0016 07D5     		bpl	.L20
 192              	.LVL19:
 221:..\..\u8g2\csrc/u8g2_circle.c ****     {
 222:..\..\u8g2\csrc/u8g2_circle.c ****       u8g2_DrawPixel(u8g2, x0 + x, y0 - y);
 193              		.loc 1 222 0
 194 0018 019B     		ldr	r3, [sp, #4]
 195 001a 9A1A     		subs	r2, r3, r2
 196              	.LVL20:
 197 001c 009B     		ldr	r3, [sp]
 198 001e D2B2     		uxtb	r2, r2
 199 0020 5918     		adds	r1, r3, r1
 200              	.LVL21:
 201 0022 C9B2     		uxtb	r1, r1
 202 0024 FFF7FEFF 		bl	u8g2_DrawPixel
 203              	.LVL22:
 204              	.L20:
 223:..\..\u8g2\csrc/u8g2_circle.c ****     }
 224:..\..\u8g2\csrc/u8g2_circle.c ****     
 225:..\..\u8g2\csrc/u8g2_circle.c ****     /* upper left */
 226:..\..\u8g2\csrc/u8g2_circle.c ****     if ( option & U8G2_DRAW_UPPER_LEFT )
 205              		.loc 1 226 0
 206 0028 BB07     		lsls	r3, r7, #30
 207 002a 08D5     		bpl	.L21
 227:..\..\u8g2\csrc/u8g2_circle.c ****     {
 228:..\..\u8g2\csrc/u8g2_circle.c ****       u8g2_DrawPixel(u8g2, x0 - x, y0 - y);
 208              		.loc 1 228 0
 209 002c 019B     		ldr	r3, [sp, #4]
 210 002e 2800     		movs	r0, r5
 211 0030 1A1B     		subs	r2, r3, r4
 212 0032 009B     		ldr	r3, [sp]
 213 0034 D2B2     		uxtb	r2, r2
 214 0036 991B     		subs	r1, r3, r6
 215 0038 C9B2     		uxtb	r1, r1
 216 003a FFF7FEFF 		bl	u8g2_DrawPixel
 217              	.LVL23:
 218              	.L21:
 229:..\..\u8g2\csrc/u8g2_circle.c ****     }
 230:..\..\u8g2\csrc/u8g2_circle.c ****     
 231:..\..\u8g2\csrc/u8g2_circle.c ****     /* lower right */
 232:..\..\u8g2\csrc/u8g2_circle.c ****     if ( option & U8G2_DRAW_LOWER_RIGHT )
 219              		.loc 1 232 0
 220 003e 3B07     		lsls	r3, r7, #28
 221 0040 08D5     		bpl	.L22
 233:..\..\u8g2\csrc/u8g2_circle.c ****     {
 234:..\..\u8g2\csrc/u8g2_circle.c ****       u8g2_DrawPixel(u8g2, x0 + x, y0 + y);
 222              		.loc 1 234 0
ARM GAS  C:\Users\Greg\AppData\Local\Temp\ccum9vLS.s 			page 9


 223 0042 019B     		ldr	r3, [sp, #4]
 224 0044 2800     		movs	r0, r5
 225 0046 1A19     		adds	r2, r3, r4
 226 0048 009B     		ldr	r3, [sp]
 227 004a D2B2     		uxtb	r2, r2
 228 004c 9919     		adds	r1, r3, r6
 229 004e C9B2     		uxtb	r1, r1
 230 0050 FFF7FEFF 		bl	u8g2_DrawPixel
 231              	.LVL24:
 232              	.L22:
 235:..\..\u8g2\csrc/u8g2_circle.c ****     }
 236:..\..\u8g2\csrc/u8g2_circle.c ****     
 237:..\..\u8g2\csrc/u8g2_circle.c ****     /* lower left */
 238:..\..\u8g2\csrc/u8g2_circle.c ****     if ( option & U8G2_DRAW_LOWER_LEFT )
 233              		.loc 1 238 0
 234 0054 7B07     		lsls	r3, r7, #29
 235 0056 08D5     		bpl	.L19
 239:..\..\u8g2\csrc/u8g2_circle.c ****     {
 240:..\..\u8g2\csrc/u8g2_circle.c ****       u8g2_DrawPixel(u8g2, x0 - x, y0 + y);
 236              		.loc 1 240 0
 237 0058 019B     		ldr	r3, [sp, #4]
 238 005a 2800     		movs	r0, r5
 239 005c 1C19     		adds	r4, r3, r4
 240 005e 009B     		ldr	r3, [sp]
 241 0060 E2B2     		uxtb	r2, r4
 242 0062 9E1B     		subs	r6, r3, r6
 243 0064 F1B2     		uxtb	r1, r6
 244 0066 FFF7FEFF 		bl	u8g2_DrawPixel
 245              	.LVL25:
 246              	.L19:
 241:..\..\u8g2\csrc/u8g2_circle.c ****     }
 242:..\..\u8g2\csrc/u8g2_circle.c **** }
 247              		.loc 1 242 0
 248              		@ sp needed
 249              	.LVL26:
 250 006a F7BD     		pop	{r0, r1, r2, r4, r5, r6, r7, pc}
 251              		.cfi_endproc
 252              	.LFE6:
 253              		.size	u8g2_draw_ellipse_section, .-u8g2_draw_ellipse_section
 254              		.section	.text.u8g2_draw_disc_section,"ax",%progbits
 255              		.align	1
 256              		.code	16
 257              		.thumb_func
 258              		.type	u8g2_draw_disc_section, %function
 259              	u8g2_draw_disc_section:
 260              	.LFB3:
 130:..\..\u8g2\csrc/u8g2_circle.c ****     /* upper right */
 261              		.loc 1 130 0
 262              		.cfi_startproc
 263              		@ args = 8, pretend = 0, frame = 8
 264              		@ frame_needed = 0, uses_anonymous_args = 0
 265              	.LVL27:
 266 0000 F7B5     		push	{r0, r1, r2, r4, r5, r6, r7, lr}
 267              		.cfi_def_cfa_offset 32
 268              		.cfi_offset 0, -32
 269              		.cfi_offset 1, -28
 270              		.cfi_offset 2, -24
ARM GAS  C:\Users\Greg\AppData\Local\Temp\ccum9vLS.s 			page 10


 271              		.cfi_offset 4, -20
 272              		.cfi_offset 5, -16
 273              		.cfi_offset 6, -12
 274              		.cfi_offset 7, -8
 275              		.cfi_offset 14, -4
 130:..\..\u8g2\csrc/u8g2_circle.c ****     /* upper right */
 276              		.loc 1 130 0
 277 0002 0093     		str	r3, [sp]
 278 0004 08AB     		add	r3, sp, #32
 279              	.LVL28:
 280 0006 1F78     		ldrb	r7, [r3]
 281 0008 09AB     		add	r3, sp, #36
 282              	.LVL29:
 283 000a 1B78     		ldrb	r3, [r3]
 284              	.LVL30:
 285 000c 0600     		movs	r6, r0
 286 000e 0C00     		movs	r4, r1
 287 0010 1500     		movs	r5, r2
 288 0012 0193     		str	r3, [sp, #4]
 132:..\..\u8g2\csrc/u8g2_circle.c ****     {
 289              		.loc 1 132 0
 290 0014 DB07     		lsls	r3, r3, #31
 291 0016 12D5     		bpl	.L37
 134:..\..\u8g2\csrc/u8g2_circle.c ****       u8g2_DrawVLine(u8g2, x0+y, y0-x, x+1);
 292              		.loc 1 134 0
 293 0018 0099     		ldr	r1, [sp]
 294              	.LVL31:
 295 001a 531C     		adds	r3, r2, #1
 296 001c 0919     		adds	r1, r1, r4
 297 001e BA1A     		subs	r2, r7, r2
 298              	.LVL32:
 299 0020 DBB2     		uxtb	r3, r3
 300 0022 D2B2     		uxtb	r2, r2
 301 0024 C9B2     		uxtb	r1, r1
 302 0026 FFF7FEFF 		bl	u8g2_DrawVLine
 303              	.LVL33:
 135:..\..\u8g2\csrc/u8g2_circle.c ****     }
 304              		.loc 1 135 0
 305 002a 0099     		ldr	r1, [sp]
 306 002c 631C     		adds	r3, r4, #1
 307 002e 3A1B     		subs	r2, r7, r4
 308 0030 4919     		adds	r1, r1, r5
 309 0032 DBB2     		uxtb	r3, r3
 310 0034 D2B2     		uxtb	r2, r2
 311 0036 C9B2     		uxtb	r1, r1
 312 0038 3000     		movs	r0, r6
 313 003a FFF7FEFF 		bl	u8g2_DrawVLine
 314              	.LVL34:
 315              	.L37:
 139:..\..\u8g2\csrc/u8g2_circle.c ****     {
 316              		.loc 1 139 0
 317 003e 019B     		ldr	r3, [sp, #4]
 318 0040 9B07     		lsls	r3, r3, #30
 319 0042 13D5     		bpl	.L38
 141:..\..\u8g2\csrc/u8g2_circle.c ****       u8g2_DrawVLine(u8g2, x0-y, y0-x, x+1);
 320              		.loc 1 141 0
 321 0044 0099     		ldr	r1, [sp]
ARM GAS  C:\Users\Greg\AppData\Local\Temp\ccum9vLS.s 			page 11


 322 0046 6B1C     		adds	r3, r5, #1
 323 0048 7A1B     		subs	r2, r7, r5
 324 004a 091B     		subs	r1, r1, r4
 325 004c DBB2     		uxtb	r3, r3
 326 004e D2B2     		uxtb	r2, r2
 327 0050 C9B2     		uxtb	r1, r1
 328 0052 3000     		movs	r0, r6
 329 0054 FFF7FEFF 		bl	u8g2_DrawVLine
 330              	.LVL35:
 142:..\..\u8g2\csrc/u8g2_circle.c ****     }
 331              		.loc 1 142 0
 332 0058 0099     		ldr	r1, [sp]
 333 005a 631C     		adds	r3, r4, #1
 334 005c 3A1B     		subs	r2, r7, r4
 335 005e 491B     		subs	r1, r1, r5
 336 0060 DBB2     		uxtb	r3, r3
 337 0062 D2B2     		uxtb	r2, r2
 338 0064 C9B2     		uxtb	r1, r1
 339 0066 3000     		movs	r0, r6
 340 0068 FFF7FEFF 		bl	u8g2_DrawVLine
 341              	.LVL36:
 342              	.L38:
 146:..\..\u8g2\csrc/u8g2_circle.c ****     {
 343              		.loc 1 146 0
 344 006c 019B     		ldr	r3, [sp, #4]
 345 006e 1B07     		lsls	r3, r3, #28
 346 0070 11D5     		bpl	.L39
 148:..\..\u8g2\csrc/u8g2_circle.c ****       u8g2_DrawVLine(u8g2, x0+y, y0, x+1);
 347              		.loc 1 148 0
 348 0072 009A     		ldr	r2, [sp]
 349 0074 6B1C     		adds	r3, r5, #1
 350 0076 1119     		adds	r1, r2, r4
 351 0078 DBB2     		uxtb	r3, r3
 352 007a C9B2     		uxtb	r1, r1
 353 007c 3A00     		movs	r2, r7
 354 007e 3000     		movs	r0, r6
 355 0080 FFF7FEFF 		bl	u8g2_DrawVLine
 356              	.LVL37:
 149:..\..\u8g2\csrc/u8g2_circle.c ****     }
 357              		.loc 1 149 0
 358 0084 009A     		ldr	r2, [sp]
 359 0086 631C     		adds	r3, r4, #1
 360 0088 5119     		adds	r1, r2, r5
 361 008a DBB2     		uxtb	r3, r3
 362 008c C9B2     		uxtb	r1, r1
 363 008e 3A00     		movs	r2, r7
 364 0090 3000     		movs	r0, r6
 365 0092 FFF7FEFF 		bl	u8g2_DrawVLine
 366              	.LVL38:
 367              	.L39:
 153:..\..\u8g2\csrc/u8g2_circle.c ****     {
 368              		.loc 1 153 0
 369 0096 019B     		ldr	r3, [sp, #4]
 370 0098 5B07     		lsls	r3, r3, #29
 371 009a 11D5     		bpl	.L36
 155:..\..\u8g2\csrc/u8g2_circle.c ****       u8g2_DrawVLine(u8g2, x0-y, y0, x+1);
 372              		.loc 1 155 0
ARM GAS  C:\Users\Greg\AppData\Local\Temp\ccum9vLS.s 			page 12


 373 009c 009A     		ldr	r2, [sp]
 374 009e 6B1C     		adds	r3, r5, #1
 375 00a0 111B     		subs	r1, r2, r4
 376 00a2 DBB2     		uxtb	r3, r3
 377 00a4 C9B2     		uxtb	r1, r1
 378 00a6 3A00     		movs	r2, r7
 379 00a8 3000     		movs	r0, r6
 380 00aa FFF7FEFF 		bl	u8g2_DrawVLine
 381              	.LVL39:
 156:..\..\u8g2\csrc/u8g2_circle.c ****     }
 382              		.loc 1 156 0
 383 00ae 009A     		ldr	r2, [sp]
 384 00b0 0134     		adds	r4, r4, #1
 385 00b2 551B     		subs	r5, r2, r5
 386 00b4 E3B2     		uxtb	r3, r4
 387 00b6 E9B2     		uxtb	r1, r5
 388 00b8 3A00     		movs	r2, r7
 389 00ba 3000     		movs	r0, r6
 390 00bc FFF7FEFF 		bl	u8g2_DrawVLine
 391              	.LVL40:
 392              	.L36:
 158:..\..\u8g2\csrc/u8g2_circle.c **** 
 393              		.loc 1 158 0
 394              		@ sp needed
 395              	.LVL41:
 396 00c0 F7BD     		pop	{r0, r1, r2, r4, r5, r6, r7, pc}
 397              		.cfi_endproc
 398              	.LFE3:
 399              		.size	u8g2_draw_disc_section, .-u8g2_draw_disc_section
 400              		.section	.text.u8g2_draw_filled_ellipse_section,"ax",%progbits
 401              		.align	1
 402              		.code	16
 403              		.thumb_func
 404              		.type	u8g2_draw_filled_ellipse_section, %function
 405              	u8g2_draw_filled_ellipse_section:
 406              	.LFB9:
 243:..\..\u8g2\csrc/u8g2_circle.c **** 
 244:..\..\u8g2\csrc/u8g2_circle.c **** static void u8g2_draw_ellipse(u8g2_t *u8g2, u8g2_uint_t x0, u8g2_uint_t y0, u8g2_uint_t rx, u8g2_ui
 245:..\..\u8g2\csrc/u8g2_circle.c **** {
 246:..\..\u8g2\csrc/u8g2_circle.c ****   u8g2_uint_t x, y;
 247:..\..\u8g2\csrc/u8g2_circle.c ****   u8g2_long_t xchg, ychg;
 248:..\..\u8g2\csrc/u8g2_circle.c ****   u8g2_long_t err;
 249:..\..\u8g2\csrc/u8g2_circle.c ****   u8g2_long_t rxrx2;
 250:..\..\u8g2\csrc/u8g2_circle.c ****   u8g2_long_t ryry2;
 251:..\..\u8g2\csrc/u8g2_circle.c ****   u8g2_long_t stopx, stopy;
 252:..\..\u8g2\csrc/u8g2_circle.c ****   
 253:..\..\u8g2\csrc/u8g2_circle.c ****   rxrx2 = rx;
 254:..\..\u8g2\csrc/u8g2_circle.c ****   rxrx2 *= rx;
 255:..\..\u8g2\csrc/u8g2_circle.c ****   rxrx2 *= 2;
 256:..\..\u8g2\csrc/u8g2_circle.c ****   
 257:..\..\u8g2\csrc/u8g2_circle.c ****   ryry2 = ry;
 258:..\..\u8g2\csrc/u8g2_circle.c ****   ryry2 *= ry;
 259:..\..\u8g2\csrc/u8g2_circle.c ****   ryry2 *= 2;
 260:..\..\u8g2\csrc/u8g2_circle.c ****   
 261:..\..\u8g2\csrc/u8g2_circle.c ****   x = rx;
 262:..\..\u8g2\csrc/u8g2_circle.c ****   y = 0;
 263:..\..\u8g2\csrc/u8g2_circle.c ****   
ARM GAS  C:\Users\Greg\AppData\Local\Temp\ccum9vLS.s 			page 13


 264:..\..\u8g2\csrc/u8g2_circle.c ****   xchg = 1;
 265:..\..\u8g2\csrc/u8g2_circle.c ****   xchg -= rx;
 266:..\..\u8g2\csrc/u8g2_circle.c ****   xchg -= rx;
 267:..\..\u8g2\csrc/u8g2_circle.c ****   xchg *= ry;
 268:..\..\u8g2\csrc/u8g2_circle.c ****   xchg *= ry;
 269:..\..\u8g2\csrc/u8g2_circle.c ****   
 270:..\..\u8g2\csrc/u8g2_circle.c ****   ychg = rx;
 271:..\..\u8g2\csrc/u8g2_circle.c ****   ychg *= rx;
 272:..\..\u8g2\csrc/u8g2_circle.c ****   
 273:..\..\u8g2\csrc/u8g2_circle.c ****   err = 0;
 274:..\..\u8g2\csrc/u8g2_circle.c ****   
 275:..\..\u8g2\csrc/u8g2_circle.c ****   stopx = ryry2;
 276:..\..\u8g2\csrc/u8g2_circle.c ****   stopx *= rx;
 277:..\..\u8g2\csrc/u8g2_circle.c ****   stopy = 0;
 278:..\..\u8g2\csrc/u8g2_circle.c ****   
 279:..\..\u8g2\csrc/u8g2_circle.c ****   while( stopx >= stopy )
 280:..\..\u8g2\csrc/u8g2_circle.c ****   {
 281:..\..\u8g2\csrc/u8g2_circle.c ****     u8g2_draw_ellipse_section(u8g2, x, y, x0, y0, option);
 282:..\..\u8g2\csrc/u8g2_circle.c ****     y++;
 283:..\..\u8g2\csrc/u8g2_circle.c ****     stopy += rxrx2;
 284:..\..\u8g2\csrc/u8g2_circle.c ****     err += ychg;
 285:..\..\u8g2\csrc/u8g2_circle.c ****     ychg += rxrx2;
 286:..\..\u8g2\csrc/u8g2_circle.c ****     if ( 2*err+xchg > 0 )
 287:..\..\u8g2\csrc/u8g2_circle.c ****     {
 288:..\..\u8g2\csrc/u8g2_circle.c ****       x--;
 289:..\..\u8g2\csrc/u8g2_circle.c ****       stopx -= ryry2;
 290:..\..\u8g2\csrc/u8g2_circle.c ****       err += xchg;
 291:..\..\u8g2\csrc/u8g2_circle.c ****       xchg += ryry2;      
 292:..\..\u8g2\csrc/u8g2_circle.c ****     }
 293:..\..\u8g2\csrc/u8g2_circle.c ****   }
 294:..\..\u8g2\csrc/u8g2_circle.c **** 
 295:..\..\u8g2\csrc/u8g2_circle.c ****   x = 0;
 296:..\..\u8g2\csrc/u8g2_circle.c ****   y = ry;
 297:..\..\u8g2\csrc/u8g2_circle.c ****   
 298:..\..\u8g2\csrc/u8g2_circle.c ****   xchg = ry;
 299:..\..\u8g2\csrc/u8g2_circle.c ****   xchg *= ry;
 300:..\..\u8g2\csrc/u8g2_circle.c ****   
 301:..\..\u8g2\csrc/u8g2_circle.c ****   ychg = 1;
 302:..\..\u8g2\csrc/u8g2_circle.c ****   ychg -= ry;
 303:..\..\u8g2\csrc/u8g2_circle.c ****   ychg -= ry;
 304:..\..\u8g2\csrc/u8g2_circle.c ****   ychg *= rx;
 305:..\..\u8g2\csrc/u8g2_circle.c ****   ychg *= rx;
 306:..\..\u8g2\csrc/u8g2_circle.c ****   
 307:..\..\u8g2\csrc/u8g2_circle.c ****   err = 0;
 308:..\..\u8g2\csrc/u8g2_circle.c ****   
 309:..\..\u8g2\csrc/u8g2_circle.c ****   stopx = 0;
 310:..\..\u8g2\csrc/u8g2_circle.c **** 
 311:..\..\u8g2\csrc/u8g2_circle.c ****   stopy = rxrx2;
 312:..\..\u8g2\csrc/u8g2_circle.c ****   stopy *= ry;
 313:..\..\u8g2\csrc/u8g2_circle.c ****   
 314:..\..\u8g2\csrc/u8g2_circle.c **** 
 315:..\..\u8g2\csrc/u8g2_circle.c ****   while( stopx <= stopy )
 316:..\..\u8g2\csrc/u8g2_circle.c ****   {
 317:..\..\u8g2\csrc/u8g2_circle.c ****     u8g2_draw_ellipse_section(u8g2, x, y, x0, y0, option);
 318:..\..\u8g2\csrc/u8g2_circle.c ****     x++;
 319:..\..\u8g2\csrc/u8g2_circle.c ****     stopx += ryry2;
 320:..\..\u8g2\csrc/u8g2_circle.c ****     err += xchg;
ARM GAS  C:\Users\Greg\AppData\Local\Temp\ccum9vLS.s 			page 14


 321:..\..\u8g2\csrc/u8g2_circle.c ****     xchg += ryry2;
 322:..\..\u8g2\csrc/u8g2_circle.c ****     if ( 2*err+ychg > 0 )
 323:..\..\u8g2\csrc/u8g2_circle.c ****     {
 324:..\..\u8g2\csrc/u8g2_circle.c ****       y--;
 325:..\..\u8g2\csrc/u8g2_circle.c ****       stopy -= rxrx2;
 326:..\..\u8g2\csrc/u8g2_circle.c ****       err += ychg;
 327:..\..\u8g2\csrc/u8g2_circle.c ****       ychg += rxrx2;
 328:..\..\u8g2\csrc/u8g2_circle.c ****     }
 329:..\..\u8g2\csrc/u8g2_circle.c ****   }
 330:..\..\u8g2\csrc/u8g2_circle.c ****   
 331:..\..\u8g2\csrc/u8g2_circle.c **** }
 332:..\..\u8g2\csrc/u8g2_circle.c **** 
 333:..\..\u8g2\csrc/u8g2_circle.c **** void u8g2_DrawEllipse(u8g2_t *u8g2, u8g2_uint_t x0, u8g2_uint_t y0, u8g2_uint_t rx, u8g2_uint_t ry,
 334:..\..\u8g2\csrc/u8g2_circle.c **** {
 335:..\..\u8g2\csrc/u8g2_circle.c ****   /* check for bounding box */
 336:..\..\u8g2\csrc/u8g2_circle.c **** #ifdef U8G2_WITH_INTERSECTION
 337:..\..\u8g2\csrc/u8g2_circle.c ****   {
 338:..\..\u8g2\csrc/u8g2_circle.c ****     if ( u8g2_IsIntersection(u8g2, x0-rx, y0-ry, x0+rx+1, y0+ry+1) == 0 ) 
 339:..\..\u8g2\csrc/u8g2_circle.c ****       return;
 340:..\..\u8g2\csrc/u8g2_circle.c ****   }
 341:..\..\u8g2\csrc/u8g2_circle.c **** #endif /* U8G2_WITH_INTERSECTION */
 342:..\..\u8g2\csrc/u8g2_circle.c ****   
 343:..\..\u8g2\csrc/u8g2_circle.c ****   u8g2_draw_ellipse(u8g2, x0, y0, rx, ry, option);
 344:..\..\u8g2\csrc/u8g2_circle.c **** }
 345:..\..\u8g2\csrc/u8g2_circle.c **** 
 346:..\..\u8g2\csrc/u8g2_circle.c **** /*==============================================*/
 347:..\..\u8g2\csrc/u8g2_circle.c **** /* Filled Ellipse */
 348:..\..\u8g2\csrc/u8g2_circle.c **** 
 349:..\..\u8g2\csrc/u8g2_circle.c **** static void u8g2_draw_filled_ellipse_section(u8g2_t *u8g2, u8g2_uint_t x, u8g2_uint_t y, u8g2_uint_
 350:..\..\u8g2\csrc/u8g2_circle.c **** static void u8g2_draw_filled_ellipse_section(u8g2_t *u8g2, u8g2_uint_t x, u8g2_uint_t y, u8g2_uint_
 351:..\..\u8g2\csrc/u8g2_circle.c **** {
 407              		.loc 1 351 0
 408              		.cfi_startproc
 409              		@ args = 8, pretend = 0, frame = 8
 410              		@ frame_needed = 0, uses_anonymous_args = 0
 411              	.LVL42:
 412 0000 F7B5     		push	{r0, r1, r2, r4, r5, r6, r7, lr}
 413              		.cfi_def_cfa_offset 32
 414              		.cfi_offset 0, -32
 415              		.cfi_offset 1, -28
 416              		.cfi_offset 2, -24
 417              		.cfi_offset 4, -20
 418              		.cfi_offset 5, -16
 419              		.cfi_offset 6, -12
 420              		.cfi_offset 7, -8
 421              		.cfi_offset 14, -4
 422              		.loc 1 351 0
 423 0002 1D00     		movs	r5, r3
 424 0004 08AB     		add	r3, sp, #32
 425              	.LVL43:
 426 0006 1F78     		ldrb	r7, [r3]
 427 0008 09AB     		add	r3, sp, #36
 428              	.LVL44:
 429 000a 1B78     		ldrb	r3, [r3]
 430              	.LVL45:
 431 000c 0600     		movs	r6, r0
 432 000e 0091     		str	r1, [sp]
ARM GAS  C:\Users\Greg\AppData\Local\Temp\ccum9vLS.s 			page 15


 433 0010 1400     		movs	r4, r2
 434 0012 0193     		str	r3, [sp, #4]
 352:..\..\u8g2\csrc/u8g2_circle.c ****     /* upper right */
 353:..\..\u8g2\csrc/u8g2_circle.c ****     if ( option & U8G2_DRAW_UPPER_RIGHT )
 435              		.loc 1 353 0
 436 0014 DB07     		lsls	r3, r3, #31
 437 0016 07D5     		bpl	.L54
 354:..\..\u8g2\csrc/u8g2_circle.c ****     {
 355:..\..\u8g2\csrc/u8g2_circle.c ****       u8g2_DrawVLine(u8g2, x0+x, y0-y, y+1);
 438              		.loc 1 355 0
 439 0018 531C     		adds	r3, r2, #1
 440 001a 6918     		adds	r1, r5, r1
 441              	.LVL46:
 442 001c BA1A     		subs	r2, r7, r2
 443              	.LVL47:
 444 001e DBB2     		uxtb	r3, r3
 445 0020 D2B2     		uxtb	r2, r2
 446 0022 C9B2     		uxtb	r1, r1
 447 0024 FFF7FEFF 		bl	u8g2_DrawVLine
 448              	.LVL48:
 449              	.L54:
 356:..\..\u8g2\csrc/u8g2_circle.c ****     }
 357:..\..\u8g2\csrc/u8g2_circle.c ****     
 358:..\..\u8g2\csrc/u8g2_circle.c ****     /* upper left */
 359:..\..\u8g2\csrc/u8g2_circle.c ****     if ( option & U8G2_DRAW_UPPER_LEFT )
 450              		.loc 1 359 0
 451 0028 019B     		ldr	r3, [sp, #4]
 452 002a 9B07     		lsls	r3, r3, #30
 453 002c 09D5     		bpl	.L55
 360:..\..\u8g2\csrc/u8g2_circle.c ****     {
 361:..\..\u8g2\csrc/u8g2_circle.c ****       u8g2_DrawVLine(u8g2, x0-x, y0-y, y+1);
 454              		.loc 1 361 0
 455 002e 0099     		ldr	r1, [sp]
 456 0030 631C     		adds	r3, r4, #1
 457 0032 3A1B     		subs	r2, r7, r4
 458 0034 691A     		subs	r1, r5, r1
 459 0036 DBB2     		uxtb	r3, r3
 460 0038 D2B2     		uxtb	r2, r2
 461 003a C9B2     		uxtb	r1, r1
 462 003c 3000     		movs	r0, r6
 463 003e FFF7FEFF 		bl	u8g2_DrawVLine
 464              	.LVL49:
 465              	.L55:
 362:..\..\u8g2\csrc/u8g2_circle.c ****     }
 363:..\..\u8g2\csrc/u8g2_circle.c ****     
 364:..\..\u8g2\csrc/u8g2_circle.c ****     /* lower right */
 365:..\..\u8g2\csrc/u8g2_circle.c ****     if ( option & U8G2_DRAW_LOWER_RIGHT )
 466              		.loc 1 365 0
 467 0042 019B     		ldr	r3, [sp, #4]
 468 0044 1B07     		lsls	r3, r3, #28
 469 0046 08D5     		bpl	.L56
 366:..\..\u8g2\csrc/u8g2_circle.c ****     {
 367:..\..\u8g2\csrc/u8g2_circle.c ****       u8g2_DrawVLine(u8g2, x0+x, y0, y+1);
 470              		.loc 1 367 0
 471 0048 009A     		ldr	r2, [sp]
 472 004a 631C     		adds	r3, r4, #1
 473 004c A918     		adds	r1, r5, r2
ARM GAS  C:\Users\Greg\AppData\Local\Temp\ccum9vLS.s 			page 16


 474 004e DBB2     		uxtb	r3, r3
 475 0050 C9B2     		uxtb	r1, r1
 476 0052 3A00     		movs	r2, r7
 477 0054 3000     		movs	r0, r6
 478 0056 FFF7FEFF 		bl	u8g2_DrawVLine
 479              	.LVL50:
 480              	.L56:
 368:..\..\u8g2\csrc/u8g2_circle.c ****     }
 369:..\..\u8g2\csrc/u8g2_circle.c ****     
 370:..\..\u8g2\csrc/u8g2_circle.c ****     /* lower left */
 371:..\..\u8g2\csrc/u8g2_circle.c ****     if ( option & U8G2_DRAW_LOWER_LEFT )
 481              		.loc 1 371 0
 482 005a 019B     		ldr	r3, [sp, #4]
 483 005c 5B07     		lsls	r3, r3, #29
 484 005e 08D5     		bpl	.L53
 372:..\..\u8g2\csrc/u8g2_circle.c ****     {
 373:..\..\u8g2\csrc/u8g2_circle.c ****       u8g2_DrawVLine(u8g2, x0-x, y0, y+1);
 485              		.loc 1 373 0
 486 0060 009A     		ldr	r2, [sp]
 487 0062 0134     		adds	r4, r4, #1
 488 0064 AD1A     		subs	r5, r5, r2
 489 0066 E3B2     		uxtb	r3, r4
 490 0068 E9B2     		uxtb	r1, r5
 491 006a 3A00     		movs	r2, r7
 492 006c 3000     		movs	r0, r6
 493 006e FFF7FEFF 		bl	u8g2_DrawVLine
 494              	.LVL51:
 495              	.L53:
 374:..\..\u8g2\csrc/u8g2_circle.c ****     }
 375:..\..\u8g2\csrc/u8g2_circle.c **** }
 496              		.loc 1 375 0
 497              		@ sp needed
 498              	.LVL52:
 499 0072 F7BD     		pop	{r0, r1, r2, r4, r5, r6, r7, pc}
 500              		.cfi_endproc
 501              	.LFE9:
 502              		.size	u8g2_draw_filled_ellipse_section, .-u8g2_draw_filled_ellipse_section
 503              		.section	.text.u8g2_DrawCircle,"ax",%progbits
 504              		.align	1
 505              		.global	u8g2_DrawCircle
 506              		.code	16
 507              		.thumb_func
 508              		.type	u8g2_DrawCircle, %function
 509              	u8g2_DrawCircle:
 510              	.LFB2:
 110:..\..\u8g2\csrc/u8g2_circle.c ****   /* check for bounding box */
 511              		.loc 1 110 0
 512              		.cfi_startproc
 513              		@ args = 4, pretend = 0, frame = 16
 514              		@ frame_needed = 0, uses_anonymous_args = 0
 515              	.LVL53:
 516 0000 F0B5     		push	{r4, r5, r6, r7, lr}
 517              		.cfi_def_cfa_offset 20
 518              		.cfi_offset 4, -20
 519              		.cfi_offset 5, -16
 520              		.cfi_offset 6, -12
 521              		.cfi_offset 7, -8
ARM GAS  C:\Users\Greg\AppData\Local\Temp\ccum9vLS.s 			page 17


 522              		.cfi_offset 14, -4
 523 0002 1C00     		movs	r4, r3
 524 0004 87B0     		sub	sp, sp, #28
 525              		.cfi_def_cfa_offset 48
 110:..\..\u8g2\csrc/u8g2_circle.c ****   /* check for bounding box */
 526              		.loc 1 110 0
 527 0006 0292     		str	r2, [sp, #8]
 528 0008 0390     		str	r0, [sp, #12]
 529 000a 0CAB     		add	r3, sp, #48
 530              	.LVL54:
 114:..\..\u8g2\csrc/u8g2_circle.c ****       return;
 531              		.loc 1 114 0
 532 000c 0298     		ldr	r0, [sp, #8]
 533              	.LVL55:
 110:..\..\u8g2\csrc/u8g2_circle.c ****   /* check for bounding box */
 534              		.loc 1 110 0
 535 000e 1B78     		ldrb	r3, [r3]
 536              	.LVL56:
 114:..\..\u8g2\csrc/u8g2_circle.c ****       return;
 537              		.loc 1 114 0
 538 0010 0130     		adds	r0, r0, #1
 110:..\..\u8g2\csrc/u8g2_circle.c ****   /* check for bounding box */
 539              		.loc 1 110 0
 540 0012 0593     		str	r3, [sp, #20]
 114:..\..\u8g2\csrc/u8g2_circle.c ****       return;
 541              		.loc 1 114 0
 542 0014 2018     		adds	r0, r4, r0
 543 0016 631C     		adds	r3, r4, #1
 544 0018 CB18     		adds	r3, r1, r3
 545 001a C0B2     		uxtb	r0, r0
 110:..\..\u8g2\csrc/u8g2_circle.c ****   /* check for bounding box */
 546              		.loc 1 110 0
 547 001c 0F00     		movs	r7, r1
 114:..\..\u8g2\csrc/u8g2_circle.c ****       return;
 548              		.loc 1 114 0
 549 001e 121B     		subs	r2, r2, r4
 550              	.LVL57:
 551 0020 091B     		subs	r1, r1, r4
 552              	.LVL58:
 553 0022 0090     		str	r0, [sp]
 554 0024 DBB2     		uxtb	r3, r3
 555 0026 D2B2     		uxtb	r2, r2
 556 0028 C9B2     		uxtb	r1, r1
 557 002a 0398     		ldr	r0, [sp, #12]
 558 002c FFF7FEFF 		bl	u8g2_IsIntersection
 559              	.LVL59:
 560 0030 0028     		cmp	r0, #0
 561 0032 2FD0     		beq	.L70
 562              	.LVL60:
 563              	.LBB4:
 564              	.LBB5:
  87:..\..\u8g2\csrc/u8g2_circle.c ****     x = 0;
 565              		.loc 1 87 0
 566 0034 6342     		rsbs	r3, r4, #0
 567 0036 5B00     		lsls	r3, r3, #1
 568 0038 5BB2     		sxtb	r3, r3
 569 003a 0493     		str	r3, [sp, #16]
ARM GAS  C:\Users\Greg\AppData\Local\Temp\ccum9vLS.s 			page 18


  91:..\..\u8g2\csrc/u8g2_circle.c ****     
 570              		.loc 1 91 0
 571 003c 059B     		ldr	r3, [sp, #20]
  83:..\..\u8g2\csrc/u8g2_circle.c ****     ddF_x = 1;
 572              		.loc 1 83 0
 573 003e 0125     		movs	r5, #1
  91:..\..\u8g2\csrc/u8g2_circle.c ****     
 574              		.loc 1 91 0
 575 0040 0193     		str	r3, [sp, #4]
 576 0042 029B     		ldr	r3, [sp, #8]
 577 0044 2200     		movs	r2, r4
 578 0046 0093     		str	r3, [sp]
 579 0048 0021     		movs	r1, #0
 580 004a 3B00     		movs	r3, r7
 581 004c 0398     		ldr	r0, [sp, #12]
 582 004e FFF7FEFF 		bl	u8g2_draw_circle_section
 583              	.LVL61:
  88:..\..\u8g2\csrc/u8g2_circle.c ****     y = rad;
 584              		.loc 1 88 0
 585 0052 0026     		movs	r6, #0
  83:..\..\u8g2\csrc/u8g2_circle.c ****     ddF_x = 1;
 586              		.loc 1 83 0
 587 0054 2D1B     		subs	r5, r5, r4
 588 0056 6DB2     		sxtb	r5, r5
 589              	.LVL62:
 590              	.L72:
  93:..\..\u8g2\csrc/u8g2_circle.c ****     {
 591              		.loc 1 93 0
 592 0058 B442     		cmp	r4, r6
 593 005a 1BD9     		bls	.L70
  95:..\..\u8g2\csrc/u8g2_circle.c ****       {
 594              		.loc 1 95 0
 595 005c 002D     		cmp	r5, #0
 596 005e 08DB     		blt	.L73
  98:..\..\u8g2\csrc/u8g2_circle.c ****         f += ddF_y;
 597              		.loc 1 98 0
 598 0060 049B     		ldr	r3, [sp, #16]
  97:..\..\u8g2\csrc/u8g2_circle.c ****         ddF_y += 2;
 599              		.loc 1 97 0
 600 0062 013C     		subs	r4, r4, #1
 601              	.LVL63:
  98:..\..\u8g2\csrc/u8g2_circle.c ****         f += ddF_y;
 602              		.loc 1 98 0
 603 0064 0233     		adds	r3, r3, #2
 604 0066 DBB2     		uxtb	r3, r3
 605 0068 5AB2     		sxtb	r2, r3
  99:..\..\u8g2\csrc/u8g2_circle.c ****       }
 606              		.loc 1 99 0
 607 006a 5D19     		adds	r5, r3, r5
 608              	.LVL64:
  97:..\..\u8g2\csrc/u8g2_circle.c ****         ddF_y += 2;
 609              		.loc 1 97 0
 610 006c E4B2     		uxtb	r4, r4
 611              	.LVL65:
  98:..\..\u8g2\csrc/u8g2_circle.c ****         f += ddF_y;
 612              		.loc 1 98 0
 613 006e 0492     		str	r2, [sp, #16]
ARM GAS  C:\Users\Greg\AppData\Local\Temp\ccum9vLS.s 			page 19


 614              	.LVL66:
  99:..\..\u8g2\csrc/u8g2_circle.c ****       }
 615              		.loc 1 99 0
 616 0070 6DB2     		sxtb	r5, r5
 617              	.LVL67:
 618              	.L73:
 101:..\..\u8g2\csrc/u8g2_circle.c ****       ddF_x += 2;
 619              		.loc 1 101 0
 620 0072 0136     		adds	r6, r6, #1
 621              	.LVL68:
 622 0074 F6B2     		uxtb	r6, r6
 623              	.LVL69:
 103:..\..\u8g2\csrc/u8g2_circle.c **** 
 624              		.loc 1 103 0
 625 0076 7300     		lsls	r3, r6, #1
 626 0078 0133     		adds	r3, r3, #1
 627 007a 5D19     		adds	r5, r3, r5
 628              	.LVL70:
 105:..\..\u8g2\csrc/u8g2_circle.c ****     }
 629              		.loc 1 105 0
 630 007c 059B     		ldr	r3, [sp, #20]
 631 007e 2200     		movs	r2, r4
 632 0080 0193     		str	r3, [sp, #4]
 633 0082 029B     		ldr	r3, [sp, #8]
 634 0084 3100     		movs	r1, r6
 635 0086 0093     		str	r3, [sp]
 636 0088 0398     		ldr	r0, [sp, #12]
 637 008a 3B00     		movs	r3, r7
 103:..\..\u8g2\csrc/u8g2_circle.c **** 
 638              		.loc 1 103 0
 639 008c 6DB2     		sxtb	r5, r5
 640              	.LVL71:
 105:..\..\u8g2\csrc/u8g2_circle.c ****     }
 641              		.loc 1 105 0
 642 008e FFF7FEFF 		bl	u8g2_draw_circle_section
 643              	.LVL72:
 644 0092 E1E7     		b	.L72
 645              	.LVL73:
 646              	.L70:
 647              	.LBE5:
 648              	.LBE4:
 122:..\..\u8g2\csrc/u8g2_circle.c **** 
 649              		.loc 1 122 0
 650 0094 07B0     		add	sp, sp, #28
 651              		@ sp needed
 652 0096 F0BD     		pop	{r4, r5, r6, r7, pc}
 653              		.cfi_endproc
 654              	.LFE2:
 655              		.size	u8g2_DrawCircle, .-u8g2_DrawCircle
 656              		.section	.text.u8g2_DrawDisc,"ax",%progbits
 657              		.align	1
 658              		.global	u8g2_DrawDisc
 659              		.code	16
 660              		.thumb_func
 661              		.type	u8g2_DrawDisc, %function
 662              	u8g2_DrawDisc:
 663              	.LFB5:
ARM GAS  C:\Users\Greg\AppData\Local\Temp\ccum9vLS.s 			page 20


 196:..\..\u8g2\csrc/u8g2_circle.c ****   /* check for bounding box */
 664              		.loc 1 196 0
 665              		.cfi_startproc
 666              		@ args = 4, pretend = 0, frame = 16
 667              		@ frame_needed = 0, uses_anonymous_args = 0
 668              	.LVL74:
 669 0000 F0B5     		push	{r4, r5, r6, r7, lr}
 670              		.cfi_def_cfa_offset 20
 671              		.cfi_offset 4, -20
 672              		.cfi_offset 5, -16
 673              		.cfi_offset 6, -12
 674              		.cfi_offset 7, -8
 675              		.cfi_offset 14, -4
 676 0002 1C00     		movs	r4, r3
 677 0004 87B0     		sub	sp, sp, #28
 678              		.cfi_def_cfa_offset 48
 196:..\..\u8g2\csrc/u8g2_circle.c ****   /* check for bounding box */
 679              		.loc 1 196 0
 680 0006 0292     		str	r2, [sp, #8]
 681 0008 0390     		str	r0, [sp, #12]
 682 000a 0CAB     		add	r3, sp, #48
 683              	.LVL75:
 200:..\..\u8g2\csrc/u8g2_circle.c ****       return;
 684              		.loc 1 200 0
 685 000c 0298     		ldr	r0, [sp, #8]
 686              	.LVL76:
 196:..\..\u8g2\csrc/u8g2_circle.c ****   /* check for bounding box */
 687              		.loc 1 196 0
 688 000e 1B78     		ldrb	r3, [r3]
 689              	.LVL77:
 200:..\..\u8g2\csrc/u8g2_circle.c ****       return;
 690              		.loc 1 200 0
 691 0010 0130     		adds	r0, r0, #1
 196:..\..\u8g2\csrc/u8g2_circle.c ****   /* check for bounding box */
 692              		.loc 1 196 0
 693 0012 0593     		str	r3, [sp, #20]
 200:..\..\u8g2\csrc/u8g2_circle.c ****       return;
 694              		.loc 1 200 0
 695 0014 2018     		adds	r0, r4, r0
 696 0016 631C     		adds	r3, r4, #1
 697 0018 CB18     		adds	r3, r1, r3
 698 001a C0B2     		uxtb	r0, r0
 196:..\..\u8g2\csrc/u8g2_circle.c ****   /* check for bounding box */
 699              		.loc 1 196 0
 700 001c 0F00     		movs	r7, r1
 200:..\..\u8g2\csrc/u8g2_circle.c ****       return;
 701              		.loc 1 200 0
 702 001e 121B     		subs	r2, r2, r4
 703              	.LVL78:
 704 0020 091B     		subs	r1, r1, r4
 705              	.LVL79:
 706 0022 0090     		str	r0, [sp]
 707 0024 DBB2     		uxtb	r3, r3
 708 0026 D2B2     		uxtb	r2, r2
 709 0028 C9B2     		uxtb	r1, r1
 710 002a 0398     		ldr	r0, [sp, #12]
 711 002c FFF7FEFF 		bl	u8g2_IsIntersection
ARM GAS  C:\Users\Greg\AppData\Local\Temp\ccum9vLS.s 			page 21


 712              	.LVL80:
 713 0030 0028     		cmp	r0, #0
 714 0032 2FD0     		beq	.L76
 715              	.LVL81:
 716              	.LBB8:
 717              	.LBB9:
 173:..\..\u8g2\csrc/u8g2_circle.c ****   x = 0;
 718              		.loc 1 173 0
 719 0034 6342     		rsbs	r3, r4, #0
 720 0036 5B00     		lsls	r3, r3, #1
 721 0038 5BB2     		sxtb	r3, r3
 722 003a 0493     		str	r3, [sp, #16]
 177:..\..\u8g2\csrc/u8g2_circle.c ****   
 723              		.loc 1 177 0
 724 003c 059B     		ldr	r3, [sp, #20]
 169:..\..\u8g2\csrc/u8g2_circle.c ****   ddF_x = 1;
 725              		.loc 1 169 0
 726 003e 0125     		movs	r5, #1
 177:..\..\u8g2\csrc/u8g2_circle.c ****   
 727              		.loc 1 177 0
 728 0040 0193     		str	r3, [sp, #4]
 729 0042 029B     		ldr	r3, [sp, #8]
 730 0044 2200     		movs	r2, r4
 731 0046 0093     		str	r3, [sp]
 732 0048 0021     		movs	r1, #0
 733 004a 3B00     		movs	r3, r7
 734 004c 0398     		ldr	r0, [sp, #12]
 735 004e FFF7FEFF 		bl	u8g2_draw_disc_section
 736              	.LVL82:
 174:..\..\u8g2\csrc/u8g2_circle.c ****   y = rad;
 737              		.loc 1 174 0
 738 0052 0026     		movs	r6, #0
 169:..\..\u8g2\csrc/u8g2_circle.c ****   ddF_x = 1;
 739              		.loc 1 169 0
 740 0054 2D1B     		subs	r5, r5, r4
 741 0056 6DB2     		sxtb	r5, r5
 742              	.LVL83:
 743              	.L78:
 179:..\..\u8g2\csrc/u8g2_circle.c ****   {
 744              		.loc 1 179 0
 745 0058 B442     		cmp	r4, r6
 746 005a 1BD9     		bls	.L76
 181:..\..\u8g2\csrc/u8g2_circle.c ****     {
 747              		.loc 1 181 0
 748 005c 002D     		cmp	r5, #0
 749 005e 08DB     		blt	.L79
 184:..\..\u8g2\csrc/u8g2_circle.c ****       f += ddF_y;
 750              		.loc 1 184 0
 751 0060 049B     		ldr	r3, [sp, #16]
 183:..\..\u8g2\csrc/u8g2_circle.c ****       ddF_y += 2;
 752              		.loc 1 183 0
 753 0062 013C     		subs	r4, r4, #1
 754              	.LVL84:
 184:..\..\u8g2\csrc/u8g2_circle.c ****       f += ddF_y;
 755              		.loc 1 184 0
 756 0064 0233     		adds	r3, r3, #2
 757 0066 DBB2     		uxtb	r3, r3
ARM GAS  C:\Users\Greg\AppData\Local\Temp\ccum9vLS.s 			page 22


 758 0068 5AB2     		sxtb	r2, r3
 185:..\..\u8g2\csrc/u8g2_circle.c ****     }
 759              		.loc 1 185 0
 760 006a 5D19     		adds	r5, r3, r5
 761              	.LVL85:
 183:..\..\u8g2\csrc/u8g2_circle.c ****       ddF_y += 2;
 762              		.loc 1 183 0
 763 006c E4B2     		uxtb	r4, r4
 764              	.LVL86:
 184:..\..\u8g2\csrc/u8g2_circle.c ****       f += ddF_y;
 765              		.loc 1 184 0
 766 006e 0492     		str	r2, [sp, #16]
 767              	.LVL87:
 185:..\..\u8g2\csrc/u8g2_circle.c ****     }
 768              		.loc 1 185 0
 769 0070 6DB2     		sxtb	r5, r5
 770              	.LVL88:
 771              	.L79:
 187:..\..\u8g2\csrc/u8g2_circle.c ****     ddF_x += 2;
 772              		.loc 1 187 0
 773 0072 0136     		adds	r6, r6, #1
 774              	.LVL89:
 775 0074 F6B2     		uxtb	r6, r6
 776              	.LVL90:
 189:..\..\u8g2\csrc/u8g2_circle.c **** 
 777              		.loc 1 189 0
 778 0076 7300     		lsls	r3, r6, #1
 779 0078 0133     		adds	r3, r3, #1
 780 007a 5D19     		adds	r5, r3, r5
 781              	.LVL91:
 191:..\..\u8g2\csrc/u8g2_circle.c ****   }
 782              		.loc 1 191 0
 783 007c 059B     		ldr	r3, [sp, #20]
 784 007e 2200     		movs	r2, r4
 785 0080 0193     		str	r3, [sp, #4]
 786 0082 029B     		ldr	r3, [sp, #8]
 787 0084 3100     		movs	r1, r6
 788 0086 0093     		str	r3, [sp]
 789 0088 0398     		ldr	r0, [sp, #12]
 790 008a 3B00     		movs	r3, r7
 189:..\..\u8g2\csrc/u8g2_circle.c **** 
 791              		.loc 1 189 0
 792 008c 6DB2     		sxtb	r5, r5
 793              	.LVL92:
 191:..\..\u8g2\csrc/u8g2_circle.c ****   }
 794              		.loc 1 191 0
 795 008e FFF7FEFF 		bl	u8g2_draw_disc_section
 796              	.LVL93:
 797 0092 E1E7     		b	.L78
 798              	.LVL94:
 799              	.L76:
 800              	.LBE9:
 801              	.LBE8:
 207:..\..\u8g2\csrc/u8g2_circle.c **** 
 802              		.loc 1 207 0
 803 0094 07B0     		add	sp, sp, #28
 804              		@ sp needed
ARM GAS  C:\Users\Greg\AppData\Local\Temp\ccum9vLS.s 			page 23


 805 0096 F0BD     		pop	{r4, r5, r6, r7, pc}
 806              		.cfi_endproc
 807              	.LFE5:
 808              		.size	u8g2_DrawDisc, .-u8g2_DrawDisc
 809              		.section	.text.u8g2_DrawEllipse,"ax",%progbits
 810              		.align	1
 811              		.global	u8g2_DrawEllipse
 812              		.code	16
 813              		.thumb_func
 814              		.type	u8g2_DrawEllipse, %function
 815              	u8g2_DrawEllipse:
 816              	.LFB8:
 334:..\..\u8g2\csrc/u8g2_circle.c ****   /* check for bounding box */
 817              		.loc 1 334 0
 818              		.cfi_startproc
 819              		@ args = 8, pretend = 0, frame = 48
 820              		@ frame_needed = 0, uses_anonymous_args = 0
 821              	.LVL95:
 822 0000 F0B5     		push	{r4, r5, r6, r7, lr}
 823              		.cfi_def_cfa_offset 20
 824              		.cfi_offset 4, -20
 825              		.cfi_offset 5, -16
 826              		.cfi_offset 6, -12
 827              		.cfi_offset 7, -8
 828              		.cfi_offset 14, -4
 829 0002 1D00     		movs	r5, r3
 830 0004 8FB0     		sub	sp, sp, #60
 831              		.cfi_def_cfa_offset 80
 334:..\..\u8g2\csrc/u8g2_circle.c ****   /* check for bounding box */
 832              		.loc 1 334 0
 833 0006 14AB     		add	r3, sp, #80
 834              	.LVL96:
 835 0008 1B78     		ldrb	r3, [r3]
 836              	.LVL97:
 837 000a 0992     		str	r2, [sp, #36]
 838 000c 0293     		str	r3, [sp, #8]
 839 000e 15AB     		add	r3, sp, #84
 840              	.LVL98:
 841 0010 1B78     		ldrb	r3, [r3]
 842              	.LVL99:
 843 0012 0C90     		str	r0, [sp, #48]
 844 0014 0D93     		str	r3, [sp, #52]
 338:..\..\u8g2\csrc/u8g2_circle.c ****       return;
 845              		.loc 1 338 0
 846 0016 6B1C     		adds	r3, r5, #1
 334:..\..\u8g2\csrc/u8g2_circle.c ****   /* check for bounding box */
 847              		.loc 1 334 0
 848 0018 0891     		str	r1, [sp, #32]
 338:..\..\u8g2\csrc/u8g2_circle.c ****       return;
 849              		.loc 1 338 0
 850 001a CB18     		adds	r3, r1, r3
 851 001c 099A     		ldr	r2, [sp, #36]
 852              	.LVL100:
 853 001e 0299     		ldr	r1, [sp, #8]
 854              	.LVL101:
 855 0020 0298     		ldr	r0, [sp, #8]
 856              	.LVL102:
ARM GAS  C:\Users\Greg\AppData\Local\Temp\ccum9vLS.s 			page 24


 857 0022 099C     		ldr	r4, [sp, #36]
 858 0024 521A     		subs	r2, r2, r1
 859 0026 0130     		adds	r0, r0, #1
 860 0028 0899     		ldr	r1, [sp, #32]
 861 002a 2018     		adds	r0, r4, r0
 862 002c C0B2     		uxtb	r0, r0
 863 002e 491B     		subs	r1, r1, r5
 864 0030 0090     		str	r0, [sp]
 865 0032 DBB2     		uxtb	r3, r3
 866 0034 D2B2     		uxtb	r2, r2
 867 0036 C9B2     		uxtb	r1, r1
 868 0038 0C98     		ldr	r0, [sp, #48]
 869 003a FFF7FEFF 		bl	u8g2_IsIntersection
 870              	.LVL103:
 871 003e 0028     		cmp	r0, #0
 872 0040 00D1     		bne	.LCB940
 873 0042 88E0     		b	.L82	@long jump
 874              	.LCB940:
 875              	.LVL104:
 876              	.LBB12:
 877              	.LBB13:
 254:..\..\u8g2\csrc/u8g2_circle.c ****   rxrx2 *= 2;
 878              		.loc 1 254 0
 879 0044 ABB2     		uxth	r3, r5
 880 0046 1A00     		movs	r2, r3
 881 0048 5A43     		muls	r2, r3
 882 004a 0492     		str	r2, [sp, #16]
 883              	.LVL105:
 255:..\..\u8g2\csrc/u8g2_circle.c ****   
 884              		.loc 1 255 0
 885 004c 5200     		lsls	r2, r2, #1
 886 004e 92B2     		uxth	r2, r2
 887 0050 0592     		str	r2, [sp, #20]
 888              	.LVL106:
 258:..\..\u8g2\csrc/u8g2_circle.c ****   ryry2 *= 2;
 889              		.loc 1 258 0
 890 0052 6A46     		mov	r2, sp
 891 0054 1289     		ldrh	r2, [r2, #8]
 273:..\..\u8g2\csrc/u8g2_circle.c ****   
 892              		.loc 1 273 0
 893 0056 0027     		movs	r7, #0
 258:..\..\u8g2\csrc/u8g2_circle.c ****   ryry2 *= 2;
 894              		.loc 1 258 0
 895 0058 0392     		str	r2, [sp, #12]
 896 005a 5243     		muls	r2, r2
 897 005c 0692     		str	r2, [sp, #24]
 898              	.LVL107:
 259:..\..\u8g2\csrc/u8g2_circle.c ****   
 899              		.loc 1 259 0
 900 005e 5200     		lsls	r2, r2, #1
 901 0060 92B2     		uxth	r2, r2
 902 0062 0792     		str	r2, [sp, #28]
 903              	.LVL108:
 268:..\..\u8g2\csrc/u8g2_circle.c ****   
 904              		.loc 1 268 0
 905 0064 0122     		movs	r2, #1
 906 0066 0699     		ldr	r1, [sp, #24]
ARM GAS  C:\Users\Greg\AppData\Local\Temp\ccum9vLS.s 			page 25


 907 0068 D21A     		subs	r2, r2, r3
 908 006a D21A     		subs	r2, r2, r3
 909 006c 4A43     		muls	r2, r1
 910 006e 12B2     		sxth	r2, r2
 911 0070 0A92     		str	r2, [sp, #40]
 912              	.LVL109:
 271:..\..\u8g2\csrc/u8g2_circle.c ****   
 913              		.loc 1 271 0
 914 0072 6A46     		mov	r2, sp
 262:..\..\u8g2\csrc/u8g2_circle.c ****   
 915              		.loc 1 262 0
 916 0074 3E00     		movs	r6, r7
 271:..\..\u8g2\csrc/u8g2_circle.c ****   
 917              		.loc 1 271 0
 918 0076 1024     		movs	r4, #16
 919 0078 145F     		ldrsh	r4, [r2, r4]
 920              	.LVL110:
 276:..\..\u8g2\csrc/u8g2_circle.c ****   stopy = 0;
 921              		.loc 1 276 0
 922 007a 079A     		ldr	r2, [sp, #28]
 923 007c 5343     		muls	r3, r2
 924 007e 1BB2     		sxth	r3, r3
 925 0080 0B93     		str	r3, [sp, #44]
 926              	.LVL111:
 927              	.L84:
 279:..\..\u8g2\csrc/u8g2_circle.c ****   {
 928              		.loc 1 279 0
 929 0082 049B     		ldr	r3, [sp, #16]
 930 0084 A4B2     		uxth	r4, r4
 931              	.LVL112:
 932 0086 E31A     		subs	r3, r4, r3
 933 0088 0B9A     		ldr	r2, [sp, #44]
 934 008a 1BB2     		sxth	r3, r3
 935 008c 9A42     		cmp	r2, r3
 936 008e 25DB     		blt	.L91
 281:..\..\u8g2\csrc/u8g2_circle.c ****     y++;
 937              		.loc 1 281 0
 938 0090 0D9B     		ldr	r3, [sp, #52]
 939 0092 3200     		movs	r2, r6
 940 0094 0193     		str	r3, [sp, #4]
 941 0096 099B     		ldr	r3, [sp, #36]
 284:..\..\u8g2\csrc/u8g2_circle.c ****     ychg += rxrx2;
 942              		.loc 1 284 0
 943 0098 E719     		adds	r7, r4, r7
 944              	.LVL113:
 281:..\..\u8g2\csrc/u8g2_circle.c ****     y++;
 945              		.loc 1 281 0
 946 009a 0093     		str	r3, [sp]
 947 009c 2900     		movs	r1, r5
 948 009e 089B     		ldr	r3, [sp, #32]
 949 00a0 0C98     		ldr	r0, [sp, #48]
 950 00a2 FFF7FEFF 		bl	u8g2_draw_ellipse_section
 951              	.LVL114:
 952 00a6 059A     		ldr	r2, [sp, #20]
 284:..\..\u8g2\csrc/u8g2_circle.c ****     ychg += rxrx2;
 953              		.loc 1 284 0
 954 00a8 BBB2     		uxth	r3, r7
ARM GAS  C:\Users\Greg\AppData\Local\Temp\ccum9vLS.s 			page 26


 955 00aa 1FB2     		sxth	r7, r3
 286:..\..\u8g2\csrc/u8g2_circle.c ****     {
 956              		.loc 1 286 0
 957 00ac 0A99     		ldr	r1, [sp, #40]
 958 00ae 1419     		adds	r4, r2, r4
 959              	.LVL115:
 960 00b0 7A00     		lsls	r2, r7, #1
 282:..\..\u8g2\csrc/u8g2_circle.c ****     stopy += rxrx2;
 961              		.loc 1 282 0
 962 00b2 0136     		adds	r6, r6, #1
 963              	.LVL116:
 286:..\..\u8g2\csrc/u8g2_circle.c ****     {
 964              		.loc 1 286 0
 965 00b4 5218     		adds	r2, r2, r1
 282:..\..\u8g2\csrc/u8g2_circle.c ****     stopy += rxrx2;
 966              		.loc 1 282 0
 967 00b6 F6B2     		uxtb	r6, r6
 968              	.LVL117:
 969 00b8 24B2     		sxth	r4, r4
 286:..\..\u8g2\csrc/u8g2_circle.c ****     {
 970              		.loc 1 286 0
 971 00ba 002A     		cmp	r2, #0
 972 00bc E1DD     		ble	.L84
 289:..\..\u8g2\csrc/u8g2_circle.c ****       err += xchg;
 973              		.loc 1 289 0
 974 00be 0B9A     		ldr	r2, [sp, #44]
 975 00c0 0799     		ldr	r1, [sp, #28]
 288:..\..\u8g2\csrc/u8g2_circle.c ****       stopx -= ryry2;
 976              		.loc 1 288 0
 977 00c2 013D     		subs	r5, r5, #1
 978              	.LVL118:
 289:..\..\u8g2\csrc/u8g2_circle.c ****       err += xchg;
 979              		.loc 1 289 0
 980 00c4 521A     		subs	r2, r2, r1
 981 00c6 12B2     		sxth	r2, r2
 982 00c8 0B92     		str	r2, [sp, #44]
 983              	.LVL119:
 290:..\..\u8g2\csrc/u8g2_circle.c ****       xchg += ryry2;      
 984              		.loc 1 290 0
 985 00ca 6A46     		mov	r2, sp
 986 00cc 128D     		ldrh	r2, [r2, #40]
 288:..\..\u8g2\csrc/u8g2_circle.c ****       stopx -= ryry2;
 987              		.loc 1 288 0
 988 00ce EDB2     		uxtb	r5, r5
 989              	.LVL120:
 290:..\..\u8g2\csrc/u8g2_circle.c ****       xchg += ryry2;      
 990              		.loc 1 290 0
 991 00d0 9B18     		adds	r3, r3, r2
 291:..\..\u8g2\csrc/u8g2_circle.c ****     }
 992              		.loc 1 291 0
 993 00d2 8A18     		adds	r2, r1, r2
 290:..\..\u8g2\csrc/u8g2_circle.c ****       xchg += ryry2;      
 994              		.loc 1 290 0
 995 00d4 1FB2     		sxth	r7, r3
 996              	.LVL121:
 291:..\..\u8g2\csrc/u8g2_circle.c ****     }
 997              		.loc 1 291 0
ARM GAS  C:\Users\Greg\AppData\Local\Temp\ccum9vLS.s 			page 27


 998 00d6 13B2     		sxth	r3, r2
 999 00d8 0A93     		str	r3, [sp, #40]
 1000              	.LVL122:
 1001 00da D2E7     		b	.L84
 1002              	.LVL123:
 1003              	.L91:
 307:..\..\u8g2\csrc/u8g2_circle.c ****   
 1004              		.loc 1 307 0
 1005 00dc 0027     		movs	r7, #0
 1006              	.LVL124:
 299:..\..\u8g2\csrc/u8g2_circle.c ****   
 1007              		.loc 1 299 0
 1008 00de 6B46     		mov	r3, sp
 305:..\..\u8g2\csrc/u8g2_circle.c ****   
 1009              		.loc 1 305 0
 1010 00e0 0124     		movs	r4, #1
 1011              	.LVL125:
 295:..\..\u8g2\csrc/u8g2_circle.c ****   y = ry;
 1012              		.loc 1 295 0
 1013 00e2 3E00     		movs	r6, r7
 299:..\..\u8g2\csrc/u8g2_circle.c ****   
 1014              		.loc 1 299 0
 1015 00e4 1825     		movs	r5, #24
 1016 00e6 5D5F     		ldrsh	r5, [r3, r5]
 1017              	.LVL126:
 305:..\..\u8g2\csrc/u8g2_circle.c ****   
 1018              		.loc 1 305 0
 1019 00e8 039B     		ldr	r3, [sp, #12]
 312:..\..\u8g2\csrc/u8g2_circle.c ****   
 1020              		.loc 1 312 0
 1021 00ea 059A     		ldr	r2, [sp, #20]
 305:..\..\u8g2\csrc/u8g2_circle.c ****   
 1022              		.loc 1 305 0
 1023 00ec E41A     		subs	r4, r4, r3
 1024 00ee E41A     		subs	r4, r4, r3
 1025 00f0 049B     		ldr	r3, [sp, #16]
 1026 00f2 5C43     		muls	r4, r3
 312:..\..\u8g2\csrc/u8g2_circle.c ****   
 1027              		.loc 1 312 0
 1028 00f4 039B     		ldr	r3, [sp, #12]
 305:..\..\u8g2\csrc/u8g2_circle.c ****   
 1029              		.loc 1 305 0
 1030 00f6 24B2     		sxth	r4, r4
 1031              	.LVL127:
 312:..\..\u8g2\csrc/u8g2_circle.c ****   
 1032              		.loc 1 312 0
 1033 00f8 5343     		muls	r3, r2
 1034 00fa 1BB2     		sxth	r3, r3
 1035 00fc 0393     		str	r3, [sp, #12]
 1036              	.LVL128:
 1037              	.L87:
 315:..\..\u8g2\csrc/u8g2_circle.c ****   {
 1038              		.loc 1 315 0
 1039 00fe 069B     		ldr	r3, [sp, #24]
 1040 0100 ADB2     		uxth	r5, r5
 1041              	.LVL129:
 1042 0102 EB1A     		subs	r3, r5, r3
ARM GAS  C:\Users\Greg\AppData\Local\Temp\ccum9vLS.s 			page 28


 1043 0104 039A     		ldr	r2, [sp, #12]
 1044 0106 1BB2     		sxth	r3, r3
 1045 0108 9A42     		cmp	r2, r3
 1046 010a 24DB     		blt	.L82
 317:..\..\u8g2\csrc/u8g2_circle.c ****     x++;
 1047              		.loc 1 317 0
 1048 010c 0D9B     		ldr	r3, [sp, #52]
 320:..\..\u8g2\csrc/u8g2_circle.c ****     xchg += ryry2;
 1049              		.loc 1 320 0
 1050 010e EF19     		adds	r7, r5, r7
 1051              	.LVL130:
 317:..\..\u8g2\csrc/u8g2_circle.c ****     x++;
 1052              		.loc 1 317 0
 1053 0110 0193     		str	r3, [sp, #4]
 1054 0112 099B     		ldr	r3, [sp, #36]
 1055 0114 029A     		ldr	r2, [sp, #8]
 1056 0116 0093     		str	r3, [sp]
 1057 0118 3100     		movs	r1, r6
 1058 011a 089B     		ldr	r3, [sp, #32]
 1059 011c 0C98     		ldr	r0, [sp, #48]
 1060 011e FFF7FEFF 		bl	u8g2_draw_ellipse_section
 1061              	.LVL131:
 1062 0122 079A     		ldr	r2, [sp, #28]
 320:..\..\u8g2\csrc/u8g2_circle.c ****     xchg += ryry2;
 1063              		.loc 1 320 0
 1064 0124 BBB2     		uxth	r3, r7
 1065 0126 1FB2     		sxth	r7, r3
 1066 0128 AD18     		adds	r5, r5, r2
 1067              	.LVL132:
 322:..\..\u8g2\csrc/u8g2_circle.c ****     {
 1068              		.loc 1 322 0
 1069 012a 7A00     		lsls	r2, r7, #1
 318:..\..\u8g2\csrc/u8g2_circle.c ****     stopx += ryry2;
 1070              		.loc 1 318 0
 1071 012c 0136     		adds	r6, r6, #1
 1072              	.LVL133:
 322:..\..\u8g2\csrc/u8g2_circle.c ****     {
 1073              		.loc 1 322 0
 1074 012e 1219     		adds	r2, r2, r4
 318:..\..\u8g2\csrc/u8g2_circle.c ****     stopx += ryry2;
 1075              		.loc 1 318 0
 1076 0130 F6B2     		uxtb	r6, r6
 1077              	.LVL134:
 1078 0132 2DB2     		sxth	r5, r5
 322:..\..\u8g2\csrc/u8g2_circle.c ****     {
 1079              		.loc 1 322 0
 1080 0134 002A     		cmp	r2, #0
 1081 0136 E2DD     		ble	.L87
 324:..\..\u8g2\csrc/u8g2_circle.c ****       stopy -= rxrx2;
 1082              		.loc 1 324 0
 1083 0138 029A     		ldr	r2, [sp, #8]
 325:..\..\u8g2\csrc/u8g2_circle.c ****       err += ychg;
 1084              		.loc 1 325 0
 1085 013a 0599     		ldr	r1, [sp, #20]
 324:..\..\u8g2\csrc/u8g2_circle.c ****       stopy -= rxrx2;
 1086              		.loc 1 324 0
 1087 013c 013A     		subs	r2, r2, #1
ARM GAS  C:\Users\Greg\AppData\Local\Temp\ccum9vLS.s 			page 29


 1088 013e D2B2     		uxtb	r2, r2
 1089 0140 0292     		str	r2, [sp, #8]
 1090              	.LVL135:
 325:..\..\u8g2\csrc/u8g2_circle.c ****       err += ychg;
 1091              		.loc 1 325 0
 1092 0142 039A     		ldr	r2, [sp, #12]
 326:..\..\u8g2\csrc/u8g2_circle.c ****       ychg += rxrx2;
 1093              		.loc 1 326 0
 1094 0144 A4B2     		uxth	r4, r4
 325:..\..\u8g2\csrc/u8g2_circle.c ****       err += ychg;
 1095              		.loc 1 325 0
 1096 0146 521A     		subs	r2, r2, r1
 326:..\..\u8g2\csrc/u8g2_circle.c ****       ychg += rxrx2;
 1097              		.loc 1 326 0
 1098 0148 1B19     		adds	r3, r3, r4
 325:..\..\u8g2\csrc/u8g2_circle.c ****       err += ychg;
 1099              		.loc 1 325 0
 1100 014a 12B2     		sxth	r2, r2
 327:..\..\u8g2\csrc/u8g2_circle.c ****     }
 1101              		.loc 1 327 0
 1102 014c 0C19     		adds	r4, r1, r4
 1103              	.LVL136:
 325:..\..\u8g2\csrc/u8g2_circle.c ****       err += ychg;
 1104              		.loc 1 325 0
 1105 014e 0392     		str	r2, [sp, #12]
 1106              	.LVL137:
 326:..\..\u8g2\csrc/u8g2_circle.c ****       ychg += rxrx2;
 1107              		.loc 1 326 0
 1108 0150 1FB2     		sxth	r7, r3
 1109              	.LVL138:
 327:..\..\u8g2\csrc/u8g2_circle.c ****     }
 1110              		.loc 1 327 0
 1111 0152 24B2     		sxth	r4, r4
 1112              	.LVL139:
 1113 0154 D3E7     		b	.L87
 1114              	.LVL140:
 1115              	.L82:
 1116              	.LBE13:
 1117              	.LBE12:
 344:..\..\u8g2\csrc/u8g2_circle.c **** 
 1118              		.loc 1 344 0
 1119 0156 0FB0     		add	sp, sp, #60
 1120              		@ sp needed
 1121 0158 F0BD     		pop	{r4, r5, r6, r7, pc}
 1122              		.cfi_endproc
 1123              	.LFE8:
 1124              		.size	u8g2_DrawEllipse, .-u8g2_DrawEllipse
 1125              		.section	.text.u8g2_DrawFilledEllipse,"ax",%progbits
 1126              		.align	1
 1127              		.global	u8g2_DrawFilledEllipse
 1128              		.code	16
 1129              		.thumb_func
 1130              		.type	u8g2_DrawFilledEllipse, %function
 1131              	u8g2_DrawFilledEllipse:
 1132              	.LFB11:
 376:..\..\u8g2\csrc/u8g2_circle.c **** 
 377:..\..\u8g2\csrc/u8g2_circle.c **** static void u8g2_draw_filled_ellipse(u8g2_t *u8g2, u8g2_uint_t x0, u8g2_uint_t y0, u8g2_uint_t rx, 
ARM GAS  C:\Users\Greg\AppData\Local\Temp\ccum9vLS.s 			page 30


 378:..\..\u8g2\csrc/u8g2_circle.c **** {
 379:..\..\u8g2\csrc/u8g2_circle.c ****   u8g2_uint_t x, y;
 380:..\..\u8g2\csrc/u8g2_circle.c ****   u8g2_long_t xchg, ychg;
 381:..\..\u8g2\csrc/u8g2_circle.c ****   u8g2_long_t err;
 382:..\..\u8g2\csrc/u8g2_circle.c ****   u8g2_long_t rxrx2;
 383:..\..\u8g2\csrc/u8g2_circle.c ****   u8g2_long_t ryry2;
 384:..\..\u8g2\csrc/u8g2_circle.c ****   u8g2_long_t stopx, stopy;
 385:..\..\u8g2\csrc/u8g2_circle.c ****   
 386:..\..\u8g2\csrc/u8g2_circle.c ****   rxrx2 = rx;
 387:..\..\u8g2\csrc/u8g2_circle.c ****   rxrx2 *= rx;
 388:..\..\u8g2\csrc/u8g2_circle.c ****   rxrx2 *= 2;
 389:..\..\u8g2\csrc/u8g2_circle.c ****   
 390:..\..\u8g2\csrc/u8g2_circle.c ****   ryry2 = ry;
 391:..\..\u8g2\csrc/u8g2_circle.c ****   ryry2 *= ry;
 392:..\..\u8g2\csrc/u8g2_circle.c ****   ryry2 *= 2;
 393:..\..\u8g2\csrc/u8g2_circle.c ****   
 394:..\..\u8g2\csrc/u8g2_circle.c ****   x = rx;
 395:..\..\u8g2\csrc/u8g2_circle.c ****   y = 0;
 396:..\..\u8g2\csrc/u8g2_circle.c ****   
 397:..\..\u8g2\csrc/u8g2_circle.c ****   xchg = 1;
 398:..\..\u8g2\csrc/u8g2_circle.c ****   xchg -= rx;
 399:..\..\u8g2\csrc/u8g2_circle.c ****   xchg -= rx;
 400:..\..\u8g2\csrc/u8g2_circle.c ****   xchg *= ry;
 401:..\..\u8g2\csrc/u8g2_circle.c ****   xchg *= ry;
 402:..\..\u8g2\csrc/u8g2_circle.c ****   
 403:..\..\u8g2\csrc/u8g2_circle.c ****   ychg = rx;
 404:..\..\u8g2\csrc/u8g2_circle.c ****   ychg *= rx;
 405:..\..\u8g2\csrc/u8g2_circle.c ****   
 406:..\..\u8g2\csrc/u8g2_circle.c ****   err = 0;
 407:..\..\u8g2\csrc/u8g2_circle.c ****   
 408:..\..\u8g2\csrc/u8g2_circle.c ****   stopx = ryry2;
 409:..\..\u8g2\csrc/u8g2_circle.c ****   stopx *= rx;
 410:..\..\u8g2\csrc/u8g2_circle.c ****   stopy = 0;
 411:..\..\u8g2\csrc/u8g2_circle.c ****   
 412:..\..\u8g2\csrc/u8g2_circle.c ****   while( stopx >= stopy )
 413:..\..\u8g2\csrc/u8g2_circle.c ****   {
 414:..\..\u8g2\csrc/u8g2_circle.c ****     u8g2_draw_filled_ellipse_section(u8g2, x, y, x0, y0, option);
 415:..\..\u8g2\csrc/u8g2_circle.c ****     y++;
 416:..\..\u8g2\csrc/u8g2_circle.c ****     stopy += rxrx2;
 417:..\..\u8g2\csrc/u8g2_circle.c ****     err += ychg;
 418:..\..\u8g2\csrc/u8g2_circle.c ****     ychg += rxrx2;
 419:..\..\u8g2\csrc/u8g2_circle.c ****     if ( 2*err+xchg > 0 )
 420:..\..\u8g2\csrc/u8g2_circle.c ****     {
 421:..\..\u8g2\csrc/u8g2_circle.c ****       x--;
 422:..\..\u8g2\csrc/u8g2_circle.c ****       stopx -= ryry2;
 423:..\..\u8g2\csrc/u8g2_circle.c ****       err += xchg;
 424:..\..\u8g2\csrc/u8g2_circle.c ****       xchg += ryry2;      
 425:..\..\u8g2\csrc/u8g2_circle.c ****     }
 426:..\..\u8g2\csrc/u8g2_circle.c ****   }
 427:..\..\u8g2\csrc/u8g2_circle.c **** 
 428:..\..\u8g2\csrc/u8g2_circle.c ****   x = 0;
 429:..\..\u8g2\csrc/u8g2_circle.c ****   y = ry;
 430:..\..\u8g2\csrc/u8g2_circle.c ****   
 431:..\..\u8g2\csrc/u8g2_circle.c ****   xchg = ry;
 432:..\..\u8g2\csrc/u8g2_circle.c ****   xchg *= ry;
 433:..\..\u8g2\csrc/u8g2_circle.c ****   
 434:..\..\u8g2\csrc/u8g2_circle.c ****   ychg = 1;
ARM GAS  C:\Users\Greg\AppData\Local\Temp\ccum9vLS.s 			page 31


 435:..\..\u8g2\csrc/u8g2_circle.c ****   ychg -= ry;
 436:..\..\u8g2\csrc/u8g2_circle.c ****   ychg -= ry;
 437:..\..\u8g2\csrc/u8g2_circle.c ****   ychg *= rx;
 438:..\..\u8g2\csrc/u8g2_circle.c ****   ychg *= rx;
 439:..\..\u8g2\csrc/u8g2_circle.c ****   
 440:..\..\u8g2\csrc/u8g2_circle.c ****   err = 0;
 441:..\..\u8g2\csrc/u8g2_circle.c ****   
 442:..\..\u8g2\csrc/u8g2_circle.c ****   stopx = 0;
 443:..\..\u8g2\csrc/u8g2_circle.c **** 
 444:..\..\u8g2\csrc/u8g2_circle.c ****   stopy = rxrx2;
 445:..\..\u8g2\csrc/u8g2_circle.c ****   stopy *= ry;
 446:..\..\u8g2\csrc/u8g2_circle.c ****   
 447:..\..\u8g2\csrc/u8g2_circle.c **** 
 448:..\..\u8g2\csrc/u8g2_circle.c ****   while( stopx <= stopy )
 449:..\..\u8g2\csrc/u8g2_circle.c ****   {
 450:..\..\u8g2\csrc/u8g2_circle.c ****     u8g2_draw_filled_ellipse_section(u8g2, x, y, x0, y0, option);
 451:..\..\u8g2\csrc/u8g2_circle.c ****     x++;
 452:..\..\u8g2\csrc/u8g2_circle.c ****     stopx += ryry2;
 453:..\..\u8g2\csrc/u8g2_circle.c ****     err += xchg;
 454:..\..\u8g2\csrc/u8g2_circle.c ****     xchg += ryry2;
 455:..\..\u8g2\csrc/u8g2_circle.c ****     if ( 2*err+ychg > 0 )
 456:..\..\u8g2\csrc/u8g2_circle.c ****     {
 457:..\..\u8g2\csrc/u8g2_circle.c ****       y--;
 458:..\..\u8g2\csrc/u8g2_circle.c ****       stopy -= rxrx2;
 459:..\..\u8g2\csrc/u8g2_circle.c ****       err += ychg;
 460:..\..\u8g2\csrc/u8g2_circle.c ****       ychg += rxrx2;
 461:..\..\u8g2\csrc/u8g2_circle.c ****     }
 462:..\..\u8g2\csrc/u8g2_circle.c ****   }
 463:..\..\u8g2\csrc/u8g2_circle.c ****   
 464:..\..\u8g2\csrc/u8g2_circle.c **** }
 465:..\..\u8g2\csrc/u8g2_circle.c **** 
 466:..\..\u8g2\csrc/u8g2_circle.c **** void u8g2_DrawFilledEllipse(u8g2_t *u8g2, u8g2_uint_t x0, u8g2_uint_t y0, u8g2_uint_t rx, u8g2_uint
 467:..\..\u8g2\csrc/u8g2_circle.c **** {
 1133              		.loc 1 467 0
 1134              		.cfi_startproc
 1135              		@ args = 8, pretend = 0, frame = 48
 1136              		@ frame_needed = 0, uses_anonymous_args = 0
 1137              	.LVL141:
 1138 0000 F0B5     		push	{r4, r5, r6, r7, lr}
 1139              		.cfi_def_cfa_offset 20
 1140              		.cfi_offset 4, -20
 1141              		.cfi_offset 5, -16
 1142              		.cfi_offset 6, -12
 1143              		.cfi_offset 7, -8
 1144              		.cfi_offset 14, -4
 1145 0002 1D00     		movs	r5, r3
 1146 0004 8FB0     		sub	sp, sp, #60
 1147              		.cfi_def_cfa_offset 80
 1148              		.loc 1 467 0
 1149 0006 14AB     		add	r3, sp, #80
 1150              	.LVL142:
 1151 0008 1B78     		ldrb	r3, [r3]
 1152              	.LVL143:
 1153 000a 0992     		str	r2, [sp, #36]
 1154 000c 0293     		str	r3, [sp, #8]
 1155 000e 15AB     		add	r3, sp, #84
 1156              	.LVL144:
ARM GAS  C:\Users\Greg\AppData\Local\Temp\ccum9vLS.s 			page 32


 1157 0010 1B78     		ldrb	r3, [r3]
 1158              	.LVL145:
 1159 0012 0C90     		str	r0, [sp, #48]
 1160 0014 0D93     		str	r3, [sp, #52]
 468:..\..\u8g2\csrc/u8g2_circle.c ****   /* check for bounding box */
 469:..\..\u8g2\csrc/u8g2_circle.c **** #ifdef U8G2_WITH_INTERSECTION
 470:..\..\u8g2\csrc/u8g2_circle.c ****   {
 471:..\..\u8g2\csrc/u8g2_circle.c ****     if ( u8g2_IsIntersection(u8g2, x0-rx, y0-ry, x0+rx+1, y0+ry+1) == 0 ) 
 1161              		.loc 1 471 0
 1162 0016 6B1C     		adds	r3, r5, #1
 467:..\..\u8g2\csrc/u8g2_circle.c ****   /* check for bounding box */
 1163              		.loc 1 467 0
 1164 0018 0891     		str	r1, [sp, #32]
 1165              		.loc 1 471 0
 1166 001a CB18     		adds	r3, r1, r3
 1167 001c 099A     		ldr	r2, [sp, #36]
 1168              	.LVL146:
 1169 001e 0299     		ldr	r1, [sp, #8]
 1170              	.LVL147:
 1171 0020 0298     		ldr	r0, [sp, #8]
 1172              	.LVL148:
 1173 0022 099C     		ldr	r4, [sp, #36]
 1174 0024 521A     		subs	r2, r2, r1
 1175 0026 0130     		adds	r0, r0, #1
 1176 0028 0899     		ldr	r1, [sp, #32]
 1177 002a 2018     		adds	r0, r4, r0
 1178 002c C0B2     		uxtb	r0, r0
 1179 002e 491B     		subs	r1, r1, r5
 1180 0030 0090     		str	r0, [sp]
 1181 0032 DBB2     		uxtb	r3, r3
 1182 0034 D2B2     		uxtb	r2, r2
 1183 0036 C9B2     		uxtb	r1, r1
 1184 0038 0C98     		ldr	r0, [sp, #48]
 1185 003a FFF7FEFF 		bl	u8g2_IsIntersection
 1186              	.LVL149:
 1187 003e 0028     		cmp	r0, #0
 1188 0040 00D1     		bne	.LCB1291
 1189 0042 88E0     		b	.L92	@long jump
 1190              	.LCB1291:
 1191              	.LVL150:
 1192              	.LBB16:
 1193              	.LBB17:
 387:..\..\u8g2\csrc/u8g2_circle.c ****   rxrx2 *= 2;
 1194              		.loc 1 387 0
 1195 0044 ABB2     		uxth	r3, r5
 1196 0046 1A00     		movs	r2, r3
 1197 0048 5A43     		muls	r2, r3
 1198 004a 0492     		str	r2, [sp, #16]
 1199              	.LVL151:
 388:..\..\u8g2\csrc/u8g2_circle.c ****   
 1200              		.loc 1 388 0
 1201 004c 5200     		lsls	r2, r2, #1
 1202 004e 92B2     		uxth	r2, r2
 1203 0050 0592     		str	r2, [sp, #20]
 1204              	.LVL152:
 391:..\..\u8g2\csrc/u8g2_circle.c ****   ryry2 *= 2;
 1205              		.loc 1 391 0
ARM GAS  C:\Users\Greg\AppData\Local\Temp\ccum9vLS.s 			page 33


 1206 0052 6A46     		mov	r2, sp
 1207 0054 1289     		ldrh	r2, [r2, #8]
 406:..\..\u8g2\csrc/u8g2_circle.c ****   
 1208              		.loc 1 406 0
 1209 0056 0027     		movs	r7, #0
 391:..\..\u8g2\csrc/u8g2_circle.c ****   ryry2 *= 2;
 1210              		.loc 1 391 0
 1211 0058 0392     		str	r2, [sp, #12]
 1212 005a 5243     		muls	r2, r2
 1213 005c 0692     		str	r2, [sp, #24]
 1214              	.LVL153:
 392:..\..\u8g2\csrc/u8g2_circle.c ****   
 1215              		.loc 1 392 0
 1216 005e 5200     		lsls	r2, r2, #1
 1217 0060 92B2     		uxth	r2, r2
 1218 0062 0792     		str	r2, [sp, #28]
 1219              	.LVL154:
 401:..\..\u8g2\csrc/u8g2_circle.c ****   
 1220              		.loc 1 401 0
 1221 0064 0122     		movs	r2, #1
 1222 0066 0699     		ldr	r1, [sp, #24]
 1223 0068 D21A     		subs	r2, r2, r3
 1224 006a D21A     		subs	r2, r2, r3
 1225 006c 4A43     		muls	r2, r1
 1226 006e 12B2     		sxth	r2, r2
 1227 0070 0A92     		str	r2, [sp, #40]
 1228              	.LVL155:
 404:..\..\u8g2\csrc/u8g2_circle.c ****   
 1229              		.loc 1 404 0
 1230 0072 6A46     		mov	r2, sp
 395:..\..\u8g2\csrc/u8g2_circle.c ****   
 1231              		.loc 1 395 0
 1232 0074 3E00     		movs	r6, r7
 404:..\..\u8g2\csrc/u8g2_circle.c ****   
 1233              		.loc 1 404 0
 1234 0076 1024     		movs	r4, #16
 1235 0078 145F     		ldrsh	r4, [r2, r4]
 1236              	.LVL156:
 409:..\..\u8g2\csrc/u8g2_circle.c ****   stopy = 0;
 1237              		.loc 1 409 0
 1238 007a 079A     		ldr	r2, [sp, #28]
 1239 007c 5343     		muls	r3, r2
 1240 007e 1BB2     		sxth	r3, r3
 1241 0080 0B93     		str	r3, [sp, #44]
 1242              	.LVL157:
 1243              	.L94:
 412:..\..\u8g2\csrc/u8g2_circle.c ****   {
 1244              		.loc 1 412 0
 1245 0082 049B     		ldr	r3, [sp, #16]
 1246 0084 A4B2     		uxth	r4, r4
 1247              	.LVL158:
 1248 0086 E31A     		subs	r3, r4, r3
 1249 0088 0B9A     		ldr	r2, [sp, #44]
 1250 008a 1BB2     		sxth	r3, r3
 1251 008c 9A42     		cmp	r2, r3
 1252 008e 25DB     		blt	.L101
 414:..\..\u8g2\csrc/u8g2_circle.c ****     y++;
ARM GAS  C:\Users\Greg\AppData\Local\Temp\ccum9vLS.s 			page 34


 1253              		.loc 1 414 0
 1254 0090 0D9B     		ldr	r3, [sp, #52]
 1255 0092 3200     		movs	r2, r6
 1256 0094 0193     		str	r3, [sp, #4]
 1257 0096 099B     		ldr	r3, [sp, #36]
 417:..\..\u8g2\csrc/u8g2_circle.c ****     ychg += rxrx2;
 1258              		.loc 1 417 0
 1259 0098 E719     		adds	r7, r4, r7
 1260              	.LVL159:
 414:..\..\u8g2\csrc/u8g2_circle.c ****     y++;
 1261              		.loc 1 414 0
 1262 009a 0093     		str	r3, [sp]
 1263 009c 2900     		movs	r1, r5
 1264 009e 089B     		ldr	r3, [sp, #32]
 1265 00a0 0C98     		ldr	r0, [sp, #48]
 1266 00a2 FFF7FEFF 		bl	u8g2_draw_filled_ellipse_section
 1267              	.LVL160:
 1268 00a6 059A     		ldr	r2, [sp, #20]
 417:..\..\u8g2\csrc/u8g2_circle.c ****     ychg += rxrx2;
 1269              		.loc 1 417 0
 1270 00a8 BBB2     		uxth	r3, r7
 1271 00aa 1FB2     		sxth	r7, r3
 419:..\..\u8g2\csrc/u8g2_circle.c ****     {
 1272              		.loc 1 419 0
 1273 00ac 0A99     		ldr	r1, [sp, #40]
 1274 00ae 1419     		adds	r4, r2, r4
 1275              	.LVL161:
 1276 00b0 7A00     		lsls	r2, r7, #1
 415:..\..\u8g2\csrc/u8g2_circle.c ****     stopy += rxrx2;
 1277              		.loc 1 415 0
 1278 00b2 0136     		adds	r6, r6, #1
 1279              	.LVL162:
 419:..\..\u8g2\csrc/u8g2_circle.c ****     {
 1280              		.loc 1 419 0
 1281 00b4 5218     		adds	r2, r2, r1
 415:..\..\u8g2\csrc/u8g2_circle.c ****     stopy += rxrx2;
 1282              		.loc 1 415 0
 1283 00b6 F6B2     		uxtb	r6, r6
 1284              	.LVL163:
 1285 00b8 24B2     		sxth	r4, r4
 419:..\..\u8g2\csrc/u8g2_circle.c ****     {
 1286              		.loc 1 419 0
 1287 00ba 002A     		cmp	r2, #0
 1288 00bc E1DD     		ble	.L94
 422:..\..\u8g2\csrc/u8g2_circle.c ****       err += xchg;
 1289              		.loc 1 422 0
 1290 00be 0B9A     		ldr	r2, [sp, #44]
 1291 00c0 0799     		ldr	r1, [sp, #28]
 421:..\..\u8g2\csrc/u8g2_circle.c ****       stopx -= ryry2;
 1292              		.loc 1 421 0
 1293 00c2 013D     		subs	r5, r5, #1
 1294              	.LVL164:
 422:..\..\u8g2\csrc/u8g2_circle.c ****       err += xchg;
 1295              		.loc 1 422 0
 1296 00c4 521A     		subs	r2, r2, r1
 1297 00c6 12B2     		sxth	r2, r2
 1298 00c8 0B92     		str	r2, [sp, #44]
ARM GAS  C:\Users\Greg\AppData\Local\Temp\ccum9vLS.s 			page 35


 1299              	.LVL165:
 423:..\..\u8g2\csrc/u8g2_circle.c ****       xchg += ryry2;      
 1300              		.loc 1 423 0
 1301 00ca 6A46     		mov	r2, sp
 1302 00cc 128D     		ldrh	r2, [r2, #40]
 421:..\..\u8g2\csrc/u8g2_circle.c ****       stopx -= ryry2;
 1303              		.loc 1 421 0
 1304 00ce EDB2     		uxtb	r5, r5
 1305              	.LVL166:
 423:..\..\u8g2\csrc/u8g2_circle.c ****       xchg += ryry2;      
 1306              		.loc 1 423 0
 1307 00d0 9B18     		adds	r3, r3, r2
 424:..\..\u8g2\csrc/u8g2_circle.c ****     }
 1308              		.loc 1 424 0
 1309 00d2 8A18     		adds	r2, r1, r2
 423:..\..\u8g2\csrc/u8g2_circle.c ****       xchg += ryry2;      
 1310              		.loc 1 423 0
 1311 00d4 1FB2     		sxth	r7, r3
 1312              	.LVL167:
 424:..\..\u8g2\csrc/u8g2_circle.c ****     }
 1313              		.loc 1 424 0
 1314 00d6 13B2     		sxth	r3, r2
 1315 00d8 0A93     		str	r3, [sp, #40]
 1316              	.LVL168:
 1317 00da D2E7     		b	.L94
 1318              	.LVL169:
 1319              	.L101:
 440:..\..\u8g2\csrc/u8g2_circle.c ****   
 1320              		.loc 1 440 0
 1321 00dc 0027     		movs	r7, #0
 1322              	.LVL170:
 432:..\..\u8g2\csrc/u8g2_circle.c ****   
 1323              		.loc 1 432 0
 1324 00de 6B46     		mov	r3, sp
 438:..\..\u8g2\csrc/u8g2_circle.c ****   
 1325              		.loc 1 438 0
 1326 00e0 0124     		movs	r4, #1
 1327              	.LVL171:
 428:..\..\u8g2\csrc/u8g2_circle.c ****   y = ry;
 1328              		.loc 1 428 0
 1329 00e2 3E00     		movs	r6, r7
 432:..\..\u8g2\csrc/u8g2_circle.c ****   
 1330              		.loc 1 432 0
 1331 00e4 1825     		movs	r5, #24
 1332 00e6 5D5F     		ldrsh	r5, [r3, r5]
 1333              	.LVL172:
 438:..\..\u8g2\csrc/u8g2_circle.c ****   
 1334              		.loc 1 438 0
 1335 00e8 039B     		ldr	r3, [sp, #12]
 445:..\..\u8g2\csrc/u8g2_circle.c ****   
 1336              		.loc 1 445 0
 1337 00ea 059A     		ldr	r2, [sp, #20]
 438:..\..\u8g2\csrc/u8g2_circle.c ****   
 1338              		.loc 1 438 0
 1339 00ec E41A     		subs	r4, r4, r3
 1340 00ee E41A     		subs	r4, r4, r3
 1341 00f0 049B     		ldr	r3, [sp, #16]
ARM GAS  C:\Users\Greg\AppData\Local\Temp\ccum9vLS.s 			page 36


 1342 00f2 5C43     		muls	r4, r3
 445:..\..\u8g2\csrc/u8g2_circle.c ****   
 1343              		.loc 1 445 0
 1344 00f4 039B     		ldr	r3, [sp, #12]
 438:..\..\u8g2\csrc/u8g2_circle.c ****   
 1345              		.loc 1 438 0
 1346 00f6 24B2     		sxth	r4, r4
 1347              	.LVL173:
 445:..\..\u8g2\csrc/u8g2_circle.c ****   
 1348              		.loc 1 445 0
 1349 00f8 5343     		muls	r3, r2
 1350 00fa 1BB2     		sxth	r3, r3
 1351 00fc 0393     		str	r3, [sp, #12]
 1352              	.LVL174:
 1353              	.L97:
 448:..\..\u8g2\csrc/u8g2_circle.c ****   {
 1354              		.loc 1 448 0
 1355 00fe 069B     		ldr	r3, [sp, #24]
 1356 0100 ADB2     		uxth	r5, r5
 1357              	.LVL175:
 1358 0102 EB1A     		subs	r3, r5, r3
 1359 0104 039A     		ldr	r2, [sp, #12]
 1360 0106 1BB2     		sxth	r3, r3
 1361 0108 9A42     		cmp	r2, r3
 1362 010a 24DB     		blt	.L92
 450:..\..\u8g2\csrc/u8g2_circle.c ****     x++;
 1363              		.loc 1 450 0
 1364 010c 0D9B     		ldr	r3, [sp, #52]
 453:..\..\u8g2\csrc/u8g2_circle.c ****     xchg += ryry2;
 1365              		.loc 1 453 0
 1366 010e EF19     		adds	r7, r5, r7
 1367              	.LVL176:
 450:..\..\u8g2\csrc/u8g2_circle.c ****     x++;
 1368              		.loc 1 450 0
 1369 0110 0193     		str	r3, [sp, #4]
 1370 0112 099B     		ldr	r3, [sp, #36]
 1371 0114 029A     		ldr	r2, [sp, #8]
 1372 0116 0093     		str	r3, [sp]
 1373 0118 3100     		movs	r1, r6
 1374 011a 089B     		ldr	r3, [sp, #32]
 1375 011c 0C98     		ldr	r0, [sp, #48]
 1376 011e FFF7FEFF 		bl	u8g2_draw_filled_ellipse_section
 1377              	.LVL177:
 1378 0122 079A     		ldr	r2, [sp, #28]
 453:..\..\u8g2\csrc/u8g2_circle.c ****     xchg += ryry2;
 1379              		.loc 1 453 0
 1380 0124 BBB2     		uxth	r3, r7
 1381 0126 1FB2     		sxth	r7, r3
 1382 0128 AD18     		adds	r5, r5, r2
 1383              	.LVL178:
 455:..\..\u8g2\csrc/u8g2_circle.c ****     {
 1384              		.loc 1 455 0
 1385 012a 7A00     		lsls	r2, r7, #1
 451:..\..\u8g2\csrc/u8g2_circle.c ****     stopx += ryry2;
 1386              		.loc 1 451 0
 1387 012c 0136     		adds	r6, r6, #1
 1388              	.LVL179:
ARM GAS  C:\Users\Greg\AppData\Local\Temp\ccum9vLS.s 			page 37


 455:..\..\u8g2\csrc/u8g2_circle.c ****     {
 1389              		.loc 1 455 0
 1390 012e 1219     		adds	r2, r2, r4
 451:..\..\u8g2\csrc/u8g2_circle.c ****     stopx += ryry2;
 1391              		.loc 1 451 0
 1392 0130 F6B2     		uxtb	r6, r6
 1393              	.LVL180:
 1394 0132 2DB2     		sxth	r5, r5
 455:..\..\u8g2\csrc/u8g2_circle.c ****     {
 1395              		.loc 1 455 0
 1396 0134 002A     		cmp	r2, #0
 1397 0136 E2DD     		ble	.L97
 457:..\..\u8g2\csrc/u8g2_circle.c ****       stopy -= rxrx2;
 1398              		.loc 1 457 0
 1399 0138 029A     		ldr	r2, [sp, #8]
 458:..\..\u8g2\csrc/u8g2_circle.c ****       err += ychg;
 1400              		.loc 1 458 0
 1401 013a 0599     		ldr	r1, [sp, #20]
 457:..\..\u8g2\csrc/u8g2_circle.c ****       stopy -= rxrx2;
 1402              		.loc 1 457 0
 1403 013c 013A     		subs	r2, r2, #1
 1404 013e D2B2     		uxtb	r2, r2
 1405 0140 0292     		str	r2, [sp, #8]
 1406              	.LVL181:
 458:..\..\u8g2\csrc/u8g2_circle.c ****       err += ychg;
 1407              		.loc 1 458 0
 1408 0142 039A     		ldr	r2, [sp, #12]
 459:..\..\u8g2\csrc/u8g2_circle.c ****       ychg += rxrx2;
 1409              		.loc 1 459 0
 1410 0144 A4B2     		uxth	r4, r4
 458:..\..\u8g2\csrc/u8g2_circle.c ****       err += ychg;
 1411              		.loc 1 458 0
 1412 0146 521A     		subs	r2, r2, r1
 459:..\..\u8g2\csrc/u8g2_circle.c ****       ychg += rxrx2;
 1413              		.loc 1 459 0
 1414 0148 1B19     		adds	r3, r3, r4
 458:..\..\u8g2\csrc/u8g2_circle.c ****       err += ychg;
 1415              		.loc 1 458 0
 1416 014a 12B2     		sxth	r2, r2
 460:..\..\u8g2\csrc/u8g2_circle.c ****     }
 1417              		.loc 1 460 0
 1418 014c 0C19     		adds	r4, r1, r4
 1419              	.LVL182:
 458:..\..\u8g2\csrc/u8g2_circle.c ****       err += ychg;
 1420              		.loc 1 458 0
 1421 014e 0392     		str	r2, [sp, #12]
 1422              	.LVL183:
 459:..\..\u8g2\csrc/u8g2_circle.c ****       ychg += rxrx2;
 1423              		.loc 1 459 0
 1424 0150 1FB2     		sxth	r7, r3
 1425              	.LVL184:
 460:..\..\u8g2\csrc/u8g2_circle.c ****     }
 1426              		.loc 1 460 0
 1427 0152 24B2     		sxth	r4, r4
 1428              	.LVL185:
 1429 0154 D3E7     		b	.L97
 1430              	.LVL186:
ARM GAS  C:\Users\Greg\AppData\Local\Temp\ccum9vLS.s 			page 38


 1431              	.L92:
 1432              	.LBE17:
 1433              	.LBE16:
 472:..\..\u8g2\csrc/u8g2_circle.c ****       return;
 473:..\..\u8g2\csrc/u8g2_circle.c ****   }
 474:..\..\u8g2\csrc/u8g2_circle.c **** #endif /* U8G2_WITH_INTERSECTION */
 475:..\..\u8g2\csrc/u8g2_circle.c ****   
 476:..\..\u8g2\csrc/u8g2_circle.c ****   u8g2_draw_filled_ellipse(u8g2, x0, y0, rx, ry, option);
 477:..\..\u8g2\csrc/u8g2_circle.c **** }
 1434              		.loc 1 477 0
 1435 0156 0FB0     		add	sp, sp, #60
 1436              		@ sp needed
 1437 0158 F0BD     		pop	{r4, r5, r6, r7, pc}
 1438              		.cfi_endproc
 1439              	.LFE11:
 1440              		.size	u8g2_DrawFilledEllipse, .-u8g2_DrawFilledEllipse
 1441              		.text
 1442              	.Letext0:
 1443              		.file 2 "c:\\program files\\cypress\\psoc creator\\4.1\\psoc creator\\import\\gnu\\arm\\5.4.1\\arm
 1444              		.file 3 "c:\\program files\\cypress\\psoc creator\\4.1\\psoc creator\\import\\gnu\\arm\\5.4.1\\arm
 1445              		.file 4 "..\\..\\u8g2\\csrc\\u8x8.h"
 1446              		.file 5 "..\\..\\u8g2\\csrc\\u8g2.h"