ARM GAS  C:\Users\gjl\AppData\Local\Temp\ccF1NG7a.s 			page 1


   1              		.syntax unified
   2              		.cpu cortex-m0
   3              		.fpu softvfp
   4              		.eabi_attribute 20, 1
   5              		.eabi_attribute 21, 1
   6              		.eabi_attribute 23, 3
   7              		.eabi_attribute 24, 1
   8              		.eabi_attribute 25, 1
   9              		.eabi_attribute 26, 1
  10              		.eabi_attribute 30, 4
  11              		.eabi_attribute 34, 0
  12              		.eabi_attribute 18, 4
  13              		.thumb
  14              		.syntax unified
  15              		.file	"u8x8_display.c"
  16              		.text
  17              	.Ltext0:
  18              		.cfi_sections	.debug_frame
  19              		.section	.text.u8x8_d_helper_display_setup_memory,"ax",%progbits
  20              		.align	1
  21              		.global	u8x8_d_helper_display_setup_memory
  22              		.code	16
  23              		.thumb_func
  24              		.type	u8x8_d_helper_display_setup_memory, %function
  25              	u8x8_d_helper_display_setup_memory:
  26              	.LFB0:
  27              		.file 1 "..\\..\\u8g2\\csrc\\u8x8_display.c"
   1:..\..\u8g2\csrc/u8x8_display.c **** /*
   2:..\..\u8g2\csrc/u8x8_display.c ****   
   3:..\..\u8g2\csrc/u8x8_display.c ****   u8x8_display.c
   4:..\..\u8g2\csrc/u8x8_display.c ****   
   5:..\..\u8g2\csrc/u8x8_display.c ****   Universal 8bit Graphics Library (https://github.com/olikraus/u8g2/)
   6:..\..\u8g2\csrc/u8x8_display.c **** 
   7:..\..\u8g2\csrc/u8x8_display.c ****   Copyright (c) 2016, olikraus@gmail.com
   8:..\..\u8g2\csrc/u8x8_display.c ****   All rights reserved.
   9:..\..\u8g2\csrc/u8x8_display.c **** 
  10:..\..\u8g2\csrc/u8x8_display.c ****   Redistribution and use in source and binary forms, with or without modification, 
  11:..\..\u8g2\csrc/u8x8_display.c ****   are permitted provided that the following conditions are met:
  12:..\..\u8g2\csrc/u8x8_display.c **** 
  13:..\..\u8g2\csrc/u8x8_display.c ****   * Redistributions of source code must retain the above copyright notice, this list 
  14:..\..\u8g2\csrc/u8x8_display.c ****     of conditions and the following disclaimer.
  15:..\..\u8g2\csrc/u8x8_display.c ****     
  16:..\..\u8g2\csrc/u8x8_display.c ****   * Redistributions in binary form must reproduce the above copyright notice, this 
  17:..\..\u8g2\csrc/u8x8_display.c ****     list of conditions and the following disclaimer in the documentation and/or other 
  18:..\..\u8g2\csrc/u8x8_display.c ****     materials provided with the distribution.
  19:..\..\u8g2\csrc/u8x8_display.c **** 
  20:..\..\u8g2\csrc/u8x8_display.c ****   THIS SOFTWARE IS PROVIDED BY THE COPYRIGHT HOLDERS AND 
  21:..\..\u8g2\csrc/u8x8_display.c ****   CONTRIBUTORS "AS IS" AND ANY EXPRESS OR IMPLIED WARRANTIES, 
  22:..\..\u8g2\csrc/u8x8_display.c ****   INCLUDING, BUT NOT LIMITED TO, THE IMPLIED WARRANTIES OF 
  23:..\..\u8g2\csrc/u8x8_display.c ****   MERCHANTABILITY AND FITNESS FOR A PARTICULAR PURPOSE ARE 
  24:..\..\u8g2\csrc/u8x8_display.c ****   DISCLAIMED. IN NO EVENT SHALL THE COPYRIGHT HOLDER OR 
  25:..\..\u8g2\csrc/u8x8_display.c ****   CONTRIBUTORS BE LIABLE FOR ANY DIRECT, INDIRECT, INCIDENTAL, 
  26:..\..\u8g2\csrc/u8x8_display.c ****   SPECIAL, EXEMPLARY, OR CONSEQUENTIAL DAMAGES (INCLUDING, BUT 
  27:..\..\u8g2\csrc/u8x8_display.c ****   NOT LIMITED TO, PROCUREMENT OF SUBSTITUTE GOODS OR SERVICES; 
  28:..\..\u8g2\csrc/u8x8_display.c ****   LOSS OF USE, DATA, OR PROFITS; OR BUSINESS INTERRUPTION) HOWEVER 
  29:..\..\u8g2\csrc/u8x8_display.c ****   CAUSED AND ON ANY THEORY OF LIABILITY, WHETHER IN CONTRACT, 
  30:..\..\u8g2\csrc/u8x8_display.c ****   STRICT LIABILITY, OR TORT (INCLUDING NEGLIGENCE OR OTHERWISE) 
ARM GAS  C:\Users\gjl\AppData\Local\Temp\ccF1NG7a.s 			page 2


  31:..\..\u8g2\csrc/u8x8_display.c ****   ARISING IN ANY WAY OUT OF THE USE OF THIS SOFTWARE, EVEN IF 
  32:..\..\u8g2\csrc/u8x8_display.c ****   ADVISED OF THE POSSIBILITY OF SUCH DAMAGE.  
  33:..\..\u8g2\csrc/u8x8_display.c ****   
  34:..\..\u8g2\csrc/u8x8_display.c ****   
  35:..\..\u8g2\csrc/u8x8_display.c ****   Abstraction layer for the graphics controller.
  36:..\..\u8g2\csrc/u8x8_display.c ****   Main goal is the placement of a 8x8 pixel block (tile) on the display.
  37:..\..\u8g2\csrc/u8x8_display.c ****   
  38:..\..\u8g2\csrc/u8x8_display.c **** */
  39:..\..\u8g2\csrc/u8x8_display.c **** 
  40:..\..\u8g2\csrc/u8x8_display.c **** 
  41:..\..\u8g2\csrc/u8x8_display.c **** #include "u8x8.h"
  42:..\..\u8g2\csrc/u8x8_display.c **** 
  43:..\..\u8g2\csrc/u8x8_display.c **** 
  44:..\..\u8g2\csrc/u8x8_display.c **** /*==========================================*/
  45:..\..\u8g2\csrc/u8x8_display.c **** /* internal library function */
  46:..\..\u8g2\csrc/u8x8_display.c **** 
  47:..\..\u8g2\csrc/u8x8_display.c **** /*
  48:..\..\u8g2\csrc/u8x8_display.c ****   this is a helper function for the U8X8_MSG_DISPLAY_SETUP_MEMORY function.
  49:..\..\u8g2\csrc/u8x8_display.c ****   It can be called within the display callback function to carry out the usual standard tasks.
  50:..\..\u8g2\csrc/u8x8_display.c ****   
  51:..\..\u8g2\csrc/u8x8_display.c **** */
  52:..\..\u8g2\csrc/u8x8_display.c **** void u8x8_d_helper_display_setup_memory(u8x8_t *u8x8, const u8x8_display_info_t *display_info)
  53:..\..\u8g2\csrc/u8x8_display.c **** {
  28              		.loc 1 53 0
  29              		.cfi_startproc
  30              		@ args = 0, pretend = 0, frame = 0
  31              		@ frame_needed = 0, uses_anonymous_args = 0
  32              		@ link register save eliminated.
  33              	.LVL0:
  54:..\..\u8g2\csrc/u8x8_display.c ****       /* 1) set display info struct */
  55:..\..\u8g2\csrc/u8x8_display.c ****       u8x8->display_info = display_info;
  34              		.loc 1 55 0
  35 0000 0160     		str	r1, [r0]
  56:..\..\u8g2\csrc/u8x8_display.c ****       u8x8->x_offset = u8x8->display_info->default_x_offset;
  36              		.loc 1 56 0
  37 0002 8B7C     		ldrb	r3, [r1, #18]
  57:..\..\u8g2\csrc/u8x8_display.c **** }
  38              		.loc 1 57 0
  39              		@ sp needed
  56:..\..\u8g2\csrc/u8x8_display.c ****       u8x8->x_offset = u8x8->display_info->default_x_offset;
  40              		.loc 1 56 0
  41 0004 8377     		strb	r3, [r0, #30]
  42              		.loc 1 57 0
  43 0006 7047     		bx	lr
  44              		.cfi_endproc
  45              	.LFE0:
  46              		.size	u8x8_d_helper_display_setup_memory, .-u8x8_d_helper_display_setup_memory
  47              		.section	.text.u8x8_d_helper_display_init,"ax",%progbits
  48              		.align	1
  49              		.global	u8x8_d_helper_display_init
  50              		.code	16
  51              		.thumb_func
  52              		.type	u8x8_d_helper_display_init, %function
  53              	u8x8_d_helper_display_init:
  54              	.LFB1:
  58:..\..\u8g2\csrc/u8x8_display.c **** 
  59:..\..\u8g2\csrc/u8x8_display.c **** /*
ARM GAS  C:\Users\gjl\AppData\Local\Temp\ccF1NG7a.s 			page 3


  60:..\..\u8g2\csrc/u8x8_display.c ****   this is a helper function for the U8X8_MSG_DISPLAY_INIT function.
  61:..\..\u8g2\csrc/u8x8_display.c ****   It can be called within the display callback function to carry out the usual standard tasks.
  62:..\..\u8g2\csrc/u8x8_display.c ****   
  63:..\..\u8g2\csrc/u8x8_display.c **** */
  64:..\..\u8g2\csrc/u8x8_display.c **** void u8x8_d_helper_display_init(u8x8_t *u8x8)
  65:..\..\u8g2\csrc/u8x8_display.c **** {
  55              		.loc 1 65 0
  56              		.cfi_startproc
  57              		@ args = 0, pretend = 0, frame = 0
  58              		@ frame_needed = 0, uses_anonymous_args = 0
  59              	.LVL1:
  66:..\..\u8g2\csrc/u8x8_display.c ****       /* 2) apply port directions to the GPIO lines and apply default values for the IO lines*/
  67:..\..\u8g2\csrc/u8x8_display.c ****       u8x8_gpio_Init(u8x8);
  60              		.loc 1 67 0
  61 0000 0023     		movs	r3, #0
  65:..\..\u8g2\csrc/u8x8_display.c ****       /* 2) apply port directions to the GPIO lines and apply default values for the IO lines*/
  62              		.loc 1 65 0
  63 0002 70B5     		push	{r4, r5, r6, lr}
  64              		.cfi_def_cfa_offset 16
  65              		.cfi_offset 4, -16
  66              		.cfi_offset 5, -12
  67              		.cfi_offset 6, -8
  68              		.cfi_offset 14, -4
  69              		.loc 1 67 0
  70 0004 1A00     		movs	r2, r3
  71 0006 2821     		movs	r1, #40
  72 0008 4569     		ldr	r5, [r0, #20]
  65:..\..\u8g2\csrc/u8x8_display.c ****       /* 2) apply port directions to the GPIO lines and apply default values for the IO lines*/
  73              		.loc 1 65 0
  74 000a 0400     		movs	r4, r0
  75              		.loc 1 67 0
  76 000c A847     		blx	r5
  77              	.LVL2:
  68:..\..\u8g2\csrc/u8x8_display.c ****       u8x8_cad_Init(u8x8);
  78              		.loc 1 68 0
  79 000e 0023     		movs	r3, #0
  80 0010 E568     		ldr	r5, [r4, #12]
  81 0012 1A00     		movs	r2, r3
  82 0014 1421     		movs	r1, #20
  83 0016 2000     		movs	r0, r4
  84 0018 A847     		blx	r5
  85              	.LVL3:
  69:..\..\u8g2\csrc/u8x8_display.c **** 
  70:..\..\u8g2\csrc/u8x8_display.c ****       /* 3) do reset */
  71:..\..\u8g2\csrc/u8x8_display.c ****       u8x8_gpio_SetReset(u8x8, 1);
  86              		.loc 1 71 0
  87 001a 2000     		movs	r0, r4
  88 001c 0122     		movs	r2, #1
  89 001e 4B21     		movs	r1, #75
  90 0020 FFF7FEFF 		bl	u8x8_gpio_call
  91              	.LVL4:
  72:..\..\u8g2\csrc/u8x8_display.c ****       u8x8_gpio_Delay(u8x8, U8X8_MSG_DELAY_MILLI, u8x8->display_info->reset_pulse_width_ms);
  92              		.loc 1 72 0
  93 0024 2368     		ldr	r3, [r4]
  94 0026 2000     		movs	r0, r4
  95 0028 1A79     		ldrb	r2, [r3, #4]
  96 002a 2921     		movs	r1, #41
ARM GAS  C:\Users\gjl\AppData\Local\Temp\ccF1NG7a.s 			page 4


  97 002c FFF7FEFF 		bl	u8x8_gpio_call
  98              	.LVL5:
  73:..\..\u8g2\csrc/u8x8_display.c ****       u8x8_gpio_SetReset(u8x8, 0);
  99              		.loc 1 73 0
 100 0030 2000     		movs	r0, r4
 101 0032 0022     		movs	r2, #0
 102 0034 4B21     		movs	r1, #75
 103 0036 FFF7FEFF 		bl	u8x8_gpio_call
 104              	.LVL6:
  74:..\..\u8g2\csrc/u8x8_display.c ****       u8x8_gpio_Delay(u8x8, U8X8_MSG_DELAY_MILLI, u8x8->display_info->reset_pulse_width_ms);
 105              		.loc 1 74 0
 106 003a 2368     		ldr	r3, [r4]
 107 003c 2000     		movs	r0, r4
 108 003e 1A79     		ldrb	r2, [r3, #4]
 109 0040 2921     		movs	r1, #41
 110 0042 FFF7FEFF 		bl	u8x8_gpio_call
 111              	.LVL7:
  75:..\..\u8g2\csrc/u8x8_display.c ****       u8x8_gpio_SetReset(u8x8, 1);
 112              		.loc 1 75 0
 113 0046 2000     		movs	r0, r4
 114 0048 0122     		movs	r2, #1
 115 004a 4B21     		movs	r1, #75
 116 004c FFF7FEFF 		bl	u8x8_gpio_call
 117              	.LVL8:
  76:..\..\u8g2\csrc/u8x8_display.c ****       u8x8_gpio_Delay(u8x8, U8X8_MSG_DELAY_MILLI, u8x8->display_info->post_reset_wait_ms);
 118              		.loc 1 76 0
 119 0050 2368     		ldr	r3, [r4]
 120 0052 2921     		movs	r1, #41
 121 0054 5A79     		ldrb	r2, [r3, #5]
 122 0056 2000     		movs	r0, r4
 123 0058 FFF7FEFF 		bl	u8x8_gpio_call
 124              	.LVL9:
  77:..\..\u8g2\csrc/u8x8_display.c **** }    
 125              		.loc 1 77 0
 126              		@ sp needed
 127              	.LVL10:
 128 005c 70BD     		pop	{r4, r5, r6, pc}
 129              		.cfi_endproc
 130              	.LFE1:
 131              		.size	u8x8_d_helper_display_init, .-u8x8_d_helper_display_init
 132              		.section	.text.u8x8_DrawTile,"ax",%progbits
 133              		.align	1
 134              		.global	u8x8_DrawTile
 135              		.code	16
 136              		.thumb_func
 137              		.type	u8x8_DrawTile, %function
 138              	u8x8_DrawTile:
 139              	.LFB2:
  78:..\..\u8g2\csrc/u8x8_display.c **** 
  79:..\..\u8g2\csrc/u8x8_display.c **** /*==========================================*/
  80:..\..\u8g2\csrc/u8x8_display.c **** /* official functions */
  81:..\..\u8g2\csrc/u8x8_display.c **** 
  82:..\..\u8g2\csrc/u8x8_display.c **** uint8_t u8x8_DrawTile(u8x8_t *u8x8, uint8_t x, uint8_t y, uint8_t cnt, uint8_t *tile_ptr)
  83:..\..\u8g2\csrc/u8x8_display.c **** {
 140              		.loc 1 83 0
 141              		.cfi_startproc
 142              		@ args = 4, pretend = 0, frame = 8
ARM GAS  C:\Users\gjl\AppData\Local\Temp\ccF1NG7a.s 			page 5


 143              		@ frame_needed = 0, uses_anonymous_args = 0
 144              	.LVL11:
 145 0000 13B5     		push	{r0, r1, r4, lr}
 146              		.cfi_def_cfa_offset 16
 147              		.cfi_offset 0, -16
 148              		.cfi_offset 1, -12
 149              		.cfi_offset 4, -8
 150              		.cfi_offset 14, -4
  84:..\..\u8g2\csrc/u8x8_display.c ****   u8x8_tile_t tile;
  85:..\..\u8g2\csrc/u8x8_display.c ****   tile.x_pos = x;
 151              		.loc 1 85 0
 152 0002 6C46     		mov	r4, sp
  86:..\..\u8g2\csrc/u8x8_display.c ****   tile.y_pos = y;
  87:..\..\u8g2\csrc/u8x8_display.c ****   tile.cnt = cnt;
 153              		.loc 1 87 0
 154 0004 2371     		strb	r3, [r4, #4]
  88:..\..\u8g2\csrc/u8x8_display.c ****   tile.tile_ptr = tile_ptr;
 155              		.loc 1 88 0
 156 0006 049B     		ldr	r3, [sp, #16]
 157              	.LVL12:
  85:..\..\u8g2\csrc/u8x8_display.c ****   tile.y_pos = y;
 158              		.loc 1 85 0
 159 0008 6171     		strb	r1, [r4, #5]
  86:..\..\u8g2\csrc/u8x8_display.c ****   tile.y_pos = y;
 160              		.loc 1 86 0
 161 000a A271     		strb	r2, [r4, #6]
 162              		.loc 1 88 0
 163 000c 0093     		str	r3, [sp]
  89:..\..\u8g2\csrc/u8x8_display.c ****   return u8x8->display_cb(u8x8, U8X8_MSG_DISPLAY_DRAW_TILE, 1, (void *)&tile);
 164              		.loc 1 89 0
 165 000e 8468     		ldr	r4, [r0, #8]
 166              	.LVL13:
 167 0010 6B46     		mov	r3, sp
 168 0012 0122     		movs	r2, #1
 169              	.LVL14:
 170 0014 0F21     		movs	r1, #15
 171              	.LVL15:
 172 0016 A047     		blx	r4
 173              	.LVL16:
  90:..\..\u8g2\csrc/u8x8_display.c **** }
 174              		.loc 1 90 0
 175              		@ sp needed
 176 0018 16BD     		pop	{r1, r2, r4, pc}
 177              		.cfi_endproc
 178              	.LFE2:
 179              		.size	u8x8_DrawTile, .-u8x8_DrawTile
 180              		.section	.text.u8x8_SetupMemory,"ax",%progbits
 181              		.align	1
 182              		.global	u8x8_SetupMemory
 183              		.code	16
 184              		.thumb_func
 185              		.type	u8x8_SetupMemory, %function
 186              	u8x8_SetupMemory:
 187              	.LFB3:
  91:..\..\u8g2\csrc/u8x8_display.c **** 
  92:..\..\u8g2\csrc/u8x8_display.c **** /* should be implemented as macro */
  93:..\..\u8g2\csrc/u8x8_display.c **** void u8x8_SetupMemory(u8x8_t *u8x8)
ARM GAS  C:\Users\gjl\AppData\Local\Temp\ccF1NG7a.s 			page 6


  94:..\..\u8g2\csrc/u8x8_display.c **** {
 188              		.loc 1 94 0
 189              		.cfi_startproc
 190              		@ args = 0, pretend = 0, frame = 0
 191              		@ frame_needed = 0, uses_anonymous_args = 0
 192              	.LVL17:
  95:..\..\u8g2\csrc/u8x8_display.c ****   u8x8->display_cb(u8x8, U8X8_MSG_DISPLAY_SETUP_MEMORY, 0, NULL);  
 193              		.loc 1 95 0
 194 0000 0023     		movs	r3, #0
  94:..\..\u8g2\csrc/u8x8_display.c ****   u8x8->display_cb(u8x8, U8X8_MSG_DISPLAY_SETUP_MEMORY, 0, NULL);  
 195              		.loc 1 94 0
 196 0002 10B5     		push	{r4, lr}
 197              		.cfi_def_cfa_offset 8
 198              		.cfi_offset 4, -8
 199              		.cfi_offset 14, -4
 200              		.loc 1 95 0
 201 0004 1A00     		movs	r2, r3
 202 0006 8468     		ldr	r4, [r0, #8]
 203 0008 0921     		movs	r1, #9
 204 000a A047     		blx	r4
 205              	.LVL18:
  96:..\..\u8g2\csrc/u8x8_display.c **** }
 206              		.loc 1 96 0
 207              		@ sp needed
 208 000c 10BD     		pop	{r4, pc}
 209              		.cfi_endproc
 210              	.LFE3:
 211              		.size	u8x8_SetupMemory, .-u8x8_SetupMemory
 212              		.section	.text.u8x8_InitDisplay,"ax",%progbits
 213              		.align	1
 214              		.global	u8x8_InitDisplay
 215              		.code	16
 216              		.thumb_func
 217              		.type	u8x8_InitDisplay, %function
 218              	u8x8_InitDisplay:
 219              	.LFB4:
  97:..\..\u8g2\csrc/u8x8_display.c **** 
  98:..\..\u8g2\csrc/u8x8_display.c **** void u8x8_InitDisplay(u8x8_t *u8x8)
  99:..\..\u8g2\csrc/u8x8_display.c **** {
 220              		.loc 1 99 0
 221              		.cfi_startproc
 222              		@ args = 0, pretend = 0, frame = 0
 223              		@ frame_needed = 0, uses_anonymous_args = 0
 224              	.LVL19:
 100:..\..\u8g2\csrc/u8x8_display.c ****   u8x8->display_cb(u8x8, U8X8_MSG_DISPLAY_INIT, 0, NULL);  
 225              		.loc 1 100 0
 226 0000 0023     		movs	r3, #0
  99:..\..\u8g2\csrc/u8x8_display.c ****   u8x8->display_cb(u8x8, U8X8_MSG_DISPLAY_INIT, 0, NULL);  
 227              		.loc 1 99 0
 228 0002 10B5     		push	{r4, lr}
 229              		.cfi_def_cfa_offset 8
 230              		.cfi_offset 4, -8
 231              		.cfi_offset 14, -4
 232              		.loc 1 100 0
 233 0004 1A00     		movs	r2, r3
 234 0006 8468     		ldr	r4, [r0, #8]
 235 0008 0A21     		movs	r1, #10
ARM GAS  C:\Users\gjl\AppData\Local\Temp\ccF1NG7a.s 			page 7


 236 000a A047     		blx	r4
 237              	.LVL20:
 101:..\..\u8g2\csrc/u8x8_display.c **** }
 238              		.loc 1 101 0
 239              		@ sp needed
 240 000c 10BD     		pop	{r4, pc}
 241              		.cfi_endproc
 242              	.LFE4:
 243              		.size	u8x8_InitDisplay, .-u8x8_InitDisplay
 244              		.section	.text.u8x8_SetPowerSave,"ax",%progbits
 245              		.align	1
 246              		.global	u8x8_SetPowerSave
 247              		.code	16
 248              		.thumb_func
 249              		.type	u8x8_SetPowerSave, %function
 250              	u8x8_SetPowerSave:
 251              	.LFB5:
 102:..\..\u8g2\csrc/u8x8_display.c **** 
 103:..\..\u8g2\csrc/u8x8_display.c **** void u8x8_SetPowerSave(u8x8_t *u8x8, uint8_t is_enable)
 104:..\..\u8g2\csrc/u8x8_display.c **** {
 252              		.loc 1 104 0
 253              		.cfi_startproc
 254              		@ args = 0, pretend = 0, frame = 0
 255              		@ frame_needed = 0, uses_anonymous_args = 0
 256              	.LVL21:
 257 0000 10B5     		push	{r4, lr}
 258              		.cfi_def_cfa_offset 8
 259              		.cfi_offset 4, -8
 260              		.cfi_offset 14, -4
 261              		.loc 1 104 0
 262 0002 0A00     		movs	r2, r1
 105:..\..\u8g2\csrc/u8x8_display.c ****   u8x8->display_cb(u8x8, U8X8_MSG_DISPLAY_SET_POWER_SAVE, is_enable, NULL);  
 263              		.loc 1 105 0
 264 0004 8468     		ldr	r4, [r0, #8]
 265 0006 0023     		movs	r3, #0
 266 0008 0B21     		movs	r1, #11
 267              	.LVL22:
 268 000a A047     		blx	r4
 269              	.LVL23:
 106:..\..\u8g2\csrc/u8x8_display.c **** }
 270              		.loc 1 106 0
 271              		@ sp needed
 272 000c 10BD     		pop	{r4, pc}
 273              		.cfi_endproc
 274              	.LFE5:
 275              		.size	u8x8_SetPowerSave, .-u8x8_SetPowerSave
 276              		.section	.text.u8x8_SetFlipMode,"ax",%progbits
 277              		.align	1
 278              		.global	u8x8_SetFlipMode
 279              		.code	16
 280              		.thumb_func
 281              		.type	u8x8_SetFlipMode, %function
 282              	u8x8_SetFlipMode:
 283              	.LFB6:
 107:..\..\u8g2\csrc/u8x8_display.c **** 
 108:..\..\u8g2\csrc/u8x8_display.c **** void u8x8_SetFlipMode(u8x8_t *u8x8, uint8_t mode)
 109:..\..\u8g2\csrc/u8x8_display.c **** {
ARM GAS  C:\Users\gjl\AppData\Local\Temp\ccF1NG7a.s 			page 8


 284              		.loc 1 109 0
 285              		.cfi_startproc
 286              		@ args = 0, pretend = 0, frame = 0
 287              		@ frame_needed = 0, uses_anonymous_args = 0
 288              	.LVL24:
 289 0000 10B5     		push	{r4, lr}
 290              		.cfi_def_cfa_offset 8
 291              		.cfi_offset 4, -8
 292              		.cfi_offset 14, -4
 293              		.loc 1 109 0
 294 0002 0A00     		movs	r2, r1
 110:..\..\u8g2\csrc/u8x8_display.c ****   u8x8->display_cb(u8x8, U8X8_MSG_DISPLAY_SET_FLIP_MODE, mode, NULL);  
 295              		.loc 1 110 0
 296 0004 8468     		ldr	r4, [r0, #8]
 297 0006 0023     		movs	r3, #0
 298 0008 0D21     		movs	r1, #13
 299              	.LVL25:
 300 000a A047     		blx	r4
 301              	.LVL26:
 111:..\..\u8g2\csrc/u8x8_display.c **** }
 302              		.loc 1 111 0
 303              		@ sp needed
 304 000c 10BD     		pop	{r4, pc}
 305              		.cfi_endproc
 306              	.LFE6:
 307              		.size	u8x8_SetFlipMode, .-u8x8_SetFlipMode
 308              		.section	.text.u8x8_SetContrast,"ax",%progbits
 309              		.align	1
 310              		.global	u8x8_SetContrast
 311              		.code	16
 312              		.thumb_func
 313              		.type	u8x8_SetContrast, %function
 314              	u8x8_SetContrast:
 315              	.LFB7:
 112:..\..\u8g2\csrc/u8x8_display.c **** 
 113:..\..\u8g2\csrc/u8x8_display.c **** void u8x8_SetContrast(u8x8_t *u8x8, uint8_t value)
 114:..\..\u8g2\csrc/u8x8_display.c **** {
 316              		.loc 1 114 0
 317              		.cfi_startproc
 318              		@ args = 0, pretend = 0, frame = 0
 319              		@ frame_needed = 0, uses_anonymous_args = 0
 320              	.LVL27:
 321 0000 10B5     		push	{r4, lr}
 322              		.cfi_def_cfa_offset 8
 323              		.cfi_offset 4, -8
 324              		.cfi_offset 14, -4
 325              		.loc 1 114 0
 326 0002 0A00     		movs	r2, r1
 115:..\..\u8g2\csrc/u8x8_display.c ****   u8x8->display_cb(u8x8, U8X8_MSG_DISPLAY_SET_CONTRAST, value, NULL);  
 327              		.loc 1 115 0
 328 0004 8468     		ldr	r4, [r0, #8]
 329 0006 0023     		movs	r3, #0
 330 0008 0E21     		movs	r1, #14
 331              	.LVL28:
 332 000a A047     		blx	r4
 333              	.LVL29:
 116:..\..\u8g2\csrc/u8x8_display.c **** }
ARM GAS  C:\Users\gjl\AppData\Local\Temp\ccF1NG7a.s 			page 9


 334              		.loc 1 116 0
 335              		@ sp needed
 336 000c 10BD     		pop	{r4, pc}
 337              		.cfi_endproc
 338              	.LFE7:
 339              		.size	u8x8_SetContrast, .-u8x8_SetContrast
 340              		.section	.text.u8x8_RefreshDisplay,"ax",%progbits
 341              		.align	1
 342              		.global	u8x8_RefreshDisplay
 343              		.code	16
 344              		.thumb_func
 345              		.type	u8x8_RefreshDisplay, %function
 346              	u8x8_RefreshDisplay:
 347              	.LFB8:
 117:..\..\u8g2\csrc/u8x8_display.c **** 
 118:..\..\u8g2\csrc/u8x8_display.c **** void u8x8_RefreshDisplay(u8x8_t *u8x8)
 119:..\..\u8g2\csrc/u8x8_display.c **** {
 348              		.loc 1 119 0
 349              		.cfi_startproc
 350              		@ args = 0, pretend = 0, frame = 0
 351              		@ frame_needed = 0, uses_anonymous_args = 0
 352              	.LVL30:
 120:..\..\u8g2\csrc/u8x8_display.c ****   u8x8->display_cb(u8x8, U8X8_MSG_DISPLAY_REFRESH, 0, NULL);  
 353              		.loc 1 120 0
 354 0000 0023     		movs	r3, #0
 119:..\..\u8g2\csrc/u8x8_display.c ****   u8x8->display_cb(u8x8, U8X8_MSG_DISPLAY_REFRESH, 0, NULL);  
 355              		.loc 1 119 0
 356 0002 10B5     		push	{r4, lr}
 357              		.cfi_def_cfa_offset 8
 358              		.cfi_offset 4, -8
 359              		.cfi_offset 14, -4
 360              		.loc 1 120 0
 361 0004 1A00     		movs	r2, r3
 362 0006 8468     		ldr	r4, [r0, #8]
 363 0008 1021     		movs	r1, #16
 364 000a A047     		blx	r4
 365              	.LVL31:
 121:..\..\u8g2\csrc/u8x8_display.c **** }
 366              		.loc 1 121 0
 367              		@ sp needed
 368 000c 10BD     		pop	{r4, pc}
 369              		.cfi_endproc
 370              	.LFE8:
 371              		.size	u8x8_RefreshDisplay, .-u8x8_RefreshDisplay
 372              		.section	.text.u8x8_ClearDisplayWithTile,"ax",%progbits
 373              		.align	1
 374              		.global	u8x8_ClearDisplayWithTile
 375              		.code	16
 376              		.thumb_func
 377              		.type	u8x8_ClearDisplayWithTile, %function
 378              	u8x8_ClearDisplayWithTile:
 379              	.LFB9:
 122:..\..\u8g2\csrc/u8x8_display.c **** 
 123:..\..\u8g2\csrc/u8x8_display.c **** void u8x8_ClearDisplayWithTile(u8x8_t *u8x8, const uint8_t *buf)
 124:..\..\u8g2\csrc/u8x8_display.c **** {
 380              		.loc 1 124 0
 381              		.cfi_startproc
ARM GAS  C:\Users\gjl\AppData\Local\Temp\ccF1NG7a.s 			page 10


 382              		@ args = 0, pretend = 0, frame = 8
 383              		@ frame_needed = 0, uses_anonymous_args = 0
 384              	.LVL32:
 385 0000 73B5     		push	{r0, r1, r4, r5, r6, lr}
 386              		.cfi_def_cfa_offset 24
 387              		.cfi_offset 0, -24
 388              		.cfi_offset 1, -20
 389              		.cfi_offset 4, -16
 390              		.cfi_offset 5, -12
 391              		.cfi_offset 6, -8
 392              		.cfi_offset 14, -4
 125:..\..\u8g2\csrc/u8x8_display.c ****   u8x8_tile_t tile;
 126:..\..\u8g2\csrc/u8x8_display.c ****   uint8_t h;
 127:..\..\u8g2\csrc/u8x8_display.c **** 
 128:..\..\u8g2\csrc/u8x8_display.c ****   tile.x_pos = 0;
 393              		.loc 1 128 0
 394 0002 0023     		movs	r3, #0
 395 0004 6A46     		mov	r2, sp
 124:..\..\u8g2\csrc/u8x8_display.c ****   u8x8_tile_t tile;
 396              		.loc 1 124 0
 397 0006 0400     		movs	r4, r0
 398              		.loc 1 128 0
 399 0008 5371     		strb	r3, [r2, #5]
 129:..\..\u8g2\csrc/u8x8_display.c ****   tile.cnt = 1;
 400              		.loc 1 129 0
 401 000a 6846     		mov	r0, sp
 402              	.LVL33:
 403 000c 0122     		movs	r2, #1
 404 000e 0271     		strb	r2, [r0, #4]
 130:..\..\u8g2\csrc/u8x8_display.c ****   tile.tile_ptr = (uint8_t *)buf;		/* tile_ptr should be const, but isn't */
 131:..\..\u8g2\csrc/u8x8_display.c ****   
 132:..\..\u8g2\csrc/u8x8_display.c ****   h = u8x8->display_info->tile_height;
 405              		.loc 1 132 0
 406 0010 2268     		ldr	r2, [r4]
 130:..\..\u8g2\csrc/u8x8_display.c ****   tile.tile_ptr = (uint8_t *)buf;		/* tile_ptr should be const, but isn't */
 407              		.loc 1 130 0
 408 0012 0091     		str	r1, [sp]
 409              		.loc 1 132 0
 410 0014 557C     		ldrb	r5, [r2, #17]
 411              	.LVL34:
 133:..\..\u8g2\csrc/u8x8_display.c ****   tile.y_pos = 0;
 412              		.loc 1 133 0
 413 0016 8371     		strb	r3, [r0, #6]
 414              	.LVL35:
 415              	.L11:
 134:..\..\u8g2\csrc/u8x8_display.c ****   do
 135:..\..\u8g2\csrc/u8x8_display.c ****   {
 136:..\..\u8g2\csrc/u8x8_display.c ****     u8x8->display_cb(u8x8, U8X8_MSG_DISPLAY_DRAW_TILE, u8x8->display_info->tile_width, (void *)&til
 416              		.loc 1 136 0 discriminator 1
 417 0018 2368     		ldr	r3, [r4]
 418 001a 0F21     		movs	r1, #15
 419 001c 1A7C     		ldrb	r2, [r3, #16]
 420 001e 2000     		movs	r0, r4
 421 0020 6B46     		mov	r3, sp
 422 0022 A668     		ldr	r6, [r4, #8]
 423 0024 B047     		blx	r6
 424              	.LVL36:
ARM GAS  C:\Users\gjl\AppData\Local\Temp\ccF1NG7a.s 			page 11


 137:..\..\u8g2\csrc/u8x8_display.c ****     tile.y_pos++;
 425              		.loc 1 137 0 discriminator 1
 426 0026 6B46     		mov	r3, sp
 427 0028 6A46     		mov	r2, sp
 428 002a 9B79     		ldrb	r3, [r3, #6]
 429 002c 0133     		adds	r3, r3, #1
 430 002e DBB2     		uxtb	r3, r3
 431 0030 9371     		strb	r3, [r2, #6]
 138:..\..\u8g2\csrc/u8x8_display.c ****   } while( tile.y_pos < h );
 432              		.loc 1 138 0 discriminator 1
 433 0032 9D42     		cmp	r5, r3
 434 0034 F0D8     		bhi	.L11
 139:..\..\u8g2\csrc/u8x8_display.c **** }
 435              		.loc 1 139 0
 436              		@ sp needed
 437              	.LVL37:
 438              	.LVL38:
 439 0036 73BD     		pop	{r0, r1, r4, r5, r6, pc}
 440              		.cfi_endproc
 441              	.LFE9:
 442              		.size	u8x8_ClearDisplayWithTile, .-u8x8_ClearDisplayWithTile
 443              		.section	.text.u8x8_ClearDisplay,"ax",%progbits
 444              		.align	1
 445              		.global	u8x8_ClearDisplay
 446              		.code	16
 447              		.thumb_func
 448              		.type	u8x8_ClearDisplay, %function
 449              	u8x8_ClearDisplay:
 450              	.LFB10:
 140:..\..\u8g2\csrc/u8x8_display.c **** 
 141:..\..\u8g2\csrc/u8x8_display.c **** void u8x8_ClearDisplay(u8x8_t *u8x8)
 142:..\..\u8g2\csrc/u8x8_display.c **** {
 451              		.loc 1 142 0
 452              		.cfi_startproc
 453              		@ args = 0, pretend = 0, frame = 8
 454              		@ frame_needed = 0, uses_anonymous_args = 0
 455              	.LVL39:
 456 0000 13B5     		push	{r0, r1, r4, lr}
 457              		.cfi_def_cfa_offset 16
 458              		.cfi_offset 0, -16
 459              		.cfi_offset 1, -12
 460              		.cfi_offset 4, -8
 461              		.cfi_offset 14, -4
 462              		.loc 1 142 0
 463 0002 0400     		movs	r4, r0
 143:..\..\u8g2\csrc/u8x8_display.c ****   uint8_t buf[8] = { 0, 0, 0, 0, 0, 0, 0, 0 };
 464              		.loc 1 143 0
 465 0004 0822     		movs	r2, #8
 466 0006 0021     		movs	r1, #0
 467 0008 6846     		mov	r0, sp
 468              	.LVL40:
 469 000a FFF7FEFF 		bl	memset
 470              	.LVL41:
 144:..\..\u8g2\csrc/u8x8_display.c ****   u8x8_ClearDisplayWithTile(u8x8, buf);
 471              		.loc 1 144 0
 472 000e 6946     		mov	r1, sp
 473 0010 2000     		movs	r0, r4
ARM GAS  C:\Users\gjl\AppData\Local\Temp\ccF1NG7a.s 			page 12


 474 0012 FFF7FEFF 		bl	u8x8_ClearDisplayWithTile
 475              	.LVL42:
 145:..\..\u8g2\csrc/u8x8_display.c **** }
 476              		.loc 1 145 0
 477              		@ sp needed
 478              	.LVL43:
 479 0016 13BD     		pop	{r0, r1, r4, pc}
 480              		.cfi_endproc
 481              	.LFE10:
 482              		.size	u8x8_ClearDisplay, .-u8x8_ClearDisplay
 483              		.section	.text.u8x8_FillDisplay,"ax",%progbits
 484              		.align	1
 485              		.global	u8x8_FillDisplay
 486              		.code	16
 487              		.thumb_func
 488              		.type	u8x8_FillDisplay, %function
 489              	u8x8_FillDisplay:
 490              	.LFB11:
 146:..\..\u8g2\csrc/u8x8_display.c **** 
 147:..\..\u8g2\csrc/u8x8_display.c **** void u8x8_FillDisplay(u8x8_t *u8x8)
 148:..\..\u8g2\csrc/u8x8_display.c **** {
 491              		.loc 1 148 0
 492              		.cfi_startproc
 493              		@ args = 0, pretend = 0, frame = 8
 494              		@ frame_needed = 0, uses_anonymous_args = 0
 495              	.LVL44:
 496 0000 13B5     		push	{r0, r1, r4, lr}
 497              		.cfi_def_cfa_offset 16
 498              		.cfi_offset 0, -16
 499              		.cfi_offset 1, -12
 500              		.cfi_offset 4, -8
 501              		.cfi_offset 14, -4
 502              		.loc 1 148 0
 503 0002 0400     		movs	r4, r0
 149:..\..\u8g2\csrc/u8x8_display.c ****   uint8_t buf[8] = { 255, 255, 255, 255, 255, 255, 255, 255 };
 504              		.loc 1 149 0
 505 0004 0822     		movs	r2, #8
 506 0006 0449     		ldr	r1, .L16
 507 0008 6846     		mov	r0, sp
 508              	.LVL45:
 509 000a FFF7FEFF 		bl	memcpy
 510              	.LVL46:
 150:..\..\u8g2\csrc/u8x8_display.c ****   u8x8_ClearDisplayWithTile(u8x8, buf);
 511              		.loc 1 150 0
 512 000e 6946     		mov	r1, sp
 513 0010 2000     		movs	r0, r4
 514 0012 FFF7FEFF 		bl	u8x8_ClearDisplayWithTile
 515              	.LVL47:
 151:..\..\u8g2\csrc/u8x8_display.c **** }
 516              		.loc 1 151 0
 517              		@ sp needed
 518              	.LVL48:
 519 0016 13BD     		pop	{r0, r1, r4, pc}
 520              	.L17:
 521              		.align	2
 522              	.L16:
 523 0018 00000000 		.word	.LANCHOR0
ARM GAS  C:\Users\gjl\AppData\Local\Temp\ccF1NG7a.s 			page 13


 524              		.cfi_endproc
 525              	.LFE11:
 526              		.size	u8x8_FillDisplay, .-u8x8_FillDisplay
 527              		.section	.rodata
 528              		.set	.LANCHOR0,. + 0
 529              	.LC0:
 530 0000 FF       		.byte	-1
 531 0001 FF       		.byte	-1
 532 0002 FF       		.byte	-1
 533 0003 FF       		.byte	-1
 534 0004 FF       		.byte	-1
 535 0005 FF       		.byte	-1
 536 0006 FF       		.byte	-1
 537 0007 FF       		.byte	-1
 538              		.text
 539              	.Letext0:
 540              		.file 2 "c:\\program files (x86)\\cypress\\psoc creator\\4.1\\psoc creator\\import\\gnu\\arm\\5.4.
 541              		.file 3 "c:\\program files (x86)\\cypress\\psoc creator\\4.1\\psoc creator\\import\\gnu\\arm\\5.4.
 542              		.file 4 "..\\..\\u8g2\\csrc\\u8x8.h"