ARM GAS  C:\Users\Alan\AppData\Local\Temp\cckusPCk.s 			page 1


   1              		.syntax unified
   2              		.cpu cortex-m0
   3              		.fpu softvfp
   4              		.eabi_attribute 20, 1
   5              		.eabi_attribute 21, 1
   6              		.eabi_attribute 23, 3
   7              		.eabi_attribute 24, 1
   8              		.eabi_attribute 25, 1
   9              		.eabi_attribute 26, 1
  10              		.eabi_attribute 30, 4
  11              		.eabi_attribute 34, 0
  12              		.eabi_attribute 18, 4
  13              		.thumb
  14              		.syntax unified
  15              		.file	"u8x8_d_a2printer.c"
  16              		.text
  17              	.Ltext0:
  18              		.cfi_sections	.debug_frame
  19              		.section	.text.get_delay_in_milliseconds,"ax",%progbits
  20              		.align	1
  21              		.global	get_delay_in_milliseconds
  22              		.code	16
  23              		.thumb_func
  24              		.type	get_delay_in_milliseconds, %function
  25              	get_delay_in_milliseconds:
  26              	.LFB0:
  27              		.file 1 "..\\..\\u8g2\\csrc\\u8x8_d_a2printer.c"
   1:..\..\u8g2\csrc/u8x8_d_a2printer.c **** /*
   2:..\..\u8g2\csrc/u8x8_d_a2printer.c **** 
   3:..\..\u8g2\csrc/u8x8_d_a2printer.c ****   u8x8_d_a2printer.c
   4:..\..\u8g2\csrc/u8x8_d_a2printer.c ****   
   5:..\..\u8g2\csrc/u8x8_d_a2printer.c ****   Universal 8bit Graphics Library (https://github.com/olikraus/u8g2/)
   6:..\..\u8g2\csrc/u8x8_d_a2printer.c **** 
   7:..\..\u8g2\csrc/u8x8_d_a2printer.c ****   Copyright (c) 2016, olikraus@gmail.com
   8:..\..\u8g2\csrc/u8x8_d_a2printer.c ****   All rights reserved.
   9:..\..\u8g2\csrc/u8x8_d_a2printer.c **** 
  10:..\..\u8g2\csrc/u8x8_d_a2printer.c ****   Redistribution and use in source and binary forms, with or without modification, 
  11:..\..\u8g2\csrc/u8x8_d_a2printer.c ****   are permitted provided that the following conditions are met:
  12:..\..\u8g2\csrc/u8x8_d_a2printer.c **** 
  13:..\..\u8g2\csrc/u8x8_d_a2printer.c ****   * Redistributions of source code must retain the above copyright notice, this list 
  14:..\..\u8g2\csrc/u8x8_d_a2printer.c ****     of conditions and the following disclaimer.
  15:..\..\u8g2\csrc/u8x8_d_a2printer.c ****     
  16:..\..\u8g2\csrc/u8x8_d_a2printer.c ****   * Redistributions in binary form must reproduce the above copyright notice, this 
  17:..\..\u8g2\csrc/u8x8_d_a2printer.c ****     list of conditions and the following disclaimer in the documentation and/or other 
  18:..\..\u8g2\csrc/u8x8_d_a2printer.c ****     materials provided with the distribution.
  19:..\..\u8g2\csrc/u8x8_d_a2printer.c **** 
  20:..\..\u8g2\csrc/u8x8_d_a2printer.c ****   THIS SOFTWARE IS PROVIDED BY THE COPYRIGHT HOLDERS AND 
  21:..\..\u8g2\csrc/u8x8_d_a2printer.c ****   CONTRIBUTORS "AS IS" AND ANY EXPRESS OR IMPLIED WARRANTIES, 
  22:..\..\u8g2\csrc/u8x8_d_a2printer.c ****   INCLUDING, BUT NOT LIMITED TO, THE IMPLIED WARRANTIES OF 
  23:..\..\u8g2\csrc/u8x8_d_a2printer.c ****   MERCHANTABILITY AND FITNESS FOR A PARTICULAR PURPOSE ARE 
  24:..\..\u8g2\csrc/u8x8_d_a2printer.c ****   DISCLAIMED. IN NO EVENT SHALL THE COPYRIGHT HOLDER OR 
  25:..\..\u8g2\csrc/u8x8_d_a2printer.c ****   CONTRIBUTORS BE LIABLE FOR ANY DIRECT, INDIRECT, INCIDENTAL, 
  26:..\..\u8g2\csrc/u8x8_d_a2printer.c ****   SPECIAL, EXEMPLARY, OR CONSEQUENTIAL DAMAGES (INCLUDING, BUT 
  27:..\..\u8g2\csrc/u8x8_d_a2printer.c ****   NOT LIMITED TO, PROCUREMENT OF SUBSTITUTE GOODS OR SERVICES; 
  28:..\..\u8g2\csrc/u8x8_d_a2printer.c ****   LOSS OF USE, DATA, OR PROFITS; OR BUSINESS INTERRUPTION) HOWEVER 
  29:..\..\u8g2\csrc/u8x8_d_a2printer.c ****   CAUSED AND ON ANY THEORY OF LIABILITY, WHETHER IN CONTRACT, 
  30:..\..\u8g2\csrc/u8x8_d_a2printer.c ****   STRICT LIABILITY, OR TORT (INCLUDING NEGLIGENCE OR OTHERWISE) 
ARM GAS  C:\Users\Alan\AppData\Local\Temp\cckusPCk.s 			page 2


  31:..\..\u8g2\csrc/u8x8_d_a2printer.c ****   ARISING IN ANY WAY OUT OF THE USE OF THIS SOFTWARE, EVEN IF 
  32:..\..\u8g2\csrc/u8x8_d_a2printer.c ****   ADVISED OF THE POSSIBILITY OF SUCH DAMAGE.  
  33:..\..\u8g2\csrc/u8x8_d_a2printer.c **** 
  34:..\..\u8g2\csrc/u8x8_d_a2printer.c **** 
  35:..\..\u8g2\csrc/u8x8_d_a2printer.c ****   Use DC2 bitmap command of the A2 Micro panel termal printer
  36:..\..\u8g2\csrc/u8x8_d_a2printer.c ****   double stroke
  37:..\..\u8g2\csrc/u8x8_d_a2printer.c ****   
  38:..\..\u8g2\csrc/u8x8_d_a2printer.c ****   
  39:..\..\u8g2\csrc/u8x8_d_a2printer.c **** */
  40:..\..\u8g2\csrc/u8x8_d_a2printer.c **** 
  41:..\..\u8g2\csrc/u8x8_d_a2printer.c **** 
  42:..\..\u8g2\csrc/u8x8_d_a2printer.c **** #include "u8x8.h"
  43:..\..\u8g2\csrc/u8x8_d_a2printer.c **** 
  44:..\..\u8g2\csrc/u8x8_d_a2printer.c **** #define LINE_MIN_DELAY_MS 15
  45:..\..\u8g2\csrc/u8x8_d_a2printer.c **** /* higher values improve quality */
  46:..\..\u8g2\csrc/u8x8_d_a2printer.c **** /* however if the value is too high (>=5) then form feed does not work any more */
  47:..\..\u8g2\csrc/u8x8_d_a2printer.c **** #define LINE_EXTRA_8PIXEL_DELAY_MS 3
  48:..\..\u8g2\csrc/u8x8_d_a2printer.c **** /* this must be a power of two and between 1 and 8 */
  49:..\..\u8g2\csrc/u8x8_d_a2printer.c **** /* best quality only with 1 */
  50:..\..\u8g2\csrc/u8x8_d_a2printer.c **** #define NO_OF_LINES_TO_SEND_WITHOUT_DELAY 1
  51:..\..\u8g2\csrc/u8x8_d_a2printer.c **** 
  52:..\..\u8g2\csrc/u8x8_d_a2printer.c **** /* calculates the delay, based on the number of black pixel */
  53:..\..\u8g2\csrc/u8x8_d_a2printer.c **** /* actually only "none-zero" bytes are calculated which is, of course not so accurate, but should b
  54:..\..\u8g2\csrc/u8x8_d_a2printer.c **** uint16_t get_delay_in_milliseconds(uint8_t cnt, uint8_t *data)
  55:..\..\u8g2\csrc/u8x8_d_a2printer.c **** {
  28              		.loc 1 55 0
  29              		.cfi_startproc
  30              		@ args = 0, pretend = 0, frame = 0
  31              		@ frame_needed = 0, uses_anonymous_args = 0
  32              		@ link register save eliminated.
  33              	.LVL0:
  34 0000 0B18     		adds	r3, r1, r0
  56:..\..\u8g2\csrc/u8x8_d_a2printer.c ****   uint8_t i;
  57:..\..\u8g2\csrc/u8x8_d_a2printer.c ****   uint16_t time = LINE_MIN_DELAY_MS;
  35              		.loc 1 57 0
  36 0002 0F20     		movs	r0, #15
  37              	.LVL1:
  38              	.L2:
  58:..\..\u8g2\csrc/u8x8_d_a2printer.c ****   for ( i = 0; i < cnt; i++ )
  39              		.loc 1 58 0 discriminator 1
  40 0004 9942     		cmp	r1, r3
  41 0006 06D0     		beq	.L9
  59:..\..\u8g2\csrc/u8x8_d_a2printer.c ****     if ( data[i] != 0 )
  42              		.loc 1 59 0
  43 0008 0A78     		ldrb	r2, [r1]
  44 000a 002A     		cmp	r2, #0
  45 000c 01D0     		beq	.L3
  60:..\..\u8g2\csrc/u8x8_d_a2printer.c ****       time += LINE_EXTRA_8PIXEL_DELAY_MS;
  46              		.loc 1 60 0
  47 000e 0330     		adds	r0, r0, #3
  48              	.LVL2:
  49 0010 80B2     		uxth	r0, r0
  50              	.LVL3:
  51              	.L3:
  52 0012 0131     		adds	r1, r1, #1
  53              	.LVL4:
  54 0014 F6E7     		b	.L2
ARM GAS  C:\Users\Alan\AppData\Local\Temp\cckusPCk.s 			page 3


  55              	.LVL5:
  56              	.L9:
  61:..\..\u8g2\csrc/u8x8_d_a2printer.c ****   return time;
  62:..\..\u8g2\csrc/u8x8_d_a2printer.c **** }
  57              		.loc 1 62 0
  58              		@ sp needed
  59 0016 7047     		bx	lr
  60              		.cfi_endproc
  61              	.LFE0:
  62              		.size	get_delay_in_milliseconds, .-get_delay_in_milliseconds
  63              		.section	.text.u8x8_d_a2printer_common,"ax",%progbits
  64              		.align	1
  65              		.global	u8x8_d_a2printer_common
  66              		.code	16
  67              		.thumb_func
  68              		.type	u8x8_d_a2printer_common, %function
  69              	u8x8_d_a2printer_common:
  70              	.LFB1:
  63:..\..\u8g2\csrc/u8x8_d_a2printer.c **** 
  64:..\..\u8g2\csrc/u8x8_d_a2printer.c **** uint8_t u8x8_d_a2printer_common(u8x8_t *u8x8, uint8_t msg, U8X8_UNUSED uint8_t arg_int, void *arg_p
  65:..\..\u8g2\csrc/u8x8_d_a2printer.c **** {
  71              		.loc 1 65 0
  72              		.cfi_startproc
  73              		@ args = 0, pretend = 0, frame = 8
  74              		@ frame_needed = 0, uses_anonymous_args = 0
  75              	.LVL6:
  76 0000 F7B5     		push	{r0, r1, r2, r4, r5, r6, r7, lr}
  77              		.cfi_def_cfa_offset 32
  78              		.cfi_offset 0, -32
  79              		.cfi_offset 1, -28
  80              		.cfi_offset 2, -24
  81              		.cfi_offset 4, -20
  82              		.cfi_offset 5, -16
  83              		.cfi_offset 6, -12
  84              		.cfi_offset 7, -8
  85              		.cfi_offset 14, -4
  86              		.loc 1 65 0
  87 0002 0400     		movs	r4, r0
  88 0004 1D00     		movs	r5, r3
  66:..\..\u8g2\csrc/u8x8_d_a2printer.c ****   uint8_t c, i, j;
  67:..\..\u8g2\csrc/u8x8_d_a2printer.c ****   uint8_t *ptr;
  68:..\..\u8g2\csrc/u8x8_d_a2printer.c ****   uint16_t delay_in_milliseconds;
  69:..\..\u8g2\csrc/u8x8_d_a2printer.c ****   switch(msg)
  70:..\..\u8g2\csrc/u8x8_d_a2printer.c ****   {
  71:..\..\u8g2\csrc/u8x8_d_a2printer.c ****     /* U8X8_MSG_DISPLAY_SETUP_MEMORY is handled by the calling function */
  72:..\..\u8g2\csrc/u8x8_d_a2printer.c ****     /*
  73:..\..\u8g2\csrc/u8x8_d_a2printer.c ****     case U8X8_MSG_DISPLAY_SETUP_MEMORY:
  74:..\..\u8g2\csrc/u8x8_d_a2printer.c ****       break;
  75:..\..\u8g2\csrc/u8x8_d_a2printer.c ****     */
  76:..\..\u8g2\csrc/u8x8_d_a2printer.c ****     case U8X8_MSG_DISPLAY_INIT:
  77:..\..\u8g2\csrc/u8x8_d_a2printer.c ****       u8x8_d_helper_display_init(u8x8);
  78:..\..\u8g2\csrc/u8x8_d_a2printer.c ****       // no setup required
  79:..\..\u8g2\csrc/u8x8_d_a2printer.c ****       // u8x8_cad_SendSequence(u8x8, u8x8_d_a2printer_init_seq);
  80:..\..\u8g2\csrc/u8x8_d_a2printer.c ****       break;
  81:..\..\u8g2\csrc/u8x8_d_a2printer.c ****     case U8X8_MSG_DISPLAY_SET_POWER_SAVE:
  82:..\..\u8g2\csrc/u8x8_d_a2printer.c ****       // no powersave 
  83:..\..\u8g2\csrc/u8x8_d_a2printer.c ****       break;
ARM GAS  C:\Users\Alan\AppData\Local\Temp\cckusPCk.s 			page 4


  84:..\..\u8g2\csrc/u8x8_d_a2printer.c ****     case U8X8_MSG_DISPLAY_DRAW_TILE:
  85:..\..\u8g2\csrc/u8x8_d_a2printer.c ****       u8x8_cad_StartTransfer(u8x8);
  86:..\..\u8g2\csrc/u8x8_d_a2printer.c ****       
  87:..\..\u8g2\csrc/u8x8_d_a2printer.c ****       u8x8_cad_SendCmd(u8x8, 27);      /* ESC */
  88:..\..\u8g2\csrc/u8x8_d_a2printer.c ****       u8x8_cad_SendCmd(u8x8, 55 );      /* parameter command */
  89:..\..\u8g2\csrc/u8x8_d_a2printer.c ****       /* increasing the "max printing dots" requires a good power supply, but LINE_EXTRA_8PIXEL_DEL
  90:..\..\u8g2\csrc/u8x8_d_a2printer.c ****       u8x8_cad_SendCmd(u8x8, 0);      /* Max printing dots,Unit(8dots),Default:7(64 dots) 8*(x+1) .
  91:..\..\u8g2\csrc/u8x8_d_a2printer.c ****       u8x8_cad_SendCmd(u8x8, 200);      /* 3-255 Heating time,Unit(10us),Default:80(800us) */
  92:..\..\u8g2\csrc/u8x8_d_a2printer.c ****       u8x8_cad_SendCmd(u8x8, 2);      /* 0-255 Heating interval,Unit(10us),Default:2(20us) ... does
  93:..\..\u8g2\csrc/u8x8_d_a2printer.c ****       
  94:..\..\u8g2\csrc/u8x8_d_a2printer.c ****       //c = ((u8x8_tile_t *)arg_ptr)->cnt;	/* number of tiles */
  95:..\..\u8g2\csrc/u8x8_d_a2printer.c ****       c = u8x8->display_info->tile_width;
  96:..\..\u8g2\csrc/u8x8_d_a2printer.c ****       ptr = ((u8x8_tile_t *)arg_ptr)->tile_ptr;	/* data ptr to the tiles */
  97:..\..\u8g2\csrc/u8x8_d_a2printer.c ****     
  98:..\..\u8g2\csrc/u8x8_d_a2printer.c ****       u8x8_cad_SendCmd(u8x8, 18);      /* DC2 */
  99:..\..\u8g2\csrc/u8x8_d_a2printer.c ****       u8x8_cad_SendCmd(u8x8, 42 );      /* *  */
 100:..\..\u8g2\csrc/u8x8_d_a2printer.c ****       u8x8_cad_SendCmd(u8x8, 8 ); 	/* height */
 101:..\..\u8g2\csrc/u8x8_d_a2printer.c ****       u8x8_cad_SendCmd(u8x8, c ); 	/* c, u8x8->display_info->tile_width */
 102:..\..\u8g2\csrc/u8x8_d_a2printer.c ****       
 103:..\..\u8g2\csrc/u8x8_d_a2printer.c ****       for( j = 0; j < 8 / NO_OF_LINES_TO_SEND_WITHOUT_DELAY; j ++ )
 104:..\..\u8g2\csrc/u8x8_d_a2printer.c ****       {
 105:..\..\u8g2\csrc/u8x8_d_a2printer.c **** 
 106:..\..\u8g2\csrc/u8x8_d_a2printer.c **** 	delay_in_milliseconds = 0;
 107:..\..\u8g2\csrc/u8x8_d_a2printer.c **** 	for( i = 0; i < NO_OF_LINES_TO_SEND_WITHOUT_DELAY; i++ )
 108:..\..\u8g2\csrc/u8x8_d_a2printer.c **** 	{
 109:..\..\u8g2\csrc/u8x8_d_a2printer.c **** 	  u8x8_cad_SendData(u8x8, c, ptr);	/* c, note: SendData can not handle more than 255 bytes, send o
 110:..\..\u8g2\csrc/u8x8_d_a2printer.c **** 	  delay_in_milliseconds += get_delay_in_milliseconds(c, ptr);
 111:..\..\u8g2\csrc/u8x8_d_a2printer.c **** 	  ptr += c;
 112:..\..\u8g2\csrc/u8x8_d_a2printer.c **** 	}
 113:..\..\u8g2\csrc/u8x8_d_a2printer.c **** 	
 114:..\..\u8g2\csrc/u8x8_d_a2printer.c **** 	while( delay_in_milliseconds > 200 )
 115:..\..\u8g2\csrc/u8x8_d_a2printer.c **** 	{
 116:..\..\u8g2\csrc/u8x8_d_a2printer.c **** 	  u8x8->gpio_and_delay_cb(u8x8, U8X8_MSG_DELAY_MILLI, 200, NULL);	
 117:..\..\u8g2\csrc/u8x8_d_a2printer.c **** 	  delay_in_milliseconds -= 200;
 118:..\..\u8g2\csrc/u8x8_d_a2printer.c **** 	}
 119:..\..\u8g2\csrc/u8x8_d_a2printer.c **** 	u8x8->gpio_and_delay_cb(u8x8, U8X8_MSG_DELAY_MILLI, delay_in_milliseconds, NULL);	
 120:..\..\u8g2\csrc/u8x8_d_a2printer.c ****       }
 121:..\..\u8g2\csrc/u8x8_d_a2printer.c **** 
 122:..\..\u8g2\csrc/u8x8_d_a2printer.c ****       /* set parameters back to their default values */
 123:..\..\u8g2\csrc/u8x8_d_a2printer.c ****       u8x8_cad_SendCmd(u8x8, 27);      /* ESC */
 124:..\..\u8g2\csrc/u8x8_d_a2printer.c ****       u8x8_cad_SendCmd(u8x8, 55 );      /* parameter command */
 125:..\..\u8g2\csrc/u8x8_d_a2printer.c ****       u8x8_cad_SendCmd(u8x8, 7);      /* Max printing dots,Unit(8dots),Default:7(64 dots) 8*(x+1)*/
 126:..\..\u8g2\csrc/u8x8_d_a2printer.c ****       u8x8_cad_SendCmd(u8x8, 80);      /* 3-255 Heating time,Unit(10us),Default:80(800us) */
 127:..\..\u8g2\csrc/u8x8_d_a2printer.c ****       u8x8_cad_SendCmd(u8x8, 2);      /* 0-255 Heating interval,Unit(10us),Default:2(20us)*/
 128:..\..\u8g2\csrc/u8x8_d_a2printer.c **** 
 129:..\..\u8g2\csrc/u8x8_d_a2printer.c ****       u8x8_cad_EndTransfer(u8x8);
 130:..\..\u8g2\csrc/u8x8_d_a2printer.c **** 
 131:..\..\u8g2\csrc/u8x8_d_a2printer.c ****       break;
 132:..\..\u8g2\csrc/u8x8_d_a2printer.c ****     default:
 133:..\..\u8g2\csrc/u8x8_d_a2printer.c ****       return 0;
 134:..\..\u8g2\csrc/u8x8_d_a2printer.c ****   }
 135:..\..\u8g2\csrc/u8x8_d_a2printer.c ****   return 1;
  89              		.loc 1 135 0
  90 0006 0120     		movs	r0, #1
  91              	.LVL7:
  69:..\..\u8g2\csrc/u8x8_d_a2printer.c ****   {
  92              		.loc 1 69 0
ARM GAS  C:\Users\Alan\AppData\Local\Temp\cckusPCk.s 			page 5


  93 0008 0B29     		cmp	r1, #11
  94 000a 71D0     		beq	.L11
  95 000c 0F29     		cmp	r1, #15
  96 000e 06D0     		beq	.L13
 133:..\..\u8g2\csrc/u8x8_d_a2printer.c ****   }
  97              		.loc 1 133 0
  98 0010 0020     		movs	r0, #0
  69:..\..\u8g2\csrc/u8x8_d_a2printer.c ****   {
  99              		.loc 1 69 0
 100 0012 0A29     		cmp	r1, #10
 101 0014 6CD1     		bne	.L11
  77:..\..\u8g2\csrc/u8x8_d_a2printer.c ****       // no setup required
 102              		.loc 1 77 0
 103 0016 2000     		movs	r0, r4
 104 0018 FFF7FEFF 		bl	u8x8_d_helper_display_init
 105              	.LVL8:
 106 001c 67E0     		b	.L21
 107              	.LVL9:
 108              	.L13:
 109              	.LBB4:
 110              	.LBB5:
  85:..\..\u8g2\csrc/u8x8_d_a2printer.c ****       
 111              		.loc 1 85 0
 112 001e 2000     		movs	r0, r4
 113 0020 FFF7FEFF 		bl	u8x8_cad_StartTransfer
 114              	.LVL10:
  87:..\..\u8g2\csrc/u8x8_d_a2printer.c ****       u8x8_cad_SendCmd(u8x8, 55 );      /* parameter command */
 115              		.loc 1 87 0
 116 0024 1B21     		movs	r1, #27
 117 0026 2000     		movs	r0, r4
 118 0028 FFF7FEFF 		bl	u8x8_cad_SendCmd
 119              	.LVL11:
  88:..\..\u8g2\csrc/u8x8_d_a2printer.c ****       /* increasing the "max printing dots" requires a good power supply, but LINE_EXTRA_8PIXEL_DEL
 120              		.loc 1 88 0
 121 002c 3721     		movs	r1, #55
 122 002e 2000     		movs	r0, r4
 123 0030 FFF7FEFF 		bl	u8x8_cad_SendCmd
 124              	.LVL12:
  90:..\..\u8g2\csrc/u8x8_d_a2printer.c ****       u8x8_cad_SendCmd(u8x8, 200);      /* 3-255 Heating time,Unit(10us),Default:80(800us) */
 125              		.loc 1 90 0
 126 0034 0021     		movs	r1, #0
 127 0036 2000     		movs	r0, r4
 128 0038 FFF7FEFF 		bl	u8x8_cad_SendCmd
 129              	.LVL13:
  91:..\..\u8g2\csrc/u8x8_d_a2printer.c ****       u8x8_cad_SendCmd(u8x8, 2);      /* 0-255 Heating interval,Unit(10us),Default:2(20us) ... does
 130              		.loc 1 91 0
 131 003c C821     		movs	r1, #200
 132 003e 2000     		movs	r0, r4
 133 0040 FFF7FEFF 		bl	u8x8_cad_SendCmd
 134              	.LVL14:
  92:..\..\u8g2\csrc/u8x8_d_a2printer.c ****       
 135              		.loc 1 92 0
 136 0044 0221     		movs	r1, #2
 137 0046 2000     		movs	r0, r4
 138 0048 FFF7FEFF 		bl	u8x8_cad_SendCmd
 139              	.LVL15:
  95:..\..\u8g2\csrc/u8x8_d_a2printer.c ****       ptr = ((u8x8_tile_t *)arg_ptr)->tile_ptr;	/* data ptr to the tiles */
ARM GAS  C:\Users\Alan\AppData\Local\Temp\cckusPCk.s 			page 6


 140              		.loc 1 95 0
 141 004c 2368     		ldr	r3, [r4]
  98:..\..\u8g2\csrc/u8x8_d_a2printer.c ****       u8x8_cad_SendCmd(u8x8, 42 );      /* *  */
 142              		.loc 1 98 0
 143 004e 1221     		movs	r1, #18
  95:..\..\u8g2\csrc/u8x8_d_a2printer.c ****       ptr = ((u8x8_tile_t *)arg_ptr)->tile_ptr;	/* data ptr to the tiles */
 144              		.loc 1 95 0
 145 0050 1F7C     		ldrb	r7, [r3, #16]
 146              	.LVL16:
  96:..\..\u8g2\csrc/u8x8_d_a2printer.c ****     
 147              		.loc 1 96 0
 148 0052 2B68     		ldr	r3, [r5]
  98:..\..\u8g2\csrc/u8x8_d_a2printer.c ****       u8x8_cad_SendCmd(u8x8, 42 );      /* *  */
 149              		.loc 1 98 0
 150 0054 2000     		movs	r0, r4
  96:..\..\u8g2\csrc/u8x8_d_a2printer.c ****     
 151              		.loc 1 96 0
 152 0056 0093     		str	r3, [sp]
 153              	.LVL17:
  98:..\..\u8g2\csrc/u8x8_d_a2printer.c ****       u8x8_cad_SendCmd(u8x8, 42 );      /* *  */
 154              		.loc 1 98 0
 155 0058 FFF7FEFF 		bl	u8x8_cad_SendCmd
 156              	.LVL18:
  99:..\..\u8g2\csrc/u8x8_d_a2printer.c ****       u8x8_cad_SendCmd(u8x8, 8 ); 	/* height */
 157              		.loc 1 99 0
 158 005c 2A21     		movs	r1, #42
 159 005e 2000     		movs	r0, r4
 160 0060 FFF7FEFF 		bl	u8x8_cad_SendCmd
 161              	.LVL19:
 100:..\..\u8g2\csrc/u8x8_d_a2printer.c ****       u8x8_cad_SendCmd(u8x8, c ); 	/* c, u8x8->display_info->tile_width */
 162              		.loc 1 100 0
 163 0064 0821     		movs	r1, #8
 164 0066 2000     		movs	r0, r4
 165 0068 FFF7FEFF 		bl	u8x8_cad_SendCmd
 166              	.LVL20:
 101:..\..\u8g2\csrc/u8x8_d_a2printer.c ****       
 167              		.loc 1 101 0
 168 006c 3900     		movs	r1, r7
 169 006e 2000     		movs	r0, r4
 170 0070 FFF7FEFF 		bl	u8x8_cad_SendCmd
 171              	.LVL21:
 172 0074 0823     		movs	r3, #8
 173 0076 0193     		str	r3, [sp, #4]
 174              	.LVL22:
 175              	.L15:
 109:..\..\u8g2\csrc/u8x8_d_a2printer.c **** 	  delay_in_milliseconds += get_delay_in_milliseconds(c, ptr);
 176              		.loc 1 109 0
 177 0078 009A     		ldr	r2, [sp]
 178 007a 3900     		movs	r1, r7
 179 007c 2000     		movs	r0, r4
 180 007e FFF7FEFF 		bl	u8x8_cad_SendData
 181              	.LVL23:
 110:..\..\u8g2\csrc/u8x8_d_a2printer.c **** 	  ptr += c;
 182              		.loc 1 110 0
 183 0082 0099     		ldr	r1, [sp]
 184 0084 3800     		movs	r0, r7
 185 0086 FFF7FEFF 		bl	get_delay_in_milliseconds
ARM GAS  C:\Users\Alan\AppData\Local\Temp\cckusPCk.s 			page 7


 186              	.LVL24:
 187 008a 0500     		movs	r5, r0
 188              	.LVL25:
 189 008c 009B     		ldr	r3, [sp]
 190 008e DB19     		adds	r3, r3, r7
 191 0090 0093     		str	r3, [sp]
 192              	.LVL26:
 193              	.L18:
 194 0092 6369     		ldr	r3, [r4, #20]
 195 0094 1E00     		movs	r6, r3
 114:..\..\u8g2\csrc/u8x8_d_a2printer.c **** 	{
 196              		.loc 1 114 0
 197 0096 C82D     		cmp	r5, #200
 198 0098 07D9     		bls	.L22
 116:..\..\u8g2\csrc/u8x8_d_a2printer.c **** 	  delay_in_milliseconds -= 200;
 199              		.loc 1 116 0
 200 009a 0023     		movs	r3, #0
 201 009c C822     		movs	r2, #200
 202 009e 2921     		movs	r1, #41
 203 00a0 2000     		movs	r0, r4
 117:..\..\u8g2\csrc/u8x8_d_a2printer.c **** 	}
 204              		.loc 1 117 0
 205 00a2 C83D     		subs	r5, r5, #200
 206              	.LVL27:
 116:..\..\u8g2\csrc/u8x8_d_a2printer.c **** 	  delay_in_milliseconds -= 200;
 207              		.loc 1 116 0
 208 00a4 B047     		blx	r6
 209              	.LVL28:
 117:..\..\u8g2\csrc/u8x8_d_a2printer.c **** 	}
 210              		.loc 1 117 0
 211 00a6 ADB2     		uxth	r5, r5
 212              	.LVL29:
 213 00a8 F3E7     		b	.L18
 214              	.L22:
 119:..\..\u8g2\csrc/u8x8_d_a2printer.c ****       }
 215              		.loc 1 119 0
 216 00aa 0023     		movs	r3, #0
 217 00ac EAB2     		uxtb	r2, r5
 218 00ae 2921     		movs	r1, #41
 219 00b0 2000     		movs	r0, r4
 220 00b2 B047     		blx	r6
 221              	.LVL30:
 222 00b4 019B     		ldr	r3, [sp, #4]
 223 00b6 013B     		subs	r3, r3, #1
 224 00b8 DBB2     		uxtb	r3, r3
 225 00ba 0193     		str	r3, [sp, #4]
 226              	.LVL31:
 103:..\..\u8g2\csrc/u8x8_d_a2printer.c ****       {
 227              		.loc 1 103 0
 228 00bc 002B     		cmp	r3, #0
 229 00be DBD1     		bne	.L15
 123:..\..\u8g2\csrc/u8x8_d_a2printer.c ****       u8x8_cad_SendCmd(u8x8, 55 );      /* parameter command */
 230              		.loc 1 123 0
 231 00c0 1B21     		movs	r1, #27
 232 00c2 2000     		movs	r0, r4
 233 00c4 FFF7FEFF 		bl	u8x8_cad_SendCmd
 234              	.LVL32:
ARM GAS  C:\Users\Alan\AppData\Local\Temp\cckusPCk.s 			page 8


 124:..\..\u8g2\csrc/u8x8_d_a2printer.c ****       u8x8_cad_SendCmd(u8x8, 7);      /* Max printing dots,Unit(8dots),Default:7(64 dots) 8*(x+1)*/
 235              		.loc 1 124 0
 236 00c8 3721     		movs	r1, #55
 237 00ca 2000     		movs	r0, r4
 238 00cc FFF7FEFF 		bl	u8x8_cad_SendCmd
 239              	.LVL33:
 125:..\..\u8g2\csrc/u8x8_d_a2printer.c ****       u8x8_cad_SendCmd(u8x8, 80);      /* 3-255 Heating time,Unit(10us),Default:80(800us) */
 240              		.loc 1 125 0
 241 00d0 0721     		movs	r1, #7
 242 00d2 2000     		movs	r0, r4
 243 00d4 FFF7FEFF 		bl	u8x8_cad_SendCmd
 244              	.LVL34:
 126:..\..\u8g2\csrc/u8x8_d_a2printer.c ****       u8x8_cad_SendCmd(u8x8, 2);      /* 0-255 Heating interval,Unit(10us),Default:2(20us)*/
 245              		.loc 1 126 0
 246 00d8 5021     		movs	r1, #80
 247 00da 2000     		movs	r0, r4
 248 00dc FFF7FEFF 		bl	u8x8_cad_SendCmd
 249              	.LVL35:
 127:..\..\u8g2\csrc/u8x8_d_a2printer.c **** 
 250              		.loc 1 127 0
 251 00e0 0221     		movs	r1, #2
 252 00e2 2000     		movs	r0, r4
 253 00e4 FFF7FEFF 		bl	u8x8_cad_SendCmd
 254              	.LVL36:
 129:..\..\u8g2\csrc/u8x8_d_a2printer.c **** 
 255              		.loc 1 129 0
 256 00e8 2000     		movs	r0, r4
 257 00ea FFF7FEFF 		bl	u8x8_cad_EndTransfer
 258              	.LVL37:
 259              	.L21:
 260 00ee 0120     		movs	r0, #1
 261              	.L11:
 262              	.LBE5:
 263              	.LBE4:
 136:..\..\u8g2\csrc/u8x8_d_a2printer.c **** }
 264              		.loc 1 136 0
 265              		@ sp needed
 266              	.LVL38:
 267 00f0 FEBD     		pop	{r1, r2, r3, r4, r5, r6, r7, pc}
 268              		.cfi_endproc
 269              	.LFE1:
 270              		.size	u8x8_d_a2printer_common, .-u8x8_d_a2printer_common
 271              		.section	.text.u8x8_d_a2printer_384x240,"ax",%progbits
 272              		.align	1
 273              		.global	u8x8_d_a2printer_384x240
 274              		.code	16
 275              		.thumb_func
 276              		.type	u8x8_d_a2printer_384x240, %function
 277              	u8x8_d_a2printer_384x240:
 278              	.LFB2:
 137:..\..\u8g2\csrc/u8x8_d_a2printer.c **** 
 138:..\..\u8g2\csrc/u8x8_d_a2printer.c **** 
 139:..\..\u8g2\csrc/u8x8_d_a2printer.c **** static const u8x8_display_info_t u8x8_a2printer_384x240_display_info =
 140:..\..\u8g2\csrc/u8x8_d_a2printer.c **** {
 141:..\..\u8g2\csrc/u8x8_d_a2printer.c ****   /* most of the settings are not required, because this is a serial RS232 printer */
 142:..\..\u8g2\csrc/u8x8_d_a2printer.c ****   
 143:..\..\u8g2\csrc/u8x8_d_a2printer.c ****   /* chip_enable_level = */ 1,
ARM GAS  C:\Users\Alan\AppData\Local\Temp\cckusPCk.s 			page 9


 144:..\..\u8g2\csrc/u8x8_d_a2printer.c ****   /* chip_disable_level = */ 0,
 145:..\..\u8g2\csrc/u8x8_d_a2printer.c ****   
 146:..\..\u8g2\csrc/u8x8_d_a2printer.c ****   /* post_chip_enable_wait_ns = */ 5,
 147:..\..\u8g2\csrc/u8x8_d_a2printer.c ****   /* pre_chip_disable_wait_ns = */ 5,
 148:..\..\u8g2\csrc/u8x8_d_a2printer.c ****   /* reset_pulse_width_ms = */ 1, 
 149:..\..\u8g2\csrc/u8x8_d_a2printer.c ****   /* post_reset_wait_ms = */ 6, 
 150:..\..\u8g2\csrc/u8x8_d_a2printer.c ****   /* sda_setup_time_ns = */ 20,		
 151:..\..\u8g2\csrc/u8x8_d_a2printer.c ****   /* sck_pulse_width_ns = */  140,	
 152:..\..\u8g2\csrc/u8x8_d_a2printer.c ****   /* sck_clock_hz = */ 1000000UL,	/* since Arduino 1.6.0, the SPI bus speed in Hz. Should be  10000
 153:..\..\u8g2\csrc/u8x8_d_a2printer.c ****   /* spi_mode = */ 0,		/* old: sck_takeover_edge, new: active high (bit 1), rising edge (bit 0) */
 154:..\..\u8g2\csrc/u8x8_d_a2printer.c ****   /* i2c_bus_clock_100kHz = */ 4,
 155:..\..\u8g2\csrc/u8x8_d_a2printer.c ****   /* data_setup_time_ns = */ 30,
 156:..\..\u8g2\csrc/u8x8_d_a2printer.c ****   /* write_pulse_width_ns = */ 40,
 157:..\..\u8g2\csrc/u8x8_d_a2printer.c ****   /* tile_width = */ 48,
 158:..\..\u8g2\csrc/u8x8_d_a2printer.c ****   /* tile_hight = */ 30,
 159:..\..\u8g2\csrc/u8x8_d_a2printer.c ****   /* default_x_offset = */ 0,
 160:..\..\u8g2\csrc/u8x8_d_a2printer.c ****   /* flipmode_x_offset = */ 0,
 161:..\..\u8g2\csrc/u8x8_d_a2printer.c ****   /* pixel_width = */ 384,
 162:..\..\u8g2\csrc/u8x8_d_a2printer.c ****   /* pixel_height = */ 240
 163:..\..\u8g2\csrc/u8x8_d_a2printer.c **** };
 164:..\..\u8g2\csrc/u8x8_d_a2printer.c **** 
 165:..\..\u8g2\csrc/u8x8_d_a2printer.c **** uint8_t u8x8_d_a2printer_384x240(u8x8_t *u8x8, uint8_t msg, uint8_t arg_int, void *arg_ptr)
 166:..\..\u8g2\csrc/u8x8_d_a2printer.c **** {
 279              		.loc 1 166 0
 280              		.cfi_startproc
 281              		@ args = 0, pretend = 0, frame = 0
 282              		@ frame_needed = 0, uses_anonymous_args = 0
 283              	.LVL39:
 284 0000 10B5     		push	{r4, lr}
 285              		.cfi_def_cfa_offset 8
 286              		.cfi_offset 4, -8
 287              		.cfi_offset 14, -4
 167:..\..\u8g2\csrc/u8x8_d_a2printer.c ****   switch(msg)
 288              		.loc 1 167 0
 289 0002 0929     		cmp	r1, #9
 290 0004 04D1     		bne	.L27
 168:..\..\u8g2\csrc/u8x8_d_a2printer.c ****   {
 169:..\..\u8g2\csrc/u8x8_d_a2printer.c ****     case U8X8_MSG_DISPLAY_SETUP_MEMORY:
 170:..\..\u8g2\csrc/u8x8_d_a2printer.c ****       u8x8_d_helper_display_setup_memory(u8x8, &u8x8_a2printer_384x240_display_info);
 291              		.loc 1 170 0
 292 0006 0449     		ldr	r1, .L28
 293              	.LVL40:
 294 0008 FFF7FEFF 		bl	u8x8_d_helper_display_setup_memory
 295              	.LVL41:
 171:..\..\u8g2\csrc/u8x8_d_a2printer.c ****       break;
 172:..\..\u8g2\csrc/u8x8_d_a2printer.c ****     default:
 173:..\..\u8g2\csrc/u8x8_d_a2printer.c ****       return u8x8_d_a2printer_common(u8x8, msg, arg_int, arg_ptr);
 174:..\..\u8g2\csrc/u8x8_d_a2printer.c ****   }
 175:..\..\u8g2\csrc/u8x8_d_a2printer.c ****   return 1;
 296              		.loc 1 175 0
 297 000c 0120     		movs	r0, #1
 298 000e 01E0     		b	.L26
 299              	.LVL42:
 300              	.L27:
 173:..\..\u8g2\csrc/u8x8_d_a2printer.c ****   }
 301              		.loc 1 173 0
 302 0010 FFF7FEFF 		bl	u8x8_d_a2printer_common
ARM GAS  C:\Users\Alan\AppData\Local\Temp\cckusPCk.s 			page 10


 303              	.LVL43:
 304              	.L26:
 176:..\..\u8g2\csrc/u8x8_d_a2printer.c **** }
 305              		.loc 1 176 0
 306              		@ sp needed
 307 0014 10BD     		pop	{r4, pc}
 308              	.L29:
 309 0016 C046     		.align	2
 310              	.L28:
 311 0018 00000000 		.word	.LANCHOR0
 312              		.cfi_endproc
 313              	.LFE2:
 314              		.size	u8x8_d_a2printer_384x240, .-u8x8_d_a2printer_384x240
 315              		.section	.rodata
 316              		.align	2
 317              		.set	.LANCHOR0,. + 0
 318              		.type	u8x8_a2printer_384x240_display_info, %object
 319              		.size	u8x8_a2printer_384x240_display_info, 24
 320              	u8x8_a2printer_384x240_display_info:
 321 0000 01       		.byte	1
 322 0001 00       		.byte	0
 323 0002 05       		.byte	5
 324 0003 05       		.byte	5
 325 0004 01       		.byte	1
 326 0005 06       		.byte	6
 327 0006 14       		.byte	20
 328 0007 8C       		.byte	-116
 329 0008 40420F00 		.word	1000000
 330 000c 00       		.byte	0
 331 000d 04       		.byte	4
 332 000e 1E       		.byte	30
 333 000f 28       		.byte	40
 334 0010 30       		.byte	48
 335 0011 1E       		.byte	30
 336 0012 00       		.byte	0
 337 0013 00       		.byte	0
 338 0014 8001     		.short	384
 339 0016 F000     		.short	240
 340              		.text
 341              	.Letext0:
 342              		.file 2 "c:\\program files (x86)\\cypress\\psoc creator\\4.1\\psoc creator\\import\\gnu\\arm\\5.4.
 343              		.file 3 "c:\\program files (x86)\\cypress\\psoc creator\\4.1\\psoc creator\\import\\gnu\\arm\\5.4.
 344              		.file 4 "..\\..\\u8g2\\csrc\\u8x8.h"