ARM GAS  C:\Users\Greg\AppData\Local\Temp\ccIIrBh7.s 			page 1


   1              		.syntax unified
   2              		.cpu cortex-m0
   3              		.fpu softvfp
   4              		.eabi_attribute 20, 1
   5              		.eabi_attribute 21, 1
   6              		.eabi_attribute 23, 3
   7              		.eabi_attribute 24, 1
   8              		.eabi_attribute 25, 1
   9              		.eabi_attribute 26, 1
  10              		.eabi_attribute 30, 4
  11              		.eabi_attribute 34, 0
  12              		.eabi_attribute 18, 4
  13              		.thumb
  14              		.syntax unified
  15              		.file	"u8x8_input_value.c"
  16              		.text
  17              	.Ltext0:
  18              		.cfi_sections	.debug_frame
  19              		.section	.text.u8x8_UserInterfaceInputValue,"ax",%progbits
  20              		.align	1
  21              		.global	u8x8_UserInterfaceInputValue
  22              		.code	16
  23              		.thumb_func
  24              		.type	u8x8_UserInterfaceInputValue, %function
  25              	u8x8_UserInterfaceInputValue:
  26              	.LFB0:
  27              		.file 1 "..\\..\\u8g2\\csrc\\u8x8_input_value.c"
   1:..\..\u8g2\csrc/u8x8_input_value.c **** /*
   2:..\..\u8g2\csrc/u8x8_input_value.c **** 
   3:..\..\u8g2\csrc/u8x8_input_value.c ****   u8x8_input_value.c
   4:..\..\u8g2\csrc/u8x8_input_value.c ****   
   5:..\..\u8g2\csrc/u8x8_input_value.c ****   Universal 8bit Graphics Library (https://github.com/olikraus/u8g2/)
   6:..\..\u8g2\csrc/u8x8_input_value.c **** 
   7:..\..\u8g2\csrc/u8x8_input_value.c ****   Copyright (c) 2016, olikraus@gmail.com
   8:..\..\u8g2\csrc/u8x8_input_value.c ****   All rights reserved.
   9:..\..\u8g2\csrc/u8x8_input_value.c **** 
  10:..\..\u8g2\csrc/u8x8_input_value.c ****   Redistribution and use in source and binary forms, with or without modification, 
  11:..\..\u8g2\csrc/u8x8_input_value.c ****   are permitted provided that the following conditions are met:
  12:..\..\u8g2\csrc/u8x8_input_value.c **** 
  13:..\..\u8g2\csrc/u8x8_input_value.c ****   * Redistributions of source code must retain the above copyright notice, this list 
  14:..\..\u8g2\csrc/u8x8_input_value.c ****     of conditions and the following disclaimer.
  15:..\..\u8g2\csrc/u8x8_input_value.c ****     
  16:..\..\u8g2\csrc/u8x8_input_value.c ****   * Redistributions in binary form must reproduce the above copyright notice, this 
  17:..\..\u8g2\csrc/u8x8_input_value.c ****     list of conditions and the following disclaimer in the documentation and/or other 
  18:..\..\u8g2\csrc/u8x8_input_value.c ****     materials provided with the distribution.
  19:..\..\u8g2\csrc/u8x8_input_value.c **** 
  20:..\..\u8g2\csrc/u8x8_input_value.c ****   THIS SOFTWARE IS PROVIDED BY THE COPYRIGHT HOLDERS AND 
  21:..\..\u8g2\csrc/u8x8_input_value.c ****   CONTRIBUTORS "AS IS" AND ANY EXPRESS OR IMPLIED WARRANTIES, 
  22:..\..\u8g2\csrc/u8x8_input_value.c ****   INCLUDING, BUT NOT LIMITED TO, THE IMPLIED WARRANTIES OF 
  23:..\..\u8g2\csrc/u8x8_input_value.c ****   MERCHANTABILITY AND FITNESS FOR A PARTICULAR PURPOSE ARE 
  24:..\..\u8g2\csrc/u8x8_input_value.c ****   DISCLAIMED. IN NO EVENT SHALL THE COPYRIGHT HOLDER OR 
  25:..\..\u8g2\csrc/u8x8_input_value.c ****   CONTRIBUTORS BE LIABLE FOR ANY DIRECT, INDIRECT, INCIDENTAL, 
  26:..\..\u8g2\csrc/u8x8_input_value.c ****   SPECIAL, EXEMPLARY, OR CONSEQUENTIAL DAMAGES (INCLUDING, BUT 
  27:..\..\u8g2\csrc/u8x8_input_value.c ****   NOT LIMITED TO, PROCUREMENT OF SUBSTITUTE GOODS OR SERVICES; 
  28:..\..\u8g2\csrc/u8x8_input_value.c ****   LOSS OF USE, DATA, OR PROFITS; OR BUSINESS INTERRUPTION) HOWEVER 
  29:..\..\u8g2\csrc/u8x8_input_value.c ****   CAUSED AND ON ANY THEORY OF LIABILITY, WHETHER IN CONTRACT, 
  30:..\..\u8g2\csrc/u8x8_input_value.c ****   STRICT LIABILITY, OR TORT (INCLUDING NEGLIGENCE OR OTHERWISE) 
ARM GAS  C:\Users\Greg\AppData\Local\Temp\ccIIrBh7.s 			page 2


  31:..\..\u8g2\csrc/u8x8_input_value.c ****   ARISING IN ANY WAY OUT OF THE USE OF THIS SOFTWARE, EVEN IF 
  32:..\..\u8g2\csrc/u8x8_input_value.c ****   ADVISED OF THE POSSIBILITY OF SUCH DAMAGE.  
  33:..\..\u8g2\csrc/u8x8_input_value.c ****   
  34:..\..\u8g2\csrc/u8x8_input_value.c **** */
  35:..\..\u8g2\csrc/u8x8_input_value.c **** 
  36:..\..\u8g2\csrc/u8x8_input_value.c **** #include "u8x8.h"
  37:..\..\u8g2\csrc/u8x8_input_value.c **** 
  38:..\..\u8g2\csrc/u8x8_input_value.c **** /*
  39:..\..\u8g2\csrc/u8x8_input_value.c ****   return:
  40:..\..\u8g2\csrc/u8x8_input_value.c ****     0: value is not changed (HOME/Break Button pressed)
  41:..\..\u8g2\csrc/u8x8_input_value.c ****     1: value has been updated
  42:..\..\u8g2\csrc/u8x8_input_value.c **** */
  43:..\..\u8g2\csrc/u8x8_input_value.c **** 
  44:..\..\u8g2\csrc/u8x8_input_value.c **** uint8_t u8x8_UserInterfaceInputValue(u8x8_t *u8x8, const char *title, const char *pre, uint8_t *val
  45:..\..\u8g2\csrc/u8x8_input_value.c **** {
  28              		.loc 1 45 0
  29              		.cfi_startproc
  30              		@ args = 16, pretend = 0, frame = 24
  31              		@ frame_needed = 0, uses_anonymous_args = 0
  32              	.LVL0:
  33 0000 F0B5     		push	{r4, r5, r6, r7, lr}
  34              		.cfi_def_cfa_offset 20
  35              		.cfi_offset 4, -20
  36              		.cfi_offset 5, -16
  37              		.cfi_offset 6, -12
  38              		.cfi_offset 7, -8
  39              		.cfi_offset 14, -4
  40 0002 89B0     		sub	sp, sp, #36
  41              		.cfi_def_cfa_offset 56
  42              		.loc 1 45 0
  43 0004 0593     		str	r3, [sp, #20]
  44 0006 0EAB     		add	r3, sp, #56
  45              	.LVL1:
  46 0008 1B78     		ldrb	r3, [r3]
  47              	.LVL2:
  48 000a 0400     		movs	r4, r0
  49 000c 0693     		str	r3, [sp, #24]
  50 000e 0FAB     		add	r3, sp, #60
  51              	.LVL3:
  52 0010 1B78     		ldrb	r3, [r3]
  53              	.LVL4:
  46:..\..\u8g2\csrc/u8x8_input_value.c ****   uint8_t height;
  47:..\..\u8g2\csrc/u8x8_input_value.c ****   uint8_t y;
  48:..\..\u8g2\csrc/u8x8_input_value.c ****   uint8_t width;
  49:..\..\u8g2\csrc/u8x8_input_value.c ****   uint8_t x;
  50:..\..\u8g2\csrc/u8x8_input_value.c ****   uint8_t local_value = *value;
  51:..\..\u8g2\csrc/u8x8_input_value.c ****   uint8_t r;
  52:..\..\u8g2\csrc/u8x8_input_value.c ****   uint8_t event;
  53:..\..\u8g2\csrc/u8x8_input_value.c **** 
  54:..\..\u8g2\csrc/u8x8_input_value.c ****   /* calculate overall height of the input value box */
  55:..\..\u8g2\csrc/u8x8_input_value.c ****   height = 1;	/* button line */
  56:..\..\u8g2\csrc/u8x8_input_value.c ****   height += u8x8_GetStringLineCnt(title);
  54              		.loc 1 56 0
  55 0012 0800     		movs	r0, r1
  56              	.LVL5:
  45:..\..\u8g2\csrc/u8x8_input_value.c ****   uint8_t height;
  57              		.loc 1 45 0
ARM GAS  C:\Users\Greg\AppData\Local\Temp\ccIIrBh7.s 			page 3


  58 0014 0793     		str	r3, [sp, #28]
  59 0016 10AB     		add	r3, sp, #64
  60              	.LVL6:
  61 0018 1B78     		ldrb	r3, [r3]
  62              	.LVL7:
  63 001a 0391     		str	r1, [sp, #12]
  64 001c 0293     		str	r3, [sp, #8]
  50:..\..\u8g2\csrc/u8x8_input_value.c ****   uint8_t r;
  65              		.loc 1 50 0
  66 001e 059B     		ldr	r3, [sp, #20]
  45:..\..\u8g2\csrc/u8x8_input_value.c ****   uint8_t height;
  67              		.loc 1 45 0
  68 0020 0492     		str	r2, [sp, #16]
  50:..\..\u8g2\csrc/u8x8_input_value.c ****   uint8_t r;
  69              		.loc 1 50 0
  70 0022 1D78     		ldrb	r5, [r3]
  71              	.LVL8:
  72              		.loc 1 56 0
  73 0024 FFF7FEFF 		bl	u8x8_GetStringLineCnt
  74              	.LVL9:
  57:..\..\u8g2\csrc/u8x8_input_value.c ****   
  58:..\..\u8g2\csrc/u8x8_input_value.c ****   /* calculate offset from top */
  59:..\..\u8g2\csrc/u8x8_input_value.c ****   y = 0;
  60:..\..\u8g2\csrc/u8x8_input_value.c ****   if ( height < u8x8_GetRows(u8x8)  )
  75              		.loc 1 60 0
  76 0028 2368     		ldr	r3, [r4]
  56:..\..\u8g2\csrc/u8x8_input_value.c ****   
  77              		.loc 1 56 0
  78 002a 0130     		adds	r0, r0, #1
  79              		.loc 1 60 0
  80 002c 5B7C     		ldrb	r3, [r3, #17]
  56:..\..\u8g2\csrc/u8x8_input_value.c ****   
  81              		.loc 1 56 0
  82 002e C0B2     		uxtb	r0, r0
  83              	.LVL10:
  59:..\..\u8g2\csrc/u8x8_input_value.c ****   if ( height < u8x8_GetRows(u8x8)  )
  84              		.loc 1 59 0
  85 0030 0027     		movs	r7, #0
  86              		.loc 1 60 0
  87 0032 9842     		cmp	r0, r3
  88 0034 02D2     		bcs	.L2
  89              	.LVL11:
  61:..\..\u8g2\csrc/u8x8_input_value.c ****   {
  62:..\..\u8g2\csrc/u8x8_input_value.c ****     y = u8x8_GetRows(u8x8);
  63:..\..\u8g2\csrc/u8x8_input_value.c ****     y -= height;
  90              		.loc 1 63 0
  91 0036 1B1A     		subs	r3, r3, r0
  92              	.LVL12:
  93 0038 D8B2     		uxtb	r0, r3
  94              	.LVL13:
  64:..\..\u8g2\csrc/u8x8_input_value.c ****     y /= 2;
  95              		.loc 1 64 0
  96 003a 4708     		lsrs	r7, r0, #1
  97              	.LVL14:
  98              	.L2:
  65:..\..\u8g2\csrc/u8x8_input_value.c ****   }
  66:..\..\u8g2\csrc/u8x8_input_value.c ****   
ARM GAS  C:\Users\Greg\AppData\Local\Temp\ccIIrBh7.s 			page 4


  67:..\..\u8g2\csrc/u8x8_input_value.c ****   /* calculate offset from left for the label */
  68:..\..\u8g2\csrc/u8x8_input_value.c ****   x = 0;
  69:..\..\u8g2\csrc/u8x8_input_value.c ****   width = u8x8_GetUTF8Len(u8x8, pre);
  99              		.loc 1 69 0
 100 003c 0499     		ldr	r1, [sp, #16]
 101 003e 2000     		movs	r0, r4
 102 0040 FFF7FEFF 		bl	u8x8_GetUTF8Len
 103              	.LVL15:
  70:..\..\u8g2\csrc/u8x8_input_value.c ****   width += digits;
  71:..\..\u8g2\csrc/u8x8_input_value.c ****   width += u8x8_GetUTF8Len(u8x8, post);
 104              		.loc 1 71 0
 105 0044 1199     		ldr	r1, [sp, #68]
  69:..\..\u8g2\csrc/u8x8_input_value.c ****   width += digits;
 106              		.loc 1 69 0
 107 0046 0600     		movs	r6, r0
 108              	.LVL16:
 109              		.loc 1 71 0
 110 0048 2000     		movs	r0, r4
 111 004a FFF7FEFF 		bl	u8x8_GetUTF8Len
 112              	.LVL17:
 113 004e 029B     		ldr	r3, [sp, #8]
 114 0050 3618     		adds	r6, r6, r0
 115              	.LVL18:
 116 0052 F618     		adds	r6, r6, r3
  72:..\..\u8g2\csrc/u8x8_input_value.c ****   if ( width < u8x8_GetCols(u8x8) )
 117              		.loc 1 72 0
 118 0054 2368     		ldr	r3, [r4]
  71:..\..\u8g2\csrc/u8x8_input_value.c ****   if ( width < u8x8_GetCols(u8x8) )
 119              		.loc 1 71 0
 120 0056 F0B2     		uxtb	r0, r6
 121              	.LVL19:
 122              		.loc 1 72 0
 123 0058 1B7C     		ldrb	r3, [r3, #16]
  68:..\..\u8g2\csrc/u8x8_input_value.c ****   width = u8x8_GetUTF8Len(u8x8, pre);
 124              		.loc 1 68 0
 125 005a 0026     		movs	r6, #0
 126              		.loc 1 72 0
 127 005c 9842     		cmp	r0, r3
 128 005e 02D2     		bcs	.L3
 129              	.LVL20:
  73:..\..\u8g2\csrc/u8x8_input_value.c ****   {
  74:..\..\u8g2\csrc/u8x8_input_value.c ****     x = u8x8_GetCols(u8x8);
  75:..\..\u8g2\csrc/u8x8_input_value.c ****     x -= width;
 130              		.loc 1 75 0
 131 0060 1E1A     		subs	r6, r3, r0
 132 0062 F6B2     		uxtb	r6, r6
 133              	.LVL21:
  76:..\..\u8g2\csrc/u8x8_input_value.c ****     x /= 2;
 134              		.loc 1 76 0
 135 0064 7608     		lsrs	r6, r6, #1
 136              	.LVL22:
 137              	.L3:
  77:..\..\u8g2\csrc/u8x8_input_value.c ****   }
  78:..\..\u8g2\csrc/u8x8_input_value.c ****   
  79:..\..\u8g2\csrc/u8x8_input_value.c ****   /* render */
  80:..\..\u8g2\csrc/u8x8_input_value.c ****   u8x8_ClearDisplay(u8x8);   /* required, because not everything is filled */
 138              		.loc 1 80 0
ARM GAS  C:\Users\Greg\AppData\Local\Temp\ccIIrBh7.s 			page 5


 139 0066 2000     		movs	r0, r4
 140              	.LVL23:
 141 0068 FFF7FEFF 		bl	u8x8_ClearDisplay
 142              	.LVL24:
  81:..\..\u8g2\csrc/u8x8_input_value.c ****   u8x8_SetInverseFont(u8x8, 0);  
 143              		.loc 1 81 0
 144 006c 0021     		movs	r1, #0
  82:..\..\u8g2\csrc/u8x8_input_value.c ****   y += u8x8_DrawUTF8Lines(u8x8, 0, y, u8x8_GetCols(u8x8), title);
 145              		.loc 1 82 0
 146 006e 039A     		ldr	r2, [sp, #12]
 147 0070 2368     		ldr	r3, [r4]
  81:..\..\u8g2\csrc/u8x8_input_value.c ****   u8x8_SetInverseFont(u8x8, 0);  
 148              		.loc 1 81 0
 149 0072 E177     		strb	r1, [r4, #31]
 150              		.loc 1 82 0
 151 0074 1B7C     		ldrb	r3, [r3, #16]
 152 0076 2000     		movs	r0, r4
 153 0078 0092     		str	r2, [sp]
 154 007a 3A00     		movs	r2, r7
 155 007c FFF7FEFF 		bl	u8x8_DrawUTF8Lines
 156              	.LVL25:
 157 0080 3818     		adds	r0, r7, r0
 158 0082 C7B2     		uxtb	r7, r0
 159              	.LVL26:
  83:..\..\u8g2\csrc/u8x8_input_value.c ****   x += u8x8_DrawUTF8(u8x8, x, y, pre);
 160              		.loc 1 83 0
 161 0084 3100     		movs	r1, r6
 162 0086 049B     		ldr	r3, [sp, #16]
 163 0088 3A00     		movs	r2, r7
 164 008a 2000     		movs	r0, r4
 165 008c FFF7FEFF 		bl	u8x8_DrawUTF8
 166              	.LVL27:
  84:..\..\u8g2\csrc/u8x8_input_value.c ****   u8x8_DrawUTF8(u8x8, x+digits, y, post);
 167              		.loc 1 84 0
 168 0090 029B     		ldr	r3, [sp, #8]
  83:..\..\u8g2\csrc/u8x8_input_value.c ****   x += u8x8_DrawUTF8(u8x8, x, y, pre);
 169              		.loc 1 83 0
 170 0092 3618     		adds	r6, r6, r0
 171              	.LVL28:
 172 0094 F6B2     		uxtb	r6, r6
 173              	.LVL29:
 174              		.loc 1 84 0
 175 0096 9919     		adds	r1, r3, r6
 176 0098 C9B2     		uxtb	r1, r1
 177 009a 119B     		ldr	r3, [sp, #68]
 178 009c 3A00     		movs	r2, r7
 179 009e 2000     		movs	r0, r4
 180 00a0 FFF7FEFF 		bl	u8x8_DrawUTF8
 181              	.LVL30:
  85:..\..\u8g2\csrc/u8x8_input_value.c ****   u8x8_SetInverseFont(u8x8, 1);
 182              		.loc 1 85 0
 183 00a4 0123     		movs	r3, #1
 184 00a6 E377     		strb	r3, [r4, #31]
 185              	.L24:
  86:..\..\u8g2\csrc/u8x8_input_value.c ****   
  87:..\..\u8g2\csrc/u8x8_input_value.c ****   /* event loop */
  88:..\..\u8g2\csrc/u8x8_input_value.c ****   u8x8_DrawUTF8(u8x8, x, y, u8x8_u8toa(local_value, digits));
ARM GAS  C:\Users\Greg\AppData\Local\Temp\ccIIrBh7.s 			page 6


 186              		.loc 1 88 0
 187 00a8 0299     		ldr	r1, [sp, #8]
 188 00aa 2800     		movs	r0, r5
 189 00ac FFF7FEFF 		bl	u8x8_u8toa
 190              	.LVL31:
 191 00b0 3A00     		movs	r2, r7
 192 00b2 0300     		movs	r3, r0
 193 00b4 3100     		movs	r1, r6
 194 00b6 2000     		movs	r0, r4
 195 00b8 FFF7FEFF 		bl	u8x8_DrawUTF8
 196              	.LVL32:
 197              	.L4:
  89:..\..\u8g2\csrc/u8x8_input_value.c ****   for(;;)
  90:..\..\u8g2\csrc/u8x8_input_value.c ****   {
  91:..\..\u8g2\csrc/u8x8_input_value.c ****     event = u8x8_GetMenuEvent(u8x8);
 198              		.loc 1 91 0
 199 00bc 2000     		movs	r0, r4
 200 00be FFF7FEFF 		bl	u8x8_GetMenuEvent
 201              	.LVL33:
  92:..\..\u8g2\csrc/u8x8_input_value.c ****     if ( event == U8X8_MSG_GPIO_MENU_SELECT )
 202              		.loc 1 92 0
 203 00c2 5028     		cmp	r0, #80
 204 00c4 03D1     		bne	.L5
  93:..\..\u8g2\csrc/u8x8_input_value.c ****     {
  94:..\..\u8g2\csrc/u8x8_input_value.c ****       *value = local_value;
 205              		.loc 1 94 0
 206 00c6 059B     		ldr	r3, [sp, #20]
  95:..\..\u8g2\csrc/u8x8_input_value.c ****       r = 1;
 207              		.loc 1 95 0
 208 00c8 4F38     		subs	r0, r0, #79
 209              	.LVL34:
  94:..\..\u8g2\csrc/u8x8_input_value.c ****       r = 1;
 210              		.loc 1 94 0
 211 00ca 1D70     		strb	r5, [r3]
 212              	.LVL35:
  96:..\..\u8g2\csrc/u8x8_input_value.c ****       break;
 213              		.loc 1 96 0
 214 00cc 19E0     		b	.L6
 215              	.LVL36:
 216              	.L5:
  97:..\..\u8g2\csrc/u8x8_input_value.c ****     }
  98:..\..\u8g2\csrc/u8x8_input_value.c ****     else if ( event == U8X8_MSG_GPIO_MENU_HOME )
 217              		.loc 1 98 0
 218 00ce 5328     		cmp	r0, #83
 219 00d0 16D0     		beq	.L15
  99:..\..\u8g2\csrc/u8x8_input_value.c ****     {
 100:..\..\u8g2\csrc/u8x8_input_value.c ****       r = 0;
 101:..\..\u8g2\csrc/u8x8_input_value.c ****       break;
 102:..\..\u8g2\csrc/u8x8_input_value.c ****     }
 103:..\..\u8g2\csrc/u8x8_input_value.c ****     else if ( event == U8X8_MSG_GPIO_MENU_NEXT || event == U8X8_MSG_GPIO_MENU_UP )
 220              		.loc 1 103 0
 221 00d2 5128     		cmp	r0, #81
 222 00d4 01D0     		beq	.L7
 223              		.loc 1 103 0 is_stmt 0 discriminator 1
 224 00d6 5428     		cmp	r0, #84
 225 00d8 06D1     		bne	.L8
 226              	.L7:
ARM GAS  C:\Users\Greg\AppData\Local\Temp\ccIIrBh7.s 			page 7


 104:..\..\u8g2\csrc/u8x8_input_value.c ****     {
 105:..\..\u8g2\csrc/u8x8_input_value.c ****       if ( local_value >= hi )
 227              		.loc 1 105 0 is_stmt 1
 228 00da 079B     		ldr	r3, [sp, #28]
 229 00dc 9D42     		cmp	r5, r3
 230 00de 01D2     		bcs	.L16
 106:..\..\u8g2\csrc/u8x8_input_value.c **** 	local_value = lo;
 107:..\..\u8g2\csrc/u8x8_input_value.c ****       else
 108:..\..\u8g2\csrc/u8x8_input_value.c **** 	local_value++;
 231              		.loc 1 108 0
 232 00e0 0135     		adds	r5, r5, #1
 233              	.LVL37:
 234 00e2 09E0     		b	.L25
 235              	.LVL38:
 236              	.L16:
 106:..\..\u8g2\csrc/u8x8_input_value.c **** 	local_value = lo;
 237              		.loc 1 106 0
 238 00e4 069D     		ldr	r5, [sp, #24]
 239              	.LVL39:
 240 00e6 DFE7     		b	.L24
 241              	.L8:
 109:..\..\u8g2\csrc/u8x8_input_value.c ****       u8x8_DrawUTF8(u8x8, x, y, u8x8_u8toa(local_value, digits));
 110:..\..\u8g2\csrc/u8x8_input_value.c ****     }
 111:..\..\u8g2\csrc/u8x8_input_value.c ****     else if ( event == U8X8_MSG_GPIO_MENU_PREV || event == U8X8_MSG_GPIO_MENU_DOWN )
 242              		.loc 1 111 0
 243 00e8 5228     		cmp	r0, #82
 244 00ea 01D0     		beq	.L11
 245              		.loc 1 111 0 is_stmt 0 discriminator 1
 246 00ec 5528     		cmp	r0, #85
 247 00ee E5D1     		bne	.L4
 248              	.L11:
 112:..\..\u8g2\csrc/u8x8_input_value.c ****     {
 113:..\..\u8g2\csrc/u8x8_input_value.c ****       if ( local_value <= lo )
 249              		.loc 1 113 0 is_stmt 1
 250 00f0 069B     		ldr	r3, [sp, #24]
 251 00f2 9D42     		cmp	r5, r3
 252 00f4 02D9     		bls	.L17
 114:..\..\u8g2\csrc/u8x8_input_value.c **** 	local_value = hi;
 115:..\..\u8g2\csrc/u8x8_input_value.c ****       else
 116:..\..\u8g2\csrc/u8x8_input_value.c **** 	local_value--;
 253              		.loc 1 116 0
 254 00f6 013D     		subs	r5, r5, #1
 255              	.LVL40:
 256              	.L25:
 257 00f8 EDB2     		uxtb	r5, r5
 258              	.LVL41:
 259 00fa D5E7     		b	.L24
 260              	.L17:
 114:..\..\u8g2\csrc/u8x8_input_value.c **** 	local_value = hi;
 261              		.loc 1 114 0
 262 00fc 079D     		ldr	r5, [sp, #28]
 263              	.LVL42:
 264 00fe D3E7     		b	.L24
 265              	.L15:
 100:..\..\u8g2\csrc/u8x8_input_value.c ****       break;
 266              		.loc 1 100 0
 267 0100 0020     		movs	r0, #0
ARM GAS  C:\Users\Greg\AppData\Local\Temp\ccIIrBh7.s 			page 8


 268              	.LVL43:
 269              	.L6:
 117:..\..\u8g2\csrc/u8x8_input_value.c ****       u8x8_DrawUTF8(u8x8, x, y, u8x8_u8toa(local_value, digits));
 118:..\..\u8g2\csrc/u8x8_input_value.c ****     }        
 119:..\..\u8g2\csrc/u8x8_input_value.c ****   }
 120:..\..\u8g2\csrc/u8x8_input_value.c ****   
 121:..\..\u8g2\csrc/u8x8_input_value.c ****   u8x8_SetInverseFont(u8x8, 0);
 270              		.loc 1 121 0
 271 0102 0023     		movs	r3, #0
 272 0104 E377     		strb	r3, [r4, #31]
 122:..\..\u8g2\csrc/u8x8_input_value.c ****   return r;  
 123:..\..\u8g2\csrc/u8x8_input_value.c **** }
 273              		.loc 1 123 0
 274 0106 09B0     		add	sp, sp, #36
 275              		@ sp needed
 276              	.LVL44:
 277              	.LVL45:
 278              	.LVL46:
 279              	.LVL47:
 280 0108 F0BD     		pop	{r4, r5, r6, r7, pc}
 281              		.cfi_endproc
 282              	.LFE0:
 283              		.size	u8x8_UserInterfaceInputValue, .-u8x8_UserInterfaceInputValue
 284              		.text
 285              	.Letext0:
 286              		.file 2 "c:\\program files\\cypress\\psoc creator\\4.1\\psoc creator\\import\\gnu\\arm\\5.4.1\\arm
 287              		.file 3 "c:\\program files\\cypress\\psoc creator\\4.1\\psoc creator\\import\\gnu\\arm\\5.4.1\\arm
 288              		.file 4 "..\\..\\u8g2\\csrc\\u8x8.h"