ARM GAS  C:\Users\Alan\AppData\Local\Temp\ccqTZJBZ.s 			page 1


   1              		.syntax unified
   2              		.cpu cortex-m0
   3              		.fpu softvfp
   4              		.eabi_attribute 20, 1
   5              		.eabi_attribute 21, 1
   6              		.eabi_attribute 23, 3
   7              		.eabi_attribute 24, 1
   8              		.eabi_attribute 25, 1
   9              		.eabi_attribute 26, 1
  10              		.eabi_attribute 30, 4
  11              		.eabi_attribute 34, 0
  12              		.eabi_attribute 18, 4
  13              		.thumb
  14              		.syntax unified
  15              		.file	"u8x8_d_ssd1306_128x64_noname.c"
  16              		.text
  17              	.Ltext0:
  18              		.cfi_sections	.debug_frame
  19              		.section	.text.u8x8_d_ssd1306_sh1106_generic,"ax",%progbits
  20              		.align	1
  21              		.code	16
  22              		.thumb_func
  23              		.type	u8x8_d_ssd1306_sh1106_generic, %function
  24              	u8x8_d_ssd1306_sh1106_generic:
  25              	.LFB0:
  26              		.file 1 "..\\..\\u8g2\\csrc\\u8x8_d_ssd1306_128x64_noname.c"
   1:..\..\u8g2\csrc/u8x8_d_ssd1306_128x64_noname.c **** /*
   2:..\..\u8g2\csrc/u8x8_d_ssd1306_128x64_noname.c **** 
   3:..\..\u8g2\csrc/u8x8_d_ssd1306_128x64_noname.c ****   u8x8_d_ssd1306_128x64_noname.c
   4:..\..\u8g2\csrc/u8x8_d_ssd1306_128x64_noname.c **** 
   5:..\..\u8g2\csrc/u8x8_d_ssd1306_128x64_noname.c ****   Universal 8bit Graphics Library (https://github.com/olikraus/u8g2/)
   6:..\..\u8g2\csrc/u8x8_d_ssd1306_128x64_noname.c **** 
   7:..\..\u8g2\csrc/u8x8_d_ssd1306_128x64_noname.c ****   Copyright (c) 2016, olikraus@gmail.com
   8:..\..\u8g2\csrc/u8x8_d_ssd1306_128x64_noname.c ****   All rights reserved.
   9:..\..\u8g2\csrc/u8x8_d_ssd1306_128x64_noname.c **** 
  10:..\..\u8g2\csrc/u8x8_d_ssd1306_128x64_noname.c ****   Redistribution and use in source and binary forms, with or without modification, 
  11:..\..\u8g2\csrc/u8x8_d_ssd1306_128x64_noname.c ****   are permitted provided that the following conditions are met:
  12:..\..\u8g2\csrc/u8x8_d_ssd1306_128x64_noname.c **** 
  13:..\..\u8g2\csrc/u8x8_d_ssd1306_128x64_noname.c ****   * Redistributions of source code must retain the above copyright notice, this list 
  14:..\..\u8g2\csrc/u8x8_d_ssd1306_128x64_noname.c ****     of conditions and the following disclaimer.
  15:..\..\u8g2\csrc/u8x8_d_ssd1306_128x64_noname.c ****     
  16:..\..\u8g2\csrc/u8x8_d_ssd1306_128x64_noname.c ****   * Redistributions in binary form must reproduce the above copyright notice, this 
  17:..\..\u8g2\csrc/u8x8_d_ssd1306_128x64_noname.c ****     list of conditions and the following disclaimer in the documentation and/or other 
  18:..\..\u8g2\csrc/u8x8_d_ssd1306_128x64_noname.c ****     materials provided with the distribution.
  19:..\..\u8g2\csrc/u8x8_d_ssd1306_128x64_noname.c **** 
  20:..\..\u8g2\csrc/u8x8_d_ssd1306_128x64_noname.c ****   THIS SOFTWARE IS PROVIDED BY THE COPYRIGHT HOLDERS AND 
  21:..\..\u8g2\csrc/u8x8_d_ssd1306_128x64_noname.c ****   CONTRIBUTORS "AS IS" AND ANY EXPRESS OR IMPLIED WARRANTIES, 
  22:..\..\u8g2\csrc/u8x8_d_ssd1306_128x64_noname.c ****   INCLUDING, BUT NOT LIMITED TO, THE IMPLIED WARRANTIES OF 
  23:..\..\u8g2\csrc/u8x8_d_ssd1306_128x64_noname.c ****   MERCHANTABILITY AND FITNESS FOR A PARTICULAR PURPOSE ARE 
  24:..\..\u8g2\csrc/u8x8_d_ssd1306_128x64_noname.c ****   DISCLAIMED. IN NO EVENT SHALL THE COPYRIGHT HOLDER OR 
  25:..\..\u8g2\csrc/u8x8_d_ssd1306_128x64_noname.c ****   CONTRIBUTORS BE LIABLE FOR ANY DIRECT, INDIRECT, INCIDENTAL, 
  26:..\..\u8g2\csrc/u8x8_d_ssd1306_128x64_noname.c ****   SPECIAL, EXEMPLARY, OR CONSEQUENTIAL DAMAGES (INCLUDING, BUT 
  27:..\..\u8g2\csrc/u8x8_d_ssd1306_128x64_noname.c ****   NOT LIMITED TO, PROCUREMENT OF SUBSTITUTE GOODS OR SERVICES; 
  28:..\..\u8g2\csrc/u8x8_d_ssd1306_128x64_noname.c ****   LOSS OF USE, DATA, OR PROFITS; OR BUSINESS INTERRUPTION) HOWEVER 
  29:..\..\u8g2\csrc/u8x8_d_ssd1306_128x64_noname.c ****   CAUSED AND ON ANY THEORY OF LIABILITY, WHETHER IN CONTRACT, 
  30:..\..\u8g2\csrc/u8x8_d_ssd1306_128x64_noname.c ****   STRICT LIABILITY, OR TORT (INCLUDING NEGLIGENCE OR OTHERWISE) 
  31:..\..\u8g2\csrc/u8x8_d_ssd1306_128x64_noname.c ****   ARISING IN ANY WAY OUT OF THE USE OF THIS SOFTWARE, EVEN IF 
ARM GAS  C:\Users\Alan\AppData\Local\Temp\ccqTZJBZ.s 			page 2


  32:..\..\u8g2\csrc/u8x8_d_ssd1306_128x64_noname.c ****   ADVISED OF THE POSSIBILITY OF SUCH DAMAGE.  
  33:..\..\u8g2\csrc/u8x8_d_ssd1306_128x64_noname.c ****   
  34:..\..\u8g2\csrc/u8x8_d_ssd1306_128x64_noname.c **** */
  35:..\..\u8g2\csrc/u8x8_d_ssd1306_128x64_noname.c **** 
  36:..\..\u8g2\csrc/u8x8_d_ssd1306_128x64_noname.c **** 
  37:..\..\u8g2\csrc/u8x8_d_ssd1306_128x64_noname.c **** #include "u8x8.h"
  38:..\..\u8g2\csrc/u8x8_d_ssd1306_128x64_noname.c **** 
  39:..\..\u8g2\csrc/u8x8_d_ssd1306_128x64_noname.c **** 
  40:..\..\u8g2\csrc/u8x8_d_ssd1306_128x64_noname.c **** 
  41:..\..\u8g2\csrc/u8x8_d_ssd1306_128x64_noname.c **** /* more or less generic setup of all these small OLEDs */
  42:..\..\u8g2\csrc/u8x8_d_ssd1306_128x64_noname.c **** static const uint8_t u8x8_d_ssd1306_128x64_noname_init_seq[] = {
  43:..\..\u8g2\csrc/u8x8_d_ssd1306_128x64_noname.c ****     
  44:..\..\u8g2\csrc/u8x8_d_ssd1306_128x64_noname.c ****   U8X8_START_TRANSFER(),             	/* enable chip, delay is part of the transfer start */
  45:..\..\u8g2\csrc/u8x8_d_ssd1306_128x64_noname.c ****   
  46:..\..\u8g2\csrc/u8x8_d_ssd1306_128x64_noname.c ****   
  47:..\..\u8g2\csrc/u8x8_d_ssd1306_128x64_noname.c ****   U8X8_C(0x0ae),		                /* display off */
  48:..\..\u8g2\csrc/u8x8_d_ssd1306_128x64_noname.c ****   U8X8_CA(0x0d5, 0x080),		/* clock divide ratio (0x00=1) and oscillator frequency (0x8) */
  49:..\..\u8g2\csrc/u8x8_d_ssd1306_128x64_noname.c ****   U8X8_CA(0x0a8, 0x03f),		/* multiplex ratio */
  50:..\..\u8g2\csrc/u8x8_d_ssd1306_128x64_noname.c ****   U8X8_CA(0x0d3, 0x000),		/* display offset */
  51:..\..\u8g2\csrc/u8x8_d_ssd1306_128x64_noname.c ****   U8X8_C(0x040),		                /* set display start line to 0 */
  52:..\..\u8g2\csrc/u8x8_d_ssd1306_128x64_noname.c ****   U8X8_CA(0x08d, 0x014),		/* [2] charge pump setting (p62): 0x014 enable, 0x010 disable */
  53:..\..\u8g2\csrc/u8x8_d_ssd1306_128x64_noname.c ****   U8X8_CA(0x020, 0x000),		/* page addressing mode */
  54:..\..\u8g2\csrc/u8x8_d_ssd1306_128x64_noname.c ****   
  55:..\..\u8g2\csrc/u8x8_d_ssd1306_128x64_noname.c ****   U8X8_C(0x0a1),				/* segment remap a0/a1*/
  56:..\..\u8g2\csrc/u8x8_d_ssd1306_128x64_noname.c ****   U8X8_C(0x0c8),				/* c0: scan dir normal, c8: reverse */
  57:..\..\u8g2\csrc/u8x8_d_ssd1306_128x64_noname.c ****   // Flipmode
  58:..\..\u8g2\csrc/u8x8_d_ssd1306_128x64_noname.c ****   // U8X8_C(0x0a0),				/* segment remap a0/a1*/
  59:..\..\u8g2\csrc/u8x8_d_ssd1306_128x64_noname.c ****   // U8X8_C(0x0c0),				/* c0: scan dir normal, c8: reverse */
  60:..\..\u8g2\csrc/u8x8_d_ssd1306_128x64_noname.c ****   
  61:..\..\u8g2\csrc/u8x8_d_ssd1306_128x64_noname.c ****   U8X8_CA(0x0da, 0x012),		/* com pin HW config, sequential com pin config (bit 4), disable left/rig
  62:..\..\u8g2\csrc/u8x8_d_ssd1306_128x64_noname.c **** 
  63:..\..\u8g2\csrc/u8x8_d_ssd1306_128x64_noname.c ****   U8X8_CA(0x081, 0x0cf), 		/* [2] set contrast control */
  64:..\..\u8g2\csrc/u8x8_d_ssd1306_128x64_noname.c ****   U8X8_CA(0x0d9, 0x0f1), 		/* [2] pre-charge period 0x022/f1*/
  65:..\..\u8g2\csrc/u8x8_d_ssd1306_128x64_noname.c ****   U8X8_CA(0x0db, 0x040), 		/* vcomh deselect level */  
  66:..\..\u8g2\csrc/u8x8_d_ssd1306_128x64_noname.c ****   // if vcomh is 0, then this will give the biggest range for contrast control issue #98
  67:..\..\u8g2\csrc/u8x8_d_ssd1306_128x64_noname.c ****   // restored the old values for the noname constructor, because vcomh=0 will not work for all OLED
  68:..\..\u8g2\csrc/u8x8_d_ssd1306_128x64_noname.c ****   
  69:..\..\u8g2\csrc/u8x8_d_ssd1306_128x64_noname.c ****   U8X8_C(0x02e),				/* Deactivate scroll */ 
  70:..\..\u8g2\csrc/u8x8_d_ssd1306_128x64_noname.c ****   U8X8_C(0x0a4),				/* output ram to display */
  71:..\..\u8g2\csrc/u8x8_d_ssd1306_128x64_noname.c ****   U8X8_C(0x0a6),				/* none inverted normal display mode */
  72:..\..\u8g2\csrc/u8x8_d_ssd1306_128x64_noname.c ****     
  73:..\..\u8g2\csrc/u8x8_d_ssd1306_128x64_noname.c ****   U8X8_END_TRANSFER(),             	/* disable chip */
  74:..\..\u8g2\csrc/u8x8_d_ssd1306_128x64_noname.c ****   U8X8_END()             			/* end of sequence */
  75:..\..\u8g2\csrc/u8x8_d_ssd1306_128x64_noname.c **** };
  76:..\..\u8g2\csrc/u8x8_d_ssd1306_128x64_noname.c **** 
  77:..\..\u8g2\csrc/u8x8_d_ssd1306_128x64_noname.c **** /* this setup maximizes the brightness range, that can be set with setContrast() */
  78:..\..\u8g2\csrc/u8x8_d_ssd1306_128x64_noname.c **** /* Drawback: VCOMH deselect level is set to 0, which das not work so good with all OLEDs, issue #11
  79:..\..\u8g2\csrc/u8x8_d_ssd1306_128x64_noname.c **** static const uint8_t u8x8_d_ssd1306_128x64_vcomh0_init_seq[] = {
  80:..\..\u8g2\csrc/u8x8_d_ssd1306_128x64_noname.c ****     
  81:..\..\u8g2\csrc/u8x8_d_ssd1306_128x64_noname.c ****   U8X8_START_TRANSFER(),             	/* enable chip, delay is part of the transfer start */
  82:..\..\u8g2\csrc/u8x8_d_ssd1306_128x64_noname.c ****   
  83:..\..\u8g2\csrc/u8x8_d_ssd1306_128x64_noname.c ****   
  84:..\..\u8g2\csrc/u8x8_d_ssd1306_128x64_noname.c ****   U8X8_C(0x0ae),		                /* display off */
  85:..\..\u8g2\csrc/u8x8_d_ssd1306_128x64_noname.c ****   U8X8_CA(0x0d5, 0x080),		/* clock divide ratio (0x00=1) and oscillator frequency (0x8) */
  86:..\..\u8g2\csrc/u8x8_d_ssd1306_128x64_noname.c ****   U8X8_CA(0x0a8, 0x03f),		/* multiplex ratio */
  87:..\..\u8g2\csrc/u8x8_d_ssd1306_128x64_noname.c ****   U8X8_CA(0x0d3, 0x000),		/* display offset */
  88:..\..\u8g2\csrc/u8x8_d_ssd1306_128x64_noname.c ****   U8X8_C(0x040),		                /* set display start line to 0 */
ARM GAS  C:\Users\Alan\AppData\Local\Temp\ccqTZJBZ.s 			page 3


  89:..\..\u8g2\csrc/u8x8_d_ssd1306_128x64_noname.c ****   U8X8_CA(0x08d, 0x014),		/* [2] charge pump setting (p62): 0x014 enable, 0x010 disable */
  90:..\..\u8g2\csrc/u8x8_d_ssd1306_128x64_noname.c ****   U8X8_CA(0x020, 0x000),		/* page addressing mode */
  91:..\..\u8g2\csrc/u8x8_d_ssd1306_128x64_noname.c ****   
  92:..\..\u8g2\csrc/u8x8_d_ssd1306_128x64_noname.c ****   U8X8_C(0x0a1),				/* segment remap a0/a1*/
  93:..\..\u8g2\csrc/u8x8_d_ssd1306_128x64_noname.c ****   U8X8_C(0x0c8),				/* c0: scan dir normal, c8: reverse */
  94:..\..\u8g2\csrc/u8x8_d_ssd1306_128x64_noname.c ****   // Flipmode
  95:..\..\u8g2\csrc/u8x8_d_ssd1306_128x64_noname.c ****   // U8X8_C(0x0a0),				/* segment remap a0/a1*/
  96:..\..\u8g2\csrc/u8x8_d_ssd1306_128x64_noname.c ****   // U8X8_C(0x0c0),				/* c0: scan dir normal, c8: reverse */
  97:..\..\u8g2\csrc/u8x8_d_ssd1306_128x64_noname.c ****   
  98:..\..\u8g2\csrc/u8x8_d_ssd1306_128x64_noname.c ****   U8X8_CA(0x0da, 0x012),		/* com pin HW config, sequential com pin config (bit 4), disable left/rig
  99:..\..\u8g2\csrc/u8x8_d_ssd1306_128x64_noname.c ****   U8X8_CA(0x081, 0x0ef),		/* [2] set contrast control,  */
 100:..\..\u8g2\csrc/u8x8_d_ssd1306_128x64_noname.c ****   U8X8_CA(0x0d9, 0x0a1),		/* [2] pre-charge period 0x022/f1*/
 101:..\..\u8g2\csrc/u8x8_d_ssd1306_128x64_noname.c ****   U8X8_CA(0x0db, 0x000),		/* vcomh deselect level 0x000 .. 0x070, low nibble always 0 */
 102:..\..\u8g2\csrc/u8x8_d_ssd1306_128x64_noname.c ****   // if vcomh is 0, then this will give the biggest range for contrast control issue #98
 103:..\..\u8g2\csrc/u8x8_d_ssd1306_128x64_noname.c ****   
 104:..\..\u8g2\csrc/u8x8_d_ssd1306_128x64_noname.c ****   U8X8_C(0x02e),				/* Deactivate scroll */ 
 105:..\..\u8g2\csrc/u8x8_d_ssd1306_128x64_noname.c ****   U8X8_C(0x0a4),				/* output ram to display */
 106:..\..\u8g2\csrc/u8x8_d_ssd1306_128x64_noname.c ****   U8X8_C(0x0a6),				/* none inverted normal display mode */
 107:..\..\u8g2\csrc/u8x8_d_ssd1306_128x64_noname.c ****     
 108:..\..\u8g2\csrc/u8x8_d_ssd1306_128x64_noname.c ****   U8X8_END_TRANSFER(),             	/* disable chip */
 109:..\..\u8g2\csrc/u8x8_d_ssd1306_128x64_noname.c ****   U8X8_END()             			/* end of sequence */
 110:..\..\u8g2\csrc/u8x8_d_ssd1306_128x64_noname.c **** };
 111:..\..\u8g2\csrc/u8x8_d_ssd1306_128x64_noname.c **** 
 112:..\..\u8g2\csrc/u8x8_d_ssd1306_128x64_noname.c **** static const uint8_t u8x8_d_ssd1306_128x64_noname_powersave0_seq[] = {
 113:..\..\u8g2\csrc/u8x8_d_ssd1306_128x64_noname.c ****   U8X8_START_TRANSFER(),             	/* enable chip, delay is part of the transfer start */
 114:..\..\u8g2\csrc/u8x8_d_ssd1306_128x64_noname.c ****   U8X8_C(0x0af),		                /* display on */
 115:..\..\u8g2\csrc/u8x8_d_ssd1306_128x64_noname.c ****   U8X8_END_TRANSFER(),             	/* disable chip */
 116:..\..\u8g2\csrc/u8x8_d_ssd1306_128x64_noname.c ****   U8X8_END()             			/* end of sequence */
 117:..\..\u8g2\csrc/u8x8_d_ssd1306_128x64_noname.c **** };
 118:..\..\u8g2\csrc/u8x8_d_ssd1306_128x64_noname.c **** 
 119:..\..\u8g2\csrc/u8x8_d_ssd1306_128x64_noname.c **** static const uint8_t u8x8_d_ssd1306_128x64_noname_powersave1_seq[] = {
 120:..\..\u8g2\csrc/u8x8_d_ssd1306_128x64_noname.c ****   U8X8_START_TRANSFER(),             	/* enable chip, delay is part of the transfer start */
 121:..\..\u8g2\csrc/u8x8_d_ssd1306_128x64_noname.c ****   U8X8_C(0x0ae),		                /* display off */
 122:..\..\u8g2\csrc/u8x8_d_ssd1306_128x64_noname.c ****   U8X8_END_TRANSFER(),             	/* disable chip */
 123:..\..\u8g2\csrc/u8x8_d_ssd1306_128x64_noname.c ****   U8X8_END()             			/* end of sequence */
 124:..\..\u8g2\csrc/u8x8_d_ssd1306_128x64_noname.c **** };
 125:..\..\u8g2\csrc/u8x8_d_ssd1306_128x64_noname.c **** 
 126:..\..\u8g2\csrc/u8x8_d_ssd1306_128x64_noname.c **** static const uint8_t u8x8_d_ssd1306_128x64_noname_flip0_seq[] = {
 127:..\..\u8g2\csrc/u8x8_d_ssd1306_128x64_noname.c ****   U8X8_START_TRANSFER(),             	/* enable chip, delay is part of the transfer start */
 128:..\..\u8g2\csrc/u8x8_d_ssd1306_128x64_noname.c ****   U8X8_C(0x0a1),				/* segment remap a0/a1*/
 129:..\..\u8g2\csrc/u8x8_d_ssd1306_128x64_noname.c ****   U8X8_C(0x0c8),				/* c0: scan dir normal, c8: reverse */
 130:..\..\u8g2\csrc/u8x8_d_ssd1306_128x64_noname.c ****   U8X8_END_TRANSFER(),             	/* disable chip */
 131:..\..\u8g2\csrc/u8x8_d_ssd1306_128x64_noname.c ****   U8X8_END()             			/* end of sequence */
 132:..\..\u8g2\csrc/u8x8_d_ssd1306_128x64_noname.c **** };
 133:..\..\u8g2\csrc/u8x8_d_ssd1306_128x64_noname.c **** 
 134:..\..\u8g2\csrc/u8x8_d_ssd1306_128x64_noname.c **** static const uint8_t u8x8_d_ssd1306_128x64_noname_flip1_seq[] = {
 135:..\..\u8g2\csrc/u8x8_d_ssd1306_128x64_noname.c ****   U8X8_START_TRANSFER(),             	/* enable chip, delay is part of the transfer start */
 136:..\..\u8g2\csrc/u8x8_d_ssd1306_128x64_noname.c ****   U8X8_C(0x0a0),				/* segment remap a0/a1*/
 137:..\..\u8g2\csrc/u8x8_d_ssd1306_128x64_noname.c ****   U8X8_C(0x0c0),				/* c0: scan dir normal, c8: reverse */
 138:..\..\u8g2\csrc/u8x8_d_ssd1306_128x64_noname.c ****   U8X8_END_TRANSFER(),             	/* disable chip */
 139:..\..\u8g2\csrc/u8x8_d_ssd1306_128x64_noname.c ****   U8X8_END()             			/* end of sequence */
 140:..\..\u8g2\csrc/u8x8_d_ssd1306_128x64_noname.c **** };
 141:..\..\u8g2\csrc/u8x8_d_ssd1306_128x64_noname.c **** 
 142:..\..\u8g2\csrc/u8x8_d_ssd1306_128x64_noname.c **** 
 143:..\..\u8g2\csrc/u8x8_d_ssd1306_128x64_noname.c **** static uint8_t u8x8_d_ssd1306_sh1106_generic(u8x8_t *u8x8, uint8_t msg, uint8_t arg_int, void *arg_
 144:..\..\u8g2\csrc/u8x8_d_ssd1306_128x64_noname.c **** {
  27              		.loc 1 144 0
ARM GAS  C:\Users\Alan\AppData\Local\Temp\ccqTZJBZ.s 			page 4


  28              		.cfi_startproc
  29              		@ args = 0, pretend = 0, frame = 0
  30              		@ frame_needed = 0, uses_anonymous_args = 0
  31              	.LVL0:
 145:..\..\u8g2\csrc/u8x8_d_ssd1306_128x64_noname.c ****   uint8_t x, c;
 146:..\..\u8g2\csrc/u8x8_d_ssd1306_128x64_noname.c ****   uint8_t *ptr;
 147:..\..\u8g2\csrc/u8x8_d_ssd1306_128x64_noname.c ****   switch(msg)
  32              		.loc 1 147 0
  33 0000 0B39     		subs	r1, r1, #11
  34              	.LVL1:
 144:..\..\u8g2\csrc/u8x8_d_ssd1306_128x64_noname.c ****   uint8_t x, c;
  35              		.loc 1 144 0
  36 0002 F8B5     		push	{r3, r4, r5, r6, r7, lr}
  37              		.cfi_def_cfa_offset 24
  38              		.cfi_offset 3, -24
  39              		.cfi_offset 4, -20
  40              		.cfi_offset 5, -16
  41              		.cfi_offset 6, -12
  42              		.cfi_offset 7, -8
  43              		.cfi_offset 14, -4
 144:..\..\u8g2\csrc/u8x8_d_ssd1306_128x64_noname.c ****   uint8_t x, c;
  44              		.loc 1 144 0
  45 0004 0400     		movs	r4, r0
  46 0006 1500     		movs	r5, r2
  47 0008 1F00     		movs	r7, r3
  48              		.loc 1 147 0
  49 000a 0800     		movs	r0, r1
  50              	.LVL2:
  51 000c 0429     		cmp	r1, #4
  52 000e 57D8     		bhi	.L11
  53 0010 FFF7FEFF 		bl	__gnu_thumb1_case_uqi
  54              	.L4:
  55 0014 03       		.byte	(.L3-.L4)/2
  56 0015 56       		.byte	(.L11-.L4)/2
  57 0016 0B       		.byte	(.L5-.L4)/2
  58 0017 1D       		.byte	(.L6-.L4)/2
  59 0018 2D       		.byte	(.L7-.L4)/2
  60 0019 00       		.p2align 1
  61              	.L3:
  62 001a 2A49     		ldr	r1, .L18
 148:..\..\u8g2\csrc/u8x8_d_ssd1306_128x64_noname.c ****   {
 149:..\..\u8g2\csrc/u8x8_d_ssd1306_128x64_noname.c ****     /* handled by the calling function
 150:..\..\u8g2\csrc/u8x8_d_ssd1306_128x64_noname.c ****     case U8X8_MSG_DISPLAY_SETUP_MEMORY:
 151:..\..\u8g2\csrc/u8x8_d_ssd1306_128x64_noname.c ****       u8x8_d_helper_display_setup_memory(u8x8, &u8x8_ssd1306_128x64_noname_display_info);
 152:..\..\u8g2\csrc/u8x8_d_ssd1306_128x64_noname.c ****       break;
 153:..\..\u8g2\csrc/u8x8_d_ssd1306_128x64_noname.c ****     */
 154:..\..\u8g2\csrc/u8x8_d_ssd1306_128x64_noname.c ****     /* handled by the calling function
 155:..\..\u8g2\csrc/u8x8_d_ssd1306_128x64_noname.c ****     case U8X8_MSG_DISPLAY_INIT:
 156:..\..\u8g2\csrc/u8x8_d_ssd1306_128x64_noname.c ****       u8x8_d_helper_display_init(u8x8);
 157:..\..\u8g2\csrc/u8x8_d_ssd1306_128x64_noname.c ****       u8x8_cad_SendSequence(u8x8, u8x8_d_ssd1306_128x64_noname_init_seq);    
 158:..\..\u8g2\csrc/u8x8_d_ssd1306_128x64_noname.c ****       break;
 159:..\..\u8g2\csrc/u8x8_d_ssd1306_128x64_noname.c ****     */
 160:..\..\u8g2\csrc/u8x8_d_ssd1306_128x64_noname.c ****     case U8X8_MSG_DISPLAY_SET_POWER_SAVE:
 161:..\..\u8g2\csrc/u8x8_d_ssd1306_128x64_noname.c ****       if ( arg_int == 0 )
  63              		.loc 1 161 0
  64 001c 002A     		cmp	r2, #0
  65 001e 00D0     		beq	.L16
ARM GAS  C:\Users\Alan\AppData\Local\Temp\ccqTZJBZ.s 			page 5


 162:..\..\u8g2\csrc/u8x8_d_ssd1306_128x64_noname.c **** 	u8x8_cad_SendSequence(u8x8, u8x8_d_ssd1306_128x64_noname_powersave0_seq);
 163:..\..\u8g2\csrc/u8x8_d_ssd1306_128x64_noname.c ****       else
 164:..\..\u8g2\csrc/u8x8_d_ssd1306_128x64_noname.c **** 	u8x8_cad_SendSequence(u8x8, u8x8_d_ssd1306_128x64_noname_powersave1_seq);
  66              		.loc 1 164 0
  67 0020 0531     		adds	r1, r1, #5
  68              	.L16:
  69 0022 2000     		movs	r0, r4
  70 0024 FFF7FEFF 		bl	u8x8_cad_SendSequence
  71              	.LVL3:
  72 0028 1FE0     		b	.L13
  73              	.LVL4:
  74              	.L5:
  75 002a 2649     		ldr	r1, .L18
 165:..\..\u8g2\csrc/u8x8_d_ssd1306_128x64_noname.c ****       break;
 166:..\..\u8g2\csrc/u8x8_d_ssd1306_128x64_noname.c ****     case U8X8_MSG_DISPLAY_SET_FLIP_MODE:
 167:..\..\u8g2\csrc/u8x8_d_ssd1306_128x64_noname.c ****       if ( arg_int == 0 )
  76              		.loc 1 167 0
  77 002c 002A     		cmp	r2, #0
  78 002e 06D1     		bne	.L9
 168:..\..\u8g2\csrc/u8x8_d_ssd1306_128x64_noname.c ****       {
 169:..\..\u8g2\csrc/u8x8_d_ssd1306_128x64_noname.c **** 	u8x8_cad_SendSequence(u8x8, u8x8_d_ssd1306_128x64_noname_flip0_seq);
  79              		.loc 1 169 0
  80 0030 0A31     		adds	r1, r1, #10
  81 0032 2000     		movs	r0, r4
  82 0034 FFF7FEFF 		bl	u8x8_cad_SendSequence
  83              	.LVL5:
 170:..\..\u8g2\csrc/u8x8_d_ssd1306_128x64_noname.c **** 	u8x8->x_offset = u8x8->display_info->default_x_offset;
  84              		.loc 1 170 0
  85 0038 2368     		ldr	r3, [r4]
  86 003a 9B7C     		ldrb	r3, [r3, #18]
  87 003c 05E0     		b	.L15
  88              	.LVL6:
  89              	.L9:
 171:..\..\u8g2\csrc/u8x8_d_ssd1306_128x64_noname.c ****       }
 172:..\..\u8g2\csrc/u8x8_d_ssd1306_128x64_noname.c ****       else
 173:..\..\u8g2\csrc/u8x8_d_ssd1306_128x64_noname.c ****       {
 174:..\..\u8g2\csrc/u8x8_d_ssd1306_128x64_noname.c **** 	u8x8_cad_SendSequence(u8x8, u8x8_d_ssd1306_128x64_noname_flip1_seq);
  90              		.loc 1 174 0
  91 003e 1131     		adds	r1, r1, #17
  92 0040 2000     		movs	r0, r4
  93 0042 FFF7FEFF 		bl	u8x8_cad_SendSequence
  94              	.LVL7:
 175:..\..\u8g2\csrc/u8x8_d_ssd1306_128x64_noname.c **** 	u8x8->x_offset = u8x8->display_info->flipmode_x_offset;
  95              		.loc 1 175 0
  96 0046 2368     		ldr	r3, [r4]
  97 0048 DB7C     		ldrb	r3, [r3, #19]
  98              	.L15:
  99 004a A377     		strb	r3, [r4, #30]
 100 004c 0DE0     		b	.L13
 101              	.LVL8:
 102              	.L6:
 176:..\..\u8g2\csrc/u8x8_d_ssd1306_128x64_noname.c ****       }
 177:..\..\u8g2\csrc/u8x8_d_ssd1306_128x64_noname.c ****       break;
 178:..\..\u8g2\csrc/u8x8_d_ssd1306_128x64_noname.c **** #ifdef U8X8_WITH_SET_CONTRAST
 179:..\..\u8g2\csrc/u8x8_d_ssd1306_128x64_noname.c ****     case U8X8_MSG_DISPLAY_SET_CONTRAST:
 180:..\..\u8g2\csrc/u8x8_d_ssd1306_128x64_noname.c ****       u8x8_cad_StartTransfer(u8x8);
 103              		.loc 1 180 0
ARM GAS  C:\Users\Alan\AppData\Local\Temp\ccqTZJBZ.s 			page 6


 104 004e 2000     		movs	r0, r4
 105 0050 FFF7FEFF 		bl	u8x8_cad_StartTransfer
 106              	.LVL9:
 181:..\..\u8g2\csrc/u8x8_d_ssd1306_128x64_noname.c ****       u8x8_cad_SendCmd(u8x8, 0x081 );
 107              		.loc 1 181 0
 108 0054 8121     		movs	r1, #129
 109 0056 2000     		movs	r0, r4
 110 0058 FFF7FEFF 		bl	u8x8_cad_SendCmd
 111              	.LVL10:
 182:..\..\u8g2\csrc/u8x8_d_ssd1306_128x64_noname.c ****       u8x8_cad_SendArg(u8x8, arg_int );	/* ssd1306 has range from 0 to 255 */
 112              		.loc 1 182 0
 113 005c 2900     		movs	r1, r5
 114 005e 2000     		movs	r0, r4
 115 0060 FFF7FEFF 		bl	u8x8_cad_SendArg
 116              	.LVL11:
 117              	.L14:
 183:..\..\u8g2\csrc/u8x8_d_ssd1306_128x64_noname.c ****       u8x8_cad_EndTransfer(u8x8);
 118              		.loc 1 183 0
 119 0064 2000     		movs	r0, r4
 120 0066 FFF7FEFF 		bl	u8x8_cad_EndTransfer
 121              	.LVL12:
 122              	.L13:
 184:..\..\u8g2\csrc/u8x8_d_ssd1306_128x64_noname.c ****       break;
 185:..\..\u8g2\csrc/u8x8_d_ssd1306_128x64_noname.c **** #endif
 186:..\..\u8g2\csrc/u8x8_d_ssd1306_128x64_noname.c ****     case U8X8_MSG_DISPLAY_DRAW_TILE:
 187:..\..\u8g2\csrc/u8x8_d_ssd1306_128x64_noname.c ****       u8x8_cad_StartTransfer(u8x8);
 188:..\..\u8g2\csrc/u8x8_d_ssd1306_128x64_noname.c ****       x = ((u8x8_tile_t *)arg_ptr)->x_pos;    
 189:..\..\u8g2\csrc/u8x8_d_ssd1306_128x64_noname.c ****       x *= 8;
 190:..\..\u8g2\csrc/u8x8_d_ssd1306_128x64_noname.c ****       x += u8x8->x_offset;
 191:..\..\u8g2\csrc/u8x8_d_ssd1306_128x64_noname.c ****     
 192:..\..\u8g2\csrc/u8x8_d_ssd1306_128x64_noname.c ****       u8x8_cad_SendCmd(u8x8, 0x040 );	/* set line offset to 0 */
 193:..\..\u8g2\csrc/u8x8_d_ssd1306_128x64_noname.c ****     
 194:..\..\u8g2\csrc/u8x8_d_ssd1306_128x64_noname.c ****       u8x8_cad_SendCmd(u8x8, 0x010 | (x>>4) );
 195:..\..\u8g2\csrc/u8x8_d_ssd1306_128x64_noname.c ****       u8x8_cad_SendArg(u8x8, 0x000 | ((x&15)));					/* probably wrong, should be SendCmd */
 196:..\..\u8g2\csrc/u8x8_d_ssd1306_128x64_noname.c ****       u8x8_cad_SendArg(u8x8, 0x0b0 | (((u8x8_tile_t *)arg_ptr)->y_pos));	/* probably wrong, should 
 197:..\..\u8g2\csrc/u8x8_d_ssd1306_128x64_noname.c **** 
 198:..\..\u8g2\csrc/u8x8_d_ssd1306_128x64_noname.c ****     
 199:..\..\u8g2\csrc/u8x8_d_ssd1306_128x64_noname.c ****       do
 200:..\..\u8g2\csrc/u8x8_d_ssd1306_128x64_noname.c ****       {
 201:..\..\u8g2\csrc/u8x8_d_ssd1306_128x64_noname.c **** 	c = ((u8x8_tile_t *)arg_ptr)->cnt;
 202:..\..\u8g2\csrc/u8x8_d_ssd1306_128x64_noname.c **** 	ptr = ((u8x8_tile_t *)arg_ptr)->tile_ptr;
 203:..\..\u8g2\csrc/u8x8_d_ssd1306_128x64_noname.c **** 	u8x8_cad_SendData(u8x8, c*8, ptr); 	/* note: SendData can not handle more than 255 bytes */
 204:..\..\u8g2\csrc/u8x8_d_ssd1306_128x64_noname.c **** 	/*
 205:..\..\u8g2\csrc/u8x8_d_ssd1306_128x64_noname.c **** 	do
 206:..\..\u8g2\csrc/u8x8_d_ssd1306_128x64_noname.c **** 	{
 207:..\..\u8g2\csrc/u8x8_d_ssd1306_128x64_noname.c **** 	  u8x8_cad_SendData(u8x8, 8, ptr);
 208:..\..\u8g2\csrc/u8x8_d_ssd1306_128x64_noname.c **** 	  ptr += 8;
 209:..\..\u8g2\csrc/u8x8_d_ssd1306_128x64_noname.c **** 	  c--;
 210:..\..\u8g2\csrc/u8x8_d_ssd1306_128x64_noname.c **** 	} while( c > 0 );
 211:..\..\u8g2\csrc/u8x8_d_ssd1306_128x64_noname.c **** 	*/
 212:..\..\u8g2\csrc/u8x8_d_ssd1306_128x64_noname.c **** 	arg_int--;
 213:..\..\u8g2\csrc/u8x8_d_ssd1306_128x64_noname.c ****       } while( arg_int > 0 );
 214:..\..\u8g2\csrc/u8x8_d_ssd1306_128x64_noname.c ****       
 215:..\..\u8g2\csrc/u8x8_d_ssd1306_128x64_noname.c ****       u8x8_cad_EndTransfer(u8x8);
 216:..\..\u8g2\csrc/u8x8_d_ssd1306_128x64_noname.c ****       break;
 217:..\..\u8g2\csrc/u8x8_d_ssd1306_128x64_noname.c ****     default:
 218:..\..\u8g2\csrc/u8x8_d_ssd1306_128x64_noname.c ****       return 0;
ARM GAS  C:\Users\Alan\AppData\Local\Temp\ccqTZJBZ.s 			page 7


 219:..\..\u8g2\csrc/u8x8_d_ssd1306_128x64_noname.c ****   }
 220:..\..\u8g2\csrc/u8x8_d_ssd1306_128x64_noname.c ****   return 1;
 123              		.loc 1 220 0
 124 006a 0120     		movs	r0, #1
 184:..\..\u8g2\csrc/u8x8_d_ssd1306_128x64_noname.c ****       break;
 125              		.loc 1 184 0
 126 006c 29E0     		b	.L2
 127              	.LVL13:
 128              	.L7:
 187:..\..\u8g2\csrc/u8x8_d_ssd1306_128x64_noname.c ****       x = ((u8x8_tile_t *)arg_ptr)->x_pos;    
 129              		.loc 1 187 0
 130 006e 2000     		movs	r0, r4
 131 0070 FFF7FEFF 		bl	u8x8_cad_StartTransfer
 132              	.LVL14:
 188:..\..\u8g2\csrc/u8x8_d_ssd1306_128x64_noname.c ****       x *= 8;
 133              		.loc 1 188 0
 134 0074 7E79     		ldrb	r6, [r7, #5]
 135              	.LVL15:
 190:..\..\u8g2\csrc/u8x8_d_ssd1306_128x64_noname.c ****     
 136              		.loc 1 190 0
 137 0076 A37F     		ldrb	r3, [r4, #30]
 192:..\..\u8g2\csrc/u8x8_d_ssd1306_128x64_noname.c ****     
 138              		.loc 1 192 0
 139 0078 4021     		movs	r1, #64
 189:..\..\u8g2\csrc/u8x8_d_ssd1306_128x64_noname.c ****       x += u8x8->x_offset;
 140              		.loc 1 189 0
 141 007a F600     		lsls	r6, r6, #3
 142              	.LVL16:
 192:..\..\u8g2\csrc/u8x8_d_ssd1306_128x64_noname.c ****     
 143              		.loc 1 192 0
 144 007c 2000     		movs	r0, r4
 190:..\..\u8g2\csrc/u8x8_d_ssd1306_128x64_noname.c ****     
 145              		.loc 1 190 0
 146 007e F618     		adds	r6, r6, r3
 147              	.LVL17:
 192:..\..\u8g2\csrc/u8x8_d_ssd1306_128x64_noname.c ****     
 148              		.loc 1 192 0
 149 0080 FFF7FEFF 		bl	u8x8_cad_SendCmd
 150              	.LVL18:
 194:..\..\u8g2\csrc/u8x8_d_ssd1306_128x64_noname.c ****       u8x8_cad_SendArg(u8x8, 0x000 | ((x&15)));					/* probably wrong, should be SendCmd */
 151              		.loc 1 194 0
 152 0084 1021     		movs	r1, #16
 190:..\..\u8g2\csrc/u8x8_d_ssd1306_128x64_noname.c ****     
 153              		.loc 1 190 0
 154 0086 F6B2     		uxtb	r6, r6
 155              	.LVL19:
 194:..\..\u8g2\csrc/u8x8_d_ssd1306_128x64_noname.c ****       u8x8_cad_SendArg(u8x8, 0x000 | ((x&15)));					/* probably wrong, should be SendCmd */
 156              		.loc 1 194 0
 157 0088 3309     		lsrs	r3, r6, #4
 158 008a 1943     		orrs	r1, r3
 159 008c 2000     		movs	r0, r4
 160 008e FFF7FEFF 		bl	u8x8_cad_SendCmd
 161              	.LVL20:
 195:..\..\u8g2\csrc/u8x8_d_ssd1306_128x64_noname.c ****       u8x8_cad_SendArg(u8x8, 0x0b0 | (((u8x8_tile_t *)arg_ptr)->y_pos));	/* probably wrong, should 
 162              		.loc 1 195 0
 163 0092 0F21     		movs	r1, #15
 164 0094 2000     		movs	r0, r4
ARM GAS  C:\Users\Alan\AppData\Local\Temp\ccqTZJBZ.s 			page 8


 165 0096 3140     		ands	r1, r6
 166 0098 FFF7FEFF 		bl	u8x8_cad_SendArg
 167              	.LVL21:
 196:..\..\u8g2\csrc/u8x8_d_ssd1306_128x64_noname.c **** 
 168              		.loc 1 196 0
 169 009c B023     		movs	r3, #176
 170 009e B979     		ldrb	r1, [r7, #6]
 171 00a0 2000     		movs	r0, r4
 172 00a2 1943     		orrs	r1, r3
 173 00a4 FFF7FEFF 		bl	u8x8_cad_SendArg
 174              	.LVL22:
 175              	.L10:
 203:..\..\u8g2\csrc/u8x8_d_ssd1306_128x64_noname.c **** 	/*
 176              		.loc 1 203 0 discriminator 1
 177 00a8 3979     		ldrb	r1, [r7, #4]
 212:..\..\u8g2\csrc/u8x8_d_ssd1306_128x64_noname.c ****       } while( arg_int > 0 );
 178              		.loc 1 212 0 discriminator 1
 179 00aa 013D     		subs	r5, r5, #1
 180              	.LVL23:
 203:..\..\u8g2\csrc/u8x8_d_ssd1306_128x64_noname.c **** 	/*
 181              		.loc 1 203 0 discriminator 1
 182 00ac C900     		lsls	r1, r1, #3
 183 00ae C9B2     		uxtb	r1, r1
 184 00b0 3A68     		ldr	r2, [r7]
 185 00b2 2000     		movs	r0, r4
 212:..\..\u8g2\csrc/u8x8_d_ssd1306_128x64_noname.c ****       } while( arg_int > 0 );
 186              		.loc 1 212 0 discriminator 1
 187 00b4 EDB2     		uxtb	r5, r5
 203:..\..\u8g2\csrc/u8x8_d_ssd1306_128x64_noname.c **** 	/*
 188              		.loc 1 203 0 discriminator 1
 189 00b6 FFF7FEFF 		bl	u8x8_cad_SendData
 190              	.LVL24:
 213:..\..\u8g2\csrc/u8x8_d_ssd1306_128x64_noname.c ****       
 191              		.loc 1 213 0 discriminator 1
 192 00ba 002D     		cmp	r5, #0
 193 00bc F4D1     		bne	.L10
 194 00be D1E7     		b	.L14
 195              	.LVL25:
 196              	.L11:
 218:..\..\u8g2\csrc/u8x8_d_ssd1306_128x64_noname.c ****   }
 197              		.loc 1 218 0
 198 00c0 0020     		movs	r0, #0
 199              	.LVL26:
 200              	.L2:
 221:..\..\u8g2\csrc/u8x8_d_ssd1306_128x64_noname.c **** }
 201              		.loc 1 221 0
 202              		@ sp needed
 203              	.LVL27:
 204              	.LVL28:
 205 00c2 F8BD     		pop	{r3, r4, r5, r6, r7, pc}
 206              	.L19:
 207              		.align	2
 208              	.L18:
 209 00c4 00000000 		.word	.LANCHOR0
 210              		.cfi_endproc
 211              	.LFE0:
 212              		.size	u8x8_d_ssd1306_sh1106_generic, .-u8x8_d_ssd1306_sh1106_generic
ARM GAS  C:\Users\Alan\AppData\Local\Temp\ccqTZJBZ.s 			page 9


 213              		.section	.text.u8x8_d_ssd1306_128x64_noname,"ax",%progbits
 214              		.align	1
 215              		.global	u8x8_d_ssd1306_128x64_noname
 216              		.code	16
 217              		.thumb_func
 218              		.type	u8x8_d_ssd1306_128x64_noname, %function
 219              	u8x8_d_ssd1306_128x64_noname:
 220              	.LFB1:
 222:..\..\u8g2\csrc/u8x8_d_ssd1306_128x64_noname.c **** 
 223:..\..\u8g2\csrc/u8x8_d_ssd1306_128x64_noname.c **** 
 224:..\..\u8g2\csrc/u8x8_d_ssd1306_128x64_noname.c **** static const u8x8_display_info_t u8x8_ssd1306_128x64_noname_display_info =
 225:..\..\u8g2\csrc/u8x8_d_ssd1306_128x64_noname.c **** {
 226:..\..\u8g2\csrc/u8x8_d_ssd1306_128x64_noname.c ****   /* chip_enable_level = */ 0,
 227:..\..\u8g2\csrc/u8x8_d_ssd1306_128x64_noname.c ****   /* chip_disable_level = */ 1,
 228:..\..\u8g2\csrc/u8x8_d_ssd1306_128x64_noname.c ****   
 229:..\..\u8g2\csrc/u8x8_d_ssd1306_128x64_noname.c ****   /* post_chip_enable_wait_ns = */ 20,
 230:..\..\u8g2\csrc/u8x8_d_ssd1306_128x64_noname.c ****   /* pre_chip_disable_wait_ns = */ 10,
 231:..\..\u8g2\csrc/u8x8_d_ssd1306_128x64_noname.c ****   /* reset_pulse_width_ms = */ 100, 	/* SSD1306: 3 us */
 232:..\..\u8g2\csrc/u8x8_d_ssd1306_128x64_noname.c ****   /* post_reset_wait_ms = */ 100, /* far east OLEDs need much longer setup time */
 233:..\..\u8g2\csrc/u8x8_d_ssd1306_128x64_noname.c ****   /* sda_setup_time_ns = */ 50,		/* SSD1306: 15ns, but cycle time is 100ns, so use 100/2 */
 234:..\..\u8g2\csrc/u8x8_d_ssd1306_128x64_noname.c ****   /* sck_pulse_width_ns = */ 50,	/* SSD1306: 20ns, but cycle time is 100ns, so use 100/2, AVR: belo
 235:..\..\u8g2\csrc/u8x8_d_ssd1306_128x64_noname.c ****   /* sck_clock_hz = */ 4000000UL,	/* since Arduino 1.6.0, the SPI bus speed in Hz. Should be  10000
 236:..\..\u8g2\csrc/u8x8_d_ssd1306_128x64_noname.c ****   /* spi_mode = */ 0,		/* active high, rising edge */
 237:..\..\u8g2\csrc/u8x8_d_ssd1306_128x64_noname.c ****   /* i2c_bus_clock_100kHz = */ 4,
 238:..\..\u8g2\csrc/u8x8_d_ssd1306_128x64_noname.c ****   /* data_setup_time_ns = */ 40,
 239:..\..\u8g2\csrc/u8x8_d_ssd1306_128x64_noname.c ****   /* write_pulse_width_ns = */ 150,	/* SSD1306: cycle time is 300ns, so use 300/2 = 150 */
 240:..\..\u8g2\csrc/u8x8_d_ssd1306_128x64_noname.c ****   /* tile_width = */ 16,
 241:..\..\u8g2\csrc/u8x8_d_ssd1306_128x64_noname.c ****   /* tile_hight = */ 8,
 242:..\..\u8g2\csrc/u8x8_d_ssd1306_128x64_noname.c ****   /* default_x_offset = */ 0,
 243:..\..\u8g2\csrc/u8x8_d_ssd1306_128x64_noname.c ****   /* flipmode_x_offset = */ 0,
 244:..\..\u8g2\csrc/u8x8_d_ssd1306_128x64_noname.c ****   /* pixel_width = */ 128,
 245:..\..\u8g2\csrc/u8x8_d_ssd1306_128x64_noname.c ****   /* pixel_height = */ 64
 246:..\..\u8g2\csrc/u8x8_d_ssd1306_128x64_noname.c **** };
 247:..\..\u8g2\csrc/u8x8_d_ssd1306_128x64_noname.c **** 
 248:..\..\u8g2\csrc/u8x8_d_ssd1306_128x64_noname.c **** uint8_t u8x8_d_ssd1306_128x64_noname(u8x8_t *u8x8, uint8_t msg, uint8_t arg_int, void *arg_ptr)
 249:..\..\u8g2\csrc/u8x8_d_ssd1306_128x64_noname.c **** {
 221              		.loc 1 249 0
 222              		.cfi_startproc
 223              		@ args = 0, pretend = 0, frame = 0
 224              		@ frame_needed = 0, uses_anonymous_args = 0
 225              	.LVL29:
 226 0000 70B5     		push	{r4, r5, r6, lr}
 227              		.cfi_def_cfa_offset 16
 228              		.cfi_offset 4, -16
 229              		.cfi_offset 5, -12
 230              		.cfi_offset 6, -8
 231              		.cfi_offset 14, -4
 232              		.loc 1 249 0
 233 0002 0400     		movs	r4, r0
 234 0004 0D00     		movs	r5, r1
 250:..\..\u8g2\csrc/u8x8_d_ssd1306_128x64_noname.c ****     
 251:..\..\u8g2\csrc/u8x8_d_ssd1306_128x64_noname.c ****   if ( u8x8_d_ssd1306_sh1106_generic(u8x8, msg, arg_int, arg_ptr) != 0 )
 235              		.loc 1 251 0
 236 0006 FFF7FEFF 		bl	u8x8_d_ssd1306_sh1106_generic
 237              	.LVL30:
 238 000a 0028     		cmp	r0, #0
 239 000c 11D1     		bne	.L24
ARM GAS  C:\Users\Alan\AppData\Local\Temp\ccqTZJBZ.s 			page 10


 252:..\..\u8g2\csrc/u8x8_d_ssd1306_128x64_noname.c ****     return 1;
 253:..\..\u8g2\csrc/u8x8_d_ssd1306_128x64_noname.c ****   
 254:..\..\u8g2\csrc/u8x8_d_ssd1306_128x64_noname.c ****   switch(msg)
 240              		.loc 1 254 0
 241 000e 092D     		cmp	r5, #9
 242 0010 0AD0     		beq	.L22
 243 0012 0A2D     		cmp	r5, #10
 244 0014 0ED1     		bne	.L21
 255:..\..\u8g2\csrc/u8x8_d_ssd1306_128x64_noname.c ****   {
 256:..\..\u8g2\csrc/u8x8_d_ssd1306_128x64_noname.c ****     case U8X8_MSG_DISPLAY_INIT:
 257:..\..\u8g2\csrc/u8x8_d_ssd1306_128x64_noname.c ****       u8x8_d_helper_display_init(u8x8);
 245              		.loc 1 257 0
 246 0016 2000     		movs	r0, r4
 247 0018 FFF7FEFF 		bl	u8x8_d_helper_display_init
 248              	.LVL31:
 258:..\..\u8g2\csrc/u8x8_d_ssd1306_128x64_noname.c ****       u8x8_cad_SendSequence(u8x8, u8x8_d_ssd1306_128x64_noname_init_seq);    
 249              		.loc 1 258 0
 250 001c 0649     		ldr	r1, .L25
 251 001e 2000     		movs	r0, r4
 252 0020 1831     		adds	r1, r1, #24
 253 0022 FFF7FEFF 		bl	u8x8_cad_SendSequence
 254              	.LVL32:
 255 0026 04E0     		b	.L24
 256              	.L22:
 259:..\..\u8g2\csrc/u8x8_d_ssd1306_128x64_noname.c ****       break;
 260:..\..\u8g2\csrc/u8x8_d_ssd1306_128x64_noname.c ****     case U8X8_MSG_DISPLAY_SETUP_MEMORY:
 261:..\..\u8g2\csrc/u8x8_d_ssd1306_128x64_noname.c ****       u8x8_d_helper_display_setup_memory(u8x8, &u8x8_ssd1306_128x64_noname_display_info);
 257              		.loc 1 261 0
 258 0028 0349     		ldr	r1, .L25
 259 002a 2000     		movs	r0, r4
 260 002c 5031     		adds	r1, r1, #80
 261 002e FFF7FEFF 		bl	u8x8_d_helper_display_setup_memory
 262              	.LVL33:
 263              	.L24:
 252:..\..\u8g2\csrc/u8x8_d_ssd1306_128x64_noname.c ****   
 264              		.loc 1 252 0
 265 0032 0120     		movs	r0, #1
 266              	.L21:
 262:..\..\u8g2\csrc/u8x8_d_ssd1306_128x64_noname.c ****       break;
 263:..\..\u8g2\csrc/u8x8_d_ssd1306_128x64_noname.c ****     default:
 264:..\..\u8g2\csrc/u8x8_d_ssd1306_128x64_noname.c ****       return 0;
 265:..\..\u8g2\csrc/u8x8_d_ssd1306_128x64_noname.c ****   }
 266:..\..\u8g2\csrc/u8x8_d_ssd1306_128x64_noname.c ****   return 1;
 267:..\..\u8g2\csrc/u8x8_d_ssd1306_128x64_noname.c **** }
 267              		.loc 1 267 0
 268              		@ sp needed
 269              	.LVL34:
 270 0034 70BD     		pop	{r4, r5, r6, pc}
 271              	.L26:
 272 0036 C046     		.align	2
 273              	.L25:
 274 0038 00000000 		.word	.LANCHOR0
 275              		.cfi_endproc
 276              	.LFE1:
 277              		.size	u8x8_d_ssd1306_128x64_noname, .-u8x8_d_ssd1306_128x64_noname
 278              		.section	.text.u8x8_d_ssd1306_128x64_vcomh0,"ax",%progbits
 279              		.align	1
ARM GAS  C:\Users\Alan\AppData\Local\Temp\ccqTZJBZ.s 			page 11


 280              		.global	u8x8_d_ssd1306_128x64_vcomh0
 281              		.code	16
 282              		.thumb_func
 283              		.type	u8x8_d_ssd1306_128x64_vcomh0, %function
 284              	u8x8_d_ssd1306_128x64_vcomh0:
 285              	.LFB2:
 268:..\..\u8g2\csrc/u8x8_d_ssd1306_128x64_noname.c **** 
 269:..\..\u8g2\csrc/u8x8_d_ssd1306_128x64_noname.c **** uint8_t u8x8_d_ssd1306_128x64_vcomh0(u8x8_t *u8x8, uint8_t msg, uint8_t arg_int, void *arg_ptr)
 270:..\..\u8g2\csrc/u8x8_d_ssd1306_128x64_noname.c **** {
 286              		.loc 1 270 0
 287              		.cfi_startproc
 288              		@ args = 0, pretend = 0, frame = 0
 289              		@ frame_needed = 0, uses_anonymous_args = 0
 290              	.LVL35:
 291 0000 70B5     		push	{r4, r5, r6, lr}
 292              		.cfi_def_cfa_offset 16
 293              		.cfi_offset 4, -16
 294              		.cfi_offset 5, -12
 295              		.cfi_offset 6, -8
 296              		.cfi_offset 14, -4
 297              		.loc 1 270 0
 298 0002 0400     		movs	r4, r0
 299 0004 0D00     		movs	r5, r1
 271:..\..\u8g2\csrc/u8x8_d_ssd1306_128x64_noname.c ****     
 272:..\..\u8g2\csrc/u8x8_d_ssd1306_128x64_noname.c ****   if ( u8x8_d_ssd1306_sh1106_generic(u8x8, msg, arg_int, arg_ptr) != 0 )
 300              		.loc 1 272 0
 301 0006 FFF7FEFF 		bl	u8x8_d_ssd1306_sh1106_generic
 302              	.LVL36:
 303 000a 0028     		cmp	r0, #0
 304 000c 11D1     		bne	.L31
 273:..\..\u8g2\csrc/u8x8_d_ssd1306_128x64_noname.c ****     return 1;
 274:..\..\u8g2\csrc/u8x8_d_ssd1306_128x64_noname.c ****   
 275:..\..\u8g2\csrc/u8x8_d_ssd1306_128x64_noname.c ****   switch(msg)
 305              		.loc 1 275 0
 306 000e 092D     		cmp	r5, #9
 307 0010 0AD0     		beq	.L29
 308 0012 0A2D     		cmp	r5, #10
 309 0014 0ED1     		bne	.L28
 276:..\..\u8g2\csrc/u8x8_d_ssd1306_128x64_noname.c ****   {
 277:..\..\u8g2\csrc/u8x8_d_ssd1306_128x64_noname.c ****     case U8X8_MSG_DISPLAY_INIT:
 278:..\..\u8g2\csrc/u8x8_d_ssd1306_128x64_noname.c ****       u8x8_d_helper_display_init(u8x8);
 310              		.loc 1 278 0
 311 0016 2000     		movs	r0, r4
 312 0018 FFF7FEFF 		bl	u8x8_d_helper_display_init
 313              	.LVL37:
 279:..\..\u8g2\csrc/u8x8_d_ssd1306_128x64_noname.c ****       u8x8_cad_SendSequence(u8x8, u8x8_d_ssd1306_128x64_vcomh0_init_seq);    
 314              		.loc 1 279 0
 315 001c 0649     		ldr	r1, .L32
 316 001e 2000     		movs	r0, r4
 317 0020 6831     		adds	r1, r1, #104
 318 0022 FFF7FEFF 		bl	u8x8_cad_SendSequence
 319              	.LVL38:
 320 0026 04E0     		b	.L31
 321              	.L29:
 280:..\..\u8g2\csrc/u8x8_d_ssd1306_128x64_noname.c ****       break;
 281:..\..\u8g2\csrc/u8x8_d_ssd1306_128x64_noname.c ****     case U8X8_MSG_DISPLAY_SETUP_MEMORY:
 282:..\..\u8g2\csrc/u8x8_d_ssd1306_128x64_noname.c ****       u8x8_d_helper_display_setup_memory(u8x8, &u8x8_ssd1306_128x64_noname_display_info);
ARM GAS  C:\Users\Alan\AppData\Local\Temp\ccqTZJBZ.s 			page 12


 322              		.loc 1 282 0
 323 0028 0349     		ldr	r1, .L32
 324 002a 2000     		movs	r0, r4
 325 002c 5031     		adds	r1, r1, #80
 326 002e FFF7FEFF 		bl	u8x8_d_helper_display_setup_memory
 327              	.LVL39:
 328              	.L31:
 273:..\..\u8g2\csrc/u8x8_d_ssd1306_128x64_noname.c ****   
 329              		.loc 1 273 0
 330 0032 0120     		movs	r0, #1
 331              	.L28:
 283:..\..\u8g2\csrc/u8x8_d_ssd1306_128x64_noname.c ****       break;
 284:..\..\u8g2\csrc/u8x8_d_ssd1306_128x64_noname.c ****     default:
 285:..\..\u8g2\csrc/u8x8_d_ssd1306_128x64_noname.c ****       return 0;
 286:..\..\u8g2\csrc/u8x8_d_ssd1306_128x64_noname.c ****   }
 287:..\..\u8g2\csrc/u8x8_d_ssd1306_128x64_noname.c ****   return 1;
 288:..\..\u8g2\csrc/u8x8_d_ssd1306_128x64_noname.c **** }
 332              		.loc 1 288 0
 333              		@ sp needed
 334              	.LVL40:
 335 0034 70BD     		pop	{r4, r5, r6, pc}
 336              	.L33:
 337 0036 C046     		.align	2
 338              	.L32:
 339 0038 00000000 		.word	.LANCHOR0
 340              		.cfi_endproc
 341              	.LFE2:
 342              		.size	u8x8_d_ssd1306_128x64_vcomh0, .-u8x8_d_ssd1306_128x64_vcomh0
 343              		.section	.text.u8x8_d_sh1106_128x64_noname,"ax",%progbits
 344              		.align	1
 345              		.global	u8x8_d_sh1106_128x64_noname
 346              		.code	16
 347              		.thumb_func
 348              		.type	u8x8_d_sh1106_128x64_noname, %function
 349              	u8x8_d_sh1106_128x64_noname:
 350              	.LFB3:
 289:..\..\u8g2\csrc/u8x8_d_ssd1306_128x64_noname.c **** 
 290:..\..\u8g2\csrc/u8x8_d_ssd1306_128x64_noname.c **** 
 291:..\..\u8g2\csrc/u8x8_d_ssd1306_128x64_noname.c **** static const u8x8_display_info_t u8x8_sh1106_128x64_noname_display_info =
 292:..\..\u8g2\csrc/u8x8_d_ssd1306_128x64_noname.c **** {
 293:..\..\u8g2\csrc/u8x8_d_ssd1306_128x64_noname.c ****   /* chip_enable_level = */ 0,
 294:..\..\u8g2\csrc/u8x8_d_ssd1306_128x64_noname.c ****   /* chip_disable_level = */ 1,
 295:..\..\u8g2\csrc/u8x8_d_ssd1306_128x64_noname.c ****   
 296:..\..\u8g2\csrc/u8x8_d_ssd1306_128x64_noname.c ****   /* post_chip_enable_wait_ns = */ 20,
 297:..\..\u8g2\csrc/u8x8_d_ssd1306_128x64_noname.c ****   /* pre_chip_disable_wait_ns = */ 10,
 298:..\..\u8g2\csrc/u8x8_d_ssd1306_128x64_noname.c ****   /* reset_pulse_width_ms = */ 100, 	/* SSD1306: 3 us */
 299:..\..\u8g2\csrc/u8x8_d_ssd1306_128x64_noname.c ****   /* post_reset_wait_ms = */ 100, /* far east OLEDs need much longer setup time */
 300:..\..\u8g2\csrc/u8x8_d_ssd1306_128x64_noname.c ****   /* sda_setup_time_ns = */ 50,		/* SSD1306: 15ns, but cycle time is 100ns, so use 100/2 */
 301:..\..\u8g2\csrc/u8x8_d_ssd1306_128x64_noname.c ****   /* sck_pulse_width_ns = */ 50,	/* SSD1306: 20ns, but cycle time is 100ns, so use 100/2, AVR: belo
 302:..\..\u8g2\csrc/u8x8_d_ssd1306_128x64_noname.c ****   /* sck_clock_hz = */ 4000000UL,	/* since Arduino 1.6.0, the SPI bus speed in Hz. Should be  10000
 303:..\..\u8g2\csrc/u8x8_d_ssd1306_128x64_noname.c ****   /* spi_mode = */ 3,		/* active low (clock is high by default), rising edge, this seems to be a di
 304:..\..\u8g2\csrc/u8x8_d_ssd1306_128x64_noname.c ****   /* i2c_bus_clock_100kHz = */ 4,
 305:..\..\u8g2\csrc/u8x8_d_ssd1306_128x64_noname.c ****   /* data_setup_time_ns = */ 40,
 306:..\..\u8g2\csrc/u8x8_d_ssd1306_128x64_noname.c ****   /* write_pulse_width_ns = */ 150,	/* SSD1306: cycle time is 300ns, so use 300/2 = 150 */
 307:..\..\u8g2\csrc/u8x8_d_ssd1306_128x64_noname.c ****   /* tile_width = */ 16,
 308:..\..\u8g2\csrc/u8x8_d_ssd1306_128x64_noname.c ****   /* tile_hight = */ 8,
 309:..\..\u8g2\csrc/u8x8_d_ssd1306_128x64_noname.c ****   /* default_x_offset = */ 2,
ARM GAS  C:\Users\Alan\AppData\Local\Temp\ccqTZJBZ.s 			page 13


 310:..\..\u8g2\csrc/u8x8_d_ssd1306_128x64_noname.c ****   /* flipmode_x_offset = */ 2,
 311:..\..\u8g2\csrc/u8x8_d_ssd1306_128x64_noname.c ****   /* pixel_width = */ 128,
 312:..\..\u8g2\csrc/u8x8_d_ssd1306_128x64_noname.c ****   /* pixel_height = */ 64
 313:..\..\u8g2\csrc/u8x8_d_ssd1306_128x64_noname.c **** };
 314:..\..\u8g2\csrc/u8x8_d_ssd1306_128x64_noname.c **** 
 315:..\..\u8g2\csrc/u8x8_d_ssd1306_128x64_noname.c **** uint8_t u8x8_d_sh1106_128x64_noname(u8x8_t *u8x8, uint8_t msg, uint8_t arg_int, void *arg_ptr)
 316:..\..\u8g2\csrc/u8x8_d_ssd1306_128x64_noname.c **** {
 351              		.loc 1 316 0
 352              		.cfi_startproc
 353              		@ args = 0, pretend = 0, frame = 0
 354              		@ frame_needed = 0, uses_anonymous_args = 0
 355              	.LVL41:
 356 0000 70B5     		push	{r4, r5, r6, lr}
 357              		.cfi_def_cfa_offset 16
 358              		.cfi_offset 4, -16
 359              		.cfi_offset 5, -12
 360              		.cfi_offset 6, -8
 361              		.cfi_offset 14, -4
 362              		.loc 1 316 0
 363 0002 0400     		movs	r4, r0
 364 0004 0D00     		movs	r5, r1
 317:..\..\u8g2\csrc/u8x8_d_ssd1306_128x64_noname.c ****   if ( u8x8_d_ssd1306_sh1106_generic(u8x8, msg, arg_int, arg_ptr) != 0 )
 365              		.loc 1 317 0
 366 0006 FFF7FEFF 		bl	u8x8_d_ssd1306_sh1106_generic
 367              	.LVL42:
 368 000a 0028     		cmp	r0, #0
 369 000c 11D1     		bne	.L38
 318:..\..\u8g2\csrc/u8x8_d_ssd1306_128x64_noname.c ****     return 1;
 319:..\..\u8g2\csrc/u8x8_d_ssd1306_128x64_noname.c ****   
 320:..\..\u8g2\csrc/u8x8_d_ssd1306_128x64_noname.c ****   switch(msg)
 370              		.loc 1 320 0
 371 000e 092D     		cmp	r5, #9
 372 0010 0AD0     		beq	.L36
 373 0012 0A2D     		cmp	r5, #10
 374 0014 0ED1     		bne	.L35
 321:..\..\u8g2\csrc/u8x8_d_ssd1306_128x64_noname.c ****   {
 322:..\..\u8g2\csrc/u8x8_d_ssd1306_128x64_noname.c ****     case U8X8_MSG_DISPLAY_INIT:
 323:..\..\u8g2\csrc/u8x8_d_ssd1306_128x64_noname.c ****       u8x8_d_helper_display_init(u8x8);
 375              		.loc 1 323 0
 376 0016 2000     		movs	r0, r4
 377 0018 FFF7FEFF 		bl	u8x8_d_helper_display_init
 378              	.LVL43:
 324:..\..\u8g2\csrc/u8x8_d_ssd1306_128x64_noname.c ****       u8x8_cad_SendSequence(u8x8, u8x8_d_ssd1306_128x64_noname_init_seq);    
 379              		.loc 1 324 0
 380 001c 0649     		ldr	r1, .L39
 381 001e 2000     		movs	r0, r4
 382 0020 1831     		adds	r1, r1, #24
 383 0022 FFF7FEFF 		bl	u8x8_cad_SendSequence
 384              	.LVL44:
 385 0026 04E0     		b	.L38
 386              	.L36:
 325:..\..\u8g2\csrc/u8x8_d_ssd1306_128x64_noname.c ****       break;
 326:..\..\u8g2\csrc/u8x8_d_ssd1306_128x64_noname.c ****     case U8X8_MSG_DISPLAY_SETUP_MEMORY:
 327:..\..\u8g2\csrc/u8x8_d_ssd1306_128x64_noname.c ****       u8x8_d_helper_display_setup_memory(u8x8, &u8x8_sh1106_128x64_noname_display_info);
 387              		.loc 1 327 0
 388 0028 0449     		ldr	r1, .L39+4
 389 002a 2000     		movs	r0, r4
ARM GAS  C:\Users\Alan\AppData\Local\Temp\ccqTZJBZ.s 			page 14


 390 002c 2031     		adds	r1, r1, #32
 391 002e FFF7FEFF 		bl	u8x8_d_helper_display_setup_memory
 392              	.LVL45:
 393              	.L38:
 318:..\..\u8g2\csrc/u8x8_d_ssd1306_128x64_noname.c ****   
 394              		.loc 1 318 0
 395 0032 0120     		movs	r0, #1
 396              	.L35:
 328:..\..\u8g2\csrc/u8x8_d_ssd1306_128x64_noname.c ****       break;
 329:..\..\u8g2\csrc/u8x8_d_ssd1306_128x64_noname.c ****     default:
 330:..\..\u8g2\csrc/u8x8_d_ssd1306_128x64_noname.c ****       return 0;
 331:..\..\u8g2\csrc/u8x8_d_ssd1306_128x64_noname.c ****   }
 332:..\..\u8g2\csrc/u8x8_d_ssd1306_128x64_noname.c ****   return 1;
 333:..\..\u8g2\csrc/u8x8_d_ssd1306_128x64_noname.c ****     
 334:..\..\u8g2\csrc/u8x8_d_ssd1306_128x64_noname.c **** }
 397              		.loc 1 334 0
 398              		@ sp needed
 399              	.LVL46:
 400 0034 70BD     		pop	{r4, r5, r6, pc}
 401              	.L40:
 402 0036 C046     		.align	2
 403              	.L39:
 404 0038 00000000 		.word	.LANCHOR0
 405 003c 80000000 		.word	.LANCHOR1
 406              		.cfi_endproc
 407              	.LFE3:
 408              		.size	u8x8_d_sh1106_128x64_noname, .-u8x8_d_sh1106_128x64_noname
 409              		.section	.text.u8x8_d_sh1106_128x64_vcomh0,"ax",%progbits
 410              		.align	1
 411              		.global	u8x8_d_sh1106_128x64_vcomh0
 412              		.code	16
 413              		.thumb_func
 414              		.type	u8x8_d_sh1106_128x64_vcomh0, %function
 415              	u8x8_d_sh1106_128x64_vcomh0:
 416              	.LFB4:
 335:..\..\u8g2\csrc/u8x8_d_ssd1306_128x64_noname.c **** 
 336:..\..\u8g2\csrc/u8x8_d_ssd1306_128x64_noname.c **** uint8_t u8x8_d_sh1106_128x64_vcomh0(u8x8_t *u8x8, uint8_t msg, uint8_t arg_int, void *arg_ptr)
 337:..\..\u8g2\csrc/u8x8_d_ssd1306_128x64_noname.c **** {
 417              		.loc 1 337 0
 418              		.cfi_startproc
 419              		@ args = 0, pretend = 0, frame = 0
 420              		@ frame_needed = 0, uses_anonymous_args = 0
 421              	.LVL47:
 422 0000 70B5     		push	{r4, r5, r6, lr}
 423              		.cfi_def_cfa_offset 16
 424              		.cfi_offset 4, -16
 425              		.cfi_offset 5, -12
 426              		.cfi_offset 6, -8
 427              		.cfi_offset 14, -4
 428              		.loc 1 337 0
 429 0002 0400     		movs	r4, r0
 430 0004 0D00     		movs	r5, r1
 338:..\..\u8g2\csrc/u8x8_d_ssd1306_128x64_noname.c ****   if ( u8x8_d_ssd1306_sh1106_generic(u8x8, msg, arg_int, arg_ptr) != 0 )
 431              		.loc 1 338 0
 432 0006 FFF7FEFF 		bl	u8x8_d_ssd1306_sh1106_generic
 433              	.LVL48:
 434 000a 0028     		cmp	r0, #0
ARM GAS  C:\Users\Alan\AppData\Local\Temp\ccqTZJBZ.s 			page 15


 435 000c 11D1     		bne	.L45
 339:..\..\u8g2\csrc/u8x8_d_ssd1306_128x64_noname.c ****     return 1;
 340:..\..\u8g2\csrc/u8x8_d_ssd1306_128x64_noname.c ****   
 341:..\..\u8g2\csrc/u8x8_d_ssd1306_128x64_noname.c ****   switch(msg)
 436              		.loc 1 341 0
 437 000e 092D     		cmp	r5, #9
 438 0010 0AD0     		beq	.L43
 439 0012 0A2D     		cmp	r5, #10
 440 0014 0ED1     		bne	.L42
 342:..\..\u8g2\csrc/u8x8_d_ssd1306_128x64_noname.c ****   {
 343:..\..\u8g2\csrc/u8x8_d_ssd1306_128x64_noname.c ****     case U8X8_MSG_DISPLAY_INIT:
 344:..\..\u8g2\csrc/u8x8_d_ssd1306_128x64_noname.c ****       u8x8_d_helper_display_init(u8x8);
 441              		.loc 1 344 0
 442 0016 2000     		movs	r0, r4
 443 0018 FFF7FEFF 		bl	u8x8_d_helper_display_init
 444              	.LVL49:
 345:..\..\u8g2\csrc/u8x8_d_ssd1306_128x64_noname.c ****       u8x8_cad_SendSequence(u8x8, u8x8_d_ssd1306_128x64_vcomh0_init_seq);    
 445              		.loc 1 345 0
 446 001c 0649     		ldr	r1, .L46
 447 001e 2000     		movs	r0, r4
 448 0020 6831     		adds	r1, r1, #104
 449 0022 FFF7FEFF 		bl	u8x8_cad_SendSequence
 450              	.LVL50:
 451 0026 04E0     		b	.L45
 452              	.L43:
 346:..\..\u8g2\csrc/u8x8_d_ssd1306_128x64_noname.c ****       break;
 347:..\..\u8g2\csrc/u8x8_d_ssd1306_128x64_noname.c ****     case U8X8_MSG_DISPLAY_SETUP_MEMORY:
 348:..\..\u8g2\csrc/u8x8_d_ssd1306_128x64_noname.c ****       u8x8_d_helper_display_setup_memory(u8x8, &u8x8_sh1106_128x64_noname_display_info);
 453              		.loc 1 348 0
 454 0028 0449     		ldr	r1, .L46+4
 455 002a 2000     		movs	r0, r4
 456 002c 2031     		adds	r1, r1, #32
 457 002e FFF7FEFF 		bl	u8x8_d_helper_display_setup_memory
 458              	.LVL51:
 459              	.L45:
 339:..\..\u8g2\csrc/u8x8_d_ssd1306_128x64_noname.c ****   
 460              		.loc 1 339 0
 461 0032 0120     		movs	r0, #1
 462              	.L42:
 349:..\..\u8g2\csrc/u8x8_d_ssd1306_128x64_noname.c ****       break;
 350:..\..\u8g2\csrc/u8x8_d_ssd1306_128x64_noname.c ****     default:
 351:..\..\u8g2\csrc/u8x8_d_ssd1306_128x64_noname.c ****       return 0;
 352:..\..\u8g2\csrc/u8x8_d_ssd1306_128x64_noname.c ****   }
 353:..\..\u8g2\csrc/u8x8_d_ssd1306_128x64_noname.c ****   return 1;
 354:..\..\u8g2\csrc/u8x8_d_ssd1306_128x64_noname.c ****     
 355:..\..\u8g2\csrc/u8x8_d_ssd1306_128x64_noname.c **** }
 463              		.loc 1 355 0
 464              		@ sp needed
 465              	.LVL52:
 466 0034 70BD     		pop	{r4, r5, r6, pc}
 467              	.L47:
 468 0036 C046     		.align	2
 469              	.L46:
 470 0038 00000000 		.word	.LANCHOR0
 471 003c 80000000 		.word	.LANCHOR1
 472              		.cfi_endproc
 473              	.LFE4:
ARM GAS  C:\Users\Alan\AppData\Local\Temp\ccqTZJBZ.s 			page 16


 474              		.size	u8x8_d_sh1106_128x64_vcomh0, .-u8x8_d_sh1106_128x64_vcomh0
 475              		.section	.rodata
 476              		.align	2
 477              		.set	.LANCHOR0,. + 0
 478              		.set	.LANCHOR1,. + 128
 479              		.type	u8x8_d_ssd1306_128x64_noname_powersave0_seq, %object
 480              		.size	u8x8_d_ssd1306_128x64_noname_powersave0_seq, 5
 481              	u8x8_d_ssd1306_128x64_noname_powersave0_seq:
 482 0000 18       		.byte	24
 483 0001 15       		.byte	21
 484 0002 AF       		.byte	-81
 485 0003 19       		.byte	25
 486 0004 FF       		.byte	-1
 487              		.type	u8x8_d_ssd1306_128x64_noname_powersave1_seq, %object
 488              		.size	u8x8_d_ssd1306_128x64_noname_powersave1_seq, 5
 489              	u8x8_d_ssd1306_128x64_noname_powersave1_seq:
 490 0005 18       		.byte	24
 491 0006 15       		.byte	21
 492 0007 AE       		.byte	-82
 493 0008 19       		.byte	25
 494 0009 FF       		.byte	-1
 495              		.type	u8x8_d_ssd1306_128x64_noname_flip0_seq, %object
 496              		.size	u8x8_d_ssd1306_128x64_noname_flip0_seq, 7
 497              	u8x8_d_ssd1306_128x64_noname_flip0_seq:
 498 000a 18       		.byte	24
 499 000b 15       		.byte	21
 500 000c A1       		.byte	-95
 501 000d 15       		.byte	21
 502 000e C8       		.byte	-56
 503 000f 19       		.byte	25
 504 0010 FF       		.byte	-1
 505              		.type	u8x8_d_ssd1306_128x64_noname_flip1_seq, %object
 506              		.size	u8x8_d_ssd1306_128x64_noname_flip1_seq, 7
 507              	u8x8_d_ssd1306_128x64_noname_flip1_seq:
 508 0011 18       		.byte	24
 509 0012 15       		.byte	21
 510 0013 A0       		.byte	-96
 511 0014 15       		.byte	21
 512 0015 C0       		.byte	-64
 513 0016 19       		.byte	25
 514 0017 FF       		.byte	-1
 515              		.type	u8x8_d_ssd1306_128x64_noname_init_seq, %object
 516              		.size	u8x8_d_ssd1306_128x64_noname_init_seq, 53
 517              	u8x8_d_ssd1306_128x64_noname_init_seq:
 518 0018 18       		.byte	24
 519 0019 15       		.byte	21
 520 001a AE       		.byte	-82
 521 001b 15       		.byte	21
 522 001c D5       		.byte	-43
 523 001d 16       		.byte	22
 524 001e 80       		.byte	-128
 525 001f 15       		.byte	21
 526 0020 A8       		.byte	-88
 527 0021 16       		.byte	22
 528 0022 3F       		.byte	63
 529 0023 15       		.byte	21
 530 0024 D3       		.byte	-45
ARM GAS  C:\Users\Alan\AppData\Local\Temp\ccqTZJBZ.s 			page 17


 531 0025 16       		.byte	22
 532 0026 00       		.byte	0
 533 0027 15       		.byte	21
 534 0028 40       		.byte	64
 535 0029 15       		.byte	21
 536 002a 8D       		.byte	-115
 537 002b 16       		.byte	22
 538 002c 14       		.byte	20
 539 002d 15       		.byte	21
 540 002e 20       		.byte	32
 541 002f 16       		.byte	22
 542 0030 00       		.byte	0
 543 0031 15       		.byte	21
 544 0032 A1       		.byte	-95
 545 0033 15       		.byte	21
 546 0034 C8       		.byte	-56
 547 0035 15       		.byte	21
 548 0036 DA       		.byte	-38
 549 0037 16       		.byte	22
 550 0038 12       		.byte	18
 551 0039 15       		.byte	21
 552 003a 81       		.byte	-127
 553 003b 16       		.byte	22
 554 003c CF       		.byte	-49
 555 003d 15       		.byte	21
 556 003e D9       		.byte	-39
 557 003f 16       		.byte	22
 558 0040 F1       		.byte	-15
 559 0041 15       		.byte	21
 560 0042 DB       		.byte	-37
 561 0043 16       		.byte	22
 562 0044 40       		.byte	64
 563 0045 15       		.byte	21
 564 0046 2E       		.byte	46
 565 0047 15       		.byte	21
 566 0048 A4       		.byte	-92
 567 0049 15       		.byte	21
 568 004a A6       		.byte	-90
 569 004b 19       		.byte	25
 570 004c FF       		.byte	-1
 571 004d 000000   		.space	3
 572              		.type	u8x8_ssd1306_128x64_noname_display_info, %object
 573              		.size	u8x8_ssd1306_128x64_noname_display_info, 24
 574              	u8x8_ssd1306_128x64_noname_display_info:
 575 0050 00       		.byte	0
 576 0051 01       		.byte	1
 577 0052 14       		.byte	20
 578 0053 0A       		.byte	10
 579 0054 64       		.byte	100
 580 0055 64       		.byte	100
 581 0056 32       		.byte	50
 582 0057 32       		.byte	50
 583 0058 00093D00 		.word	4000000
 584 005c 00       		.byte	0
 585 005d 04       		.byte	4
 586 005e 28       		.byte	40
 587 005f 96       		.byte	-106
ARM GAS  C:\Users\Alan\AppData\Local\Temp\ccqTZJBZ.s 			page 18


 588 0060 10       		.byte	16
 589 0061 08       		.byte	8
 590 0062 00       		.byte	0
 591 0063 00       		.byte	0
 592 0064 8000     		.short	128
 593 0066 4000     		.short	64
 594              		.type	u8x8_d_ssd1306_128x64_vcomh0_init_seq, %object
 595              		.size	u8x8_d_ssd1306_128x64_vcomh0_init_seq, 53
 596              	u8x8_d_ssd1306_128x64_vcomh0_init_seq:
 597 0068 18       		.byte	24
 598 0069 15       		.byte	21
 599 006a AE       		.byte	-82
 600 006b 15       		.byte	21
 601 006c D5       		.byte	-43
 602 006d 16       		.byte	22
 603 006e 80       		.byte	-128
 604 006f 15       		.byte	21
 605 0070 A8       		.byte	-88
 606 0071 16       		.byte	22
 607 0072 3F       		.byte	63
 608 0073 15       		.byte	21
 609 0074 D3       		.byte	-45
 610 0075 16       		.byte	22
 611 0076 00       		.byte	0
 612 0077 15       		.byte	21
 613 0078 40       		.byte	64
 614 0079 15       		.byte	21
 615 007a 8D       		.byte	-115
 616 007b 16       		.byte	22
 617 007c 14       		.byte	20
 618 007d 15       		.byte	21
 619 007e 20       		.byte	32
 620 007f 16       		.byte	22
 621 0080 00       		.byte	0
 622 0081 15       		.byte	21
 623 0082 A1       		.byte	-95
 624 0083 15       		.byte	21
 625 0084 C8       		.byte	-56
 626 0085 15       		.byte	21
 627 0086 DA       		.byte	-38
 628 0087 16       		.byte	22
 629 0088 12       		.byte	18
 630 0089 15       		.byte	21
 631 008a 81       		.byte	-127
 632 008b 16       		.byte	22
 633 008c EF       		.byte	-17
 634 008d 15       		.byte	21
 635 008e D9       		.byte	-39
 636 008f 16       		.byte	22
 637 0090 A1       		.byte	-95
 638 0091 15       		.byte	21
 639 0092 DB       		.byte	-37
 640 0093 16       		.byte	22
 641 0094 00       		.byte	0
 642 0095 15       		.byte	21
 643 0096 2E       		.byte	46
 644 0097 15       		.byte	21
ARM GAS  C:\Users\Alan\AppData\Local\Temp\ccqTZJBZ.s 			page 19


 645 0098 A4       		.byte	-92
 646 0099 15       		.byte	21
 647 009a A6       		.byte	-90
 648 009b 19       		.byte	25
 649 009c FF       		.byte	-1
 650 009d 000000   		.space	3
 651              		.type	u8x8_sh1106_128x64_noname_display_info, %object
 652              		.size	u8x8_sh1106_128x64_noname_display_info, 24
 653              	u8x8_sh1106_128x64_noname_display_info:
 654 00a0 00       		.byte	0
 655 00a1 01       		.byte	1
 656 00a2 14       		.byte	20
 657 00a3 0A       		.byte	10
 658 00a4 64       		.byte	100
 659 00a5 64       		.byte	100
 660 00a6 32       		.byte	50
 661 00a7 32       		.byte	50
 662 00a8 00093D00 		.word	4000000
 663 00ac 03       		.byte	3
 664 00ad 04       		.byte	4
 665 00ae 28       		.byte	40
 666 00af 96       		.byte	-106
 667 00b0 10       		.byte	16
 668 00b1 08       		.byte	8
 669 00b2 02       		.byte	2
 670 00b3 02       		.byte	2
 671 00b4 8000     		.short	128
 672 00b6 4000     		.short	64
 673              		.text
 674              	.Letext0:
 675              		.file 2 "c:\\program files (x86)\\cypress\\psoc creator\\4.1\\psoc creator\\import\\gnu\\arm\\5.4.
 676              		.file 3 "c:\\program files (x86)\\cypress\\psoc creator\\4.1\\psoc creator\\import\\gnu\\arm\\5.4.
 677              		.file 4 "..\\..\\u8g2\\csrc\\u8x8.h"