ARM GAS  C:\Users\Greg\AppData\Local\Temp\ccuwp1ma.s 			page 1


   1              		.syntax unified
   2              		.cpu cortex-m0
   3              		.fpu softvfp
   4              		.eabi_attribute 20, 1
   5              		.eabi_attribute 21, 1
   6              		.eabi_attribute 23, 3
   7              		.eabi_attribute 24, 1
   8              		.eabi_attribute 25, 1
   9              		.eabi_attribute 26, 1
  10              		.eabi_attribute 30, 4
  11              		.eabi_attribute 34, 0
  12              		.eabi_attribute 18, 4
  13              		.thumb
  14              		.syntax unified
  15              		.file	"u8x8_d_ks0108.c"
  16              		.text
  17              	.Ltext0:
  18              		.cfi_sections	.debug_frame
  19              		.section	.text.u8x8_ks0108_out,"ax",%progbits
  20              		.align	1
  21              		.code	16
  22              		.thumb_func
  23              		.type	u8x8_ks0108_out, %function
  24              	u8x8_ks0108_out:
  25              	.LFB0:
  26              		.file 1 "..\\..\\u8g2\\csrc\\u8x8_d_ks0108.c"
   1:..\..\u8g2\csrc/u8x8_d_ks0108.c **** /*
   2:..\..\u8g2\csrc/u8x8_d_ks0108.c **** 
   3:..\..\u8g2\csrc/u8x8_d_ks0108.c ****   u8x8_d_ks0108.c 
   4:..\..\u8g2\csrc/u8x8_d_ks0108.c ****   
   5:..\..\u8g2\csrc/u8x8_d_ks0108.c ****   The classic 5V LCD
   6:..\..\u8g2\csrc/u8x8_d_ks0108.c ****   
   7:..\..\u8g2\csrc/u8x8_d_ks0108.c ****   Universal 8bit Graphics Library (https://github.com/olikraus/u8g2/)
   8:..\..\u8g2\csrc/u8x8_d_ks0108.c **** 
   9:..\..\u8g2\csrc/u8x8_d_ks0108.c ****   Copyright (c) 2016, olikraus@gmail.com
  10:..\..\u8g2\csrc/u8x8_d_ks0108.c ****   All rights reserved.
  11:..\..\u8g2\csrc/u8x8_d_ks0108.c **** 
  12:..\..\u8g2\csrc/u8x8_d_ks0108.c ****   Redistribution and use in source and binary forms, with or without modification, 
  13:..\..\u8g2\csrc/u8x8_d_ks0108.c ****   are permitted provided that the following conditions are met:
  14:..\..\u8g2\csrc/u8x8_d_ks0108.c **** 
  15:..\..\u8g2\csrc/u8x8_d_ks0108.c ****   * Redistributions of source code must retain the above copyright notice, this list 
  16:..\..\u8g2\csrc/u8x8_d_ks0108.c ****     of conditions and the following disclaimer.
  17:..\..\u8g2\csrc/u8x8_d_ks0108.c ****     
  18:..\..\u8g2\csrc/u8x8_d_ks0108.c ****   * Redistributions in binary form must reproduce the above copyright notice, this 
  19:..\..\u8g2\csrc/u8x8_d_ks0108.c ****     list of conditions and the following disclaimer in the documentation and/or other 
  20:..\..\u8g2\csrc/u8x8_d_ks0108.c ****     materials provided with the distribution.
  21:..\..\u8g2\csrc/u8x8_d_ks0108.c **** 
  22:..\..\u8g2\csrc/u8x8_d_ks0108.c ****   THIS SOFTWARE IS PROVIDED BY THE COPYRIGHT HOLDERS AND 
  23:..\..\u8g2\csrc/u8x8_d_ks0108.c ****   CONTRIBUTORS "AS IS" AND ANY EXPRESS OR IMPLIED WARRANTIES, 
  24:..\..\u8g2\csrc/u8x8_d_ks0108.c ****   INCLUDING, BUT NOT LIMITED TO, THE IMPLIED WARRANTIES OF 
  25:..\..\u8g2\csrc/u8x8_d_ks0108.c ****   MERCHANTABILITY AND FITNESS FOR A PARTICULAR PURPOSE ARE 
  26:..\..\u8g2\csrc/u8x8_d_ks0108.c ****   DISCLAIMED. IN NO EVENT SHALL THE COPYRIGHT HOLDER OR 
  27:..\..\u8g2\csrc/u8x8_d_ks0108.c ****   CONTRIBUTORS BE LIABLE FOR ANY DIRECT, INDIRECT, INCIDENTAL, 
  28:..\..\u8g2\csrc/u8x8_d_ks0108.c ****   SPECIAL, EXEMPLARY, OR CONSEQUENTIAL DAMAGES (INCLUDING, BUT 
  29:..\..\u8g2\csrc/u8x8_d_ks0108.c ****   NOT LIMITED TO, PROCUREMENT OF SUBSTITUTE GOODS OR SERVICES; 
  30:..\..\u8g2\csrc/u8x8_d_ks0108.c ****   LOSS OF USE, DATA, OR PROFITS; OR BUSINESS INTERRUPTION) HOWEVER 
  31:..\..\u8g2\csrc/u8x8_d_ks0108.c ****   CAUSED AND ON ANY THEORY OF LIABILITY, WHETHER IN CONTRACT, 
ARM GAS  C:\Users\Greg\AppData\Local\Temp\ccuwp1ma.s 			page 2


  32:..\..\u8g2\csrc/u8x8_d_ks0108.c ****   STRICT LIABILITY, OR TORT (INCLUDING NEGLIGENCE OR OTHERWISE) 
  33:..\..\u8g2\csrc/u8x8_d_ks0108.c ****   ARISING IN ANY WAY OUT OF THE USE OF THIS SOFTWARE, EVEN IF 
  34:..\..\u8g2\csrc/u8x8_d_ks0108.c ****   ADVISED OF THE POSSIBILITY OF SUCH DAMAGE.  
  35:..\..\u8g2\csrc/u8x8_d_ks0108.c **** 
  36:..\..\u8g2\csrc/u8x8_d_ks0108.c ****   
  37:..\..\u8g2\csrc/u8x8_d_ks0108.c **** */
  38:..\..\u8g2\csrc/u8x8_d_ks0108.c **** #include "u8x8.h"
  39:..\..\u8g2\csrc/u8x8_d_ks0108.c **** 
  40:..\..\u8g2\csrc/u8x8_d_ks0108.c **** 
  41:..\..\u8g2\csrc/u8x8_d_ks0108.c **** 
  42:..\..\u8g2\csrc/u8x8_d_ks0108.c **** 
  43:..\..\u8g2\csrc/u8x8_d_ks0108.c **** static const uint8_t u8x8_d_ks0108_init_seq[] = {
  44:..\..\u8g2\csrc/u8x8_d_ks0108.c ****   U8X8_C(0x0c0),		                /* satart at the top  */  
  45:..\..\u8g2\csrc/u8x8_d_ks0108.c ****   U8X8_END()             			/* end of sequence */
  46:..\..\u8g2\csrc/u8x8_d_ks0108.c **** };
  47:..\..\u8g2\csrc/u8x8_d_ks0108.c **** 
  48:..\..\u8g2\csrc/u8x8_d_ks0108.c **** static const uint8_t u8x8_d_ks0108_powersave0_seq[] = {
  49:..\..\u8g2\csrc/u8x8_d_ks0108.c ****   U8X8_C(0x03f),		                /* display on */
  50:..\..\u8g2\csrc/u8x8_d_ks0108.c ****   U8X8_END()             			/* end of sequence */
  51:..\..\u8g2\csrc/u8x8_d_ks0108.c **** };
  52:..\..\u8g2\csrc/u8x8_d_ks0108.c **** 
  53:..\..\u8g2\csrc/u8x8_d_ks0108.c **** static const uint8_t u8x8_d_ks0108_powersave1_seq[] = {
  54:..\..\u8g2\csrc/u8x8_d_ks0108.c ****   U8X8_C(0x03e),		                /* display off */
  55:..\..\u8g2\csrc/u8x8_d_ks0108.c ****   U8X8_END()             			/* end of sequence */
  56:..\..\u8g2\csrc/u8x8_d_ks0108.c **** };
  57:..\..\u8g2\csrc/u8x8_d_ks0108.c **** 
  58:..\..\u8g2\csrc/u8x8_d_ks0108.c **** 
  59:..\..\u8g2\csrc/u8x8_d_ks0108.c **** struct u8x8_ks0108_vars
  60:..\..\u8g2\csrc/u8x8_d_ks0108.c **** {
  61:..\..\u8g2\csrc/u8x8_d_ks0108.c ****   uint8_t *ptr;
  62:..\..\u8g2\csrc/u8x8_d_ks0108.c ****   uint8_t x;
  63:..\..\u8g2\csrc/u8x8_d_ks0108.c ****   uint8_t c;
  64:..\..\u8g2\csrc/u8x8_d_ks0108.c ****   uint8_t arg_int;
  65:..\..\u8g2\csrc/u8x8_d_ks0108.c **** };
  66:..\..\u8g2\csrc/u8x8_d_ks0108.c **** 
  67:..\..\u8g2\csrc/u8x8_d_ks0108.c **** static void u8x8_ks0108_out(u8x8_t *u8x8, struct u8x8_ks0108_vars *v, void *arg_ptr)
  68:..\..\u8g2\csrc/u8x8_d_ks0108.c **** {
  27              		.loc 1 68 0
  28              		.cfi_startproc
  29              		@ args = 0, pretend = 0, frame = 0
  30              		@ frame_needed = 0, uses_anonymous_args = 0
  31              	.LVL0:
  32 0000 F8B5     		push	{r3, r4, r5, r6, r7, lr}
  33              		.cfi_def_cfa_offset 24
  34              		.cfi_offset 3, -24
  35              		.cfi_offset 4, -20
  36              		.cfi_offset 5, -16
  37              		.cfi_offset 6, -12
  38              		.cfi_offset 7, -8
  39              		.cfi_offset 14, -4
  69:..\..\u8g2\csrc/u8x8_d_ks0108.c ****   uint8_t cnt;
  70:..\..\u8g2\csrc/u8x8_d_ks0108.c ****   u8x8_cad_SendCmd(u8x8, 0x040 | ((v->x << 3) & 63) );
  40              		.loc 1 70 0
  41 0002 3F23     		movs	r3, #63
  68:..\..\u8g2\csrc/u8x8_d_ks0108.c ****   uint8_t cnt;
  42              		.loc 1 68 0
  43 0004 0C00     		movs	r4, r1
ARM GAS  C:\Users\Greg\AppData\Local\Temp\ccuwp1ma.s 			page 3


  44              		.loc 1 70 0
  45 0006 0979     		ldrb	r1, [r1, #4]
  46              	.LVL1:
  68:..\..\u8g2\csrc/u8x8_d_ks0108.c ****   uint8_t cnt;
  47              		.loc 1 68 0
  48 0008 1700     		movs	r7, r2
  49              		.loc 1 70 0
  50 000a C900     		lsls	r1, r1, #3
  51 000c 1940     		ands	r1, r3
  52 000e 0133     		adds	r3, r3, #1
  53 0010 1943     		orrs	r1, r3
  68:..\..\u8g2\csrc/u8x8_d_ks0108.c ****   uint8_t cnt;
  54              		.loc 1 68 0
  55 0012 0600     		movs	r6, r0
  56              		.loc 1 70 0
  57 0014 FFF7FEFF 		bl	u8x8_cad_SendCmd
  58              	.LVL2:
  71:..\..\u8g2\csrc/u8x8_d_ks0108.c ****   u8x8_cad_SendCmd(u8x8, 0x0b8 | (((u8x8_tile_t *)arg_ptr)->y_pos));
  59              		.loc 1 71 0
  60 0018 B823     		movs	r3, #184
  61 001a B979     		ldrb	r1, [r7, #6]
  62 001c 3000     		movs	r0, r6
  63 001e 1943     		orrs	r1, r3
  64 0020 FFF7FEFF 		bl	u8x8_cad_SendCmd
  65              	.LVL3:
  66              	.L2:
  72:..\..\u8g2\csrc/u8x8_d_ks0108.c ****   
  73:..\..\u8g2\csrc/u8x8_d_ks0108.c ****   while( v->arg_int > 0 )
  67              		.loc 1 73 0
  68 0024 A379     		ldrb	r3, [r4, #6]
  69 0026 002B     		cmp	r3, #0
  70 0028 29D0     		beq	.L1
  74:..\..\u8g2\csrc/u8x8_d_ks0108.c ****   {
  75:..\..\u8g2\csrc/u8x8_d_ks0108.c ****       /* calculate tiles to next boundary (end or chip limit) */
  76:..\..\u8g2\csrc/u8x8_d_ks0108.c ****       cnt = v->x;
  71              		.loc 1 76 0
  72 002a 2279     		ldrb	r2, [r4, #4]
  73              	.LVL4:
  77:..\..\u8g2\csrc/u8x8_d_ks0108.c ****       cnt += 8;
  78:..\..\u8g2\csrc/u8x8_d_ks0108.c ****       cnt &= 0x0f8;
  74              		.loc 1 78 0
  75 002c 0721     		movs	r1, #7
  77:..\..\u8g2\csrc/u8x8_d_ks0108.c ****       cnt += 8;
  76              		.loc 1 77 0
  77 002e 1300     		movs	r3, r2
  78 0030 0833     		adds	r3, r3, #8
  79 0032 DBB2     		uxtb	r3, r3
  80              	.LVL5:
  81              		.loc 1 78 0
  82 0034 8B43     		bics	r3, r1
  83              	.LVL6:
  79:..\..\u8g2\csrc/u8x8_d_ks0108.c ****       cnt -= v->x;
  84              		.loc 1 79 0
  85 0036 9B1A     		subs	r3, r3, r2
  86              	.LVL7:
  80:..\..\u8g2\csrc/u8x8_d_ks0108.c ****             
  81:..\..\u8g2\csrc/u8x8_d_ks0108.c ****       if ( cnt > v->c )
ARM GAS  C:\Users\Greg\AppData\Local\Temp\ccuwp1ma.s 			page 4


  87              		.loc 1 81 0
  88 0038 6179     		ldrb	r1, [r4, #5]
  89              	.LVL8:
  79:..\..\u8g2\csrc/u8x8_d_ks0108.c ****       cnt -= v->x;
  90              		.loc 1 79 0
  91 003a DBB2     		uxtb	r3, r3
  92              	.LVL9:
  93 003c 1D1C     		adds	r5, r3, #0
  94 003e 8B42     		cmp	r3, r1
  95 0040 00D9     		bls	.L3
  96 0042 0D1C     		adds	r5, r1, #0
  97              	.L3:
  98 0044 EDB2     		uxtb	r5, r5
  99              	.LVL10:
  82:..\..\u8g2\csrc/u8x8_d_ks0108.c **** 	cnt = v->c;
  83:..\..\u8g2\csrc/u8x8_d_ks0108.c ****     
  84:..\..\u8g2\csrc/u8x8_d_ks0108.c ****       /* of cours we still could use cnt=1 here... */
  85:..\..\u8g2\csrc/u8x8_d_ks0108.c ****       /* but setting cnt to 1 is not very efficient */
  86:..\..\u8g2\csrc/u8x8_d_ks0108.c ****       //cnt = 1;
  87:..\..\u8g2\csrc/u8x8_d_ks0108.c ****     
  88:..\..\u8g2\csrc/u8x8_d_ks0108.c ****       v->x +=cnt;
 100              		.loc 1 88 0
 101 0046 5219     		adds	r2, r2, r5
  89:..\..\u8g2\csrc/u8x8_d_ks0108.c ****       v->c-=cnt;
 102              		.loc 1 89 0
 103 0048 491B     		subs	r1, r1, r5
  90:..\..\u8g2\csrc/u8x8_d_ks0108.c ****       cnt<<=3;
 104              		.loc 1 90 0
 105 004a ED00     		lsls	r5, r5, #3
 106              	.LVL11:
 107 004c EDB2     		uxtb	r5, r5
 108              	.LVL12:
  88:..\..\u8g2\csrc/u8x8_d_ks0108.c ****       v->c-=cnt;
 109              		.loc 1 88 0
 110 004e 2271     		strb	r2, [r4, #4]
  89:..\..\u8g2\csrc/u8x8_d_ks0108.c ****       v->c-=cnt;
 111              		.loc 1 89 0
 112 0050 6171     		strb	r1, [r4, #5]
  91:..\..\u8g2\csrc/u8x8_d_ks0108.c ****       u8x8_cad_SendData(u8x8, cnt, v->ptr);	/* note: SendData can not handle more than 255 bytes */
 113              		.loc 1 91 0
 114 0052 2268     		ldr	r2, [r4]
 115 0054 2900     		movs	r1, r5
 116 0056 3000     		movs	r0, r6
 117 0058 FFF7FEFF 		bl	u8x8_cad_SendData
 118              	.LVL13:
  92:..\..\u8g2\csrc/u8x8_d_ks0108.c ****       v->ptr += cnt;
 119              		.loc 1 92 0
 120 005c 2368     		ldr	r3, [r4]
 121 005e 5D19     		adds	r5, r3, r5
 122              	.LVL14:
  93:..\..\u8g2\csrc/u8x8_d_ks0108.c ****     
  94:..\..\u8g2\csrc/u8x8_d_ks0108.c ****       if ( v->c == 0 )
 123              		.loc 1 94 0
 124 0060 6379     		ldrb	r3, [r4, #5]
  92:..\..\u8g2\csrc/u8x8_d_ks0108.c ****       v->ptr += cnt;
 125              		.loc 1 92 0
 126 0062 2560     		str	r5, [r4]
ARM GAS  C:\Users\Greg\AppData\Local\Temp\ccuwp1ma.s 			page 5


 127              		.loc 1 94 0
 128 0064 002B     		cmp	r3, #0
 129 0066 06D1     		bne	.L4
  95:..\..\u8g2\csrc/u8x8_d_ks0108.c ****       {
  96:..\..\u8g2\csrc/u8x8_d_ks0108.c **** 	v->ptr = ((u8x8_tile_t *)arg_ptr)->tile_ptr;
 130              		.loc 1 96 0
 131 0068 3B68     		ldr	r3, [r7]
 132 006a 2360     		str	r3, [r4]
  97:..\..\u8g2\csrc/u8x8_d_ks0108.c **** 	v->c = ((u8x8_tile_t *)arg_ptr)->cnt;
 133              		.loc 1 97 0
 134 006c 3B79     		ldrb	r3, [r7, #4]
 135 006e 6371     		strb	r3, [r4, #5]
  98:..\..\u8g2\csrc/u8x8_d_ks0108.c **** 	v->arg_int--;
 136              		.loc 1 98 0
 137 0070 A379     		ldrb	r3, [r4, #6]
 138 0072 013B     		subs	r3, r3, #1
 139 0074 A371     		strb	r3, [r4, #6]
 140              	.L4:
  99:..\..\u8g2\csrc/u8x8_d_ks0108.c ****       }
 100:..\..\u8g2\csrc/u8x8_d_ks0108.c ****       if ( ((v->x) & 7) == 0 )
 141              		.loc 1 100 0
 142 0076 0722     		movs	r2, #7
 143 0078 2379     		ldrb	r3, [r4, #4]
 144 007a 1342     		tst	r3, r2
 145 007c D2D1     		bne	.L2
 146              	.L1:
 101:..\..\u8g2\csrc/u8x8_d_ks0108.c **** 	break;       
 102:..\..\u8g2\csrc/u8x8_d_ks0108.c ****   } 
 103:..\..\u8g2\csrc/u8x8_d_ks0108.c **** }
 147              		.loc 1 103 0
 148              		@ sp needed
 149              	.LVL15:
 150              	.LVL16:
 151              	.LVL17:
 152 007e F8BD     		pop	{r3, r4, r5, r6, r7, pc}
 153              		.cfi_endproc
 154              	.LFE0:
 155              		.size	u8x8_ks0108_out, .-u8x8_ks0108_out
 156              		.section	.text.u8x8_d_ks0108_128x64,"ax",%progbits
 157              		.align	1
 158              		.global	u8x8_d_ks0108_128x64
 159              		.code	16
 160              		.thumb_func
 161              		.type	u8x8_d_ks0108_128x64, %function
 162              	u8x8_d_ks0108_128x64:
 163              	.LFB1:
 104:..\..\u8g2\csrc/u8x8_d_ks0108.c **** 
 105:..\..\u8g2\csrc/u8x8_d_ks0108.c **** 
 106:..\..\u8g2\csrc/u8x8_d_ks0108.c **** static const u8x8_display_info_t u8x8_ks0108_128x64_display_info =
 107:..\..\u8g2\csrc/u8x8_d_ks0108.c **** {
 108:..\..\u8g2\csrc/u8x8_d_ks0108.c ****   /* chip_enable_level = */ 0,		/* KS0108: Not used */
 109:..\..\u8g2\csrc/u8x8_d_ks0108.c ****   /* chip_disable_level = */ 1,		/* KS0108: Not used */
 110:..\..\u8g2\csrc/u8x8_d_ks0108.c ****   
 111:..\..\u8g2\csrc/u8x8_d_ks0108.c ****   /* post_chip_enable_wait_ns = */ 100,
 112:..\..\u8g2\csrc/u8x8_d_ks0108.c ****   /* pre_chip_disable_wait_ns = */ 20,
 113:..\..\u8g2\csrc/u8x8_d_ks0108.c ****   /* reset_pulse_width_ms = */ 1, 
 114:..\..\u8g2\csrc/u8x8_d_ks0108.c ****   /* post_reset_wait_ms = */ 6, 		/* could be faster for the KS0108 */
ARM GAS  C:\Users\Greg\AppData\Local\Temp\ccuwp1ma.s 			page 6


 115:..\..\u8g2\csrc/u8x8_d_ks0108.c ****   /* sda_setup_time_ns = */ 12,		
 116:..\..\u8g2\csrc/u8x8_d_ks0108.c ****   /* sck_pulse_width_ns = */ 75,	/* KS0108: Not used */
 117:..\..\u8g2\csrc/u8x8_d_ks0108.c ****   /* sck_clock_hz = */ 4000000UL,	/* KS0108: Not used */
 118:..\..\u8g2\csrc/u8x8_d_ks0108.c ****   /* spi_mode = */ 0,				/* active high, rising edge */
 119:..\..\u8g2\csrc/u8x8_d_ks0108.c ****   /* i2c_bus_clock_100kHz = */ 4,	/* KS0108: Not used */
 120:..\..\u8g2\csrc/u8x8_d_ks0108.c ****   /* data_setup_time_ns = */ 200,
 121:..\..\u8g2\csrc/u8x8_d_ks0108.c ****   /* write_pulse_width_ns = */ 200,	/* KS0108: actially 450 ns */
 122:..\..\u8g2\csrc/u8x8_d_ks0108.c ****   /* tile_width = */ 16,		/* width of 16*8=128 pixel */
 123:..\..\u8g2\csrc/u8x8_d_ks0108.c ****   /* tile_hight = */ 8,
 124:..\..\u8g2\csrc/u8x8_d_ks0108.c ****   /* default_x_offset = */ 0,
 125:..\..\u8g2\csrc/u8x8_d_ks0108.c ****   /* flipmode_x_offset = */ 0,
 126:..\..\u8g2\csrc/u8x8_d_ks0108.c ****   /* pixel_width = */ 128,
 127:..\..\u8g2\csrc/u8x8_d_ks0108.c ****   /* pixel_height = */ 64
 128:..\..\u8g2\csrc/u8x8_d_ks0108.c **** };
 129:..\..\u8g2\csrc/u8x8_d_ks0108.c **** 
 130:..\..\u8g2\csrc/u8x8_d_ks0108.c **** uint8_t u8x8_d_ks0108_128x64(u8x8_t *u8x8, uint8_t msg, uint8_t arg_int, void *arg_ptr)
 131:..\..\u8g2\csrc/u8x8_d_ks0108.c **** {
 164              		.loc 1 131 0
 165              		.cfi_startproc
 166              		@ args = 0, pretend = 0, frame = 8
 167              		@ frame_needed = 0, uses_anonymous_args = 0
 168              	.LVL18:
 169 0000 F7B5     		push	{r0, r1, r2, r4, r5, r6, r7, lr}
 170              		.cfi_def_cfa_offset 32
 171              		.cfi_offset 0, -32
 172              		.cfi_offset 1, -28
 173              		.cfi_offset 2, -24
 174              		.cfi_offset 4, -20
 175              		.cfi_offset 5, -16
 176              		.cfi_offset 6, -12
 177              		.cfi_offset 7, -8
 178              		.cfi_offset 14, -4
 132:..\..\u8g2\csrc/u8x8_d_ks0108.c ****   struct u8x8_ks0108_vars v;
 133:..\..\u8g2\csrc/u8x8_d_ks0108.c ****   switch(msg)
 179              		.loc 1 133 0
 180 0002 0939     		subs	r1, r1, #9
 181              	.LVL19:
 131:..\..\u8g2\csrc/u8x8_d_ks0108.c ****   struct u8x8_ks0108_vars v;
 182              		.loc 1 131 0
 183 0004 0400     		movs	r4, r0
 184 0006 1500     		movs	r5, r2
 185 0008 1E00     		movs	r6, r3
 186              		.loc 1 133 0
 187 000a 0800     		movs	r0, r1
 188              	.LVL20:
 189 000c 0629     		cmp	r1, #6
 190 000e 00D9     		bls	.LCB148
 191 0010 91E0     		b	.L18	@long jump
 192              	.LCB148:
 193 0012 FFF7FEFF 		bl	__gnu_thumb1_case_uqi
 194              	.L12:
 195 0016 04       		.byte	(.L11-.L12)/2
 196 0017 09       		.byte	(.L13-.L12)/2
 197 0018 15       		.byte	(.L14-.L12)/2
 198 0019 90       		.byte	(.L18-.L12)/2
 199 001a 90       		.byte	(.L18-.L12)/2
 200 001b 90       		.byte	(.L18-.L12)/2
ARM GAS  C:\Users\Greg\AppData\Local\Temp\ccuwp1ma.s 			page 7


 201 001c 5D       		.byte	(.L15-.L12)/2
 202 001d 00       		.p2align 1
 203              	.L11:
 134:..\..\u8g2\csrc/u8x8_d_ks0108.c ****   {
 135:..\..\u8g2\csrc/u8x8_d_ks0108.c ****     case U8X8_MSG_DISPLAY_SETUP_MEMORY:
 136:..\..\u8g2\csrc/u8x8_d_ks0108.c ****       u8x8_d_helper_display_setup_memory(u8x8, &u8x8_ks0108_128x64_display_info);
 204              		.loc 1 136 0
 205 001e 4749     		ldr	r1, .L22
 206 0020 2000     		movs	r0, r4
 207 0022 FFF7FEFF 		bl	u8x8_d_helper_display_setup_memory
 208              	.LVL21:
 209 0026 51E0     		b	.L20
 210              	.LVL22:
 211              	.L13:
 137:..\..\u8g2\csrc/u8x8_d_ks0108.c ****       break;
 138:..\..\u8g2\csrc/u8x8_d_ks0108.c ****     case U8X8_MSG_DISPLAY_INIT:
 139:..\..\u8g2\csrc/u8x8_d_ks0108.c ****       u8x8_d_helper_display_init(u8x8);
 212              		.loc 1 139 0
 213 0028 2000     		movs	r0, r4
 214 002a FFF7FEFF 		bl	u8x8_d_helper_display_init
 215              	.LVL23:
 140:..\..\u8g2\csrc/u8x8_d_ks0108.c ****     
 141:..\..\u8g2\csrc/u8x8_d_ks0108.c ****       u8x8->cad_cb(u8x8, U8X8_MSG_CAD_START_TRANSFER, 1, NULL);
 216              		.loc 1 141 0
 217 002e E568     		ldr	r5, [r4, #12]
 218 0030 0023     		movs	r3, #0
 219 0032 0122     		movs	r2, #1
 220 0034 1821     		movs	r1, #24
 221 0036 2000     		movs	r0, r4
 222 0038 A847     		blx	r5
 223              	.LVL24:
 142:..\..\u8g2\csrc/u8x8_d_ks0108.c ****       u8x8_cad_SendSequence(u8x8, u8x8_d_ks0108_init_seq);
 224              		.loc 1 142 0
 225 003a 404D     		ldr	r5, .L22
 226 003c 1835     		adds	r5, r5, #24
 227 003e 2BE0     		b	.L21
 228              	.LVL25:
 229              	.L14:
 230 0040 3E4E     		ldr	r6, .L22
 231 0042 E768     		ldr	r7, [r4, #12]
 143:..\..\u8g2\csrc/u8x8_d_ks0108.c ****       u8x8->cad_cb(u8x8, U8X8_MSG_CAD_END_TRANSFER, 0, NULL);
 144:..\..\u8g2\csrc/u8x8_d_ks0108.c ****     
 145:..\..\u8g2\csrc/u8x8_d_ks0108.c ****       u8x8->cad_cb(u8x8, U8X8_MSG_CAD_START_TRANSFER, 2, NULL);
 146:..\..\u8g2\csrc/u8x8_d_ks0108.c ****       u8x8_cad_SendSequence(u8x8, u8x8_d_ks0108_init_seq);
 147:..\..\u8g2\csrc/u8x8_d_ks0108.c ****       u8x8->cad_cb(u8x8, U8X8_MSG_CAD_END_TRANSFER, 0, NULL);
 148:..\..\u8g2\csrc/u8x8_d_ks0108.c ****       break;
 149:..\..\u8g2\csrc/u8x8_d_ks0108.c ****     case U8X8_MSG_DISPLAY_SET_POWER_SAVE:
 150:..\..\u8g2\csrc/u8x8_d_ks0108.c ****       
 151:..\..\u8g2\csrc/u8x8_d_ks0108.c ****       if ( arg_int == 0 )
 232              		.loc 1 151 0
 233 0044 002A     		cmp	r2, #0
 234 0046 20D1     		bne	.L16
 152:..\..\u8g2\csrc/u8x8_d_ks0108.c ****       {
 153:..\..\u8g2\csrc/u8x8_d_ks0108.c **** 	u8x8->cad_cb(u8x8, U8X8_MSG_CAD_START_TRANSFER, 1, NULL);
 235              		.loc 1 153 0
 236 0048 1300     		movs	r3, r2
 237              	.LVL26:
ARM GAS  C:\Users\Greg\AppData\Local\Temp\ccuwp1ma.s 			page 8


 154:..\..\u8g2\csrc/u8x8_d_ks0108.c **** 	u8x8_cad_SendSequence(u8x8, u8x8_d_ks0108_powersave0_seq);
 238              		.loc 1 154 0
 239 004a 1B36     		adds	r6, r6, #27
 153:..\..\u8g2\csrc/u8x8_d_ks0108.c **** 	u8x8_cad_SendSequence(u8x8, u8x8_d_ks0108_powersave0_seq);
 240              		.loc 1 153 0
 241 004c 0122     		movs	r2, #1
 242              	.LVL27:
 243 004e 1821     		movs	r1, #24
 244 0050 2000     		movs	r0, r4
 245 0052 B847     		blx	r7
 246              	.LVL28:
 247              		.loc 1 154 0
 248 0054 3100     		movs	r1, r6
 249 0056 2000     		movs	r0, r4
 250 0058 FFF7FEFF 		bl	u8x8_cad_SendSequence
 251              	.LVL29:
 155:..\..\u8g2\csrc/u8x8_d_ks0108.c **** 	u8x8->cad_cb(u8x8, U8X8_MSG_CAD_END_TRANSFER, 0, NULL);
 252              		.loc 1 155 0
 253 005c 2B00     		movs	r3, r5
 254 005e 2A00     		movs	r2, r5
 255 0060 E768     		ldr	r7, [r4, #12]
 256 0062 1921     		movs	r1, #25
 257 0064 2000     		movs	r0, r4
 258 0066 B847     		blx	r7
 259              	.LVL30:
 156:..\..\u8g2\csrc/u8x8_d_ks0108.c **** 
 157:..\..\u8g2\csrc/u8x8_d_ks0108.c **** 	u8x8->cad_cb(u8x8, U8X8_MSG_CAD_START_TRANSFER, 2, NULL);
 260              		.loc 1 157 0
 261 0068 2B00     		movs	r3, r5
 262 006a 0222     		movs	r2, #2
 263 006c 1821     		movs	r1, #24
 264 006e 2000     		movs	r0, r4
 265 0070 E768     		ldr	r7, [r4, #12]
 266 0072 B847     		blx	r7
 267              	.LVL31:
 158:..\..\u8g2\csrc/u8x8_d_ks0108.c **** 	u8x8_cad_SendSequence(u8x8, u8x8_d_ks0108_powersave0_seq);
 268              		.loc 1 158 0
 269 0074 3100     		movs	r1, r6
 270 0076 2000     		movs	r0, r4
 271 0078 FFF7FEFF 		bl	u8x8_cad_SendSequence
 272              	.LVL32:
 159:..\..\u8g2\csrc/u8x8_d_ks0108.c **** 	u8x8->cad_cb(u8x8, U8X8_MSG_CAD_END_TRANSFER, 0, NULL);
 273              		.loc 1 159 0
 274 007c E668     		ldr	r6, [r4, #12]
 275 007e 2B00     		movs	r3, r5
 276 0080 2A00     		movs	r2, r5
 277 0082 1921     		movs	r1, #25
 278 0084 2000     		movs	r0, r4
 279 0086 B047     		blx	r6
 280              	.LVL33:
 281 0088 20E0     		b	.L20
 282              	.LVL34:
 283              	.L16:
 160:..\..\u8g2\csrc/u8x8_d_ks0108.c **** 	
 161:..\..\u8g2\csrc/u8x8_d_ks0108.c ****       }
 162:..\..\u8g2\csrc/u8x8_d_ks0108.c ****       else
 163:..\..\u8g2\csrc/u8x8_d_ks0108.c ****       {
ARM GAS  C:\Users\Greg\AppData\Local\Temp\ccuwp1ma.s 			page 9


 164:..\..\u8g2\csrc/u8x8_d_ks0108.c **** 	u8x8->cad_cb(u8x8, U8X8_MSG_CAD_START_TRANSFER, 1, NULL);
 284              		.loc 1 164 0
 285 008a 0023     		movs	r3, #0
 286              	.LVL35:
 287 008c 0122     		movs	r2, #1
 288              	.LVL36:
 289 008e 1821     		movs	r1, #24
 290 0090 2000     		movs	r0, r4
 165:..\..\u8g2\csrc/u8x8_d_ks0108.c **** 	u8x8_cad_SendSequence(u8x8, u8x8_d_ks0108_powersave1_seq);
 291              		.loc 1 165 0
 292 0092 3500     		movs	r5, r6
 164:..\..\u8g2\csrc/u8x8_d_ks0108.c **** 	u8x8_cad_SendSequence(u8x8, u8x8_d_ks0108_powersave1_seq);
 293              		.loc 1 164 0
 294 0094 B847     		blx	r7
 295              	.LVL37:
 296              		.loc 1 165 0
 297 0096 1E35     		adds	r5, r5, #30
 298              	.L21:
 299 0098 2900     		movs	r1, r5
 300 009a 2000     		movs	r0, r4
 301 009c FFF7FEFF 		bl	u8x8_cad_SendSequence
 302              	.LVL38:
 166:..\..\u8g2\csrc/u8x8_d_ks0108.c **** 	u8x8->cad_cb(u8x8, U8X8_MSG_CAD_END_TRANSFER, 0, NULL);
 303              		.loc 1 166 0
 304 00a0 0023     		movs	r3, #0
 305 00a2 1921     		movs	r1, #25
 306 00a4 1A00     		movs	r2, r3
 307 00a6 E668     		ldr	r6, [r4, #12]
 308 00a8 2000     		movs	r0, r4
 309 00aa B047     		blx	r6
 310              	.LVL39:
 167:..\..\u8g2\csrc/u8x8_d_ks0108.c **** 	
 168:..\..\u8g2\csrc/u8x8_d_ks0108.c **** 	u8x8->cad_cb(u8x8, U8X8_MSG_CAD_START_TRANSFER, 2, NULL);
 311              		.loc 1 168 0
 312 00ac 0023     		movs	r3, #0
 313 00ae 0222     		movs	r2, #2
 314 00b0 1821     		movs	r1, #24
 315 00b2 2000     		movs	r0, r4
 316 00b4 E668     		ldr	r6, [r4, #12]
 317 00b6 B047     		blx	r6
 318              	.LVL40:
 169:..\..\u8g2\csrc/u8x8_d_ks0108.c **** 	u8x8_cad_SendSequence(u8x8, u8x8_d_ks0108_powersave1_seq);
 319              		.loc 1 169 0
 320 00b8 2900     		movs	r1, r5
 321 00ba 2000     		movs	r0, r4
 322 00bc FFF7FEFF 		bl	u8x8_cad_SendSequence
 323              	.LVL41:
 170:..\..\u8g2\csrc/u8x8_d_ks0108.c **** 	u8x8->cad_cb(u8x8, U8X8_MSG_CAD_END_TRANSFER, 0, NULL);
 324              		.loc 1 170 0
 325 00c0 0023     		movs	r3, #0
 326 00c2 E568     		ldr	r5, [r4, #12]
 327 00c4 1A00     		movs	r2, r3
 328 00c6 1921     		movs	r1, #25
 329 00c8 2000     		movs	r0, r4
 330 00ca A847     		blx	r5
 331              	.LVL42:
 332              	.L20:
ARM GAS  C:\Users\Greg\AppData\Local\Temp\ccuwp1ma.s 			page 10


 171:..\..\u8g2\csrc/u8x8_d_ks0108.c **** 	
 172:..\..\u8g2\csrc/u8x8_d_ks0108.c ****       }
 173:..\..\u8g2\csrc/u8x8_d_ks0108.c ****       break;
 174:..\..\u8g2\csrc/u8x8_d_ks0108.c **** // The KS0108 can not mirror the cols and rows, use U8g2 for rotation
 175:..\..\u8g2\csrc/u8x8_d_ks0108.c **** //    case U8X8_MSG_DISPLAY_SET_FLIP_MODE:
 176:..\..\u8g2\csrc/u8x8_d_ks0108.c **** //      break;
 177:..\..\u8g2\csrc/u8x8_d_ks0108.c **** // The KS0108 has no internal contrast command
 178:..\..\u8g2\csrc/u8x8_d_ks0108.c **** //    case U8X8_MSG_DISPLAY_SET_CONTRAST:
 179:..\..\u8g2\csrc/u8x8_d_ks0108.c **** //      break;
 180:..\..\u8g2\csrc/u8x8_d_ks0108.c ****     case U8X8_MSG_DISPLAY_DRAW_TILE:
 181:..\..\u8g2\csrc/u8x8_d_ks0108.c **** 
 182:..\..\u8g2\csrc/u8x8_d_ks0108.c ****       v.ptr = ((u8x8_tile_t *)arg_ptr)->tile_ptr;
 183:..\..\u8g2\csrc/u8x8_d_ks0108.c ****       v.x = ((u8x8_tile_t *)arg_ptr)->x_pos;
 184:..\..\u8g2\csrc/u8x8_d_ks0108.c ****       v.c = ((u8x8_tile_t *)arg_ptr)->cnt;
 185:..\..\u8g2\csrc/u8x8_d_ks0108.c ****       v.arg_int = arg_int;    
 186:..\..\u8g2\csrc/u8x8_d_ks0108.c ****       
 187:..\..\u8g2\csrc/u8x8_d_ks0108.c ****       
 188:..\..\u8g2\csrc/u8x8_d_ks0108.c ****       if ( v.x < 8 )
 189:..\..\u8g2\csrc/u8x8_d_ks0108.c ****       {
 190:..\..\u8g2\csrc/u8x8_d_ks0108.c **** 	u8x8->cad_cb(u8x8, U8X8_MSG_CAD_START_TRANSFER, 1, NULL);
 191:..\..\u8g2\csrc/u8x8_d_ks0108.c **** 	u8x8_ks0108_out(u8x8, &v, arg_ptr);
 192:..\..\u8g2\csrc/u8x8_d_ks0108.c **** 	u8x8->cad_cb(u8x8, U8X8_MSG_CAD_END_TRANSFER, 0, NULL);
 193:..\..\u8g2\csrc/u8x8_d_ks0108.c ****       }
 194:..\..\u8g2\csrc/u8x8_d_ks0108.c ****       if ( v.x < 16 )
 195:..\..\u8g2\csrc/u8x8_d_ks0108.c ****       {
 196:..\..\u8g2\csrc/u8x8_d_ks0108.c **** 	u8x8->cad_cb(u8x8, U8X8_MSG_CAD_START_TRANSFER, 2, NULL);
 197:..\..\u8g2\csrc/u8x8_d_ks0108.c **** 	u8x8_ks0108_out(u8x8, &v, arg_ptr);
 198:..\..\u8g2\csrc/u8x8_d_ks0108.c **** 	u8x8->cad_cb(u8x8, U8X8_MSG_CAD_END_TRANSFER, 0, NULL);
 199:..\..\u8g2\csrc/u8x8_d_ks0108.c ****       }
 200:..\..\u8g2\csrc/u8x8_d_ks0108.c ****       //if ( v.x < 24 )
 201:..\..\u8g2\csrc/u8x8_d_ks0108.c ****       //{
 202:..\..\u8g2\csrc/u8x8_d_ks0108.c **** 	//u8x8->cad_cb(u8x8, U8X8_MSG_CAD_START_TRANSFER, 4, NULL);
 203:..\..\u8g2\csrc/u8x8_d_ks0108.c **** 	//u8x8_ks0108_out(u8x8, &v, arg_ptr);
 204:..\..\u8g2\csrc/u8x8_d_ks0108.c **** 	//u8x8->cad_cb(u8x8, U8X8_MSG_CAD_END_TRANSFER, 0, NULL);
 205:..\..\u8g2\csrc/u8x8_d_ks0108.c ****       //}    
 206:..\..\u8g2\csrc/u8x8_d_ks0108.c ****       break;
 207:..\..\u8g2\csrc/u8x8_d_ks0108.c ****     default:
 208:..\..\u8g2\csrc/u8x8_d_ks0108.c ****       return 0;
 209:..\..\u8g2\csrc/u8x8_d_ks0108.c ****   }
 210:..\..\u8g2\csrc/u8x8_d_ks0108.c ****   return 1;
 333              		.loc 1 210 0
 334 00cc 0125     		movs	r5, #1
 335 00ce 33E0     		b	.L10
 336              	.LVL43:
 337              	.L15:
 183:..\..\u8g2\csrc/u8x8_d_ks0108.c ****       v.c = ((u8x8_tile_t *)arg_ptr)->cnt;
 338              		.loc 1 183 0
 339 00d0 6A46     		mov	r2, sp
 340              	.LVL44:
 184:..\..\u8g2\csrc/u8x8_d_ks0108.c ****       v.arg_int = arg_int;    
 341              		.loc 1 184 0
 342 00d2 6946     		mov	r1, sp
 182:..\..\u8g2\csrc/u8x8_d_ks0108.c ****       v.x = ((u8x8_tile_t *)arg_ptr)->x_pos;
 343              		.loc 1 182 0
 344 00d4 1B68     		ldr	r3, [r3]
 345              	.LVL45:
 346 00d6 0093     		str	r3, [sp]
ARM GAS  C:\Users\Greg\AppData\Local\Temp\ccuwp1ma.s 			page 11


 183:..\..\u8g2\csrc/u8x8_d_ks0108.c ****       v.c = ((u8x8_tile_t *)arg_ptr)->cnt;
 347              		.loc 1 183 0
 348 00d8 7379     		ldrb	r3, [r6, #5]
 349 00da 1371     		strb	r3, [r2, #4]
 184:..\..\u8g2\csrc/u8x8_d_ks0108.c ****       v.arg_int = arg_int;    
 350              		.loc 1 184 0
 351 00dc 3279     		ldrb	r2, [r6, #4]
 185:..\..\u8g2\csrc/u8x8_d_ks0108.c ****       
 352              		.loc 1 185 0
 353 00de 8D71     		strb	r5, [r1, #6]
 184:..\..\u8g2\csrc/u8x8_d_ks0108.c ****       v.arg_int = arg_int;    
 354              		.loc 1 184 0
 355 00e0 4A71     		strb	r2, [r1, #5]
 188:..\..\u8g2\csrc/u8x8_d_ks0108.c ****       {
 356              		.loc 1 188 0
 357 00e2 072B     		cmp	r3, #7
 358 00e4 10D8     		bhi	.L17
 190:..\..\u8g2\csrc/u8x8_d_ks0108.c **** 	u8x8_ks0108_out(u8x8, &v, arg_ptr);
 359              		.loc 1 190 0
 360 00e6 0023     		movs	r3, #0
 361 00e8 0122     		movs	r2, #1
 362 00ea 1821     		movs	r1, #24
 363 00ec E568     		ldr	r5, [r4, #12]
 364 00ee 2000     		movs	r0, r4
 365 00f0 A847     		blx	r5
 366              	.LVL46:
 191:..\..\u8g2\csrc/u8x8_d_ks0108.c **** 	u8x8->cad_cb(u8x8, U8X8_MSG_CAD_END_TRANSFER, 0, NULL);
 367              		.loc 1 191 0
 368 00f2 3200     		movs	r2, r6
 369 00f4 6946     		mov	r1, sp
 370 00f6 2000     		movs	r0, r4
 371 00f8 FFF7FEFF 		bl	u8x8_ks0108_out
 372              	.LVL47:
 192:..\..\u8g2\csrc/u8x8_d_ks0108.c ****       }
 373              		.loc 1 192 0
 374 00fc 0023     		movs	r3, #0
 375 00fe 1921     		movs	r1, #25
 376 0100 1A00     		movs	r2, r3
 377 0102 2000     		movs	r0, r4
 378 0104 E568     		ldr	r5, [r4, #12]
 379 0106 A847     		blx	r5
 380              	.LVL48:
 381              	.L17:
 194:..\..\u8g2\csrc/u8x8_d_ks0108.c ****       {
 382              		.loc 1 194 0
 383 0108 6B46     		mov	r3, sp
 384 010a 1B79     		ldrb	r3, [r3, #4]
 385              		.loc 1 210 0
 386 010c 0125     		movs	r5, #1
 194:..\..\u8g2\csrc/u8x8_d_ks0108.c ****       {
 387              		.loc 1 194 0
 388 010e 0F2B     		cmp	r3, #15
 389 0110 12D8     		bhi	.L10
 196:..\..\u8g2\csrc/u8x8_d_ks0108.c **** 	u8x8_ks0108_out(u8x8, &v, arg_ptr);
 390              		.loc 1 196 0
 391 0112 0023     		movs	r3, #0
 392 0114 0222     		movs	r2, #2
ARM GAS  C:\Users\Greg\AppData\Local\Temp\ccuwp1ma.s 			page 12


 393 0116 1821     		movs	r1, #24
 394 0118 2000     		movs	r0, r4
 395 011a E768     		ldr	r7, [r4, #12]
 396 011c B847     		blx	r7
 397              	.LVL49:
 197:..\..\u8g2\csrc/u8x8_d_ks0108.c **** 	u8x8->cad_cb(u8x8, U8X8_MSG_CAD_END_TRANSFER, 0, NULL);
 398              		.loc 1 197 0
 399 011e 3200     		movs	r2, r6
 400 0120 6946     		mov	r1, sp
 401 0122 2000     		movs	r0, r4
 402 0124 FFF7FEFF 		bl	u8x8_ks0108_out
 403              	.LVL50:
 198:..\..\u8g2\csrc/u8x8_d_ks0108.c ****       }
 404              		.loc 1 198 0
 405 0128 0023     		movs	r3, #0
 406 012a E668     		ldr	r6, [r4, #12]
 407              	.LVL51:
 408 012c 1A00     		movs	r2, r3
 409 012e 1921     		movs	r1, #25
 410 0130 2000     		movs	r0, r4
 411 0132 B047     		blx	r6
 412              	.LVL52:
 413 0134 00E0     		b	.L10
 414              	.LVL53:
 415              	.L18:
 208:..\..\u8g2\csrc/u8x8_d_ks0108.c ****   }
 416              		.loc 1 208 0
 417 0136 0025     		movs	r5, #0
 418              	.LVL54:
 419              	.L10:
 211:..\..\u8g2\csrc/u8x8_d_ks0108.c **** }
 420              		.loc 1 211 0
 421 0138 2800     		movs	r0, r5
 422              		@ sp needed
 423              	.LVL55:
 424 013a FEBD     		pop	{r1, r2, r3, r4, r5, r6, r7, pc}
 425              	.L23:
 426              		.align	2
 427              	.L22:
 428 013c 00000000 		.word	.LANCHOR0
 429              		.cfi_endproc
 430              	.LFE1:
 431              		.size	u8x8_d_ks0108_128x64, .-u8x8_d_ks0108_128x64
 432              		.section	.text.u8x8_d_ks0108_erm19264,"ax",%progbits
 433              		.align	1
 434              		.global	u8x8_d_ks0108_erm19264
 435              		.code	16
 436              		.thumb_func
 437              		.type	u8x8_d_ks0108_erm19264, %function
 438              	u8x8_d_ks0108_erm19264:
 439              	.LFB2:
 212:..\..\u8g2\csrc/u8x8_d_ks0108.c **** 
 213:..\..\u8g2\csrc/u8x8_d_ks0108.c **** /* east rising (buydisplay.com) ERM19264 */
 214:..\..\u8g2\csrc/u8x8_d_ks0108.c **** /* left: 011, middle: 101, right: 110, no chip select: 111 */
 215:..\..\u8g2\csrc/u8x8_d_ks0108.c **** uint8_t u8x8_d_ks0108_erm19264(u8x8_t *u8x8, uint8_t msg, uint8_t arg_int, void *arg_ptr)
 216:..\..\u8g2\csrc/u8x8_d_ks0108.c **** {
 440              		.loc 1 216 0
ARM GAS  C:\Users\Greg\AppData\Local\Temp\ccuwp1ma.s 			page 13


 441              		.cfi_startproc
 442              		@ args = 0, pretend = 0, frame = 8
 443              		@ frame_needed = 0, uses_anonymous_args = 0
 444              	.LVL56:
 445 0000 F7B5     		push	{r0, r1, r2, r4, r5, r6, r7, lr}
 446              		.cfi_def_cfa_offset 32
 447              		.cfi_offset 0, -32
 448              		.cfi_offset 1, -28
 449              		.cfi_offset 2, -24
 450              		.cfi_offset 4, -20
 451              		.cfi_offset 5, -16
 452              		.cfi_offset 6, -12
 453              		.cfi_offset 7, -8
 454              		.cfi_offset 14, -4
 217:..\..\u8g2\csrc/u8x8_d_ks0108.c ****   struct u8x8_ks0108_vars v;
 218:..\..\u8g2\csrc/u8x8_d_ks0108.c ****   switch(msg)
 455              		.loc 1 218 0
 456 0002 0939     		subs	r1, r1, #9
 457              	.LVL57:
 216:..\..\u8g2\csrc/u8x8_d_ks0108.c ****   struct u8x8_ks0108_vars v;
 458              		.loc 1 216 0
 459 0004 0400     		movs	r4, r0
 460 0006 1600     		movs	r6, r2
 461 0008 1F00     		movs	r7, r3
 462              		.loc 1 218 0
 463 000a 0800     		movs	r0, r1
 464              	.LVL58:
 465 000c 0629     		cmp	r1, #6
 466 000e 00D9     		bls	.LCB415
 467 0010 C1E0     		b	.L34	@long jump
 468              	.LCB415:
 469 0012 FFF7FEFF 		bl	__gnu_thumb1_case_uqi
 470              	.L27:
 471 0016 04       		.byte	(.L26-.L27)/2
 472 0017 09       		.byte	(.L28-.L27)/2
 473 0018 15       		.byte	(.L29-.L27)/2
 474 0019 C0       		.byte	(.L34-.L27)/2
 475 001a C0       		.byte	(.L34-.L27)/2
 476 001b C0       		.byte	(.L34-.L27)/2
 477 001c 78       		.byte	(.L30-.L27)/2
 478 001d 00       		.p2align 1
 479              	.L26:
 219:..\..\u8g2\csrc/u8x8_d_ks0108.c ****   {
 220:..\..\u8g2\csrc/u8x8_d_ks0108.c ****     case U8X8_MSG_DISPLAY_SETUP_MEMORY:
 221:..\..\u8g2\csrc/u8x8_d_ks0108.c ****       u8x8_d_helper_display_setup_memory(u8x8, &u8x8_ks0108_128x64_display_info);
 480              		.loc 1 221 0
 481 001e 5F49     		ldr	r1, .L39
 482 0020 2000     		movs	r0, r4
 483 0022 FFF7FEFF 		bl	u8x8_d_helper_display_setup_memory
 484              	.LVL59:
 485 0026 6CE0     		b	.L36
 486              	.LVL60:
 487              	.L28:
 222:..\..\u8g2\csrc/u8x8_d_ks0108.c ****       break;
 223:..\..\u8g2\csrc/u8x8_d_ks0108.c ****     case U8X8_MSG_DISPLAY_INIT:
 224:..\..\u8g2\csrc/u8x8_d_ks0108.c ****       u8x8_d_helper_display_init(u8x8);
 488              		.loc 1 224 0
ARM GAS  C:\Users\Greg\AppData\Local\Temp\ccuwp1ma.s 			page 14


 489 0028 2000     		movs	r0, r4
 490 002a FFF7FEFF 		bl	u8x8_d_helper_display_init
 491              	.LVL61:
 225:..\..\u8g2\csrc/u8x8_d_ks0108.c ****     
 226:..\..\u8g2\csrc/u8x8_d_ks0108.c ****       u8x8->cad_cb(u8x8, U8X8_MSG_CAD_START_TRANSFER, 3, NULL);
 492              		.loc 1 226 0
 493 002e E568     		ldr	r5, [r4, #12]
 494 0030 0023     		movs	r3, #0
 495 0032 0322     		movs	r2, #3
 496 0034 1821     		movs	r1, #24
 497 0036 2000     		movs	r0, r4
 498 0038 A847     		blx	r5
 499              	.LVL62:
 227:..\..\u8g2\csrc/u8x8_d_ks0108.c ****       u8x8_cad_SendSequence(u8x8, u8x8_d_ks0108_init_seq);
 500              		.loc 1 227 0
 501 003a 584D     		ldr	r5, .L39
 502 003c 1835     		adds	r5, r5, #24
 503 003e 36E0     		b	.L37
 504              	.LVL63:
 505              	.L29:
 506 0040 564D     		ldr	r5, .L39
 507 0042 E768     		ldr	r7, [r4, #12]
 228:..\..\u8g2\csrc/u8x8_d_ks0108.c ****       u8x8->cad_cb(u8x8, U8X8_MSG_CAD_END_TRANSFER, 7, NULL);
 229:..\..\u8g2\csrc/u8x8_d_ks0108.c ****     
 230:..\..\u8g2\csrc/u8x8_d_ks0108.c ****       u8x8->cad_cb(u8x8, U8X8_MSG_CAD_START_TRANSFER, 5, NULL);
 231:..\..\u8g2\csrc/u8x8_d_ks0108.c ****       u8x8_cad_SendSequence(u8x8, u8x8_d_ks0108_init_seq);
 232:..\..\u8g2\csrc/u8x8_d_ks0108.c ****       u8x8->cad_cb(u8x8, U8X8_MSG_CAD_END_TRANSFER, 7, NULL);
 233:..\..\u8g2\csrc/u8x8_d_ks0108.c ****     
 234:..\..\u8g2\csrc/u8x8_d_ks0108.c ****       u8x8->cad_cb(u8x8, U8X8_MSG_CAD_START_TRANSFER, 6, NULL);
 235:..\..\u8g2\csrc/u8x8_d_ks0108.c ****       u8x8_cad_SendSequence(u8x8, u8x8_d_ks0108_init_seq);
 236:..\..\u8g2\csrc/u8x8_d_ks0108.c ****       u8x8->cad_cb(u8x8, U8X8_MSG_CAD_END_TRANSFER, 7, NULL);
 237:..\..\u8g2\csrc/u8x8_d_ks0108.c ****       break;
 238:..\..\u8g2\csrc/u8x8_d_ks0108.c ****     case U8X8_MSG_DISPLAY_SET_POWER_SAVE:
 239:..\..\u8g2\csrc/u8x8_d_ks0108.c ****       
 240:..\..\u8g2\csrc/u8x8_d_ks0108.c ****       if ( arg_int == 0 )
 508              		.loc 1 240 0
 509 0044 002A     		cmp	r2, #0
 510 0046 2CD1     		bne	.L31
 241:..\..\u8g2\csrc/u8x8_d_ks0108.c ****       {
 242:..\..\u8g2\csrc/u8x8_d_ks0108.c **** 	u8x8->cad_cb(u8x8, U8X8_MSG_CAD_START_TRANSFER, 3, NULL);
 511              		.loc 1 242 0
 512 0048 1300     		movs	r3, r2
 513              	.LVL64:
 243:..\..\u8g2\csrc/u8x8_d_ks0108.c **** 	u8x8_cad_SendSequence(u8x8, u8x8_d_ks0108_powersave0_seq);
 514              		.loc 1 243 0
 515 004a 1B35     		adds	r5, r5, #27
 242:..\..\u8g2\csrc/u8x8_d_ks0108.c **** 	u8x8_cad_SendSequence(u8x8, u8x8_d_ks0108_powersave0_seq);
 516              		.loc 1 242 0
 517 004c 0322     		movs	r2, #3
 518              	.LVL65:
 519 004e 1821     		movs	r1, #24
 520 0050 2000     		movs	r0, r4
 521 0052 B847     		blx	r7
 522              	.LVL66:
 523              		.loc 1 243 0
 524 0054 2900     		movs	r1, r5
 525 0056 2000     		movs	r0, r4
ARM GAS  C:\Users\Greg\AppData\Local\Temp\ccuwp1ma.s 			page 15


 526 0058 FFF7FEFF 		bl	u8x8_cad_SendSequence
 527              	.LVL67:
 244:..\..\u8g2\csrc/u8x8_d_ks0108.c **** 	u8x8->cad_cb(u8x8, U8X8_MSG_CAD_END_TRANSFER, 7, NULL);
 528              		.loc 1 244 0
 529 005c 3300     		movs	r3, r6
 530 005e 0722     		movs	r2, #7
 531 0060 1921     		movs	r1, #25
 532 0062 E768     		ldr	r7, [r4, #12]
 533 0064 2000     		movs	r0, r4
 534 0066 B847     		blx	r7
 535              	.LVL68:
 245:..\..\u8g2\csrc/u8x8_d_ks0108.c **** 
 246:..\..\u8g2\csrc/u8x8_d_ks0108.c **** 	u8x8->cad_cb(u8x8, U8X8_MSG_CAD_START_TRANSFER, 5, NULL);
 536              		.loc 1 246 0
 537 0068 3300     		movs	r3, r6
 538 006a 0522     		movs	r2, #5
 539 006c 1821     		movs	r1, #24
 540 006e E768     		ldr	r7, [r4, #12]
 541 0070 2000     		movs	r0, r4
 542 0072 B847     		blx	r7
 543              	.LVL69:
 247:..\..\u8g2\csrc/u8x8_d_ks0108.c **** 	u8x8_cad_SendSequence(u8x8, u8x8_d_ks0108_powersave0_seq);
 544              		.loc 1 247 0
 545 0074 2900     		movs	r1, r5
 546 0076 2000     		movs	r0, r4
 547 0078 FFF7FEFF 		bl	u8x8_cad_SendSequence
 548              	.LVL70:
 248:..\..\u8g2\csrc/u8x8_d_ks0108.c **** 	u8x8->cad_cb(u8x8, U8X8_MSG_CAD_END_TRANSFER, 7, NULL);
 549              		.loc 1 248 0
 550 007c 3300     		movs	r3, r6
 551 007e 0722     		movs	r2, #7
 552 0080 1921     		movs	r1, #25
 553 0082 E768     		ldr	r7, [r4, #12]
 554 0084 2000     		movs	r0, r4
 555 0086 B847     		blx	r7
 556              	.LVL71:
 249:..\..\u8g2\csrc/u8x8_d_ks0108.c **** 
 250:..\..\u8g2\csrc/u8x8_d_ks0108.c **** 	u8x8->cad_cb(u8x8, U8X8_MSG_CAD_START_TRANSFER, 6, NULL);
 557              		.loc 1 250 0
 558 0088 3300     		movs	r3, r6
 559 008a 0622     		movs	r2, #6
 560 008c 1821     		movs	r1, #24
 561 008e 2000     		movs	r0, r4
 562 0090 E768     		ldr	r7, [r4, #12]
 563 0092 B847     		blx	r7
 564              	.LVL72:
 251:..\..\u8g2\csrc/u8x8_d_ks0108.c **** 	u8x8_cad_SendSequence(u8x8, u8x8_d_ks0108_powersave0_seq);
 565              		.loc 1 251 0
 566 0094 2900     		movs	r1, r5
 567 0096 2000     		movs	r0, r4
 568 0098 FFF7FEFF 		bl	u8x8_cad_SendSequence
 569              	.LVL73:
 252:..\..\u8g2\csrc/u8x8_d_ks0108.c **** 	u8x8->cad_cb(u8x8, U8X8_MSG_CAD_END_TRANSFER, 7, NULL);
 570              		.loc 1 252 0
 571 009c E568     		ldr	r5, [r4, #12]
 572 009e 3300     		movs	r3, r6
 573 00a0 2BE0     		b	.L38
ARM GAS  C:\Users\Greg\AppData\Local\Temp\ccuwp1ma.s 			page 16


 574              	.LVL74:
 575              	.L31:
 253:..\..\u8g2\csrc/u8x8_d_ks0108.c **** 	
 254:..\..\u8g2\csrc/u8x8_d_ks0108.c ****       }
 255:..\..\u8g2\csrc/u8x8_d_ks0108.c ****       else
 256:..\..\u8g2\csrc/u8x8_d_ks0108.c ****       {
 257:..\..\u8g2\csrc/u8x8_d_ks0108.c **** 	u8x8->cad_cb(u8x8, U8X8_MSG_CAD_START_TRANSFER, 3, NULL);
 576              		.loc 1 257 0
 577 00a2 0023     		movs	r3, #0
 578              	.LVL75:
 579 00a4 0322     		movs	r2, #3
 580              	.LVL76:
 581 00a6 1821     		movs	r1, #24
 582 00a8 2000     		movs	r0, r4
 583 00aa B847     		blx	r7
 584              	.LVL77:
 258:..\..\u8g2\csrc/u8x8_d_ks0108.c **** 	u8x8_cad_SendSequence(u8x8, u8x8_d_ks0108_powersave1_seq);
 585              		.loc 1 258 0
 586 00ac 1E35     		adds	r5, r5, #30
 587              	.L37:
 588 00ae 2900     		movs	r1, r5
 589 00b0 2000     		movs	r0, r4
 590 00b2 FFF7FEFF 		bl	u8x8_cad_SendSequence
 591              	.LVL78:
 259:..\..\u8g2\csrc/u8x8_d_ks0108.c **** 	u8x8->cad_cb(u8x8, U8X8_MSG_CAD_END_TRANSFER, 7, NULL);
 592              		.loc 1 259 0
 593 00b6 0023     		movs	r3, #0
 594 00b8 0722     		movs	r2, #7
 595 00ba 1921     		movs	r1, #25
 596 00bc E668     		ldr	r6, [r4, #12]
 597 00be 2000     		movs	r0, r4
 598 00c0 B047     		blx	r6
 599              	.LVL79:
 260:..\..\u8g2\csrc/u8x8_d_ks0108.c **** 
 261:..\..\u8g2\csrc/u8x8_d_ks0108.c **** 	u8x8->cad_cb(u8x8, U8X8_MSG_CAD_START_TRANSFER, 5, NULL);
 600              		.loc 1 261 0
 601 00c2 0023     		movs	r3, #0
 602 00c4 0522     		movs	r2, #5
 603 00c6 1821     		movs	r1, #24
 604 00c8 E668     		ldr	r6, [r4, #12]
 605 00ca 2000     		movs	r0, r4
 606 00cc B047     		blx	r6
 607              	.LVL80:
 262:..\..\u8g2\csrc/u8x8_d_ks0108.c **** 	u8x8_cad_SendSequence(u8x8, u8x8_d_ks0108_powersave1_seq);
 608              		.loc 1 262 0
 609 00ce 2900     		movs	r1, r5
 610 00d0 2000     		movs	r0, r4
 611 00d2 FFF7FEFF 		bl	u8x8_cad_SendSequence
 612              	.LVL81:
 263:..\..\u8g2\csrc/u8x8_d_ks0108.c **** 	u8x8->cad_cb(u8x8, U8X8_MSG_CAD_END_TRANSFER, 7, NULL);
 613              		.loc 1 263 0
 614 00d6 0023     		movs	r3, #0
 615 00d8 0722     		movs	r2, #7
 616 00da 1921     		movs	r1, #25
 617 00dc E668     		ldr	r6, [r4, #12]
 618 00de 2000     		movs	r0, r4
 619 00e0 B047     		blx	r6
ARM GAS  C:\Users\Greg\AppData\Local\Temp\ccuwp1ma.s 			page 17


 620              	.LVL82:
 264:..\..\u8g2\csrc/u8x8_d_ks0108.c **** 
 265:..\..\u8g2\csrc/u8x8_d_ks0108.c **** 	u8x8->cad_cb(u8x8, U8X8_MSG_CAD_START_TRANSFER, 6, NULL);
 621              		.loc 1 265 0
 622 00e2 0023     		movs	r3, #0
 623 00e4 0622     		movs	r2, #6
 624 00e6 1821     		movs	r1, #24
 625 00e8 2000     		movs	r0, r4
 626 00ea E668     		ldr	r6, [r4, #12]
 627 00ec B047     		blx	r6
 628              	.LVL83:
 266:..\..\u8g2\csrc/u8x8_d_ks0108.c **** 	u8x8_cad_SendSequence(u8x8, u8x8_d_ks0108_powersave1_seq);
 629              		.loc 1 266 0
 630 00ee 2900     		movs	r1, r5
 631 00f0 2000     		movs	r0, r4
 632 00f2 FFF7FEFF 		bl	u8x8_cad_SendSequence
 633              	.LVL84:
 267:..\..\u8g2\csrc/u8x8_d_ks0108.c **** 	u8x8->cad_cb(u8x8, U8X8_MSG_CAD_END_TRANSFER, 7, NULL);
 634              		.loc 1 267 0
 635 00f6 0023     		movs	r3, #0
 636 00f8 E568     		ldr	r5, [r4, #12]
 637              	.L38:
 638 00fa 0722     		movs	r2, #7
 639 00fc 1921     		movs	r1, #25
 640 00fe 2000     		movs	r0, r4
 641 0100 A847     		blx	r5
 642              	.LVL85:
 643              	.L36:
 268:..\..\u8g2\csrc/u8x8_d_ks0108.c **** 	
 269:..\..\u8g2\csrc/u8x8_d_ks0108.c ****       }
 270:..\..\u8g2\csrc/u8x8_d_ks0108.c ****       break;
 271:..\..\u8g2\csrc/u8x8_d_ks0108.c **** // The KS0108 can not mirror the cols and rows, use U8g2 for rotation
 272:..\..\u8g2\csrc/u8x8_d_ks0108.c **** //    case U8X8_MSG_DISPLAY_SET_FLIP_MODE:
 273:..\..\u8g2\csrc/u8x8_d_ks0108.c **** //      break;
 274:..\..\u8g2\csrc/u8x8_d_ks0108.c **** // The KS0108 has no internal contrast command
 275:..\..\u8g2\csrc/u8x8_d_ks0108.c **** //    case U8X8_MSG_DISPLAY_SET_CONTRAST:
 276:..\..\u8g2\csrc/u8x8_d_ks0108.c **** //      break;
 277:..\..\u8g2\csrc/u8x8_d_ks0108.c ****     case U8X8_MSG_DISPLAY_DRAW_TILE:
 278:..\..\u8g2\csrc/u8x8_d_ks0108.c **** 
 279:..\..\u8g2\csrc/u8x8_d_ks0108.c ****       v.ptr = ((u8x8_tile_t *)arg_ptr)->tile_ptr;
 280:..\..\u8g2\csrc/u8x8_d_ks0108.c ****       v.x = ((u8x8_tile_t *)arg_ptr)->x_pos;
 281:..\..\u8g2\csrc/u8x8_d_ks0108.c ****       v.c = ((u8x8_tile_t *)arg_ptr)->cnt;
 282:..\..\u8g2\csrc/u8x8_d_ks0108.c ****       v.arg_int = arg_int;    
 283:..\..\u8g2\csrc/u8x8_d_ks0108.c ****       
 284:..\..\u8g2\csrc/u8x8_d_ks0108.c ****       
 285:..\..\u8g2\csrc/u8x8_d_ks0108.c ****       if ( v.x < 8 )
 286:..\..\u8g2\csrc/u8x8_d_ks0108.c ****       {
 287:..\..\u8g2\csrc/u8x8_d_ks0108.c **** 	u8x8->cad_cb(u8x8, U8X8_MSG_CAD_START_TRANSFER, 3, NULL);
 288:..\..\u8g2\csrc/u8x8_d_ks0108.c **** 	u8x8_ks0108_out(u8x8, &v, arg_ptr);
 289:..\..\u8g2\csrc/u8x8_d_ks0108.c **** 	u8x8->cad_cb(u8x8, U8X8_MSG_CAD_END_TRANSFER, 7, NULL);
 290:..\..\u8g2\csrc/u8x8_d_ks0108.c ****       }
 291:..\..\u8g2\csrc/u8x8_d_ks0108.c ****       if ( v.x < 16 )
 292:..\..\u8g2\csrc/u8x8_d_ks0108.c ****       {
 293:..\..\u8g2\csrc/u8x8_d_ks0108.c **** 	u8x8->cad_cb(u8x8, U8X8_MSG_CAD_START_TRANSFER, 5, NULL);
 294:..\..\u8g2\csrc/u8x8_d_ks0108.c **** 	u8x8_ks0108_out(u8x8, &v, arg_ptr);
 295:..\..\u8g2\csrc/u8x8_d_ks0108.c **** 	u8x8->cad_cb(u8x8, U8X8_MSG_CAD_END_TRANSFER, 7, NULL);
 296:..\..\u8g2\csrc/u8x8_d_ks0108.c ****       }
ARM GAS  C:\Users\Greg\AppData\Local\Temp\ccuwp1ma.s 			page 18


 297:..\..\u8g2\csrc/u8x8_d_ks0108.c ****       if ( v.x < 24 )
 298:..\..\u8g2\csrc/u8x8_d_ks0108.c ****       {
 299:..\..\u8g2\csrc/u8x8_d_ks0108.c **** 	u8x8->cad_cb(u8x8, U8X8_MSG_CAD_START_TRANSFER, 6, NULL);
 300:..\..\u8g2\csrc/u8x8_d_ks0108.c **** 	u8x8_ks0108_out(u8x8, &v, arg_ptr);
 301:..\..\u8g2\csrc/u8x8_d_ks0108.c **** 	u8x8->cad_cb(u8x8, U8X8_MSG_CAD_END_TRANSFER, 7, NULL);
 302:..\..\u8g2\csrc/u8x8_d_ks0108.c ****       }    
 303:..\..\u8g2\csrc/u8x8_d_ks0108.c ****       break;
 304:..\..\u8g2\csrc/u8x8_d_ks0108.c ****     default:
 305:..\..\u8g2\csrc/u8x8_d_ks0108.c ****       return 0;
 306:..\..\u8g2\csrc/u8x8_d_ks0108.c ****   }
 307:..\..\u8g2\csrc/u8x8_d_ks0108.c ****   return 1;
 644              		.loc 1 307 0
 645 0102 0125     		movs	r5, #1
 646 0104 48E0     		b	.L25
 647              	.LVL86:
 648              	.L30:
 280:..\..\u8g2\csrc/u8x8_d_ks0108.c ****       v.c = ((u8x8_tile_t *)arg_ptr)->cnt;
 649              		.loc 1 280 0
 650 0106 6A46     		mov	r2, sp
 651              	.LVL87:
 281:..\..\u8g2\csrc/u8x8_d_ks0108.c ****       v.arg_int = arg_int;    
 652              		.loc 1 281 0
 653 0108 6946     		mov	r1, sp
 279:..\..\u8g2\csrc/u8x8_d_ks0108.c ****       v.x = ((u8x8_tile_t *)arg_ptr)->x_pos;
 654              		.loc 1 279 0
 655 010a 1B68     		ldr	r3, [r3]
 656              	.LVL88:
 657 010c 0093     		str	r3, [sp]
 280:..\..\u8g2\csrc/u8x8_d_ks0108.c ****       v.c = ((u8x8_tile_t *)arg_ptr)->cnt;
 658              		.loc 1 280 0
 659 010e 7B79     		ldrb	r3, [r7, #5]
 660 0110 1371     		strb	r3, [r2, #4]
 281:..\..\u8g2\csrc/u8x8_d_ks0108.c ****       v.arg_int = arg_int;    
 661              		.loc 1 281 0
 662 0112 3A79     		ldrb	r2, [r7, #4]
 282:..\..\u8g2\csrc/u8x8_d_ks0108.c ****       
 663              		.loc 1 282 0
 664 0114 8E71     		strb	r6, [r1, #6]
 281:..\..\u8g2\csrc/u8x8_d_ks0108.c ****       v.arg_int = arg_int;    
 665              		.loc 1 281 0
 666 0116 4A71     		strb	r2, [r1, #5]
 285:..\..\u8g2\csrc/u8x8_d_ks0108.c ****       {
 667              		.loc 1 285 0
 668 0118 072B     		cmp	r3, #7
 669 011a 10D8     		bhi	.L32
 287:..\..\u8g2\csrc/u8x8_d_ks0108.c **** 	u8x8_ks0108_out(u8x8, &v, arg_ptr);
 670              		.loc 1 287 0
 671 011c 0023     		movs	r3, #0
 672 011e 0322     		movs	r2, #3
 673 0120 1821     		movs	r1, #24
 674 0122 E568     		ldr	r5, [r4, #12]
 675 0124 2000     		movs	r0, r4
 676 0126 A847     		blx	r5
 677              	.LVL89:
 288:..\..\u8g2\csrc/u8x8_d_ks0108.c **** 	u8x8->cad_cb(u8x8, U8X8_MSG_CAD_END_TRANSFER, 7, NULL);
 678              		.loc 1 288 0
 679 0128 3A00     		movs	r2, r7
ARM GAS  C:\Users\Greg\AppData\Local\Temp\ccuwp1ma.s 			page 19


 680 012a 6946     		mov	r1, sp
 681 012c 2000     		movs	r0, r4
 682 012e FFF7FEFF 		bl	u8x8_ks0108_out
 683              	.LVL90:
 289:..\..\u8g2\csrc/u8x8_d_ks0108.c ****       }
 684              		.loc 1 289 0
 685 0132 0023     		movs	r3, #0
 686 0134 0722     		movs	r2, #7
 687 0136 1921     		movs	r1, #25
 688 0138 2000     		movs	r0, r4
 689 013a E568     		ldr	r5, [r4, #12]
 690 013c A847     		blx	r5
 691              	.LVL91:
 692              	.L32:
 291:..\..\u8g2\csrc/u8x8_d_ks0108.c ****       {
 693              		.loc 1 291 0
 694 013e 6B46     		mov	r3, sp
 695 0140 1B79     		ldrb	r3, [r3, #4]
 696 0142 0F2B     		cmp	r3, #15
 697 0144 10D8     		bhi	.L33
 293:..\..\u8g2\csrc/u8x8_d_ks0108.c **** 	u8x8_ks0108_out(u8x8, &v, arg_ptr);
 698              		.loc 1 293 0
 699 0146 0023     		movs	r3, #0
 700 0148 0522     		movs	r2, #5
 701 014a 1821     		movs	r1, #24
 702 014c E568     		ldr	r5, [r4, #12]
 703 014e 2000     		movs	r0, r4
 704 0150 A847     		blx	r5
 705              	.LVL92:
 294:..\..\u8g2\csrc/u8x8_d_ks0108.c **** 	u8x8->cad_cb(u8x8, U8X8_MSG_CAD_END_TRANSFER, 7, NULL);
 706              		.loc 1 294 0
 707 0152 3A00     		movs	r2, r7
 708 0154 6946     		mov	r1, sp
 709 0156 2000     		movs	r0, r4
 710 0158 FFF7FEFF 		bl	u8x8_ks0108_out
 711              	.LVL93:
 295:..\..\u8g2\csrc/u8x8_d_ks0108.c ****       }
 712              		.loc 1 295 0
 713 015c 0023     		movs	r3, #0
 714 015e 0722     		movs	r2, #7
 715 0160 1921     		movs	r1, #25
 716 0162 2000     		movs	r0, r4
 717 0164 E568     		ldr	r5, [r4, #12]
 718 0166 A847     		blx	r5
 719              	.LVL94:
 720              	.L33:
 297:..\..\u8g2\csrc/u8x8_d_ks0108.c ****       {
 721              		.loc 1 297 0
 722 0168 6B46     		mov	r3, sp
 723 016a 1B79     		ldrb	r3, [r3, #4]
 724              		.loc 1 307 0
 725 016c 0125     		movs	r5, #1
 297:..\..\u8g2\csrc/u8x8_d_ks0108.c ****       {
 726              		.loc 1 297 0
 727 016e 172B     		cmp	r3, #23
 728 0170 12D8     		bhi	.L25
 299:..\..\u8g2\csrc/u8x8_d_ks0108.c **** 	u8x8_ks0108_out(u8x8, &v, arg_ptr);
ARM GAS  C:\Users\Greg\AppData\Local\Temp\ccuwp1ma.s 			page 20


 729              		.loc 1 299 0
 730 0172 0023     		movs	r3, #0
 731 0174 E668     		ldr	r6, [r4, #12]
 732 0176 0622     		movs	r2, #6
 733 0178 1821     		movs	r1, #24
 734 017a 2000     		movs	r0, r4
 735 017c B047     		blx	r6
 736              	.LVL95:
 300:..\..\u8g2\csrc/u8x8_d_ks0108.c **** 	u8x8->cad_cb(u8x8, U8X8_MSG_CAD_END_TRANSFER, 7, NULL);
 737              		.loc 1 300 0
 738 017e 3A00     		movs	r2, r7
 739 0180 6946     		mov	r1, sp
 740 0182 2000     		movs	r0, r4
 741 0184 FFF7FEFF 		bl	u8x8_ks0108_out
 742              	.LVL96:
 301:..\..\u8g2\csrc/u8x8_d_ks0108.c ****       }    
 743              		.loc 1 301 0
 744 0188 E668     		ldr	r6, [r4, #12]
 745 018a 0023     		movs	r3, #0
 746 018c 0722     		movs	r2, #7
 747 018e 1921     		movs	r1, #25
 748 0190 2000     		movs	r0, r4
 749 0192 B047     		blx	r6
 750              	.LVL97:
 751 0194 00E0     		b	.L25
 752              	.LVL98:
 753              	.L34:
 305:..\..\u8g2\csrc/u8x8_d_ks0108.c ****   }
 754              		.loc 1 305 0
 755 0196 0025     		movs	r5, #0
 756              	.LVL99:
 757              	.L25:
 308:..\..\u8g2\csrc/u8x8_d_ks0108.c **** }
 758              		.loc 1 308 0
 759 0198 2800     		movs	r0, r5
 760              		@ sp needed
 761              	.LVL100:
 762 019a FEBD     		pop	{r1, r2, r3, r4, r5, r6, r7, pc}
 763              	.L40:
 764              		.align	2
 765              	.L39:
 766 019c 00000000 		.word	.LANCHOR0
 767              		.cfi_endproc
 768              	.LFE2:
 769              		.size	u8x8_d_ks0108_erm19264, .-u8x8_d_ks0108_erm19264
 770              		.section	.rodata
 771              		.align	2
 772              		.set	.LANCHOR0,. + 0
 773              		.type	u8x8_ks0108_128x64_display_info, %object
 774              		.size	u8x8_ks0108_128x64_display_info, 24
 775              	u8x8_ks0108_128x64_display_info:
 776 0000 00       		.byte	0
 777 0001 01       		.byte	1
 778 0002 64       		.byte	100
 779 0003 14       		.byte	20
 780 0004 01       		.byte	1
 781 0005 06       		.byte	6
ARM GAS  C:\Users\Greg\AppData\Local\Temp\ccuwp1ma.s 			page 21


 782 0006 0C       		.byte	12
 783 0007 4B       		.byte	75
 784 0008 00093D00 		.word	4000000
 785 000c 00       		.byte	0
 786 000d 04       		.byte	4
 787 000e C8       		.byte	-56
 788 000f C8       		.byte	-56
 789 0010 10       		.byte	16
 790 0011 08       		.byte	8
 791 0012 00       		.byte	0
 792 0013 00       		.byte	0
 793 0014 8000     		.short	128
 794 0016 4000     		.short	64
 795              		.type	u8x8_d_ks0108_init_seq, %object
 796              		.size	u8x8_d_ks0108_init_seq, 3
 797              	u8x8_d_ks0108_init_seq:
 798 0018 15       		.byte	21
 799 0019 C0       		.byte	-64
 800 001a FF       		.byte	-1
 801              		.type	u8x8_d_ks0108_powersave0_seq, %object
 802              		.size	u8x8_d_ks0108_powersave0_seq, 3
 803              	u8x8_d_ks0108_powersave0_seq:
 804 001b 15       		.byte	21
 805 001c 3F       		.byte	63
 806 001d FF       		.byte	-1
 807              		.type	u8x8_d_ks0108_powersave1_seq, %object
 808              		.size	u8x8_d_ks0108_powersave1_seq, 3
 809              	u8x8_d_ks0108_powersave1_seq:
 810 001e 15       		.byte	21
 811 001f 3E       		.byte	62
 812 0020 FF       		.byte	-1
 813              		.text
 814              	.Letext0:
 815              		.file 2 "c:\\program files\\cypress\\psoc creator\\4.1\\psoc creator\\import\\gnu\\arm\\5.4.1\\arm
 816              		.file 3 "c:\\program files\\cypress\\psoc creator\\4.1\\psoc creator\\import\\gnu\\arm\\5.4.1\\arm
 817              		.file 4 "..\\..\\u8g2\\csrc\\u8x8.h"