ARM GAS  C:\Users\Greg\AppData\Local\Temp\ccnVoVxh.s 			page 1


   1              		.syntax unified
   2              		.cpu cortex-m0
   3              		.fpu softvfp
   4              		.eabi_attribute 20, 1
   5              		.eabi_attribute 21, 1
   6              		.eabi_attribute 23, 3
   7              		.eabi_attribute 24, 1
   8              		.eabi_attribute 25, 1
   9              		.eabi_attribute 26, 1
  10              		.eabi_attribute 30, 4
  11              		.eabi_attribute 34, 0
  12              		.eabi_attribute 18, 4
  13              		.thumb
  14              		.syntax unified
  15              		.file	"u8x8_message.c"
  16              		.text
  17              	.Ltext0:
  18              		.cfi_sections	.debug_frame
  19              		.section	.text.u8x8_draw_button_line,"ax",%progbits
  20              		.align	1
  21              		.global	u8x8_draw_button_line
  22              		.code	16
  23              		.thumb_func
  24              		.type	u8x8_draw_button_line, %function
  25              	u8x8_draw_button_line:
  26              	.LFB0:
  27              		.file 1 "..\\..\\u8g2\\csrc\\u8x8_message.c"
   1:..\..\u8g2\csrc/u8x8_message.c **** /*
   2:..\..\u8g2\csrc/u8x8_message.c **** 
   3:..\..\u8g2\csrc/u8x8_message.c ****   u8x8_message.c
   4:..\..\u8g2\csrc/u8x8_message.c ****   
   5:..\..\u8g2\csrc/u8x8_message.c ****   Universal 8bit Graphics Library (https://github.com/olikraus/u8g2/)
   6:..\..\u8g2\csrc/u8x8_message.c **** 
   7:..\..\u8g2\csrc/u8x8_message.c ****   Copyright (c) 2016, olikraus@gmail.com
   8:..\..\u8g2\csrc/u8x8_message.c ****   All rights reserved.
   9:..\..\u8g2\csrc/u8x8_message.c **** 
  10:..\..\u8g2\csrc/u8x8_message.c ****   Redistribution and use in source and binary forms, with or without modification, 
  11:..\..\u8g2\csrc/u8x8_message.c ****   are permitted provided that the following conditions are met:
  12:..\..\u8g2\csrc/u8x8_message.c **** 
  13:..\..\u8g2\csrc/u8x8_message.c ****   * Redistributions of source code must retain the above copyright notice, this list 
  14:..\..\u8g2\csrc/u8x8_message.c ****     of conditions and the following disclaimer.
  15:..\..\u8g2\csrc/u8x8_message.c ****     
  16:..\..\u8g2\csrc/u8x8_message.c ****   * Redistributions in binary form must reproduce the above copyright notice, this 
  17:..\..\u8g2\csrc/u8x8_message.c ****     list of conditions and the following disclaimer in the documentation and/or other 
  18:..\..\u8g2\csrc/u8x8_message.c ****     materials provided with the distribution.
  19:..\..\u8g2\csrc/u8x8_message.c **** 
  20:..\..\u8g2\csrc/u8x8_message.c ****   THIS SOFTWARE IS PROVIDED BY THE COPYRIGHT HOLDERS AND 
  21:..\..\u8g2\csrc/u8x8_message.c ****   CONTRIBUTORS "AS IS" AND ANY EXPRESS OR IMPLIED WARRANTIES, 
  22:..\..\u8g2\csrc/u8x8_message.c ****   INCLUDING, BUT NOT LIMITED TO, THE IMPLIED WARRANTIES OF 
  23:..\..\u8g2\csrc/u8x8_message.c ****   MERCHANTABILITY AND FITNESS FOR A PARTICULAR PURPOSE ARE 
  24:..\..\u8g2\csrc/u8x8_message.c ****   DISCLAIMED. IN NO EVENT SHALL THE COPYRIGHT HOLDER OR 
  25:..\..\u8g2\csrc/u8x8_message.c ****   CONTRIBUTORS BE LIABLE FOR ANY DIRECT, INDIRECT, INCIDENTAL, 
  26:..\..\u8g2\csrc/u8x8_message.c ****   SPECIAL, EXEMPLARY, OR CONSEQUENTIAL DAMAGES (INCLUDING, BUT 
  27:..\..\u8g2\csrc/u8x8_message.c ****   NOT LIMITED TO, PROCUREMENT OF SUBSTITUTE GOODS OR SERVICES; 
  28:..\..\u8g2\csrc/u8x8_message.c ****   LOSS OF USE, DATA, OR PROFITS; OR BUSINESS INTERRUPTION) HOWEVER 
  29:..\..\u8g2\csrc/u8x8_message.c ****   CAUSED AND ON ANY THEORY OF LIABILITY, WHETHER IN CONTRACT, 
  30:..\..\u8g2\csrc/u8x8_message.c ****   STRICT LIABILITY, OR TORT (INCLUDING NEGLIGENCE OR OTHERWISE) 
ARM GAS  C:\Users\Greg\AppData\Local\Temp\ccnVoVxh.s 			page 2


  31:..\..\u8g2\csrc/u8x8_message.c ****   ARISING IN ANY WAY OUT OF THE USE OF THIS SOFTWARE, EVEN IF 
  32:..\..\u8g2\csrc/u8x8_message.c ****   ADVISED OF THE POSSIBILITY OF SUCH DAMAGE.  
  33:..\..\u8g2\csrc/u8x8_message.c ****   
  34:..\..\u8g2\csrc/u8x8_message.c **** */
  35:..\..\u8g2\csrc/u8x8_message.c **** 
  36:..\..\u8g2\csrc/u8x8_message.c **** #include "u8x8.h"
  37:..\..\u8g2\csrc/u8x8_message.c **** 
  38:..\..\u8g2\csrc/u8x8_message.c **** uint8_t u8x8_draw_button_line(u8x8_t *u8x8, uint8_t y, uint8_t w, uint8_t cursor, const char *s)
  39:..\..\u8g2\csrc/u8x8_message.c **** {
  28              		.loc 1 39 0
  29              		.cfi_startproc
  30              		@ args = 4, pretend = 0, frame = 16
  31              		@ frame_needed = 0, uses_anonymous_args = 0
  32              	.LVL0:
  33 0000 F0B5     		push	{r4, r5, r6, r7, lr}
  34              		.cfi_def_cfa_offset 20
  35              		.cfi_offset 4, -20
  36              		.cfi_offset 5, -16
  37              		.cfi_offset 6, -12
  38              		.cfi_offset 7, -8
  39              		.cfi_offset 14, -4
  40:..\..\u8g2\csrc/u8x8_message.c ****   uint8_t i;
  41:..\..\u8g2\csrc/u8x8_message.c ****   uint8_t cnt;
  42:..\..\u8g2\csrc/u8x8_message.c ****   uint8_t total;
  43:..\..\u8g2\csrc/u8x8_message.c ****   uint8_t d;
  44:..\..\u8g2\csrc/u8x8_message.c ****   uint8_t x;
  45:..\..\u8g2\csrc/u8x8_message.c ****   cnt = u8x8_GetStringLineCnt(s);
  46:..\..\u8g2\csrc/u8x8_message.c ****   
  47:..\..\u8g2\csrc/u8x8_message.c ****   /* calculate the width of the button */
  48:..\..\u8g2\csrc/u8x8_message.c ****   total = 0;
  40              		.loc 1 48 0
  41 0002 0027     		movs	r7, #0
  39:..\..\u8g2\csrc/u8x8_message.c ****   uint8_t i;
  42              		.loc 1 39 0
  43 0004 85B0     		sub	sp, sp, #20
  44              		.cfi_def_cfa_offset 40
  39:..\..\u8g2\csrc/u8x8_message.c ****   uint8_t i;
  45              		.loc 1 39 0
  46 0006 0400     		movs	r4, r0
  45:..\..\u8g2\csrc/u8x8_message.c ****   
  47              		.loc 1 45 0
  48 0008 0A98     		ldr	r0, [sp, #40]
  49              	.LVL1:
  39:..\..\u8g2\csrc/u8x8_message.c ****   uint8_t i;
  50              		.loc 1 39 0
  51 000a 0291     		str	r1, [sp, #8]
  52 000c 1500     		movs	r5, r2
  53 000e 0393     		str	r3, [sp, #12]
  45:..\..\u8g2\csrc/u8x8_message.c ****   
  54              		.loc 1 45 0
  55 0010 FFF7FEFF 		bl	u8x8_GetStringLineCnt
  56              	.LVL2:
  49:..\..\u8g2\csrc/u8x8_message.c ****   for( i = 0; i < cnt; i++ )
  57              		.loc 1 49 0
  58 0014 3E00     		movs	r6, r7
  45:..\..\u8g2\csrc/u8x8_message.c ****   
  59              		.loc 1 45 0
ARM GAS  C:\Users\Greg\AppData\Local\Temp\ccnVoVxh.s 			page 3


  60 0016 0190     		str	r0, [sp, #4]
  61              	.LVL3:
  62              	.L2:
  63              		.loc 1 49 0 discriminator 1
  64 0018 019B     		ldr	r3, [sp, #4]
  65 001a 9E42     		cmp	r6, r3
  66 001c 0CD0     		beq	.L10
  50:..\..\u8g2\csrc/u8x8_message.c ****   {
  51:..\..\u8g2\csrc/u8x8_message.c ****     total += u8x8_GetUTF8Len(u8x8, u8x8_GetStringLineStart(i, s));
  67              		.loc 1 51 0 discriminator 3
  68 001e 0A99     		ldr	r1, [sp, #40]
  69 0020 3000     		movs	r0, r6
  70 0022 FFF7FEFF 		bl	u8x8_GetStringLineStart
  71              	.LVL4:
  72 0026 0100     		movs	r1, r0
  73 0028 2000     		movs	r0, r4
  74 002a FFF7FEFF 		bl	u8x8_GetUTF8Len
  75              	.LVL5:
  49:..\..\u8g2\csrc/u8x8_message.c ****   for( i = 0; i < cnt; i++ )
  76              		.loc 1 49 0 discriminator 3
  77 002e 0136     		adds	r6, r6, #1
  78              	.LVL6:
  79              		.loc 1 51 0 discriminator 3
  80 0030 3F18     		adds	r7, r7, r0
  81              	.LVL7:
  82 0032 FFB2     		uxtb	r7, r7
  83              	.LVL8:
  49:..\..\u8g2\csrc/u8x8_message.c ****   for( i = 0; i < cnt; i++ )
  84              		.loc 1 49 0 discriminator 3
  85 0034 F6B2     		uxtb	r6, r6
  86              	.LVL9:
  87 0036 EFE7     		b	.L2
  88              	.L10:
  52:..\..\u8g2\csrc/u8x8_message.c ****   }
  53:..\..\u8g2\csrc/u8x8_message.c ****   total += (cnt-1);	/* had one space between the buttons */
  89              		.loc 1 53 0
  90 0038 5E1E     		subs	r6, r3, #1
  91              	.LVL10:
  92 003a BF19     		adds	r7, r7, r6
  93              	.LVL11:
  94 003c FFB2     		uxtb	r7, r7
  95              	.LVL12:
  54:..\..\u8g2\csrc/u8x8_message.c ****   
  55:..\..\u8g2\csrc/u8x8_message.c ****   /* calculate the left offset */
  56:..\..\u8g2\csrc/u8x8_message.c ****   d = 0;
  96              		.loc 1 56 0
  97 003e 0026     		movs	r6, #0
  57:..\..\u8g2\csrc/u8x8_message.c ****   if ( total < w )
  98              		.loc 1 57 0
  99 0040 AF42     		cmp	r7, r5
 100 0042 02D2     		bcs	.L4
 101              	.LVL13:
  58:..\..\u8g2\csrc/u8x8_message.c ****   {
  59:..\..\u8g2\csrc/u8x8_message.c ****     d = w;
  60:..\..\u8g2\csrc/u8x8_message.c ****     d -= total;
  61:..\..\u8g2\csrc/u8x8_message.c ****     d /= 2;
 102              		.loc 1 61 0
ARM GAS  C:\Users\Greg\AppData\Local\Temp\ccnVoVxh.s 			page 4


 103 0044 EE1B     		subs	r6, r5, r7
 104 0046 F6B2     		uxtb	r6, r6
 105 0048 7608     		lsrs	r6, r6, #1
 106              	.LVL14:
 107              	.L4:
  62:..\..\u8g2\csrc/u8x8_message.c ****   }
  63:..\..\u8g2\csrc/u8x8_message.c ****   
  64:..\..\u8g2\csrc/u8x8_message.c ****   /* draw the buttons */
  65:..\..\u8g2\csrc/u8x8_message.c ****   x = d;
  66:..\..\u8g2\csrc/u8x8_message.c ****   u8x8_SetInverseFont(u8x8, 0);
 108              		.loc 1 66 0
 109 004a 0027     		movs	r7, #0
 110              	.LVL15:
  67:..\..\u8g2\csrc/u8x8_message.c ****   for( i = 0; i < cnt; i++ )
  68:..\..\u8g2\csrc/u8x8_message.c ****   {
  69:..\..\u8g2\csrc/u8x8_message.c ****     if ( i == cursor )
  70:..\..\u8g2\csrc/u8x8_message.c ****       u8x8_SetInverseFont(u8x8, 1);
 111              		.loc 1 70 0
 112 004c 0125     		movs	r5, #1
  66:..\..\u8g2\csrc/u8x8_message.c ****   for( i = 0; i < cnt; i++ )
 113              		.loc 1 66 0
 114 004e E777     		strb	r7, [r4, #31]
 115              	.LVL16:
 116              	.L5:
  67:..\..\u8g2\csrc/u8x8_message.c ****   for( i = 0; i < cnt; i++ )
 117              		.loc 1 67 0 discriminator 1
 118 0050 019B     		ldr	r3, [sp, #4]
 119 0052 9F42     		cmp	r7, r3
 120 0054 1CD0     		beq	.L11
  69:..\..\u8g2\csrc/u8x8_message.c ****       u8x8_SetInverseFont(u8x8, 1);
 121              		.loc 1 69 0
 122 0056 039B     		ldr	r3, [sp, #12]
 123 0058 9F42     		cmp	r7, r3
 124 005a 00D1     		bne	.L6
 125              		.loc 1 70 0
 126 005c E577     		strb	r5, [r4, #31]
 127              	.L6:
  71:..\..\u8g2\csrc/u8x8_message.c ****       
  72:..\..\u8g2\csrc/u8x8_message.c ****     x+=u8x8_DrawUTF8(u8x8, x, y, u8x8_GetStringLineStart(i, s));
 128              		.loc 1 72 0 discriminator 2
 129 005e 0A99     		ldr	r1, [sp, #40]
 130 0060 3800     		movs	r0, r7
 131 0062 FFF7FEFF 		bl	u8x8_GetStringLineStart
 132              	.LVL17:
 133 0066 3100     		movs	r1, r6
 134 0068 0300     		movs	r3, r0
 135 006a 029A     		ldr	r2, [sp, #8]
 136 006c 2000     		movs	r0, r4
 137 006e FFF7FEFF 		bl	u8x8_DrawUTF8
 138              	.LVL18:
  73:..\..\u8g2\csrc/u8x8_message.c ****     u8x8_SetInverseFont(u8x8, 0);
 139              		.loc 1 73 0 discriminator 2
 140 0072 0023     		movs	r3, #0
  72:..\..\u8g2\csrc/u8x8_message.c ****     u8x8_SetInverseFont(u8x8, 0);
 141              		.loc 1 72 0 discriminator 2
 142 0074 3618     		adds	r6, r6, r0
 143              	.LVL19:
ARM GAS  C:\Users\Greg\AppData\Local\Temp\ccnVoVxh.s 			page 5


 144 0076 F6B2     		uxtb	r6, r6
 145              	.LVL20:
 146              		.loc 1 73 0 discriminator 2
 147 0078 E377     		strb	r3, [r4, #31]
  74:..\..\u8g2\csrc/u8x8_message.c ****     x+=u8x8_DrawUTF8(u8x8, x, y, " ");
 148              		.loc 1 74 0 discriminator 2
 149 007a 3100     		movs	r1, r6
 150 007c 064B     		ldr	r3, .L12
 151 007e 029A     		ldr	r2, [sp, #8]
 152 0080 2000     		movs	r0, r4
 153 0082 FFF7FEFF 		bl	u8x8_DrawUTF8
 154              	.LVL21:
  67:..\..\u8g2\csrc/u8x8_message.c ****   {
 155              		.loc 1 67 0 discriminator 2
 156 0086 0137     		adds	r7, r7, #1
 157              	.LVL22:
 158              		.loc 1 74 0 discriminator 2
 159 0088 3618     		adds	r6, r6, r0
 160              	.LVL23:
 161 008a F6B2     		uxtb	r6, r6
 162              	.LVL24:
  67:..\..\u8g2\csrc/u8x8_message.c ****   {
 163              		.loc 1 67 0 discriminator 2
 164 008c FFB2     		uxtb	r7, r7
 165              	.LVL25:
 166 008e DFE7     		b	.L5
 167              	.L11:
  75:..\..\u8g2\csrc/u8x8_message.c ****   }
  76:..\..\u8g2\csrc/u8x8_message.c ****   
  77:..\..\u8g2\csrc/u8x8_message.c ****   /* return the number of buttons */
  78:..\..\u8g2\csrc/u8x8_message.c ****   return cnt;
  79:..\..\u8g2\csrc/u8x8_message.c **** }
 168              		.loc 1 79 0
 169 0090 3800     		movs	r0, r7
 170 0092 05B0     		add	sp, sp, #20
 171              		@ sp needed
 172              	.LVL26:
 173              	.LVL27:
 174              	.LVL28:
 175 0094 F0BD     		pop	{r4, r5, r6, r7, pc}
 176              	.L13:
 177 0096 C046     		.align	2
 178              	.L12:
 179 0098 00000000 		.word	.LC0
 180              		.cfi_endproc
 181              	.LFE0:
 182              		.size	u8x8_draw_button_line, .-u8x8_draw_button_line
 183              		.section	.text.u8x8_UserInterfaceMessage,"ax",%progbits
 184              		.align	1
 185              		.global	u8x8_UserInterfaceMessage
 186              		.code	16
 187              		.thumb_func
 188              		.type	u8x8_UserInterfaceMessage, %function
 189              	u8x8_UserInterfaceMessage:
 190              	.LFB1:
  80:..\..\u8g2\csrc/u8x8_message.c **** 
  81:..\..\u8g2\csrc/u8x8_message.c **** /*
ARM GAS  C:\Users\Greg\AppData\Local\Temp\ccnVoVxh.s 			page 6


  82:..\..\u8g2\csrc/u8x8_message.c ****   title1:	Multiple lines,separated by '\n'
  83:..\..\u8g2\csrc/u8x8_message.c ****   title2:	A single line/string which is terminated by '\0' or '\n' . "title2" accepts the return va
  84:..\..\u8g2\csrc/u8x8_message.c ****   title3:	Multiple lines,separated by '\n'
  85:..\..\u8g2\csrc/u8x8_message.c ****   buttons:	one more more buttons separated by '\n' and terminated with '\0'
  86:..\..\u8g2\csrc/u8x8_message.c **** */
  87:..\..\u8g2\csrc/u8x8_message.c **** 
  88:..\..\u8g2\csrc/u8x8_message.c **** uint8_t u8x8_UserInterfaceMessage(u8x8_t *u8x8, const char *title1, const char *title2, const char 
  89:..\..\u8g2\csrc/u8x8_message.c **** {
 191              		.loc 1 89 0
 192              		.cfi_startproc
 193              		@ args = 4, pretend = 0, frame = 8
 194              		@ frame_needed = 0, uses_anonymous_args = 0
 195              	.LVL29:
 196 0000 F0B5     		push	{r4, r5, r6, r7, lr}
 197              		.cfi_def_cfa_offset 20
 198              		.cfi_offset 4, -20
 199              		.cfi_offset 5, -16
 200              		.cfi_offset 6, -12
 201              		.cfi_offset 7, -8
 202              		.cfi_offset 14, -4
 203 0002 85B0     		sub	sp, sp, #20
 204              		.cfi_def_cfa_offset 40
 205              		.loc 1 89 0
 206 0004 0393     		str	r3, [sp, #12]
  90:..\..\u8g2\csrc/u8x8_message.c ****   uint8_t height;
  91:..\..\u8g2\csrc/u8x8_message.c ****   uint8_t y;
  92:..\..\u8g2\csrc/u8x8_message.c ****   uint8_t cursor = 0;
  93:..\..\u8g2\csrc/u8x8_message.c ****   uint8_t button_cnt;
  94:..\..\u8g2\csrc/u8x8_message.c ****   uint8_t event;
  95:..\..\u8g2\csrc/u8x8_message.c **** 
  96:..\..\u8g2\csrc/u8x8_message.c ****   u8x8_SetInverseFont(u8x8, 0);
 207              		.loc 1 96 0
 208 0006 0023     		movs	r3, #0
 209              	.LVL30:
  89:..\..\u8g2\csrc/u8x8_message.c ****   uint8_t height;
 210              		.loc 1 89 0
 211 0008 0400     		movs	r4, r0
 212              		.loc 1 96 0
 213 000a C377     		strb	r3, [r0, #31]
 214              	.LVL31:
  97:..\..\u8g2\csrc/u8x8_message.c ****   
  98:..\..\u8g2\csrc/u8x8_message.c ****   /* calculate overall height of the message box */
  99:..\..\u8g2\csrc/u8x8_message.c ****   height = 1;	/* button line */
 100:..\..\u8g2\csrc/u8x8_message.c ****   height += u8x8_GetStringLineCnt(title1);
 215              		.loc 1 100 0
 216 000c 0800     		movs	r0, r1
 217              	.LVL32:
  89:..\..\u8g2\csrc/u8x8_message.c ****   uint8_t height;
 218              		.loc 1 89 0
 219 000e 0F00     		movs	r7, r1
 220 0010 1600     		movs	r6, r2
 221              		.loc 1 100 0
 222 0012 FFF7FEFF 		bl	u8x8_GetStringLineCnt
 223              	.LVL33:
 101:..\..\u8g2\csrc/u8x8_message.c ****   if ( title2 != NULL )
 102:..\..\u8g2\csrc/u8x8_message.c ****     height ++;
 224              		.loc 1 102 0
ARM GAS  C:\Users\Greg\AppData\Local\Temp\ccnVoVxh.s 			page 7


 225 0016 851C     		adds	r5, r0, #2
 226 0018 EDB2     		uxtb	r5, r5
 101:..\..\u8g2\csrc/u8x8_message.c ****   if ( title2 != NULL )
 227              		.loc 1 101 0
 228 001a 002E     		cmp	r6, #0
 229 001c 01D1     		bne	.L16
 100:..\..\u8g2\csrc/u8x8_message.c ****   if ( title2 != NULL )
 230              		.loc 1 100 0
 231 001e 0130     		adds	r0, r0, #1
 232              	.LVL34:
 233 0020 C5B2     		uxtb	r5, r0
 234              	.L16:
 235              	.LVL35:
 103:..\..\u8g2\csrc/u8x8_message.c ****   height += u8x8_GetStringLineCnt(title3);
 236              		.loc 1 103 0
 237 0022 0398     		ldr	r0, [sp, #12]
 238 0024 FFF7FEFF 		bl	u8x8_GetStringLineCnt
 239              	.LVL36:
 104:..\..\u8g2\csrc/u8x8_message.c ****   
 105:..\..\u8g2\csrc/u8x8_message.c ****   /* calculate offset from top */
 106:..\..\u8g2\csrc/u8x8_message.c ****   y = 0;
 107:..\..\u8g2\csrc/u8x8_message.c ****   if ( height < u8x8_GetRows(u8x8)  )
 240              		.loc 1 107 0
 241 0028 2368     		ldr	r3, [r4]
 103:..\..\u8g2\csrc/u8x8_message.c ****   height += u8x8_GetStringLineCnt(title3);
 242              		.loc 1 103 0
 243 002a 2D18     		adds	r5, r5, r0
 244              	.LVL37:
 245              		.loc 1 107 0
 246 002c 5B7C     		ldrb	r3, [r3, #17]
 103:..\..\u8g2\csrc/u8x8_message.c ****   height += u8x8_GetStringLineCnt(title3);
 247              		.loc 1 103 0
 248 002e E8B2     		uxtb	r0, r5
 249              	.LVL38:
 106:..\..\u8g2\csrc/u8x8_message.c ****   if ( height < u8x8_GetRows(u8x8)  )
 250              		.loc 1 106 0
 251 0030 0025     		movs	r5, #0
 252              		.loc 1 107 0
 253 0032 9842     		cmp	r0, r3
 254 0034 02D2     		bcs	.L17
 255              	.LVL39:
 108:..\..\u8g2\csrc/u8x8_message.c ****   {
 109:..\..\u8g2\csrc/u8x8_message.c ****     y = u8x8_GetRows(u8x8);
 110:..\..\u8g2\csrc/u8x8_message.c ****     y -= height;
 256              		.loc 1 110 0
 257 0036 1D1A     		subs	r5, r3, r0
 258 0038 EDB2     		uxtb	r5, r5
 259              	.LVL40:
 111:..\..\u8g2\csrc/u8x8_message.c ****     y /= 2;
 260              		.loc 1 111 0
 261 003a 6D08     		lsrs	r5, r5, #1
 262              	.LVL41:
 263              	.L17:
 112:..\..\u8g2\csrc/u8x8_message.c ****   }
 113:..\..\u8g2\csrc/u8x8_message.c **** 
 114:..\..\u8g2\csrc/u8x8_message.c ****   /* draw message box */
 115:..\..\u8g2\csrc/u8x8_message.c ****   
ARM GAS  C:\Users\Greg\AppData\Local\Temp\ccnVoVxh.s 			page 8


 116:..\..\u8g2\csrc/u8x8_message.c ****   u8x8_ClearDisplay(u8x8);   /* required, because not everything is filled */
 264              		.loc 1 116 0
 265 003c 2000     		movs	r0, r4
 266              	.LVL42:
 267 003e FFF7FEFF 		bl	u8x8_ClearDisplay
 268              	.LVL43:
 117:..\..\u8g2\csrc/u8x8_message.c ****   
 118:..\..\u8g2\csrc/u8x8_message.c ****   y += u8x8_DrawUTF8Lines(u8x8, 0, y, u8x8_GetCols(u8x8), title1);
 269              		.loc 1 118 0
 270 0042 2368     		ldr	r3, [r4]
 271 0044 2A00     		movs	r2, r5
 272 0046 1B7C     		ldrb	r3, [r3, #16]
 273 0048 0021     		movs	r1, #0
 274 004a 0097     		str	r7, [sp]
 275 004c 2000     		movs	r0, r4
 276 004e FFF7FEFF 		bl	u8x8_DrawUTF8Lines
 277              	.LVL44:
 278 0052 2D18     		adds	r5, r5, r0
 279              	.LVL45:
 280 0054 EDB2     		uxtb	r5, r5
 281              	.LVL46:
 119:..\..\u8g2\csrc/u8x8_message.c ****   if ( title2 != NULL )
 282              		.loc 1 119 0
 283 0056 002E     		cmp	r6, #0
 284 0058 09D0     		beq	.L18
 120:..\..\u8g2\csrc/u8x8_message.c ****   {
 121:..\..\u8g2\csrc/u8x8_message.c ****     u8x8_DrawUTF8Line(u8x8, 0, y, u8x8_GetCols(u8x8), title2);
 285              		.loc 1 121 0
 286 005a 2368     		ldr	r3, [r4]
 287 005c 2A00     		movs	r2, r5
 288 005e 1B7C     		ldrb	r3, [r3, #16]
 289 0060 0021     		movs	r1, #0
 290 0062 0096     		str	r6, [sp]
 291 0064 2000     		movs	r0, r4
 292 0066 FFF7FEFF 		bl	u8x8_DrawUTF8Line
 293              	.LVL47:
 122:..\..\u8g2\csrc/u8x8_message.c ****     y++;
 294              		.loc 1 122 0
 295 006a 0135     		adds	r5, r5, #1
 296              	.LVL48:
 297 006c EDB2     		uxtb	r5, r5
 298              	.LVL49:
 299              	.L18:
 123:..\..\u8g2\csrc/u8x8_message.c ****   }
 124:..\..\u8g2\csrc/u8x8_message.c ****   y += u8x8_DrawUTF8Lines(u8x8, 0, y, u8x8_GetCols(u8x8), title3);
 300              		.loc 1 124 0
 301 006e 039A     		ldr	r2, [sp, #12]
 302 0070 2368     		ldr	r3, [r4]
 303 0072 0021     		movs	r1, #0
 304 0074 1B7C     		ldrb	r3, [r3, #16]
 305 0076 2000     		movs	r0, r4
 306 0078 0092     		str	r2, [sp]
 307 007a 2A00     		movs	r2, r5
 308 007c FFF7FEFF 		bl	u8x8_DrawUTF8Lines
 309              	.LVL50:
 125:..\..\u8g2\csrc/u8x8_message.c **** 
 126:..\..\u8g2\csrc/u8x8_message.c ****   button_cnt = u8x8_draw_button_line(u8x8, y, u8x8_GetCols(u8x8), cursor, buttons);
ARM GAS  C:\Users\Greg\AppData\Local\Temp\ccnVoVxh.s 			page 9


 310              		.loc 1 126 0
 311 0080 2368     		ldr	r3, [r4]
 124:..\..\u8g2\csrc/u8x8_message.c **** 
 312              		.loc 1 124 0
 313 0082 2D18     		adds	r5, r5, r0
 314              	.LVL51:
 315              		.loc 1 126 0
 316 0084 1A7C     		ldrb	r2, [r3, #16]
 317 0086 0A9B     		ldr	r3, [sp, #40]
 124:..\..\u8g2\csrc/u8x8_message.c **** 
 318              		.loc 1 124 0
 319 0088 EDB2     		uxtb	r5, r5
 320              	.LVL52:
 321              		.loc 1 126 0
 322 008a 0093     		str	r3, [sp]
 323 008c 2900     		movs	r1, r5
 324 008e 0023     		movs	r3, #0
 325 0090 2000     		movs	r0, r4
 326 0092 FFF7FEFF 		bl	u8x8_draw_button_line
 327              	.LVL53:
  92:..\..\u8g2\csrc/u8x8_message.c ****   uint8_t button_cnt;
 328              		.loc 1 92 0
 329 0096 0026     		movs	r6, #0
 330              	.LVL54:
 331              		.loc 1 126 0
 332 0098 0700     		movs	r7, r0
 333              	.LVL55:
 334              	.L19:
 127:..\..\u8g2\csrc/u8x8_message.c ****   
 128:..\..\u8g2\csrc/u8x8_message.c ****   for(;;)
 129:..\..\u8g2\csrc/u8x8_message.c ****   {
 130:..\..\u8g2\csrc/u8x8_message.c ****     event = u8x8_GetMenuEvent(u8x8);
 335              		.loc 1 130 0
 336 009a 2000     		movs	r0, r4
 337 009c FFF7FEFF 		bl	u8x8_GetMenuEvent
 338              	.LVL56:
 131:..\..\u8g2\csrc/u8x8_message.c ****     if ( event == U8X8_MSG_GPIO_MENU_SELECT )
 339              		.loc 1 131 0
 340 00a0 5028     		cmp	r0, #80
 341 00a2 02D1     		bne	.L20
 132:..\..\u8g2\csrc/u8x8_message.c ****       return cursor+1;
 342              		.loc 1 132 0
 343 00a4 0136     		adds	r6, r6, #1
 344              	.LVL57:
 345 00a6 F0B2     		uxtb	r0, r6
 346              	.LVL58:
 347 00a8 1FE0     		b	.L21
 348              	.LVL59:
 349              	.L20:
 133:..\..\u8g2\csrc/u8x8_message.c ****     else if ( event == U8X8_MSG_GPIO_MENU_HOME )
 350              		.loc 1 133 0
 351 00aa 5328     		cmp	r0, #83
 352 00ac 1CD0     		beq	.L29
 134:..\..\u8g2\csrc/u8x8_message.c ****       break;
 135:..\..\u8g2\csrc/u8x8_message.c ****     else if ( event == U8X8_MSG_GPIO_MENU_NEXT || event == U8X8_MSG_GPIO_MENU_UP )
 353              		.loc 1 135 0
 354 00ae 5128     		cmp	r0, #81
ARM GAS  C:\Users\Greg\AppData\Local\Temp\ccnVoVxh.s 			page 10


 355 00b0 01D0     		beq	.L22
 356              		.loc 1 135 0 is_stmt 0 discriminator 1
 357 00b2 5428     		cmp	r0, #84
 358 00b4 05D1     		bne	.L23
 359              	.L22:
 136:..\..\u8g2\csrc/u8x8_message.c ****     {
 137:..\..\u8g2\csrc/u8x8_message.c ****       cursor++;
 360              		.loc 1 137 0 is_stmt 1
 361 00b6 0136     		adds	r6, r6, #1
 362              	.LVL60:
 363 00b8 F6B2     		uxtb	r6, r6
 364              	.LVL61:
 138:..\..\u8g2\csrc/u8x8_message.c ****       if ( cursor >= button_cnt )
 139:..\..\u8g2\csrc/u8x8_message.c **** 	cursor = 0;
 365              		.loc 1 139 0
 366 00ba BE42     		cmp	r6, r7
 367 00bc 9B41     		sbcs	r3, r3, r3
 368 00be 1E40     		ands	r6, r3
 369              	.LVL62:
 370 00c0 08E0     		b	.L39
 371              	.L23:
 140:..\..\u8g2\csrc/u8x8_message.c ****       u8x8_draw_button_line(u8x8, y, u8x8_GetCols(u8x8), cursor, buttons);
 141:..\..\u8g2\csrc/u8x8_message.c ****     }
 142:..\..\u8g2\csrc/u8x8_message.c ****     else if ( event == U8X8_MSG_GPIO_MENU_PREV || event == U8X8_MSG_GPIO_MENU_DOWN  )
 372              		.loc 1 142 0
 373 00c2 5228     		cmp	r0, #82
 374 00c4 01D0     		beq	.L26
 375              		.loc 1 142 0 is_stmt 0 discriminator 1
 376 00c6 5528     		cmp	r0, #85
 377 00c8 E7D1     		bne	.L19
 378              	.L26:
 143:..\..\u8g2\csrc/u8x8_message.c ****     {
 144:..\..\u8g2\csrc/u8x8_message.c ****       if ( cursor == 0 )
 379              		.loc 1 144 0 is_stmt 1
 380 00ca 002E     		cmp	r6, #0
 381 00cc 00D1     		bne	.L27
 145:..\..\u8g2\csrc/u8x8_message.c **** 	cursor = button_cnt;
 382              		.loc 1 145 0
 383 00ce 3E00     		movs	r6, r7
 384              	.LVL63:
 385              	.L27:
 146:..\..\u8g2\csrc/u8x8_message.c ****       cursor--;
 386              		.loc 1 146 0
 387 00d0 013E     		subs	r6, r6, #1
 388              	.LVL64:
 389 00d2 F6B2     		uxtb	r6, r6
 390              	.L39:
 391              	.LVL65:
 147:..\..\u8g2\csrc/u8x8_message.c ****       u8x8_draw_button_line(u8x8, y, u8x8_GetCols(u8x8), cursor, buttons);
 392              		.loc 1 147 0
 393 00d4 2368     		ldr	r3, [r4]
 394 00d6 2900     		movs	r1, r5
 395 00d8 1A7C     		ldrb	r2, [r3, #16]
 396 00da 0A9B     		ldr	r3, [sp, #40]
 397 00dc 2000     		movs	r0, r4
 398              	.LVL66:
 399 00de 0093     		str	r3, [sp]
ARM GAS  C:\Users\Greg\AppData\Local\Temp\ccnVoVxh.s 			page 11


 400 00e0 3300     		movs	r3, r6
 401 00e2 FFF7FEFF 		bl	u8x8_draw_button_line
 402              	.LVL67:
 403 00e6 D8E7     		b	.L19
 404              	.LVL68:
 405              	.L29:
 148:..\..\u8g2\csrc/u8x8_message.c ****     }    
 149:..\..\u8g2\csrc/u8x8_message.c ****   }  
 150:..\..\u8g2\csrc/u8x8_message.c ****   return 0;
 406              		.loc 1 150 0
 407 00e8 0020     		movs	r0, #0
 408              	.LVL69:
 409              	.L21:
 151:..\..\u8g2\csrc/u8x8_message.c **** }
 410              		.loc 1 151 0
 411 00ea 05B0     		add	sp, sp, #20
 412              		@ sp needed
 413              	.LVL70:
 414              	.LVL71:
 415              	.LVL72:
 416 00ec F0BD     		pop	{r4, r5, r6, r7, pc}
 417              		.cfi_endproc
 418              	.LFE1:
 419              		.size	u8x8_UserInterfaceMessage, .-u8x8_UserInterfaceMessage
 420              		.section	.rodata.str1.1,"aMS",%progbits,1
 421              	.LC0:
 422 0000 2000     		.ascii	" \000"
 423              		.text
 424              	.Letext0:
 425              		.file 2 "c:\\program files\\cypress\\psoc creator\\4.1\\psoc creator\\import\\gnu\\arm\\5.4.1\\arm
 426              		.file 3 "c:\\program files\\cypress\\psoc creator\\4.1\\psoc creator\\import\\gnu\\arm\\5.4.1\\arm
 427              		.file 4 "..\\..\\u8g2\\csrc\\u8x8.h"