ARM GAS  C:\Users\Greg\AppData\Local\Temp\cct7TZoA.s 			page 1


   1              		.syntax unified
   2              		.cpu cortex-m0
   3              		.fpu softvfp
   4              		.eabi_attribute 20, 1
   5              		.eabi_attribute 21, 1
   6              		.eabi_attribute 23, 3
   7              		.eabi_attribute 24, 1
   8              		.eabi_attribute 25, 1
   9              		.eabi_attribute 26, 1
  10              		.eabi_attribute 30, 4
  11              		.eabi_attribute 34, 0
  12              		.eabi_attribute 18, 4
  13              		.thumb
  14              		.syntax unified
  15              		.file	"u8x8_byte.c"
  16              		.text
  17              	.Ltext0:
  18              		.cfi_sections	.debug_frame
  19              		.section	.text.i2c_delay,"ax",%progbits
  20              		.align	1
  21              		.code	16
  22              		.thumb_func
  23              		.type	i2c_delay, %function
  24              	i2c_delay:
  25              	.LFB11:
  26              		.file 1 "..\\..\\u8g2\\csrc\\u8x8_byte.c"
   1:..\..\u8g2\csrc/u8x8_byte.c **** /*
   2:..\..\u8g2\csrc/u8x8_byte.c **** 
   3:..\..\u8g2\csrc/u8x8_byte.c ****   u8x8_byte.c 
   4:..\..\u8g2\csrc/u8x8_byte.c ****   
   5:..\..\u8g2\csrc/u8x8_byte.c ****   Universal 8bit Graphics Library (https://github.com/olikraus/u8g2/)
   6:..\..\u8g2\csrc/u8x8_byte.c **** 
   7:..\..\u8g2\csrc/u8x8_byte.c ****   Copyright (c) 2016, olikraus@gmail.com
   8:..\..\u8g2\csrc/u8x8_byte.c ****   All rights reserved.
   9:..\..\u8g2\csrc/u8x8_byte.c **** 
  10:..\..\u8g2\csrc/u8x8_byte.c ****   Redistribution and use in source and binary forms, with or without modification, 
  11:..\..\u8g2\csrc/u8x8_byte.c ****   are permitted provided that the following conditions are met:
  12:..\..\u8g2\csrc/u8x8_byte.c **** 
  13:..\..\u8g2\csrc/u8x8_byte.c ****   * Redistributions of source code must retain the above copyright notice, this list 
  14:..\..\u8g2\csrc/u8x8_byte.c ****     of conditions and the following disclaimer.
  15:..\..\u8g2\csrc/u8x8_byte.c ****     
  16:..\..\u8g2\csrc/u8x8_byte.c ****   * Redistributions in binary form must reproduce the above copyright notice, this 
  17:..\..\u8g2\csrc/u8x8_byte.c ****     list of conditions and the following disclaimer in the documentation and/or other 
  18:..\..\u8g2\csrc/u8x8_byte.c ****     materials provided with the distribution.
  19:..\..\u8g2\csrc/u8x8_byte.c **** 
  20:..\..\u8g2\csrc/u8x8_byte.c ****   THIS SOFTWARE IS PROVIDED BY THE COPYRIGHT HOLDERS AND 
  21:..\..\u8g2\csrc/u8x8_byte.c ****   CONTRIBUTORS "AS IS" AND ANY EXPRESS OR IMPLIED WARRANTIES, 
  22:..\..\u8g2\csrc/u8x8_byte.c ****   INCLUDING, BUT NOT LIMITED TO, THE IMPLIED WARRANTIES OF 
  23:..\..\u8g2\csrc/u8x8_byte.c ****   MERCHANTABILITY AND FITNESS FOR A PARTICULAR PURPOSE ARE 
  24:..\..\u8g2\csrc/u8x8_byte.c ****   DISCLAIMED. IN NO EVENT SHALL THE COPYRIGHT HOLDER OR 
  25:..\..\u8g2\csrc/u8x8_byte.c ****   CONTRIBUTORS BE LIABLE FOR ANY DIRECT, INDIRECT, INCIDENTAL, 
  26:..\..\u8g2\csrc/u8x8_byte.c ****   SPECIAL, EXEMPLARY, OR CONSEQUENTIAL DAMAGES (INCLUDING, BUT 
  27:..\..\u8g2\csrc/u8x8_byte.c ****   NOT LIMITED TO, PROCUREMENT OF SUBSTITUTE GOODS OR SERVICES; 
  28:..\..\u8g2\csrc/u8x8_byte.c ****   LOSS OF USE, DATA, OR PROFITS; OR BUSINESS INTERRUPTION) HOWEVER 
  29:..\..\u8g2\csrc/u8x8_byte.c ****   CAUSED AND ON ANY THEORY OF LIABILITY, WHETHER IN CONTRACT, 
  30:..\..\u8g2\csrc/u8x8_byte.c ****   STRICT LIABILITY, OR TORT (INCLUDING NEGLIGENCE OR OTHERWISE) 
  31:..\..\u8g2\csrc/u8x8_byte.c ****   ARISING IN ANY WAY OUT OF THE USE OF THIS SOFTWARE, EVEN IF 
ARM GAS  C:\Users\Greg\AppData\Local\Temp\cct7TZoA.s 			page 2


  32:..\..\u8g2\csrc/u8x8_byte.c ****   ADVISED OF THE POSSIBILITY OF SUCH DAMAGE.  
  33:..\..\u8g2\csrc/u8x8_byte.c ****   
  34:..\..\u8g2\csrc/u8x8_byte.c ****   
  35:..\..\u8g2\csrc/u8x8_byte.c **** */
  36:..\..\u8g2\csrc/u8x8_byte.c **** 
  37:..\..\u8g2\csrc/u8x8_byte.c **** #include "u8x8.h"
  38:..\..\u8g2\csrc/u8x8_byte.c **** 
  39:..\..\u8g2\csrc/u8x8_byte.c **** uint8_t u8x8_byte_SetDC(u8x8_t *u8x8, uint8_t dc)
  40:..\..\u8g2\csrc/u8x8_byte.c **** {
  41:..\..\u8g2\csrc/u8x8_byte.c ****   return u8x8->byte_cb(u8x8, U8X8_MSG_BYTE_SET_DC, dc, NULL);
  42:..\..\u8g2\csrc/u8x8_byte.c **** }
  43:..\..\u8g2\csrc/u8x8_byte.c **** 
  44:..\..\u8g2\csrc/u8x8_byte.c **** uint8_t u8x8_byte_SendBytes(u8x8_t *u8x8, uint8_t cnt, uint8_t *data)
  45:..\..\u8g2\csrc/u8x8_byte.c **** {
  46:..\..\u8g2\csrc/u8x8_byte.c ****   return u8x8->byte_cb(u8x8, U8X8_MSG_BYTE_SEND, cnt, (void *)data);
  47:..\..\u8g2\csrc/u8x8_byte.c **** }
  48:..\..\u8g2\csrc/u8x8_byte.c **** 
  49:..\..\u8g2\csrc/u8x8_byte.c **** uint8_t u8x8_byte_SendByte(u8x8_t *u8x8, uint8_t byte)
  50:..\..\u8g2\csrc/u8x8_byte.c **** {
  51:..\..\u8g2\csrc/u8x8_byte.c ****   return u8x8_byte_SendBytes(u8x8, 1, &byte);
  52:..\..\u8g2\csrc/u8x8_byte.c **** }
  53:..\..\u8g2\csrc/u8x8_byte.c **** 
  54:..\..\u8g2\csrc/u8x8_byte.c **** uint8_t u8x8_byte_StartTransfer(u8x8_t *u8x8)
  55:..\..\u8g2\csrc/u8x8_byte.c **** {
  56:..\..\u8g2\csrc/u8x8_byte.c ****   return u8x8->byte_cb(u8x8, U8X8_MSG_BYTE_START_TRANSFER, 0, NULL);
  57:..\..\u8g2\csrc/u8x8_byte.c **** }
  58:..\..\u8g2\csrc/u8x8_byte.c **** 
  59:..\..\u8g2\csrc/u8x8_byte.c **** uint8_t u8x8_byte_EndTransfer(u8x8_t *u8x8)
  60:..\..\u8g2\csrc/u8x8_byte.c **** {
  61:..\..\u8g2\csrc/u8x8_byte.c ****   return u8x8->byte_cb(u8x8, U8X8_MSG_BYTE_END_TRANSFER, 0, NULL);
  62:..\..\u8g2\csrc/u8x8_byte.c **** }
  63:..\..\u8g2\csrc/u8x8_byte.c **** 
  64:..\..\u8g2\csrc/u8x8_byte.c **** 
  65:..\..\u8g2\csrc/u8x8_byte.c **** /*
  66:..\..\u8g2\csrc/u8x8_byte.c ****   Uses:
  67:..\..\u8g2\csrc/u8x8_byte.c ****     u8x8->display_info->sda_setup_time_ns
  68:..\..\u8g2\csrc/u8x8_byte.c ****     u8x8->display_info->sck_pulse_width_ns
  69:..\..\u8g2\csrc/u8x8_byte.c ****     u8x8->display_info->spi_mode
  70:..\..\u8g2\csrc/u8x8_byte.c ****     u8x8->display_info->chip_disable_level
  71:..\..\u8g2\csrc/u8x8_byte.c ****     u8x8->display_info->chip_enable_level
  72:..\..\u8g2\csrc/u8x8_byte.c ****     u8x8->display_info->post_chip_enable_wait_ns
  73:..\..\u8g2\csrc/u8x8_byte.c ****     u8x8->display_info->pre_chip_disable_wait_ns
  74:..\..\u8g2\csrc/u8x8_byte.c ****   Calls to GPIO and DELAY:
  75:..\..\u8g2\csrc/u8x8_byte.c ****     U8X8_MSG_DELAY_NANO
  76:..\..\u8g2\csrc/u8x8_byte.c ****     U8X8_MSG_GPIO_DC
  77:..\..\u8g2\csrc/u8x8_byte.c ****     U8X8_MSG_GPIO_CS
  78:..\..\u8g2\csrc/u8x8_byte.c ****     U8X8_MSG_GPIO_CLOCK
  79:..\..\u8g2\csrc/u8x8_byte.c ****     U8X8_MSG_GPIO_DATA
  80:..\..\u8g2\csrc/u8x8_byte.c ****   Handles:
  81:..\..\u8g2\csrc/u8x8_byte.c ****     U8X8_MSG_BYTE_INIT
  82:..\..\u8g2\csrc/u8x8_byte.c ****     U8X8_MSG_BYTE_SEND
  83:..\..\u8g2\csrc/u8x8_byte.c ****     U8X8_MSG_BYTE_SET_DC
  84:..\..\u8g2\csrc/u8x8_byte.c ****     U8X8_MSG_BYTE_START_TRANSFER
  85:..\..\u8g2\csrc/u8x8_byte.c ****     U8X8_MSG_BYTE_END_TRANSFER
  86:..\..\u8g2\csrc/u8x8_byte.c **** */
  87:..\..\u8g2\csrc/u8x8_byte.c **** 
  88:..\..\u8g2\csrc/u8x8_byte.c **** uint8_t u8x8_byte_4wire_sw_spi(u8x8_t *u8x8, uint8_t msg, uint8_t arg_int, void *arg_ptr)
ARM GAS  C:\Users\Greg\AppData\Local\Temp\cct7TZoA.s 			page 3


  89:..\..\u8g2\csrc/u8x8_byte.c **** {
  90:..\..\u8g2\csrc/u8x8_byte.c ****   uint8_t i, b;
  91:..\..\u8g2\csrc/u8x8_byte.c ****   uint8_t *data;
  92:..\..\u8g2\csrc/u8x8_byte.c ****   uint8_t takeover_edge = u8x8_GetSPIClockPhase(u8x8);
  93:..\..\u8g2\csrc/u8x8_byte.c ****   uint8_t not_takeover_edge = 1 - takeover_edge;
  94:..\..\u8g2\csrc/u8x8_byte.c ****  
  95:..\..\u8g2\csrc/u8x8_byte.c ****   switch(msg)
  96:..\..\u8g2\csrc/u8x8_byte.c ****   {
  97:..\..\u8g2\csrc/u8x8_byte.c ****     case U8X8_MSG_BYTE_SEND:
  98:..\..\u8g2\csrc/u8x8_byte.c ****       data = (uint8_t *)arg_ptr;
  99:..\..\u8g2\csrc/u8x8_byte.c ****       while( arg_int > 0 )
 100:..\..\u8g2\csrc/u8x8_byte.c ****       {
 101:..\..\u8g2\csrc/u8x8_byte.c **** 	b = *data;
 102:..\..\u8g2\csrc/u8x8_byte.c **** 	data++;
 103:..\..\u8g2\csrc/u8x8_byte.c **** 	arg_int--;
 104:..\..\u8g2\csrc/u8x8_byte.c **** 	for( i = 0; i < 8; i++ )
 105:..\..\u8g2\csrc/u8x8_byte.c **** 	{
 106:..\..\u8g2\csrc/u8x8_byte.c **** 	  if ( b & 128 )
 107:..\..\u8g2\csrc/u8x8_byte.c **** 	    u8x8_gpio_SetSPIData(u8x8, 1);
 108:..\..\u8g2\csrc/u8x8_byte.c **** 	  else
 109:..\..\u8g2\csrc/u8x8_byte.c **** 	    u8x8_gpio_SetSPIData(u8x8, 0);
 110:..\..\u8g2\csrc/u8x8_byte.c **** 	  b <<= 1;
 111:..\..\u8g2\csrc/u8x8_byte.c **** 	  
 112:..\..\u8g2\csrc/u8x8_byte.c **** 	  u8x8_gpio_SetSPIClock(u8x8, not_takeover_edge);
 113:..\..\u8g2\csrc/u8x8_byte.c **** 	  u8x8_gpio_Delay(u8x8, U8X8_MSG_DELAY_NANO, u8x8->display_info->sda_setup_time_ns);
 114:..\..\u8g2\csrc/u8x8_byte.c **** 	  u8x8_gpio_SetSPIClock(u8x8, takeover_edge);
 115:..\..\u8g2\csrc/u8x8_byte.c **** 	  u8x8_gpio_Delay(u8x8, U8X8_MSG_DELAY_NANO, u8x8->display_info->sck_pulse_width_ns);
 116:..\..\u8g2\csrc/u8x8_byte.c **** 	}    
 117:..\..\u8g2\csrc/u8x8_byte.c ****       }
 118:..\..\u8g2\csrc/u8x8_byte.c ****       break;
 119:..\..\u8g2\csrc/u8x8_byte.c ****       
 120:..\..\u8g2\csrc/u8x8_byte.c ****     case U8X8_MSG_BYTE_INIT:
 121:..\..\u8g2\csrc/u8x8_byte.c ****       /* disable chipselect */
 122:..\..\u8g2\csrc/u8x8_byte.c ****       u8x8_gpio_SetCS(u8x8, u8x8->display_info->chip_disable_level);
 123:..\..\u8g2\csrc/u8x8_byte.c ****       /* no wait required here */
 124:..\..\u8g2\csrc/u8x8_byte.c ****       
 125:..\..\u8g2\csrc/u8x8_byte.c ****       /* for SPI: setup correct level of the clock signal */
 126:..\..\u8g2\csrc/u8x8_byte.c ****       u8x8_gpio_SetSPIClock(u8x8, u8x8_GetSPIClockPhase(u8x8));
 127:..\..\u8g2\csrc/u8x8_byte.c ****       break;
 128:..\..\u8g2\csrc/u8x8_byte.c ****     case U8X8_MSG_BYTE_SET_DC:
 129:..\..\u8g2\csrc/u8x8_byte.c ****       u8x8_gpio_SetDC(u8x8, arg_int);
 130:..\..\u8g2\csrc/u8x8_byte.c ****       break;
 131:..\..\u8g2\csrc/u8x8_byte.c ****     case U8X8_MSG_BYTE_START_TRANSFER:
 132:..\..\u8g2\csrc/u8x8_byte.c ****       u8x8_gpio_SetCS(u8x8, u8x8->display_info->chip_enable_level);  
 133:..\..\u8g2\csrc/u8x8_byte.c ****       u8x8->gpio_and_delay_cb(u8x8, U8X8_MSG_DELAY_NANO, u8x8->display_info->post_chip_enable_wait_
 134:..\..\u8g2\csrc/u8x8_byte.c ****       break;
 135:..\..\u8g2\csrc/u8x8_byte.c ****     case U8X8_MSG_BYTE_END_TRANSFER:
 136:..\..\u8g2\csrc/u8x8_byte.c ****       u8x8->gpio_and_delay_cb(u8x8, U8X8_MSG_DELAY_NANO, u8x8->display_info->pre_chip_disable_wait_
 137:..\..\u8g2\csrc/u8x8_byte.c ****       u8x8_gpio_SetCS(u8x8, u8x8->display_info->chip_disable_level);
 138:..\..\u8g2\csrc/u8x8_byte.c ****       break;
 139:..\..\u8g2\csrc/u8x8_byte.c ****     default:
 140:..\..\u8g2\csrc/u8x8_byte.c ****       return 0;
 141:..\..\u8g2\csrc/u8x8_byte.c ****   }
 142:..\..\u8g2\csrc/u8x8_byte.c ****   return 1;
 143:..\..\u8g2\csrc/u8x8_byte.c **** }
 144:..\..\u8g2\csrc/u8x8_byte.c **** 
 145:..\..\u8g2\csrc/u8x8_byte.c **** /*=========================================*/
ARM GAS  C:\Users\Greg\AppData\Local\Temp\cct7TZoA.s 			page 4


 146:..\..\u8g2\csrc/u8x8_byte.c **** 
 147:..\..\u8g2\csrc/u8x8_byte.c **** uint8_t u8x8_byte_8bit_6800mode(u8x8_t *u8x8, uint8_t msg, uint8_t arg_int, void *arg_ptr)
 148:..\..\u8g2\csrc/u8x8_byte.c **** {
 149:..\..\u8g2\csrc/u8x8_byte.c ****   uint8_t i, b;
 150:..\..\u8g2\csrc/u8x8_byte.c ****   uint8_t *data;
 151:..\..\u8g2\csrc/u8x8_byte.c ****  
 152:..\..\u8g2\csrc/u8x8_byte.c ****   switch(msg)
 153:..\..\u8g2\csrc/u8x8_byte.c ****   {
 154:..\..\u8g2\csrc/u8x8_byte.c ****     case U8X8_MSG_BYTE_SEND:
 155:..\..\u8g2\csrc/u8x8_byte.c ****       data = (uint8_t *)arg_ptr;
 156:..\..\u8g2\csrc/u8x8_byte.c ****       while( arg_int > 0 )
 157:..\..\u8g2\csrc/u8x8_byte.c ****       {
 158:..\..\u8g2\csrc/u8x8_byte.c **** 	b = *data;
 159:..\..\u8g2\csrc/u8x8_byte.c **** 	data++;
 160:..\..\u8g2\csrc/u8x8_byte.c **** 	arg_int--;
 161:..\..\u8g2\csrc/u8x8_byte.c **** 	for( i = U8X8_MSG_GPIO_D0; i <= U8X8_MSG_GPIO_D7; i++ )
 162:..\..\u8g2\csrc/u8x8_byte.c **** 	{
 163:..\..\u8g2\csrc/u8x8_byte.c **** 	  u8x8_gpio_call(u8x8, i, b&1);
 164:..\..\u8g2\csrc/u8x8_byte.c **** 	  b >>= 1;
 165:..\..\u8g2\csrc/u8x8_byte.c **** 	}    
 166:..\..\u8g2\csrc/u8x8_byte.c **** 	
 167:..\..\u8g2\csrc/u8x8_byte.c **** 	u8x8_gpio_Delay(u8x8, U8X8_MSG_DELAY_NANO, u8x8->display_info->data_setup_time_ns);
 168:..\..\u8g2\csrc/u8x8_byte.c **** 	u8x8_gpio_call(u8x8, U8X8_MSG_GPIO_E, 1);
 169:..\..\u8g2\csrc/u8x8_byte.c **** 	u8x8_gpio_Delay(u8x8, U8X8_MSG_DELAY_NANO, u8x8->display_info->write_pulse_width_ns);
 170:..\..\u8g2\csrc/u8x8_byte.c **** 	u8x8_gpio_call(u8x8, U8X8_MSG_GPIO_E, 0);
 171:..\..\u8g2\csrc/u8x8_byte.c ****       }
 172:..\..\u8g2\csrc/u8x8_byte.c ****       break;
 173:..\..\u8g2\csrc/u8x8_byte.c ****       
 174:..\..\u8g2\csrc/u8x8_byte.c ****     case U8X8_MSG_BYTE_INIT:
 175:..\..\u8g2\csrc/u8x8_byte.c ****       /* disable chipselect */
 176:..\..\u8g2\csrc/u8x8_byte.c ****       u8x8_gpio_SetCS(u8x8, u8x8->display_info->chip_disable_level);    
 177:..\..\u8g2\csrc/u8x8_byte.c ****       /* ensure that the enable signal is high */
 178:..\..\u8g2\csrc/u8x8_byte.c ****       u8x8_gpio_call(u8x8, U8X8_MSG_GPIO_E, 0);
 179:..\..\u8g2\csrc/u8x8_byte.c ****       break;
 180:..\..\u8g2\csrc/u8x8_byte.c ****     case U8X8_MSG_BYTE_SET_DC:
 181:..\..\u8g2\csrc/u8x8_byte.c ****       u8x8_gpio_SetDC(u8x8, arg_int);
 182:..\..\u8g2\csrc/u8x8_byte.c ****       break;
 183:..\..\u8g2\csrc/u8x8_byte.c ****     case U8X8_MSG_BYTE_START_TRANSFER:
 184:..\..\u8g2\csrc/u8x8_byte.c ****       u8x8_gpio_SetCS(u8x8, u8x8->display_info->chip_enable_level);  
 185:..\..\u8g2\csrc/u8x8_byte.c ****       u8x8->gpio_and_delay_cb(u8x8, U8X8_MSG_DELAY_NANO, u8x8->display_info->post_chip_enable_wait_
 186:..\..\u8g2\csrc/u8x8_byte.c ****       break;
 187:..\..\u8g2\csrc/u8x8_byte.c ****     case U8X8_MSG_BYTE_END_TRANSFER:
 188:..\..\u8g2\csrc/u8x8_byte.c ****       u8x8->gpio_and_delay_cb(u8x8, U8X8_MSG_DELAY_NANO, u8x8->display_info->pre_chip_disable_wait_
 189:..\..\u8g2\csrc/u8x8_byte.c ****       u8x8_gpio_SetCS(u8x8, u8x8->display_info->chip_disable_level);
 190:..\..\u8g2\csrc/u8x8_byte.c ****       break;
 191:..\..\u8g2\csrc/u8x8_byte.c ****     default:
 192:..\..\u8g2\csrc/u8x8_byte.c ****       return 0;
 193:..\..\u8g2\csrc/u8x8_byte.c ****   }
 194:..\..\u8g2\csrc/u8x8_byte.c ****   return 1;
 195:..\..\u8g2\csrc/u8x8_byte.c **** }
 196:..\..\u8g2\csrc/u8x8_byte.c **** 
 197:..\..\u8g2\csrc/u8x8_byte.c **** uint8_t u8x8_byte_8bit_8080mode(u8x8_t *u8x8, uint8_t msg, uint8_t arg_int, void *arg_ptr)
 198:..\..\u8g2\csrc/u8x8_byte.c **** {
 199:..\..\u8g2\csrc/u8x8_byte.c ****   uint8_t i, b;
 200:..\..\u8g2\csrc/u8x8_byte.c ****   uint8_t *data;
 201:..\..\u8g2\csrc/u8x8_byte.c ****  
 202:..\..\u8g2\csrc/u8x8_byte.c ****   switch(msg)
ARM GAS  C:\Users\Greg\AppData\Local\Temp\cct7TZoA.s 			page 5


 203:..\..\u8g2\csrc/u8x8_byte.c ****   {
 204:..\..\u8g2\csrc/u8x8_byte.c ****     case U8X8_MSG_BYTE_SEND:
 205:..\..\u8g2\csrc/u8x8_byte.c ****       data = (uint8_t *)arg_ptr;
 206:..\..\u8g2\csrc/u8x8_byte.c ****       while( arg_int > 0 )
 207:..\..\u8g2\csrc/u8x8_byte.c ****       {
 208:..\..\u8g2\csrc/u8x8_byte.c **** 	b = *data;
 209:..\..\u8g2\csrc/u8x8_byte.c **** 	data++;
 210:..\..\u8g2\csrc/u8x8_byte.c **** 	arg_int--;
 211:..\..\u8g2\csrc/u8x8_byte.c **** 	for( i = U8X8_MSG_GPIO_D0; i <= U8X8_MSG_GPIO_D7; i++ )
 212:..\..\u8g2\csrc/u8x8_byte.c **** 	{
 213:..\..\u8g2\csrc/u8x8_byte.c **** 	  u8x8_gpio_call(u8x8, i, b&1);
 214:..\..\u8g2\csrc/u8x8_byte.c **** 	  b >>= 1;
 215:..\..\u8g2\csrc/u8x8_byte.c **** 	}    
 216:..\..\u8g2\csrc/u8x8_byte.c **** 	
 217:..\..\u8g2\csrc/u8x8_byte.c **** 	u8x8_gpio_Delay(u8x8, U8X8_MSG_DELAY_NANO, u8x8->display_info->data_setup_time_ns);
 218:..\..\u8g2\csrc/u8x8_byte.c **** 	u8x8_gpio_call(u8x8, U8X8_MSG_GPIO_E, 0);
 219:..\..\u8g2\csrc/u8x8_byte.c **** 	u8x8_gpio_Delay(u8x8, U8X8_MSG_DELAY_NANO, u8x8->display_info->write_pulse_width_ns);
 220:..\..\u8g2\csrc/u8x8_byte.c **** 	u8x8_gpio_call(u8x8, U8X8_MSG_GPIO_E, 1);
 221:..\..\u8g2\csrc/u8x8_byte.c ****       }
 222:..\..\u8g2\csrc/u8x8_byte.c ****       break;
 223:..\..\u8g2\csrc/u8x8_byte.c ****       
 224:..\..\u8g2\csrc/u8x8_byte.c ****     case U8X8_MSG_BYTE_INIT:
 225:..\..\u8g2\csrc/u8x8_byte.c ****       /* disable chipselect */
 226:..\..\u8g2\csrc/u8x8_byte.c ****       u8x8_gpio_SetCS(u8x8, u8x8->display_info->chip_disable_level);    
 227:..\..\u8g2\csrc/u8x8_byte.c ****       /* ensure that the enable signal is high */
 228:..\..\u8g2\csrc/u8x8_byte.c ****       u8x8_gpio_call(u8x8, U8X8_MSG_GPIO_E, 1);
 229:..\..\u8g2\csrc/u8x8_byte.c ****       break;
 230:..\..\u8g2\csrc/u8x8_byte.c ****     case U8X8_MSG_BYTE_SET_DC:
 231:..\..\u8g2\csrc/u8x8_byte.c ****       u8x8_gpio_SetDC(u8x8, arg_int);
 232:..\..\u8g2\csrc/u8x8_byte.c ****       break;
 233:..\..\u8g2\csrc/u8x8_byte.c ****     case U8X8_MSG_BYTE_START_TRANSFER:
 234:..\..\u8g2\csrc/u8x8_byte.c ****       u8x8_gpio_SetCS(u8x8, u8x8->display_info->chip_enable_level);  
 235:..\..\u8g2\csrc/u8x8_byte.c ****       u8x8->gpio_and_delay_cb(u8x8, U8X8_MSG_DELAY_NANO, u8x8->display_info->post_chip_enable_wait_
 236:..\..\u8g2\csrc/u8x8_byte.c ****       break;
 237:..\..\u8g2\csrc/u8x8_byte.c ****     case U8X8_MSG_BYTE_END_TRANSFER:
 238:..\..\u8g2\csrc/u8x8_byte.c ****       u8x8->gpio_and_delay_cb(u8x8, U8X8_MSG_DELAY_NANO, u8x8->display_info->pre_chip_disable_wait_
 239:..\..\u8g2\csrc/u8x8_byte.c ****       u8x8_gpio_SetCS(u8x8, u8x8->display_info->chip_disable_level);
 240:..\..\u8g2\csrc/u8x8_byte.c ****       break;
 241:..\..\u8g2\csrc/u8x8_byte.c ****     default:
 242:..\..\u8g2\csrc/u8x8_byte.c ****       return 0;
 243:..\..\u8g2\csrc/u8x8_byte.c ****   }
 244:..\..\u8g2\csrc/u8x8_byte.c ****   return 1;
 245:..\..\u8g2\csrc/u8x8_byte.c **** }
 246:..\..\u8g2\csrc/u8x8_byte.c **** 
 247:..\..\u8g2\csrc/u8x8_byte.c **** /*=========================================*/
 248:..\..\u8g2\csrc/u8x8_byte.c **** 
 249:..\..\u8g2\csrc/u8x8_byte.c **** uint8_t u8x8_byte_3wire_sw_spi(u8x8_t *u8x8, uint8_t msg, uint8_t arg_int, void *arg_ptr)
 250:..\..\u8g2\csrc/u8x8_byte.c **** {
 251:..\..\u8g2\csrc/u8x8_byte.c ****   uint8_t i;
 252:..\..\u8g2\csrc/u8x8_byte.c ****   uint8_t *data;
 253:..\..\u8g2\csrc/u8x8_byte.c ****   uint8_t takeover_edge = u8x8_GetSPIClockPhase(u8x8);
 254:..\..\u8g2\csrc/u8x8_byte.c ****   uint8_t not_takeover_edge = 1 - takeover_edge;
 255:..\..\u8g2\csrc/u8x8_byte.c ****   uint16_t b;
 256:..\..\u8g2\csrc/u8x8_byte.c ****   static uint8_t last_dc;
 257:..\..\u8g2\csrc/u8x8_byte.c ****  
 258:..\..\u8g2\csrc/u8x8_byte.c ****   switch(msg)
 259:..\..\u8g2\csrc/u8x8_byte.c ****   {
ARM GAS  C:\Users\Greg\AppData\Local\Temp\cct7TZoA.s 			page 6


 260:..\..\u8g2\csrc/u8x8_byte.c ****     case U8X8_MSG_BYTE_SEND:
 261:..\..\u8g2\csrc/u8x8_byte.c ****       data = (uint8_t *)arg_ptr;
 262:..\..\u8g2\csrc/u8x8_byte.c ****       while( arg_int > 0 )
 263:..\..\u8g2\csrc/u8x8_byte.c ****       {
 264:..\..\u8g2\csrc/u8x8_byte.c **** 	b = *data;
 265:..\..\u8g2\csrc/u8x8_byte.c **** 	if ( last_dc != 0 )
 266:..\..\u8g2\csrc/u8x8_byte.c **** 	  b |= 256;
 267:..\..\u8g2\csrc/u8x8_byte.c **** 	data++;
 268:..\..\u8g2\csrc/u8x8_byte.c **** 	arg_int--;
 269:..\..\u8g2\csrc/u8x8_byte.c **** 	for( i = 0; i < 9; i++ )
 270:..\..\u8g2\csrc/u8x8_byte.c **** 	{
 271:..\..\u8g2\csrc/u8x8_byte.c **** 	  if ( b & 256 )
 272:..\..\u8g2\csrc/u8x8_byte.c **** 	    u8x8_gpio_SetSPIData(u8x8, 1);
 273:..\..\u8g2\csrc/u8x8_byte.c **** 	  else
 274:..\..\u8g2\csrc/u8x8_byte.c **** 	    u8x8_gpio_SetSPIData(u8x8, 0);
 275:..\..\u8g2\csrc/u8x8_byte.c **** 	  b <<= 1;
 276:..\..\u8g2\csrc/u8x8_byte.c **** 	  
 277:..\..\u8g2\csrc/u8x8_byte.c **** 	  u8x8_gpio_SetSPIClock(u8x8, not_takeover_edge);
 278:..\..\u8g2\csrc/u8x8_byte.c **** 	  u8x8_gpio_Delay(u8x8, U8X8_MSG_DELAY_NANO, u8x8->display_info->sda_setup_time_ns);
 279:..\..\u8g2\csrc/u8x8_byte.c **** 	  u8x8_gpio_SetSPIClock(u8x8, takeover_edge);
 280:..\..\u8g2\csrc/u8x8_byte.c **** 	  u8x8_gpio_Delay(u8x8, U8X8_MSG_DELAY_NANO, u8x8->display_info->sck_pulse_width_ns);
 281:..\..\u8g2\csrc/u8x8_byte.c **** 	}    
 282:..\..\u8g2\csrc/u8x8_byte.c ****       }
 283:..\..\u8g2\csrc/u8x8_byte.c ****       break;
 284:..\..\u8g2\csrc/u8x8_byte.c ****       
 285:..\..\u8g2\csrc/u8x8_byte.c ****     case U8X8_MSG_BYTE_INIT:
 286:..\..\u8g2\csrc/u8x8_byte.c ****       /* disable chipselect */
 287:..\..\u8g2\csrc/u8x8_byte.c ****       u8x8_gpio_SetCS(u8x8, u8x8->display_info->chip_disable_level);
 288:..\..\u8g2\csrc/u8x8_byte.c ****       /* no wait required here */
 289:..\..\u8g2\csrc/u8x8_byte.c ****       
 290:..\..\u8g2\csrc/u8x8_byte.c ****       /* for SPI: setup correct level of the clock signal */
 291:..\..\u8g2\csrc/u8x8_byte.c ****       u8x8_gpio_SetSPIClock(u8x8, u8x8_GetSPIClockPhase(u8x8));
 292:..\..\u8g2\csrc/u8x8_byte.c ****       break;
 293:..\..\u8g2\csrc/u8x8_byte.c ****     case U8X8_MSG_BYTE_SET_DC:
 294:..\..\u8g2\csrc/u8x8_byte.c ****       last_dc = arg_int;
 295:..\..\u8g2\csrc/u8x8_byte.c ****       break;
 296:..\..\u8g2\csrc/u8x8_byte.c ****     case U8X8_MSG_BYTE_START_TRANSFER:
 297:..\..\u8g2\csrc/u8x8_byte.c ****       u8x8_gpio_SetCS(u8x8, u8x8->display_info->chip_enable_level);  
 298:..\..\u8g2\csrc/u8x8_byte.c ****       u8x8->gpio_and_delay_cb(u8x8, U8X8_MSG_DELAY_NANO, u8x8->display_info->post_chip_enable_wait_
 299:..\..\u8g2\csrc/u8x8_byte.c ****       break;
 300:..\..\u8g2\csrc/u8x8_byte.c ****     case U8X8_MSG_BYTE_END_TRANSFER:
 301:..\..\u8g2\csrc/u8x8_byte.c ****       u8x8->gpio_and_delay_cb(u8x8, U8X8_MSG_DELAY_NANO, u8x8->display_info->pre_chip_disable_wait_
 302:..\..\u8g2\csrc/u8x8_byte.c ****       u8x8_gpio_SetCS(u8x8, u8x8->display_info->chip_disable_level);
 303:..\..\u8g2\csrc/u8x8_byte.c ****       break;
 304:..\..\u8g2\csrc/u8x8_byte.c ****     default:
 305:..\..\u8g2\csrc/u8x8_byte.c ****       return 0;
 306:..\..\u8g2\csrc/u8x8_byte.c ****   }
 307:..\..\u8g2\csrc/u8x8_byte.c ****   return 1;
 308:..\..\u8g2\csrc/u8x8_byte.c **** }
 309:..\..\u8g2\csrc/u8x8_byte.c **** 
 310:..\..\u8g2\csrc/u8x8_byte.c **** /*=========================================*/
 311:..\..\u8g2\csrc/u8x8_byte.c **** 
 312:..\..\u8g2\csrc/u8x8_byte.c **** void u8x8_byte_set_ks0108_cs(u8x8_t *u8x8, uint8_t arg)
 313:..\..\u8g2\csrc/u8x8_byte.c **** {
 314:..\..\u8g2\csrc/u8x8_byte.c ****   u8x8_gpio_SetCS(u8x8, arg&1);
 315:..\..\u8g2\csrc/u8x8_byte.c ****   arg = arg >> 1;
 316:..\..\u8g2\csrc/u8x8_byte.c ****   u8x8_gpio_call(u8x8, U8X8_MSG_GPIO_CS1, arg&1);
ARM GAS  C:\Users\Greg\AppData\Local\Temp\cct7TZoA.s 			page 7


 317:..\..\u8g2\csrc/u8x8_byte.c ****   arg = arg >> 2;
 318:..\..\u8g2\csrc/u8x8_byte.c ****   u8x8_gpio_call(u8x8, U8X8_MSG_GPIO_CS2, arg&1);
 319:..\..\u8g2\csrc/u8x8_byte.c **** }
 320:..\..\u8g2\csrc/u8x8_byte.c **** 
 321:..\..\u8g2\csrc/u8x8_byte.c **** /* 6800 mode */
 322:..\..\u8g2\csrc/u8x8_byte.c **** uint8_t u8x8_byte_ks0108(u8x8_t *u8x8, uint8_t msg, uint8_t arg_int, void *arg_ptr)
 323:..\..\u8g2\csrc/u8x8_byte.c **** {
 324:..\..\u8g2\csrc/u8x8_byte.c ****   uint8_t i, b;
 325:..\..\u8g2\csrc/u8x8_byte.c ****   uint8_t *data;
 326:..\..\u8g2\csrc/u8x8_byte.c ****  
 327:..\..\u8g2\csrc/u8x8_byte.c ****   switch(msg)
 328:..\..\u8g2\csrc/u8x8_byte.c ****   {
 329:..\..\u8g2\csrc/u8x8_byte.c ****     case U8X8_MSG_BYTE_SEND:
 330:..\..\u8g2\csrc/u8x8_byte.c ****       data = (uint8_t *)arg_ptr;
 331:..\..\u8g2\csrc/u8x8_byte.c ****       while( arg_int > 0 )
 332:..\..\u8g2\csrc/u8x8_byte.c ****       {
 333:..\..\u8g2\csrc/u8x8_byte.c **** 	b = *data;
 334:..\..\u8g2\csrc/u8x8_byte.c **** 	data++;
 335:..\..\u8g2\csrc/u8x8_byte.c **** 	arg_int--;
 336:..\..\u8g2\csrc/u8x8_byte.c **** 	for( i = U8X8_MSG_GPIO_D0; i <= U8X8_MSG_GPIO_D7; i++ )
 337:..\..\u8g2\csrc/u8x8_byte.c **** 	{
 338:..\..\u8g2\csrc/u8x8_byte.c **** 	  u8x8_gpio_call(u8x8, i, b&1);
 339:..\..\u8g2\csrc/u8x8_byte.c **** 	  b >>= 1;
 340:..\..\u8g2\csrc/u8x8_byte.c **** 	}    
 341:..\..\u8g2\csrc/u8x8_byte.c **** 	
 342:..\..\u8g2\csrc/u8x8_byte.c **** 	u8x8_gpio_Delay(u8x8, U8X8_MSG_DELAY_NANO, u8x8->display_info->data_setup_time_ns);
 343:..\..\u8g2\csrc/u8x8_byte.c **** 	u8x8_gpio_call(u8x8, U8X8_MSG_GPIO_E, 1);
 344:..\..\u8g2\csrc/u8x8_byte.c **** 	u8x8_gpio_Delay(u8x8, U8X8_MSG_DELAY_NANO, u8x8->display_info->write_pulse_width_ns);
 345:..\..\u8g2\csrc/u8x8_byte.c **** 	u8x8_gpio_call(u8x8, U8X8_MSG_GPIO_E, 0);
 346:..\..\u8g2\csrc/u8x8_byte.c ****       }
 347:..\..\u8g2\csrc/u8x8_byte.c ****       break;
 348:..\..\u8g2\csrc/u8x8_byte.c ****       
 349:..\..\u8g2\csrc/u8x8_byte.c ****     case U8X8_MSG_BYTE_INIT:
 350:..\..\u8g2\csrc/u8x8_byte.c ****       /* disable chipselect */
 351:..\..\u8g2\csrc/u8x8_byte.c ****       u8x8_gpio_SetCS(u8x8, u8x8->display_info->chip_disable_level);    
 352:..\..\u8g2\csrc/u8x8_byte.c ****       /* ensure that the enable signal is low */
 353:..\..\u8g2\csrc/u8x8_byte.c ****       u8x8_gpio_call(u8x8, U8X8_MSG_GPIO_E, 0);
 354:..\..\u8g2\csrc/u8x8_byte.c ****       break;
 355:..\..\u8g2\csrc/u8x8_byte.c ****     case U8X8_MSG_BYTE_SET_DC:
 356:..\..\u8g2\csrc/u8x8_byte.c ****       u8x8_gpio_SetDC(u8x8, arg_int);
 357:..\..\u8g2\csrc/u8x8_byte.c ****       break;
 358:..\..\u8g2\csrc/u8x8_byte.c ****     case U8X8_MSG_BYTE_START_TRANSFER:
 359:..\..\u8g2\csrc/u8x8_byte.c ****       /* expects 3 bits in arg_int for the chip select lines */ 
 360:..\..\u8g2\csrc/u8x8_byte.c ****       u8x8_byte_set_ks0108_cs(u8x8, arg_int);
 361:..\..\u8g2\csrc/u8x8_byte.c ****       u8x8->gpio_and_delay_cb(u8x8, U8X8_MSG_DELAY_NANO, u8x8->display_info->post_chip_enable_wait_
 362:..\..\u8g2\csrc/u8x8_byte.c ****       break;
 363:..\..\u8g2\csrc/u8x8_byte.c ****     case U8X8_MSG_BYTE_END_TRANSFER:
 364:..\..\u8g2\csrc/u8x8_byte.c ****       u8x8->gpio_and_delay_cb(u8x8, U8X8_MSG_DELAY_NANO, u8x8->display_info->pre_chip_disable_wait_
 365:..\..\u8g2\csrc/u8x8_byte.c ****       u8x8_byte_set_ks0108_cs(u8x8, arg_int);
 366:..\..\u8g2\csrc/u8x8_byte.c ****       break;
 367:..\..\u8g2\csrc/u8x8_byte.c ****     default:
 368:..\..\u8g2\csrc/u8x8_byte.c ****       return 0;
 369:..\..\u8g2\csrc/u8x8_byte.c ****   }
 370:..\..\u8g2\csrc/u8x8_byte.c ****   return 1;
 371:..\..\u8g2\csrc/u8x8_byte.c **** }
 372:..\..\u8g2\csrc/u8x8_byte.c **** 
 373:..\..\u8g2\csrc/u8x8_byte.c **** 
ARM GAS  C:\Users\Greg\AppData\Local\Temp\cct7TZoA.s 			page 8


 374:..\..\u8g2\csrc/u8x8_byte.c **** /*=========================================*/
 375:..\..\u8g2\csrc/u8x8_byte.c **** 
 376:..\..\u8g2\csrc/u8x8_byte.c **** 
 377:..\..\u8g2\csrc/u8x8_byte.c **** /*
 378:..\..\u8g2\csrc/u8x8_byte.c ****   software i2c,
 379:..\..\u8g2\csrc/u8x8_byte.c ****   ignores ACK response (which is anyway not provided by some displays)
 380:..\..\u8g2\csrc/u8x8_byte.c ****   also does not allow reading from the device
 381:..\..\u8g2\csrc/u8x8_byte.c **** */
 382:..\..\u8g2\csrc/u8x8_byte.c **** static void i2c_delay(u8x8_t *u8x8) U8X8_NOINLINE;
 383:..\..\u8g2\csrc/u8x8_byte.c **** static void i2c_delay(u8x8_t *u8x8)
 384:..\..\u8g2\csrc/u8x8_byte.c **** {
  27              		.loc 1 384 0
  28              		.cfi_startproc
  29              		@ args = 0, pretend = 0, frame = 0
  30              		@ frame_needed = 0, uses_anonymous_args = 0
  31              	.LVL0:
  32 0000 10B5     		push	{r4, lr}
  33              		.cfi_def_cfa_offset 8
  34              		.cfi_offset 4, -8
  35              		.cfi_offset 14, -4
 385:..\..\u8g2\csrc/u8x8_byte.c ****   //u8x8_gpio_Delay(u8x8, U8X8_MSG_DELAY_10MICRO, u8x8->display_info->i2c_bus_clock_100kHz);
 386:..\..\u8g2\csrc/u8x8_byte.c ****   u8x8_gpio_Delay(u8x8, U8X8_MSG_DELAY_I2C, u8x8->display_info->i2c_bus_clock_100kHz);
  36              		.loc 1 386 0
  37 0002 0368     		ldr	r3, [r0]
  38 0004 2D21     		movs	r1, #45
  39 0006 5A7B     		ldrb	r2, [r3, #13]
  40 0008 FFF7FEFF 		bl	u8x8_gpio_call
  41              	.LVL1:
 387:..\..\u8g2\csrc/u8x8_byte.c **** }
  42              		.loc 1 387 0
  43              		@ sp needed
  44 000c 10BD     		pop	{r4, pc}
  45              		.cfi_endproc
  46              	.LFE11:
  47              		.size	i2c_delay, .-i2c_delay
  48              		.section	.text.i2c_read_scl_and_delay,"ax",%progbits
  49              		.align	1
  50              		.code	16
  51              		.thumb_func
  52              		.type	i2c_read_scl_and_delay, %function
  53              	i2c_read_scl_and_delay:
  54              	.LFB13:
 388:..\..\u8g2\csrc/u8x8_byte.c **** 
 389:..\..\u8g2\csrc/u8x8_byte.c **** static void i2c_init(u8x8_t *u8x8)
 390:..\..\u8g2\csrc/u8x8_byte.c **** {
 391:..\..\u8g2\csrc/u8x8_byte.c ****   u8x8_gpio_SetI2CClock(u8x8, 1);
 392:..\..\u8g2\csrc/u8x8_byte.c ****   u8x8_gpio_SetI2CData(u8x8, 1);
 393:..\..\u8g2\csrc/u8x8_byte.c ****   
 394:..\..\u8g2\csrc/u8x8_byte.c ****   i2c_delay(u8x8);
 395:..\..\u8g2\csrc/u8x8_byte.c **** }
 396:..\..\u8g2\csrc/u8x8_byte.c **** 
 397:..\..\u8g2\csrc/u8x8_byte.c **** /* actually, the scl line is not observed, so this procedure does not return a value */
 398:..\..\u8g2\csrc/u8x8_byte.c **** 
 399:..\..\u8g2\csrc/u8x8_byte.c **** static void i2c_read_scl_and_delay(u8x8_t *u8x8)
 400:..\..\u8g2\csrc/u8x8_byte.c **** {
  55              		.loc 1 400 0
  56              		.cfi_startproc
ARM GAS  C:\Users\Greg\AppData\Local\Temp\cct7TZoA.s 			page 9


  57              		@ args = 0, pretend = 0, frame = 0
  58              		@ frame_needed = 0, uses_anonymous_args = 0
  59              	.LVL2:
  60 0000 10B5     		push	{r4, lr}
  61              		.cfi_def_cfa_offset 8
  62              		.cfi_offset 4, -8
  63              		.cfi_offset 14, -4
  64              		.loc 1 400 0
  65 0002 0400     		movs	r4, r0
 401:..\..\u8g2\csrc/u8x8_byte.c ****   /* set as input (line will be high) */
 402:..\..\u8g2\csrc/u8x8_byte.c ****   u8x8_gpio_SetI2CClock(u8x8, 1);
  66              		.loc 1 402 0
  67 0004 0122     		movs	r2, #1
  68 0006 4C21     		movs	r1, #76
  69 0008 FFF7FEFF 		bl	u8x8_gpio_call
  70              	.LVL3:
 403:..\..\u8g2\csrc/u8x8_byte.c **** 
 404:..\..\u8g2\csrc/u8x8_byte.c ****   i2c_delay(u8x8);
  71              		.loc 1 404 0
  72 000c 2000     		movs	r0, r4
  73 000e FFF7FEFF 		bl	i2c_delay
  74              	.LVL4:
 405:..\..\u8g2\csrc/u8x8_byte.c **** }
  75              		.loc 1 405 0
  76              		@ sp needed
  77              	.LVL5:
  78 0012 10BD     		pop	{r4, pc}
  79              		.cfi_endproc
  80              	.LFE13:
  81              		.size	i2c_read_scl_and_delay, .-i2c_read_scl_and_delay
  82              		.section	.text.i2c_read_sda,"ax",%progbits
  83              		.align	1
  84              		.code	16
  85              		.thumb_func
  86              		.type	i2c_read_sda, %function
  87              	i2c_read_sda:
  88              	.LFB15:
 406:..\..\u8g2\csrc/u8x8_byte.c **** 
 407:..\..\u8g2\csrc/u8x8_byte.c **** static void i2c_clear_scl(u8x8_t *u8x8)
 408:..\..\u8g2\csrc/u8x8_byte.c **** {
 409:..\..\u8g2\csrc/u8x8_byte.c ****   u8x8_gpio_SetI2CClock(u8x8, 0);
 410:..\..\u8g2\csrc/u8x8_byte.c **** }
 411:..\..\u8g2\csrc/u8x8_byte.c **** 
 412:..\..\u8g2\csrc/u8x8_byte.c **** static void i2c_read_sda(u8x8_t *u8x8)
 413:..\..\u8g2\csrc/u8x8_byte.c **** {
  89              		.loc 1 413 0
  90              		.cfi_startproc
  91              		@ args = 0, pretend = 0, frame = 0
  92              		@ frame_needed = 0, uses_anonymous_args = 0
  93              	.LVL6:
  94 0000 10B5     		push	{r4, lr}
  95              		.cfi_def_cfa_offset 8
  96              		.cfi_offset 4, -8
  97              		.cfi_offset 14, -4
 414:..\..\u8g2\csrc/u8x8_byte.c ****   /* set as input (line will be high) */
 415:..\..\u8g2\csrc/u8x8_byte.c ****   u8x8_gpio_SetI2CData(u8x8, 1);
  98              		.loc 1 415 0
ARM GAS  C:\Users\Greg\AppData\Local\Temp\cct7TZoA.s 			page 10


  99 0002 0122     		movs	r2, #1
 100 0004 4D21     		movs	r1, #77
 101 0006 FFF7FEFF 		bl	u8x8_gpio_call
 102              	.LVL7:
 416:..\..\u8g2\csrc/u8x8_byte.c **** }
 103              		.loc 1 416 0
 104              		@ sp needed
 105 000a 10BD     		pop	{r4, pc}
 106              		.cfi_endproc
 107              	.LFE15:
 108              		.size	i2c_read_sda, .-i2c_read_sda
 109              		.section	.text.i2c_write_bit,"ax",%progbits
 110              		.align	1
 111              		.code	16
 112              		.thumb_func
 113              		.type	i2c_write_bit, %function
 114              	i2c_write_bit:
 115              	.LFB19:
 417:..\..\u8g2\csrc/u8x8_byte.c **** 
 418:..\..\u8g2\csrc/u8x8_byte.c **** static void i2c_clear_sda(u8x8_t *u8x8)
 419:..\..\u8g2\csrc/u8x8_byte.c **** {
 420:..\..\u8g2\csrc/u8x8_byte.c ****   /* set open collector and drive low */
 421:..\..\u8g2\csrc/u8x8_byte.c ****   u8x8_gpio_SetI2CData(u8x8, 0);
 422:..\..\u8g2\csrc/u8x8_byte.c **** }
 423:..\..\u8g2\csrc/u8x8_byte.c **** 
 424:..\..\u8g2\csrc/u8x8_byte.c **** static void i2c_start(u8x8_t *u8x8)
 425:..\..\u8g2\csrc/u8x8_byte.c **** {
 426:..\..\u8g2\csrc/u8x8_byte.c ****   if ( u8x8->i2c_started != 0 )
 427:..\..\u8g2\csrc/u8x8_byte.c ****   {
 428:..\..\u8g2\csrc/u8x8_byte.c ****     /* if already started: do restart */
 429:..\..\u8g2\csrc/u8x8_byte.c ****     i2c_read_sda(u8x8);     /* SDA = 1 */
 430:..\..\u8g2\csrc/u8x8_byte.c ****     i2c_delay(u8x8);
 431:..\..\u8g2\csrc/u8x8_byte.c ****     i2c_read_scl_and_delay(u8x8);
 432:..\..\u8g2\csrc/u8x8_byte.c ****   }
 433:..\..\u8g2\csrc/u8x8_byte.c ****   i2c_read_sda(u8x8);
 434:..\..\u8g2\csrc/u8x8_byte.c ****   /* send the start condition, both lines go from 1 to 0 */
 435:..\..\u8g2\csrc/u8x8_byte.c ****   i2c_clear_sda(u8x8);
 436:..\..\u8g2\csrc/u8x8_byte.c ****   i2c_delay(u8x8);
 437:..\..\u8g2\csrc/u8x8_byte.c ****   i2c_clear_scl(u8x8);
 438:..\..\u8g2\csrc/u8x8_byte.c ****   u8x8->i2c_started = 1;
 439:..\..\u8g2\csrc/u8x8_byte.c **** }
 440:..\..\u8g2\csrc/u8x8_byte.c **** 
 441:..\..\u8g2\csrc/u8x8_byte.c **** 
 442:..\..\u8g2\csrc/u8x8_byte.c **** static void i2c_stop(u8x8_t *u8x8)
 443:..\..\u8g2\csrc/u8x8_byte.c **** {
 444:..\..\u8g2\csrc/u8x8_byte.c ****   /* set SDA to 0 */
 445:..\..\u8g2\csrc/u8x8_byte.c ****   i2c_clear_sda(u8x8);  
 446:..\..\u8g2\csrc/u8x8_byte.c ****   i2c_delay(u8x8);
 447:..\..\u8g2\csrc/u8x8_byte.c ****  
 448:..\..\u8g2\csrc/u8x8_byte.c ****   /* now release all lines */
 449:..\..\u8g2\csrc/u8x8_byte.c ****   i2c_read_scl_and_delay(u8x8);
 450:..\..\u8g2\csrc/u8x8_byte.c ****  
 451:..\..\u8g2\csrc/u8x8_byte.c ****   /* set SDA to 1 */
 452:..\..\u8g2\csrc/u8x8_byte.c ****   i2c_read_sda(u8x8);
 453:..\..\u8g2\csrc/u8x8_byte.c ****   i2c_delay(u8x8);
 454:..\..\u8g2\csrc/u8x8_byte.c ****   u8x8->i2c_started = 0;
 455:..\..\u8g2\csrc/u8x8_byte.c **** }
ARM GAS  C:\Users\Greg\AppData\Local\Temp\cct7TZoA.s 			page 11


 456:..\..\u8g2\csrc/u8x8_byte.c **** 
 457:..\..\u8g2\csrc/u8x8_byte.c **** static void i2c_write_bit(u8x8_t *u8x8, uint8_t val)
 458:..\..\u8g2\csrc/u8x8_byte.c **** {
 116              		.loc 1 458 0
 117              		.cfi_startproc
 118              		@ args = 0, pretend = 0, frame = 0
 119              		@ frame_needed = 0, uses_anonymous_args = 0
 120              	.LVL8:
 121 0000 10B5     		push	{r4, lr}
 122              		.cfi_def_cfa_offset 8
 123              		.cfi_offset 4, -8
 124              		.cfi_offset 14, -4
 125              		.loc 1 458 0
 126 0002 0A00     		movs	r2, r1
 127 0004 0400     		movs	r4, r0
 459:..\..\u8g2\csrc/u8x8_byte.c ****   if (val)
 128              		.loc 1 459 0
 129 0006 0029     		cmp	r1, #0
 130 0008 02D0     		beq	.L5
 460:..\..\u8g2\csrc/u8x8_byte.c ****     i2c_read_sda(u8x8);
 131              		.loc 1 460 0
 132 000a FFF7FEFF 		bl	i2c_read_sda
 133              	.LVL9:
 134 000e 02E0     		b	.L6
 135              	.LVL10:
 136              	.L5:
 137              	.LBB6:
 138              	.LBB7:
 421:..\..\u8g2\csrc/u8x8_byte.c **** }
 139              		.loc 1 421 0
 140 0010 4D21     		movs	r1, #77
 141              	.LVL11:
 142 0012 FFF7FEFF 		bl	u8x8_gpio_call
 143              	.LVL12:
 144              	.L6:
 145              	.LBE7:
 146              	.LBE6:
 461:..\..\u8g2\csrc/u8x8_byte.c ****   else
 462:..\..\u8g2\csrc/u8x8_byte.c ****     i2c_clear_sda(u8x8);
 463:..\..\u8g2\csrc/u8x8_byte.c ****  
 464:..\..\u8g2\csrc/u8x8_byte.c ****   i2c_delay(u8x8);
 147              		.loc 1 464 0
 148 0016 2000     		movs	r0, r4
 149 0018 FFF7FEFF 		bl	i2c_delay
 150              	.LVL13:
 465:..\..\u8g2\csrc/u8x8_byte.c ****   i2c_read_scl_and_delay(u8x8);
 151              		.loc 1 465 0
 152 001c 2000     		movs	r0, r4
 153 001e FFF7FEFF 		bl	i2c_read_scl_and_delay
 154              	.LVL14:
 155              	.LBB8:
 156              	.LBB9:
 409:..\..\u8g2\csrc/u8x8_byte.c **** }
 157              		.loc 1 409 0
 158 0022 0022     		movs	r2, #0
 159 0024 4C21     		movs	r1, #76
 160 0026 2000     		movs	r0, r4
ARM GAS  C:\Users\Greg\AppData\Local\Temp\cct7TZoA.s 			page 12


 161 0028 FFF7FEFF 		bl	u8x8_gpio_call
 162              	.LVL15:
 163              	.LBE9:
 164              	.LBE8:
 466:..\..\u8g2\csrc/u8x8_byte.c ****   i2c_clear_scl(u8x8);
 467:..\..\u8g2\csrc/u8x8_byte.c **** }
 165              		.loc 1 467 0
 166              		@ sp needed
 167              	.LVL16:
 168 002c 10BD     		pop	{r4, pc}
 169              		.cfi_endproc
 170              	.LFE19:
 171              		.size	i2c_write_bit, .-i2c_write_bit
 172              		.section	.text.i2c_write_byte,"ax",%progbits
 173              		.align	1
 174              		.code	16
 175              		.thumb_func
 176              		.type	i2c_write_byte, %function
 177              	i2c_write_byte:
 178              	.LFB21:
 468:..\..\u8g2\csrc/u8x8_byte.c **** 
 469:..\..\u8g2\csrc/u8x8_byte.c **** static void i2c_read_bit(u8x8_t *u8x8)
 470:..\..\u8g2\csrc/u8x8_byte.c **** {
 471:..\..\u8g2\csrc/u8x8_byte.c ****   //uint8_t val;
 472:..\..\u8g2\csrc/u8x8_byte.c ****   /* do not drive SDA */
 473:..\..\u8g2\csrc/u8x8_byte.c ****   i2c_read_sda(u8x8);
 474:..\..\u8g2\csrc/u8x8_byte.c ****   i2c_delay(u8x8);
 475:..\..\u8g2\csrc/u8x8_byte.c ****   i2c_read_scl_and_delay(u8x8);
 476:..\..\u8g2\csrc/u8x8_byte.c ****   i2c_read_sda(u8x8);
 477:..\..\u8g2\csrc/u8x8_byte.c ****   i2c_delay(u8x8);
 478:..\..\u8g2\csrc/u8x8_byte.c ****   i2c_clear_scl(u8x8);
 479:..\..\u8g2\csrc/u8x8_byte.c ****   //return val;
 480:..\..\u8g2\csrc/u8x8_byte.c **** }
 481:..\..\u8g2\csrc/u8x8_byte.c **** 
 482:..\..\u8g2\csrc/u8x8_byte.c **** static void i2c_write_byte(u8x8_t *u8x8, uint8_t b)
 483:..\..\u8g2\csrc/u8x8_byte.c **** {
 179              		.loc 1 483 0
 180              		.cfi_startproc
 181              		@ args = 0, pretend = 0, frame = 0
 182              		@ frame_needed = 0, uses_anonymous_args = 0
 183              	.LVL17:
 484:..\..\u8g2\csrc/u8x8_byte.c ****   i2c_write_bit(u8x8, b & 128);
 184              		.loc 1 484 0
 185 0000 7F23     		movs	r3, #127
 483:..\..\u8g2\csrc/u8x8_byte.c ****   i2c_write_bit(u8x8, b & 128);
 186              		.loc 1 483 0
 187 0002 70B5     		push	{r4, r5, r6, lr}
 188              		.cfi_def_cfa_offset 16
 189              		.cfi_offset 4, -16
 190              		.cfi_offset 5, -12
 191              		.cfi_offset 6, -8
 192              		.cfi_offset 14, -4
 483:..\..\u8g2\csrc/u8x8_byte.c ****   i2c_write_bit(u8x8, b & 128);
 193              		.loc 1 483 0
 194 0004 0D00     		movs	r5, r1
 195              		.loc 1 484 0
 196 0006 9943     		bics	r1, r3
ARM GAS  C:\Users\Greg\AppData\Local\Temp\cct7TZoA.s 			page 13


 197              	.LVL18:
 483:..\..\u8g2\csrc/u8x8_byte.c ****   i2c_write_bit(u8x8, b & 128);
 198              		.loc 1 483 0
 199 0008 0400     		movs	r4, r0
 200              		.loc 1 484 0
 201 000a FFF7FEFF 		bl	i2c_write_bit
 202              	.LVL19:
 485:..\..\u8g2\csrc/u8x8_byte.c ****   i2c_write_bit(u8x8, b & 64);
 203              		.loc 1 485 0
 204 000e 4021     		movs	r1, #64
 205 0010 2000     		movs	r0, r4
 206 0012 2940     		ands	r1, r5
 207 0014 FFF7FEFF 		bl	i2c_write_bit
 208              	.LVL20:
 486:..\..\u8g2\csrc/u8x8_byte.c ****   i2c_write_bit(u8x8, b & 32);
 209              		.loc 1 486 0
 210 0018 2021     		movs	r1, #32
 211 001a 2000     		movs	r0, r4
 212 001c 2940     		ands	r1, r5
 213 001e FFF7FEFF 		bl	i2c_write_bit
 214              	.LVL21:
 487:..\..\u8g2\csrc/u8x8_byte.c ****   i2c_write_bit(u8x8, b & 16);
 215              		.loc 1 487 0
 216 0022 1021     		movs	r1, #16
 217 0024 2000     		movs	r0, r4
 218 0026 2940     		ands	r1, r5
 219 0028 FFF7FEFF 		bl	i2c_write_bit
 220              	.LVL22:
 488:..\..\u8g2\csrc/u8x8_byte.c ****   i2c_write_bit(u8x8, b & 8);
 221              		.loc 1 488 0
 222 002c 0821     		movs	r1, #8
 223 002e 2000     		movs	r0, r4
 224 0030 2940     		ands	r1, r5
 225 0032 FFF7FEFF 		bl	i2c_write_bit
 226              	.LVL23:
 489:..\..\u8g2\csrc/u8x8_byte.c ****   i2c_write_bit(u8x8, b & 4);
 227              		.loc 1 489 0
 228 0036 0421     		movs	r1, #4
 229 0038 2000     		movs	r0, r4
 230 003a 2940     		ands	r1, r5
 231 003c FFF7FEFF 		bl	i2c_write_bit
 232              	.LVL24:
 490:..\..\u8g2\csrc/u8x8_byte.c ****   i2c_write_bit(u8x8, b & 2);
 233              		.loc 1 490 0
 234 0040 0221     		movs	r1, #2
 235 0042 2000     		movs	r0, r4
 236 0044 2940     		ands	r1, r5
 237 0046 FFF7FEFF 		bl	i2c_write_bit
 238              	.LVL25:
 491:..\..\u8g2\csrc/u8x8_byte.c ****   i2c_write_bit(u8x8, b & 1);
 239              		.loc 1 491 0
 240 004a 0121     		movs	r1, #1
 241 004c 2000     		movs	r0, r4
 242 004e 2940     		ands	r1, r5
 243 0050 FFF7FEFF 		bl	i2c_write_bit
 244              	.LVL26:
 245              	.LBB14:
ARM GAS  C:\Users\Greg\AppData\Local\Temp\cct7TZoA.s 			page 14


 246              	.LBB15:
 473:..\..\u8g2\csrc/u8x8_byte.c ****   i2c_delay(u8x8);
 247              		.loc 1 473 0
 248 0054 2000     		movs	r0, r4
 249 0056 FFF7FEFF 		bl	i2c_read_sda
 250              	.LVL27:
 474:..\..\u8g2\csrc/u8x8_byte.c ****   i2c_read_scl_and_delay(u8x8);
 251              		.loc 1 474 0
 252 005a 2000     		movs	r0, r4
 253 005c FFF7FEFF 		bl	i2c_delay
 254              	.LVL28:
 475:..\..\u8g2\csrc/u8x8_byte.c ****   i2c_read_sda(u8x8);
 255              		.loc 1 475 0
 256 0060 2000     		movs	r0, r4
 257 0062 FFF7FEFF 		bl	i2c_read_scl_and_delay
 258              	.LVL29:
 476:..\..\u8g2\csrc/u8x8_byte.c ****   i2c_delay(u8x8);
 259              		.loc 1 476 0
 260 0066 2000     		movs	r0, r4
 261 0068 FFF7FEFF 		bl	i2c_read_sda
 262              	.LVL30:
 477:..\..\u8g2\csrc/u8x8_byte.c ****   i2c_clear_scl(u8x8);
 263              		.loc 1 477 0
 264 006c 2000     		movs	r0, r4
 265 006e FFF7FEFF 		bl	i2c_delay
 266              	.LVL31:
 267              	.LBB16:
 268              	.LBB17:
 409:..\..\u8g2\csrc/u8x8_byte.c **** }
 269              		.loc 1 409 0
 270 0072 0022     		movs	r2, #0
 271 0074 4C21     		movs	r1, #76
 272 0076 2000     		movs	r0, r4
 273 0078 FFF7FEFF 		bl	u8x8_gpio_call
 274              	.LVL32:
 275              	.LBE17:
 276              	.LBE16:
 277              	.LBE15:
 278              	.LBE14:
 492:..\..\u8g2\csrc/u8x8_byte.c ****     
 493:..\..\u8g2\csrc/u8x8_byte.c ****   /* read ack from client */
 494:..\..\u8g2\csrc/u8x8_byte.c ****   /* 0: ack was given by client */
 495:..\..\u8g2\csrc/u8x8_byte.c ****   /* 1: nothing happend during ack cycle */  
 496:..\..\u8g2\csrc/u8x8_byte.c ****   i2c_read_bit(u8x8);
 497:..\..\u8g2\csrc/u8x8_byte.c **** }
 279              		.loc 1 497 0
 280              		@ sp needed
 281              	.LVL33:
 282 007c 70BD     		pop	{r4, r5, r6, pc}
 283              		.cfi_endproc
 284              	.LFE21:
 285              		.size	i2c_write_byte, .-i2c_write_byte
 286              		.section	.text.u8x8_byte_SetDC,"ax",%progbits
 287              		.align	1
 288              		.global	u8x8_byte_SetDC
 289              		.code	16
 290              		.thumb_func
ARM GAS  C:\Users\Greg\AppData\Local\Temp\cct7TZoA.s 			page 15


 291              		.type	u8x8_byte_SetDC, %function
 292              	u8x8_byte_SetDC:
 293              	.LFB0:
  40:..\..\u8g2\csrc/u8x8_byte.c ****   return u8x8->byte_cb(u8x8, U8X8_MSG_BYTE_SET_DC, dc, NULL);
 294              		.loc 1 40 0
 295              		.cfi_startproc
 296              		@ args = 0, pretend = 0, frame = 0
 297              		@ frame_needed = 0, uses_anonymous_args = 0
 298              	.LVL34:
 299 0000 10B5     		push	{r4, lr}
 300              		.cfi_def_cfa_offset 8
 301              		.cfi_offset 4, -8
 302              		.cfi_offset 14, -4
  40:..\..\u8g2\csrc/u8x8_byte.c ****   return u8x8->byte_cb(u8x8, U8X8_MSG_BYTE_SET_DC, dc, NULL);
 303              		.loc 1 40 0
 304 0002 0A00     		movs	r2, r1
  41:..\..\u8g2\csrc/u8x8_byte.c **** }
 305              		.loc 1 41 0
 306 0004 0469     		ldr	r4, [r0, #16]
 307 0006 0023     		movs	r3, #0
 308 0008 2021     		movs	r1, #32
 309              	.LVL35:
 310 000a A047     		blx	r4
 311              	.LVL36:
  42:..\..\u8g2\csrc/u8x8_byte.c **** 
 312              		.loc 1 42 0
 313              		@ sp needed
 314 000c 10BD     		pop	{r4, pc}
 315              		.cfi_endproc
 316              	.LFE0:
 317              		.size	u8x8_byte_SetDC, .-u8x8_byte_SetDC
 318              		.section	.text.u8x8_byte_SendBytes,"ax",%progbits
 319              		.align	1
 320              		.global	u8x8_byte_SendBytes
 321              		.code	16
 322              		.thumb_func
 323              		.type	u8x8_byte_SendBytes, %function
 324              	u8x8_byte_SendBytes:
 325              	.LFB1:
  45:..\..\u8g2\csrc/u8x8_byte.c ****   return u8x8->byte_cb(u8x8, U8X8_MSG_BYTE_SEND, cnt, (void *)data);
 326              		.loc 1 45 0
 327              		.cfi_startproc
 328              		@ args = 0, pretend = 0, frame = 0
 329              		@ frame_needed = 0, uses_anonymous_args = 0
 330              	.LVL37:
 331 0000 10B5     		push	{r4, lr}
 332              		.cfi_def_cfa_offset 8
 333              		.cfi_offset 4, -8
 334              		.cfi_offset 14, -4
  45:..\..\u8g2\csrc/u8x8_byte.c ****   return u8x8->byte_cb(u8x8, U8X8_MSG_BYTE_SEND, cnt, (void *)data);
 335              		.loc 1 45 0
 336 0002 1300     		movs	r3, r2
  46:..\..\u8g2\csrc/u8x8_byte.c **** }
 337              		.loc 1 46 0
 338 0004 0469     		ldr	r4, [r0, #16]
 339 0006 0A00     		movs	r2, r1
 340              	.LVL38:
ARM GAS  C:\Users\Greg\AppData\Local\Temp\cct7TZoA.s 			page 16


 341 0008 1721     		movs	r1, #23
 342              	.LVL39:
 343 000a A047     		blx	r4
 344              	.LVL40:
  47:..\..\u8g2\csrc/u8x8_byte.c **** 
 345              		.loc 1 47 0
 346              		@ sp needed
 347 000c 10BD     		pop	{r4, pc}
 348              		.cfi_endproc
 349              	.LFE1:
 350              		.size	u8x8_byte_SendBytes, .-u8x8_byte_SendBytes
 351              		.section	.text.u8x8_byte_SendByte,"ax",%progbits
 352              		.align	1
 353              		.global	u8x8_byte_SendByte
 354              		.code	16
 355              		.thumb_func
 356              		.type	u8x8_byte_SendByte, %function
 357              	u8x8_byte_SendByte:
 358              	.LFB2:
  50:..\..\u8g2\csrc/u8x8_byte.c ****   return u8x8_byte_SendBytes(u8x8, 1, &byte);
 359              		.loc 1 50 0
 360              		.cfi_startproc
 361              		@ args = 0, pretend = 0, frame = 8
 362              		@ frame_needed = 0, uses_anonymous_args = 0
 363              	.LVL41:
 364 0000 07B5     		push	{r0, r1, r2, lr}
 365              		.cfi_def_cfa_offset 16
 366              		.cfi_offset 0, -16
 367              		.cfi_offset 1, -12
 368              		.cfi_offset 2, -8
 369              		.cfi_offset 14, -4
  50:..\..\u8g2\csrc/u8x8_byte.c ****   return u8x8_byte_SendBytes(u8x8, 1, &byte);
 370              		.loc 1 50 0
 371 0002 6B46     		mov	r3, sp
 372 0004 DA1D     		adds	r2, r3, #7
 373 0006 1170     		strb	r1, [r2]
  51:..\..\u8g2\csrc/u8x8_byte.c **** }
 374              		.loc 1 51 0
 375 0008 0121     		movs	r1, #1
 376              	.LVL42:
 377 000a FFF7FEFF 		bl	u8x8_byte_SendBytes
 378              	.LVL43:
  52:..\..\u8g2\csrc/u8x8_byte.c **** 
 379              		.loc 1 52 0
 380              		@ sp needed
 381 000e 0EBD     		pop	{r1, r2, r3, pc}
 382              		.cfi_endproc
 383              	.LFE2:
 384              		.size	u8x8_byte_SendByte, .-u8x8_byte_SendByte
 385              		.section	.text.u8x8_byte_StartTransfer,"ax",%progbits
 386              		.align	1
 387              		.global	u8x8_byte_StartTransfer
 388              		.code	16
 389              		.thumb_func
 390              		.type	u8x8_byte_StartTransfer, %function
 391              	u8x8_byte_StartTransfer:
 392              	.LFB3:
ARM GAS  C:\Users\Greg\AppData\Local\Temp\cct7TZoA.s 			page 17


  55:..\..\u8g2\csrc/u8x8_byte.c ****   return u8x8->byte_cb(u8x8, U8X8_MSG_BYTE_START_TRANSFER, 0, NULL);
 393              		.loc 1 55 0
 394              		.cfi_startproc
 395              		@ args = 0, pretend = 0, frame = 0
 396              		@ frame_needed = 0, uses_anonymous_args = 0
 397              	.LVL44:
  56:..\..\u8g2\csrc/u8x8_byte.c **** }
 398              		.loc 1 56 0
 399 0000 0023     		movs	r3, #0
  55:..\..\u8g2\csrc/u8x8_byte.c ****   return u8x8->byte_cb(u8x8, U8X8_MSG_BYTE_START_TRANSFER, 0, NULL);
 400              		.loc 1 55 0
 401 0002 10B5     		push	{r4, lr}
 402              		.cfi_def_cfa_offset 8
 403              		.cfi_offset 4, -8
 404              		.cfi_offset 14, -4
  56:..\..\u8g2\csrc/u8x8_byte.c **** }
 405              		.loc 1 56 0
 406 0004 1A00     		movs	r2, r3
 407 0006 0469     		ldr	r4, [r0, #16]
 408 0008 1821     		movs	r1, #24
 409 000a A047     		blx	r4
 410              	.LVL45:
  57:..\..\u8g2\csrc/u8x8_byte.c **** 
 411              		.loc 1 57 0
 412              		@ sp needed
 413 000c 10BD     		pop	{r4, pc}
 414              		.cfi_endproc
 415              	.LFE3:
 416              		.size	u8x8_byte_StartTransfer, .-u8x8_byte_StartTransfer
 417              		.section	.text.u8x8_byte_EndTransfer,"ax",%progbits
 418              		.align	1
 419              		.global	u8x8_byte_EndTransfer
 420              		.code	16
 421              		.thumb_func
 422              		.type	u8x8_byte_EndTransfer, %function
 423              	u8x8_byte_EndTransfer:
 424              	.LFB4:
  60:..\..\u8g2\csrc/u8x8_byte.c ****   return u8x8->byte_cb(u8x8, U8X8_MSG_BYTE_END_TRANSFER, 0, NULL);
 425              		.loc 1 60 0
 426              		.cfi_startproc
 427              		@ args = 0, pretend = 0, frame = 0
 428              		@ frame_needed = 0, uses_anonymous_args = 0
 429              	.LVL46:
  61:..\..\u8g2\csrc/u8x8_byte.c **** }
 430              		.loc 1 61 0
 431 0000 0023     		movs	r3, #0
  60:..\..\u8g2\csrc/u8x8_byte.c ****   return u8x8->byte_cb(u8x8, U8X8_MSG_BYTE_END_TRANSFER, 0, NULL);
 432              		.loc 1 60 0
 433 0002 10B5     		push	{r4, lr}
 434              		.cfi_def_cfa_offset 8
 435              		.cfi_offset 4, -8
 436              		.cfi_offset 14, -4
  61:..\..\u8g2\csrc/u8x8_byte.c **** }
 437              		.loc 1 61 0
 438 0004 1A00     		movs	r2, r3
 439 0006 0469     		ldr	r4, [r0, #16]
 440 0008 1921     		movs	r1, #25
ARM GAS  C:\Users\Greg\AppData\Local\Temp\cct7TZoA.s 			page 18


 441 000a A047     		blx	r4
 442              	.LVL47:
  62:..\..\u8g2\csrc/u8x8_byte.c **** 
 443              		.loc 1 62 0
 444              		@ sp needed
 445 000c 10BD     		pop	{r4, pc}
 446              		.cfi_endproc
 447              	.LFE4:
 448              		.size	u8x8_byte_EndTransfer, .-u8x8_byte_EndTransfer
 449              		.section	.text.u8x8_byte_4wire_sw_spi,"ax",%progbits
 450              		.align	1
 451              		.global	u8x8_byte_4wire_sw_spi
 452              		.code	16
 453              		.thumb_func
 454              		.type	u8x8_byte_4wire_sw_spi, %function
 455              	u8x8_byte_4wire_sw_spi:
 456              	.LFB5:
  89:..\..\u8g2\csrc/u8x8_byte.c ****   uint8_t i, b;
 457              		.loc 1 89 0
 458              		.cfi_startproc
 459              		@ args = 0, pretend = 0, frame = 16
 460              		@ frame_needed = 0, uses_anonymous_args = 0
 461              	.LVL48:
 462 0000 F0B5     		push	{r4, r5, r6, r7, lr}
 463              		.cfi_def_cfa_offset 20
 464              		.cfi_offset 4, -20
 465              		.cfi_offset 5, -16
 466              		.cfi_offset 6, -12
 467              		.cfi_offset 7, -8
 468              		.cfi_offset 14, -4
  95:..\..\u8g2\csrc/u8x8_byte.c ****   {
 469              		.loc 1 95 0
 470 0002 1439     		subs	r1, r1, #20
 471              	.LVL49:
  89:..\..\u8g2\csrc/u8x8_byte.c ****   uint8_t i, b;
 472              		.loc 1 89 0
 473 0004 0400     		movs	r4, r0
 474 0006 1D00     		movs	r5, r3
 475 0008 85B0     		sub	sp, sp, #20
 476              		.cfi_def_cfa_offset 40
  92:..\..\u8g2\csrc/u8x8_byte.c ****   uint8_t not_takeover_edge = 1 - takeover_edge;
 477              		.loc 1 92 0
 478 000a 0368     		ldr	r3, [r0]
 479              	.LVL50:
  95:..\..\u8g2\csrc/u8x8_byte.c ****   {
 480              		.loc 1 95 0
 481 000c 0800     		movs	r0, r1
 482              	.LVL51:
 483 000e 0C29     		cmp	r1, #12
 484 0010 68D8     		bhi	.L27
 485 0012 FFF7FEFF 		bl	__gnu_thumb1_case_uqi
 486              	.L17:
 487 0016 3F       		.byte	(.L16-.L17)/2
 488 0017 67       		.byte	(.L27-.L17)/2
 489 0018 67       		.byte	(.L27-.L17)/2
 490 0019 07       		.byte	(.L18-.L17)/2
 491 001a 4C       		.byte	(.L19-.L17)/2
ARM GAS  C:\Users\Greg\AppData\Local\Temp\cct7TZoA.s 			page 19


 492 001b 59       		.byte	(.L20-.L17)/2
 493 001c 67       		.byte	(.L27-.L17)/2
 494 001d 67       		.byte	(.L27-.L17)/2
 495 001e 67       		.byte	(.L27-.L17)/2
 496 001f 67       		.byte	(.L27-.L17)/2
 497 0020 67       		.byte	(.L27-.L17)/2
 498 0021 67       		.byte	(.L27-.L17)/2
 499 0022 4A       		.byte	(.L21-.L17)/2
 500 0023 00       		.p2align 1
 501              	.L18:
  92:..\..\u8g2\csrc/u8x8_byte.c ****   uint8_t not_takeover_edge = 1 - takeover_edge;
 502              		.loc 1 92 0
 503 0024 197B     		ldrb	r1, [r3, #12]
 504 0026 0123     		movs	r3, #1
 505              	.LVL52:
 506 0028 AA18     		adds	r2, r5, r2
 507              	.LVL53:
 508 002a 1940     		ands	r1, r3
 509 002c 0091     		str	r1, [sp]
 510 002e 0192     		str	r2, [sp, #4]
 107:..\..\u8g2\csrc/u8x8_byte.c **** 	  else
 511              		.loc 1 107 0
 512 0030 0393     		str	r3, [sp, #12]
 513              	.LVL54:
 514              	.L22:
  99:..\..\u8g2\csrc/u8x8_byte.c ****       {
 515              		.loc 1 99 0
 516 0032 019B     		ldr	r3, [sp, #4]
 517 0034 9D42     		cmp	r5, r3
 518 0036 53D0     		beq	.L31
 102:..\..\u8g2\csrc/u8x8_byte.c **** 	arg_int--;
 519              		.loc 1 102 0
 520 0038 0826     		movs	r6, #8
 112:..\..\u8g2\csrc/u8x8_byte.c **** 	  u8x8_gpio_Delay(u8x8, U8X8_MSG_DELAY_NANO, u8x8->display_info->sda_setup_time_ns);
 521              		.loc 1 112 0
 522 003a 039B     		ldr	r3, [sp, #12]
 523 003c 009A     		ldr	r2, [sp]
 101:..\..\u8g2\csrc/u8x8_byte.c **** 	data++;
 524              		.loc 1 101 0
 525 003e 2F78     		ldrb	r7, [r5]
 526              	.LVL55:
 112:..\..\u8g2\csrc/u8x8_byte.c **** 	  u8x8_gpio_Delay(u8x8, U8X8_MSG_DELAY_NANO, u8x8->display_info->sda_setup_time_ns);
 527              		.loc 1 112 0
 528 0040 9B1A     		subs	r3, r3, r2
 529 0042 DBB2     		uxtb	r3, r3
 102:..\..\u8g2\csrc/u8x8_byte.c **** 	arg_int--;
 530              		.loc 1 102 0
 531 0044 0135     		adds	r5, r5, #1
 532              	.LVL56:
 112:..\..\u8g2\csrc/u8x8_byte.c **** 	  u8x8_gpio_Delay(u8x8, U8X8_MSG_DELAY_NANO, u8x8->display_info->sda_setup_time_ns);
 533              		.loc 1 112 0
 534 0046 0293     		str	r3, [sp, #8]
 535              	.LVL57:
 536              	.L25:
 106:..\..\u8g2\csrc/u8x8_byte.c **** 	    u8x8_gpio_SetSPIData(u8x8, 1);
 537              		.loc 1 106 0
 538 0048 7BB2     		sxtb	r3, r7
ARM GAS  C:\Users\Greg\AppData\Local\Temp\cct7TZoA.s 			page 20


 107:..\..\u8g2\csrc/u8x8_byte.c **** 	  else
 539              		.loc 1 107 0
 540 004a 0122     		movs	r2, #1
 106:..\..\u8g2\csrc/u8x8_byte.c **** 	    u8x8_gpio_SetSPIData(u8x8, 1);
 541              		.loc 1 106 0
 542 004c 002B     		cmp	r3, #0
 543 004e 00DB     		blt	.L29
 109:..\..\u8g2\csrc/u8x8_byte.c **** 	  b <<= 1;
 544              		.loc 1 109 0
 545 0050 0022     		movs	r2, #0
 546              	.L29:
 547 0052 4121     		movs	r1, #65
 548 0054 2000     		movs	r0, r4
 549 0056 FFF7FEFF 		bl	u8x8_gpio_call
 550              	.LVL58:
 112:..\..\u8g2\csrc/u8x8_byte.c **** 	  u8x8_gpio_Delay(u8x8, U8X8_MSG_DELAY_NANO, u8x8->display_info->sda_setup_time_ns);
 551              		.loc 1 112 0
 552 005a 029A     		ldr	r2, [sp, #8]
 553 005c 4021     		movs	r1, #64
 554 005e 2000     		movs	r0, r4
 555 0060 FFF7FEFF 		bl	u8x8_gpio_call
 556              	.LVL59:
 113:..\..\u8g2\csrc/u8x8_byte.c **** 	  u8x8_gpio_SetSPIClock(u8x8, takeover_edge);
 557              		.loc 1 113 0
 558 0064 2368     		ldr	r3, [r4]
 559 0066 2C21     		movs	r1, #44
 560 0068 9A79     		ldrb	r2, [r3, #6]
 561 006a 2000     		movs	r0, r4
 562 006c FFF7FEFF 		bl	u8x8_gpio_call
 563              	.LVL60:
 114:..\..\u8g2\csrc/u8x8_byte.c **** 	  u8x8_gpio_Delay(u8x8, U8X8_MSG_DELAY_NANO, u8x8->display_info->sck_pulse_width_ns);
 564              		.loc 1 114 0
 565 0070 009A     		ldr	r2, [sp]
 566 0072 4021     		movs	r1, #64
 567 0074 2000     		movs	r0, r4
 568 0076 FFF7FEFF 		bl	u8x8_gpio_call
 569              	.LVL61:
 115:..\..\u8g2\csrc/u8x8_byte.c **** 	}    
 570              		.loc 1 115 0
 571 007a 2368     		ldr	r3, [r4]
 572 007c 013E     		subs	r6, r6, #1
 573              	.LVL62:
 110:..\..\u8g2\csrc/u8x8_byte.c **** 	  
 574              		.loc 1 110 0
 575 007e 7F00     		lsls	r7, r7, #1
 576              	.LVL63:
 115:..\..\u8g2\csrc/u8x8_byte.c **** 	}    
 577              		.loc 1 115 0
 578 0080 DA79     		ldrb	r2, [r3, #7]
 579 0082 2C21     		movs	r1, #44
 580 0084 2000     		movs	r0, r4
 581 0086 F6B2     		uxtb	r6, r6
 110:..\..\u8g2\csrc/u8x8_byte.c **** 	  
 582              		.loc 1 110 0
 583 0088 FFB2     		uxtb	r7, r7
 584              	.LVL64:
 115:..\..\u8g2\csrc/u8x8_byte.c **** 	}    
ARM GAS  C:\Users\Greg\AppData\Local\Temp\cct7TZoA.s 			page 21


 585              		.loc 1 115 0
 586 008a FFF7FEFF 		bl	u8x8_gpio_call
 587              	.LVL65:
 104:..\..\u8g2\csrc/u8x8_byte.c **** 	{
 588              		.loc 1 104 0
 589 008e 002E     		cmp	r6, #0
 590 0090 DAD1     		bne	.L25
 591 0092 CEE7     		b	.L22
 592              	.LVL66:
 593              	.L16:
 126:..\..\u8g2\csrc/u8x8_byte.c ****       break;
 594              		.loc 1 126 0
 595 0094 0125     		movs	r5, #1
 596              	.LVL67:
 122:..\..\u8g2\csrc/u8x8_byte.c ****       /* no wait required here */
 597              		.loc 1 122 0
 598 0096 5A78     		ldrb	r2, [r3, #1]
 599              	.LVL68:
 600 0098 4921     		movs	r1, #73
 601 009a 2000     		movs	r0, r4
 602 009c FFF7FEFF 		bl	u8x8_gpio_call
 603              	.LVL69:
 126:..\..\u8g2\csrc/u8x8_byte.c ****       break;
 604              		.loc 1 126 0
 605 00a0 2368     		ldr	r3, [r4]
 606 00a2 4021     		movs	r1, #64
 607 00a4 1A7B     		ldrb	r2, [r3, #12]
 608 00a6 2A40     		ands	r2, r5
 609 00a8 17E0     		b	.L32
 610              	.LVL70:
 611              	.L21:
 129:..\..\u8g2\csrc/u8x8_byte.c ****       break;
 612              		.loc 1 129 0
 613 00aa 4A21     		movs	r1, #74
 614 00ac 15E0     		b	.L32
 615              	.L19:
 132:..\..\u8g2\csrc/u8x8_byte.c ****       u8x8->gpio_and_delay_cb(u8x8, U8X8_MSG_DELAY_NANO, u8x8->display_info->post_chip_enable_wait_
 616              		.loc 1 132 0
 617 00ae 1A78     		ldrb	r2, [r3]
 618              	.LVL71:
 619 00b0 2000     		movs	r0, r4
 620 00b2 4921     		movs	r1, #73
 621 00b4 FFF7FEFF 		bl	u8x8_gpio_call
 622              	.LVL72:
 133:..\..\u8g2\csrc/u8x8_byte.c ****       break;
 623              		.loc 1 133 0
 624 00b8 2368     		ldr	r3, [r4]
 625 00ba 6569     		ldr	r5, [r4, #20]
 626              	.LVL73:
 627 00bc 9A78     		ldrb	r2, [r3, #2]
 628 00be 2C21     		movs	r1, #44
 629 00c0 0023     		movs	r3, #0
 630 00c2 2000     		movs	r0, r4
 631 00c4 A847     		blx	r5
 632              	.LVL74:
 633 00c6 0BE0     		b	.L31
 634              	.LVL75:
ARM GAS  C:\Users\Greg\AppData\Local\Temp\cct7TZoA.s 			page 22


 635              	.L20:
 136:..\..\u8g2\csrc/u8x8_byte.c ****       u8x8_gpio_SetCS(u8x8, u8x8->display_info->chip_disable_level);
 636              		.loc 1 136 0
 637 00c8 DA78     		ldrb	r2, [r3, #3]
 638              	.LVL76:
 639 00ca 2C21     		movs	r1, #44
 640 00cc 0023     		movs	r3, #0
 641              	.LVL77:
 642 00ce 2000     		movs	r0, r4
 643 00d0 6569     		ldr	r5, [r4, #20]
 644              	.LVL78:
 645 00d2 A847     		blx	r5
 646              	.LVL79:
 137:..\..\u8g2\csrc/u8x8_byte.c ****       break;
 647              		.loc 1 137 0
 648 00d4 4921     		movs	r1, #73
 649 00d6 2368     		ldr	r3, [r4]
 650 00d8 5A78     		ldrb	r2, [r3, #1]
 651              	.L32:
 652 00da 2000     		movs	r0, r4
 653 00dc FFF7FEFF 		bl	u8x8_gpio_call
 654              	.LVL80:
 655              	.L31:
 142:..\..\u8g2\csrc/u8x8_byte.c **** }
 656              		.loc 1 142 0
 657 00e0 0120     		movs	r0, #1
 138:..\..\u8g2\csrc/u8x8_byte.c ****     default:
 658              		.loc 1 138 0
 659 00e2 00E0     		b	.L15
 660              	.LVL81:
 661              	.L27:
 140:..\..\u8g2\csrc/u8x8_byte.c ****   }
 662              		.loc 1 140 0
 663 00e4 0020     		movs	r0, #0
 664              	.LVL82:
 665              	.L15:
 143:..\..\u8g2\csrc/u8x8_byte.c **** 
 666              		.loc 1 143 0
 667 00e6 05B0     		add	sp, sp, #20
 668              		@ sp needed
 669              	.LVL83:
 670 00e8 F0BD     		pop	{r4, r5, r6, r7, pc}
 671              		.cfi_endproc
 672              	.LFE5:
 673              		.size	u8x8_byte_4wire_sw_spi, .-u8x8_byte_4wire_sw_spi
 674              		.section	.text.u8x8_byte_8bit_6800mode,"ax",%progbits
 675              		.align	1
 676              		.global	u8x8_byte_8bit_6800mode
 677              		.code	16
 678              		.thumb_func
 679              		.type	u8x8_byte_8bit_6800mode, %function
 680              	u8x8_byte_8bit_6800mode:
 681              	.LFB6:
 148:..\..\u8g2\csrc/u8x8_byte.c ****   uint8_t i, b;
 682              		.loc 1 148 0
 683              		.cfi_startproc
 684              		@ args = 0, pretend = 0, frame = 8
ARM GAS  C:\Users\Greg\AppData\Local\Temp\cct7TZoA.s 			page 23


 685              		@ frame_needed = 0, uses_anonymous_args = 0
 686              	.LVL84:
 687 0000 F7B5     		push	{r0, r1, r2, r4, r5, r6, r7, lr}
 688              		.cfi_def_cfa_offset 32
 689              		.cfi_offset 0, -32
 690              		.cfi_offset 1, -28
 691              		.cfi_offset 2, -24
 692              		.cfi_offset 4, -20
 693              		.cfi_offset 5, -16
 694              		.cfi_offset 6, -12
 695              		.cfi_offset 7, -8
 696              		.cfi_offset 14, -4
 152:..\..\u8g2\csrc/u8x8_byte.c ****   {
 697              		.loc 1 152 0
 698 0002 1439     		subs	r1, r1, #20
 699              	.LVL85:
 148:..\..\u8g2\csrc/u8x8_byte.c ****   uint8_t i, b;
 700              		.loc 1 148 0
 701 0004 0400     		movs	r4, r0
 702 0006 1E00     		movs	r6, r3
 152:..\..\u8g2\csrc/u8x8_byte.c ****   {
 703              		.loc 1 152 0
 704 0008 0800     		movs	r0, r1
 705              	.LVL86:
 706 000a 0C29     		cmp	r1, #12
 707 000c 5AD8     		bhi	.L44
 708 000e FFF7FEFF 		bl	__gnu_thumb1_case_uqi
 709              	.L36:
 710 0012 31       		.byte	(.L35-.L36)/2
 711 0013 59       		.byte	(.L44-.L36)/2
 712 0014 59       		.byte	(.L44-.L36)/2
 713 0015 07       		.byte	(.L37-.L36)/2
 714 0016 40       		.byte	(.L38-.L36)/2
 715 0017 4E       		.byte	(.L39-.L36)/2
 716 0018 59       		.byte	(.L44-.L36)/2
 717 0019 59       		.byte	(.L44-.L36)/2
 718 001a 59       		.byte	(.L44-.L36)/2
 719 001b 59       		.byte	(.L44-.L36)/2
 720 001c 59       		.byte	(.L44-.L36)/2
 721 001d 59       		.byte	(.L44-.L36)/2
 722 001e 3E       		.byte	(.L40-.L36)/2
 723 001f 00       		.p2align 1
 724              	.L37:
 725 0020 9B18     		adds	r3, r3, r2
 726              	.LVL87:
 727 0022 0193     		str	r3, [sp, #4]
 728              	.LVL88:
 729              	.L41:
 156:..\..\u8g2\csrc/u8x8_byte.c ****       {
 730              		.loc 1 156 0
 731 0024 019B     		ldr	r3, [sp, #4]
 732 0026 9E42     		cmp	r6, r3
 733 0028 2FD0     		beq	.L46
 161:..\..\u8g2\csrc/u8x8_byte.c **** 	{
 734              		.loc 1 161 0
 735 002a 4025     		movs	r5, #64
 158:..\..\u8g2\csrc/u8x8_byte.c **** 	data++;
ARM GAS  C:\Users\Greg\AppData\Local\Temp\cct7TZoA.s 			page 24


 736              		.loc 1 158 0
 737 002c 3778     		ldrb	r7, [r6]
 738              	.LVL89:
 159:..\..\u8g2\csrc/u8x8_byte.c **** 	arg_int--;
 739              		.loc 1 159 0
 740 002e 0136     		adds	r6, r6, #1
 741              	.LVL90:
 742              	.L42:
 163:..\..\u8g2\csrc/u8x8_byte.c **** 	  b >>= 1;
 743              		.loc 1 163 0 discriminator 3
 744 0030 0122     		movs	r2, #1
 745 0032 2900     		movs	r1, r5
 161:..\..\u8g2\csrc/u8x8_byte.c **** 	{
 746              		.loc 1 161 0 discriminator 3
 747 0034 0135     		adds	r5, r5, #1
 748              	.LVL91:
 163:..\..\u8g2\csrc/u8x8_byte.c **** 	  b >>= 1;
 749              		.loc 1 163 0 discriminator 3
 750 0036 3A40     		ands	r2, r7
 751 0038 2000     		movs	r0, r4
 161:..\..\u8g2\csrc/u8x8_byte.c **** 	{
 752              		.loc 1 161 0 discriminator 3
 753 003a EDB2     		uxtb	r5, r5
 163:..\..\u8g2\csrc/u8x8_byte.c **** 	  b >>= 1;
 754              		.loc 1 163 0 discriminator 3
 755 003c FFF7FEFF 		bl	u8x8_gpio_call
 756              	.LVL92:
 164:..\..\u8g2\csrc/u8x8_byte.c **** 	}    
 757              		.loc 1 164 0 discriminator 3
 758 0040 7F08     		lsrs	r7, r7, #1
 759              	.LVL93:
 161:..\..\u8g2\csrc/u8x8_byte.c **** 	{
 760              		.loc 1 161 0 discriminator 3
 761 0042 482D     		cmp	r5, #72
 762 0044 F4D1     		bne	.L42
 167:..\..\u8g2\csrc/u8x8_byte.c **** 	u8x8_gpio_call(u8x8, U8X8_MSG_GPIO_E, 1);
 763              		.loc 1 167 0
 764 0046 2368     		ldr	r3, [r4]
 765 0048 2000     		movs	r0, r4
 766 004a 9A7B     		ldrb	r2, [r3, #14]
 767 004c 2C21     		movs	r1, #44
 768 004e FFF7FEFF 		bl	u8x8_gpio_call
 769              	.LVL94:
 168:..\..\u8g2\csrc/u8x8_byte.c **** 	u8x8_gpio_Delay(u8x8, U8X8_MSG_DELAY_NANO, u8x8->display_info->write_pulse_width_ns);
 770              		.loc 1 168 0
 771 0052 2900     		movs	r1, r5
 772 0054 2000     		movs	r0, r4
 773 0056 0122     		movs	r2, #1
 774 0058 FFF7FEFF 		bl	u8x8_gpio_call
 775              	.LVL95:
 169:..\..\u8g2\csrc/u8x8_byte.c **** 	u8x8_gpio_call(u8x8, U8X8_MSG_GPIO_E, 0);
 776              		.loc 1 169 0
 777 005c 2368     		ldr	r3, [r4]
 778 005e 2000     		movs	r0, r4
 779 0060 DA7B     		ldrb	r2, [r3, #15]
 780 0062 2C21     		movs	r1, #44
 781 0064 FFF7FEFF 		bl	u8x8_gpio_call
ARM GAS  C:\Users\Greg\AppData\Local\Temp\cct7TZoA.s 			page 25


 782              	.LVL96:
 170:..\..\u8g2\csrc/u8x8_byte.c ****       }
 783              		.loc 1 170 0
 784 0068 0022     		movs	r2, #0
 785 006a 2900     		movs	r1, r5
 786 006c 2000     		movs	r0, r4
 787 006e FFF7FEFF 		bl	u8x8_gpio_call
 788              	.LVL97:
 789 0072 D7E7     		b	.L41
 790              	.LVL98:
 791              	.L35:
 176:..\..\u8g2\csrc/u8x8_byte.c ****       /* ensure that the enable signal is high */
 792              		.loc 1 176 0
 793 0074 2368     		ldr	r3, [r4]
 794              	.LVL99:
 795 0076 4921     		movs	r1, #73
 796 0078 5A78     		ldrb	r2, [r3, #1]
 797              	.LVL100:
 798 007a 2000     		movs	r0, r4
 799 007c FFF7FEFF 		bl	u8x8_gpio_call
 800              	.LVL101:
 178:..\..\u8g2\csrc/u8x8_byte.c ****       break;
 801              		.loc 1 178 0
 802 0080 0022     		movs	r2, #0
 803 0082 4821     		movs	r1, #72
 804              	.L47:
 805 0084 2000     		movs	r0, r4
 806 0086 FFF7FEFF 		bl	u8x8_gpio_call
 807              	.LVL102:
 808              	.L46:
 194:..\..\u8g2\csrc/u8x8_byte.c **** }
 809              		.loc 1 194 0
 810 008a 0120     		movs	r0, #1
 179:..\..\u8g2\csrc/u8x8_byte.c ****     case U8X8_MSG_BYTE_SET_DC:
 811              		.loc 1 179 0
 812 008c 1BE0     		b	.L34
 813              	.LVL103:
 814              	.L40:
 181:..\..\u8g2\csrc/u8x8_byte.c ****       break;
 815              		.loc 1 181 0
 816 008e 4A21     		movs	r1, #74
 817 0090 F8E7     		b	.L47
 818              	.L38:
 184:..\..\u8g2\csrc/u8x8_byte.c ****       u8x8->gpio_and_delay_cb(u8x8, U8X8_MSG_DELAY_NANO, u8x8->display_info->post_chip_enable_wait_
 819              		.loc 1 184 0
 820 0092 2368     		ldr	r3, [r4]
 821              	.LVL104:
 822 0094 2000     		movs	r0, r4
 823 0096 1A78     		ldrb	r2, [r3]
 824              	.LVL105:
 825 0098 4921     		movs	r1, #73
 826 009a FFF7FEFF 		bl	u8x8_gpio_call
 827              	.LVL106:
 185:..\..\u8g2\csrc/u8x8_byte.c ****       break;
 828              		.loc 1 185 0
 829 009e 2368     		ldr	r3, [r4]
 830 00a0 6569     		ldr	r5, [r4, #20]
ARM GAS  C:\Users\Greg\AppData\Local\Temp\cct7TZoA.s 			page 26


 831 00a2 9A78     		ldrb	r2, [r3, #2]
 832 00a4 2C21     		movs	r1, #44
 833 00a6 0023     		movs	r3, #0
 834 00a8 2000     		movs	r0, r4
 835 00aa A847     		blx	r5
 836              	.LVL107:
 837 00ac EDE7     		b	.L46
 838              	.LVL108:
 839              	.L39:
 188:..\..\u8g2\csrc/u8x8_byte.c ****       u8x8_gpio_SetCS(u8x8, u8x8->display_info->chip_disable_level);
 840              		.loc 1 188 0
 841 00ae 2368     		ldr	r3, [r4]
 842              	.LVL109:
 843 00b0 2C21     		movs	r1, #44
 844 00b2 DA78     		ldrb	r2, [r3, #3]
 845              	.LVL110:
 846 00b4 2000     		movs	r0, r4
 847 00b6 0023     		movs	r3, #0
 848 00b8 6569     		ldr	r5, [r4, #20]
 849 00ba A847     		blx	r5
 850              	.LVL111:
 189:..\..\u8g2\csrc/u8x8_byte.c ****       break;
 851              		.loc 1 189 0
 852 00bc 2368     		ldr	r3, [r4]
 853 00be 4921     		movs	r1, #73
 854 00c0 5A78     		ldrb	r2, [r3, #1]
 855 00c2 DFE7     		b	.L47
 856              	.LVL112:
 857              	.L44:
 192:..\..\u8g2\csrc/u8x8_byte.c ****   }
 858              		.loc 1 192 0
 859 00c4 0020     		movs	r0, #0
 860              	.LVL113:
 861              	.L34:
 195:..\..\u8g2\csrc/u8x8_byte.c **** 
 862              		.loc 1 195 0
 863              		@ sp needed
 864              	.LVL114:
 865 00c6 FEBD     		pop	{r1, r2, r3, r4, r5, r6, r7, pc}
 866              		.cfi_endproc
 867              	.LFE6:
 868              		.size	u8x8_byte_8bit_6800mode, .-u8x8_byte_8bit_6800mode
 869              		.section	.text.u8x8_byte_8bit_8080mode,"ax",%progbits
 870              		.align	1
 871              		.global	u8x8_byte_8bit_8080mode
 872              		.code	16
 873              		.thumb_func
 874              		.type	u8x8_byte_8bit_8080mode, %function
 875              	u8x8_byte_8bit_8080mode:
 876              	.LFB7:
 198:..\..\u8g2\csrc/u8x8_byte.c ****   uint8_t i, b;
 877              		.loc 1 198 0
 878              		.cfi_startproc
 879              		@ args = 0, pretend = 0, frame = 8
 880              		@ frame_needed = 0, uses_anonymous_args = 0
 881              	.LVL115:
 882 0000 F7B5     		push	{r0, r1, r2, r4, r5, r6, r7, lr}
ARM GAS  C:\Users\Greg\AppData\Local\Temp\cct7TZoA.s 			page 27


 883              		.cfi_def_cfa_offset 32
 884              		.cfi_offset 0, -32
 885              		.cfi_offset 1, -28
 886              		.cfi_offset 2, -24
 887              		.cfi_offset 4, -20
 888              		.cfi_offset 5, -16
 889              		.cfi_offset 6, -12
 890              		.cfi_offset 7, -8
 891              		.cfi_offset 14, -4
 202:..\..\u8g2\csrc/u8x8_byte.c ****   {
 892              		.loc 1 202 0
 893 0002 1439     		subs	r1, r1, #20
 894              	.LVL116:
 198:..\..\u8g2\csrc/u8x8_byte.c ****   uint8_t i, b;
 895              		.loc 1 198 0
 896 0004 0400     		movs	r4, r0
 897 0006 1E00     		movs	r6, r3
 202:..\..\u8g2\csrc/u8x8_byte.c ****   {
 898              		.loc 1 202 0
 899 0008 0800     		movs	r0, r1
 900              	.LVL117:
 901 000a 0C29     		cmp	r1, #12
 902 000c 5AD8     		bhi	.L59
 903 000e FFF7FEFF 		bl	__gnu_thumb1_case_uqi
 904              	.L51:
 905 0012 31       		.byte	(.L50-.L51)/2
 906 0013 59       		.byte	(.L59-.L51)/2
 907 0014 59       		.byte	(.L59-.L51)/2
 908 0015 07       		.byte	(.L52-.L51)/2
 909 0016 40       		.byte	(.L53-.L51)/2
 910 0017 4E       		.byte	(.L54-.L51)/2
 911 0018 59       		.byte	(.L59-.L51)/2
 912 0019 59       		.byte	(.L59-.L51)/2
 913 001a 59       		.byte	(.L59-.L51)/2
 914 001b 59       		.byte	(.L59-.L51)/2
 915 001c 59       		.byte	(.L59-.L51)/2
 916 001d 59       		.byte	(.L59-.L51)/2
 917 001e 3E       		.byte	(.L55-.L51)/2
 918 001f 00       		.p2align 1
 919              	.L52:
 920 0020 9B18     		adds	r3, r3, r2
 921              	.LVL118:
 922 0022 0193     		str	r3, [sp, #4]
 923              	.LVL119:
 924              	.L56:
 206:..\..\u8g2\csrc/u8x8_byte.c ****       {
 925              		.loc 1 206 0
 926 0024 019B     		ldr	r3, [sp, #4]
 927 0026 9E42     		cmp	r6, r3
 928 0028 2FD0     		beq	.L61
 211:..\..\u8g2\csrc/u8x8_byte.c **** 	{
 929              		.loc 1 211 0
 930 002a 4025     		movs	r5, #64
 208:..\..\u8g2\csrc/u8x8_byte.c **** 	data++;
 931              		.loc 1 208 0
 932 002c 3778     		ldrb	r7, [r6]
 933              	.LVL120:
ARM GAS  C:\Users\Greg\AppData\Local\Temp\cct7TZoA.s 			page 28


 209:..\..\u8g2\csrc/u8x8_byte.c **** 	arg_int--;
 934              		.loc 1 209 0
 935 002e 0136     		adds	r6, r6, #1
 936              	.LVL121:
 937              	.L57:
 213:..\..\u8g2\csrc/u8x8_byte.c **** 	  b >>= 1;
 938              		.loc 1 213 0 discriminator 3
 939 0030 0122     		movs	r2, #1
 940 0032 2900     		movs	r1, r5
 211:..\..\u8g2\csrc/u8x8_byte.c **** 	{
 941              		.loc 1 211 0 discriminator 3
 942 0034 0135     		adds	r5, r5, #1
 943              	.LVL122:
 213:..\..\u8g2\csrc/u8x8_byte.c **** 	  b >>= 1;
 944              		.loc 1 213 0 discriminator 3
 945 0036 3A40     		ands	r2, r7
 946 0038 2000     		movs	r0, r4
 211:..\..\u8g2\csrc/u8x8_byte.c **** 	{
 947              		.loc 1 211 0 discriminator 3
 948 003a EDB2     		uxtb	r5, r5
 213:..\..\u8g2\csrc/u8x8_byte.c **** 	  b >>= 1;
 949              		.loc 1 213 0 discriminator 3
 950 003c FFF7FEFF 		bl	u8x8_gpio_call
 951              	.LVL123:
 214:..\..\u8g2\csrc/u8x8_byte.c **** 	}    
 952              		.loc 1 214 0 discriminator 3
 953 0040 7F08     		lsrs	r7, r7, #1
 954              	.LVL124:
 211:..\..\u8g2\csrc/u8x8_byte.c **** 	{
 955              		.loc 1 211 0 discriminator 3
 956 0042 482D     		cmp	r5, #72
 957 0044 F4D1     		bne	.L57
 217:..\..\u8g2\csrc/u8x8_byte.c **** 	u8x8_gpio_call(u8x8, U8X8_MSG_GPIO_E, 0);
 958              		.loc 1 217 0
 959 0046 2368     		ldr	r3, [r4]
 960 0048 2000     		movs	r0, r4
 961 004a 9A7B     		ldrb	r2, [r3, #14]
 962 004c 2C21     		movs	r1, #44
 963 004e FFF7FEFF 		bl	u8x8_gpio_call
 964              	.LVL125:
 218:..\..\u8g2\csrc/u8x8_byte.c **** 	u8x8_gpio_Delay(u8x8, U8X8_MSG_DELAY_NANO, u8x8->display_info->write_pulse_width_ns);
 965              		.loc 1 218 0
 966 0052 2900     		movs	r1, r5
 967 0054 2000     		movs	r0, r4
 968 0056 0022     		movs	r2, #0
 969 0058 FFF7FEFF 		bl	u8x8_gpio_call
 970              	.LVL126:
 219:..\..\u8g2\csrc/u8x8_byte.c **** 	u8x8_gpio_call(u8x8, U8X8_MSG_GPIO_E, 1);
 971              		.loc 1 219 0
 972 005c 2368     		ldr	r3, [r4]
 973 005e 2000     		movs	r0, r4
 974 0060 DA7B     		ldrb	r2, [r3, #15]
 975 0062 2C21     		movs	r1, #44
 976 0064 FFF7FEFF 		bl	u8x8_gpio_call
 977              	.LVL127:
 220:..\..\u8g2\csrc/u8x8_byte.c ****       }
 978              		.loc 1 220 0
ARM GAS  C:\Users\Greg\AppData\Local\Temp\cct7TZoA.s 			page 29


 979 0068 0122     		movs	r2, #1
 980 006a 2900     		movs	r1, r5
 981 006c 2000     		movs	r0, r4
 982 006e FFF7FEFF 		bl	u8x8_gpio_call
 983              	.LVL128:
 984 0072 D7E7     		b	.L56
 985              	.LVL129:
 986              	.L50:
 226:..\..\u8g2\csrc/u8x8_byte.c ****       /* ensure that the enable signal is high */
 987              		.loc 1 226 0
 988 0074 2368     		ldr	r3, [r4]
 989              	.LVL130:
 990 0076 4921     		movs	r1, #73
 991 0078 5A78     		ldrb	r2, [r3, #1]
 992              	.LVL131:
 993 007a 2000     		movs	r0, r4
 994 007c FFF7FEFF 		bl	u8x8_gpio_call
 995              	.LVL132:
 228:..\..\u8g2\csrc/u8x8_byte.c ****       break;
 996              		.loc 1 228 0
 997 0080 0122     		movs	r2, #1
 998 0082 4821     		movs	r1, #72
 999              	.L62:
 1000 0084 2000     		movs	r0, r4
 1001 0086 FFF7FEFF 		bl	u8x8_gpio_call
 1002              	.LVL133:
 1003              	.L61:
 244:..\..\u8g2\csrc/u8x8_byte.c **** }
 1004              		.loc 1 244 0
 1005 008a 0120     		movs	r0, #1
 229:..\..\u8g2\csrc/u8x8_byte.c ****     case U8X8_MSG_BYTE_SET_DC:
 1006              		.loc 1 229 0
 1007 008c 1BE0     		b	.L49
 1008              	.LVL134:
 1009              	.L55:
 231:..\..\u8g2\csrc/u8x8_byte.c ****       break;
 1010              		.loc 1 231 0
 1011 008e 4A21     		movs	r1, #74
 1012 0090 F8E7     		b	.L62
 1013              	.L53:
 234:..\..\u8g2\csrc/u8x8_byte.c ****       u8x8->gpio_and_delay_cb(u8x8, U8X8_MSG_DELAY_NANO, u8x8->display_info->post_chip_enable_wait_
 1014              		.loc 1 234 0
 1015 0092 2368     		ldr	r3, [r4]
 1016              	.LVL135:
 1017 0094 2000     		movs	r0, r4
 1018 0096 1A78     		ldrb	r2, [r3]
 1019              	.LVL136:
 1020 0098 4921     		movs	r1, #73
 1021 009a FFF7FEFF 		bl	u8x8_gpio_call
 1022              	.LVL137:
 235:..\..\u8g2\csrc/u8x8_byte.c ****       break;
 1023              		.loc 1 235 0
 1024 009e 2368     		ldr	r3, [r4]
 1025 00a0 6569     		ldr	r5, [r4, #20]
 1026 00a2 9A78     		ldrb	r2, [r3, #2]
 1027 00a4 2C21     		movs	r1, #44
 1028 00a6 0023     		movs	r3, #0
ARM GAS  C:\Users\Greg\AppData\Local\Temp\cct7TZoA.s 			page 30


 1029 00a8 2000     		movs	r0, r4
 1030 00aa A847     		blx	r5
 1031              	.LVL138:
 1032 00ac EDE7     		b	.L61
 1033              	.LVL139:
 1034              	.L54:
 238:..\..\u8g2\csrc/u8x8_byte.c ****       u8x8_gpio_SetCS(u8x8, u8x8->display_info->chip_disable_level);
 1035              		.loc 1 238 0
 1036 00ae 2368     		ldr	r3, [r4]
 1037              	.LVL140:
 1038 00b0 2C21     		movs	r1, #44
 1039 00b2 DA78     		ldrb	r2, [r3, #3]
 1040              	.LVL141:
 1041 00b4 2000     		movs	r0, r4
 1042 00b6 0023     		movs	r3, #0
 1043 00b8 6569     		ldr	r5, [r4, #20]
 1044 00ba A847     		blx	r5
 1045              	.LVL142:
 239:..\..\u8g2\csrc/u8x8_byte.c ****       break;
 1046              		.loc 1 239 0
 1047 00bc 2368     		ldr	r3, [r4]
 1048 00be 4921     		movs	r1, #73
 1049 00c0 5A78     		ldrb	r2, [r3, #1]
 1050 00c2 DFE7     		b	.L62
 1051              	.LVL143:
 1052              	.L59:
 242:..\..\u8g2\csrc/u8x8_byte.c ****   }
 1053              		.loc 1 242 0
 1054 00c4 0020     		movs	r0, #0
 1055              	.LVL144:
 1056              	.L49:
 245:..\..\u8g2\csrc/u8x8_byte.c **** 
 1057              		.loc 1 245 0
 1058              		@ sp needed
 1059              	.LVL145:
 1060 00c6 FEBD     		pop	{r1, r2, r3, r4, r5, r6, r7, pc}
 1061              		.cfi_endproc
 1062              	.LFE7:
 1063              		.size	u8x8_byte_8bit_8080mode, .-u8x8_byte_8bit_8080mode
 1064              		.section	.text.u8x8_byte_3wire_sw_spi,"ax",%progbits
 1065              		.align	1
 1066              		.global	u8x8_byte_3wire_sw_spi
 1067              		.code	16
 1068              		.thumb_func
 1069              		.type	u8x8_byte_3wire_sw_spi, %function
 1070              	u8x8_byte_3wire_sw_spi:
 1071              	.LFB8:
 250:..\..\u8g2\csrc/u8x8_byte.c ****   uint8_t i;
 1072              		.loc 1 250 0
 1073              		.cfi_startproc
 1074              		@ args = 0, pretend = 0, frame = 16
 1075              		@ frame_needed = 0, uses_anonymous_args = 0
 1076              	.LVL146:
 1077 0000 F0B5     		push	{r4, r5, r6, r7, lr}
 1078              		.cfi_def_cfa_offset 20
 1079              		.cfi_offset 4, -20
 1080              		.cfi_offset 5, -16
ARM GAS  C:\Users\Greg\AppData\Local\Temp\cct7TZoA.s 			page 31


 1081              		.cfi_offset 6, -12
 1082              		.cfi_offset 7, -8
 1083              		.cfi_offset 14, -4
 258:..\..\u8g2\csrc/u8x8_byte.c ****   {
 1084              		.loc 1 258 0
 1085 0002 1439     		subs	r1, r1, #20
 1086              	.LVL147:
 250:..\..\u8g2\csrc/u8x8_byte.c ****   uint8_t i;
 1087              		.loc 1 250 0
 1088 0004 0400     		movs	r4, r0
 1089 0006 1E00     		movs	r6, r3
 1090 0008 85B0     		sub	sp, sp, #20
 1091              		.cfi_def_cfa_offset 40
 253:..\..\u8g2\csrc/u8x8_byte.c ****   uint8_t not_takeover_edge = 1 - takeover_edge;
 1092              		.loc 1 253 0
 1093 000a 0368     		ldr	r3, [r0]
 1094              	.LVL148:
 258:..\..\u8g2\csrc/u8x8_byte.c ****   {
 1095              		.loc 1 258 0
 1096 000c 0800     		movs	r0, r1
 1097              	.LVL149:
 1098 000e 0C29     		cmp	r1, #12
 1099 0010 6ED8     		bhi	.L77
 1100 0012 FFF7FEFF 		bl	__gnu_thumb1_case_uqi
 1101              	.L66:
 1102 0016 44       		.byte	(.L65-.L66)/2
 1103 0017 6D       		.byte	(.L77-.L66)/2
 1104 0018 6D       		.byte	(.L77-.L66)/2
 1105 0019 07       		.byte	(.L67-.L66)/2
 1106 001a 52       		.byte	(.L68-.L66)/2
 1107 001b 5F       		.byte	(.L69-.L66)/2
 1108 001c 6D       		.byte	(.L77-.L66)/2
 1109 001d 6D       		.byte	(.L77-.L66)/2
 1110 001e 6D       		.byte	(.L77-.L66)/2
 1111 001f 6D       		.byte	(.L77-.L66)/2
 1112 0020 6D       		.byte	(.L77-.L66)/2
 1113 0021 6D       		.byte	(.L77-.L66)/2
 1114 0022 4F       		.byte	(.L70-.L66)/2
 1115 0023 00       		.p2align 1
 1116              	.L67:
 253:..\..\u8g2\csrc/u8x8_byte.c ****   uint8_t not_takeover_edge = 1 - takeover_edge;
 1117              		.loc 1 253 0
 1118 0024 197B     		ldrb	r1, [r3, #12]
 1119 0026 0123     		movs	r3, #1
 1120              	.LVL150:
 1121 0028 1940     		ands	r1, r3
 1122 002a B318     		adds	r3, r6, r2
 1123 002c 0191     		str	r1, [sp, #4]
 1124 002e 0293     		str	r3, [sp, #8]
 1125              	.LVL151:
 1126              	.L71:
 262:..\..\u8g2\csrc/u8x8_byte.c ****       {
 1127              		.loc 1 262 0
 1128 0030 029B     		ldr	r3, [sp, #8]
 1129 0032 9E42     		cmp	r6, r3
 1130 0034 5AD0     		beq	.L83
 265:..\..\u8g2\csrc/u8x8_byte.c **** 	  b |= 256;
ARM GAS  C:\Users\Greg\AppData\Local\Temp\cct7TZoA.s 			page 32


 1131              		.loc 1 265 0
 1132 0036 304B     		ldr	r3, .L85
 264:..\..\u8g2\csrc/u8x8_byte.c **** 	if ( last_dc != 0 )
 1133              		.loc 1 264 0
 1134 0038 3578     		ldrb	r5, [r6]
 1135              	.LVL152:
 265:..\..\u8g2\csrc/u8x8_byte.c **** 	  b |= 256;
 1136              		.loc 1 265 0
 1137 003a 1B78     		ldrb	r3, [r3]
 1138 003c 002B     		cmp	r3, #0
 1139 003e 02D0     		beq	.L72
 266:..\..\u8g2\csrc/u8x8_byte.c **** 	data++;
 1140              		.loc 1 266 0
 1141 0040 8023     		movs	r3, #128
 1142 0042 5B00     		lsls	r3, r3, #1
 1143 0044 1D43     		orrs	r5, r3
 1144              	.LVL153:
 1145              	.L72:
 277:..\..\u8g2\csrc/u8x8_byte.c **** 	  u8x8_gpio_Delay(u8x8, U8X8_MSG_DELAY_NANO, u8x8->display_info->sda_setup_time_ns);
 1146              		.loc 1 277 0
 1147 0046 0123     		movs	r3, #1
 267:..\..\u8g2\csrc/u8x8_byte.c **** 	arg_int--;
 1148              		.loc 1 267 0
 1149 0048 0927     		movs	r7, #9
 277:..\..\u8g2\csrc/u8x8_byte.c **** 	  u8x8_gpio_Delay(u8x8, U8X8_MSG_DELAY_NANO, u8x8->display_info->sda_setup_time_ns);
 1150              		.loc 1 277 0
 1151 004a 019A     		ldr	r2, [sp, #4]
 267:..\..\u8g2\csrc/u8x8_byte.c **** 	arg_int--;
 1152              		.loc 1 267 0
 1153 004c 0136     		adds	r6, r6, #1
 1154              	.LVL154:
 277:..\..\u8g2\csrc/u8x8_byte.c **** 	  u8x8_gpio_Delay(u8x8, U8X8_MSG_DELAY_NANO, u8x8->display_info->sda_setup_time_ns);
 1155              		.loc 1 277 0
 1156 004e 5A40     		eors	r2, r3
 1157 0050 0392     		str	r2, [sp, #12]
 1158              	.LVL155:
 1159              	.L75:
 271:..\..\u8g2\csrc/u8x8_byte.c **** 	    u8x8_gpio_SetSPIData(u8x8, 1);
 1160              		.loc 1 271 0
 1161 0052 8022     		movs	r2, #128
 1162 0054 5200     		lsls	r2, r2, #1
 1163 0056 2A40     		ands	r2, r5
 1164 0058 00D0     		beq	.L73
 272:..\..\u8g2\csrc/u8x8_byte.c **** 	  else
 1165              		.loc 1 272 0
 1166 005a 0122     		movs	r2, #1
 1167              	.L73:
 274:..\..\u8g2\csrc/u8x8_byte.c **** 	  b <<= 1;
 1168              		.loc 1 274 0
 1169 005c 4121     		movs	r1, #65
 1170 005e 2000     		movs	r0, r4
 1171 0060 FFF7FEFF 		bl	u8x8_gpio_call
 1172              	.LVL156:
 277:..\..\u8g2\csrc/u8x8_byte.c **** 	  u8x8_gpio_Delay(u8x8, U8X8_MSG_DELAY_NANO, u8x8->display_info->sda_setup_time_ns);
 1173              		.loc 1 277 0
 1174 0064 039A     		ldr	r2, [sp, #12]
 1175 0066 4021     		movs	r1, #64
ARM GAS  C:\Users\Greg\AppData\Local\Temp\cct7TZoA.s 			page 33


 1176 0068 2000     		movs	r0, r4
 1177 006a FFF7FEFF 		bl	u8x8_gpio_call
 1178              	.LVL157:
 278:..\..\u8g2\csrc/u8x8_byte.c **** 	  u8x8_gpio_SetSPIClock(u8x8, takeover_edge);
 1179              		.loc 1 278 0
 1180 006e 2368     		ldr	r3, [r4]
 1181 0070 2C21     		movs	r1, #44
 1182 0072 9A79     		ldrb	r2, [r3, #6]
 1183 0074 2000     		movs	r0, r4
 1184 0076 FFF7FEFF 		bl	u8x8_gpio_call
 1185              	.LVL158:
 279:..\..\u8g2\csrc/u8x8_byte.c **** 	  u8x8_gpio_Delay(u8x8, U8X8_MSG_DELAY_NANO, u8x8->display_info->sck_pulse_width_ns);
 1186              		.loc 1 279 0
 1187 007a 019A     		ldr	r2, [sp, #4]
 1188 007c 4021     		movs	r1, #64
 1189 007e 2000     		movs	r0, r4
 1190 0080 FFF7FEFF 		bl	u8x8_gpio_call
 1191              	.LVL159:
 280:..\..\u8g2\csrc/u8x8_byte.c **** 	}    
 1192              		.loc 1 280 0
 1193 0084 2368     		ldr	r3, [r4]
 1194 0086 013F     		subs	r7, r7, #1
 1195              	.LVL160:
 275:..\..\u8g2\csrc/u8x8_byte.c **** 	  
 1196              		.loc 1 275 0
 1197 0088 6D00     		lsls	r5, r5, #1
 1198              	.LVL161:
 280:..\..\u8g2\csrc/u8x8_byte.c **** 	}    
 1199              		.loc 1 280 0
 1200 008a DA79     		ldrb	r2, [r3, #7]
 1201 008c 2C21     		movs	r1, #44
 1202 008e 2000     		movs	r0, r4
 1203 0090 FFB2     		uxtb	r7, r7
 275:..\..\u8g2\csrc/u8x8_byte.c **** 	  
 1204              		.loc 1 275 0
 1205 0092 ADB2     		uxth	r5, r5
 1206              	.LVL162:
 280:..\..\u8g2\csrc/u8x8_byte.c **** 	}    
 1207              		.loc 1 280 0
 1208 0094 FFF7FEFF 		bl	u8x8_gpio_call
 1209              	.LVL163:
 269:..\..\u8g2\csrc/u8x8_byte.c **** 	{
 1210              		.loc 1 269 0
 1211 0098 002F     		cmp	r7, #0
 1212 009a DAD1     		bne	.L75
 1213 009c C8E7     		b	.L71
 1214              	.LVL164:
 1215              	.L65:
 291:..\..\u8g2\csrc/u8x8_byte.c ****       break;
 1216              		.loc 1 291 0
 1217 009e 0125     		movs	r5, #1
 287:..\..\u8g2\csrc/u8x8_byte.c ****       /* no wait required here */
 1218              		.loc 1 287 0
 1219 00a0 5A78     		ldrb	r2, [r3, #1]
 1220              	.LVL165:
 1221 00a2 4921     		movs	r1, #73
 1222 00a4 2000     		movs	r0, r4
ARM GAS  C:\Users\Greg\AppData\Local\Temp\cct7TZoA.s 			page 34


 1223 00a6 FFF7FEFF 		bl	u8x8_gpio_call
 1224              	.LVL166:
 291:..\..\u8g2\csrc/u8x8_byte.c ****       break;
 1225              		.loc 1 291 0
 1226 00aa 2368     		ldr	r3, [r4]
 1227 00ac 4021     		movs	r1, #64
 1228 00ae 1A7B     		ldrb	r2, [r3, #12]
 1229 00b0 2A40     		ands	r2, r5
 1230 00b2 18E0     		b	.L84
 1231              	.LVL167:
 1232              	.L70:
 294:..\..\u8g2\csrc/u8x8_byte.c ****       break;
 1233              		.loc 1 294 0
 1234 00b4 104B     		ldr	r3, .L85
 1235              	.LVL168:
 1236 00b6 1A70     		strb	r2, [r3]
 1237 00b8 18E0     		b	.L83
 1238              	.LVL169:
 1239              	.L68:
 297:..\..\u8g2\csrc/u8x8_byte.c ****       u8x8->gpio_and_delay_cb(u8x8, U8X8_MSG_DELAY_NANO, u8x8->display_info->post_chip_enable_wait_
 1240              		.loc 1 297 0
 1241 00ba 1A78     		ldrb	r2, [r3]
 1242              	.LVL170:
 1243 00bc 2000     		movs	r0, r4
 1244 00be 4921     		movs	r1, #73
 1245 00c0 FFF7FEFF 		bl	u8x8_gpio_call
 1246              	.LVL171:
 298:..\..\u8g2\csrc/u8x8_byte.c ****       break;
 1247              		.loc 1 298 0
 1248 00c4 2368     		ldr	r3, [r4]
 1249 00c6 6569     		ldr	r5, [r4, #20]
 1250 00c8 9A78     		ldrb	r2, [r3, #2]
 1251 00ca 2C21     		movs	r1, #44
 1252 00cc 0023     		movs	r3, #0
 1253 00ce 2000     		movs	r0, r4
 1254 00d0 A847     		blx	r5
 1255              	.LVL172:
 1256 00d2 0BE0     		b	.L83
 1257              	.LVL173:
 1258              	.L69:
 301:..\..\u8g2\csrc/u8x8_byte.c ****       u8x8_gpio_SetCS(u8x8, u8x8->display_info->chip_disable_level);
 1259              		.loc 1 301 0
 1260 00d4 DA78     		ldrb	r2, [r3, #3]
 1261              	.LVL174:
 1262 00d6 2C21     		movs	r1, #44
 1263 00d8 0023     		movs	r3, #0
 1264              	.LVL175:
 1265 00da 2000     		movs	r0, r4
 1266 00dc 6569     		ldr	r5, [r4, #20]
 1267 00de A847     		blx	r5
 1268              	.LVL176:
 302:..\..\u8g2\csrc/u8x8_byte.c ****       break;
 1269              		.loc 1 302 0
 1270 00e0 4921     		movs	r1, #73
 1271 00e2 2368     		ldr	r3, [r4]
 1272 00e4 5A78     		ldrb	r2, [r3, #1]
 1273              	.L84:
ARM GAS  C:\Users\Greg\AppData\Local\Temp\cct7TZoA.s 			page 35


 1274 00e6 2000     		movs	r0, r4
 1275 00e8 FFF7FEFF 		bl	u8x8_gpio_call
 1276              	.LVL177:
 1277              	.L83:
 307:..\..\u8g2\csrc/u8x8_byte.c **** }
 1278              		.loc 1 307 0
 1279 00ec 0120     		movs	r0, #1
 303:..\..\u8g2\csrc/u8x8_byte.c ****     default:
 1280              		.loc 1 303 0
 1281 00ee 00E0     		b	.L64
 1282              	.LVL178:
 1283              	.L77:
 305:..\..\u8g2\csrc/u8x8_byte.c ****   }
 1284              		.loc 1 305 0
 1285 00f0 0020     		movs	r0, #0
 1286              	.LVL179:
 1287              	.L64:
 308:..\..\u8g2\csrc/u8x8_byte.c **** 
 1288              		.loc 1 308 0
 1289 00f2 05B0     		add	sp, sp, #20
 1290              		@ sp needed
 1291              	.LVL180:
 1292 00f4 F0BD     		pop	{r4, r5, r6, r7, pc}
 1293              	.L86:
 1294 00f6 C046     		.align	2
 1295              	.L85:
 1296 00f8 00000000 		.word	.LANCHOR0
 1297              		.cfi_endproc
 1298              	.LFE8:
 1299              		.size	u8x8_byte_3wire_sw_spi, .-u8x8_byte_3wire_sw_spi
 1300              		.section	.text.u8x8_byte_set_ks0108_cs,"ax",%progbits
 1301              		.align	1
 1302              		.global	u8x8_byte_set_ks0108_cs
 1303              		.code	16
 1304              		.thumb_func
 1305              		.type	u8x8_byte_set_ks0108_cs, %function
 1306              	u8x8_byte_set_ks0108_cs:
 1307              	.LFB9:
 313:..\..\u8g2\csrc/u8x8_byte.c ****   u8x8_gpio_SetCS(u8x8, arg&1);
 1308              		.loc 1 313 0
 1309              		.cfi_startproc
 1310              		@ args = 0, pretend = 0, frame = 0
 1311              		@ frame_needed = 0, uses_anonymous_args = 0
 1312              	.LVL181:
 1313 0000 70B5     		push	{r4, r5, r6, lr}
 1314              		.cfi_def_cfa_offset 16
 1315              		.cfi_offset 4, -16
 1316              		.cfi_offset 5, -12
 1317              		.cfi_offset 6, -8
 1318              		.cfi_offset 14, -4
 314:..\..\u8g2\csrc/u8x8_byte.c ****   arg = arg >> 1;
 1319              		.loc 1 314 0
 1320 0002 0125     		movs	r5, #1
 313:..\..\u8g2\csrc/u8x8_byte.c ****   u8x8_gpio_SetCS(u8x8, arg&1);
 1321              		.loc 1 313 0
 1322 0004 0C00     		movs	r4, r1
 314:..\..\u8g2\csrc/u8x8_byte.c ****   arg = arg >> 1;
ARM GAS  C:\Users\Greg\AppData\Local\Temp\cct7TZoA.s 			page 36


 1323              		.loc 1 314 0
 1324 0006 0A00     		movs	r2, r1
 315:..\..\u8g2\csrc/u8x8_byte.c ****   u8x8_gpio_call(u8x8, U8X8_MSG_GPIO_CS1, arg&1);
 1325              		.loc 1 315 0
 1326 0008 EC40     		lsrs	r4, r4, r5
 314:..\..\u8g2\csrc/u8x8_byte.c ****   arg = arg >> 1;
 1327              		.loc 1 314 0
 1328 000a 2A40     		ands	r2, r5
 1329 000c 4921     		movs	r1, #73
 1330              	.LVL182:
 313:..\..\u8g2\csrc/u8x8_byte.c ****   u8x8_gpio_SetCS(u8x8, arg&1);
 1331              		.loc 1 313 0
 1332 000e 0600     		movs	r6, r0
 314:..\..\u8g2\csrc/u8x8_byte.c ****   arg = arg >> 1;
 1333              		.loc 1 314 0
 1334 0010 FFF7FEFF 		bl	u8x8_gpio_call
 1335              	.LVL183:
 316:..\..\u8g2\csrc/u8x8_byte.c ****   arg = arg >> 2;
 1336              		.loc 1 316 0
 1337 0014 2200     		movs	r2, r4
 1338 0016 3000     		movs	r0, r6
 1339 0018 2A40     		ands	r2, r5
 1340 001a 4E21     		movs	r1, #78
 318:..\..\u8g2\csrc/u8x8_byte.c **** }
 1341              		.loc 1 318 0
 1342 001c A408     		lsrs	r4, r4, #2
 1343              	.LVL184:
 316:..\..\u8g2\csrc/u8x8_byte.c ****   arg = arg >> 2;
 1344              		.loc 1 316 0
 1345 001e FFF7FEFF 		bl	u8x8_gpio_call
 1346              	.LVL185:
 318:..\..\u8g2\csrc/u8x8_byte.c **** }
 1347              		.loc 1 318 0
 1348 0022 2200     		movs	r2, r4
 1349 0024 3000     		movs	r0, r6
 1350 0026 2A40     		ands	r2, r5
 1351 0028 4F21     		movs	r1, #79
 1352 002a FFF7FEFF 		bl	u8x8_gpio_call
 1353              	.LVL186:
 319:..\..\u8g2\csrc/u8x8_byte.c **** 
 1354              		.loc 1 319 0
 1355              		@ sp needed
 1356              	.LVL187:
 1357 002e 70BD     		pop	{r4, r5, r6, pc}
 1358              		.cfi_endproc
 1359              	.LFE9:
 1360              		.size	u8x8_byte_set_ks0108_cs, .-u8x8_byte_set_ks0108_cs
 1361              		.section	.text.u8x8_byte_ks0108,"ax",%progbits
 1362              		.align	1
 1363              		.global	u8x8_byte_ks0108
 1364              		.code	16
 1365              		.thumb_func
 1366              		.type	u8x8_byte_ks0108, %function
 1367              	u8x8_byte_ks0108:
 1368              	.LFB10:
 323:..\..\u8g2\csrc/u8x8_byte.c ****   uint8_t i, b;
 1369              		.loc 1 323 0
ARM GAS  C:\Users\Greg\AppData\Local\Temp\cct7TZoA.s 			page 37


 1370              		.cfi_startproc
 1371              		@ args = 0, pretend = 0, frame = 8
 1372              		@ frame_needed = 0, uses_anonymous_args = 0
 1373              	.LVL188:
 1374 0000 F7B5     		push	{r0, r1, r2, r4, r5, r6, r7, lr}
 1375              		.cfi_def_cfa_offset 32
 1376              		.cfi_offset 0, -32
 1377              		.cfi_offset 1, -28
 1378              		.cfi_offset 2, -24
 1379              		.cfi_offset 4, -20
 1380              		.cfi_offset 5, -16
 1381              		.cfi_offset 6, -12
 1382              		.cfi_offset 7, -8
 1383              		.cfi_offset 14, -4
 327:..\..\u8g2\csrc/u8x8_byte.c ****   {
 1384              		.loc 1 327 0
 1385 0002 1439     		subs	r1, r1, #20
 1386              	.LVL189:
 323:..\..\u8g2\csrc/u8x8_byte.c ****   uint8_t i, b;
 1387              		.loc 1 323 0
 1388 0004 0400     		movs	r4, r0
 1389 0006 1500     		movs	r5, r2
 1390 0008 1E00     		movs	r6, r3
 327:..\..\u8g2\csrc/u8x8_byte.c ****   {
 1391              		.loc 1 327 0
 1392 000a 0800     		movs	r0, r1
 1393              	.LVL190:
 1394 000c 0C29     		cmp	r1, #12
 1395 000e 59D8     		bhi	.L99
 1396 0010 FFF7FEFF 		bl	__gnu_thumb1_case_uqi
 1397              	.L91:
 1398 0014 31       		.byte	(.L90-.L91)/2
 1399 0015 58       		.byte	(.L99-.L91)/2
 1400 0016 58       		.byte	(.L99-.L91)/2
 1401 0017 07       		.byte	(.L92-.L91)/2
 1402 0018 40       		.byte	(.L93-.L91)/2
 1403 0019 4C       		.byte	(.L94-.L91)/2
 1404 001a 58       		.byte	(.L99-.L91)/2
 1405 001b 58       		.byte	(.L99-.L91)/2
 1406 001c 58       		.byte	(.L99-.L91)/2
 1407 001d 58       		.byte	(.L99-.L91)/2
 1408 001e 58       		.byte	(.L99-.L91)/2
 1409 001f 58       		.byte	(.L99-.L91)/2
 1410 0020 3E       		.byte	(.L95-.L91)/2
 1411 0021 00       		.p2align 1
 1412              	.L92:
 1413 0022 9B18     		adds	r3, r3, r2
 1414              	.LVL191:
 1415 0024 0193     		str	r3, [sp, #4]
 1416              	.LVL192:
 1417              	.L96:
 331:..\..\u8g2\csrc/u8x8_byte.c ****       {
 1418              		.loc 1 331 0
 1419 0026 019B     		ldr	r3, [sp, #4]
 1420 0028 9E42     		cmp	r6, r3
 1421 002a 2FD0     		beq	.L101
 336:..\..\u8g2\csrc/u8x8_byte.c **** 	{
ARM GAS  C:\Users\Greg\AppData\Local\Temp\cct7TZoA.s 			page 38


 1422              		.loc 1 336 0
 1423 002c 4025     		movs	r5, #64
 333:..\..\u8g2\csrc/u8x8_byte.c **** 	data++;
 1424              		.loc 1 333 0
 1425 002e 3778     		ldrb	r7, [r6]
 1426              	.LVL193:
 334:..\..\u8g2\csrc/u8x8_byte.c **** 	arg_int--;
 1427              		.loc 1 334 0
 1428 0030 0136     		adds	r6, r6, #1
 1429              	.LVL194:
 1430              	.L97:
 338:..\..\u8g2\csrc/u8x8_byte.c **** 	  b >>= 1;
 1431              		.loc 1 338 0 discriminator 3
 1432 0032 0122     		movs	r2, #1
 1433 0034 2900     		movs	r1, r5
 336:..\..\u8g2\csrc/u8x8_byte.c **** 	{
 1434              		.loc 1 336 0 discriminator 3
 1435 0036 0135     		adds	r5, r5, #1
 1436              	.LVL195:
 338:..\..\u8g2\csrc/u8x8_byte.c **** 	  b >>= 1;
 1437              		.loc 1 338 0 discriminator 3
 1438 0038 3A40     		ands	r2, r7
 1439 003a 2000     		movs	r0, r4
 336:..\..\u8g2\csrc/u8x8_byte.c **** 	{
 1440              		.loc 1 336 0 discriminator 3
 1441 003c EDB2     		uxtb	r5, r5
 338:..\..\u8g2\csrc/u8x8_byte.c **** 	  b >>= 1;
 1442              		.loc 1 338 0 discriminator 3
 1443 003e FFF7FEFF 		bl	u8x8_gpio_call
 1444              	.LVL196:
 339:..\..\u8g2\csrc/u8x8_byte.c **** 	}    
 1445              		.loc 1 339 0 discriminator 3
 1446 0042 7F08     		lsrs	r7, r7, #1
 1447              	.LVL197:
 336:..\..\u8g2\csrc/u8x8_byte.c **** 	{
 1448              		.loc 1 336 0 discriminator 3
 1449 0044 482D     		cmp	r5, #72
 1450 0046 F4D1     		bne	.L97
 342:..\..\u8g2\csrc/u8x8_byte.c **** 	u8x8_gpio_call(u8x8, U8X8_MSG_GPIO_E, 1);
 1451              		.loc 1 342 0
 1452 0048 2368     		ldr	r3, [r4]
 1453 004a 2000     		movs	r0, r4
 1454 004c 9A7B     		ldrb	r2, [r3, #14]
 1455 004e 2C21     		movs	r1, #44
 1456 0050 FFF7FEFF 		bl	u8x8_gpio_call
 1457              	.LVL198:
 343:..\..\u8g2\csrc/u8x8_byte.c **** 	u8x8_gpio_Delay(u8x8, U8X8_MSG_DELAY_NANO, u8x8->display_info->write_pulse_width_ns);
 1458              		.loc 1 343 0
 1459 0054 2900     		movs	r1, r5
 1460 0056 2000     		movs	r0, r4
 1461 0058 0122     		movs	r2, #1
 1462 005a FFF7FEFF 		bl	u8x8_gpio_call
 1463              	.LVL199:
 344:..\..\u8g2\csrc/u8x8_byte.c **** 	u8x8_gpio_call(u8x8, U8X8_MSG_GPIO_E, 0);
 1464              		.loc 1 344 0
 1465 005e 2368     		ldr	r3, [r4]
 1466 0060 2000     		movs	r0, r4
ARM GAS  C:\Users\Greg\AppData\Local\Temp\cct7TZoA.s 			page 39


 1467 0062 DA7B     		ldrb	r2, [r3, #15]
 1468 0064 2C21     		movs	r1, #44
 1469 0066 FFF7FEFF 		bl	u8x8_gpio_call
 1470              	.LVL200:
 345:..\..\u8g2\csrc/u8x8_byte.c ****       }
 1471              		.loc 1 345 0
 1472 006a 0022     		movs	r2, #0
 1473 006c 2900     		movs	r1, r5
 1474 006e 2000     		movs	r0, r4
 1475 0070 FFF7FEFF 		bl	u8x8_gpio_call
 1476              	.LVL201:
 1477 0074 D7E7     		b	.L96
 1478              	.LVL202:
 1479              	.L90:
 351:..\..\u8g2\csrc/u8x8_byte.c ****       /* ensure that the enable signal is low */
 1480              		.loc 1 351 0
 1481 0076 2368     		ldr	r3, [r4]
 1482              	.LVL203:
 1483 0078 4921     		movs	r1, #73
 1484 007a 5A78     		ldrb	r2, [r3, #1]
 1485              	.LVL204:
 1486 007c 2000     		movs	r0, r4
 1487 007e FFF7FEFF 		bl	u8x8_gpio_call
 1488              	.LVL205:
 353:..\..\u8g2\csrc/u8x8_byte.c ****       break;
 1489              		.loc 1 353 0
 1490 0082 0022     		movs	r2, #0
 1491 0084 4821     		movs	r1, #72
 1492              	.L102:
 1493 0086 2000     		movs	r0, r4
 1494 0088 FFF7FEFF 		bl	u8x8_gpio_call
 1495              	.LVL206:
 1496              	.L101:
 370:..\..\u8g2\csrc/u8x8_byte.c **** }
 1497              		.loc 1 370 0
 1498 008c 0120     		movs	r0, #1
 354:..\..\u8g2\csrc/u8x8_byte.c ****     case U8X8_MSG_BYTE_SET_DC:
 1499              		.loc 1 354 0
 1500 008e 1AE0     		b	.L89
 1501              	.LVL207:
 1502              	.L95:
 356:..\..\u8g2\csrc/u8x8_byte.c ****       break;
 1503              		.loc 1 356 0
 1504 0090 4A21     		movs	r1, #74
 1505 0092 F8E7     		b	.L102
 1506              	.L93:
 360:..\..\u8g2\csrc/u8x8_byte.c ****       u8x8->gpio_and_delay_cb(u8x8, U8X8_MSG_DELAY_NANO, u8x8->display_info->post_chip_enable_wait_
 1507              		.loc 1 360 0
 1508 0094 1100     		movs	r1, r2
 1509 0096 2000     		movs	r0, r4
 1510 0098 FFF7FEFF 		bl	u8x8_byte_set_ks0108_cs
 1511              	.LVL208:
 361:..\..\u8g2\csrc/u8x8_byte.c ****       break;
 1512              		.loc 1 361 0
 1513 009c 2368     		ldr	r3, [r4]
 1514 009e 6569     		ldr	r5, [r4, #20]
 1515 00a0 9A78     		ldrb	r2, [r3, #2]
ARM GAS  C:\Users\Greg\AppData\Local\Temp\cct7TZoA.s 			page 40


 1516 00a2 2C21     		movs	r1, #44
 1517 00a4 0023     		movs	r3, #0
 1518 00a6 2000     		movs	r0, r4
 1519 00a8 A847     		blx	r5
 1520              	.LVL209:
 1521 00aa EFE7     		b	.L101
 1522              	.LVL210:
 1523              	.L94:
 364:..\..\u8g2\csrc/u8x8_byte.c ****       u8x8_byte_set_ks0108_cs(u8x8, arg_int);
 1524              		.loc 1 364 0
 1525 00ac 2368     		ldr	r3, [r4]
 1526              	.LVL211:
 1527 00ae 2C21     		movs	r1, #44
 1528 00b0 DA78     		ldrb	r2, [r3, #3]
 1529              	.LVL212:
 1530 00b2 2000     		movs	r0, r4
 1531 00b4 0023     		movs	r3, #0
 1532 00b6 6669     		ldr	r6, [r4, #20]
 1533              	.LVL213:
 1534 00b8 B047     		blx	r6
 1535              	.LVL214:
 365:..\..\u8g2\csrc/u8x8_byte.c ****       break;
 1536              		.loc 1 365 0
 1537 00ba 2900     		movs	r1, r5
 1538 00bc 2000     		movs	r0, r4
 1539 00be FFF7FEFF 		bl	u8x8_byte_set_ks0108_cs
 1540              	.LVL215:
 1541 00c2 E3E7     		b	.L101
 1542              	.LVL216:
 1543              	.L99:
 368:..\..\u8g2\csrc/u8x8_byte.c ****   }
 1544              		.loc 1 368 0
 1545 00c4 0020     		movs	r0, #0
 1546              	.LVL217:
 1547              	.L89:
 371:..\..\u8g2\csrc/u8x8_byte.c **** 
 1548              		.loc 1 371 0
 1549              		@ sp needed
 1550              	.LVL218:
 1551 00c6 FEBD     		pop	{r1, r2, r3, r4, r5, r6, r7, pc}
 1552              		.cfi_endproc
 1553              	.LFE10:
 1554              		.size	u8x8_byte_ks0108, .-u8x8_byte_ks0108
 1555              		.section	.text.u8x8_byte_sw_i2c,"ax",%progbits
 1556              		.align	1
 1557              		.global	u8x8_byte_sw_i2c
 1558              		.code	16
 1559              		.thumb_func
 1560              		.type	u8x8_byte_sw_i2c, %function
 1561              	u8x8_byte_sw_i2c:
 1562              	.LFB22:
 498:..\..\u8g2\csrc/u8x8_byte.c **** 
 499:..\..\u8g2\csrc/u8x8_byte.c **** 
 500:..\..\u8g2\csrc/u8x8_byte.c **** 
 501:..\..\u8g2\csrc/u8x8_byte.c **** #ifdef OBSOLETE_HANDLED_BY_CAD_PROCEDURE
 502:..\..\u8g2\csrc/u8x8_byte.c **** uint8_t u8x8_byte_ssd13xx_sw_i2c(u8x8_t *u8x8, uint8_t msg, uint8_t arg_int, void *arg_ptr)
 503:..\..\u8g2\csrc/u8x8_byte.c **** {
ARM GAS  C:\Users\Greg\AppData\Local\Temp\cct7TZoA.s 			page 41


 504:..\..\u8g2\csrc/u8x8_byte.c ****   uint8_t *data;
 505:..\..\u8g2\csrc/u8x8_byte.c ****   static uint8_t last_dc = 0;
 506:..\..\u8g2\csrc/u8x8_byte.c ****   static uint8_t is_send_dc = 0;	/* instruction, whether i2c-start including dc has to be sent */
 507:..\..\u8g2\csrc/u8x8_byte.c ****  
 508:..\..\u8g2\csrc/u8x8_byte.c ****   switch(msg)
 509:..\..\u8g2\csrc/u8x8_byte.c ****   {
 510:..\..\u8g2\csrc/u8x8_byte.c ****     case U8X8_MSG_BYTE_SEND:
 511:..\..\u8g2\csrc/u8x8_byte.c ****       data = (uint8_t *)arg_ptr;
 512:..\..\u8g2\csrc/u8x8_byte.c ****     
 513:..\..\u8g2\csrc/u8x8_byte.c ****       if ( is_send_dc != 0 )
 514:..\..\u8g2\csrc/u8x8_byte.c ****       {
 515:..\..\u8g2\csrc/u8x8_byte.c **** 	
 516:..\..\u8g2\csrc/u8x8_byte.c **** 	i2c_start(u8x8);
 517:..\..\u8g2\csrc/u8x8_byte.c **** 	i2c_write_byte(u8x8, 0x078);		/* write slave adr and read/write bit */
 518:..\..\u8g2\csrc/u8x8_byte.c **** 	
 519:..\..\u8g2\csrc/u8x8_byte.c **** 	if ( last_dc == 0 )
 520:..\..\u8g2\csrc/u8x8_byte.c **** 	  i2c_write_byte(u8x8, 0);
 521:..\..\u8g2\csrc/u8x8_byte.c **** 	else
 522:..\..\u8g2\csrc/u8x8_byte.c **** 	  i2c_write_byte(u8x8, 0x040);
 523:..\..\u8g2\csrc/u8x8_byte.c **** 	is_send_dc = 0;
 524:..\..\u8g2\csrc/u8x8_byte.c ****       }
 525:..\..\u8g2\csrc/u8x8_byte.c ****     
 526:..\..\u8g2\csrc/u8x8_byte.c ****       while( arg_int > 0 )
 527:..\..\u8g2\csrc/u8x8_byte.c ****       {
 528:..\..\u8g2\csrc/u8x8_byte.c **** 	i2c_write_byte(u8x8, *data);
 529:..\..\u8g2\csrc/u8x8_byte.c **** 	data++;
 530:..\..\u8g2\csrc/u8x8_byte.c **** 	arg_int--;
 531:..\..\u8g2\csrc/u8x8_byte.c ****       }
 532:..\..\u8g2\csrc/u8x8_byte.c ****       
 533:..\..\u8g2\csrc/u8x8_byte.c ****       break;
 534:..\..\u8g2\csrc/u8x8_byte.c ****       
 535:..\..\u8g2\csrc/u8x8_byte.c ****     case U8X8_MSG_BYTE_INIT:
 536:..\..\u8g2\csrc/u8x8_byte.c ****       i2c_init(u8x8);
 537:..\..\u8g2\csrc/u8x8_byte.c ****       break;
 538:..\..\u8g2\csrc/u8x8_byte.c ****     case U8X8_MSG_BYTE_SET_DC:
 539:..\..\u8g2\csrc/u8x8_byte.c ****       if ( last_dc != arg_int )
 540:..\..\u8g2\csrc/u8x8_byte.c ****       {
 541:..\..\u8g2\csrc/u8x8_byte.c **** 	last_dc = arg_int;
 542:..\..\u8g2\csrc/u8x8_byte.c **** 	is_send_dc = 1;
 543:..\..\u8g2\csrc/u8x8_byte.c ****       }
 544:..\..\u8g2\csrc/u8x8_byte.c ****       break;
 545:..\..\u8g2\csrc/u8x8_byte.c ****     case U8X8_MSG_BYTE_START_TRANSFER:
 546:..\..\u8g2\csrc/u8x8_byte.c ****       last_dc = 0;
 547:..\..\u8g2\csrc/u8x8_byte.c ****       is_send_dc = 1;
 548:..\..\u8g2\csrc/u8x8_byte.c ****       break;
 549:..\..\u8g2\csrc/u8x8_byte.c ****     case U8X8_MSG_BYTE_END_TRANSFER:
 550:..\..\u8g2\csrc/u8x8_byte.c ****       i2c_stop(u8x8);
 551:..\..\u8g2\csrc/u8x8_byte.c ****       break;
 552:..\..\u8g2\csrc/u8x8_byte.c ****     default:
 553:..\..\u8g2\csrc/u8x8_byte.c ****       return 0;
 554:..\..\u8g2\csrc/u8x8_byte.c ****   }
 555:..\..\u8g2\csrc/u8x8_byte.c ****   return 1;
 556:..\..\u8g2\csrc/u8x8_byte.c **** }
 557:..\..\u8g2\csrc/u8x8_byte.c **** #endif
 558:..\..\u8g2\csrc/u8x8_byte.c **** 
 559:..\..\u8g2\csrc/u8x8_byte.c **** uint8_t u8x8_byte_sw_i2c(u8x8_t *u8x8, uint8_t msg, uint8_t arg_int, void *arg_ptr)
 560:..\..\u8g2\csrc/u8x8_byte.c **** {
ARM GAS  C:\Users\Greg\AppData\Local\Temp\cct7TZoA.s 			page 42


 1563              		.loc 1 560 0
 1564              		.cfi_startproc
 1565              		@ args = 0, pretend = 0, frame = 0
 1566              		@ frame_needed = 0, uses_anonymous_args = 0
 1567              	.LVL219:
 561:..\..\u8g2\csrc/u8x8_byte.c ****   uint8_t *data;
 562:..\..\u8g2\csrc/u8x8_byte.c ****  
 563:..\..\u8g2\csrc/u8x8_byte.c ****   switch(msg)
 1568              		.loc 1 563 0
 1569 0000 1439     		subs	r1, r1, #20
 1570              	.LVL220:
 560:..\..\u8g2\csrc/u8x8_byte.c ****   uint8_t *data;
 1571              		.loc 1 560 0
 1572 0002 70B5     		push	{r4, r5, r6, lr}
 1573              		.cfi_def_cfa_offset 16
 1574              		.cfi_offset 4, -16
 1575              		.cfi_offset 5, -12
 1576              		.cfi_offset 6, -8
 1577              		.cfi_offset 14, -4
 560:..\..\u8g2\csrc/u8x8_byte.c ****   uint8_t *data;
 1578              		.loc 1 560 0
 1579 0004 0400     		movs	r4, r0
 1580 0006 1D00     		movs	r5, r3
 1581              		.loc 1 563 0
 1582 0008 0800     		movs	r0, r1
 1583              	.LVL221:
 1584 000a 0C29     		cmp	r1, #12
 1585 000c 5AD8     		bhi	.L114
 1586 000e FFF7FEFF 		bl	__gnu_thumb1_case_uqi
 1587              	.L106:
 1588 0012 10       		.byte	(.L105-.L106)/2
 1589 0013 59       		.byte	(.L114-.L106)/2
 1590 0014 59       		.byte	(.L114-.L106)/2
 1591 0015 07       		.byte	(.L107-.L106)/2
 1592 0016 1E       		.byte	(.L108-.L106)/2
 1593 0017 43       		.byte	(.L109-.L106)/2
 1594 0018 59       		.byte	(.L114-.L106)/2
 1595 0019 59       		.byte	(.L114-.L106)/2
 1596 001a 59       		.byte	(.L114-.L106)/2
 1597 001b 59       		.byte	(.L114-.L106)/2
 1598 001c 59       		.byte	(.L114-.L106)/2
 1599 001d 59       		.byte	(.L114-.L106)/2
 1600 001e 57       		.byte	(.L119-.L106)/2
 1601 001f 00       		.p2align 1
 1602              	.L107:
 1603 0020 9E18     		adds	r6, r3, r2
 1604              	.LVL222:
 1605              	.L111:
 564:..\..\u8g2\csrc/u8x8_byte.c ****   {
 565:..\..\u8g2\csrc/u8x8_byte.c ****     case U8X8_MSG_BYTE_SEND:
 566:..\..\u8g2\csrc/u8x8_byte.c ****       data = (uint8_t *)arg_ptr;
 567:..\..\u8g2\csrc/u8x8_byte.c ****       
 568:..\..\u8g2\csrc/u8x8_byte.c ****       while( arg_int > 0 )
 1606              		.loc 1 568 0
 1607 0022 B542     		cmp	r5, r6
 1608 0024 4CD0     		beq	.L119
 569:..\..\u8g2\csrc/u8x8_byte.c ****       {
ARM GAS  C:\Users\Greg\AppData\Local\Temp\cct7TZoA.s 			page 43


 570:..\..\u8g2\csrc/u8x8_byte.c **** 	i2c_write_byte(u8x8, *data);
 1609              		.loc 1 570 0
 1610 0026 2978     		ldrb	r1, [r5]
 1611 0028 2000     		movs	r0, r4
 1612 002a FFF7FEFF 		bl	i2c_write_byte
 1613              	.LVL223:
 571:..\..\u8g2\csrc/u8x8_byte.c **** 	data++;
 1614              		.loc 1 571 0
 1615 002e 0135     		adds	r5, r5, #1
 1616              	.LVL224:
 1617 0030 F7E7     		b	.L111
 1618              	.LVL225:
 1619              	.L105:
 1620              	.LBB30:
 1621              	.LBB31:
 391:..\..\u8g2\csrc/u8x8_byte.c ****   u8x8_gpio_SetI2CData(u8x8, 1);
 1622              		.loc 1 391 0
 1623 0032 2000     		movs	r0, r4
 1624 0034 0122     		movs	r2, #1
 1625              	.LVL226:
 1626 0036 4C21     		movs	r1, #76
 1627 0038 FFF7FEFF 		bl	u8x8_gpio_call
 1628              	.LVL227:
 392:..\..\u8g2\csrc/u8x8_byte.c ****   
 1629              		.loc 1 392 0
 1630 003c 2000     		movs	r0, r4
 1631 003e 0122     		movs	r2, #1
 1632 0040 4D21     		movs	r1, #77
 1633 0042 FFF7FEFF 		bl	u8x8_gpio_call
 1634              	.LVL228:
 394:..\..\u8g2\csrc/u8x8_byte.c **** }
 1635              		.loc 1 394 0
 1636 0046 2000     		movs	r0, r4
 1637 0048 FFF7FEFF 		bl	i2c_delay
 1638              	.LVL229:
 1639 004c 38E0     		b	.L119
 1640              	.LVL230:
 1641              	.L108:
 1642              	.LBE31:
 1643              	.LBE30:
 1644              	.LBB32:
 1645              	.LBB33:
 426:..\..\u8g2\csrc/u8x8_byte.c ****   {
 1646              		.loc 1 426 0
 1647 004e A61C     		adds	r6, r4, #2
 1648 0050 F37F     		ldrb	r3, [r6, #31]
 1649              	.LVL231:
 1650 0052 002B     		cmp	r3, #0
 1651 0054 08D0     		beq	.L113
 429:..\..\u8g2\csrc/u8x8_byte.c ****     i2c_delay(u8x8);
 1652              		.loc 1 429 0
 1653 0056 2000     		movs	r0, r4
 1654 0058 FFF7FEFF 		bl	i2c_read_sda
 1655              	.LVL232:
 430:..\..\u8g2\csrc/u8x8_byte.c ****     i2c_read_scl_and_delay(u8x8);
 1656              		.loc 1 430 0
 1657 005c 2000     		movs	r0, r4
ARM GAS  C:\Users\Greg\AppData\Local\Temp\cct7TZoA.s 			page 44


 1658 005e FFF7FEFF 		bl	i2c_delay
 1659              	.LVL233:
 431:..\..\u8g2\csrc/u8x8_byte.c ****   }
 1660              		.loc 1 431 0
 1661 0062 2000     		movs	r0, r4
 1662 0064 FFF7FEFF 		bl	i2c_read_scl_and_delay
 1663              	.LVL234:
 1664              	.L113:
 438:..\..\u8g2\csrc/u8x8_byte.c **** }
 1665              		.loc 1 438 0
 1666 0068 0125     		movs	r5, #1
 1667              	.LVL235:
 433:..\..\u8g2\csrc/u8x8_byte.c ****   /* send the start condition, both lines go from 1 to 0 */
 1668              		.loc 1 433 0
 1669 006a 2000     		movs	r0, r4
 1670 006c FFF7FEFF 		bl	i2c_read_sda
 1671              	.LVL236:
 1672              	.LBB34:
 1673              	.LBB35:
 421:..\..\u8g2\csrc/u8x8_byte.c **** }
 1674              		.loc 1 421 0
 1675 0070 0022     		movs	r2, #0
 1676 0072 4D21     		movs	r1, #77
 1677 0074 2000     		movs	r0, r4
 1678 0076 FFF7FEFF 		bl	u8x8_gpio_call
 1679              	.LVL237:
 1680              	.LBE35:
 1681              	.LBE34:
 436:..\..\u8g2\csrc/u8x8_byte.c ****   i2c_clear_scl(u8x8);
 1682              		.loc 1 436 0
 1683 007a 2000     		movs	r0, r4
 1684 007c FFF7FEFF 		bl	i2c_delay
 1685              	.LVL238:
 1686              	.LBB36:
 1687              	.LBB37:
 409:..\..\u8g2\csrc/u8x8_byte.c **** }
 1688              		.loc 1 409 0
 1689 0080 2000     		movs	r0, r4
 1690 0082 0022     		movs	r2, #0
 1691 0084 4C21     		movs	r1, #76
 1692 0086 FFF7FEFF 		bl	u8x8_gpio_call
 1693              	.LVL239:
 1694              	.LBE37:
 1695              	.LBE36:
 438:..\..\u8g2\csrc/u8x8_byte.c **** }
 1696              		.loc 1 438 0
 1697 008a F577     		strb	r5, [r6, #31]
 1698              	.LVL240:
 1699              	.LBE33:
 1700              	.LBE32:
 572:..\..\u8g2\csrc/u8x8_byte.c **** 	arg_int--;
 573:..\..\u8g2\csrc/u8x8_byte.c ****       }
 574:..\..\u8g2\csrc/u8x8_byte.c ****       
 575:..\..\u8g2\csrc/u8x8_byte.c ****       break;
 576:..\..\u8g2\csrc/u8x8_byte.c ****       
 577:..\..\u8g2\csrc/u8x8_byte.c ****     case U8X8_MSG_BYTE_INIT:
 578:..\..\u8g2\csrc/u8x8_byte.c ****       i2c_init(u8x8);
ARM GAS  C:\Users\Greg\AppData\Local\Temp\cct7TZoA.s 			page 45


 579:..\..\u8g2\csrc/u8x8_byte.c ****       break;
 580:..\..\u8g2\csrc/u8x8_byte.c ****     case U8X8_MSG_BYTE_SET_DC:
 581:..\..\u8g2\csrc/u8x8_byte.c ****       break;
 582:..\..\u8g2\csrc/u8x8_byte.c ****     case U8X8_MSG_BYTE_START_TRANSFER:
 583:..\..\u8g2\csrc/u8x8_byte.c ****       i2c_start(u8x8);
 584:..\..\u8g2\csrc/u8x8_byte.c ****       i2c_write_byte(u8x8, u8x8_GetI2CAddress(u8x8));
 1701              		.loc 1 584 0
 1702 008c 6319     		adds	r3, r4, r5
 1703 008e D97F     		ldrb	r1, [r3, #31]
 1704 0090 2000     		movs	r0, r4
 1705 0092 FFF7FEFF 		bl	i2c_write_byte
 1706              	.LVL241:
 1707 0096 13E0     		b	.L119
 1708              	.LVL242:
 1709              	.L109:
 1710              	.LBB38:
 1711              	.LBB39:
 1712              	.LBB40:
 1713              	.LBB41:
 421:..\..\u8g2\csrc/u8x8_byte.c **** }
 1714              		.loc 1 421 0
 1715 0098 0022     		movs	r2, #0
 1716              	.LVL243:
 1717 009a 4D21     		movs	r1, #77
 1718 009c 2000     		movs	r0, r4
 1719 009e FFF7FEFF 		bl	u8x8_gpio_call
 1720              	.LVL244:
 1721              	.LBE41:
 1722              	.LBE40:
 446:..\..\u8g2\csrc/u8x8_byte.c ****  
 1723              		.loc 1 446 0
 1724 00a2 2000     		movs	r0, r4
 1725 00a4 FFF7FEFF 		bl	i2c_delay
 1726              	.LVL245:
 449:..\..\u8g2\csrc/u8x8_byte.c ****  
 1727              		.loc 1 449 0
 1728 00a8 2000     		movs	r0, r4
 1729 00aa FFF7FEFF 		bl	i2c_read_scl_and_delay
 1730              	.LVL246:
 452:..\..\u8g2\csrc/u8x8_byte.c ****   i2c_delay(u8x8);
 1731              		.loc 1 452 0
 1732 00ae 2000     		movs	r0, r4
 1733 00b0 FFF7FEFF 		bl	i2c_read_sda
 1734              	.LVL247:
 453:..\..\u8g2\csrc/u8x8_byte.c ****   u8x8->i2c_started = 0;
 1735              		.loc 1 453 0
 1736 00b4 2000     		movs	r0, r4
 1737 00b6 FFF7FEFF 		bl	i2c_delay
 1738              	.LVL248:
 454:..\..\u8g2\csrc/u8x8_byte.c **** }
 1739              		.loc 1 454 0
 1740 00ba 0023     		movs	r3, #0
 1741 00bc 0234     		adds	r4, r4, #2
 1742              	.LVL249:
 1743 00be E377     		strb	r3, [r4, #31]
 1744              	.LVL250:
 1745              	.L119:
ARM GAS  C:\Users\Greg\AppData\Local\Temp\cct7TZoA.s 			page 46


 1746              	.LBE39:
 1747              	.LBE38:
 585:..\..\u8g2\csrc/u8x8_byte.c ****       //i2c_write_byte(u8x8, 0x078);
 586:..\..\u8g2\csrc/u8x8_byte.c ****       break;
 587:..\..\u8g2\csrc/u8x8_byte.c ****     case U8X8_MSG_BYTE_END_TRANSFER:
 588:..\..\u8g2\csrc/u8x8_byte.c ****       i2c_stop(u8x8);
 589:..\..\u8g2\csrc/u8x8_byte.c ****       break;
 590:..\..\u8g2\csrc/u8x8_byte.c ****     default:
 591:..\..\u8g2\csrc/u8x8_byte.c ****       return 0;
 592:..\..\u8g2\csrc/u8x8_byte.c ****   }
 593:..\..\u8g2\csrc/u8x8_byte.c ****   return 1;
 1748              		.loc 1 593 0
 1749 00c0 0120     		movs	r0, #1
 1750 00c2 00E0     		b	.L104
 1751              	.LVL251:
 1752              	.L114:
 591:..\..\u8g2\csrc/u8x8_byte.c ****   }
 1753              		.loc 1 591 0
 1754 00c4 0020     		movs	r0, #0
 1755              	.LVL252:
 1756              	.L104:
 594:..\..\u8g2\csrc/u8x8_byte.c **** }
 1757              		.loc 1 594 0
 1758              		@ sp needed
 1759 00c6 70BD     		pop	{r4, r5, r6, pc}
 1760              		.cfi_endproc
 1761              	.LFE22:
 1762              		.size	u8x8_byte_sw_i2c, .-u8x8_byte_sw_i2c
 1763              		.bss
 1764              		.set	.LANCHOR0,. + 0
 1765              		.type	last_dc.4957, %object
 1766              		.size	last_dc.4957, 1
 1767              	last_dc.4957:
 1768 0000 00       		.space	1
 1769              		.text
 1770              	.Letext0:
 1771              		.file 2 "c:\\program files\\cypress\\psoc creator\\4.1\\psoc creator\\import\\gnu\\arm\\5.4.1\\arm
 1772              		.file 3 "c:\\program files\\cypress\\psoc creator\\4.1\\psoc creator\\import\\gnu\\arm\\5.4.1\\arm
 1773              		.file 4 "..\\..\\u8g2\\csrc\\u8x8.h"