ARM GAS  C:\Users\gjl\AppData\Local\Temp\ccaUpWuc.s 			page 1


   1              		.syntax unified
   2              		.cpu cortex-m0
   3              		.fpu softvfp
   4              		.eabi_attribute 20, 1
   5              		.eabi_attribute 21, 1
   6              		.eabi_attribute 23, 3
   7              		.eabi_attribute 24, 1
   8              		.eabi_attribute 25, 1
   9              		.eabi_attribute 26, 1
  10              		.eabi_attribute 30, 4
  11              		.eabi_attribute 34, 0
  12              		.eabi_attribute 18, 4
  13              		.thumb
  14              		.syntax unified
  15              		.file	"u8x8_d_st7565.c"
  16              		.text
  17              	.Ltext0:
  18              		.cfi_sections	.debug_frame
  19              		.section	.text.u8x8_d_st7565_common,"ax",%progbits
  20              		.align	1
  21              		.global	u8x8_d_st7565_common
  22              		.code	16
  23              		.thumb_func
  24              		.type	u8x8_d_st7565_common, %function
  25              	u8x8_d_st7565_common:
  26              	.LFB0:
  27              		.file 1 "..\\..\\u8g2\\csrc\\u8x8_d_st7565.c"
   1:..\..\u8g2\csrc/u8x8_d_st7565.c **** /*
   2:..\..\u8g2\csrc/u8x8_d_st7565.c **** 
   3:..\..\u8g2\csrc/u8x8_d_st7565.c ****   u8x8_d_st7565.c
   4:..\..\u8g2\csrc/u8x8_d_st7565.c ****   also includes support for nt7534 
   5:..\..\u8g2\csrc/u8x8_d_st7565.c ****   
   6:..\..\u8g2\csrc/u8x8_d_st7565.c ****   Universal 8bit Graphics Library (https://github.com/olikraus/u8g2/)
   7:..\..\u8g2\csrc/u8x8_d_st7565.c **** 
   8:..\..\u8g2\csrc/u8x8_d_st7565.c ****   Copyright (c) 2016, olikraus@gmail.com
   9:..\..\u8g2\csrc/u8x8_d_st7565.c ****   All rights reserved.
  10:..\..\u8g2\csrc/u8x8_d_st7565.c **** 
  11:..\..\u8g2\csrc/u8x8_d_st7565.c ****   Redistribution and use in source and binary forms, with or without modification, 
  12:..\..\u8g2\csrc/u8x8_d_st7565.c ****   are permitted provided that the following conditions are met:
  13:..\..\u8g2\csrc/u8x8_d_st7565.c **** 
  14:..\..\u8g2\csrc/u8x8_d_st7565.c ****   * Redistributions of source code must retain the above copyright notice, this list 
  15:..\..\u8g2\csrc/u8x8_d_st7565.c ****     of conditions and the following disclaimer.
  16:..\..\u8g2\csrc/u8x8_d_st7565.c ****     
  17:..\..\u8g2\csrc/u8x8_d_st7565.c ****   * Redistributions in binary form must reproduce the above copyright notice, this 
  18:..\..\u8g2\csrc/u8x8_d_st7565.c ****     list of conditions and the following disclaimer in the documentation and/or other 
  19:..\..\u8g2\csrc/u8x8_d_st7565.c ****     materials provided with the distribution.
  20:..\..\u8g2\csrc/u8x8_d_st7565.c **** 
  21:..\..\u8g2\csrc/u8x8_d_st7565.c ****   THIS SOFTWARE IS PROVIDED BY THE COPYRIGHT HOLDERS AND 
  22:..\..\u8g2\csrc/u8x8_d_st7565.c ****   CONTRIBUTORS "AS IS" AND ANY EXPRESS OR IMPLIED WARRANTIES, 
  23:..\..\u8g2\csrc/u8x8_d_st7565.c ****   INCLUDING, BUT NOT LIMITED TO, THE IMPLIED WARRANTIES OF 
  24:..\..\u8g2\csrc/u8x8_d_st7565.c ****   MERCHANTABILITY AND FITNESS FOR A PARTICULAR PURPOSE ARE 
  25:..\..\u8g2\csrc/u8x8_d_st7565.c ****   DISCLAIMED. IN NO EVENT SHALL THE COPYRIGHT HOLDER OR 
  26:..\..\u8g2\csrc/u8x8_d_st7565.c ****   CONTRIBUTORS BE LIABLE FOR ANY DIRECT, INDIRECT, INCIDENTAL, 
  27:..\..\u8g2\csrc/u8x8_d_st7565.c ****   SPECIAL, EXEMPLARY, OR CONSEQUENTIAL DAMAGES (INCLUDING, BUT 
  28:..\..\u8g2\csrc/u8x8_d_st7565.c ****   NOT LIMITED TO, PROCUREMENT OF SUBSTITUTE GOODS OR SERVICES; 
  29:..\..\u8g2\csrc/u8x8_d_st7565.c ****   LOSS OF USE, DATA, OR PROFITS; OR BUSINESS INTERRUPTION) HOWEVER 
  30:..\..\u8g2\csrc/u8x8_d_st7565.c ****   CAUSED AND ON ANY THEORY OF LIABILITY, WHETHER IN CONTRACT, 
ARM GAS  C:\Users\gjl\AppData\Local\Temp\ccaUpWuc.s 			page 2


  31:..\..\u8g2\csrc/u8x8_d_st7565.c ****   STRICT LIABILITY, OR TORT (INCLUDING NEGLIGENCE OR OTHERWISE) 
  32:..\..\u8g2\csrc/u8x8_d_st7565.c ****   ARISING IN ANY WAY OUT OF THE USE OF THIS SOFTWARE, EVEN IF 
  33:..\..\u8g2\csrc/u8x8_d_st7565.c ****   ADVISED OF THE POSSIBILITY OF SUCH DAMAGE.  
  34:..\..\u8g2\csrc/u8x8_d_st7565.c **** 
  35:..\..\u8g2\csrc/u8x8_d_st7565.c ****   
  36:..\..\u8g2\csrc/u8x8_d_st7565.c **** */
  37:..\..\u8g2\csrc/u8x8_d_st7565.c **** #include "u8x8.h"
  38:..\..\u8g2\csrc/u8x8_d_st7565.c **** 
  39:..\..\u8g2\csrc/u8x8_d_st7565.c **** 
  40:..\..\u8g2\csrc/u8x8_d_st7565.c **** 
  41:..\..\u8g2\csrc/u8x8_d_st7565.c **** 
  42:..\..\u8g2\csrc/u8x8_d_st7565.c **** 
  43:..\..\u8g2\csrc/u8x8_d_st7565.c **** static const uint8_t u8x8_d_st7565_powersave0_seq[] = {
  44:..\..\u8g2\csrc/u8x8_d_st7565.c ****   U8X8_START_TRANSFER(),             	/* enable chip, delay is part of the transfer start */
  45:..\..\u8g2\csrc/u8x8_d_st7565.c ****   U8X8_C(0x0a4),		                /* all pixel off, issue 142 */
  46:..\..\u8g2\csrc/u8x8_d_st7565.c ****   U8X8_C(0x0af),		                /* display on */
  47:..\..\u8g2\csrc/u8x8_d_st7565.c ****   U8X8_END_TRANSFER(),             	/* disable chip */
  48:..\..\u8g2\csrc/u8x8_d_st7565.c ****   U8X8_END()             			/* end of sequence */
  49:..\..\u8g2\csrc/u8x8_d_st7565.c **** };
  50:..\..\u8g2\csrc/u8x8_d_st7565.c **** 
  51:..\..\u8g2\csrc/u8x8_d_st7565.c **** static const uint8_t u8x8_d_st7565_powersave1_seq[] = {
  52:..\..\u8g2\csrc/u8x8_d_st7565.c ****   U8X8_START_TRANSFER(),             	/* enable chip, delay is part of the transfer start */
  53:..\..\u8g2\csrc/u8x8_d_st7565.c ****   U8X8_C(0x0ae),		                /* display off */
  54:..\..\u8g2\csrc/u8x8_d_st7565.c ****   U8X8_C(0x0a5),		                /* enter powersafe: all pixel on, issue 142 */
  55:..\..\u8g2\csrc/u8x8_d_st7565.c ****   U8X8_END_TRANSFER(),             	/* disable chip */
  56:..\..\u8g2\csrc/u8x8_d_st7565.c ****   U8X8_END()             			/* end of sequence */
  57:..\..\u8g2\csrc/u8x8_d_st7565.c **** };
  58:..\..\u8g2\csrc/u8x8_d_st7565.c **** 
  59:..\..\u8g2\csrc/u8x8_d_st7565.c **** static const uint8_t u8x8_d_st7565_flip0_seq[] = {
  60:..\..\u8g2\csrc/u8x8_d_st7565.c ****   U8X8_START_TRANSFER(),             	/* enable chip, delay is part of the transfer start */
  61:..\..\u8g2\csrc/u8x8_d_st7565.c ****   U8X8_C(0x0a1),				/* segment remap a0/a1*/
  62:..\..\u8g2\csrc/u8x8_d_st7565.c ****   U8X8_C(0x0c0),				/* c0: scan dir normal, c8: reverse */
  63:..\..\u8g2\csrc/u8x8_d_st7565.c ****   U8X8_END_TRANSFER(),             	/* disable chip */
  64:..\..\u8g2\csrc/u8x8_d_st7565.c ****   U8X8_END()             			/* end of sequence */
  65:..\..\u8g2\csrc/u8x8_d_st7565.c **** };
  66:..\..\u8g2\csrc/u8x8_d_st7565.c **** 
  67:..\..\u8g2\csrc/u8x8_d_st7565.c **** static const uint8_t u8x8_d_st7565_flip1_seq[] = {
  68:..\..\u8g2\csrc/u8x8_d_st7565.c ****   U8X8_START_TRANSFER(),             	/* enable chip, delay is part of the transfer start */
  69:..\..\u8g2\csrc/u8x8_d_st7565.c ****   U8X8_C(0x0a0),				/* segment remap a0/a1*/
  70:..\..\u8g2\csrc/u8x8_d_st7565.c ****   U8X8_C(0x0c8),				/* c0: scan dir normal, c8: reverse */
  71:..\..\u8g2\csrc/u8x8_d_st7565.c ****   U8X8_END_TRANSFER(),             	/* disable chip */
  72:..\..\u8g2\csrc/u8x8_d_st7565.c ****   U8X8_END()             			/* end of sequence */
  73:..\..\u8g2\csrc/u8x8_d_st7565.c **** };
  74:..\..\u8g2\csrc/u8x8_d_st7565.c **** 
  75:..\..\u8g2\csrc/u8x8_d_st7565.c **** static const uint8_t u8x8_d_st7565_zflip0_seq[] = {
  76:..\..\u8g2\csrc/u8x8_d_st7565.c ****   U8X8_START_TRANSFER(),             	/* enable chip, delay is part of the transfer start */
  77:..\..\u8g2\csrc/u8x8_d_st7565.c ****   U8X8_C(0x0a1),				/* segment remap a0/a1*/
  78:..\..\u8g2\csrc/u8x8_d_st7565.c ****   U8X8_C(0x0c8),				/* c0: scan dir normal, c8: reverse */
  79:..\..\u8g2\csrc/u8x8_d_st7565.c ****   U8X8_END_TRANSFER(),             	/* disable chip */
  80:..\..\u8g2\csrc/u8x8_d_st7565.c ****   U8X8_END()             			/* end of sequence */
  81:..\..\u8g2\csrc/u8x8_d_st7565.c **** };
  82:..\..\u8g2\csrc/u8x8_d_st7565.c **** 
  83:..\..\u8g2\csrc/u8x8_d_st7565.c **** static const uint8_t u8x8_d_st7565_zflip1_seq[] = {
  84:..\..\u8g2\csrc/u8x8_d_st7565.c ****   U8X8_START_TRANSFER(),             	/* enable chip, delay is part of the transfer start */
  85:..\..\u8g2\csrc/u8x8_d_st7565.c ****   U8X8_C(0x0a0),				/* segment remap a0/a1*/
  86:..\..\u8g2\csrc/u8x8_d_st7565.c ****   U8X8_C(0x0c0),				/* c0: scan dir normal, c8: reverse */
  87:..\..\u8g2\csrc/u8x8_d_st7565.c ****   U8X8_END_TRANSFER(),             	/* disable chip */
ARM GAS  C:\Users\gjl\AppData\Local\Temp\ccaUpWuc.s 			page 3


  88:..\..\u8g2\csrc/u8x8_d_st7565.c ****   U8X8_END()             			/* end of sequence */
  89:..\..\u8g2\csrc/u8x8_d_st7565.c **** };
  90:..\..\u8g2\csrc/u8x8_d_st7565.c **** 
  91:..\..\u8g2\csrc/u8x8_d_st7565.c **** static const u8x8_display_info_t u8x8_st7565_128x64_display_info =
  92:..\..\u8g2\csrc/u8x8_d_st7565.c **** {
  93:..\..\u8g2\csrc/u8x8_d_st7565.c ****   /* chip_enable_level = */ 0,
  94:..\..\u8g2\csrc/u8x8_d_st7565.c ****   /* chip_disable_level = */ 1,
  95:..\..\u8g2\csrc/u8x8_d_st7565.c ****   
  96:..\..\u8g2\csrc/u8x8_d_st7565.c ****   /* post_chip_enable_wait_ns = */ 150,	/* st7565 datasheet, table 26, tcsh */
  97:..\..\u8g2\csrc/u8x8_d_st7565.c ****   /* pre_chip_disable_wait_ns = */ 50,	/* st7565 datasheet, table 26, tcss */
  98:..\..\u8g2\csrc/u8x8_d_st7565.c ****   /* reset_pulse_width_ms = */ 1, 
  99:..\..\u8g2\csrc/u8x8_d_st7565.c ****   /* post_reset_wait_ms = */ 1, 
 100:..\..\u8g2\csrc/u8x8_d_st7565.c ****   /* sda_setup_time_ns = */ 50,		/* st7565 datasheet, table 26, tsds */
 101:..\..\u8g2\csrc/u8x8_d_st7565.c ****   /* sck_pulse_width_ns = */ 120,	/* half of cycle time (100ns according to datasheet), AVR: below 
 102:..\..\u8g2\csrc/u8x8_d_st7565.c ****   /* sck_clock_hz = */ 4000000UL,	/* since Arduino 1.6.0, the SPI bus speed in Hz. Should be  10000
 103:..\..\u8g2\csrc/u8x8_d_st7565.c ****   /* spi_mode = */ 0,		/* active high, rising edge */
 104:..\..\u8g2\csrc/u8x8_d_st7565.c ****   /* i2c_bus_clock_100kHz = */ 4,
 105:..\..\u8g2\csrc/u8x8_d_st7565.c ****   /* data_setup_time_ns = */ 40,	/* st7565 datasheet, table 24, tds8 */
 106:..\..\u8g2\csrc/u8x8_d_st7565.c ****   /* write_pulse_width_ns = */ 80,	/* st7565 datasheet, table 24, tcclw */
 107:..\..\u8g2\csrc/u8x8_d_st7565.c ****   /* tile_width = */ 16,		/* width of 16*8=128 pixel */
 108:..\..\u8g2\csrc/u8x8_d_st7565.c ****   /* tile_hight = */ 8,
 109:..\..\u8g2\csrc/u8x8_d_st7565.c ****   /* default_x_offset = */ 0,
 110:..\..\u8g2\csrc/u8x8_d_st7565.c ****   /* flipmode_x_offset = */ 4,
 111:..\..\u8g2\csrc/u8x8_d_st7565.c ****   /* pixel_width = */ 128,
 112:..\..\u8g2\csrc/u8x8_d_st7565.c ****   /* pixel_height = */ 64
 113:..\..\u8g2\csrc/u8x8_d_st7565.c **** };
 114:..\..\u8g2\csrc/u8x8_d_st7565.c **** 
 115:..\..\u8g2\csrc/u8x8_d_st7565.c **** uint8_t u8x8_d_st7565_common(u8x8_t *u8x8, uint8_t msg, uint8_t arg_int, void *arg_ptr)
 116:..\..\u8g2\csrc/u8x8_d_st7565.c **** {
  28              		.loc 1 116 0
  29              		.cfi_startproc
  30              		@ args = 0, pretend = 0, frame = 8
  31              		@ frame_needed = 0, uses_anonymous_args = 0
  32              	.LVL0:
  33 0000 F7B5     		push	{r0, r1, r2, r4, r5, r6, r7, lr}
  34              		.cfi_def_cfa_offset 32
  35              		.cfi_offset 0, -32
  36              		.cfi_offset 1, -28
  37              		.cfi_offset 2, -24
  38              		.cfi_offset 4, -20
  39              		.cfi_offset 5, -16
  40              		.cfi_offset 6, -12
  41              		.cfi_offset 7, -8
  42              		.cfi_offset 14, -4
  43              		.loc 1 116 0
  44 0002 0400     		movs	r4, r0
  45 0004 0E00     		movs	r6, r1
  46 0006 1500     		movs	r5, r2
  47 0008 1F00     		movs	r7, r3
 117:..\..\u8g2\csrc/u8x8_d_st7565.c ****   uint8_t x, c;
 118:..\..\u8g2\csrc/u8x8_d_st7565.c ****   uint8_t *ptr;
 119:..\..\u8g2\csrc/u8x8_d_st7565.c ****   switch(msg)
  48              		.loc 1 119 0
  49 000a 0E29     		cmp	r1, #14
  50 000c 3ED0     		beq	.L3
  51 000e 0F29     		cmp	r1, #15
  52 0010 03D0     		beq	.L4
ARM GAS  C:\Users\gjl\AppData\Local\Temp\ccaUpWuc.s 			page 4


 120:..\..\u8g2\csrc/u8x8_d_st7565.c ****   {
 121:..\..\u8g2\csrc/u8x8_d_st7565.c ****     case U8X8_MSG_DISPLAY_DRAW_TILE:
 122:..\..\u8g2\csrc/u8x8_d_st7565.c ****       u8x8_cad_StartTransfer(u8x8);
 123:..\..\u8g2\csrc/u8x8_d_st7565.c ****     
 124:..\..\u8g2\csrc/u8x8_d_st7565.c ****       x = ((u8x8_tile_t *)arg_ptr)->x_pos;
 125:..\..\u8g2\csrc/u8x8_d_st7565.c ****       x *= 8;
 126:..\..\u8g2\csrc/u8x8_d_st7565.c ****       x += u8x8->x_offset;
 127:..\..\u8g2\csrc/u8x8_d_st7565.c ****       u8x8_cad_SendCmd(u8x8, 0x010 | (x>>4) );
 128:..\..\u8g2\csrc/u8x8_d_st7565.c ****       u8x8_cad_SendCmd(u8x8, 0x000 | ((x&15)));
 129:..\..\u8g2\csrc/u8x8_d_st7565.c ****       u8x8_cad_SendCmd(u8x8, 0x0b0 | (((u8x8_tile_t *)arg_ptr)->y_pos));
 130:..\..\u8g2\csrc/u8x8_d_st7565.c ****     
 131:..\..\u8g2\csrc/u8x8_d_st7565.c ****       c = ((u8x8_tile_t *)arg_ptr)->cnt;
 132:..\..\u8g2\csrc/u8x8_d_st7565.c ****       c *= 8;
 133:..\..\u8g2\csrc/u8x8_d_st7565.c ****       ptr = ((u8x8_tile_t *)arg_ptr)->tile_ptr;
 134:..\..\u8g2\csrc/u8x8_d_st7565.c ****       /* 
 135:..\..\u8g2\csrc/u8x8_d_st7565.c **** 	The following if condition checks the hardware limits of the st7565 
 136:..\..\u8g2\csrc/u8x8_d_st7565.c **** 	controller: It is not allowed to write beyond the display limits.
 137:..\..\u8g2\csrc/u8x8_d_st7565.c **** 	This is in fact an issue within flip mode.
 138:..\..\u8g2\csrc/u8x8_d_st7565.c ****       */
 139:..\..\u8g2\csrc/u8x8_d_st7565.c ****       if ( c + x > 132u )
 140:..\..\u8g2\csrc/u8x8_d_st7565.c ****       {
 141:..\..\u8g2\csrc/u8x8_d_st7565.c **** 	c = 132u;
 142:..\..\u8g2\csrc/u8x8_d_st7565.c **** 	c -= x;
 143:..\..\u8g2\csrc/u8x8_d_st7565.c ****       }
 144:..\..\u8g2\csrc/u8x8_d_st7565.c ****       do
 145:..\..\u8g2\csrc/u8x8_d_st7565.c ****       {
 146:..\..\u8g2\csrc/u8x8_d_st7565.c **** 	u8x8_cad_SendData(u8x8, c, ptr);	/* note: SendData can not handle more than 255 bytes */
 147:..\..\u8g2\csrc/u8x8_d_st7565.c **** 	arg_int--;
 148:..\..\u8g2\csrc/u8x8_d_st7565.c ****       } while( arg_int > 0 );
 149:..\..\u8g2\csrc/u8x8_d_st7565.c ****       
 150:..\..\u8g2\csrc/u8x8_d_st7565.c ****       u8x8_cad_EndTransfer(u8x8);
 151:..\..\u8g2\csrc/u8x8_d_st7565.c ****       break;
 152:..\..\u8g2\csrc/u8x8_d_st7565.c ****     /*	handled in the calling procedure 
 153:..\..\u8g2\csrc/u8x8_d_st7565.c ****     case U8X8_MSG_DISPLAY_SETUP_MEMORY:
 154:..\..\u8g2\csrc/u8x8_d_st7565.c ****       u8x8_d_helper_display_setup_memory(u8x8, &u8x8_st7565_128x64_display_info);
 155:..\..\u8g2\csrc/u8x8_d_st7565.c ****       break;
 156:..\..\u8g2\csrc/u8x8_d_st7565.c ****     case U8X8_MSG_DISPLAY_INIT:
 157:..\..\u8g2\csrc/u8x8_d_st7565.c ****       u8x8_d_helper_display_init(u8x8);
 158:..\..\u8g2\csrc/u8x8_d_st7565.c ****       u8x8_cad_SendSequence(u8x8, u8x8_d_uc1701_dogs102_init_seq);
 159:..\..\u8g2\csrc/u8x8_d_st7565.c ****       break;
 160:..\..\u8g2\csrc/u8x8_d_st7565.c ****     */
 161:..\..\u8g2\csrc/u8x8_d_st7565.c ****     case U8X8_MSG_DISPLAY_SET_POWER_SAVE:
 162:..\..\u8g2\csrc/u8x8_d_st7565.c ****       if ( arg_int == 0 )
 163:..\..\u8g2\csrc/u8x8_d_st7565.c **** 	u8x8_cad_SendSequence(u8x8, u8x8_d_st7565_powersave0_seq);
 164:..\..\u8g2\csrc/u8x8_d_st7565.c ****       else
 165:..\..\u8g2\csrc/u8x8_d_st7565.c **** 	u8x8_cad_SendSequence(u8x8, u8x8_d_st7565_powersave1_seq);
 166:..\..\u8g2\csrc/u8x8_d_st7565.c ****       break;
 167:..\..\u8g2\csrc/u8x8_d_st7565.c **** #ifdef U8X8_WITH_SET_CONTRAST
 168:..\..\u8g2\csrc/u8x8_d_st7565.c ****     case U8X8_MSG_DISPLAY_SET_CONTRAST:
 169:..\..\u8g2\csrc/u8x8_d_st7565.c ****       u8x8_cad_StartTransfer(u8x8);
 170:..\..\u8g2\csrc/u8x8_d_st7565.c ****       u8x8_cad_SendCmd(u8x8, 0x081 );
 171:..\..\u8g2\csrc/u8x8_d_st7565.c ****       u8x8_cad_SendArg(u8x8, arg_int >> 2 );	/* st7565 has range from 0 to 63 */
 172:..\..\u8g2\csrc/u8x8_d_st7565.c ****       u8x8_cad_EndTransfer(u8x8);
 173:..\..\u8g2\csrc/u8x8_d_st7565.c ****       break;
 174:..\..\u8g2\csrc/u8x8_d_st7565.c **** #endif
 175:..\..\u8g2\csrc/u8x8_d_st7565.c ****     default:
 176:..\..\u8g2\csrc/u8x8_d_st7565.c ****       return 0;
ARM GAS  C:\Users\gjl\AppData\Local\Temp\ccaUpWuc.s 			page 5


  53              		.loc 1 176 0
  54 0012 0020     		movs	r0, #0
  55              	.LVL1:
 119:..\..\u8g2\csrc/u8x8_d_st7565.c ****   {
  56              		.loc 1 119 0
  57 0014 0B29     		cmp	r1, #11
  58 0016 47D1     		bne	.L2
  59 0018 2FE0     		b	.L16
  60              	.LVL2:
  61              	.L4:
  62              	.LBB4:
  63              	.LBB5:
 122:..\..\u8g2\csrc/u8x8_d_st7565.c ****     
  64              		.loc 1 122 0
  65 001a FFF7FEFF 		bl	u8x8_cad_StartTransfer
  66              	.LVL3:
 127:..\..\u8g2\csrc/u8x8_d_st7565.c ****       u8x8_cad_SendCmd(u8x8, 0x000 | ((x&15)));
  67              		.loc 1 127 0
  68 001e 1021     		movs	r1, #16
 124:..\..\u8g2\csrc/u8x8_d_st7565.c ****       x *= 8;
  69              		.loc 1 124 0
  70 0020 7B79     		ldrb	r3, [r7, #5]
  71              	.LVL4:
 126:..\..\u8g2\csrc/u8x8_d_st7565.c ****       u8x8_cad_SendCmd(u8x8, 0x010 | (x>>4) );
  72              		.loc 1 126 0
  73 0022 A27F     		ldrb	r2, [r4, #30]
 125:..\..\u8g2\csrc/u8x8_d_st7565.c ****       x += u8x8->x_offset;
  74              		.loc 1 125 0
  75 0024 DB00     		lsls	r3, r3, #3
  76              	.LVL5:
 126:..\..\u8g2\csrc/u8x8_d_st7565.c ****       u8x8_cad_SendCmd(u8x8, 0x010 | (x>>4) );
  77              		.loc 1 126 0
  78 0026 9B18     		adds	r3, r3, r2
  79              	.LVL6:
  80 0028 DBB2     		uxtb	r3, r3
  81 002a 0193     		str	r3, [sp, #4]
  82              	.LVL7:
 127:..\..\u8g2\csrc/u8x8_d_st7565.c ****       u8x8_cad_SendCmd(u8x8, 0x000 | ((x&15)));
  83              		.loc 1 127 0
  84 002c 1B09     		lsrs	r3, r3, #4
  85 002e 1943     		orrs	r1, r3
  86 0030 2000     		movs	r0, r4
  87 0032 FFF7FEFF 		bl	u8x8_cad_SendCmd
  88              	.LVL8:
 128:..\..\u8g2\csrc/u8x8_d_st7565.c ****       u8x8_cad_SendCmd(u8x8, 0x0b0 | (((u8x8_tile_t *)arg_ptr)->y_pos));
  89              		.loc 1 128 0
  90 0036 0199     		ldr	r1, [sp, #4]
  91 0038 2000     		movs	r0, r4
  92 003a 3140     		ands	r1, r6
  93 003c FFF7FEFF 		bl	u8x8_cad_SendCmd
  94              	.LVL9:
 129:..\..\u8g2\csrc/u8x8_d_st7565.c ****     
  95              		.loc 1 129 0
  96 0040 B023     		movs	r3, #176
  97 0042 B979     		ldrb	r1, [r7, #6]
  98 0044 2000     		movs	r0, r4
  99 0046 1943     		orrs	r1, r3
ARM GAS  C:\Users\gjl\AppData\Local\Temp\ccaUpWuc.s 			page 6


 100 0048 FFF7FEFF 		bl	u8x8_cad_SendCmd
 101              	.LVL10:
 131:..\..\u8g2\csrc/u8x8_d_st7565.c ****       c *= 8;
 102              		.loc 1 131 0
 103 004c 3E79     		ldrb	r6, [r7, #4]
 104              	.LVL11:
 139:..\..\u8g2\csrc/u8x8_d_st7565.c ****       {
 105              		.loc 1 139 0
 106 004e 019B     		ldr	r3, [sp, #4]
 132:..\..\u8g2\csrc/u8x8_d_st7565.c ****       ptr = ((u8x8_tile_t *)arg_ptr)->tile_ptr;
 107              		.loc 1 132 0
 108 0050 F600     		lsls	r6, r6, #3
 109              	.LVL12:
 110 0052 F6B2     		uxtb	r6, r6
 111              	.LVL13:
 139:..\..\u8g2\csrc/u8x8_d_st7565.c ****       {
 112              		.loc 1 139 0
 113 0054 F318     		adds	r3, r6, r3
 133:..\..\u8g2\csrc/u8x8_d_st7565.c ****       /* 
 114              		.loc 1 133 0
 115 0056 3F68     		ldr	r7, [r7]
 116              	.LVL14:
 139:..\..\u8g2\csrc/u8x8_d_st7565.c ****       {
 117              		.loc 1 139 0
 118 0058 842B     		cmp	r3, #132
 119 005a 04DD     		ble	.L7
 120              	.LVL15:
 142:..\..\u8g2\csrc/u8x8_d_st7565.c ****       }
 121              		.loc 1 142 0
 122 005c 7C26     		movs	r6, #124
 123 005e 019B     		ldr	r3, [sp, #4]
 124 0060 7642     		rsbs	r6, r6, #0
 125 0062 F61A     		subs	r6, r6, r3
 126 0064 F6B2     		uxtb	r6, r6
 127              	.LVL16:
 128              	.L7:
 147:..\..\u8g2\csrc/u8x8_d_st7565.c ****       } while( arg_int > 0 );
 129              		.loc 1 147 0
 130 0066 013D     		subs	r5, r5, #1
 131              	.LVL17:
 146:..\..\u8g2\csrc/u8x8_d_st7565.c **** 	arg_int--;
 132              		.loc 1 146 0
 133 0068 3A00     		movs	r2, r7
 134 006a 3100     		movs	r1, r6
 135 006c 2000     		movs	r0, r4
 147:..\..\u8g2\csrc/u8x8_d_st7565.c ****       } while( arg_int > 0 );
 136              		.loc 1 147 0
 137 006e EDB2     		uxtb	r5, r5
 146:..\..\u8g2\csrc/u8x8_d_st7565.c **** 	arg_int--;
 138              		.loc 1 146 0
 139 0070 FFF7FEFF 		bl	u8x8_cad_SendData
 140              	.LVL18:
 148:..\..\u8g2\csrc/u8x8_d_st7565.c ****       
 141              		.loc 1 148 0
 142 0074 002D     		cmp	r5, #0
 143 0076 F6D1     		bne	.L7
 144 0078 12E0     		b	.L14
ARM GAS  C:\Users\gjl\AppData\Local\Temp\ccaUpWuc.s 			page 7


 145              	.LVL19:
 146              	.L16:
 147 007a 0C49     		ldr	r1, .L17
 148              	.LVL20:
 149              	.LBE5:
 150              	.LBE4:
 162:..\..\u8g2\csrc/u8x8_d_st7565.c **** 	u8x8_cad_SendSequence(u8x8, u8x8_d_st7565_powersave0_seq);
 151              		.loc 1 162 0
 152 007c 002A     		cmp	r2, #0
 153 007e 00D0     		beq	.L12
 165:..\..\u8g2\csrc/u8x8_d_st7565.c ****       break;
 154              		.loc 1 165 0
 155 0080 0731     		adds	r1, r1, #7
 156              	.L12:
 157 0082 2000     		movs	r0, r4
 158 0084 FFF7FEFF 		bl	u8x8_cad_SendSequence
 159              	.LVL21:
 160              	.L13:
 177:..\..\u8g2\csrc/u8x8_d_st7565.c ****   }
 178:..\..\u8g2\csrc/u8x8_d_st7565.c ****   return 1;
 161              		.loc 1 178 0
 162 0088 0120     		movs	r0, #1
 163 008a 0DE0     		b	.L2
 164              	.LVL22:
 165              	.L3:
 169:..\..\u8g2\csrc/u8x8_d_st7565.c ****       u8x8_cad_SendCmd(u8x8, 0x081 );
 166              		.loc 1 169 0
 167 008c FFF7FEFF 		bl	u8x8_cad_StartTransfer
 168              	.LVL23:
 170:..\..\u8g2\csrc/u8x8_d_st7565.c ****       u8x8_cad_SendArg(u8x8, arg_int >> 2 );	/* st7565 has range from 0 to 63 */
 169              		.loc 1 170 0
 170 0090 8121     		movs	r1, #129
 171 0092 2000     		movs	r0, r4
 172 0094 FFF7FEFF 		bl	u8x8_cad_SendCmd
 173              	.LVL24:
 171:..\..\u8g2\csrc/u8x8_d_st7565.c ****       u8x8_cad_EndTransfer(u8x8);
 174              		.loc 1 171 0
 175 0098 A908     		lsrs	r1, r5, #2
 176 009a 2000     		movs	r0, r4
 177 009c FFF7FEFF 		bl	u8x8_cad_SendArg
 178              	.LVL25:
 179              	.L14:
 172:..\..\u8g2\csrc/u8x8_d_st7565.c ****       break;
 180              		.loc 1 172 0
 181 00a0 2000     		movs	r0, r4
 182 00a2 FFF7FEFF 		bl	u8x8_cad_EndTransfer
 183              	.LVL26:
 184 00a6 EFE7     		b	.L13
 185              	.L2:
 179:..\..\u8g2\csrc/u8x8_d_st7565.c **** }
 186              		.loc 1 179 0
 187              		@ sp needed
 188              	.LVL27:
 189 00a8 FEBD     		pop	{r1, r2, r3, r4, r5, r6, r7, pc}
 190              	.L18:
 191 00aa C046     		.align	2
 192              	.L17:
ARM GAS  C:\Users\gjl\AppData\Local\Temp\ccaUpWuc.s 			page 8


 193 00ac 00000000 		.word	.LANCHOR0
 194              		.cfi_endproc
 195              	.LFE0:
 196              		.size	u8x8_d_st7565_common, .-u8x8_d_st7565_common
 197              		.section	.text.u8x8_d_st7565_ea_dogm128,"ax",%progbits
 198              		.align	1
 199              		.global	u8x8_d_st7565_ea_dogm128
 200              		.code	16
 201              		.thumb_func
 202              		.type	u8x8_d_st7565_ea_dogm128, %function
 203              	u8x8_d_st7565_ea_dogm128:
 204              	.LFB1:
 180:..\..\u8g2\csrc/u8x8_d_st7565.c **** 
 181:..\..\u8g2\csrc/u8x8_d_st7565.c **** /*================================================*/
 182:..\..\u8g2\csrc/u8x8_d_st7565.c **** /* DOGM128 */
 183:..\..\u8g2\csrc/u8x8_d_st7565.c **** 
 184:..\..\u8g2\csrc/u8x8_d_st7565.c **** static const uint8_t u8x8_d_st7565_dogm128_init_seq[] = {
 185:..\..\u8g2\csrc/u8x8_d_st7565.c ****     
 186:..\..\u8g2\csrc/u8x8_d_st7565.c ****   U8X8_START_TRANSFER(),             	/* enable chip, delay is part of the transfer start */
 187:..\..\u8g2\csrc/u8x8_d_st7565.c ****   
 188:..\..\u8g2\csrc/u8x8_d_st7565.c ****   U8X8_C(0x0e2),            			/* soft reset */
 189:..\..\u8g2\csrc/u8x8_d_st7565.c ****   U8X8_C(0x0ae),		                /* display off */
 190:..\..\u8g2\csrc/u8x8_d_st7565.c ****   U8X8_C(0x040),		                /* set display start line to 0 */
 191:..\..\u8g2\csrc/u8x8_d_st7565.c ****   
 192:..\..\u8g2\csrc/u8x8_d_st7565.c ****   U8X8_C(0x0a1),		                /* ADC set to reverse */
 193:..\..\u8g2\csrc/u8x8_d_st7565.c ****   U8X8_C(0x0c0),		                /* common output mode */
 194:..\..\u8g2\csrc/u8x8_d_st7565.c ****   // Flipmode
 195:..\..\u8g2\csrc/u8x8_d_st7565.c ****   // U8X8_C(0x0a0),		                /* ADC set to reverse */
 196:..\..\u8g2\csrc/u8x8_d_st7565.c ****   // U8X8_C(0x0c8),		                /* common output mode */
 197:..\..\u8g2\csrc/u8x8_d_st7565.c ****   
 198:..\..\u8g2\csrc/u8x8_d_st7565.c ****   U8X8_C(0x0a6),		                /* display normal, bit val 0: LCD pixel off. */
 199:..\..\u8g2\csrc/u8x8_d_st7565.c ****   U8X8_C(0x0a2),		                /* LCD bias 1/9 */
 200:..\..\u8g2\csrc/u8x8_d_st7565.c ****   U8X8_C(0x02f),		                /* all power  control circuits on */
 201:..\..\u8g2\csrc/u8x8_d_st7565.c ****   U8X8_CA(0x0f8, 0x000),		/* set booster ratio to 4x */
 202:..\..\u8g2\csrc/u8x8_d_st7565.c ****   U8X8_C(0x027),		                /* regulator, booster and follower */
 203:..\..\u8g2\csrc/u8x8_d_st7565.c ****   U8X8_CA(0x081, 0x018),		/* set contrast, contrast value, EA default: 0x016 */
 204:..\..\u8g2\csrc/u8x8_d_st7565.c ****   
 205:..\..\u8g2\csrc/u8x8_d_st7565.c ****   U8X8_C(0x0ae),		                /* display off */
 206:..\..\u8g2\csrc/u8x8_d_st7565.c ****   U8X8_C(0x0a5),		                /* enter powersafe: all pixel on, issue 142 */
 207:..\..\u8g2\csrc/u8x8_d_st7565.c ****   
 208:..\..\u8g2\csrc/u8x8_d_st7565.c ****   U8X8_END_TRANSFER(),             	/* disable chip */
 209:..\..\u8g2\csrc/u8x8_d_st7565.c ****   U8X8_END()             			/* end of sequence */
 210:..\..\u8g2\csrc/u8x8_d_st7565.c **** };
 211:..\..\u8g2\csrc/u8x8_d_st7565.c **** 
 212:..\..\u8g2\csrc/u8x8_d_st7565.c **** uint8_t u8x8_d_st7565_ea_dogm128(u8x8_t *u8x8, uint8_t msg, uint8_t arg_int, void *arg_ptr)
 213:..\..\u8g2\csrc/u8x8_d_st7565.c **** {
 205              		.loc 1 213 0
 206              		.cfi_startproc
 207              		@ args = 0, pretend = 0, frame = 0
 208              		@ frame_needed = 0, uses_anonymous_args = 0
 209              	.LVL28:
 210 0000 70B5     		push	{r4, r5, r6, lr}
 211              		.cfi_def_cfa_offset 16
 212              		.cfi_offset 4, -16
 213              		.cfi_offset 5, -12
 214              		.cfi_offset 6, -8
 215              		.cfi_offset 14, -4
ARM GAS  C:\Users\gjl\AppData\Local\Temp\ccaUpWuc.s 			page 9


 216              		.loc 1 213 0
 217 0002 0400     		movs	r4, r0
 218 0004 0E00     		movs	r6, r1
 219 0006 1500     		movs	r5, r2
 214:..\..\u8g2\csrc/u8x8_d_st7565.c ****   /* call common procedure first and handle messages there */
 215:..\..\u8g2\csrc/u8x8_d_st7565.c ****   if ( u8x8_d_st7565_common(u8x8, msg, arg_int, arg_ptr) == 0 )
 220              		.loc 1 215 0
 221 0008 FFF7FEFF 		bl	u8x8_d_st7565_common
 222              	.LVL29:
 223 000c 0028     		cmp	r0, #0
 224 000e 25D1     		bne	.L25
 216:..\..\u8g2\csrc/u8x8_d_st7565.c ****   {
 217:..\..\u8g2\csrc/u8x8_d_st7565.c ****     /* msg not handled, then try here */
 218:..\..\u8g2\csrc/u8x8_d_st7565.c ****     switch(msg)
 225              		.loc 1 218 0
 226 0010 0A2E     		cmp	r6, #10
 227 0012 09D0     		beq	.L21
 228 0014 0D2E     		cmp	r6, #13
 229 0016 10D0     		beq	.L22
 230 0018 092E     		cmp	r6, #9
 231 001a 20D1     		bne	.L20
 219:..\..\u8g2\csrc/u8x8_d_st7565.c ****     {
 220:..\..\u8g2\csrc/u8x8_d_st7565.c ****       case U8X8_MSG_DISPLAY_SETUP_MEMORY:
 221:..\..\u8g2\csrc/u8x8_d_st7565.c **** 	u8x8_d_helper_display_setup_memory(u8x8, &u8x8_st7565_128x64_display_info);
 232              		.loc 1 221 0
 233 001c 1049     		ldr	r1, .L27
 234 001e 2000     		movs	r0, r4
 235 0020 1031     		adds	r1, r1, #16
 236 0022 FFF7FEFF 		bl	u8x8_d_helper_display_setup_memory
 237              	.LVL30:
 238 0026 19E0     		b	.L25
 239              	.L21:
 222:..\..\u8g2\csrc/u8x8_d_st7565.c **** 	break;
 223:..\..\u8g2\csrc/u8x8_d_st7565.c ****       case U8X8_MSG_DISPLAY_INIT:
 224:..\..\u8g2\csrc/u8x8_d_st7565.c **** 	u8x8_d_helper_display_init(u8x8);
 240              		.loc 1 224 0
 241 0028 2000     		movs	r0, r4
 242 002a FFF7FEFF 		bl	u8x8_d_helper_display_init
 243              	.LVL31:
 225:..\..\u8g2\csrc/u8x8_d_st7565.c **** 	u8x8_cad_SendSequence(u8x8, u8x8_d_st7565_dogm128_init_seq);
 244              		.loc 1 225 0
 245 002e 0C49     		ldr	r1, .L27
 246 0030 2000     		movs	r0, r4
 247 0032 2831     		adds	r1, r1, #40
 248 0034 FFF7FEFF 		bl	u8x8_cad_SendSequence
 249              	.LVL32:
 250 0038 10E0     		b	.L25
 251              	.L22:
 252 003a 0949     		ldr	r1, .L27
 226:..\..\u8g2\csrc/u8x8_d_st7565.c **** 	break;
 227:..\..\u8g2\csrc/u8x8_d_st7565.c ****       case U8X8_MSG_DISPLAY_SET_FLIP_MODE:
 228:..\..\u8g2\csrc/u8x8_d_st7565.c **** 	if ( arg_int == 0 )
 253              		.loc 1 228 0
 254 003c 002D     		cmp	r5, #0
 255 003e 06D1     		bne	.L24
 229:..\..\u8g2\csrc/u8x8_d_st7565.c **** 	{
 230:..\..\u8g2\csrc/u8x8_d_st7565.c **** 	  u8x8_cad_SendSequence(u8x8, u8x8_d_st7565_flip0_seq);
ARM GAS  C:\Users\gjl\AppData\Local\Temp\ccaUpWuc.s 			page 10


 256              		.loc 1 230 0
 257 0040 4931     		adds	r1, r1, #73
 258 0042 2000     		movs	r0, r4
 259 0044 FFF7FEFF 		bl	u8x8_cad_SendSequence
 260              	.LVL33:
 231:..\..\u8g2\csrc/u8x8_d_st7565.c **** 	  u8x8->x_offset = u8x8->display_info->default_x_offset;
 261              		.loc 1 231 0
 262 0048 2368     		ldr	r3, [r4]
 263 004a 9B7C     		ldrb	r3, [r3, #18]
 264 004c 05E0     		b	.L26
 265              	.L24:
 232:..\..\u8g2\csrc/u8x8_d_st7565.c **** 	}
 233:..\..\u8g2\csrc/u8x8_d_st7565.c **** 	else
 234:..\..\u8g2\csrc/u8x8_d_st7565.c **** 	{
 235:..\..\u8g2\csrc/u8x8_d_st7565.c **** 	  u8x8_cad_SendSequence(u8x8, u8x8_d_st7565_flip1_seq);
 266              		.loc 1 235 0
 267 004e 5031     		adds	r1, r1, #80
 268 0050 2000     		movs	r0, r4
 269 0052 FFF7FEFF 		bl	u8x8_cad_SendSequence
 270              	.LVL34:
 236:..\..\u8g2\csrc/u8x8_d_st7565.c **** 	  u8x8->x_offset = u8x8->display_info->flipmode_x_offset;
 271              		.loc 1 236 0
 272 0056 2368     		ldr	r3, [r4]
 273 0058 DB7C     		ldrb	r3, [r3, #19]
 274              	.L26:
 275 005a A377     		strb	r3, [r4, #30]
 276              	.L25:
 237:..\..\u8g2\csrc/u8x8_d_st7565.c **** 	}	
 238:..\..\u8g2\csrc/u8x8_d_st7565.c **** 	break;
 239:..\..\u8g2\csrc/u8x8_d_st7565.c ****       default:
 240:..\..\u8g2\csrc/u8x8_d_st7565.c **** 	return 0;		/* msg unknown */
 241:..\..\u8g2\csrc/u8x8_d_st7565.c ****     }
 242:..\..\u8g2\csrc/u8x8_d_st7565.c ****   }
 243:..\..\u8g2\csrc/u8x8_d_st7565.c ****   return 1;
 277              		.loc 1 243 0
 278 005c 0120     		movs	r0, #1
 279              	.L20:
 244:..\..\u8g2\csrc/u8x8_d_st7565.c **** }
 280              		.loc 1 244 0
 281              		@ sp needed
 282              	.LVL35:
 283 005e 70BD     		pop	{r4, r5, r6, pc}
 284              	.L28:
 285              		.align	2
 286              	.L27:
 287 0060 00000000 		.word	.LANCHOR0
 288              		.cfi_endproc
 289              	.LFE1:
 290              		.size	u8x8_d_st7565_ea_dogm128, .-u8x8_d_st7565_ea_dogm128
 291              		.section	.text.u8x8_d_st7565_zolen_128x64,"ax",%progbits
 292              		.align	1
 293              		.global	u8x8_d_st7565_zolen_128x64
 294              		.code	16
 295              		.thumb_func
 296              		.type	u8x8_d_st7565_zolen_128x64, %function
 297              	u8x8_d_st7565_zolen_128x64:
 298              	.LFB2:
ARM GAS  C:\Users\gjl\AppData\Local\Temp\ccaUpWuc.s 			page 11


 245:..\..\u8g2\csrc/u8x8_d_st7565.c **** 
 246:..\..\u8g2\csrc/u8x8_d_st7565.c **** /*================================================*/
 247:..\..\u8g2\csrc/u8x8_d_st7565.c **** /* ZOLEN 128x64  */
 248:..\..\u8g2\csrc/u8x8_d_st7565.c **** 
 249:..\..\u8g2\csrc/u8x8_d_st7565.c **** static const uint8_t u8x8_d_st7565_zolen_128x64_init_seq[] = {
 250:..\..\u8g2\csrc/u8x8_d_st7565.c ****     
 251:..\..\u8g2\csrc/u8x8_d_st7565.c ****   U8X8_START_TRANSFER(),             	/* enable chip, delay is part of the transfer start */
 252:..\..\u8g2\csrc/u8x8_d_st7565.c ****   
 253:..\..\u8g2\csrc/u8x8_d_st7565.c ****   U8X8_C(0x0e2),            			/* soft reset */
 254:..\..\u8g2\csrc/u8x8_d_st7565.c ****   U8X8_C(0x0ae),		                /* display off */
 255:..\..\u8g2\csrc/u8x8_d_st7565.c ****   U8X8_C(0x040),		                /* set display start line to 0 */
 256:..\..\u8g2\csrc/u8x8_d_st7565.c ****   
 257:..\..\u8g2\csrc/u8x8_d_st7565.c ****   U8X8_C(0x0a1),		                /* ADC set to reverse */
 258:..\..\u8g2\csrc/u8x8_d_st7565.c ****   U8X8_C(0x0c8),		                /* common output mode */
 259:..\..\u8g2\csrc/u8x8_d_st7565.c ****   // Flipmode
 260:..\..\u8g2\csrc/u8x8_d_st7565.c ****   // U8X8_C(0x0a0),		                /* ADC set to reverse */
 261:..\..\u8g2\csrc/u8x8_d_st7565.c ****   // U8X8_C(0x0c0),		                /* common output mode */
 262:..\..\u8g2\csrc/u8x8_d_st7565.c ****   
 263:..\..\u8g2\csrc/u8x8_d_st7565.c ****   U8X8_C(0x0a6),		                /* display normal, bit val 0: LCD pixel off. */
 264:..\..\u8g2\csrc/u8x8_d_st7565.c ****   U8X8_C(0x0a2),		                /* LCD bias 1/9 */
 265:..\..\u8g2\csrc/u8x8_d_st7565.c ****   U8X8_C(0x02f),		                /* all power  control circuits on */
 266:..\..\u8g2\csrc/u8x8_d_st7565.c ****   U8X8_CA(0x0f8, 0x000),		/* set booster ratio to 4x */
 267:..\..\u8g2\csrc/u8x8_d_st7565.c ****   U8X8_C(0x027),		                /* regulator, booster and follower */
 268:..\..\u8g2\csrc/u8x8_d_st7565.c ****   U8X8_CA(0x081, 0x007),		/* set contrast, contrast value, EA default: 0x016 */
 269:..\..\u8g2\csrc/u8x8_d_st7565.c ****   
 270:..\..\u8g2\csrc/u8x8_d_st7565.c ****   U8X8_C(0x0ae),		                /* display off */
 271:..\..\u8g2\csrc/u8x8_d_st7565.c ****   U8X8_C(0x0a5),		                /* enter powersafe: all pixel on, issue 142 */
 272:..\..\u8g2\csrc/u8x8_d_st7565.c ****   
 273:..\..\u8g2\csrc/u8x8_d_st7565.c ****   U8X8_END_TRANSFER(),             	/* disable chip */
 274:..\..\u8g2\csrc/u8x8_d_st7565.c ****   U8X8_END()             			/* end of sequence */
 275:..\..\u8g2\csrc/u8x8_d_st7565.c **** };
 276:..\..\u8g2\csrc/u8x8_d_st7565.c **** 
 277:..\..\u8g2\csrc/u8x8_d_st7565.c **** uint8_t u8x8_d_st7565_zolen_128x64(u8x8_t *u8x8, uint8_t msg, uint8_t arg_int, void *arg_ptr)
 278:..\..\u8g2\csrc/u8x8_d_st7565.c **** {
 299              		.loc 1 278 0
 300              		.cfi_startproc
 301              		@ args = 0, pretend = 0, frame = 0
 302              		@ frame_needed = 0, uses_anonymous_args = 0
 303              	.LVL36:
 304 0000 70B5     		push	{r4, r5, r6, lr}
 305              		.cfi_def_cfa_offset 16
 306              		.cfi_offset 4, -16
 307              		.cfi_offset 5, -12
 308              		.cfi_offset 6, -8
 309              		.cfi_offset 14, -4
 310              		.loc 1 278 0
 311 0002 0400     		movs	r4, r0
 312 0004 0E00     		movs	r6, r1
 313 0006 1500     		movs	r5, r2
 279:..\..\u8g2\csrc/u8x8_d_st7565.c ****   /* call common procedure first and handle messages there */
 280:..\..\u8g2\csrc/u8x8_d_st7565.c ****   if ( u8x8_d_st7565_common(u8x8, msg, arg_int, arg_ptr) == 0 )
 314              		.loc 1 280 0
 315 0008 FFF7FEFF 		bl	u8x8_d_st7565_common
 316              	.LVL37:
 317 000c 0028     		cmp	r0, #0
 318 000e 25D1     		bne	.L35
 281:..\..\u8g2\csrc/u8x8_d_st7565.c ****   {
ARM GAS  C:\Users\gjl\AppData\Local\Temp\ccaUpWuc.s 			page 12


 282:..\..\u8g2\csrc/u8x8_d_st7565.c ****     /* msg not handled, then try here */
 283:..\..\u8g2\csrc/u8x8_d_st7565.c ****     switch(msg)
 319              		.loc 1 283 0
 320 0010 0A2E     		cmp	r6, #10
 321 0012 09D0     		beq	.L31
 322 0014 0D2E     		cmp	r6, #13
 323 0016 10D0     		beq	.L32
 324 0018 092E     		cmp	r6, #9
 325 001a 20D1     		bne	.L30
 284:..\..\u8g2\csrc/u8x8_d_st7565.c ****     {
 285:..\..\u8g2\csrc/u8x8_d_st7565.c ****       case U8X8_MSG_DISPLAY_SETUP_MEMORY:
 286:..\..\u8g2\csrc/u8x8_d_st7565.c **** 	u8x8_d_helper_display_setup_memory(u8x8, &u8x8_st7565_128x64_display_info);
 326              		.loc 1 286 0
 327 001c 1049     		ldr	r1, .L37
 328 001e 2000     		movs	r0, r4
 329 0020 1031     		adds	r1, r1, #16
 330 0022 FFF7FEFF 		bl	u8x8_d_helper_display_setup_memory
 331              	.LVL38:
 332 0026 19E0     		b	.L35
 333              	.L31:
 287:..\..\u8g2\csrc/u8x8_d_st7565.c **** 	break;
 288:..\..\u8g2\csrc/u8x8_d_st7565.c ****       case U8X8_MSG_DISPLAY_INIT:
 289:..\..\u8g2\csrc/u8x8_d_st7565.c **** 	u8x8_d_helper_display_init(u8x8);
 334              		.loc 1 289 0
 335 0028 2000     		movs	r0, r4
 336 002a FFF7FEFF 		bl	u8x8_d_helper_display_init
 337              	.LVL39:
 290:..\..\u8g2\csrc/u8x8_d_st7565.c **** 	u8x8_cad_SendSequence(u8x8, u8x8_d_st7565_zolen_128x64_init_seq);
 338              		.loc 1 290 0
 339 002e 0C49     		ldr	r1, .L37
 340 0030 2000     		movs	r0, r4
 341 0032 5731     		adds	r1, r1, #87
 342 0034 FFF7FEFF 		bl	u8x8_cad_SendSequence
 343              	.LVL40:
 344 0038 10E0     		b	.L35
 345              	.L32:
 346 003a 0949     		ldr	r1, .L37
 291:..\..\u8g2\csrc/u8x8_d_st7565.c **** 	break;
 292:..\..\u8g2\csrc/u8x8_d_st7565.c ****       case U8X8_MSG_DISPLAY_SET_FLIP_MODE:
 293:..\..\u8g2\csrc/u8x8_d_st7565.c **** 	if ( arg_int == 0 )
 347              		.loc 1 293 0
 348 003c 002D     		cmp	r5, #0
 349 003e 06D1     		bne	.L34
 294:..\..\u8g2\csrc/u8x8_d_st7565.c **** 	{
 295:..\..\u8g2\csrc/u8x8_d_st7565.c **** 	  u8x8_cad_SendSequence(u8x8, u8x8_d_st7565_zflip0_seq);
 350              		.loc 1 295 0
 351 0040 7831     		adds	r1, r1, #120
 352 0042 2000     		movs	r0, r4
 353 0044 FFF7FEFF 		bl	u8x8_cad_SendSequence
 354              	.LVL41:
 296:..\..\u8g2\csrc/u8x8_d_st7565.c **** 	  u8x8->x_offset = u8x8->display_info->default_x_offset;
 355              		.loc 1 296 0
 356 0048 2368     		ldr	r3, [r4]
 357 004a 9B7C     		ldrb	r3, [r3, #18]
 358 004c 05E0     		b	.L36
 359              	.L34:
 297:..\..\u8g2\csrc/u8x8_d_st7565.c **** 	}
ARM GAS  C:\Users\gjl\AppData\Local\Temp\ccaUpWuc.s 			page 13


 298:..\..\u8g2\csrc/u8x8_d_st7565.c **** 	else
 299:..\..\u8g2\csrc/u8x8_d_st7565.c **** 	{
 300:..\..\u8g2\csrc/u8x8_d_st7565.c **** 	  u8x8_cad_SendSequence(u8x8, u8x8_d_st7565_zflip1_seq);
 360              		.loc 1 300 0
 361 004e 7F31     		adds	r1, r1, #127
 362 0050 2000     		movs	r0, r4
 363 0052 FFF7FEFF 		bl	u8x8_cad_SendSequence
 364              	.LVL42:
 301:..\..\u8g2\csrc/u8x8_d_st7565.c **** 	  u8x8->x_offset = u8x8->display_info->flipmode_x_offset;
 365              		.loc 1 301 0
 366 0056 2368     		ldr	r3, [r4]
 367 0058 DB7C     		ldrb	r3, [r3, #19]
 368              	.L36:
 369 005a A377     		strb	r3, [r4, #30]
 370              	.L35:
 302:..\..\u8g2\csrc/u8x8_d_st7565.c **** 	}	
 303:..\..\u8g2\csrc/u8x8_d_st7565.c **** 	break;
 304:..\..\u8g2\csrc/u8x8_d_st7565.c ****       default:
 305:..\..\u8g2\csrc/u8x8_d_st7565.c **** 	return 0;		/* msg unknown */
 306:..\..\u8g2\csrc/u8x8_d_st7565.c ****     }
 307:..\..\u8g2\csrc/u8x8_d_st7565.c ****   }
 308:..\..\u8g2\csrc/u8x8_d_st7565.c ****   return 1;
 371              		.loc 1 308 0
 372 005c 0120     		movs	r0, #1
 373              	.L30:
 309:..\..\u8g2\csrc/u8x8_d_st7565.c **** }
 374              		.loc 1 309 0
 375              		@ sp needed
 376              	.LVL43:
 377 005e 70BD     		pop	{r4, r5, r6, pc}
 378              	.L38:
 379              		.align	2
 380              	.L37:
 381 0060 00000000 		.word	.LANCHOR0
 382              		.cfi_endproc
 383              	.LFE2:
 384              		.size	u8x8_d_st7565_zolen_128x64, .-u8x8_d_st7565_zolen_128x64
 385              		.section	.text.u8x8_d_st7565_nhd_c12832,"ax",%progbits
 386              		.align	1
 387              		.global	u8x8_d_st7565_nhd_c12832
 388              		.code	16
 389              		.thumb_func
 390              		.type	u8x8_d_st7565_nhd_c12832, %function
 391              	u8x8_d_st7565_nhd_c12832:
 392              	.LFB3:
 310:..\..\u8g2\csrc/u8x8_d_st7565.c **** 
 311:..\..\u8g2\csrc/u8x8_d_st7565.c **** 
 312:..\..\u8g2\csrc/u8x8_d_st7565.c **** 
 313:..\..\u8g2\csrc/u8x8_d_st7565.c **** /*================================================*/
 314:..\..\u8g2\csrc/u8x8_d_st7565.c **** /* NHD-C12832 */
 315:..\..\u8g2\csrc/u8x8_d_st7565.c **** 
 316:..\..\u8g2\csrc/u8x8_d_st7565.c **** static const u8x8_display_info_t u8x8_st7565_128x32_display_info =
 317:..\..\u8g2\csrc/u8x8_d_st7565.c **** {
 318:..\..\u8g2\csrc/u8x8_d_st7565.c ****   /* chip_enable_level = */ 0,
 319:..\..\u8g2\csrc/u8x8_d_st7565.c ****   /* chip_disable_level = */ 1,
 320:..\..\u8g2\csrc/u8x8_d_st7565.c ****   
 321:..\..\u8g2\csrc/u8x8_d_st7565.c ****   /* post_chip_enable_wait_ns = */ 150,	/* st7565 datasheet, table 26, tcsh */
ARM GAS  C:\Users\gjl\AppData\Local\Temp\ccaUpWuc.s 			page 14


 322:..\..\u8g2\csrc/u8x8_d_st7565.c ****   /* pre_chip_disable_wait_ns = */ 50,	/* st7565 datasheet, table 26, tcss */
 323:..\..\u8g2\csrc/u8x8_d_st7565.c ****   /* reset_pulse_width_ms = */ 1, 
 324:..\..\u8g2\csrc/u8x8_d_st7565.c ****   /* post_reset_wait_ms = */ 1, 
 325:..\..\u8g2\csrc/u8x8_d_st7565.c ****   /* sda_setup_time_ns = */ 50,		/* st7565 datasheet, table 26, tsds */
 326:..\..\u8g2\csrc/u8x8_d_st7565.c ****   /* sck_pulse_width_ns = */ 120,	/* half of cycle time (100ns according to datasheet), AVR: below 
 327:..\..\u8g2\csrc/u8x8_d_st7565.c ****   /* sck_clock_hz = */ 4000000UL,	/* since Arduino 1.6.0, the SPI bus speed in Hz. Should be  10000
 328:..\..\u8g2\csrc/u8x8_d_st7565.c ****   /* spi_mode = */ 0,		/* active high, rising edge */
 329:..\..\u8g2\csrc/u8x8_d_st7565.c ****   /* i2c_bus_clock_100kHz = */ 4,
 330:..\..\u8g2\csrc/u8x8_d_st7565.c ****   /* data_setup_time_ns = */ 40,	/* st7565 datasheet, table 24, tds8 */
 331:..\..\u8g2\csrc/u8x8_d_st7565.c ****   /* write_pulse_width_ns = */ 80,	/* st7565 datasheet, table 24, tcclw */
 332:..\..\u8g2\csrc/u8x8_d_st7565.c ****   /* tile_width = */ 16,		/* width of 16*8=128 pixel */
 333:..\..\u8g2\csrc/u8x8_d_st7565.c ****   /* tile_hight = */ 4,
 334:..\..\u8g2\csrc/u8x8_d_st7565.c ****   /* default_x_offset = */ 4,
 335:..\..\u8g2\csrc/u8x8_d_st7565.c ****   /* flipmode_x_offset = */ 0,
 336:..\..\u8g2\csrc/u8x8_d_st7565.c ****   /* pixel_width = */ 128,
 337:..\..\u8g2\csrc/u8x8_d_st7565.c ****   /* pixel_height = */ 32
 338:..\..\u8g2\csrc/u8x8_d_st7565.c **** };
 339:..\..\u8g2\csrc/u8x8_d_st7565.c **** 
 340:..\..\u8g2\csrc/u8x8_d_st7565.c **** 
 341:..\..\u8g2\csrc/u8x8_d_st7565.c **** static const uint8_t u8x8_d_st7565_nhd_c12832_init_seq[] = {
 342:..\..\u8g2\csrc/u8x8_d_st7565.c ****     
 343:..\..\u8g2\csrc/u8x8_d_st7565.c ****   U8X8_START_TRANSFER(),             	/* enable chip, delay is part of the transfer start */
 344:..\..\u8g2\csrc/u8x8_d_st7565.c ****   
 345:..\..\u8g2\csrc/u8x8_d_st7565.c ****   U8X8_C(0x0e2),            			/* soft reset */
 346:..\..\u8g2\csrc/u8x8_d_st7565.c ****   U8X8_C(0x0ae),		                /* display off */
 347:..\..\u8g2\csrc/u8x8_d_st7565.c ****   U8X8_C(0x040),		                /* set display start line to 0 */
 348:..\..\u8g2\csrc/u8x8_d_st7565.c ****   
 349:..\..\u8g2\csrc/u8x8_d_st7565.c ****   U8X8_C(0x0a1),		                /* ADC set to reverse */
 350:..\..\u8g2\csrc/u8x8_d_st7565.c ****   U8X8_C(0x0c0),		                /* common output mode */
 351:..\..\u8g2\csrc/u8x8_d_st7565.c ****   // Flipmode
 352:..\..\u8g2\csrc/u8x8_d_st7565.c ****   //U8X8_C(0x0a0),		                /* ADC set to reverse */
 353:..\..\u8g2\csrc/u8x8_d_st7565.c ****   //U8X8_C(0x0c8),		                /* common output mode */
 354:..\..\u8g2\csrc/u8x8_d_st7565.c ****   
 355:..\..\u8g2\csrc/u8x8_d_st7565.c ****   U8X8_C(0x0a6),		                /* display normal, bit val 0: LCD pixel off. */
 356:..\..\u8g2\csrc/u8x8_d_st7565.c ****   U8X8_C(0x0a2),		                /* LCD bias 1/9 */
 357:..\..\u8g2\csrc/u8x8_d_st7565.c ****   U8X8_C(0x02f),		                /* all power  control circuits on */
 358:..\..\u8g2\csrc/u8x8_d_st7565.c ****   U8X8_CA(0x0f8, 0x000),		/* set booster ratio to 4x */
 359:..\..\u8g2\csrc/u8x8_d_st7565.c ****   U8X8_C(0x023),		                /* set V0 voltage resistor ratio to large*/
 360:..\..\u8g2\csrc/u8x8_d_st7565.c ****   U8X8_CA(0x081, 0x00a),		/* set contrast, contrast value NHD C12832 */
 361:..\..\u8g2\csrc/u8x8_d_st7565.c ****   
 362:..\..\u8g2\csrc/u8x8_d_st7565.c ****   U8X8_C(0x0ae),		                /* display off */
 363:..\..\u8g2\csrc/u8x8_d_st7565.c ****   U8X8_C(0x0a5),		                /* enter powersafe: all pixel on, issue 142 */
 364:..\..\u8g2\csrc/u8x8_d_st7565.c ****   
 365:..\..\u8g2\csrc/u8x8_d_st7565.c ****   U8X8_END_TRANSFER(),             	/* disable chip */
 366:..\..\u8g2\csrc/u8x8_d_st7565.c ****   U8X8_END()             			/* end of sequence */
 367:..\..\u8g2\csrc/u8x8_d_st7565.c **** };
 368:..\..\u8g2\csrc/u8x8_d_st7565.c **** 
 369:..\..\u8g2\csrc/u8x8_d_st7565.c **** uint8_t u8x8_d_st7565_nhd_c12832(u8x8_t *u8x8, uint8_t msg, uint8_t arg_int, void *arg_ptr)
 370:..\..\u8g2\csrc/u8x8_d_st7565.c **** {
 393              		.loc 1 370 0
 394              		.cfi_startproc
 395              		@ args = 0, pretend = 0, frame = 0
 396              		@ frame_needed = 0, uses_anonymous_args = 0
 397              	.LVL44:
 398 0000 70B5     		push	{r4, r5, r6, lr}
 399              		.cfi_def_cfa_offset 16
 400              		.cfi_offset 4, -16
ARM GAS  C:\Users\gjl\AppData\Local\Temp\ccaUpWuc.s 			page 15


 401              		.cfi_offset 5, -12
 402              		.cfi_offset 6, -8
 403              		.cfi_offset 14, -4
 404              		.loc 1 370 0
 405 0002 0400     		movs	r4, r0
 406 0004 0E00     		movs	r6, r1
 407 0006 1500     		movs	r5, r2
 371:..\..\u8g2\csrc/u8x8_d_st7565.c ****   /* call common procedure first and handle messages there */
 372:..\..\u8g2\csrc/u8x8_d_st7565.c ****   if ( u8x8_d_st7565_common(u8x8, msg, arg_int, arg_ptr) == 0 )
 408              		.loc 1 372 0
 409 0008 FFF7FEFF 		bl	u8x8_d_st7565_common
 410              	.LVL45:
 411 000c 0028     		cmp	r0, #0
 412 000e 25D1     		bne	.L45
 373:..\..\u8g2\csrc/u8x8_d_st7565.c ****   {
 374:..\..\u8g2\csrc/u8x8_d_st7565.c ****     /* msg not handled, then try here */
 375:..\..\u8g2\csrc/u8x8_d_st7565.c ****     switch(msg)
 413              		.loc 1 375 0
 414 0010 0A2E     		cmp	r6, #10
 415 0012 09D0     		beq	.L41
 416 0014 0D2E     		cmp	r6, #13
 417 0016 10D0     		beq	.L42
 418 0018 092E     		cmp	r6, #9
 419 001a 20D1     		bne	.L40
 376:..\..\u8g2\csrc/u8x8_d_st7565.c ****     {
 377:..\..\u8g2\csrc/u8x8_d_st7565.c ****       case U8X8_MSG_DISPLAY_SETUP_MEMORY:
 378:..\..\u8g2\csrc/u8x8_d_st7565.c **** 	u8x8_d_helper_display_setup_memory(u8x8, &u8x8_st7565_128x32_display_info);
 420              		.loc 1 378 0
 421 001c 1049     		ldr	r1, .L47
 422 001e 2000     		movs	r0, r4
 423 0020 0831     		adds	r1, r1, #8
 424 0022 FFF7FEFF 		bl	u8x8_d_helper_display_setup_memory
 425              	.LVL46:
 426 0026 19E0     		b	.L45
 427              	.L41:
 379:..\..\u8g2\csrc/u8x8_d_st7565.c **** 	break;
 380:..\..\u8g2\csrc/u8x8_d_st7565.c ****       case U8X8_MSG_DISPLAY_INIT:
 381:..\..\u8g2\csrc/u8x8_d_st7565.c **** 	u8x8_d_helper_display_init(u8x8);
 428              		.loc 1 381 0
 429 0028 2000     		movs	r0, r4
 430 002a FFF7FEFF 		bl	u8x8_d_helper_display_init
 431              	.LVL47:
 382:..\..\u8g2\csrc/u8x8_d_st7565.c **** 	u8x8_cad_SendSequence(u8x8, u8x8_d_st7565_nhd_c12832_init_seq);
 432              		.loc 1 382 0
 433 002e 0C49     		ldr	r1, .L47
 434 0030 2000     		movs	r0, r4
 435 0032 2031     		adds	r1, r1, #32
 436 0034 FFF7FEFF 		bl	u8x8_cad_SendSequence
 437              	.LVL48:
 438 0038 10E0     		b	.L45
 439              	.L42:
 440 003a 0A49     		ldr	r1, .L47+4
 383:..\..\u8g2\csrc/u8x8_d_st7565.c **** 	break;
 384:..\..\u8g2\csrc/u8x8_d_st7565.c ****       case U8X8_MSG_DISPLAY_SET_FLIP_MODE:
 385:..\..\u8g2\csrc/u8x8_d_st7565.c **** 	if ( arg_int == 0 )
 441              		.loc 1 385 0
 442 003c 002D     		cmp	r5, #0
ARM GAS  C:\Users\gjl\AppData\Local\Temp\ccaUpWuc.s 			page 16


 443 003e 06D1     		bne	.L44
 386:..\..\u8g2\csrc/u8x8_d_st7565.c **** 	{
 387:..\..\u8g2\csrc/u8x8_d_st7565.c **** 	  u8x8_cad_SendSequence(u8x8, u8x8_d_st7565_flip0_seq);
 444              		.loc 1 387 0
 445 0040 4931     		adds	r1, r1, #73
 446 0042 2000     		movs	r0, r4
 447 0044 FFF7FEFF 		bl	u8x8_cad_SendSequence
 448              	.LVL49:
 388:..\..\u8g2\csrc/u8x8_d_st7565.c **** 	  u8x8->x_offset = u8x8->display_info->default_x_offset;
 449              		.loc 1 388 0
 450 0048 2368     		ldr	r3, [r4]
 451 004a 9B7C     		ldrb	r3, [r3, #18]
 452 004c 05E0     		b	.L46
 453              	.L44:
 389:..\..\u8g2\csrc/u8x8_d_st7565.c **** 	}
 390:..\..\u8g2\csrc/u8x8_d_st7565.c **** 	else
 391:..\..\u8g2\csrc/u8x8_d_st7565.c **** 	{
 392:..\..\u8g2\csrc/u8x8_d_st7565.c **** 	  u8x8_cad_SendSequence(u8x8, u8x8_d_st7565_flip1_seq);
 454              		.loc 1 392 0
 455 004e 5031     		adds	r1, r1, #80
 456 0050 2000     		movs	r0, r4
 457 0052 FFF7FEFF 		bl	u8x8_cad_SendSequence
 458              	.LVL50:
 393:..\..\u8g2\csrc/u8x8_d_st7565.c **** 	  u8x8->x_offset = u8x8->display_info->flipmode_x_offset;
 459              		.loc 1 393 0
 460 0056 2368     		ldr	r3, [r4]
 461 0058 DB7C     		ldrb	r3, [r3, #19]
 462              	.L46:
 463 005a A377     		strb	r3, [r4, #30]
 464              	.L45:
 394:..\..\u8g2\csrc/u8x8_d_st7565.c **** 	}	
 395:..\..\u8g2\csrc/u8x8_d_st7565.c **** 	break;
 396:..\..\u8g2\csrc/u8x8_d_st7565.c ****       default:
 397:..\..\u8g2\csrc/u8x8_d_st7565.c **** 	return 0;		/* msg unknown */
 398:..\..\u8g2\csrc/u8x8_d_st7565.c ****     }
 399:..\..\u8g2\csrc/u8x8_d_st7565.c ****   }
 400:..\..\u8g2\csrc/u8x8_d_st7565.c ****   return 1;
 465              		.loc 1 400 0
 466 005c 0120     		movs	r0, #1
 467              	.L40:
 401:..\..\u8g2\csrc/u8x8_d_st7565.c **** }
 468              		.loc 1 401 0
 469              		@ sp needed
 470              	.LVL51:
 471 005e 70BD     		pop	{r4, r5, r6, pc}
 472              	.L48:
 473              		.align	2
 474              	.L47:
 475 0060 80000000 		.word	.LANCHOR1
 476 0064 00000000 		.word	.LANCHOR0
 477              		.cfi_endproc
 478              	.LFE3:
 479              		.size	u8x8_d_st7565_nhd_c12832, .-u8x8_d_st7565_nhd_c12832
 480              		.section	.text.u8x8_d_st7565_nhd_c12864,"ax",%progbits
 481              		.align	1
 482              		.global	u8x8_d_st7565_nhd_c12864
 483              		.code	16
ARM GAS  C:\Users\gjl\AppData\Local\Temp\ccaUpWuc.s 			page 17


 484              		.thumb_func
 485              		.type	u8x8_d_st7565_nhd_c12864, %function
 486              	u8x8_d_st7565_nhd_c12864:
 487              	.LFB4:
 402:..\..\u8g2\csrc/u8x8_d_st7565.c **** 
 403:..\..\u8g2\csrc/u8x8_d_st7565.c **** /*================================================*/
 404:..\..\u8g2\csrc/u8x8_d_st7565.c **** /* NHD-C12864 */
 405:..\..\u8g2\csrc/u8x8_d_st7565.c **** 
 406:..\..\u8g2\csrc/u8x8_d_st7565.c **** static const u8x8_display_info_t u8x8_st7565_nhd_c12864_display_info =
 407:..\..\u8g2\csrc/u8x8_d_st7565.c **** {
 408:..\..\u8g2\csrc/u8x8_d_st7565.c ****   /* chip_enable_level = */ 0,
 409:..\..\u8g2\csrc/u8x8_d_st7565.c ****   /* chip_disable_level = */ 1,
 410:..\..\u8g2\csrc/u8x8_d_st7565.c ****   
 411:..\..\u8g2\csrc/u8x8_d_st7565.c ****   /* post_chip_enable_wait_ns = */ 150,	/* st7565 datasheet, table 26, tcsh */
 412:..\..\u8g2\csrc/u8x8_d_st7565.c ****   /* pre_chip_disable_wait_ns = */ 50,	/* st7565 datasheet, table 26, tcss */
 413:..\..\u8g2\csrc/u8x8_d_st7565.c ****   /* reset_pulse_width_ms = */ 1, 
 414:..\..\u8g2\csrc/u8x8_d_st7565.c ****   /* post_reset_wait_ms = */ 1, 
 415:..\..\u8g2\csrc/u8x8_d_st7565.c ****   /* sda_setup_time_ns = */ 50,		/* st7565 datasheet, table 26, tsds */
 416:..\..\u8g2\csrc/u8x8_d_st7565.c ****   /* sck_pulse_width_ns = */ 120,	/* half of cycle time (100ns according to datasheet), AVR: below 
 417:..\..\u8g2\csrc/u8x8_d_st7565.c ****   /* sck_clock_hz = */ 4000000UL,	/* since Arduino 1.6.0, the SPI bus speed in Hz. Should be  10000
 418:..\..\u8g2\csrc/u8x8_d_st7565.c ****   /* spi_mode = */ 0,		/* active high, rising edge */
 419:..\..\u8g2\csrc/u8x8_d_st7565.c ****   /* i2c_bus_clock_100kHz = */ 4,
 420:..\..\u8g2\csrc/u8x8_d_st7565.c ****   /* data_setup_time_ns = */ 40,	/* st7565 datasheet, table 24, tds8 */
 421:..\..\u8g2\csrc/u8x8_d_st7565.c ****   /* write_pulse_width_ns = */ 80,	/* st7565 datasheet, table 24, tcclw */
 422:..\..\u8g2\csrc/u8x8_d_st7565.c ****   /* tile_width = */ 16,		/* width of 16*8=128 pixel */
 423:..\..\u8g2\csrc/u8x8_d_st7565.c ****   /* tile_hight = */ 8,
 424:..\..\u8g2\csrc/u8x8_d_st7565.c ****   /* default_x_offset = */ 4,
 425:..\..\u8g2\csrc/u8x8_d_st7565.c ****   /* flipmode_x_offset = */ 0,
 426:..\..\u8g2\csrc/u8x8_d_st7565.c ****   /* pixel_width = */ 128,
 427:..\..\u8g2\csrc/u8x8_d_st7565.c ****   /* pixel_height = */ 64
 428:..\..\u8g2\csrc/u8x8_d_st7565.c **** };
 429:..\..\u8g2\csrc/u8x8_d_st7565.c **** 
 430:..\..\u8g2\csrc/u8x8_d_st7565.c **** 
 431:..\..\u8g2\csrc/u8x8_d_st7565.c **** static const uint8_t u8x8_d_st7565_nhd_c12864_init_seq[] = {
 432:..\..\u8g2\csrc/u8x8_d_st7565.c ****     
 433:..\..\u8g2\csrc/u8x8_d_st7565.c ****   U8X8_START_TRANSFER(),             	/* enable chip, delay is part of the transfer start */
 434:..\..\u8g2\csrc/u8x8_d_st7565.c ****   
 435:..\..\u8g2\csrc/u8x8_d_st7565.c ****   U8X8_C(0x0e2),            			/* soft reset */
 436:..\..\u8g2\csrc/u8x8_d_st7565.c ****   U8X8_C(0x0ae),		                /* display off */
 437:..\..\u8g2\csrc/u8x8_d_st7565.c ****   U8X8_C(0x040),		                /* set display start line to 0 */
 438:..\..\u8g2\csrc/u8x8_d_st7565.c ****   
 439:..\..\u8g2\csrc/u8x8_d_st7565.c ****   U8X8_C(0x0a1),		                /* ADC set to reverse */
 440:..\..\u8g2\csrc/u8x8_d_st7565.c ****   U8X8_C(0x0c0),		                /* common output mode */
 441:..\..\u8g2\csrc/u8x8_d_st7565.c ****   // Flipmode
 442:..\..\u8g2\csrc/u8x8_d_st7565.c ****   //U8X8_C(0x0a0),		                /* ADC set to reverse */
 443:..\..\u8g2\csrc/u8x8_d_st7565.c ****   //U8X8_C(0x0c8),		                /* common output mode */
 444:..\..\u8g2\csrc/u8x8_d_st7565.c ****   
 445:..\..\u8g2\csrc/u8x8_d_st7565.c ****   U8X8_C(0x0a6),		                /* display normal, bit val 0: LCD pixel off. */
 446:..\..\u8g2\csrc/u8x8_d_st7565.c ****   U8X8_C(0x0a2),		                /* LCD bias 1/9 */
 447:..\..\u8g2\csrc/u8x8_d_st7565.c ****   U8X8_C(0x02f),		                /* all power  control circuits on */
 448:..\..\u8g2\csrc/u8x8_d_st7565.c ****   U8X8_CA(0x0f8, 0x000),		/* set booster ratio to 4x */
 449:..\..\u8g2\csrc/u8x8_d_st7565.c ****   U8X8_C(0x023),		                /* set V0 voltage resistor ratio to large*/
 450:..\..\u8g2\csrc/u8x8_d_st7565.c ****   U8X8_CA(0x081, 0x00a),		/* set contrast, contrast value NHD C12832 */
 451:..\..\u8g2\csrc/u8x8_d_st7565.c ****   
 452:..\..\u8g2\csrc/u8x8_d_st7565.c ****   U8X8_C(0x0ae),		                /* display off */
 453:..\..\u8g2\csrc/u8x8_d_st7565.c ****   U8X8_C(0x0a5),		                /* enter powersafe: all pixel on, issue 142 */
 454:..\..\u8g2\csrc/u8x8_d_st7565.c ****   
ARM GAS  C:\Users\gjl\AppData\Local\Temp\ccaUpWuc.s 			page 18


 455:..\..\u8g2\csrc/u8x8_d_st7565.c ****   U8X8_END_TRANSFER(),             	/* disable chip */
 456:..\..\u8g2\csrc/u8x8_d_st7565.c ****   U8X8_END()             			/* end of sequence */
 457:..\..\u8g2\csrc/u8x8_d_st7565.c **** };
 458:..\..\u8g2\csrc/u8x8_d_st7565.c **** 
 459:..\..\u8g2\csrc/u8x8_d_st7565.c **** uint8_t u8x8_d_st7565_nhd_c12864(u8x8_t *u8x8, uint8_t msg, uint8_t arg_int, void *arg_ptr)
 460:..\..\u8g2\csrc/u8x8_d_st7565.c **** {
 488              		.loc 1 460 0
 489              		.cfi_startproc
 490              		@ args = 0, pretend = 0, frame = 0
 491              		@ frame_needed = 0, uses_anonymous_args = 0
 492              	.LVL52:
 493 0000 70B5     		push	{r4, r5, r6, lr}
 494              		.cfi_def_cfa_offset 16
 495              		.cfi_offset 4, -16
 496              		.cfi_offset 5, -12
 497              		.cfi_offset 6, -8
 498              		.cfi_offset 14, -4
 499              		.loc 1 460 0
 500 0002 0400     		movs	r4, r0
 501 0004 0E00     		movs	r6, r1
 502 0006 1500     		movs	r5, r2
 461:..\..\u8g2\csrc/u8x8_d_st7565.c ****   /* call common procedure first and handle messages there */
 462:..\..\u8g2\csrc/u8x8_d_st7565.c ****   if ( u8x8_d_st7565_common(u8x8, msg, arg_int, arg_ptr) == 0 )
 503              		.loc 1 462 0
 504 0008 FFF7FEFF 		bl	u8x8_d_st7565_common
 505              	.LVL53:
 506 000c 0028     		cmp	r0, #0
 507 000e 25D1     		bne	.L55
 463:..\..\u8g2\csrc/u8x8_d_st7565.c ****   {
 464:..\..\u8g2\csrc/u8x8_d_st7565.c ****     /* msg not handled, then try here */
 465:..\..\u8g2\csrc/u8x8_d_st7565.c ****     switch(msg)
 508              		.loc 1 465 0
 509 0010 0A2E     		cmp	r6, #10
 510 0012 09D0     		beq	.L51
 511 0014 0D2E     		cmp	r6, #13
 512 0016 10D0     		beq	.L52
 513 0018 092E     		cmp	r6, #9
 514 001a 20D1     		bne	.L50
 466:..\..\u8g2\csrc/u8x8_d_st7565.c ****     {
 467:..\..\u8g2\csrc/u8x8_d_st7565.c ****       case U8X8_MSG_DISPLAY_SETUP_MEMORY:
 468:..\..\u8g2\csrc/u8x8_d_st7565.c **** 	u8x8_d_helper_display_setup_memory(u8x8, &u8x8_st7565_nhd_c12864_display_info);
 515              		.loc 1 468 0
 516 001c 1049     		ldr	r1, .L57
 517 001e 2000     		movs	r0, r4
 518 0020 4431     		adds	r1, r1, #68
 519 0022 FFF7FEFF 		bl	u8x8_d_helper_display_setup_memory
 520              	.LVL54:
 521 0026 19E0     		b	.L55
 522              	.L51:
 469:..\..\u8g2\csrc/u8x8_d_st7565.c **** 	break;
 470:..\..\u8g2\csrc/u8x8_d_st7565.c ****       case U8X8_MSG_DISPLAY_INIT:
 471:..\..\u8g2\csrc/u8x8_d_st7565.c **** 	u8x8_d_helper_display_init(u8x8);
 523              		.loc 1 471 0
 524 0028 2000     		movs	r0, r4
 525 002a FFF7FEFF 		bl	u8x8_d_helper_display_init
 526              	.LVL55:
 472:..\..\u8g2\csrc/u8x8_d_st7565.c **** 	u8x8_cad_SendSequence(u8x8, u8x8_d_st7565_nhd_c12864_init_seq);
ARM GAS  C:\Users\gjl\AppData\Local\Temp\ccaUpWuc.s 			page 19


 527              		.loc 1 472 0
 528 002e 0C49     		ldr	r1, .L57
 529 0030 2000     		movs	r0, r4
 530 0032 5C31     		adds	r1, r1, #92
 531 0034 FFF7FEFF 		bl	u8x8_cad_SendSequence
 532              	.LVL56:
 533 0038 10E0     		b	.L55
 534              	.L52:
 535 003a 0A49     		ldr	r1, .L57+4
 473:..\..\u8g2\csrc/u8x8_d_st7565.c **** 	break;
 474:..\..\u8g2\csrc/u8x8_d_st7565.c ****       case U8X8_MSG_DISPLAY_SET_FLIP_MODE:
 475:..\..\u8g2\csrc/u8x8_d_st7565.c **** 	if ( arg_int == 0 )
 536              		.loc 1 475 0
 537 003c 002D     		cmp	r5, #0
 538 003e 06D1     		bne	.L54
 476:..\..\u8g2\csrc/u8x8_d_st7565.c **** 	{
 477:..\..\u8g2\csrc/u8x8_d_st7565.c **** 	  u8x8_cad_SendSequence(u8x8, u8x8_d_st7565_flip0_seq);
 539              		.loc 1 477 0
 540 0040 4931     		adds	r1, r1, #73
 541 0042 2000     		movs	r0, r4
 542 0044 FFF7FEFF 		bl	u8x8_cad_SendSequence
 543              	.LVL57:
 478:..\..\u8g2\csrc/u8x8_d_st7565.c **** 	  u8x8->x_offset = u8x8->display_info->default_x_offset;
 544              		.loc 1 478 0
 545 0048 2368     		ldr	r3, [r4]
 546 004a 9B7C     		ldrb	r3, [r3, #18]
 547 004c 05E0     		b	.L56
 548              	.L54:
 479:..\..\u8g2\csrc/u8x8_d_st7565.c **** 	}
 480:..\..\u8g2\csrc/u8x8_d_st7565.c **** 	else
 481:..\..\u8g2\csrc/u8x8_d_st7565.c **** 	{
 482:..\..\u8g2\csrc/u8x8_d_st7565.c **** 	  u8x8_cad_SendSequence(u8x8, u8x8_d_st7565_flip1_seq);
 549              		.loc 1 482 0
 550 004e 5031     		adds	r1, r1, #80
 551 0050 2000     		movs	r0, r4
 552 0052 FFF7FEFF 		bl	u8x8_cad_SendSequence
 553              	.LVL58:
 483:..\..\u8g2\csrc/u8x8_d_st7565.c **** 	  u8x8->x_offset = u8x8->display_info->flipmode_x_offset;
 554              		.loc 1 483 0
 555 0056 2368     		ldr	r3, [r4]
 556 0058 DB7C     		ldrb	r3, [r3, #19]
 557              	.L56:
 558 005a A377     		strb	r3, [r4, #30]
 559              	.L55:
 484:..\..\u8g2\csrc/u8x8_d_st7565.c **** 	}	
 485:..\..\u8g2\csrc/u8x8_d_st7565.c **** 	break;
 486:..\..\u8g2\csrc/u8x8_d_st7565.c ****       default:
 487:..\..\u8g2\csrc/u8x8_d_st7565.c **** 	return 0;		/* msg unknown */
 488:..\..\u8g2\csrc/u8x8_d_st7565.c ****     }
 489:..\..\u8g2\csrc/u8x8_d_st7565.c ****   }
 490:..\..\u8g2\csrc/u8x8_d_st7565.c ****   return 1;
 560              		.loc 1 490 0
 561 005c 0120     		movs	r0, #1
 562              	.L50:
 491:..\..\u8g2\csrc/u8x8_d_st7565.c **** }
 563              		.loc 1 491 0
 564              		@ sp needed
ARM GAS  C:\Users\gjl\AppData\Local\Temp\ccaUpWuc.s 			page 20


 565              	.LVL59:
 566 005e 70BD     		pop	{r4, r5, r6, pc}
 567              	.L58:
 568              		.align	2
 569              	.L57:
 570 0060 80000000 		.word	.LANCHOR1
 571 0064 00000000 		.word	.LANCHOR0
 572              		.cfi_endproc
 573              	.LFE4:
 574              		.size	u8x8_d_st7565_nhd_c12864, .-u8x8_d_st7565_nhd_c12864
 575              		.section	.text.u8x8_d_st7565_lm6059,"ax",%progbits
 576              		.align	1
 577              		.global	u8x8_d_st7565_lm6059
 578              		.code	16
 579              		.thumb_func
 580              		.type	u8x8_d_st7565_lm6059, %function
 581              	u8x8_d_st7565_lm6059:
 582              	.LFB5:
 492:..\..\u8g2\csrc/u8x8_d_st7565.c **** 
 493:..\..\u8g2\csrc/u8x8_d_st7565.c **** /*================================================*/
 494:..\..\u8g2\csrc/u8x8_d_st7565.c **** /* LM6059 (Adafruit)... probably this is a ST7567 display */
 495:..\..\u8g2\csrc/u8x8_d_st7565.c **** 
 496:..\..\u8g2\csrc/u8x8_d_st7565.c **** static const uint8_t u8x8_d_st7565_lm6059_init_seq[] = {
 497:..\..\u8g2\csrc/u8x8_d_st7565.c ****     
 498:..\..\u8g2\csrc/u8x8_d_st7565.c ****   U8X8_START_TRANSFER(),             	/* enable chip, delay is part of the transfer start */
 499:..\..\u8g2\csrc/u8x8_d_st7565.c ****   
 500:..\..\u8g2\csrc/u8x8_d_st7565.c ****   U8X8_C(0x0e2),            			/* soft reset */
 501:..\..\u8g2\csrc/u8x8_d_st7565.c ****   U8X8_C(0x0ae),		                /* display off */
 502:..\..\u8g2\csrc/u8x8_d_st7565.c ****   U8X8_C(0x060),		                /* set display start line to ... */
 503:..\..\u8g2\csrc/u8x8_d_st7565.c ****   
 504:..\..\u8g2\csrc/u8x8_d_st7565.c ****   U8X8_C(0x0a0),		                /* ADC set to reverse */
 505:..\..\u8g2\csrc/u8x8_d_st7565.c ****   U8X8_C(0x0c8),		                /* common output mode */
 506:..\..\u8g2\csrc/u8x8_d_st7565.c ****   //U8X8_C(0x0a1),		                /* ADC set to reverse */
 507:..\..\u8g2\csrc/u8x8_d_st7565.c ****   //U8X8_C(0x0c0),		                /* common output mode */
 508:..\..\u8g2\csrc/u8x8_d_st7565.c ****   // Flipmode
 509:..\..\u8g2\csrc/u8x8_d_st7565.c ****   // U8X8_C(0x0a0),		                /* ADC set to reverse */
 510:..\..\u8g2\csrc/u8x8_d_st7565.c ****   // U8X8_C(0x0c8),		                /* common output mode */
 511:..\..\u8g2\csrc/u8x8_d_st7565.c ****   
 512:..\..\u8g2\csrc/u8x8_d_st7565.c ****   U8X8_C(0x0a6),		                /* display normal, bit val 0: LCD pixel off. */
 513:..\..\u8g2\csrc/u8x8_d_st7565.c ****   U8X8_C(0x0a3),		                /* LCD bias 1/9 */
 514:..\..\u8g2\csrc/u8x8_d_st7565.c ****   U8X8_C(0x02f),		                /* all power  control circuits on */
 515:..\..\u8g2\csrc/u8x8_d_st7565.c ****   U8X8_CA(0x0f8, 0x000),		/* set booster ratio to 4x (ST7567 feature)*/
 516:..\..\u8g2\csrc/u8x8_d_st7565.c ****   U8X8_C(0x027),		                /* regulator, booster and follower */
 517:..\..\u8g2\csrc/u8x8_d_st7565.c ****   U8X8_CA(0x081, 0x018),		/* set contrast, contrast value, EA default: 0x016 */
 518:..\..\u8g2\csrc/u8x8_d_st7565.c ****   
 519:..\..\u8g2\csrc/u8x8_d_st7565.c ****   U8X8_C(0x0ae),		                /* display off */
 520:..\..\u8g2\csrc/u8x8_d_st7565.c ****   U8X8_C(0x0a5),		                /* enter powersafe: all pixel on, issue 142 */
 521:..\..\u8g2\csrc/u8x8_d_st7565.c ****   
 522:..\..\u8g2\csrc/u8x8_d_st7565.c ****   U8X8_END_TRANSFER(),             	/* disable chip */
 523:..\..\u8g2\csrc/u8x8_d_st7565.c ****   U8X8_END()             			/* end of sequence */
 524:..\..\u8g2\csrc/u8x8_d_st7565.c **** };
 525:..\..\u8g2\csrc/u8x8_d_st7565.c **** 
 526:..\..\u8g2\csrc/u8x8_d_st7565.c **** static const u8x8_display_info_t u8x8_st7565_lm6059_display_info =
 527:..\..\u8g2\csrc/u8x8_d_st7565.c **** {
 528:..\..\u8g2\csrc/u8x8_d_st7565.c ****   /* chip_enable_level = */ 0,
 529:..\..\u8g2\csrc/u8x8_d_st7565.c ****   /* chip_disable_level = */ 1,
 530:..\..\u8g2\csrc/u8x8_d_st7565.c ****   
ARM GAS  C:\Users\gjl\AppData\Local\Temp\ccaUpWuc.s 			page 21


 531:..\..\u8g2\csrc/u8x8_d_st7565.c ****   /* post_chip_enable_wait_ns = */ 150,	/* st7565 datasheet, table 26, tcsh */
 532:..\..\u8g2\csrc/u8x8_d_st7565.c ****   /* pre_chip_disable_wait_ns = */ 50,	/* st7565 datasheet, table 26, tcss */
 533:..\..\u8g2\csrc/u8x8_d_st7565.c ****   /* reset_pulse_width_ms = */ 1, 
 534:..\..\u8g2\csrc/u8x8_d_st7565.c ****   /* post_reset_wait_ms = */ 1, 
 535:..\..\u8g2\csrc/u8x8_d_st7565.c ****   /* sda_setup_time_ns = */ 50,		/* st7565 datasheet, table 26, tsds */
 536:..\..\u8g2\csrc/u8x8_d_st7565.c ****   /* sck_pulse_width_ns = */ 120,	/* half of cycle time (100ns according to datasheet), AVR: below 
 537:..\..\u8g2\csrc/u8x8_d_st7565.c ****   /* sck_clock_hz = */ 4000000UL,	/* since Arduino 1.6.0, the SPI bus speed in Hz. Should be  10000
 538:..\..\u8g2\csrc/u8x8_d_st7565.c ****   /* spi_mode = */ 0,		/* active high, rising edge */
 539:..\..\u8g2\csrc/u8x8_d_st7565.c ****   /* i2c_bus_clock_100kHz = */ 4,
 540:..\..\u8g2\csrc/u8x8_d_st7565.c ****   /* data_setup_time_ns = */ 40,	/* st7565 datasheet, table 24, tds8 */
 541:..\..\u8g2\csrc/u8x8_d_st7565.c ****   /* write_pulse_width_ns = */ 80,	/* st7565 datasheet, table 24, tcclw */
 542:..\..\u8g2\csrc/u8x8_d_st7565.c ****   /* tile_width = */ 16,		/* width of 16*8=128 pixel */
 543:..\..\u8g2\csrc/u8x8_d_st7565.c ****   /* tile_hight = */ 8,
 544:..\..\u8g2\csrc/u8x8_d_st7565.c ****   /* default_x_offset = */ 1,	/* not sure... */
 545:..\..\u8g2\csrc/u8x8_d_st7565.c ****   /* flipmode_x_offset = */ 3,
 546:..\..\u8g2\csrc/u8x8_d_st7565.c ****   /* pixel_width = */ 128,
 547:..\..\u8g2\csrc/u8x8_d_st7565.c ****   /* pixel_height = */ 64
 548:..\..\u8g2\csrc/u8x8_d_st7565.c **** };
 549:..\..\u8g2\csrc/u8x8_d_st7565.c **** 
 550:..\..\u8g2\csrc/u8x8_d_st7565.c **** uint8_t u8x8_d_st7565_lm6059(u8x8_t *u8x8, uint8_t msg, uint8_t arg_int, void *arg_ptr)
 551:..\..\u8g2\csrc/u8x8_d_st7565.c **** {
 583              		.loc 1 551 0
 584              		.cfi_startproc
 585              		@ args = 0, pretend = 0, frame = 0
 586              		@ frame_needed = 0, uses_anonymous_args = 0
 587              	.LVL60:
 588 0000 70B5     		push	{r4, r5, r6, lr}
 589              		.cfi_def_cfa_offset 16
 590              		.cfi_offset 4, -16
 591              		.cfi_offset 5, -12
 592              		.cfi_offset 6, -8
 593              		.cfi_offset 14, -4
 594              		.loc 1 551 0
 595 0002 0400     		movs	r4, r0
 596 0004 0E00     		movs	r6, r1
 597 0006 1500     		movs	r5, r2
 552:..\..\u8g2\csrc/u8x8_d_st7565.c ****   /* call common procedure first and handle messages there */
 553:..\..\u8g2\csrc/u8x8_d_st7565.c ****   if ( u8x8_d_st7565_common(u8x8, msg, arg_int, arg_ptr) == 0 )
 598              		.loc 1 553 0
 599 0008 FFF7FEFF 		bl	u8x8_d_st7565_common
 600              	.LVL61:
 601 000c 0028     		cmp	r0, #0
 602 000e 24D1     		bne	.L65
 554:..\..\u8g2\csrc/u8x8_d_st7565.c ****   {
 555:..\..\u8g2\csrc/u8x8_d_st7565.c ****     /* msg not handled, then try here */
 556:..\..\u8g2\csrc/u8x8_d_st7565.c ****     switch(msg)
 603              		.loc 1 556 0
 604 0010 0A2E     		cmp	r6, #10
 605 0012 08D0     		beq	.L61
 606 0014 0D2E     		cmp	r6, #13
 607 0016 0FD0     		beq	.L62
 608 0018 092E     		cmp	r6, #9
 609 001a 1FD1     		bne	.L60
 557:..\..\u8g2\csrc/u8x8_d_st7565.c ****     {
 558:..\..\u8g2\csrc/u8x8_d_st7565.c ****       case U8X8_MSG_DISPLAY_SETUP_MEMORY:
 559:..\..\u8g2\csrc/u8x8_d_st7565.c **** 	u8x8_d_helper_display_setup_memory(u8x8, &u8x8_st7565_lm6059_display_info);
 610              		.loc 1 559 0
ARM GAS  C:\Users\gjl\AppData\Local\Temp\ccaUpWuc.s 			page 22


 611 001c 1049     		ldr	r1, .L67
 612 001e 2000     		movs	r0, r4
 613 0020 FFF7FEFF 		bl	u8x8_d_helper_display_setup_memory
 614              	.LVL62:
 615 0024 19E0     		b	.L65
 616              	.L61:
 560:..\..\u8g2\csrc/u8x8_d_st7565.c **** 	break;
 561:..\..\u8g2\csrc/u8x8_d_st7565.c ****       case U8X8_MSG_DISPLAY_INIT:
 562:..\..\u8g2\csrc/u8x8_d_st7565.c **** 	u8x8_d_helper_display_init(u8x8);
 617              		.loc 1 562 0
 618 0026 2000     		movs	r0, r4
 619 0028 FFF7FEFF 		bl	u8x8_d_helper_display_init
 620              	.LVL63:
 563:..\..\u8g2\csrc/u8x8_d_st7565.c **** 	u8x8_cad_SendSequence(u8x8, u8x8_d_st7565_lm6059_init_seq);
 621              		.loc 1 563 0
 622 002c 0C49     		ldr	r1, .L67
 623 002e 2000     		movs	r0, r4
 624 0030 1831     		adds	r1, r1, #24
 625 0032 FFF7FEFF 		bl	u8x8_cad_SendSequence
 626              	.LVL64:
 627 0036 10E0     		b	.L65
 628              	.L62:
 629 0038 0A49     		ldr	r1, .L67+4
 564:..\..\u8g2\csrc/u8x8_d_st7565.c **** 	break;
 565:..\..\u8g2\csrc/u8x8_d_st7565.c ****       case U8X8_MSG_DISPLAY_SET_FLIP_MODE:
 566:..\..\u8g2\csrc/u8x8_d_st7565.c **** 	if ( arg_int == 0 )
 630              		.loc 1 566 0
 631 003a 002D     		cmp	r5, #0
 632 003c 06D1     		bne	.L64
 567:..\..\u8g2\csrc/u8x8_d_st7565.c **** 	{
 568:..\..\u8g2\csrc/u8x8_d_st7565.c **** 	  u8x8_cad_SendSequence(u8x8, u8x8_d_st7565_flip1_seq);
 633              		.loc 1 568 0
 634 003e 5031     		adds	r1, r1, #80
 635 0040 2000     		movs	r0, r4
 636 0042 FFF7FEFF 		bl	u8x8_cad_SendSequence
 637              	.LVL65:
 569:..\..\u8g2\csrc/u8x8_d_st7565.c **** 	  u8x8->x_offset = u8x8->display_info->default_x_offset;
 638              		.loc 1 569 0
 639 0046 2368     		ldr	r3, [r4]
 640 0048 9B7C     		ldrb	r3, [r3, #18]
 641 004a 05E0     		b	.L66
 642              	.L64:
 570:..\..\u8g2\csrc/u8x8_d_st7565.c **** 	}
 571:..\..\u8g2\csrc/u8x8_d_st7565.c **** 	else
 572:..\..\u8g2\csrc/u8x8_d_st7565.c **** 	{
 573:..\..\u8g2\csrc/u8x8_d_st7565.c **** 	  u8x8_cad_SendSequence(u8x8, u8x8_d_st7565_flip0_seq);
 643              		.loc 1 573 0
 644 004c 4931     		adds	r1, r1, #73
 645 004e 2000     		movs	r0, r4
 646 0050 FFF7FEFF 		bl	u8x8_cad_SendSequence
 647              	.LVL66:
 574:..\..\u8g2\csrc/u8x8_d_st7565.c **** 	  u8x8->x_offset = u8x8->display_info->flipmode_x_offset;
 648              		.loc 1 574 0
 649 0054 2368     		ldr	r3, [r4]
 650 0056 DB7C     		ldrb	r3, [r3, #19]
 651              	.L66:
 652 0058 A377     		strb	r3, [r4, #30]
ARM GAS  C:\Users\gjl\AppData\Local\Temp\ccaUpWuc.s 			page 23


 653              	.L65:
 575:..\..\u8g2\csrc/u8x8_d_st7565.c **** 	}	
 576:..\..\u8g2\csrc/u8x8_d_st7565.c **** 	break;
 577:..\..\u8g2\csrc/u8x8_d_st7565.c ****       default:
 578:..\..\u8g2\csrc/u8x8_d_st7565.c **** 	return 0;		/* msg unknown */
 579:..\..\u8g2\csrc/u8x8_d_st7565.c ****     }
 580:..\..\u8g2\csrc/u8x8_d_st7565.c ****   }
 581:..\..\u8g2\csrc/u8x8_d_st7565.c ****   return 1;
 654              		.loc 1 581 0
 655 005a 0120     		movs	r0, #1
 656              	.L60:
 582:..\..\u8g2\csrc/u8x8_d_st7565.c **** }
 657              		.loc 1 582 0
 658              		@ sp needed
 659              	.LVL67:
 660 005c 70BD     		pop	{r4, r5, r6, pc}
 661              	.L68:
 662 005e C046     		.align	2
 663              	.L67:
 664 0060 00010000 		.word	.LANCHOR2
 665 0064 00000000 		.word	.LANCHOR0
 666              		.cfi_endproc
 667              	.LFE5:
 668              		.size	u8x8_d_st7565_lm6059, .-u8x8_d_st7565_lm6059
 669              		.section	.text.u8x8_d_st7565_erc12864,"ax",%progbits
 670              		.align	1
 671              		.global	u8x8_d_st7565_erc12864
 672              		.code	16
 673              		.thumb_func
 674              		.type	u8x8_d_st7565_erc12864, %function
 675              	u8x8_d_st7565_erc12864:
 676              	.LFB6:
 583:..\..\u8g2\csrc/u8x8_d_st7565.c **** 
 584:..\..\u8g2\csrc/u8x8_d_st7565.c **** 
 585:..\..\u8g2\csrc/u8x8_d_st7565.c **** /*================================================*/
 586:..\..\u8g2\csrc/u8x8_d_st7565.c **** /* ERC12864-1 (buydisplay.com) */
 587:..\..\u8g2\csrc/u8x8_d_st7565.c **** 
 588:..\..\u8g2\csrc/u8x8_d_st7565.c **** static const uint8_t u8x8_d_st7565_erc12864_init_seq[] = {
 589:..\..\u8g2\csrc/u8x8_d_st7565.c ****     
 590:..\..\u8g2\csrc/u8x8_d_st7565.c ****   U8X8_START_TRANSFER(),             	/* enable chip, delay is part of the transfer start */
 591:..\..\u8g2\csrc/u8x8_d_st7565.c ****   
 592:..\..\u8g2\csrc/u8x8_d_st7565.c ****   U8X8_C(0x0e2),            			/* soft reset */
 593:..\..\u8g2\csrc/u8x8_d_st7565.c ****   U8X8_C(0x0ae),		                /* display off */
 594:..\..\u8g2\csrc/u8x8_d_st7565.c ****   U8X8_C(0x040),		                /* set display start line to ... */
 595:..\..\u8g2\csrc/u8x8_d_st7565.c ****   
 596:..\..\u8g2\csrc/u8x8_d_st7565.c ****   U8X8_C(0x0a0),		                /* ADC set to reverse */
 597:..\..\u8g2\csrc/u8x8_d_st7565.c ****   U8X8_C(0x0c8),		                /* common output mode */
 598:..\..\u8g2\csrc/u8x8_d_st7565.c ****   //U8X8_C(0x0a1),		                /* ADC set to reverse */
 599:..\..\u8g2\csrc/u8x8_d_st7565.c ****   //U8X8_C(0x0c0),		                /* common output mode */
 600:..\..\u8g2\csrc/u8x8_d_st7565.c ****   // Flipmode
 601:..\..\u8g2\csrc/u8x8_d_st7565.c ****   // U8X8_C(0x0a0),		                /* ADC set to reverse */
 602:..\..\u8g2\csrc/u8x8_d_st7565.c ****   // U8X8_C(0x0c8),		                /* common output mode */
 603:..\..\u8g2\csrc/u8x8_d_st7565.c ****   
 604:..\..\u8g2\csrc/u8x8_d_st7565.c ****   U8X8_C(0x0a6),		                /* display normal, bit val 0: LCD pixel off. */
 605:..\..\u8g2\csrc/u8x8_d_st7565.c ****   U8X8_C(0x0a3),		                /* LCD bias 1/9 */
 606:..\..\u8g2\csrc/u8x8_d_st7565.c ****   U8X8_C(0x02f),		                /* all power  control circuits on */
 607:..\..\u8g2\csrc/u8x8_d_st7565.c ****   U8X8_CA(0x0f8, 0x000),		/* set booster ratio to 4x (ST7567 feature)*/
ARM GAS  C:\Users\gjl\AppData\Local\Temp\ccaUpWuc.s 			page 24


 608:..\..\u8g2\csrc/u8x8_d_st7565.c ****   U8X8_C(0x027),		                /* regulator, booster and follower */
 609:..\..\u8g2\csrc/u8x8_d_st7565.c ****   U8X8_CA(0x081, 0x018),		/* set contrast, contrast value, EA default: 0x016 */
 610:..\..\u8g2\csrc/u8x8_d_st7565.c ****   
 611:..\..\u8g2\csrc/u8x8_d_st7565.c ****   U8X8_C(0x0ae),		                /* display off */
 612:..\..\u8g2\csrc/u8x8_d_st7565.c ****   U8X8_C(0x0a5),		                /* enter powersafe: all pixel on, issue 142 */
 613:..\..\u8g2\csrc/u8x8_d_st7565.c ****   
 614:..\..\u8g2\csrc/u8x8_d_st7565.c ****   U8X8_END_TRANSFER(),             	/* disable chip */
 615:..\..\u8g2\csrc/u8x8_d_st7565.c ****   U8X8_END()             			/* end of sequence */
 616:..\..\u8g2\csrc/u8x8_d_st7565.c **** };
 617:..\..\u8g2\csrc/u8x8_d_st7565.c **** 
 618:..\..\u8g2\csrc/u8x8_d_st7565.c **** static const u8x8_display_info_t u8x8_st7565_erc12864_display_info =
 619:..\..\u8g2\csrc/u8x8_d_st7565.c **** {
 620:..\..\u8g2\csrc/u8x8_d_st7565.c ****   /* chip_enable_level = */ 0,
 621:..\..\u8g2\csrc/u8x8_d_st7565.c ****   /* chip_disable_level = */ 1,
 622:..\..\u8g2\csrc/u8x8_d_st7565.c ****   
 623:..\..\u8g2\csrc/u8x8_d_st7565.c ****   /* post_chip_enable_wait_ns = */ 150,	/* st7565 datasheet, table 26, tcsh */
 624:..\..\u8g2\csrc/u8x8_d_st7565.c ****   /* pre_chip_disable_wait_ns = */ 50,	/* st7565 datasheet, table 26, tcss */
 625:..\..\u8g2\csrc/u8x8_d_st7565.c ****   /* reset_pulse_width_ms = */ 1, 
 626:..\..\u8g2\csrc/u8x8_d_st7565.c ****   /* post_reset_wait_ms = */ 1, 
 627:..\..\u8g2\csrc/u8x8_d_st7565.c ****   /* sda_setup_time_ns = */ 50,		/* st7565 datasheet, table 26, tsds */
 628:..\..\u8g2\csrc/u8x8_d_st7565.c ****   /* sck_pulse_width_ns = */ 120,	/* half of cycle time (100ns according to datasheet), AVR: below 
 629:..\..\u8g2\csrc/u8x8_d_st7565.c ****   /* sck_clock_hz = */ 4000000UL,	/* since Arduino 1.6.0, the SPI bus speed in Hz. Should be  10000
 630:..\..\u8g2\csrc/u8x8_d_st7565.c ****   /* spi_mode = */ 0,		/* active high, rising edge */
 631:..\..\u8g2\csrc/u8x8_d_st7565.c ****   /* i2c_bus_clock_100kHz = */ 4,
 632:..\..\u8g2\csrc/u8x8_d_st7565.c ****   /* data_setup_time_ns = */ 40,	/* st7565 datasheet, table 24, tds8 */
 633:..\..\u8g2\csrc/u8x8_d_st7565.c ****   /* write_pulse_width_ns = */ 80,	/* st7565 datasheet, table 24, tcclw */
 634:..\..\u8g2\csrc/u8x8_d_st7565.c ****   /* tile_width = */ 16,		/* width of 16*8=128 pixel */
 635:..\..\u8g2\csrc/u8x8_d_st7565.c ****   /* tile_hight = */ 8,
 636:..\..\u8g2\csrc/u8x8_d_st7565.c ****   /* default_x_offset = */ 0,
 637:..\..\u8g2\csrc/u8x8_d_st7565.c ****   /* flipmode_x_offset = */ 4,
 638:..\..\u8g2\csrc/u8x8_d_st7565.c ****   /* pixel_width = */ 128,
 639:..\..\u8g2\csrc/u8x8_d_st7565.c ****   /* pixel_height = */ 64
 640:..\..\u8g2\csrc/u8x8_d_st7565.c **** };
 641:..\..\u8g2\csrc/u8x8_d_st7565.c **** 
 642:..\..\u8g2\csrc/u8x8_d_st7565.c **** uint8_t u8x8_d_st7565_erc12864(u8x8_t *u8x8, uint8_t msg, uint8_t arg_int, void *arg_ptr)
 643:..\..\u8g2\csrc/u8x8_d_st7565.c **** {
 677              		.loc 1 643 0
 678              		.cfi_startproc
 679              		@ args = 0, pretend = 0, frame = 0
 680              		@ frame_needed = 0, uses_anonymous_args = 0
 681              	.LVL68:
 682 0000 70B5     		push	{r4, r5, r6, lr}
 683              		.cfi_def_cfa_offset 16
 684              		.cfi_offset 4, -16
 685              		.cfi_offset 5, -12
 686              		.cfi_offset 6, -8
 687              		.cfi_offset 14, -4
 688              		.loc 1 643 0
 689 0002 0400     		movs	r4, r0
 690 0004 0E00     		movs	r6, r1
 691 0006 1500     		movs	r5, r2
 644:..\..\u8g2\csrc/u8x8_d_st7565.c ****   /* call common procedure first and handle messages there */
 645:..\..\u8g2\csrc/u8x8_d_st7565.c ****   if ( u8x8_d_st7565_common(u8x8, msg, arg_int, arg_ptr) == 0 )
 692              		.loc 1 645 0
 693 0008 FFF7FEFF 		bl	u8x8_d_st7565_common
 694              	.LVL69:
 695 000c 0028     		cmp	r0, #0
ARM GAS  C:\Users\gjl\AppData\Local\Temp\ccaUpWuc.s 			page 25


 696 000e 25D1     		bne	.L75
 646:..\..\u8g2\csrc/u8x8_d_st7565.c ****   {
 647:..\..\u8g2\csrc/u8x8_d_st7565.c ****     /* msg not handled, then try here */
 648:..\..\u8g2\csrc/u8x8_d_st7565.c ****     switch(msg)
 697              		.loc 1 648 0
 698 0010 0A2E     		cmp	r6, #10
 699 0012 09D0     		beq	.L71
 700 0014 0D2E     		cmp	r6, #13
 701 0016 10D0     		beq	.L72
 702 0018 092E     		cmp	r6, #9
 703 001a 20D1     		bne	.L70
 649:..\..\u8g2\csrc/u8x8_d_st7565.c ****     {
 650:..\..\u8g2\csrc/u8x8_d_st7565.c ****       case U8X8_MSG_DISPLAY_SETUP_MEMORY:
 651:..\..\u8g2\csrc/u8x8_d_st7565.c **** 	u8x8_d_helper_display_setup_memory(u8x8, &u8x8_st7565_erc12864_display_info);
 704              		.loc 1 651 0
 705 001c 1049     		ldr	r1, .L77
 706 001e 2000     		movs	r0, r4
 707 0020 3C31     		adds	r1, r1, #60
 708 0022 FFF7FEFF 		bl	u8x8_d_helper_display_setup_memory
 709              	.LVL70:
 710 0026 19E0     		b	.L75
 711              	.L71:
 652:..\..\u8g2\csrc/u8x8_d_st7565.c **** 	break;
 653:..\..\u8g2\csrc/u8x8_d_st7565.c ****       case U8X8_MSG_DISPLAY_INIT:
 654:..\..\u8g2\csrc/u8x8_d_st7565.c **** 	u8x8_d_helper_display_init(u8x8);
 712              		.loc 1 654 0
 713 0028 2000     		movs	r0, r4
 714 002a FFF7FEFF 		bl	u8x8_d_helper_display_init
 715              	.LVL71:
 655:..\..\u8g2\csrc/u8x8_d_st7565.c **** 	u8x8_cad_SendSequence(u8x8, u8x8_d_st7565_erc12864_init_seq);
 716              		.loc 1 655 0
 717 002e 0C49     		ldr	r1, .L77
 718 0030 2000     		movs	r0, r4
 719 0032 5431     		adds	r1, r1, #84
 720 0034 FFF7FEFF 		bl	u8x8_cad_SendSequence
 721              	.LVL72:
 722 0038 10E0     		b	.L75
 723              	.L72:
 724 003a 0A49     		ldr	r1, .L77+4
 656:..\..\u8g2\csrc/u8x8_d_st7565.c **** 	break;
 657:..\..\u8g2\csrc/u8x8_d_st7565.c ****       case U8X8_MSG_DISPLAY_SET_FLIP_MODE:
 658:..\..\u8g2\csrc/u8x8_d_st7565.c **** 	if ( arg_int == 0 )
 725              		.loc 1 658 0
 726 003c 002D     		cmp	r5, #0
 727 003e 06D1     		bne	.L74
 659:..\..\u8g2\csrc/u8x8_d_st7565.c **** 	{
 660:..\..\u8g2\csrc/u8x8_d_st7565.c **** 	  u8x8_cad_SendSequence(u8x8, u8x8_d_st7565_flip1_seq);
 728              		.loc 1 660 0
 729 0040 5031     		adds	r1, r1, #80
 730 0042 2000     		movs	r0, r4
 731 0044 FFF7FEFF 		bl	u8x8_cad_SendSequence
 732              	.LVL73:
 661:..\..\u8g2\csrc/u8x8_d_st7565.c **** 	  u8x8->x_offset = u8x8->display_info->default_x_offset;
 733              		.loc 1 661 0
 734 0048 2368     		ldr	r3, [r4]
 735 004a 9B7C     		ldrb	r3, [r3, #18]
 736 004c 05E0     		b	.L76
ARM GAS  C:\Users\gjl\AppData\Local\Temp\ccaUpWuc.s 			page 26


 737              	.L74:
 662:..\..\u8g2\csrc/u8x8_d_st7565.c **** 	}
 663:..\..\u8g2\csrc/u8x8_d_st7565.c **** 	else
 664:..\..\u8g2\csrc/u8x8_d_st7565.c **** 	{
 665:..\..\u8g2\csrc/u8x8_d_st7565.c **** 	  u8x8_cad_SendSequence(u8x8, u8x8_d_st7565_flip0_seq);
 738              		.loc 1 665 0
 739 004e 4931     		adds	r1, r1, #73
 740 0050 2000     		movs	r0, r4
 741 0052 FFF7FEFF 		bl	u8x8_cad_SendSequence
 742              	.LVL74:
 666:..\..\u8g2\csrc/u8x8_d_st7565.c **** 	  u8x8->x_offset = u8x8->display_info->flipmode_x_offset;
 743              		.loc 1 666 0
 744 0056 2368     		ldr	r3, [r4]
 745 0058 DB7C     		ldrb	r3, [r3, #19]
 746              	.L76:
 747 005a A377     		strb	r3, [r4, #30]
 748              	.L75:
 667:..\..\u8g2\csrc/u8x8_d_st7565.c **** 	}	
 668:..\..\u8g2\csrc/u8x8_d_st7565.c **** 	break;
 669:..\..\u8g2\csrc/u8x8_d_st7565.c ****       default:
 670:..\..\u8g2\csrc/u8x8_d_st7565.c **** 	return 0;		/* msg unknown */
 671:..\..\u8g2\csrc/u8x8_d_st7565.c ****     }
 672:..\..\u8g2\csrc/u8x8_d_st7565.c ****   }
 673:..\..\u8g2\csrc/u8x8_d_st7565.c ****   return 1;
 749              		.loc 1 673 0
 750 005c 0120     		movs	r0, #1
 751              	.L70:
 674:..\..\u8g2\csrc/u8x8_d_st7565.c **** }
 752              		.loc 1 674 0
 753              		@ sp needed
 754              	.LVL75:
 755 005e 70BD     		pop	{r4, r5, r6, pc}
 756              	.L78:
 757              		.align	2
 758              	.L77:
 759 0060 00010000 		.word	.LANCHOR2
 760 0064 00000000 		.word	.LANCHOR0
 761              		.cfi_endproc
 762              	.LFE6:
 763              		.size	u8x8_d_st7565_erc12864, .-u8x8_d_st7565_erc12864
 764              		.section	.text.u8x8_d_nt7534_tg12864r,"ax",%progbits
 765              		.align	1
 766              		.global	u8x8_d_nt7534_tg12864r
 767              		.code	16
 768              		.thumb_func
 769              		.type	u8x8_d_nt7534_tg12864r, %function
 770              	u8x8_d_nt7534_tg12864r:
 771              	.LFB7:
 675:..\..\u8g2\csrc/u8x8_d_st7565.c **** 
 676:..\..\u8g2\csrc/u8x8_d_st7565.c **** 
 677:..\..\u8g2\csrc/u8x8_d_st7565.c **** /*================================================*/
 678:..\..\u8g2\csrc/u8x8_d_st7565.c **** /* NT7534, TG12864R */
 679:..\..\u8g2\csrc/u8x8_d_st7565.c **** /* The NT7534 has an extended command set for the ST7565, however this is not used. */
 680:..\..\u8g2\csrc/u8x8_d_st7565.c **** /* The TG12864R display is also shifted in lines, like the LM6059/Adafruit display */
 681:..\..\u8g2\csrc/u8x8_d_st7565.c **** /* However contrast seems to be different */
 682:..\..\u8g2\csrc/u8x8_d_st7565.c **** 
 683:..\..\u8g2\csrc/u8x8_d_st7565.c **** static const uint8_t u8x8_d_nt7534_tg12864r_init_seq[] = {
ARM GAS  C:\Users\gjl\AppData\Local\Temp\ccaUpWuc.s 			page 27


 684:..\..\u8g2\csrc/u8x8_d_st7565.c ****     
 685:..\..\u8g2\csrc/u8x8_d_st7565.c ****   U8X8_START_TRANSFER(),             	/* enable chip, delay is part of the transfer start */
 686:..\..\u8g2\csrc/u8x8_d_st7565.c ****   
 687:..\..\u8g2\csrc/u8x8_d_st7565.c ****   U8X8_C(0x0e2),            			/* soft reset */
 688:..\..\u8g2\csrc/u8x8_d_st7565.c ****   U8X8_C(0x0ae),		                /* display off */
 689:..\..\u8g2\csrc/u8x8_d_st7565.c ****   U8X8_C(0x060),		                /* set display start line to ... */
 690:..\..\u8g2\csrc/u8x8_d_st7565.c ****   
 691:..\..\u8g2\csrc/u8x8_d_st7565.c ****   U8X8_C(0x0a0),		                /* ADC set to reverse */
 692:..\..\u8g2\csrc/u8x8_d_st7565.c ****   U8X8_C(0x0c8),		                /* common output mode */
 693:..\..\u8g2\csrc/u8x8_d_st7565.c ****   // Flipmode
 694:..\..\u8g2\csrc/u8x8_d_st7565.c ****   //U8X8_C(0x0a1),		                /* ADC set to reverse */
 695:..\..\u8g2\csrc/u8x8_d_st7565.c ****   //U8X8_C(0x0c0),		                /* common output mode */
 696:..\..\u8g2\csrc/u8x8_d_st7565.c ****   
 697:..\..\u8g2\csrc/u8x8_d_st7565.c ****   U8X8_C(0x0a6),		                /* display normal, bit val 0: LCD pixel off. */
 698:..\..\u8g2\csrc/u8x8_d_st7565.c ****   U8X8_C(0x0a3),		                /* LCD bias 1/9 */
 699:..\..\u8g2\csrc/u8x8_d_st7565.c ****   U8X8_C(0x02f),		                /* all power  control circuits on */
 700:..\..\u8g2\csrc/u8x8_d_st7565.c ****   //U8X8_CA(0x0f8, 0x000),		/* set booster ratio to 4x (ST7567 feature)*/
 701:..\..\u8g2\csrc/u8x8_d_st7565.c ****   U8X8_C(0x027),		                /* regulator, booster and follower */
 702:..\..\u8g2\csrc/u8x8_d_st7565.c ****   U8X8_CA(0x081, 0x009),		/* set contrast, contrast value, EA default: 0x016 */
 703:..\..\u8g2\csrc/u8x8_d_st7565.c ****   
 704:..\..\u8g2\csrc/u8x8_d_st7565.c ****   U8X8_C(0x0ae),		                /* display off */
 705:..\..\u8g2\csrc/u8x8_d_st7565.c ****   U8X8_C(0x0a5),		                /* enter powersafe: all pixel on, issue 142 */
 706:..\..\u8g2\csrc/u8x8_d_st7565.c ****   
 707:..\..\u8g2\csrc/u8x8_d_st7565.c ****   U8X8_END_TRANSFER(),             	/* disable chip */
 708:..\..\u8g2\csrc/u8x8_d_st7565.c ****   U8X8_END()             			/* end of sequence */
 709:..\..\u8g2\csrc/u8x8_d_st7565.c **** };
 710:..\..\u8g2\csrc/u8x8_d_st7565.c **** 
 711:..\..\u8g2\csrc/u8x8_d_st7565.c **** uint8_t u8x8_d_nt7534_tg12864r(u8x8_t *u8x8, uint8_t msg, uint8_t arg_int, void *arg_ptr)
 712:..\..\u8g2\csrc/u8x8_d_st7565.c **** {
 772              		.loc 1 712 0
 773              		.cfi_startproc
 774              		@ args = 0, pretend = 0, frame = 0
 775              		@ frame_needed = 0, uses_anonymous_args = 0
 776              	.LVL76:
 777 0000 70B5     		push	{r4, r5, r6, lr}
 778              		.cfi_def_cfa_offset 16
 779              		.cfi_offset 4, -16
 780              		.cfi_offset 5, -12
 781              		.cfi_offset 6, -8
 782              		.cfi_offset 14, -4
 783              		.loc 1 712 0
 784 0002 0400     		movs	r4, r0
 785 0004 0E00     		movs	r6, r1
 786 0006 1500     		movs	r5, r2
 713:..\..\u8g2\csrc/u8x8_d_st7565.c ****   /* call common procedure first and handle messages there */
 714:..\..\u8g2\csrc/u8x8_d_st7565.c ****   if ( u8x8_d_st7565_common(u8x8, msg, arg_int, arg_ptr) == 0 )
 787              		.loc 1 714 0
 788 0008 FFF7FEFF 		bl	u8x8_d_st7565_common
 789              	.LVL77:
 790 000c 0028     		cmp	r0, #0
 791 000e 24D1     		bne	.L85
 715:..\..\u8g2\csrc/u8x8_d_st7565.c ****   {
 716:..\..\u8g2\csrc/u8x8_d_st7565.c ****     /* msg not handled, then try here */
 717:..\..\u8g2\csrc/u8x8_d_st7565.c ****     switch(msg)
 792              		.loc 1 717 0
 793 0010 0A2E     		cmp	r6, #10
 794 0012 08D0     		beq	.L81
ARM GAS  C:\Users\gjl\AppData\Local\Temp\ccaUpWuc.s 			page 28


 795 0014 0D2E     		cmp	r6, #13
 796 0016 0FD0     		beq	.L82
 797 0018 092E     		cmp	r6, #9
 798 001a 1FD1     		bne	.L80
 718:..\..\u8g2\csrc/u8x8_d_st7565.c ****     {
 719:..\..\u8g2\csrc/u8x8_d_st7565.c ****       case U8X8_MSG_DISPLAY_SETUP_MEMORY:
 720:..\..\u8g2\csrc/u8x8_d_st7565.c **** 	/* reuse the LM6059 data structure... this display seems to have similar shifts and offsets */
 721:..\..\u8g2\csrc/u8x8_d_st7565.c **** 	u8x8_d_helper_display_setup_memory(u8x8, &u8x8_st7565_lm6059_display_info);
 799              		.loc 1 721 0
 800 001c 1049     		ldr	r1, .L87
 801 001e 2000     		movs	r0, r4
 802 0020 FFF7FEFF 		bl	u8x8_d_helper_display_setup_memory
 803              	.LVL78:
 804 0024 19E0     		b	.L85
 805              	.L81:
 722:..\..\u8g2\csrc/u8x8_d_st7565.c **** 	break;
 723:..\..\u8g2\csrc/u8x8_d_st7565.c ****       case U8X8_MSG_DISPLAY_INIT:
 724:..\..\u8g2\csrc/u8x8_d_st7565.c **** 	u8x8_d_helper_display_init(u8x8);
 806              		.loc 1 724 0
 807 0026 2000     		movs	r0, r4
 808 0028 FFF7FEFF 		bl	u8x8_d_helper_display_init
 809              	.LVL79:
 725:..\..\u8g2\csrc/u8x8_d_st7565.c ****       
 726:..\..\u8g2\csrc/u8x8_d_st7565.c **** 	//u8x8_cad_SendSequence(u8x8, u8x8_d_st7565_lm6059_init_seq);
 727:..\..\u8g2\csrc/u8x8_d_st7565.c **** 	u8x8_cad_SendSequence(u8x8, u8x8_d_nt7534_tg12864r_init_seq);
 810              		.loc 1 727 0
 811 002c 0C49     		ldr	r1, .L87
 812 002e 2000     		movs	r0, r4
 813 0030 7531     		adds	r1, r1, #117
 814 0032 FFF7FEFF 		bl	u8x8_cad_SendSequence
 815              	.LVL80:
 816 0036 10E0     		b	.L85
 817              	.L82:
 818 0038 0A49     		ldr	r1, .L87+4
 728:..\..\u8g2\csrc/u8x8_d_st7565.c **** 	break;
 729:..\..\u8g2\csrc/u8x8_d_st7565.c ****       case U8X8_MSG_DISPLAY_SET_FLIP_MODE:
 730:..\..\u8g2\csrc/u8x8_d_st7565.c **** 	if ( arg_int == 0 )
 819              		.loc 1 730 0
 820 003a 002D     		cmp	r5, #0
 821 003c 06D1     		bne	.L84
 731:..\..\u8g2\csrc/u8x8_d_st7565.c **** 	{
 732:..\..\u8g2\csrc/u8x8_d_st7565.c **** 	  u8x8_cad_SendSequence(u8x8, u8x8_d_st7565_flip1_seq);
 822              		.loc 1 732 0
 823 003e 5031     		adds	r1, r1, #80
 824 0040 2000     		movs	r0, r4
 825 0042 FFF7FEFF 		bl	u8x8_cad_SendSequence
 826              	.LVL81:
 733:..\..\u8g2\csrc/u8x8_d_st7565.c **** 	  u8x8->x_offset = u8x8->display_info->default_x_offset;
 827              		.loc 1 733 0
 828 0046 2368     		ldr	r3, [r4]
 829 0048 9B7C     		ldrb	r3, [r3, #18]
 830 004a 05E0     		b	.L86
 831              	.L84:
 734:..\..\u8g2\csrc/u8x8_d_st7565.c **** 	}
 735:..\..\u8g2\csrc/u8x8_d_st7565.c **** 	else
 736:..\..\u8g2\csrc/u8x8_d_st7565.c **** 	{
 737:..\..\u8g2\csrc/u8x8_d_st7565.c **** 	  u8x8_cad_SendSequence(u8x8, u8x8_d_st7565_flip0_seq);
ARM GAS  C:\Users\gjl\AppData\Local\Temp\ccaUpWuc.s 			page 29


 832              		.loc 1 737 0
 833 004c 4931     		adds	r1, r1, #73
 834 004e 2000     		movs	r0, r4
 835 0050 FFF7FEFF 		bl	u8x8_cad_SendSequence
 836              	.LVL82:
 738:..\..\u8g2\csrc/u8x8_d_st7565.c **** 	  u8x8->x_offset = u8x8->display_info->flipmode_x_offset;
 837              		.loc 1 738 0
 838 0054 2368     		ldr	r3, [r4]
 839 0056 DB7C     		ldrb	r3, [r3, #19]
 840              	.L86:
 841 0058 A377     		strb	r3, [r4, #30]
 842              	.L85:
 739:..\..\u8g2\csrc/u8x8_d_st7565.c **** 	}	
 740:..\..\u8g2\csrc/u8x8_d_st7565.c **** 	break;
 741:..\..\u8g2\csrc/u8x8_d_st7565.c ****       default:
 742:..\..\u8g2\csrc/u8x8_d_st7565.c **** 	return 0;		/* msg unknown */
 743:..\..\u8g2\csrc/u8x8_d_st7565.c ****     }
 744:..\..\u8g2\csrc/u8x8_d_st7565.c ****   }
 745:..\..\u8g2\csrc/u8x8_d_st7565.c ****   return 1;
 843              		.loc 1 745 0
 844 005a 0120     		movs	r0, #1
 845              	.L80:
 746:..\..\u8g2\csrc/u8x8_d_st7565.c **** }
 846              		.loc 1 746 0
 847              		@ sp needed
 848              	.LVL83:
 849 005c 70BD     		pop	{r4, r5, r6, pc}
 850              	.L88:
 851 005e C046     		.align	2
 852              	.L87:
 853 0060 00010000 		.word	.LANCHOR2
 854 0064 00000000 		.word	.LANCHOR0
 855              		.cfi_endproc
 856              	.LFE7:
 857              		.size	u8x8_d_nt7534_tg12864r, .-u8x8_d_nt7534_tg12864r
 858              		.section	.text.u8x8_d_st7565_ea_dogm132,"ax",%progbits
 859              		.align	1
 860              		.global	u8x8_d_st7565_ea_dogm132
 861              		.code	16
 862              		.thumb_func
 863              		.type	u8x8_d_st7565_ea_dogm132, %function
 864              	u8x8_d_st7565_ea_dogm132:
 865              	.LFB8:
 747:..\..\u8g2\csrc/u8x8_d_st7565.c **** 
 748:..\..\u8g2\csrc/u8x8_d_st7565.c **** 
 749:..\..\u8g2\csrc/u8x8_d_st7565.c **** /*================================================*/
 750:..\..\u8g2\csrc/u8x8_d_st7565.c **** /* EA DOGM132 */
 751:..\..\u8g2\csrc/u8x8_d_st7565.c **** 
 752:..\..\u8g2\csrc/u8x8_d_st7565.c **** static const u8x8_display_info_t u8x8_st7565_dogm132_display_info =
 753:..\..\u8g2\csrc/u8x8_d_st7565.c **** {
 754:..\..\u8g2\csrc/u8x8_d_st7565.c ****   /* chip_enable_level = */ 0,
 755:..\..\u8g2\csrc/u8x8_d_st7565.c ****   /* chip_disable_level = */ 1,
 756:..\..\u8g2\csrc/u8x8_d_st7565.c ****   
 757:..\..\u8g2\csrc/u8x8_d_st7565.c ****   /* post_chip_enable_wait_ns = */ 150,	/* st7565 datasheet, table 26, tcsh */
 758:..\..\u8g2\csrc/u8x8_d_st7565.c ****   /* pre_chip_disable_wait_ns = */ 50,	/* st7565 datasheet, table 26, tcss */
 759:..\..\u8g2\csrc/u8x8_d_st7565.c ****   /* reset_pulse_width_ms = */ 1, 
 760:..\..\u8g2\csrc/u8x8_d_st7565.c ****   /* post_reset_wait_ms = */ 1, 
ARM GAS  C:\Users\gjl\AppData\Local\Temp\ccaUpWuc.s 			page 30


 761:..\..\u8g2\csrc/u8x8_d_st7565.c ****   /* sda_setup_time_ns = */ 50,		/* st7565 datasheet, table 26, tsds */
 762:..\..\u8g2\csrc/u8x8_d_st7565.c ****   /* sck_pulse_width_ns = */ 120,	/* half of cycle time (100ns according to datasheet), AVR: below 
 763:..\..\u8g2\csrc/u8x8_d_st7565.c ****   /* sck_clock_hz = */ 4000000UL,	/* since Arduino 1.6.0, the SPI bus speed in Hz. Should be  10000
 764:..\..\u8g2\csrc/u8x8_d_st7565.c ****   /* spi_mode = */ 0,		/* active high, rising edge */
 765:..\..\u8g2\csrc/u8x8_d_st7565.c ****   /* i2c_bus_clock_100kHz = */ 4,
 766:..\..\u8g2\csrc/u8x8_d_st7565.c ****   /* data_setup_time_ns = */ 40,	/* st7565 datasheet, table 24, tds8 */
 767:..\..\u8g2\csrc/u8x8_d_st7565.c ****   /* write_pulse_width_ns = */ 80,	/* st7565 datasheet, table 24, tcclw */
 768:..\..\u8g2\csrc/u8x8_d_st7565.c ****   /* tile_width = */ 17,		/* width of 16*8=136 pixel */
 769:..\..\u8g2\csrc/u8x8_d_st7565.c ****   /* tile_hight = */ 4,
 770:..\..\u8g2\csrc/u8x8_d_st7565.c ****   /* default_x_offset = */ 0,
 771:..\..\u8g2\csrc/u8x8_d_st7565.c ****   /* flipmode_x_offset = */ 0,
 772:..\..\u8g2\csrc/u8x8_d_st7565.c ****   /* pixel_width = */ 132,
 773:..\..\u8g2\csrc/u8x8_d_st7565.c ****   /* pixel_height = */ 32
 774:..\..\u8g2\csrc/u8x8_d_st7565.c **** };
 775:..\..\u8g2\csrc/u8x8_d_st7565.c **** 
 776:..\..\u8g2\csrc/u8x8_d_st7565.c **** 
 777:..\..\u8g2\csrc/u8x8_d_st7565.c **** static const uint8_t u8x8_d_st7565_dogm132_init_seq[] = {
 778:..\..\u8g2\csrc/u8x8_d_st7565.c ****     
 779:..\..\u8g2\csrc/u8x8_d_st7565.c ****   U8X8_START_TRANSFER(),             	/* enable chip, delay is part of the transfer start */
 780:..\..\u8g2\csrc/u8x8_d_st7565.c ****   
 781:..\..\u8g2\csrc/u8x8_d_st7565.c ****   U8X8_C(0x0e2),            			/* soft reset */
 782:..\..\u8g2\csrc/u8x8_d_st7565.c ****   U8X8_C(0x0ae),		                /* display off */
 783:..\..\u8g2\csrc/u8x8_d_st7565.c ****   U8X8_C(0x040),		                /* set display start line to 0 */
 784:..\..\u8g2\csrc/u8x8_d_st7565.c ****   
 785:..\..\u8g2\csrc/u8x8_d_st7565.c ****   U8X8_C(0x0a1),		                /* ADC set to reverse */
 786:..\..\u8g2\csrc/u8x8_d_st7565.c ****   U8X8_C(0x0c0),		                /* common output mode */
 787:..\..\u8g2\csrc/u8x8_d_st7565.c ****   // Flipmode
 788:..\..\u8g2\csrc/u8x8_d_st7565.c ****   //U8X8_C(0x0a0),		                /* ADC set to reverse */
 789:..\..\u8g2\csrc/u8x8_d_st7565.c ****   //U8X8_C(0x0c8),		                /* common output mode */
 790:..\..\u8g2\csrc/u8x8_d_st7565.c ****   
 791:..\..\u8g2\csrc/u8x8_d_st7565.c ****   U8X8_C(0x0a6),		                /* display normal, bit val 0: LCD pixel off. */
 792:..\..\u8g2\csrc/u8x8_d_st7565.c ****   U8X8_C(0x0a2),		                /* LCD bias 1/9 */
 793:..\..\u8g2\csrc/u8x8_d_st7565.c ****   U8X8_C(0x02f),		                /* all power  control circuits on */
 794:..\..\u8g2\csrc/u8x8_d_st7565.c ****   U8X8_CA(0x0f8, 0x000),		/* set booster ratio to 4x */
 795:..\..\u8g2\csrc/u8x8_d_st7565.c ****   U8X8_C(0x023),		                /* set V0 voltage resistor ratio to large*/
 796:..\..\u8g2\csrc/u8x8_d_st7565.c ****   U8X8_CA(0x081, 0x01f),		/* set contrast, contrast value EA DOGM132 */
 797:..\..\u8g2\csrc/u8x8_d_st7565.c ****   
 798:..\..\u8g2\csrc/u8x8_d_st7565.c ****   U8X8_C(0x0ae),		                /* display off */
 799:..\..\u8g2\csrc/u8x8_d_st7565.c ****   U8X8_C(0x0a5),		                /* enter powersafe: all pixel on, issue 142 */
 800:..\..\u8g2\csrc/u8x8_d_st7565.c ****   
 801:..\..\u8g2\csrc/u8x8_d_st7565.c ****   U8X8_END_TRANSFER(),             	/* disable chip */
 802:..\..\u8g2\csrc/u8x8_d_st7565.c ****   U8X8_END()             			/* end of sequence */
 803:..\..\u8g2\csrc/u8x8_d_st7565.c **** };
 804:..\..\u8g2\csrc/u8x8_d_st7565.c **** 
 805:..\..\u8g2\csrc/u8x8_d_st7565.c **** uint8_t u8x8_d_st7565_ea_dogm132(u8x8_t *u8x8, uint8_t msg, uint8_t arg_int, void *arg_ptr)
 806:..\..\u8g2\csrc/u8x8_d_st7565.c **** {
 866              		.loc 1 806 0
 867              		.cfi_startproc
 868              		@ args = 0, pretend = 0, frame = 0
 869              		@ frame_needed = 0, uses_anonymous_args = 0
 870              	.LVL84:
 871 0000 70B5     		push	{r4, r5, r6, lr}
 872              		.cfi_def_cfa_offset 16
 873              		.cfi_offset 4, -16
 874              		.cfi_offset 5, -12
 875              		.cfi_offset 6, -8
 876              		.cfi_offset 14, -4
ARM GAS  C:\Users\gjl\AppData\Local\Temp\ccaUpWuc.s 			page 31


 877              		.loc 1 806 0
 878 0002 0400     		movs	r4, r0
 879 0004 0E00     		movs	r6, r1
 880 0006 1500     		movs	r5, r2
 807:..\..\u8g2\csrc/u8x8_d_st7565.c ****   /* call common procedure first and handle messages there */
 808:..\..\u8g2\csrc/u8x8_d_st7565.c ****   if ( u8x8_d_st7565_common(u8x8, msg, arg_int, arg_ptr) == 0 )
 881              		.loc 1 808 0
 882 0008 FFF7FEFF 		bl	u8x8_d_st7565_common
 883              	.LVL85:
 884 000c 0028     		cmp	r0, #0
 885 000e 25D1     		bne	.L95
 809:..\..\u8g2\csrc/u8x8_d_st7565.c ****   {
 810:..\..\u8g2\csrc/u8x8_d_st7565.c ****     /* msg not handled, then try here */
 811:..\..\u8g2\csrc/u8x8_d_st7565.c ****     switch(msg)
 886              		.loc 1 811 0
 887 0010 0A2E     		cmp	r6, #10
 888 0012 09D0     		beq	.L91
 889 0014 0D2E     		cmp	r6, #13
 890 0016 10D0     		beq	.L92
 891 0018 092E     		cmp	r6, #9
 892 001a 20D1     		bne	.L90
 812:..\..\u8g2\csrc/u8x8_d_st7565.c ****     {
 813:..\..\u8g2\csrc/u8x8_d_st7565.c ****       case U8X8_MSG_DISPLAY_SETUP_MEMORY:
 814:..\..\u8g2\csrc/u8x8_d_st7565.c **** 	u8x8_d_helper_display_setup_memory(u8x8, &u8x8_st7565_dogm132_display_info);
 893              		.loc 1 814 0
 894 001c 1049     		ldr	r1, .L97
 895 001e 2000     		movs	r0, r4
 896 0020 1431     		adds	r1, r1, #20
 897 0022 FFF7FEFF 		bl	u8x8_d_helper_display_setup_memory
 898              	.LVL86:
 899 0026 19E0     		b	.L95
 900              	.L91:
 815:..\..\u8g2\csrc/u8x8_d_st7565.c **** 	break;
 816:..\..\u8g2\csrc/u8x8_d_st7565.c ****       case U8X8_MSG_DISPLAY_INIT:
 817:..\..\u8g2\csrc/u8x8_d_st7565.c **** 	u8x8_d_helper_display_init(u8x8);
 901              		.loc 1 817 0
 902 0028 2000     		movs	r0, r4
 903 002a FFF7FEFF 		bl	u8x8_d_helper_display_init
 904              	.LVL87:
 818:..\..\u8g2\csrc/u8x8_d_st7565.c **** 	u8x8_cad_SendSequence(u8x8, u8x8_d_st7565_dogm132_init_seq);
 905              		.loc 1 818 0
 906 002e 0C49     		ldr	r1, .L97
 907 0030 2000     		movs	r0, r4
 908 0032 2C31     		adds	r1, r1, #44
 909 0034 FFF7FEFF 		bl	u8x8_cad_SendSequence
 910              	.LVL88:
 911 0038 10E0     		b	.L95
 912              	.L92:
 913 003a 0A49     		ldr	r1, .L97+4
 819:..\..\u8g2\csrc/u8x8_d_st7565.c **** 	break;
 820:..\..\u8g2\csrc/u8x8_d_st7565.c ****       case U8X8_MSG_DISPLAY_SET_FLIP_MODE:
 821:..\..\u8g2\csrc/u8x8_d_st7565.c **** 	if ( arg_int == 0 )
 914              		.loc 1 821 0
 915 003c 002D     		cmp	r5, #0
 916 003e 06D1     		bne	.L94
 822:..\..\u8g2\csrc/u8x8_d_st7565.c **** 	{
 823:..\..\u8g2\csrc/u8x8_d_st7565.c **** 	  u8x8_cad_SendSequence(u8x8, u8x8_d_st7565_flip0_seq);
ARM GAS  C:\Users\gjl\AppData\Local\Temp\ccaUpWuc.s 			page 32


 917              		.loc 1 823 0
 918 0040 4931     		adds	r1, r1, #73
 919 0042 2000     		movs	r0, r4
 920 0044 FFF7FEFF 		bl	u8x8_cad_SendSequence
 921              	.LVL89:
 824:..\..\u8g2\csrc/u8x8_d_st7565.c **** 	  u8x8->x_offset = u8x8->display_info->default_x_offset;
 922              		.loc 1 824 0
 923 0048 2368     		ldr	r3, [r4]
 924 004a 9B7C     		ldrb	r3, [r3, #18]
 925 004c 05E0     		b	.L96
 926              	.L94:
 825:..\..\u8g2\csrc/u8x8_d_st7565.c **** 	}
 826:..\..\u8g2\csrc/u8x8_d_st7565.c **** 	else
 827:..\..\u8g2\csrc/u8x8_d_st7565.c **** 	{
 828:..\..\u8g2\csrc/u8x8_d_st7565.c **** 	  u8x8_cad_SendSequence(u8x8, u8x8_d_st7565_flip1_seq);
 927              		.loc 1 828 0
 928 004e 5031     		adds	r1, r1, #80
 929 0050 2000     		movs	r0, r4
 930 0052 FFF7FEFF 		bl	u8x8_cad_SendSequence
 931              	.LVL90:
 829:..\..\u8g2\csrc/u8x8_d_st7565.c **** 	  u8x8->x_offset = u8x8->display_info->flipmode_x_offset;
 932              		.loc 1 829 0
 933 0056 2368     		ldr	r3, [r4]
 934 0058 DB7C     		ldrb	r3, [r3, #19]
 935              	.L96:
 936 005a A377     		strb	r3, [r4, #30]
 937              	.L95:
 830:..\..\u8g2\csrc/u8x8_d_st7565.c **** 	}	
 831:..\..\u8g2\csrc/u8x8_d_st7565.c **** 	break;
 832:..\..\u8g2\csrc/u8x8_d_st7565.c ****       default:
 833:..\..\u8g2\csrc/u8x8_d_st7565.c **** 	return 0;		/* msg unknown */
 834:..\..\u8g2\csrc/u8x8_d_st7565.c ****     }
 835:..\..\u8g2\csrc/u8x8_d_st7565.c ****   }
 836:..\..\u8g2\csrc/u8x8_d_st7565.c ****   return 1;
 938              		.loc 1 836 0
 939 005c 0120     		movs	r0, #1
 940              	.L90:
 837:..\..\u8g2\csrc/u8x8_d_st7565.c **** }
 941              		.loc 1 837 0
 942              		@ sp needed
 943              	.LVL91:
 944 005e 70BD     		pop	{r4, r5, r6, pc}
 945              	.L98:
 946              		.align	2
 947              	.L97:
 948 0060 80010000 		.word	.LANCHOR3
 949 0064 00000000 		.word	.LANCHOR0
 950              		.cfi_endproc
 951              	.LFE8:
 952              		.size	u8x8_d_st7565_ea_dogm132, .-u8x8_d_st7565_ea_dogm132
 953              		.section	.rodata
 954              		.align	2
 955              		.set	.LANCHOR0,. + 0
 956              		.set	.LANCHOR1,. + 128
 957              		.set	.LANCHOR2,. + 256
 958              		.set	.LANCHOR3,. + 384
 959              		.type	u8x8_d_st7565_powersave0_seq, %object
ARM GAS  C:\Users\gjl\AppData\Local\Temp\ccaUpWuc.s 			page 33


 960              		.size	u8x8_d_st7565_powersave0_seq, 7
 961              	u8x8_d_st7565_powersave0_seq:
 962 0000 18       		.byte	24
 963 0001 15       		.byte	21
 964 0002 A4       		.byte	-92
 965 0003 15       		.byte	21
 966 0004 AF       		.byte	-81
 967 0005 19       		.byte	25
 968 0006 FF       		.byte	-1
 969              		.type	u8x8_d_st7565_powersave1_seq, %object
 970              		.size	u8x8_d_st7565_powersave1_seq, 7
 971              	u8x8_d_st7565_powersave1_seq:
 972 0007 18       		.byte	24
 973 0008 15       		.byte	21
 974 0009 AE       		.byte	-82
 975 000a 15       		.byte	21
 976 000b A5       		.byte	-91
 977 000c 19       		.byte	25
 978 000d FF       		.byte	-1
 979 000e 0000     		.space	2
 980              		.type	u8x8_st7565_128x64_display_info, %object
 981              		.size	u8x8_st7565_128x64_display_info, 24
 982              	u8x8_st7565_128x64_display_info:
 983 0010 00       		.byte	0
 984 0011 01       		.byte	1
 985 0012 96       		.byte	-106
 986 0013 32       		.byte	50
 987 0014 01       		.byte	1
 988 0015 01       		.byte	1
 989 0016 32       		.byte	50
 990 0017 78       		.byte	120
 991 0018 00093D00 		.word	4000000
 992 001c 00       		.byte	0
 993 001d 04       		.byte	4
 994 001e 28       		.byte	40
 995 001f 50       		.byte	80
 996 0020 10       		.byte	16
 997 0021 08       		.byte	8
 998 0022 00       		.byte	0
 999 0023 04       		.byte	4
 1000 0024 8000     		.short	128
 1001 0026 4000     		.short	64
 1002              		.type	u8x8_d_st7565_dogm128_init_seq, %object
 1003              		.size	u8x8_d_st7565_dogm128_init_seq, 33
 1004              	u8x8_d_st7565_dogm128_init_seq:
 1005 0028 18       		.byte	24
 1006 0029 15       		.byte	21
 1007 002a E2       		.byte	-30
 1008 002b 15       		.byte	21
 1009 002c AE       		.byte	-82
 1010 002d 15       		.byte	21
 1011 002e 40       		.byte	64
 1012 002f 15       		.byte	21
 1013 0030 A1       		.byte	-95
 1014 0031 15       		.byte	21
 1015 0032 C0       		.byte	-64
 1016 0033 15       		.byte	21
ARM GAS  C:\Users\gjl\AppData\Local\Temp\ccaUpWuc.s 			page 34


 1017 0034 A6       		.byte	-90
 1018 0035 15       		.byte	21
 1019 0036 A2       		.byte	-94
 1020 0037 15       		.byte	21
 1021 0038 2F       		.byte	47
 1022 0039 15       		.byte	21
 1023 003a F8       		.byte	-8
 1024 003b 16       		.byte	22
 1025 003c 00       		.byte	0
 1026 003d 15       		.byte	21
 1027 003e 27       		.byte	39
 1028 003f 15       		.byte	21
 1029 0040 81       		.byte	-127
 1030 0041 16       		.byte	22
 1031 0042 18       		.byte	24
 1032 0043 15       		.byte	21
 1033 0044 AE       		.byte	-82
 1034 0045 15       		.byte	21
 1035 0046 A5       		.byte	-91
 1036 0047 19       		.byte	25
 1037 0048 FF       		.byte	-1
 1038              		.type	u8x8_d_st7565_flip0_seq, %object
 1039              		.size	u8x8_d_st7565_flip0_seq, 7
 1040              	u8x8_d_st7565_flip0_seq:
 1041 0049 18       		.byte	24
 1042 004a 15       		.byte	21
 1043 004b A1       		.byte	-95
 1044 004c 15       		.byte	21
 1045 004d C0       		.byte	-64
 1046 004e 19       		.byte	25
 1047 004f FF       		.byte	-1
 1048              		.type	u8x8_d_st7565_flip1_seq, %object
 1049              		.size	u8x8_d_st7565_flip1_seq, 7
 1050              	u8x8_d_st7565_flip1_seq:
 1051 0050 18       		.byte	24
 1052 0051 15       		.byte	21
 1053 0052 A0       		.byte	-96
 1054 0053 15       		.byte	21
 1055 0054 C8       		.byte	-56
 1056 0055 19       		.byte	25
 1057 0056 FF       		.byte	-1
 1058              		.type	u8x8_d_st7565_zolen_128x64_init_seq, %object
 1059              		.size	u8x8_d_st7565_zolen_128x64_init_seq, 33
 1060              	u8x8_d_st7565_zolen_128x64_init_seq:
 1061 0057 18       		.byte	24
 1062 0058 15       		.byte	21
 1063 0059 E2       		.byte	-30
 1064 005a 15       		.byte	21
 1065 005b AE       		.byte	-82
 1066 005c 15       		.byte	21
 1067 005d 40       		.byte	64
 1068 005e 15       		.byte	21
 1069 005f A1       		.byte	-95
 1070 0060 15       		.byte	21
 1071 0061 C8       		.byte	-56
 1072 0062 15       		.byte	21
 1073 0063 A6       		.byte	-90
ARM GAS  C:\Users\gjl\AppData\Local\Temp\ccaUpWuc.s 			page 35


 1074 0064 15       		.byte	21
 1075 0065 A2       		.byte	-94
 1076 0066 15       		.byte	21
 1077 0067 2F       		.byte	47
 1078 0068 15       		.byte	21
 1079 0069 F8       		.byte	-8
 1080 006a 16       		.byte	22
 1081 006b 00       		.byte	0
 1082 006c 15       		.byte	21
 1083 006d 27       		.byte	39
 1084 006e 15       		.byte	21
 1085 006f 81       		.byte	-127
 1086 0070 16       		.byte	22
 1087 0071 07       		.byte	7
 1088 0072 15       		.byte	21
 1089 0073 AE       		.byte	-82
 1090 0074 15       		.byte	21
 1091 0075 A5       		.byte	-91
 1092 0076 19       		.byte	25
 1093 0077 FF       		.byte	-1
 1094              		.type	u8x8_d_st7565_zflip0_seq, %object
 1095              		.size	u8x8_d_st7565_zflip0_seq, 7
 1096              	u8x8_d_st7565_zflip0_seq:
 1097 0078 18       		.byte	24
 1098 0079 15       		.byte	21
 1099 007a A1       		.byte	-95
 1100 007b 15       		.byte	21
 1101 007c C8       		.byte	-56
 1102 007d 19       		.byte	25
 1103 007e FF       		.byte	-1
 1104              		.type	u8x8_d_st7565_zflip1_seq, %object
 1105              		.size	u8x8_d_st7565_zflip1_seq, 7
 1106              	u8x8_d_st7565_zflip1_seq:
 1107 007f 18       		.byte	24
 1108 0080 15       		.byte	21
 1109 0081 A0       		.byte	-96
 1110 0082 15       		.byte	21
 1111 0083 C0       		.byte	-64
 1112 0084 19       		.byte	25
 1113 0085 FF       		.byte	-1
 1114 0086 0000     		.space	2
 1115              		.type	u8x8_st7565_128x32_display_info, %object
 1116              		.size	u8x8_st7565_128x32_display_info, 24
 1117              	u8x8_st7565_128x32_display_info:
 1118 0088 00       		.byte	0
 1119 0089 01       		.byte	1
 1120 008a 96       		.byte	-106
 1121 008b 32       		.byte	50
 1122 008c 01       		.byte	1
 1123 008d 01       		.byte	1
 1124 008e 32       		.byte	50
 1125 008f 78       		.byte	120
 1126 0090 00093D00 		.word	4000000
 1127 0094 00       		.byte	0
 1128 0095 04       		.byte	4
 1129 0096 28       		.byte	40
 1130 0097 50       		.byte	80
ARM GAS  C:\Users\gjl\AppData\Local\Temp\ccaUpWuc.s 			page 36


 1131 0098 10       		.byte	16
 1132 0099 04       		.byte	4
 1133 009a 04       		.byte	4
 1134 009b 00       		.byte	0
 1135 009c 8000     		.short	128
 1136 009e 2000     		.short	32
 1137              		.type	u8x8_d_st7565_nhd_c12832_init_seq, %object
 1138              		.size	u8x8_d_st7565_nhd_c12832_init_seq, 33
 1139              	u8x8_d_st7565_nhd_c12832_init_seq:
 1140 00a0 18       		.byte	24
 1141 00a1 15       		.byte	21
 1142 00a2 E2       		.byte	-30
 1143 00a3 15       		.byte	21
 1144 00a4 AE       		.byte	-82
 1145 00a5 15       		.byte	21
 1146 00a6 40       		.byte	64
 1147 00a7 15       		.byte	21
 1148 00a8 A1       		.byte	-95
 1149 00a9 15       		.byte	21
 1150 00aa C0       		.byte	-64
 1151 00ab 15       		.byte	21
 1152 00ac A6       		.byte	-90
 1153 00ad 15       		.byte	21
 1154 00ae A2       		.byte	-94
 1155 00af 15       		.byte	21
 1156 00b0 2F       		.byte	47
 1157 00b1 15       		.byte	21
 1158 00b2 F8       		.byte	-8
 1159 00b3 16       		.byte	22
 1160 00b4 00       		.byte	0
 1161 00b5 15       		.byte	21
 1162 00b6 23       		.byte	35
 1163 00b7 15       		.byte	21
 1164 00b8 81       		.byte	-127
 1165 00b9 16       		.byte	22
 1166 00ba 0A       		.byte	10
 1167 00bb 15       		.byte	21
 1168 00bc AE       		.byte	-82
 1169 00bd 15       		.byte	21
 1170 00be A5       		.byte	-91
 1171 00bf 19       		.byte	25
 1172 00c0 FF       		.byte	-1
 1173 00c1 000000   		.space	3
 1174              		.type	u8x8_st7565_nhd_c12864_display_info, %object
 1175              		.size	u8x8_st7565_nhd_c12864_display_info, 24
 1176              	u8x8_st7565_nhd_c12864_display_info:
 1177 00c4 00       		.byte	0
 1178 00c5 01       		.byte	1
 1179 00c6 96       		.byte	-106
 1180 00c7 32       		.byte	50
 1181 00c8 01       		.byte	1
 1182 00c9 01       		.byte	1
 1183 00ca 32       		.byte	50
 1184 00cb 78       		.byte	120
 1185 00cc 00093D00 		.word	4000000
 1186 00d0 00       		.byte	0
 1187 00d1 04       		.byte	4
ARM GAS  C:\Users\gjl\AppData\Local\Temp\ccaUpWuc.s 			page 37


 1188 00d2 28       		.byte	40
 1189 00d3 50       		.byte	80
 1190 00d4 10       		.byte	16
 1191 00d5 08       		.byte	8
 1192 00d6 04       		.byte	4
 1193 00d7 00       		.byte	0
 1194 00d8 8000     		.short	128
 1195 00da 4000     		.short	64
 1196              		.type	u8x8_d_st7565_nhd_c12864_init_seq, %object
 1197              		.size	u8x8_d_st7565_nhd_c12864_init_seq, 33
 1198              	u8x8_d_st7565_nhd_c12864_init_seq:
 1199 00dc 18       		.byte	24
 1200 00dd 15       		.byte	21
 1201 00de E2       		.byte	-30
 1202 00df 15       		.byte	21
 1203 00e0 AE       		.byte	-82
 1204 00e1 15       		.byte	21
 1205 00e2 40       		.byte	64
 1206 00e3 15       		.byte	21
 1207 00e4 A1       		.byte	-95
 1208 00e5 15       		.byte	21
 1209 00e6 C0       		.byte	-64
 1210 00e7 15       		.byte	21
 1211 00e8 A6       		.byte	-90
 1212 00e9 15       		.byte	21
 1213 00ea A2       		.byte	-94
 1214 00eb 15       		.byte	21
 1215 00ec 2F       		.byte	47
 1216 00ed 15       		.byte	21
 1217 00ee F8       		.byte	-8
 1218 00ef 16       		.byte	22
 1219 00f0 00       		.byte	0
 1220 00f1 15       		.byte	21
 1221 00f2 23       		.byte	35
 1222 00f3 15       		.byte	21
 1223 00f4 81       		.byte	-127
 1224 00f5 16       		.byte	22
 1225 00f6 0A       		.byte	10
 1226 00f7 15       		.byte	21
 1227 00f8 AE       		.byte	-82
 1228 00f9 15       		.byte	21
 1229 00fa A5       		.byte	-91
 1230 00fb 19       		.byte	25
 1231 00fc FF       		.byte	-1
 1232 00fd 000000   		.space	3
 1233              		.type	u8x8_st7565_lm6059_display_info, %object
 1234              		.size	u8x8_st7565_lm6059_display_info, 24
 1235              	u8x8_st7565_lm6059_display_info:
 1236 0100 00       		.byte	0
 1237 0101 01       		.byte	1
 1238 0102 96       		.byte	-106
 1239 0103 32       		.byte	50
 1240 0104 01       		.byte	1
 1241 0105 01       		.byte	1
 1242 0106 32       		.byte	50
 1243 0107 78       		.byte	120
 1244 0108 00093D00 		.word	4000000
ARM GAS  C:\Users\gjl\AppData\Local\Temp\ccaUpWuc.s 			page 38


 1245 010c 00       		.byte	0
 1246 010d 04       		.byte	4
 1247 010e 28       		.byte	40
 1248 010f 50       		.byte	80
 1249 0110 10       		.byte	16
 1250 0111 08       		.byte	8
 1251 0112 01       		.byte	1
 1252 0113 03       		.byte	3
 1253 0114 8000     		.short	128
 1254 0116 4000     		.short	64
 1255              		.type	u8x8_d_st7565_lm6059_init_seq, %object
 1256              		.size	u8x8_d_st7565_lm6059_init_seq, 33
 1257              	u8x8_d_st7565_lm6059_init_seq:
 1258 0118 18       		.byte	24
 1259 0119 15       		.byte	21
 1260 011a E2       		.byte	-30
 1261 011b 15       		.byte	21
 1262 011c AE       		.byte	-82
 1263 011d 15       		.byte	21
 1264 011e 60       		.byte	96
 1265 011f 15       		.byte	21
 1266 0120 A0       		.byte	-96
 1267 0121 15       		.byte	21
 1268 0122 C8       		.byte	-56
 1269 0123 15       		.byte	21
 1270 0124 A6       		.byte	-90
 1271 0125 15       		.byte	21
 1272 0126 A3       		.byte	-93
 1273 0127 15       		.byte	21
 1274 0128 2F       		.byte	47
 1275 0129 15       		.byte	21
 1276 012a F8       		.byte	-8
 1277 012b 16       		.byte	22
 1278 012c 00       		.byte	0
 1279 012d 15       		.byte	21
 1280 012e 27       		.byte	39
 1281 012f 15       		.byte	21
 1282 0130 81       		.byte	-127
 1283 0131 16       		.byte	22
 1284 0132 18       		.byte	24
 1285 0133 15       		.byte	21
 1286 0134 AE       		.byte	-82
 1287 0135 15       		.byte	21
 1288 0136 A5       		.byte	-91
 1289 0137 19       		.byte	25
 1290 0138 FF       		.byte	-1
 1291 0139 000000   		.space	3
 1292              		.type	u8x8_st7565_erc12864_display_info, %object
 1293              		.size	u8x8_st7565_erc12864_display_info, 24
 1294              	u8x8_st7565_erc12864_display_info:
 1295 013c 00       		.byte	0
 1296 013d 01       		.byte	1
 1297 013e 96       		.byte	-106
 1298 013f 32       		.byte	50
 1299 0140 01       		.byte	1
 1300 0141 01       		.byte	1
 1301 0142 32       		.byte	50
ARM GAS  C:\Users\gjl\AppData\Local\Temp\ccaUpWuc.s 			page 39


 1302 0143 78       		.byte	120
 1303 0144 00093D00 		.word	4000000
 1304 0148 00       		.byte	0
 1305 0149 04       		.byte	4
 1306 014a 28       		.byte	40
 1307 014b 50       		.byte	80
 1308 014c 10       		.byte	16
 1309 014d 08       		.byte	8
 1310 014e 00       		.byte	0
 1311 014f 04       		.byte	4
 1312 0150 8000     		.short	128
 1313 0152 4000     		.short	64
 1314              		.type	u8x8_d_st7565_erc12864_init_seq, %object
 1315              		.size	u8x8_d_st7565_erc12864_init_seq, 33
 1316              	u8x8_d_st7565_erc12864_init_seq:
 1317 0154 18       		.byte	24
 1318 0155 15       		.byte	21
 1319 0156 E2       		.byte	-30
 1320 0157 15       		.byte	21
 1321 0158 AE       		.byte	-82
 1322 0159 15       		.byte	21
 1323 015a 40       		.byte	64
 1324 015b 15       		.byte	21
 1325 015c A0       		.byte	-96
 1326 015d 15       		.byte	21
 1327 015e C8       		.byte	-56
 1328 015f 15       		.byte	21
 1329 0160 A6       		.byte	-90
 1330 0161 15       		.byte	21
 1331 0162 A3       		.byte	-93
 1332 0163 15       		.byte	21
 1333 0164 2F       		.byte	47
 1334 0165 15       		.byte	21
 1335 0166 F8       		.byte	-8
 1336 0167 16       		.byte	22
 1337 0168 00       		.byte	0
 1338 0169 15       		.byte	21
 1339 016a 27       		.byte	39
 1340 016b 15       		.byte	21
 1341 016c 81       		.byte	-127
 1342 016d 16       		.byte	22
 1343 016e 18       		.byte	24
 1344 016f 15       		.byte	21
 1345 0170 AE       		.byte	-82
 1346 0171 15       		.byte	21
 1347 0172 A5       		.byte	-91
 1348 0173 19       		.byte	25
 1349 0174 FF       		.byte	-1
 1350              		.type	u8x8_d_nt7534_tg12864r_init_seq, %object
 1351              		.size	u8x8_d_nt7534_tg12864r_init_seq, 29
 1352              	u8x8_d_nt7534_tg12864r_init_seq:
 1353 0175 18       		.byte	24
 1354 0176 15       		.byte	21
 1355 0177 E2       		.byte	-30
 1356 0178 15       		.byte	21
 1357 0179 AE       		.byte	-82
 1358 017a 15       		.byte	21
ARM GAS  C:\Users\gjl\AppData\Local\Temp\ccaUpWuc.s 			page 40


 1359 017b 60       		.byte	96
 1360 017c 15       		.byte	21
 1361 017d A0       		.byte	-96
 1362 017e 15       		.byte	21
 1363 017f C8       		.byte	-56
 1364 0180 15       		.byte	21
 1365 0181 A6       		.byte	-90
 1366 0182 15       		.byte	21
 1367 0183 A3       		.byte	-93
 1368 0184 15       		.byte	21
 1369 0185 2F       		.byte	47
 1370 0186 15       		.byte	21
 1371 0187 27       		.byte	39
 1372 0188 15       		.byte	21
 1373 0189 81       		.byte	-127
 1374 018a 16       		.byte	22
 1375 018b 09       		.byte	9
 1376 018c 15       		.byte	21
 1377 018d AE       		.byte	-82
 1378 018e 15       		.byte	21
 1379 018f A5       		.byte	-91
 1380 0190 19       		.byte	25
 1381 0191 FF       		.byte	-1
 1382 0192 0000     		.space	2
 1383              		.type	u8x8_st7565_dogm132_display_info, %object
 1384              		.size	u8x8_st7565_dogm132_display_info, 24
 1385              	u8x8_st7565_dogm132_display_info:
 1386 0194 00       		.byte	0
 1387 0195 01       		.byte	1
 1388 0196 96       		.byte	-106
 1389 0197 32       		.byte	50
 1390 0198 01       		.byte	1
 1391 0199 01       		.byte	1
 1392 019a 32       		.byte	50
 1393 019b 78       		.byte	120
 1394 019c 00093D00 		.word	4000000
 1395 01a0 00       		.byte	0
 1396 01a1 04       		.byte	4
 1397 01a2 28       		.byte	40
 1398 01a3 50       		.byte	80
 1399 01a4 11       		.byte	17
 1400 01a5 04       		.byte	4
 1401 01a6 00       		.byte	0
 1402 01a7 00       		.byte	0
 1403 01a8 8400     		.short	132
 1404 01aa 2000     		.short	32
 1405              		.type	u8x8_d_st7565_dogm132_init_seq, %object
 1406              		.size	u8x8_d_st7565_dogm132_init_seq, 33
 1407              	u8x8_d_st7565_dogm132_init_seq:
 1408 01ac 18       		.byte	24
 1409 01ad 15       		.byte	21
 1410 01ae E2       		.byte	-30
 1411 01af 15       		.byte	21
 1412 01b0 AE       		.byte	-82
 1413 01b1 15       		.byte	21
 1414 01b2 40       		.byte	64
 1415 01b3 15       		.byte	21
ARM GAS  C:\Users\gjl\AppData\Local\Temp\ccaUpWuc.s 			page 41


 1416 01b4 A1       		.byte	-95
 1417 01b5 15       		.byte	21
 1418 01b6 C0       		.byte	-64
 1419 01b7 15       		.byte	21
 1420 01b8 A6       		.byte	-90
 1421 01b9 15       		.byte	21
 1422 01ba A2       		.byte	-94
 1423 01bb 15       		.byte	21
 1424 01bc 2F       		.byte	47
 1425 01bd 15       		.byte	21
 1426 01be F8       		.byte	-8
 1427 01bf 16       		.byte	22
 1428 01c0 00       		.byte	0
 1429 01c1 15       		.byte	21
 1430 01c2 23       		.byte	35
 1431 01c3 15       		.byte	21
 1432 01c4 81       		.byte	-127
 1433 01c5 16       		.byte	22
 1434 01c6 1F       		.byte	31
 1435 01c7 15       		.byte	21
 1436 01c8 AE       		.byte	-82
 1437 01c9 15       		.byte	21
 1438 01ca A5       		.byte	-91
 1439 01cb 19       		.byte	25
 1440 01cc FF       		.byte	-1
 1441              		.text
 1442              	.Letext0:
 1443              		.file 2 "c:\\program files (x86)\\cypress\\psoc creator\\4.1\\psoc creator\\import\\gnu\\arm\\5.4.
 1444              		.file 3 "c:\\program files (x86)\\cypress\\psoc creator\\4.1\\psoc creator\\import\\gnu\\arm\\5.4.
 1445              		.file 4 "..\\..\\u8g2\\csrc\\u8x8.h"