ARM GAS  C:\Users\Alan\AppData\Local\Temp\ccOeIAXh.s 			page 1


   1              		.syntax unified
   2              		.cpu cortex-m0
   3              		.fpu softvfp
   4              		.eabi_attribute 20, 1
   5              		.eabi_attribute 21, 1
   6              		.eabi_attribute 23, 3
   7              		.eabi_attribute 24, 1
   8              		.eabi_attribute 25, 1
   9              		.eabi_attribute 26, 1
  10              		.eabi_attribute 30, 4
  11              		.eabi_attribute 34, 0
  12              		.eabi_attribute 18, 4
  13              		.thumb
  14              		.syntax unified
  15              		.file	"u8x8_d_uc1611.c"
  16              		.text
  17              	.Ltext0:
  18              		.cfi_sections	.debug_frame
  19              		.section	.text.u8x8_d_uc1611_common,"ax",%progbits
  20              		.align	1
  21              		.global	u8x8_d_uc1611_common
  22              		.code	16
  23              		.thumb_func
  24              		.type	u8x8_d_uc1611_common, %function
  25              	u8x8_d_uc1611_common:
  26              	.LFB0:
  27              		.file 1 "..\\..\\u8g2\\csrc\\u8x8_d_uc1611.c"
   1:..\..\u8g2\csrc/u8x8_d_uc1611.c **** /*
   2:..\..\u8g2\csrc/u8x8_d_uc1611.c **** 
   3:..\..\u8g2\csrc/u8x8_d_uc1611.c ****   u8x8_d_uc1611.c
   4:..\..\u8g2\csrc/u8x8_d_uc1611.c ****   
   5:..\..\u8g2\csrc/u8x8_d_uc1611.c ****   Universal 8bit Graphics Library (https://github.com/olikraus/u8g2/)
   6:..\..\u8g2\csrc/u8x8_d_uc1611.c **** 
   7:..\..\u8g2\csrc/u8x8_d_uc1611.c ****   Copyright (c) 2016, olikraus@gmail.com
   8:..\..\u8g2\csrc/u8x8_d_uc1611.c ****   All rights reserved.
   9:..\..\u8g2\csrc/u8x8_d_uc1611.c **** 
  10:..\..\u8g2\csrc/u8x8_d_uc1611.c ****   Redistribution and use in source and binary forms, with or without modification, 
  11:..\..\u8g2\csrc/u8x8_d_uc1611.c ****   are permitted provided that the following conditions are met:
  12:..\..\u8g2\csrc/u8x8_d_uc1611.c **** 
  13:..\..\u8g2\csrc/u8x8_d_uc1611.c ****   * Redistributions of source code must retain the above copyright notice, this list 
  14:..\..\u8g2\csrc/u8x8_d_uc1611.c ****     of conditions and the following disclaimer.
  15:..\..\u8g2\csrc/u8x8_d_uc1611.c ****     
  16:..\..\u8g2\csrc/u8x8_d_uc1611.c ****   * Redistributions in binary form must reproduce the above copyright notice, this 
  17:..\..\u8g2\csrc/u8x8_d_uc1611.c ****     list of conditions and the following disclaimer in the documentation and/or other 
  18:..\..\u8g2\csrc/u8x8_d_uc1611.c ****     materials provided with the distribution.
  19:..\..\u8g2\csrc/u8x8_d_uc1611.c **** 
  20:..\..\u8g2\csrc/u8x8_d_uc1611.c ****   THIS SOFTWARE IS PROVIDED BY THE COPYRIGHT HOLDERS AND 
  21:..\..\u8g2\csrc/u8x8_d_uc1611.c ****   CONTRIBUTORS "AS IS" AND ANY EXPRESS OR IMPLIED WARRANTIES, 
  22:..\..\u8g2\csrc/u8x8_d_uc1611.c ****   INCLUDING, BUT NOT LIMITED TO, THE IMPLIED WARRANTIES OF 
  23:..\..\u8g2\csrc/u8x8_d_uc1611.c ****   MERCHANTABILITY AND FITNESS FOR A PARTICULAR PURPOSE ARE 
  24:..\..\u8g2\csrc/u8x8_d_uc1611.c ****   DISCLAIMED. IN NO EVENT SHALL THE COPYRIGHT HOLDER OR 
  25:..\..\u8g2\csrc/u8x8_d_uc1611.c ****   CONTRIBUTORS BE LIABLE FOR ANY DIRECT, INDIRECT, INCIDENTAL, 
  26:..\..\u8g2\csrc/u8x8_d_uc1611.c ****   SPECIAL, EXEMPLARY, OR CONSEQUENTIAL DAMAGES (INCLUDING, BUT 
  27:..\..\u8g2\csrc/u8x8_d_uc1611.c ****   NOT LIMITED TO, PROCUREMENT OF SUBSTITUTE GOODS OR SERVICES; 
  28:..\..\u8g2\csrc/u8x8_d_uc1611.c ****   LOSS OF USE, DATA, OR PROFITS; OR BUSINESS INTERRUPTION) HOWEVER 
  29:..\..\u8g2\csrc/u8x8_d_uc1611.c ****   CAUSED AND ON ANY THEORY OF LIABILITY, WHETHER IN CONTRACT, 
  30:..\..\u8g2\csrc/u8x8_d_uc1611.c ****   STRICT LIABILITY, OR TORT (INCLUDING NEGLIGENCE OR OTHERWISE) 
ARM GAS  C:\Users\Alan\AppData\Local\Temp\ccOeIAXh.s 			page 2


  31:..\..\u8g2\csrc/u8x8_d_uc1611.c ****   ARISING IN ANY WAY OUT OF THE USE OF THIS SOFTWARE, EVEN IF 
  32:..\..\u8g2\csrc/u8x8_d_uc1611.c ****   ADVISED OF THE POSSIBILITY OF SUCH DAMAGE.  
  33:..\..\u8g2\csrc/u8x8_d_uc1611.c **** 
  34:..\..\u8g2\csrc/u8x8_d_uc1611.c **** 
  35:..\..\u8g2\csrc/u8x8_d_uc1611.c ****   6 Nov 2016: Not yet finished
  36:..\..\u8g2\csrc/u8x8_d_uc1611.c ****   
  37:..\..\u8g2\csrc/u8x8_d_uc1611.c **** */
  38:..\..\u8g2\csrc/u8x8_d_uc1611.c **** #include "u8x8.h"
  39:..\..\u8g2\csrc/u8x8_d_uc1611.c **** 
  40:..\..\u8g2\csrc/u8x8_d_uc1611.c **** 
  41:..\..\u8g2\csrc/u8x8_d_uc1611.c **** 
  42:..\..\u8g2\csrc/u8x8_d_uc1611.c **** 
  43:..\..\u8g2\csrc/u8x8_d_uc1611.c **** 
  44:..\..\u8g2\csrc/u8x8_d_uc1611.c **** static const uint8_t u8x8_d_uc1611_powersave0_seq[] = {
  45:..\..\u8g2\csrc/u8x8_d_uc1611.c ****   U8X8_START_TRANSFER(),             	/* enable chip, delay is part of the transfer start */
  46:..\..\u8g2\csrc/u8x8_d_uc1611.c ****   U8X8_C(0x0a9),		                /* display on */
  47:..\..\u8g2\csrc/u8x8_d_uc1611.c ****   U8X8_END_TRANSFER(),             	/* disable chip */
  48:..\..\u8g2\csrc/u8x8_d_uc1611.c ****   U8X8_END()             			/* end of sequence */
  49:..\..\u8g2\csrc/u8x8_d_uc1611.c **** };
  50:..\..\u8g2\csrc/u8x8_d_uc1611.c **** 
  51:..\..\u8g2\csrc/u8x8_d_uc1611.c **** static const uint8_t u8x8_d_uc1611_powersave1_seq[] = {
  52:..\..\u8g2\csrc/u8x8_d_uc1611.c ****   U8X8_START_TRANSFER(),             	/* enable chip, delay is part of the transfer start */
  53:..\..\u8g2\csrc/u8x8_d_uc1611.c ****   U8X8_C(0x0a8),		                /* display off, enter sleep mode */
  54:..\..\u8g2\csrc/u8x8_d_uc1611.c ****   U8X8_END_TRANSFER(),             	/* disable chip */
  55:..\..\u8g2\csrc/u8x8_d_uc1611.c ****   U8X8_END()             			/* end of sequence */
  56:..\..\u8g2\csrc/u8x8_d_uc1611.c **** };
  57:..\..\u8g2\csrc/u8x8_d_uc1611.c **** 
  58:..\..\u8g2\csrc/u8x8_d_uc1611.c **** static const uint8_t u8x8_d_uc1611_flip0_seq[] = {
  59:..\..\u8g2\csrc/u8x8_d_uc1611.c ****   U8X8_START_TRANSFER(),             	/* enable chip, delay is part of the transfer start */
  60:..\..\u8g2\csrc/u8x8_d_uc1611.c ****   U8X8_CA(0x0c0, 0x004),            	/* LCD Mapping */
  61:..\..\u8g2\csrc/u8x8_d_uc1611.c ****   U8X8_END_TRANSFER(),             	/* disable chip */
  62:..\..\u8g2\csrc/u8x8_d_uc1611.c ****   U8X8_END()             			/* end of sequence */
  63:..\..\u8g2\csrc/u8x8_d_uc1611.c **** };
  64:..\..\u8g2\csrc/u8x8_d_uc1611.c **** 
  65:..\..\u8g2\csrc/u8x8_d_uc1611.c **** static const uint8_t u8x8_d_uc1611_flip1_seq[] = {
  66:..\..\u8g2\csrc/u8x8_d_uc1611.c ****   U8X8_START_TRANSFER(),             	/* enable chip, delay is part of the transfer start */
  67:..\..\u8g2\csrc/u8x8_d_uc1611.c ****   U8X8_CA(0x0c0, 0x002),            	/* LCD Mapping */
  68:..\..\u8g2\csrc/u8x8_d_uc1611.c ****   U8X8_END_TRANSFER(),             	/* disable chip */
  69:..\..\u8g2\csrc/u8x8_d_uc1611.c ****   U8X8_END()             			/* end of sequence */
  70:..\..\u8g2\csrc/u8x8_d_uc1611.c **** };
  71:..\..\u8g2\csrc/u8x8_d_uc1611.c **** 
  72:..\..\u8g2\csrc/u8x8_d_uc1611.c **** 
  73:..\..\u8g2\csrc/u8x8_d_uc1611.c **** uint8_t u8x8_d_uc1611_common(u8x8_t *u8x8, uint8_t msg, uint8_t arg_int, void *arg_ptr)
  74:..\..\u8g2\csrc/u8x8_d_uc1611.c **** {
  28              		.loc 1 74 0
  29              		.cfi_startproc
  30              		@ args = 0, pretend = 0, frame = 0
  31              		@ frame_needed = 0, uses_anonymous_args = 0
  32              	.LVL0:
  75:..\..\u8g2\csrc/u8x8_d_uc1611.c ****   uint8_t x, y, c;
  76:..\..\u8g2\csrc/u8x8_d_uc1611.c ****   uint8_t *ptr;
  77:..\..\u8g2\csrc/u8x8_d_uc1611.c ****   switch(msg)
  33              		.loc 1 77 0
  34 0000 0B39     		subs	r1, r1, #11
  35              	.LVL1:
  74:..\..\u8g2\csrc/u8x8_d_uc1611.c ****   uint8_t x, y, c;
  36              		.loc 1 74 0
ARM GAS  C:\Users\Alan\AppData\Local\Temp\ccOeIAXh.s 			page 3


  37 0002 F8B5     		push	{r3, r4, r5, r6, r7, lr}
  38              		.cfi_def_cfa_offset 24
  39              		.cfi_offset 3, -24
  40              		.cfi_offset 4, -20
  41              		.cfi_offset 5, -16
  42              		.cfi_offset 6, -12
  43              		.cfi_offset 7, -8
  44              		.cfi_offset 14, -4
  74:..\..\u8g2\csrc/u8x8_d_uc1611.c ****   uint8_t x, y, c;
  45              		.loc 1 74 0
  46 0004 0400     		movs	r4, r0
  47 0006 1600     		movs	r6, r2
  48 0008 1F00     		movs	r7, r3
  49              		.loc 1 77 0
  50 000a 0800     		movs	r0, r1
  51              	.LVL2:
  52 000c 0429     		cmp	r1, #4
  53 000e 5DD8     		bhi	.L11
  54 0010 FFF7FEFF 		bl	__gnu_thumb1_case_uqi
  55              	.L4:
  56 0014 32       		.byte	(.L3-.L4)/2
  57 0015 5C       		.byte	(.L11-.L4)/2
  58 0016 3A       		.byte	(.L5-.L4)/2
  59 0017 4D       		.byte	(.L6-.L4)/2
  60 0018 03       		.byte	(.L7-.L4)/2
  61 0019 00       		.p2align 1
  62              	.L7:
  78:..\..\u8g2\csrc/u8x8_d_uc1611.c ****   {
  79:..\..\u8g2\csrc/u8x8_d_uc1611.c ****     case U8X8_MSG_DISPLAY_DRAW_TILE:
  80:..\..\u8g2\csrc/u8x8_d_uc1611.c ****       u8x8_cad_StartTransfer(u8x8);
  63              		.loc 1 80 0
  64 001a 2000     		movs	r0, r4
  65 001c FFF7FEFF 		bl	u8x8_cad_StartTransfer
  66              	.LVL3:
  81:..\..\u8g2\csrc/u8x8_d_uc1611.c ****     
  82:..\..\u8g2\csrc/u8x8_d_uc1611.c ****       x = ((u8x8_tile_t *)arg_ptr)->x_pos;
  83:..\..\u8g2\csrc/u8x8_d_uc1611.c ****       x *= 8;
  84:..\..\u8g2\csrc/u8x8_d_uc1611.c ****       x += u8x8->x_offset;
  85:..\..\u8g2\csrc/u8x8_d_uc1611.c ****    
  86:..\..\u8g2\csrc/u8x8_d_uc1611.c ****       u8x8_cad_SendCmd(u8x8, 0x000 | ((x&15)));
  67              		.loc 1 86 0
  68 0020 0F21     		movs	r1, #15
  82:..\..\u8g2\csrc/u8x8_d_uc1611.c ****       x *= 8;
  69              		.loc 1 82 0
  70 0022 7D79     		ldrb	r5, [r7, #5]
  71              	.LVL4:
  84:..\..\u8g2\csrc/u8x8_d_uc1611.c ****    
  72              		.loc 1 84 0
  73 0024 A37F     		ldrb	r3, [r4, #30]
  83:..\..\u8g2\csrc/u8x8_d_uc1611.c ****       x += u8x8->x_offset;
  74              		.loc 1 83 0
  75 0026 ED00     		lsls	r5, r5, #3
  76              	.LVL5:
  84:..\..\u8g2\csrc/u8x8_d_uc1611.c ****    
  77              		.loc 1 84 0
  78 0028 ED18     		adds	r5, r5, r3
  79              	.LVL6:
ARM GAS  C:\Users\Alan\AppData\Local\Temp\ccOeIAXh.s 			page 4


  80 002a EDB2     		uxtb	r5, r5
  81              	.LVL7:
  82              		.loc 1 86 0
  83 002c 2940     		ands	r1, r5
  84 002e 2000     		movs	r0, r4
  85 0030 FFF7FEFF 		bl	u8x8_cad_SendCmd
  86              	.LVL8:
  87:..\..\u8g2\csrc/u8x8_d_uc1611.c ****       u8x8_cad_SendCmd(u8x8, 0x010 | (x>>4) );
  87              		.loc 1 87 0
  88 0034 1021     		movs	r1, #16
  89 0036 2D09     		lsrs	r5, r5, #4
  90              	.LVL9:
  91 0038 2943     		orrs	r1, r5
  92 003a 2000     		movs	r0, r4
  93 003c FFF7FEFF 		bl	u8x8_cad_SendCmd
  94              	.LVL10:
  88:..\..\u8g2\csrc/u8x8_d_uc1611.c ****     
  89:..\..\u8g2\csrc/u8x8_d_uc1611.c ****       y = ((u8x8_tile_t *)arg_ptr)->y_pos;
  90:..\..\u8g2\csrc/u8x8_d_uc1611.c ****       u8x8_cad_SendCmd(u8x8, 0x060 | (y&15));
  95              		.loc 1 90 0
  96 0040 0F21     		movs	r1, #15
  97 0042 6023     		movs	r3, #96
  89:..\..\u8g2\csrc/u8x8_d_uc1611.c ****       u8x8_cad_SendCmd(u8x8, 0x060 | (y&15));
  98              		.loc 1 89 0
  99 0044 BD79     		ldrb	r5, [r7, #6]
 100              	.LVL11:
 101              		.loc 1 90 0
 102 0046 2000     		movs	r0, r4
 103 0048 2940     		ands	r1, r5
 104 004a 1943     		orrs	r1, r3
 105 004c FFF7FEFF 		bl	u8x8_cad_SendCmd
 106              	.LVL12:
  91:..\..\u8g2\csrc/u8x8_d_uc1611.c ****       u8x8_cad_SendCmd(u8x8, 0x070 | (y>>4));
 107              		.loc 1 91 0
 108 0050 7021     		movs	r1, #112
 109 0052 2D09     		lsrs	r5, r5, #4
 110              	.LVL13:
 111 0054 2943     		orrs	r1, r5
 112 0056 2000     		movs	r0, r4
 113 0058 FFF7FEFF 		bl	u8x8_cad_SendCmd
 114              	.LVL14:
  92:..\..\u8g2\csrc/u8x8_d_uc1611.c ****     
  93:..\..\u8g2\csrc/u8x8_d_uc1611.c ****       c = ((u8x8_tile_t *)arg_ptr)->cnt;
 115              		.loc 1 93 0
 116 005c 3D79     		ldrb	r5, [r7, #4]
 117              	.LVL15:
  94:..\..\u8g2\csrc/u8x8_d_uc1611.c ****       c *= 8;
  95:..\..\u8g2\csrc/u8x8_d_uc1611.c ****       ptr = ((u8x8_tile_t *)arg_ptr)->tile_ptr;
 118              		.loc 1 95 0
 119 005e 3F68     		ldr	r7, [r7]
 120              	.LVL16:
  94:..\..\u8g2\csrc/u8x8_d_uc1611.c ****       c *= 8;
 121              		.loc 1 94 0
 122 0060 ED00     		lsls	r5, r5, #3
 123              	.LVL17:
 124 0062 EDB2     		uxtb	r5, r5
 125              	.LVL18:
ARM GAS  C:\Users\Alan\AppData\Local\Temp\ccOeIAXh.s 			page 5


 126              	.L8:
  96:..\..\u8g2\csrc/u8x8_d_uc1611.c ****       do
  97:..\..\u8g2\csrc/u8x8_d_uc1611.c ****       {
  98:..\..\u8g2\csrc/u8x8_d_uc1611.c **** 	u8x8_cad_SendData(u8x8, c, ptr);	/* note: SendData can not handle more than 255 bytes */
  99:..\..\u8g2\csrc/u8x8_d_uc1611.c **** 	arg_int--;
 127              		.loc 1 99 0 discriminator 1
 128 0064 013E     		subs	r6, r6, #1
 129              	.LVL19:
  98:..\..\u8g2\csrc/u8x8_d_uc1611.c **** 	arg_int--;
 130              		.loc 1 98 0 discriminator 1
 131 0066 3A00     		movs	r2, r7
 132 0068 2900     		movs	r1, r5
 133 006a 2000     		movs	r0, r4
 134              		.loc 1 99 0 discriminator 1
 135 006c F6B2     		uxtb	r6, r6
  98:..\..\u8g2\csrc/u8x8_d_uc1611.c **** 	arg_int--;
 136              		.loc 1 98 0 discriminator 1
 137 006e FFF7FEFF 		bl	u8x8_cad_SendData
 138              	.LVL20:
 100:..\..\u8g2\csrc/u8x8_d_uc1611.c ****       } while( arg_int > 0 );
 139              		.loc 1 100 0 discriminator 1
 140 0072 002E     		cmp	r6, #0
 141 0074 F6D1     		bne	.L8
 142 0076 25E0     		b	.L16
 143              	.LVL21:
 144              	.L3:
 145 0078 1549     		ldr	r1, .L18
 101:..\..\u8g2\csrc/u8x8_d_uc1611.c ****       
 102:..\..\u8g2\csrc/u8x8_d_uc1611.c ****       u8x8_cad_EndTransfer(u8x8);
 103:..\..\u8g2\csrc/u8x8_d_uc1611.c ****       break;
 104:..\..\u8g2\csrc/u8x8_d_uc1611.c ****     /*	handled in the calling procedure 
 105:..\..\u8g2\csrc/u8x8_d_uc1611.c ****     case U8X8_MSG_DISPLAY_SETUP_MEMORY:
 106:..\..\u8g2\csrc/u8x8_d_uc1611.c ****       u8x8_d_helper_display_setup_memory(u8x8, &u8x8_uc1611_128x64_display_info);
 107:..\..\u8g2\csrc/u8x8_d_uc1611.c ****       break;
 108:..\..\u8g2\csrc/u8x8_d_uc1611.c ****     case U8X8_MSG_DISPLAY_INIT:
 109:..\..\u8g2\csrc/u8x8_d_uc1611.c ****       u8x8_d_helper_display_init(u8x8);
 110:..\..\u8g2\csrc/u8x8_d_uc1611.c ****       u8x8_cad_SendSequence(u8x8, u8x8_d_uc1701_dogs102_init_seq);
 111:..\..\u8g2\csrc/u8x8_d_uc1611.c ****       break;
 112:..\..\u8g2\csrc/u8x8_d_uc1611.c ****     */
 113:..\..\u8g2\csrc/u8x8_d_uc1611.c ****     case U8X8_MSG_DISPLAY_SET_POWER_SAVE:
 114:..\..\u8g2\csrc/u8x8_d_uc1611.c ****       if ( arg_int == 0 )
 146              		.loc 1 114 0
 147 007a 002A     		cmp	r2, #0
 148 007c 00D0     		beq	.L15
 115:..\..\u8g2\csrc/u8x8_d_uc1611.c **** 	u8x8_cad_SendSequence(u8x8, u8x8_d_uc1611_powersave0_seq);
 116:..\..\u8g2\csrc/u8x8_d_uc1611.c ****       else
 117:..\..\u8g2\csrc/u8x8_d_uc1611.c **** 	u8x8_cad_SendSequence(u8x8, u8x8_d_uc1611_powersave1_seq);
 149              		.loc 1 117 0
 150 007e 0531     		adds	r1, r1, #5
 151              	.L15:
 152 0080 2000     		movs	r0, r4
 153 0082 FFF7FEFF 		bl	u8x8_cad_SendSequence
 154              	.LVL22:
 155 0086 10E0     		b	.L13
 156              	.LVL23:
 157              	.L5:
 158 0088 1149     		ldr	r1, .L18
ARM GAS  C:\Users\Alan\AppData\Local\Temp\ccOeIAXh.s 			page 6


 118:..\..\u8g2\csrc/u8x8_d_uc1611.c ****       break;
 119:..\..\u8g2\csrc/u8x8_d_uc1611.c ****     case U8X8_MSG_DISPLAY_SET_FLIP_MODE:
 120:..\..\u8g2\csrc/u8x8_d_uc1611.c ****       if ( arg_int == 0 )
 159              		.loc 1 120 0
 160 008a 002A     		cmp	r2, #0
 161 008c 06D1     		bne	.L10
 121:..\..\u8g2\csrc/u8x8_d_uc1611.c ****       {
 122:..\..\u8g2\csrc/u8x8_d_uc1611.c **** 	u8x8_cad_SendSequence(u8x8, u8x8_d_uc1611_flip0_seq);
 162              		.loc 1 122 0
 163 008e 0A31     		adds	r1, r1, #10
 164 0090 2000     		movs	r0, r4
 165 0092 FFF7FEFF 		bl	u8x8_cad_SendSequence
 166              	.LVL24:
 123:..\..\u8g2\csrc/u8x8_d_uc1611.c **** 	u8x8->x_offset = u8x8->display_info->default_x_offset;
 167              		.loc 1 123 0
 168 0096 2368     		ldr	r3, [r4]
 169 0098 9B7C     		ldrb	r3, [r3, #18]
 170 009a 05E0     		b	.L14
 171              	.LVL25:
 172              	.L10:
 124:..\..\u8g2\csrc/u8x8_d_uc1611.c ****       }
 125:..\..\u8g2\csrc/u8x8_d_uc1611.c ****       else
 126:..\..\u8g2\csrc/u8x8_d_uc1611.c ****       {
 127:..\..\u8g2\csrc/u8x8_d_uc1611.c **** 	u8x8_cad_SendSequence(u8x8, u8x8_d_uc1611_flip1_seq);
 173              		.loc 1 127 0
 174 009c 1131     		adds	r1, r1, #17
 175 009e 2000     		movs	r0, r4
 176 00a0 FFF7FEFF 		bl	u8x8_cad_SendSequence
 177              	.LVL26:
 128:..\..\u8g2\csrc/u8x8_d_uc1611.c **** 	u8x8->x_offset = u8x8->display_info->flipmode_x_offset;
 178              		.loc 1 128 0
 179 00a4 2368     		ldr	r3, [r4]
 180 00a6 DB7C     		ldrb	r3, [r3, #19]
 181              	.L14:
 182 00a8 A377     		strb	r3, [r4, #30]
 183              	.LVL27:
 184              	.L13:
 129:..\..\u8g2\csrc/u8x8_d_uc1611.c ****       }	
 130:..\..\u8g2\csrc/u8x8_d_uc1611.c ****       break;
 131:..\..\u8g2\csrc/u8x8_d_uc1611.c **** #ifdef U8X8_WITH_SET_CONTRAST
 132:..\..\u8g2\csrc/u8x8_d_uc1611.c ****     case U8X8_MSG_DISPLAY_SET_CONTRAST:
 133:..\..\u8g2\csrc/u8x8_d_uc1611.c ****       u8x8_cad_StartTransfer(u8x8);
 134:..\..\u8g2\csrc/u8x8_d_uc1611.c ****       u8x8_cad_SendCmd(u8x8, 0x081 );
 135:..\..\u8g2\csrc/u8x8_d_uc1611.c ****       u8x8_cad_SendArg(u8x8, arg_int  );	/* uc1611 has range from 0 to 255 */
 136:..\..\u8g2\csrc/u8x8_d_uc1611.c ****       u8x8_cad_EndTransfer(u8x8);
 137:..\..\u8g2\csrc/u8x8_d_uc1611.c ****       break;
 138:..\..\u8g2\csrc/u8x8_d_uc1611.c **** #endif
 139:..\..\u8g2\csrc/u8x8_d_uc1611.c ****     default:
 140:..\..\u8g2\csrc/u8x8_d_uc1611.c ****       return 0;
 141:..\..\u8g2\csrc/u8x8_d_uc1611.c ****   }
 142:..\..\u8g2\csrc/u8x8_d_uc1611.c ****   return 1;
 185              		.loc 1 142 0
 186 00aa 0120     		movs	r0, #1
 187 00ac 0FE0     		b	.L2
 188              	.LVL28:
 189              	.L6:
 133:..\..\u8g2\csrc/u8x8_d_uc1611.c ****       u8x8_cad_SendCmd(u8x8, 0x081 );
ARM GAS  C:\Users\Alan\AppData\Local\Temp\ccOeIAXh.s 			page 7


 190              		.loc 1 133 0
 191 00ae 2000     		movs	r0, r4
 192 00b0 FFF7FEFF 		bl	u8x8_cad_StartTransfer
 193              	.LVL29:
 134:..\..\u8g2\csrc/u8x8_d_uc1611.c ****       u8x8_cad_SendArg(u8x8, arg_int  );	/* uc1611 has range from 0 to 255 */
 194              		.loc 1 134 0
 195 00b4 8121     		movs	r1, #129
 196 00b6 2000     		movs	r0, r4
 197 00b8 FFF7FEFF 		bl	u8x8_cad_SendCmd
 198              	.LVL30:
 135:..\..\u8g2\csrc/u8x8_d_uc1611.c ****       u8x8_cad_EndTransfer(u8x8);
 199              		.loc 1 135 0
 200 00bc 3100     		movs	r1, r6
 201 00be 2000     		movs	r0, r4
 202 00c0 FFF7FEFF 		bl	u8x8_cad_SendArg
 203              	.LVL31:
 204              	.L16:
 136:..\..\u8g2\csrc/u8x8_d_uc1611.c ****       break;
 205              		.loc 1 136 0
 206 00c4 2000     		movs	r0, r4
 207 00c6 FFF7FEFF 		bl	u8x8_cad_EndTransfer
 208              	.LVL32:
 209 00ca EEE7     		b	.L13
 210              	.LVL33:
 211              	.L11:
 140:..\..\u8g2\csrc/u8x8_d_uc1611.c ****   }
 212              		.loc 1 140 0
 213 00cc 0020     		movs	r0, #0
 214              	.LVL34:
 215              	.L2:
 143:..\..\u8g2\csrc/u8x8_d_uc1611.c **** }
 216              		.loc 1 143 0
 217              		@ sp needed
 218              	.LVL35:
 219 00ce F8BD     		pop	{r3, r4, r5, r6, r7, pc}
 220              	.L19:
 221              		.align	2
 222              	.L18:
 223 00d0 00000000 		.word	.LANCHOR0
 224              		.cfi_endproc
 225              	.LFE0:
 226              		.size	u8x8_d_uc1611_common, .-u8x8_d_uc1611_common
 227              		.section	.text.u8x8_d_uc1611_ea_dogm240,"ax",%progbits
 228              		.align	1
 229              		.global	u8x8_d_uc1611_ea_dogm240
 230              		.code	16
 231              		.thumb_func
 232              		.type	u8x8_d_uc1611_ea_dogm240, %function
 233              	u8x8_d_uc1611_ea_dogm240:
 234              	.LFB1:
 144:..\..\u8g2\csrc/u8x8_d_uc1611.c **** 
 145:..\..\u8g2\csrc/u8x8_d_uc1611.c **** /*================================================*/
 146:..\..\u8g2\csrc/u8x8_d_uc1611.c **** /* EA DOGM240 */
 147:..\..\u8g2\csrc/u8x8_d_uc1611.c **** 
 148:..\..\u8g2\csrc/u8x8_d_uc1611.c **** 
 149:..\..\u8g2\csrc/u8x8_d_uc1611.c **** /*
 150:..\..\u8g2\csrc/u8x8_d_uc1611.c ****   UC1611 has two chip select inputs (CS0 and CS1).
ARM GAS  C:\Users\Alan\AppData\Local\Temp\ccOeIAXh.s 			page 8


 151:..\..\u8g2\csrc/u8x8_d_uc1611.c ****   CS0 is low active, CS1 is high active. It will depend on the display
 152:..\..\u8g2\csrc/u8x8_d_uc1611.c ****   module whether the display has a is low or high active chip select.
 153:..\..\u8g2\csrc/u8x8_d_uc1611.c **** */
 154:..\..\u8g2\csrc/u8x8_d_uc1611.c **** 
 155:..\..\u8g2\csrc/u8x8_d_uc1611.c **** static const u8x8_display_info_t u8x8_uc1611_240x64_display_info =
 156:..\..\u8g2\csrc/u8x8_d_uc1611.c **** {
 157:..\..\u8g2\csrc/u8x8_d_uc1611.c ****   /* chip_enable_level = */ 0,
 158:..\..\u8g2\csrc/u8x8_d_uc1611.c ****   /* chip_disable_level = */ 1,
 159:..\..\u8g2\csrc/u8x8_d_uc1611.c ****   
 160:..\..\u8g2\csrc/u8x8_d_uc1611.c ****   /* post_chip_enable_wait_ns = */ 10,	/* uc1611 datasheet, page 60, actually 0 */
 161:..\..\u8g2\csrc/u8x8_d_uc1611.c ****   /* pre_chip_disable_wait_ns = */ 10,	/* uc1611 datasheet, page 60, actually 0 */
 162:..\..\u8g2\csrc/u8x8_d_uc1611.c ****   /* reset_pulse_width_ms = */ 1, 
 163:..\..\u8g2\csrc/u8x8_d_uc1611.c ****   /* post_reset_wait_ms = */ 10, 	/* uc1611 datasheet, page 67 */
 164:..\..\u8g2\csrc/u8x8_d_uc1611.c ****   /* sda_setup_time_ns = */ 10,		/* uc1611 datasheet, page 64, actually 0 */
 165:..\..\u8g2\csrc/u8x8_d_uc1611.c ****   /* sck_pulse_width_ns = */ 60,	/* half of cycle time  */
 166:..\..\u8g2\csrc/u8x8_d_uc1611.c ****   /* sck_clock_hz = */ 8000000UL,	/* since Arduino 1.6.0, the SPI bus speed in Hz. Should be  10000
 167:..\..\u8g2\csrc/u8x8_d_uc1611.c ****   /* spi_mode = */ 0,		/* active high, rising edge */
 168:..\..\u8g2\csrc/u8x8_d_uc1611.c ****   /* i2c_bus_clock_100kHz = */ 4,
 169:..\..\u8g2\csrc/u8x8_d_uc1611.c ****   /* data_setup_time_ns = */ 30,	/* uc1611 datasheet, page 60 */
 170:..\..\u8g2\csrc/u8x8_d_uc1611.c ****   /* write_pulse_width_ns = */ 80,	/* uc1611 datasheet, page 60 */
 171:..\..\u8g2\csrc/u8x8_d_uc1611.c ****   /* tile_width = */ 30,		/* width of 30*8=240 pixel */
 172:..\..\u8g2\csrc/u8x8_d_uc1611.c ****   /* tile_hight = */ 8,
 173:..\..\u8g2\csrc/u8x8_d_uc1611.c ****   /* default_x_offset = */ 0,
 174:..\..\u8g2\csrc/u8x8_d_uc1611.c ****   /* flipmode_x_offset = */ 0,
 175:..\..\u8g2\csrc/u8x8_d_uc1611.c ****   /* pixel_width = */ 240,
 176:..\..\u8g2\csrc/u8x8_d_uc1611.c ****   /* pixel_height = */ 64
 177:..\..\u8g2\csrc/u8x8_d_uc1611.c **** };
 178:..\..\u8g2\csrc/u8x8_d_uc1611.c **** 
 179:..\..\u8g2\csrc/u8x8_d_uc1611.c **** static const uint8_t u8x8_d_uc1611_ea_dogm240_init_seq[] = {
 180:..\..\u8g2\csrc/u8x8_d_uc1611.c ****     
 181:..\..\u8g2\csrc/u8x8_d_uc1611.c ****   U8X8_START_TRANSFER(),             	/* enable chip, delay is part of the transfer start */
 182:..\..\u8g2\csrc/u8x8_d_uc1611.c ****   U8X8_C(0x02f),            			/* internal pump control */
 183:..\..\u8g2\csrc/u8x8_d_uc1611.c ****   U8X8_CA(0x0f1, 63),			/* set COM end */
 184:..\..\u8g2\csrc/u8x8_d_uc1611.c ****   U8X8_CA(0x0f2, 0x000),		/* display line start */
 185:..\..\u8g2\csrc/u8x8_d_uc1611.c ****   U8X8_CA(0x0f3, 63),			/* display line end */
 186:..\..\u8g2\csrc/u8x8_d_uc1611.c ****   U8X8_C(0x0a3),            			/* line rate */
 187:..\..\u8g2\csrc/u8x8_d_uc1611.c ****   U8X8_CA(0x081, 0x0a4),		/* set contrast, EA default: 0x0b7 */
 188:..\..\u8g2\csrc/u8x8_d_uc1611.c ****   
 189:..\..\u8g2\csrc/u8x8_d_uc1611.c ****   //U8X8_C(0x0a9),            			/* display enable */
 190:..\..\u8g2\csrc/u8x8_d_uc1611.c **** 
 191:..\..\u8g2\csrc/u8x8_d_uc1611.c ****   U8X8_C(0x0d1),            			/* display pattern */  
 192:..\..\u8g2\csrc/u8x8_d_uc1611.c ****   U8X8_C(0x089),            			/* auto increment */
 193:..\..\u8g2\csrc/u8x8_d_uc1611.c ****   U8X8_CA(0x0c0, 0x004),            	/* LCD Mapping */
 194:..\..\u8g2\csrc/u8x8_d_uc1611.c ****   U8X8_C(0x000),		                /* column low nibble */
 195:..\..\u8g2\csrc/u8x8_d_uc1611.c ****   U8X8_C(0x010),		                /* column high nibble */  
 196:..\..\u8g2\csrc/u8x8_d_uc1611.c ****   U8X8_C(0x060),		                /* page adr low */
 197:..\..\u8g2\csrc/u8x8_d_uc1611.c ****   U8X8_C(0x070),		                /* page adr high */
 198:..\..\u8g2\csrc/u8x8_d_uc1611.c ****   
 199:..\..\u8g2\csrc/u8x8_d_uc1611.c ****   
 200:..\..\u8g2\csrc/u8x8_d_uc1611.c ****   U8X8_END_TRANSFER(),             	/* disable chip */
 201:..\..\u8g2\csrc/u8x8_d_uc1611.c ****   U8X8_END()             			/* end of sequence */
 202:..\..\u8g2\csrc/u8x8_d_uc1611.c **** };
 203:..\..\u8g2\csrc/u8x8_d_uc1611.c **** 
 204:..\..\u8g2\csrc/u8x8_d_uc1611.c **** uint8_t u8x8_d_uc1611_ea_dogm240(u8x8_t *u8x8, uint8_t msg, uint8_t arg_int, void *arg_ptr)
 205:..\..\u8g2\csrc/u8x8_d_uc1611.c **** {
 235              		.loc 1 205 0
 236              		.cfi_startproc
ARM GAS  C:\Users\Alan\AppData\Local\Temp\ccOeIAXh.s 			page 9


 237              		@ args = 0, pretend = 0, frame = 0
 238              		@ frame_needed = 0, uses_anonymous_args = 0
 239              	.LVL36:
 240 0000 70B5     		push	{r4, r5, r6, lr}
 241              		.cfi_def_cfa_offset 16
 242              		.cfi_offset 4, -16
 243              		.cfi_offset 5, -12
 244              		.cfi_offset 6, -8
 245              		.cfi_offset 14, -4
 246              		.loc 1 205 0
 247 0002 0400     		movs	r4, r0
 248 0004 0D00     		movs	r5, r1
 206:..\..\u8g2\csrc/u8x8_d_uc1611.c ****   /* call common procedure first and handle messages there */
 207:..\..\u8g2\csrc/u8x8_d_uc1611.c ****   if ( u8x8_d_uc1611_common(u8x8, msg, arg_int, arg_ptr) == 0 )
 249              		.loc 1 207 0
 250 0006 FFF7FEFF 		bl	u8x8_d_uc1611_common
 251              	.LVL37:
 252 000a 0028     		cmp	r0, #0
 253 000c 11D1     		bne	.L24
 208:..\..\u8g2\csrc/u8x8_d_uc1611.c ****   {
 209:..\..\u8g2\csrc/u8x8_d_uc1611.c ****     /* msg not handled, then try here */
 210:..\..\u8g2\csrc/u8x8_d_uc1611.c ****     switch(msg)
 254              		.loc 1 210 0
 255 000e 092D     		cmp	r5, #9
 256 0010 0AD0     		beq	.L22
 257 0012 0A2D     		cmp	r5, #10
 258 0014 0ED1     		bne	.L21
 211:..\..\u8g2\csrc/u8x8_d_uc1611.c ****     {
 212:..\..\u8g2\csrc/u8x8_d_uc1611.c ****       case U8X8_MSG_DISPLAY_SETUP_MEMORY:
 213:..\..\u8g2\csrc/u8x8_d_uc1611.c **** 	u8x8_d_helper_display_setup_memory(u8x8, &u8x8_uc1611_240x64_display_info);
 214:..\..\u8g2\csrc/u8x8_d_uc1611.c **** 	break;
 215:..\..\u8g2\csrc/u8x8_d_uc1611.c ****       case U8X8_MSG_DISPLAY_INIT:
 216:..\..\u8g2\csrc/u8x8_d_uc1611.c **** 	u8x8_d_helper_display_init(u8x8);
 259              		.loc 1 216 0
 260 0016 2000     		movs	r0, r4
 261 0018 FFF7FEFF 		bl	u8x8_d_helper_display_init
 262              	.LVL38:
 217:..\..\u8g2\csrc/u8x8_d_uc1611.c **** 	u8x8_cad_SendSequence(u8x8, u8x8_d_uc1611_ea_dogm240_init_seq);
 263              		.loc 1 217 0
 264 001c 0649     		ldr	r1, .L25
 265 001e 2000     		movs	r0, r4
 266 0020 3031     		adds	r1, r1, #48
 267 0022 FFF7FEFF 		bl	u8x8_cad_SendSequence
 268              	.LVL39:
 269 0026 04E0     		b	.L24
 270              	.L22:
 213:..\..\u8g2\csrc/u8x8_d_uc1611.c **** 	break;
 271              		.loc 1 213 0
 272 0028 0349     		ldr	r1, .L25
 273 002a 2000     		movs	r0, r4
 274 002c 1831     		adds	r1, r1, #24
 275 002e FFF7FEFF 		bl	u8x8_d_helper_display_setup_memory
 276              	.LVL40:
 277              	.L24:
 218:..\..\u8g2\csrc/u8x8_d_uc1611.c **** 	break;
 219:..\..\u8g2\csrc/u8x8_d_uc1611.c ****       default:
 220:..\..\u8g2\csrc/u8x8_d_uc1611.c **** 	return 0;		/* msg unknown */
ARM GAS  C:\Users\Alan\AppData\Local\Temp\ccOeIAXh.s 			page 10


 221:..\..\u8g2\csrc/u8x8_d_uc1611.c ****     }
 222:..\..\u8g2\csrc/u8x8_d_uc1611.c ****   }
 223:..\..\u8g2\csrc/u8x8_d_uc1611.c ****   return 1;
 278              		.loc 1 223 0
 279 0032 0120     		movs	r0, #1
 280              	.L21:
 224:..\..\u8g2\csrc/u8x8_d_uc1611.c **** }
 281              		.loc 1 224 0
 282              		@ sp needed
 283              	.LVL41:
 284 0034 70BD     		pop	{r4, r5, r6, pc}
 285              	.L26:
 286 0036 C046     		.align	2
 287              	.L25:
 288 0038 00000000 		.word	.LANCHOR0
 289              		.cfi_endproc
 290              	.LFE1:
 291              		.size	u8x8_d_uc1611_ea_dogm240, .-u8x8_d_uc1611_ea_dogm240
 292              		.section	.text.u8x8_d_uc1611_ea_dogxl240,"ax",%progbits
 293              		.align	1
 294              		.global	u8x8_d_uc1611_ea_dogxl240
 295              		.code	16
 296              		.thumb_func
 297              		.type	u8x8_d_uc1611_ea_dogxl240, %function
 298              	u8x8_d_uc1611_ea_dogxl240:
 299              	.LFB2:
 225:..\..\u8g2\csrc/u8x8_d_uc1611.c **** 
 226:..\..\u8g2\csrc/u8x8_d_uc1611.c **** /*================================================*/
 227:..\..\u8g2\csrc/u8x8_d_uc1611.c **** /* EA DOGXL240 */
 228:..\..\u8g2\csrc/u8x8_d_uc1611.c **** 
 229:..\..\u8g2\csrc/u8x8_d_uc1611.c **** static const uint8_t u8x8_d_uc1611_ea_dogxl240_init_seq[] = {
 230:..\..\u8g2\csrc/u8x8_d_uc1611.c ****     
 231:..\..\u8g2\csrc/u8x8_d_uc1611.c ****   U8X8_START_TRANSFER(),             	/* enable chip, delay is part of the transfer start */
 232:..\..\u8g2\csrc/u8x8_d_uc1611.c ****   U8X8_C(0x02f),            			/* internal pump control */
 233:..\..\u8g2\csrc/u8x8_d_uc1611.c ****   U8X8_CA(0x0f1, 0x07f),			/* set COM end */
 234:..\..\u8g2\csrc/u8x8_d_uc1611.c ****   U8X8_CA(0x0f2, 0x000),		/* display line start */
 235:..\..\u8g2\csrc/u8x8_d_uc1611.c ****   U8X8_CA(0x0f3, 127),		/* display line end */
 236:..\..\u8g2\csrc/u8x8_d_uc1611.c ****   U8X8_C(0x0a3),            			/* line rate */
 237:..\..\u8g2\csrc/u8x8_d_uc1611.c ****   U8X8_CA(0x081, 0x08f),		/* set contrast */
 238:..\..\u8g2\csrc/u8x8_d_uc1611.c ****   
 239:..\..\u8g2\csrc/u8x8_d_uc1611.c ****   //U8X8_C(0x0a9),            			/* display enable */
 240:..\..\u8g2\csrc/u8x8_d_uc1611.c **** 
 241:..\..\u8g2\csrc/u8x8_d_uc1611.c ****   U8X8_C(0x0d1),            			/* display pattern */  
 242:..\..\u8g2\csrc/u8x8_d_uc1611.c ****   U8X8_C(0x089),            			/* auto increment */
 243:..\..\u8g2\csrc/u8x8_d_uc1611.c ****   U8X8_CA(0x0c0, 0x004),            	/* LCD Mapping */
 244:..\..\u8g2\csrc/u8x8_d_uc1611.c ****   U8X8_C(0x000),		                /* column low nibble */
 245:..\..\u8g2\csrc/u8x8_d_uc1611.c ****   U8X8_C(0x010),		                /* column high nibble */  
 246:..\..\u8g2\csrc/u8x8_d_uc1611.c ****   U8X8_C(0x060),		                /* page adr low */
 247:..\..\u8g2\csrc/u8x8_d_uc1611.c ****   U8X8_C(0x070),		                /* page adr high */
 248:..\..\u8g2\csrc/u8x8_d_uc1611.c ****   
 249:..\..\u8g2\csrc/u8x8_d_uc1611.c ****   
 250:..\..\u8g2\csrc/u8x8_d_uc1611.c ****   U8X8_END_TRANSFER(),             	/* disable chip */
 251:..\..\u8g2\csrc/u8x8_d_uc1611.c ****   U8X8_END()             			/* end of sequence */
 252:..\..\u8g2\csrc/u8x8_d_uc1611.c **** };
 253:..\..\u8g2\csrc/u8x8_d_uc1611.c **** 
 254:..\..\u8g2\csrc/u8x8_d_uc1611.c **** static const u8x8_display_info_t u8x8_uc1611_240x128_display_info =
 255:..\..\u8g2\csrc/u8x8_d_uc1611.c **** {
ARM GAS  C:\Users\Alan\AppData\Local\Temp\ccOeIAXh.s 			page 11


 256:..\..\u8g2\csrc/u8x8_d_uc1611.c ****   /* chip_enable_level = */ 0,
 257:..\..\u8g2\csrc/u8x8_d_uc1611.c ****   /* chip_disable_level = */ 1,
 258:..\..\u8g2\csrc/u8x8_d_uc1611.c ****   
 259:..\..\u8g2\csrc/u8x8_d_uc1611.c ****   /* post_chip_enable_wait_ns = */ 10,	/* uc1611 datasheet, page 60, actually 0 */
 260:..\..\u8g2\csrc/u8x8_d_uc1611.c ****   /* pre_chip_disable_wait_ns = */ 10,	/* uc1611 datasheet, page 60, actually 0 */
 261:..\..\u8g2\csrc/u8x8_d_uc1611.c ****   /* reset_pulse_width_ms = */ 1, 
 262:..\..\u8g2\csrc/u8x8_d_uc1611.c ****   /* post_reset_wait_ms = */ 10, 	/* uc1611 datasheet, page 67 */
 263:..\..\u8g2\csrc/u8x8_d_uc1611.c ****   /* sda_setup_time_ns = */ 10,		/* uc1611 datasheet, page 64, actually 0 */
 264:..\..\u8g2\csrc/u8x8_d_uc1611.c ****   /* sck_pulse_width_ns = */ 60,	/* half of cycle time  */
 265:..\..\u8g2\csrc/u8x8_d_uc1611.c ****   /* sck_clock_hz = */ 8000000UL,	/* since Arduino 1.6.0, the SPI bus speed in Hz. Should be  10000
 266:..\..\u8g2\csrc/u8x8_d_uc1611.c ****   /* spi_mode = */ 0,		/* active high, rising edge */
 267:..\..\u8g2\csrc/u8x8_d_uc1611.c ****   /* i2c_bus_clock_100kHz = */ 4,
 268:..\..\u8g2\csrc/u8x8_d_uc1611.c ****   /* data_setup_time_ns = */ 30,	/* uc1611 datasheet, page 60 */
 269:..\..\u8g2\csrc/u8x8_d_uc1611.c ****   /* write_pulse_width_ns = */ 80,	/* uc1611 datasheet, page 60 */
 270:..\..\u8g2\csrc/u8x8_d_uc1611.c ****   /* tile_width = */ 30,		/* width of 30*8=240 pixel */
 271:..\..\u8g2\csrc/u8x8_d_uc1611.c ****   /* tile_hight = */ 16,
 272:..\..\u8g2\csrc/u8x8_d_uc1611.c ****   /* default_x_offset = */ 0,
 273:..\..\u8g2\csrc/u8x8_d_uc1611.c ****   /* flipmode_x_offset = */ 0,
 274:..\..\u8g2\csrc/u8x8_d_uc1611.c ****   /* pixel_width = */ 240,
 275:..\..\u8g2\csrc/u8x8_d_uc1611.c ****   /* pixel_height = */ 128
 276:..\..\u8g2\csrc/u8x8_d_uc1611.c **** };
 277:..\..\u8g2\csrc/u8x8_d_uc1611.c **** 
 278:..\..\u8g2\csrc/u8x8_d_uc1611.c **** uint8_t u8x8_d_uc1611_ea_dogxl240(u8x8_t *u8x8, uint8_t msg, uint8_t arg_int, void *arg_ptr)
 279:..\..\u8g2\csrc/u8x8_d_uc1611.c **** {
 300              		.loc 1 279 0
 301              		.cfi_startproc
 302              		@ args = 0, pretend = 0, frame = 0
 303              		@ frame_needed = 0, uses_anonymous_args = 0
 304              	.LVL42:
 305 0000 70B5     		push	{r4, r5, r6, lr}
 306              		.cfi_def_cfa_offset 16
 307              		.cfi_offset 4, -16
 308              		.cfi_offset 5, -12
 309              		.cfi_offset 6, -8
 310              		.cfi_offset 14, -4
 311              		.loc 1 279 0
 312 0002 0400     		movs	r4, r0
 313 0004 0D00     		movs	r5, r1
 280:..\..\u8g2\csrc/u8x8_d_uc1611.c ****   /* call common procedure first and handle messages there */
 281:..\..\u8g2\csrc/u8x8_d_uc1611.c ****   if ( u8x8_d_uc1611_common(u8x8, msg, arg_int, arg_ptr) == 0 )
 314              		.loc 1 281 0
 315 0006 FFF7FEFF 		bl	u8x8_d_uc1611_common
 316              	.LVL43:
 317 000a 0028     		cmp	r0, #0
 318 000c 11D1     		bne	.L31
 282:..\..\u8g2\csrc/u8x8_d_uc1611.c ****   {
 283:..\..\u8g2\csrc/u8x8_d_uc1611.c ****     /* msg not handled, then try here */
 284:..\..\u8g2\csrc/u8x8_d_uc1611.c ****     switch(msg)
 319              		.loc 1 284 0
 320 000e 092D     		cmp	r5, #9
 321 0010 0AD0     		beq	.L29
 322 0012 0A2D     		cmp	r5, #10
 323 0014 0ED1     		bne	.L28
 285:..\..\u8g2\csrc/u8x8_d_uc1611.c ****     {
 286:..\..\u8g2\csrc/u8x8_d_uc1611.c ****       case U8X8_MSG_DISPLAY_SETUP_MEMORY:
 287:..\..\u8g2\csrc/u8x8_d_uc1611.c **** 	u8x8_d_helper_display_setup_memory(u8x8, &u8x8_uc1611_240x128_display_info);
 288:..\..\u8g2\csrc/u8x8_d_uc1611.c **** 	break;
ARM GAS  C:\Users\Alan\AppData\Local\Temp\ccOeIAXh.s 			page 12


 289:..\..\u8g2\csrc/u8x8_d_uc1611.c ****       case U8X8_MSG_DISPLAY_INIT:
 290:..\..\u8g2\csrc/u8x8_d_uc1611.c **** 	u8x8_d_helper_display_init(u8x8);
 324              		.loc 1 290 0
 325 0016 2000     		movs	r0, r4
 326 0018 FFF7FEFF 		bl	u8x8_d_helper_display_init
 327              	.LVL44:
 291:..\..\u8g2\csrc/u8x8_d_uc1611.c **** 	u8x8_cad_SendSequence(u8x8, u8x8_d_uc1611_ea_dogxl240_init_seq);
 328              		.loc 1 291 0
 329 001c 0649     		ldr	r1, .L32
 330 001e 2000     		movs	r0, r4
 331 0020 7031     		adds	r1, r1, #112
 332 0022 FFF7FEFF 		bl	u8x8_cad_SendSequence
 333              	.LVL45:
 334 0026 04E0     		b	.L31
 335              	.L29:
 287:..\..\u8g2\csrc/u8x8_d_uc1611.c **** 	break;
 336              		.loc 1 287 0
 337 0028 0349     		ldr	r1, .L32
 338 002a 2000     		movs	r0, r4
 339 002c 5831     		adds	r1, r1, #88
 340 002e FFF7FEFF 		bl	u8x8_d_helper_display_setup_memory
 341              	.LVL46:
 342              	.L31:
 292:..\..\u8g2\csrc/u8x8_d_uc1611.c **** 	break;
 293:..\..\u8g2\csrc/u8x8_d_uc1611.c ****       default:
 294:..\..\u8g2\csrc/u8x8_d_uc1611.c **** 	return 0;		/* msg unknown */
 295:..\..\u8g2\csrc/u8x8_d_uc1611.c ****     }
 296:..\..\u8g2\csrc/u8x8_d_uc1611.c ****   }
 297:..\..\u8g2\csrc/u8x8_d_uc1611.c ****   return 1;
 343              		.loc 1 297 0
 344 0032 0120     		movs	r0, #1
 345              	.L28:
 298:..\..\u8g2\csrc/u8x8_d_uc1611.c **** }
 346              		.loc 1 298 0
 347              		@ sp needed
 348              	.LVL47:
 349 0034 70BD     		pop	{r4, r5, r6, pc}
 350              	.L33:
 351 0036 C046     		.align	2
 352              	.L32:
 353 0038 00000000 		.word	.LANCHOR0
 354              		.cfi_endproc
 355              	.LFE2:
 356              		.size	u8x8_d_uc1611_ea_dogxl240, .-u8x8_d_uc1611_ea_dogxl240
 357              		.section	.rodata
 358              		.align	2
 359              		.set	.LANCHOR0,. + 0
 360              		.type	u8x8_d_uc1611_powersave0_seq, %object
 361              		.size	u8x8_d_uc1611_powersave0_seq, 5
 362              	u8x8_d_uc1611_powersave0_seq:
 363 0000 18       		.byte	24
 364 0001 15       		.byte	21
 365 0002 A9       		.byte	-87
 366 0003 19       		.byte	25
 367 0004 FF       		.byte	-1
 368              		.type	u8x8_d_uc1611_powersave1_seq, %object
 369              		.size	u8x8_d_uc1611_powersave1_seq, 5
ARM GAS  C:\Users\Alan\AppData\Local\Temp\ccOeIAXh.s 			page 13


 370              	u8x8_d_uc1611_powersave1_seq:
 371 0005 18       		.byte	24
 372 0006 15       		.byte	21
 373 0007 A8       		.byte	-88
 374 0008 19       		.byte	25
 375 0009 FF       		.byte	-1
 376              		.type	u8x8_d_uc1611_flip0_seq, %object
 377              		.size	u8x8_d_uc1611_flip0_seq, 7
 378              	u8x8_d_uc1611_flip0_seq:
 379 000a 18       		.byte	24
 380 000b 15       		.byte	21
 381 000c C0       		.byte	-64
 382 000d 16       		.byte	22
 383 000e 04       		.byte	4
 384 000f 19       		.byte	25
 385 0010 FF       		.byte	-1
 386              		.type	u8x8_d_uc1611_flip1_seq, %object
 387              		.size	u8x8_d_uc1611_flip1_seq, 7
 388              	u8x8_d_uc1611_flip1_seq:
 389 0011 18       		.byte	24
 390 0012 15       		.byte	21
 391 0013 C0       		.byte	-64
 392 0014 16       		.byte	22
 393 0015 02       		.byte	2
 394 0016 19       		.byte	25
 395 0017 FF       		.byte	-1
 396              		.type	u8x8_uc1611_240x64_display_info, %object
 397              		.size	u8x8_uc1611_240x64_display_info, 24
 398              	u8x8_uc1611_240x64_display_info:
 399 0018 00       		.byte	0
 400 0019 01       		.byte	1
 401 001a 0A       		.byte	10
 402 001b 0A       		.byte	10
 403 001c 01       		.byte	1
 404 001d 0A       		.byte	10
 405 001e 0A       		.byte	10
 406 001f 3C       		.byte	60
 407 0020 00127A00 		.word	8000000
 408 0024 00       		.byte	0
 409 0025 04       		.byte	4
 410 0026 1E       		.byte	30
 411 0027 50       		.byte	80
 412 0028 1E       		.byte	30
 413 0029 08       		.byte	8
 414 002a 00       		.byte	0
 415 002b 00       		.byte	0
 416 002c F000     		.short	240
 417 002e 4000     		.short	64
 418              		.type	u8x8_d_uc1611_ea_dogm240_init_seq, %object
 419              		.size	u8x8_d_uc1611_ea_dogm240_init_seq, 39
 420              	u8x8_d_uc1611_ea_dogm240_init_seq:
 421 0030 18       		.byte	24
 422 0031 15       		.byte	21
 423 0032 2F       		.byte	47
 424 0033 15       		.byte	21
 425 0034 F1       		.byte	-15
 426 0035 16       		.byte	22
ARM GAS  C:\Users\Alan\AppData\Local\Temp\ccOeIAXh.s 			page 14


 427 0036 3F       		.byte	63
 428 0037 15       		.byte	21
 429 0038 F2       		.byte	-14
 430 0039 16       		.byte	22
 431 003a 00       		.byte	0
 432 003b 15       		.byte	21
 433 003c F3       		.byte	-13
 434 003d 16       		.byte	22
 435 003e 3F       		.byte	63
 436 003f 15       		.byte	21
 437 0040 A3       		.byte	-93
 438 0041 15       		.byte	21
 439 0042 81       		.byte	-127
 440 0043 16       		.byte	22
 441 0044 A4       		.byte	-92
 442 0045 15       		.byte	21
 443 0046 D1       		.byte	-47
 444 0047 15       		.byte	21
 445 0048 89       		.byte	-119
 446 0049 15       		.byte	21
 447 004a C0       		.byte	-64
 448 004b 16       		.byte	22
 449 004c 04       		.byte	4
 450 004d 15       		.byte	21
 451 004e 00       		.byte	0
 452 004f 15       		.byte	21
 453 0050 10       		.byte	16
 454 0051 15       		.byte	21
 455 0052 60       		.byte	96
 456 0053 15       		.byte	21
 457 0054 70       		.byte	112
 458 0055 19       		.byte	25
 459 0056 FF       		.byte	-1
 460 0057 00       		.space	1
 461              		.type	u8x8_uc1611_240x128_display_info, %object
 462              		.size	u8x8_uc1611_240x128_display_info, 24
 463              	u8x8_uc1611_240x128_display_info:
 464 0058 00       		.byte	0
 465 0059 01       		.byte	1
 466 005a 0A       		.byte	10
 467 005b 0A       		.byte	10
 468 005c 01       		.byte	1
 469 005d 0A       		.byte	10
 470 005e 0A       		.byte	10
 471 005f 3C       		.byte	60
 472 0060 00127A00 		.word	8000000
 473 0064 00       		.byte	0
 474 0065 04       		.byte	4
 475 0066 1E       		.byte	30
 476 0067 50       		.byte	80
 477 0068 1E       		.byte	30
 478 0069 10       		.byte	16
 479 006a 00       		.byte	0
 480 006b 00       		.byte	0
 481 006c F000     		.short	240
 482 006e 8000     		.short	128
 483              		.type	u8x8_d_uc1611_ea_dogxl240_init_seq, %object
ARM GAS  C:\Users\Alan\AppData\Local\Temp\ccOeIAXh.s 			page 15


 484              		.size	u8x8_d_uc1611_ea_dogxl240_init_seq, 39
 485              	u8x8_d_uc1611_ea_dogxl240_init_seq:
 486 0070 18       		.byte	24
 487 0071 15       		.byte	21
 488 0072 2F       		.byte	47
 489 0073 15       		.byte	21
 490 0074 F1       		.byte	-15
 491 0075 16       		.byte	22
 492 0076 7F       		.byte	127
 493 0077 15       		.byte	21
 494 0078 F2       		.byte	-14
 495 0079 16       		.byte	22
 496 007a 00       		.byte	0
 497 007b 15       		.byte	21
 498 007c F3       		.byte	-13
 499 007d 16       		.byte	22
 500 007e 7F       		.byte	127
 501 007f 15       		.byte	21
 502 0080 A3       		.byte	-93
 503 0081 15       		.byte	21
 504 0082 81       		.byte	-127
 505 0083 16       		.byte	22
 506 0084 8F       		.byte	-113
 507 0085 15       		.byte	21
 508 0086 D1       		.byte	-47
 509 0087 15       		.byte	21
 510 0088 89       		.byte	-119
 511 0089 15       		.byte	21
 512 008a C0       		.byte	-64
 513 008b 16       		.byte	22
 514 008c 04       		.byte	4
 515 008d 15       		.byte	21
 516 008e 00       		.byte	0
 517 008f 15       		.byte	21
 518 0090 10       		.byte	16
 519 0091 15       		.byte	21
 520 0092 60       		.byte	96
 521 0093 15       		.byte	21
 522 0094 70       		.byte	112
 523 0095 19       		.byte	25
 524 0096 FF       		.byte	-1
 525              		.text
 526              	.Letext0:
 527              		.file 2 "c:\\program files (x86)\\cypress\\psoc creator\\4.1\\psoc creator\\import\\gnu\\arm\\5.4.
 528              		.file 3 "c:\\program files (x86)\\cypress\\psoc creator\\4.1\\psoc creator\\import\\gnu\\arm\\5.4.
 529              		.file 4 "..\\..\\u8g2\\csrc\\u8x8.h"