ARM GAS  C:\Users\Greg\AppData\Local\Temp\ccjhIltC.s 			page 1


   1              		.syntax unified
   2              		.cpu cortex-m0
   3              		.fpu softvfp
   4              		.eabi_attribute 20, 1
   5              		.eabi_attribute 21, 1
   6              		.eabi_attribute 23, 3
   7              		.eabi_attribute 24, 1
   8              		.eabi_attribute 25, 1
   9              		.eabi_attribute 26, 1
  10              		.eabi_attribute 30, 4
  11              		.eabi_attribute 34, 0
  12              		.eabi_attribute 18, 4
  13              		.thumb
  14              		.syntax unified
  15              		.file	"u8x8_selection_list.c"
  16              		.text
  17              	.Ltext0:
  18              		.cfi_sections	.debug_frame
  19              		.section	.text.u8x8_sl_string_line_cb,"ax",%progbits
  20              		.align	1
  21              		.global	u8x8_sl_string_line_cb
  22              		.code	16
  23              		.thumb_func
  24              		.type	u8x8_sl_string_line_cb, %function
  25              	u8x8_sl_string_line_cb:
  26              	.LFB3:
  27              		.file 1 "..\\..\\u8g2\\csrc\\u8x8_selection_list.c"
   1:..\..\u8g2\csrc/u8x8_selection_list.c **** /*
   2:..\..\u8g2\csrc/u8x8_selection_list.c **** 
   3:..\..\u8g2\csrc/u8x8_selection_list.c ****   u8x8_selection_list.c
   4:..\..\u8g2\csrc/u8x8_selection_list.c ****   
   5:..\..\u8g2\csrc/u8x8_selection_list.c ****   selection list with scroll option
   6:..\..\u8g2\csrc/u8x8_selection_list.c ****   
   7:..\..\u8g2\csrc/u8x8_selection_list.c ****   Universal 8bit Graphics Library (https://github.com/olikraus/u8g2/)
   8:..\..\u8g2\csrc/u8x8_selection_list.c **** 
   9:..\..\u8g2\csrc/u8x8_selection_list.c ****   Copyright (c) 2016, olikraus@gmail.com
  10:..\..\u8g2\csrc/u8x8_selection_list.c ****   All rights reserved.
  11:..\..\u8g2\csrc/u8x8_selection_list.c **** 
  12:..\..\u8g2\csrc/u8x8_selection_list.c ****   Redistribution and use in source and binary forms, with or without modification, 
  13:..\..\u8g2\csrc/u8x8_selection_list.c ****   are permitted provided that the following conditions are met:
  14:..\..\u8g2\csrc/u8x8_selection_list.c **** 
  15:..\..\u8g2\csrc/u8x8_selection_list.c ****   * Redistributions of source code must retain the above copyright notice, this list 
  16:..\..\u8g2\csrc/u8x8_selection_list.c ****     of conditions and the following disclaimer.
  17:..\..\u8g2\csrc/u8x8_selection_list.c ****     
  18:..\..\u8g2\csrc/u8x8_selection_list.c ****   * Redistributions in binary form must reproduce the above copyright notice, this 
  19:..\..\u8g2\csrc/u8x8_selection_list.c ****     list of conditions and the following disclaimer in the documentation and/or other 
  20:..\..\u8g2\csrc/u8x8_selection_list.c ****     materials provided with the distribution.
  21:..\..\u8g2\csrc/u8x8_selection_list.c **** 
  22:..\..\u8g2\csrc/u8x8_selection_list.c ****   THIS SOFTWARE IS PROVIDED BY THE COPYRIGHT HOLDERS AND 
  23:..\..\u8g2\csrc/u8x8_selection_list.c ****   CONTRIBUTORS "AS IS" AND ANY EXPRESS OR IMPLIED WARRANTIES, 
  24:..\..\u8g2\csrc/u8x8_selection_list.c ****   INCLUDING, BUT NOT LIMITED TO, THE IMPLIED WARRANTIES OF 
  25:..\..\u8g2\csrc/u8x8_selection_list.c ****   MERCHANTABILITY AND FITNESS FOR A PARTICULAR PURPOSE ARE 
  26:..\..\u8g2\csrc/u8x8_selection_list.c ****   DISCLAIMED. IN NO EVENT SHALL THE COPYRIGHT HOLDER OR 
  27:..\..\u8g2\csrc/u8x8_selection_list.c ****   CONTRIBUTORS BE LIABLE FOR ANY DIRECT, INDIRECT, INCIDENTAL, 
  28:..\..\u8g2\csrc/u8x8_selection_list.c ****   SPECIAL, EXEMPLARY, OR CONSEQUENTIAL DAMAGES (INCLUDING, BUT 
  29:..\..\u8g2\csrc/u8x8_selection_list.c ****   NOT LIMITED TO, PROCUREMENT OF SUBSTITUTE GOODS OR SERVICES; 
  30:..\..\u8g2\csrc/u8x8_selection_list.c ****   LOSS OF USE, DATA, OR PROFITS; OR BUSINESS INTERRUPTION) HOWEVER 
ARM GAS  C:\Users\Greg\AppData\Local\Temp\ccjhIltC.s 			page 2


  31:..\..\u8g2\csrc/u8x8_selection_list.c ****   CAUSED AND ON ANY THEORY OF LIABILITY, WHETHER IN CONTRACT, 
  32:..\..\u8g2\csrc/u8x8_selection_list.c ****   STRICT LIABILITY, OR TORT (INCLUDING NEGLIGENCE OR OTHERWISE) 
  33:..\..\u8g2\csrc/u8x8_selection_list.c ****   ARISING IN ANY WAY OUT OF THE USE OF THIS SOFTWARE, EVEN IF 
  34:..\..\u8g2\csrc/u8x8_selection_list.c ****   ADVISED OF THE POSSIBILITY OF SUCH DAMAGE.  
  35:..\..\u8g2\csrc/u8x8_selection_list.c ****   
  36:..\..\u8g2\csrc/u8x8_selection_list.c **** */
  37:..\..\u8g2\csrc/u8x8_selection_list.c **** 
  38:..\..\u8g2\csrc/u8x8_selection_list.c **** #include "u8x8.h"
  39:..\..\u8g2\csrc/u8x8_selection_list.c **** 
  40:..\..\u8g2\csrc/u8x8_selection_list.c **** /*
  41:..\..\u8g2\csrc/u8x8_selection_list.c ****   increase the cursor position
  42:..\..\u8g2\csrc/u8x8_selection_list.c **** */
  43:..\..\u8g2\csrc/u8x8_selection_list.c **** void u8sl_Next(u8sl_t *u8sl)
  44:..\..\u8g2\csrc/u8x8_selection_list.c **** {
  45:..\..\u8g2\csrc/u8x8_selection_list.c ****   u8sl->current_pos++;
  46:..\..\u8g2\csrc/u8x8_selection_list.c ****   if ( u8sl->current_pos >= u8sl->total )
  47:..\..\u8g2\csrc/u8x8_selection_list.c ****   {
  48:..\..\u8g2\csrc/u8x8_selection_list.c ****     u8sl->current_pos = 0;
  49:..\..\u8g2\csrc/u8x8_selection_list.c ****     u8sl->first_pos = 0;
  50:..\..\u8g2\csrc/u8x8_selection_list.c ****   }
  51:..\..\u8g2\csrc/u8x8_selection_list.c ****   else
  52:..\..\u8g2\csrc/u8x8_selection_list.c ****   {
  53:..\..\u8g2\csrc/u8x8_selection_list.c ****     if ( u8sl->first_pos + u8sl->visible <= u8sl->current_pos + 1 )
  54:..\..\u8g2\csrc/u8x8_selection_list.c ****     {
  55:..\..\u8g2\csrc/u8x8_selection_list.c ****       u8sl->first_pos = u8sl->current_pos - u8sl->visible + 1;
  56:..\..\u8g2\csrc/u8x8_selection_list.c ****     }
  57:..\..\u8g2\csrc/u8x8_selection_list.c ****   }
  58:..\..\u8g2\csrc/u8x8_selection_list.c **** }
  59:..\..\u8g2\csrc/u8x8_selection_list.c **** 
  60:..\..\u8g2\csrc/u8x8_selection_list.c **** void u8sl_Prev(u8sl_t *u8sl)
  61:..\..\u8g2\csrc/u8x8_selection_list.c **** {
  62:..\..\u8g2\csrc/u8x8_selection_list.c ****   if ( u8sl->current_pos == 0 )
  63:..\..\u8g2\csrc/u8x8_selection_list.c ****   {
  64:..\..\u8g2\csrc/u8x8_selection_list.c ****     u8sl->current_pos = u8sl->total - 1;
  65:..\..\u8g2\csrc/u8x8_selection_list.c ****     u8sl->first_pos = 0;
  66:..\..\u8g2\csrc/u8x8_selection_list.c ****     if ( u8sl->total > u8sl->visible )
  67:..\..\u8g2\csrc/u8x8_selection_list.c ****       u8sl->first_pos = u8sl->total - u8sl->visible;
  68:..\..\u8g2\csrc/u8x8_selection_list.c ****   }
  69:..\..\u8g2\csrc/u8x8_selection_list.c ****   else
  70:..\..\u8g2\csrc/u8x8_selection_list.c ****   {
  71:..\..\u8g2\csrc/u8x8_selection_list.c ****     u8sl->current_pos--;
  72:..\..\u8g2\csrc/u8x8_selection_list.c ****     if ( u8sl->first_pos > u8sl->current_pos )
  73:..\..\u8g2\csrc/u8x8_selection_list.c ****       u8sl->first_pos = u8sl->current_pos;
  74:..\..\u8g2\csrc/u8x8_selection_list.c ****   }
  75:..\..\u8g2\csrc/u8x8_selection_list.c **** }
  76:..\..\u8g2\csrc/u8x8_selection_list.c **** 
  77:..\..\u8g2\csrc/u8x8_selection_list.c **** void u8x8_DrawSelectionList(u8x8_t *u8x8, u8sl_t *u8sl, u8x8_sl_cb sl_cb, const void *aux)
  78:..\..\u8g2\csrc/u8x8_selection_list.c **** {
  79:..\..\u8g2\csrc/u8x8_selection_list.c ****   uint8_t i;
  80:..\..\u8g2\csrc/u8x8_selection_list.c ****   for( i = 0; i < u8sl->visible; i++ )
  81:..\..\u8g2\csrc/u8x8_selection_list.c ****   {
  82:..\..\u8g2\csrc/u8x8_selection_list.c ****     sl_cb(u8x8, u8sl, i+u8sl->first_pos, aux);
  83:..\..\u8g2\csrc/u8x8_selection_list.c ****   }
  84:..\..\u8g2\csrc/u8x8_selection_list.c **** }
  85:..\..\u8g2\csrc/u8x8_selection_list.c **** 
  86:..\..\u8g2\csrc/u8x8_selection_list.c **** /* selection list with string line */
  87:..\..\u8g2\csrc/u8x8_selection_list.c **** void u8x8_sl_string_line_cb(u8x8_t *u8x8, u8sl_t *u8sl, uint8_t idx, const void *aux)
ARM GAS  C:\Users\Greg\AppData\Local\Temp\ccjhIltC.s 			page 3


  88:..\..\u8g2\csrc/u8x8_selection_list.c **** {
  28              		.loc 1 88 0
  29              		.cfi_startproc
  30              		@ args = 0, pretend = 0, frame = 0
  31              		@ frame_needed = 0, uses_anonymous_args = 0
  32              	.LVL0:
  33 0000 73B5     		push	{r0, r1, r4, r5, r6, lr}
  34              		.cfi_def_cfa_offset 24
  35              		.cfi_offset 0, -24
  36              		.cfi_offset 1, -20
  37              		.cfi_offset 4, -16
  38              		.cfi_offset 5, -12
  39              		.cfi_offset 6, -8
  40              		.cfi_offset 14, -4
  41              		.loc 1 88 0
  42 0002 0E00     		movs	r6, r1
  43 0004 4C79     		ldrb	r4, [r1, #5]
  44 0006 8978     		ldrb	r1, [r1, #2]
  45              	.LVL1:
  46 0008 0500     		movs	r5, r0
  47 000a 641A     		subs	r4, r4, r1
  89:..\..\u8g2\csrc/u8x8_selection_list.c ****   const char *s;
  90:..\..\u8g2\csrc/u8x8_selection_list.c ****   uint8_t row;
  91:..\..\u8g2\csrc/u8x8_selection_list.c ****   /* calculate offset from display upper border */
  92:..\..\u8g2\csrc/u8x8_selection_list.c ****   row = u8sl->y;
  93:..\..\u8g2\csrc/u8x8_selection_list.c ****   
  94:..\..\u8g2\csrc/u8x8_selection_list.c ****   /* calculate target pos */
  95:..\..\u8g2\csrc/u8x8_selection_list.c ****   row += idx;
  96:..\..\u8g2\csrc/u8x8_selection_list.c ****   row -= u8sl->first_pos;
  97:..\..\u8g2\csrc/u8x8_selection_list.c ****   
  98:..\..\u8g2\csrc/u8x8_selection_list.c ****   /* check whether this is the current cursor line */
  99:..\..\u8g2\csrc/u8x8_selection_list.c ****   if ( idx == u8sl->current_pos )
  48              		.loc 1 99 0
  49 000c F178     		ldrb	r1, [r6, #3]
  96:..\..\u8g2\csrc/u8x8_selection_list.c ****   
  50              		.loc 1 96 0
  51 000e A418     		adds	r4, r4, r2
  52 0010 E4B2     		uxtb	r4, r4
  53              	.LVL2:
  54              		.loc 1 99 0
  55 0012 9142     		cmp	r1, r2
  56 0014 01D1     		bne	.L2
 100:..\..\u8g2\csrc/u8x8_selection_list.c ****     u8x8_SetInverseFont(u8x8, 1);
  57              		.loc 1 100 0
  58 0016 0121     		movs	r1, #1
  59 0018 00E0     		b	.L5
  60              	.L2:
 101:..\..\u8g2\csrc/u8x8_selection_list.c ****   else
 102:..\..\u8g2\csrc/u8x8_selection_list.c ****     u8x8_SetInverseFont(u8x8, 0);
  61              		.loc 1 102 0
  62 001a 0021     		movs	r1, #0
  63              	.L5:
  64 001c E977     		strb	r1, [r5, #31]
 103:..\..\u8g2\csrc/u8x8_selection_list.c ****   
 104:..\..\u8g2\csrc/u8x8_selection_list.c ****   /* get the line from the array */
 105:..\..\u8g2\csrc/u8x8_selection_list.c ****   s = u8x8_GetStringLineStart(idx, (const char *)aux);
  65              		.loc 1 105 0
ARM GAS  C:\Users\Greg\AppData\Local\Temp\ccjhIltC.s 			page 4


  66 001e 1000     		movs	r0, r2
  67              	.LVL3:
  68 0020 1900     		movs	r1, r3
  69 0022 FFF7FEFF 		bl	u8x8_GetStringLineStart
  70              	.LVL4:
 106:..\..\u8g2\csrc/u8x8_selection_list.c ****   
 107:..\..\u8g2\csrc/u8x8_selection_list.c ****   /* draw the line */
 108:..\..\u8g2\csrc/u8x8_selection_list.c ****   if ( s == NULL )
  71              		.loc 1 108 0
  72 0026 0028     		cmp	r0, #0
  73 0028 00D1     		bne	.L4
 109:..\..\u8g2\csrc/u8x8_selection_list.c ****     s = "";
  74              		.loc 1 109 0
  75 002a 0648     		ldr	r0, .L7
  76              	.LVL5:
  77              	.L4:
 110:..\..\u8g2\csrc/u8x8_selection_list.c ****   u8x8_DrawUTF8Line(u8x8, u8sl->x, row, u8x8_GetCols(u8x8), s);  
  78              		.loc 1 110 0
  79 002c 2B68     		ldr	r3, [r5]
  80 002e 3179     		ldrb	r1, [r6, #4]
  81 0030 1B7C     		ldrb	r3, [r3, #16]
  82 0032 2200     		movs	r2, r4
  83 0034 0090     		str	r0, [sp]
  84 0036 2800     		movs	r0, r5
  85              	.LVL6:
  86 0038 FFF7FEFF 		bl	u8x8_DrawUTF8Line
  87              	.LVL7:
 111:..\..\u8g2\csrc/u8x8_selection_list.c ****   u8x8_SetInverseFont(u8x8, 0);
  88              		.loc 1 111 0
  89 003c 0023     		movs	r3, #0
 112:..\..\u8g2\csrc/u8x8_selection_list.c **** }
  90              		.loc 1 112 0
  91              		@ sp needed
 111:..\..\u8g2\csrc/u8x8_selection_list.c ****   u8x8_SetInverseFont(u8x8, 0);
  92              		.loc 1 111 0
  93 003e EB77     		strb	r3, [r5, #31]
  94              	.LVL8:
  95              	.LVL9:
  96              	.LVL10:
  97              		.loc 1 112 0
  98 0040 73BD     		pop	{r0, r1, r4, r5, r6, pc}
  99              	.L8:
 100 0042 C046     		.align	2
 101              	.L7:
 102 0044 00000000 		.word	.LC0
 103              		.cfi_endproc
 104              	.LFE3:
 105              		.size	u8x8_sl_string_line_cb, .-u8x8_sl_string_line_cb
 106              		.section	.text.u8sl_Next,"ax",%progbits
 107              		.align	1
 108              		.global	u8sl_Next
 109              		.code	16
 110              		.thumb_func
 111              		.type	u8sl_Next, %function
 112              	u8sl_Next:
 113              	.LFB0:
  44:..\..\u8g2\csrc/u8x8_selection_list.c ****   u8sl->current_pos++;
ARM GAS  C:\Users\Greg\AppData\Local\Temp\ccjhIltC.s 			page 5


 114              		.loc 1 44 0
 115              		.cfi_startproc
 116              		@ args = 0, pretend = 0, frame = 0
 117              		@ frame_needed = 0, uses_anonymous_args = 0
 118              	.LVL11:
  45:..\..\u8g2\csrc/u8x8_selection_list.c ****   if ( u8sl->current_pos >= u8sl->total )
 119              		.loc 1 45 0
 120 0000 C378     		ldrb	r3, [r0, #3]
  46:..\..\u8g2\csrc/u8x8_selection_list.c ****   {
 121              		.loc 1 46 0
 122 0002 4278     		ldrb	r2, [r0, #1]
  45:..\..\u8g2\csrc/u8x8_selection_list.c ****   if ( u8sl->current_pos >= u8sl->total )
 123              		.loc 1 45 0
 124 0004 0133     		adds	r3, r3, #1
 125 0006 DBB2     		uxtb	r3, r3
  44:..\..\u8g2\csrc/u8x8_selection_list.c ****   u8sl->current_pos++;
 126              		.loc 1 44 0
 127 0008 10B5     		push	{r4, lr}
 128              		.cfi_def_cfa_offset 8
 129              		.cfi_offset 4, -8
 130              		.cfi_offset 14, -4
  45:..\..\u8g2\csrc/u8x8_selection_list.c ****   if ( u8sl->current_pos >= u8sl->total )
 131              		.loc 1 45 0
 132 000a C370     		strb	r3, [r0, #3]
  46:..\..\u8g2\csrc/u8x8_selection_list.c ****   {
 133              		.loc 1 46 0
 134 000c 9A42     		cmp	r2, r3
 135 000e 02D8     		bhi	.L10
  48:..\..\u8g2\csrc/u8x8_selection_list.c ****     u8sl->first_pos = 0;
 136              		.loc 1 48 0
 137 0010 0023     		movs	r3, #0
 138 0012 C370     		strb	r3, [r0, #3]
 139 0014 07E0     		b	.L12
 140              	.L10:
  53:..\..\u8g2\csrc/u8x8_selection_list.c ****     {
 141              		.loc 1 53 0
 142 0016 0178     		ldrb	r1, [r0]
 143 0018 8278     		ldrb	r2, [r0, #2]
 144 001a 5C1C     		adds	r4, r3, #1
 145 001c 5218     		adds	r2, r2, r1
 146 001e A242     		cmp	r2, r4
 147 0020 02DC     		bgt	.L9
  55:..\..\u8g2\csrc/u8x8_selection_list.c ****     }
 148              		.loc 1 55 0
 149 0022 5B1A     		subs	r3, r3, r1
 150 0024 0133     		adds	r3, r3, #1
 151              	.L12:
 152 0026 8370     		strb	r3, [r0, #2]
 153              	.L9:
  58:..\..\u8g2\csrc/u8x8_selection_list.c **** 
 154              		.loc 1 58 0
 155              		@ sp needed
 156 0028 10BD     		pop	{r4, pc}
 157              		.cfi_endproc
 158              	.LFE0:
 159              		.size	u8sl_Next, .-u8sl_Next
 160              		.section	.text.u8sl_Prev,"ax",%progbits
ARM GAS  C:\Users\Greg\AppData\Local\Temp\ccjhIltC.s 			page 6


 161              		.align	1
 162              		.global	u8sl_Prev
 163              		.code	16
 164              		.thumb_func
 165              		.type	u8sl_Prev, %function
 166              	u8sl_Prev:
 167              	.LFB1:
  61:..\..\u8g2\csrc/u8x8_selection_list.c ****   if ( u8sl->current_pos == 0 )
 168              		.loc 1 61 0
 169              		.cfi_startproc
 170              		@ args = 0, pretend = 0, frame = 0
 171              		@ frame_needed = 0, uses_anonymous_args = 0
 172              		@ link register save eliminated.
 173              	.LVL12:
  62:..\..\u8g2\csrc/u8x8_selection_list.c ****   {
 174              		.loc 1 62 0
 175 0000 C378     		ldrb	r3, [r0, #3]
 176 0002 002B     		cmp	r3, #0
 177 0004 09D1     		bne	.L14
 178              	.LVL13:
 179              	.LBB4:
 180              	.LBB5:
  64:..\..\u8g2\csrc/u8x8_selection_list.c ****     u8sl->first_pos = 0;
 181              		.loc 1 64 0
 182 0006 4278     		ldrb	r2, [r0, #1]
  65:..\..\u8g2\csrc/u8x8_selection_list.c ****     if ( u8sl->total > u8sl->visible )
 183              		.loc 1 65 0
 184 0008 8370     		strb	r3, [r0, #2]
  66:..\..\u8g2\csrc/u8x8_selection_list.c ****       u8sl->first_pos = u8sl->total - u8sl->visible;
 185              		.loc 1 66 0
 186 000a 0378     		ldrb	r3, [r0]
  64:..\..\u8g2\csrc/u8x8_selection_list.c ****     u8sl->first_pos = 0;
 187              		.loc 1 64 0
 188 000c 511E     		subs	r1, r2, #1
 189 000e C170     		strb	r1, [r0, #3]
  66:..\..\u8g2\csrc/u8x8_selection_list.c ****       u8sl->first_pos = u8sl->total - u8sl->visible;
 190              		.loc 1 66 0
 191 0010 9A42     		cmp	r2, r3
 192 0012 09D9     		bls	.L13
  67:..\..\u8g2\csrc/u8x8_selection_list.c ****   }
 193              		.loc 1 67 0
 194 0014 D21A     		subs	r2, r2, r3
 195 0016 8270     		strb	r2, [r0, #2]
 196 0018 06E0     		b	.L13
 197              	.LVL14:
 198              	.L14:
 199              	.LBE5:
 200              	.LBE4:
  71:..\..\u8g2\csrc/u8x8_selection_list.c ****     if ( u8sl->first_pos > u8sl->current_pos )
 201              		.loc 1 71 0
 202 001a 013B     		subs	r3, r3, #1
  72:..\..\u8g2\csrc/u8x8_selection_list.c ****       u8sl->first_pos = u8sl->current_pos;
 203              		.loc 1 72 0
 204 001c 8278     		ldrb	r2, [r0, #2]
  71:..\..\u8g2\csrc/u8x8_selection_list.c ****     if ( u8sl->first_pos > u8sl->current_pos )
 205              		.loc 1 71 0
 206 001e DBB2     		uxtb	r3, r3
ARM GAS  C:\Users\Greg\AppData\Local\Temp\ccjhIltC.s 			page 7


 207 0020 C370     		strb	r3, [r0, #3]
  72:..\..\u8g2\csrc/u8x8_selection_list.c ****       u8sl->first_pos = u8sl->current_pos;
 208              		.loc 1 72 0
 209 0022 9A42     		cmp	r2, r3
 210 0024 00D9     		bls	.L13
  73:..\..\u8g2\csrc/u8x8_selection_list.c ****   }
 211              		.loc 1 73 0
 212 0026 8370     		strb	r3, [r0, #2]
 213              	.L13:
  75:..\..\u8g2\csrc/u8x8_selection_list.c **** 
 214              		.loc 1 75 0
 215              		@ sp needed
 216 0028 7047     		bx	lr
 217              		.cfi_endproc
 218              	.LFE1:
 219              		.size	u8sl_Prev, .-u8sl_Prev
 220              		.section	.text.u8x8_DrawSelectionList,"ax",%progbits
 221              		.align	1
 222              		.global	u8x8_DrawSelectionList
 223              		.code	16
 224              		.thumb_func
 225              		.type	u8x8_DrawSelectionList, %function
 226              	u8x8_DrawSelectionList:
 227              	.LFB2:
  78:..\..\u8g2\csrc/u8x8_selection_list.c ****   uint8_t i;
 228              		.loc 1 78 0
 229              		.cfi_startproc
 230              		@ args = 0, pretend = 0, frame = 8
 231              		@ frame_needed = 0, uses_anonymous_args = 0
 232              	.LVL15:
 233 0000 F7B5     		push	{r0, r1, r2, r4, r5, r6, r7, lr}
 234              		.cfi_def_cfa_offset 32
 235              		.cfi_offset 0, -32
 236              		.cfi_offset 1, -28
 237              		.cfi_offset 2, -24
 238              		.cfi_offset 4, -20
 239              		.cfi_offset 5, -16
 240              		.cfi_offset 6, -12
 241              		.cfi_offset 7, -8
 242              		.cfi_offset 14, -4
  78:..\..\u8g2\csrc/u8x8_selection_list.c ****   uint8_t i;
 243              		.loc 1 78 0
 244 0002 0D00     		movs	r5, r1
 245 0004 1F00     		movs	r7, r3
  80:..\..\u8g2\csrc/u8x8_selection_list.c ****   {
 246              		.loc 1 80 0
 247 0006 0024     		movs	r4, #0
  78:..\..\u8g2\csrc/u8x8_selection_list.c ****   uint8_t i;
 248              		.loc 1 78 0
 249 0008 0090     		str	r0, [sp]
 250 000a 0192     		str	r2, [sp, #4]
 251              	.LVL16:
 252              	.L19:
  80:..\..\u8g2\csrc/u8x8_selection_list.c ****   {
 253              		.loc 1 80 0 discriminator 1
 254 000c 2B78     		ldrb	r3, [r5]
 255 000e A342     		cmp	r3, r4
ARM GAS  C:\Users\Greg\AppData\Local\Temp\ccjhIltC.s 			page 8


 256 0010 0AD9     		bls	.L21
  82:..\..\u8g2\csrc/u8x8_selection_list.c ****   }
 257              		.loc 1 82 0 discriminator 3
 258 0012 AA78     		ldrb	r2, [r5, #2]
 259 0014 3B00     		movs	r3, r7
 260 0016 A218     		adds	r2, r4, r2
 261 0018 D2B2     		uxtb	r2, r2
 262 001a 2900     		movs	r1, r5
 263 001c 0098     		ldr	r0, [sp]
 264 001e 019E     		ldr	r6, [sp, #4]
  80:..\..\u8g2\csrc/u8x8_selection_list.c ****   {
 265              		.loc 1 80 0 discriminator 3
 266 0020 0134     		adds	r4, r4, #1
 267              	.LVL17:
  82:..\..\u8g2\csrc/u8x8_selection_list.c ****   }
 268              		.loc 1 82 0 discriminator 3
 269 0022 B047     		blx	r6
 270              	.LVL18:
  80:..\..\u8g2\csrc/u8x8_selection_list.c ****   {
 271              		.loc 1 80 0 discriminator 3
 272 0024 E4B2     		uxtb	r4, r4
 273              	.LVL19:
 274 0026 F1E7     		b	.L19
 275              	.L21:
  84:..\..\u8g2\csrc/u8x8_selection_list.c **** 
 276              		.loc 1 84 0
 277              		@ sp needed
 278              	.LVL20:
 279              	.LVL21:
 280              	.LVL22:
 281 0028 F7BD     		pop	{r0, r1, r2, r4, r5, r6, r7, pc}
 282              		.cfi_endproc
 283              	.LFE2:
 284              		.size	u8x8_DrawSelectionList, .-u8x8_DrawSelectionList
 285              		.section	.text.u8x8_UserInterfaceSelectionList,"ax",%progbits
 286              		.align	1
 287              		.global	u8x8_UserInterfaceSelectionList
 288              		.code	16
 289              		.thumb_func
 290              		.type	u8x8_UserInterfaceSelectionList, %function
 291              	u8x8_UserInterfaceSelectionList:
 292              	.LFB4:
 113:..\..\u8g2\csrc/u8x8_selection_list.c **** 
 114:..\..\u8g2\csrc/u8x8_selection_list.c **** /*
 115:..\..\u8g2\csrc/u8x8_selection_list.c ****   title: 		NULL for no title, valid str for title line. Can contain mutliple lines, separated by '\
 116:..\..\u8g2\csrc/u8x8_selection_list.c ****   start_pos: 	default position for the cursor (starts with 1)
 117:..\..\u8g2\csrc/u8x8_selection_list.c ****   sl:			string list (list of strings separated by \n)
 118:..\..\u8g2\csrc/u8x8_selection_list.c ****   returns 0 if user has pressed the home key
 119:..\..\u8g2\csrc/u8x8_selection_list.c ****   returns the selected line+1 if user has pressed the select key (e.g. 1 for the first line)
 120:..\..\u8g2\csrc/u8x8_selection_list.c **** */
 121:..\..\u8g2\csrc/u8x8_selection_list.c **** uint8_t u8x8_UserInterfaceSelectionList(u8x8_t *u8x8, const char *title, uint8_t start_pos, const c
 122:..\..\u8g2\csrc/u8x8_selection_list.c **** {
 293              		.loc 1 122 0
 294              		.cfi_startproc
 295              		@ args = 0, pretend = 0, frame = 16
 296              		@ frame_needed = 0, uses_anonymous_args = 0
 297              	.LVL23:
ARM GAS  C:\Users\Greg\AppData\Local\Temp\ccjhIltC.s 			page 9


 298 0000 F0B5     		push	{r4, r5, r6, r7, lr}
 299              		.cfi_def_cfa_offset 20
 300              		.cfi_offset 4, -20
 301              		.cfi_offset 5, -16
 302              		.cfi_offset 6, -12
 303              		.cfi_offset 7, -8
 304              		.cfi_offset 14, -4
 305 0002 87B0     		sub	sp, sp, #28
 306              		.cfi_def_cfa_offset 48
 307              		.loc 1 122 0
 308 0004 0500     		movs	r5, r0
 309 0006 0F00     		movs	r7, r1
 310 0008 161E     		subs	r6, r2, #0
 311 000a 0393     		str	r3, [sp, #12]
 123:..\..\u8g2\csrc/u8x8_selection_list.c ****   u8sl_t u8sl;
 124:..\..\u8g2\csrc/u8x8_selection_list.c ****   uint8_t event;
 125:..\..\u8g2\csrc/u8x8_selection_list.c ****   uint8_t title_lines;
 126:..\..\u8g2\csrc/u8x8_selection_list.c ****   
 127:..\..\u8g2\csrc/u8x8_selection_list.c ****   if ( start_pos > 0 )
 312              		.loc 1 127 0
 313 000c 01D0     		beq	.L23
 128:..\..\u8g2\csrc/u8x8_selection_list.c ****     start_pos--;
 314              		.loc 1 128 0
 315 000e 013E     		subs	r6, r6, #1
 316 0010 F6B2     		uxtb	r6, r6
 317              	.LVL24:
 318              	.L23:
 129:..\..\u8g2\csrc/u8x8_selection_list.c ****   
 130:..\..\u8g2\csrc/u8x8_selection_list.c ****   u8sl.visible = u8x8_GetRows(u8x8);
 319              		.loc 1 130 0
 320 0012 2B68     		ldr	r3, [r5]
 321              	.LVL25:
 322 0014 04AC     		add	r4, sp, #16
 323 0016 5B7C     		ldrb	r3, [r3, #17]
 131:..\..\u8g2\csrc/u8x8_selection_list.c ****   u8sl.total = u8x8_GetStringLineCnt(sl);
 324              		.loc 1 131 0
 325 0018 0398     		ldr	r0, [sp, #12]
 326              	.LVL26:
 130:..\..\u8g2\csrc/u8x8_selection_list.c ****   u8sl.total = u8x8_GetStringLineCnt(sl);
 327              		.loc 1 130 0
 328 001a 2370     		strb	r3, [r4]
 329              		.loc 1 131 0
 330 001c FFF7FEFF 		bl	u8x8_GetStringLineCnt
 331              	.LVL27:
 132:..\..\u8g2\csrc/u8x8_selection_list.c ****   u8sl.first_pos = 0;
 332              		.loc 1 132 0
 333 0020 0021     		movs	r1, #0
 131:..\..\u8g2\csrc/u8x8_selection_list.c ****   u8sl.total = u8x8_GetStringLineCnt(sl);
 334              		.loc 1 131 0
 335 0022 6070     		strb	r0, [r4, #1]
 336              		.loc 1 132 0
 337 0024 A170     		strb	r1, [r4, #2]
 133:..\..\u8g2\csrc/u8x8_selection_list.c ****   u8sl.current_pos = start_pos;
 338              		.loc 1 133 0
 339 0026 E670     		strb	r6, [r4, #3]
 134:..\..\u8g2\csrc/u8x8_selection_list.c ****   u8sl.x = 0;
 340              		.loc 1 134 0
ARM GAS  C:\Users\Greg\AppData\Local\Temp\ccjhIltC.s 			page 10


 341 0028 2171     		strb	r1, [r4, #4]
 135:..\..\u8g2\csrc/u8x8_selection_list.c ****   u8sl.y = 0;
 342              		.loc 1 135 0
 343 002a 6171     		strb	r1, [r4, #5]
 136:..\..\u8g2\csrc/u8x8_selection_list.c ****   
 137:..\..\u8g2\csrc/u8x8_selection_list.c **** 
 138:..\..\u8g2\csrc/u8x8_selection_list.c ****   //u8x8_ClearDisplay(u8x8);   /* not required because all is 100% filled */
 139:..\..\u8g2\csrc/u8x8_selection_list.c ****   u8x8_SetInverseFont(u8x8, 0);
 344              		.loc 1 139 0
 345 002c E977     		strb	r1, [r5, #31]
 140:..\..\u8g2\csrc/u8x8_selection_list.c ****   
 141:..\..\u8g2\csrc/u8x8_selection_list.c ****   if ( title != NULL )
 346              		.loc 1 141 0
 347 002e 8F42     		cmp	r7, r1
 348 0030 0CD0     		beq	.L24
 142:..\..\u8g2\csrc/u8x8_selection_list.c ****   {
 143:..\..\u8g2\csrc/u8x8_selection_list.c ****     title_lines = u8x8_DrawUTF8Lines(u8x8, u8sl.x, u8sl.y, u8x8_GetCols(u8x8), title);
 349              		.loc 1 143 0
 350 0032 2B68     		ldr	r3, [r5]
 351 0034 0A00     		movs	r2, r1
 352 0036 1B7C     		ldrb	r3, [r3, #16]
 353 0038 2800     		movs	r0, r5
 354 003a 0097     		str	r7, [sp]
 355 003c FFF7FEFF 		bl	u8x8_DrawUTF8Lines
 356              	.LVL28:
 144:..\..\u8g2\csrc/u8x8_selection_list.c ****     u8sl.y+=title_lines;
 357              		.loc 1 144 0
 358 0040 6379     		ldrb	r3, [r4, #5]
 359 0042 C318     		adds	r3, r0, r3
 360 0044 6371     		strb	r3, [r4, #5]
 145:..\..\u8g2\csrc/u8x8_selection_list.c ****     u8sl.visible-=title_lines;
 361              		.loc 1 145 0
 362 0046 2378     		ldrb	r3, [r4]
 363 0048 181A     		subs	r0, r3, r0
 364              	.LVL29:
 365 004a 2070     		strb	r0, [r4]
 366              	.L24:
 146:..\..\u8g2\csrc/u8x8_selection_list.c ****   }
 147:..\..\u8g2\csrc/u8x8_selection_list.c ****   
 148:..\..\u8g2\csrc/u8x8_selection_list.c ****   if ( u8sl.current_pos >= u8sl.total )
 367              		.loc 1 148 0
 368 004c 6378     		ldrb	r3, [r4, #1]
 369 004e E278     		ldrb	r2, [r4, #3]
 370 0050 9A42     		cmp	r2, r3
 371 0052 01D3     		bcc	.L25
 149:..\..\u8g2\csrc/u8x8_selection_list.c ****     u8sl.current_pos = u8sl.total-1;
 372              		.loc 1 149 0
 373 0054 013B     		subs	r3, r3, #1
 374 0056 E370     		strb	r3, [r4, #3]
 375              	.L25:
 150:..\..\u8g2\csrc/u8x8_selection_list.c **** 
 151:..\..\u8g2\csrc/u8x8_selection_list.c ****   
 152:..\..\u8g2\csrc/u8x8_selection_list.c ****   u8x8_DrawSelectionList(u8x8, &u8sl, u8x8_sl_string_line_cb, sl);
 376              		.loc 1 152 0
 377 0058 174E     		ldr	r6, .L39
 378              	.LVL30:
 379 005a 039B     		ldr	r3, [sp, #12]
ARM GAS  C:\Users\Greg\AppData\Local\Temp\ccjhIltC.s 			page 11


 380 005c 3200     		movs	r2, r6
 381 005e 2100     		movs	r1, r4
 382 0060 2800     		movs	r0, r5
 383 0062 FFF7FEFF 		bl	u8x8_DrawSelectionList
 384              	.LVL31:
 153:..\..\u8g2\csrc/u8x8_selection_list.c **** 
 154:..\..\u8g2\csrc/u8x8_selection_list.c ****   for(;;)
 155:..\..\u8g2\csrc/u8x8_selection_list.c ****   {
 156:..\..\u8g2\csrc/u8x8_selection_list.c ****     event = u8x8_GetMenuEvent(u8x8);
 157:..\..\u8g2\csrc/u8x8_selection_list.c ****     if ( event == U8X8_MSG_GPIO_MENU_SELECT )
 158:..\..\u8g2\csrc/u8x8_selection_list.c ****       return u8sl.current_pos+1;
 159:..\..\u8g2\csrc/u8x8_selection_list.c ****     else if ( event == U8X8_MSG_GPIO_MENU_HOME )
 160:..\..\u8g2\csrc/u8x8_selection_list.c ****       return 0;
 161:..\..\u8g2\csrc/u8x8_selection_list.c ****     else if ( event == U8X8_MSG_GPIO_MENU_NEXT || event == U8X8_MSG_GPIO_MENU_DOWN )
 162:..\..\u8g2\csrc/u8x8_selection_list.c ****     {
 163:..\..\u8g2\csrc/u8x8_selection_list.c ****       u8sl_Next(&u8sl);
 164:..\..\u8g2\csrc/u8x8_selection_list.c ****       u8x8_DrawSelectionList(u8x8, &u8sl, u8x8_sl_string_line_cb, sl);      
 165:..\..\u8g2\csrc/u8x8_selection_list.c ****     }
 166:..\..\u8g2\csrc/u8x8_selection_list.c ****     else if ( event == U8X8_MSG_GPIO_MENU_PREV || event == U8X8_MSG_GPIO_MENU_UP  )
 385              		.loc 1 166 0
 386 0066 0227     		movs	r7, #2
 387              	.LVL32:
 388              	.L26:
 156:..\..\u8g2\csrc/u8x8_selection_list.c ****     if ( event == U8X8_MSG_GPIO_MENU_SELECT )
 389              		.loc 1 156 0
 390 0068 2800     		movs	r0, r5
 391 006a FFF7FEFF 		bl	u8x8_GetMenuEvent
 392              	.LVL33:
 157:..\..\u8g2\csrc/u8x8_selection_list.c ****       return u8sl.current_pos+1;
 393              		.loc 1 157 0
 394 006e 5028     		cmp	r0, #80
 395 0070 03D1     		bne	.L27
 158:..\..\u8g2\csrc/u8x8_selection_list.c ****     else if ( event == U8X8_MSG_GPIO_MENU_HOME )
 396              		.loc 1 158 0
 397 0072 E078     		ldrb	r0, [r4, #3]
 398              	.LVL34:
 399 0074 0130     		adds	r0, r0, #1
 400 0076 C0B2     		uxtb	r0, r0
 401 0078 1BE0     		b	.L28
 402              	.LVL35:
 403              	.L27:
 159:..\..\u8g2\csrc/u8x8_selection_list.c ****       return 0;
 404              		.loc 1 159 0
 405 007a 5328     		cmp	r0, #83
 406 007c 18D0     		beq	.L31
 161:..\..\u8g2\csrc/u8x8_selection_list.c ****     {
 407              		.loc 1 161 0
 408 007e 0300     		movs	r3, r0
 409 0080 0422     		movs	r2, #4
 410 0082 9343     		bics	r3, r2
 411 0084 DBB2     		uxtb	r3, r3
 412 0086 512B     		cmp	r3, #81
 413 0088 03D1     		bne	.L29
 163:..\..\u8g2\csrc/u8x8_selection_list.c ****       u8x8_DrawSelectionList(u8x8, &u8sl, u8x8_sl_string_line_cb, sl);      
 414              		.loc 1 163 0
 415 008a 2000     		movs	r0, r4
 416              	.LVL36:
ARM GAS  C:\Users\Greg\AppData\Local\Temp\ccjhIltC.s 			page 12


 417 008c FFF7FEFF 		bl	u8sl_Next
 418              	.LVL37:
 419 0090 07E0     		b	.L38
 420              	.LVL38:
 421              	.L29:
 422              		.loc 1 166 0
 423 0092 5238     		subs	r0, r0, #82
 424              	.LVL39:
 425 0094 B843     		bics	r0, r7
 426 0096 C0B2     		uxtb	r0, r0
 427 0098 0028     		cmp	r0, #0
 428 009a E5D1     		bne	.L26
 167:..\..\u8g2\csrc/u8x8_selection_list.c ****     {
 168:..\..\u8g2\csrc/u8x8_selection_list.c ****       u8sl_Prev(&u8sl);
 429              		.loc 1 168 0
 430 009c 2000     		movs	r0, r4
 431 009e FFF7FEFF 		bl	u8sl_Prev
 432              	.LVL40:
 433              	.L38:
 169:..\..\u8g2\csrc/u8x8_selection_list.c ****       u8x8_DrawSelectionList(u8x8, &u8sl, u8x8_sl_string_line_cb, sl);      
 434              		.loc 1 169 0
 435 00a2 039B     		ldr	r3, [sp, #12]
 436 00a4 3200     		movs	r2, r6
 437 00a6 2100     		movs	r1, r4
 438 00a8 2800     		movs	r0, r5
 439 00aa FFF7FEFF 		bl	u8x8_DrawSelectionList
 440              	.LVL41:
 441 00ae DBE7     		b	.L26
 442              	.LVL42:
 443              	.L31:
 160:..\..\u8g2\csrc/u8x8_selection_list.c ****     else if ( event == U8X8_MSG_GPIO_MENU_NEXT || event == U8X8_MSG_GPIO_MENU_DOWN )
 444              		.loc 1 160 0
 445 00b0 0020     		movs	r0, #0
 446              	.LVL43:
 447              	.L28:
 170:..\..\u8g2\csrc/u8x8_selection_list.c ****     }
 171:..\..\u8g2\csrc/u8x8_selection_list.c ****   }
 172:..\..\u8g2\csrc/u8x8_selection_list.c **** }
 448              		.loc 1 172 0
 449 00b2 07B0     		add	sp, sp, #28
 450              		@ sp needed
 451              	.LVL44:
 452 00b4 F0BD     		pop	{r4, r5, r6, r7, pc}
 453              	.L40:
 454 00b6 C046     		.align	2
 455              	.L39:
 456 00b8 00000000 		.word	u8x8_sl_string_line_cb
 457              		.cfi_endproc
 458              	.LFE4:
 459              		.size	u8x8_UserInterfaceSelectionList, .-u8x8_UserInterfaceSelectionList
 460              		.section	.rodata.str1.1,"aMS",%progbits,1
 461              	.LC0:
 462 0000 00       		.ascii	"\000"
 463              		.text
 464              	.Letext0:
 465              		.file 2 "c:\\program files\\cypress\\psoc creator\\4.1\\psoc creator\\import\\gnu\\arm\\5.4.1\\arm
 466              		.file 3 "c:\\program files\\cypress\\psoc creator\\4.1\\psoc creator\\import\\gnu\\arm\\5.4.1\\arm
ARM GAS  C:\Users\Greg\AppData\Local\Temp\ccjhIltC.s 			page 13


 467              		.file 4 "..\\..\\u8g2\\csrc\\u8x8.h"