ARM GAS  C:\Users\gjl\AppData\Local\Temp\cccwAoGJ.s 			page 1


   1              		.syntax unified
   2              		.cpu cortex-m0
   3              		.fpu softvfp
   4              		.eabi_attribute 20, 1
   5              		.eabi_attribute 21, 1
   6              		.eabi_attribute 23, 3
   7              		.eabi_attribute 24, 1
   8              		.eabi_attribute 25, 1
   9              		.eabi_attribute 26, 1
  10              		.eabi_attribute 30, 4
  11              		.eabi_attribute 34, 0
  12              		.eabi_attribute 18, 4
  13              		.thumb
  14              		.syntax unified
  15              		.file	"u8x8_d_sed1330.c"
  16              		.text
  17              	.Ltext0:
  18              		.cfi_sections	.debug_frame
  19              		.section	.text.u8x8_d_sed1330_common,"ax",%progbits
  20              		.align	1
  21              		.global	u8x8_d_sed1330_common
  22              		.code	16
  23              		.thumb_func
  24              		.type	u8x8_d_sed1330_common, %function
  25              	u8x8_d_sed1330_common:
  26              	.LFB0:
  27              		.file 1 "..\\..\\u8g2\\csrc\\u8x8_d_sed1330.c"
   1:..\..\u8g2\csrc/u8x8_d_sed1330.c **** /*
   2:..\..\u8g2\csrc/u8x8_d_sed1330.c **** 
   3:..\..\u8g2\csrc/u8x8_d_sed1330.c ****   u8x8_d_sed1330.c
   4:..\..\u8g2\csrc/u8x8_d_sed1330.c ****   
   5:..\..\u8g2\csrc/u8x8_d_sed1330.c ****   Universal 8bit Graphics Library (https://github.com/olikraus/u8g2/)
   6:..\..\u8g2\csrc/u8x8_d_sed1330.c **** 
   7:..\..\u8g2\csrc/u8x8_d_sed1330.c ****   Copyright (c) 2016, olikraus@gmail.com
   8:..\..\u8g2\csrc/u8x8_d_sed1330.c ****   All rights reserved.
   9:..\..\u8g2\csrc/u8x8_d_sed1330.c **** 
  10:..\..\u8g2\csrc/u8x8_d_sed1330.c ****   Redistribution and use in source and binary forms, with or without modification, 
  11:..\..\u8g2\csrc/u8x8_d_sed1330.c ****   are permitted provided that the following conditions are met:
  12:..\..\u8g2\csrc/u8x8_d_sed1330.c **** 
  13:..\..\u8g2\csrc/u8x8_d_sed1330.c ****   * Redistributions of source code must retain the above copyright notice, this list 
  14:..\..\u8g2\csrc/u8x8_d_sed1330.c ****     of conditions and the following disclaimer.
  15:..\..\u8g2\csrc/u8x8_d_sed1330.c ****     
  16:..\..\u8g2\csrc/u8x8_d_sed1330.c ****   * Redistributions in binary form must reproduce the above copyright notice, this 
  17:..\..\u8g2\csrc/u8x8_d_sed1330.c ****     list of conditions and the following disclaimer in the documentation and/or other 
  18:..\..\u8g2\csrc/u8x8_d_sed1330.c ****     materials provided with the distribution.
  19:..\..\u8g2\csrc/u8x8_d_sed1330.c **** 
  20:..\..\u8g2\csrc/u8x8_d_sed1330.c ****   THIS SOFTWARE IS PROVIDED BY THE COPYRIGHT HOLDERS AND 
  21:..\..\u8g2\csrc/u8x8_d_sed1330.c ****   CONTRIBUTORS "AS IS" AND ANY EXPRESS OR IMPLIED WARRANTIES, 
  22:..\..\u8g2\csrc/u8x8_d_sed1330.c ****   INCLUDING, BUT NOT LIMITED TO, THE IMPLIED WARRANTIES OF 
  23:..\..\u8g2\csrc/u8x8_d_sed1330.c ****   MERCHANTABILITY AND FITNESS FOR A PARTICULAR PURPOSE ARE 
  24:..\..\u8g2\csrc/u8x8_d_sed1330.c ****   DISCLAIMED. IN NO EVENT SHALL THE COPYRIGHT HOLDER OR 
  25:..\..\u8g2\csrc/u8x8_d_sed1330.c ****   CONTRIBUTORS BE LIABLE FOR ANY DIRECT, INDIRECT, INCIDENTAL, 
  26:..\..\u8g2\csrc/u8x8_d_sed1330.c ****   SPECIAL, EXEMPLARY, OR CONSEQUENTIAL DAMAGES (INCLUDING, BUT 
  27:..\..\u8g2\csrc/u8x8_d_sed1330.c ****   NOT LIMITED TO, PROCUREMENT OF SUBSTITUTE GOODS OR SERVICES; 
  28:..\..\u8g2\csrc/u8x8_d_sed1330.c ****   LOSS OF USE, DATA, OR PROFITS; OR BUSINESS INTERRUPTION) HOWEVER 
  29:..\..\u8g2\csrc/u8x8_d_sed1330.c ****   CAUSED AND ON ANY THEORY OF LIABILITY, WHETHER IN CONTRACT, 
  30:..\..\u8g2\csrc/u8x8_d_sed1330.c ****   STRICT LIABILITY, OR TORT (INCLUDING NEGLIGENCE OR OTHERWISE) 
ARM GAS  C:\Users\gjl\AppData\Local\Temp\cccwAoGJ.s 			page 2


  31:..\..\u8g2\csrc/u8x8_d_sed1330.c ****   ARISING IN ANY WAY OUT OF THE USE OF THIS SOFTWARE, EVEN IF 
  32:..\..\u8g2\csrc/u8x8_d_sed1330.c ****   ADVISED OF THE POSSIBILITY OF SUCH DAMAGE.  
  33:..\..\u8g2\csrc/u8x8_d_sed1330.c **** 
  34:..\..\u8g2\csrc/u8x8_d_sed1330.c **** 
  35:..\..\u8g2\csrc/u8x8_d_sed1330.c ****   The device might also work with the RA8835, SED1335 and SED1336 controller.
  36:..\..\u8g2\csrc/u8x8_d_sed1330.c ****   The following devices might be compatible:
  37:..\..\u8g2\csrc/u8x8_d_sed1330.c ****     RA8835
  38:..\..\u8g2\csrc/u8x8_d_sed1330.c ****     SED1330
  39:..\..\u8g2\csrc/u8x8_d_sed1330.c ****     SED1335
  40:..\..\u8g2\csrc/u8x8_d_sed1330.c ****     S1D13700
  41:..\..\u8g2\csrc/u8x8_d_sed1330.c **** 
  42:..\..\u8g2\csrc/u8x8_d_sed1330.c **** 
  43:..\..\u8g2\csrc/u8x8_d_sed1330.c **** */
  44:..\..\u8g2\csrc/u8x8_d_sed1330.c **** #include "u8x8.h"
  45:..\..\u8g2\csrc/u8x8_d_sed1330.c **** 
  46:..\..\u8g2\csrc/u8x8_d_sed1330.c **** 
  47:..\..\u8g2\csrc/u8x8_d_sed1330.c **** 
  48:..\..\u8g2\csrc/u8x8_d_sed1330.c **** static const uint8_t u8x8_d_sed1330_powersave0_seq[] = {
  49:..\..\u8g2\csrc/u8x8_d_sed1330.c ****   U8X8_START_TRANSFER(),             	/* enable chip, delay is part of the transfer start */
  50:..\..\u8g2\csrc/u8x8_d_sed1330.c ****   U8X8_CA(0x040, 0x030),		/* sys init (0x040) with one arg, where 0x030 is a wild guess */
  51:..\..\u8g2\csrc/u8x8_d_sed1330.c ****   U8X8_CA(0x059, 0x004),               /* send display on command (hex 0x059, see p37 ) */
  52:..\..\u8g2\csrc/u8x8_d_sed1330.c **** 							/* display cmd has one arg: 01010100 should enable all three blocks, but disable the cursor*
  53:..\..\u8g2\csrc/u8x8_d_sed1330.c ****   
  54:..\..\u8g2\csrc/u8x8_d_sed1330.c ****   U8X8_END_TRANSFER(),             	/* disable chip */
  55:..\..\u8g2\csrc/u8x8_d_sed1330.c ****   U8X8_END()             			/* end of sequence */
  56:..\..\u8g2\csrc/u8x8_d_sed1330.c **** };
  57:..\..\u8g2\csrc/u8x8_d_sed1330.c **** 
  58:..\..\u8g2\csrc/u8x8_d_sed1330.c **** static const uint8_t u8x8_d_sed1330_powersave1_seq[] = {
  59:..\..\u8g2\csrc/u8x8_d_sed1330.c ****   U8X8_START_TRANSFER(),             	/* enable chip, delay is part of the transfer start */
  60:..\..\u8g2\csrc/u8x8_d_sed1330.c ****   U8X8_CA(0x058, 0x000),               /* send display off command (hex 0x059, see p37) and turn of
  61:..\..\u8g2\csrc/u8x8_d_sed1330.c ****   /* maybe send a sleep in cmd */
  62:..\..\u8g2\csrc/u8x8_d_sed1330.c ****   //U8X8_C(0x053)				/* sleep in: 0x053 */
  63:..\..\u8g2\csrc/u8x8_d_sed1330.c ****   U8X8_END_TRANSFER(),             	/* disable chip */
  64:..\..\u8g2\csrc/u8x8_d_sed1330.c ****   U8X8_END()             			/* end of sequence */
  65:..\..\u8g2\csrc/u8x8_d_sed1330.c **** };
  66:..\..\u8g2\csrc/u8x8_d_sed1330.c **** 
  67:..\..\u8g2\csrc/u8x8_d_sed1330.c **** 
  68:..\..\u8g2\csrc/u8x8_d_sed1330.c **** uint8_t u8x8_d_sed1330_common(u8x8_t *u8x8, uint8_t msg, uint8_t arg_int, void *arg_ptr)
  69:..\..\u8g2\csrc/u8x8_d_sed1330.c **** {
  28              		.loc 1 69 0
  29              		.cfi_startproc
  30              		@ args = 0, pretend = 0, frame = 8
  31              		@ frame_needed = 0, uses_anonymous_args = 0
  32              	.LVL0:
  33 0000 F7B5     		push	{r0, r1, r2, r4, r5, r6, r7, lr}
  34              		.cfi_def_cfa_offset 32
  35              		.cfi_offset 0, -32
  36              		.cfi_offset 1, -28
  37              		.cfi_offset 2, -24
  38              		.cfi_offset 4, -20
  39              		.cfi_offset 5, -16
  40              		.cfi_offset 6, -12
  41              		.cfi_offset 7, -8
  42              		.cfi_offset 14, -4
  43              		.loc 1 69 0
  44 0002 0400     		movs	r4, r0
  45 0004 1E00     		movs	r6, r3
ARM GAS  C:\Users\gjl\AppData\Local\Temp\cccwAoGJ.s 			page 3


  70:..\..\u8g2\csrc/u8x8_d_sed1330.c ****   uint8_t c, i;
  71:..\..\u8g2\csrc/u8x8_d_sed1330.c ****   uint16_t y;
  72:..\..\u8g2\csrc/u8x8_d_sed1330.c ****   uint8_t *ptr;
  73:..\..\u8g2\csrc/u8x8_d_sed1330.c ****   switch(msg)
  46              		.loc 1 73 0
  47 0006 0B29     		cmp	r1, #11
  48 0008 0ED0     		beq	.L3
  49 000a 0F29     		cmp	r1, #15
  50 000c 3FD1     		bne	.L13
  51              	.LVL1:
  52 000e 0368     		ldr	r3, [r0]
  53              	.LVL2:
  54 0010 B579     		ldrb	r5, [r6, #6]
  55 0012 1B7C     		ldrb	r3, [r3, #16]
  56 0014 5D43     		muls	r5, r3
  57              	.LBB4:
  58              	.LBB5:
  74:..\..\u8g2\csrc/u8x8_d_sed1330.c ****   {
  75:..\..\u8g2\csrc/u8x8_d_sed1330.c ****     /* U8X8_MSG_DISPLAY_SETUP_MEMORY is handled by the calling function */
  76:..\..\u8g2\csrc/u8x8_d_sed1330.c ****     /*
  77:..\..\u8g2\csrc/u8x8_d_sed1330.c ****     case U8X8_MSG_DISPLAY_SETUP_MEMORY:
  78:..\..\u8g2\csrc/u8x8_d_sed1330.c ****       break;
  79:..\..\u8g2\csrc/u8x8_d_sed1330.c ****     case U8X8_MSG_DISPLAY_INIT:
  80:..\..\u8g2\csrc/u8x8_d_sed1330.c ****       break;
  81:..\..\u8g2\csrc/u8x8_d_sed1330.c ****     */
  82:..\..\u8g2\csrc/u8x8_d_sed1330.c ****     case U8X8_MSG_DISPLAY_SET_POWER_SAVE:
  83:..\..\u8g2\csrc/u8x8_d_sed1330.c ****       if ( arg_int == 0 )
  84:..\..\u8g2\csrc/u8x8_d_sed1330.c **** 	u8x8_cad_SendSequence(u8x8, u8x8_d_sed1330_powersave0_seq);
  85:..\..\u8g2\csrc/u8x8_d_sed1330.c ****       else
  86:..\..\u8g2\csrc/u8x8_d_sed1330.c **** 	u8x8_cad_SendSequence(u8x8, u8x8_d_sed1330_powersave1_seq);
  87:..\..\u8g2\csrc/u8x8_d_sed1330.c ****       break;
  88:..\..\u8g2\csrc/u8x8_d_sed1330.c ****     case U8X8_MSG_DISPLAY_DRAW_TILE:
  89:..\..\u8g2\csrc/u8x8_d_sed1330.c ****       y = (((u8x8_tile_t *)arg_ptr)->y_pos);
  90:..\..\u8g2\csrc/u8x8_d_sed1330.c ****       y*=8;
  91:..\..\u8g2\csrc/u8x8_d_sed1330.c ****       y*= u8x8->display_info->tile_width;
  92:..\..\u8g2\csrc/u8x8_d_sed1330.c ****     
  93:..\..\u8g2\csrc/u8x8_d_sed1330.c ****       u8x8_cad_StartTransfer(u8x8);
  59              		.loc 1 93 0
  60 0016 FFF7FEFF 		bl	u8x8_cad_StartTransfer
  61              	.LVL3:
  94:..\..\u8g2\csrc/u8x8_d_sed1330.c ****     
  95:..\..\u8g2\csrc/u8x8_d_sed1330.c ****       c = ((u8x8_tile_t *)arg_ptr)->cnt;	/* number of tiles */
  62              		.loc 1 95 0
  63 001a 3379     		ldrb	r3, [r6, #4]
  91:..\..\u8g2\csrc/u8x8_d_sed1330.c ****     
  64              		.loc 1 91 0
  65 001c ED00     		lsls	r5, r5, #3
  96:..\..\u8g2\csrc/u8x8_d_sed1330.c ****       ptr = ((u8x8_tile_t *)arg_ptr)->tile_ptr;	/* data ptr to the tiles */
  66              		.loc 1 96 0
  67 001e 3768     		ldr	r7, [r6]
  91:..\..\u8g2\csrc/u8x8_d_sed1330.c ****     
  68              		.loc 1 91 0
  69 0020 ADB2     		uxth	r5, r5
  70              	.LVL4:
  95:..\..\u8g2\csrc/u8x8_d_sed1330.c ****       ptr = ((u8x8_tile_t *)arg_ptr)->tile_ptr;	/* data ptr to the tiles */
  71              		.loc 1 95 0
  72 0022 0193     		str	r3, [sp, #4]
ARM GAS  C:\Users\gjl\AppData\Local\Temp\cccwAoGJ.s 			page 4


  73              	.LVL5:
  74              		.loc 1 96 0
  75 0024 0826     		movs	r6, #8
  76              	.LVL6:
  77 0026 07E0     		b	.L6
  78              	.LVL7:
  79              	.L3:
  80 0028 1A49     		ldr	r1, .L14
  81              	.LVL8:
  82              	.LBE5:
  83              	.LBE4:
  83:..\..\u8g2\csrc/u8x8_d_sed1330.c **** 	u8x8_cad_SendSequence(u8x8, u8x8_d_sed1330_powersave0_seq);
  84              		.loc 1 83 0
  85 002a 002A     		cmp	r2, #0
  86 002c 00D0     		beq	.L11
  86:..\..\u8g2\csrc/u8x8_d_sed1330.c ****       break;
  87              		.loc 1 86 0
  88 002e 0B31     		adds	r1, r1, #11
  89              	.L11:
  90 0030 2000     		movs	r0, r4
  91              	.LVL9:
  92 0032 FFF7FEFF 		bl	u8x8_cad_SendSequence
  93              	.LVL10:
  94 0036 28E0     		b	.L10
  95              	.LVL11:
  96              	.L6:
  97              	.LBB7:
  98              	.LBB6:
  97:..\..\u8g2\csrc/u8x8_d_sed1330.c ****       for( i = 0; i < 8; i++ )
  98:..\..\u8g2\csrc/u8x8_d_sed1330.c ****       {
  99:..\..\u8g2\csrc/u8x8_d_sed1330.c **** 	u8x8_cad_SendCmd(u8x8, 0x046 );	/* CSRW command*/
  99              		.loc 1 99 0
 100 0038 4621     		movs	r1, #70
 101 003a 2000     		movs	r0, r4
 102 003c FFF7FEFF 		bl	u8x8_cad_SendCmd
 103              	.LVL12:
 100:..\..\u8g2\csrc/u8x8_d_sed1330.c **** 	u8x8_cad_SendArg(u8x8, y&255);		/* CSRW low adr byte */
 104              		.loc 1 100 0
 105 0040 E9B2     		uxtb	r1, r5
 106 0042 2000     		movs	r0, r4
 107 0044 FFF7FEFF 		bl	u8x8_cad_SendArg
 108              	.LVL13:
 101:..\..\u8g2\csrc/u8x8_d_sed1330.c **** 	u8x8_cad_SendArg(u8x8, y>>8);		/* CSRW high adr byte */
 109              		.loc 1 101 0
 110 0048 290A     		lsrs	r1, r5, #8
 111 004a 2000     		movs	r0, r4
 112 004c FFF7FEFF 		bl	u8x8_cad_SendArg
 113              	.LVL14:
 102:..\..\u8g2\csrc/u8x8_d_sed1330.c **** 	u8x8_cad_SendCmd(u8x8, 0x042 );	/* MWRITE */
 114              		.loc 1 102 0
 115 0050 4221     		movs	r1, #66
 116 0052 2000     		movs	r0, r4
 117 0054 FFF7FEFF 		bl	u8x8_cad_SendCmd
 118              	.LVL15:
 103:..\..\u8g2\csrc/u8x8_d_sed1330.c **** 	
 104:..\..\u8g2\csrc/u8x8_d_sed1330.c **** 	u8x8_cad_SendData(u8x8, c, ptr);	/* note: SendData can not handle more than 255 bytes, send one li
 119              		.loc 1 104 0
ARM GAS  C:\Users\gjl\AppData\Local\Temp\cccwAoGJ.s 			page 5


 120 0058 3A00     		movs	r2, r7
 121 005a 0199     		ldr	r1, [sp, #4]
 122 005c 2000     		movs	r0, r4
 123 005e FFF7FEFF 		bl	u8x8_cad_SendData
 124              	.LVL16:
 105:..\..\u8g2\csrc/u8x8_d_sed1330.c **** 	
 106:..\..\u8g2\csrc/u8x8_d_sed1330.c **** 	ptr += u8x8->display_info->tile_width;
 125              		.loc 1 106 0
 126 0062 2368     		ldr	r3, [r4]
 127 0064 013E     		subs	r6, r6, #1
 128              	.LVL17:
 129 0066 1B7C     		ldrb	r3, [r3, #16]
 130 0068 F6B2     		uxtb	r6, r6
 107:..\..\u8g2\csrc/u8x8_d_sed1330.c **** 	y += u8x8->display_info->tile_width;
 131              		.loc 1 107 0
 132 006a ED18     		adds	r5, r5, r3
 133              	.LVL18:
 106:..\..\u8g2\csrc/u8x8_d_sed1330.c **** 	y += u8x8->display_info->tile_width;
 134              		.loc 1 106 0
 135 006c FF18     		adds	r7, r7, r3
 136              	.LVL19:
 137              		.loc 1 107 0
 138 006e ADB2     		uxth	r5, r5
 139              	.LVL20:
  97:..\..\u8g2\csrc/u8x8_d_sed1330.c ****       {
 140              		.loc 1 97 0
 141 0070 002E     		cmp	r6, #0
 142 0072 E1D1     		bne	.L6
 108:..\..\u8g2\csrc/u8x8_d_sed1330.c ****       }
 109:..\..\u8g2\csrc/u8x8_d_sed1330.c **** 
 110:..\..\u8g2\csrc/u8x8_d_sed1330.c ****       /* sometimes the display switches off... so just sent a display on command */
 111:..\..\u8g2\csrc/u8x8_d_sed1330.c ****       u8x8_cad_SendCmd(u8x8, 0x059 );	/* display on */
 143              		.loc 1 111 0
 144 0074 5921     		movs	r1, #89
 145 0076 2000     		movs	r0, r4
 146 0078 FFF7FEFF 		bl	u8x8_cad_SendCmd
 147              	.LVL21:
 112:..\..\u8g2\csrc/u8x8_d_sed1330.c ****       u8x8_cad_SendArg(u8x8, 0x004);	/* arg for display on */
 148              		.loc 1 112 0
 149 007c 0421     		movs	r1, #4
 150 007e 2000     		movs	r0, r4
 151 0080 FFF7FEFF 		bl	u8x8_cad_SendArg
 152              	.LVL22:
 113:..\..\u8g2\csrc/u8x8_d_sed1330.c **** 
 114:..\..\u8g2\csrc/u8x8_d_sed1330.c ****       u8x8_cad_EndTransfer(u8x8);
 153              		.loc 1 114 0
 154 0084 2000     		movs	r0, r4
 155 0086 FFF7FEFF 		bl	u8x8_cad_EndTransfer
 156              	.LVL23:
 157              	.L10:
 158 008a 0120     		movs	r0, #1
 159 008c 00E0     		b	.L2
 160              	.LVL24:
 161              	.L13:
 162              	.LBE6:
 163              	.LBE7:
 115:..\..\u8g2\csrc/u8x8_d_sed1330.c ****       //u8x8->gpio_and_delay_cb(u8x8, U8X8_MSG_DELAY_NANO, 200, NULL);	/* extra dely required */
ARM GAS  C:\Users\gjl\AppData\Local\Temp\cccwAoGJ.s 			page 6


 116:..\..\u8g2\csrc/u8x8_d_sed1330.c **** 
 117:..\..\u8g2\csrc/u8x8_d_sed1330.c ****       break;
 118:..\..\u8g2\csrc/u8x8_d_sed1330.c ****     default:
 119:..\..\u8g2\csrc/u8x8_d_sed1330.c ****       return 0;
 164              		.loc 1 119 0
 165 008e 0020     		movs	r0, #0
 166              	.LVL25:
 167              	.L2:
 120:..\..\u8g2\csrc/u8x8_d_sed1330.c ****   }
 121:..\..\u8g2\csrc/u8x8_d_sed1330.c ****   return 1;
 122:..\..\u8g2\csrc/u8x8_d_sed1330.c **** }
 168              		.loc 1 122 0
 169              		@ sp needed
 170              	.LVL26:
 171 0090 FEBD     		pop	{r1, r2, r3, r4, r5, r6, r7, pc}
 172              	.L15:
 173 0092 C046     		.align	2
 174              	.L14:
 175 0094 00000000 		.word	.LANCHOR0
 176              		.cfi_endproc
 177              	.LFE0:
 178              		.size	u8x8_d_sed1330_common, .-u8x8_d_sed1330_common
 179              		.section	.text.u8x8_d_sed1330_240x128,"ax",%progbits
 180              		.align	1
 181              		.global	u8x8_d_sed1330_240x128
 182              		.code	16
 183              		.thumb_func
 184              		.type	u8x8_d_sed1330_240x128, %function
 185              	u8x8_d_sed1330_240x128:
 186              	.LFB1:
 123:..\..\u8g2\csrc/u8x8_d_sed1330.c **** 
 124:..\..\u8g2\csrc/u8x8_d_sed1330.c **** /*=============================================*/
 125:..\..\u8g2\csrc/u8x8_d_sed1330.c **** 
 126:..\..\u8g2\csrc/u8x8_d_sed1330.c **** 
 127:..\..\u8g2\csrc/u8x8_d_sed1330.c **** static const u8x8_display_info_t u8x8_sed1330_240x128_display_info =
 128:..\..\u8g2\csrc/u8x8_d_sed1330.c **** {
 129:..\..\u8g2\csrc/u8x8_d_sed1330.c ****   /* chip_enable_level = */ 0,
 130:..\..\u8g2\csrc/u8x8_d_sed1330.c ****   /* chip_disable_level = */ 1,
 131:..\..\u8g2\csrc/u8x8_d_sed1330.c ****   
 132:..\..\u8g2\csrc/u8x8_d_sed1330.c ****   /* post_chip_enable_wait_ns = */ 30,	/* G242CX Datasheet p5 */
 133:..\..\u8g2\csrc/u8x8_d_sed1330.c ****   /* pre_chip_disable_wait_ns = */ 10,	/* G242CX Datasheet p5 */
 134:..\..\u8g2\csrc/u8x8_d_sed1330.c ****   /* reset_pulse_width_ms = */ 1, 
 135:..\..\u8g2\csrc/u8x8_d_sed1330.c ****   /* post_reset_wait_ms = */ 6, 
 136:..\..\u8g2\csrc/u8x8_d_sed1330.c ****   /* sda_setup_time_ns = */ 20,		
 137:..\..\u8g2\csrc/u8x8_d_sed1330.c ****   /* sck_pulse_width_ns = */  140,	
 138:..\..\u8g2\csrc/u8x8_d_sed1330.c ****   /* sck_clock_hz = */ 1000000UL,	/* since Arduino 1.6.0, the SPI bus speed in Hz. Should be  10000
 139:..\..\u8g2\csrc/u8x8_d_sed1330.c ****   /* spi_mode = */ 0,		
 140:..\..\u8g2\csrc/u8x8_d_sed1330.c ****   /* i2c_bus_clock_100kHz = */ 4,
 141:..\..\u8g2\csrc/u8x8_d_sed1330.c ****   /* data_setup_time_ns = */ 120,		/* G242CX Datasheet p5 */
 142:..\..\u8g2\csrc/u8x8_d_sed1330.c ****   /* write_pulse_width_ns = */ 220,		/* G242CX Datasheet p5 */
 143:..\..\u8g2\csrc/u8x8_d_sed1330.c ****   /* tile_width = */ 0x01e,
 144:..\..\u8g2\csrc/u8x8_d_sed1330.c ****   /* tile_hight = */ 16,
 145:..\..\u8g2\csrc/u8x8_d_sed1330.c ****   /* default_x_offset = */ 0,
 146:..\..\u8g2\csrc/u8x8_d_sed1330.c ****   /* flipmode_x_offset = */ 0,
 147:..\..\u8g2\csrc/u8x8_d_sed1330.c ****   /* pixel_width = */ 240,
 148:..\..\u8g2\csrc/u8x8_d_sed1330.c ****   /* pixel_height = */ 128
 149:..\..\u8g2\csrc/u8x8_d_sed1330.c **** };
ARM GAS  C:\Users\gjl\AppData\Local\Temp\cccwAoGJ.s 			page 7


 150:..\..\u8g2\csrc/u8x8_d_sed1330.c **** 
 151:..\..\u8g2\csrc/u8x8_d_sed1330.c **** /* 240x128 Seiko G242C */
 152:..\..\u8g2\csrc/u8x8_d_sed1330.c **** static const uint8_t u8x8_d_sed1330_240x128_init_seq[] = {
 153:..\..\u8g2\csrc/u8x8_d_sed1330.c ****   U8X8_DLY(100),
 154:..\..\u8g2\csrc/u8x8_d_sed1330.c ****   U8X8_START_TRANSFER(),             	/* enable chip, delay is part of the transfer start */
 155:..\..\u8g2\csrc/u8x8_d_sed1330.c ****   U8X8_DLY(100),
 156:..\..\u8g2\csrc/u8x8_d_sed1330.c **** 
 157:..\..\u8g2\csrc/u8x8_d_sed1330.c ****   /* system init command, see also u8x8_d_sed1330_powersave0_seq */
 158:..\..\u8g2\csrc/u8x8_d_sed1330.c ****   U8X8_CA(0x040, 0x030),		/* sys init (0x040) with one arg, where 0x030 is a wild guess */
 159:..\..\u8g2\csrc/u8x8_d_sed1330.c ****   /* system init has total 8 parameters, so 7 more are here */
 160:..\..\u8g2\csrc/u8x8_d_sed1330.c ****   U8X8_A(0x087),				/* no idea here... WF (topmost bit) is set to one because it is suggested in th
 161:..\..\u8g2\csrc/u8x8_d_sed1330.c ****   U8X8_A(0x007),				/* FY: height of a char+1, does not matter here (hopefully), because we use gra
 162:..\..\u8g2\csrc/u8x8_d_sed1330.c ****   U8X8_A(0x01d),				/* C/R: this could be the number of horizontal bytes - 1 (Value confirmed with 
 163:..\..\u8g2\csrc/u8x8_d_sed1330.c ****   U8X8_A(0x050),					/* TC/R: According to app notes fOSC=6Mhz fFF=70Hz --> TC/R = 74d*/
 164:..\..\u8g2\csrc/u8x8_d_sed1330.c ****   U8X8_A(0x080),				/* L/F: Lines per frame - 1, probably this is the height of the display - 1 (va
 165:..\..\u8g2\csrc/u8x8_d_sed1330.c ****   U8X8_A(0x01e),				/* Low byte of the virtual screen size. (Value confirmed with app notes p41)   
 166:..\..\u8g2\csrc/u8x8_d_sed1330.c ****   U8X8_A(0),					/* High byte of the virtual screen size, see also section 9.1.2 */
 167:..\..\u8g2\csrc/u8x8_d_sed1330.c **** 	
 168:..\..\u8g2\csrc/u8x8_d_sed1330.c ****   U8X8_C(0x044),				/* SCROLL */
 169:..\..\u8g2\csrc/u8x8_d_sed1330.c ****   U8X8_A(0x000),				
 170:..\..\u8g2\csrc/u8x8_d_sed1330.c ****   U8X8_A(0x000),				
 171:..\..\u8g2\csrc/u8x8_d_sed1330.c ****   U8X8_A(0x080),
 172:..\..\u8g2\csrc/u8x8_d_sed1330.c ****   U8X8_A(0x000),
 173:..\..\u8g2\csrc/u8x8_d_sed1330.c ****   U8X8_A(0x040),
 174:..\..\u8g2\csrc/u8x8_d_sed1330.c ****   U8X8_A(0x080),
 175:..\..\u8g2\csrc/u8x8_d_sed1330.c ****   U8X8_A(0x000),
 176:..\..\u8g2\csrc/u8x8_d_sed1330.c ****   U8X8_A(0x000),
 177:..\..\u8g2\csrc/u8x8_d_sed1330.c ****   U8X8_A(0x000),
 178:..\..\u8g2\csrc/u8x8_d_sed1330.c ****   U8X8_A(0x000),
 179:..\..\u8g2\csrc/u8x8_d_sed1330.c **** 	
 180:..\..\u8g2\csrc/u8x8_d_sed1330.c ****   U8X8_CA(0x05a, 0),			/* HDOT SCR: Horizontal dotwise scroll... set to 0 */
 181:..\..\u8g2\csrc/u8x8_d_sed1330.c **** 	
 182:..\..\u8g2\csrc/u8x8_d_sed1330.c ****   U8X8_CA(0x05b, 0x0c),			/* OVLAY: 2-layer, all graphics, OR between layer 1 and 2 */
 183:..\..\u8g2\csrc/u8x8_d_sed1330.c **** 
 184:..\..\u8g2\csrc/u8x8_d_sed1330.c **** 
 185:..\..\u8g2\csrc/u8x8_d_sed1330.c ****   U8X8_DLY(100),
 186:..\..\u8g2\csrc/u8x8_d_sed1330.c ****   U8X8_END_TRANSFER(),             	/* disable chip */
 187:..\..\u8g2\csrc/u8x8_d_sed1330.c ****   U8X8_DLY(100),
 188:..\..\u8g2\csrc/u8x8_d_sed1330.c **** };
 189:..\..\u8g2\csrc/u8x8_d_sed1330.c **** 
 190:..\..\u8g2\csrc/u8x8_d_sed1330.c **** /* RA8835 NHD-240128BZ */
 191:..\..\u8g2\csrc/u8x8_d_sed1330.c **** static const uint8_t u8x8_d_rh8835_nhd_240128_init_seq[] = {
 192:..\..\u8g2\csrc/u8x8_d_sed1330.c ****   U8X8_DLY(100),
 193:..\..\u8g2\csrc/u8x8_d_sed1330.c ****   U8X8_START_TRANSFER(),             	/* enable chip, delay is part of the transfer start */
 194:..\..\u8g2\csrc/u8x8_d_sed1330.c ****   U8X8_DLY(100),
 195:..\..\u8g2\csrc/u8x8_d_sed1330.c **** 
 196:..\..\u8g2\csrc/u8x8_d_sed1330.c ****   /* system init command, see also u8x8_d_sed1330_powersave0_seq */
 197:..\..\u8g2\csrc/u8x8_d_sed1330.c ****   U8X8_CA(0x040, 0x030),		/* sys init (0x040) with one arg, where 0x030 is a wild guess */
 198:..\..\u8g2\csrc/u8x8_d_sed1330.c ****   /* system init has total 8 parameters, so 7 more are here */
 199:..\..\u8g2\csrc/u8x8_d_sed1330.c ****   U8X8_A(0x087),				/* no idea here... WF (topmost bit) is set to one because it is suggested in th
 200:..\..\u8g2\csrc/u8x8_d_sed1330.c ****   U8X8_A(0x007),				/* FY: height of a char+1, does not matter here (hopefully), because we use gra
 201:..\..\u8g2\csrc/u8x8_d_sed1330.c ****   U8X8_A(0x01d),				/* C/R: this could be the number of horizontal bytes - 1 (Value confirmed with 
 202:..\..\u8g2\csrc/u8x8_d_sed1330.c ****   U8X8_A(0x050),					/* TC/R: According to app notes fOSC=6Mhz fFF=70Hz --> TC/R = 74d*/
 203:..\..\u8g2\csrc/u8x8_d_sed1330.c ****   U8X8_A(0x080),				/* L/F: Lines per frame - 1, probably this is the height of the display - 1 (va
 204:..\..\u8g2\csrc/u8x8_d_sed1330.c ****   U8X8_A(0x01e),				/* Low byte of the virtual screen size. (Value confirmed with app notes p41)   
 205:..\..\u8g2\csrc/u8x8_d_sed1330.c ****   U8X8_A(0),					/* High byte of the virtual screen size, see also section 9.1.2 */
 206:..\..\u8g2\csrc/u8x8_d_sed1330.c **** 
ARM GAS  C:\Users\gjl\AppData\Local\Temp\cccwAoGJ.s 			page 8


 207:..\..\u8g2\csrc/u8x8_d_sed1330.c ****   U8X8_C(0x044),				/* SCROLL */
 208:..\..\u8g2\csrc/u8x8_d_sed1330.c ****   U8X8_A(0x000),				
 209:..\..\u8g2\csrc/u8x8_d_sed1330.c ****   U8X8_A(0x000),				
 210:..\..\u8g2\csrc/u8x8_d_sed1330.c ****   U8X8_A(0x080),
 211:..\..\u8g2\csrc/u8x8_d_sed1330.c ****   U8X8_A(0x000),
 212:..\..\u8g2\csrc/u8x8_d_sed1330.c ****   U8X8_A(0x040),
 213:..\..\u8g2\csrc/u8x8_d_sed1330.c ****   U8X8_A(0x080),
 214:..\..\u8g2\csrc/u8x8_d_sed1330.c ****   U8X8_A(0x000),
 215:..\..\u8g2\csrc/u8x8_d_sed1330.c ****   U8X8_A(0x000),
 216:..\..\u8g2\csrc/u8x8_d_sed1330.c ****   U8X8_A(0x000),
 217:..\..\u8g2\csrc/u8x8_d_sed1330.c ****   U8X8_A(0x000),
 218:..\..\u8g2\csrc/u8x8_d_sed1330.c **** 	
 219:..\..\u8g2\csrc/u8x8_d_sed1330.c ****   //U8X8_CA(0x05a, 0),			/* HDOT SCR: Horizontal dotwise scroll... set to 0 */
 220:..\..\u8g2\csrc/u8x8_d_sed1330.c **** 	
 221:..\..\u8g2\csrc/u8x8_d_sed1330.c ****   U8X8_CA(0x05b, 0x0c),			/* OVLAY: 2-layer, all graphics, OR between layer 1 and 2 */
 222:..\..\u8g2\csrc/u8x8_d_sed1330.c **** 
 223:..\..\u8g2\csrc/u8x8_d_sed1330.c ****   //U8X8_CA(0x059, 0x04),               /* send display on command (hex 0x059, see p37 ) */
 224:..\..\u8g2\csrc/u8x8_d_sed1330.c ****   
 225:..\..\u8g2\csrc/u8x8_d_sed1330.c ****   U8X8_DLY(100),
 226:..\..\u8g2\csrc/u8x8_d_sed1330.c ****   U8X8_END_TRANSFER(),             	/* disable chip */
 227:..\..\u8g2\csrc/u8x8_d_sed1330.c ****   U8X8_DLY(100),
 228:..\..\u8g2\csrc/u8x8_d_sed1330.c ****   
 229:..\..\u8g2\csrc/u8x8_d_sed1330.c **** };
 230:..\..\u8g2\csrc/u8x8_d_sed1330.c **** 
 231:..\..\u8g2\csrc/u8x8_d_sed1330.c **** 
 232:..\..\u8g2\csrc/u8x8_d_sed1330.c **** uint8_t u8x8_d_sed1330_240x128(u8x8_t *u8x8, uint8_t msg, uint8_t arg_int, void *arg_ptr)
 233:..\..\u8g2\csrc/u8x8_d_sed1330.c **** {
 187              		.loc 1 233 0
 188              		.cfi_startproc
 189              		@ args = 0, pretend = 0, frame = 0
 190              		@ frame_needed = 0, uses_anonymous_args = 0
 191              	.LVL27:
 192 0000 10B5     		push	{r4, lr}
 193              		.cfi_def_cfa_offset 8
 194              		.cfi_offset 4, -8
 195              		.cfi_offset 14, -4
 196              		.loc 1 233 0
 197 0002 0400     		movs	r4, r0
 234:..\..\u8g2\csrc/u8x8_d_sed1330.c ****   switch(msg)
 198              		.loc 1 234 0
 199 0004 0929     		cmp	r1, #9
 200 0006 09D0     		beq	.L18
 201 0008 0A29     		cmp	r1, #10
 202 000a 0DD1     		bne	.L23
 235:..\..\u8g2\csrc/u8x8_d_sed1330.c ****   {
 236:..\..\u8g2\csrc/u8x8_d_sed1330.c ****     case U8X8_MSG_DISPLAY_SETUP_MEMORY:
 237:..\..\u8g2\csrc/u8x8_d_sed1330.c ****       u8x8_d_helper_display_setup_memory(u8x8, &u8x8_sed1330_240x128_display_info);
 238:..\..\u8g2\csrc/u8x8_d_sed1330.c ****       break;
 239:..\..\u8g2\csrc/u8x8_d_sed1330.c ****     case U8X8_MSG_DISPLAY_INIT:
 240:..\..\u8g2\csrc/u8x8_d_sed1330.c ****       u8x8_d_helper_display_init(u8x8);
 203              		.loc 1 240 0
 204 000c FFF7FEFF 		bl	u8x8_d_helper_display_init
 205              	.LVL28:
 241:..\..\u8g2\csrc/u8x8_d_sed1330.c ****       u8x8_cad_SendSequence(u8x8, u8x8_d_sed1330_240x128_init_seq);
 206              		.loc 1 241 0
 207 0010 0749     		ldr	r1, .L24
 208 0012 2000     		movs	r0, r4
ARM GAS  C:\Users\gjl\AppData\Local\Temp\cccwAoGJ.s 			page 9


 209 0014 2C31     		adds	r1, r1, #44
 210 0016 FFF7FEFF 		bl	u8x8_cad_SendSequence
 211              	.LVL29:
 212 001a 03E0     		b	.L22
 213              	.LVL30:
 214              	.L18:
 237:..\..\u8g2\csrc/u8x8_d_sed1330.c ****       break;
 215              		.loc 1 237 0
 216 001c 0449     		ldr	r1, .L24
 217              	.LVL31:
 218 001e 1431     		adds	r1, r1, #20
 219 0020 FFF7FEFF 		bl	u8x8_d_helper_display_setup_memory
 220              	.LVL32:
 221              	.L22:
 242:..\..\u8g2\csrc/u8x8_d_sed1330.c ****       break;
 243:..\..\u8g2\csrc/u8x8_d_sed1330.c ****     default:
 244:..\..\u8g2\csrc/u8x8_d_sed1330.c ****       return u8x8_d_sed1330_common(u8x8, msg, arg_int, arg_ptr);
 245:..\..\u8g2\csrc/u8x8_d_sed1330.c ****   }
 246:..\..\u8g2\csrc/u8x8_d_sed1330.c ****   return 1;
 222              		.loc 1 246 0
 223 0024 0120     		movs	r0, #1
 242:..\..\u8g2\csrc/u8x8_d_sed1330.c ****       break;
 224              		.loc 1 242 0
 225 0026 01E0     		b	.L20
 226              	.LVL33:
 227              	.L23:
 244:..\..\u8g2\csrc/u8x8_d_sed1330.c ****   }
 228              		.loc 1 244 0
 229 0028 FFF7FEFF 		bl	u8x8_d_sed1330_common
 230              	.LVL34:
 231              	.L20:
 247:..\..\u8g2\csrc/u8x8_d_sed1330.c **** }
 232              		.loc 1 247 0
 233              		@ sp needed
 234              	.LVL35:
 235 002c 10BD     		pop	{r4, pc}
 236              	.L25:
 237 002e C046     		.align	2
 238              	.L24:
 239 0030 00000000 		.word	.LANCHOR0
 240              		.cfi_endproc
 241              	.LFE1:
 242              		.size	u8x8_d_sed1330_240x128, .-u8x8_d_sed1330_240x128
 243              		.section	.text.u8x8_d_ra8835_nhd_240x128,"ax",%progbits
 244              		.align	1
 245              		.global	u8x8_d_ra8835_nhd_240x128
 246              		.code	16
 247              		.thumb_func
 248              		.type	u8x8_d_ra8835_nhd_240x128, %function
 249              	u8x8_d_ra8835_nhd_240x128:
 250              	.LFB2:
 248:..\..\u8g2\csrc/u8x8_d_sed1330.c **** 
 249:..\..\u8g2\csrc/u8x8_d_sed1330.c **** 
 250:..\..\u8g2\csrc/u8x8_d_sed1330.c **** uint8_t u8x8_d_ra8835_nhd_240x128(u8x8_t *u8x8, uint8_t msg, uint8_t arg_int, void *arg_ptr)
 251:..\..\u8g2\csrc/u8x8_d_sed1330.c **** {
 251              		.loc 1 251 0
 252              		.cfi_startproc
ARM GAS  C:\Users\gjl\AppData\Local\Temp\cccwAoGJ.s 			page 10


 253              		@ args = 0, pretend = 0, frame = 0
 254              		@ frame_needed = 0, uses_anonymous_args = 0
 255              	.LVL36:
 256 0000 10B5     		push	{r4, lr}
 257              		.cfi_def_cfa_offset 8
 258              		.cfi_offset 4, -8
 259              		.cfi_offset 14, -4
 260              		.loc 1 251 0
 261 0002 0400     		movs	r4, r0
 252:..\..\u8g2\csrc/u8x8_d_sed1330.c ****   switch(msg)
 262              		.loc 1 252 0
 263 0004 0929     		cmp	r1, #9
 264 0006 09D0     		beq	.L28
 265 0008 0A29     		cmp	r1, #10
 266 000a 0DD1     		bne	.L33
 253:..\..\u8g2\csrc/u8x8_d_sed1330.c ****   {
 254:..\..\u8g2\csrc/u8x8_d_sed1330.c ****     case U8X8_MSG_DISPLAY_SETUP_MEMORY:
 255:..\..\u8g2\csrc/u8x8_d_sed1330.c ****       u8x8_d_helper_display_setup_memory(u8x8, &u8x8_sed1330_240x128_display_info);
 256:..\..\u8g2\csrc/u8x8_d_sed1330.c ****       break;
 257:..\..\u8g2\csrc/u8x8_d_sed1330.c ****     case U8X8_MSG_DISPLAY_INIT:
 258:..\..\u8g2\csrc/u8x8_d_sed1330.c ****       u8x8_d_helper_display_init(u8x8);
 267              		.loc 1 258 0
 268 000c FFF7FEFF 		bl	u8x8_d_helper_display_init
 269              	.LVL37:
 259:..\..\u8g2\csrc/u8x8_d_sed1330.c ****       u8x8_cad_SendSequence(u8x8, u8x8_d_rh8835_nhd_240128_init_seq);
 270              		.loc 1 259 0
 271 0010 0749     		ldr	r1, .L34
 272 0012 2000     		movs	r0, r4
 273 0014 6631     		adds	r1, r1, #102
 274 0016 FFF7FEFF 		bl	u8x8_cad_SendSequence
 275              	.LVL38:
 276 001a 03E0     		b	.L32
 277              	.LVL39:
 278              	.L28:
 255:..\..\u8g2\csrc/u8x8_d_sed1330.c ****       break;
 279              		.loc 1 255 0
 280 001c 0449     		ldr	r1, .L34
 281              	.LVL40:
 282 001e 1431     		adds	r1, r1, #20
 283 0020 FFF7FEFF 		bl	u8x8_d_helper_display_setup_memory
 284              	.LVL41:
 285              	.L32:
 260:..\..\u8g2\csrc/u8x8_d_sed1330.c ****       break;
 261:..\..\u8g2\csrc/u8x8_d_sed1330.c ****     default:
 262:..\..\u8g2\csrc/u8x8_d_sed1330.c ****       return u8x8_d_sed1330_common(u8x8, msg, arg_int, arg_ptr);
 263:..\..\u8g2\csrc/u8x8_d_sed1330.c ****   }
 264:..\..\u8g2\csrc/u8x8_d_sed1330.c ****   return 1;
 286              		.loc 1 264 0
 287 0024 0120     		movs	r0, #1
 260:..\..\u8g2\csrc/u8x8_d_sed1330.c ****       break;
 288              		.loc 1 260 0
 289 0026 01E0     		b	.L30
 290              	.LVL42:
 291              	.L33:
 262:..\..\u8g2\csrc/u8x8_d_sed1330.c ****   }
 292              		.loc 1 262 0
 293 0028 FFF7FEFF 		bl	u8x8_d_sed1330_common
ARM GAS  C:\Users\gjl\AppData\Local\Temp\cccwAoGJ.s 			page 11


 294              	.LVL43:
 295              	.L30:
 265:..\..\u8g2\csrc/u8x8_d_sed1330.c **** }
 296              		.loc 1 265 0
 297              		@ sp needed
 298              	.LVL44:
 299 002c 10BD     		pop	{r4, pc}
 300              	.L35:
 301 002e C046     		.align	2
 302              	.L34:
 303 0030 00000000 		.word	.LANCHOR0
 304              		.cfi_endproc
 305              	.LFE2:
 306              		.size	u8x8_d_ra8835_nhd_240x128, .-u8x8_d_ra8835_nhd_240x128
 307              		.section	.rodata
 308              		.align	2
 309              		.set	.LANCHOR0,. + 0
 310              		.type	u8x8_d_sed1330_powersave0_seq, %object
 311              		.size	u8x8_d_sed1330_powersave0_seq, 11
 312              	u8x8_d_sed1330_powersave0_seq:
 313 0000 18       		.byte	24
 314 0001 15       		.byte	21
 315 0002 40       		.byte	64
 316 0003 16       		.byte	22
 317 0004 30       		.byte	48
 318 0005 15       		.byte	21
 319 0006 59       		.byte	89
 320 0007 16       		.byte	22
 321 0008 04       		.byte	4
 322 0009 19       		.byte	25
 323 000a FF       		.byte	-1
 324              		.type	u8x8_d_sed1330_powersave1_seq, %object
 325              		.size	u8x8_d_sed1330_powersave1_seq, 7
 326              	u8x8_d_sed1330_powersave1_seq:
 327 000b 18       		.byte	24
 328 000c 15       		.byte	21
 329 000d 58       		.byte	88
 330 000e 16       		.byte	22
 331 000f 00       		.byte	0
 332 0010 19       		.byte	25
 333 0011 FF       		.byte	-1
 334 0012 0000     		.space	2
 335              		.type	u8x8_sed1330_240x128_display_info, %object
 336              		.size	u8x8_sed1330_240x128_display_info, 24
 337              	u8x8_sed1330_240x128_display_info:
 338 0014 00       		.byte	0
 339 0015 01       		.byte	1
 340 0016 1E       		.byte	30
 341 0017 0A       		.byte	10
 342 0018 01       		.byte	1
 343 0019 06       		.byte	6
 344 001a 14       		.byte	20
 345 001b 8C       		.byte	-116
 346 001c 40420F00 		.word	1000000
 347 0020 00       		.byte	0
 348 0021 04       		.byte	4
 349 0022 78       		.byte	120
ARM GAS  C:\Users\gjl\AppData\Local\Temp\cccwAoGJ.s 			page 12


 350 0023 DC       		.byte	-36
 351 0024 1E       		.byte	30
 352 0025 10       		.byte	16
 353 0026 00       		.byte	0
 354 0027 00       		.byte	0
 355 0028 F000     		.short	240
 356 002a 8000     		.short	128
 357              		.type	u8x8_d_sed1330_240x128_init_seq, %object
 358              		.size	u8x8_d_sed1330_240x128_init_seq, 58
 359              	u8x8_d_sed1330_240x128_init_seq:
 360 002c FE       		.byte	-2
 361 002d 64       		.byte	100
 362 002e 18       		.byte	24
 363 002f FE       		.byte	-2
 364 0030 64       		.byte	100
 365 0031 15       		.byte	21
 366 0032 40       		.byte	64
 367 0033 16       		.byte	22
 368 0034 30       		.byte	48
 369 0035 16       		.byte	22
 370 0036 87       		.byte	-121
 371 0037 16       		.byte	22
 372 0038 07       		.byte	7
 373 0039 16       		.byte	22
 374 003a 1D       		.byte	29
 375 003b 16       		.byte	22
 376 003c 50       		.byte	80
 377 003d 16       		.byte	22
 378 003e 80       		.byte	-128
 379 003f 16       		.byte	22
 380 0040 1E       		.byte	30
 381 0041 16       		.byte	22
 382 0042 00       		.byte	0
 383 0043 15       		.byte	21
 384 0044 44       		.byte	68
 385 0045 16       		.byte	22
 386 0046 00       		.byte	0
 387 0047 16       		.byte	22
 388 0048 00       		.byte	0
 389 0049 16       		.byte	22
 390 004a 80       		.byte	-128
 391 004b 16       		.byte	22
 392 004c 00       		.byte	0
 393 004d 16       		.byte	22
 394 004e 40       		.byte	64
 395 004f 16       		.byte	22
 396 0050 80       		.byte	-128
 397 0051 16       		.byte	22
 398 0052 00       		.byte	0
 399 0053 16       		.byte	22
 400 0054 00       		.byte	0
 401 0055 16       		.byte	22
 402 0056 00       		.byte	0
 403 0057 16       		.byte	22
 404 0058 00       		.byte	0
 405 0059 15       		.byte	21
 406 005a 5A       		.byte	90
ARM GAS  C:\Users\gjl\AppData\Local\Temp\cccwAoGJ.s 			page 13


 407 005b 16       		.byte	22
 408 005c 00       		.byte	0
 409 005d 15       		.byte	21
 410 005e 5B       		.byte	91
 411 005f 16       		.byte	22
 412 0060 0C       		.byte	12
 413 0061 FE       		.byte	-2
 414 0062 64       		.byte	100
 415 0063 19       		.byte	25
 416 0064 FE       		.byte	-2
 417 0065 64       		.byte	100
 418              		.type	u8x8_d_rh8835_nhd_240128_init_seq, %object
 419              		.size	u8x8_d_rh8835_nhd_240128_init_seq, 54
 420              	u8x8_d_rh8835_nhd_240128_init_seq:
 421 0066 FE       		.byte	-2
 422 0067 64       		.byte	100
 423 0068 18       		.byte	24
 424 0069 FE       		.byte	-2
 425 006a 64       		.byte	100
 426 006b 15       		.byte	21
 427 006c 40       		.byte	64
 428 006d 16       		.byte	22
 429 006e 30       		.byte	48
 430 006f 16       		.byte	22
 431 0070 87       		.byte	-121
 432 0071 16       		.byte	22
 433 0072 07       		.byte	7
 434 0073 16       		.byte	22
 435 0074 1D       		.byte	29
 436 0075 16       		.byte	22
 437 0076 50       		.byte	80
 438 0077 16       		.byte	22
 439 0078 80       		.byte	-128
 440 0079 16       		.byte	22
 441 007a 1E       		.byte	30
 442 007b 16       		.byte	22
 443 007c 00       		.byte	0
 444 007d 15       		.byte	21
 445 007e 44       		.byte	68
 446 007f 16       		.byte	22
 447 0080 00       		.byte	0
 448 0081 16       		.byte	22
 449 0082 00       		.byte	0
 450 0083 16       		.byte	22
 451 0084 80       		.byte	-128
 452 0085 16       		.byte	22
 453 0086 00       		.byte	0
 454 0087 16       		.byte	22
 455 0088 40       		.byte	64
 456 0089 16       		.byte	22
 457 008a 80       		.byte	-128
 458 008b 16       		.byte	22
 459 008c 00       		.byte	0
 460 008d 16       		.byte	22
 461 008e 00       		.byte	0
 462 008f 16       		.byte	22
 463 0090 00       		.byte	0
ARM GAS  C:\Users\gjl\AppData\Local\Temp\cccwAoGJ.s 			page 14


 464 0091 16       		.byte	22
 465 0092 00       		.byte	0
 466 0093 15       		.byte	21
 467 0094 5B       		.byte	91
 468 0095 16       		.byte	22
 469 0096 0C       		.byte	12
 470 0097 FE       		.byte	-2
 471 0098 64       		.byte	100
 472 0099 19       		.byte	25
 473 009a FE       		.byte	-2
 474 009b 64       		.byte	100
 475              		.text
 476              	.Letext0:
 477              		.file 2 "c:\\program files (x86)\\cypress\\psoc creator\\4.1\\psoc creator\\import\\gnu\\arm\\5.4.
 478              		.file 3 "c:\\program files (x86)\\cypress\\psoc creator\\4.1\\psoc creator\\import\\gnu\\arm\\5.4.
 479              		.file 4 "..\\..\\u8g2\\csrc\\u8x8.h"