ARM GAS  C:\Users\Greg\AppData\Local\Temp\ccXdYwfY.s 			page 1


   1              		.syntax unified
   2              		.cpu cortex-m0
   3              		.fpu softvfp
   4              		.eabi_attribute 20, 1
   5              		.eabi_attribute 21, 1
   6              		.eabi_attribute 23, 3
   7              		.eabi_attribute 24, 1
   8              		.eabi_attribute 25, 1
   9              		.eabi_attribute 26, 1
  10              		.eabi_attribute 30, 4
  11              		.eabi_attribute 34, 0
  12              		.eabi_attribute 18, 4
  13              		.thumb
  14              		.syntax unified
  15              		.file	"u8x8_d_uc1610.c"
  16              		.text
  17              	.Ltext0:
  18              		.cfi_sections	.debug_frame
  19              		.section	.text.u8x8_d_uc1610_ea_dogxl160,"ax",%progbits
  20              		.align	1
  21              		.global	u8x8_d_uc1610_ea_dogxl160
  22              		.code	16
  23              		.thumb_func
  24              		.type	u8x8_d_uc1610_ea_dogxl160, %function
  25              	u8x8_d_uc1610_ea_dogxl160:
  26              	.LFB1:
  27              		.file 1 "..\\..\\u8g2\\csrc\\u8x8_d_uc1610.c"
   1:..\..\u8g2\csrc/u8x8_d_uc1610.c **** /*
   2:..\..\u8g2\csrc/u8x8_d_uc1610.c **** 
   3:..\..\u8g2\csrc/u8x8_d_uc1610.c ****   u8x8_d_uc1610.c
   4:..\..\u8g2\csrc/u8x8_d_uc1610.c ****   
   5:..\..\u8g2\csrc/u8x8_d_uc1610.c ****   Universal 8bit Graphics Library (https://github.com/olikraus/u8g2/)
   6:..\..\u8g2\csrc/u8x8_d_uc1610.c **** 
   7:..\..\u8g2\csrc/u8x8_d_uc1610.c ****   Copyright (c) 2016, olikraus@gmail.com
   8:..\..\u8g2\csrc/u8x8_d_uc1610.c ****   All rights reserved.
   9:..\..\u8g2\csrc/u8x8_d_uc1610.c **** 
  10:..\..\u8g2\csrc/u8x8_d_uc1610.c ****   Redistribution and use in source and binary forms, with or without modification, 
  11:..\..\u8g2\csrc/u8x8_d_uc1610.c ****   are permitted provided that the following conditions are met:
  12:..\..\u8g2\csrc/u8x8_d_uc1610.c **** 
  13:..\..\u8g2\csrc/u8x8_d_uc1610.c ****   * Redistributions of source code must retain the above copyright notice, this list 
  14:..\..\u8g2\csrc/u8x8_d_uc1610.c ****     of conditions and the following disclaimer.
  15:..\..\u8g2\csrc/u8x8_d_uc1610.c ****     
  16:..\..\u8g2\csrc/u8x8_d_uc1610.c ****   * Redistributions in binary form must reproduce the above copyright notice, this 
  17:..\..\u8g2\csrc/u8x8_d_uc1610.c ****     list of conditions and the following disclaimer in the documentation and/or other 
  18:..\..\u8g2\csrc/u8x8_d_uc1610.c ****     materials provided with the distribution.
  19:..\..\u8g2\csrc/u8x8_d_uc1610.c **** 
  20:..\..\u8g2\csrc/u8x8_d_uc1610.c ****   THIS SOFTWARE IS PROVIDED BY THE COPYRIGHT HOLDERS AND 
  21:..\..\u8g2\csrc/u8x8_d_uc1610.c ****   CONTRIBUTORS "AS IS" AND ANY EXPRESS OR IMPLIED WARRANTIES, 
  22:..\..\u8g2\csrc/u8x8_d_uc1610.c ****   INCLUDING, BUT NOT LIMITED TO, THE IMPLIED WARRANTIES OF 
  23:..\..\u8g2\csrc/u8x8_d_uc1610.c ****   MERCHANTABILITY AND FITNESS FOR A PARTICULAR PURPOSE ARE 
  24:..\..\u8g2\csrc/u8x8_d_uc1610.c ****   DISCLAIMED. IN NO EVENT SHALL THE COPYRIGHT HOLDER OR 
  25:..\..\u8g2\csrc/u8x8_d_uc1610.c ****   CONTRIBUTORS BE LIABLE FOR ANY DIRECT, INDIRECT, INCIDENTAL, 
  26:..\..\u8g2\csrc/u8x8_d_uc1610.c ****   SPECIAL, EXEMPLARY, OR CONSEQUENTIAL DAMAGES (INCLUDING, BUT 
  27:..\..\u8g2\csrc/u8x8_d_uc1610.c ****   NOT LIMITED TO, PROCUREMENT OF SUBSTITUTE GOODS OR SERVICES; 
  28:..\..\u8g2\csrc/u8x8_d_uc1610.c ****   LOSS OF USE, DATA, OR PROFITS; OR BUSINESS INTERRUPTION) HOWEVER 
  29:..\..\u8g2\csrc/u8x8_d_uc1610.c ****   CAUSED AND ON ANY THEORY OF LIABILITY, WHETHER IN CONTRACT, 
  30:..\..\u8g2\csrc/u8x8_d_uc1610.c ****   STRICT LIABILITY, OR TORT (INCLUDING NEGLIGENCE OR OTHERWISE) 
ARM GAS  C:\Users\Greg\AppData\Local\Temp\ccXdYwfY.s 			page 2


  31:..\..\u8g2\csrc/u8x8_d_uc1610.c ****   ARISING IN ANY WAY OUT OF THE USE OF THIS SOFTWARE, EVEN IF 
  32:..\..\u8g2\csrc/u8x8_d_uc1610.c ****   ADVISED OF THE POSSIBILITY OF SUCH DAMAGE.  
  33:..\..\u8g2\csrc/u8x8_d_uc1610.c **** 
  34:..\..\u8g2\csrc/u8x8_d_uc1610.c ****   
  35:..\..\u8g2\csrc/u8x8_d_uc1610.c ****   cad001
  36:..\..\u8g2\csrc/u8x8_d_uc1610.c ****   
  37:..\..\u8g2\csrc/u8x8_d_uc1610.c **** */
  38:..\..\u8g2\csrc/u8x8_d_uc1610.c **** #include "u8x8.h"
  39:..\..\u8g2\csrc/u8x8_d_uc1610.c **** 
  40:..\..\u8g2\csrc/u8x8_d_uc1610.c **** 
  41:..\..\u8g2\csrc/u8x8_d_uc1610.c **** 
  42:..\..\u8g2\csrc/u8x8_d_uc1610.c **** 
  43:..\..\u8g2\csrc/u8x8_d_uc1610.c **** static const uint8_t u8x8_d_uc1610_dogxl160_init_seq[] = {
  44:..\..\u8g2\csrc/u8x8_d_uc1610.c ****     
  45:..\..\u8g2\csrc/u8x8_d_uc1610.c ****   U8X8_START_TRANSFER(),             	/* enable chip, delay is part of the transfer start */
  46:..\..\u8g2\csrc/u8x8_d_uc1610.c **** 
  47:..\..\u8g2\csrc/u8x8_d_uc1610.c ****   U8X8_CA(0x0f1, 0x067),		/* set COM end (display height-1) */
  48:..\..\u8g2\csrc/u8x8_d_uc1610.c ****   U8X8_C(0x0c0),            			/* SEG & COM normal */
  49:..\..\u8g2\csrc/u8x8_d_uc1610.c ****   U8X8_C(0x040),            			/* set scroll line lsb to zero */
  50:..\..\u8g2\csrc/u8x8_d_uc1610.c ****   U8X8_C(0x050),            			/* set scroll line msb to zero */
  51:..\..\u8g2\csrc/u8x8_d_uc1610.c ****   U8X8_C(0x02b),            			/* set panelloading */
  52:..\..\u8g2\csrc/u8x8_d_uc1610.c ****   U8X8_C(0x0eb),            			/* set bias 1/2 */  
  53:..\..\u8g2\csrc/u8x8_d_uc1610.c ****   U8X8_CA(0x081, 0x05f),            	/* set contrast */
  54:..\..\u8g2\csrc/u8x8_d_uc1610.c ****   
  55:..\..\u8g2\csrc/u8x8_d_uc1610.c ****   /*
  56:..\..\u8g2\csrc/u8x8_d_uc1610.c ****     AC0:	0: stop at boundary, 1: increment by one
  57:..\..\u8g2\csrc/u8x8_d_uc1610.c ****     AC1: 	0: first column then page, 1: first page, then column increment
  58:..\..\u8g2\csrc/u8x8_d_uc1610.c ****     AC2:	0: increment page adr, 1: decrement page adr.
  59:..\..\u8g2\csrc/u8x8_d_uc1610.c ****   */
  60:..\..\u8g2\csrc/u8x8_d_uc1610.c ****   U8X8_C(0x08b),            			/* set auto increment, low bits are AC2 AC1 AC0 */
  61:..\..\u8g2\csrc/u8x8_d_uc1610.c ****   
  62:..\..\u8g2\csrc/u8x8_d_uc1610.c ****   /*
  63:..\..\u8g2\csrc/u8x8_d_uc1610.c ****     LC0:	0
  64:..\..\u8g2\csrc/u8x8_d_uc1610.c ****     MX:	Mirror X
  65:..\..\u8g2\csrc/u8x8_d_uc1610.c ****     MY:	Mirror Y
  66:..\..\u8g2\csrc/u8x8_d_uc1610.c ****   */  
  67:..\..\u8g2\csrc/u8x8_d_uc1610.c ****   U8X8_C(0x0c0),            			/* low bits are MY, MX, LC0 */
  68:..\..\u8g2\csrc/u8x8_d_uc1610.c ****   
  69:..\..\u8g2\csrc/u8x8_d_uc1610.c ****   U8X8_C(0x0f8),            			// window mode off
  70:..\..\u8g2\csrc/u8x8_d_uc1610.c ****   U8X8_C(0x010),		                // col high
  71:..\..\u8g2\csrc/u8x8_d_uc1610.c ****   U8X8_C(0x000),		                // col low
  72:..\..\u8g2\csrc/u8x8_d_uc1610.c ****   U8X8_C(0x0b0),		                // page
  73:..\..\u8g2\csrc/u8x8_d_uc1610.c ****   
  74:..\..\u8g2\csrc/u8x8_d_uc1610.c ****   U8X8_C(0x0a6),            			/* set normal pixel mode (not inverse) */
  75:..\..\u8g2\csrc/u8x8_d_uc1610.c ****   U8X8_C(0x0a4),            			/* set normal pixel mode (not all on) */
  76:..\..\u8g2\csrc/u8x8_d_uc1610.c **** 
  77:..\..\u8g2\csrc/u8x8_d_uc1610.c ****   /* test code 
  78:..\..\u8g2\csrc/u8x8_d_uc1610.c ****   U8X8_C(0x0af),		                // display on 
  79:..\..\u8g2\csrc/u8x8_d_uc1610.c ****   U8X8_C(0x0f8),            			// window mode off
  80:..\..\u8g2\csrc/u8x8_d_uc1610.c ****   U8X8_CA(0x0f4, 0),			// set window
  81:..\..\u8g2\csrc/u8x8_d_uc1610.c ****   U8X8_CA(0x0f5, 0),
  82:..\..\u8g2\csrc/u8x8_d_uc1610.c ****   U8X8_CA(0x0f6, 4),
  83:..\..\u8g2\csrc/u8x8_d_uc1610.c ****   U8X8_CA(0x0f7, 1),
  84:..\..\u8g2\csrc/u8x8_d_uc1610.c ****   U8X8_C(0x0f9),            			// window mode on
  85:..\..\u8g2\csrc/u8x8_d_uc1610.c ****   U8X8_D1(0x03),
  86:..\..\u8g2\csrc/u8x8_d_uc1610.c ****   U8X8_D1(0x0c0),
  87:..\..\u8g2\csrc/u8x8_d_uc1610.c ****   U8X8_D1(0x0ff),
ARM GAS  C:\Users\Greg\AppData\Local\Temp\ccXdYwfY.s 			page 3


  88:..\..\u8g2\csrc/u8x8_d_uc1610.c ****   U8X8_D1(0x0ff),
  89:..\..\u8g2\csrc/u8x8_d_uc1610.c ****   U8X8_D1(0x0ff),
  90:..\..\u8g2\csrc/u8x8_d_uc1610.c ****   U8X8_D1(0x0ff),
  91:..\..\u8g2\csrc/u8x8_d_uc1610.c ****   U8X8_D1(0x0ff),
  92:..\..\u8g2\csrc/u8x8_d_uc1610.c ****   U8X8_D1(0x0ff),
  93:..\..\u8g2\csrc/u8x8_d_uc1610.c ****   */
  94:..\..\u8g2\csrc/u8x8_d_uc1610.c ****   
  95:..\..\u8g2\csrc/u8x8_d_uc1610.c ****   U8X8_END_TRANSFER(),             	/* disable chip */
  96:..\..\u8g2\csrc/u8x8_d_uc1610.c ****   U8X8_END()             			/* end of sequence */
  97:..\..\u8g2\csrc/u8x8_d_uc1610.c **** };
  98:..\..\u8g2\csrc/u8x8_d_uc1610.c **** 
  99:..\..\u8g2\csrc/u8x8_d_uc1610.c **** static const uint8_t u8x8_d_uc1610_dogxl160_powersave0_seq[] = {
 100:..\..\u8g2\csrc/u8x8_d_uc1610.c ****   U8X8_START_TRANSFER(),             	/* enable chip, delay is part of the transfer start */
 101:..\..\u8g2\csrc/u8x8_d_uc1610.c ****   U8X8_C(0x0af),		                /* display on, UC1610 */
 102:..\..\u8g2\csrc/u8x8_d_uc1610.c ****   U8X8_END_TRANSFER(),             	/* disable chip */
 103:..\..\u8g2\csrc/u8x8_d_uc1610.c ****   U8X8_END()             			/* end of sequence */
 104:..\..\u8g2\csrc/u8x8_d_uc1610.c **** };
 105:..\..\u8g2\csrc/u8x8_d_uc1610.c **** 
 106:..\..\u8g2\csrc/u8x8_d_uc1610.c **** static const uint8_t u8x8_d_uc1610_dogxl160_powersave1_seq[] = {
 107:..\..\u8g2\csrc/u8x8_d_uc1610.c ****   U8X8_START_TRANSFER(),             	/* enable chip, delay is part of the transfer start */
 108:..\..\u8g2\csrc/u8x8_d_uc1610.c ****   U8X8_C(0x0ae),		                /* display off,  UC1610 */
 109:..\..\u8g2\csrc/u8x8_d_uc1610.c ****   U8X8_END_TRANSFER(),             	/* disable chip */
 110:..\..\u8g2\csrc/u8x8_d_uc1610.c ****   U8X8_END()             			/* end of sequence */
 111:..\..\u8g2\csrc/u8x8_d_uc1610.c **** };
 112:..\..\u8g2\csrc/u8x8_d_uc1610.c **** 
 113:..\..\u8g2\csrc/u8x8_d_uc1610.c **** static const uint8_t u8x8_d_uc1610_dogxl160_flip0_seq[] = {
 114:..\..\u8g2\csrc/u8x8_d_uc1610.c ****   U8X8_START_TRANSFER(),             	/* enable chip, delay is part of the transfer start */
 115:..\..\u8g2\csrc/u8x8_d_uc1610.c ****   /*
 116:..\..\u8g2\csrc/u8x8_d_uc1610.c ****     LC0:	0
 117:..\..\u8g2\csrc/u8x8_d_uc1610.c ****     MX:	Mirror X
 118:..\..\u8g2\csrc/u8x8_d_uc1610.c ****     MY:	Mirror Y
 119:..\..\u8g2\csrc/u8x8_d_uc1610.c ****   */  
 120:..\..\u8g2\csrc/u8x8_d_uc1610.c ****   U8X8_C(0x0c0),            			/* low bits are MY, MX, LC0 */
 121:..\..\u8g2\csrc/u8x8_d_uc1610.c ****   U8X8_END_TRANSFER(),             	/* disable chip */
 122:..\..\u8g2\csrc/u8x8_d_uc1610.c ****   U8X8_END()             			/* end of sequence */
 123:..\..\u8g2\csrc/u8x8_d_uc1610.c **** };
 124:..\..\u8g2\csrc/u8x8_d_uc1610.c **** 
 125:..\..\u8g2\csrc/u8x8_d_uc1610.c **** static const uint8_t u8x8_d_uc1610_dogxl160_flip1_seq[] = {
 126:..\..\u8g2\csrc/u8x8_d_uc1610.c ****   U8X8_START_TRANSFER(),             	/* enable chip, delay is part of the transfer start */
 127:..\..\u8g2\csrc/u8x8_d_uc1610.c ****   /*
 128:..\..\u8g2\csrc/u8x8_d_uc1610.c ****     LC0:	0
 129:..\..\u8g2\csrc/u8x8_d_uc1610.c ****     MX:	Mirror X
 130:..\..\u8g2\csrc/u8x8_d_uc1610.c ****     MY:	Mirror Y
 131:..\..\u8g2\csrc/u8x8_d_uc1610.c ****   */  
 132:..\..\u8g2\csrc/u8x8_d_uc1610.c ****   U8X8_C(0x0c6),            			/* low bits are MY, MX, LC0 */
 133:..\..\u8g2\csrc/u8x8_d_uc1610.c ****   U8X8_END_TRANSFER(),             	/* disable chip */
 134:..\..\u8g2\csrc/u8x8_d_uc1610.c ****   U8X8_END()             			/* end of sequence */
 135:..\..\u8g2\csrc/u8x8_d_uc1610.c **** };
 136:..\..\u8g2\csrc/u8x8_d_uc1610.c **** 
 137:..\..\u8g2\csrc/u8x8_d_uc1610.c **** 
 138:..\..\u8g2\csrc/u8x8_d_uc1610.c **** /* 
 139:..\..\u8g2\csrc/u8x8_d_uc1610.c ****   UC1610 has two chip select inputs (CS0 and CS1).
 140:..\..\u8g2\csrc/u8x8_d_uc1610.c ****   CS0 is low active, CS1 is high active. It will depend on the display
 141:..\..\u8g2\csrc/u8x8_d_uc1610.c ****   module whether the display has a is low or high active chip select.
 142:..\..\u8g2\csrc/u8x8_d_uc1610.c **** */
 143:..\..\u8g2\csrc/u8x8_d_uc1610.c **** 
 144:..\..\u8g2\csrc/u8x8_d_uc1610.c **** static const u8x8_display_info_t u8x8_uc1610_display_info =
ARM GAS  C:\Users\Greg\AppData\Local\Temp\ccXdYwfY.s 			page 4


 145:..\..\u8g2\csrc/u8x8_d_uc1610.c **** {
 146:..\..\u8g2\csrc/u8x8_d_uc1610.c ****   /* chip_enable_level = */ 0,
 147:..\..\u8g2\csrc/u8x8_d_uc1610.c ****   /* chip_disable_level = */ 1,
 148:..\..\u8g2\csrc/u8x8_d_uc1610.c ****   
 149:..\..\u8g2\csrc/u8x8_d_uc1610.c ****   /* post_chip_enable_wait_ns = */ 15,
 150:..\..\u8g2\csrc/u8x8_d_uc1610.c ****   /* pre_chip_disable_wait_ns = */ 15,
 151:..\..\u8g2\csrc/u8x8_d_uc1610.c ****   /* reset_pulse_width_ms = */ 1, 
 152:..\..\u8g2\csrc/u8x8_d_uc1610.c ****   /* post_reset_wait_ms = */ 6, 
 153:..\..\u8g2\csrc/u8x8_d_uc1610.c ****   /* sda_setup_time_ns = */ 30,	
 154:..\..\u8g2\csrc/u8x8_d_uc1610.c ****   /* sck_pulse_width_ns = */ 63,	/* half of cycle time (125ns cycle time according to datasheet) --
 155:..\..\u8g2\csrc/u8x8_d_uc1610.c ****   /* sck_clock_hz = */ 8000000UL,	/* since Arduino 1.6.0, the SPI bus speed in Hz. Should be  10000
 156:..\..\u8g2\csrc/u8x8_d_uc1610.c ****   /* spi_mode = */ 0,		/* active high, rising edge */
 157:..\..\u8g2\csrc/u8x8_d_uc1610.c ****   /* i2c_bus_clock_100kHz = */ 4,
 158:..\..\u8g2\csrc/u8x8_d_uc1610.c ****   /* data_setup_time_ns = */ 30,
 159:..\..\u8g2\csrc/u8x8_d_uc1610.c ****   /* write_pulse_width_ns = */ 40,
 160:..\..\u8g2\csrc/u8x8_d_uc1610.c ****   /* tile_width = */ 20,		
 161:..\..\u8g2\csrc/u8x8_d_uc1610.c ****   /* tile_hight = */ 13,		/* height of 13*8=104 pixel */
 162:..\..\u8g2\csrc/u8x8_d_uc1610.c ****   /* default_x_offset = */ 0,
 163:..\..\u8g2\csrc/u8x8_d_uc1610.c ****   /* flipmode_x_offset = */ 0,
 164:..\..\u8g2\csrc/u8x8_d_uc1610.c ****   /* pixel_width = */ 160,
 165:..\..\u8g2\csrc/u8x8_d_uc1610.c ****   /* pixel_height = */ 104
 166:..\..\u8g2\csrc/u8x8_d_uc1610.c **** };
 167:..\..\u8g2\csrc/u8x8_d_uc1610.c **** 
 168:..\..\u8g2\csrc/u8x8_d_uc1610.c **** 
 169:..\..\u8g2\csrc/u8x8_d_uc1610.c **** /*
 170:..\..\u8g2\csrc/u8x8_d_uc1610.c ****   RAM Organization:
 171:..\..\u8g2\csrc/u8x8_d_uc1610.c ****   D0  Pix0
 172:..\..\u8g2\csrc/u8x8_d_uc1610.c ****   D1
 173:..\..\u8g2\csrc/u8x8_d_uc1610.c ****   D2  Pix1
 174:..\..\u8g2\csrc/u8x8_d_uc1610.c ****   D3
 175:..\..\u8g2\csrc/u8x8_d_uc1610.c ****   D4  Pix2
 176:..\..\u8g2\csrc/u8x8_d_uc1610.c ****   D5
 177:..\..\u8g2\csrc/u8x8_d_uc1610.c ****   D6  Pix3
 178:..\..\u8g2\csrc/u8x8_d_uc1610.c ****   D7    
 179:..\..\u8g2\csrc/u8x8_d_uc1610.c ****   D0  Pix4
 180:..\..\u8g2\csrc/u8x8_d_uc1610.c ****   D1
 181:..\..\u8g2\csrc/u8x8_d_uc1610.c ****   D2  Pix5
 182:..\..\u8g2\csrc/u8x8_d_uc1610.c ****   D3
 183:..\..\u8g2\csrc/u8x8_d_uc1610.c ****   D4  Pix6
 184:..\..\u8g2\csrc/u8x8_d_uc1610.c ****   D5
 185:..\..\u8g2\csrc/u8x8_d_uc1610.c ****   D6  Pix7
 186:..\..\u8g2\csrc/u8x8_d_uc1610.c ****   D7    
 187:..\..\u8g2\csrc/u8x8_d_uc1610.c **** 
 188:..\..\u8g2\csrc/u8x8_d_uc1610.c **** 
 189:..\..\u8g2\csrc/u8x8_d_uc1610.c **** */
 190:..\..\u8g2\csrc/u8x8_d_uc1610.c **** static uint8_t *u8x8_convert_tile_for_uc1610(uint8_t *t)
 191:..\..\u8g2\csrc/u8x8_d_uc1610.c **** {
 192:..\..\u8g2\csrc/u8x8_d_uc1610.c ****   uint8_t i;
 193:..\..\u8g2\csrc/u8x8_d_uc1610.c ****   uint16_t r;
 194:..\..\u8g2\csrc/u8x8_d_uc1610.c ****   static uint8_t buf[16];
 195:..\..\u8g2\csrc/u8x8_d_uc1610.c ****   uint8_t *pbuf = buf;
 196:..\..\u8g2\csrc/u8x8_d_uc1610.c **** 
 197:..\..\u8g2\csrc/u8x8_d_uc1610.c ****   for( i = 0; i < 8; i++ )
 198:..\..\u8g2\csrc/u8x8_d_uc1610.c ****   {
 199:..\..\u8g2\csrc/u8x8_d_uc1610.c ****     r = u8x8_upscale_byte(*t++);
 200:..\..\u8g2\csrc/u8x8_d_uc1610.c ****     *pbuf++ = r & 255;
 201:..\..\u8g2\csrc/u8x8_d_uc1610.c ****     r >>= 8;
ARM GAS  C:\Users\Greg\AppData\Local\Temp\ccXdYwfY.s 			page 5


 202:..\..\u8g2\csrc/u8x8_d_uc1610.c ****     *pbuf++ = r;
 203:..\..\u8g2\csrc/u8x8_d_uc1610.c ****   }
 204:..\..\u8g2\csrc/u8x8_d_uc1610.c ****   return buf;
 205:..\..\u8g2\csrc/u8x8_d_uc1610.c **** }
 206:..\..\u8g2\csrc/u8x8_d_uc1610.c **** 
 207:..\..\u8g2\csrc/u8x8_d_uc1610.c **** uint8_t u8x8_d_uc1610_ea_dogxl160(u8x8_t *u8x8, uint8_t msg, uint8_t arg_int, void *arg_ptr)
 208:..\..\u8g2\csrc/u8x8_d_uc1610.c **** {
  28              		.loc 1 208 0
  29              		.cfi_startproc
  30              		@ args = 0, pretend = 0, frame = 16
  31              		@ frame_needed = 0, uses_anonymous_args = 0
  32              	.LVL0:
  33 0000 F0B5     		push	{r4, r5, r6, r7, lr}
  34              		.cfi_def_cfa_offset 20
  35              		.cfi_offset 4, -20
  36              		.cfi_offset 5, -16
  37              		.cfi_offset 6, -12
  38              		.cfi_offset 7, -8
  39              		.cfi_offset 14, -4
 209:..\..\u8g2\csrc/u8x8_d_uc1610.c ****   uint8_t x, c, page;
 210:..\..\u8g2\csrc/u8x8_d_uc1610.c ****   uint8_t *ptr;
 211:..\..\u8g2\csrc/u8x8_d_uc1610.c ****   switch(msg)
  40              		.loc 1 211 0
  41 0002 0939     		subs	r1, r1, #9
  42              	.LVL1:
 208:..\..\u8g2\csrc/u8x8_d_uc1610.c ****   uint8_t x, c, page;
  43              		.loc 1 208 0
  44 0004 85B0     		sub	sp, sp, #20
  45              		.cfi_def_cfa_offset 40
 208:..\..\u8g2\csrc/u8x8_d_uc1610.c ****   uint8_t x, c, page;
  46              		.loc 1 208 0
  47 0006 0400     		movs	r4, r0
  48 0008 1500     		movs	r5, r2
  49 000a 0093     		str	r3, [sp]
  50              		.loc 1 211 0
  51 000c 0800     		movs	r0, r1
  52              	.LVL2:
  53 000e 0629     		cmp	r1, #6
  54 0010 00D9     		bls	.LCB25
  55 0012 9BE0     		b	.L15	@long jump
  56              	.LCB25:
  57 0014 FFF7FEFF 		bl	__gnu_thumb1_case_uqi
  58              	.L4:
  59 0018 04       		.byte	(.L3-.L4)/2
  60 0019 09       		.byte	(.L5-.L4)/2
  61 001a 0F       		.byte	(.L6-.L4)/2
  62 001b 9A       		.byte	(.L15-.L4)/2
  63 001c 19       		.byte	(.L7-.L4)/2
  64 001d 2B       		.byte	(.L8-.L4)/2
  65 001e 3B       		.byte	(.L9-.L4)/2
  66 001f 00       		.p2align 1
  67              	.L3:
 212:..\..\u8g2\csrc/u8x8_d_uc1610.c ****   {
 213:..\..\u8g2\csrc/u8x8_d_uc1610.c ****     case U8X8_MSG_DISPLAY_SETUP_MEMORY:
 214:..\..\u8g2\csrc/u8x8_d_uc1610.c ****       u8x8_d_helper_display_setup_memory(u8x8, &u8x8_uc1610_display_info);
  68              		.loc 1 214 0
  69 0020 4C49     		ldr	r1, .L24
ARM GAS  C:\Users\Greg\AppData\Local\Temp\ccXdYwfY.s 			page 6


  70 0022 2000     		movs	r0, r4
  71 0024 FFF7FEFF 		bl	u8x8_d_helper_display_setup_memory
  72              	.LVL3:
  73 0028 2FE0     		b	.L19
  74              	.LVL4:
  75              	.L5:
 215:..\..\u8g2\csrc/u8x8_d_uc1610.c ****       break;
 216:..\..\u8g2\csrc/u8x8_d_uc1610.c ****     case U8X8_MSG_DISPLAY_INIT:
 217:..\..\u8g2\csrc/u8x8_d_uc1610.c ****       u8x8_d_helper_display_init(u8x8);
  76              		.loc 1 217 0
  77 002a 2000     		movs	r0, r4
  78 002c FFF7FEFF 		bl	u8x8_d_helper_display_init
  79              	.LVL5:
 218:..\..\u8g2\csrc/u8x8_d_uc1610.c ****       u8x8_cad_SendSequence(u8x8, u8x8_d_uc1610_dogxl160_init_seq);
  80              		.loc 1 218 0
  81 0030 4849     		ldr	r1, .L24
  82 0032 1831     		adds	r1, r1, #24
  83 0034 05E0     		b	.L22
  84              	.LVL6:
  85              	.L6:
  86 0036 4749     		ldr	r1, .L24
 219:..\..\u8g2\csrc/u8x8_d_uc1610.c ****       break;
 220:..\..\u8g2\csrc/u8x8_d_uc1610.c ****     case U8X8_MSG_DISPLAY_SET_POWER_SAVE:
 221:..\..\u8g2\csrc/u8x8_d_uc1610.c ****       if ( arg_int == 0 )
  87              		.loc 1 221 0
  88 0038 002A     		cmp	r2, #0
  89 003a 01D1     		bne	.L10
 222:..\..\u8g2\csrc/u8x8_d_uc1610.c **** 	u8x8_cad_SendSequence(u8x8, u8x8_d_uc1610_dogxl160_powersave0_seq);
  90              		.loc 1 222 0
  91 003c 3D31     		adds	r1, r1, #61
  92 003e 00E0     		b	.L22
  93              	.L10:
 223:..\..\u8g2\csrc/u8x8_d_uc1610.c ****       else
 224:..\..\u8g2\csrc/u8x8_d_uc1610.c **** 	u8x8_cad_SendSequence(u8x8, u8x8_d_uc1610_dogxl160_powersave1_seq);
  94              		.loc 1 224 0
  95 0040 4231     		adds	r1, r1, #66
  96              	.LVL7:
  97              	.L22:
  98 0042 2000     		movs	r0, r4
  99 0044 FFF7FEFF 		bl	u8x8_cad_SendSequence
 100              	.LVL8:
 101 0048 1FE0     		b	.L19
 102              	.LVL9:
 103              	.L7:
 104 004a 4249     		ldr	r1, .L24
 225:..\..\u8g2\csrc/u8x8_d_uc1610.c ****       break;
 226:..\..\u8g2\csrc/u8x8_d_uc1610.c ****     case U8X8_MSG_DISPLAY_SET_FLIP_MODE:
 227:..\..\u8g2\csrc/u8x8_d_uc1610.c ****       if ( arg_int == 0 )
 105              		.loc 1 227 0
 106 004c 002A     		cmp	r2, #0
 107 004e 06D1     		bne	.L11
 228:..\..\u8g2\csrc/u8x8_d_uc1610.c ****       {
 229:..\..\u8g2\csrc/u8x8_d_uc1610.c **** 	u8x8_cad_SendSequence(u8x8, u8x8_d_uc1610_dogxl160_flip0_seq);
 108              		.loc 1 229 0
 109 0050 4731     		adds	r1, r1, #71
 110 0052 2000     		movs	r0, r4
 111 0054 FFF7FEFF 		bl	u8x8_cad_SendSequence
ARM GAS  C:\Users\Greg\AppData\Local\Temp\ccXdYwfY.s 			page 7


 112              	.LVL10:
 230:..\..\u8g2\csrc/u8x8_d_uc1610.c **** 	u8x8->x_offset = u8x8->display_info->default_x_offset;
 113              		.loc 1 230 0
 114 0058 2368     		ldr	r3, [r4]
 115 005a 9B7C     		ldrb	r3, [r3, #18]
 116 005c 05E0     		b	.L21
 117              	.LVL11:
 118              	.L11:
 231:..\..\u8g2\csrc/u8x8_d_uc1610.c ****       }
 232:..\..\u8g2\csrc/u8x8_d_uc1610.c ****       else
 233:..\..\u8g2\csrc/u8x8_d_uc1610.c ****       {
 234:..\..\u8g2\csrc/u8x8_d_uc1610.c **** 	u8x8_cad_SendSequence(u8x8, u8x8_d_uc1610_dogxl160_flip1_seq);
 119              		.loc 1 234 0
 120 005e 4C31     		adds	r1, r1, #76
 121 0060 2000     		movs	r0, r4
 122 0062 FFF7FEFF 		bl	u8x8_cad_SendSequence
 123              	.LVL12:
 235:..\..\u8g2\csrc/u8x8_d_uc1610.c **** 	u8x8->x_offset = u8x8->display_info->flipmode_x_offset;
 124              		.loc 1 235 0
 125 0066 2368     		ldr	r3, [r4]
 126 0068 DB7C     		ldrb	r3, [r3, #19]
 127              	.L21:
 128 006a A377     		strb	r3, [r4, #30]
 129 006c 0DE0     		b	.L19
 130              	.LVL13:
 131              	.L8:
 236:..\..\u8g2\csrc/u8x8_d_uc1610.c ****       }	
 237:..\..\u8g2\csrc/u8x8_d_uc1610.c ****       break;
 238:..\..\u8g2\csrc/u8x8_d_uc1610.c **** #ifdef U8X8_WITH_SET_CONTRAST
 239:..\..\u8g2\csrc/u8x8_d_uc1610.c ****     case U8X8_MSG_DISPLAY_SET_CONTRAST:
 240:..\..\u8g2\csrc/u8x8_d_uc1610.c ****       u8x8_cad_StartTransfer(u8x8);
 132              		.loc 1 240 0
 133 006e 2000     		movs	r0, r4
 134 0070 FFF7FEFF 		bl	u8x8_cad_StartTransfer
 135              	.LVL14:
 241:..\..\u8g2\csrc/u8x8_d_uc1610.c ****       u8x8_cad_SendCmd(u8x8, 0x081 );
 136              		.loc 1 241 0
 137 0074 8121     		movs	r1, #129
 138 0076 2000     		movs	r0, r4
 139 0078 FFF7FEFF 		bl	u8x8_cad_SendCmd
 140              	.LVL15:
 242:..\..\u8g2\csrc/u8x8_d_uc1610.c ****       u8x8_cad_SendArg(u8x8, arg_int >> 2 );	/* uc1610 has range from 0 to 63 */
 141              		.loc 1 242 0
 142 007c A908     		lsrs	r1, r5, #2
 143 007e 2000     		movs	r0, r4
 144 0080 FFF7FEFF 		bl	u8x8_cad_SendArg
 145              	.LVL16:
 146              	.L20:
 243:..\..\u8g2\csrc/u8x8_d_uc1610.c ****       u8x8_cad_EndTransfer(u8x8);
 147              		.loc 1 243 0
 148 0084 2000     		movs	r0, r4
 149 0086 FFF7FEFF 		bl	u8x8_cad_EndTransfer
 150              	.LVL17:
 151              	.L19:
 244:..\..\u8g2\csrc/u8x8_d_uc1610.c ****       break;
 245:..\..\u8g2\csrc/u8x8_d_uc1610.c **** #endif
 246:..\..\u8g2\csrc/u8x8_d_uc1610.c ****     case U8X8_MSG_DISPLAY_DRAW_TILE:
ARM GAS  C:\Users\Greg\AppData\Local\Temp\ccXdYwfY.s 			page 8


 247:..\..\u8g2\csrc/u8x8_d_uc1610.c ****       u8x8_cad_StartTransfer(u8x8);
 248:..\..\u8g2\csrc/u8x8_d_uc1610.c **** 
 249:..\..\u8g2\csrc/u8x8_d_uc1610.c ****       x = ((u8x8_tile_t *)arg_ptr)->x_pos;
 250:..\..\u8g2\csrc/u8x8_d_uc1610.c ****       x *= 8;
 251:..\..\u8g2\csrc/u8x8_d_uc1610.c ****       x += u8x8->x_offset;
 252:..\..\u8g2\csrc/u8x8_d_uc1610.c ****     
 253:..\..\u8g2\csrc/u8x8_d_uc1610.c ****       page = (((u8x8_tile_t *)arg_ptr)->y_pos);
 254:..\..\u8g2\csrc/u8x8_d_uc1610.c ****       page *= 2;
 255:..\..\u8g2\csrc/u8x8_d_uc1610.c **** 
 256:..\..\u8g2\csrc/u8x8_d_uc1610.c ****       u8x8_cad_SendCmd(u8x8, 0x0f8 );	/* window disable */
 257:..\..\u8g2\csrc/u8x8_d_uc1610.c ****       
 258:..\..\u8g2\csrc/u8x8_d_uc1610.c ****       //u8x8_cad_SendCmd(u8x8, 0x010 | (x>>4) );
 259:..\..\u8g2\csrc/u8x8_d_uc1610.c ****       //u8x8_cad_SendCmd(u8x8, 0x000 | ((x&15)));
 260:..\..\u8g2\csrc/u8x8_d_uc1610.c ****       //u8x8_cad_SendCmd(u8x8, 0x0b0 | page);
 261:..\..\u8g2\csrc/u8x8_d_uc1610.c **** 
 262:..\..\u8g2\csrc/u8x8_d_uc1610.c ****       u8x8_cad_SendCmd(u8x8, 0x0f4 );	/* window start column */
 263:..\..\u8g2\csrc/u8x8_d_uc1610.c ****       u8x8_cad_SendArg(u8x8, x);
 264:..\..\u8g2\csrc/u8x8_d_uc1610.c ****       u8x8_cad_SendCmd(u8x8, 0x0f5 );	/* window start page */
 265:..\..\u8g2\csrc/u8x8_d_uc1610.c ****       u8x8_cad_SendArg(u8x8, page);
 266:..\..\u8g2\csrc/u8x8_d_uc1610.c ****       u8x8_cad_SendCmd(u8x8, 0x0f6 );	/* window end column */
 267:..\..\u8g2\csrc/u8x8_d_uc1610.c ****       u8x8_cad_SendArg(u8x8, 159);		/* end of display */
 268:..\..\u8g2\csrc/u8x8_d_uc1610.c ****       u8x8_cad_SendCmd(u8x8, 0x0f7 );	/* window end page */
 269:..\..\u8g2\csrc/u8x8_d_uc1610.c ****       u8x8_cad_SendArg(u8x8, page+1);
 270:..\..\u8g2\csrc/u8x8_d_uc1610.c ****       u8x8_cad_SendCmd(u8x8, 0x0f9 );	/* window enable */
 271:..\..\u8g2\csrc/u8x8_d_uc1610.c ****     
 272:..\..\u8g2\csrc/u8x8_d_uc1610.c ****       do
 273:..\..\u8g2\csrc/u8x8_d_uc1610.c ****       {
 274:..\..\u8g2\csrc/u8x8_d_uc1610.c **** 	c = ((u8x8_tile_t *)arg_ptr)->cnt;
 275:..\..\u8g2\csrc/u8x8_d_uc1610.c **** 	ptr = ((u8x8_tile_t *)arg_ptr)->tile_ptr;
 276:..\..\u8g2\csrc/u8x8_d_uc1610.c **** 	
 277:..\..\u8g2\csrc/u8x8_d_uc1610.c **** 	
 278:..\..\u8g2\csrc/u8x8_d_uc1610.c **** 	do
 279:..\..\u8g2\csrc/u8x8_d_uc1610.c **** 	{
 280:..\..\u8g2\csrc/u8x8_d_uc1610.c **** 	  
 281:..\..\u8g2\csrc/u8x8_d_uc1610.c **** 	  
 282:..\..\u8g2\csrc/u8x8_d_uc1610.c **** 	  
 283:..\..\u8g2\csrc/u8x8_d_uc1610.c **** 	  u8x8_cad_SendData(u8x8, 16, u8x8_convert_tile_for_uc1610(ptr));
 284:..\..\u8g2\csrc/u8x8_d_uc1610.c **** 
 285:..\..\u8g2\csrc/u8x8_d_uc1610.c **** 	  
 286:..\..\u8g2\csrc/u8x8_d_uc1610.c **** 	  ptr += 8;
 287:..\..\u8g2\csrc/u8x8_d_uc1610.c **** 	  x += 8;
 288:..\..\u8g2\csrc/u8x8_d_uc1610.c **** 	  c--;
 289:..\..\u8g2\csrc/u8x8_d_uc1610.c **** 	} while( c > 0 );
 290:..\..\u8g2\csrc/u8x8_d_uc1610.c **** 	
 291:..\..\u8g2\csrc/u8x8_d_uc1610.c **** 	arg_int--;
 292:..\..\u8g2\csrc/u8x8_d_uc1610.c ****       } while( arg_int > 0 );
 293:..\..\u8g2\csrc/u8x8_d_uc1610.c ****       
 294:..\..\u8g2\csrc/u8x8_d_uc1610.c ****       u8x8_cad_EndTransfer(u8x8);
 295:..\..\u8g2\csrc/u8x8_d_uc1610.c **** 
 296:..\..\u8g2\csrc/u8x8_d_uc1610.c ****     
 297:..\..\u8g2\csrc/u8x8_d_uc1610.c ****       break;
 298:..\..\u8g2\csrc/u8x8_d_uc1610.c ****     default:
 299:..\..\u8g2\csrc/u8x8_d_uc1610.c ****       return 0;
 300:..\..\u8g2\csrc/u8x8_d_uc1610.c ****   }
 301:..\..\u8g2\csrc/u8x8_d_uc1610.c ****   return 1;
 152              		.loc 1 301 0
 153 008a 0120     		movs	r0, #1
ARM GAS  C:\Users\Greg\AppData\Local\Temp\ccXdYwfY.s 			page 9


 244:..\..\u8g2\csrc/u8x8_d_uc1610.c ****       break;
 154              		.loc 1 244 0
 155 008c 5FE0     		b	.L2
 156              	.LVL18:
 157              	.L9:
 247:..\..\u8g2\csrc/u8x8_d_uc1610.c **** 
 158              		.loc 1 247 0
 159 008e 2000     		movs	r0, r4
 160 0090 FFF7FEFF 		bl	u8x8_cad_StartTransfer
 161              	.LVL19:
 249:..\..\u8g2\csrc/u8x8_d_uc1610.c ****       x *= 8;
 162              		.loc 1 249 0
 163 0094 009B     		ldr	r3, [sp]
 256:..\..\u8g2\csrc/u8x8_d_uc1610.c ****       
 164              		.loc 1 256 0
 165 0096 F821     		movs	r1, #248
 249:..\..\u8g2\csrc/u8x8_d_uc1610.c ****       x *= 8;
 166              		.loc 1 249 0
 167 0098 5F79     		ldrb	r7, [r3, #5]
 168              	.LVL20:
 251:..\..\u8g2\csrc/u8x8_d_uc1610.c ****     
 169              		.loc 1 251 0
 170 009a A37F     		ldrb	r3, [r4, #30]
 250:..\..\u8g2\csrc/u8x8_d_uc1610.c ****       x += u8x8->x_offset;
 171              		.loc 1 250 0
 172 009c FF00     		lsls	r7, r7, #3
 173              	.LVL21:
 251:..\..\u8g2\csrc/u8x8_d_uc1610.c ****     
 174              		.loc 1 251 0
 175 009e FF18     		adds	r7, r7, r3
 176              	.LVL22:
 253:..\..\u8g2\csrc/u8x8_d_uc1610.c ****       page *= 2;
 177              		.loc 1 253 0
 178 00a0 009B     		ldr	r3, [sp]
 256:..\..\u8g2\csrc/u8x8_d_uc1610.c ****       
 179              		.loc 1 256 0
 180 00a2 2000     		movs	r0, r4
 253:..\..\u8g2\csrc/u8x8_d_uc1610.c ****       page *= 2;
 181              		.loc 1 253 0
 182 00a4 9E79     		ldrb	r6, [r3, #6]
 251:..\..\u8g2\csrc/u8x8_d_uc1610.c ****     
 183              		.loc 1 251 0
 184 00a6 FFB2     		uxtb	r7, r7
 185              	.LVL23:
 256:..\..\u8g2\csrc/u8x8_d_uc1610.c ****       
 186              		.loc 1 256 0
 187 00a8 FFF7FEFF 		bl	u8x8_cad_SendCmd
 188              	.LVL24:
 262:..\..\u8g2\csrc/u8x8_d_uc1610.c ****       u8x8_cad_SendArg(u8x8, x);
 189              		.loc 1 262 0
 190 00ac F421     		movs	r1, #244
 191 00ae 2000     		movs	r0, r4
 192 00b0 FFF7FEFF 		bl	u8x8_cad_SendCmd
 193              	.LVL25:
 254:..\..\u8g2\csrc/u8x8_d_uc1610.c **** 
 194              		.loc 1 254 0
 195 00b4 7600     		lsls	r6, r6, #1
ARM GAS  C:\Users\Greg\AppData\Local\Temp\ccXdYwfY.s 			page 10


 196              	.LVL26:
 263:..\..\u8g2\csrc/u8x8_d_uc1610.c ****       u8x8_cad_SendCmd(u8x8, 0x0f5 );	/* window start page */
 197              		.loc 1 263 0
 198 00b6 3900     		movs	r1, r7
 199 00b8 2000     		movs	r0, r4
 200 00ba FFF7FEFF 		bl	u8x8_cad_SendArg
 201              	.LVL27:
 254:..\..\u8g2\csrc/u8x8_d_uc1610.c **** 
 202              		.loc 1 254 0
 203 00be F6B2     		uxtb	r6, r6
 204              	.LVL28:
 264:..\..\u8g2\csrc/u8x8_d_uc1610.c ****       u8x8_cad_SendArg(u8x8, page);
 205              		.loc 1 264 0
 206 00c0 F521     		movs	r1, #245
 207 00c2 2000     		movs	r0, r4
 208 00c4 FFF7FEFF 		bl	u8x8_cad_SendCmd
 209              	.LVL29:
 265:..\..\u8g2\csrc/u8x8_d_uc1610.c ****       u8x8_cad_SendCmd(u8x8, 0x0f6 );	/* window end column */
 210              		.loc 1 265 0
 211 00c8 3100     		movs	r1, r6
 212 00ca 2000     		movs	r0, r4
 213 00cc FFF7FEFF 		bl	u8x8_cad_SendArg
 214              	.LVL30:
 266:..\..\u8g2\csrc/u8x8_d_uc1610.c ****       u8x8_cad_SendArg(u8x8, 159);		/* end of display */
 215              		.loc 1 266 0
 216 00d0 F621     		movs	r1, #246
 217 00d2 2000     		movs	r0, r4
 218 00d4 FFF7FEFF 		bl	u8x8_cad_SendCmd
 219              	.LVL31:
 267:..\..\u8g2\csrc/u8x8_d_uc1610.c ****       u8x8_cad_SendCmd(u8x8, 0x0f7 );	/* window end page */
 220              		.loc 1 267 0
 221 00d8 9F21     		movs	r1, #159
 222 00da 2000     		movs	r0, r4
 223 00dc FFF7FEFF 		bl	u8x8_cad_SendArg
 224              	.LVL32:
 269:..\..\u8g2\csrc/u8x8_d_uc1610.c ****       u8x8_cad_SendCmd(u8x8, 0x0f9 );	/* window enable */
 225              		.loc 1 269 0
 226 00e0 0136     		adds	r6, r6, #1
 227              	.LVL33:
 268:..\..\u8g2\csrc/u8x8_d_uc1610.c ****       u8x8_cad_SendArg(u8x8, page+1);
 228              		.loc 1 268 0
 229 00e2 F721     		movs	r1, #247
 230 00e4 2000     		movs	r0, r4
 231 00e6 FFF7FEFF 		bl	u8x8_cad_SendCmd
 232              	.LVL34:
 269:..\..\u8g2\csrc/u8x8_d_uc1610.c ****       u8x8_cad_SendCmd(u8x8, 0x0f9 );	/* window enable */
 233              		.loc 1 269 0
 234 00ea F1B2     		uxtb	r1, r6
 235 00ec 2000     		movs	r0, r4
 236 00ee FFF7FEFF 		bl	u8x8_cad_SendArg
 237              	.LVL35:
 270:..\..\u8g2\csrc/u8x8_d_uc1610.c ****     
 238              		.loc 1 270 0
 239 00f2 F921     		movs	r1, #249
 240 00f4 2000     		movs	r0, r4
 241 00f6 FFF7FEFF 		bl	u8x8_cad_SendCmd
 242              	.LVL36:
ARM GAS  C:\Users\Greg\AppData\Local\Temp\ccXdYwfY.s 			page 11


 243              	.L14:
 274:..\..\u8g2\csrc/u8x8_d_uc1610.c **** 	ptr = ((u8x8_tile_t *)arg_ptr)->tile_ptr;
 244              		.loc 1 274 0
 245 00fa 009B     		ldr	r3, [sp]
 246 00fc 1B79     		ldrb	r3, [r3, #4]
 247 00fe 0193     		str	r3, [sp, #4]
 248              	.LVL37:
 275:..\..\u8g2\csrc/u8x8_d_uc1610.c **** 	
 249              		.loc 1 275 0
 250 0100 009B     		ldr	r3, [sp]
 251 0102 1B68     		ldr	r3, [r3]
 252 0104 0293     		str	r3, [sp, #8]
 253              	.LVL38:
 254              	.L13:
 255 0106 144B     		ldr	r3, .L24+4
 256 0108 029F     		ldr	r7, [sp, #8]
 257 010a 5E1C     		adds	r6, r3, #1
 258 010c 0393     		str	r3, [sp, #12]
 259              	.LVL39:
 260              	.L12:
 261              	.LBB4:
 262              	.LBB5:
 199:..\..\u8g2\csrc/u8x8_d_uc1610.c ****     *pbuf++ = r & 255;
 263              		.loc 1 199 0
 264 010e 3878     		ldrb	r0, [r7]
 265 0110 FFF7FEFF 		bl	u8x8_upscale_byte
 266              	.LVL40:
 200:..\..\u8g2\csrc/u8x8_d_uc1610.c ****     r >>= 8;
 267              		.loc 1 200 0
 268 0114 731E     		subs	r3, r6, #1
 269              	.LVL41:
 270 0116 1870     		strb	r0, [r3]
 271              	.LVL42:
 202:..\..\u8g2\csrc/u8x8_d_uc1610.c ****   }
 272              		.loc 1 202 0
 273 0118 000A     		lsrs	r0, r0, #8
 274              	.LVL43:
 197:..\..\u8g2\csrc/u8x8_d_uc1610.c ****   {
 275              		.loc 1 197 0
 276 011a 104B     		ldr	r3, .L24+8
 202:..\..\u8g2\csrc/u8x8_d_uc1610.c ****   }
 277              		.loc 1 202 0
 278 011c 3070     		strb	r0, [r6]
 279              	.LVL44:
 280 011e 0236     		adds	r6, r6, #2
 281              	.LVL45:
 282 0120 0137     		adds	r7, r7, #1
 283              	.LVL46:
 197:..\..\u8g2\csrc/u8x8_d_uc1610.c ****   {
 284              		.loc 1 197 0
 285 0122 9E42     		cmp	r6, r3
 286 0124 F3D1     		bne	.L12
 287              	.LVL47:
 288              	.LBE5:
 289              	.LBE4:
 283:..\..\u8g2\csrc/u8x8_d_uc1610.c **** 
 290              		.loc 1 283 0
ARM GAS  C:\Users\Greg\AppData\Local\Temp\ccXdYwfY.s 			page 12


 291 0126 039A     		ldr	r2, [sp, #12]
 292 0128 1021     		movs	r1, #16
 293 012a 2000     		movs	r0, r4
 294 012c FFF7FEFF 		bl	u8x8_cad_SendData
 295              	.LVL48:
 286:..\..\u8g2\csrc/u8x8_d_uc1610.c **** 	  x += 8;
 296              		.loc 1 286 0
 297 0130 029B     		ldr	r3, [sp, #8]
 298 0132 0833     		adds	r3, r3, #8
 299 0134 0293     		str	r3, [sp, #8]
 300              	.LVL49:
 288:..\..\u8g2\csrc/u8x8_d_uc1610.c **** 	} while( c > 0 );
 301              		.loc 1 288 0
 302 0136 019B     		ldr	r3, [sp, #4]
 303              	.LVL50:
 304 0138 013B     		subs	r3, r3, #1
 305 013a DBB2     		uxtb	r3, r3
 306 013c 0193     		str	r3, [sp, #4]
 307              	.LVL51:
 289:..\..\u8g2\csrc/u8x8_d_uc1610.c **** 	
 308              		.loc 1 289 0
 309 013e 002B     		cmp	r3, #0
 310 0140 E1D1     		bne	.L13
 291:..\..\u8g2\csrc/u8x8_d_uc1610.c ****       } while( arg_int > 0 );
 311              		.loc 1 291 0
 312 0142 013D     		subs	r5, r5, #1
 313              	.LVL52:
 314 0144 EDB2     		uxtb	r5, r5
 315              	.LVL53:
 292:..\..\u8g2\csrc/u8x8_d_uc1610.c ****       
 316              		.loc 1 292 0
 317 0146 002D     		cmp	r5, #0
 318 0148 D7D1     		bne	.L14
 319 014a 9BE7     		b	.L20
 320              	.LVL54:
 321              	.L15:
 299:..\..\u8g2\csrc/u8x8_d_uc1610.c ****   }
 322              		.loc 1 299 0
 323 014c 0020     		movs	r0, #0
 324              	.LVL55:
 325              	.L2:
 302:..\..\u8g2\csrc/u8x8_d_uc1610.c **** }
 326              		.loc 1 302 0
 327 014e 05B0     		add	sp, sp, #20
 328              	.LVL56:
 329              		@ sp needed
 330              	.LVL57:
 331 0150 F0BD     		pop	{r4, r5, r6, r7, pc}
 332              	.L25:
 333 0152 C046     		.align	2
 334              	.L24:
 335 0154 00000000 		.word	.LANCHOR0
 336 0158 00000000 		.word	.LANCHOR1
 337 015c 11000000 		.word	.LANCHOR1+17
 338              		.cfi_endproc
 339              	.LFE1:
 340              		.size	u8x8_d_uc1610_ea_dogxl160, .-u8x8_d_uc1610_ea_dogxl160
ARM GAS  C:\Users\Greg\AppData\Local\Temp\ccXdYwfY.s 			page 13


 341              		.section	.rodata
 342              		.align	2
 343              		.set	.LANCHOR0,. + 0
 344              		.type	u8x8_uc1610_display_info, %object
 345              		.size	u8x8_uc1610_display_info, 24
 346              	u8x8_uc1610_display_info:
 347 0000 00       		.byte	0
 348 0001 01       		.byte	1
 349 0002 0F       		.byte	15
 350 0003 0F       		.byte	15
 351 0004 01       		.byte	1
 352 0005 06       		.byte	6
 353 0006 1E       		.byte	30
 354 0007 3F       		.byte	63
 355 0008 00127A00 		.word	8000000
 356 000c 00       		.byte	0
 357 000d 04       		.byte	4
 358 000e 1E       		.byte	30
 359 000f 28       		.byte	40
 360 0010 14       		.byte	20
 361 0011 0D       		.byte	13
 362 0012 00       		.byte	0
 363 0013 00       		.byte	0
 364 0014 A000     		.short	160
 365 0016 6800     		.short	104
 366              		.type	u8x8_d_uc1610_dogxl160_init_seq, %object
 367              		.size	u8x8_d_uc1610_dogxl160_init_seq, 37
 368              	u8x8_d_uc1610_dogxl160_init_seq:
 369 0018 18       		.byte	24
 370 0019 15       		.byte	21
 371 001a F1       		.byte	-15
 372 001b 16       		.byte	22
 373 001c 67       		.byte	103
 374 001d 15       		.byte	21
 375 001e C0       		.byte	-64
 376 001f 15       		.byte	21
 377 0020 40       		.byte	64
 378 0021 15       		.byte	21
 379 0022 50       		.byte	80
 380 0023 15       		.byte	21
 381 0024 2B       		.byte	43
 382 0025 15       		.byte	21
 383 0026 EB       		.byte	-21
 384 0027 15       		.byte	21
 385 0028 81       		.byte	-127
 386 0029 16       		.byte	22
 387 002a 5F       		.byte	95
 388 002b 15       		.byte	21
 389 002c 8B       		.byte	-117
 390 002d 15       		.byte	21
 391 002e C0       		.byte	-64
 392 002f 15       		.byte	21
 393 0030 F8       		.byte	-8
 394 0031 15       		.byte	21
 395 0032 10       		.byte	16
 396 0033 15       		.byte	21
 397 0034 00       		.byte	0
ARM GAS  C:\Users\Greg\AppData\Local\Temp\ccXdYwfY.s 			page 14


 398 0035 15       		.byte	21
 399 0036 B0       		.byte	-80
 400 0037 15       		.byte	21
 401 0038 A6       		.byte	-90
 402 0039 15       		.byte	21
 403 003a A4       		.byte	-92
 404 003b 19       		.byte	25
 405 003c FF       		.byte	-1
 406              		.type	u8x8_d_uc1610_dogxl160_powersave0_seq, %object
 407              		.size	u8x8_d_uc1610_dogxl160_powersave0_seq, 5
 408              	u8x8_d_uc1610_dogxl160_powersave0_seq:
 409 003d 18       		.byte	24
 410 003e 15       		.byte	21
 411 003f AF       		.byte	-81
 412 0040 19       		.byte	25
 413 0041 FF       		.byte	-1
 414              		.type	u8x8_d_uc1610_dogxl160_powersave1_seq, %object
 415              		.size	u8x8_d_uc1610_dogxl160_powersave1_seq, 5
 416              	u8x8_d_uc1610_dogxl160_powersave1_seq:
 417 0042 18       		.byte	24
 418 0043 15       		.byte	21
 419 0044 AE       		.byte	-82
 420 0045 19       		.byte	25
 421 0046 FF       		.byte	-1
 422              		.type	u8x8_d_uc1610_dogxl160_flip0_seq, %object
 423              		.size	u8x8_d_uc1610_dogxl160_flip0_seq, 5
 424              	u8x8_d_uc1610_dogxl160_flip0_seq:
 425 0047 18       		.byte	24
 426 0048 15       		.byte	21
 427 0049 C0       		.byte	-64
 428 004a 19       		.byte	25
 429 004b FF       		.byte	-1
 430              		.type	u8x8_d_uc1610_dogxl160_flip1_seq, %object
 431              		.size	u8x8_d_uc1610_dogxl160_flip1_seq, 5
 432              	u8x8_d_uc1610_dogxl160_flip1_seq:
 433 004c 18       		.byte	24
 434 004d 15       		.byte	21
 435 004e C6       		.byte	-58
 436 004f 19       		.byte	25
 437 0050 FF       		.byte	-1
 438              		.bss
 439              		.set	.LANCHOR1,. + 0
 440              		.type	buf.4870, %object
 441              		.size	buf.4870, 16
 442              	buf.4870:
 443 0000 00000000 		.space	16
 443      00000000 
 443      00000000 
 443      00000000 
 444              		.text
 445              	.Letext0:
 446              		.file 2 "c:\\program files\\cypress\\psoc creator\\4.1\\psoc creator\\import\\gnu\\arm\\5.4.1\\arm
 447              		.file 3 "c:\\program files\\cypress\\psoc creator\\4.1\\psoc creator\\import\\gnu\\arm\\5.4.1\\arm
 448              		.file 4 "..\\..\\u8g2\\csrc\\u8x8.h"