ARM GAS  C:\Users\Greg\AppData\Local\Temp\ccYlj8YH.s 			page 1


   1              		.syntax unified
   2              		.cpu cortex-m0
   3              		.fpu softvfp
   4              		.eabi_attribute 20, 1
   5              		.eabi_attribute 21, 1
   6              		.eabi_attribute 23, 3
   7              		.eabi_attribute 24, 1
   8              		.eabi_attribute 25, 1
   9              		.eabi_attribute 26, 1
  10              		.eabi_attribute 30, 4
  11              		.eabi_attribute 34, 0
  12              		.eabi_attribute 18, 4
  13              		.thumb
  14              		.syntax unified
  15              		.file	"u8x8_d_ssd1327.c"
  16              		.text
  17              	.Ltext0:
  18              		.cfi_sections	.debug_frame
  19              		.section	.text.u8x8_d_ssd1327_seeed_96x96,"ax",%progbits
  20              		.align	1
  21              		.global	u8x8_d_ssd1327_seeed_96x96
  22              		.code	16
  23              		.thumb_func
  24              		.type	u8x8_d_ssd1327_seeed_96x96, %function
  25              	u8x8_d_ssd1327_seeed_96x96:
  26              	.LFB2:
  27              		.file 1 "..\\..\\u8g2\\csrc\\u8x8_d_ssd1327.c"
   1:..\..\u8g2\csrc/u8x8_d_ssd1327.c **** /*
   2:..\..\u8g2\csrc/u8x8_d_ssd1327.c **** 
   3:..\..\u8g2\csrc/u8x8_d_ssd1327.c ****   u8x8_d_ssd1327.c
   4:..\..\u8g2\csrc/u8x8_d_ssd1327.c **** 
   5:..\..\u8g2\csrc/u8x8_d_ssd1327.c ****   Universal 8bit Graphics Library (https://github.com/olikraus/u8g2/)
   6:..\..\u8g2\csrc/u8x8_d_ssd1327.c **** 
   7:..\..\u8g2\csrc/u8x8_d_ssd1327.c ****   Copyright (c) 2016, olikraus@gmail.com
   8:..\..\u8g2\csrc/u8x8_d_ssd1327.c ****   All rights reserved.
   9:..\..\u8g2\csrc/u8x8_d_ssd1327.c **** 
  10:..\..\u8g2\csrc/u8x8_d_ssd1327.c ****   Redistribution and use in source and binary forms, with or without modification, 
  11:..\..\u8g2\csrc/u8x8_d_ssd1327.c ****   are permitted provided that the following conditions are met:
  12:..\..\u8g2\csrc/u8x8_d_ssd1327.c **** 
  13:..\..\u8g2\csrc/u8x8_d_ssd1327.c ****   * Redistributions of source code must retain the above copyright notice, this list 
  14:..\..\u8g2\csrc/u8x8_d_ssd1327.c ****     of conditions and the following disclaimer.
  15:..\..\u8g2\csrc/u8x8_d_ssd1327.c ****     
  16:..\..\u8g2\csrc/u8x8_d_ssd1327.c ****   * Redistributions in binary form must reproduce the above copyright notice, this 
  17:..\..\u8g2\csrc/u8x8_d_ssd1327.c ****     list of conditions and the following disclaimer in the documentation and/or other 
  18:..\..\u8g2\csrc/u8x8_d_ssd1327.c ****     materials provided with the distribution.
  19:..\..\u8g2\csrc/u8x8_d_ssd1327.c **** 
  20:..\..\u8g2\csrc/u8x8_d_ssd1327.c ****   THIS SOFTWARE IS PROVIDED BY THE COPYRIGHT HOLDERS AND 
  21:..\..\u8g2\csrc/u8x8_d_ssd1327.c ****   CONTRIBUTORS "AS IS" AND ANY EXPRESS OR IMPLIED WARRANTIES, 
  22:..\..\u8g2\csrc/u8x8_d_ssd1327.c ****   INCLUDING, BUT NOT LIMITED TO, THE IMPLIED WARRANTIES OF 
  23:..\..\u8g2\csrc/u8x8_d_ssd1327.c ****   MERCHANTABILITY AND FITNESS FOR A PARTICULAR PURPOSE ARE 
  24:..\..\u8g2\csrc/u8x8_d_ssd1327.c ****   DISCLAIMED. IN NO EVENT SHALL THE COPYRIGHT HOLDER OR 
  25:..\..\u8g2\csrc/u8x8_d_ssd1327.c ****   CONTRIBUTORS BE LIABLE FOR ANY DIRECT, INDIRECT, INCIDENTAL, 
  26:..\..\u8g2\csrc/u8x8_d_ssd1327.c ****   SPECIAL, EXEMPLARY, OR CONSEQUENTIAL DAMAGES (INCLUDING, BUT 
  27:..\..\u8g2\csrc/u8x8_d_ssd1327.c ****   NOT LIMITED TO, PROCUREMENT OF SUBSTITUTE GOODS OR SERVICES; 
  28:..\..\u8g2\csrc/u8x8_d_ssd1327.c ****   LOSS OF USE, DATA, OR PROFITS; OR BUSINESS INTERRUPTION) HOWEVER 
  29:..\..\u8g2\csrc/u8x8_d_ssd1327.c ****   CAUSED AND ON ANY THEORY OF LIABILITY, WHETHER IN CONTRACT, 
  30:..\..\u8g2\csrc/u8x8_d_ssd1327.c ****   STRICT LIABILITY, OR TORT (INCLUDING NEGLIGENCE OR OTHERWISE) 
ARM GAS  C:\Users\Greg\AppData\Local\Temp\ccYlj8YH.s 			page 2


  31:..\..\u8g2\csrc/u8x8_d_ssd1327.c ****   ARISING IN ANY WAY OUT OF THE USE OF THIS SOFTWARE, EVEN IF 
  32:..\..\u8g2\csrc/u8x8_d_ssd1327.c ****   ADVISED OF THE POSSIBILITY OF SUCH DAMAGE.  
  33:..\..\u8g2\csrc/u8x8_d_ssd1327.c ****   
  34:..\..\u8g2\csrc/u8x8_d_ssd1327.c **** */
  35:..\..\u8g2\csrc/u8x8_d_ssd1327.c **** 
  36:..\..\u8g2\csrc/u8x8_d_ssd1327.c **** 
  37:..\..\u8g2\csrc/u8x8_d_ssd1327.c **** #include "u8x8.h"
  38:..\..\u8g2\csrc/u8x8_d_ssd1327.c **** 
  39:..\..\u8g2\csrc/u8x8_d_ssd1327.c **** 
  40:..\..\u8g2\csrc/u8x8_d_ssd1327.c **** static const uint8_t u8x8_d_ssd1327_96x96_powersave0_seq[] = {
  41:..\..\u8g2\csrc/u8x8_d_ssd1327.c ****   U8X8_START_TRANSFER(),             	/* enable chip, delay is part of the transfer start */
  42:..\..\u8g2\csrc/u8x8_d_ssd1327.c ****   U8X8_C(0x0af),		                /* display on */
  43:..\..\u8g2\csrc/u8x8_d_ssd1327.c ****   U8X8_END_TRANSFER(),             	/* disable chip */
  44:..\..\u8g2\csrc/u8x8_d_ssd1327.c ****   U8X8_END()             			/* end of sequence */
  45:..\..\u8g2\csrc/u8x8_d_ssd1327.c **** };
  46:..\..\u8g2\csrc/u8x8_d_ssd1327.c **** 
  47:..\..\u8g2\csrc/u8x8_d_ssd1327.c **** static const uint8_t u8x8_d_ssd1327_96x96_powersave1_seq[] = {
  48:..\..\u8g2\csrc/u8x8_d_ssd1327.c ****   U8X8_START_TRANSFER(),             	/* enable chip, delay is part of the transfer start */
  49:..\..\u8g2\csrc/u8x8_d_ssd1327.c ****   U8X8_C(0x0ae),		                /* display off */
  50:..\..\u8g2\csrc/u8x8_d_ssd1327.c ****   U8X8_END_TRANSFER(),             	/* disable chip */
  51:..\..\u8g2\csrc/u8x8_d_ssd1327.c ****   U8X8_END()             			/* end of sequence */
  52:..\..\u8g2\csrc/u8x8_d_ssd1327.c **** };
  53:..\..\u8g2\csrc/u8x8_d_ssd1327.c **** 
  54:..\..\u8g2\csrc/u8x8_d_ssd1327.c **** 
  55:..\..\u8g2\csrc/u8x8_d_ssd1327.c **** 
  56:..\..\u8g2\csrc/u8x8_d_ssd1327.c **** 
  57:..\..\u8g2\csrc/u8x8_d_ssd1327.c **** /*
  58:..\..\u8g2\csrc/u8x8_d_ssd1327.c ****   input:
  59:..\..\u8g2\csrc/u8x8_d_ssd1327.c ****     one tile (8 Bytes)
  60:..\..\u8g2\csrc/u8x8_d_ssd1327.c ****   output:
  61:..\..\u8g2\csrc/u8x8_d_ssd1327.c ****     Tile for ssd1327 (32 Bytes)
  62:..\..\u8g2\csrc/u8x8_d_ssd1327.c **** */
  63:..\..\u8g2\csrc/u8x8_d_ssd1327.c **** 
  64:..\..\u8g2\csrc/u8x8_d_ssd1327.c **** static uint8_t u8x8_ssd1327_8to32_dest_buf[32];
  65:..\..\u8g2\csrc/u8x8_d_ssd1327.c **** 
  66:..\..\u8g2\csrc/u8x8_d_ssd1327.c **** static uint8_t *u8x8_ssd1327_8to32(U8X8_UNUSED u8x8_t *u8x8, uint8_t *ptr)
  67:..\..\u8g2\csrc/u8x8_d_ssd1327.c **** {
  68:..\..\u8g2\csrc/u8x8_d_ssd1327.c ****   uint8_t v;
  69:..\..\u8g2\csrc/u8x8_d_ssd1327.c ****   uint8_t a,b;
  70:..\..\u8g2\csrc/u8x8_d_ssd1327.c ****   uint8_t i, j;
  71:..\..\u8g2\csrc/u8x8_d_ssd1327.c ****   uint8_t *dest;
  72:..\..\u8g2\csrc/u8x8_d_ssd1327.c ****   
  73:..\..\u8g2\csrc/u8x8_d_ssd1327.c ****   for( j = 0; j < 4; j++ )
  74:..\..\u8g2\csrc/u8x8_d_ssd1327.c ****   {
  75:..\..\u8g2\csrc/u8x8_d_ssd1327.c ****     dest = u8x8_ssd1327_8to32_dest_buf;
  76:..\..\u8g2\csrc/u8x8_d_ssd1327.c ****     dest += j;
  77:..\..\u8g2\csrc/u8x8_d_ssd1327.c ****     a =*ptr;
  78:..\..\u8g2\csrc/u8x8_d_ssd1327.c ****     ptr++;
  79:..\..\u8g2\csrc/u8x8_d_ssd1327.c ****     b = *ptr;
  80:..\..\u8g2\csrc/u8x8_d_ssd1327.c ****     ptr++;
  81:..\..\u8g2\csrc/u8x8_d_ssd1327.c ****     for( i = 0; i < 8; i++ )
  82:..\..\u8g2\csrc/u8x8_d_ssd1327.c ****     {
  83:..\..\u8g2\csrc/u8x8_d_ssd1327.c ****       v = 0;
  84:..\..\u8g2\csrc/u8x8_d_ssd1327.c ****       if ( a&1 ) v |= 0xf0;
  85:..\..\u8g2\csrc/u8x8_d_ssd1327.c ****       if ( b&1 ) v |= 0x0f;
  86:..\..\u8g2\csrc/u8x8_d_ssd1327.c ****       *dest = v;
  87:..\..\u8g2\csrc/u8x8_d_ssd1327.c ****       dest+=4;
ARM GAS  C:\Users\Greg\AppData\Local\Temp\ccYlj8YH.s 			page 3


  88:..\..\u8g2\csrc/u8x8_d_ssd1327.c ****       a >>= 1;
  89:..\..\u8g2\csrc/u8x8_d_ssd1327.c ****       b >>= 1;
  90:..\..\u8g2\csrc/u8x8_d_ssd1327.c ****     }
  91:..\..\u8g2\csrc/u8x8_d_ssd1327.c ****   }
  92:..\..\u8g2\csrc/u8x8_d_ssd1327.c ****   
  93:..\..\u8g2\csrc/u8x8_d_ssd1327.c ****   return u8x8_ssd1327_8to32_dest_buf;
  94:..\..\u8g2\csrc/u8x8_d_ssd1327.c **** }
  95:..\..\u8g2\csrc/u8x8_d_ssd1327.c **** 
  96:..\..\u8g2\csrc/u8x8_d_ssd1327.c **** 
  97:..\..\u8g2\csrc/u8x8_d_ssd1327.c **** 
  98:..\..\u8g2\csrc/u8x8_d_ssd1327.c **** 
  99:..\..\u8g2\csrc/u8x8_d_ssd1327.c **** static uint8_t u8x8_d_ssd1327_96x96_generic(u8x8_t *u8x8, uint8_t msg, uint8_t arg_int, void *arg_p
 100:..\..\u8g2\csrc/u8x8_d_ssd1327.c **** {
 101:..\..\u8g2\csrc/u8x8_d_ssd1327.c ****   uint8_t x, y, c;
 102:..\..\u8g2\csrc/u8x8_d_ssd1327.c ****   uint8_t *ptr;
 103:..\..\u8g2\csrc/u8x8_d_ssd1327.c ****   switch(msg)
 104:..\..\u8g2\csrc/u8x8_d_ssd1327.c ****   {
 105:..\..\u8g2\csrc/u8x8_d_ssd1327.c ****     /* handled by the calling function
 106:..\..\u8g2\csrc/u8x8_d_ssd1327.c ****     case U8X8_MSG_DISPLAY_SETUP_MEMORY:
 107:..\..\u8g2\csrc/u8x8_d_ssd1327.c ****       u8x8_d_helper_display_setup_memory(u8x8, &u8x8_ssd1327_96x96_display_info);
 108:..\..\u8g2\csrc/u8x8_d_ssd1327.c ****       break;
 109:..\..\u8g2\csrc/u8x8_d_ssd1327.c ****     */
 110:..\..\u8g2\csrc/u8x8_d_ssd1327.c ****     /* handled by the calling function
 111:..\..\u8g2\csrc/u8x8_d_ssd1327.c ****     case U8X8_MSG_DISPLAY_INIT:
 112:..\..\u8g2\csrc/u8x8_d_ssd1327.c ****       u8x8_d_helper_display_init(u8x8);
 113:..\..\u8g2\csrc/u8x8_d_ssd1327.c ****       u8x8_cad_SendSequence(u8x8, u8x8_d_ssd1327_96x96_init_seq);    
 114:..\..\u8g2\csrc/u8x8_d_ssd1327.c ****       break;
 115:..\..\u8g2\csrc/u8x8_d_ssd1327.c ****     */
 116:..\..\u8g2\csrc/u8x8_d_ssd1327.c ****     case U8X8_MSG_DISPLAY_SET_POWER_SAVE:
 117:..\..\u8g2\csrc/u8x8_d_ssd1327.c ****       if ( arg_int == 0 )
 118:..\..\u8g2\csrc/u8x8_d_ssd1327.c **** 	u8x8_cad_SendSequence(u8x8, u8x8_d_ssd1327_96x96_powersave0_seq);
 119:..\..\u8g2\csrc/u8x8_d_ssd1327.c ****       else
 120:..\..\u8g2\csrc/u8x8_d_ssd1327.c **** 	u8x8_cad_SendSequence(u8x8, u8x8_d_ssd1327_96x96_powersave1_seq);
 121:..\..\u8g2\csrc/u8x8_d_ssd1327.c ****       break;
 122:..\..\u8g2\csrc/u8x8_d_ssd1327.c **** #ifdef U8X8_WITH_SET_CONTRAST
 123:..\..\u8g2\csrc/u8x8_d_ssd1327.c ****     case U8X8_MSG_DISPLAY_SET_CONTRAST:
 124:..\..\u8g2\csrc/u8x8_d_ssd1327.c ****       u8x8_cad_StartTransfer(u8x8);
 125:..\..\u8g2\csrc/u8x8_d_ssd1327.c ****       u8x8_cad_SendCmd(u8x8, 0x081 );
 126:..\..\u8g2\csrc/u8x8_d_ssd1327.c ****       u8x8_cad_SendArg(u8x8, arg_int );	/* ssd1327 has range from 0 to 255 */
 127:..\..\u8g2\csrc/u8x8_d_ssd1327.c ****       u8x8_cad_EndTransfer(u8x8);
 128:..\..\u8g2\csrc/u8x8_d_ssd1327.c ****       break;
 129:..\..\u8g2\csrc/u8x8_d_ssd1327.c **** #endif
 130:..\..\u8g2\csrc/u8x8_d_ssd1327.c ****     case U8X8_MSG_DISPLAY_DRAW_TILE:
 131:..\..\u8g2\csrc/u8x8_d_ssd1327.c ****       u8x8_cad_StartTransfer(u8x8);
 132:..\..\u8g2\csrc/u8x8_d_ssd1327.c ****       x = ((u8x8_tile_t *)arg_ptr)->x_pos;    
 133:..\..\u8g2\csrc/u8x8_d_ssd1327.c ****       x *= 4;
 134:..\..\u8g2\csrc/u8x8_d_ssd1327.c ****       x+=u8x8->x_offset/2;
 135:..\..\u8g2\csrc/u8x8_d_ssd1327.c ****     
 136:..\..\u8g2\csrc/u8x8_d_ssd1327.c ****       y = (((u8x8_tile_t *)arg_ptr)->y_pos);
 137:..\..\u8g2\csrc/u8x8_d_ssd1327.c ****       y *= 8;
 138:..\..\u8g2\csrc/u8x8_d_ssd1327.c ****     
 139:..\..\u8g2\csrc/u8x8_d_ssd1327.c ****       
 140:..\..\u8g2\csrc/u8x8_d_ssd1327.c ****       do
 141:..\..\u8g2\csrc/u8x8_d_ssd1327.c ****       {
 142:..\..\u8g2\csrc/u8x8_d_ssd1327.c **** 	c = ((u8x8_tile_t *)arg_ptr)->cnt;
 143:..\..\u8g2\csrc/u8x8_d_ssd1327.c **** 	ptr = ((u8x8_tile_t *)arg_ptr)->tile_ptr;
 144:..\..\u8g2\csrc/u8x8_d_ssd1327.c **** 
ARM GAS  C:\Users\Greg\AppData\Local\Temp\ccYlj8YH.s 			page 4


 145:..\..\u8g2\csrc/u8x8_d_ssd1327.c **** 	do
 146:..\..\u8g2\csrc/u8x8_d_ssd1327.c **** 	{
 147:..\..\u8g2\csrc/u8x8_d_ssd1327.c **** 	  u8x8_cad_SendCmd(u8x8, 0x015 );	/* set column address */
 148:..\..\u8g2\csrc/u8x8_d_ssd1327.c **** 	  u8x8_cad_SendArg(u8x8, x );	/* start */
 149:..\..\u8g2\csrc/u8x8_d_ssd1327.c **** 	  u8x8_cad_SendArg(u8x8, x+3 );	/* end */
 150:..\..\u8g2\csrc/u8x8_d_ssd1327.c **** 
 151:..\..\u8g2\csrc/u8x8_d_ssd1327.c **** 	  u8x8_cad_SendCmd(u8x8, 0x075 );	/* set row address */
 152:..\..\u8g2\csrc/u8x8_d_ssd1327.c **** 	  u8x8_cad_SendArg(u8x8, y);
 153:..\..\u8g2\csrc/u8x8_d_ssd1327.c **** 	  u8x8_cad_SendArg(u8x8, y+7);
 154:..\..\u8g2\csrc/u8x8_d_ssd1327.c **** 	  
 155:..\..\u8g2\csrc/u8x8_d_ssd1327.c **** 	  
 156:..\..\u8g2\csrc/u8x8_d_ssd1327.c **** 	  u8x8_cad_SendData(u8x8, 32, u8x8_ssd1327_8to32(u8x8, ptr));
 157:..\..\u8g2\csrc/u8x8_d_ssd1327.c **** 	  ptr += 8;
 158:..\..\u8g2\csrc/u8x8_d_ssd1327.c **** 	  x += 4;
 159:..\..\u8g2\csrc/u8x8_d_ssd1327.c **** 	  c--;
 160:..\..\u8g2\csrc/u8x8_d_ssd1327.c **** 	} while( c > 0 );
 161:..\..\u8g2\csrc/u8x8_d_ssd1327.c **** 	
 162:..\..\u8g2\csrc/u8x8_d_ssd1327.c **** 	//x += 4;
 163:..\..\u8g2\csrc/u8x8_d_ssd1327.c **** 	arg_int--;
 164:..\..\u8g2\csrc/u8x8_d_ssd1327.c ****       } while( arg_int > 0 );
 165:..\..\u8g2\csrc/u8x8_d_ssd1327.c ****       
 166:..\..\u8g2\csrc/u8x8_d_ssd1327.c ****       u8x8_cad_EndTransfer(u8x8);
 167:..\..\u8g2\csrc/u8x8_d_ssd1327.c ****       break;
 168:..\..\u8g2\csrc/u8x8_d_ssd1327.c ****     default:
 169:..\..\u8g2\csrc/u8x8_d_ssd1327.c ****       return 0;
 170:..\..\u8g2\csrc/u8x8_d_ssd1327.c ****   }
 171:..\..\u8g2\csrc/u8x8_d_ssd1327.c ****   return 1;
 172:..\..\u8g2\csrc/u8x8_d_ssd1327.c **** }
 173:..\..\u8g2\csrc/u8x8_d_ssd1327.c **** 
 174:..\..\u8g2\csrc/u8x8_d_ssd1327.c **** /*=============================================*/
 175:..\..\u8g2\csrc/u8x8_d_ssd1327.c **** /*  Seeedstudio Grove OLED 96x96 */
 176:..\..\u8g2\csrc/u8x8_d_ssd1327.c **** 
 177:..\..\u8g2\csrc/u8x8_d_ssd1327.c **** static const u8x8_display_info_t u8x8_ssd1327_96x96_display_info =
 178:..\..\u8g2\csrc/u8x8_d_ssd1327.c **** {
 179:..\..\u8g2\csrc/u8x8_d_ssd1327.c ****   /* chip_enable_level = */ 0,
 180:..\..\u8g2\csrc/u8x8_d_ssd1327.c ****   /* chip_disable_level = */ 1,
 181:..\..\u8g2\csrc/u8x8_d_ssd1327.c ****   
 182:..\..\u8g2\csrc/u8x8_d_ssd1327.c ****   /* post_chip_enable_wait_ns = */ 20,
 183:..\..\u8g2\csrc/u8x8_d_ssd1327.c ****   /* pre_chip_disable_wait_ns = */ 10,
 184:..\..\u8g2\csrc/u8x8_d_ssd1327.c ****   /* reset_pulse_width_ms = */ 100, 	
 185:..\..\u8g2\csrc/u8x8_d_ssd1327.c ****   /* post_reset_wait_ms = */ 100, 		/**/
 186:..\..\u8g2\csrc/u8x8_d_ssd1327.c ****   /* sda_setup_time_ns = */ 100,		/* */
 187:..\..\u8g2\csrc/u8x8_d_ssd1327.c ****   /* sck_pulse_width_ns = */ 100,	/*  */
 188:..\..\u8g2\csrc/u8x8_d_ssd1327.c ****   /* sck_clock_hz = */ 4000000UL,	/* since Arduino 1.6.0, the SPI bus speed in Hz. Should be  10000
 189:..\..\u8g2\csrc/u8x8_d_ssd1327.c ****   /* spi_mode = */ 0,		/* active high, rising edge */
 190:..\..\u8g2\csrc/u8x8_d_ssd1327.c ****   /* i2c_bus_clock_100kHz = */ 1,	/* use 1 instead of 4, because the SSD1327 seems to be very slow 
 191:..\..\u8g2\csrc/u8x8_d_ssd1327.c ****   /* data_setup_time_ns = */ 40,
 192:..\..\u8g2\csrc/u8x8_d_ssd1327.c ****   /* write_pulse_width_ns = */ 60,	
 193:..\..\u8g2\csrc/u8x8_d_ssd1327.c ****   /* tile_width = */ 12,
 194:..\..\u8g2\csrc/u8x8_d_ssd1327.c ****   /* tile_hight = */ 12,
 195:..\..\u8g2\csrc/u8x8_d_ssd1327.c ****   /* default_x_offset = */ 16,
 196:..\..\u8g2\csrc/u8x8_d_ssd1327.c ****   /* flipmode_x_offset = */ 16,		
 197:..\..\u8g2\csrc/u8x8_d_ssd1327.c ****   /* pixel_width = */ 96,
 198:..\..\u8g2\csrc/u8x8_d_ssd1327.c ****   /* pixel_height = */ 96
 199:..\..\u8g2\csrc/u8x8_d_ssd1327.c **** };
 200:..\..\u8g2\csrc/u8x8_d_ssd1327.c **** 
 201:..\..\u8g2\csrc/u8x8_d_ssd1327.c **** /*  https://github.com/SeeedDocument/Grove_OLED_1.12/raw/master/resources/LY120-096096.pdf */
ARM GAS  C:\Users\Greg\AppData\Local\Temp\ccYlj8YH.s 			page 5


 202:..\..\u8g2\csrc/u8x8_d_ssd1327.c **** /*  http://www.seeedstudio.com/wiki/index.php?title=Twig_-_OLED_96x96 */
 203:..\..\u8g2\csrc/u8x8_d_ssd1327.c **** /* values from u8glib */
 204:..\..\u8g2\csrc/u8x8_d_ssd1327.c **** /*
 205:..\..\u8g2\csrc/u8x8_d_ssd1327.c ****   Re-map setting in Graphic Display Data RAM, command 0x0a0
 206:..\..\u8g2\csrc/u8x8_d_ssd1327.c ****     Bit 0: Column Address Re-map
 207:..\..\u8g2\csrc/u8x8_d_ssd1327.c ****     Bit 1: Nibble Re-map
 208:..\..\u8g2\csrc/u8x8_d_ssd1327.c ****     Bit 2: Horizontal/Vertical Address Increment
 209:..\..\u8g2\csrc/u8x8_d_ssd1327.c ****     Bit 3: Not used, must be 0
 210:..\..\u8g2\csrc/u8x8_d_ssd1327.c ****     
 211:..\..\u8g2\csrc/u8x8_d_ssd1327.c ****     Bit 4: COM Re-map
 212:..\..\u8g2\csrc/u8x8_d_ssd1327.c ****     Bit 5: Not used, must be 0
 213:..\..\u8g2\csrc/u8x8_d_ssd1327.c ****     Bit 6: COM Split Odd Even
 214:..\..\u8g2\csrc/u8x8_d_ssd1327.c ****     Bit 7: Not used, must be 0
 215:..\..\u8g2\csrc/u8x8_d_ssd1327.c **** */
 216:..\..\u8g2\csrc/u8x8_d_ssd1327.c **** 
 217:..\..\u8g2\csrc/u8x8_d_ssd1327.c **** 
 218:..\..\u8g2\csrc/u8x8_d_ssd1327.c **** static const uint8_t u8x8_d_ssd1327_96x96_init_seq[] = {
 219:..\..\u8g2\csrc/u8x8_d_ssd1327.c ****     
 220:..\..\u8g2\csrc/u8x8_d_ssd1327.c ****   U8X8_START_TRANSFER(),             	/* enable chip, delay is part of the transfer start */
 221:..\..\u8g2\csrc/u8x8_d_ssd1327.c ****   
 222:..\..\u8g2\csrc/u8x8_d_ssd1327.c ****   U8X8_CA(0x0fd, 0x012),		/* unlock display, usually not required because the display is unlocked a
 223:..\..\u8g2\csrc/u8x8_d_ssd1327.c ****   U8X8_C(0x0ae),		                /* display off */
 224:..\..\u8g2\csrc/u8x8_d_ssd1327.c ****   //U8X8_CA(0x0a8, 0x03f),		/* multiplex ratio: 0x03f * 1/64 duty */
 225:..\..\u8g2\csrc/u8x8_d_ssd1327.c ****   U8X8_CA(0x0a8, 0x05f),		/* multiplex ratio: 0x05f * 1/64 duty */
 226:..\..\u8g2\csrc/u8x8_d_ssd1327.c ****   U8X8_CA(0x0a1, 0x000),		/* display start line */
 227:..\..\u8g2\csrc/u8x8_d_ssd1327.c ****   //U8X8_CA(0x0a2, 0x04c),		/* display offset, shift mapping ram counter */
 228:..\..\u8g2\csrc/u8x8_d_ssd1327.c ****   
 229:..\..\u8g2\csrc/u8x8_d_ssd1327.c ****   U8X8_CA(0x0a2, 0x020),		/* display offset, shift mapping ram counter */
 230:..\..\u8g2\csrc/u8x8_d_ssd1327.c ****   U8X8_CA(0x0a0, 0x051),		/* remap configuration */
 231:..\..\u8g2\csrc/u8x8_d_ssd1327.c ****   
 232:..\..\u8g2\csrc/u8x8_d_ssd1327.c ****   
 233:..\..\u8g2\csrc/u8x8_d_ssd1327.c ****   U8X8_CA(0x0ab, 0x001),		/* Enable internal VDD regulator (RESET) */
 234:..\..\u8g2\csrc/u8x8_d_ssd1327.c ****   //U8X8_CA(0x081, 0x070),		/* contrast, brightness, 0..128 */
 235:..\..\u8g2\csrc/u8x8_d_ssd1327.c ****   U8X8_CA(0x081, 0x053),		/* contrast, brightness, 0..128 */
 236:..\..\u8g2\csrc/u8x8_d_ssd1327.c ****   //U8X8_CA(0x0b1, 0x055),                    /* phase length */
 237:..\..\u8g2\csrc/u8x8_d_ssd1327.c ****   U8X8_CA(0x0b1, 0x051),                    /* phase length */  
 238:..\..\u8g2\csrc/u8x8_d_ssd1327.c ****   //U8X8_CA(0x0b3, 0x091),		/* set display clock divide ratio/oscillator frequency (set clock as 13
 239:..\..\u8g2\csrc/u8x8_d_ssd1327.c ****   U8X8_CA(0x0b3, 0x001),		/* set display clock divide ratio/oscillator frequency  */			
 240:..\..\u8g2\csrc/u8x8_d_ssd1327.c ****   
 241:..\..\u8g2\csrc/u8x8_d_ssd1327.c ****   //? U8X8_CA(0x0ad, 0x002),		/* master configuration: disable embedded DC-DC, enable internal VCOM
 242:..\..\u8g2\csrc/u8x8_d_ssd1327.c ****   //? U8X8_C(0x086),				/* full current range (0x084, 0x085, 0x086) */
 243:..\..\u8g2\csrc/u8x8_d_ssd1327.c ****   
 244:..\..\u8g2\csrc/u8x8_d_ssd1327.c ****   U8X8_C(0x0b9),				/* use linear lookup table */
 245:..\..\u8g2\csrc/u8x8_d_ssd1327.c **** 
 246:..\..\u8g2\csrc/u8x8_d_ssd1327.c ****   //U8X8_CA(0x0bc, 0x010),                    /* pre-charge voltage level */
 247:..\..\u8g2\csrc/u8x8_d_ssd1327.c ****   U8X8_CA(0x0bc, 0x008),                    /* pre-charge voltage level */
 248:..\..\u8g2\csrc/u8x8_d_ssd1327.c ****   //U8X8_CA(0x0be, 0x01c),                     /* VCOMH voltage */
 249:..\..\u8g2\csrc/u8x8_d_ssd1327.c ****   U8X8_CA(0x0be, 0x007),                     /* VCOMH voltage */
 250:..\..\u8g2\csrc/u8x8_d_ssd1327.c ****   U8X8_CA(0x0b6, 0x001),		/* second precharge */
 251:..\..\u8g2\csrc/u8x8_d_ssd1327.c ****   U8X8_CA(0x0d5, 0x062),		/* enable second precharge, internal vsl (bit0 = 0) */
 252:..\..\u8g2\csrc/u8x8_d_ssd1327.c **** 
 253:..\..\u8g2\csrc/u8x8_d_ssd1327.c **** 
 254:..\..\u8g2\csrc/u8x8_d_ssd1327.c ****   
 255:..\..\u8g2\csrc/u8x8_d_ssd1327.c ****   U8X8_C(0x0a4),				/* normal display mode */
 256:..\..\u8g2\csrc/u8x8_d_ssd1327.c ****     
 257:..\..\u8g2\csrc/u8x8_d_ssd1327.c ****   U8X8_END_TRANSFER(),             	/* disable chip */
 258:..\..\u8g2\csrc/u8x8_d_ssd1327.c ****   U8X8_END()             			/* end of sequence */
ARM GAS  C:\Users\Greg\AppData\Local\Temp\ccYlj8YH.s 			page 6


 259:..\..\u8g2\csrc/u8x8_d_ssd1327.c **** };
 260:..\..\u8g2\csrc/u8x8_d_ssd1327.c **** 
 261:..\..\u8g2\csrc/u8x8_d_ssd1327.c **** 
 262:..\..\u8g2\csrc/u8x8_d_ssd1327.c **** static const uint8_t u8x8_d_ssd1327_seeed_96x96_flip0_seq[] = {
 263:..\..\u8g2\csrc/u8x8_d_ssd1327.c ****   U8X8_START_TRANSFER(),             	/* enable chip, delay is part of the transfer start */
 264:..\..\u8g2\csrc/u8x8_d_ssd1327.c ****   U8X8_CA(0x0a2, 0x020),		/* display offset, shift mapping ram counter */
 265:..\..\u8g2\csrc/u8x8_d_ssd1327.c ****   U8X8_CA(0x0a0, 0x051),		/* remap configuration */
 266:..\..\u8g2\csrc/u8x8_d_ssd1327.c ****   U8X8_END_TRANSFER(),             	/* disable chip */
 267:..\..\u8g2\csrc/u8x8_d_ssd1327.c ****   U8X8_END()             			/* end of sequence */
 268:..\..\u8g2\csrc/u8x8_d_ssd1327.c **** };
 269:..\..\u8g2\csrc/u8x8_d_ssd1327.c **** 
 270:..\..\u8g2\csrc/u8x8_d_ssd1327.c **** static const uint8_t u8x8_d_ssd1327_seeed_96x96_flip1_seq[] = {
 271:..\..\u8g2\csrc/u8x8_d_ssd1327.c ****   U8X8_START_TRANSFER(),             	/* enable chip, delay is part of the transfer start */
 272:..\..\u8g2\csrc/u8x8_d_ssd1327.c ****   U8X8_CA(0x0a2, 0x060),		/* display offset, shift mapping ram counter */
 273:..\..\u8g2\csrc/u8x8_d_ssd1327.c ****   U8X8_CA(0x0a0, 0x042),		/* remap configuration */
 274:..\..\u8g2\csrc/u8x8_d_ssd1327.c ****   U8X8_END_TRANSFER(),             	/* disable chip */
 275:..\..\u8g2\csrc/u8x8_d_ssd1327.c ****   U8X8_END()             			/* end of sequence */
 276:..\..\u8g2\csrc/u8x8_d_ssd1327.c **** };
 277:..\..\u8g2\csrc/u8x8_d_ssd1327.c **** 
 278:..\..\u8g2\csrc/u8x8_d_ssd1327.c **** 
 279:..\..\u8g2\csrc/u8x8_d_ssd1327.c **** uint8_t u8x8_d_ssd1327_seeed_96x96(u8x8_t *u8x8, uint8_t msg, uint8_t arg_int, void *arg_ptr)
 280:..\..\u8g2\csrc/u8x8_d_ssd1327.c **** {
  28              		.loc 1 280 0
  29              		.cfi_startproc
  30              		@ args = 0, pretend = 0, frame = 32
  31              		@ frame_needed = 0, uses_anonymous_args = 0
  32              	.LVL0:
  33 0000 F0B5     		push	{r4, r5, r6, r7, lr}
  34              		.cfi_def_cfa_offset 20
  35              		.cfi_offset 4, -20
  36              		.cfi_offset 5, -16
  37              		.cfi_offset 6, -12
  38              		.cfi_offset 7, -8
  39              		.cfi_offset 14, -4
  40 0002 0400     		movs	r4, r0
  41 0004 89B0     		sub	sp, sp, #36
  42              		.cfi_def_cfa_offset 56
  43              		.loc 1 280 0
  44 0006 1500     		movs	r5, r2
  45 0008 1F00     		movs	r7, r3
  46              	.LVL1:
  47              	.LBB6:
  48              	.LBB7:
 103:..\..\u8g2\csrc/u8x8_d_ssd1327.c ****   {
  49              		.loc 1 103 0
  50 000a 0E29     		cmp	r1, #14
  51 000c 0CD0     		beq	.L3
  52 000e 0F29     		cmp	r1, #15
  53 0010 15D0     		beq	.L4
  54 0012 0B29     		cmp	r1, #11
  55 0014 00D0     		beq	.LCB31
  56 0016 88E0     		b	.L30	@long jump
  57              	.LCB31:
  58 0018 5749     		ldr	r1, .L36
  59              	.LVL2:
 117:..\..\u8g2\csrc/u8x8_d_ssd1327.c **** 	u8x8_cad_SendSequence(u8x8, u8x8_d_ssd1327_96x96_powersave0_seq);
  60              		.loc 1 117 0
ARM GAS  C:\Users\Greg\AppData\Local\Temp\ccYlj8YH.s 			page 7


  61 001a 002A     		cmp	r2, #0
  62 001c 00D0     		beq	.L33
 120:..\..\u8g2\csrc/u8x8_d_ssd1327.c ****       break;
  63              		.loc 1 120 0
  64 001e 0531     		adds	r1, r1, #5
  65              	.LVL3:
  66              	.L33:
  67 0020 2000     		movs	r0, r4
  68 0022 FFF7FEFF 		bl	u8x8_cad_SendSequence
  69              	.LVL4:
  70 0026 A4E0     		b	.L7
  71              	.LVL5:
  72              	.L3:
 124:..\..\u8g2\csrc/u8x8_d_ssd1327.c ****       u8x8_cad_SendCmd(u8x8, 0x081 );
  73              		.loc 1 124 0
  74 0028 FFF7FEFF 		bl	u8x8_cad_StartTransfer
  75              	.LVL6:
 125:..\..\u8g2\csrc/u8x8_d_ssd1327.c ****       u8x8_cad_SendArg(u8x8, arg_int );	/* ssd1327 has range from 0 to 255 */
  76              		.loc 1 125 0
  77 002c 8121     		movs	r1, #129
  78 002e 2000     		movs	r0, r4
  79 0030 FFF7FEFF 		bl	u8x8_cad_SendCmd
  80              	.LVL7:
 126:..\..\u8g2\csrc/u8x8_d_ssd1327.c ****       u8x8_cad_EndTransfer(u8x8);
  81              		.loc 1 126 0
  82 0034 2900     		movs	r1, r5
  83 0036 2000     		movs	r0, r4
  84 0038 FFF7FEFF 		bl	u8x8_cad_SendArg
  85              	.LVL8:
  86 003c 71E0     		b	.L32
  87              	.LVL9:
  88              	.L4:
 131:..\..\u8g2\csrc/u8x8_d_ssd1327.c ****       x = ((u8x8_tile_t *)arg_ptr)->x_pos;    
  89              		.loc 1 131 0
  90 003e FFF7FEFF 		bl	u8x8_cad_StartTransfer
  91              	.LVL10:
 132:..\..\u8g2\csrc/u8x8_d_ssd1327.c ****       x *= 4;
  92              		.loc 1 132 0
  93 0042 7B79     		ldrb	r3, [r7, #5]
  94              	.LVL11:
 133:..\..\u8g2\csrc/u8x8_d_ssd1327.c ****       x+=u8x8->x_offset/2;
  95              		.loc 1 133 0
  96 0044 9A00     		lsls	r2, r3, #2
  97              	.LVL12:
 134:..\..\u8g2\csrc/u8x8_d_ssd1327.c ****     
  98              		.loc 1 134 0
  99 0046 A37F     		ldrb	r3, [r4, #30]
 100 0048 5B08     		lsrs	r3, r3, #1
 101 004a D318     		adds	r3, r2, r3
 102 004c DBB2     		uxtb	r3, r3
 103 004e 0293     		str	r3, [sp, #8]
 104              	.LVL13:
 136:..\..\u8g2\csrc/u8x8_d_ssd1327.c ****       y *= 8;
 105              		.loc 1 136 0
 106 0050 BB79     		ldrb	r3, [r7, #6]
 107              	.LVL14:
 137:..\..\u8g2\csrc/u8x8_d_ssd1327.c ****     
ARM GAS  C:\Users\Greg\AppData\Local\Temp\ccYlj8YH.s 			page 8


 108              		.loc 1 137 0
 109 0052 DB00     		lsls	r3, r3, #3
 110              	.LVL15:
 111 0054 DBB2     		uxtb	r3, r3
 112 0056 0693     		str	r3, [sp, #24]
 113              	.LVL16:
 114              	.L13:
 142:..\..\u8g2\csrc/u8x8_d_ssd1327.c **** 	ptr = ((u8x8_tile_t *)arg_ptr)->tile_ptr;
 115              		.loc 1 142 0
 116 0058 3B79     		ldrb	r3, [r7, #4]
 143:..\..\u8g2\csrc/u8x8_d_ssd1327.c **** 
 117              		.loc 1 143 0
 118 005a 3E68     		ldr	r6, [r7]
 142:..\..\u8g2\csrc/u8x8_d_ssd1327.c **** 	ptr = ((u8x8_tile_t *)arg_ptr)->tile_ptr;
 119              		.loc 1 142 0
 120 005c 0793     		str	r3, [sp, #28]
 121              	.LVL17:
 122 005e 0193     		str	r3, [sp, #4]
 143:..\..\u8g2\csrc/u8x8_d_ssd1327.c **** 
 123              		.loc 1 143 0
 124 0060 029B     		ldr	r3, [sp, #8]
 125 0062 0093     		str	r3, [sp]
 126              	.LVL18:
 127              	.L12:
 147:..\..\u8g2\csrc/u8x8_d_ssd1327.c **** 	  u8x8_cad_SendArg(u8x8, x );	/* start */
 128              		.loc 1 147 0
 129 0064 1521     		movs	r1, #21
 130 0066 2000     		movs	r0, r4
 131 0068 FFF7FEFF 		bl	u8x8_cad_SendCmd
 132              	.LVL19:
 148:..\..\u8g2\csrc/u8x8_d_ssd1327.c **** 	  u8x8_cad_SendArg(u8x8, x+3 );	/* end */
 133              		.loc 1 148 0
 134 006c 0099     		ldr	r1, [sp]
 135 006e 2000     		movs	r0, r4
 136 0070 FFF7FEFF 		bl	u8x8_cad_SendArg
 137              	.LVL20:
 149:..\..\u8g2\csrc/u8x8_d_ssd1327.c **** 
 138              		.loc 1 149 0
 139 0074 009B     		ldr	r3, [sp]
 140 0076 2000     		movs	r0, r4
 141 0078 D91C     		adds	r1, r3, #3
 142 007a C9B2     		uxtb	r1, r1
 143 007c FFF7FEFF 		bl	u8x8_cad_SendArg
 144              	.LVL21:
 151:..\..\u8g2\csrc/u8x8_d_ssd1327.c **** 	  u8x8_cad_SendArg(u8x8, y);
 145              		.loc 1 151 0
 146 0080 7521     		movs	r1, #117
 147 0082 2000     		movs	r0, r4
 148 0084 FFF7FEFF 		bl	u8x8_cad_SendCmd
 149              	.LVL22:
 152:..\..\u8g2\csrc/u8x8_d_ssd1327.c **** 	  u8x8_cad_SendArg(u8x8, y+7);
 150              		.loc 1 152 0
 151 0088 0699     		ldr	r1, [sp, #24]
 152 008a 2000     		movs	r0, r4
 153 008c FFF7FEFF 		bl	u8x8_cad_SendArg
 154              	.LVL23:
 153:..\..\u8g2\csrc/u8x8_d_ssd1327.c **** 	  
ARM GAS  C:\Users\Greg\AppData\Local\Temp\ccYlj8YH.s 			page 9


 155              		.loc 1 153 0
 156 0090 069B     		ldr	r3, [sp, #24]
 157 0092 2000     		movs	r0, r4
 158 0094 D91D     		adds	r1, r3, #7
 159 0096 C9B2     		uxtb	r1, r1
 160 0098 FFF7FEFF 		bl	u8x8_cad_SendArg
 161              	.LVL24:
 162 009c 3200     		movs	r2, r6
 163 009e 374B     		ldr	r3, .L36+4
 164 00a0 0832     		adds	r2, r2, #8
 165 00a2 2033     		adds	r3, r3, #32
 166 00a4 0493     		str	r3, [sp, #16]
 167 00a6 0592     		str	r2, [sp, #20]
 168              	.LVL25:
 169              	.L11:
 170              	.LBB8:
 171              	.LBB9:
  77:..\..\u8g2\csrc/u8x8_d_ssd1327.c ****     ptr++;
 172              		.loc 1 77 0
 173 00a8 3178     		ldrb	r1, [r6]
  79:..\..\u8g2\csrc/u8x8_d_ssd1327.c ****     ptr++;
 174              		.loc 1 79 0
 175 00aa 7378     		ldrb	r3, [r6, #1]
  77:..\..\u8g2\csrc/u8x8_d_ssd1327.c ****     ptr++;
 176              		.loc 1 77 0
 177 00ac 8C46     		mov	ip, r1
 178 00ae 049A     		ldr	r2, [sp, #16]
  79:..\..\u8g2\csrc/u8x8_d_ssd1327.c ****     ptr++;
 179              		.loc 1 79 0
 180 00b0 0393     		str	r3, [sp, #12]
 181 00b2 203A     		subs	r2, r2, #32
 182              	.LVL26:
 183 00b4 0236     		adds	r6, r6, #2
 184              	.LVL27:
 185              	.L10:
  84:..\..\u8g2\csrc/u8x8_d_ssd1327.c ****       if ( b&1 ) v |= 0x0f;
 186              		.loc 1 84 0
 187 00b6 6046     		mov	r0, ip
 188 00b8 0123     		movs	r3, #1
  83:..\..\u8g2\csrc/u8x8_d_ssd1327.c ****       if ( a&1 ) v |= 0xf0;
 189              		.loc 1 83 0
 190 00ba 0021     		movs	r1, #0
  84:..\..\u8g2\csrc/u8x8_d_ssd1327.c ****       if ( b&1 ) v |= 0x0f;
 191              		.loc 1 84 0
 192 00bc 1842     		tst	r0, r3
 193 00be 00D0     		beq	.L8
 194 00c0 F031     		adds	r1, r1, #240
 195              	.L8:
 196              	.LVL28:
  85:..\..\u8g2\csrc/u8x8_d_ssd1327.c ****       *dest = v;
 197              		.loc 1 85 0
 198 00c2 0123     		movs	r3, #1
 199 00c4 0398     		ldr	r0, [sp, #12]
 200 00c6 1842     		tst	r0, r3
 201 00c8 01D0     		beq	.L9
 202 00ca 0E33     		adds	r3, r3, #14
 203 00cc 1943     		orrs	r1, r3
ARM GAS  C:\Users\Greg\AppData\Local\Temp\ccYlj8YH.s 			page 10


 204              	.LVL29:
 205              	.L9:
  88:..\..\u8g2\csrc/u8x8_d_ssd1327.c ****       b >>= 1;
 206              		.loc 1 88 0
 207 00ce 6346     		mov	r3, ip
 208 00d0 5B08     		lsrs	r3, r3, #1
 209 00d2 9C46     		mov	ip, r3
 210              	.LVL30:
  89:..\..\u8g2\csrc/u8x8_d_ssd1327.c ****     }
 211              		.loc 1 89 0
 212 00d4 039B     		ldr	r3, [sp, #12]
  86:..\..\u8g2\csrc/u8x8_d_ssd1327.c ****       dest+=4;
 213              		.loc 1 86 0
 214 00d6 1170     		strb	r1, [r2]
  89:..\..\u8g2\csrc/u8x8_d_ssd1327.c ****     }
 215              		.loc 1 89 0
 216 00d8 5B08     		lsrs	r3, r3, #1
 217 00da 0393     		str	r3, [sp, #12]
 218              	.LVL31:
  81:..\..\u8g2\csrc/u8x8_d_ssd1327.c ****     {
 219              		.loc 1 81 0
 220 00dc 049B     		ldr	r3, [sp, #16]
  87:..\..\u8g2\csrc/u8x8_d_ssd1327.c ****       a >>= 1;
 221              		.loc 1 87 0
 222 00de 0432     		adds	r2, r2, #4
 223              	.LVL32:
  81:..\..\u8g2\csrc/u8x8_d_ssd1327.c ****     {
 224              		.loc 1 81 0
 225 00e0 9A42     		cmp	r2, r3
 226 00e2 E8D1     		bne	.L10
 227              	.LVL33:
 228 00e4 531C     		adds	r3, r2, #1
 229 00e6 0493     		str	r3, [sp, #16]
  73:..\..\u8g2\csrc/u8x8_d_ssd1327.c ****   {
 230              		.loc 1 73 0
 231 00e8 059B     		ldr	r3, [sp, #20]
 232 00ea B342     		cmp	r3, r6
 233 00ec DCD1     		bne	.L11
 234              	.LVL34:
 235              	.LBE9:
 236              	.LBE8:
 156:..\..\u8g2\csrc/u8x8_d_ssd1327.c **** 	  ptr += 8;
 237              		.loc 1 156 0
 238 00ee 234A     		ldr	r2, .L36+4
 239 00f0 2021     		movs	r1, #32
 240 00f2 2000     		movs	r0, r4
 241 00f4 FFF7FEFF 		bl	u8x8_cad_SendData
 242              	.LVL35:
 158:..\..\u8g2\csrc/u8x8_d_ssd1327.c **** 	  c--;
 243              		.loc 1 158 0
 244 00f8 009B     		ldr	r3, [sp]
 245 00fa 059E     		ldr	r6, [sp, #20]
 246 00fc 0433     		adds	r3, r3, #4
 247 00fe DBB2     		uxtb	r3, r3
 248 0100 0093     		str	r3, [sp]
 249              	.LVL36:
 159:..\..\u8g2\csrc/u8x8_d_ssd1327.c **** 	} while( c > 0 );
ARM GAS  C:\Users\Greg\AppData\Local\Temp\ccYlj8YH.s 			page 11


 250              		.loc 1 159 0
 251 0102 019B     		ldr	r3, [sp, #4]
 252 0104 013B     		subs	r3, r3, #1
 253 0106 DBB2     		uxtb	r3, r3
 254 0108 0193     		str	r3, [sp, #4]
 255              	.LVL37:
 160:..\..\u8g2\csrc/u8x8_d_ssd1327.c **** 	
 256              		.loc 1 160 0
 257 010a 002B     		cmp	r3, #0
 258 010c AAD1     		bne	.L12
 259 010e 079B     		ldr	r3, [sp, #28]
 260 0110 029A     		ldr	r2, [sp, #8]
 261 0112 9B00     		lsls	r3, r3, #2
 262 0114 D318     		adds	r3, r2, r3
 163:..\..\u8g2\csrc/u8x8_d_ssd1327.c ****       } while( arg_int > 0 );
 263              		.loc 1 163 0
 264 0116 013D     		subs	r5, r5, #1
 265              	.LVL38:
 266 0118 DBB2     		uxtb	r3, r3
 267 011a EDB2     		uxtb	r5, r5
 268              	.LVL39:
 269 011c 0293     		str	r3, [sp, #8]
 164:..\..\u8g2\csrc/u8x8_d_ssd1327.c ****       
 270              		.loc 1 164 0
 271 011e 002D     		cmp	r5, #0
 272 0120 9AD1     		bne	.L13
 273              	.LVL40:
 274              	.L32:
 166:..\..\u8g2\csrc/u8x8_d_ssd1327.c ****       break;
 275              		.loc 1 166 0
 276 0122 2000     		movs	r0, r4
 277 0124 FFF7FEFF 		bl	u8x8_cad_EndTransfer
 278              	.LVL41:
 279 0128 23E0     		b	.L7
 280              	.LVL42:
 281              	.L30:
 282              	.LBE7:
 283              	.LBE6:
 281:..\..\u8g2\csrc/u8x8_d_ssd1327.c ****   if ( u8x8_d_ssd1327_96x96_generic(u8x8, msg, arg_int, arg_ptr) != 0 )
 282:..\..\u8g2\csrc/u8x8_d_ssd1327.c ****     return 1;
 283:..\..\u8g2\csrc/u8x8_d_ssd1327.c ****   if ( msg == U8X8_MSG_DISPLAY_SETUP_MEMORY )
 284              		.loc 1 283 0
 285 012a 0929     		cmp	r1, #9
 286 012c 05D1     		bne	.L31
 284:..\..\u8g2\csrc/u8x8_d_ssd1327.c ****   {
 285:..\..\u8g2\csrc/u8x8_d_ssd1327.c ****     u8x8_d_helper_display_setup_memory(u8x8, &u8x8_ssd1327_96x96_display_info);
 287              		.loc 1 285 0
 288 012e 1249     		ldr	r1, .L36
 289              	.LVL43:
 290 0130 2000     		movs	r0, r4
 291              	.LVL44:
 292 0132 0C31     		adds	r1, r1, #12
 293 0134 FFF7FEFF 		bl	u8x8_d_helper_display_setup_memory
 294              	.LVL45:
 295 0138 1BE0     		b	.L7
 296              	.LVL46:
 297              	.L31:
ARM GAS  C:\Users\Greg\AppData\Local\Temp\ccYlj8YH.s 			page 12


 286:..\..\u8g2\csrc/u8x8_d_ssd1327.c ****     return 1;
 287:..\..\u8g2\csrc/u8x8_d_ssd1327.c ****   }
 288:..\..\u8g2\csrc/u8x8_d_ssd1327.c ****   else if ( msg == U8X8_MSG_DISPLAY_INIT )
 298              		.loc 1 288 0
 299 013a 0A29     		cmp	r1, #10
 300 013c 05D1     		bne	.L15
 289:..\..\u8g2\csrc/u8x8_d_ssd1327.c ****   {
 290:..\..\u8g2\csrc/u8x8_d_ssd1327.c ****     u8x8_d_helper_display_init(u8x8);
 301              		.loc 1 290 0
 302 013e 2000     		movs	r0, r4
 303              	.LVL47:
 304 0140 FFF7FEFF 		bl	u8x8_d_helper_display_init
 305              	.LVL48:
 291:..\..\u8g2\csrc/u8x8_d_ssd1327.c ****     u8x8_cad_SendSequence(u8x8, u8x8_d_ssd1327_96x96_init_seq);    
 306              		.loc 1 291 0
 307 0144 0C49     		ldr	r1, .L36
 308 0146 2431     		adds	r1, r1, #36
 309 0148 6AE7     		b	.L33
 310              	.LVL49:
 311              	.L15:
 292:..\..\u8g2\csrc/u8x8_d_ssd1327.c ****     return 1;
 293:..\..\u8g2\csrc/u8x8_d_ssd1327.c ****   }
 294:..\..\u8g2\csrc/u8x8_d_ssd1327.c ****   else if  ( msg == U8X8_MSG_DISPLAY_SET_FLIP_MODE )
 295:..\..\u8g2\csrc/u8x8_d_ssd1327.c ****   {
 296:..\..\u8g2\csrc/u8x8_d_ssd1327.c ****     if ( arg_int == 0 )
 297:..\..\u8g2\csrc/u8x8_d_ssd1327.c ****     {
 298:..\..\u8g2\csrc/u8x8_d_ssd1327.c ****       u8x8_cad_SendSequence(u8x8, u8x8_d_ssd1327_seeed_96x96_flip0_seq);
 299:..\..\u8g2\csrc/u8x8_d_ssd1327.c ****       u8x8->x_offset = u8x8->display_info->default_x_offset;
 300:..\..\u8g2\csrc/u8x8_d_ssd1327.c ****     }
 301:..\..\u8g2\csrc/u8x8_d_ssd1327.c ****     else
 302:..\..\u8g2\csrc/u8x8_d_ssd1327.c ****     {
 303:..\..\u8g2\csrc/u8x8_d_ssd1327.c ****       u8x8_cad_SendSequence(u8x8, u8x8_d_ssd1327_seeed_96x96_flip1_seq);
 304:..\..\u8g2\csrc/u8x8_d_ssd1327.c ****       u8x8->x_offset = u8x8->display_info->flipmode_x_offset;
 305:..\..\u8g2\csrc/u8x8_d_ssd1327.c ****     }
 306:..\..\u8g2\csrc/u8x8_d_ssd1327.c ****     return 1;
 307:..\..\u8g2\csrc/u8x8_d_ssd1327.c ****   }
 308:..\..\u8g2\csrc/u8x8_d_ssd1327.c ****   return 0;
 312              		.loc 1 308 0
 313 014a 0020     		movs	r0, #0
 314              	.LVL50:
 294:..\..\u8g2\csrc/u8x8_d_ssd1327.c ****   {
 315              		.loc 1 294 0
 316 014c 0D29     		cmp	r1, #13
 317 014e 11D1     		bne	.L23
 318 0150 0949     		ldr	r1, .L36
 319              	.LVL51:
 296:..\..\u8g2\csrc/u8x8_d_ssd1327.c ****     {
 320              		.loc 1 296 0
 321 0152 8542     		cmp	r5, r0
 322 0154 06D1     		bne	.L16
 298:..\..\u8g2\csrc/u8x8_d_ssd1327.c ****       u8x8->x_offset = u8x8->display_info->default_x_offset;
 323              		.loc 1 298 0
 324 0156 6131     		adds	r1, r1, #97
 325 0158 2000     		movs	r0, r4
 326 015a FFF7FEFF 		bl	u8x8_cad_SendSequence
 327              	.LVL52:
 299:..\..\u8g2\csrc/u8x8_d_ssd1327.c ****     }
ARM GAS  C:\Users\Greg\AppData\Local\Temp\ccYlj8YH.s 			page 13


 328              		.loc 1 299 0
 329 015e 2368     		ldr	r3, [r4]
 330 0160 9B7C     		ldrb	r3, [r3, #18]
 331 0162 05E0     		b	.L34
 332              	.LVL53:
 333              	.L16:
 303:..\..\u8g2\csrc/u8x8_d_ssd1327.c ****       u8x8->x_offset = u8x8->display_info->flipmode_x_offset;
 334              		.loc 1 303 0
 335 0164 6C31     		adds	r1, r1, #108
 336 0166 2000     		movs	r0, r4
 337 0168 FFF7FEFF 		bl	u8x8_cad_SendSequence
 338              	.LVL54:
 304:..\..\u8g2\csrc/u8x8_d_ssd1327.c ****     }
 339              		.loc 1 304 0
 340 016c 2368     		ldr	r3, [r4]
 341 016e DB7C     		ldrb	r3, [r3, #19]
 342              	.L34:
 343 0170 A377     		strb	r3, [r4, #30]
 344              	.L7:
 282:..\..\u8g2\csrc/u8x8_d_ssd1327.c ****   if ( msg == U8X8_MSG_DISPLAY_SETUP_MEMORY )
 345              		.loc 1 282 0
 346 0172 0120     		movs	r0, #1
 347              	.L23:
 309:..\..\u8g2\csrc/u8x8_d_ssd1327.c **** }
 348              		.loc 1 309 0
 349 0174 09B0     		add	sp, sp, #36
 350              		@ sp needed
 351              	.LVL55:
 352              	.LVL56:
 353 0176 F0BD     		pop	{r4, r5, r6, r7, pc}
 354              	.L37:
 355              		.align	2
 356              	.L36:
 357 0178 00000000 		.word	.LANCHOR0
 358 017c 00000000 		.word	.LANCHOR1
 359              		.cfi_endproc
 360              	.LFE2:
 361              		.size	u8x8_d_ssd1327_seeed_96x96, .-u8x8_d_ssd1327_seeed_96x96
 362              		.section	.rodata
 363              		.align	2
 364              		.set	.LANCHOR0,. + 0
 365              		.type	u8x8_d_ssd1327_96x96_powersave0_seq, %object
 366              		.size	u8x8_d_ssd1327_96x96_powersave0_seq, 5
 367              	u8x8_d_ssd1327_96x96_powersave0_seq:
 368 0000 18       		.byte	24
 369 0001 15       		.byte	21
 370 0002 AF       		.byte	-81
 371 0003 19       		.byte	25
 372 0004 FF       		.byte	-1
 373              		.type	u8x8_d_ssd1327_96x96_powersave1_seq, %object
 374              		.size	u8x8_d_ssd1327_96x96_powersave1_seq, 5
 375              	u8x8_d_ssd1327_96x96_powersave1_seq:
 376 0005 18       		.byte	24
 377 0006 15       		.byte	21
 378 0007 AE       		.byte	-82
 379 0008 19       		.byte	25
 380 0009 FF       		.byte	-1
ARM GAS  C:\Users\Greg\AppData\Local\Temp\ccYlj8YH.s 			page 14


 381 000a 0000     		.space	2
 382              		.type	u8x8_ssd1327_96x96_display_info, %object
 383              		.size	u8x8_ssd1327_96x96_display_info, 24
 384              	u8x8_ssd1327_96x96_display_info:
 385 000c 00       		.byte	0
 386 000d 01       		.byte	1
 387 000e 14       		.byte	20
 388 000f 0A       		.byte	10
 389 0010 64       		.byte	100
 390 0011 64       		.byte	100
 391 0012 64       		.byte	100
 392 0013 64       		.byte	100
 393 0014 00093D00 		.word	4000000
 394 0018 00       		.byte	0
 395 0019 01       		.byte	1
 396 001a 28       		.byte	40
 397 001b 3C       		.byte	60
 398 001c 0C       		.byte	12
 399 001d 0C       		.byte	12
 400 001e 10       		.byte	16
 401 001f 10       		.byte	16
 402 0020 6000     		.short	96
 403 0022 6000     		.short	96
 404              		.type	u8x8_d_ssd1327_96x96_init_seq, %object
 405              		.size	u8x8_d_ssd1327_96x96_init_seq, 61
 406              	u8x8_d_ssd1327_96x96_init_seq:
 407 0024 18       		.byte	24
 408 0025 15       		.byte	21
 409 0026 FD       		.byte	-3
 410 0027 16       		.byte	22
 411 0028 12       		.byte	18
 412 0029 15       		.byte	21
 413 002a AE       		.byte	-82
 414 002b 15       		.byte	21
 415 002c A8       		.byte	-88
 416 002d 16       		.byte	22
 417 002e 5F       		.byte	95
 418 002f 15       		.byte	21
 419 0030 A1       		.byte	-95
 420 0031 16       		.byte	22
 421 0032 00       		.byte	0
 422 0033 15       		.byte	21
 423 0034 A2       		.byte	-94
 424 0035 16       		.byte	22
 425 0036 20       		.byte	32
 426 0037 15       		.byte	21
 427 0038 A0       		.byte	-96
 428 0039 16       		.byte	22
 429 003a 51       		.byte	81
 430 003b 15       		.byte	21
 431 003c AB       		.byte	-85
 432 003d 16       		.byte	22
 433 003e 01       		.byte	1
 434 003f 15       		.byte	21
 435 0040 81       		.byte	-127
 436 0041 16       		.byte	22
 437 0042 53       		.byte	83
ARM GAS  C:\Users\Greg\AppData\Local\Temp\ccYlj8YH.s 			page 15


 438 0043 15       		.byte	21
 439 0044 B1       		.byte	-79
 440 0045 16       		.byte	22
 441 0046 51       		.byte	81
 442 0047 15       		.byte	21
 443 0048 B3       		.byte	-77
 444 0049 16       		.byte	22
 445 004a 01       		.byte	1
 446 004b 15       		.byte	21
 447 004c B9       		.byte	-71
 448 004d 15       		.byte	21
 449 004e BC       		.byte	-68
 450 004f 16       		.byte	22
 451 0050 08       		.byte	8
 452 0051 15       		.byte	21
 453 0052 BE       		.byte	-66
 454 0053 16       		.byte	22
 455 0054 07       		.byte	7
 456 0055 15       		.byte	21
 457 0056 B6       		.byte	-74
 458 0057 16       		.byte	22
 459 0058 01       		.byte	1
 460 0059 15       		.byte	21
 461 005a D5       		.byte	-43
 462 005b 16       		.byte	22
 463 005c 62       		.byte	98
 464 005d 15       		.byte	21
 465 005e A4       		.byte	-92
 466 005f 19       		.byte	25
 467 0060 FF       		.byte	-1
 468              		.type	u8x8_d_ssd1327_seeed_96x96_flip0_seq, %object
 469              		.size	u8x8_d_ssd1327_seeed_96x96_flip0_seq, 11
 470              	u8x8_d_ssd1327_seeed_96x96_flip0_seq:
 471 0061 18       		.byte	24
 472 0062 15       		.byte	21
 473 0063 A2       		.byte	-94
 474 0064 16       		.byte	22
 475 0065 20       		.byte	32
 476 0066 15       		.byte	21
 477 0067 A0       		.byte	-96
 478 0068 16       		.byte	22
 479 0069 51       		.byte	81
 480 006a 19       		.byte	25
 481 006b FF       		.byte	-1
 482              		.type	u8x8_d_ssd1327_seeed_96x96_flip1_seq, %object
 483              		.size	u8x8_d_ssd1327_seeed_96x96_flip1_seq, 11
 484              	u8x8_d_ssd1327_seeed_96x96_flip1_seq:
 485 006c 18       		.byte	24
 486 006d 15       		.byte	21
 487 006e A2       		.byte	-94
 488 006f 16       		.byte	22
 489 0070 60       		.byte	96
 490 0071 15       		.byte	21
 491 0072 A0       		.byte	-96
 492 0073 16       		.byte	22
 493 0074 42       		.byte	66
 494 0075 19       		.byte	25
ARM GAS  C:\Users\Greg\AppData\Local\Temp\ccYlj8YH.s 			page 16


 495 0076 FF       		.byte	-1
 496              		.bss
 497              		.set	.LANCHOR1,. + 0
 498              		.type	u8x8_ssd1327_8to32_dest_buf, %object
 499              		.size	u8x8_ssd1327_8to32_dest_buf, 32
 500              	u8x8_ssd1327_8to32_dest_buf:
 501 0000 00000000 		.space	32
 501      00000000 
 501      00000000 
 501      00000000 
 501      00000000 
 502              		.text
 503              	.Letext0:
 504              		.file 2 "c:\\program files\\cypress\\psoc creator\\4.1\\psoc creator\\import\\gnu\\arm\\5.4.1\\arm
 505              		.file 3 "c:\\program files\\cypress\\psoc creator\\4.1\\psoc creator\\import\\gnu\\arm\\5.4.1\\arm
 506              		.file 4 "..\\..\\u8g2\\csrc\\u8x8.h"