ARM GAS  C:\Users\Greg\AppData\Local\Temp\cccvkKIJ.s 			page 1


   1              		.syntax unified
   2              		.cpu cortex-m0
   3              		.fpu softvfp
   4              		.eabi_attribute 20, 1
   5              		.eabi_attribute 21, 1
   6              		.eabi_attribute 23, 3
   7              		.eabi_attribute 24, 1
   8              		.eabi_attribute 25, 1
   9              		.eabi_attribute 26, 1
  10              		.eabi_attribute 30, 4
  11              		.eabi_attribute 34, 0
  12              		.eabi_attribute 18, 4
  13              		.thumb
  14              		.syntax unified
  15              		.file	"u8x8_d_ssd1322.c"
  16              		.text
  17              	.Ltext0:
  18              		.cfi_sections	.debug_frame
  19              		.section	.text.u8x8_write_byte_to_16gr_device,"ax",%progbits
  20              		.align	1
  21              		.global	u8x8_write_byte_to_16gr_device
  22              		.code	16
  23              		.thumb_func
  24              		.type	u8x8_write_byte_to_16gr_device, %function
  25              	u8x8_write_byte_to_16gr_device:
  26              	.LFB0:
  27              		.file 1 "..\\..\\u8g2\\csrc\\u8x8_d_ssd1322.c"
   1:..\..\u8g2\csrc/u8x8_d_ssd1322.c **** /*
   2:..\..\u8g2\csrc/u8x8_d_ssd1322.c **** 
   3:..\..\u8g2\csrc/u8x8_d_ssd1322.c ****   u8x8_d_ssd1322.c
   4:..\..\u8g2\csrc/u8x8_d_ssd1322.c ****   
   5:..\..\u8g2\csrc/u8x8_d_ssd1322.c ****   Universal 8bit Graphics Library (https://github.com/olikraus/u8g2/)
   6:..\..\u8g2\csrc/u8x8_d_ssd1322.c **** 
   7:..\..\u8g2\csrc/u8x8_d_ssd1322.c ****   Copyright (c) 2016, olikraus@gmail.com
   8:..\..\u8g2\csrc/u8x8_d_ssd1322.c ****   All rights reserved.
   9:..\..\u8g2\csrc/u8x8_d_ssd1322.c **** 
  10:..\..\u8g2\csrc/u8x8_d_ssd1322.c ****   Redistribution and use in source and binary forms, with or without modification, 
  11:..\..\u8g2\csrc/u8x8_d_ssd1322.c ****   are permitted provided that the following conditions are met:
  12:..\..\u8g2\csrc/u8x8_d_ssd1322.c **** 
  13:..\..\u8g2\csrc/u8x8_d_ssd1322.c ****   * Redistributions of source code must retain the above copyright notice, this list 
  14:..\..\u8g2\csrc/u8x8_d_ssd1322.c ****     of conditions and the following disclaimer.
  15:..\..\u8g2\csrc/u8x8_d_ssd1322.c ****     
  16:..\..\u8g2\csrc/u8x8_d_ssd1322.c ****   * Redistributions in binary form must reproduce the above copyright notice, this 
  17:..\..\u8g2\csrc/u8x8_d_ssd1322.c ****     list of conditions and the following disclaimer in the documentation and/or other 
  18:..\..\u8g2\csrc/u8x8_d_ssd1322.c ****     materials provided with the distribution.
  19:..\..\u8g2\csrc/u8x8_d_ssd1322.c **** 
  20:..\..\u8g2\csrc/u8x8_d_ssd1322.c ****   THIS SOFTWARE IS PROVIDED BY THE COPYRIGHT HOLDERS AND 
  21:..\..\u8g2\csrc/u8x8_d_ssd1322.c ****   CONTRIBUTORS "AS IS" AND ANY EXPRESS OR IMPLIED WARRANTIES, 
  22:..\..\u8g2\csrc/u8x8_d_ssd1322.c ****   INCLUDING, BUT NOT LIMITED TO, THE IMPLIED WARRANTIES OF 
  23:..\..\u8g2\csrc/u8x8_d_ssd1322.c ****   MERCHANTABILITY AND FITNESS FOR A PARTICULAR PURPOSE ARE 
  24:..\..\u8g2\csrc/u8x8_d_ssd1322.c ****   DISCLAIMED. IN NO EVENT SHALL THE COPYRIGHT HOLDER OR 
  25:..\..\u8g2\csrc/u8x8_d_ssd1322.c ****   CONTRIBUTORS BE LIABLE FOR ANY DIRECT, INDIRECT, INCIDENTAL, 
  26:..\..\u8g2\csrc/u8x8_d_ssd1322.c ****   SPECIAL, EXEMPLARY, OR CONSEQUENTIAL DAMAGES (INCLUDING, BUT 
  27:..\..\u8g2\csrc/u8x8_d_ssd1322.c ****   NOT LIMITED TO, PROCUREMENT OF SUBSTITUTE GOODS OR SERVICES; 
  28:..\..\u8g2\csrc/u8x8_d_ssd1322.c ****   LOSS OF USE, DATA, OR PROFITS; OR BUSINESS INTERRUPTION) HOWEVER 
  29:..\..\u8g2\csrc/u8x8_d_ssd1322.c ****   CAUSED AND ON ANY THEORY OF LIABILITY, WHETHER IN CONTRACT, 
  30:..\..\u8g2\csrc/u8x8_d_ssd1322.c ****   STRICT LIABILITY, OR TORT (INCLUDING NEGLIGENCE OR OTHERWISE) 
ARM GAS  C:\Users\Greg\AppData\Local\Temp\cccvkKIJ.s 			page 2


  31:..\..\u8g2\csrc/u8x8_d_ssd1322.c ****   ARISING IN ANY WAY OUT OF THE USE OF THIS SOFTWARE, EVEN IF 
  32:..\..\u8g2\csrc/u8x8_d_ssd1322.c ****   ADVISED OF THE POSSIBILITY OF SUCH DAMAGE.  
  33:..\..\u8g2\csrc/u8x8_d_ssd1322.c **** 
  34:..\..\u8g2\csrc/u8x8_d_ssd1322.c **** 
  35:..\..\u8g2\csrc/u8x8_d_ssd1322.c ****   
  36:..\..\u8g2\csrc/u8x8_d_ssd1322.c ****   
  37:..\..\u8g2\csrc/u8x8_d_ssd1322.c **** */
  38:..\..\u8g2\csrc/u8x8_d_ssd1322.c **** #include "u8x8.h"
  39:..\..\u8g2\csrc/u8x8_d_ssd1322.c **** 
  40:..\..\u8g2\csrc/u8x8_d_ssd1322.c **** 
  41:..\..\u8g2\csrc/u8x8_d_ssd1322.c **** 
  42:..\..\u8g2\csrc/u8x8_d_ssd1322.c **** static const uint8_t u8x8_d_ssd1322_init_seq[] = {
  43:..\..\u8g2\csrc/u8x8_d_ssd1322.c ****     
  44:..\..\u8g2\csrc/u8x8_d_ssd1322.c ****   U8X8_DLY(1),
  45:..\..\u8g2\csrc/u8x8_d_ssd1322.c ****   U8X8_START_TRANSFER(),             	/* enable chip, delay is part of the transfer start */
  46:..\..\u8g2\csrc/u8x8_d_ssd1322.c ****   U8X8_DLY(1),
  47:..\..\u8g2\csrc/u8x8_d_ssd1322.c ****   
  48:..\..\u8g2\csrc/u8x8_d_ssd1322.c ****   U8X8_CA(0xfd, 0x12),            	/* unlock */
  49:..\..\u8g2\csrc/u8x8_d_ssd1322.c ****   U8X8_C(0xae),		                /* display off */
  50:..\..\u8g2\csrc/u8x8_d_ssd1322.c ****   U8X8_CA(0xb3, 0x91),			/* set display clock divide ratio/oscillator frequency (set clock as 80 fr
  51:..\..\u8g2\csrc/u8x8_d_ssd1322.c ****   U8X8_CA(0xca, 0x3f),			/* multiplex ratio 1/64 Duty (0x0F~0x3F) */  
  52:..\..\u8g2\csrc/u8x8_d_ssd1322.c ****   U8X8_CA(0xa2, 0x00),			/* display offset, shift mapping ram counter */  
  53:..\..\u8g2\csrc/u8x8_d_ssd1322.c ****   U8X8_CA(0xa1, 0x00),			/* display start line */  
  54:..\..\u8g2\csrc/u8x8_d_ssd1322.c ****   //U8X8_CAA(0xa0, 0x14, 0x11),	/* Set Re-Map / Dual COM Line Mode */  
  55:..\..\u8g2\csrc/u8x8_d_ssd1322.c ****   U8X8_CAA(0xa0, 0x06, 0x011),	/* Set Re-Map / Dual COM Line Mode */  
  56:..\..\u8g2\csrc/u8x8_d_ssd1322.c ****   U8X8_CA(0xab, 0x01),			/* Enable Internal VDD Regulator */  
  57:..\..\u8g2\csrc/u8x8_d_ssd1322.c ****   U8X8_CAA(0xb4, 0xa0, 0x005|0x0fd),	/* Display Enhancement A */  
  58:..\..\u8g2\csrc/u8x8_d_ssd1322.c ****   U8X8_CA(0xc1, 0x9f),			/* contrast */  
  59:..\..\u8g2\csrc/u8x8_d_ssd1322.c ****   U8X8_CA(0xc7, 0x0f),			/* Set Scale Factor of Segment Output Current Control */  
  60:..\..\u8g2\csrc/u8x8_d_ssd1322.c ****   U8X8_C(0xb9),		                /* linear grayscale */
  61:..\..\u8g2\csrc/u8x8_d_ssd1322.c ****   U8X8_CA(0xb1, 0xe2),			/* Phase 1 (Reset) & Phase 2 (Pre-Charge) Period Adjustment */  
  62:..\..\u8g2\csrc/u8x8_d_ssd1322.c ****   U8X8_CAA(0xd1, 0x082|0x020, 0x020),	/* Display Enhancement B */  
  63:..\..\u8g2\csrc/u8x8_d_ssd1322.c ****   U8X8_CA(0xbb, 0x1f),			/* precharge  voltage */  
  64:..\..\u8g2\csrc/u8x8_d_ssd1322.c ****   U8X8_CA(0xb6, 0x08),			/* precharge  period */  
  65:..\..\u8g2\csrc/u8x8_d_ssd1322.c ****   U8X8_CA(0xbe, 0x07),			/* vcomh */  
  66:..\..\u8g2\csrc/u8x8_d_ssd1322.c ****   U8X8_C(0xa6),		                /* normal display */
  67:..\..\u8g2\csrc/u8x8_d_ssd1322.c ****   U8X8_C(0xa9),		                /* exit partial display */
  68:..\..\u8g2\csrc/u8x8_d_ssd1322.c **** 
  69:..\..\u8g2\csrc/u8x8_d_ssd1322.c **** 
  70:..\..\u8g2\csrc/u8x8_d_ssd1322.c ****   U8X8_DLY(1),					/* delay 2ms */
  71:..\..\u8g2\csrc/u8x8_d_ssd1322.c **** 
  72:..\..\u8g2\csrc/u8x8_d_ssd1322.c ****   
  73:..\..\u8g2\csrc/u8x8_d_ssd1322.c ****   U8X8_END_TRANSFER(),             	/* disable chip */
  74:..\..\u8g2\csrc/u8x8_d_ssd1322.c ****   U8X8_END()             			/* end of sequence */
  75:..\..\u8g2\csrc/u8x8_d_ssd1322.c **** };
  76:..\..\u8g2\csrc/u8x8_d_ssd1322.c **** 
  77:..\..\u8g2\csrc/u8x8_d_ssd1322.c **** static const uint8_t u8x8_d_ssd1322_powersave0_seq[] = {
  78:..\..\u8g2\csrc/u8x8_d_ssd1322.c ****   U8X8_START_TRANSFER(),             	/* enable chip, delay is part of the transfer start */
  79:..\..\u8g2\csrc/u8x8_d_ssd1322.c ****   U8X8_C(0x0af),		                /* ssd1322: display on */
  80:..\..\u8g2\csrc/u8x8_d_ssd1322.c ****   U8X8_END_TRANSFER(),             	/* disable chip */
  81:..\..\u8g2\csrc/u8x8_d_ssd1322.c ****   U8X8_END()             			/* end of sequence */
  82:..\..\u8g2\csrc/u8x8_d_ssd1322.c **** };
  83:..\..\u8g2\csrc/u8x8_d_ssd1322.c **** 
  84:..\..\u8g2\csrc/u8x8_d_ssd1322.c **** static const uint8_t u8x8_d_ssd1322_powersave1_seq[] = {
  85:..\..\u8g2\csrc/u8x8_d_ssd1322.c ****   U8X8_START_TRANSFER(),             	/* enable chip, delay is part of the transfer start */
  86:..\..\u8g2\csrc/u8x8_d_ssd1322.c ****   U8X8_C(0x0ae),		                /* ssd1322: display off */
  87:..\..\u8g2\csrc/u8x8_d_ssd1322.c ****   U8X8_END_TRANSFER(),             	/* disable chip */
ARM GAS  C:\Users\Greg\AppData\Local\Temp\cccvkKIJ.s 			page 3


  88:..\..\u8g2\csrc/u8x8_d_ssd1322.c ****   U8X8_END()             			/* end of sequence */
  89:..\..\u8g2\csrc/u8x8_d_ssd1322.c **** };
  90:..\..\u8g2\csrc/u8x8_d_ssd1322.c **** 
  91:..\..\u8g2\csrc/u8x8_d_ssd1322.c **** static const uint8_t u8x8_d_ssd1322_256x64_flip0_seq[] = {
  92:..\..\u8g2\csrc/u8x8_d_ssd1322.c ****   U8X8_START_TRANSFER(),             	/* enable chip, delay is part of the transfer start */
  93:..\..\u8g2\csrc/u8x8_d_ssd1322.c ****   U8X8_CAA(0x0a0, 0x006, 0x011),		/* remap */
  94:..\..\u8g2\csrc/u8x8_d_ssd1322.c ****   U8X8_END_TRANSFER(),             	/* disable chip */
  95:..\..\u8g2\csrc/u8x8_d_ssd1322.c ****   U8X8_END()             			/* end of sequence */
  96:..\..\u8g2\csrc/u8x8_d_ssd1322.c **** };
  97:..\..\u8g2\csrc/u8x8_d_ssd1322.c **** 
  98:..\..\u8g2\csrc/u8x8_d_ssd1322.c **** static const uint8_t u8x8_d_ssd1322_256x64_flip1_seq[] = {
  99:..\..\u8g2\csrc/u8x8_d_ssd1322.c ****   U8X8_START_TRANSFER(),             	/* enable chip, delay is part of the transfer start */
 100:..\..\u8g2\csrc/u8x8_d_ssd1322.c ****   U8X8_CAA(0x0a0, 0x014, 0x011),		/* remap */
 101:..\..\u8g2\csrc/u8x8_d_ssd1322.c ****   U8X8_END_TRANSFER(),             	/* disable chip */
 102:..\..\u8g2\csrc/u8x8_d_ssd1322.c ****   U8X8_END()             			/* end of sequence */
 103:..\..\u8g2\csrc/u8x8_d_ssd1322.c **** };
 104:..\..\u8g2\csrc/u8x8_d_ssd1322.c **** 
 105:..\..\u8g2\csrc/u8x8_d_ssd1322.c **** 
 106:..\..\u8g2\csrc/u8x8_d_ssd1322.c **** /* interpret b as a monochrome bit pattern, write value 15 for high bit and value 0 for a low bit *
 107:..\..\u8g2\csrc/u8x8_d_ssd1322.c **** /* topbit (msb) is sent last */
 108:..\..\u8g2\csrc/u8x8_d_ssd1322.c **** /* example: b = 0x083 will send 0xff, 0x00, 0x00, 0xf0 */
 109:..\..\u8g2\csrc/u8x8_d_ssd1322.c **** 
 110:..\..\u8g2\csrc/u8x8_d_ssd1322.c **** /* 4 Jan 2017: I think this procedure not required any more. Delete? */
 111:..\..\u8g2\csrc/u8x8_d_ssd1322.c **** uint8_t u8x8_write_byte_to_16gr_device(u8x8_t *u8x8, uint8_t b)
 112:..\..\u8g2\csrc/u8x8_d_ssd1322.c **** {
  28              		.loc 1 112 0
  29              		.cfi_startproc
  30              		@ args = 0, pretend = 0, frame = 0
  31              		@ frame_needed = 0, uses_anonymous_args = 0
  32              	.LVL0:
  33 0000 70B5     		push	{r4, r5, r6, lr}
  34              		.cfi_def_cfa_offset 16
  35              		.cfi_offset 4, -16
  36              		.cfi_offset 5, -12
  37              		.cfi_offset 6, -8
  38              		.cfi_offset 14, -4
 113:..\..\u8g2\csrc/u8x8_d_ssd1322.c ****   static uint8_t buf[4];
 114:..\..\u8g2\csrc/u8x8_d_ssd1322.c ****   static uint8_t map[4] = { 0, 0x00f, 0x0f0, 0x0ff };
 115:..\..\u8g2\csrc/u8x8_d_ssd1322.c ****   buf [3] = map[b & 3];
  39              		.loc 1 115 0
  40 0002 0323     		movs	r3, #3
  41 0004 0D00     		movs	r5, r1
  42 0006 0A4C     		ldr	r4, .L2
  43 0008 1D40     		ands	r5, r3
  44 000a 0A4A     		ldr	r2, .L2+4
  45 000c 655D     		ldrb	r5, [r4, r5]
 116:..\..\u8g2\csrc/u8x8_d_ssd1322.c ****   b>>=2;
  46              		.loc 1 116 0
  47 000e 8908     		lsrs	r1, r1, #2
  48              	.LVL1:
 115:..\..\u8g2\csrc/u8x8_d_ssd1322.c ****   b>>=2;
  49              		.loc 1 115 0
  50 0010 D570     		strb	r5, [r2, #3]
 117:..\..\u8g2\csrc/u8x8_d_ssd1322.c ****   buf [2] = map[b & 3];
  51              		.loc 1 117 0
  52 0012 0D00     		movs	r5, r1
 118:..\..\u8g2\csrc/u8x8_d_ssd1322.c ****   b>>=2;
ARM GAS  C:\Users\Greg\AppData\Local\Temp\cccvkKIJ.s 			page 4


  53              		.loc 1 118 0
  54 0014 8908     		lsrs	r1, r1, #2
  55              	.LVL2:
 117:..\..\u8g2\csrc/u8x8_d_ssd1322.c ****   buf [2] = map[b & 3];
  56              		.loc 1 117 0
  57 0016 1D40     		ands	r5, r3
 119:..\..\u8g2\csrc/u8x8_d_ssd1322.c ****   buf [1] = map[b & 3];
  58              		.loc 1 119 0
  59 0018 0B40     		ands	r3, r1
  60 001a E35C     		ldrb	r3, [r4, r3]
 120:..\..\u8g2\csrc/u8x8_d_ssd1322.c ****   b>>=2;
 121:..\..\u8g2\csrc/u8x8_d_ssd1322.c ****   buf [0] = map[b & 3];
  61              		.loc 1 121 0
  62 001c 8908     		lsrs	r1, r1, #2
  63              	.LVL3:
 117:..\..\u8g2\csrc/u8x8_d_ssd1322.c ****   b>>=2;
  64              		.loc 1 117 0
  65 001e 655D     		ldrb	r5, [r4, r5]
 119:..\..\u8g2\csrc/u8x8_d_ssd1322.c ****   buf [1] = map[b & 3];
  66              		.loc 1 119 0
  67 0020 5370     		strb	r3, [r2, #1]
  68              		.loc 1 121 0
  69 0022 635C     		ldrb	r3, [r4, r1]
 122:..\..\u8g2\csrc/u8x8_d_ssd1322.c ****   return u8x8_cad_SendData(u8x8, 4, buf);	/* note: SendData can not handle more than 255 bytes, sen
  70              		.loc 1 122 0
  71 0024 0421     		movs	r1, #4
 117:..\..\u8g2\csrc/u8x8_d_ssd1322.c ****   b>>=2;
  72              		.loc 1 117 0
  73 0026 9570     		strb	r5, [r2, #2]
 121:..\..\u8g2\csrc/u8x8_d_ssd1322.c ****   return u8x8_cad_SendData(u8x8, 4, buf);	/* note: SendData can not handle more than 255 bytes, sen
  74              		.loc 1 121 0
  75 0028 1370     		strb	r3, [r2]
 123:..\..\u8g2\csrc/u8x8_d_ssd1322.c **** }
  76              		.loc 1 123 0
  77              		@ sp needed
 122:..\..\u8g2\csrc/u8x8_d_ssd1322.c ****   return u8x8_cad_SendData(u8x8, 4, buf);	/* note: SendData can not handle more than 255 bytes, sen
  78              		.loc 1 122 0
  79 002a FFF7FEFF 		bl	u8x8_cad_SendData
  80              	.LVL4:
  81              		.loc 1 123 0
  82 002e 70BD     		pop	{r4, r5, r6, pc}
  83              	.L3:
  84              		.align	2
  85              	.L2:
  86 0030 00000000 		.word	.LANCHOR1
  87 0034 00000000 		.word	.LANCHOR0
  88              		.cfi_endproc
  89              	.LFE0:
  90              		.size	u8x8_write_byte_to_16gr_device, .-u8x8_write_byte_to_16gr_device
  91              		.section	.text.u8x8_d_ssd1322_common,"ax",%progbits
  92              		.align	1
  93              		.global	u8x8_d_ssd1322_common
  94              		.code	16
  95              		.thumb_func
  96              		.type	u8x8_d_ssd1322_common, %function
  97              	u8x8_d_ssd1322_common:
  98              	.LFB2:
ARM GAS  C:\Users\Greg\AppData\Local\Temp\cccvkKIJ.s 			page 5


 124:..\..\u8g2\csrc/u8x8_d_ssd1322.c **** 
 125:..\..\u8g2\csrc/u8x8_d_ssd1322.c **** 
 126:..\..\u8g2\csrc/u8x8_d_ssd1322.c **** /*
 127:..\..\u8g2\csrc/u8x8_d_ssd1322.c ****   input:
 128:..\..\u8g2\csrc/u8x8_d_ssd1322.c ****     one tile (8 Bytes)
 129:..\..\u8g2\csrc/u8x8_d_ssd1322.c ****   output:
 130:..\..\u8g2\csrc/u8x8_d_ssd1322.c ****     Tile for SSD1325 (32 Bytes)
 131:..\..\u8g2\csrc/u8x8_d_ssd1322.c **** */
 132:..\..\u8g2\csrc/u8x8_d_ssd1322.c **** 
 133:..\..\u8g2\csrc/u8x8_d_ssd1322.c **** static uint8_t u8x8_ssd1322_8to32_dest_buf[32];
 134:..\..\u8g2\csrc/u8x8_d_ssd1322.c **** 
 135:..\..\u8g2\csrc/u8x8_d_ssd1322.c **** static uint8_t *u8x8_ssd1322_8to32(U8X8_UNUSED u8x8_t *u8x8, uint8_t *ptr)
 136:..\..\u8g2\csrc/u8x8_d_ssd1322.c **** {
 137:..\..\u8g2\csrc/u8x8_d_ssd1322.c ****   uint8_t v;
 138:..\..\u8g2\csrc/u8x8_d_ssd1322.c ****   uint8_t a,b;
 139:..\..\u8g2\csrc/u8x8_d_ssd1322.c ****   uint8_t i, j;
 140:..\..\u8g2\csrc/u8x8_d_ssd1322.c ****   uint8_t *dest;
 141:..\..\u8g2\csrc/u8x8_d_ssd1322.c ****   
 142:..\..\u8g2\csrc/u8x8_d_ssd1322.c ****   for( j = 0; j < 4; j++ )
 143:..\..\u8g2\csrc/u8x8_d_ssd1322.c ****   {
 144:..\..\u8g2\csrc/u8x8_d_ssd1322.c ****     dest = u8x8_ssd1322_8to32_dest_buf;
 145:..\..\u8g2\csrc/u8x8_d_ssd1322.c ****     dest += j;
 146:..\..\u8g2\csrc/u8x8_d_ssd1322.c ****     a =*ptr;
 147:..\..\u8g2\csrc/u8x8_d_ssd1322.c ****     ptr++;
 148:..\..\u8g2\csrc/u8x8_d_ssd1322.c ****     b = *ptr;
 149:..\..\u8g2\csrc/u8x8_d_ssd1322.c ****     ptr++;
 150:..\..\u8g2\csrc/u8x8_d_ssd1322.c ****     for( i = 0; i < 8; i++ )
 151:..\..\u8g2\csrc/u8x8_d_ssd1322.c ****     {
 152:..\..\u8g2\csrc/u8x8_d_ssd1322.c ****       v = 0;
 153:..\..\u8g2\csrc/u8x8_d_ssd1322.c ****       if ( a&1 ) v |= 0xf0;
 154:..\..\u8g2\csrc/u8x8_d_ssd1322.c ****       if ( b&1 ) v |= 0x0f;
 155:..\..\u8g2\csrc/u8x8_d_ssd1322.c ****       *dest = v;
 156:..\..\u8g2\csrc/u8x8_d_ssd1322.c ****       dest+=4;
 157:..\..\u8g2\csrc/u8x8_d_ssd1322.c ****       a >>= 1;
 158:..\..\u8g2\csrc/u8x8_d_ssd1322.c ****       b >>= 1;
 159:..\..\u8g2\csrc/u8x8_d_ssd1322.c ****     }
 160:..\..\u8g2\csrc/u8x8_d_ssd1322.c ****   }
 161:..\..\u8g2\csrc/u8x8_d_ssd1322.c ****   
 162:..\..\u8g2\csrc/u8x8_d_ssd1322.c ****   return u8x8_ssd1322_8to32_dest_buf;
 163:..\..\u8g2\csrc/u8x8_d_ssd1322.c **** }
 164:..\..\u8g2\csrc/u8x8_d_ssd1322.c **** 
 165:..\..\u8g2\csrc/u8x8_d_ssd1322.c **** 
 166:..\..\u8g2\csrc/u8x8_d_ssd1322.c **** uint8_t u8x8_d_ssd1322_common(u8x8_t *u8x8, uint8_t msg, uint8_t arg_int, void *arg_ptr)
 167:..\..\u8g2\csrc/u8x8_d_ssd1322.c **** {
  99              		.loc 1 167 0
 100              		.cfi_startproc
 101              		@ args = 0, pretend = 0, frame = 32
 102              		@ frame_needed = 0, uses_anonymous_args = 0
 103              	.LVL5:
 104 0000 F0B5     		push	{r4, r5, r6, r7, lr}
 105              		.cfi_def_cfa_offset 20
 106              		.cfi_offset 4, -20
 107              		.cfi_offset 5, -16
 108              		.cfi_offset 6, -12
 109              		.cfi_offset 7, -8
 110              		.cfi_offset 14, -4
 168:..\..\u8g2\csrc/u8x8_d_ssd1322.c ****   uint8_t x; 
ARM GAS  C:\Users\Greg\AppData\Local\Temp\cccvkKIJ.s 			page 6


 169:..\..\u8g2\csrc/u8x8_d_ssd1322.c ****   uint8_t y, c;
 170:..\..\u8g2\csrc/u8x8_d_ssd1322.c ****   uint8_t *ptr;
 171:..\..\u8g2\csrc/u8x8_d_ssd1322.c ****   switch(msg)
 111              		.loc 1 171 0
 112 0002 0A39     		subs	r1, r1, #10
 113              	.LVL6:
 167:..\..\u8g2\csrc/u8x8_d_ssd1322.c ****   uint8_t x; 
 114              		.loc 1 167 0
 115 0004 0400     		movs	r4, r0
 116 0006 89B0     		sub	sp, sp, #36
 117              		.cfi_def_cfa_offset 56
 167:..\..\u8g2\csrc/u8x8_d_ssd1322.c ****   uint8_t x; 
 118              		.loc 1 167 0
 119 0008 1500     		movs	r5, r2
 120 000a 1F00     		movs	r7, r3
 121              		.loc 1 171 0
 122 000c 0800     		movs	r0, r1
 123              	.LVL7:
 124 000e 0529     		cmp	r1, #5
 125 0010 00D9     		bls	.LCB87
 126 0012 AEE0     		b	.L20	@long jump
 127              	.LCB87:
 128 0014 FFF7FEFF 		bl	__gnu_thumb1_case_uqi
 129              	.L7:
 130 0018 03       		.byte	(.L6-.L7)/2
 131 0019 09       		.byte	(.L8-.L7)/2
 132 001a AD       		.byte	(.L20-.L7)/2
 133 001b 13       		.byte	(.L9-.L7)/2
 134 001c 25       		.byte	(.L10-.L7)/2
 135 001d 35       		.byte	(.L11-.L7)/2
 136              		.p2align 1
 137              	.L6:
 172:..\..\u8g2\csrc/u8x8_d_ssd1322.c ****   {
 173:..\..\u8g2\csrc/u8x8_d_ssd1322.c ****     /* U8X8_MSG_DISPLAY_SETUP_MEMORY is handled by the calling function */
 174:..\..\u8g2\csrc/u8x8_d_ssd1322.c ****     /*
 175:..\..\u8g2\csrc/u8x8_d_ssd1322.c ****     case U8X8_MSG_DISPLAY_SETUP_MEMORY:
 176:..\..\u8g2\csrc/u8x8_d_ssd1322.c ****       break;
 177:..\..\u8g2\csrc/u8x8_d_ssd1322.c ****     */
 178:..\..\u8g2\csrc/u8x8_d_ssd1322.c ****     case U8X8_MSG_DISPLAY_INIT:
 179:..\..\u8g2\csrc/u8x8_d_ssd1322.c ****       u8x8_d_helper_display_init(u8x8);
 138              		.loc 1 179 0
 139 001e 2000     		movs	r0, r4
 140 0020 FFF7FEFF 		bl	u8x8_d_helper_display_init
 141              	.LVL8:
 180:..\..\u8g2\csrc/u8x8_d_ssd1322.c ****       u8x8_cad_SendSequence(u8x8, u8x8_d_ssd1322_init_seq);
 142              		.loc 1 180 0
 143 0024 5449     		ldr	r1, .L35
 144 0026 0431     		adds	r1, r1, #4
 145 0028 05E0     		b	.L32
 146              	.LVL9:
 147              	.L8:
 148 002a 5349     		ldr	r1, .L35
 181:..\..\u8g2\csrc/u8x8_d_ssd1322.c ****       break;
 182:..\..\u8g2\csrc/u8x8_d_ssd1322.c ****     case U8X8_MSG_DISPLAY_SET_POWER_SAVE:
 183:..\..\u8g2\csrc/u8x8_d_ssd1322.c ****       if ( arg_int == 0 )
 149              		.loc 1 183 0
 150 002c 002A     		cmp	r2, #0
ARM GAS  C:\Users\Greg\AppData\Local\Temp\cccvkKIJ.s 			page 7


 151 002e 01D1     		bne	.L12
 184:..\..\u8g2\csrc/u8x8_d_ssd1322.c **** 	u8x8_cad_SendSequence(u8x8, u8x8_d_ssd1322_powersave0_seq);
 152              		.loc 1 184 0
 153 0030 5731     		adds	r1, r1, #87
 154 0032 00E0     		b	.L32
 155              	.L12:
 185:..\..\u8g2\csrc/u8x8_d_ssd1322.c ****       else
 186:..\..\u8g2\csrc/u8x8_d_ssd1322.c **** 	u8x8_cad_SendSequence(u8x8, u8x8_d_ssd1322_powersave1_seq);
 156              		.loc 1 186 0
 157 0034 5C31     		adds	r1, r1, #92
 158              	.LVL10:
 159              	.L32:
 160 0036 2000     		movs	r0, r4
 161 0038 FFF7FEFF 		bl	u8x8_cad_SendSequence
 162              	.LVL11:
 163 003c 1FE0     		b	.L30
 164              	.LVL12:
 165              	.L9:
 166 003e 4E49     		ldr	r1, .L35
 187:..\..\u8g2\csrc/u8x8_d_ssd1322.c ****       break;
 188:..\..\u8g2\csrc/u8x8_d_ssd1322.c ****     case U8X8_MSG_DISPLAY_SET_FLIP_MODE:
 189:..\..\u8g2\csrc/u8x8_d_ssd1322.c ****       if ( arg_int == 0 )
 167              		.loc 1 189 0
 168 0040 002A     		cmp	r2, #0
 169 0042 06D1     		bne	.L13
 190:..\..\u8g2\csrc/u8x8_d_ssd1322.c ****       {
 191:..\..\u8g2\csrc/u8x8_d_ssd1322.c **** 	u8x8_cad_SendSequence(u8x8, u8x8_d_ssd1322_256x64_flip0_seq);
 170              		.loc 1 191 0
 171 0044 6131     		adds	r1, r1, #97
 172 0046 2000     		movs	r0, r4
 173 0048 FFF7FEFF 		bl	u8x8_cad_SendSequence
 174              	.LVL13:
 192:..\..\u8g2\csrc/u8x8_d_ssd1322.c **** 	u8x8->x_offset = u8x8->display_info->default_x_offset;
 175              		.loc 1 192 0
 176 004c 2368     		ldr	r3, [r4]
 177 004e 9B7C     		ldrb	r3, [r3, #18]
 178 0050 05E0     		b	.L33
 179              	.LVL14:
 180              	.L13:
 193:..\..\u8g2\csrc/u8x8_d_ssd1322.c ****       }
 194:..\..\u8g2\csrc/u8x8_d_ssd1322.c ****       else
 195:..\..\u8g2\csrc/u8x8_d_ssd1322.c ****       {
 196:..\..\u8g2\csrc/u8x8_d_ssd1322.c **** 	u8x8_cad_SendSequence(u8x8, u8x8_d_ssd1322_256x64_flip1_seq);
 181              		.loc 1 196 0
 182 0052 6A31     		adds	r1, r1, #106
 183 0054 2000     		movs	r0, r4
 184 0056 FFF7FEFF 		bl	u8x8_cad_SendSequence
 185              	.LVL15:
 197:..\..\u8g2\csrc/u8x8_d_ssd1322.c **** 	u8x8->x_offset = u8x8->display_info->flipmode_x_offset;
 186              		.loc 1 197 0
 187 005a 2368     		ldr	r3, [r4]
 188 005c DB7C     		ldrb	r3, [r3, #19]
 189              	.L33:
 190 005e A377     		strb	r3, [r4, #30]
 191 0060 0DE0     		b	.L30
 192              	.LVL16:
 193              	.L10:
ARM GAS  C:\Users\Greg\AppData\Local\Temp\cccvkKIJ.s 			page 8


 198:..\..\u8g2\csrc/u8x8_d_ssd1322.c ****       }
 199:..\..\u8g2\csrc/u8x8_d_ssd1322.c ****       break;
 200:..\..\u8g2\csrc/u8x8_d_ssd1322.c **** #ifdef U8X8_WITH_SET_CONTRAST
 201:..\..\u8g2\csrc/u8x8_d_ssd1322.c ****     case U8X8_MSG_DISPLAY_SET_CONTRAST:
 202:..\..\u8g2\csrc/u8x8_d_ssd1322.c ****       u8x8_cad_StartTransfer(u8x8);
 194              		.loc 1 202 0
 195 0062 2000     		movs	r0, r4
 196 0064 FFF7FEFF 		bl	u8x8_cad_StartTransfer
 197              	.LVL17:
 203:..\..\u8g2\csrc/u8x8_d_ssd1322.c ****       u8x8_cad_SendCmd(u8x8, 0x081 );
 198              		.loc 1 203 0
 199 0068 8121     		movs	r1, #129
 200 006a 2000     		movs	r0, r4
 201 006c FFF7FEFF 		bl	u8x8_cad_SendCmd
 202              	.LVL18:
 204:..\..\u8g2\csrc/u8x8_d_ssd1322.c ****       u8x8_cad_SendArg(u8x8, arg_int );	/* ssd1325 has range from 0 to 255 */
 203              		.loc 1 204 0
 204 0070 2900     		movs	r1, r5
 205 0072 2000     		movs	r0, r4
 206 0074 FFF7FEFF 		bl	u8x8_cad_SendArg
 207              	.LVL19:
 208              	.L31:
 205:..\..\u8g2\csrc/u8x8_d_ssd1322.c ****       u8x8_cad_EndTransfer(u8x8);
 209              		.loc 1 205 0
 210 0078 2000     		movs	r0, r4
 211 007a FFF7FEFF 		bl	u8x8_cad_EndTransfer
 212              	.LVL20:
 213              	.L30:
 206:..\..\u8g2\csrc/u8x8_d_ssd1322.c ****       break;
 207:..\..\u8g2\csrc/u8x8_d_ssd1322.c **** #endif
 208:..\..\u8g2\csrc/u8x8_d_ssd1322.c ****     case U8X8_MSG_DISPLAY_DRAW_TILE:
 209:..\..\u8g2\csrc/u8x8_d_ssd1322.c ****       u8x8_cad_StartTransfer(u8x8);
 210:..\..\u8g2\csrc/u8x8_d_ssd1322.c ****       x = ((u8x8_tile_t *)arg_ptr)->x_pos;    
 211:..\..\u8g2\csrc/u8x8_d_ssd1322.c ****       x *= 2;		// only every 4th col can be addressed
 212:..\..\u8g2\csrc/u8x8_d_ssd1322.c ****       x += u8x8->x_offset;		
 213:..\..\u8g2\csrc/u8x8_d_ssd1322.c ****     
 214:..\..\u8g2\csrc/u8x8_d_ssd1322.c ****       y = (((u8x8_tile_t *)arg_ptr)->y_pos);
 215:..\..\u8g2\csrc/u8x8_d_ssd1322.c ****       y *= 8;
 216:..\..\u8g2\csrc/u8x8_d_ssd1322.c ****     
 217:..\..\u8g2\csrc/u8x8_d_ssd1322.c ****       
 218:..\..\u8g2\csrc/u8x8_d_ssd1322.c ****       do
 219:..\..\u8g2\csrc/u8x8_d_ssd1322.c ****       {
 220:..\..\u8g2\csrc/u8x8_d_ssd1322.c **** 	c = ((u8x8_tile_t *)arg_ptr)->cnt;
 221:..\..\u8g2\csrc/u8x8_d_ssd1322.c **** 	ptr = ((u8x8_tile_t *)arg_ptr)->tile_ptr;
 222:..\..\u8g2\csrc/u8x8_d_ssd1322.c **** 
 223:..\..\u8g2\csrc/u8x8_d_ssd1322.c **** 	do
 224:..\..\u8g2\csrc/u8x8_d_ssd1322.c **** 	{
 225:..\..\u8g2\csrc/u8x8_d_ssd1322.c **** 	  u8x8_cad_SendCmd(u8x8, 0x015 );	/* set column address */
 226:..\..\u8g2\csrc/u8x8_d_ssd1322.c **** 	  u8x8_cad_SendArg(u8x8, x );	/* start */
 227:..\..\u8g2\csrc/u8x8_d_ssd1322.c **** 	  u8x8_cad_SendArg(u8x8, x+1 );	/* end */
 228:..\..\u8g2\csrc/u8x8_d_ssd1322.c **** 
 229:..\..\u8g2\csrc/u8x8_d_ssd1322.c **** 	  u8x8_cad_SendCmd(u8x8, 0x075 );	/* set row address */
 230:..\..\u8g2\csrc/u8x8_d_ssd1322.c **** 	  u8x8_cad_SendArg(u8x8, y);
 231:..\..\u8g2\csrc/u8x8_d_ssd1322.c **** 	  u8x8_cad_SendArg(u8x8, y+7);
 232:..\..\u8g2\csrc/u8x8_d_ssd1322.c **** 	  
 233:..\..\u8g2\csrc/u8x8_d_ssd1322.c **** 	  u8x8_cad_SendCmd(u8x8, 0x05c );	/* write to ram */
 234:..\..\u8g2\csrc/u8x8_d_ssd1322.c **** 	  
ARM GAS  C:\Users\Greg\AppData\Local\Temp\cccvkKIJ.s 			page 9


 235:..\..\u8g2\csrc/u8x8_d_ssd1322.c **** 	  u8x8_cad_SendData(u8x8, 32, u8x8_ssd1322_8to32(u8x8, ptr));
 236:..\..\u8g2\csrc/u8x8_d_ssd1322.c **** 	  
 237:..\..\u8g2\csrc/u8x8_d_ssd1322.c **** 	  ptr += 8;
 238:..\..\u8g2\csrc/u8x8_d_ssd1322.c **** 	  x += 2;
 239:..\..\u8g2\csrc/u8x8_d_ssd1322.c **** 	  c--;
 240:..\..\u8g2\csrc/u8x8_d_ssd1322.c **** 	} while( c > 0 );
 241:..\..\u8g2\csrc/u8x8_d_ssd1322.c **** 	
 242:..\..\u8g2\csrc/u8x8_d_ssd1322.c **** 	//x += 2;
 243:..\..\u8g2\csrc/u8x8_d_ssd1322.c **** 	arg_int--;
 244:..\..\u8g2\csrc/u8x8_d_ssd1322.c ****       } while( arg_int > 0 );
 245:..\..\u8g2\csrc/u8x8_d_ssd1322.c ****       
 246:..\..\u8g2\csrc/u8x8_d_ssd1322.c ****       u8x8_cad_EndTransfer(u8x8);
 247:..\..\u8g2\csrc/u8x8_d_ssd1322.c ****       break;
 248:..\..\u8g2\csrc/u8x8_d_ssd1322.c ****     default:
 249:..\..\u8g2\csrc/u8x8_d_ssd1322.c ****       return 0;
 250:..\..\u8g2\csrc/u8x8_d_ssd1322.c ****   }
 251:..\..\u8g2\csrc/u8x8_d_ssd1322.c ****   return 1;
 214              		.loc 1 251 0
 215 007e 0120     		movs	r0, #1
 206:..\..\u8g2\csrc/u8x8_d_ssd1322.c ****       break;
 216              		.loc 1 206 0
 217 0080 78E0     		b	.L5
 218              	.LVL21:
 219              	.L11:
 209:..\..\u8g2\csrc/u8x8_d_ssd1322.c ****       x = ((u8x8_tile_t *)arg_ptr)->x_pos;    
 220              		.loc 1 209 0
 221 0082 2000     		movs	r0, r4
 222 0084 FFF7FEFF 		bl	u8x8_cad_StartTransfer
 223              	.LVL22:
 210:..\..\u8g2\csrc/u8x8_d_ssd1322.c ****       x *= 2;		// only every 4th col can be addressed
 224              		.loc 1 210 0
 225 0088 7B79     		ldrb	r3, [r7, #5]
 226              	.LVL23:
 212:..\..\u8g2\csrc/u8x8_d_ssd1322.c ****     
 227              		.loc 1 212 0
 228 008a A27F     		ldrb	r2, [r4, #30]
 211:..\..\u8g2\csrc/u8x8_d_ssd1322.c ****       x += u8x8->x_offset;		
 229              		.loc 1 211 0
 230 008c 5B00     		lsls	r3, r3, #1
 231              	.LVL24:
 212:..\..\u8g2\csrc/u8x8_d_ssd1322.c ****     
 232              		.loc 1 212 0
 233 008e 9B18     		adds	r3, r3, r2
 234              	.LVL25:
 235 0090 DBB2     		uxtb	r3, r3
 236 0092 0193     		str	r3, [sp, #4]
 237              	.LVL26:
 214:..\..\u8g2\csrc/u8x8_d_ssd1322.c ****       y *= 8;
 238              		.loc 1 214 0
 239 0094 BB79     		ldrb	r3, [r7, #6]
 240              	.LVL27:
 215:..\..\u8g2\csrc/u8x8_d_ssd1322.c ****     
 241              		.loc 1 215 0
 242 0096 DB00     		lsls	r3, r3, #3
 243              	.LVL28:
 244 0098 DBB2     		uxtb	r3, r3
 245 009a 0593     		str	r3, [sp, #20]
ARM GAS  C:\Users\Greg\AppData\Local\Temp\cccvkKIJ.s 			page 10


 246              	.LVL29:
 247              	.L19:
 220:..\..\u8g2\csrc/u8x8_d_ssd1322.c **** 	ptr = ((u8x8_tile_t *)arg_ptr)->tile_ptr;
 248              		.loc 1 220 0
 249 009c 3B79     		ldrb	r3, [r7, #4]
 221:..\..\u8g2\csrc/u8x8_d_ssd1322.c **** 
 250              		.loc 1 221 0
 251 009e 3E68     		ldr	r6, [r7]
 220:..\..\u8g2\csrc/u8x8_d_ssd1322.c **** 	ptr = ((u8x8_tile_t *)arg_ptr)->tile_ptr;
 252              		.loc 1 220 0
 253 00a0 0693     		str	r3, [sp, #24]
 254              	.LVL30:
 255 00a2 0293     		str	r3, [sp, #8]
 221:..\..\u8g2\csrc/u8x8_d_ssd1322.c **** 
 256              		.loc 1 221 0
 257 00a4 019B     		ldr	r3, [sp, #4]
 258 00a6 0093     		str	r3, [sp]
 259              	.LVL31:
 260              	.L18:
 225:..\..\u8g2\csrc/u8x8_d_ssd1322.c **** 	  u8x8_cad_SendArg(u8x8, x );	/* start */
 261              		.loc 1 225 0 discriminator 1
 262 00a8 1521     		movs	r1, #21
 263 00aa 2000     		movs	r0, r4
 264 00ac FFF7FEFF 		bl	u8x8_cad_SendCmd
 265              	.LVL32:
 226:..\..\u8g2\csrc/u8x8_d_ssd1322.c **** 	  u8x8_cad_SendArg(u8x8, x+1 );	/* end */
 266              		.loc 1 226 0 discriminator 1
 267 00b0 0099     		ldr	r1, [sp]
 268 00b2 2000     		movs	r0, r4
 269 00b4 FFF7FEFF 		bl	u8x8_cad_SendArg
 270              	.LVL33:
 227:..\..\u8g2\csrc/u8x8_d_ssd1322.c **** 
 271              		.loc 1 227 0 discriminator 1
 272 00b8 009B     		ldr	r3, [sp]
 273 00ba 2000     		movs	r0, r4
 274 00bc 591C     		adds	r1, r3, #1
 275 00be C9B2     		uxtb	r1, r1
 276 00c0 FFF7FEFF 		bl	u8x8_cad_SendArg
 277              	.LVL34:
 229:..\..\u8g2\csrc/u8x8_d_ssd1322.c **** 	  u8x8_cad_SendArg(u8x8, y);
 278              		.loc 1 229 0 discriminator 1
 279 00c4 7521     		movs	r1, #117
 280 00c6 2000     		movs	r0, r4
 281 00c8 FFF7FEFF 		bl	u8x8_cad_SendCmd
 282              	.LVL35:
 230:..\..\u8g2\csrc/u8x8_d_ssd1322.c **** 	  u8x8_cad_SendArg(u8x8, y+7);
 283              		.loc 1 230 0 discriminator 1
 284 00cc 0599     		ldr	r1, [sp, #20]
 285 00ce 2000     		movs	r0, r4
 286 00d0 FFF7FEFF 		bl	u8x8_cad_SendArg
 287              	.LVL36:
 231:..\..\u8g2\csrc/u8x8_d_ssd1322.c **** 	  
 288              		.loc 1 231 0 discriminator 1
 289 00d4 059B     		ldr	r3, [sp, #20]
 290 00d6 2000     		movs	r0, r4
 291 00d8 D91D     		adds	r1, r3, #7
 292 00da C9B2     		uxtb	r1, r1
ARM GAS  C:\Users\Greg\AppData\Local\Temp\cccvkKIJ.s 			page 11


 293 00dc FFF7FEFF 		bl	u8x8_cad_SendArg
 294              	.LVL37:
 233:..\..\u8g2\csrc/u8x8_d_ssd1322.c **** 	  
 295              		.loc 1 233 0 discriminator 1
 296 00e0 5C21     		movs	r1, #92
 297 00e2 2000     		movs	r0, r4
 298 00e4 FFF7FEFF 		bl	u8x8_cad_SendCmd
 299              	.LVL38:
 300 00e8 3200     		movs	r2, r6
 301 00ea 244B     		ldr	r3, .L35+4
 302 00ec 0832     		adds	r2, r2, #8
 303 00ee 2433     		adds	r3, r3, #36
 304 00f0 0493     		str	r3, [sp, #16]
 305 00f2 0792     		str	r2, [sp, #28]
 306              	.LVL39:
 307              	.L17:
 308              	.LBB4:
 309              	.LBB5:
 146:..\..\u8g2\csrc/u8x8_d_ssd1322.c ****     ptr++;
 310              		.loc 1 146 0
 311 00f4 3178     		ldrb	r1, [r6]
 148:..\..\u8g2\csrc/u8x8_d_ssd1322.c ****     ptr++;
 312              		.loc 1 148 0
 313 00f6 7378     		ldrb	r3, [r6, #1]
 146:..\..\u8g2\csrc/u8x8_d_ssd1322.c ****     ptr++;
 314              		.loc 1 146 0
 315 00f8 8C46     		mov	ip, r1
 316 00fa 049A     		ldr	r2, [sp, #16]
 148:..\..\u8g2\csrc/u8x8_d_ssd1322.c ****     ptr++;
 317              		.loc 1 148 0
 318 00fc 0393     		str	r3, [sp, #12]
 319 00fe 203A     		subs	r2, r2, #32
 320              	.LVL40:
 321 0100 0236     		adds	r6, r6, #2
 322              	.LVL41:
 323              	.L16:
 153:..\..\u8g2\csrc/u8x8_d_ssd1322.c ****       if ( b&1 ) v |= 0x0f;
 324              		.loc 1 153 0
 325 0102 6046     		mov	r0, ip
 326 0104 0123     		movs	r3, #1
 152:..\..\u8g2\csrc/u8x8_d_ssd1322.c ****       if ( a&1 ) v |= 0xf0;
 327              		.loc 1 152 0
 328 0106 0021     		movs	r1, #0
 153:..\..\u8g2\csrc/u8x8_d_ssd1322.c ****       if ( b&1 ) v |= 0x0f;
 329              		.loc 1 153 0
 330 0108 1842     		tst	r0, r3
 331 010a 00D0     		beq	.L14
 332 010c F031     		adds	r1, r1, #240
 333              	.L14:
 334              	.LVL42:
 154:..\..\u8g2\csrc/u8x8_d_ssd1322.c ****       *dest = v;
 335              		.loc 1 154 0
 336 010e 0123     		movs	r3, #1
 337 0110 0398     		ldr	r0, [sp, #12]
 338 0112 1842     		tst	r0, r3
 339 0114 01D0     		beq	.L15
 340 0116 0E33     		adds	r3, r3, #14
ARM GAS  C:\Users\Greg\AppData\Local\Temp\cccvkKIJ.s 			page 12


 341 0118 1943     		orrs	r1, r3
 342              	.LVL43:
 343              	.L15:
 157:..\..\u8g2\csrc/u8x8_d_ssd1322.c ****       b >>= 1;
 344              		.loc 1 157 0
 345 011a 6346     		mov	r3, ip
 346 011c 5B08     		lsrs	r3, r3, #1
 347 011e 9C46     		mov	ip, r3
 348              	.LVL44:
 158:..\..\u8g2\csrc/u8x8_d_ssd1322.c ****     }
 349              		.loc 1 158 0
 350 0120 039B     		ldr	r3, [sp, #12]
 155:..\..\u8g2\csrc/u8x8_d_ssd1322.c ****       dest+=4;
 351              		.loc 1 155 0
 352 0122 1170     		strb	r1, [r2]
 158:..\..\u8g2\csrc/u8x8_d_ssd1322.c ****     }
 353              		.loc 1 158 0
 354 0124 5B08     		lsrs	r3, r3, #1
 355 0126 0393     		str	r3, [sp, #12]
 356              	.LVL45:
 150:..\..\u8g2\csrc/u8x8_d_ssd1322.c ****     {
 357              		.loc 1 150 0
 358 0128 049B     		ldr	r3, [sp, #16]
 156:..\..\u8g2\csrc/u8x8_d_ssd1322.c ****       a >>= 1;
 359              		.loc 1 156 0
 360 012a 0432     		adds	r2, r2, #4
 361              	.LVL46:
 150:..\..\u8g2\csrc/u8x8_d_ssd1322.c ****     {
 362              		.loc 1 150 0
 363 012c 9A42     		cmp	r2, r3
 364 012e E8D1     		bne	.L16
 365              	.LVL47:
 366 0130 531C     		adds	r3, r2, #1
 367 0132 0493     		str	r3, [sp, #16]
 142:..\..\u8g2\csrc/u8x8_d_ssd1322.c ****   {
 368              		.loc 1 142 0
 369 0134 079B     		ldr	r3, [sp, #28]
 370 0136 B342     		cmp	r3, r6
 371 0138 DCD1     		bne	.L17
 372              	.LVL48:
 373              	.LBE5:
 374              	.LBE4:
 235:..\..\u8g2\csrc/u8x8_d_ssd1322.c **** 	  
 375              		.loc 1 235 0
 376 013a 104A     		ldr	r2, .L35+4
 377 013c 2021     		movs	r1, #32
 378 013e 0432     		adds	r2, r2, #4
 379 0140 2000     		movs	r0, r4
 380 0142 FFF7FEFF 		bl	u8x8_cad_SendData
 381              	.LVL49:
 238:..\..\u8g2\csrc/u8x8_d_ssd1322.c **** 	  c--;
 382              		.loc 1 238 0
 383 0146 009B     		ldr	r3, [sp]
 384 0148 079E     		ldr	r6, [sp, #28]
 385 014a 0233     		adds	r3, r3, #2
 386 014c DBB2     		uxtb	r3, r3
 387 014e 0093     		str	r3, [sp]
ARM GAS  C:\Users\Greg\AppData\Local\Temp\cccvkKIJ.s 			page 13


 388              	.LVL50:
 239:..\..\u8g2\csrc/u8x8_d_ssd1322.c **** 	} while( c > 0 );
 389              		.loc 1 239 0
 390 0150 029B     		ldr	r3, [sp, #8]
 391 0152 013B     		subs	r3, r3, #1
 392 0154 DBB2     		uxtb	r3, r3
 393 0156 0293     		str	r3, [sp, #8]
 394              	.LVL51:
 240:..\..\u8g2\csrc/u8x8_d_ssd1322.c **** 	
 395              		.loc 1 240 0
 396 0158 002B     		cmp	r3, #0
 397 015a A5D1     		bne	.L18
 398 015c 069B     		ldr	r3, [sp, #24]
 399 015e 019A     		ldr	r2, [sp, #4]
 400 0160 5B00     		lsls	r3, r3, #1
 401 0162 D318     		adds	r3, r2, r3
 243:..\..\u8g2\csrc/u8x8_d_ssd1322.c ****       } while( arg_int > 0 );
 402              		.loc 1 243 0
 403 0164 013D     		subs	r5, r5, #1
 404              	.LVL52:
 405 0166 DBB2     		uxtb	r3, r3
 406 0168 EDB2     		uxtb	r5, r5
 407              	.LVL53:
 408 016a 0193     		str	r3, [sp, #4]
 244:..\..\u8g2\csrc/u8x8_d_ssd1322.c ****       
 409              		.loc 1 244 0
 410 016c 002D     		cmp	r5, #0
 411 016e 95D1     		bne	.L19
 412 0170 82E7     		b	.L31
 413              	.LVL54:
 414              	.L20:
 249:..\..\u8g2\csrc/u8x8_d_ssd1322.c ****   }
 415              		.loc 1 249 0
 416 0172 0020     		movs	r0, #0
 417              	.LVL55:
 418              	.L5:
 252:..\..\u8g2\csrc/u8x8_d_ssd1322.c **** }
 419              		.loc 1 252 0
 420 0174 09B0     		add	sp, sp, #36
 421              		@ sp needed
 422              	.LVL56:
 423              	.LVL57:
 424 0176 F0BD     		pop	{r4, r5, r6, r7, pc}
 425              	.L36:
 426              		.align	2
 427              	.L35:
 428 0178 00000000 		.word	.LANCHOR1
 429 017c 00000000 		.word	.LANCHOR0
 430              		.cfi_endproc
 431              	.LFE2:
 432              		.size	u8x8_d_ssd1322_common, .-u8x8_d_ssd1322_common
 433              		.section	.text.u8x8_d_ssd1322_nhd_256x64,"ax",%progbits
 434              		.align	1
 435              		.global	u8x8_d_ssd1322_nhd_256x64
 436              		.code	16
 437              		.thumb_func
 438              		.type	u8x8_d_ssd1322_nhd_256x64, %function
ARM GAS  C:\Users\Greg\AppData\Local\Temp\cccvkKIJ.s 			page 14


 439              	u8x8_d_ssd1322_nhd_256x64:
 440              	.LFB3:
 253:..\..\u8g2\csrc/u8x8_d_ssd1322.c **** 
 254:..\..\u8g2\csrc/u8x8_d_ssd1322.c **** static const u8x8_display_info_t u8x8_ssd1322_256x64_display_info =
 255:..\..\u8g2\csrc/u8x8_d_ssd1322.c **** {
 256:..\..\u8g2\csrc/u8x8_d_ssd1322.c ****   /* chip_enable_level = */ 0,
 257:..\..\u8g2\csrc/u8x8_d_ssd1322.c ****   /* chip_disable_level = */ 1,
 258:..\..\u8g2\csrc/u8x8_d_ssd1322.c ****   
 259:..\..\u8g2\csrc/u8x8_d_ssd1322.c ****   /* post_chip_enable_wait_ns = */ 20,
 260:..\..\u8g2\csrc/u8x8_d_ssd1322.c ****   /* pre_chip_disable_wait_ns = */ 10,
 261:..\..\u8g2\csrc/u8x8_d_ssd1322.c ****   /* reset_pulse_width_ms = */ 100, 	/* SSD1322: 2 us */
 262:..\..\u8g2\csrc/u8x8_d_ssd1322.c ****   /* post_reset_wait_ms = */ 100, /* far east OLEDs need much longer setup time */
 263:..\..\u8g2\csrc/u8x8_d_ssd1322.c ****   /* sda_setup_time_ns = */ 50,		/* SSD1322: 15ns, but cycle time is 100ns, so use 100/2 */
 264:..\..\u8g2\csrc/u8x8_d_ssd1322.c ****   /* sck_pulse_width_ns = */ 50,	/* SSD1322: 20ns, but cycle time is 100ns, so use 100/2, AVR: belo
 265:..\..\u8g2\csrc/u8x8_d_ssd1322.c ****   /* sck_clock_hz = */ 4000000UL,	/* since Arduino 1.6.0, the SPI bus speed in Hz. Should be  10000
 266:..\..\u8g2\csrc/u8x8_d_ssd1322.c ****   /* spi_mode = */ 0,		/* active high, rising edge */
 267:..\..\u8g2\csrc/u8x8_d_ssd1322.c ****   /* i2c_bus_clock_100kHz = */ 4,
 268:..\..\u8g2\csrc/u8x8_d_ssd1322.c ****   /* data_setup_time_ns = */ 10,
 269:..\..\u8g2\csrc/u8x8_d_ssd1322.c ****   /* write_pulse_width_ns = */ 150,	/* SSD1322: cycle time is 300ns, so use 300/2 = 150 */
 270:..\..\u8g2\csrc/u8x8_d_ssd1322.c ****   /* tile_width = */ 32,		/* 256 pixel, so we require 32 bytes for this */
 271:..\..\u8g2\csrc/u8x8_d_ssd1322.c ****   /* tile_hight = */ 8,
 272:..\..\u8g2\csrc/u8x8_d_ssd1322.c ****   /* default_x_offset = */ 0x01c,	/* this is the byte offset (there are two pixel per byte with 4 b
 273:..\..\u8g2\csrc/u8x8_d_ssd1322.c ****   /* flipmode_x_offset = */ 0x01c,
 274:..\..\u8g2\csrc/u8x8_d_ssd1322.c ****   /* pixel_width = */ 256,
 275:..\..\u8g2\csrc/u8x8_d_ssd1322.c ****   /* pixel_height = */ 64
 276:..\..\u8g2\csrc/u8x8_d_ssd1322.c **** };
 277:..\..\u8g2\csrc/u8x8_d_ssd1322.c **** 
 278:..\..\u8g2\csrc/u8x8_d_ssd1322.c **** 
 279:..\..\u8g2\csrc/u8x8_d_ssd1322.c **** 
 280:..\..\u8g2\csrc/u8x8_d_ssd1322.c **** uint8_t u8x8_d_ssd1322_nhd_256x64(u8x8_t *u8x8, uint8_t msg, uint8_t arg_int, void *arg_ptr)
 281:..\..\u8g2\csrc/u8x8_d_ssd1322.c **** {
 441              		.loc 1 281 0
 442              		.cfi_startproc
 443              		@ args = 0, pretend = 0, frame = 0
 444              		@ frame_needed = 0, uses_anonymous_args = 0
 445              	.LVL58:
 446 0000 10B5     		push	{r4, lr}
 447              		.cfi_def_cfa_offset 8
 448              		.cfi_offset 4, -8
 449              		.cfi_offset 14, -4
 282:..\..\u8g2\csrc/u8x8_d_ssd1322.c ****   switch(msg)
 450              		.loc 1 282 0
 451 0002 0929     		cmp	r1, #9
 452 0004 05D1     		bne	.L41
 283:..\..\u8g2\csrc/u8x8_d_ssd1322.c ****   {
 284:..\..\u8g2\csrc/u8x8_d_ssd1322.c ****     case U8X8_MSG_DISPLAY_SETUP_MEMORY:
 285:..\..\u8g2\csrc/u8x8_d_ssd1322.c ****       u8x8_d_helper_display_setup_memory(u8x8, &u8x8_ssd1322_256x64_display_info);
 453              		.loc 1 285 0
 454 0006 0449     		ldr	r1, .L42
 455              	.LVL59:
 456 0008 7431     		adds	r1, r1, #116
 457 000a FFF7FEFF 		bl	u8x8_d_helper_display_setup_memory
 458              	.LVL60:
 286:..\..\u8g2\csrc/u8x8_d_ssd1322.c ****       break;
 287:..\..\u8g2\csrc/u8x8_d_ssd1322.c ****     
 288:..\..\u8g2\csrc/u8x8_d_ssd1322.c ****     default:
 289:..\..\u8g2\csrc/u8x8_d_ssd1322.c ****       return u8x8_d_ssd1322_common(u8x8, msg, arg_int, arg_ptr);
ARM GAS  C:\Users\Greg\AppData\Local\Temp\cccvkKIJ.s 			page 15


 290:..\..\u8g2\csrc/u8x8_d_ssd1322.c ****   }
 291:..\..\u8g2\csrc/u8x8_d_ssd1322.c ****   return 1;
 459              		.loc 1 291 0
 460 000e 0120     		movs	r0, #1
 461 0010 01E0     		b	.L40
 462              	.LVL61:
 463              	.L41:
 289:..\..\u8g2\csrc/u8x8_d_ssd1322.c ****   }
 464              		.loc 1 289 0
 465 0012 FFF7FEFF 		bl	u8x8_d_ssd1322_common
 466              	.LVL62:
 467              	.L40:
 292:..\..\u8g2\csrc/u8x8_d_ssd1322.c **** }
 468              		.loc 1 292 0
 469              		@ sp needed
 470 0016 10BD     		pop	{r4, pc}
 471              	.L43:
 472              		.align	2
 473              	.L42:
 474 0018 00000000 		.word	.LANCHOR1
 475              		.cfi_endproc
 476              	.LFE3:
 477              		.size	u8x8_d_ssd1322_nhd_256x64, .-u8x8_d_ssd1322_nhd_256x64
 478              		.section	.rodata
 479              		.align	2
 480              		.set	.LANCHOR1,. + 0
 481              		.type	map.4869, %object
 482              		.size	map.4869, 4
 483              	map.4869:
 484 0000 00       		.byte	0
 485 0001 0F       		.byte	15
 486 0002 F0       		.byte	-16
 487 0003 FF       		.byte	-1
 488              		.type	u8x8_d_ssd1322_init_seq, %object
 489              		.size	u8x8_d_ssd1322_init_seq, 83
 490              	u8x8_d_ssd1322_init_seq:
 491 0004 FE       		.byte	-2
 492 0005 01       		.byte	1
 493 0006 18       		.byte	24
 494 0007 FE       		.byte	-2
 495 0008 01       		.byte	1
 496 0009 15       		.byte	21
 497 000a FD       		.byte	-3
 498 000b 16       		.byte	22
 499 000c 12       		.byte	18
 500 000d 15       		.byte	21
 501 000e AE       		.byte	-82
 502 000f 15       		.byte	21
 503 0010 B3       		.byte	-77
 504 0011 16       		.byte	22
 505 0012 91       		.byte	-111
 506 0013 15       		.byte	21
 507 0014 CA       		.byte	-54
 508 0015 16       		.byte	22
 509 0016 3F       		.byte	63
 510 0017 15       		.byte	21
 511 0018 A2       		.byte	-94
ARM GAS  C:\Users\Greg\AppData\Local\Temp\cccvkKIJ.s 			page 16


 512 0019 16       		.byte	22
 513 001a 00       		.byte	0
 514 001b 15       		.byte	21
 515 001c A1       		.byte	-95
 516 001d 16       		.byte	22
 517 001e 00       		.byte	0
 518 001f 15       		.byte	21
 519 0020 A0       		.byte	-96
 520 0021 16       		.byte	22
 521 0022 06       		.byte	6
 522 0023 16       		.byte	22
 523 0024 11       		.byte	17
 524 0025 15       		.byte	21
 525 0026 AB       		.byte	-85
 526 0027 16       		.byte	22
 527 0028 01       		.byte	1
 528 0029 15       		.byte	21
 529 002a B4       		.byte	-76
 530 002b 16       		.byte	22
 531 002c A0       		.byte	-96
 532 002d 16       		.byte	22
 533 002e FD       		.byte	-3
 534 002f 15       		.byte	21
 535 0030 C1       		.byte	-63
 536 0031 16       		.byte	22
 537 0032 9F       		.byte	-97
 538 0033 15       		.byte	21
 539 0034 C7       		.byte	-57
 540 0035 16       		.byte	22
 541 0036 0F       		.byte	15
 542 0037 15       		.byte	21
 543 0038 B9       		.byte	-71
 544 0039 15       		.byte	21
 545 003a B1       		.byte	-79
 546 003b 16       		.byte	22
 547 003c E2       		.byte	-30
 548 003d 15       		.byte	21
 549 003e D1       		.byte	-47
 550 003f 16       		.byte	22
 551 0040 A2       		.byte	-94
 552 0041 16       		.byte	22
 553 0042 20       		.byte	32
 554 0043 15       		.byte	21
 555 0044 BB       		.byte	-69
 556 0045 16       		.byte	22
 557 0046 1F       		.byte	31
 558 0047 15       		.byte	21
 559 0048 B6       		.byte	-74
 560 0049 16       		.byte	22
 561 004a 08       		.byte	8
 562 004b 15       		.byte	21
 563 004c BE       		.byte	-66
 564 004d 16       		.byte	22
 565 004e 07       		.byte	7
 566 004f 15       		.byte	21
 567 0050 A6       		.byte	-90
 568 0051 15       		.byte	21
ARM GAS  C:\Users\Greg\AppData\Local\Temp\cccvkKIJ.s 			page 17


 569 0052 A9       		.byte	-87
 570 0053 FE       		.byte	-2
 571 0054 01       		.byte	1
 572 0055 19       		.byte	25
 573 0056 FF       		.byte	-1
 574              		.type	u8x8_d_ssd1322_powersave0_seq, %object
 575              		.size	u8x8_d_ssd1322_powersave0_seq, 5
 576              	u8x8_d_ssd1322_powersave0_seq:
 577 0057 18       		.byte	24
 578 0058 15       		.byte	21
 579 0059 AF       		.byte	-81
 580 005a 19       		.byte	25
 581 005b FF       		.byte	-1
 582              		.type	u8x8_d_ssd1322_powersave1_seq, %object
 583              		.size	u8x8_d_ssd1322_powersave1_seq, 5
 584              	u8x8_d_ssd1322_powersave1_seq:
 585 005c 18       		.byte	24
 586 005d 15       		.byte	21
 587 005e AE       		.byte	-82
 588 005f 19       		.byte	25
 589 0060 FF       		.byte	-1
 590              		.type	u8x8_d_ssd1322_256x64_flip0_seq, %object
 591              		.size	u8x8_d_ssd1322_256x64_flip0_seq, 9
 592              	u8x8_d_ssd1322_256x64_flip0_seq:
 593 0061 18       		.byte	24
 594 0062 15       		.byte	21
 595 0063 A0       		.byte	-96
 596 0064 16       		.byte	22
 597 0065 06       		.byte	6
 598 0066 16       		.byte	22
 599 0067 11       		.byte	17
 600 0068 19       		.byte	25
 601 0069 FF       		.byte	-1
 602              		.type	u8x8_d_ssd1322_256x64_flip1_seq, %object
 603              		.size	u8x8_d_ssd1322_256x64_flip1_seq, 9
 604              	u8x8_d_ssd1322_256x64_flip1_seq:
 605 006a 18       		.byte	24
 606 006b 15       		.byte	21
 607 006c A0       		.byte	-96
 608 006d 16       		.byte	22
 609 006e 14       		.byte	20
 610 006f 16       		.byte	22
 611 0070 11       		.byte	17
 612 0071 19       		.byte	25
 613 0072 FF       		.byte	-1
 614 0073 00       		.space	1
 615              		.type	u8x8_ssd1322_256x64_display_info, %object
 616              		.size	u8x8_ssd1322_256x64_display_info, 24
 617              	u8x8_ssd1322_256x64_display_info:
 618 0074 00       		.byte	0
 619 0075 01       		.byte	1
 620 0076 14       		.byte	20
 621 0077 0A       		.byte	10
 622 0078 64       		.byte	100
 623 0079 64       		.byte	100
 624 007a 32       		.byte	50
 625 007b 32       		.byte	50
ARM GAS  C:\Users\Greg\AppData\Local\Temp\cccvkKIJ.s 			page 18


 626 007c 00093D00 		.word	4000000
 627 0080 00       		.byte	0
 628 0081 04       		.byte	4
 629 0082 0A       		.byte	10
 630 0083 96       		.byte	-106
 631 0084 20       		.byte	32
 632 0085 08       		.byte	8
 633 0086 1C       		.byte	28
 634 0087 1C       		.byte	28
 635 0088 0001     		.short	256
 636 008a 4000     		.short	64
 637              		.bss
 638              		.set	.LANCHOR0,. + 0
 639              		.type	buf.4868, %object
 640              		.size	buf.4868, 4
 641              	buf.4868:
 642 0000 00000000 		.space	4
 643              		.type	u8x8_ssd1322_8to32_dest_buf, %object
 644              		.size	u8x8_ssd1322_8to32_dest_buf, 32
 645              	u8x8_ssd1322_8to32_dest_buf:
 646 0004 00000000 		.space	32
 646      00000000 
 646      00000000 
 646      00000000 
 646      00000000 
 647              		.text
 648              	.Letext0:
 649              		.file 2 "c:\\program files\\cypress\\psoc creator\\4.1\\psoc creator\\import\\gnu\\arm\\5.4.1\\arm
 650              		.file 3 "c:\\program files\\cypress\\psoc creator\\4.1\\psoc creator\\import\\gnu\\arm\\5.4.1\\arm
 651              		.file 4 "..\\..\\u8g2\\csrc\\u8x8.h"