ARM GAS  C:\Users\Alan\AppData\Local\Temp\ccPi4f4C.s 			page 1


   1              		.syntax unified
   2              		.cpu cortex-m0
   3              		.fpu softvfp
   4              		.eabi_attribute 20, 1
   5              		.eabi_attribute 21, 1
   6              		.eabi_attribute 23, 3
   7              		.eabi_attribute 24, 1
   8              		.eabi_attribute 25, 1
   9              		.eabi_attribute 26, 1
  10              		.eabi_attribute 30, 4
  11              		.eabi_attribute 34, 0
  12              		.eabi_attribute 18, 4
  13              		.thumb
  14              		.syntax unified
  15              		.file	"u8x8_d_uc1701_dogs102.c"
  16              		.text
  17              	.Ltext0:
  18              		.cfi_sections	.debug_frame
  19              		.section	.text.u8x8_d_uc1701_ea_dogs102,"ax",%progbits
  20              		.align	1
  21              		.global	u8x8_d_uc1701_ea_dogs102
  22              		.code	16
  23              		.thumb_func
  24              		.type	u8x8_d_uc1701_ea_dogs102, %function
  25              	u8x8_d_uc1701_ea_dogs102:
  26              	.LFB0:
  27              		.file 1 "..\\..\\u8g2\\csrc\\u8x8_d_uc1701_dogs102.c"
   1:..\..\u8g2\csrc/u8x8_d_uc1701_dogs102.c **** /*
   2:..\..\u8g2\csrc/u8x8_d_uc1701_dogs102.c **** 
   3:..\..\u8g2\csrc/u8x8_d_uc1701_dogs102.c ****   u8x8_d_uc1701_dogs102.c
   4:..\..\u8g2\csrc/u8x8_d_uc1701_dogs102.c ****   
   5:..\..\u8g2\csrc/u8x8_d_uc1701_dogs102.c ****   Universal 8bit Graphics Library (https://github.com/olikraus/u8g2/)
   6:..\..\u8g2\csrc/u8x8_d_uc1701_dogs102.c **** 
   7:..\..\u8g2\csrc/u8x8_d_uc1701_dogs102.c ****   Copyright (c) 2016, olikraus@gmail.com
   8:..\..\u8g2\csrc/u8x8_d_uc1701_dogs102.c ****   All rights reserved.
   9:..\..\u8g2\csrc/u8x8_d_uc1701_dogs102.c **** 
  10:..\..\u8g2\csrc/u8x8_d_uc1701_dogs102.c ****   Redistribution and use in source and binary forms, with or without modification, 
  11:..\..\u8g2\csrc/u8x8_d_uc1701_dogs102.c ****   are permitted provided that the following conditions are met:
  12:..\..\u8g2\csrc/u8x8_d_uc1701_dogs102.c **** 
  13:..\..\u8g2\csrc/u8x8_d_uc1701_dogs102.c ****   * Redistributions of source code must retain the above copyright notice, this list 
  14:..\..\u8g2\csrc/u8x8_d_uc1701_dogs102.c ****     of conditions and the following disclaimer.
  15:..\..\u8g2\csrc/u8x8_d_uc1701_dogs102.c ****     
  16:..\..\u8g2\csrc/u8x8_d_uc1701_dogs102.c ****   * Redistributions in binary form must reproduce the above copyright notice, this 
  17:..\..\u8g2\csrc/u8x8_d_uc1701_dogs102.c ****     list of conditions and the following disclaimer in the documentation and/or other 
  18:..\..\u8g2\csrc/u8x8_d_uc1701_dogs102.c ****     materials provided with the distribution.
  19:..\..\u8g2\csrc/u8x8_d_uc1701_dogs102.c **** 
  20:..\..\u8g2\csrc/u8x8_d_uc1701_dogs102.c ****   THIS SOFTWARE IS PROVIDED BY THE COPYRIGHT HOLDERS AND 
  21:..\..\u8g2\csrc/u8x8_d_uc1701_dogs102.c ****   CONTRIBUTORS "AS IS" AND ANY EXPRESS OR IMPLIED WARRANTIES, 
  22:..\..\u8g2\csrc/u8x8_d_uc1701_dogs102.c ****   INCLUDING, BUT NOT LIMITED TO, THE IMPLIED WARRANTIES OF 
  23:..\..\u8g2\csrc/u8x8_d_uc1701_dogs102.c ****   MERCHANTABILITY AND FITNESS FOR A PARTICULAR PURPOSE ARE 
  24:..\..\u8g2\csrc/u8x8_d_uc1701_dogs102.c ****   DISCLAIMED. IN NO EVENT SHALL THE COPYRIGHT HOLDER OR 
  25:..\..\u8g2\csrc/u8x8_d_uc1701_dogs102.c ****   CONTRIBUTORS BE LIABLE FOR ANY DIRECT, INDIRECT, INCIDENTAL, 
  26:..\..\u8g2\csrc/u8x8_d_uc1701_dogs102.c ****   SPECIAL, EXEMPLARY, OR CONSEQUENTIAL DAMAGES (INCLUDING, BUT 
  27:..\..\u8g2\csrc/u8x8_d_uc1701_dogs102.c ****   NOT LIMITED TO, PROCUREMENT OF SUBSTITUTE GOODS OR SERVICES; 
  28:..\..\u8g2\csrc/u8x8_d_uc1701_dogs102.c ****   LOSS OF USE, DATA, OR PROFITS; OR BUSINESS INTERRUPTION) HOWEVER 
  29:..\..\u8g2\csrc/u8x8_d_uc1701_dogs102.c ****   CAUSED AND ON ANY THEORY OF LIABILITY, WHETHER IN CONTRACT, 
  30:..\..\u8g2\csrc/u8x8_d_uc1701_dogs102.c ****   STRICT LIABILITY, OR TORT (INCLUDING NEGLIGENCE OR OTHERWISE) 
ARM GAS  C:\Users\Alan\AppData\Local\Temp\ccPi4f4C.s 			page 2


  31:..\..\u8g2\csrc/u8x8_d_uc1701_dogs102.c ****   ARISING IN ANY WAY OUT OF THE USE OF THIS SOFTWARE, EVEN IF 
  32:..\..\u8g2\csrc/u8x8_d_uc1701_dogs102.c ****   ADVISED OF THE POSSIBILITY OF SUCH DAMAGE.  
  33:..\..\u8g2\csrc/u8x8_d_uc1701_dogs102.c **** 
  34:..\..\u8g2\csrc/u8x8_d_uc1701_dogs102.c ****   
  35:..\..\u8g2\csrc/u8x8_d_uc1701_dogs102.c **** */
  36:..\..\u8g2\csrc/u8x8_d_uc1701_dogs102.c **** #include "u8x8.h"
  37:..\..\u8g2\csrc/u8x8_d_uc1701_dogs102.c **** 
  38:..\..\u8g2\csrc/u8x8_d_uc1701_dogs102.c **** 
  39:..\..\u8g2\csrc/u8x8_d_uc1701_dogs102.c **** 
  40:..\..\u8g2\csrc/u8x8_d_uc1701_dogs102.c **** 
  41:..\..\u8g2\csrc/u8x8_d_uc1701_dogs102.c **** static const uint8_t u8x8_d_uc1701_dogs102_init_seq[] = {
  42:..\..\u8g2\csrc/u8x8_d_uc1701_dogs102.c ****     
  43:..\..\u8g2\csrc/u8x8_d_uc1701_dogs102.c ****   U8X8_START_TRANSFER(),             	/* enable chip, delay is part of the transfer start */
  44:..\..\u8g2\csrc/u8x8_d_uc1701_dogs102.c ****   
  45:..\..\u8g2\csrc/u8x8_d_uc1701_dogs102.c ****   U8X8_C(0x0e2),            			/* soft reset */
  46:..\..\u8g2\csrc/u8x8_d_uc1701_dogs102.c ****   U8X8_C(0x0ae),		                /* display off */
  47:..\..\u8g2\csrc/u8x8_d_uc1701_dogs102.c ****   U8X8_C(0x040),		                /* set display start line to 0 */
  48:..\..\u8g2\csrc/u8x8_d_uc1701_dogs102.c ****   
  49:..\..\u8g2\csrc/u8x8_d_uc1701_dogs102.c ****   U8X8_C(0x0a1),		                /* ADC set to reverse */
  50:..\..\u8g2\csrc/u8x8_d_uc1701_dogs102.c ****   U8X8_C(0x0c0),		                /* common output mode */
  51:..\..\u8g2\csrc/u8x8_d_uc1701_dogs102.c ****   // Flipmode
  52:..\..\u8g2\csrc/u8x8_d_uc1701_dogs102.c ****   //U8X8_C(0x0a0),		                /* ADC set to reverse */
  53:..\..\u8g2\csrc/u8x8_d_uc1701_dogs102.c ****   //U8X8_C(0x0c8),		                /* common output mode */
  54:..\..\u8g2\csrc/u8x8_d_uc1701_dogs102.c ****   
  55:..\..\u8g2\csrc/u8x8_d_uc1701_dogs102.c ****   U8X8_C(0x0a6),		                /* display normal, bit val 0: LCD pixel off. */
  56:..\..\u8g2\csrc/u8x8_d_uc1701_dogs102.c ****   U8X8_C(0x0a2),		                /* LCD bias 1/9 */
  57:..\..\u8g2\csrc/u8x8_d_uc1701_dogs102.c ****   U8X8_C(0x02f),		                /* all power  control circuits on */
  58:..\..\u8g2\csrc/u8x8_d_uc1701_dogs102.c ****   U8X8_C(0x027),		                /* regulator, booster and follower */
  59:..\..\u8g2\csrc/u8x8_d_uc1701_dogs102.c ****   U8X8_CA(0x081, 0x00e),		/* set contrast, contrast value, EA default: 0x010, previous value for S1
  60:..\..\u8g2\csrc/u8x8_d_uc1701_dogs102.c ****   U8X8_C(0x0fa),		                /* Set Temp compensation */ 
  61:..\..\u8g2\csrc/u8x8_d_uc1701_dogs102.c ****   U8X8_C(0x090),		                /* 0.11 deg/c WP Off WC Off*/
  62:..\..\u8g2\csrc/u8x8_d_uc1701_dogs102.c ****   
  63:..\..\u8g2\csrc/u8x8_d_uc1701_dogs102.c ****   U8X8_C(0x0ae),		                /* display off */
  64:..\..\u8g2\csrc/u8x8_d_uc1701_dogs102.c ****   U8X8_C(0x0a5),		                /* enter powersafe: all pixel on, issue 142 */
  65:..\..\u8g2\csrc/u8x8_d_uc1701_dogs102.c ****   
  66:..\..\u8g2\csrc/u8x8_d_uc1701_dogs102.c ****   U8X8_END_TRANSFER(),             	/* disable chip */
  67:..\..\u8g2\csrc/u8x8_d_uc1701_dogs102.c ****   U8X8_END()             			/* end of sequence */
  68:..\..\u8g2\csrc/u8x8_d_uc1701_dogs102.c **** };
  69:..\..\u8g2\csrc/u8x8_d_uc1701_dogs102.c **** 
  70:..\..\u8g2\csrc/u8x8_d_uc1701_dogs102.c **** static const uint8_t u8x8_d_uc1701_dogs102_powersave0_seq[] = {
  71:..\..\u8g2\csrc/u8x8_d_uc1701_dogs102.c ****   U8X8_START_TRANSFER(),             	/* enable chip, delay is part of the transfer start */
  72:..\..\u8g2\csrc/u8x8_d_uc1701_dogs102.c ****   U8X8_C(0x0a4),		                /* all pixel off, issue 142 */
  73:..\..\u8g2\csrc/u8x8_d_uc1701_dogs102.c ****   U8X8_C(0x0af),		                /* display on */
  74:..\..\u8g2\csrc/u8x8_d_uc1701_dogs102.c ****   U8X8_END_TRANSFER(),             	/* disable chip */
  75:..\..\u8g2\csrc/u8x8_d_uc1701_dogs102.c ****   U8X8_END()             			/* end of sequence */
  76:..\..\u8g2\csrc/u8x8_d_uc1701_dogs102.c **** };
  77:..\..\u8g2\csrc/u8x8_d_uc1701_dogs102.c **** 
  78:..\..\u8g2\csrc/u8x8_d_uc1701_dogs102.c **** static const uint8_t u8x8_d_uc1701_dogs102_powersave1_seq[] = {
  79:..\..\u8g2\csrc/u8x8_d_uc1701_dogs102.c ****   U8X8_START_TRANSFER(),             	/* enable chip, delay is part of the transfer start */
  80:..\..\u8g2\csrc/u8x8_d_uc1701_dogs102.c ****   U8X8_C(0x0ae),		                /* display off */
  81:..\..\u8g2\csrc/u8x8_d_uc1701_dogs102.c ****   U8X8_C(0x0a5),		                /* enter powersafe: all pixel on, issue 142 */
  82:..\..\u8g2\csrc/u8x8_d_uc1701_dogs102.c ****   U8X8_END_TRANSFER(),             	/* disable chip */
  83:..\..\u8g2\csrc/u8x8_d_uc1701_dogs102.c ****   U8X8_END()             			/* end of sequence */
  84:..\..\u8g2\csrc/u8x8_d_uc1701_dogs102.c **** };
  85:..\..\u8g2\csrc/u8x8_d_uc1701_dogs102.c **** 
  86:..\..\u8g2\csrc/u8x8_d_uc1701_dogs102.c **** static const uint8_t u8x8_d_uc1701_dogs102_flip0_seq[] = {
  87:..\..\u8g2\csrc/u8x8_d_uc1701_dogs102.c ****   U8X8_START_TRANSFER(),             	/* enable chip, delay is part of the transfer start */
ARM GAS  C:\Users\Alan\AppData\Local\Temp\ccPi4f4C.s 			page 3


  88:..\..\u8g2\csrc/u8x8_d_uc1701_dogs102.c ****   U8X8_C(0x0a1),				/* segment remap a0/a1*/
  89:..\..\u8g2\csrc/u8x8_d_uc1701_dogs102.c ****   U8X8_C(0x0c0),				/* c0: scan dir normal, c8: reverse */
  90:..\..\u8g2\csrc/u8x8_d_uc1701_dogs102.c ****   U8X8_END_TRANSFER(),             	/* disable chip */
  91:..\..\u8g2\csrc/u8x8_d_uc1701_dogs102.c ****   U8X8_END()             			/* end of sequence */
  92:..\..\u8g2\csrc/u8x8_d_uc1701_dogs102.c **** };
  93:..\..\u8g2\csrc/u8x8_d_uc1701_dogs102.c **** 
  94:..\..\u8g2\csrc/u8x8_d_uc1701_dogs102.c **** static const uint8_t u8x8_d_uc1701_dogs102_flip1_seq[] = {
  95:..\..\u8g2\csrc/u8x8_d_uc1701_dogs102.c ****   U8X8_START_TRANSFER(),             	/* enable chip, delay is part of the transfer start */
  96:..\..\u8g2\csrc/u8x8_d_uc1701_dogs102.c ****   U8X8_C(0x0a0),				/* segment remap a0/a1*/
  97:..\..\u8g2\csrc/u8x8_d_uc1701_dogs102.c ****   U8X8_C(0x0c8),				/* c0: scan dir normal, c8: reverse */
  98:..\..\u8g2\csrc/u8x8_d_uc1701_dogs102.c ****   U8X8_END_TRANSFER(),             	/* disable chip */
  99:..\..\u8g2\csrc/u8x8_d_uc1701_dogs102.c ****   U8X8_END()             			/* end of sequence */
 100:..\..\u8g2\csrc/u8x8_d_uc1701_dogs102.c **** };
 101:..\..\u8g2\csrc/u8x8_d_uc1701_dogs102.c **** 
 102:..\..\u8g2\csrc/u8x8_d_uc1701_dogs102.c **** 
 103:..\..\u8g2\csrc/u8x8_d_uc1701_dogs102.c **** static const u8x8_display_info_t u8x8_uc1701_display_info =
 104:..\..\u8g2\csrc/u8x8_d_uc1701_dogs102.c **** {
 105:..\..\u8g2\csrc/u8x8_d_uc1701_dogs102.c ****   /* chip_enable_level = */ 0,
 106:..\..\u8g2\csrc/u8x8_d_uc1701_dogs102.c ****   /* chip_disable_level = */ 1,
 107:..\..\u8g2\csrc/u8x8_d_uc1701_dogs102.c ****   
 108:..\..\u8g2\csrc/u8x8_d_uc1701_dogs102.c ****   /* post_chip_enable_wait_ns = */ 5,
 109:..\..\u8g2\csrc/u8x8_d_uc1701_dogs102.c ****   /* pre_chip_disable_wait_ns = */ 5,
 110:..\..\u8g2\csrc/u8x8_d_uc1701_dogs102.c ****   /* reset_pulse_width_ms = */ 1, 
 111:..\..\u8g2\csrc/u8x8_d_uc1701_dogs102.c ****   /* post_reset_wait_ms = */ 6, 
 112:..\..\u8g2\csrc/u8x8_d_uc1701_dogs102.c ****   /* sda_setup_time_ns = */ 12,		
 113:..\..\u8g2\csrc/u8x8_d_uc1701_dogs102.c ****   /* sck_pulse_width_ns = */ 75,	/* half of cycle time (100ns according to datasheet), AVR: below 7
 114:..\..\u8g2\csrc/u8x8_d_uc1701_dogs102.c ****   /* sck_clock_hz = */ 4000000UL,	/* since Arduino 1.6.0, the SPI bus speed in Hz. Should be  10000
 115:..\..\u8g2\csrc/u8x8_d_uc1701_dogs102.c ****   /* spi_mode = */ 0,		/* active high, rising edge */
 116:..\..\u8g2\csrc/u8x8_d_uc1701_dogs102.c ****   /* i2c_bus_clock_100kHz = */ 4,
 117:..\..\u8g2\csrc/u8x8_d_uc1701_dogs102.c ****   /* data_setup_time_ns = */ 30,
 118:..\..\u8g2\csrc/u8x8_d_uc1701_dogs102.c ****   /* write_pulse_width_ns = */ 40,
 119:..\..\u8g2\csrc/u8x8_d_uc1701_dogs102.c ****   /* tile_width = */ 13,		/* width of 13*8=104 pixel */
 120:..\..\u8g2\csrc/u8x8_d_uc1701_dogs102.c ****   /* tile_hight = */ 8,
 121:..\..\u8g2\csrc/u8x8_d_uc1701_dogs102.c ****   /* default_x_offset = */ 0,
 122:..\..\u8g2\csrc/u8x8_d_uc1701_dogs102.c ****   /* flipmode_x_offset = */ 30,
 123:..\..\u8g2\csrc/u8x8_d_uc1701_dogs102.c ****   /* pixel_width = */ 102,
 124:..\..\u8g2\csrc/u8x8_d_uc1701_dogs102.c ****   /* pixel_height = */ 64
 125:..\..\u8g2\csrc/u8x8_d_uc1701_dogs102.c **** };
 126:..\..\u8g2\csrc/u8x8_d_uc1701_dogs102.c **** 
 127:..\..\u8g2\csrc/u8x8_d_uc1701_dogs102.c **** uint8_t u8x8_d_uc1701_ea_dogs102(u8x8_t *u8x8, uint8_t msg, uint8_t arg_int, void *arg_ptr)
 128:..\..\u8g2\csrc/u8x8_d_uc1701_dogs102.c **** {
  28              		.loc 1 128 0
  29              		.cfi_startproc
  30              		@ args = 0, pretend = 0, frame = 8
  31              		@ frame_needed = 0, uses_anonymous_args = 0
  32              	.LVL0:
  33 0000 F7B5     		push	{r0, r1, r2, r4, r5, r6, r7, lr}
  34              		.cfi_def_cfa_offset 32
  35              		.cfi_offset 0, -32
  36              		.cfi_offset 1, -28
  37              		.cfi_offset 2, -24
  38              		.cfi_offset 4, -20
  39              		.cfi_offset 5, -16
  40              		.cfi_offset 6, -12
  41              		.cfi_offset 7, -8
  42              		.cfi_offset 14, -4
 129:..\..\u8g2\csrc/u8x8_d_uc1701_dogs102.c ****   uint8_t x, c;
ARM GAS  C:\Users\Alan\AppData\Local\Temp\ccPi4f4C.s 			page 4


 130:..\..\u8g2\csrc/u8x8_d_uc1701_dogs102.c ****   uint8_t *ptr;
 131:..\..\u8g2\csrc/u8x8_d_uc1701_dogs102.c ****   switch(msg)
  43              		.loc 1 131 0
  44 0002 0939     		subs	r1, r1, #9
  45              	.LVL1:
 128:..\..\u8g2\csrc/u8x8_d_uc1701_dogs102.c ****   uint8_t x, c;
  46              		.loc 1 128 0
  47 0004 0400     		movs	r4, r0
  48 0006 1500     		movs	r5, r2
  49 0008 1F00     		movs	r7, r3
  50              		.loc 1 131 0
  51 000a 0800     		movs	r0, r1
  52              	.LVL2:
  53 000c 0629     		cmp	r1, #6
  54 000e 6CD8     		bhi	.L14
  55 0010 FFF7FEFF 		bl	__gnu_thumb1_case_uqi
  56              	.L4:
  57 0014 04       		.byte	(.L3-.L4)/2
  58 0015 09       		.byte	(.L5-.L4)/2
  59 0016 0F       		.byte	(.L6-.L4)/2
  60 0017 6B       		.byte	(.L14-.L4)/2
  61 0018 19       		.byte	(.L7-.L4)/2
  62 0019 2B       		.byte	(.L8-.L4)/2
  63 001a 3B       		.byte	(.L9-.L4)/2
  64 001b 00       		.p2align 1
  65              	.L3:
 132:..\..\u8g2\csrc/u8x8_d_uc1701_dogs102.c ****   {
 133:..\..\u8g2\csrc/u8x8_d_uc1701_dogs102.c ****     case U8X8_MSG_DISPLAY_SETUP_MEMORY:
 134:..\..\u8g2\csrc/u8x8_d_uc1701_dogs102.c ****       u8x8_d_helper_display_setup_memory(u8x8, &u8x8_uc1701_display_info);
  66              		.loc 1 134 0
  67 001c 3449     		ldr	r1, .L21
  68 001e 2000     		movs	r0, r4
  69 0020 FFF7FEFF 		bl	u8x8_d_helper_display_setup_memory
  70              	.LVL3:
  71 0024 2FE0     		b	.L16
  72              	.LVL4:
  73              	.L5:
 135:..\..\u8g2\csrc/u8x8_d_uc1701_dogs102.c ****       break;
 136:..\..\u8g2\csrc/u8x8_d_uc1701_dogs102.c ****     case U8X8_MSG_DISPLAY_INIT:
 137:..\..\u8g2\csrc/u8x8_d_uc1701_dogs102.c ****       u8x8_d_helper_display_init(u8x8);
  74              		.loc 1 137 0
  75 0026 2000     		movs	r0, r4
  76 0028 FFF7FEFF 		bl	u8x8_d_helper_display_init
  77              	.LVL5:
 138:..\..\u8g2\csrc/u8x8_d_uc1701_dogs102.c ****       u8x8_cad_SendSequence(u8x8, u8x8_d_uc1701_dogs102_init_seq);
  78              		.loc 1 138 0
  79 002c 3049     		ldr	r1, .L21
  80 002e 1831     		adds	r1, r1, #24
  81 0030 05E0     		b	.L19
  82              	.LVL6:
  83              	.L6:
  84 0032 2F49     		ldr	r1, .L21
 139:..\..\u8g2\csrc/u8x8_d_uc1701_dogs102.c ****       break;
 140:..\..\u8g2\csrc/u8x8_d_uc1701_dogs102.c ****     case U8X8_MSG_DISPLAY_SET_POWER_SAVE:
 141:..\..\u8g2\csrc/u8x8_d_uc1701_dogs102.c ****       if ( arg_int == 0 )
  85              		.loc 1 141 0
  86 0034 002A     		cmp	r2, #0
ARM GAS  C:\Users\Alan\AppData\Local\Temp\ccPi4f4C.s 			page 5


  87 0036 01D1     		bne	.L10
 142:..\..\u8g2\csrc/u8x8_d_uc1701_dogs102.c **** 	u8x8_cad_SendSequence(u8x8, u8x8_d_uc1701_dogs102_powersave0_seq);
  88              		.loc 1 142 0
  89 0038 3931     		adds	r1, r1, #57
  90 003a 00E0     		b	.L19
  91              	.L10:
 143:..\..\u8g2\csrc/u8x8_d_uc1701_dogs102.c ****       else
 144:..\..\u8g2\csrc/u8x8_d_uc1701_dogs102.c **** 	u8x8_cad_SendSequence(u8x8, u8x8_d_uc1701_dogs102_powersave1_seq);
  92              		.loc 1 144 0
  93 003c 4031     		adds	r1, r1, #64
  94              	.LVL7:
  95              	.L19:
  96 003e 2000     		movs	r0, r4
  97 0040 FFF7FEFF 		bl	u8x8_cad_SendSequence
  98              	.LVL8:
  99 0044 1FE0     		b	.L16
 100              	.LVL9:
 101              	.L7:
 102 0046 2A49     		ldr	r1, .L21
 145:..\..\u8g2\csrc/u8x8_d_uc1701_dogs102.c ****       break;
 146:..\..\u8g2\csrc/u8x8_d_uc1701_dogs102.c ****     case U8X8_MSG_DISPLAY_SET_FLIP_MODE:
 147:..\..\u8g2\csrc/u8x8_d_uc1701_dogs102.c ****       if ( arg_int == 0 )
 103              		.loc 1 147 0
 104 0048 002A     		cmp	r2, #0
 105 004a 06D1     		bne	.L11
 148:..\..\u8g2\csrc/u8x8_d_uc1701_dogs102.c ****       {
 149:..\..\u8g2\csrc/u8x8_d_uc1701_dogs102.c **** 	u8x8_cad_SendSequence(u8x8, u8x8_d_uc1701_dogs102_flip0_seq);
 106              		.loc 1 149 0
 107 004c 4731     		adds	r1, r1, #71
 108 004e 2000     		movs	r0, r4
 109 0050 FFF7FEFF 		bl	u8x8_cad_SendSequence
 110              	.LVL10:
 150:..\..\u8g2\csrc/u8x8_d_uc1701_dogs102.c **** 	u8x8->x_offset = u8x8->display_info->default_x_offset;
 111              		.loc 1 150 0
 112 0054 2368     		ldr	r3, [r4]
 113 0056 9B7C     		ldrb	r3, [r3, #18]
 114 0058 05E0     		b	.L18
 115              	.LVL11:
 116              	.L11:
 151:..\..\u8g2\csrc/u8x8_d_uc1701_dogs102.c ****       }
 152:..\..\u8g2\csrc/u8x8_d_uc1701_dogs102.c ****       else
 153:..\..\u8g2\csrc/u8x8_d_uc1701_dogs102.c ****       {
 154:..\..\u8g2\csrc/u8x8_d_uc1701_dogs102.c **** 	u8x8_cad_SendSequence(u8x8, u8x8_d_uc1701_dogs102_flip1_seq);
 117              		.loc 1 154 0
 118 005a 4E31     		adds	r1, r1, #78
 119 005c 2000     		movs	r0, r4
 120 005e FFF7FEFF 		bl	u8x8_cad_SendSequence
 121              	.LVL12:
 155:..\..\u8g2\csrc/u8x8_d_uc1701_dogs102.c **** 	u8x8->x_offset = u8x8->display_info->flipmode_x_offset;
 122              		.loc 1 155 0
 123 0062 2368     		ldr	r3, [r4]
 124 0064 DB7C     		ldrb	r3, [r3, #19]
 125              	.L18:
 126 0066 A377     		strb	r3, [r4, #30]
 127 0068 0DE0     		b	.L16
 128              	.LVL13:
 129              	.L8:
ARM GAS  C:\Users\Alan\AppData\Local\Temp\ccPi4f4C.s 			page 6


 156:..\..\u8g2\csrc/u8x8_d_uc1701_dogs102.c ****       }	
 157:..\..\u8g2\csrc/u8x8_d_uc1701_dogs102.c ****       break;
 158:..\..\u8g2\csrc/u8x8_d_uc1701_dogs102.c **** #ifdef U8X8_WITH_SET_CONTRAST
 159:..\..\u8g2\csrc/u8x8_d_uc1701_dogs102.c ****     case U8X8_MSG_DISPLAY_SET_CONTRAST:
 160:..\..\u8g2\csrc/u8x8_d_uc1701_dogs102.c ****       u8x8_cad_StartTransfer(u8x8);
 130              		.loc 1 160 0
 131 006a 2000     		movs	r0, r4
 132 006c FFF7FEFF 		bl	u8x8_cad_StartTransfer
 133              	.LVL14:
 161:..\..\u8g2\csrc/u8x8_d_uc1701_dogs102.c ****       u8x8_cad_SendCmd(u8x8, 0x081 );
 134              		.loc 1 161 0
 135 0070 8121     		movs	r1, #129
 136 0072 2000     		movs	r0, r4
 137 0074 FFF7FEFF 		bl	u8x8_cad_SendCmd
 138              	.LVL15:
 162:..\..\u8g2\csrc/u8x8_d_uc1701_dogs102.c ****       u8x8_cad_SendArg(u8x8, arg_int >> 2 );	/* uc1701 has range from 0 to 63 */
 139              		.loc 1 162 0
 140 0078 A908     		lsrs	r1, r5, #2
 141 007a 2000     		movs	r0, r4
 142 007c FFF7FEFF 		bl	u8x8_cad_SendArg
 143              	.LVL16:
 144              	.L17:
 163:..\..\u8g2\csrc/u8x8_d_uc1701_dogs102.c ****       u8x8_cad_EndTransfer(u8x8);
 145              		.loc 1 163 0
 146 0080 2000     		movs	r0, r4
 147 0082 FFF7FEFF 		bl	u8x8_cad_EndTransfer
 148              	.LVL17:
 149              	.L16:
 164:..\..\u8g2\csrc/u8x8_d_uc1701_dogs102.c ****       break;
 165:..\..\u8g2\csrc/u8x8_d_uc1701_dogs102.c **** #endif
 166:..\..\u8g2\csrc/u8x8_d_uc1701_dogs102.c ****     case U8X8_MSG_DISPLAY_DRAW_TILE:
 167:..\..\u8g2\csrc/u8x8_d_uc1701_dogs102.c ****       u8x8_cad_StartTransfer(u8x8);
 168:..\..\u8g2\csrc/u8x8_d_uc1701_dogs102.c ****     
 169:..\..\u8g2\csrc/u8x8_d_uc1701_dogs102.c ****       x = ((u8x8_tile_t *)arg_ptr)->x_pos;
 170:..\..\u8g2\csrc/u8x8_d_uc1701_dogs102.c ****       x *= 8;
 171:..\..\u8g2\csrc/u8x8_d_uc1701_dogs102.c ****       x += u8x8->x_offset;
 172:..\..\u8g2\csrc/u8x8_d_uc1701_dogs102.c ****       u8x8_cad_SendCmd(u8x8, 0x010 | (x>>4) );
 173:..\..\u8g2\csrc/u8x8_d_uc1701_dogs102.c ****       u8x8_cad_SendCmd(u8x8, 0x000 | ((x&15)));
 174:..\..\u8g2\csrc/u8x8_d_uc1701_dogs102.c ****       u8x8_cad_SendCmd(u8x8, 0x0b0 | (((u8x8_tile_t *)arg_ptr)->y_pos));
 175:..\..\u8g2\csrc/u8x8_d_uc1701_dogs102.c ****     
 176:..\..\u8g2\csrc/u8x8_d_uc1701_dogs102.c ****       c = ((u8x8_tile_t *)arg_ptr)->cnt;
 177:..\..\u8g2\csrc/u8x8_d_uc1701_dogs102.c ****       c *= 8;
 178:..\..\u8g2\csrc/u8x8_d_uc1701_dogs102.c ****       ptr = ((u8x8_tile_t *)arg_ptr)->tile_ptr;
 179:..\..\u8g2\csrc/u8x8_d_uc1701_dogs102.c ****       /* 
 180:..\..\u8g2\csrc/u8x8_d_uc1701_dogs102.c **** 	The following if condition checks the hardware limits of the uc1701 
 181:..\..\u8g2\csrc/u8x8_d_uc1701_dogs102.c **** 	controller: It is not allowed to write beyond the display limits.
 182:..\..\u8g2\csrc/u8x8_d_uc1701_dogs102.c **** 	This is in fact an issue within flip mode.
 183:..\..\u8g2\csrc/u8x8_d_uc1701_dogs102.c ****       */
 184:..\..\u8g2\csrc/u8x8_d_uc1701_dogs102.c ****       if ( c + x > 132u )
 185:..\..\u8g2\csrc/u8x8_d_uc1701_dogs102.c ****       {
 186:..\..\u8g2\csrc/u8x8_d_uc1701_dogs102.c **** 	c = 132u;
 187:..\..\u8g2\csrc/u8x8_d_uc1701_dogs102.c **** 	c -= x;
 188:..\..\u8g2\csrc/u8x8_d_uc1701_dogs102.c ****       }
 189:..\..\u8g2\csrc/u8x8_d_uc1701_dogs102.c ****       do
 190:..\..\u8g2\csrc/u8x8_d_uc1701_dogs102.c ****       {
 191:..\..\u8g2\csrc/u8x8_d_uc1701_dogs102.c **** 	u8x8_cad_SendData(u8x8, c, ptr);	/* note: SendData can not handle more than 255 bytes */
 192:..\..\u8g2\csrc/u8x8_d_uc1701_dogs102.c **** 	arg_int--;
ARM GAS  C:\Users\Alan\AppData\Local\Temp\ccPi4f4C.s 			page 7


 193:..\..\u8g2\csrc/u8x8_d_uc1701_dogs102.c ****       } while( arg_int > 0 );
 194:..\..\u8g2\csrc/u8x8_d_uc1701_dogs102.c ****       
 195:..\..\u8g2\csrc/u8x8_d_uc1701_dogs102.c ****       u8x8_cad_EndTransfer(u8x8);
 196:..\..\u8g2\csrc/u8x8_d_uc1701_dogs102.c ****       break;
 197:..\..\u8g2\csrc/u8x8_d_uc1701_dogs102.c ****     default:
 198:..\..\u8g2\csrc/u8x8_d_uc1701_dogs102.c ****       return 0;
 199:..\..\u8g2\csrc/u8x8_d_uc1701_dogs102.c ****   }
 200:..\..\u8g2\csrc/u8x8_d_uc1701_dogs102.c ****   return 1;
 150              		.loc 1 200 0
 151 0086 0120     		movs	r0, #1
 164:..\..\u8g2\csrc/u8x8_d_uc1701_dogs102.c ****       break;
 152              		.loc 1 164 0
 153 0088 30E0     		b	.L2
 154              	.LVL18:
 155              	.L9:
 167:..\..\u8g2\csrc/u8x8_d_uc1701_dogs102.c ****     
 156              		.loc 1 167 0
 157 008a 2000     		movs	r0, r4
 158 008c FFF7FEFF 		bl	u8x8_cad_StartTransfer
 159              	.LVL19:
 172:..\..\u8g2\csrc/u8x8_d_uc1701_dogs102.c ****       u8x8_cad_SendCmd(u8x8, 0x000 | ((x&15)));
 160              		.loc 1 172 0
 161 0090 1021     		movs	r1, #16
 169:..\..\u8g2\csrc/u8x8_d_uc1701_dogs102.c ****       x *= 8;
 162              		.loc 1 169 0
 163 0092 7E79     		ldrb	r6, [r7, #5]
 164              	.LVL20:
 171:..\..\u8g2\csrc/u8x8_d_uc1701_dogs102.c ****       u8x8_cad_SendCmd(u8x8, 0x010 | (x>>4) );
 165              		.loc 1 171 0
 166 0094 A37F     		ldrb	r3, [r4, #30]
 170:..\..\u8g2\csrc/u8x8_d_uc1701_dogs102.c ****       x += u8x8->x_offset;
 167              		.loc 1 170 0
 168 0096 F600     		lsls	r6, r6, #3
 169              	.LVL21:
 171:..\..\u8g2\csrc/u8x8_d_uc1701_dogs102.c ****       u8x8_cad_SendCmd(u8x8, 0x010 | (x>>4) );
 170              		.loc 1 171 0
 171 0098 F618     		adds	r6, r6, r3
 172              	.LVL22:
 173 009a F6B2     		uxtb	r6, r6
 174              	.LVL23:
 172:..\..\u8g2\csrc/u8x8_d_uc1701_dogs102.c ****       u8x8_cad_SendCmd(u8x8, 0x000 | ((x&15)));
 175              		.loc 1 172 0
 176 009c 3309     		lsrs	r3, r6, #4
 177 009e 1943     		orrs	r1, r3
 178 00a0 2000     		movs	r0, r4
 179 00a2 FFF7FEFF 		bl	u8x8_cad_SendCmd
 180              	.LVL24:
 173:..\..\u8g2\csrc/u8x8_d_uc1701_dogs102.c ****       u8x8_cad_SendCmd(u8x8, 0x0b0 | (((u8x8_tile_t *)arg_ptr)->y_pos));
 181              		.loc 1 173 0
 182 00a6 0F21     		movs	r1, #15
 183 00a8 2000     		movs	r0, r4
 184 00aa 3140     		ands	r1, r6
 185 00ac FFF7FEFF 		bl	u8x8_cad_SendCmd
 186              	.LVL25:
 174:..\..\u8g2\csrc/u8x8_d_uc1701_dogs102.c ****     
 187              		.loc 1 174 0
 188 00b0 B023     		movs	r3, #176
ARM GAS  C:\Users\Alan\AppData\Local\Temp\ccPi4f4C.s 			page 8


 189 00b2 B979     		ldrb	r1, [r7, #6]
 190 00b4 2000     		movs	r0, r4
 191 00b6 1943     		orrs	r1, r3
 192 00b8 FFF7FEFF 		bl	u8x8_cad_SendCmd
 193              	.LVL26:
 176:..\..\u8g2\csrc/u8x8_d_uc1701_dogs102.c ****       c *= 8;
 194              		.loc 1 176 0
 195 00bc 3B79     		ldrb	r3, [r7, #4]
 196              	.LVL27:
 178:..\..\u8g2\csrc/u8x8_d_uc1701_dogs102.c ****       /* 
 197              		.loc 1 178 0
 198 00be 3F68     		ldr	r7, [r7]
 199              	.LVL28:
 177:..\..\u8g2\csrc/u8x8_d_uc1701_dogs102.c ****       ptr = ((u8x8_tile_t *)arg_ptr)->tile_ptr;
 200              		.loc 1 177 0
 201 00c0 DB00     		lsls	r3, r3, #3
 202              	.LVL29:
 203 00c2 DBB2     		uxtb	r3, r3
 204 00c4 0193     		str	r3, [sp, #4]
 205              	.LVL30:
 184:..\..\u8g2\csrc/u8x8_d_uc1701_dogs102.c ****       {
 206              		.loc 1 184 0
 207 00c6 9B19     		adds	r3, r3, r6
 208 00c8 842B     		cmp	r3, #132
 209 00ca 04DD     		ble	.L13
 210              	.LVL31:
 187:..\..\u8g2\csrc/u8x8_d_uc1701_dogs102.c ****       }
 211              		.loc 1 187 0
 212 00cc 7C23     		movs	r3, #124
 213 00ce 5B42     		rsbs	r3, r3, #0
 214 00d0 9E1B     		subs	r6, r3, r6
 215              	.LVL32:
 216 00d2 F3B2     		uxtb	r3, r6
 217 00d4 0193     		str	r3, [sp, #4]
 218              	.LVL33:
 219              	.L13:
 192:..\..\u8g2\csrc/u8x8_d_uc1701_dogs102.c ****       } while( arg_int > 0 );
 220              		.loc 1 192 0 discriminator 1
 221 00d6 013D     		subs	r5, r5, #1
 222              	.LVL34:
 191:..\..\u8g2\csrc/u8x8_d_uc1701_dogs102.c **** 	arg_int--;
 223              		.loc 1 191 0 discriminator 1
 224 00d8 3A00     		movs	r2, r7
 225 00da 0199     		ldr	r1, [sp, #4]
 226 00dc 2000     		movs	r0, r4
 192:..\..\u8g2\csrc/u8x8_d_uc1701_dogs102.c ****       } while( arg_int > 0 );
 227              		.loc 1 192 0 discriminator 1
 228 00de EDB2     		uxtb	r5, r5
 191:..\..\u8g2\csrc/u8x8_d_uc1701_dogs102.c **** 	arg_int--;
 229              		.loc 1 191 0 discriminator 1
 230 00e0 FFF7FEFF 		bl	u8x8_cad_SendData
 231              	.LVL35:
 193:..\..\u8g2\csrc/u8x8_d_uc1701_dogs102.c ****       
 232              		.loc 1 193 0 discriminator 1
 233 00e4 002D     		cmp	r5, #0
 234 00e6 F6D1     		bne	.L13
 235 00e8 CAE7     		b	.L17
ARM GAS  C:\Users\Alan\AppData\Local\Temp\ccPi4f4C.s 			page 9


 236              	.LVL36:
 237              	.L14:
 198:..\..\u8g2\csrc/u8x8_d_uc1701_dogs102.c ****   }
 238              		.loc 1 198 0
 239 00ea 0020     		movs	r0, #0
 240              	.LVL37:
 241              	.L2:
 201:..\..\u8g2\csrc/u8x8_d_uc1701_dogs102.c **** }
 242              		.loc 1 201 0
 243              		@ sp needed
 244              	.LVL38:
 245 00ec FEBD     		pop	{r1, r2, r3, r4, r5, r6, r7, pc}
 246              	.L22:
 247 00ee C046     		.align	2
 248              	.L21:
 249 00f0 00000000 		.word	.LANCHOR0
 250              		.cfi_endproc
 251              	.LFE0:
 252              		.size	u8x8_d_uc1701_ea_dogs102, .-u8x8_d_uc1701_ea_dogs102
 253              		.section	.rodata
 254              		.align	2
 255              		.set	.LANCHOR0,. + 0
 256              		.type	u8x8_uc1701_display_info, %object
 257              		.size	u8x8_uc1701_display_info, 24
 258              	u8x8_uc1701_display_info:
 259 0000 00       		.byte	0
 260 0001 01       		.byte	1
 261 0002 05       		.byte	5
 262 0003 05       		.byte	5
 263 0004 01       		.byte	1
 264 0005 06       		.byte	6
 265 0006 0C       		.byte	12
 266 0007 4B       		.byte	75
 267 0008 00093D00 		.word	4000000
 268 000c 00       		.byte	0
 269 000d 04       		.byte	4
 270 000e 1E       		.byte	30
 271 000f 28       		.byte	40
 272 0010 0D       		.byte	13
 273 0011 08       		.byte	8
 274 0012 00       		.byte	0
 275 0013 1E       		.byte	30
 276 0014 6600     		.short	102
 277 0016 4000     		.short	64
 278              		.type	u8x8_d_uc1701_dogs102_init_seq, %object
 279              		.size	u8x8_d_uc1701_dogs102_init_seq, 33
 280              	u8x8_d_uc1701_dogs102_init_seq:
 281 0018 18       		.byte	24
 282 0019 15       		.byte	21
 283 001a E2       		.byte	-30
 284 001b 15       		.byte	21
 285 001c AE       		.byte	-82
 286 001d 15       		.byte	21
 287 001e 40       		.byte	64
 288 001f 15       		.byte	21
 289 0020 A1       		.byte	-95
 290 0021 15       		.byte	21
ARM GAS  C:\Users\Alan\AppData\Local\Temp\ccPi4f4C.s 			page 10


 291 0022 C0       		.byte	-64
 292 0023 15       		.byte	21
 293 0024 A6       		.byte	-90
 294 0025 15       		.byte	21
 295 0026 A2       		.byte	-94
 296 0027 15       		.byte	21
 297 0028 2F       		.byte	47
 298 0029 15       		.byte	21
 299 002a 27       		.byte	39
 300 002b 15       		.byte	21
 301 002c 81       		.byte	-127
 302 002d 16       		.byte	22
 303 002e 0E       		.byte	14
 304 002f 15       		.byte	21
 305 0030 FA       		.byte	-6
 306 0031 15       		.byte	21
 307 0032 90       		.byte	-112
 308 0033 15       		.byte	21
 309 0034 AE       		.byte	-82
 310 0035 15       		.byte	21
 311 0036 A5       		.byte	-91
 312 0037 19       		.byte	25
 313 0038 FF       		.byte	-1
 314              		.type	u8x8_d_uc1701_dogs102_powersave0_seq, %object
 315              		.size	u8x8_d_uc1701_dogs102_powersave0_seq, 7
 316              	u8x8_d_uc1701_dogs102_powersave0_seq:
 317 0039 18       		.byte	24
 318 003a 15       		.byte	21
 319 003b A4       		.byte	-92
 320 003c 15       		.byte	21
 321 003d AF       		.byte	-81
 322 003e 19       		.byte	25
 323 003f FF       		.byte	-1
 324              		.type	u8x8_d_uc1701_dogs102_powersave1_seq, %object
 325              		.size	u8x8_d_uc1701_dogs102_powersave1_seq, 7
 326              	u8x8_d_uc1701_dogs102_powersave1_seq:
 327 0040 18       		.byte	24
 328 0041 15       		.byte	21
 329 0042 AE       		.byte	-82
 330 0043 15       		.byte	21
 331 0044 A5       		.byte	-91
 332 0045 19       		.byte	25
 333 0046 FF       		.byte	-1
 334              		.type	u8x8_d_uc1701_dogs102_flip0_seq, %object
 335              		.size	u8x8_d_uc1701_dogs102_flip0_seq, 7
 336              	u8x8_d_uc1701_dogs102_flip0_seq:
 337 0047 18       		.byte	24
 338 0048 15       		.byte	21
 339 0049 A1       		.byte	-95
 340 004a 15       		.byte	21
 341 004b C0       		.byte	-64
 342 004c 19       		.byte	25
 343 004d FF       		.byte	-1
 344              		.type	u8x8_d_uc1701_dogs102_flip1_seq, %object
 345              		.size	u8x8_d_uc1701_dogs102_flip1_seq, 7
 346              	u8x8_d_uc1701_dogs102_flip1_seq:
 347 004e 18       		.byte	24
ARM GAS  C:\Users\Alan\AppData\Local\Temp\ccPi4f4C.s 			page 11


 348 004f 15       		.byte	21
 349 0050 A0       		.byte	-96
 350 0051 15       		.byte	21
 351 0052 C8       		.byte	-56
 352 0053 19       		.byte	25
 353 0054 FF       		.byte	-1
 354              		.text
 355              	.Letext0:
 356              		.file 2 "c:\\program files (x86)\\cypress\\psoc creator\\4.1\\psoc creator\\import\\gnu\\arm\\5.4.
 357              		.file 3 "c:\\program files (x86)\\cypress\\psoc creator\\4.1\\psoc creator\\import\\gnu\\arm\\5.4.
 358              		.file 4 "..\\..\\u8g2\\csrc\\u8x8.h"