ARM GAS  C:\Users\gjl\AppData\Local\Temp\cchHuiOZ.s 			page 1


   1              		.syntax unified
   2              		.cpu cortex-m0
   3              		.fpu softvfp
   4              		.eabi_attribute 20, 1
   5              		.eabi_attribute 21, 1
   6              		.eabi_attribute 23, 3
   7              		.eabi_attribute 24, 1
   8              		.eabi_attribute 25, 1
   9              		.eabi_attribute 26, 1
  10              		.eabi_attribute 30, 4
  11              		.eabi_attribute 34, 0
  12              		.eabi_attribute 18, 4
  13              		.thumb
  14              		.syntax unified
  15              		.file	"u8x8_debounce.c"
  16              		.text
  17              	.Ltext0:
  18              		.cfi_sections	.debug_frame
  19              		.section	.text.u8x8_GetMenuEvent,"ax",%progbits
  20              		.align	1
  21              		.global	u8x8_GetMenuEvent
  22              		.code	16
  23              		.thumb_func
  24              		.type	u8x8_GetMenuEvent, %function
  25              	u8x8_GetMenuEvent:
  26              	.LFB2:
  27              		.file 1 "..\\..\\u8g2\\csrc\\u8x8_debounce.c"
   1:..\..\u8g2\csrc/u8x8_debounce.c **** /*
   2:..\..\u8g2\csrc/u8x8_debounce.c **** 
   3:..\..\u8g2\csrc/u8x8_debounce.c ****   u8x8_debounce.c
   4:..\..\u8g2\csrc/u8x8_debounce.c ****   
   5:..\..\u8g2\csrc/u8x8_debounce.c ****   Key/button simple debounce algorithm (Addon for u8x8)
   6:..\..\u8g2\csrc/u8x8_debounce.c ****   
   7:..\..\u8g2\csrc/u8x8_debounce.c ****   Universal 8bit Graphics Library (https://github.com/olikraus/u8g2/)
   8:..\..\u8g2\csrc/u8x8_debounce.c **** 
   9:..\..\u8g2\csrc/u8x8_debounce.c ****   Copyright (c) 2016, olikraus@gmail.com
  10:..\..\u8g2\csrc/u8x8_debounce.c ****   All rights reserved.
  11:..\..\u8g2\csrc/u8x8_debounce.c **** 
  12:..\..\u8g2\csrc/u8x8_debounce.c ****   Redistribution and use in source and binary forms, with or without modification, 
  13:..\..\u8g2\csrc/u8x8_debounce.c ****   are permitted provided that the following conditions are met:
  14:..\..\u8g2\csrc/u8x8_debounce.c **** 
  15:..\..\u8g2\csrc/u8x8_debounce.c ****   * Redistributions of source code must retain the above copyright notice, this list 
  16:..\..\u8g2\csrc/u8x8_debounce.c ****     of conditions and the following disclaimer.
  17:..\..\u8g2\csrc/u8x8_debounce.c ****     
  18:..\..\u8g2\csrc/u8x8_debounce.c ****   * Redistributions in binary form must reproduce the above copyright notice, this 
  19:..\..\u8g2\csrc/u8x8_debounce.c ****     list of conditions and the following disclaimer in the documentation and/or other 
  20:..\..\u8g2\csrc/u8x8_debounce.c ****     materials provided with the distribution.
  21:..\..\u8g2\csrc/u8x8_debounce.c **** 
  22:..\..\u8g2\csrc/u8x8_debounce.c ****   THIS SOFTWARE IS PROVIDED BY THE COPYRIGHT HOLDERS AND 
  23:..\..\u8g2\csrc/u8x8_debounce.c ****   CONTRIBUTORS "AS IS" AND ANY EXPRESS OR IMPLIED WARRANTIES, 
  24:..\..\u8g2\csrc/u8x8_debounce.c ****   INCLUDING, BUT NOT LIMITED TO, THE IMPLIED WARRANTIES OF 
  25:..\..\u8g2\csrc/u8x8_debounce.c ****   MERCHANTABILITY AND FITNESS FOR A PARTICULAR PURPOSE ARE 
  26:..\..\u8g2\csrc/u8x8_debounce.c ****   DISCLAIMED. IN NO EVENT SHALL THE COPYRIGHT HOLDER OR 
  27:..\..\u8g2\csrc/u8x8_debounce.c ****   CONTRIBUTORS BE LIABLE FOR ANY DIRECT, INDIRECT, INCIDENTAL, 
  28:..\..\u8g2\csrc/u8x8_debounce.c ****   SPECIAL, EXEMPLARY, OR CONSEQUENTIAL DAMAGES (INCLUDING, BUT 
  29:..\..\u8g2\csrc/u8x8_debounce.c ****   NOT LIMITED TO, PROCUREMENT OF SUBSTITUTE GOODS OR SERVICES; 
  30:..\..\u8g2\csrc/u8x8_debounce.c ****   LOSS OF USE, DATA, OR PROFITS; OR BUSINESS INTERRUPTION) HOWEVER 
ARM GAS  C:\Users\gjl\AppData\Local\Temp\cchHuiOZ.s 			page 2


  31:..\..\u8g2\csrc/u8x8_debounce.c ****   CAUSED AND ON ANY THEORY OF LIABILITY, WHETHER IN CONTRACT, 
  32:..\..\u8g2\csrc/u8x8_debounce.c ****   STRICT LIABILITY, OR TORT (INCLUDING NEGLIGENCE OR OTHERWISE) 
  33:..\..\u8g2\csrc/u8x8_debounce.c ****   ARISING IN ANY WAY OUT OF THE USE OF THIS SOFTWARE, EVEN IF 
  34:..\..\u8g2\csrc/u8x8_debounce.c ****   ADVISED OF THE POSSIBILITY OF SUCH DAMAGE.  
  35:..\..\u8g2\csrc/u8x8_debounce.c ****   
  36:..\..\u8g2\csrc/u8x8_debounce.c **** */
  37:..\..\u8g2\csrc/u8x8_debounce.c **** 
  38:..\..\u8g2\csrc/u8x8_debounce.c **** #include "u8x8.h"
  39:..\..\u8g2\csrc/u8x8_debounce.c **** 
  40:..\..\u8g2\csrc/u8x8_debounce.c **** static uint8_t u8x8_read_pin_state(u8x8_t *u8x8)
  41:..\..\u8g2\csrc/u8x8_debounce.c **** {
  42:..\..\u8g2\csrc/u8x8_debounce.c ****   uint8_t i;
  43:..\..\u8g2\csrc/u8x8_debounce.c ****   uint8_t pin_state;
  44:..\..\u8g2\csrc/u8x8_debounce.c ****   
  45:..\..\u8g2\csrc/u8x8_debounce.c ****   pin_state = 255;	/* be compatible with the setup of the default pin setup, which is 255 */
  46:..\..\u8g2\csrc/u8x8_debounce.c ****   for( i = 0; i < U8X8_PIN_INPUT_CNT; i++ )
  47:..\..\u8g2\csrc/u8x8_debounce.c ****   {
  48:..\..\u8g2\csrc/u8x8_debounce.c ****     pin_state <<= 1;
  49:..\..\u8g2\csrc/u8x8_debounce.c ****     
  50:..\..\u8g2\csrc/u8x8_debounce.c ****     /* the callback function should put the return value into this variable */
  51:..\..\u8g2\csrc/u8x8_debounce.c ****     u8x8->gpio_result = 1;
  52:..\..\u8g2\csrc/u8x8_debounce.c ****     u8x8_gpio_call(u8x8, U8X8_MSG_GPIO(i+U8X8_PIN_OUTPUT_CNT), 0);
  53:..\..\u8g2\csrc/u8x8_debounce.c ****     pin_state |= u8x8->gpio_result & 1;
  54:..\..\u8g2\csrc/u8x8_debounce.c ****   }
  55:..\..\u8g2\csrc/u8x8_debounce.c ****   
  56:..\..\u8g2\csrc/u8x8_debounce.c ****   return pin_state;
  57:..\..\u8g2\csrc/u8x8_debounce.c **** }
  58:..\..\u8g2\csrc/u8x8_debounce.c **** 
  59:..\..\u8g2\csrc/u8x8_debounce.c **** /*
  60:..\..\u8g2\csrc/u8x8_debounce.c ****   return 0 to U8X8_PIN_INPUT_CNT-1 if there is a difference
  61:..\..\u8g2\csrc/u8x8_debounce.c ****   return U8X8_PIN_INPUT_CNT if there is no difference
  62:..\..\u8g2\csrc/u8x8_debounce.c **** */
  63:..\..\u8g2\csrc/u8x8_debounce.c **** static uint8_t u8x8_find_first_diff(uint8_t a, uint8_t b)
  64:..\..\u8g2\csrc/u8x8_debounce.c **** {
  65:..\..\u8g2\csrc/u8x8_debounce.c ****   uint8_t mask;
  66:..\..\u8g2\csrc/u8x8_debounce.c ****   uint8_t i;
  67:..\..\u8g2\csrc/u8x8_debounce.c ****   mask = 1;
  68:..\..\u8g2\csrc/u8x8_debounce.c ****   i = U8X8_PIN_INPUT_CNT;
  69:..\..\u8g2\csrc/u8x8_debounce.c ****   do
  70:..\..\u8g2\csrc/u8x8_debounce.c ****   {
  71:..\..\u8g2\csrc/u8x8_debounce.c ****     i--;
  72:..\..\u8g2\csrc/u8x8_debounce.c ****     if ( (a & mask) != (b & mask) )
  73:..\..\u8g2\csrc/u8x8_debounce.c ****       return i;
  74:..\..\u8g2\csrc/u8x8_debounce.c ****     mask <<= 1;
  75:..\..\u8g2\csrc/u8x8_debounce.c ****   } while( i > 0 );
  76:..\..\u8g2\csrc/u8x8_debounce.c ****   return U8X8_PIN_INPUT_CNT;
  77:..\..\u8g2\csrc/u8x8_debounce.c **** }
  78:..\..\u8g2\csrc/u8x8_debounce.c **** 
  79:..\..\u8g2\csrc/u8x8_debounce.c **** /*
  80:..\..\u8g2\csrc/u8x8_debounce.c ****   State A:
  81:..\..\u8g2\csrc/u8x8_debounce.c ****     u8x8->debounce_last_pin_state == current_state 
  82:..\..\u8g2\csrc/u8x8_debounce.c ****       --> State A
  83:..\..\u8g2\csrc/u8x8_debounce.c ****     u8x8->debounce_last_pin_state != current_state 
  84:..\..\u8g2\csrc/u8x8_debounce.c ****       --> u8x8->debounce_last_pin_state = current_state 
  85:..\..\u8g2\csrc/u8x8_debounce.c ****       --> State B + cnt
  86:..\..\u8g2\csrc/u8x8_debounce.c **** 
  87:..\..\u8g2\csrc/u8x8_debounce.c ****   State B + cnt
ARM GAS  C:\Users\gjl\AppData\Local\Temp\cchHuiOZ.s 			page 3


  88:..\..\u8g2\csrc/u8x8_debounce.c ****     --> state--
  89:..\..\u8g2\csrc/u8x8_debounce.c **** 
  90:..\..\u8g2\csrc/u8x8_debounce.c ****   State B
  91:..\..\u8g2\csrc/u8x8_debounce.c ****     u8x8->debounce_last_pin_state == current_state 
  92:..\..\u8g2\csrc/u8x8_debounce.c ****       --> keypress detected
  93:..\..\u8g2\csrc/u8x8_debounce.c ****       --> State C
  94:..\..\u8g2\csrc/u8x8_debounce.c ****     u8x8->debounce_last_pin_state != current_state 
  95:..\..\u8g2\csrc/u8x8_debounce.c ****       --> State A
  96:..\..\u8g2\csrc/u8x8_debounce.c **** 
  97:..\..\u8g2\csrc/u8x8_debounce.c ****   State C
  98:..\..\u8g2\csrc/u8x8_debounce.c ****     u8x8->debounce_last_pin_state == current_state 
  99:..\..\u8g2\csrc/u8x8_debounce.c ****       --> State C
 100:..\..\u8g2\csrc/u8x8_debounce.c ****     u8x8->debounce_last_pin_state != current_state 
 101:..\..\u8g2\csrc/u8x8_debounce.c ****       --> State A
 102:..\..\u8g2\csrc/u8x8_debounce.c **** 
 103:..\..\u8g2\csrc/u8x8_debounce.c **** */
 104:..\..\u8g2\csrc/u8x8_debounce.c **** 
 105:..\..\u8g2\csrc/u8x8_debounce.c **** #ifdef __unix__xxxxxx_THIS_IS_DISABLED
 106:..\..\u8g2\csrc/u8x8_debounce.c **** 
 107:..\..\u8g2\csrc/u8x8_debounce.c **** #include <stdio.h>
 108:..\..\u8g2\csrc/u8x8_debounce.c **** #include <stdlib.h>
 109:..\..\u8g2\csrc/u8x8_debounce.c **** uint8_t u8x8_GetMenuEvent(u8x8_t *u8x8)
 110:..\..\u8g2\csrc/u8x8_debounce.c **** {
 111:..\..\u8g2\csrc/u8x8_debounce.c ****     int c;
 112:..\..\u8g2\csrc/u8x8_debounce.c ****     c = getc(stdin);
 113:..\..\u8g2\csrc/u8x8_debounce.c ****     switch(c)
 114:..\..\u8g2\csrc/u8x8_debounce.c ****     {
 115:..\..\u8g2\csrc/u8x8_debounce.c ****         case 'n':
 116:..\..\u8g2\csrc/u8x8_debounce.c ****             return  U8X8_MSG_GPIO_MENU_NEXT;
 117:..\..\u8g2\csrc/u8x8_debounce.c ****         case 'p':
 118:..\..\u8g2\csrc/u8x8_debounce.c ****             return  U8X8_MSG_GPIO_MENU_PREV;
 119:..\..\u8g2\csrc/u8x8_debounce.c ****         case 's':
 120:..\..\u8g2\csrc/u8x8_debounce.c ****             return  U8X8_MSG_GPIO_MENU_SELECT;
 121:..\..\u8g2\csrc/u8x8_debounce.c ****         case 'h':
 122:..\..\u8g2\csrc/u8x8_debounce.c ****             return  U8X8_MSG_GPIO_MENU_HOME;
 123:..\..\u8g2\csrc/u8x8_debounce.c ****         case 'x':
 124:..\..\u8g2\csrc/u8x8_debounce.c ****             exit(0);
 125:..\..\u8g2\csrc/u8x8_debounce.c ****         default:
 126:..\..\u8g2\csrc/u8x8_debounce.c ****             puts("press n, p, s, h or x");
 127:..\..\u8g2\csrc/u8x8_debounce.c ****             break;
 128:..\..\u8g2\csrc/u8x8_debounce.c ****     }
 129:..\..\u8g2\csrc/u8x8_debounce.c ****     return 0;
 130:..\..\u8g2\csrc/u8x8_debounce.c **** }
 131:..\..\u8g2\csrc/u8x8_debounce.c **** 
 132:..\..\u8g2\csrc/u8x8_debounce.c **** 
 133:..\..\u8g2\csrc/u8x8_debounce.c **** #else  /* __unix__ */
 134:..\..\u8g2\csrc/u8x8_debounce.c **** 
 135:..\..\u8g2\csrc/u8x8_debounce.c **** 
 136:..\..\u8g2\csrc/u8x8_debounce.c **** #define U8X8_DEBOUNCE_WAIT 1
 137:..\..\u8g2\csrc/u8x8_debounce.c **** /* do debounce and return a GPIO msg which indicates the event */
 138:..\..\u8g2\csrc/u8x8_debounce.c **** /* returns 0, if there is no event */
 139:..\..\u8g2\csrc/u8x8_debounce.c **** uint8_t u8x8_GetMenuEvent(u8x8_t *u8x8)
 140:..\..\u8g2\csrc/u8x8_debounce.c **** {
  28              		.loc 1 140 0
  29              		.cfi_startproc
  30              		@ args = 0, pretend = 0, frame = 0
  31              		@ frame_needed = 0, uses_anonymous_args = 0
ARM GAS  C:\Users\gjl\AppData\Local\Temp\cchHuiOZ.s 			page 4


  32              	.LVL0:
  33 0000 F8B5     		push	{r3, r4, r5, r6, r7, lr}
  34              		.cfi_def_cfa_offset 24
  35              		.cfi_offset 3, -24
  36              		.cfi_offset 4, -20
  37              		.cfi_offset 5, -16
  38              		.cfi_offset 6, -12
  39              		.cfi_offset 7, -8
  40              		.cfi_offset 14, -4
  41              		.loc 1 140 0
  42 0002 0400     		movs	r4, r0
  43              	.LVL1:
  44 0004 5026     		movs	r6, #80
  45              	.LBB6:
  46              	.LBB7:
  45:..\..\u8g2\csrc/u8x8_debounce.c ****   for( i = 0; i < U8X8_PIN_INPUT_CNT; i++ )
  47              		.loc 1 45 0
  48 0006 FF25     		movs	r5, #255
  49              	.LVL2:
  50              	.L2:
  51:..\..\u8g2\csrc/u8x8_debounce.c ****     u8x8_gpio_call(u8x8, U8X8_MSG_GPIO(i+U8X8_PIN_OUTPUT_CNT), 0);
  51              		.loc 1 51 0
  52 0008 0123     		movs	r3, #1
  53 000a 671D     		adds	r7, r4, #5
  54 000c FB77     		strb	r3, [r7, #31]
  52:..\..\u8g2\csrc/u8x8_debounce.c ****     pin_state |= u8x8->gpio_result & 1;
  55              		.loc 1 52 0
  56 000e 0022     		movs	r2, #0
  57 0010 3100     		movs	r1, r6
  58 0012 2000     		movs	r0, r4
  59 0014 FFF7FEFF 		bl	u8x8_gpio_call
  60              	.LVL3:
  53:..\..\u8g2\csrc/u8x8_debounce.c ****   }
  61              		.loc 1 53 0
  62 0018 0122     		movs	r2, #1
  63 001a 9540     		lsls	r5, r5, r2
  64              	.LVL4:
  65 001c FB7F     		ldrb	r3, [r7, #31]
  66 001e B618     		adds	r6, r6, r2
  67              	.LVL5:
  68 0020 1340     		ands	r3, r2
  69 0022 1D43     		orrs	r5, r3
  70 0024 F6B2     		uxtb	r6, r6
  71 0026 EDB2     		uxtb	r5, r5
  72              	.LVL6:
  46:..\..\u8g2\csrc/u8x8_debounce.c ****   {
  73              		.loc 1 46 0
  74 0028 562E     		cmp	r6, #86
  75 002a EDD1     		bne	.L2
  76              	.LVL7:
  77              	.LBE7:
  78              	.LBE6:
 141:..\..\u8g2\csrc/u8x8_debounce.c ****   uint8_t pin_state;
 142:..\..\u8g2\csrc/u8x8_debounce.c ****   uint8_t result_msg = 0;	/* invalid message */
 143:..\..\u8g2\csrc/u8x8_debounce.c ****   
 144:..\..\u8g2\csrc/u8x8_debounce.c ****   pin_state = u8x8_read_pin_state(u8x8);
 145:..\..\u8g2\csrc/u8x8_debounce.c ****   
ARM GAS  C:\Users\gjl\AppData\Local\Temp\cchHuiOZ.s 			page 5


 146:..\..\u8g2\csrc/u8x8_debounce.c ****   /* States A, B, C & D are encoded in the upper 4 bit*/
 147:..\..\u8g2\csrc/u8x8_debounce.c ****   switch(u8x8->debounce_state)
  79              		.loc 1 147 0
  80 002c 2200     		movs	r2, r4
  81 002e 0832     		adds	r2, r2, #8
  82 0030 D37F     		ldrb	r3, [r2, #31]
  83 0032 102B     		cmp	r3, #16
  84 0034 0ED0     		beq	.L4
  85 0036 0021     		movs	r1, #0
  86 0038 202B     		cmp	r3, #32
  87 003a 15D0     		beq	.L5
  88 003c 8B42     		cmp	r3, r1
  89 003e 2AD1     		bne	.L16
 148:..\..\u8g2\csrc/u8x8_debounce.c ****   {
 149:..\..\u8g2\csrc/u8x8_debounce.c ****     case 0x00:	/* State A, default state */
 150:..\..\u8g2\csrc/u8x8_debounce.c ****       if ( u8x8->debounce_default_pin_state != pin_state )
  90              		.loc 1 150 0
  91 0040 A11D     		adds	r1, r4, #6
  92 0042 C97F     		ldrb	r1, [r1, #31]
 142:..\..\u8g2\csrc/u8x8_debounce.c ****   
  93              		.loc 1 142 0
  94 0044 1800     		movs	r0, r3
  95              		.loc 1 150 0
  96 0046 A942     		cmp	r1, r5
  97 0048 28D0     		beq	.L7
 151:..\..\u8g2\csrc/u8x8_debounce.c ****       {
 152:..\..\u8g2\csrc/u8x8_debounce.c **** 	u8x8->debounce_last_pin_state = pin_state;
 153:..\..\u8g2\csrc/u8x8_debounce.c **** 	u8x8->debounce_state = 0x010 + U8X8_DEBOUNCE_WAIT;
  98              		.loc 1 153 0
  99 004a 1121     		movs	r1, #17
 152:..\..\u8g2\csrc/u8x8_debounce.c **** 	u8x8->debounce_state = 0x010 + U8X8_DEBOUNCE_WAIT;
 100              		.loc 1 152 0
 101 004c 0734     		adds	r4, r4, #7
 102              	.LVL8:
 103 004e E577     		strb	r5, [r4, #31]
 104              		.loc 1 153 0
 105 0050 D177     		strb	r1, [r2, #31]
 106 0052 23E0     		b	.L7
 107              	.LVL9:
 108              	.L4:
 154:..\..\u8g2\csrc/u8x8_debounce.c ****       }
 155:..\..\u8g2\csrc/u8x8_debounce.c ****       break;
 156:..\..\u8g2\csrc/u8x8_debounce.c ****     case 0x10:	/* State B */
 157:..\..\u8g2\csrc/u8x8_debounce.c ****       if ( u8x8->debounce_last_pin_state != pin_state )
 109              		.loc 1 157 0
 110 0054 0734     		adds	r4, r4, #7
 111              	.LVL10:
 112 0056 E37F     		ldrb	r3, [r4, #31]
 113 0058 0020     		movs	r0, #0
 114 005a AB42     		cmp	r3, r5
 115 005c 01D0     		beq	.L8
 158:..\..\u8g2\csrc/u8x8_debounce.c ****       {
 159:..\..\u8g2\csrc/u8x8_debounce.c **** 	u8x8->debounce_state = 0x00;	/* back to state A */
 116              		.loc 1 159 0
 117 005e D077     		strb	r0, [r2, #31]
 118 0060 1CE0     		b	.L7
 119              	.L8:
ARM GAS  C:\Users\gjl\AppData\Local\Temp\cchHuiOZ.s 			page 6


 160:..\..\u8g2\csrc/u8x8_debounce.c ****       }
 161:..\..\u8g2\csrc/u8x8_debounce.c ****       else
 162:..\..\u8g2\csrc/u8x8_debounce.c ****       {
 163:..\..\u8g2\csrc/u8x8_debounce.c **** 	/* keypress detected */
 164:..\..\u8g2\csrc/u8x8_debounce.c **** 	u8x8->debounce_last_pin_state = pin_state;
 165:..\..\u8g2\csrc/u8x8_debounce.c **** 	//result_msg = U8X8_MSG_GPIO_MENU_NEXT;
 166:..\..\u8g2\csrc/u8x8_debounce.c **** 	u8x8->debounce_state = 0x020;	/* got to state C */	
 120              		.loc 1 166 0
 121 0062 2023     		movs	r3, #32
 122 0064 D377     		strb	r3, [r2, #31]
 123 0066 19E0     		b	.L7
 124              	.LVL11:
 125              	.L5:
 167:..\..\u8g2\csrc/u8x8_debounce.c ****       }
 168:..\..\u8g2\csrc/u8x8_debounce.c ****       break;
 169:..\..\u8g2\csrc/u8x8_debounce.c ****     case 0x20:	/* State C */
 170:..\..\u8g2\csrc/u8x8_debounce.c ****       /* wait until key release */
 171:..\..\u8g2\csrc/u8x8_debounce.c ****       if ( u8x8->debounce_default_pin_state == pin_state )
 126              		.loc 1 171 0
 127 0068 A31D     		adds	r3, r4, #6
 128 006a DB7F     		ldrb	r3, [r3, #31]
 142:..\..\u8g2\csrc/u8x8_debounce.c ****   
 129              		.loc 1 142 0
 130 006c 0800     		movs	r0, r1
 131              		.loc 1 171 0
 132 006e AB42     		cmp	r3, r5
 133 0070 14D1     		bne	.L7
 134              	.LBB8:
 135              	.LBB9:
  68:..\..\u8g2\csrc/u8x8_debounce.c ****   do
 136              		.loc 1 68 0
 137 0072 0620     		movs	r0, #6
  67:..\..\u8g2\csrc/u8x8_debounce.c ****   i = U8X8_PIN_INPUT_CNT;
 138              		.loc 1 67 0
 139 0074 0123     		movs	r3, #1
 140              	.LBE9:
 141              	.LBE8:
 172:..\..\u8g2\csrc/u8x8_debounce.c ****       {
 173:..\..\u8g2\csrc/u8x8_debounce.c **** 	u8x8->debounce_state = 0x00;	/* back to state A */
 142              		.loc 1 173 0
 143 0076 D177     		strb	r1, [r2, #31]
 174:..\..\u8g2\csrc/u8x8_debounce.c **** 	result_msg = U8X8_MSG_GPIO(u8x8_find_first_diff(u8x8->debounce_default_pin_state, u8x8->debounce_l
 144              		.loc 1 174 0
 145 0078 0734     		adds	r4, r4, #7
 146              	.LVL12:
 147 007a E27F     		ldrb	r2, [r4, #31]
 148              	.LVL13:
 149              	.LBB11:
 150              	.LBB10:
  72:..\..\u8g2\csrc/u8x8_debounce.c ****       return i;
 151              		.loc 1 72 0
 152 007c 5540     		eors	r5, r2
 153              	.LVL14:
 154              	.L10:
  71:..\..\u8g2\csrc/u8x8_debounce.c ****     if ( (a & mask) != (b & mask) )
 155              		.loc 1 71 0
 156 007e 0138     		subs	r0, r0, #1
ARM GAS  C:\Users\gjl\AppData\Local\Temp\cchHuiOZ.s 			page 7


 157              	.LVL15:
 158 0080 C0B2     		uxtb	r0, r0
 159              	.LVL16:
  72:..\..\u8g2\csrc/u8x8_debounce.c ****       return i;
 160              		.loc 1 72 0
 161 0082 1D42     		tst	r5, r3
 162 0084 04D1     		bne	.L9
  74:..\..\u8g2\csrc/u8x8_debounce.c ****   } while( i > 0 );
 163              		.loc 1 74 0
 164 0086 5B00     		lsls	r3, r3, #1
 165              	.LVL17:
 166 0088 DBB2     		uxtb	r3, r3
 167              	.LVL18:
  75:..\..\u8g2\csrc/u8x8_debounce.c ****   return U8X8_PIN_INPUT_CNT;
 168              		.loc 1 75 0
 169 008a 0028     		cmp	r0, #0
 170 008c F7D1     		bne	.L10
  76:..\..\u8g2\csrc/u8x8_debounce.c **** }
 171              		.loc 1 76 0
 172 008e 0630     		adds	r0, r0, #6
 173              	.LVL19:
 174              	.L9:
 175              	.LBE10:
 176              	.LBE11:
 177              		.loc 1 174 0
 178 0090 5030     		adds	r0, r0, #80
 179 0092 C0B2     		uxtb	r0, r0
 180              	.LVL20:
 181 0094 02E0     		b	.L7
 182              	.LVL21:
 183              	.L16:
 142:..\..\u8g2\csrc/u8x8_debounce.c ****   
 184              		.loc 1 142 0
 185 0096 0800     		movs	r0, r1
 175:..\..\u8g2\csrc/u8x8_debounce.c ****       }
 176:..\..\u8g2\csrc/u8x8_debounce.c ****       else
 177:..\..\u8g2\csrc/u8x8_debounce.c ****       {
 178:..\..\u8g2\csrc/u8x8_debounce.c **** 	//result_msg = U8X8_MSG_GPIO_MENU_NEXT;
 179:..\..\u8g2\csrc/u8x8_debounce.c **** 	// maybe implement autorepeat here 
 180:..\..\u8g2\csrc/u8x8_debounce.c ****       }
 181:..\..\u8g2\csrc/u8x8_debounce.c ****       break;
 182:..\..\u8g2\csrc/u8x8_debounce.c ****     default:
 183:..\..\u8g2\csrc/u8x8_debounce.c ****       u8x8->debounce_state--;	/* count down, until there is a valid state */
 186              		.loc 1 183 0
 187 0098 013B     		subs	r3, r3, #1
 188 009a D377     		strb	r3, [r2, #31]
 189              	.LVL22:
 190              	.L7:
 184:..\..\u8g2\csrc/u8x8_debounce.c ****       break;
 185:..\..\u8g2\csrc/u8x8_debounce.c ****   }
 186:..\..\u8g2\csrc/u8x8_debounce.c ****   return result_msg;
 187:..\..\u8g2\csrc/u8x8_debounce.c **** }
 191              		.loc 1 187 0
 192              		@ sp needed
 193              	.LVL23:
 194 009c F8BD     		pop	{r3, r4, r5, r6, r7, pc}
 195              		.cfi_endproc
ARM GAS  C:\Users\gjl\AppData\Local\Temp\cchHuiOZ.s 			page 8


 196              	.LFE2:
 197              		.size	u8x8_GetMenuEvent, .-u8x8_GetMenuEvent
 198              		.text
 199              	.Letext0:
 200              		.file 2 "c:\\program files (x86)\\cypress\\psoc creator\\4.1\\psoc creator\\import\\gnu\\arm\\5.4.
 201              		.file 3 "c:\\program files (x86)\\cypress\\psoc creator\\4.1\\psoc creator\\import\\gnu\\arm\\5.4.
 202              		.file 4 "..\\..\\u8g2\\csrc\\u8x8.h"