ARM GAS  C:\Users\Alan\AppData\Local\Temp\ccq5bknE.s 			page 1


   1              		.syntax unified
   2              		.cpu cortex-m0
   3              		.fpu softvfp
   4              		.eabi_attribute 20, 1
   5              		.eabi_attribute 21, 1
   6              		.eabi_attribute 23, 3
   7              		.eabi_attribute 24, 1
   8              		.eabi_attribute 25, 1
   9              		.eabi_attribute 26, 1
  10              		.eabi_attribute 30, 4
  11              		.eabi_attribute 34, 0
  12              		.eabi_attribute 18, 4
  13              		.thumb
  14              		.syntax unified
  15              		.file	"u8x8_d_ssd1306_128x32.c"
  16              		.text
  17              	.Ltext0:
  18              		.cfi_sections	.debug_frame
  19              		.section	.text.u8x8_d_ssd1306_128x32_univision,"ax",%progbits
  20              		.align	1
  21              		.global	u8x8_d_ssd1306_128x32_univision
  22              		.code	16
  23              		.thumb_func
  24              		.type	u8x8_d_ssd1306_128x32_univision, %function
  25              	u8x8_d_ssd1306_128x32_univision:
  26              	.LFB1:
  27              		.file 1 "..\\..\\u8g2\\csrc\\u8x8_d_ssd1306_128x32.c"
   1:..\..\u8g2\csrc/u8x8_d_ssd1306_128x32.c **** /*
   2:..\..\u8g2\csrc/u8x8_d_ssd1306_128x32.c **** 
   3:..\..\u8g2\csrc/u8x8_d_ssd1306_128x32.c ****   u8x8_d_ssd1306_128x32.c
   4:..\..\u8g2\csrc/u8x8_d_ssd1306_128x32.c **** 
   5:..\..\u8g2\csrc/u8x8_d_ssd1306_128x32.c ****   Universal 8bit Graphics Library (https://github.com/olikraus/u8g2/)
   6:..\..\u8g2\csrc/u8x8_d_ssd1306_128x32.c **** 
   7:..\..\u8g2\csrc/u8x8_d_ssd1306_128x32.c ****   Copyright (c) 2016, olikraus@gmail.com
   8:..\..\u8g2\csrc/u8x8_d_ssd1306_128x32.c ****   All rights reserved.
   9:..\..\u8g2\csrc/u8x8_d_ssd1306_128x32.c **** 
  10:..\..\u8g2\csrc/u8x8_d_ssd1306_128x32.c ****   Redistribution and use in source and binary forms, with or without modification, 
  11:..\..\u8g2\csrc/u8x8_d_ssd1306_128x32.c ****   are permitted provided that the following conditions are met:
  12:..\..\u8g2\csrc/u8x8_d_ssd1306_128x32.c **** 
  13:..\..\u8g2\csrc/u8x8_d_ssd1306_128x32.c ****   * Redistributions of source code must retain the above copyright notice, this list 
  14:..\..\u8g2\csrc/u8x8_d_ssd1306_128x32.c ****     of conditions and the following disclaimer.
  15:..\..\u8g2\csrc/u8x8_d_ssd1306_128x32.c ****     
  16:..\..\u8g2\csrc/u8x8_d_ssd1306_128x32.c ****   * Redistributions in binary form must reproduce the above copyright notice, this 
  17:..\..\u8g2\csrc/u8x8_d_ssd1306_128x32.c ****     list of conditions and the following disclaimer in the documentation and/or other 
  18:..\..\u8g2\csrc/u8x8_d_ssd1306_128x32.c ****     materials provided with the distribution.
  19:..\..\u8g2\csrc/u8x8_d_ssd1306_128x32.c **** 
  20:..\..\u8g2\csrc/u8x8_d_ssd1306_128x32.c ****   THIS SOFTWARE IS PROVIDED BY THE COPYRIGHT HOLDERS AND 
  21:..\..\u8g2\csrc/u8x8_d_ssd1306_128x32.c ****   CONTRIBUTORS "AS IS" AND ANY EXPRESS OR IMPLIED WARRANTIES, 
  22:..\..\u8g2\csrc/u8x8_d_ssd1306_128x32.c ****   INCLUDING, BUT NOT LIMITED TO, THE IMPLIED WARRANTIES OF 
  23:..\..\u8g2\csrc/u8x8_d_ssd1306_128x32.c ****   MERCHANTABILITY AND FITNESS FOR A PARTICULAR PURPOSE ARE 
  24:..\..\u8g2\csrc/u8x8_d_ssd1306_128x32.c ****   DISCLAIMED. IN NO EVENT SHALL THE COPYRIGHT HOLDER OR 
  25:..\..\u8g2\csrc/u8x8_d_ssd1306_128x32.c ****   CONTRIBUTORS BE LIABLE FOR ANY DIRECT, INDIRECT, INCIDENTAL, 
  26:..\..\u8g2\csrc/u8x8_d_ssd1306_128x32.c ****   SPECIAL, EXEMPLARY, OR CONSEQUENTIAL DAMAGES (INCLUDING, BUT 
  27:..\..\u8g2\csrc/u8x8_d_ssd1306_128x32.c ****   NOT LIMITED TO, PROCUREMENT OF SUBSTITUTE GOODS OR SERVICES; 
  28:..\..\u8g2\csrc/u8x8_d_ssd1306_128x32.c ****   LOSS OF USE, DATA, OR PROFITS; OR BUSINESS INTERRUPTION) HOWEVER 
  29:..\..\u8g2\csrc/u8x8_d_ssd1306_128x32.c ****   CAUSED AND ON ANY THEORY OF LIABILITY, WHETHER IN CONTRACT, 
  30:..\..\u8g2\csrc/u8x8_d_ssd1306_128x32.c ****   STRICT LIABILITY, OR TORT (INCLUDING NEGLIGENCE OR OTHERWISE) 
ARM GAS  C:\Users\Alan\AppData\Local\Temp\ccq5bknE.s 			page 2


  31:..\..\u8g2\csrc/u8x8_d_ssd1306_128x32.c ****   ARISING IN ANY WAY OUT OF THE USE OF THIS SOFTWARE, EVEN IF 
  32:..\..\u8g2\csrc/u8x8_d_ssd1306_128x32.c ****   ADVISED OF THE POSSIBILITY OF SUCH DAMAGE.  
  33:..\..\u8g2\csrc/u8x8_d_ssd1306_128x32.c ****   
  34:..\..\u8g2\csrc/u8x8_d_ssd1306_128x32.c **** */
  35:..\..\u8g2\csrc/u8x8_d_ssd1306_128x32.c **** 
  36:..\..\u8g2\csrc/u8x8_d_ssd1306_128x32.c **** 
  37:..\..\u8g2\csrc/u8x8_d_ssd1306_128x32.c **** #include "u8x8.h"
  38:..\..\u8g2\csrc/u8x8_d_ssd1306_128x32.c **** 
  39:..\..\u8g2\csrc/u8x8_d_ssd1306_128x32.c **** 
  40:..\..\u8g2\csrc/u8x8_d_ssd1306_128x32.c **** 
  41:..\..\u8g2\csrc/u8x8_d_ssd1306_128x32.c **** /* UG-2832HSWEG02 Datasheet, Section 4.4 */
  42:..\..\u8g2\csrc/u8x8_d_ssd1306_128x32.c **** static const uint8_t u8x8_d_ssd1306_128x32_univision_init_seq[] = {
  43:..\..\u8g2\csrc/u8x8_d_ssd1306_128x32.c ****     
  44:..\..\u8g2\csrc/u8x8_d_ssd1306_128x32.c ****   U8X8_START_TRANSFER(),             	/* enable chip, delay is part of the transfer start */
  45:..\..\u8g2\csrc/u8x8_d_ssd1306_128x32.c ****   
  46:..\..\u8g2\csrc/u8x8_d_ssd1306_128x32.c ****   
  47:..\..\u8g2\csrc/u8x8_d_ssd1306_128x32.c ****   U8X8_C(0x0ae),		                /* display off */
  48:..\..\u8g2\csrc/u8x8_d_ssd1306_128x32.c ****   U8X8_CA(0x0d5, 0x080),		/* clock divide ratio (0x00=1) and oscillator frequency (0x8) */
  49:..\..\u8g2\csrc/u8x8_d_ssd1306_128x32.c ****   U8X8_CA(0x0a8, 0x01f),		/* multiplex ratio */
  50:..\..\u8g2\csrc/u8x8_d_ssd1306_128x32.c ****   U8X8_CA(0x0d3, 0x000),		/* display offset */
  51:..\..\u8g2\csrc/u8x8_d_ssd1306_128x32.c ****   U8X8_C(0x040),		                /* set display start line to 0 */
  52:..\..\u8g2\csrc/u8x8_d_ssd1306_128x32.c ****   U8X8_CA(0x08d, 0x014),		/* [2] charge pump setting (p62): 0x014 enable, 0x010 disable */
  53:..\..\u8g2\csrc/u8x8_d_ssd1306_128x32.c ****   U8X8_CA(0x020, 0x000),		/* page addressing mode */
  54:..\..\u8g2\csrc/u8x8_d_ssd1306_128x32.c ****   
  55:..\..\u8g2\csrc/u8x8_d_ssd1306_128x32.c ****   U8X8_C(0x0a1),				/* segment remap a0/a1*/
  56:..\..\u8g2\csrc/u8x8_d_ssd1306_128x32.c ****   U8X8_C(0x0c8),				/* c0: scan dir normal, c8: reverse */
  57:..\..\u8g2\csrc/u8x8_d_ssd1306_128x32.c ****   // Flipmode
  58:..\..\u8g2\csrc/u8x8_d_ssd1306_128x32.c ****   // U8X8_C(0x0a0),				/* segment remap a0/a1*/
  59:..\..\u8g2\csrc/u8x8_d_ssd1306_128x32.c ****   // U8X8_C(0x0c0),				/* c0: scan dir normal, c8: reverse */
  60:..\..\u8g2\csrc/u8x8_d_ssd1306_128x32.c ****   
  61:..\..\u8g2\csrc/u8x8_d_ssd1306_128x32.c ****   U8X8_CA(0x0da, 0x002),		/* com pin HW config, sequential com pin config (bit 4), disable left/rig
  62:..\..\u8g2\csrc/u8x8_d_ssd1306_128x32.c ****   U8X8_CA(0x081, 0x08f),		/* [2] set contrast control */
  63:..\..\u8g2\csrc/u8x8_d_ssd1306_128x32.c ****   U8X8_CA(0x0d9, 0x0f1),		/* [2] pre-charge period 0x022/f1*/
  64:..\..\u8g2\csrc/u8x8_d_ssd1306_128x32.c ****   U8X8_CA(0x0db, 0x040),		/* vcomh deselect level */
  65:..\..\u8g2\csrc/u8x8_d_ssd1306_128x32.c ****   
  66:..\..\u8g2\csrc/u8x8_d_ssd1306_128x32.c ****   U8X8_C(0x02e),				/* Deactivate scroll */ 
  67:..\..\u8g2\csrc/u8x8_d_ssd1306_128x32.c ****   U8X8_C(0x0a4),				/* output ram to display */
  68:..\..\u8g2\csrc/u8x8_d_ssd1306_128x32.c ****   U8X8_C(0x0a6),				/* none inverted normal display mode */
  69:..\..\u8g2\csrc/u8x8_d_ssd1306_128x32.c ****     
  70:..\..\u8g2\csrc/u8x8_d_ssd1306_128x32.c ****   U8X8_END_TRANSFER(),             	/* disable chip */
  71:..\..\u8g2\csrc/u8x8_d_ssd1306_128x32.c ****   U8X8_END()             			/* end of sequence */
  72:..\..\u8g2\csrc/u8x8_d_ssd1306_128x32.c **** };
  73:..\..\u8g2\csrc/u8x8_d_ssd1306_128x32.c **** 
  74:..\..\u8g2\csrc/u8x8_d_ssd1306_128x32.c **** static const uint8_t u8x8_d_ssd1306_128x32_univision_powersave0_seq[] = {
  75:..\..\u8g2\csrc/u8x8_d_ssd1306_128x32.c ****   U8X8_START_TRANSFER(),             	/* enable chip, delay is part of the transfer start */
  76:..\..\u8g2\csrc/u8x8_d_ssd1306_128x32.c ****   U8X8_C(0x0af),		                /* display on */
  77:..\..\u8g2\csrc/u8x8_d_ssd1306_128x32.c ****   U8X8_END_TRANSFER(),             	/* disable chip */
  78:..\..\u8g2\csrc/u8x8_d_ssd1306_128x32.c ****   U8X8_END()             			/* end of sequence */
  79:..\..\u8g2\csrc/u8x8_d_ssd1306_128x32.c **** };
  80:..\..\u8g2\csrc/u8x8_d_ssd1306_128x32.c **** 
  81:..\..\u8g2\csrc/u8x8_d_ssd1306_128x32.c **** static const uint8_t u8x8_d_ssd1306_128x32_univision_powersave1_seq[] = {
  82:..\..\u8g2\csrc/u8x8_d_ssd1306_128x32.c ****   U8X8_START_TRANSFER(),             	/* enable chip, delay is part of the transfer start */
  83:..\..\u8g2\csrc/u8x8_d_ssd1306_128x32.c ****   U8X8_C(0x0ae),		                /* display off */
  84:..\..\u8g2\csrc/u8x8_d_ssd1306_128x32.c ****   U8X8_END_TRANSFER(),             	/* disable chip */
  85:..\..\u8g2\csrc/u8x8_d_ssd1306_128x32.c ****   U8X8_END()             			/* end of sequence */
  86:..\..\u8g2\csrc/u8x8_d_ssd1306_128x32.c **** };
  87:..\..\u8g2\csrc/u8x8_d_ssd1306_128x32.c **** 
ARM GAS  C:\Users\Alan\AppData\Local\Temp\ccq5bknE.s 			page 3


  88:..\..\u8g2\csrc/u8x8_d_ssd1306_128x32.c **** static const uint8_t u8x8_d_ssd1306_128x32_univision_flip0_seq[] = {
  89:..\..\u8g2\csrc/u8x8_d_ssd1306_128x32.c ****   U8X8_START_TRANSFER(),             	/* enable chip, delay is part of the transfer start */
  90:..\..\u8g2\csrc/u8x8_d_ssd1306_128x32.c ****   U8X8_C(0x0a1),				/* segment remap a0/a1*/
  91:..\..\u8g2\csrc/u8x8_d_ssd1306_128x32.c ****   U8X8_C(0x0c8),				/* c0: scan dir normal, c8: reverse */
  92:..\..\u8g2\csrc/u8x8_d_ssd1306_128x32.c ****   U8X8_END_TRANSFER(),             	/* disable chip */
  93:..\..\u8g2\csrc/u8x8_d_ssd1306_128x32.c ****   U8X8_END()             			/* end of sequence */
  94:..\..\u8g2\csrc/u8x8_d_ssd1306_128x32.c **** };
  95:..\..\u8g2\csrc/u8x8_d_ssd1306_128x32.c **** 
  96:..\..\u8g2\csrc/u8x8_d_ssd1306_128x32.c **** static const uint8_t u8x8_d_ssd1306_128x32_univision_flip1_seq[] = {
  97:..\..\u8g2\csrc/u8x8_d_ssd1306_128x32.c ****   U8X8_START_TRANSFER(),             	/* enable chip, delay is part of the transfer start */
  98:..\..\u8g2\csrc/u8x8_d_ssd1306_128x32.c ****   U8X8_C(0x0a0),				/* segment remap a0/a1*/
  99:..\..\u8g2\csrc/u8x8_d_ssd1306_128x32.c ****   U8X8_C(0x0c0),				/* c0: scan dir normal, c8: reverse */
 100:..\..\u8g2\csrc/u8x8_d_ssd1306_128x32.c ****   U8X8_END_TRANSFER(),             	/* disable chip */
 101:..\..\u8g2\csrc/u8x8_d_ssd1306_128x32.c ****   U8X8_END()             			/* end of sequence */
 102:..\..\u8g2\csrc/u8x8_d_ssd1306_128x32.c **** };
 103:..\..\u8g2\csrc/u8x8_d_ssd1306_128x32.c **** 
 104:..\..\u8g2\csrc/u8x8_d_ssd1306_128x32.c **** 
 105:..\..\u8g2\csrc/u8x8_d_ssd1306_128x32.c **** static uint8_t u8x8_d_ssd1306_128x32_generic(u8x8_t *u8x8, uint8_t msg, uint8_t arg_int, void *arg_
 106:..\..\u8g2\csrc/u8x8_d_ssd1306_128x32.c **** {
 107:..\..\u8g2\csrc/u8x8_d_ssd1306_128x32.c ****   uint8_t x, c;
 108:..\..\u8g2\csrc/u8x8_d_ssd1306_128x32.c ****   uint8_t *ptr;
 109:..\..\u8g2\csrc/u8x8_d_ssd1306_128x32.c ****   switch(msg)
 110:..\..\u8g2\csrc/u8x8_d_ssd1306_128x32.c ****   {
 111:..\..\u8g2\csrc/u8x8_d_ssd1306_128x32.c ****     /* handled by the calling function
 112:..\..\u8g2\csrc/u8x8_d_ssd1306_128x32.c ****     case U8X8_MSG_DISPLAY_SETUP_MEMORY:
 113:..\..\u8g2\csrc/u8x8_d_ssd1306_128x32.c ****       u8x8_d_helper_display_setup_memory(u8x8, &u8x8_ssd1306_128x32_univision_display_info);
 114:..\..\u8g2\csrc/u8x8_d_ssd1306_128x32.c ****       break;
 115:..\..\u8g2\csrc/u8x8_d_ssd1306_128x32.c ****     */
 116:..\..\u8g2\csrc/u8x8_d_ssd1306_128x32.c ****     case U8X8_MSG_DISPLAY_INIT:
 117:..\..\u8g2\csrc/u8x8_d_ssd1306_128x32.c ****       u8x8_d_helper_display_init(u8x8);
 118:..\..\u8g2\csrc/u8x8_d_ssd1306_128x32.c ****       u8x8_cad_SendSequence(u8x8, u8x8_d_ssd1306_128x32_univision_init_seq);    
 119:..\..\u8g2\csrc/u8x8_d_ssd1306_128x32.c ****       break;
 120:..\..\u8g2\csrc/u8x8_d_ssd1306_128x32.c ****     case U8X8_MSG_DISPLAY_SET_POWER_SAVE:
 121:..\..\u8g2\csrc/u8x8_d_ssd1306_128x32.c ****       if ( arg_int == 0 )
 122:..\..\u8g2\csrc/u8x8_d_ssd1306_128x32.c **** 	u8x8_cad_SendSequence(u8x8, u8x8_d_ssd1306_128x32_univision_powersave0_seq);
 123:..\..\u8g2\csrc/u8x8_d_ssd1306_128x32.c ****       else
 124:..\..\u8g2\csrc/u8x8_d_ssd1306_128x32.c **** 	u8x8_cad_SendSequence(u8x8, u8x8_d_ssd1306_128x32_univision_powersave1_seq);
 125:..\..\u8g2\csrc/u8x8_d_ssd1306_128x32.c ****       break;
 126:..\..\u8g2\csrc/u8x8_d_ssd1306_128x32.c ****     case U8X8_MSG_DISPLAY_SET_FLIP_MODE:
 127:..\..\u8g2\csrc/u8x8_d_ssd1306_128x32.c ****       if ( arg_int == 0 )
 128:..\..\u8g2\csrc/u8x8_d_ssd1306_128x32.c ****       {
 129:..\..\u8g2\csrc/u8x8_d_ssd1306_128x32.c **** 	u8x8_cad_SendSequence(u8x8, u8x8_d_ssd1306_128x32_univision_flip0_seq);
 130:..\..\u8g2\csrc/u8x8_d_ssd1306_128x32.c **** 	u8x8->x_offset = u8x8->display_info->default_x_offset;
 131:..\..\u8g2\csrc/u8x8_d_ssd1306_128x32.c ****       }
 132:..\..\u8g2\csrc/u8x8_d_ssd1306_128x32.c ****       else
 133:..\..\u8g2\csrc/u8x8_d_ssd1306_128x32.c ****       {
 134:..\..\u8g2\csrc/u8x8_d_ssd1306_128x32.c **** 	u8x8_cad_SendSequence(u8x8, u8x8_d_ssd1306_128x32_univision_flip1_seq);
 135:..\..\u8g2\csrc/u8x8_d_ssd1306_128x32.c **** 	u8x8->x_offset = u8x8->display_info->flipmode_x_offset;
 136:..\..\u8g2\csrc/u8x8_d_ssd1306_128x32.c ****       }
 137:..\..\u8g2\csrc/u8x8_d_ssd1306_128x32.c ****       break;
 138:..\..\u8g2\csrc/u8x8_d_ssd1306_128x32.c **** #ifdef U8X8_WITH_SET_CONTRAST
 139:..\..\u8g2\csrc/u8x8_d_ssd1306_128x32.c ****     case U8X8_MSG_DISPLAY_SET_CONTRAST:
 140:..\..\u8g2\csrc/u8x8_d_ssd1306_128x32.c ****       u8x8_cad_StartTransfer(u8x8);
 141:..\..\u8g2\csrc/u8x8_d_ssd1306_128x32.c ****       u8x8_cad_SendCmd(u8x8, 0x081 );
 142:..\..\u8g2\csrc/u8x8_d_ssd1306_128x32.c ****       u8x8_cad_SendArg(u8x8, arg_int );	/* ssd1306 has range from 0 to 255 */
 143:..\..\u8g2\csrc/u8x8_d_ssd1306_128x32.c ****       u8x8_cad_EndTransfer(u8x8);
 144:..\..\u8g2\csrc/u8x8_d_ssd1306_128x32.c ****       break;
ARM GAS  C:\Users\Alan\AppData\Local\Temp\ccq5bknE.s 			page 4


 145:..\..\u8g2\csrc/u8x8_d_ssd1306_128x32.c **** #endif
 146:..\..\u8g2\csrc/u8x8_d_ssd1306_128x32.c ****     case U8X8_MSG_DISPLAY_DRAW_TILE:
 147:..\..\u8g2\csrc/u8x8_d_ssd1306_128x32.c ****       u8x8_cad_StartTransfer(u8x8);
 148:..\..\u8g2\csrc/u8x8_d_ssd1306_128x32.c ****       x = ((u8x8_tile_t *)arg_ptr)->x_pos;    
 149:..\..\u8g2\csrc/u8x8_d_ssd1306_128x32.c ****       x *= 8;
 150:..\..\u8g2\csrc/u8x8_d_ssd1306_128x32.c ****       x += u8x8->x_offset;
 151:..\..\u8g2\csrc/u8x8_d_ssd1306_128x32.c ****       u8x8_cad_SendCmd(u8x8, 0x010 | (x>>4) );
 152:..\..\u8g2\csrc/u8x8_d_ssd1306_128x32.c ****       u8x8_cad_SendCmd(u8x8, 0x000 | ((x&15)));
 153:..\..\u8g2\csrc/u8x8_d_ssd1306_128x32.c ****       u8x8_cad_SendCmd(u8x8, 0x0b0 | (((u8x8_tile_t *)arg_ptr)->y_pos));
 154:..\..\u8g2\csrc/u8x8_d_ssd1306_128x32.c ****       
 155:..\..\u8g2\csrc/u8x8_d_ssd1306_128x32.c ****       do
 156:..\..\u8g2\csrc/u8x8_d_ssd1306_128x32.c ****       {
 157:..\..\u8g2\csrc/u8x8_d_ssd1306_128x32.c **** 	c = ((u8x8_tile_t *)arg_ptr)->cnt;
 158:..\..\u8g2\csrc/u8x8_d_ssd1306_128x32.c **** 	ptr = ((u8x8_tile_t *)arg_ptr)->tile_ptr;
 159:..\..\u8g2\csrc/u8x8_d_ssd1306_128x32.c **** 	u8x8_cad_SendData(u8x8, c*8, ptr); 	/* note: SendData can not handle more than 255 bytes */
 160:..\..\u8g2\csrc/u8x8_d_ssd1306_128x32.c **** 	/*
 161:..\..\u8g2\csrc/u8x8_d_ssd1306_128x32.c **** 	do
 162:..\..\u8g2\csrc/u8x8_d_ssd1306_128x32.c **** 	{
 163:..\..\u8g2\csrc/u8x8_d_ssd1306_128x32.c **** 	  u8x8_cad_SendData(u8x8, 8, ptr);
 164:..\..\u8g2\csrc/u8x8_d_ssd1306_128x32.c **** 	  ptr += 8;
 165:..\..\u8g2\csrc/u8x8_d_ssd1306_128x32.c **** 	  c--;
 166:..\..\u8g2\csrc/u8x8_d_ssd1306_128x32.c **** 	} while( c > 0 );
 167:..\..\u8g2\csrc/u8x8_d_ssd1306_128x32.c **** 	*/
 168:..\..\u8g2\csrc/u8x8_d_ssd1306_128x32.c **** 	arg_int--;
 169:..\..\u8g2\csrc/u8x8_d_ssd1306_128x32.c ****       } while( arg_int > 0 );
 170:..\..\u8g2\csrc/u8x8_d_ssd1306_128x32.c ****       
 171:..\..\u8g2\csrc/u8x8_d_ssd1306_128x32.c ****       u8x8_cad_EndTransfer(u8x8);
 172:..\..\u8g2\csrc/u8x8_d_ssd1306_128x32.c ****       break;
 173:..\..\u8g2\csrc/u8x8_d_ssd1306_128x32.c ****     default:
 174:..\..\u8g2\csrc/u8x8_d_ssd1306_128x32.c ****       return 0;
 175:..\..\u8g2\csrc/u8x8_d_ssd1306_128x32.c ****   }
 176:..\..\u8g2\csrc/u8x8_d_ssd1306_128x32.c ****   return 1;
 177:..\..\u8g2\csrc/u8x8_d_ssd1306_128x32.c **** }
 178:..\..\u8g2\csrc/u8x8_d_ssd1306_128x32.c **** 
 179:..\..\u8g2\csrc/u8x8_d_ssd1306_128x32.c **** 
 180:..\..\u8g2\csrc/u8x8_d_ssd1306_128x32.c **** static const u8x8_display_info_t u8x8_ssd1306_128x32_univision_display_info =
 181:..\..\u8g2\csrc/u8x8_d_ssd1306_128x32.c **** {
 182:..\..\u8g2\csrc/u8x8_d_ssd1306_128x32.c ****   /* chip_enable_level = */ 0,
 183:..\..\u8g2\csrc/u8x8_d_ssd1306_128x32.c ****   /* chip_disable_level = */ 1,
 184:..\..\u8g2\csrc/u8x8_d_ssd1306_128x32.c ****   
 185:..\..\u8g2\csrc/u8x8_d_ssd1306_128x32.c ****   /* post_chip_enable_wait_ns = */ 20,
 186:..\..\u8g2\csrc/u8x8_d_ssd1306_128x32.c ****   /* pre_chip_disable_wait_ns = */ 10,
 187:..\..\u8g2\csrc/u8x8_d_ssd1306_128x32.c ****   /* reset_pulse_width_ms = */ 100, 	/* SSD1306: 3 us */
 188:..\..\u8g2\csrc/u8x8_d_ssd1306_128x32.c ****   /* post_reset_wait_ms = */ 100, /* far east OLEDs need much longer setup time */
 189:..\..\u8g2\csrc/u8x8_d_ssd1306_128x32.c ****   /* sda_setup_time_ns = */ 50,		/* SSD1306: 15ns, but cycle time is 100ns, so use 100/2 */
 190:..\..\u8g2\csrc/u8x8_d_ssd1306_128x32.c ****   /* sck_pulse_width_ns = */ 50,	/* SSD1306: 20ns, but cycle time is 100ns, so use 100/2, AVR: belo
 191:..\..\u8g2\csrc/u8x8_d_ssd1306_128x32.c ****   /* sck_clock_hz = */ 4000000UL,	/* since Arduino 1.6.0, the SPI bus speed in Hz. Should be  10000
 192:..\..\u8g2\csrc/u8x8_d_ssd1306_128x32.c ****   /* spi_mode = */ 0,		/* active high, rising edge */
 193:..\..\u8g2\csrc/u8x8_d_ssd1306_128x32.c ****   /* i2c_bus_clock_100kHz = */ 4,
 194:..\..\u8g2\csrc/u8x8_d_ssd1306_128x32.c ****   /* data_setup_time_ns = */ 40,
 195:..\..\u8g2\csrc/u8x8_d_ssd1306_128x32.c ****   /* write_pulse_width_ns = */ 150,	/* SSD1306: cycle time is 300ns, so use 300/2 = 150 */
 196:..\..\u8g2\csrc/u8x8_d_ssd1306_128x32.c ****   /* tile_width = */ 16,
 197:..\..\u8g2\csrc/u8x8_d_ssd1306_128x32.c ****   /* tile_hight = */ 4,
 198:..\..\u8g2\csrc/u8x8_d_ssd1306_128x32.c ****   /* default_x_offset = */ 0,
 199:..\..\u8g2\csrc/u8x8_d_ssd1306_128x32.c ****   /* flipmode_x_offset = */ 0,
 200:..\..\u8g2\csrc/u8x8_d_ssd1306_128x32.c ****   /* pixel_width = */ 128,
 201:..\..\u8g2\csrc/u8x8_d_ssd1306_128x32.c ****   /* pixel_height = */ 32
ARM GAS  C:\Users\Alan\AppData\Local\Temp\ccq5bknE.s 			page 5


 202:..\..\u8g2\csrc/u8x8_d_ssd1306_128x32.c **** };
 203:..\..\u8g2\csrc/u8x8_d_ssd1306_128x32.c **** 
 204:..\..\u8g2\csrc/u8x8_d_ssd1306_128x32.c **** uint8_t u8x8_d_ssd1306_128x32_univision(u8x8_t *u8x8, uint8_t msg, uint8_t arg_int, void *arg_ptr)
 205:..\..\u8g2\csrc/u8x8_d_ssd1306_128x32.c **** {
  28              		.loc 1 205 0
  29              		.cfi_startproc
  30              		@ args = 0, pretend = 0, frame = 0
  31              		@ frame_needed = 0, uses_anonymous_args = 0
  32              	.LVL0:
  33 0000 F8B5     		push	{r3, r4, r5, r6, r7, lr}
  34              		.cfi_def_cfa_offset 24
  35              		.cfi_offset 3, -24
  36              		.cfi_offset 4, -20
  37              		.cfi_offset 5, -16
  38              		.cfi_offset 6, -12
  39              		.cfi_offset 7, -8
  40              		.cfi_offset 14, -4
  41              		.loc 1 205 0
  42 0002 0400     		movs	r4, r0
  43 0004 1500     		movs	r5, r2
  44 0006 1F00     		movs	r7, r3
 206:..\..\u8g2\csrc/u8x8_d_ssd1306_128x32.c ****     if ( msg == U8X8_MSG_DISPLAY_SETUP_MEMORY )
  45              		.loc 1 206 0
  46 0008 0929     		cmp	r1, #9
  47 000a 03D1     		bne	.L2
 207:..\..\u8g2\csrc/u8x8_d_ssd1306_128x32.c ****     {
 208:..\..\u8g2\csrc/u8x8_d_ssd1306_128x32.c ****       u8x8_d_helper_display_setup_memory(u8x8, &u8x8_ssd1306_128x32_univision_display_info);
  48              		.loc 1 208 0
  49 000c 3249     		ldr	r1, .L20
  50              	.LVL1:
  51 000e FFF7FEFF 		bl	u8x8_d_helper_display_setup_memory
  52              	.LVL2:
  53 0012 5DE0     		b	.L16
  54              	.LVL3:
  55              	.L2:
  56              	.LBB4:
  57              	.LBB5:
 109:..\..\u8g2\csrc/u8x8_d_ssd1306_128x32.c ****   {
  58              		.loc 1 109 0
  59 0014 0A39     		subs	r1, r1, #10
  60              	.LVL4:
  61 0016 0800     		movs	r0, r1
  62              	.LVL5:
  63 0018 0529     		cmp	r1, #5
  64 001a 5BD8     		bhi	.L13
  65 001c FFF7FEFF 		bl	__gnu_thumb1_case_uqi
  66              	.L5:
  67 0020 03       		.byte	(.L4-.L5)/2
  68 0021 09       		.byte	(.L6-.L5)/2
  69 0022 5A       		.byte	(.L13-.L5)/2
  70 0023 13       		.byte	(.L7-.L5)/2
  71 0024 25       		.byte	(.L8-.L5)/2
  72 0025 31       		.byte	(.L9-.L5)/2
  73              		.p2align 1
  74              	.L4:
 117:..\..\u8g2\csrc/u8x8_d_ssd1306_128x32.c ****       u8x8_cad_SendSequence(u8x8, u8x8_d_ssd1306_128x32_univision_init_seq);    
  75              		.loc 1 117 0
ARM GAS  C:\Users\Alan\AppData\Local\Temp\ccq5bknE.s 			page 6


  76 0026 2000     		movs	r0, r4
  77 0028 FFF7FEFF 		bl	u8x8_d_helper_display_init
  78              	.LVL6:
 118:..\..\u8g2\csrc/u8x8_d_ssd1306_128x32.c ****       break;
  79              		.loc 1 118 0
  80 002c 2A49     		ldr	r1, .L20
  81 002e 1831     		adds	r1, r1, #24
  82 0030 05E0     		b	.L17
  83              	.LVL7:
  84              	.L6:
  85 0032 2949     		ldr	r1, .L20
 121:..\..\u8g2\csrc/u8x8_d_ssd1306_128x32.c **** 	u8x8_cad_SendSequence(u8x8, u8x8_d_ssd1306_128x32_univision_powersave0_seq);
  86              		.loc 1 121 0
  87 0034 002A     		cmp	r2, #0
  88 0036 01D1     		bne	.L10
 122:..\..\u8g2\csrc/u8x8_d_ssd1306_128x32.c ****       else
  89              		.loc 1 122 0
  90 0038 4D31     		adds	r1, r1, #77
  91 003a 00E0     		b	.L17
  92              	.L10:
 124:..\..\u8g2\csrc/u8x8_d_ssd1306_128x32.c ****       break;
  93              		.loc 1 124 0
  94 003c 5231     		adds	r1, r1, #82
  95              	.LVL8:
  96              	.L17:
  97 003e 2000     		movs	r0, r4
  98 0040 FFF7FEFF 		bl	u8x8_cad_SendSequence
  99              	.LVL9:
 100 0044 44E0     		b	.L16
 101              	.LVL10:
 102              	.L7:
 103 0046 2449     		ldr	r1, .L20
 127:..\..\u8g2\csrc/u8x8_d_ssd1306_128x32.c ****       {
 104              		.loc 1 127 0
 105 0048 002A     		cmp	r2, #0
 106 004a 06D1     		bne	.L11
 129:..\..\u8g2\csrc/u8x8_d_ssd1306_128x32.c **** 	u8x8->x_offset = u8x8->display_info->default_x_offset;
 107              		.loc 1 129 0
 108 004c 5731     		adds	r1, r1, #87
 109 004e 2000     		movs	r0, r4
 110 0050 FFF7FEFF 		bl	u8x8_cad_SendSequence
 111              	.LVL11:
 130:..\..\u8g2\csrc/u8x8_d_ssd1306_128x32.c ****       }
 112              		.loc 1 130 0
 113 0054 2368     		ldr	r3, [r4]
 114 0056 9B7C     		ldrb	r3, [r3, #18]
 115 0058 05E0     		b	.L18
 116              	.LVL12:
 117              	.L11:
 134:..\..\u8g2\csrc/u8x8_d_ssd1306_128x32.c **** 	u8x8->x_offset = u8x8->display_info->flipmode_x_offset;
 118              		.loc 1 134 0
 119 005a 5E31     		adds	r1, r1, #94
 120 005c 2000     		movs	r0, r4
 121 005e FFF7FEFF 		bl	u8x8_cad_SendSequence
 122              	.LVL13:
 135:..\..\u8g2\csrc/u8x8_d_ssd1306_128x32.c ****       }
 123              		.loc 1 135 0
ARM GAS  C:\Users\Alan\AppData\Local\Temp\ccq5bknE.s 			page 7


 124 0062 2368     		ldr	r3, [r4]
 125 0064 DB7C     		ldrb	r3, [r3, #19]
 126              	.L18:
 127 0066 A377     		strb	r3, [r4, #30]
 128 0068 32E0     		b	.L16
 129              	.LVL14:
 130              	.L8:
 140:..\..\u8g2\csrc/u8x8_d_ssd1306_128x32.c ****       u8x8_cad_SendCmd(u8x8, 0x081 );
 131              		.loc 1 140 0
 132 006a 2000     		movs	r0, r4
 133 006c FFF7FEFF 		bl	u8x8_cad_StartTransfer
 134              	.LVL15:
 141:..\..\u8g2\csrc/u8x8_d_ssd1306_128x32.c ****       u8x8_cad_SendArg(u8x8, arg_int );	/* ssd1306 has range from 0 to 255 */
 135              		.loc 1 141 0
 136 0070 8121     		movs	r1, #129
 137 0072 2000     		movs	r0, r4
 138 0074 FFF7FEFF 		bl	u8x8_cad_SendCmd
 139              	.LVL16:
 142:..\..\u8g2\csrc/u8x8_d_ssd1306_128x32.c ****       u8x8_cad_EndTransfer(u8x8);
 140              		.loc 1 142 0
 141 0078 2900     		movs	r1, r5
 142 007a 2000     		movs	r0, r4
 143 007c FFF7FEFF 		bl	u8x8_cad_SendArg
 144              	.LVL17:
 145 0080 23E0     		b	.L15
 146              	.LVL18:
 147              	.L9:
 147:..\..\u8g2\csrc/u8x8_d_ssd1306_128x32.c ****       x = ((u8x8_tile_t *)arg_ptr)->x_pos;    
 148              		.loc 1 147 0
 149 0082 2000     		movs	r0, r4
 150 0084 FFF7FEFF 		bl	u8x8_cad_StartTransfer
 151              	.LVL19:
 151:..\..\u8g2\csrc/u8x8_d_ssd1306_128x32.c ****       u8x8_cad_SendCmd(u8x8, 0x000 | ((x&15)));
 152              		.loc 1 151 0
 153 0088 1021     		movs	r1, #16
 148:..\..\u8g2\csrc/u8x8_d_ssd1306_128x32.c ****       x *= 8;
 154              		.loc 1 148 0
 155 008a 7E79     		ldrb	r6, [r7, #5]
 156              	.LVL20:
 150:..\..\u8g2\csrc/u8x8_d_ssd1306_128x32.c ****       u8x8_cad_SendCmd(u8x8, 0x010 | (x>>4) );
 157              		.loc 1 150 0
 158 008c A37F     		ldrb	r3, [r4, #30]
 149:..\..\u8g2\csrc/u8x8_d_ssd1306_128x32.c ****       x += u8x8->x_offset;
 159              		.loc 1 149 0
 160 008e F600     		lsls	r6, r6, #3
 161              	.LVL21:
 150:..\..\u8g2\csrc/u8x8_d_ssd1306_128x32.c ****       u8x8_cad_SendCmd(u8x8, 0x010 | (x>>4) );
 162              		.loc 1 150 0
 163 0090 F618     		adds	r6, r6, r3
 164              	.LVL22:
 165 0092 F6B2     		uxtb	r6, r6
 166              	.LVL23:
 151:..\..\u8g2\csrc/u8x8_d_ssd1306_128x32.c ****       u8x8_cad_SendCmd(u8x8, 0x000 | ((x&15)));
 167              		.loc 1 151 0
 168 0094 3309     		lsrs	r3, r6, #4
 169 0096 1943     		orrs	r1, r3
 170 0098 2000     		movs	r0, r4
ARM GAS  C:\Users\Alan\AppData\Local\Temp\ccq5bknE.s 			page 8


 171 009a FFF7FEFF 		bl	u8x8_cad_SendCmd
 172              	.LVL24:
 152:..\..\u8g2\csrc/u8x8_d_ssd1306_128x32.c ****       u8x8_cad_SendCmd(u8x8, 0x0b0 | (((u8x8_tile_t *)arg_ptr)->y_pos));
 173              		.loc 1 152 0
 174 009e 0F21     		movs	r1, #15
 175 00a0 2000     		movs	r0, r4
 176 00a2 3140     		ands	r1, r6
 177 00a4 FFF7FEFF 		bl	u8x8_cad_SendCmd
 178              	.LVL25:
 153:..\..\u8g2\csrc/u8x8_d_ssd1306_128x32.c ****       
 179              		.loc 1 153 0
 180 00a8 B023     		movs	r3, #176
 181 00aa B979     		ldrb	r1, [r7, #6]
 182 00ac 2000     		movs	r0, r4
 183 00ae 1943     		orrs	r1, r3
 184 00b0 FFF7FEFF 		bl	u8x8_cad_SendCmd
 185              	.LVL26:
 186              	.L12:
 159:..\..\u8g2\csrc/u8x8_d_ssd1306_128x32.c **** 	/*
 187              		.loc 1 159 0
 188 00b4 3979     		ldrb	r1, [r7, #4]
 168:..\..\u8g2\csrc/u8x8_d_ssd1306_128x32.c ****       } while( arg_int > 0 );
 189              		.loc 1 168 0
 190 00b6 013D     		subs	r5, r5, #1
 191              	.LVL27:
 159:..\..\u8g2\csrc/u8x8_d_ssd1306_128x32.c **** 	/*
 192              		.loc 1 159 0
 193 00b8 C900     		lsls	r1, r1, #3
 194 00ba C9B2     		uxtb	r1, r1
 195 00bc 3A68     		ldr	r2, [r7]
 196 00be 2000     		movs	r0, r4
 168:..\..\u8g2\csrc/u8x8_d_ssd1306_128x32.c ****       } while( arg_int > 0 );
 197              		.loc 1 168 0
 198 00c0 EDB2     		uxtb	r5, r5
 159:..\..\u8g2\csrc/u8x8_d_ssd1306_128x32.c **** 	/*
 199              		.loc 1 159 0
 200 00c2 FFF7FEFF 		bl	u8x8_cad_SendData
 201              	.LVL28:
 169:..\..\u8g2\csrc/u8x8_d_ssd1306_128x32.c ****       
 202              		.loc 1 169 0
 203 00c6 002D     		cmp	r5, #0
 204 00c8 F4D1     		bne	.L12
 205              	.LVL29:
 206              	.L15:
 171:..\..\u8g2\csrc/u8x8_d_ssd1306_128x32.c ****       break;
 207              		.loc 1 171 0
 208 00ca 2000     		movs	r0, r4
 209 00cc FFF7FEFF 		bl	u8x8_cad_EndTransfer
 210              	.LVL30:
 211              	.L16:
 176:..\..\u8g2\csrc/u8x8_d_ssd1306_128x32.c **** }
 212              		.loc 1 176 0
 213 00d0 0120     		movs	r0, #1
 214 00d2 00E0     		b	.L3
 215              	.LVL31:
 216              	.L13:
 174:..\..\u8g2\csrc/u8x8_d_ssd1306_128x32.c ****   }
ARM GAS  C:\Users\Alan\AppData\Local\Temp\ccq5bknE.s 			page 9


 217              		.loc 1 174 0
 218 00d4 0020     		movs	r0, #0
 219              	.LVL32:
 220              	.L3:
 221              	.LBE5:
 222              	.LBE4:
 209:..\..\u8g2\csrc/u8x8_d_ssd1306_128x32.c ****       return 1;
 210:..\..\u8g2\csrc/u8x8_d_ssd1306_128x32.c ****     }
 211:..\..\u8g2\csrc/u8x8_d_ssd1306_128x32.c ****     return u8x8_d_ssd1306_128x32_generic(u8x8, msg, arg_int, arg_ptr);
 212:..\..\u8g2\csrc/u8x8_d_ssd1306_128x32.c **** }
 223              		.loc 1 212 0
 224              		@ sp needed
 225              	.LVL33:
 226              	.LVL34:
 227 00d6 F8BD     		pop	{r3, r4, r5, r6, r7, pc}
 228              	.L21:
 229              		.align	2
 230              	.L20:
 231 00d8 00000000 		.word	.LANCHOR0
 232              		.cfi_endproc
 233              	.LFE1:
 234              		.size	u8x8_d_ssd1306_128x32_univision, .-u8x8_d_ssd1306_128x32_univision
 235              		.section	.rodata
 236              		.align	2
 237              		.set	.LANCHOR0,. + 0
 238              		.type	u8x8_ssd1306_128x32_univision_display_info, %object
 239              		.size	u8x8_ssd1306_128x32_univision_display_info, 24
 240              	u8x8_ssd1306_128x32_univision_display_info:
 241 0000 00       		.byte	0
 242 0001 01       		.byte	1
 243 0002 14       		.byte	20
 244 0003 0A       		.byte	10
 245 0004 64       		.byte	100
 246 0005 64       		.byte	100
 247 0006 32       		.byte	50
 248 0007 32       		.byte	50
 249 0008 00093D00 		.word	4000000
 250 000c 00       		.byte	0
 251 000d 04       		.byte	4
 252 000e 28       		.byte	40
 253 000f 96       		.byte	-106
 254 0010 10       		.byte	16
 255 0011 04       		.byte	4
 256 0012 00       		.byte	0
 257 0013 00       		.byte	0
 258 0014 8000     		.short	128
 259 0016 2000     		.short	32
 260              		.type	u8x8_d_ssd1306_128x32_univision_init_seq, %object
 261              		.size	u8x8_d_ssd1306_128x32_univision_init_seq, 53
 262              	u8x8_d_ssd1306_128x32_univision_init_seq:
 263 0018 18       		.byte	24
 264 0019 15       		.byte	21
 265 001a AE       		.byte	-82
 266 001b 15       		.byte	21
 267 001c D5       		.byte	-43
 268 001d 16       		.byte	22
 269 001e 80       		.byte	-128
ARM GAS  C:\Users\Alan\AppData\Local\Temp\ccq5bknE.s 			page 10


 270 001f 15       		.byte	21
 271 0020 A8       		.byte	-88
 272 0021 16       		.byte	22
 273 0022 1F       		.byte	31
 274 0023 15       		.byte	21
 275 0024 D3       		.byte	-45
 276 0025 16       		.byte	22
 277 0026 00       		.byte	0
 278 0027 15       		.byte	21
 279 0028 40       		.byte	64
 280 0029 15       		.byte	21
 281 002a 8D       		.byte	-115
 282 002b 16       		.byte	22
 283 002c 14       		.byte	20
 284 002d 15       		.byte	21
 285 002e 20       		.byte	32
 286 002f 16       		.byte	22
 287 0030 00       		.byte	0
 288 0031 15       		.byte	21
 289 0032 A1       		.byte	-95
 290 0033 15       		.byte	21
 291 0034 C8       		.byte	-56
 292 0035 15       		.byte	21
 293 0036 DA       		.byte	-38
 294 0037 16       		.byte	22
 295 0038 02       		.byte	2
 296 0039 15       		.byte	21
 297 003a 81       		.byte	-127
 298 003b 16       		.byte	22
 299 003c 8F       		.byte	-113
 300 003d 15       		.byte	21
 301 003e D9       		.byte	-39
 302 003f 16       		.byte	22
 303 0040 F1       		.byte	-15
 304 0041 15       		.byte	21
 305 0042 DB       		.byte	-37
 306 0043 16       		.byte	22
 307 0044 40       		.byte	64
 308 0045 15       		.byte	21
 309 0046 2E       		.byte	46
 310 0047 15       		.byte	21
 311 0048 A4       		.byte	-92
 312 0049 15       		.byte	21
 313 004a A6       		.byte	-90
 314 004b 19       		.byte	25
 315 004c FF       		.byte	-1
 316              		.type	u8x8_d_ssd1306_128x32_univision_powersave0_seq, %object
 317              		.size	u8x8_d_ssd1306_128x32_univision_powersave0_seq, 5
 318              	u8x8_d_ssd1306_128x32_univision_powersave0_seq:
 319 004d 18       		.byte	24
 320 004e 15       		.byte	21
 321 004f AF       		.byte	-81
 322 0050 19       		.byte	25
 323 0051 FF       		.byte	-1
 324              		.type	u8x8_d_ssd1306_128x32_univision_powersave1_seq, %object
 325              		.size	u8x8_d_ssd1306_128x32_univision_powersave1_seq, 5
 326              	u8x8_d_ssd1306_128x32_univision_powersave1_seq:
ARM GAS  C:\Users\Alan\AppData\Local\Temp\ccq5bknE.s 			page 11


 327 0052 18       		.byte	24
 328 0053 15       		.byte	21
 329 0054 AE       		.byte	-82
 330 0055 19       		.byte	25
 331 0056 FF       		.byte	-1
 332              		.type	u8x8_d_ssd1306_128x32_univision_flip0_seq, %object
 333              		.size	u8x8_d_ssd1306_128x32_univision_flip0_seq, 7
 334              	u8x8_d_ssd1306_128x32_univision_flip0_seq:
 335 0057 18       		.byte	24
 336 0058 15       		.byte	21
 337 0059 A1       		.byte	-95
 338 005a 15       		.byte	21
 339 005b C8       		.byte	-56
 340 005c 19       		.byte	25
 341 005d FF       		.byte	-1
 342              		.type	u8x8_d_ssd1306_128x32_univision_flip1_seq, %object
 343              		.size	u8x8_d_ssd1306_128x32_univision_flip1_seq, 7
 344              	u8x8_d_ssd1306_128x32_univision_flip1_seq:
 345 005e 18       		.byte	24
 346 005f 15       		.byte	21
 347 0060 A0       		.byte	-96
 348 0061 15       		.byte	21
 349 0062 C0       		.byte	-64
 350 0063 19       		.byte	25
 351 0064 FF       		.byte	-1
 352              		.text
 353              	.Letext0:
 354              		.file 2 "c:\\program files (x86)\\cypress\\psoc creator\\4.1\\psoc creator\\import\\gnu\\arm\\5.4.
 355              		.file 3 "c:\\program files (x86)\\cypress\\psoc creator\\4.1\\psoc creator\\import\\gnu\\arm\\5.4.
 356              		.file 4 "..\\..\\u8g2\\csrc\\u8x8.h"