ARM GAS  C:\Users\Greg\AppData\Local\Temp\ccuTdaWR.s 			page 1


   1              		.syntax unified
   2              		.cpu cortex-m0
   3              		.fpu softvfp
   4              		.eabi_attribute 20, 1
   5              		.eabi_attribute 21, 1
   6              		.eabi_attribute 23, 3
   7              		.eabi_attribute 24, 1
   8              		.eabi_attribute 25, 1
   9              		.eabi_attribute 26, 1
  10              		.eabi_attribute 30, 4
  11              		.eabi_attribute 34, 0
  12              		.eabi_attribute 18, 4
  13              		.thumb
  14              		.syntax unified
  15              		.file	"u8x8_d_stdio.c"
  16              		.text
  17              	.Ltext0:
  18              		.cfi_sections	.debug_frame
  19              		.section	.text.bitmap_place_tile,"ax",%progbits
  20              		.align	1
  21              		.global	bitmap_place_tile
  22              		.code	16
  23              		.thumb_func
  24              		.type	bitmap_place_tile, %function
  25              	bitmap_place_tile:
  26              	.LFB1:
  27              		.file 1 "..\\..\\u8g2\\csrc\\u8x8_d_stdio.c"
   1:..\..\u8g2\csrc/u8x8_d_stdio.c **** /*
   2:..\..\u8g2\csrc/u8x8_d_stdio.c **** 
   3:..\..\u8g2\csrc/u8x8_d_stdio.c ****   u8x8_d_stdio.c
   4:..\..\u8g2\csrc/u8x8_d_stdio.c **** 
   5:..\..\u8g2\csrc/u8x8_d_stdio.c ****   Universal 8bit Graphics Library (https://github.com/olikraus/u8g2/)
   6:..\..\u8g2\csrc/u8x8_d_stdio.c **** 
   7:..\..\u8g2\csrc/u8x8_d_stdio.c ****   Copyright (c) 2016, olikraus@gmail.com
   8:..\..\u8g2\csrc/u8x8_d_stdio.c ****   All rights reserved.
   9:..\..\u8g2\csrc/u8x8_d_stdio.c **** 
  10:..\..\u8g2\csrc/u8x8_d_stdio.c ****   Redistribution and use in source and binary forms, with or without modification, 
  11:..\..\u8g2\csrc/u8x8_d_stdio.c ****   are permitted provided that the following conditions are met:
  12:..\..\u8g2\csrc/u8x8_d_stdio.c **** 
  13:..\..\u8g2\csrc/u8x8_d_stdio.c ****   * Redistributions of source code must retain the above copyright notice, this list 
  14:..\..\u8g2\csrc/u8x8_d_stdio.c ****     of conditions and the following disclaimer.
  15:..\..\u8g2\csrc/u8x8_d_stdio.c ****     
  16:..\..\u8g2\csrc/u8x8_d_stdio.c ****   * Redistributions in binary form must reproduce the above copyright notice, this 
  17:..\..\u8g2\csrc/u8x8_d_stdio.c ****     list of conditions and the following disclaimer in the documentation and/or other 
  18:..\..\u8g2\csrc/u8x8_d_stdio.c ****     materials provided with the distribution.
  19:..\..\u8g2\csrc/u8x8_d_stdio.c **** 
  20:..\..\u8g2\csrc/u8x8_d_stdio.c ****   THIS SOFTWARE IS PROVIDED BY THE COPYRIGHT HOLDERS AND 
  21:..\..\u8g2\csrc/u8x8_d_stdio.c ****   CONTRIBUTORS "AS IS" AND ANY EXPRESS OR IMPLIED WARRANTIES, 
  22:..\..\u8g2\csrc/u8x8_d_stdio.c ****   INCLUDING, BUT NOT LIMITED TO, THE IMPLIED WARRANTIES OF 
  23:..\..\u8g2\csrc/u8x8_d_stdio.c ****   MERCHANTABILITY AND FITNESS FOR A PARTICULAR PURPOSE ARE 
  24:..\..\u8g2\csrc/u8x8_d_stdio.c ****   DISCLAIMED. IN NO EVENT SHALL THE COPYRIGHT HOLDER OR 
  25:..\..\u8g2\csrc/u8x8_d_stdio.c ****   CONTRIBUTORS BE LIABLE FOR ANY DIRECT, INDIRECT, INCIDENTAL, 
  26:..\..\u8g2\csrc/u8x8_d_stdio.c ****   SPECIAL, EXEMPLARY, OR CONSEQUENTIAL DAMAGES (INCLUDING, BUT 
  27:..\..\u8g2\csrc/u8x8_d_stdio.c ****   NOT LIMITED TO, PROCUREMENT OF SUBSTITUTE GOODS OR SERVICES; 
  28:..\..\u8g2\csrc/u8x8_d_stdio.c ****   LOSS OF USE, DATA, OR PROFITS; OR BUSINESS INTERRUPTION) HOWEVER 
  29:..\..\u8g2\csrc/u8x8_d_stdio.c ****   CAUSED AND ON ANY THEORY OF LIABILITY, WHETHER IN CONTRACT, 
  30:..\..\u8g2\csrc/u8x8_d_stdio.c ****   STRICT LIABILITY, OR TORT (INCLUDING NEGLIGENCE OR OTHERWISE) 
ARM GAS  C:\Users\Greg\AppData\Local\Temp\ccuTdaWR.s 			page 2


  31:..\..\u8g2\csrc/u8x8_d_stdio.c ****   ARISING IN ANY WAY OUT OF THE USE OF THIS SOFTWARE, EVEN IF 
  32:..\..\u8g2\csrc/u8x8_d_stdio.c ****   ADVISED OF THE POSSIBILITY OF SUCH DAMAGE.  
  33:..\..\u8g2\csrc/u8x8_d_stdio.c **** 
  34:..\..\u8g2\csrc/u8x8_d_stdio.c **** */
  35:..\..\u8g2\csrc/u8x8_d_stdio.c **** 
  36:..\..\u8g2\csrc/u8x8_d_stdio.c **** #include "u8x8.h"
  37:..\..\u8g2\csrc/u8x8_d_stdio.c **** 
  38:..\..\u8g2\csrc/u8x8_d_stdio.c **** #include <stdio.h>
  39:..\..\u8g2\csrc/u8x8_d_stdio.c **** 
  40:..\..\u8g2\csrc/u8x8_d_stdio.c **** #define W 8
  41:..\..\u8g2\csrc/u8x8_d_stdio.c **** #define H 2
  42:..\..\u8g2\csrc/u8x8_d_stdio.c **** 
  43:..\..\u8g2\csrc/u8x8_d_stdio.c **** uint8_t bitmap[W*H*8];
  44:..\..\u8g2\csrc/u8x8_d_stdio.c **** 
  45:..\..\u8g2\csrc/u8x8_d_stdio.c **** void bitmap_place_tile(uint8_t x, uint8_t y, uint8_t *tile)
  46:..\..\u8g2\csrc/u8x8_d_stdio.c **** {
  28              		.loc 1 46 0
  29              		.cfi_startproc
  30              		@ args = 0, pretend = 0, frame = 0
  31              		@ frame_needed = 0, uses_anonymous_args = 0
  32              	.LVL0:
  47:..\..\u8g2\csrc/u8x8_d_stdio.c ****   uint8_t i;
  48:..\..\u8g2\csrc/u8x8_d_stdio.c ****   for(i = 0; i < 8; i++ )
  49:..\..\u8g2\csrc/u8x8_d_stdio.c ****     bitmap[x*8+y*W*8+i] = tile[i];
  33              		.loc 1 49 0
  34 0000 0023     		movs	r3, #0
  35 0002 C900     		lsls	r1, r1, #3
  36              	.LVL1:
  46:..\..\u8g2\csrc/u8x8_d_stdio.c ****   uint8_t i;
  37              		.loc 1 46 0
  38 0004 30B5     		push	{r4, r5, lr}
  39              		.cfi_def_cfa_offset 12
  40              		.cfi_offset 4, -12
  41              		.cfi_offset 5, -8
  42              		.cfi_offset 14, -4
  43              		.loc 1 49 0
  44 0006 0818     		adds	r0, r1, r0
  45              	.LVL2:
  46 0008 044D     		ldr	r5, .L5
  47 000a C000     		lsls	r0, r0, #3
  48              	.LVL3:
  49              	.L2:
  50              		.loc 1 49 0 is_stmt 0 discriminator 3
  51 000c D45C     		ldrb	r4, [r2, r3]
  52 000e 4119     		adds	r1, r0, r5
  53 0010 CC54     		strb	r4, [r1, r3]
  54              	.LVL4:
  55 0012 0133     		adds	r3, r3, #1
  56              	.LVL5:
  48:..\..\u8g2\csrc/u8x8_d_stdio.c ****     bitmap[x*8+y*W*8+i] = tile[i];
  57              		.loc 1 48 0 is_stmt 1 discriminator 3
  58 0014 082B     		cmp	r3, #8
  59 0016 F9D1     		bne	.L2
  50:..\..\u8g2\csrc/u8x8_d_stdio.c **** }
  60              		.loc 1 50 0
  61              		@ sp needed
  62 0018 30BD     		pop	{r4, r5, pc}
ARM GAS  C:\Users\Greg\AppData\Local\Temp\ccuTdaWR.s 			page 3


  63              	.L6:
  64 001a C046     		.align	2
  65              	.L5:
  66 001c 00000000 		.word	bitmap
  67              		.cfi_endproc
  68              	.LFE1:
  69              		.size	bitmap_place_tile, .-bitmap_place_tile
  70              		.section	.text.bitmap_show,"ax",%progbits
  71              		.align	1
  72              		.global	bitmap_show
  73              		.code	16
  74              		.thumb_func
  75              		.type	bitmap_show, %function
  76              	bitmap_show:
  77              	.LFB2:
  51:..\..\u8g2\csrc/u8x8_d_stdio.c **** 
  52:..\..\u8g2\csrc/u8x8_d_stdio.c **** void bitmap_show(void)
  53:..\..\u8g2\csrc/u8x8_d_stdio.c **** {
  78              		.loc 1 53 0
  79              		.cfi_startproc
  80              		@ args = 0, pretend = 0, frame = 8
  81              		@ frame_needed = 0, uses_anonymous_args = 0
  82              	.LVL6:
  83 0000 F7B5     		push	{r0, r1, r2, r4, r5, r6, r7, lr}
  84              		.cfi_def_cfa_offset 32
  85              		.cfi_offset 0, -32
  86              		.cfi_offset 1, -28
  87              		.cfi_offset 2, -24
  88              		.cfi_offset 4, -20
  89              		.cfi_offset 5, -16
  90              		.cfi_offset 6, -12
  91              		.cfi_offset 7, -8
  92              		.cfi_offset 14, -4
  54:..\..\u8g2\csrc/u8x8_d_stdio.c ****   int x, y;
  55:..\..\u8g2\csrc/u8x8_d_stdio.c ****   for( y = 0; y < H*8; y++ )
  93              		.loc 1 55 0
  94 0002 0024     		movs	r4, #0
  95 0004 0727     		movs	r7, #7
  96              	.LVL7:
  97              	.L8:
  98 0006 2300     		movs	r3, r4
  99 0008 0122     		movs	r2, #1
 100 000a 3B40     		ands	r3, r7
 101 000c 9A40     		lsls	r2, r2, r3
  56:..\..\u8g2\csrc/u8x8_d_stdio.c ****   {
  57:..\..\u8g2\csrc/u8x8_d_stdio.c ****     for( x = 0; x < W*8; x++ )
  58:..\..\u8g2\csrc/u8x8_d_stdio.c ****     {
  59:..\..\u8g2\csrc/u8x8_d_stdio.c ****       if ( (bitmap[x+(y/8)*W*8] & (1<<((y&7)))) != 0 )
 102              		.loc 1 59 0
 103 000e 0025     		movs	r5, #0
 104 0010 E610     		asrs	r6, r4, #3
 105 0012 B601     		lsls	r6, r6, #6
 106 0014 0192     		str	r2, [sp, #4]
 107              	.LVL8:
 108              	.L11:
 109 0016 0A4B     		ldr	r3, .L15
 110 0018 019A     		ldr	r2, [sp, #4]
ARM GAS  C:\Users\Greg\AppData\Local\Temp\ccuTdaWR.s 			page 4


 111 001a F318     		adds	r3, r6, r3
 112 001c 5B5D     		ldrb	r3, [r3, r5]
  60:..\..\u8g2\csrc/u8x8_d_stdio.c ****       {
  61:..\..\u8g2\csrc/u8x8_d_stdio.c **** 	printf("*");
 113              		.loc 1 61 0
 114 001e 2A20     		movs	r0, #42
  59:..\..\u8g2\csrc/u8x8_d_stdio.c ****       {
 115              		.loc 1 59 0
 116 0020 1A42     		tst	r2, r3
 117 0022 00D1     		bne	.L14
  62:..\..\u8g2\csrc/u8x8_d_stdio.c ****       }
  63:..\..\u8g2\csrc/u8x8_d_stdio.c ****       else
  64:..\..\u8g2\csrc/u8x8_d_stdio.c ****       {
  65:..\..\u8g2\csrc/u8x8_d_stdio.c **** 	printf(".");
 118              		.loc 1 65 0
 119 0024 2E20     		movs	r0, #46
 120              	.L14:
  57:..\..\u8g2\csrc/u8x8_d_stdio.c ****     {
 121              		.loc 1 57 0
 122 0026 0135     		adds	r5, r5, #1
 123              	.LVL9:
 124              		.loc 1 65 0
 125 0028 FFF7FEFF 		bl	putchar
 126              	.LVL10:
  57:..\..\u8g2\csrc/u8x8_d_stdio.c ****     {
 127              		.loc 1 57 0
 128 002c 402D     		cmp	r5, #64
 129 002e F2D1     		bne	.L11
  66:..\..\u8g2\csrc/u8x8_d_stdio.c ****       }
  67:..\..\u8g2\csrc/u8x8_d_stdio.c ****     }
  68:..\..\u8g2\csrc/u8x8_d_stdio.c ****     printf("\n");
 130              		.loc 1 68 0 discriminator 2
 131 0030 0A20     		movs	r0, #10
  55:..\..\u8g2\csrc/u8x8_d_stdio.c ****   {
 132              		.loc 1 55 0 discriminator 2
 133 0032 0134     		adds	r4, r4, #1
 134              	.LVL11:
 135              		.loc 1 68 0 discriminator 2
 136 0034 FFF7FEFF 		bl	putchar
 137              	.LVL12:
  55:..\..\u8g2\csrc/u8x8_d_stdio.c ****   {
 138              		.loc 1 55 0 discriminator 2
 139 0038 102C     		cmp	r4, #16
 140 003a E4D1     		bne	.L8
  69:..\..\u8g2\csrc/u8x8_d_stdio.c ****   }
  70:..\..\u8g2\csrc/u8x8_d_stdio.c **** }
 141              		.loc 1 70 0
 142              		@ sp needed
 143              	.LVL13:
 144              	.LVL14:
 145 003c F7BD     		pop	{r0, r1, r2, r4, r5, r6, r7, pc}
 146              	.L16:
 147 003e C046     		.align	2
 148              	.L15:
 149 0040 00000000 		.word	bitmap
 150              		.cfi_endproc
 151              	.LFE2:
ARM GAS  C:\Users\Greg\AppData\Local\Temp\ccuTdaWR.s 			page 5


 152              		.size	bitmap_show, .-bitmap_show
 153              		.section	.text.u8x8_d_stdio,"ax",%progbits
 154              		.align	1
 155              		.global	u8x8_d_stdio
 156              		.code	16
 157              		.thumb_func
 158              		.type	u8x8_d_stdio, %function
 159              	u8x8_d_stdio:
 160              	.LFB3:
  71:..\..\u8g2\csrc/u8x8_d_stdio.c **** 
  72:..\..\u8g2\csrc/u8x8_d_stdio.c **** 
  73:..\..\u8g2\csrc/u8x8_d_stdio.c **** uint8_t u8x8_d_stdio(U8X8_UNUSED u8x8_t *u8x8, uint8_t msg, uint8_t arg_int, void *arg_ptr)
  74:..\..\u8g2\csrc/u8x8_d_stdio.c **** {
 161              		.loc 1 74 0
 162              		.cfi_startproc
 163              		@ args = 0, pretend = 0, frame = 0
 164              		@ frame_needed = 0, uses_anonymous_args = 0
 165              	.LVL15:
 166 0000 10B5     		push	{r4, lr}
 167              		.cfi_def_cfa_offset 8
 168              		.cfi_offset 4, -8
 169              		.cfi_offset 14, -4
  75:..\..\u8g2\csrc/u8x8_d_stdio.c ****   switch(msg)
 170              		.loc 1 75 0
 171 0002 0B29     		cmp	r1, #11
 172 0004 07D0     		beq	.L19
 173 0006 0F29     		cmp	r1, #15
 174 0008 09D1     		bne	.L18
 175              	.LVL16:
 176              	.LBB4:
 177              	.LBB5:
  76:..\..\u8g2\csrc/u8x8_d_stdio.c ****   {
  77:..\..\u8g2\csrc/u8x8_d_stdio.c ****     case U8X8_MSG_DISPLAY_INIT:
  78:..\..\u8g2\csrc/u8x8_d_stdio.c ****       break;
  79:..\..\u8g2\csrc/u8x8_d_stdio.c ****     case U8X8_MSG_DISPLAY_SET_POWER_SAVE:
  80:..\..\u8g2\csrc/u8x8_d_stdio.c ****       if ( arg_int == 0 )
  81:..\..\u8g2\csrc/u8x8_d_stdio.c **** 	bitmap_show();
  82:..\..\u8g2\csrc/u8x8_d_stdio.c ****       break;
  83:..\..\u8g2\csrc/u8x8_d_stdio.c ****     case U8X8_MSG_DISPLAY_SET_CONTRAST:
  84:..\..\u8g2\csrc/u8x8_d_stdio.c ****       break;
  85:..\..\u8g2\csrc/u8x8_d_stdio.c ****     case U8X8_MSG_DISPLAY_DRAW_TILE:      
  86:..\..\u8g2\csrc/u8x8_d_stdio.c ****       bitmap_place_tile(((u8x8_tile_t *)arg_ptr)->x_pos, ((u8x8_tile_t *)arg_ptr)->y_pos, ((u8x8_ti
 178              		.loc 1 86 0
 179 000a 9979     		ldrb	r1, [r3, #6]
 180              	.LVL17:
 181 000c 5879     		ldrb	r0, [r3, #5]
 182              	.LVL18:
 183 000e 1A68     		ldr	r2, [r3]
 184              	.LVL19:
 185 0010 FFF7FEFF 		bl	bitmap_place_tile
 186              	.LVL20:
 187 0014 03E0     		b	.L18
 188              	.LVL21:
 189              	.L19:
 190              	.LBE5:
 191              	.LBE4:
  80:..\..\u8g2\csrc/u8x8_d_stdio.c **** 	bitmap_show();
ARM GAS  C:\Users\Greg\AppData\Local\Temp\ccuTdaWR.s 			page 6


 192              		.loc 1 80 0
 193 0016 002A     		cmp	r2, #0
 194 0018 01D1     		bne	.L18
  81:..\..\u8g2\csrc/u8x8_d_stdio.c ****       break;
 195              		.loc 1 81 0
 196 001a FFF7FEFF 		bl	bitmap_show
 197              	.LVL22:
 198              	.L18:
  87:..\..\u8g2\csrc/u8x8_d_stdio.c ****       break;
  88:..\..\u8g2\csrc/u8x8_d_stdio.c ****     default:
  89:..\..\u8g2\csrc/u8x8_d_stdio.c ****       break;
  90:..\..\u8g2\csrc/u8x8_d_stdio.c ****   }
  91:..\..\u8g2\csrc/u8x8_d_stdio.c ****   return 1;
  92:..\..\u8g2\csrc/u8x8_d_stdio.c **** }
 199              		.loc 1 92 0
 200 001e 0120     		movs	r0, #1
 201              		@ sp needed
 202 0020 10BD     		pop	{r4, pc}
 203              		.cfi_endproc
 204              	.LFE3:
 205              		.size	u8x8_d_stdio, .-u8x8_d_stdio
 206              		.section	.text.u8x8_SetupStdio,"ax",%progbits
 207              		.align	1
 208              		.global	u8x8_SetupStdio
 209              		.code	16
 210              		.thumb_func
 211              		.type	u8x8_SetupStdio, %function
 212              	u8x8_SetupStdio:
 213              	.LFB4:
  93:..\..\u8g2\csrc/u8x8_d_stdio.c **** 
  94:..\..\u8g2\csrc/u8x8_d_stdio.c **** 
  95:..\..\u8g2\csrc/u8x8_d_stdio.c **** 
  96:..\..\u8g2\csrc/u8x8_d_stdio.c **** void u8x8_SetupStdio(u8x8_t *u8x8)
  97:..\..\u8g2\csrc/u8x8_d_stdio.c **** {
 214              		.loc 1 97 0
 215              		.cfi_startproc
 216              		@ args = 0, pretend = 0, frame = 0
 217              		@ frame_needed = 0, uses_anonymous_args = 0
 218              	.LVL23:
 219 0000 10B5     		push	{r4, lr}
 220              		.cfi_def_cfa_offset 8
 221              		.cfi_offset 4, -8
 222              		.cfi_offset 14, -4
 223              		.loc 1 97 0
 224 0002 0400     		movs	r4, r0
  98:..\..\u8g2\csrc/u8x8_d_stdio.c ****   u8x8_SetupDefaults(u8x8);
 225              		.loc 1 98 0
 226 0004 FFF7FEFF 		bl	u8x8_SetupDefaults
 227              	.LVL24:
  99:..\..\u8g2\csrc/u8x8_d_stdio.c ****   u8x8->display_cb = u8x8_d_stdio;
 228              		.loc 1 99 0
 229 0008 014B     		ldr	r3, .L22
 100:..\..\u8g2\csrc/u8x8_d_stdio.c **** }
 230              		.loc 1 100 0
 231              		@ sp needed
  99:..\..\u8g2\csrc/u8x8_d_stdio.c ****   u8x8->display_cb = u8x8_d_stdio;
 232              		.loc 1 99 0
ARM GAS  C:\Users\Greg\AppData\Local\Temp\ccuTdaWR.s 			page 7


 233 000a A360     		str	r3, [r4, #8]
 234              	.LVL25:
 235              		.loc 1 100 0
 236 000c 10BD     		pop	{r4, pc}
 237              	.L23:
 238 000e C046     		.align	2
 239              	.L22:
 240 0010 00000000 		.word	u8x8_d_stdio
 241              		.cfi_endproc
 242              	.LFE4:
 243              		.size	u8x8_SetupStdio, .-u8x8_SetupStdio
 244              		.comm	bitmap,128,1
 245              		.text
 246              	.Letext0:
 247              		.file 2 "c:\\program files\\cypress\\psoc creator\\4.1\\psoc creator\\import\\gnu\\arm\\5.4.1\\arm
 248              		.file 3 "c:\\program files\\cypress\\psoc creator\\4.1\\psoc creator\\import\\gnu\\arm\\5.4.1\\arm
 249              		.file 4 "..\\..\\u8g2\\csrc\\u8x8.h"
 250              		.file 5 "<built-in>"