ARM GAS  C:\Users\gjl\AppData\Local\Temp\ccje152T.s 			page 1


   1              		.syntax unified
   2              		.cpu cortex-m0
   3              		.fpu softvfp
   4              		.eabi_attribute 20, 1
   5              		.eabi_attribute 21, 1
   6              		.eabi_attribute 23, 3
   7              		.eabi_attribute 24, 1
   8              		.eabi_attribute 25, 1
   9              		.eabi_attribute 26, 1
  10              		.eabi_attribute 30, 4
  11              		.eabi_attribute 34, 0
  12              		.eabi_attribute 18, 4
  13              		.thumb
  14              		.syntax unified
  15              		.file	"u8x8_d_ist3020.c"
  16              		.text
  17              	.Ltext0:
  18              		.cfi_sections	.debug_frame
  19              		.section	.text.u8x8_d_ist3020_erc19264,"ax",%progbits
  20              		.align	1
  21              		.global	u8x8_d_ist3020_erc19264
  22              		.code	16
  23              		.thumb_func
  24              		.type	u8x8_d_ist3020_erc19264, %function
  25              	u8x8_d_ist3020_erc19264:
  26              	.LFB0:
  27              		.file 1 "..\\..\\u8g2\\csrc\\u8x8_d_ist3020.c"
   1:..\..\u8g2\csrc/u8x8_d_ist3020.c **** /*
   2:..\..\u8g2\csrc/u8x8_d_ist3020.c **** 
   3:..\..\u8g2\csrc/u8x8_d_ist3020.c ****   u8x8_d_ist3020.c
   4:..\..\u8g2\csrc/u8x8_d_ist3020.c ****   
   5:..\..\u8g2\csrc/u8x8_d_ist3020.c ****   Universal 8bit Graphics Library (https://github.com/olikraus/u8g2/)
   6:..\..\u8g2\csrc/u8x8_d_ist3020.c **** 
   7:..\..\u8g2\csrc/u8x8_d_ist3020.c ****   Copyright (c) 2017, olikraus@gmail.com
   8:..\..\u8g2\csrc/u8x8_d_ist3020.c ****   All rights reserved.
   9:..\..\u8g2\csrc/u8x8_d_ist3020.c **** 
  10:..\..\u8g2\csrc/u8x8_d_ist3020.c ****   Redistribution and use in source and binary forms, with or without modification, 
  11:..\..\u8g2\csrc/u8x8_d_ist3020.c ****   are permitted provided that the following conditions are met:
  12:..\..\u8g2\csrc/u8x8_d_ist3020.c **** 
  13:..\..\u8g2\csrc/u8x8_d_ist3020.c ****   * Redistributions of source code must retain the above copyright notice, this list 
  14:..\..\u8g2\csrc/u8x8_d_ist3020.c ****     of conditions and the following disclaimer.
  15:..\..\u8g2\csrc/u8x8_d_ist3020.c ****     
  16:..\..\u8g2\csrc/u8x8_d_ist3020.c ****   * Redistributions in binary form must reproduce the above copyright notice, this 
  17:..\..\u8g2\csrc/u8x8_d_ist3020.c ****     list of conditions and the following disclaimer in the documentation and/or other 
  18:..\..\u8g2\csrc/u8x8_d_ist3020.c ****     materials provided with the distribution.
  19:..\..\u8g2\csrc/u8x8_d_ist3020.c **** 
  20:..\..\u8g2\csrc/u8x8_d_ist3020.c ****   THIS SOFTWARE IS PROVIDED BY THE COPYRIGHT HOLDERS AND 
  21:..\..\u8g2\csrc/u8x8_d_ist3020.c ****   CONTRIBUTORS "AS IS" AND ANY EXPRESS OR IMPLIED WARRANTIES, 
  22:..\..\u8g2\csrc/u8x8_d_ist3020.c ****   INCLUDING, BUT NOT LIMITED TO, THE IMPLIED WARRANTIES OF 
  23:..\..\u8g2\csrc/u8x8_d_ist3020.c ****   MERCHANTABILITY AND FITNESS FOR A PARTICULAR PURPOSE ARE 
  24:..\..\u8g2\csrc/u8x8_d_ist3020.c ****   DISCLAIMED. IN NO EVENT SHALL THE COPYRIGHT HOLDER OR 
  25:..\..\u8g2\csrc/u8x8_d_ist3020.c ****   CONTRIBUTORS BE LIABLE FOR ANY DIRECT, INDIRECT, INCIDENTAL, 
  26:..\..\u8g2\csrc/u8x8_d_ist3020.c ****   SPECIAL, EXEMPLARY, OR CONSEQUENTIAL DAMAGES (INCLUDING, BUT 
  27:..\..\u8g2\csrc/u8x8_d_ist3020.c ****   NOT LIMITED TO, PROCUREMENT OF SUBSTITUTE GOODS OR SERVICES; 
  28:..\..\u8g2\csrc/u8x8_d_ist3020.c ****   LOSS OF USE, DATA, OR PROFITS; OR BUSINESS INTERRUPTION) HOWEVER 
  29:..\..\u8g2\csrc/u8x8_d_ist3020.c ****   CAUSED AND ON ANY THEORY OF LIABILITY, WHETHER IN CONTRACT, 
  30:..\..\u8g2\csrc/u8x8_d_ist3020.c ****   STRICT LIABILITY, OR TORT (INCLUDING NEGLIGENCE OR OTHERWISE) 
ARM GAS  C:\Users\gjl\AppData\Local\Temp\ccje152T.s 			page 2


  31:..\..\u8g2\csrc/u8x8_d_ist3020.c ****   ARISING IN ANY WAY OUT OF THE USE OF THIS SOFTWARE, EVEN IF 
  32:..\..\u8g2\csrc/u8x8_d_ist3020.c ****   ADVISED OF THE POSSIBILITY OF SUCH DAMAGE.  
  33:..\..\u8g2\csrc/u8x8_d_ist3020.c **** 
  34:..\..\u8g2\csrc/u8x8_d_ist3020.c ****   
  35:..\..\u8g2\csrc/u8x8_d_ist3020.c **** */
  36:..\..\u8g2\csrc/u8x8_d_ist3020.c **** #include "u8x8.h"
  37:..\..\u8g2\csrc/u8x8_d_ist3020.c **** 
  38:..\..\u8g2\csrc/u8x8_d_ist3020.c **** 
  39:..\..\u8g2\csrc/u8x8_d_ist3020.c **** 
  40:..\..\u8g2\csrc/u8x8_d_ist3020.c **** 
  41:..\..\u8g2\csrc/u8x8_d_ist3020.c **** static const uint8_t u8x8_d_ist3020_erc19264_powersave0_seq[] = {
  42:..\..\u8g2\csrc/u8x8_d_ist3020.c ****   U8X8_START_TRANSFER(),             	/* enable chip, delay is part of the transfer start */
  43:..\..\u8g2\csrc/u8x8_d_ist3020.c ****   U8X8_C(0x0a4),		                /* all pixel off, issue 142 */
  44:..\..\u8g2\csrc/u8x8_d_ist3020.c ****   U8X8_C(0x0af),		                /* display on */
  45:..\..\u8g2\csrc/u8x8_d_ist3020.c ****   U8X8_END_TRANSFER(),             	/* disable chip */
  46:..\..\u8g2\csrc/u8x8_d_ist3020.c ****   U8X8_END()             			/* end of sequence */
  47:..\..\u8g2\csrc/u8x8_d_ist3020.c **** };
  48:..\..\u8g2\csrc/u8x8_d_ist3020.c **** 
  49:..\..\u8g2\csrc/u8x8_d_ist3020.c **** static const uint8_t u8x8_d_ist3020_erc19264_powersave1_seq[] = {
  50:..\..\u8g2\csrc/u8x8_d_ist3020.c ****   U8X8_START_TRANSFER(),             	/* enable chip, delay is part of the transfer start */
  51:..\..\u8g2\csrc/u8x8_d_ist3020.c ****   U8X8_C(0x0ae),		                /* display off */
  52:..\..\u8g2\csrc/u8x8_d_ist3020.c ****   U8X8_C(0x0a5),		                /* enter powersafe: all pixel on, issue 142 */
  53:..\..\u8g2\csrc/u8x8_d_ist3020.c ****   U8X8_END_TRANSFER(),             	/* disable chip */
  54:..\..\u8g2\csrc/u8x8_d_ist3020.c ****   U8X8_END()             			/* end of sequence */
  55:..\..\u8g2\csrc/u8x8_d_ist3020.c **** };
  56:..\..\u8g2\csrc/u8x8_d_ist3020.c **** 
  57:..\..\u8g2\csrc/u8x8_d_ist3020.c **** static const uint8_t u8x8_d_ist3020_erc19264_flip0_seq[] = {
  58:..\..\u8g2\csrc/u8x8_d_ist3020.c ****   U8X8_START_TRANSFER(),             	/* enable chip, delay is part of the transfer start */
  59:..\..\u8g2\csrc/u8x8_d_ist3020.c ****   U8X8_C(0x0a0),				/* segment remap a0/a1*/
  60:..\..\u8g2\csrc/u8x8_d_ist3020.c ****   U8X8_C(0x0c8),				/* c0: scan dir normal, c8: reverse */
  61:..\..\u8g2\csrc/u8x8_d_ist3020.c ****   U8X8_END_TRANSFER(),             	/* disable chip */
  62:..\..\u8g2\csrc/u8x8_d_ist3020.c ****   U8X8_END()             			/* end of sequence */
  63:..\..\u8g2\csrc/u8x8_d_ist3020.c **** };
  64:..\..\u8g2\csrc/u8x8_d_ist3020.c **** 
  65:..\..\u8g2\csrc/u8x8_d_ist3020.c **** static const uint8_t u8x8_d_ist3020_erc19264_flip1_seq[] = {
  66:..\..\u8g2\csrc/u8x8_d_ist3020.c ****   U8X8_START_TRANSFER(),             	/* enable chip, delay is part of the transfer start */
  67:..\..\u8g2\csrc/u8x8_d_ist3020.c ****   U8X8_C(0x0a1),				/* segment remap a0/a1*/
  68:..\..\u8g2\csrc/u8x8_d_ist3020.c ****   U8X8_C(0x0c0),				/* c0: scan dir normal, c8: reverse */
  69:..\..\u8g2\csrc/u8x8_d_ist3020.c ****   U8X8_END_TRANSFER(),             	/* disable chip */
  70:..\..\u8g2\csrc/u8x8_d_ist3020.c ****   U8X8_END()             			/* end of sequence */
  71:..\..\u8g2\csrc/u8x8_d_ist3020.c **** };
  72:..\..\u8g2\csrc/u8x8_d_ist3020.c **** 
  73:..\..\u8g2\csrc/u8x8_d_ist3020.c **** 
  74:..\..\u8g2\csrc/u8x8_d_ist3020.c **** static const u8x8_display_info_t u8x8_ist3020_erc19264_display_info =
  75:..\..\u8g2\csrc/u8x8_d_ist3020.c **** {
  76:..\..\u8g2\csrc/u8x8_d_ist3020.c ****   /* chip_enable_level = */ 0,
  77:..\..\u8g2\csrc/u8x8_d_ist3020.c ****   /* chip_disable_level = */ 1,
  78:..\..\u8g2\csrc/u8x8_d_ist3020.c ****   
  79:..\..\u8g2\csrc/u8x8_d_ist3020.c ****   /* post_chip_enable_wait_ns = */ 150,	/* IST3020 datasheet, page 56 */
  80:..\..\u8g2\csrc/u8x8_d_ist3020.c ****   /* pre_chip_disable_wait_ns = */ 150,	/* IST3020 datasheet, page 56 */
  81:..\..\u8g2\csrc/u8x8_d_ist3020.c ****   /* reset_pulse_width_ms = */ 1, 
  82:..\..\u8g2\csrc/u8x8_d_ist3020.c ****   /* post_reset_wait_ms = */ 1, 
  83:..\..\u8g2\csrc/u8x8_d_ist3020.c ****   /* sda_setup_time_ns = */ 100,		/* IST3020 datasheet, page 56 */
  84:..\..\u8g2\csrc/u8x8_d_ist3020.c ****   /* sck_pulse_width_ns = */ 100,	/* IST3020 datasheet, page 56 */
  85:..\..\u8g2\csrc/u8x8_d_ist3020.c ****   /* sck_clock_hz = */ 4000000UL,	/* */
  86:..\..\u8g2\csrc/u8x8_d_ist3020.c ****   /* spi_mode = */ 0,		/* active high, rising edge */
  87:..\..\u8g2\csrc/u8x8_d_ist3020.c ****   /* i2c_bus_clock_100kHz = */ 4,
ARM GAS  C:\Users\gjl\AppData\Local\Temp\ccje152T.s 			page 3


  88:..\..\u8g2\csrc/u8x8_d_ist3020.c ****   /* data_setup_time_ns = */ 40,	/* IST3020 datasheet, page 54 */
  89:..\..\u8g2\csrc/u8x8_d_ist3020.c ****   /* write_pulse_width_ns = */ 60,	/* IST3020 datasheet, page 54 */
  90:..\..\u8g2\csrc/u8x8_d_ist3020.c ****   /* tile_width = */ 24,		/* width of 24*8=192 pixel */
  91:..\..\u8g2\csrc/u8x8_d_ist3020.c ****   /* tile_hight = */ 8,
  92:..\..\u8g2\csrc/u8x8_d_ist3020.c ****   /* default_x_offset = */ 0,
  93:..\..\u8g2\csrc/u8x8_d_ist3020.c ****   /* flipmode_x_offset = */ 64,
  94:..\..\u8g2\csrc/u8x8_d_ist3020.c ****   /* pixel_width = */ 192,
  95:..\..\u8g2\csrc/u8x8_d_ist3020.c ****   /* pixel_height = */ 64
  96:..\..\u8g2\csrc/u8x8_d_ist3020.c **** };
  97:..\..\u8g2\csrc/u8x8_d_ist3020.c **** 
  98:..\..\u8g2\csrc/u8x8_d_ist3020.c **** static const uint8_t u8x8_d_ist3020_erc19264_init_seq[] = {
  99:..\..\u8g2\csrc/u8x8_d_ist3020.c ****     
 100:..\..\u8g2\csrc/u8x8_d_ist3020.c ****   U8X8_START_TRANSFER(),             	/* enable chip, delay is part of the transfer start */
 101:..\..\u8g2\csrc/u8x8_d_ist3020.c ****   
 102:..\..\u8g2\csrc/u8x8_d_ist3020.c ****   U8X8_C(0x0e2),            			/* soft reset */
 103:..\..\u8g2\csrc/u8x8_d_ist3020.c ****   U8X8_C(0x0ab),            			/* build in osc on, used in ER code, but not mentioned in data sheet
 104:..\..\u8g2\csrc/u8x8_d_ist3020.c ****   U8X8_C(0x0ae),		                /* display off */
 105:..\..\u8g2\csrc/u8x8_d_ist3020.c ****   
 106:..\..\u8g2\csrc/u8x8_d_ist3020.c ****   U8X8_C(0x040),		                /* set display start line to 0 */
 107:..\..\u8g2\csrc/u8x8_d_ist3020.c ****   
 108:..\..\u8g2\csrc/u8x8_d_ist3020.c ****   U8X8_C(0x0a0),		                /* ADC set to reverse */
 109:..\..\u8g2\csrc/u8x8_d_ist3020.c ****   U8X8_C(0x0c8),		                /* common output mode */
 110:..\..\u8g2\csrc/u8x8_d_ist3020.c ****   // Flipmode
 111:..\..\u8g2\csrc/u8x8_d_ist3020.c ****   //U8X8_C(0x0a0),		                /* ADC set to reverse */
 112:..\..\u8g2\csrc/u8x8_d_ist3020.c ****   //U8X8_C(0x0c8),		                /* common output mode */
 113:..\..\u8g2\csrc/u8x8_d_ist3020.c ****   
 114:..\..\u8g2\csrc/u8x8_d_ist3020.c ****   U8X8_C(0x0a6),		                /* display normal, bit val 0: LCD pixel off. */
 115:..\..\u8g2\csrc/u8x8_d_ist3020.c ****   U8X8_C(0x0a3),		                /* FIX: LCD bias 1/7, old value was 1/9 (0x0a2) */
 116:..\..\u8g2\csrc/u8x8_d_ist3020.c ****   
 117:..\..\u8g2\csrc/u8x8_d_ist3020.c ****   U8X8_C(0x028|4),		                /* all power  control circuits on */
 118:..\..\u8g2\csrc/u8x8_d_ist3020.c ****   U8X8_DLY(50),
 119:..\..\u8g2\csrc/u8x8_d_ist3020.c ****   U8X8_C(0x028|6),		                /* all power  control circuits on */
 120:..\..\u8g2\csrc/u8x8_d_ist3020.c ****   U8X8_DLY(50),
 121:..\..\u8g2\csrc/u8x8_d_ist3020.c ****   U8X8_C(0x028|7),		                /* all power  control circuits on */
 122:..\..\u8g2\csrc/u8x8_d_ist3020.c ****   U8X8_DLY(50),
 123:..\..\u8g2\csrc/u8x8_d_ist3020.c ****   
 124:..\..\u8g2\csrc/u8x8_d_ist3020.c ****   U8X8_C(0x020),		                /* v0 voltage resistor ratio */
 125:..\..\u8g2\csrc/u8x8_d_ist3020.c ****   U8X8_CA(0x081, 0x019),		/* set contrast, contrast value (from ER code: 45) */
 126:..\..\u8g2\csrc/u8x8_d_ist3020.c ****   
 127:..\..\u8g2\csrc/u8x8_d_ist3020.c ****   U8X8_C(0x0ae),		                /* display off */
 128:..\..\u8g2\csrc/u8x8_d_ist3020.c ****   U8X8_C(0x0a5),		                /* enter powersafe: all pixel on, issue 142 */
 129:..\..\u8g2\csrc/u8x8_d_ist3020.c ****    
 130:..\..\u8g2\csrc/u8x8_d_ist3020.c ****   U8X8_END_TRANSFER(),             	/* disable chip */
 131:..\..\u8g2\csrc/u8x8_d_ist3020.c ****   U8X8_END()             			/* end of sequence */
 132:..\..\u8g2\csrc/u8x8_d_ist3020.c **** };
 133:..\..\u8g2\csrc/u8x8_d_ist3020.c **** 
 134:..\..\u8g2\csrc/u8x8_d_ist3020.c **** uint8_t u8x8_d_ist3020_erc19264(u8x8_t *u8x8, uint8_t msg, uint8_t arg_int, void *arg_ptr)
 135:..\..\u8g2\csrc/u8x8_d_ist3020.c **** {
  28              		.loc 1 135 0
  29              		.cfi_startproc
  30              		@ args = 0, pretend = 0, frame = 0
  31              		@ frame_needed = 0, uses_anonymous_args = 0
  32              	.LVL0:
 136:..\..\u8g2\csrc/u8x8_d_ist3020.c ****   uint8_t x, c;
 137:..\..\u8g2\csrc/u8x8_d_ist3020.c ****   uint8_t *ptr;
 138:..\..\u8g2\csrc/u8x8_d_ist3020.c ****   switch(msg)
  33              		.loc 1 138 0
ARM GAS  C:\Users\gjl\AppData\Local\Temp\ccje152T.s 			page 4


  34 0000 0939     		subs	r1, r1, #9
  35              	.LVL1:
 135:..\..\u8g2\csrc/u8x8_d_ist3020.c ****   uint8_t x, c;
  36              		.loc 1 135 0
  37 0002 F8B5     		push	{r3, r4, r5, r6, r7, lr}
  38              		.cfi_def_cfa_offset 24
  39              		.cfi_offset 3, -24
  40              		.cfi_offset 4, -20
  41              		.cfi_offset 5, -16
  42              		.cfi_offset 6, -12
  43              		.cfi_offset 7, -8
  44              		.cfi_offset 14, -4
 135:..\..\u8g2\csrc/u8x8_d_ist3020.c ****   uint8_t x, c;
  45              		.loc 1 135 0
  46 0004 0400     		movs	r4, r0
  47 0006 1500     		movs	r5, r2
  48 0008 1F00     		movs	r7, r3
  49              		.loc 1 138 0
  50 000a 0800     		movs	r0, r1
  51              	.LVL2:
  52 000c 0629     		cmp	r1, #6
  53 000e 63D8     		bhi	.L13
  54 0010 FFF7FEFF 		bl	__gnu_thumb1_case_uqi
  55              	.L4:
  56 0014 04       		.byte	(.L3-.L4)/2
  57 0015 09       		.byte	(.L5-.L4)/2
  58 0016 0F       		.byte	(.L6-.L4)/2
  59 0017 62       		.byte	(.L13-.L4)/2
  60 0018 19       		.byte	(.L7-.L4)/2
  61 0019 2B       		.byte	(.L8-.L4)/2
  62 001a 3B       		.byte	(.L9-.L4)/2
  63 001b 00       		.p2align 1
  64              	.L3:
 139:..\..\u8g2\csrc/u8x8_d_ist3020.c ****   {
 140:..\..\u8g2\csrc/u8x8_d_ist3020.c ****     case U8X8_MSG_DISPLAY_SETUP_MEMORY:
 141:..\..\u8g2\csrc/u8x8_d_ist3020.c ****       u8x8_d_helper_display_setup_memory(u8x8, &u8x8_ist3020_erc19264_display_info);
  65              		.loc 1 141 0
  66 001c 2F49     		ldr	r1, .L20
  67 001e 2000     		movs	r0, r4
  68 0020 FFF7FEFF 		bl	u8x8_d_helper_display_setup_memory
  69              	.LVL3:
  70 0024 2FE0     		b	.L15
  71              	.LVL4:
  72              	.L5:
 142:..\..\u8g2\csrc/u8x8_d_ist3020.c ****       break;
 143:..\..\u8g2\csrc/u8x8_d_ist3020.c ****     case U8X8_MSG_DISPLAY_INIT:
 144:..\..\u8g2\csrc/u8x8_d_ist3020.c ****       u8x8_d_helper_display_init(u8x8);
  73              		.loc 1 144 0
  74 0026 2000     		movs	r0, r4
  75 0028 FFF7FEFF 		bl	u8x8_d_helper_display_init
  76              	.LVL5:
 145:..\..\u8g2\csrc/u8x8_d_ist3020.c ****       u8x8_cad_SendSequence(u8x8, u8x8_d_ist3020_erc19264_init_seq);
  77              		.loc 1 145 0
  78 002c 2B49     		ldr	r1, .L20
  79 002e 1831     		adds	r1, r1, #24
  80 0030 05E0     		b	.L18
  81              	.LVL6:
ARM GAS  C:\Users\gjl\AppData\Local\Temp\ccje152T.s 			page 5


  82              	.L6:
  83 0032 2A49     		ldr	r1, .L20
 146:..\..\u8g2\csrc/u8x8_d_ist3020.c ****       break;
 147:..\..\u8g2\csrc/u8x8_d_ist3020.c ****     case U8X8_MSG_DISPLAY_SET_POWER_SAVE:
 148:..\..\u8g2\csrc/u8x8_d_ist3020.c ****       if ( arg_int == 0 )
  84              		.loc 1 148 0
  85 0034 002A     		cmp	r2, #0
  86 0036 01D1     		bne	.L10
 149:..\..\u8g2\csrc/u8x8_d_ist3020.c **** 	u8x8_cad_SendSequence(u8x8, u8x8_d_ist3020_erc19264_powersave0_seq);
  87              		.loc 1 149 0
  88 0038 4131     		adds	r1, r1, #65
  89 003a 00E0     		b	.L18
  90              	.L10:
 150:..\..\u8g2\csrc/u8x8_d_ist3020.c ****       else
 151:..\..\u8g2\csrc/u8x8_d_ist3020.c **** 	u8x8_cad_SendSequence(u8x8, u8x8_d_ist3020_erc19264_powersave1_seq);
  91              		.loc 1 151 0
  92 003c 4831     		adds	r1, r1, #72
  93              	.LVL7:
  94              	.L18:
  95 003e 2000     		movs	r0, r4
  96 0040 FFF7FEFF 		bl	u8x8_cad_SendSequence
  97              	.LVL8:
  98 0044 1FE0     		b	.L15
  99              	.LVL9:
 100              	.L7:
 101 0046 2549     		ldr	r1, .L20
 152:..\..\u8g2\csrc/u8x8_d_ist3020.c ****       break;
 153:..\..\u8g2\csrc/u8x8_d_ist3020.c ****     case U8X8_MSG_DISPLAY_SET_FLIP_MODE:
 154:..\..\u8g2\csrc/u8x8_d_ist3020.c ****       if ( arg_int == 0 )
 102              		.loc 1 154 0
 103 0048 002A     		cmp	r2, #0
 104 004a 06D1     		bne	.L11
 155:..\..\u8g2\csrc/u8x8_d_ist3020.c ****       {
 156:..\..\u8g2\csrc/u8x8_d_ist3020.c **** 	u8x8_cad_SendSequence(u8x8, u8x8_d_ist3020_erc19264_flip0_seq);
 105              		.loc 1 156 0
 106 004c 4F31     		adds	r1, r1, #79
 107 004e 2000     		movs	r0, r4
 108 0050 FFF7FEFF 		bl	u8x8_cad_SendSequence
 109              	.LVL10:
 157:..\..\u8g2\csrc/u8x8_d_ist3020.c **** 	u8x8->x_offset = u8x8->display_info->default_x_offset;
 110              		.loc 1 157 0
 111 0054 2368     		ldr	r3, [r4]
 112 0056 9B7C     		ldrb	r3, [r3, #18]
 113 0058 05E0     		b	.L17
 114              	.LVL11:
 115              	.L11:
 158:..\..\u8g2\csrc/u8x8_d_ist3020.c ****       }
 159:..\..\u8g2\csrc/u8x8_d_ist3020.c ****       else
 160:..\..\u8g2\csrc/u8x8_d_ist3020.c ****       {
 161:..\..\u8g2\csrc/u8x8_d_ist3020.c **** 	u8x8_cad_SendSequence(u8x8, u8x8_d_ist3020_erc19264_flip1_seq);
 116              		.loc 1 161 0
 117 005a 5631     		adds	r1, r1, #86
 118 005c 2000     		movs	r0, r4
 119 005e FFF7FEFF 		bl	u8x8_cad_SendSequence
 120              	.LVL12:
 162:..\..\u8g2\csrc/u8x8_d_ist3020.c **** 	u8x8->x_offset = u8x8->display_info->flipmode_x_offset;
 121              		.loc 1 162 0
ARM GAS  C:\Users\gjl\AppData\Local\Temp\ccje152T.s 			page 6


 122 0062 2368     		ldr	r3, [r4]
 123 0064 DB7C     		ldrb	r3, [r3, #19]
 124              	.L17:
 125 0066 A377     		strb	r3, [r4, #30]
 126 0068 0DE0     		b	.L15
 127              	.LVL13:
 128              	.L8:
 163:..\..\u8g2\csrc/u8x8_d_ist3020.c ****       }	
 164:..\..\u8g2\csrc/u8x8_d_ist3020.c ****       break;
 165:..\..\u8g2\csrc/u8x8_d_ist3020.c **** #ifdef U8X8_WITH_SET_CONTRAST
 166:..\..\u8g2\csrc/u8x8_d_ist3020.c ****     case U8X8_MSG_DISPLAY_SET_CONTRAST:
 167:..\..\u8g2\csrc/u8x8_d_ist3020.c ****       u8x8_cad_StartTransfer(u8x8);
 129              		.loc 1 167 0
 130 006a 2000     		movs	r0, r4
 131 006c FFF7FEFF 		bl	u8x8_cad_StartTransfer
 132              	.LVL14:
 168:..\..\u8g2\csrc/u8x8_d_ist3020.c ****       u8x8_cad_SendCmd(u8x8, 0x081 );
 133              		.loc 1 168 0
 134 0070 8121     		movs	r1, #129
 135 0072 2000     		movs	r0, r4
 136 0074 FFF7FEFF 		bl	u8x8_cad_SendCmd
 137              	.LVL15:
 169:..\..\u8g2\csrc/u8x8_d_ist3020.c ****       u8x8_cad_SendArg(u8x8, arg_int >> 2 );	/* st7567 has range from 0 to 63 */
 138              		.loc 1 169 0
 139 0078 A908     		lsrs	r1, r5, #2
 140 007a 2000     		movs	r0, r4
 141 007c FFF7FEFF 		bl	u8x8_cad_SendArg
 142              	.LVL16:
 143              	.L16:
 170:..\..\u8g2\csrc/u8x8_d_ist3020.c ****       u8x8_cad_EndTransfer(u8x8);
 144              		.loc 1 170 0
 145 0080 2000     		movs	r0, r4
 146 0082 FFF7FEFF 		bl	u8x8_cad_EndTransfer
 147              	.LVL17:
 148              	.L15:
 171:..\..\u8g2\csrc/u8x8_d_ist3020.c ****       break;
 172:..\..\u8g2\csrc/u8x8_d_ist3020.c **** #endif
 173:..\..\u8g2\csrc/u8x8_d_ist3020.c ****     case U8X8_MSG_DISPLAY_DRAW_TILE:
 174:..\..\u8g2\csrc/u8x8_d_ist3020.c ****       u8x8_cad_StartTransfer(u8x8);
 175:..\..\u8g2\csrc/u8x8_d_ist3020.c ****     
 176:..\..\u8g2\csrc/u8x8_d_ist3020.c ****       x = ((u8x8_tile_t *)arg_ptr)->x_pos;
 177:..\..\u8g2\csrc/u8x8_d_ist3020.c ****       x *= 8;
 178:..\..\u8g2\csrc/u8x8_d_ist3020.c ****       x += u8x8->x_offset;
 179:..\..\u8g2\csrc/u8x8_d_ist3020.c ****       u8x8_cad_SendCmd(u8x8, 0x010 | (x>>4) );
 180:..\..\u8g2\csrc/u8x8_d_ist3020.c ****       u8x8_cad_SendCmd(u8x8, 0x000 | ((x&15)));
 181:..\..\u8g2\csrc/u8x8_d_ist3020.c ****       u8x8_cad_SendCmd(u8x8, 0x0b0 | (((u8x8_tile_t *)arg_ptr)->y_pos));
 182:..\..\u8g2\csrc/u8x8_d_ist3020.c ****     
 183:..\..\u8g2\csrc/u8x8_d_ist3020.c ****       c = ((u8x8_tile_t *)arg_ptr)->cnt;
 184:..\..\u8g2\csrc/u8x8_d_ist3020.c ****       c *= 8;
 185:..\..\u8g2\csrc/u8x8_d_ist3020.c ****       ptr = ((u8x8_tile_t *)arg_ptr)->tile_ptr;
 186:..\..\u8g2\csrc/u8x8_d_ist3020.c ****       do
 187:..\..\u8g2\csrc/u8x8_d_ist3020.c ****       {
 188:..\..\u8g2\csrc/u8x8_d_ist3020.c **** 	u8x8_cad_SendData(u8x8, c, ptr);	/* note: SendData can not handle more than 255 bytes */
 189:..\..\u8g2\csrc/u8x8_d_ist3020.c **** 	arg_int--;
 190:..\..\u8g2\csrc/u8x8_d_ist3020.c ****       } while( arg_int > 0 );
 191:..\..\u8g2\csrc/u8x8_d_ist3020.c ****       
 192:..\..\u8g2\csrc/u8x8_d_ist3020.c ****       u8x8_cad_EndTransfer(u8x8);
ARM GAS  C:\Users\gjl\AppData\Local\Temp\ccje152T.s 			page 7


 193:..\..\u8g2\csrc/u8x8_d_ist3020.c ****       break;
 194:..\..\u8g2\csrc/u8x8_d_ist3020.c ****     default:
 195:..\..\u8g2\csrc/u8x8_d_ist3020.c ****       return 0;
 196:..\..\u8g2\csrc/u8x8_d_ist3020.c ****   }
 197:..\..\u8g2\csrc/u8x8_d_ist3020.c ****   return 1;
 149              		.loc 1 197 0
 150 0086 0120     		movs	r0, #1
 171:..\..\u8g2\csrc/u8x8_d_ist3020.c ****       break;
 151              		.loc 1 171 0
 152 0088 27E0     		b	.L2
 153              	.LVL18:
 154              	.L9:
 174:..\..\u8g2\csrc/u8x8_d_ist3020.c ****     
 155              		.loc 1 174 0
 156 008a 2000     		movs	r0, r4
 157 008c FFF7FEFF 		bl	u8x8_cad_StartTransfer
 158              	.LVL19:
 179:..\..\u8g2\csrc/u8x8_d_ist3020.c ****       u8x8_cad_SendCmd(u8x8, 0x000 | ((x&15)));
 159              		.loc 1 179 0
 160 0090 1021     		movs	r1, #16
 176:..\..\u8g2\csrc/u8x8_d_ist3020.c ****       x *= 8;
 161              		.loc 1 176 0
 162 0092 7E79     		ldrb	r6, [r7, #5]
 163              	.LVL20:
 178:..\..\u8g2\csrc/u8x8_d_ist3020.c ****       u8x8_cad_SendCmd(u8x8, 0x010 | (x>>4) );
 164              		.loc 1 178 0
 165 0094 A37F     		ldrb	r3, [r4, #30]
 177:..\..\u8g2\csrc/u8x8_d_ist3020.c ****       x += u8x8->x_offset;
 166              		.loc 1 177 0
 167 0096 F600     		lsls	r6, r6, #3
 168              	.LVL21:
 178:..\..\u8g2\csrc/u8x8_d_ist3020.c ****       u8x8_cad_SendCmd(u8x8, 0x010 | (x>>4) );
 169              		.loc 1 178 0
 170 0098 F618     		adds	r6, r6, r3
 171              	.LVL22:
 172 009a F6B2     		uxtb	r6, r6
 173              	.LVL23:
 179:..\..\u8g2\csrc/u8x8_d_ist3020.c ****       u8x8_cad_SendCmd(u8x8, 0x000 | ((x&15)));
 174              		.loc 1 179 0
 175 009c 3309     		lsrs	r3, r6, #4
 176 009e 1943     		orrs	r1, r3
 177 00a0 2000     		movs	r0, r4
 178 00a2 FFF7FEFF 		bl	u8x8_cad_SendCmd
 179              	.LVL24:
 180:..\..\u8g2\csrc/u8x8_d_ist3020.c ****       u8x8_cad_SendCmd(u8x8, 0x0b0 | (((u8x8_tile_t *)arg_ptr)->y_pos));
 180              		.loc 1 180 0
 181 00a6 0F21     		movs	r1, #15
 182 00a8 2000     		movs	r0, r4
 183 00aa 3140     		ands	r1, r6
 184 00ac FFF7FEFF 		bl	u8x8_cad_SendCmd
 185              	.LVL25:
 181:..\..\u8g2\csrc/u8x8_d_ist3020.c ****     
 186              		.loc 1 181 0
 187 00b0 B023     		movs	r3, #176
 188 00b2 B979     		ldrb	r1, [r7, #6]
 189 00b4 2000     		movs	r0, r4
 190 00b6 1943     		orrs	r1, r3
ARM GAS  C:\Users\gjl\AppData\Local\Temp\ccje152T.s 			page 8


 191 00b8 FFF7FEFF 		bl	u8x8_cad_SendCmd
 192              	.LVL26:
 183:..\..\u8g2\csrc/u8x8_d_ist3020.c ****       c *= 8;
 193              		.loc 1 183 0
 194 00bc 3E79     		ldrb	r6, [r7, #4]
 195              	.LVL27:
 185:..\..\u8g2\csrc/u8x8_d_ist3020.c ****       do
 196              		.loc 1 185 0
 197 00be 3F68     		ldr	r7, [r7]
 198              	.LVL28:
 184:..\..\u8g2\csrc/u8x8_d_ist3020.c ****       ptr = ((u8x8_tile_t *)arg_ptr)->tile_ptr;
 199              		.loc 1 184 0
 200 00c0 F600     		lsls	r6, r6, #3
 201              	.LVL29:
 202 00c2 F6B2     		uxtb	r6, r6
 203              	.LVL30:
 204              	.L12:
 189:..\..\u8g2\csrc/u8x8_d_ist3020.c ****       } while( arg_int > 0 );
 205              		.loc 1 189 0 discriminator 1
 206 00c4 013D     		subs	r5, r5, #1
 207              	.LVL31:
 188:..\..\u8g2\csrc/u8x8_d_ist3020.c **** 	arg_int--;
 208              		.loc 1 188 0 discriminator 1
 209 00c6 3A00     		movs	r2, r7
 210 00c8 3100     		movs	r1, r6
 211 00ca 2000     		movs	r0, r4
 189:..\..\u8g2\csrc/u8x8_d_ist3020.c ****       } while( arg_int > 0 );
 212              		.loc 1 189 0 discriminator 1
 213 00cc EDB2     		uxtb	r5, r5
 188:..\..\u8g2\csrc/u8x8_d_ist3020.c **** 	arg_int--;
 214              		.loc 1 188 0 discriminator 1
 215 00ce FFF7FEFF 		bl	u8x8_cad_SendData
 216              	.LVL32:
 190:..\..\u8g2\csrc/u8x8_d_ist3020.c ****       
 217              		.loc 1 190 0 discriminator 1
 218 00d2 002D     		cmp	r5, #0
 219 00d4 F6D1     		bne	.L12
 220 00d6 D3E7     		b	.L16
 221              	.LVL33:
 222              	.L13:
 195:..\..\u8g2\csrc/u8x8_d_ist3020.c ****   }
 223              		.loc 1 195 0
 224 00d8 0020     		movs	r0, #0
 225              	.LVL34:
 226              	.L2:
 198:..\..\u8g2\csrc/u8x8_d_ist3020.c **** }
 227              		.loc 1 198 0
 228              		@ sp needed
 229              	.LVL35:
 230 00da F8BD     		pop	{r3, r4, r5, r6, r7, pc}
 231              	.L21:
 232              		.align	2
 233              	.L20:
 234 00dc 00000000 		.word	.LANCHOR0
 235              		.cfi_endproc
 236              	.LFE0:
 237              		.size	u8x8_d_ist3020_erc19264, .-u8x8_d_ist3020_erc19264
ARM GAS  C:\Users\gjl\AppData\Local\Temp\ccje152T.s 			page 9


 238              		.section	.rodata
 239              		.align	2
 240              		.set	.LANCHOR0,. + 0
 241              		.type	u8x8_ist3020_erc19264_display_info, %object
 242              		.size	u8x8_ist3020_erc19264_display_info, 24
 243              	u8x8_ist3020_erc19264_display_info:
 244 0000 00       		.byte	0
 245 0001 01       		.byte	1
 246 0002 96       		.byte	-106
 247 0003 96       		.byte	-106
 248 0004 01       		.byte	1
 249 0005 01       		.byte	1
 250 0006 64       		.byte	100
 251 0007 64       		.byte	100
 252 0008 00093D00 		.word	4000000
 253 000c 00       		.byte	0
 254 000d 04       		.byte	4
 255 000e 28       		.byte	40
 256 000f 3C       		.byte	60
 257 0010 18       		.byte	24
 258 0011 08       		.byte	8
 259 0012 00       		.byte	0
 260 0013 40       		.byte	64
 261 0014 C000     		.short	192
 262 0016 4000     		.short	64
 263              		.type	u8x8_d_ist3020_erc19264_init_seq, %object
 264              		.size	u8x8_d_ist3020_erc19264_init_seq, 41
 265              	u8x8_d_ist3020_erc19264_init_seq:
 266 0018 18       		.byte	24
 267 0019 15       		.byte	21
 268 001a E2       		.byte	-30
 269 001b 15       		.byte	21
 270 001c AB       		.byte	-85
 271 001d 15       		.byte	21
 272 001e AE       		.byte	-82
 273 001f 15       		.byte	21
 274 0020 40       		.byte	64
 275 0021 15       		.byte	21
 276 0022 A0       		.byte	-96
 277 0023 15       		.byte	21
 278 0024 C8       		.byte	-56
 279 0025 15       		.byte	21
 280 0026 A6       		.byte	-90
 281 0027 15       		.byte	21
 282 0028 A3       		.byte	-93
 283 0029 15       		.byte	21
 284 002a 2C       		.byte	44
 285 002b FE       		.byte	-2
 286 002c 32       		.byte	50
 287 002d 15       		.byte	21
 288 002e 2E       		.byte	46
 289 002f FE       		.byte	-2
 290 0030 32       		.byte	50
 291 0031 15       		.byte	21
 292 0032 2F       		.byte	47
 293 0033 FE       		.byte	-2
 294 0034 32       		.byte	50
ARM GAS  C:\Users\gjl\AppData\Local\Temp\ccje152T.s 			page 10


 295 0035 15       		.byte	21
 296 0036 20       		.byte	32
 297 0037 15       		.byte	21
 298 0038 81       		.byte	-127
 299 0039 16       		.byte	22
 300 003a 19       		.byte	25
 301 003b 15       		.byte	21
 302 003c AE       		.byte	-82
 303 003d 15       		.byte	21
 304 003e A5       		.byte	-91
 305 003f 19       		.byte	25
 306 0040 FF       		.byte	-1
 307              		.type	u8x8_d_ist3020_erc19264_powersave0_seq, %object
 308              		.size	u8x8_d_ist3020_erc19264_powersave0_seq, 7
 309              	u8x8_d_ist3020_erc19264_powersave0_seq:
 310 0041 18       		.byte	24
 311 0042 15       		.byte	21
 312 0043 A4       		.byte	-92
 313 0044 15       		.byte	21
 314 0045 AF       		.byte	-81
 315 0046 19       		.byte	25
 316 0047 FF       		.byte	-1
 317              		.type	u8x8_d_ist3020_erc19264_powersave1_seq, %object
 318              		.size	u8x8_d_ist3020_erc19264_powersave1_seq, 7
 319              	u8x8_d_ist3020_erc19264_powersave1_seq:
 320 0048 18       		.byte	24
 321 0049 15       		.byte	21
 322 004a AE       		.byte	-82
 323 004b 15       		.byte	21
 324 004c A5       		.byte	-91
 325 004d 19       		.byte	25
 326 004e FF       		.byte	-1
 327              		.type	u8x8_d_ist3020_erc19264_flip0_seq, %object
 328              		.size	u8x8_d_ist3020_erc19264_flip0_seq, 7
 329              	u8x8_d_ist3020_erc19264_flip0_seq:
 330 004f 18       		.byte	24
 331 0050 15       		.byte	21
 332 0051 A0       		.byte	-96
 333 0052 15       		.byte	21
 334 0053 C8       		.byte	-56
 335 0054 19       		.byte	25
 336 0055 FF       		.byte	-1
 337              		.type	u8x8_d_ist3020_erc19264_flip1_seq, %object
 338              		.size	u8x8_d_ist3020_erc19264_flip1_seq, 7
 339              	u8x8_d_ist3020_erc19264_flip1_seq:
 340 0056 18       		.byte	24
 341 0057 15       		.byte	21
 342 0058 A1       		.byte	-95
 343 0059 15       		.byte	21
 344 005a C0       		.byte	-64
 345 005b 19       		.byte	25
 346 005c FF       		.byte	-1
 347              		.text
 348              	.Letext0:
 349              		.file 2 "c:\\program files (x86)\\cypress\\psoc creator\\4.1\\psoc creator\\import\\gnu\\arm\\5.4.
 350              		.file 3 "c:\\program files (x86)\\cypress\\psoc creator\\4.1\\psoc creator\\import\\gnu\\arm\\5.4.
 351              		.file 4 "..\\..\\u8g2\\csrc\\u8x8.h"
ARM GAS  C:\Users\gjl\AppData\Local\Temp\ccje152T.s 			page 11

