ARM GAS  C:\Users\Alan\AppData\Local\Temp\ccNKkP97.s 			page 1


   1              		.syntax unified
   2              		.cpu cortex-m0
   3              		.fpu softvfp
   4              		.eabi_attribute 20, 1
   5              		.eabi_attribute 21, 1
   6              		.eabi_attribute 23, 3
   7              		.eabi_attribute 24, 1
   8              		.eabi_attribute 25, 1
   9              		.eabi_attribute 26, 1
  10              		.eabi_attribute 30, 4
  11              		.eabi_attribute 34, 0
  12              		.eabi_attribute 18, 4
  13              		.thumb
  14              		.syntax unified
  15              		.file	"u8x8_d_uc1608.c"
  16              		.text
  17              	.Ltext0:
  18              		.cfi_sections	.debug_frame
  19              		.section	.text.u8x8_d_uc1608_common,"ax",%progbits
  20              		.align	1
  21              		.global	u8x8_d_uc1608_common
  22              		.code	16
  23              		.thumb_func
  24              		.type	u8x8_d_uc1608_common, %function
  25              	u8x8_d_uc1608_common:
  26              	.LFB0:
  27              		.file 1 "..\\..\\u8g2\\csrc\\u8x8_d_uc1608.c"
   1:..\..\u8g2\csrc/u8x8_d_uc1608.c **** /*
   2:..\..\u8g2\csrc/u8x8_d_uc1608.c **** 
   3:..\..\u8g2\csrc/u8x8_d_uc1608.c ****   u8x8_d_uc1608.c
   4:..\..\u8g2\csrc/u8x8_d_uc1608.c ****   
   5:..\..\u8g2\csrc/u8x8_d_uc1608.c ****   Universal 8bit Graphics Library (https://github.com/olikraus/u8g2/)
   6:..\..\u8g2\csrc/u8x8_d_uc1608.c **** 
   7:..\..\u8g2\csrc/u8x8_d_uc1608.c ****   Copyright (c) 2016, olikraus@gmail.com
   8:..\..\u8g2\csrc/u8x8_d_uc1608.c ****   All rights reserved.
   9:..\..\u8g2\csrc/u8x8_d_uc1608.c **** 
  10:..\..\u8g2\csrc/u8x8_d_uc1608.c ****   Redistribution and use in source and binary forms, with or without modification, 
  11:..\..\u8g2\csrc/u8x8_d_uc1608.c ****   are permitted provided that the following conditions are met:
  12:..\..\u8g2\csrc/u8x8_d_uc1608.c **** 
  13:..\..\u8g2\csrc/u8x8_d_uc1608.c ****   * Redistributions of source code must retain the above copyright notice, this list 
  14:..\..\u8g2\csrc/u8x8_d_uc1608.c ****     of conditions and the following disclaimer.
  15:..\..\u8g2\csrc/u8x8_d_uc1608.c ****     
  16:..\..\u8g2\csrc/u8x8_d_uc1608.c ****   * Redistributions in binary form must reproduce the above copyright notice, this 
  17:..\..\u8g2\csrc/u8x8_d_uc1608.c ****     list of conditions and the following disclaimer in the documentation and/or other 
  18:..\..\u8g2\csrc/u8x8_d_uc1608.c ****     materials provided with the distribution.
  19:..\..\u8g2\csrc/u8x8_d_uc1608.c **** 
  20:..\..\u8g2\csrc/u8x8_d_uc1608.c ****   THIS SOFTWARE IS PROVIDED BY THE COPYRIGHT HOLDERS AND 
  21:..\..\u8g2\csrc/u8x8_d_uc1608.c ****   CONTRIBUTORS "AS IS" AND ANY EXPRESS OR IMPLIED WARRANTIES, 
  22:..\..\u8g2\csrc/u8x8_d_uc1608.c ****   INCLUDING, BUT NOT LIMITED TO, THE IMPLIED WARRANTIES OF 
  23:..\..\u8g2\csrc/u8x8_d_uc1608.c ****   MERCHANTABILITY AND FITNESS FOR A PARTICULAR PURPOSE ARE 
  24:..\..\u8g2\csrc/u8x8_d_uc1608.c ****   DISCLAIMED. IN NO EVENT SHALL THE COPYRIGHT HOLDER OR 
  25:..\..\u8g2\csrc/u8x8_d_uc1608.c ****   CONTRIBUTORS BE LIABLE FOR ANY DIRECT, INDIRECT, INCIDENTAL, 
  26:..\..\u8g2\csrc/u8x8_d_uc1608.c ****   SPECIAL, EXEMPLARY, OR CONSEQUENTIAL DAMAGES (INCLUDING, BUT 
  27:..\..\u8g2\csrc/u8x8_d_uc1608.c ****   NOT LIMITED TO, PROCUREMENT OF SUBSTITUTE GOODS OR SERVICES; 
  28:..\..\u8g2\csrc/u8x8_d_uc1608.c ****   LOSS OF USE, DATA, OR PROFITS; OR BUSINESS INTERRUPTION) HOWEVER 
  29:..\..\u8g2\csrc/u8x8_d_uc1608.c ****   CAUSED AND ON ANY THEORY OF LIABILITY, WHETHER IN CONTRACT, 
  30:..\..\u8g2\csrc/u8x8_d_uc1608.c ****   STRICT LIABILITY, OR TORT (INCLUDING NEGLIGENCE OR OTHERWISE) 
ARM GAS  C:\Users\Alan\AppData\Local\Temp\ccNKkP97.s 			page 2


  31:..\..\u8g2\csrc/u8x8_d_uc1608.c ****   ARISING IN ANY WAY OUT OF THE USE OF THIS SOFTWARE, EVEN IF 
  32:..\..\u8g2\csrc/u8x8_d_uc1608.c ****   ADVISED OF THE POSSIBILITY OF SUCH DAMAGE.  
  33:..\..\u8g2\csrc/u8x8_d_uc1608.c **** 
  34:..\..\u8g2\csrc/u8x8_d_uc1608.c **** 
  35:..\..\u8g2\csrc/u8x8_d_uc1608.c ****   
  36:..\..\u8g2\csrc/u8x8_d_uc1608.c **** */
  37:..\..\u8g2\csrc/u8x8_d_uc1608.c **** #include "u8x8.h"
  38:..\..\u8g2\csrc/u8x8_d_uc1608.c **** 
  39:..\..\u8g2\csrc/u8x8_d_uc1608.c **** 
  40:..\..\u8g2\csrc/u8x8_d_uc1608.c **** 
  41:..\..\u8g2\csrc/u8x8_d_uc1608.c **** 
  42:..\..\u8g2\csrc/u8x8_d_uc1608.c **** 
  43:..\..\u8g2\csrc/u8x8_d_uc1608.c **** static const uint8_t u8x8_d_uc1608_powersave0_seq[] = {
  44:..\..\u8g2\csrc/u8x8_d_uc1608.c ****   U8X8_START_TRANSFER(),             	/* enable chip, delay is part of the transfer start */
  45:..\..\u8g2\csrc/u8x8_d_uc1608.c ****   U8X8_C(0x0af),		                /* display on */
  46:..\..\u8g2\csrc/u8x8_d_uc1608.c ****   U8X8_END_TRANSFER(),             	/* disable chip */
  47:..\..\u8g2\csrc/u8x8_d_uc1608.c ****   U8X8_END()             			/* end of sequence */
  48:..\..\u8g2\csrc/u8x8_d_uc1608.c **** };
  49:..\..\u8g2\csrc/u8x8_d_uc1608.c **** 
  50:..\..\u8g2\csrc/u8x8_d_uc1608.c **** static const uint8_t u8x8_d_uc1608_powersave1_seq[] = {
  51:..\..\u8g2\csrc/u8x8_d_uc1608.c ****   U8X8_START_TRANSFER(),             	/* enable chip, delay is part of the transfer start */
  52:..\..\u8g2\csrc/u8x8_d_uc1608.c ****   U8X8_C(0x0ae),		                /* display off, enter sleep mode */
  53:..\..\u8g2\csrc/u8x8_d_uc1608.c ****   U8X8_END_TRANSFER(),             	/* disable chip */
  54:..\..\u8g2\csrc/u8x8_d_uc1608.c ****   U8X8_END()             			/* end of sequence */
  55:..\..\u8g2\csrc/u8x8_d_uc1608.c **** };
  56:..\..\u8g2\csrc/u8x8_d_uc1608.c **** 
  57:..\..\u8g2\csrc/u8x8_d_uc1608.c **** static const uint8_t u8x8_d_uc1608_flip0_seq[] = {
  58:..\..\u8g2\csrc/u8x8_d_uc1608.c ****   U8X8_START_TRANSFER(),             	/* enable chip, delay is part of the transfer start */
  59:..\..\u8g2\csrc/u8x8_d_uc1608.c ****   U8X8_C(0x0c8),            			/* LCD Mapping */
  60:..\..\u8g2\csrc/u8x8_d_uc1608.c ****   U8X8_END_TRANSFER(),             	/* disable chip */
  61:..\..\u8g2\csrc/u8x8_d_uc1608.c ****   U8X8_END()             			/* end of sequence */
  62:..\..\u8g2\csrc/u8x8_d_uc1608.c **** };
  63:..\..\u8g2\csrc/u8x8_d_uc1608.c **** 
  64:..\..\u8g2\csrc/u8x8_d_uc1608.c **** static const uint8_t u8x8_d_uc1608_flip1_seq[] = {
  65:..\..\u8g2\csrc/u8x8_d_uc1608.c ****   U8X8_START_TRANSFER(),             	/* enable chip, delay is part of the transfer start */
  66:..\..\u8g2\csrc/u8x8_d_uc1608.c ****   U8X8_C(0x0c4),            			/* LCD Mapping */
  67:..\..\u8g2\csrc/u8x8_d_uc1608.c ****   U8X8_END_TRANSFER(),             	/* disable chip */
  68:..\..\u8g2\csrc/u8x8_d_uc1608.c ****   U8X8_END()             			/* end of sequence */
  69:..\..\u8g2\csrc/u8x8_d_uc1608.c **** };
  70:..\..\u8g2\csrc/u8x8_d_uc1608.c **** 
  71:..\..\u8g2\csrc/u8x8_d_uc1608.c **** 
  72:..\..\u8g2\csrc/u8x8_d_uc1608.c **** uint8_t u8x8_d_uc1608_common(u8x8_t *u8x8, uint8_t msg, uint8_t arg_int, void *arg_ptr)
  73:..\..\u8g2\csrc/u8x8_d_uc1608.c **** {
  28              		.loc 1 73 0
  29              		.cfi_startproc
  30              		@ args = 0, pretend = 0, frame = 0
  31              		@ frame_needed = 0, uses_anonymous_args = 0
  32              	.LVL0:
  74:..\..\u8g2\csrc/u8x8_d_uc1608.c ****   uint8_t x, y, c;
  75:..\..\u8g2\csrc/u8x8_d_uc1608.c ****   uint8_t *ptr;
  76:..\..\u8g2\csrc/u8x8_d_uc1608.c ****   switch(msg)
  33              		.loc 1 76 0
  34 0000 0B39     		subs	r1, r1, #11
  35              	.LVL1:
  73:..\..\u8g2\csrc/u8x8_d_uc1608.c ****   uint8_t x, y, c;
  36              		.loc 1 73 0
  37 0002 F8B5     		push	{r3, r4, r5, r6, r7, lr}
ARM GAS  C:\Users\Alan\AppData\Local\Temp\ccNKkP97.s 			page 3


  38              		.cfi_def_cfa_offset 24
  39              		.cfi_offset 3, -24
  40              		.cfi_offset 4, -20
  41              		.cfi_offset 5, -16
  42              		.cfi_offset 6, -12
  43              		.cfi_offset 7, -8
  44              		.cfi_offset 14, -4
  73:..\..\u8g2\csrc/u8x8_d_uc1608.c ****   uint8_t x, y, c;
  45              		.loc 1 73 0
  46 0004 0400     		movs	r4, r0
  47 0006 1600     		movs	r6, r2
  48 0008 1F00     		movs	r7, r3
  49              		.loc 1 76 0
  50 000a 0800     		movs	r0, r1
  51              	.LVL2:
  52 000c 0429     		cmp	r1, #4
  53 000e 57D8     		bhi	.L11
  54 0010 FFF7FEFF 		bl	__gnu_thumb1_case_uqi
  55              	.L4:
  56 0014 2C       		.byte	(.L3-.L4)/2
  57 0015 56       		.byte	(.L11-.L4)/2
  58 0016 34       		.byte	(.L5-.L4)/2
  59 0017 47       		.byte	(.L6-.L4)/2
  60 0018 03       		.byte	(.L7-.L4)/2
  61 0019 00       		.p2align 1
  62              	.L7:
  77:..\..\u8g2\csrc/u8x8_d_uc1608.c ****   {
  78:..\..\u8g2\csrc/u8x8_d_uc1608.c ****     case U8X8_MSG_DISPLAY_DRAW_TILE:
  79:..\..\u8g2\csrc/u8x8_d_uc1608.c ****       u8x8_cad_StartTransfer(u8x8);
  63              		.loc 1 79 0
  64 001a 2000     		movs	r0, r4
  65 001c FFF7FEFF 		bl	u8x8_cad_StartTransfer
  66              	.LVL3:
  80:..\..\u8g2\csrc/u8x8_d_uc1608.c ****     
  81:..\..\u8g2\csrc/u8x8_d_uc1608.c ****       x = ((u8x8_tile_t *)arg_ptr)->x_pos;
  82:..\..\u8g2\csrc/u8x8_d_uc1608.c ****       x *= 8;
  83:..\..\u8g2\csrc/u8x8_d_uc1608.c ****    
  84:..\..\u8g2\csrc/u8x8_d_uc1608.c ****       u8x8_cad_SendCmd(u8x8, 0x000 | ((x&15)));
  67              		.loc 1 84 0
  68 0020 0F21     		movs	r1, #15
  81:..\..\u8g2\csrc/u8x8_d_uc1608.c ****       x *= 8;
  69              		.loc 1 81 0
  70 0022 7D79     		ldrb	r5, [r7, #5]
  71              	.LVL4:
  72              		.loc 1 84 0
  73 0024 2000     		movs	r0, r4
  82:..\..\u8g2\csrc/u8x8_d_uc1608.c ****    
  74              		.loc 1 82 0
  75 0026 ED00     		lsls	r5, r5, #3
  76              	.LVL5:
  77 0028 EDB2     		uxtb	r5, r5
  78              	.LVL6:
  79              		.loc 1 84 0
  80 002a 2940     		ands	r1, r5
  81 002c FFF7FEFF 		bl	u8x8_cad_SendCmd
  82              	.LVL7:
  85:..\..\u8g2\csrc/u8x8_d_uc1608.c ****       u8x8_cad_SendCmd(u8x8, 0x010 | (x>>4) );
ARM GAS  C:\Users\Alan\AppData\Local\Temp\ccNKkP97.s 			page 4


  83              		.loc 1 85 0
  84 0030 1021     		movs	r1, #16
  85 0032 2D09     		lsrs	r5, r5, #4
  86              	.LVL8:
  87 0034 2943     		orrs	r1, r5
  88 0036 2000     		movs	r0, r4
  89 0038 FFF7FEFF 		bl	u8x8_cad_SendCmd
  90              	.LVL9:
  86:..\..\u8g2\csrc/u8x8_d_uc1608.c ****     
  87:..\..\u8g2\csrc/u8x8_d_uc1608.c ****       y = ((u8x8_tile_t *)arg_ptr)->y_pos;
  91              		.loc 1 87 0
  92 003c B979     		ldrb	r1, [r7, #6]
  93              	.LVL10:
  88:..\..\u8g2\csrc/u8x8_d_uc1608.c ****       y += u8x8->x_offset;
  89:..\..\u8g2\csrc/u8x8_d_uc1608.c ****       u8x8_cad_SendCmd(u8x8, 0x0b0 | (y&15));
  94              		.loc 1 89 0
  95 003e A37F     		ldrb	r3, [r4, #30]
  96 0040 2000     		movs	r0, r4
  97 0042 C918     		adds	r1, r1, r3
  98              	.LVL11:
  99 0044 0F23     		movs	r3, #15
 100 0046 1940     		ands	r1, r3
 101 0048 A133     		adds	r3, r3, #161
 102 004a 1943     		orrs	r1, r3
 103 004c FFF7FEFF 		bl	u8x8_cad_SendCmd
 104              	.LVL12:
  90:..\..\u8g2\csrc/u8x8_d_uc1608.c ****     
  91:..\..\u8g2\csrc/u8x8_d_uc1608.c ****       c = ((u8x8_tile_t *)arg_ptr)->cnt;
 105              		.loc 1 91 0
 106 0050 3D79     		ldrb	r5, [r7, #4]
 107              	.LVL13:
  92:..\..\u8g2\csrc/u8x8_d_uc1608.c ****       c *= 8;
  93:..\..\u8g2\csrc/u8x8_d_uc1608.c ****       ptr = ((u8x8_tile_t *)arg_ptr)->tile_ptr;
 108              		.loc 1 93 0
 109 0052 3F68     		ldr	r7, [r7]
 110              	.LVL14:
  92:..\..\u8g2\csrc/u8x8_d_uc1608.c ****       c *= 8;
 111              		.loc 1 92 0
 112 0054 ED00     		lsls	r5, r5, #3
 113              	.LVL15:
 114 0056 EDB2     		uxtb	r5, r5
 115              	.LVL16:
 116              	.L8:
  94:..\..\u8g2\csrc/u8x8_d_uc1608.c ****       do
  95:..\..\u8g2\csrc/u8x8_d_uc1608.c ****       {
  96:..\..\u8g2\csrc/u8x8_d_uc1608.c **** 	u8x8_cad_SendData(u8x8, c, ptr);	/* note: SendData can not handle more than 255 bytes */
  97:..\..\u8g2\csrc/u8x8_d_uc1608.c **** 	arg_int--;
 117              		.loc 1 97 0 discriminator 1
 118 0058 013E     		subs	r6, r6, #1
 119              	.LVL17:
  96:..\..\u8g2\csrc/u8x8_d_uc1608.c **** 	arg_int--;
 120              		.loc 1 96 0 discriminator 1
 121 005a 3A00     		movs	r2, r7
 122 005c 2900     		movs	r1, r5
 123 005e 2000     		movs	r0, r4
 124              		.loc 1 97 0 discriminator 1
 125 0060 F6B2     		uxtb	r6, r6
ARM GAS  C:\Users\Alan\AppData\Local\Temp\ccNKkP97.s 			page 5


  96:..\..\u8g2\csrc/u8x8_d_uc1608.c **** 	arg_int--;
 126              		.loc 1 96 0 discriminator 1
 127 0062 FFF7FEFF 		bl	u8x8_cad_SendData
 128              	.LVL18:
  98:..\..\u8g2\csrc/u8x8_d_uc1608.c ****       } while( arg_int > 0 );
 129              		.loc 1 98 0 discriminator 1
 130 0066 002E     		cmp	r6, #0
 131 0068 F6D1     		bne	.L8
 132 006a 25E0     		b	.L16
 133              	.LVL19:
 134              	.L3:
 135 006c 1549     		ldr	r1, .L18
  99:..\..\u8g2\csrc/u8x8_d_uc1608.c ****       
 100:..\..\u8g2\csrc/u8x8_d_uc1608.c ****       u8x8_cad_EndTransfer(u8x8);
 101:..\..\u8g2\csrc/u8x8_d_uc1608.c ****       break;
 102:..\..\u8g2\csrc/u8x8_d_uc1608.c ****     /*	handled in the calling procedure 
 103:..\..\u8g2\csrc/u8x8_d_uc1608.c ****     case U8X8_MSG_DISPLAY_SETUP_MEMORY:
 104:..\..\u8g2\csrc/u8x8_d_uc1608.c ****       u8x8_d_helper_display_setup_memory(u8x8, &u8x8_uc1608_128x64_display_info);
 105:..\..\u8g2\csrc/u8x8_d_uc1608.c ****       break;
 106:..\..\u8g2\csrc/u8x8_d_uc1608.c ****     case U8X8_MSG_DISPLAY_INIT:
 107:..\..\u8g2\csrc/u8x8_d_uc1608.c ****       u8x8_d_helper_display_init(u8x8);
 108:..\..\u8g2\csrc/u8x8_d_uc1608.c ****       u8x8_cad_SendSequence(u8x8, u8x8_d_uc1701_dogs102_init_seq);
 109:..\..\u8g2\csrc/u8x8_d_uc1608.c ****       break;
 110:..\..\u8g2\csrc/u8x8_d_uc1608.c ****     */
 111:..\..\u8g2\csrc/u8x8_d_uc1608.c ****     case U8X8_MSG_DISPLAY_SET_POWER_SAVE:
 112:..\..\u8g2\csrc/u8x8_d_uc1608.c ****       if ( arg_int == 0 )
 136              		.loc 1 112 0
 137 006e 002A     		cmp	r2, #0
 138 0070 00D0     		beq	.L15
 113:..\..\u8g2\csrc/u8x8_d_uc1608.c **** 	u8x8_cad_SendSequence(u8x8, u8x8_d_uc1608_powersave0_seq);
 114:..\..\u8g2\csrc/u8x8_d_uc1608.c ****       else
 115:..\..\u8g2\csrc/u8x8_d_uc1608.c **** 	u8x8_cad_SendSequence(u8x8, u8x8_d_uc1608_powersave1_seq);
 139              		.loc 1 115 0
 140 0072 0531     		adds	r1, r1, #5
 141              	.L15:
 142 0074 2000     		movs	r0, r4
 143 0076 FFF7FEFF 		bl	u8x8_cad_SendSequence
 144              	.LVL20:
 145 007a 10E0     		b	.L13
 146              	.LVL21:
 147              	.L5:
 148 007c 1149     		ldr	r1, .L18
 116:..\..\u8g2\csrc/u8x8_d_uc1608.c ****       break;
 117:..\..\u8g2\csrc/u8x8_d_uc1608.c ****     case U8X8_MSG_DISPLAY_SET_FLIP_MODE:
 118:..\..\u8g2\csrc/u8x8_d_uc1608.c ****       if ( arg_int == 0 )
 149              		.loc 1 118 0
 150 007e 002A     		cmp	r2, #0
 151 0080 06D1     		bne	.L10
 119:..\..\u8g2\csrc/u8x8_d_uc1608.c ****       {
 120:..\..\u8g2\csrc/u8x8_d_uc1608.c **** 	u8x8_cad_SendSequence(u8x8, u8x8_d_uc1608_flip0_seq);
 152              		.loc 1 120 0
 153 0082 0A31     		adds	r1, r1, #10
 154 0084 2000     		movs	r0, r4
 155 0086 FFF7FEFF 		bl	u8x8_cad_SendSequence
 156              	.LVL22:
 121:..\..\u8g2\csrc/u8x8_d_uc1608.c **** 	u8x8->x_offset = u8x8->display_info->default_x_offset;
 157              		.loc 1 121 0
ARM GAS  C:\Users\Alan\AppData\Local\Temp\ccNKkP97.s 			page 6


 158 008a 2368     		ldr	r3, [r4]
 159 008c 9B7C     		ldrb	r3, [r3, #18]
 160 008e 05E0     		b	.L14
 161              	.LVL23:
 162              	.L10:
 122:..\..\u8g2\csrc/u8x8_d_uc1608.c ****       }
 123:..\..\u8g2\csrc/u8x8_d_uc1608.c ****       else
 124:..\..\u8g2\csrc/u8x8_d_uc1608.c ****       {
 125:..\..\u8g2\csrc/u8x8_d_uc1608.c **** 	u8x8_cad_SendSequence(u8x8, u8x8_d_uc1608_flip1_seq);
 163              		.loc 1 125 0
 164 0090 0F31     		adds	r1, r1, #15
 165 0092 2000     		movs	r0, r4
 166 0094 FFF7FEFF 		bl	u8x8_cad_SendSequence
 167              	.LVL24:
 126:..\..\u8g2\csrc/u8x8_d_uc1608.c **** 	u8x8->x_offset = u8x8->display_info->flipmode_x_offset;
 168              		.loc 1 126 0
 169 0098 2368     		ldr	r3, [r4]
 170 009a DB7C     		ldrb	r3, [r3, #19]
 171              	.L14:
 172 009c A377     		strb	r3, [r4, #30]
 173              	.LVL25:
 174              	.L13:
 127:..\..\u8g2\csrc/u8x8_d_uc1608.c ****       }	
 128:..\..\u8g2\csrc/u8x8_d_uc1608.c ****       break;
 129:..\..\u8g2\csrc/u8x8_d_uc1608.c **** #ifdef U8X8_WITH_SET_CONTRAST
 130:..\..\u8g2\csrc/u8x8_d_uc1608.c ****     case U8X8_MSG_DISPLAY_SET_CONTRAST:
 131:..\..\u8g2\csrc/u8x8_d_uc1608.c ****       u8x8_cad_StartTransfer(u8x8);
 132:..\..\u8g2\csrc/u8x8_d_uc1608.c ****       u8x8_cad_SendCmd(u8x8, 0x081 );
 133:..\..\u8g2\csrc/u8x8_d_uc1608.c ****       u8x8_cad_SendArg(u8x8, arg_int  );	/* uc1608 has range from 0 to 255 */
 134:..\..\u8g2\csrc/u8x8_d_uc1608.c ****       u8x8_cad_EndTransfer(u8x8);
 135:..\..\u8g2\csrc/u8x8_d_uc1608.c ****       break;
 136:..\..\u8g2\csrc/u8x8_d_uc1608.c **** #endif
 137:..\..\u8g2\csrc/u8x8_d_uc1608.c ****     default:
 138:..\..\u8g2\csrc/u8x8_d_uc1608.c ****       return 0;
 139:..\..\u8g2\csrc/u8x8_d_uc1608.c ****   }
 140:..\..\u8g2\csrc/u8x8_d_uc1608.c ****   return 1;
 175              		.loc 1 140 0
 176 009e 0120     		movs	r0, #1
 177 00a0 0FE0     		b	.L2
 178              	.LVL26:
 179              	.L6:
 131:..\..\u8g2\csrc/u8x8_d_uc1608.c ****       u8x8_cad_SendCmd(u8x8, 0x081 );
 180              		.loc 1 131 0
 181 00a2 2000     		movs	r0, r4
 182 00a4 FFF7FEFF 		bl	u8x8_cad_StartTransfer
 183              	.LVL27:
 132:..\..\u8g2\csrc/u8x8_d_uc1608.c ****       u8x8_cad_SendArg(u8x8, arg_int  );	/* uc1608 has range from 0 to 255 */
 184              		.loc 1 132 0
 185 00a8 8121     		movs	r1, #129
 186 00aa 2000     		movs	r0, r4
 187 00ac FFF7FEFF 		bl	u8x8_cad_SendCmd
 188              	.LVL28:
 133:..\..\u8g2\csrc/u8x8_d_uc1608.c ****       u8x8_cad_EndTransfer(u8x8);
 189              		.loc 1 133 0
 190 00b0 3100     		movs	r1, r6
 191 00b2 2000     		movs	r0, r4
 192 00b4 FFF7FEFF 		bl	u8x8_cad_SendArg
ARM GAS  C:\Users\Alan\AppData\Local\Temp\ccNKkP97.s 			page 7


 193              	.LVL29:
 194              	.L16:
 134:..\..\u8g2\csrc/u8x8_d_uc1608.c ****       break;
 195              		.loc 1 134 0
 196 00b8 2000     		movs	r0, r4
 197 00ba FFF7FEFF 		bl	u8x8_cad_EndTransfer
 198              	.LVL30:
 199 00be EEE7     		b	.L13
 200              	.LVL31:
 201              	.L11:
 138:..\..\u8g2\csrc/u8x8_d_uc1608.c ****   }
 202              		.loc 1 138 0
 203 00c0 0020     		movs	r0, #0
 204              	.LVL32:
 205              	.L2:
 141:..\..\u8g2\csrc/u8x8_d_uc1608.c **** }
 206              		.loc 1 141 0
 207              		@ sp needed
 208              	.LVL33:
 209 00c2 F8BD     		pop	{r3, r4, r5, r6, r7, pc}
 210              	.L19:
 211              		.align	2
 212              	.L18:
 213 00c4 00000000 		.word	.LANCHOR0
 214              		.cfi_endproc
 215              	.LFE0:
 216              		.size	u8x8_d_uc1608_common, .-u8x8_d_uc1608_common
 217              		.section	.text.u8x8_d_uc1608_erc24064,"ax",%progbits
 218              		.align	1
 219              		.global	u8x8_d_uc1608_erc24064
 220              		.code	16
 221              		.thumb_func
 222              		.type	u8x8_d_uc1608_erc24064, %function
 223              	u8x8_d_uc1608_erc24064:
 224              	.LFB1:
 142:..\..\u8g2\csrc/u8x8_d_uc1608.c **** 
 143:..\..\u8g2\csrc/u8x8_d_uc1608.c **** /*================================================*/
 144:..\..\u8g2\csrc/u8x8_d_uc1608.c **** /* ERC24064-1 */
 145:..\..\u8g2\csrc/u8x8_d_uc1608.c **** 
 146:..\..\u8g2\csrc/u8x8_d_uc1608.c **** /*
 147:..\..\u8g2\csrc/u8x8_d_uc1608.c ****   The UC1608 has only one high active chip select input.
 148:..\..\u8g2\csrc/u8x8_d_uc1608.c ****   UC1604, UC1610 and UC1611 have two chip select inputs.
 149:..\..\u8g2\csrc/u8x8_d_uc1608.c **** */
 150:..\..\u8g2\csrc/u8x8_d_uc1608.c **** 
 151:..\..\u8g2\csrc/u8x8_d_uc1608.c **** static const u8x8_display_info_t u8x8_uc1608_240x64_display_info =
 152:..\..\u8g2\csrc/u8x8_d_uc1608.c **** {
 153:..\..\u8g2\csrc/u8x8_d_uc1608.c ****   /* chip_enable_level = */ 1,	/* uc1608 has high active CS */
 154:..\..\u8g2\csrc/u8x8_d_uc1608.c ****   /* chip_disable_level = */ 0,
 155:..\..\u8g2\csrc/u8x8_d_uc1608.c ****   
 156:..\..\u8g2\csrc/u8x8_d_uc1608.c ****   /* post_chip_enable_wait_ns = */ 10,	/* uc1608 datasheet, page 39, actually 0 */
 157:..\..\u8g2\csrc/u8x8_d_uc1608.c ****   /* pre_chip_disable_wait_ns = */ 20,	/* uc1608 datasheet, page 39 */
 158:..\..\u8g2\csrc/u8x8_d_uc1608.c ****   /* reset_pulse_width_ms = */ 1, 	/* uc1608 datasheet, page 42 */
 159:..\..\u8g2\csrc/u8x8_d_uc1608.c ****   /* post_reset_wait_ms = */ 10, 	
 160:..\..\u8g2\csrc/u8x8_d_uc1608.c ****   /* sda_setup_time_ns = */ 30,		/* uc1608 datasheet, page 41 */
 161:..\..\u8g2\csrc/u8x8_d_uc1608.c ****   /* sck_pulse_width_ns = */ 65,	/* half of cycle time  */
 162:..\..\u8g2\csrc/u8x8_d_uc1608.c ****   /* sck_clock_hz = */ 8000000UL,	/* since Arduino 1.6.0, the SPI bus speed in Hz. Should be  10000
 163:..\..\u8g2\csrc/u8x8_d_uc1608.c ****   /* spi_mode = */ 0,		/* active high, rising edge */
ARM GAS  C:\Users\Alan\AppData\Local\Temp\ccNKkP97.s 			page 8


 164:..\..\u8g2\csrc/u8x8_d_uc1608.c ****   /* i2c_bus_clock_100kHz = */ 4,
 165:..\..\u8g2\csrc/u8x8_d_uc1608.c ****   /* data_setup_time_ns = */ 30,	/* uc1608 datasheet, page 39 */
 166:..\..\u8g2\csrc/u8x8_d_uc1608.c ****   /* write_pulse_width_ns = */ 35,	/* uc1608 datasheet, page 39 */
 167:..\..\u8g2\csrc/u8x8_d_uc1608.c ****   /* tile_width = */ 30,		/* width of 30*8=240 pixel */
 168:..\..\u8g2\csrc/u8x8_d_uc1608.c ****   /* tile_hight = */ 8,
 169:..\..\u8g2\csrc/u8x8_d_uc1608.c ****   /* default_x_offset = */ 0,	/* reused as y page offset */
 170:..\..\u8g2\csrc/u8x8_d_uc1608.c ****   /* flipmode_x_offset = */ 4,	/* reused as y page offset */
 171:..\..\u8g2\csrc/u8x8_d_uc1608.c ****   /* pixel_width = */ 240,
 172:..\..\u8g2\csrc/u8x8_d_uc1608.c ****   /* pixel_height = */ 64
 173:..\..\u8g2\csrc/u8x8_d_uc1608.c **** };
 174:..\..\u8g2\csrc/u8x8_d_uc1608.c **** 
 175:..\..\u8g2\csrc/u8x8_d_uc1608.c **** static const uint8_t u8x8_d_uc1608_erc24064_init_seq[] = {
 176:..\..\u8g2\csrc/u8x8_d_uc1608.c ****     
 177:..\..\u8g2\csrc/u8x8_d_uc1608.c ****   U8X8_START_TRANSFER(),             	/* enable chip, delay is part of the transfer start */
 178:..\..\u8g2\csrc/u8x8_d_uc1608.c **** 
 179:..\..\u8g2\csrc/u8x8_d_uc1608.c ****   U8X8_C(0x0e2),            			/* soft reset */
 180:..\..\u8g2\csrc/u8x8_d_uc1608.c ****   U8X8_DLY(200),
 181:..\..\u8g2\csrc/u8x8_d_uc1608.c **** 
 182:..\..\u8g2\csrc/u8x8_d_uc1608.c ****   U8X8_C(0x023),            			/* Bit 0/1: Temp compenstation, Bit 2: Multiplex Rate 0=96, 1=128 */
 183:..\..\u8g2\csrc/u8x8_d_uc1608.c ****   //U8X8_C(0x027),            			/* Bit 0/1: Temp compenstation, Bit 2: Multiplex Rate 0=96, 1=128 
 184:..\..\u8g2\csrc/u8x8_d_uc1608.c **** 
 185:..\..\u8g2\csrc/u8x8_d_uc1608.c ****   U8X8_C(0x0c8),            			/* Map control, Bit 3: MY=1, Bit 2: MX=0, Bit 0: MSF =0 */
 186:..\..\u8g2\csrc/u8x8_d_uc1608.c ****   U8X8_C(0x0e8),            			/* LCD bias Bits 0/1: 00=10.7 01=10.3, 10=12.0, 11=12.7 */
 187:..\..\u8g2\csrc/u8x8_d_uc1608.c ****   
 188:..\..\u8g2\csrc/u8x8_d_uc1608.c ****   U8X8_C(0x02f),            			/* power on, Bit 2 PC2=1 (internal charge pump), Bits 0/1: cap of pa
 189:..\..\u8g2\csrc/u8x8_d_uc1608.c ****   U8X8_DLY(50),
 190:..\..\u8g2\csrc/u8x8_d_uc1608.c ****   
 191:..\..\u8g2\csrc/u8x8_d_uc1608.c ****   U8X8_C(0x040),            			/* set display start line to 0 */
 192:..\..\u8g2\csrc/u8x8_d_uc1608.c ****   U8X8_C(0x090),            			/* no fixed lines */
 193:..\..\u8g2\csrc/u8x8_d_uc1608.c ****   U8X8_C(0x089),            			/* RAM access control */
 194:..\..\u8g2\csrc/u8x8_d_uc1608.c ****   
 195:..\..\u8g2\csrc/u8x8_d_uc1608.c ****   U8X8_CA(0x081, 0x014),		/* set contrast, ERC24064-1 default: 0x040 */
 196:..\..\u8g2\csrc/u8x8_d_uc1608.c ****   
 197:..\..\u8g2\csrc/u8x8_d_uc1608.c ****   U8X8_C(0x000),		                /* column low nibble */
 198:..\..\u8g2\csrc/u8x8_d_uc1608.c ****   U8X8_C(0x010),		                /* column high nibble */  
 199:..\..\u8g2\csrc/u8x8_d_uc1608.c ****   U8X8_C(0x0b0),		                /* page adr  */
 200:..\..\u8g2\csrc/u8x8_d_uc1608.c ****   
 201:..\..\u8g2\csrc/u8x8_d_uc1608.c ****   
 202:..\..\u8g2\csrc/u8x8_d_uc1608.c ****   U8X8_END_TRANSFER(),             	/* disable chip */
 203:..\..\u8g2\csrc/u8x8_d_uc1608.c ****   U8X8_END()             			/* end of sequence */
 204:..\..\u8g2\csrc/u8x8_d_uc1608.c **** };
 205:..\..\u8g2\csrc/u8x8_d_uc1608.c **** 
 206:..\..\u8g2\csrc/u8x8_d_uc1608.c **** uint8_t u8x8_d_uc1608_erc24064(u8x8_t *u8x8, uint8_t msg, uint8_t arg_int, void *arg_ptr)
 207:..\..\u8g2\csrc/u8x8_d_uc1608.c **** {
 225              		.loc 1 207 0
 226              		.cfi_startproc
 227              		@ args = 0, pretend = 0, frame = 0
 228              		@ frame_needed = 0, uses_anonymous_args = 0
 229              	.LVL34:
 230 0000 70B5     		push	{r4, r5, r6, lr}
 231              		.cfi_def_cfa_offset 16
 232              		.cfi_offset 4, -16
 233              		.cfi_offset 5, -12
 234              		.cfi_offset 6, -8
 235              		.cfi_offset 14, -4
 236              		.loc 1 207 0
 237 0002 0400     		movs	r4, r0
ARM GAS  C:\Users\Alan\AppData\Local\Temp\ccNKkP97.s 			page 9


 238 0004 0D00     		movs	r5, r1
 208:..\..\u8g2\csrc/u8x8_d_uc1608.c ****   /* call common procedure first and handle messages there */
 209:..\..\u8g2\csrc/u8x8_d_uc1608.c ****   if ( u8x8_d_uc1608_common(u8x8, msg, arg_int, arg_ptr) == 0 )
 239              		.loc 1 209 0
 240 0006 FFF7FEFF 		bl	u8x8_d_uc1608_common
 241              	.LVL35:
 242 000a 0028     		cmp	r0, #0
 243 000c 11D1     		bne	.L24
 210:..\..\u8g2\csrc/u8x8_d_uc1608.c ****   {
 211:..\..\u8g2\csrc/u8x8_d_uc1608.c ****     /* msg not handled, then try here */
 212:..\..\u8g2\csrc/u8x8_d_uc1608.c ****     switch(msg)
 244              		.loc 1 212 0
 245 000e 092D     		cmp	r5, #9
 246 0010 0AD0     		beq	.L22
 247 0012 0A2D     		cmp	r5, #10
 248 0014 0ED1     		bne	.L21
 213:..\..\u8g2\csrc/u8x8_d_uc1608.c ****     {
 214:..\..\u8g2\csrc/u8x8_d_uc1608.c ****       case U8X8_MSG_DISPLAY_SETUP_MEMORY:
 215:..\..\u8g2\csrc/u8x8_d_uc1608.c **** 	u8x8_d_helper_display_setup_memory(u8x8, &u8x8_uc1608_240x64_display_info);
 216:..\..\u8g2\csrc/u8x8_d_uc1608.c **** 	break;
 217:..\..\u8g2\csrc/u8x8_d_uc1608.c ****       case U8X8_MSG_DISPLAY_INIT:
 218:..\..\u8g2\csrc/u8x8_d_uc1608.c **** 	u8x8_d_helper_display_init(u8x8);
 249              		.loc 1 218 0
 250 0016 2000     		movs	r0, r4
 251 0018 FFF7FEFF 		bl	u8x8_d_helper_display_init
 252              	.LVL36:
 219:..\..\u8g2\csrc/u8x8_d_uc1608.c **** 	u8x8_cad_SendSequence(u8x8, u8x8_d_uc1608_erc24064_init_seq);
 253              		.loc 1 219 0
 254 001c 0649     		ldr	r1, .L25
 255 001e 2000     		movs	r0, r4
 256 0020 2C31     		adds	r1, r1, #44
 257 0022 FFF7FEFF 		bl	u8x8_cad_SendSequence
 258              	.LVL37:
 259 0026 04E0     		b	.L24
 260              	.L22:
 215:..\..\u8g2\csrc/u8x8_d_uc1608.c **** 	break;
 261              		.loc 1 215 0
 262 0028 0349     		ldr	r1, .L25
 263 002a 2000     		movs	r0, r4
 264 002c 1431     		adds	r1, r1, #20
 265 002e FFF7FEFF 		bl	u8x8_d_helper_display_setup_memory
 266              	.LVL38:
 267              	.L24:
 220:..\..\u8g2\csrc/u8x8_d_uc1608.c **** 	break;
 221:..\..\u8g2\csrc/u8x8_d_uc1608.c ****       default:
 222:..\..\u8g2\csrc/u8x8_d_uc1608.c **** 	return 0;		/* msg unknown */
 223:..\..\u8g2\csrc/u8x8_d_uc1608.c ****     }
 224:..\..\u8g2\csrc/u8x8_d_uc1608.c ****   }
 225:..\..\u8g2\csrc/u8x8_d_uc1608.c ****   return 1;
 268              		.loc 1 225 0
 269 0032 0120     		movs	r0, #1
 270              	.L21:
 226:..\..\u8g2\csrc/u8x8_d_uc1608.c **** }
 271              		.loc 1 226 0
 272              		@ sp needed
 273              	.LVL39:
 274 0034 70BD     		pop	{r4, r5, r6, pc}
ARM GAS  C:\Users\Alan\AppData\Local\Temp\ccNKkP97.s 			page 10


 275              	.L26:
 276 0036 C046     		.align	2
 277              	.L25:
 278 0038 00000000 		.word	.LANCHOR0
 279              		.cfi_endproc
 280              	.LFE1:
 281              		.size	u8x8_d_uc1608_erc24064, .-u8x8_d_uc1608_erc24064
 282              		.section	.text.u8x8_d_uc1608_240x128,"ax",%progbits
 283              		.align	1
 284              		.global	u8x8_d_uc1608_240x128
 285              		.code	16
 286              		.thumb_func
 287              		.type	u8x8_d_uc1608_240x128, %function
 288              	u8x8_d_uc1608_240x128:
 289              	.LFB2:
 227:..\..\u8g2\csrc/u8x8_d_uc1608.c **** 
 228:..\..\u8g2\csrc/u8x8_d_uc1608.c **** 
 229:..\..\u8g2\csrc/u8x8_d_uc1608.c **** /*================================================*/
 230:..\..\u8g2\csrc/u8x8_d_uc1608.c **** /* experimental implementation for the uc1608 240x128, not referenced in codebuild */
 231:..\..\u8g2\csrc/u8x8_d_uc1608.c **** 
 232:..\..\u8g2\csrc/u8x8_d_uc1608.c **** static const u8x8_display_info_t u8x8_uc1608_240x128_display_info =
 233:..\..\u8g2\csrc/u8x8_d_uc1608.c **** {
 234:..\..\u8g2\csrc/u8x8_d_uc1608.c ****   /* chip_enable_level = */ 1,	/* uc1608 has high active CS */
 235:..\..\u8g2\csrc/u8x8_d_uc1608.c ****   /* chip_disable_level = */ 0,
 236:..\..\u8g2\csrc/u8x8_d_uc1608.c ****   
 237:..\..\u8g2\csrc/u8x8_d_uc1608.c ****   /* post_chip_enable_wait_ns = */ 10,	/* uc1608 datasheet, page 39, actually 0 */
 238:..\..\u8g2\csrc/u8x8_d_uc1608.c ****   /* pre_chip_disable_wait_ns = */ 20,	/* uc1608 datasheet, page 39 */
 239:..\..\u8g2\csrc/u8x8_d_uc1608.c ****   /* reset_pulse_width_ms = */ 1, 	/* uc1608 datasheet, page 42 */
 240:..\..\u8g2\csrc/u8x8_d_uc1608.c ****   /* post_reset_wait_ms = */ 10, 	
 241:..\..\u8g2\csrc/u8x8_d_uc1608.c ****   /* sda_setup_time_ns = */ 30,		/* uc1608 datasheet, page 41 */
 242:..\..\u8g2\csrc/u8x8_d_uc1608.c ****   /* sck_pulse_width_ns = */ 65,	/* half of cycle time  */
 243:..\..\u8g2\csrc/u8x8_d_uc1608.c ****   /* sck_clock_hz = */ 8000000UL,	/* since Arduino 1.6.0, the SPI bus speed in Hz. Should be  10000
 244:..\..\u8g2\csrc/u8x8_d_uc1608.c ****   /* spi_mode = */ 0,		/* active high, rising edge */
 245:..\..\u8g2\csrc/u8x8_d_uc1608.c ****   /* i2c_bus_clock_100kHz = */ 4,
 246:..\..\u8g2\csrc/u8x8_d_uc1608.c ****   /* data_setup_time_ns = */ 30,	/* uc1608 datasheet, page 39 */
 247:..\..\u8g2\csrc/u8x8_d_uc1608.c ****   /* write_pulse_width_ns = */ 35,	/* uc1608 datasheet, page 39 */
 248:..\..\u8g2\csrc/u8x8_d_uc1608.c ****   /* tile_width = */ 30,		/* width of 30*8=240 pixel */
 249:..\..\u8g2\csrc/u8x8_d_uc1608.c ****   /* tile_hight = */ 16,
 250:..\..\u8g2\csrc/u8x8_d_uc1608.c ****   /* default_x_offset = */ 0,	/* reused as y page offset */
 251:..\..\u8g2\csrc/u8x8_d_uc1608.c ****   /* flipmode_x_offset = */ 0,	/* reused as y page offset */
 252:..\..\u8g2\csrc/u8x8_d_uc1608.c ****   /* pixel_width = */ 240,
 253:..\..\u8g2\csrc/u8x8_d_uc1608.c ****   /* pixel_height = */ 128
 254:..\..\u8g2\csrc/u8x8_d_uc1608.c **** };
 255:..\..\u8g2\csrc/u8x8_d_uc1608.c **** 
 256:..\..\u8g2\csrc/u8x8_d_uc1608.c **** static const uint8_t u8x8_d_uc1608_240x128_init_seq[] = {
 257:..\..\u8g2\csrc/u8x8_d_uc1608.c ****     
 258:..\..\u8g2\csrc/u8x8_d_uc1608.c ****   U8X8_START_TRANSFER(),             	/* enable chip, delay is part of the transfer start */
 259:..\..\u8g2\csrc/u8x8_d_uc1608.c **** 
 260:..\..\u8g2\csrc/u8x8_d_uc1608.c ****   U8X8_C(0x0e2),            			/* soft reset */
 261:..\..\u8g2\csrc/u8x8_d_uc1608.c ****   U8X8_DLY(200),
 262:..\..\u8g2\csrc/u8x8_d_uc1608.c **** 
 263:..\..\u8g2\csrc/u8x8_d_uc1608.c ****   //U8X8_C(0x023),            			/* Bit 0/1: Temp compenstation, Bit 2: Multiplex Rate 0=96, 1=128 
 264:..\..\u8g2\csrc/u8x8_d_uc1608.c ****   U8X8_C(0x026),            			/* Bit 0/1: Temp compenstation, Bit 2: Multiplex Rate 0=96, 1=128 */
 265:..\..\u8g2\csrc/u8x8_d_uc1608.c **** 
 266:..\..\u8g2\csrc/u8x8_d_uc1608.c ****   U8X8_C(0x0c8),            			/* Map control, Bit 3: MY=1, Bit 2: MX=0, Bit 0: MSF =0 */
 267:..\..\u8g2\csrc/u8x8_d_uc1608.c ****   U8X8_C(0x0ea),            			/* LCD bias Bits 0/1: 00=10.7 01=10.3, 10=12.0, 11=12.7 */
 268:..\..\u8g2\csrc/u8x8_d_uc1608.c **** 							/* maybe 0x0eb??? */
ARM GAS  C:\Users\Alan\AppData\Local\Temp\ccNKkP97.s 			page 11


 269:..\..\u8g2\csrc/u8x8_d_uc1608.c ****   
 270:..\..\u8g2\csrc/u8x8_d_uc1608.c ****   U8X8_C(0x02f),            			/* power on, Bit 2 PC2=1 (internal charge pump), Bits 0/1: cap of pa
 271:..\..\u8g2\csrc/u8x8_d_uc1608.c ****   U8X8_DLY(50),
 272:..\..\u8g2\csrc/u8x8_d_uc1608.c ****   
 273:..\..\u8g2\csrc/u8x8_d_uc1608.c ****   U8X8_C(0x040),            			/* set display start line to 0 */
 274:..\..\u8g2\csrc/u8x8_d_uc1608.c ****   U8X8_C(0x090),            			/* no fixed lines */
 275:..\..\u8g2\csrc/u8x8_d_uc1608.c ****   U8X8_C(0x089),            			/* RAM access control */
 276:..\..\u8g2\csrc/u8x8_d_uc1608.c ****   
 277:..\..\u8g2\csrc/u8x8_d_uc1608.c ****   U8X8_CA(0x081, 0x072),		/* set contrast  */
 278:..\..\u8g2\csrc/u8x8_d_uc1608.c ****   
 279:..\..\u8g2\csrc/u8x8_d_uc1608.c ****   U8X8_C(0x000),		                /* column low nibble */
 280:..\..\u8g2\csrc/u8x8_d_uc1608.c ****   U8X8_C(0x010),		                /* column high nibble */  
 281:..\..\u8g2\csrc/u8x8_d_uc1608.c ****   U8X8_C(0x0b0),		                /* page adr  */
 282:..\..\u8g2\csrc/u8x8_d_uc1608.c ****   
 283:..\..\u8g2\csrc/u8x8_d_uc1608.c ****   
 284:..\..\u8g2\csrc/u8x8_d_uc1608.c ****   U8X8_END_TRANSFER(),             	/* disable chip */
 285:..\..\u8g2\csrc/u8x8_d_uc1608.c ****   U8X8_END()             			/* end of sequence */
 286:..\..\u8g2\csrc/u8x8_d_uc1608.c **** };
 287:..\..\u8g2\csrc/u8x8_d_uc1608.c **** 
 288:..\..\u8g2\csrc/u8x8_d_uc1608.c **** uint8_t u8x8_d_uc1608_240x128(u8x8_t *u8x8, uint8_t msg, uint8_t arg_int, void *arg_ptr)
 289:..\..\u8g2\csrc/u8x8_d_uc1608.c **** {
 290              		.loc 1 289 0
 291              		.cfi_startproc
 292              		@ args = 0, pretend = 0, frame = 0
 293              		@ frame_needed = 0, uses_anonymous_args = 0
 294              	.LVL40:
 295 0000 70B5     		push	{r4, r5, r6, lr}
 296              		.cfi_def_cfa_offset 16
 297              		.cfi_offset 4, -16
 298              		.cfi_offset 5, -12
 299              		.cfi_offset 6, -8
 300              		.cfi_offset 14, -4
 301              		.loc 1 289 0
 302 0002 0400     		movs	r4, r0
 303 0004 0D00     		movs	r5, r1
 290:..\..\u8g2\csrc/u8x8_d_uc1608.c ****   /* call common procedure first and handle messages there */
 291:..\..\u8g2\csrc/u8x8_d_uc1608.c ****   if ( u8x8_d_uc1608_common(u8x8, msg, arg_int, arg_ptr) == 0 )
 304              		.loc 1 291 0
 305 0006 FFF7FEFF 		bl	u8x8_d_uc1608_common
 306              	.LVL41:
 307 000a 0028     		cmp	r0, #0
 308 000c 11D1     		bne	.L31
 292:..\..\u8g2\csrc/u8x8_d_uc1608.c ****   {
 293:..\..\u8g2\csrc/u8x8_d_uc1608.c ****     /* msg not handled, then try here */
 294:..\..\u8g2\csrc/u8x8_d_uc1608.c ****     switch(msg)
 309              		.loc 1 294 0
 310 000e 092D     		cmp	r5, #9
 311 0010 0AD0     		beq	.L29
 312 0012 0A2D     		cmp	r5, #10
 313 0014 0ED1     		bne	.L28
 295:..\..\u8g2\csrc/u8x8_d_uc1608.c ****     {
 296:..\..\u8g2\csrc/u8x8_d_uc1608.c ****       case U8X8_MSG_DISPLAY_SETUP_MEMORY:
 297:..\..\u8g2\csrc/u8x8_d_uc1608.c **** 	u8x8_d_helper_display_setup_memory(u8x8, &u8x8_uc1608_240x128_display_info);
 298:..\..\u8g2\csrc/u8x8_d_uc1608.c **** 	break;
 299:..\..\u8g2\csrc/u8x8_d_uc1608.c ****       case U8X8_MSG_DISPLAY_INIT:
 300:..\..\u8g2\csrc/u8x8_d_uc1608.c **** 	u8x8_d_helper_display_init(u8x8);
 314              		.loc 1 300 0
ARM GAS  C:\Users\Alan\AppData\Local\Temp\ccNKkP97.s 			page 12


 315 0016 2000     		movs	r0, r4
 316 0018 FFF7FEFF 		bl	u8x8_d_helper_display_init
 317              	.LVL42:
 301:..\..\u8g2\csrc/u8x8_d_uc1608.c **** 	u8x8_cad_SendSequence(u8x8, u8x8_d_uc1608_240x128_init_seq);
 318              		.loc 1 301 0
 319 001c 0649     		ldr	r1, .L32
 320 001e 2000     		movs	r0, r4
 321 0020 6831     		adds	r1, r1, #104
 322 0022 FFF7FEFF 		bl	u8x8_cad_SendSequence
 323              	.LVL43:
 324 0026 04E0     		b	.L31
 325              	.L29:
 297:..\..\u8g2\csrc/u8x8_d_uc1608.c **** 	break;
 326              		.loc 1 297 0
 327 0028 0349     		ldr	r1, .L32
 328 002a 2000     		movs	r0, r4
 329 002c 5031     		adds	r1, r1, #80
 330 002e FFF7FEFF 		bl	u8x8_d_helper_display_setup_memory
 331              	.LVL44:
 332              	.L31:
 302:..\..\u8g2\csrc/u8x8_d_uc1608.c **** 	break;
 303:..\..\u8g2\csrc/u8x8_d_uc1608.c ****       default:
 304:..\..\u8g2\csrc/u8x8_d_uc1608.c **** 	return 0;		/* msg unknown */
 305:..\..\u8g2\csrc/u8x8_d_uc1608.c ****     }
 306:..\..\u8g2\csrc/u8x8_d_uc1608.c ****   }
 307:..\..\u8g2\csrc/u8x8_d_uc1608.c ****   return 1;
 333              		.loc 1 307 0
 334 0032 0120     		movs	r0, #1
 335              	.L28:
 308:..\..\u8g2\csrc/u8x8_d_uc1608.c **** }
 336              		.loc 1 308 0
 337              		@ sp needed
 338              	.LVL45:
 339 0034 70BD     		pop	{r4, r5, r6, pc}
 340              	.L33:
 341 0036 C046     		.align	2
 342              	.L32:
 343 0038 00000000 		.word	.LANCHOR0
 344              		.cfi_endproc
 345              	.LFE2:
 346              		.size	u8x8_d_uc1608_240x128, .-u8x8_d_uc1608_240x128
 347              		.section	.rodata
 348              		.align	2
 349              		.set	.LANCHOR0,. + 0
 350              		.type	u8x8_d_uc1608_powersave0_seq, %object
 351              		.size	u8x8_d_uc1608_powersave0_seq, 5
 352              	u8x8_d_uc1608_powersave0_seq:
 353 0000 18       		.byte	24
 354 0001 15       		.byte	21
 355 0002 AF       		.byte	-81
 356 0003 19       		.byte	25
 357 0004 FF       		.byte	-1
 358              		.type	u8x8_d_uc1608_powersave1_seq, %object
 359              		.size	u8x8_d_uc1608_powersave1_seq, 5
 360              	u8x8_d_uc1608_powersave1_seq:
 361 0005 18       		.byte	24
 362 0006 15       		.byte	21
ARM GAS  C:\Users\Alan\AppData\Local\Temp\ccNKkP97.s 			page 13


 363 0007 AE       		.byte	-82
 364 0008 19       		.byte	25
 365 0009 FF       		.byte	-1
 366              		.type	u8x8_d_uc1608_flip0_seq, %object
 367              		.size	u8x8_d_uc1608_flip0_seq, 5
 368              	u8x8_d_uc1608_flip0_seq:
 369 000a 18       		.byte	24
 370 000b 15       		.byte	21
 371 000c C8       		.byte	-56
 372 000d 19       		.byte	25
 373 000e FF       		.byte	-1
 374              		.type	u8x8_d_uc1608_flip1_seq, %object
 375              		.size	u8x8_d_uc1608_flip1_seq, 5
 376              	u8x8_d_uc1608_flip1_seq:
 377 000f 18       		.byte	24
 378 0010 15       		.byte	21
 379 0011 C4       		.byte	-60
 380 0012 19       		.byte	25
 381 0013 FF       		.byte	-1
 382              		.type	u8x8_uc1608_240x64_display_info, %object
 383              		.size	u8x8_uc1608_240x64_display_info, 24
 384              	u8x8_uc1608_240x64_display_info:
 385 0014 01       		.byte	1
 386 0015 00       		.byte	0
 387 0016 0A       		.byte	10
 388 0017 14       		.byte	20
 389 0018 01       		.byte	1
 390 0019 0A       		.byte	10
 391 001a 1E       		.byte	30
 392 001b 41       		.byte	65
 393 001c 00127A00 		.word	8000000
 394 0020 00       		.byte	0
 395 0021 04       		.byte	4
 396 0022 1E       		.byte	30
 397 0023 23       		.byte	35
 398 0024 1E       		.byte	30
 399 0025 08       		.byte	8
 400 0026 00       		.byte	0
 401 0027 04       		.byte	4
 402 0028 F000     		.short	240
 403 002a 4000     		.short	64
 404              		.type	u8x8_d_uc1608_erc24064_init_seq, %object
 405              		.size	u8x8_d_uc1608_erc24064_init_seq, 33
 406              	u8x8_d_uc1608_erc24064_init_seq:
 407 002c 18       		.byte	24
 408 002d 15       		.byte	21
 409 002e E2       		.byte	-30
 410 002f FE       		.byte	-2
 411 0030 C8       		.byte	-56
 412 0031 15       		.byte	21
 413 0032 23       		.byte	35
 414 0033 15       		.byte	21
 415 0034 C8       		.byte	-56
 416 0035 15       		.byte	21
 417 0036 E8       		.byte	-24
 418 0037 15       		.byte	21
 419 0038 2F       		.byte	47
ARM GAS  C:\Users\Alan\AppData\Local\Temp\ccNKkP97.s 			page 14


 420 0039 FE       		.byte	-2
 421 003a 32       		.byte	50
 422 003b 15       		.byte	21
 423 003c 40       		.byte	64
 424 003d 15       		.byte	21
 425 003e 90       		.byte	-112
 426 003f 15       		.byte	21
 427 0040 89       		.byte	-119
 428 0041 15       		.byte	21
 429 0042 81       		.byte	-127
 430 0043 16       		.byte	22
 431 0044 14       		.byte	20
 432 0045 15       		.byte	21
 433 0046 00       		.byte	0
 434 0047 15       		.byte	21
 435 0048 10       		.byte	16
 436 0049 15       		.byte	21
 437 004a B0       		.byte	-80
 438 004b 19       		.byte	25
 439 004c FF       		.byte	-1
 440 004d 000000   		.space	3
 441              		.type	u8x8_uc1608_240x128_display_info, %object
 442              		.size	u8x8_uc1608_240x128_display_info, 24
 443              	u8x8_uc1608_240x128_display_info:
 444 0050 01       		.byte	1
 445 0051 00       		.byte	0
 446 0052 0A       		.byte	10
 447 0053 14       		.byte	20
 448 0054 01       		.byte	1
 449 0055 0A       		.byte	10
 450 0056 1E       		.byte	30
 451 0057 41       		.byte	65
 452 0058 00127A00 		.word	8000000
 453 005c 00       		.byte	0
 454 005d 04       		.byte	4
 455 005e 1E       		.byte	30
 456 005f 23       		.byte	35
 457 0060 1E       		.byte	30
 458 0061 10       		.byte	16
 459 0062 00       		.byte	0
 460 0063 00       		.byte	0
 461 0064 F000     		.short	240
 462 0066 8000     		.short	128
 463              		.type	u8x8_d_uc1608_240x128_init_seq, %object
 464              		.size	u8x8_d_uc1608_240x128_init_seq, 33
 465              	u8x8_d_uc1608_240x128_init_seq:
 466 0068 18       		.byte	24
 467 0069 15       		.byte	21
 468 006a E2       		.byte	-30
 469 006b FE       		.byte	-2
 470 006c C8       		.byte	-56
 471 006d 15       		.byte	21
 472 006e 26       		.byte	38
 473 006f 15       		.byte	21
 474 0070 C8       		.byte	-56
 475 0071 15       		.byte	21
 476 0072 EA       		.byte	-22
ARM GAS  C:\Users\Alan\AppData\Local\Temp\ccNKkP97.s 			page 15


 477 0073 15       		.byte	21
 478 0074 2F       		.byte	47
 479 0075 FE       		.byte	-2
 480 0076 32       		.byte	50
 481 0077 15       		.byte	21
 482 0078 40       		.byte	64
 483 0079 15       		.byte	21
 484 007a 90       		.byte	-112
 485 007b 15       		.byte	21
 486 007c 89       		.byte	-119
 487 007d 15       		.byte	21
 488 007e 81       		.byte	-127
 489 007f 16       		.byte	22
 490 0080 72       		.byte	114
 491 0081 15       		.byte	21
 492 0082 00       		.byte	0
 493 0083 15       		.byte	21
 494 0084 10       		.byte	16
 495 0085 15       		.byte	21
 496 0086 B0       		.byte	-80
 497 0087 19       		.byte	25
 498 0088 FF       		.byte	-1
 499              		.text
 500              	.Letext0:
 501              		.file 2 "c:\\program files (x86)\\cypress\\psoc creator\\4.1\\psoc creator\\import\\gnu\\arm\\5.4.
 502              		.file 3 "c:\\program files (x86)\\cypress\\psoc creator\\4.1\\psoc creator\\import\\gnu\\arm\\5.4.
 503              		.file 4 "..\\..\\u8g2\\csrc\\u8x8.h"