ARM GAS  C:\Users\Alan\AppData\Local\Temp\ccK6lNfA.s 			page 1


   1              		.syntax unified
   2              		.cpu cortex-m0
   3              		.fpu softvfp
   4              		.eabi_attribute 20, 1
   5              		.eabi_attribute 21, 1
   6              		.eabi_attribute 23, 3
   7              		.eabi_attribute 24, 1
   8              		.eabi_attribute 25, 1
   9              		.eabi_attribute 26, 1
  10              		.eabi_attribute 30, 4
  11              		.eabi_attribute 34, 0
  12              		.eabi_attribute 18, 4
  13              		.thumb
  14              		.syntax unified
  15              		.file	"u8x8_setup.c"
  16              		.text
  17              	.Ltext0:
  18              		.cfi_sections	.debug_frame
  19              		.section	.text.u8x8_dummy_cb,"ax",%progbits
  20              		.align	1
  21              		.global	u8x8_dummy_cb
  22              		.code	16
  23              		.thumb_func
  24              		.type	u8x8_dummy_cb, %function
  25              	u8x8_dummy_cb:
  26              	.LFB0:
  27              		.file 1 "..\\..\\u8g2\\csrc\\u8x8_setup.c"
   1:..\..\u8g2\csrc/u8x8_setup.c **** /*
   2:..\..\u8g2\csrc/u8x8_setup.c **** 
   3:..\..\u8g2\csrc/u8x8_setup.c ****   u8x8_setup.c
   4:..\..\u8g2\csrc/u8x8_setup.c **** 
   5:..\..\u8g2\csrc/u8x8_setup.c ****   Universal 8bit Graphics Library (https://github.com/olikraus/u8g2/)
   6:..\..\u8g2\csrc/u8x8_setup.c **** 
   7:..\..\u8g2\csrc/u8x8_setup.c ****   Copyright (c) 2016, olikraus@gmail.com
   8:..\..\u8g2\csrc/u8x8_setup.c ****   All rights reserved.
   9:..\..\u8g2\csrc/u8x8_setup.c **** 
  10:..\..\u8g2\csrc/u8x8_setup.c ****   Redistribution and use in source and binary forms, with or without modification, 
  11:..\..\u8g2\csrc/u8x8_setup.c ****   are permitted provided that the following conditions are met:
  12:..\..\u8g2\csrc/u8x8_setup.c **** 
  13:..\..\u8g2\csrc/u8x8_setup.c ****   * Redistributions of source code must retain the above copyright notice, this list 
  14:..\..\u8g2\csrc/u8x8_setup.c ****     of conditions and the following disclaimer.
  15:..\..\u8g2\csrc/u8x8_setup.c ****     
  16:..\..\u8g2\csrc/u8x8_setup.c ****   * Redistributions in binary form must reproduce the above copyright notice, this 
  17:..\..\u8g2\csrc/u8x8_setup.c ****     list of conditions and the following disclaimer in the documentation and/or other 
  18:..\..\u8g2\csrc/u8x8_setup.c ****     materials provided with the distribution.
  19:..\..\u8g2\csrc/u8x8_setup.c **** 
  20:..\..\u8g2\csrc/u8x8_setup.c ****   THIS SOFTWARE IS PROVIDED BY THE COPYRIGHT HOLDERS AND 
  21:..\..\u8g2\csrc/u8x8_setup.c ****   CONTRIBUTORS "AS IS" AND ANY EXPRESS OR IMPLIED WARRANTIES, 
  22:..\..\u8g2\csrc/u8x8_setup.c ****   INCLUDING, BUT NOT LIMITED TO, THE IMPLIED WARRANTIES OF 
  23:..\..\u8g2\csrc/u8x8_setup.c ****   MERCHANTABILITY AND FITNESS FOR A PARTICULAR PURPOSE ARE 
  24:..\..\u8g2\csrc/u8x8_setup.c ****   DISCLAIMED. IN NO EVENT SHALL THE COPYRIGHT HOLDER OR 
  25:..\..\u8g2\csrc/u8x8_setup.c ****   CONTRIBUTORS BE LIABLE FOR ANY DIRECT, INDIRECT, INCIDENTAL, 
  26:..\..\u8g2\csrc/u8x8_setup.c ****   SPECIAL, EXEMPLARY, OR CONSEQUENTIAL DAMAGES (INCLUDING, BUT 
  27:..\..\u8g2\csrc/u8x8_setup.c ****   NOT LIMITED TO, PROCUREMENT OF SUBSTITUTE GOODS OR SERVICES; 
  28:..\..\u8g2\csrc/u8x8_setup.c ****   LOSS OF USE, DATA, OR PROFITS; OR BUSINESS INTERRUPTION) HOWEVER 
  29:..\..\u8g2\csrc/u8x8_setup.c ****   CAUSED AND ON ANY THEORY OF LIABILITY, WHETHER IN CONTRACT, 
  30:..\..\u8g2\csrc/u8x8_setup.c ****   STRICT LIABILITY, OR TORT (INCLUDING NEGLIGENCE OR OTHERWISE) 
ARM GAS  C:\Users\Alan\AppData\Local\Temp\ccK6lNfA.s 			page 2


  31:..\..\u8g2\csrc/u8x8_setup.c ****   ARISING IN ANY WAY OUT OF THE USE OF THIS SOFTWARE, EVEN IF 
  32:..\..\u8g2\csrc/u8x8_setup.c ****   ADVISED OF THE POSSIBILITY OF SUCH DAMAGE.  
  33:..\..\u8g2\csrc/u8x8_setup.c **** 
  34:..\..\u8g2\csrc/u8x8_setup.c **** */
  35:..\..\u8g2\csrc/u8x8_setup.c **** 
  36:..\..\u8g2\csrc/u8x8_setup.c **** 
  37:..\..\u8g2\csrc/u8x8_setup.c **** #include "u8x8.h"
  38:..\..\u8g2\csrc/u8x8_setup.c **** 
  39:..\..\u8g2\csrc/u8x8_setup.c **** uint8_t u8x8_dummy_cb(U8X8_UNUSED u8x8_t *u8x8, U8X8_UNUSED uint8_t msg, U8X8_UNUSED uint8_t arg_in
  40:..\..\u8g2\csrc/u8x8_setup.c **** {
  28              		.loc 1 40 0
  29              		.cfi_startproc
  30              		@ args = 0, pretend = 0, frame = 0
  31              		@ frame_needed = 0, uses_anonymous_args = 0
  32              		@ link register save eliminated.
  33              	.LVL0:
  41:..\..\u8g2\csrc/u8x8_setup.c ****   /* the dummy callback will not handle any message and will fail for all messages */
  42:..\..\u8g2\csrc/u8x8_setup.c ****   return 0;
  43:..\..\u8g2\csrc/u8x8_setup.c **** }
  34              		.loc 1 43 0
  35 0000 0020     		movs	r0, #0
  36              	.LVL1:
  37              		@ sp needed
  38 0002 7047     		bx	lr
  39              		.cfi_endproc
  40              	.LFE0:
  41              		.size	u8x8_dummy_cb, .-u8x8_dummy_cb
  42              		.section	.text.u8x8_SetupDefaults,"ax",%progbits
  43              		.align	1
  44              		.global	u8x8_SetupDefaults
  45              		.code	16
  46              		.thumb_func
  47              		.type	u8x8_SetupDefaults, %function
  48              	u8x8_SetupDefaults:
  49              	.LFB1:
  44:..\..\u8g2\csrc/u8x8_setup.c **** 
  45:..\..\u8g2\csrc/u8x8_setup.c **** 
  46:..\..\u8g2\csrc/u8x8_setup.c **** /*
  47:..\..\u8g2\csrc/u8x8_setup.c ****   Description:
  48:..\..\u8g2\csrc/u8x8_setup.c ****     Setup u8x8
  49:..\..\u8g2\csrc/u8x8_setup.c ****   Args:
  50:..\..\u8g2\csrc/u8x8_setup.c ****     u8x8	An empty u8x8 structure
  51:..\..\u8g2\csrc/u8x8_setup.c **** */
  52:..\..\u8g2\csrc/u8x8_setup.c **** void u8x8_SetupDefaults(u8x8_t *u8x8)
  53:..\..\u8g2\csrc/u8x8_setup.c **** {
  50              		.loc 1 53 0
  51              		.cfi_startproc
  52              		@ args = 0, pretend = 0, frame = 0
  53              		@ frame_needed = 0, uses_anonymous_args = 0
  54              		@ link register save eliminated.
  55              	.LVL2:
  54:..\..\u8g2\csrc/u8x8_setup.c ****     u8x8->display_info = NULL;
  56              		.loc 1 54 0
  57 0000 0023     		movs	r3, #0
  55:..\..\u8g2\csrc/u8x8_setup.c ****     u8x8->display_cb = u8x8_dummy_cb;
  58              		.loc 1 55 0
  59 0002 084A     		ldr	r2, .L3
ARM GAS  C:\Users\Alan\AppData\Local\Temp\ccK6lNfA.s 			page 3


  56:..\..\u8g2\csrc/u8x8_setup.c ****     u8x8->cad_cb = u8x8_dummy_cb;
  57:..\..\u8g2\csrc/u8x8_setup.c ****     u8x8->byte_cb = u8x8_dummy_cb;
  58:..\..\u8g2\csrc/u8x8_setup.c ****     u8x8->gpio_and_delay_cb = u8x8_dummy_cb;
  59:..\..\u8g2\csrc/u8x8_setup.c ****     u8x8->is_font_inverse_mode = 0;
  60              		.loc 1 59 0
  61 0004 C377     		strb	r3, [r0, #31]
  55:..\..\u8g2\csrc/u8x8_setup.c ****     u8x8->display_cb = u8x8_dummy_cb;
  62              		.loc 1 55 0
  63 0006 8260     		str	r2, [r0, #8]
  56:..\..\u8g2\csrc/u8x8_setup.c ****     u8x8->cad_cb = u8x8_dummy_cb;
  64              		.loc 1 56 0
  65 0008 C260     		str	r2, [r0, #12]
  57:..\..\u8g2\csrc/u8x8_setup.c ****     u8x8->gpio_and_delay_cb = u8x8_dummy_cb;
  66              		.loc 1 57 0
  67 000a 0261     		str	r2, [r0, #16]
  58:..\..\u8g2\csrc/u8x8_setup.c ****     u8x8->is_font_inverse_mode = 0;
  68              		.loc 1 58 0
  69 000c 4261     		str	r2, [r0, #20]
  60:..\..\u8g2\csrc/u8x8_setup.c ****     u8x8->device_address = 0;
  70              		.loc 1 60 0
  71 000e C21C     		adds	r2, r0, #3
  54:..\..\u8g2\csrc/u8x8_setup.c ****     u8x8->display_cb = u8x8_dummy_cb;
  72              		.loc 1 54 0
  73 0010 0360     		str	r3, [r0]
  74              		.loc 1 60 0
  75 0012 D377     		strb	r3, [r2, #31]
  61:..\..\u8g2\csrc/u8x8_setup.c ****     u8x8->utf8_state = 0;		/* also reset by u8x8_utf8_init */
  76              		.loc 1 61 0
  77 0014 021D     		adds	r2, r0, #4
  78 0016 D377     		strb	r3, [r2, #31]
  62:..\..\u8g2\csrc/u8x8_setup.c ****     u8x8->i2c_address = 255;
  79              		.loc 1 62 0
  80 0018 421C     		adds	r2, r0, #1
  81 001a FF33     		adds	r3, r3, #255
  63:..\..\u8g2\csrc/u8x8_setup.c ****     u8x8->debounce_default_pin_state = 255;	/* assume all low active buttons */
  82              		.loc 1 63 0
  83 001c 0630     		adds	r0, r0, #6
  84              	.LVL3:
  62:..\..\u8g2\csrc/u8x8_setup.c ****     u8x8->i2c_address = 255;
  85              		.loc 1 62 0
  86 001e D377     		strb	r3, [r2, #31]
  64:..\..\u8g2\csrc/u8x8_setup.c ****   
  65:..\..\u8g2\csrc/u8x8_setup.c **** #ifdef U8X8_USE_PINS 
  66:..\..\u8g2\csrc/u8x8_setup.c ****   {
  67:..\..\u8g2\csrc/u8x8_setup.c ****     uint8_t i;
  68:..\..\u8g2\csrc/u8x8_setup.c ****     for( i = 0; i < U8X8_PIN_CNT; i++ )
  69:..\..\u8g2\csrc/u8x8_setup.c ****       u8x8->pins[i] = U8X8_PIN_NONE;
  70:..\..\u8g2\csrc/u8x8_setup.c ****   }
  71:..\..\u8g2\csrc/u8x8_setup.c **** #endif
  72:..\..\u8g2\csrc/u8x8_setup.c **** }
  87              		.loc 1 72 0
  88              		@ sp needed
  63:..\..\u8g2\csrc/u8x8_setup.c ****     u8x8->debounce_default_pin_state = 255;	/* assume all low active buttons */
  89              		.loc 1 63 0
  90 0020 C377     		strb	r3, [r0, #31]
  91              		.loc 1 72 0
  92 0022 7047     		bx	lr
ARM GAS  C:\Users\Alan\AppData\Local\Temp\ccK6lNfA.s 			page 4


  93              	.L4:
  94              		.align	2
  95              	.L3:
  96 0024 00000000 		.word	u8x8_dummy_cb
  97              		.cfi_endproc
  98              	.LFE1:
  99              		.size	u8x8_SetupDefaults, .-u8x8_SetupDefaults
 100              		.section	.text.u8x8_Setup,"ax",%progbits
 101              		.align	1
 102              		.global	u8x8_Setup
 103              		.code	16
 104              		.thumb_func
 105              		.type	u8x8_Setup, %function
 106              	u8x8_Setup:
 107              	.LFB2:
  73:..\..\u8g2\csrc/u8x8_setup.c **** 
  74:..\..\u8g2\csrc/u8x8_setup.c **** 
  75:..\..\u8g2\csrc/u8x8_setup.c **** /*
  76:..\..\u8g2\csrc/u8x8_setup.c ****   Description:
  77:..\..\u8g2\csrc/u8x8_setup.c ****     Setup u8x8 and assign the callback function. The dummy 
  78:..\..\u8g2\csrc/u8x8_setup.c ****     callback "u8x8_dummy_cb" can be used, if no callback is required.
  79:..\..\u8g2\csrc/u8x8_setup.c ****     This setup will not communicate with the display itself.
  80:..\..\u8g2\csrc/u8x8_setup.c ****     Use u8x8_InitDisplay() to send the startup code to the Display.
  81:..\..\u8g2\csrc/u8x8_setup.c ****   Args:
  82:..\..\u8g2\csrc/u8x8_setup.c ****     u8x8				An empty u8x8 structure
  83:..\..\u8g2\csrc/u8x8_setup.c ****     display_cb			Display/controller specific callback function
  84:..\..\u8g2\csrc/u8x8_setup.c ****     cad_cb				Display controller specific communication callback function
  85:..\..\u8g2\csrc/u8x8_setup.c ****     byte_cb			Display controller/communication specific callback funtion
  86:..\..\u8g2\csrc/u8x8_setup.c ****     gpio_and_delay_cb	Environment specific callback function
  87:..\..\u8g2\csrc/u8x8_setup.c **** 
  88:..\..\u8g2\csrc/u8x8_setup.c **** */
  89:..\..\u8g2\csrc/u8x8_setup.c **** void u8x8_Setup(u8x8_t *u8x8, u8x8_msg_cb display_cb, u8x8_msg_cb cad_cb, u8x8_msg_cb byte_cb, u8x8
  90:..\..\u8g2\csrc/u8x8_setup.c **** {
 108              		.loc 1 90 0
 109              		.cfi_startproc
 110              		@ args = 4, pretend = 0, frame = 0
 111              		@ frame_needed = 0, uses_anonymous_args = 0
 112              	.LVL4:
 113 0000 F8B5     		push	{r3, r4, r5, r6, r7, lr}
 114              		.cfi_def_cfa_offset 24
 115              		.cfi_offset 3, -24
 116              		.cfi_offset 4, -20
 117              		.cfi_offset 5, -16
 118              		.cfi_offset 6, -12
 119              		.cfi_offset 7, -8
 120              		.cfi_offset 14, -4
 121              		.loc 1 90 0
 122 0002 0400     		movs	r4, r0
 123 0004 0F00     		movs	r7, r1
 124 0006 1600     		movs	r6, r2
 125 0008 1D00     		movs	r5, r3
  91:..\..\u8g2\csrc/u8x8_setup.c ****   /* setup defaults and reset pins to U8X8_PIN_NONE */
  92:..\..\u8g2\csrc/u8x8_setup.c ****   u8x8_SetupDefaults(u8x8);
 126              		.loc 1 92 0
 127 000a FFF7FEFF 		bl	u8x8_SetupDefaults
 128              	.LVL5:
  93:..\..\u8g2\csrc/u8x8_setup.c **** 
ARM GAS  C:\Users\Alan\AppData\Local\Temp\ccK6lNfA.s 			page 5


  94:..\..\u8g2\csrc/u8x8_setup.c ****   /* setup specific callbacks */
  95:..\..\u8g2\csrc/u8x8_setup.c ****   u8x8->display_cb = display_cb;
  96:..\..\u8g2\csrc/u8x8_setup.c ****   u8x8->cad_cb = cad_cb;
  97:..\..\u8g2\csrc/u8x8_setup.c ****   u8x8->byte_cb = byte_cb;
  98:..\..\u8g2\csrc/u8x8_setup.c ****   u8x8->gpio_and_delay_cb = gpio_and_delay_cb;
 129              		.loc 1 98 0
 130 000e 069B     		ldr	r3, [sp, #24]
  95:..\..\u8g2\csrc/u8x8_setup.c ****   u8x8->cad_cb = cad_cb;
 131              		.loc 1 95 0
 132 0010 A760     		str	r7, [r4, #8]
  96:..\..\u8g2\csrc/u8x8_setup.c ****   u8x8->byte_cb = byte_cb;
 133              		.loc 1 96 0
 134 0012 E660     		str	r6, [r4, #12]
  97:..\..\u8g2\csrc/u8x8_setup.c ****   u8x8->gpio_and_delay_cb = gpio_and_delay_cb;
 135              		.loc 1 97 0
 136 0014 2561     		str	r5, [r4, #16]
 137              		.loc 1 98 0
 138 0016 6361     		str	r3, [r4, #20]
  99:..\..\u8g2\csrc/u8x8_setup.c **** 
 100:..\..\u8g2\csrc/u8x8_setup.c ****   /* setup display info */
 101:..\..\u8g2\csrc/u8x8_setup.c ****   u8x8_SetupMemory(u8x8);
 139              		.loc 1 101 0
 140 0018 2000     		movs	r0, r4
 141 001a FFF7FEFF 		bl	u8x8_SetupMemory
 142              	.LVL6:
 102:..\..\u8g2\csrc/u8x8_setup.c **** }
 143              		.loc 1 102 0
 144              		@ sp needed
 145              	.LVL7:
 146              	.LVL8:
 147              	.LVL9:
 148              	.LVL10:
 149 001e F8BD     		pop	{r3, r4, r5, r6, r7, pc}
 150              		.cfi_endproc
 151              	.LFE2:
 152              		.size	u8x8_Setup, .-u8x8_Setup
 153              		.text
 154              	.Letext0:
 155              		.file 2 "c:\\program files (x86)\\cypress\\psoc creator\\4.1\\psoc creator\\import\\gnu\\arm\\5.4.
 156              		.file 3 "c:\\program files (x86)\\cypress\\psoc creator\\4.1\\psoc creator\\import\\gnu\\arm\\5.4.
 157              		.file 4 "..\\..\\u8g2\\csrc\\u8x8.h"