ARM GAS  C:\Users\Greg\AppData\Local\Temp\cca3x1Un.s 			page 1


   1              		.syntax unified
   2              		.cpu cortex-m0
   3              		.fpu softvfp
   4              		.eabi_attribute 20, 1
   5              		.eabi_attribute 21, 1
   6              		.eabi_attribute 23, 3
   7              		.eabi_attribute 24, 1
   8              		.eabi_attribute 25, 1
   9              		.eabi_attribute 26, 1
  10              		.eabi_attribute 30, 4
  11              		.eabi_attribute 34, 0
  12              		.eabi_attribute 18, 4
  13              		.thumb
  14              		.syntax unified
  15              		.file	"u8x8_d_ssd1309.c"
  16              		.text
  17              	.Ltext0:
  18              		.cfi_sections	.debug_frame
  19              		.section	.text.u8x8_d_ssd1309_128x64_noname,"ax",%progbits
  20              		.align	1
  21              		.global	u8x8_d_ssd1309_128x64_noname
  22              		.code	16
  23              		.thumb_func
  24              		.type	u8x8_d_ssd1309_128x64_noname, %function
  25              	u8x8_d_ssd1309_128x64_noname:
  26              	.LFB1:
  27              		.file 1 "..\\..\\u8g2\\csrc\\u8x8_d_ssd1309.c"
   1:..\..\u8g2\csrc/u8x8_d_ssd1309.c **** /*
   2:..\..\u8g2\csrc/u8x8_d_ssd1309.c **** 
   3:..\..\u8g2\csrc/u8x8_d_ssd1309.c ****   u8x8_d_ssd1309.c
   4:..\..\u8g2\csrc/u8x8_d_ssd1309.c **** 
   5:..\..\u8g2\csrc/u8x8_d_ssd1309.c ****   Universal 8bit Graphics Library (https://github.com/olikraus/u8g2/)
   6:..\..\u8g2\csrc/u8x8_d_ssd1309.c **** 
   7:..\..\u8g2\csrc/u8x8_d_ssd1309.c ****   Copyright (c) 2017, olikraus@gmail.com
   8:..\..\u8g2\csrc/u8x8_d_ssd1309.c ****   All rights reserved.
   9:..\..\u8g2\csrc/u8x8_d_ssd1309.c **** 
  10:..\..\u8g2\csrc/u8x8_d_ssd1309.c ****   Redistribution and use in source and binary forms, with or without modification, 
  11:..\..\u8g2\csrc/u8x8_d_ssd1309.c ****   are permitted provided that the following conditions are met:
  12:..\..\u8g2\csrc/u8x8_d_ssd1309.c **** 
  13:..\..\u8g2\csrc/u8x8_d_ssd1309.c ****   * Redistributions of source code must retain the above copyright notice, this list 
  14:..\..\u8g2\csrc/u8x8_d_ssd1309.c ****     of conditions and the following disclaimer.
  15:..\..\u8g2\csrc/u8x8_d_ssd1309.c ****     
  16:..\..\u8g2\csrc/u8x8_d_ssd1309.c ****   * Redistributions in binary form must reproduce the above copyright notice, this 
  17:..\..\u8g2\csrc/u8x8_d_ssd1309.c ****     list of conditions and the following disclaimer in the documentation and/or other 
  18:..\..\u8g2\csrc/u8x8_d_ssd1309.c ****     materials provided with the distribution.
  19:..\..\u8g2\csrc/u8x8_d_ssd1309.c **** 
  20:..\..\u8g2\csrc/u8x8_d_ssd1309.c ****   THIS SOFTWARE IS PROVIDED BY THE COPYRIGHT HOLDERS AND 
  21:..\..\u8g2\csrc/u8x8_d_ssd1309.c ****   CONTRIBUTORS "AS IS" AND ANY EXPRESS OR IMPLIED WARRANTIES, 
  22:..\..\u8g2\csrc/u8x8_d_ssd1309.c ****   INCLUDING, BUT NOT LIMITED TO, THE IMPLIED WARRANTIES OF 
  23:..\..\u8g2\csrc/u8x8_d_ssd1309.c ****   MERCHANTABILITY AND FITNESS FOR A PARTICULAR PURPOSE ARE 
  24:..\..\u8g2\csrc/u8x8_d_ssd1309.c ****   DISCLAIMED. IN NO EVENT SHALL THE COPYRIGHT HOLDER OR 
  25:..\..\u8g2\csrc/u8x8_d_ssd1309.c ****   CONTRIBUTORS BE LIABLE FOR ANY DIRECT, INDIRECT, INCIDENTAL, 
  26:..\..\u8g2\csrc/u8x8_d_ssd1309.c ****   SPECIAL, EXEMPLARY, OR CONSEQUENTIAL DAMAGES (INCLUDING, BUT 
  27:..\..\u8g2\csrc/u8x8_d_ssd1309.c ****   NOT LIMITED TO, PROCUREMENT OF SUBSTITUTE GOODS OR SERVICES; 
  28:..\..\u8g2\csrc/u8x8_d_ssd1309.c ****   LOSS OF USE, DATA, OR PROFITS; OR BUSINESS INTERRUPTION) HOWEVER 
  29:..\..\u8g2\csrc/u8x8_d_ssd1309.c ****   CAUSED AND ON ANY THEORY OF LIABILITY, WHETHER IN CONTRACT, 
  30:..\..\u8g2\csrc/u8x8_d_ssd1309.c ****   STRICT LIABILITY, OR TORT (INCLUDING NEGLIGENCE OR OTHERWISE) 
ARM GAS  C:\Users\Greg\AppData\Local\Temp\cca3x1Un.s 			page 2


  31:..\..\u8g2\csrc/u8x8_d_ssd1309.c ****   ARISING IN ANY WAY OUT OF THE USE OF THIS SOFTWARE, EVEN IF 
  32:..\..\u8g2\csrc/u8x8_d_ssd1309.c ****   ADVISED OF THE POSSIBILITY OF SUCH DAMAGE.  
  33:..\..\u8g2\csrc/u8x8_d_ssd1309.c ****   
  34:..\..\u8g2\csrc/u8x8_d_ssd1309.c **** */
  35:..\..\u8g2\csrc/u8x8_d_ssd1309.c **** 
  36:..\..\u8g2\csrc/u8x8_d_ssd1309.c **** 
  37:..\..\u8g2\csrc/u8x8_d_ssd1309.c **** #include "u8x8.h"
  38:..\..\u8g2\csrc/u8x8_d_ssd1309.c **** 
  39:..\..\u8g2\csrc/u8x8_d_ssd1309.c **** 
  40:..\..\u8g2\csrc/u8x8_d_ssd1309.c **** 
  41:..\..\u8g2\csrc/u8x8_d_ssd1309.c **** 
  42:..\..\u8g2\csrc/u8x8_d_ssd1309.c **** static const uint8_t u8x8_d_ssd1309_powersave0_seq[] = {
  43:..\..\u8g2\csrc/u8x8_d_ssd1309.c ****   U8X8_START_TRANSFER(),             	/* enable chip, delay is part of the transfer start */
  44:..\..\u8g2\csrc/u8x8_d_ssd1309.c ****   U8X8_C(0x0af),		                /* display on */
  45:..\..\u8g2\csrc/u8x8_d_ssd1309.c ****   U8X8_END_TRANSFER(),             	/* disable chip */
  46:..\..\u8g2\csrc/u8x8_d_ssd1309.c ****   U8X8_END()             			/* end of sequence */
  47:..\..\u8g2\csrc/u8x8_d_ssd1309.c **** };
  48:..\..\u8g2\csrc/u8x8_d_ssd1309.c **** 
  49:..\..\u8g2\csrc/u8x8_d_ssd1309.c **** static const uint8_t u8x8_d_ssd1309_powersave1_seq[] = {
  50:..\..\u8g2\csrc/u8x8_d_ssd1309.c ****   U8X8_START_TRANSFER(),             	/* enable chip, delay is part of the transfer start */
  51:..\..\u8g2\csrc/u8x8_d_ssd1309.c ****   U8X8_C(0x0ae),		                /* display off */
  52:..\..\u8g2\csrc/u8x8_d_ssd1309.c ****   U8X8_END_TRANSFER(),             	/* disable chip */
  53:..\..\u8g2\csrc/u8x8_d_ssd1309.c ****   U8X8_END()             			/* end of sequence */
  54:..\..\u8g2\csrc/u8x8_d_ssd1309.c **** };
  55:..\..\u8g2\csrc/u8x8_d_ssd1309.c **** 
  56:..\..\u8g2\csrc/u8x8_d_ssd1309.c **** static const uint8_t u8x8_d_ssd1309_128x64_flip0_seq[] = {
  57:..\..\u8g2\csrc/u8x8_d_ssd1309.c ****   U8X8_START_TRANSFER(),             	/* enable chip, delay is part of the transfer start */
  58:..\..\u8g2\csrc/u8x8_d_ssd1309.c ****   U8X8_C(0x0a1),				/* segment remap a0/a1*/
  59:..\..\u8g2\csrc/u8x8_d_ssd1309.c ****   U8X8_C(0x0c8),				/* c0: scan dir normal, c8: reverse */
  60:..\..\u8g2\csrc/u8x8_d_ssd1309.c ****   U8X8_END_TRANSFER(),             	/* disable chip */
  61:..\..\u8g2\csrc/u8x8_d_ssd1309.c ****   U8X8_END()             			/* end of sequence */
  62:..\..\u8g2\csrc/u8x8_d_ssd1309.c **** };
  63:..\..\u8g2\csrc/u8x8_d_ssd1309.c **** 
  64:..\..\u8g2\csrc/u8x8_d_ssd1309.c **** static const uint8_t u8x8_d_ssd1309_128x64_flip1_seq[] = {
  65:..\..\u8g2\csrc/u8x8_d_ssd1309.c ****   U8X8_START_TRANSFER(),             	/* enable chip, delay is part of the transfer start */
  66:..\..\u8g2\csrc/u8x8_d_ssd1309.c ****   U8X8_C(0x0a0),				/* segment remap a0/a1*/
  67:..\..\u8g2\csrc/u8x8_d_ssd1309.c ****   U8X8_C(0x0c0),				/* c0: scan dir normal, c8: reverse */
  68:..\..\u8g2\csrc/u8x8_d_ssd1309.c ****   U8X8_END_TRANSFER(),             	/* disable chip */
  69:..\..\u8g2\csrc/u8x8_d_ssd1309.c ****   U8X8_END()             			/* end of sequence */
  70:..\..\u8g2\csrc/u8x8_d_ssd1309.c **** };
  71:..\..\u8g2\csrc/u8x8_d_ssd1309.c **** 
  72:..\..\u8g2\csrc/u8x8_d_ssd1309.c **** 
  73:..\..\u8g2\csrc/u8x8_d_ssd1309.c **** 
  74:..\..\u8g2\csrc/u8x8_d_ssd1309.c **** static uint8_t u8x8_d_ssd1309_generic(u8x8_t *u8x8, uint8_t msg, uint8_t arg_int, void *arg_ptr)
  75:..\..\u8g2\csrc/u8x8_d_ssd1309.c **** {
  76:..\..\u8g2\csrc/u8x8_d_ssd1309.c ****   uint8_t x, c;
  77:..\..\u8g2\csrc/u8x8_d_ssd1309.c ****   uint8_t *ptr;
  78:..\..\u8g2\csrc/u8x8_d_ssd1309.c ****   switch(msg)
  79:..\..\u8g2\csrc/u8x8_d_ssd1309.c ****   {
  80:..\..\u8g2\csrc/u8x8_d_ssd1309.c ****     case U8X8_MSG_DISPLAY_DRAW_TILE:
  81:..\..\u8g2\csrc/u8x8_d_ssd1309.c ****       u8x8_cad_StartTransfer(u8x8);
  82:..\..\u8g2\csrc/u8x8_d_ssd1309.c ****       x = ((u8x8_tile_t *)arg_ptr)->x_pos;    
  83:..\..\u8g2\csrc/u8x8_d_ssd1309.c ****       x *= 8;
  84:..\..\u8g2\csrc/u8x8_d_ssd1309.c ****       x += u8x8->x_offset;
  85:..\..\u8g2\csrc/u8x8_d_ssd1309.c ****     
  86:..\..\u8g2\csrc/u8x8_d_ssd1309.c ****       u8x8_cad_SendCmd(u8x8, 0x010 | (x>>4) );
  87:..\..\u8g2\csrc/u8x8_d_ssd1309.c ****       u8x8_cad_SendArg(u8x8, 0x000 | ((x&15)));
ARM GAS  C:\Users\Greg\AppData\Local\Temp\cca3x1Un.s 			page 3


  88:..\..\u8g2\csrc/u8x8_d_ssd1309.c ****       u8x8_cad_SendArg(u8x8, 0x0b0 | (((u8x8_tile_t *)arg_ptr)->y_pos)   );
  89:..\..\u8g2\csrc/u8x8_d_ssd1309.c **** 
  90:..\..\u8g2\csrc/u8x8_d_ssd1309.c ****     
  91:..\..\u8g2\csrc/u8x8_d_ssd1309.c ****       do
  92:..\..\u8g2\csrc/u8x8_d_ssd1309.c ****       {
  93:..\..\u8g2\csrc/u8x8_d_ssd1309.c **** 	c = ((u8x8_tile_t *)arg_ptr)->cnt;
  94:..\..\u8g2\csrc/u8x8_d_ssd1309.c **** 	ptr = ((u8x8_tile_t *)arg_ptr)->tile_ptr;
  95:..\..\u8g2\csrc/u8x8_d_ssd1309.c **** 	u8x8_cad_SendData(u8x8, c*8, ptr); 	/* note: SendData can not handle more than 255 bytes */
  96:..\..\u8g2\csrc/u8x8_d_ssd1309.c **** 	/*
  97:..\..\u8g2\csrc/u8x8_d_ssd1309.c **** 	do
  98:..\..\u8g2\csrc/u8x8_d_ssd1309.c **** 	{
  99:..\..\u8g2\csrc/u8x8_d_ssd1309.c **** 	  u8x8_cad_SendData(u8x8, 8, ptr);
 100:..\..\u8g2\csrc/u8x8_d_ssd1309.c **** 	  ptr += 8;
 101:..\..\u8g2\csrc/u8x8_d_ssd1309.c **** 	  c--;
 102:..\..\u8g2\csrc/u8x8_d_ssd1309.c **** 	} while( c > 0 );
 103:..\..\u8g2\csrc/u8x8_d_ssd1309.c **** 	*/
 104:..\..\u8g2\csrc/u8x8_d_ssd1309.c **** 	arg_int--;
 105:..\..\u8g2\csrc/u8x8_d_ssd1309.c ****       } while( arg_int > 0 );
 106:..\..\u8g2\csrc/u8x8_d_ssd1309.c ****       
 107:..\..\u8g2\csrc/u8x8_d_ssd1309.c ****       u8x8_cad_EndTransfer(u8x8);
 108:..\..\u8g2\csrc/u8x8_d_ssd1309.c ****       break;
 109:..\..\u8g2\csrc/u8x8_d_ssd1309.c ****     case U8X8_MSG_DISPLAY_SET_POWER_SAVE:
 110:..\..\u8g2\csrc/u8x8_d_ssd1309.c ****       if ( arg_int == 0 )
 111:..\..\u8g2\csrc/u8x8_d_ssd1309.c **** 	u8x8_cad_SendSequence(u8x8, u8x8_d_ssd1309_powersave0_seq);
 112:..\..\u8g2\csrc/u8x8_d_ssd1309.c ****       else
 113:..\..\u8g2\csrc/u8x8_d_ssd1309.c **** 	u8x8_cad_SendSequence(u8x8, u8x8_d_ssd1309_powersave1_seq);
 114:..\..\u8g2\csrc/u8x8_d_ssd1309.c ****       break;
 115:..\..\u8g2\csrc/u8x8_d_ssd1309.c **** #ifdef U8X8_WITH_SET_CONTRAST
 116:..\..\u8g2\csrc/u8x8_d_ssd1309.c ****     case U8X8_MSG_DISPLAY_SET_CONTRAST:
 117:..\..\u8g2\csrc/u8x8_d_ssd1309.c ****       u8x8_cad_StartTransfer(u8x8);
 118:..\..\u8g2\csrc/u8x8_d_ssd1309.c ****       u8x8_cad_SendCmd(u8x8, 0x081 );
 119:..\..\u8g2\csrc/u8x8_d_ssd1309.c ****       u8x8_cad_SendArg(u8x8, arg_int );	/* ssd1309 has range from 0 to 255 */
 120:..\..\u8g2\csrc/u8x8_d_ssd1309.c ****       u8x8_cad_EndTransfer(u8x8);
 121:..\..\u8g2\csrc/u8x8_d_ssd1309.c ****       break;
 122:..\..\u8g2\csrc/u8x8_d_ssd1309.c **** #endif
 123:..\..\u8g2\csrc/u8x8_d_ssd1309.c ****     default:
 124:..\..\u8g2\csrc/u8x8_d_ssd1309.c ****       return 0;
 125:..\..\u8g2\csrc/u8x8_d_ssd1309.c ****   }
 126:..\..\u8g2\csrc/u8x8_d_ssd1309.c ****   return 1;
 127:..\..\u8g2\csrc/u8x8_d_ssd1309.c **** }
 128:..\..\u8g2\csrc/u8x8_d_ssd1309.c **** 
 129:..\..\u8g2\csrc/u8x8_d_ssd1309.c **** /* timing from SSD1306 */
 130:..\..\u8g2\csrc/u8x8_d_ssd1309.c **** static const u8x8_display_info_t u8x8_ssd1309_128x64_noname_display_info =
 131:..\..\u8g2\csrc/u8x8_d_ssd1309.c **** {
 132:..\..\u8g2\csrc/u8x8_d_ssd1309.c ****   /* chip_enable_level = */ 0,
 133:..\..\u8g2\csrc/u8x8_d_ssd1309.c ****   /* chip_disable_level = */ 1,
 134:..\..\u8g2\csrc/u8x8_d_ssd1309.c ****   
 135:..\..\u8g2\csrc/u8x8_d_ssd1309.c ****   /* post_chip_enable_wait_ns = */ 20,
 136:..\..\u8g2\csrc/u8x8_d_ssd1309.c ****   /* pre_chip_disable_wait_ns = */ 10,
 137:..\..\u8g2\csrc/u8x8_d_ssd1309.c ****   /* reset_pulse_width_ms = */ 100, 	/* SSD1306: 3 us */
 138:..\..\u8g2\csrc/u8x8_d_ssd1309.c ****   /* post_reset_wait_ms = */ 100, /* far east OLEDs need much longer setup time */
 139:..\..\u8g2\csrc/u8x8_d_ssd1309.c ****   /* sda_setup_time_ns = */ 50,		/* SSD1306: 15ns, but cycle time is 100ns, so use 100/2 */
 140:..\..\u8g2\csrc/u8x8_d_ssd1309.c ****   /* sck_pulse_width_ns = */ 50,	/* SSD1306: 20ns, but cycle time is 100ns, so use 100/2, AVR: belo
 141:..\..\u8g2\csrc/u8x8_d_ssd1309.c ****   /* sck_clock_hz = */ 4000000UL,	/* since Arduino 1.6.0, the SPI bus speed in Hz. Should be  10000
 142:..\..\u8g2\csrc/u8x8_d_ssd1309.c ****   /* spi_mode = */ 0,		/* active high, rising edge */
 143:..\..\u8g2\csrc/u8x8_d_ssd1309.c ****   /* i2c_bus_clock_100kHz = */ 4,
 144:..\..\u8g2\csrc/u8x8_d_ssd1309.c ****   /* data_setup_time_ns = */ 40,
ARM GAS  C:\Users\Greg\AppData\Local\Temp\cca3x1Un.s 			page 4


 145:..\..\u8g2\csrc/u8x8_d_ssd1309.c ****   /* write_pulse_width_ns = */ 150,	/* SSD1306: cycle time is 300ns, so use 300/2 = 150 */
 146:..\..\u8g2\csrc/u8x8_d_ssd1309.c ****   /* tile_width = */ 16,
 147:..\..\u8g2\csrc/u8x8_d_ssd1309.c ****   /* tile_hight = */ 8,
 148:..\..\u8g2\csrc/u8x8_d_ssd1309.c ****   /* default_x_offset = */ 2,
 149:..\..\u8g2\csrc/u8x8_d_ssd1309.c ****   /* flipmode_x_offset = */ 2,
 150:..\..\u8g2\csrc/u8x8_d_ssd1309.c ****   /* pixel_width = */ 128,
 151:..\..\u8g2\csrc/u8x8_d_ssd1309.c ****   /* pixel_height = */ 64
 152:..\..\u8g2\csrc/u8x8_d_ssd1309.c **** };
 153:..\..\u8g2\csrc/u8x8_d_ssd1309.c **** 
 154:..\..\u8g2\csrc/u8x8_d_ssd1309.c **** 
 155:..\..\u8g2\csrc/u8x8_d_ssd1309.c **** static const uint8_t u8x8_d_ssd1309_128x64_noname_init_seq[] = {
 156:..\..\u8g2\csrc/u8x8_d_ssd1309.c ****     
 157:..\..\u8g2\csrc/u8x8_d_ssd1309.c ****   U8X8_START_TRANSFER(),             	/* enable chip, delay is part of the transfer start */
 158:..\..\u8g2\csrc/u8x8_d_ssd1309.c ****   
 159:..\..\u8g2\csrc/u8x8_d_ssd1309.c ****   
 160:..\..\u8g2\csrc/u8x8_d_ssd1309.c ****   U8X8_C(0x0ae),		                /* display off */
 161:..\..\u8g2\csrc/u8x8_d_ssd1309.c ****   U8X8_CA(0x0d5, 0x0a0),		/* clock divide ratio (0x00=1) and oscillator frequency (0x8) */
 162:..\..\u8g2\csrc/u8x8_d_ssd1309.c ****   //U8X8_CA(0x0a8, 0x03f),		/* multiplex ratio */
 163:..\..\u8g2\csrc/u8x8_d_ssd1309.c ****   U8X8_C(0x040),		        	/* set display start line to 0 */
 164:..\..\u8g2\csrc/u8x8_d_ssd1309.c ****   U8X8_CA(0x020, 0x002),		/* page addressing mode */
 165:..\..\u8g2\csrc/u8x8_d_ssd1309.c ****   
 166:..\..\u8g2\csrc/u8x8_d_ssd1309.c ****   U8X8_C(0x0a1),				/* segment remap a0/a1*/
 167:..\..\u8g2\csrc/u8x8_d_ssd1309.c ****   U8X8_C(0x0c8),				/* c0: scan dir normal, c8: reverse */
 168:..\..\u8g2\csrc/u8x8_d_ssd1309.c ****   // Flipmode
 169:..\..\u8g2\csrc/u8x8_d_ssd1309.c ****   // U8X8_C(0x0a0),				/* segment remap a0/a1*/
 170:..\..\u8g2\csrc/u8x8_d_ssd1309.c ****   // U8X8_C(0x0c0),				/* c0: scan dir normal, c8: reverse */
 171:..\..\u8g2\csrc/u8x8_d_ssd1309.c ****   
 172:..\..\u8g2\csrc/u8x8_d_ssd1309.c ****   U8X8_CA(0x0da, 0x012),		/* com pin HW config, sequential com pin config (bit 4), disable left/rig
 173:..\..\u8g2\csrc/u8x8_d_ssd1309.c **** 
 174:..\..\u8g2\csrc/u8x8_d_ssd1309.c ****   U8X8_CA(0x081, 0x06f), 		/* [2] set contrast control */
 175:..\..\u8g2\csrc/u8x8_d_ssd1309.c ****   U8X8_CA(0x0d9, 0x0d3), 		/* [2] pre-charge period 0x022/f1*/
 176:..\..\u8g2\csrc/u8x8_d_ssd1309.c ****   U8X8_CA(0x0db, 0x020), 		/* vcomh deselect level */  
 177:..\..\u8g2\csrc/u8x8_d_ssd1309.c ****   // if vcomh is 0, then this will give the biggest range for contrast control issue #98
 178:..\..\u8g2\csrc/u8x8_d_ssd1309.c ****   // restored the old values for the noname constructor, because vcomh=0 will not work for all OLED
 179:..\..\u8g2\csrc/u8x8_d_ssd1309.c ****   
 180:..\..\u8g2\csrc/u8x8_d_ssd1309.c ****   U8X8_C(0x02e),				/* Deactivate scroll */ 
 181:..\..\u8g2\csrc/u8x8_d_ssd1309.c ****   U8X8_C(0x0a4),				/* output ram to display */
 182:..\..\u8g2\csrc/u8x8_d_ssd1309.c ****   U8X8_C(0x0a6),				/* none inverted normal display mode */
 183:..\..\u8g2\csrc/u8x8_d_ssd1309.c ****   
 184:..\..\u8g2\csrc/u8x8_d_ssd1309.c ****   //U8X8_C(0x0af),		                /* display on */
 185:..\..\u8g2\csrc/u8x8_d_ssd1309.c ****     
 186:..\..\u8g2\csrc/u8x8_d_ssd1309.c ****   U8X8_END_TRANSFER(),             	/* disable chip */
 187:..\..\u8g2\csrc/u8x8_d_ssd1309.c ****   U8X8_END()             			/* end of sequence */
 188:..\..\u8g2\csrc/u8x8_d_ssd1309.c **** };
 189:..\..\u8g2\csrc/u8x8_d_ssd1309.c **** 
 190:..\..\u8g2\csrc/u8x8_d_ssd1309.c **** 
 191:..\..\u8g2\csrc/u8x8_d_ssd1309.c **** uint8_t u8x8_d_ssd1309_128x64_noname(u8x8_t *u8x8, uint8_t msg, uint8_t arg_int, void *arg_ptr)
 192:..\..\u8g2\csrc/u8x8_d_ssd1309.c **** {
  28              		.loc 1 192 0
  29              		.cfi_startproc
  30              		@ args = 0, pretend = 0, frame = 8
  31              		@ frame_needed = 0, uses_anonymous_args = 0
  32              	.LVL0:
  33 0000 F7B5     		push	{r0, r1, r2, r4, r5, r6, r7, lr}
  34              		.cfi_def_cfa_offset 32
  35              		.cfi_offset 0, -32
  36              		.cfi_offset 1, -28
ARM GAS  C:\Users\Greg\AppData\Local\Temp\cca3x1Un.s 			page 5


  37              		.cfi_offset 2, -24
  38              		.cfi_offset 4, -20
  39              		.cfi_offset 5, -16
  40              		.cfi_offset 6, -12
  41              		.cfi_offset 7, -8
  42              		.cfi_offset 14, -4
  43              		.loc 1 192 0
  44 0002 0400     		movs	r4, r0
  45 0004 0E00     		movs	r6, r1
  46 0006 1500     		movs	r5, r2
  47 0008 1F00     		movs	r7, r3
  48              	.LVL1:
  49              	.LBB4:
  50              	.LBB5:
  78:..\..\u8g2\csrc/u8x8_d_ssd1309.c ****   {
  51              		.loc 1 78 0
  52 000a 0E29     		cmp	r1, #14
  53 000c 31D0     		beq	.L3
  54 000e 0F29     		cmp	r1, #15
  55 0010 02D0     		beq	.L4
  56 0012 0B29     		cmp	r1, #11
  57 0014 49D1     		bne	.L16
  58 0016 24E0     		b	.L23
  59              	.L4:
  81:..\..\u8g2\csrc/u8x8_d_ssd1309.c ****       x = ((u8x8_tile_t *)arg_ptr)->x_pos;    
  60              		.loc 1 81 0
  61 0018 FFF7FEFF 		bl	u8x8_cad_StartTransfer
  62              	.LVL2:
  82:..\..\u8g2\csrc/u8x8_d_ssd1309.c ****       x *= 8;
  63              		.loc 1 82 0
  64 001c 7979     		ldrb	r1, [r7, #5]
  65              	.LVL3:
  84:..\..\u8g2\csrc/u8x8_d_ssd1309.c ****     
  66              		.loc 1 84 0
  67 001e A37F     		ldrb	r3, [r4, #30]
  83:..\..\u8g2\csrc/u8x8_d_ssd1309.c ****       x += u8x8->x_offset;
  68              		.loc 1 83 0
  69 0020 C900     		lsls	r1, r1, #3
  70              	.LVL4:
  84:..\..\u8g2\csrc/u8x8_d_ssd1309.c ****     
  71              		.loc 1 84 0
  72 0022 C918     		adds	r1, r1, r3
  73              	.LVL5:
  74 0024 CBB2     		uxtb	r3, r1
  86:..\..\u8g2\csrc/u8x8_d_ssd1309.c ****       u8x8_cad_SendArg(u8x8, 0x000 | ((x&15)));
  75              		.loc 1 86 0
  76 0026 1021     		movs	r1, #16
  84:..\..\u8g2\csrc/u8x8_d_ssd1309.c ****     
  77              		.loc 1 84 0
  78 0028 0193     		str	r3, [sp, #4]
  79              	.LVL6:
  86:..\..\u8g2\csrc/u8x8_d_ssd1309.c ****       u8x8_cad_SendArg(u8x8, 0x000 | ((x&15)));
  80              		.loc 1 86 0
  81 002a 1B09     		lsrs	r3, r3, #4
  82 002c 1943     		orrs	r1, r3
  83 002e 2000     		movs	r0, r4
  84 0030 FFF7FEFF 		bl	u8x8_cad_SendCmd
ARM GAS  C:\Users\Greg\AppData\Local\Temp\cca3x1Un.s 			page 6


  85              	.LVL7:
  87:..\..\u8g2\csrc/u8x8_d_ssd1309.c ****       u8x8_cad_SendArg(u8x8, 0x0b0 | (((u8x8_tile_t *)arg_ptr)->y_pos)   );
  86              		.loc 1 87 0
  87 0034 0199     		ldr	r1, [sp, #4]
  88 0036 2000     		movs	r0, r4
  89 0038 3140     		ands	r1, r6
  90 003a FFF7FEFF 		bl	u8x8_cad_SendArg
  91              	.LVL8:
  88:..\..\u8g2\csrc/u8x8_d_ssd1309.c **** 
  92              		.loc 1 88 0
  93 003e B023     		movs	r3, #176
  94 0040 B979     		ldrb	r1, [r7, #6]
  95 0042 2000     		movs	r0, r4
  96 0044 1943     		orrs	r1, r3
  97 0046 FFF7FEFF 		bl	u8x8_cad_SendArg
  98              	.LVL9:
  99              	.L6:
  95:..\..\u8g2\csrc/u8x8_d_ssd1309.c **** 	/*
 100              		.loc 1 95 0
 101 004a 3979     		ldrb	r1, [r7, #4]
 104:..\..\u8g2\csrc/u8x8_d_ssd1309.c ****       } while( arg_int > 0 );
 102              		.loc 1 104 0
 103 004c 013D     		subs	r5, r5, #1
 104              	.LVL10:
  95:..\..\u8g2\csrc/u8x8_d_ssd1309.c **** 	/*
 105              		.loc 1 95 0
 106 004e C900     		lsls	r1, r1, #3
 107 0050 C9B2     		uxtb	r1, r1
 108 0052 3A68     		ldr	r2, [r7]
 109 0054 2000     		movs	r0, r4
 104:..\..\u8g2\csrc/u8x8_d_ssd1309.c ****       } while( arg_int > 0 );
 110              		.loc 1 104 0
 111 0056 EDB2     		uxtb	r5, r5
  95:..\..\u8g2\csrc/u8x8_d_ssd1309.c **** 	/*
 112              		.loc 1 95 0
 113 0058 FFF7FEFF 		bl	u8x8_cad_SendData
 114              	.LVL11:
 105:..\..\u8g2\csrc/u8x8_d_ssd1309.c ****       
 115              		.loc 1 105 0
 116 005c 002D     		cmp	r5, #0
 117 005e F4D1     		bne	.L6
 118 0060 11E0     		b	.L20
 119              	.LVL12:
 120              	.L23:
 121 0062 1E49     		ldr	r1, .L26
 122              	.LVL13:
 110:..\..\u8g2\csrc/u8x8_d_ssd1309.c **** 	u8x8_cad_SendSequence(u8x8, u8x8_d_ssd1309_powersave0_seq);
 123              		.loc 1 110 0
 124 0064 002A     		cmp	r2, #0
 125 0066 00D0     		beq	.L19
 113:..\..\u8g2\csrc/u8x8_d_ssd1309.c ****       break;
 126              		.loc 1 113 0
 127 0068 0531     		adds	r1, r1, #5
 128              	.LVL14:
 129              	.L19:
 130 006a 2000     		movs	r0, r4
 131 006c FFF7FEFF 		bl	u8x8_cad_SendSequence
ARM GAS  C:\Users\Greg\AppData\Local\Temp\cca3x1Un.s 			page 7


 132              	.LVL15:
 133 0070 19E0     		b	.L7
 134              	.LVL16:
 135              	.L3:
 117:..\..\u8g2\csrc/u8x8_d_ssd1309.c ****       u8x8_cad_SendCmd(u8x8, 0x081 );
 136              		.loc 1 117 0
 137 0072 FFF7FEFF 		bl	u8x8_cad_StartTransfer
 138              	.LVL17:
 118:..\..\u8g2\csrc/u8x8_d_ssd1309.c ****       u8x8_cad_SendArg(u8x8, arg_int );	/* ssd1309 has range from 0 to 255 */
 139              		.loc 1 118 0
 140 0076 8121     		movs	r1, #129
 141 0078 2000     		movs	r0, r4
 142 007a FFF7FEFF 		bl	u8x8_cad_SendCmd
 143              	.LVL18:
 119:..\..\u8g2\csrc/u8x8_d_ssd1309.c ****       u8x8_cad_EndTransfer(u8x8);
 144              		.loc 1 119 0
 145 007e 2900     		movs	r1, r5
 146 0080 2000     		movs	r0, r4
 147 0082 FFF7FEFF 		bl	u8x8_cad_SendArg
 148              	.LVL19:
 149              	.L20:
 120:..\..\u8g2\csrc/u8x8_d_ssd1309.c ****       break;
 150              		.loc 1 120 0
 151 0086 2000     		movs	r0, r4
 152 0088 FFF7FEFF 		bl	u8x8_cad_EndTransfer
 153              	.LVL20:
 154 008c 0BE0     		b	.L7
 155              	.LVL21:
 156              	.L25:
 157              	.LBE5:
 158              	.LBE4:
 193:..\..\u8g2\csrc/u8x8_d_ssd1309.c ****     
 194:..\..\u8g2\csrc/u8x8_d_ssd1309.c ****   if ( u8x8_d_ssd1309_generic(u8x8, msg, arg_int, arg_ptr) != 0 )
 195:..\..\u8g2\csrc/u8x8_d_ssd1309.c ****     return 1;
 196:..\..\u8g2\csrc/u8x8_d_ssd1309.c ****   
 197:..\..\u8g2\csrc/u8x8_d_ssd1309.c ****   switch(msg)
 159              		.loc 1 197 0
 160 008e 0D29     		cmp	r1, #13
 161 0090 1AD1     		bne	.L24
 162 0092 1249     		ldr	r1, .L26
 163              	.LVL22:
 198:..\..\u8g2\csrc/u8x8_d_ssd1309.c ****   {
 199:..\..\u8g2\csrc/u8x8_d_ssd1309.c ****     case U8X8_MSG_DISPLAY_SET_FLIP_MODE:
 200:..\..\u8g2\csrc/u8x8_d_ssd1309.c ****       if ( arg_int == 0 )
 164              		.loc 1 200 0
 165 0094 002D     		cmp	r5, #0
 166 0096 10D1     		bne	.L10
 201:..\..\u8g2\csrc/u8x8_d_ssd1309.c ****       {
 202:..\..\u8g2\csrc/u8x8_d_ssd1309.c **** 	u8x8_cad_SendSequence(u8x8, u8x8_d_ssd1309_128x64_flip0_seq);
 167              		.loc 1 202 0
 168 0098 0A31     		adds	r1, r1, #10
 169 009a 2000     		movs	r0, r4
 170              	.LVL23:
 171 009c FFF7FEFF 		bl	u8x8_cad_SendSequence
 172              	.LVL24:
 203:..\..\u8g2\csrc/u8x8_d_ssd1309.c **** 	u8x8->x_offset = u8x8->display_info->default_x_offset;
 173              		.loc 1 203 0
ARM GAS  C:\Users\Greg\AppData\Local\Temp\cca3x1Un.s 			page 8


 174 00a0 2368     		ldr	r3, [r4]
 175 00a2 9B7C     		ldrb	r3, [r3, #18]
 176              	.L21:
 204:..\..\u8g2\csrc/u8x8_d_ssd1309.c ****       }
 205:..\..\u8g2\csrc/u8x8_d_ssd1309.c ****       else
 206:..\..\u8g2\csrc/u8x8_d_ssd1309.c ****       {
 207:..\..\u8g2\csrc/u8x8_d_ssd1309.c **** 	u8x8_cad_SendSequence(u8x8, u8x8_d_ssd1309_128x64_flip1_seq);
 208:..\..\u8g2\csrc/u8x8_d_ssd1309.c **** 	u8x8->x_offset = u8x8->display_info->flipmode_x_offset;
 177              		.loc 1 208 0
 178 00a4 A377     		strb	r3, [r4, #30]
 179              	.L7:
 195:..\..\u8g2\csrc/u8x8_d_ssd1309.c ****   
 180              		.loc 1 195 0
 181 00a6 0120     		movs	r0, #1
 182 00a8 17E0     		b	.L17
 183              	.LVL25:
 184              	.L16:
 197:..\..\u8g2\csrc/u8x8_d_ssd1309.c ****   {
 185              		.loc 1 197 0
 186 00aa 0A29     		cmp	r1, #10
 187 00ac EFD1     		bne	.L25
 209:..\..\u8g2\csrc/u8x8_d_ssd1309.c ****       }
 210:..\..\u8g2\csrc/u8x8_d_ssd1309.c ****       break;
 211:..\..\u8g2\csrc/u8x8_d_ssd1309.c ****     case U8X8_MSG_DISPLAY_INIT:
 212:..\..\u8g2\csrc/u8x8_d_ssd1309.c ****       u8x8_d_helper_display_init(u8x8);
 188              		.loc 1 212 0
 189 00ae 2000     		movs	r0, r4
 190              	.LVL26:
 191 00b0 FFF7FEFF 		bl	u8x8_d_helper_display_init
 192              	.LVL27:
 213:..\..\u8g2\csrc/u8x8_d_ssd1309.c ****       u8x8_cad_SendSequence(u8x8, u8x8_d_ssd1309_128x64_noname_init_seq);    
 193              		.loc 1 213 0
 194 00b4 0949     		ldr	r1, .L26
 195 00b6 1831     		adds	r1, r1, #24
 196 00b8 D7E7     		b	.L19
 197              	.LVL28:
 198              	.L10:
 207:..\..\u8g2\csrc/u8x8_d_ssd1309.c **** 	u8x8->x_offset = u8x8->display_info->flipmode_x_offset;
 199              		.loc 1 207 0
 200 00ba 1131     		adds	r1, r1, #17
 201 00bc 2000     		movs	r0, r4
 202              	.LVL29:
 203 00be FFF7FEFF 		bl	u8x8_cad_SendSequence
 204              	.LVL30:
 208:..\..\u8g2\csrc/u8x8_d_ssd1309.c ****       }
 205              		.loc 1 208 0
 206 00c2 2368     		ldr	r3, [r4]
 207 00c4 DB7C     		ldrb	r3, [r3, #19]
 208 00c6 EDE7     		b	.L21
 209              	.LVL31:
 210              	.L24:
 214:..\..\u8g2\csrc/u8x8_d_ssd1309.c ****       break;
 215:..\..\u8g2\csrc/u8x8_d_ssd1309.c ****     case U8X8_MSG_DISPLAY_SETUP_MEMORY:
 216:..\..\u8g2\csrc/u8x8_d_ssd1309.c ****       u8x8_d_helper_display_setup_memory(u8x8, &u8x8_ssd1309_128x64_noname_display_info);
 217:..\..\u8g2\csrc/u8x8_d_ssd1309.c ****       break;
 218:..\..\u8g2\csrc/u8x8_d_ssd1309.c ****     default:
 219:..\..\u8g2\csrc/u8x8_d_ssd1309.c ****       return 0;
ARM GAS  C:\Users\Greg\AppData\Local\Temp\cca3x1Un.s 			page 9


 211              		.loc 1 219 0
 212 00c8 0020     		movs	r0, #0
 213              	.LVL32:
 197:..\..\u8g2\csrc/u8x8_d_ssd1309.c ****   {
 214              		.loc 1 197 0
 215 00ca 0929     		cmp	r1, #9
 216 00cc 05D1     		bne	.L17
 216:..\..\u8g2\csrc/u8x8_d_ssd1309.c ****       break;
 217              		.loc 1 216 0
 218 00ce 0349     		ldr	r1, .L26
 219              	.LVL33:
 220 00d0 2000     		movs	r0, r4
 221 00d2 4431     		adds	r1, r1, #68
 222 00d4 FFF7FEFF 		bl	u8x8_d_helper_display_setup_memory
 223              	.LVL34:
 224 00d8 E5E7     		b	.L7
 225              	.L17:
 220:..\..\u8g2\csrc/u8x8_d_ssd1309.c ****   }
 221:..\..\u8g2\csrc/u8x8_d_ssd1309.c ****   return 1;
 222:..\..\u8g2\csrc/u8x8_d_ssd1309.c **** }
 226              		.loc 1 222 0
 227              		@ sp needed
 228              	.LVL35:
 229              	.LVL36:
 230 00da FEBD     		pop	{r1, r2, r3, r4, r5, r6, r7, pc}
 231              	.L27:
 232              		.align	2
 233              	.L26:
 234 00dc 00000000 		.word	.LANCHOR0
 235              		.cfi_endproc
 236              	.LFE1:
 237              		.size	u8x8_d_ssd1309_128x64_noname, .-u8x8_d_ssd1309_128x64_noname
 238              		.section	.rodata
 239              		.align	2
 240              		.set	.LANCHOR0,. + 0
 241              		.type	u8x8_d_ssd1309_powersave0_seq, %object
 242              		.size	u8x8_d_ssd1309_powersave0_seq, 5
 243              	u8x8_d_ssd1309_powersave0_seq:
 244 0000 18       		.byte	24
 245 0001 15       		.byte	21
 246 0002 AF       		.byte	-81
 247 0003 19       		.byte	25
 248 0004 FF       		.byte	-1
 249              		.type	u8x8_d_ssd1309_powersave1_seq, %object
 250              		.size	u8x8_d_ssd1309_powersave1_seq, 5
 251              	u8x8_d_ssd1309_powersave1_seq:
 252 0005 18       		.byte	24
 253 0006 15       		.byte	21
 254 0007 AE       		.byte	-82
 255 0008 19       		.byte	25
 256 0009 FF       		.byte	-1
 257              		.type	u8x8_d_ssd1309_128x64_flip0_seq, %object
 258              		.size	u8x8_d_ssd1309_128x64_flip0_seq, 7
 259              	u8x8_d_ssd1309_128x64_flip0_seq:
 260 000a 18       		.byte	24
 261 000b 15       		.byte	21
 262 000c A1       		.byte	-95
ARM GAS  C:\Users\Greg\AppData\Local\Temp\cca3x1Un.s 			page 10


 263 000d 15       		.byte	21
 264 000e C8       		.byte	-56
 265 000f 19       		.byte	25
 266 0010 FF       		.byte	-1
 267              		.type	u8x8_d_ssd1309_128x64_flip1_seq, %object
 268              		.size	u8x8_d_ssd1309_128x64_flip1_seq, 7
 269              	u8x8_d_ssd1309_128x64_flip1_seq:
 270 0011 18       		.byte	24
 271 0012 15       		.byte	21
 272 0013 A0       		.byte	-96
 273 0014 15       		.byte	21
 274 0015 C0       		.byte	-64
 275 0016 19       		.byte	25
 276 0017 FF       		.byte	-1
 277              		.type	u8x8_d_ssd1309_128x64_noname_init_seq, %object
 278              		.size	u8x8_d_ssd1309_128x64_noname_init_seq, 41
 279              	u8x8_d_ssd1309_128x64_noname_init_seq:
 280 0018 18       		.byte	24
 281 0019 15       		.byte	21
 282 001a AE       		.byte	-82
 283 001b 15       		.byte	21
 284 001c D5       		.byte	-43
 285 001d 16       		.byte	22
 286 001e A0       		.byte	-96
 287 001f 15       		.byte	21
 288 0020 40       		.byte	64
 289 0021 15       		.byte	21
 290 0022 20       		.byte	32
 291 0023 16       		.byte	22
 292 0024 02       		.byte	2
 293 0025 15       		.byte	21
 294 0026 A1       		.byte	-95
 295 0027 15       		.byte	21
 296 0028 C8       		.byte	-56
 297 0029 15       		.byte	21
 298 002a DA       		.byte	-38
 299 002b 16       		.byte	22
 300 002c 12       		.byte	18
 301 002d 15       		.byte	21
 302 002e 81       		.byte	-127
 303 002f 16       		.byte	22
 304 0030 6F       		.byte	111
 305 0031 15       		.byte	21
 306 0032 D9       		.byte	-39
 307 0033 16       		.byte	22
 308 0034 D3       		.byte	-45
 309 0035 15       		.byte	21
 310 0036 DB       		.byte	-37
 311 0037 16       		.byte	22
 312 0038 20       		.byte	32
 313 0039 15       		.byte	21
 314 003a 2E       		.byte	46
 315 003b 15       		.byte	21
 316 003c A4       		.byte	-92
 317 003d 15       		.byte	21
 318 003e A6       		.byte	-90
 319 003f 19       		.byte	25
ARM GAS  C:\Users\Greg\AppData\Local\Temp\cca3x1Un.s 			page 11


 320 0040 FF       		.byte	-1
 321 0041 000000   		.space	3
 322              		.type	u8x8_ssd1309_128x64_noname_display_info, %object
 323              		.size	u8x8_ssd1309_128x64_noname_display_info, 24
 324              	u8x8_ssd1309_128x64_noname_display_info:
 325 0044 00       		.byte	0
 326 0045 01       		.byte	1
 327 0046 14       		.byte	20
 328 0047 0A       		.byte	10
 329 0048 64       		.byte	100
 330 0049 64       		.byte	100
 331 004a 32       		.byte	50
 332 004b 32       		.byte	50
 333 004c 00093D00 		.word	4000000
 334 0050 00       		.byte	0
 335 0051 04       		.byte	4
 336 0052 28       		.byte	40
 337 0053 96       		.byte	-106
 338 0054 10       		.byte	16
 339 0055 08       		.byte	8
 340 0056 02       		.byte	2
 341 0057 02       		.byte	2
 342 0058 8000     		.short	128
 343 005a 4000     		.short	64
 344              		.text
 345              	.Letext0:
 346              		.file 2 "c:\\program files\\cypress\\psoc creator\\4.1\\psoc creator\\import\\gnu\\arm\\5.4.1\\arm
 347              		.file 3 "c:\\program files\\cypress\\psoc creator\\4.1\\psoc creator\\import\\gnu\\arm\\5.4.1\\arm
 348              		.file 4 "..\\..\\u8g2\\csrc\\u8x8.h"