ARM GAS  C:\Users\gjl\AppData\Local\Temp\ccCNLyau.s 			page 1


   1              		.syntax unified
   2              		.cpu cortex-m0
   3              		.fpu softvfp
   4              		.eabi_attribute 20, 1
   5              		.eabi_attribute 21, 1
   6              		.eabi_attribute 23, 3
   7              		.eabi_attribute 24, 1
   8              		.eabi_attribute 25, 1
   9              		.eabi_attribute 26, 1
  10              		.eabi_attribute 30, 4
  11              		.eabi_attribute 34, 0
  12              		.eabi_attribute 18, 4
  13              		.thumb
  14              		.syntax unified
  15              		.file	"u8x8_d_pcd8544_84x48.c"
  16              		.text
  17              	.Ltext0:
  18              		.cfi_sections	.debug_frame
  19              		.section	.text.u8x8_d_pcd8544_84x48,"ax",%progbits
  20              		.align	1
  21              		.global	u8x8_d_pcd8544_84x48
  22              		.code	16
  23              		.thumb_func
  24              		.type	u8x8_d_pcd8544_84x48, %function
  25              	u8x8_d_pcd8544_84x48:
  26              	.LFB0:
  27              		.file 1 "..\\..\\u8g2\\csrc\\u8x8_d_pcd8544_84x48.c"
   1:..\..\u8g2\csrc/u8x8_d_pcd8544_84x48.c **** /*
   2:..\..\u8g2\csrc/u8x8_d_pcd8544_84x48.c **** 
   3:..\..\u8g2\csrc/u8x8_d_pcd8544_84x48.c ****   u8x8_d_pcd8544_84x48.c (so called "Nokia 5110" displays)
   4:..\..\u8g2\csrc/u8x8_d_pcd8544_84x48.c ****   
   5:..\..\u8g2\csrc/u8x8_d_pcd8544_84x48.c ****   Universal 8bit Graphics Library (https://github.com/olikraus/u8g2/)
   6:..\..\u8g2\csrc/u8x8_d_pcd8544_84x48.c **** 
   7:..\..\u8g2\csrc/u8x8_d_pcd8544_84x48.c ****   Copyright (c) 2016, olikraus@gmail.com
   8:..\..\u8g2\csrc/u8x8_d_pcd8544_84x48.c ****   All rights reserved.
   9:..\..\u8g2\csrc/u8x8_d_pcd8544_84x48.c **** 
  10:..\..\u8g2\csrc/u8x8_d_pcd8544_84x48.c ****   Redistribution and use in source and binary forms, with or without modification, 
  11:..\..\u8g2\csrc/u8x8_d_pcd8544_84x48.c ****   are permitted provided that the following conditions are met:
  12:..\..\u8g2\csrc/u8x8_d_pcd8544_84x48.c **** 
  13:..\..\u8g2\csrc/u8x8_d_pcd8544_84x48.c ****   * Redistributions of source code must retain the above copyright notice, this list 
  14:..\..\u8g2\csrc/u8x8_d_pcd8544_84x48.c ****     of conditions and the following disclaimer.
  15:..\..\u8g2\csrc/u8x8_d_pcd8544_84x48.c ****     
  16:..\..\u8g2\csrc/u8x8_d_pcd8544_84x48.c ****   * Redistributions in binary form must reproduce the above copyright notice, this 
  17:..\..\u8g2\csrc/u8x8_d_pcd8544_84x48.c ****     list of conditions and the following disclaimer in the documentation and/or other 
  18:..\..\u8g2\csrc/u8x8_d_pcd8544_84x48.c ****     materials provided with the distribution.
  19:..\..\u8g2\csrc/u8x8_d_pcd8544_84x48.c **** 
  20:..\..\u8g2\csrc/u8x8_d_pcd8544_84x48.c ****   THIS SOFTWARE IS PROVIDED BY THE COPYRIGHT HOLDERS AND 
  21:..\..\u8g2\csrc/u8x8_d_pcd8544_84x48.c ****   CONTRIBUTORS "AS IS" AND ANY EXPRESS OR IMPLIED WARRANTIES, 
  22:..\..\u8g2\csrc/u8x8_d_pcd8544_84x48.c ****   INCLUDING, BUT NOT LIMITED TO, THE IMPLIED WARRANTIES OF 
  23:..\..\u8g2\csrc/u8x8_d_pcd8544_84x48.c ****   MERCHANTABILITY AND FITNESS FOR A PARTICULAR PURPOSE ARE 
  24:..\..\u8g2\csrc/u8x8_d_pcd8544_84x48.c ****   DISCLAIMED. IN NO EVENT SHALL THE COPYRIGHT HOLDER OR 
  25:..\..\u8g2\csrc/u8x8_d_pcd8544_84x48.c ****   CONTRIBUTORS BE LIABLE FOR ANY DIRECT, INDIRECT, INCIDENTAL, 
  26:..\..\u8g2\csrc/u8x8_d_pcd8544_84x48.c ****   SPECIAL, EXEMPLARY, OR CONSEQUENTIAL DAMAGES (INCLUDING, BUT 
  27:..\..\u8g2\csrc/u8x8_d_pcd8544_84x48.c ****   NOT LIMITED TO, PROCUREMENT OF SUBSTITUTE GOODS OR SERVICES; 
  28:..\..\u8g2\csrc/u8x8_d_pcd8544_84x48.c ****   LOSS OF USE, DATA, OR PROFITS; OR BUSINESS INTERRUPTION) HOWEVER 
  29:..\..\u8g2\csrc/u8x8_d_pcd8544_84x48.c ****   CAUSED AND ON ANY THEORY OF LIABILITY, WHETHER IN CONTRACT, 
  30:..\..\u8g2\csrc/u8x8_d_pcd8544_84x48.c ****   STRICT LIABILITY, OR TORT (INCLUDING NEGLIGENCE OR OTHERWISE) 
ARM GAS  C:\Users\gjl\AppData\Local\Temp\ccCNLyau.s 			page 2


  31:..\..\u8g2\csrc/u8x8_d_pcd8544_84x48.c ****   ARISING IN ANY WAY OUT OF THE USE OF THIS SOFTWARE, EVEN IF 
  32:..\..\u8g2\csrc/u8x8_d_pcd8544_84x48.c ****   ADVISED OF THE POSSIBILITY OF SUCH DAMAGE.  
  33:..\..\u8g2\csrc/u8x8_d_pcd8544_84x48.c **** 
  34:..\..\u8g2\csrc/u8x8_d_pcd8544_84x48.c ****   
  35:..\..\u8g2\csrc/u8x8_d_pcd8544_84x48.c **** */
  36:..\..\u8g2\csrc/u8x8_d_pcd8544_84x48.c **** #include "u8x8.h"
  37:..\..\u8g2\csrc/u8x8_d_pcd8544_84x48.c **** 
  38:..\..\u8g2\csrc/u8x8_d_pcd8544_84x48.c **** 
  39:..\..\u8g2\csrc/u8x8_d_pcd8544_84x48.c **** 
  40:..\..\u8g2\csrc/u8x8_d_pcd8544_84x48.c **** 
  41:..\..\u8g2\csrc/u8x8_d_pcd8544_84x48.c **** static const uint8_t u8x8_d_pcd8544_84x48_init_seq[] = {
  42:..\..\u8g2\csrc/u8x8_d_pcd8544_84x48.c ****     
  43:..\..\u8g2\csrc/u8x8_d_pcd8544_84x48.c ****   U8X8_START_TRANSFER(),             	/* enable chip, delay is part of the transfer start */
  44:..\..\u8g2\csrc/u8x8_d_pcd8544_84x48.c ****   
  45:..\..\u8g2\csrc/u8x8_d_pcd8544_84x48.c ****   U8X8_C(0x021),            			/* activate chip (PD=0), horizontal increment (V=0), enter extended 
  46:..\..\u8g2\csrc/u8x8_d_pcd8544_84x48.c ****   U8X8_C(0x006),		                /* temp. control: b10 = 2  */
  47:..\..\u8g2\csrc/u8x8_d_pcd8544_84x48.c ****   U8X8_C(0x013),		                /* bias system 1:48 */
  48:..\..\u8g2\csrc/u8x8_d_pcd8544_84x48.c ****   U8X8_C(0x0c0),		                /* medium Vop  */
  49:..\..\u8g2\csrc/u8x8_d_pcd8544_84x48.c ****   
  50:..\..\u8g2\csrc/u8x8_d_pcd8544_84x48.c ****   U8X8_C(0x020),		                /* activate chip (PD=0), horizontal increment (V=0), enter normal
  51:..\..\u8g2\csrc/u8x8_d_pcd8544_84x48.c ****   U8X8_C(0x008),				/* blank */
  52:..\..\u8g2\csrc/u8x8_d_pcd8544_84x48.c ****   U8X8_C(0x024),		                /* power down (PD=1), horizontal increment (V=0), enter normal co
  53:..\..\u8g2\csrc/u8x8_d_pcd8544_84x48.c ****     
  54:..\..\u8g2\csrc/u8x8_d_pcd8544_84x48.c ****   U8X8_END_TRANSFER(),             	/* disable chip */
  55:..\..\u8g2\csrc/u8x8_d_pcd8544_84x48.c ****   U8X8_END()             			/* end of sequence */
  56:..\..\u8g2\csrc/u8x8_d_pcd8544_84x48.c **** };
  57:..\..\u8g2\csrc/u8x8_d_pcd8544_84x48.c **** 
  58:..\..\u8g2\csrc/u8x8_d_pcd8544_84x48.c **** static const uint8_t u8x8_d_pcd8544_84x48_powersave0_seq[] = {
  59:..\..\u8g2\csrc/u8x8_d_pcd8544_84x48.c ****   U8X8_START_TRANSFER(),             	/* enable chip, delay is part of the transfer start */
  60:..\..\u8g2\csrc/u8x8_d_pcd8544_84x48.c ****   U8X8_C(0x020),		                /* activate chip (PD=0), horizontal increment (V=0), enter normal
  61:..\..\u8g2\csrc/u8x8_d_pcd8544_84x48.c ****   U8X8_C(0x00c),				/* display on */
  62:..\..\u8g2\csrc/u8x8_d_pcd8544_84x48.c ****   U8X8_END_TRANSFER(),             	/* disable chip */
  63:..\..\u8g2\csrc/u8x8_d_pcd8544_84x48.c ****   U8X8_END()             			/* end of sequence */
  64:..\..\u8g2\csrc/u8x8_d_pcd8544_84x48.c **** };
  65:..\..\u8g2\csrc/u8x8_d_pcd8544_84x48.c **** 
  66:..\..\u8g2\csrc/u8x8_d_pcd8544_84x48.c **** static const uint8_t u8x8_d_pcd8544_84x48_powersave1_seq[] = {
  67:..\..\u8g2\csrc/u8x8_d_pcd8544_84x48.c ****   U8X8_START_TRANSFER(),             	/* enable chip, delay is part of the transfer start */
  68:..\..\u8g2\csrc/u8x8_d_pcd8544_84x48.c ****   U8X8_C(0x020),		                /* activate chip (PD=0), horizontal increment (V=0), enter normal
  69:..\..\u8g2\csrc/u8x8_d_pcd8544_84x48.c ****   U8X8_C(0x008),				/* blank */
  70:..\..\u8g2\csrc/u8x8_d_pcd8544_84x48.c ****   U8X8_C(0x024),		                /* power down (PD=1), horizontal increment (V=0), enter normal co
  71:..\..\u8g2\csrc/u8x8_d_pcd8544_84x48.c ****   U8X8_END_TRANSFER(),             	/* disable chip */
  72:..\..\u8g2\csrc/u8x8_d_pcd8544_84x48.c ****   U8X8_END()             			/* end of sequence */
  73:..\..\u8g2\csrc/u8x8_d_pcd8544_84x48.c **** };
  74:..\..\u8g2\csrc/u8x8_d_pcd8544_84x48.c **** 
  75:..\..\u8g2\csrc/u8x8_d_pcd8544_84x48.c **** 
  76:..\..\u8g2\csrc/u8x8_d_pcd8544_84x48.c **** 
  77:..\..\u8g2\csrc/u8x8_d_pcd8544_84x48.c **** static const u8x8_display_info_t u8x8_pcd8544_84x48_display_info =
  78:..\..\u8g2\csrc/u8x8_d_pcd8544_84x48.c **** {
  79:..\..\u8g2\csrc/u8x8_d_pcd8544_84x48.c ****   /* chip_enable_level = */ 0,
  80:..\..\u8g2\csrc/u8x8_d_pcd8544_84x48.c ****   /* chip_disable_level = */ 1,
  81:..\..\u8g2\csrc/u8x8_d_pcd8544_84x48.c ****   
  82:..\..\u8g2\csrc/u8x8_d_pcd8544_84x48.c ****   /* post_chip_enable_wait_ns = */ 5,
  83:..\..\u8g2\csrc/u8x8_d_pcd8544_84x48.c ****   /* pre_chip_disable_wait_ns = */ 5,
  84:..\..\u8g2\csrc/u8x8_d_pcd8544_84x48.c ****   /* reset_pulse_width_ms = */ 2, 
  85:..\..\u8g2\csrc/u8x8_d_pcd8544_84x48.c ****   /* post_reset_wait_ms = */ 2, 
  86:..\..\u8g2\csrc/u8x8_d_pcd8544_84x48.c ****   /* sda_setup_time_ns = */ 12,		
  87:..\..\u8g2\csrc/u8x8_d_pcd8544_84x48.c ****   /* sck_pulse_width_ns = */ 75,	/* half of cycle time (100ns according to datasheet), AVR: below 7
ARM GAS  C:\Users\gjl\AppData\Local\Temp\ccCNLyau.s 			page 3


  88:..\..\u8g2\csrc/u8x8_d_pcd8544_84x48.c ****   /* sck_clock_hz = */ 4000000UL,	/* since Arduino 1.6.0, the SPI bus speed in Hz. Should be  10000
  89:..\..\u8g2\csrc/u8x8_d_pcd8544_84x48.c ****   /* spi_mode = */ 0,		/* active high, rising edge */
  90:..\..\u8g2\csrc/u8x8_d_pcd8544_84x48.c ****   /* i2c_bus_clock_100kHz = */ 4,
  91:..\..\u8g2\csrc/u8x8_d_pcd8544_84x48.c ****   /* data_setup_time_ns = */ 30,
  92:..\..\u8g2\csrc/u8x8_d_pcd8544_84x48.c ****   /* write_pulse_width_ns = */ 40,
  93:..\..\u8g2\csrc/u8x8_d_pcd8544_84x48.c ****   /* tile_width = */ 11,		/* width of 11*8=88 pixel */
  94:..\..\u8g2\csrc/u8x8_d_pcd8544_84x48.c ****   /* tile_hight = */ 6,
  95:..\..\u8g2\csrc/u8x8_d_pcd8544_84x48.c ****   /* default_x_offset = */ 0,
  96:..\..\u8g2\csrc/u8x8_d_pcd8544_84x48.c ****   /* flipmode_x_offset = */ 0,
  97:..\..\u8g2\csrc/u8x8_d_pcd8544_84x48.c ****   /* pixel_width = */ 84,
  98:..\..\u8g2\csrc/u8x8_d_pcd8544_84x48.c ****   /* pixel_height = */ 48
  99:..\..\u8g2\csrc/u8x8_d_pcd8544_84x48.c **** };
 100:..\..\u8g2\csrc/u8x8_d_pcd8544_84x48.c **** 
 101:..\..\u8g2\csrc/u8x8_d_pcd8544_84x48.c **** uint8_t u8x8_d_pcd8544_84x48(u8x8_t *u8x8, uint8_t msg, uint8_t arg_int, void *arg_ptr)
 102:..\..\u8g2\csrc/u8x8_d_pcd8544_84x48.c **** {
  28              		.loc 1 102 0
  29              		.cfi_startproc
  30              		@ args = 0, pretend = 0, frame = 8
  31              		@ frame_needed = 0, uses_anonymous_args = 0
  32              	.LVL0:
  33 0000 F7B5     		push	{r0, r1, r2, r4, r5, r6, r7, lr}
  34              		.cfi_def_cfa_offset 32
  35              		.cfi_offset 0, -32
  36              		.cfi_offset 1, -28
  37              		.cfi_offset 2, -24
  38              		.cfi_offset 4, -20
  39              		.cfi_offset 5, -16
  40              		.cfi_offset 6, -12
  41              		.cfi_offset 7, -8
  42              		.cfi_offset 14, -4
 103:..\..\u8g2\csrc/u8x8_d_pcd8544_84x48.c ****   uint8_t x, c;
 104:..\..\u8g2\csrc/u8x8_d_pcd8544_84x48.c ****   uint8_t *ptr;
 105:..\..\u8g2\csrc/u8x8_d_pcd8544_84x48.c ****   switch(msg)
  43              		.loc 1 105 0
  44 0002 0939     		subs	r1, r1, #9
  45              	.LVL1:
 102:..\..\u8g2\csrc/u8x8_d_pcd8544_84x48.c ****   uint8_t x, c;
  46              		.loc 1 102 0
  47 0004 0400     		movs	r4, r0
  48 0006 1700     		movs	r7, r2
  49 0008 1E00     		movs	r6, r3
  50              		.loc 1 105 0
  51 000a 0800     		movs	r0, r1
  52              	.LVL2:
  53 000c 0629     		cmp	r1, #6
  54 000e 5DD8     		bhi	.L14
  55 0010 FFF7FEFF 		bl	__gnu_thumb1_case_uqi
  56              	.L4:
  57 0014 04       		.byte	(.L3-.L4)/2
  58 0015 09       		.byte	(.L5-.L4)/2
  59 0016 0F       		.byte	(.L6-.L4)/2
  60 0017 5C       		.byte	(.L14-.L4)/2
  61 0018 5C       		.byte	(.L14-.L4)/2
  62 0019 1A       		.byte	(.L7-.L4)/2
  63 001a 28       		.byte	(.L8-.L4)/2
  64 001b 00       		.p2align 1
  65              	.L3:
ARM GAS  C:\Users\gjl\AppData\Local\Temp\ccCNLyau.s 			page 4


 106:..\..\u8g2\csrc/u8x8_d_pcd8544_84x48.c ****   {
 107:..\..\u8g2\csrc/u8x8_d_pcd8544_84x48.c ****     case U8X8_MSG_DISPLAY_SETUP_MEMORY:
 108:..\..\u8g2\csrc/u8x8_d_pcd8544_84x48.c ****       u8x8_d_helper_display_setup_memory(u8x8, &u8x8_pcd8544_84x48_display_info);
  66              		.loc 1 108 0
  67 001c 2C49     		ldr	r1, .L19
  68 001e 2000     		movs	r0, r4
  69 0020 FFF7FEFF 		bl	u8x8_d_helper_display_setup_memory
  70              	.LVL3:
  71 0024 0CE0     		b	.L16
  72              	.LVL4:
  73              	.L5:
 109:..\..\u8g2\csrc/u8x8_d_pcd8544_84x48.c ****       break;
 110:..\..\u8g2\csrc/u8x8_d_pcd8544_84x48.c ****     case U8X8_MSG_DISPLAY_INIT:
 111:..\..\u8g2\csrc/u8x8_d_pcd8544_84x48.c ****       u8x8_d_helper_display_init(u8x8);
  74              		.loc 1 111 0
  75 0026 2000     		movs	r0, r4
  76 0028 FFF7FEFF 		bl	u8x8_d_helper_display_init
  77              	.LVL5:
 112:..\..\u8g2\csrc/u8x8_d_pcd8544_84x48.c ****       u8x8_cad_SendSequence(u8x8, u8x8_d_pcd8544_84x48_init_seq);
  78              		.loc 1 112 0
  79 002c 2849     		ldr	r1, .L19
  80 002e 1831     		adds	r1, r1, #24
  81 0030 03E0     		b	.L17
  82              	.LVL6:
  83              	.L6:
  84 0032 2749     		ldr	r1, .L19
 113:..\..\u8g2\csrc/u8x8_d_pcd8544_84x48.c ****       break;
 114:..\..\u8g2\csrc/u8x8_d_pcd8544_84x48.c ****     case U8X8_MSG_DISPLAY_SET_POWER_SAVE:
 115:..\..\u8g2\csrc/u8x8_d_pcd8544_84x48.c ****       if ( arg_int == 0 )
  85              		.loc 1 115 0
  86 0034 002A     		cmp	r2, #0
  87 0036 05D1     		bne	.L9
 116:..\..\u8g2\csrc/u8x8_d_pcd8544_84x48.c **** 	u8x8_cad_SendSequence(u8x8, u8x8_d_pcd8544_84x48_powersave0_seq);
  88              		.loc 1 116 0
  89 0038 2931     		adds	r1, r1, #41
  90              	.LVL7:
  91              	.L17:
  92 003a 2000     		movs	r0, r4
  93 003c FFF7FEFF 		bl	u8x8_cad_SendSequence
  94              	.LVL8:
  95              	.L16:
 117:..\..\u8g2\csrc/u8x8_d_pcd8544_84x48.c ****       else
 118:..\..\u8g2\csrc/u8x8_d_pcd8544_84x48.c **** 	u8x8_cad_SendSequence(u8x8, u8x8_d_pcd8544_84x48_powersave1_seq);
 119:..\..\u8g2\csrc/u8x8_d_pcd8544_84x48.c ****       break;
 120:..\..\u8g2\csrc/u8x8_d_pcd8544_84x48.c ****     // case U8X8_MSG_DISPLAY_SET_FLIP_MODE:
 121:..\..\u8g2\csrc/u8x8_d_pcd8544_84x48.c ****     // 	  break; 	NOT SUPPORTED
 122:..\..\u8g2\csrc/u8x8_d_pcd8544_84x48.c ****       
 123:..\..\u8g2\csrc/u8x8_d_pcd8544_84x48.c **** #ifdef U8X8_WITH_SET_CONTRAST
 124:..\..\u8g2\csrc/u8x8_d_pcd8544_84x48.c ****     case U8X8_MSG_DISPLAY_SET_CONTRAST:
 125:..\..\u8g2\csrc/u8x8_d_pcd8544_84x48.c ****       u8x8_cad_StartTransfer(u8x8);
 126:..\..\u8g2\csrc/u8x8_d_pcd8544_84x48.c ****       u8x8_cad_SendCmd(u8x8, 0x021 ); /* command mode, extended function set */
 127:..\..\u8g2\csrc/u8x8_d_pcd8544_84x48.c ****       u8x8_cad_SendCmd(u8x8, 0x080 | (arg_int >> 1) );
 128:..\..\u8g2\csrc/u8x8_d_pcd8544_84x48.c ****       u8x8_cad_EndTransfer(u8x8);
 129:..\..\u8g2\csrc/u8x8_d_pcd8544_84x48.c ****       break;
 130:..\..\u8g2\csrc/u8x8_d_pcd8544_84x48.c **** #endif
 131:..\..\u8g2\csrc/u8x8_d_pcd8544_84x48.c ****     case U8X8_MSG_DISPLAY_DRAW_TILE:
 132:..\..\u8g2\csrc/u8x8_d_pcd8544_84x48.c ****       u8x8_cad_StartTransfer(u8x8);
ARM GAS  C:\Users\gjl\AppData\Local\Temp\ccCNLyau.s 			page 5


 133:..\..\u8g2\csrc/u8x8_d_pcd8544_84x48.c ****     
 134:..\..\u8g2\csrc/u8x8_d_pcd8544_84x48.c ****       x = ((u8x8_tile_t *)arg_ptr)->x_pos;
 135:..\..\u8g2\csrc/u8x8_d_pcd8544_84x48.c ****       x *= 8;
 136:..\..\u8g2\csrc/u8x8_d_pcd8544_84x48.c ****       x += u8x8->x_offset;
 137:..\..\u8g2\csrc/u8x8_d_pcd8544_84x48.c ****       u8x8_cad_SendCmd(u8x8, 0x020 ); /* activate chip (PD=0), horizontal increment (V=0), enter no
 138:..\..\u8g2\csrc/u8x8_d_pcd8544_84x48.c ****       u8x8_cad_SendCmd(u8x8, 0x080 | (x) );	/* set X address */
 139:..\..\u8g2\csrc/u8x8_d_pcd8544_84x48.c ****       u8x8_cad_SendCmd(u8x8, 0x040 | (((u8x8_tile_t *)arg_ptr)->y_pos) );	/* set Y address */
 140:..\..\u8g2\csrc/u8x8_d_pcd8544_84x48.c ****     
 141:..\..\u8g2\csrc/u8x8_d_pcd8544_84x48.c ****       ptr = ((u8x8_tile_t *)arg_ptr)->tile_ptr;
 142:..\..\u8g2\csrc/u8x8_d_pcd8544_84x48.c ****       c = ((u8x8_tile_t *)arg_ptr)->cnt;
 143:..\..\u8g2\csrc/u8x8_d_pcd8544_84x48.c ****       c *= 8;	
 144:..\..\u8g2\csrc/u8x8_d_pcd8544_84x48.c ****       do
 145:..\..\u8g2\csrc/u8x8_d_pcd8544_84x48.c ****       {
 146:..\..\u8g2\csrc/u8x8_d_pcd8544_84x48.c **** 	if ( c + x > 84u )
 147:..\..\u8g2\csrc/u8x8_d_pcd8544_84x48.c **** 	{
 148:..\..\u8g2\csrc/u8x8_d_pcd8544_84x48.c **** 	  if ( x >= 84u )
 149:..\..\u8g2\csrc/u8x8_d_pcd8544_84x48.c **** 	    break;
 150:..\..\u8g2\csrc/u8x8_d_pcd8544_84x48.c **** 	  c = 84u;
 151:..\..\u8g2\csrc/u8x8_d_pcd8544_84x48.c **** 	  c -= x;
 152:..\..\u8g2\csrc/u8x8_d_pcd8544_84x48.c **** 	}
 153:..\..\u8g2\csrc/u8x8_d_pcd8544_84x48.c **** 	u8x8_cad_SendData(u8x8, c, ptr);	/* note: SendData can not handle more than 255 bytes */
 154:..\..\u8g2\csrc/u8x8_d_pcd8544_84x48.c **** 	x += c;
 155:..\..\u8g2\csrc/u8x8_d_pcd8544_84x48.c **** 	arg_int--;
 156:..\..\u8g2\csrc/u8x8_d_pcd8544_84x48.c ****       } while( arg_int > 0 );
 157:..\..\u8g2\csrc/u8x8_d_pcd8544_84x48.c ****       
 158:..\..\u8g2\csrc/u8x8_d_pcd8544_84x48.c ****       u8x8_cad_EndTransfer(u8x8);
 159:..\..\u8g2\csrc/u8x8_d_pcd8544_84x48.c ****       break;
 160:..\..\u8g2\csrc/u8x8_d_pcd8544_84x48.c ****     default:
 161:..\..\u8g2\csrc/u8x8_d_pcd8544_84x48.c ****       return 0;
 162:..\..\u8g2\csrc/u8x8_d_pcd8544_84x48.c ****   }
 163:..\..\u8g2\csrc/u8x8_d_pcd8544_84x48.c ****   return 1;
  96              		.loc 1 163 0
  97 0040 0120     		movs	r0, #1
  98 0042 44E0     		b	.L2
  99              	.LVL9:
 100              	.L9:
 118:..\..\u8g2\csrc/u8x8_d_pcd8544_84x48.c ****       break;
 101              		.loc 1 118 0
 102 0044 3031     		adds	r1, r1, #48
 103 0046 F8E7     		b	.L17
 104              	.L7:
 125:..\..\u8g2\csrc/u8x8_d_pcd8544_84x48.c ****       u8x8_cad_SendCmd(u8x8, 0x021 ); /* command mode, extended function set */
 105              		.loc 1 125 0
 106 0048 2000     		movs	r0, r4
 107 004a FFF7FEFF 		bl	u8x8_cad_StartTransfer
 108              	.LVL10:
 126:..\..\u8g2\csrc/u8x8_d_pcd8544_84x48.c ****       u8x8_cad_SendCmd(u8x8, 0x080 | (arg_int >> 1) );
 109              		.loc 1 126 0
 110 004e 2121     		movs	r1, #33
 111 0050 2000     		movs	r0, r4
 112 0052 FFF7FEFF 		bl	u8x8_cad_SendCmd
 113              	.LVL11:
 127:..\..\u8g2\csrc/u8x8_d_pcd8544_84x48.c ****       u8x8_cad_EndTransfer(u8x8);
 114              		.loc 1 127 0
 115 0056 8023     		movs	r3, #128
 116 0058 7908     		lsrs	r1, r7, #1
 117 005a 1943     		orrs	r1, r3
ARM GAS  C:\Users\gjl\AppData\Local\Temp\ccCNLyau.s 			page 6


 118 005c 2000     		movs	r0, r4
 119 005e FFF7FEFF 		bl	u8x8_cad_SendCmd
 120              	.LVL12:
 121 0062 20E0     		b	.L13
 122              	.LVL13:
 123              	.L8:
 132:..\..\u8g2\csrc/u8x8_d_pcd8544_84x48.c ****     
 124              		.loc 1 132 0
 125 0064 2000     		movs	r0, r4
 126 0066 FFF7FEFF 		bl	u8x8_cad_StartTransfer
 127              	.LVL14:
 134:..\..\u8g2\csrc/u8x8_d_pcd8544_84x48.c ****       x *= 8;
 128              		.loc 1 134 0
 129 006a 7579     		ldrb	r5, [r6, #5]
 130              	.LVL15:
 136:..\..\u8g2\csrc/u8x8_d_pcd8544_84x48.c ****       u8x8_cad_SendCmd(u8x8, 0x020 ); /* activate chip (PD=0), horizontal increment (V=0), enter no
 131              		.loc 1 136 0
 132 006c A37F     		ldrb	r3, [r4, #30]
 137:..\..\u8g2\csrc/u8x8_d_pcd8544_84x48.c ****       u8x8_cad_SendCmd(u8x8, 0x080 | (x) );	/* set X address */
 133              		.loc 1 137 0
 134 006e 2021     		movs	r1, #32
 135:..\..\u8g2\csrc/u8x8_d_pcd8544_84x48.c ****       x += u8x8->x_offset;
 135              		.loc 1 135 0
 136 0070 ED00     		lsls	r5, r5, #3
 137              	.LVL16:
 137:..\..\u8g2\csrc/u8x8_d_pcd8544_84x48.c ****       u8x8_cad_SendCmd(u8x8, 0x080 | (x) );	/* set X address */
 138              		.loc 1 137 0
 139 0072 2000     		movs	r0, r4
 136:..\..\u8g2\csrc/u8x8_d_pcd8544_84x48.c ****       u8x8_cad_SendCmd(u8x8, 0x020 ); /* activate chip (PD=0), horizontal increment (V=0), enter no
 140              		.loc 1 136 0
 141 0074 ED18     		adds	r5, r5, r3
 142              	.LVL17:
 137:..\..\u8g2\csrc/u8x8_d_pcd8544_84x48.c ****       u8x8_cad_SendCmd(u8x8, 0x080 | (x) );	/* set X address */
 143              		.loc 1 137 0
 144 0076 FFF7FEFF 		bl	u8x8_cad_SendCmd
 145              	.LVL18:
 138:..\..\u8g2\csrc/u8x8_d_pcd8544_84x48.c ****       u8x8_cad_SendCmd(u8x8, 0x040 | (((u8x8_tile_t *)arg_ptr)->y_pos) );	/* set Y address */
 146              		.loc 1 138 0
 147 007a 8021     		movs	r1, #128
 136:..\..\u8g2\csrc/u8x8_d_pcd8544_84x48.c ****       u8x8_cad_SendCmd(u8x8, 0x020 ); /* activate chip (PD=0), horizontal increment (V=0), enter no
 148              		.loc 1 136 0
 149 007c EDB2     		uxtb	r5, r5
 150              	.LVL19:
 138:..\..\u8g2\csrc/u8x8_d_pcd8544_84x48.c ****       u8x8_cad_SendCmd(u8x8, 0x040 | (((u8x8_tile_t *)arg_ptr)->y_pos) );	/* set Y address */
 151              		.loc 1 138 0
 152 007e 2943     		orrs	r1, r5
 153 0080 2000     		movs	r0, r4
 154 0082 FFF7FEFF 		bl	u8x8_cad_SendCmd
 155              	.LVL20:
 139:..\..\u8g2\csrc/u8x8_d_pcd8544_84x48.c ****     
 156              		.loc 1 139 0
 157 0086 4021     		movs	r1, #64
 158 0088 B379     		ldrb	r3, [r6, #6]
 159 008a 2000     		movs	r0, r4
 160 008c 1943     		orrs	r1, r3
 161 008e FFF7FEFF 		bl	u8x8_cad_SendCmd
 162              	.LVL21:
ARM GAS  C:\Users\gjl\AppData\Local\Temp\ccCNLyau.s 			page 7


 141:..\..\u8g2\csrc/u8x8_d_pcd8544_84x48.c ****       c = ((u8x8_tile_t *)arg_ptr)->cnt;
 163              		.loc 1 141 0
 164 0092 3368     		ldr	r3, [r6]
 165 0094 0193     		str	r3, [sp, #4]
 166              	.LVL22:
 142:..\..\u8g2\csrc/u8x8_d_pcd8544_84x48.c ****       c *= 8;	
 167              		.loc 1 142 0
 168 0096 3679     		ldrb	r6, [r6, #4]
 169              	.LVL23:
 143:..\..\u8g2\csrc/u8x8_d_pcd8544_84x48.c ****       do
 170              		.loc 1 143 0
 171 0098 F600     		lsls	r6, r6, #3
 172              	.LVL24:
 173 009a F6B2     		uxtb	r6, r6
 174              	.LVL25:
 175              	.L12:
 146:..\..\u8g2\csrc/u8x8_d_pcd8544_84x48.c **** 	{
 176              		.loc 1 146 0
 177 009c 7319     		adds	r3, r6, r5
 178 009e 542B     		cmp	r3, #84
 179 00a0 08DD     		ble	.L10
 148:..\..\u8g2\csrc/u8x8_d_pcd8544_84x48.c **** 	    break;
 180              		.loc 1 148 0
 181 00a2 532D     		cmp	r5, #83
 182 00a4 03D9     		bls	.L11
 183              	.LVL26:
 184              	.L13:
 158:..\..\u8g2\csrc/u8x8_d_pcd8544_84x48.c ****       break;
 185              		.loc 1 158 0
 186 00a6 2000     		movs	r0, r4
 187 00a8 FFF7FEFF 		bl	u8x8_cad_EndTransfer
 188              	.LVL27:
 189 00ac C8E7     		b	.L16
 190              	.LVL28:
 191              	.L11:
 151:..\..\u8g2\csrc/u8x8_d_pcd8544_84x48.c **** 	}
 192              		.loc 1 151 0
 193 00ae 5423     		movs	r3, #84
 194 00b0 5E1B     		subs	r6, r3, r5
 195 00b2 F6B2     		uxtb	r6, r6
 196              	.LVL29:
 197              	.L10:
 155:..\..\u8g2\csrc/u8x8_d_pcd8544_84x48.c ****       } while( arg_int > 0 );
 198              		.loc 1 155 0
 199 00b4 013F     		subs	r7, r7, #1
 200              	.LVL30:
 153:..\..\u8g2\csrc/u8x8_d_pcd8544_84x48.c **** 	x += c;
 201              		.loc 1 153 0
 202 00b6 019A     		ldr	r2, [sp, #4]
 203 00b8 3100     		movs	r1, r6
 204 00ba 2000     		movs	r0, r4
 154:..\..\u8g2\csrc/u8x8_d_pcd8544_84x48.c **** 	arg_int--;
 205              		.loc 1 154 0
 206 00bc AD19     		adds	r5, r5, r6
 207              	.LVL31:
 155:..\..\u8g2\csrc/u8x8_d_pcd8544_84x48.c ****       } while( arg_int > 0 );
 208              		.loc 1 155 0
ARM GAS  C:\Users\gjl\AppData\Local\Temp\ccCNLyau.s 			page 8


 209 00be FFB2     		uxtb	r7, r7
 153:..\..\u8g2\csrc/u8x8_d_pcd8544_84x48.c **** 	x += c;
 210              		.loc 1 153 0
 211 00c0 FFF7FEFF 		bl	u8x8_cad_SendData
 212              	.LVL32:
 154:..\..\u8g2\csrc/u8x8_d_pcd8544_84x48.c **** 	arg_int--;
 213              		.loc 1 154 0
 214 00c4 EDB2     		uxtb	r5, r5
 215              	.LVL33:
 156:..\..\u8g2\csrc/u8x8_d_pcd8544_84x48.c ****       
 216              		.loc 1 156 0
 217 00c6 002F     		cmp	r7, #0
 218 00c8 E8D1     		bne	.L12
 219 00ca ECE7     		b	.L13
 220              	.LVL34:
 221              	.L14:
 161:..\..\u8g2\csrc/u8x8_d_pcd8544_84x48.c ****   }
 222              		.loc 1 161 0
 223 00cc 0020     		movs	r0, #0
 224              	.LVL35:
 225              	.L2:
 164:..\..\u8g2\csrc/u8x8_d_pcd8544_84x48.c **** }
 226              		.loc 1 164 0
 227              		@ sp needed
 228              	.LVL36:
 229 00ce FEBD     		pop	{r1, r2, r3, r4, r5, r6, r7, pc}
 230              	.L20:
 231              		.align	2
 232              	.L19:
 233 00d0 00000000 		.word	.LANCHOR0
 234              		.cfi_endproc
 235              	.LFE0:
 236              		.size	u8x8_d_pcd8544_84x48, .-u8x8_d_pcd8544_84x48
 237              		.section	.rodata
 238              		.align	2
 239              		.set	.LANCHOR0,. + 0
 240              		.type	u8x8_pcd8544_84x48_display_info, %object
 241              		.size	u8x8_pcd8544_84x48_display_info, 24
 242              	u8x8_pcd8544_84x48_display_info:
 243 0000 00       		.byte	0
 244 0001 01       		.byte	1
 245 0002 05       		.byte	5
 246 0003 05       		.byte	5
 247 0004 02       		.byte	2
 248 0005 02       		.byte	2
 249 0006 0C       		.byte	12
 250 0007 4B       		.byte	75
 251 0008 00093D00 		.word	4000000
 252 000c 00       		.byte	0
 253 000d 04       		.byte	4
 254 000e 1E       		.byte	30
 255 000f 28       		.byte	40
 256 0010 0B       		.byte	11
 257 0011 06       		.byte	6
 258 0012 00       		.byte	0
 259 0013 00       		.byte	0
 260 0014 5400     		.short	84
ARM GAS  C:\Users\gjl\AppData\Local\Temp\ccCNLyau.s 			page 9


 261 0016 3000     		.short	48
 262              		.type	u8x8_d_pcd8544_84x48_init_seq, %object
 263              		.size	u8x8_d_pcd8544_84x48_init_seq, 17
 264              	u8x8_d_pcd8544_84x48_init_seq:
 265 0018 18       		.byte	24
 266 0019 15       		.byte	21
 267 001a 21       		.byte	33
 268 001b 15       		.byte	21
 269 001c 06       		.byte	6
 270 001d 15       		.byte	21
 271 001e 13       		.byte	19
 272 001f 15       		.byte	21
 273 0020 C0       		.byte	-64
 274 0021 15       		.byte	21
 275 0022 20       		.byte	32
 276 0023 15       		.byte	21
 277 0024 08       		.byte	8
 278 0025 15       		.byte	21
 279 0026 24       		.byte	36
 280 0027 19       		.byte	25
 281 0028 FF       		.byte	-1
 282              		.type	u8x8_d_pcd8544_84x48_powersave0_seq, %object
 283              		.size	u8x8_d_pcd8544_84x48_powersave0_seq, 7
 284              	u8x8_d_pcd8544_84x48_powersave0_seq:
 285 0029 18       		.byte	24
 286 002a 15       		.byte	21
 287 002b 20       		.byte	32
 288 002c 15       		.byte	21
 289 002d 0C       		.byte	12
 290 002e 19       		.byte	25
 291 002f FF       		.byte	-1
 292              		.type	u8x8_d_pcd8544_84x48_powersave1_seq, %object
 293              		.size	u8x8_d_pcd8544_84x48_powersave1_seq, 9
 294              	u8x8_d_pcd8544_84x48_powersave1_seq:
 295 0030 18       		.byte	24
 296 0031 15       		.byte	21
 297 0032 20       		.byte	32
 298 0033 15       		.byte	21
 299 0034 08       		.byte	8
 300 0035 15       		.byte	21
 301 0036 24       		.byte	36
 302 0037 19       		.byte	25
 303 0038 FF       		.byte	-1
 304              		.text
 305              	.Letext0:
 306              		.file 2 "c:\\program files (x86)\\cypress\\psoc creator\\4.1\\psoc creator\\import\\gnu\\arm\\5.4.
 307              		.file 3 "c:\\program files (x86)\\cypress\\psoc creator\\4.1\\psoc creator\\import\\gnu\\arm\\5.4.
 308              		.file 4 "..\\..\\u8g2\\csrc\\u8x8.h"