ARM GAS  C:\Users\Greg\AppData\Local\Temp\cc7ovj0a.s 			page 1


   1              		.syntax unified
   2              		.cpu cortex-m0
   3              		.fpu softvfp
   4              		.eabi_attribute 20, 1
   5              		.eabi_attribute 21, 1
   6              		.eabi_attribute 23, 3
   7              		.eabi_attribute 24, 1
   8              		.eabi_attribute 25, 1
   9              		.eabi_attribute 26, 1
  10              		.eabi_attribute 30, 4
  11              		.eabi_attribute 34, 0
  12              		.eabi_attribute 18, 4
  13              		.thumb
  14              		.syntax unified
  15              		.file	"u8x8_string.c"
  16              		.text
  17              	.Ltext0:
  18              		.cfi_sections	.debug_frame
  19              		.section	.text.u8x8_GetStringLineCnt,"ax",%progbits
  20              		.align	1
  21              		.global	u8x8_GetStringLineCnt
  22              		.code	16
  23              		.thumb_func
  24              		.type	u8x8_GetStringLineCnt, %function
  25              	u8x8_GetStringLineCnt:
  26              	.LFB0:
  27              		.file 1 "..\\..\\u8g2\\csrc\\u8x8_string.c"
   1:..\..\u8g2\csrc/u8x8_string.c **** /*
   2:..\..\u8g2\csrc/u8x8_string.c **** 
   3:..\..\u8g2\csrc/u8x8_string.c ****   u8x8_string.c
   4:..\..\u8g2\csrc/u8x8_string.c ****   
   5:..\..\u8g2\csrc/u8x8_string.c ****   string line procedures
   6:..\..\u8g2\csrc/u8x8_string.c ****   
   7:..\..\u8g2\csrc/u8x8_string.c ****   Universal 8bit Graphics Library (https://github.com/olikraus/u8g2/)
   8:..\..\u8g2\csrc/u8x8_string.c **** 
   9:..\..\u8g2\csrc/u8x8_string.c ****   Copyright (c) 2016, olikraus@gmail.com
  10:..\..\u8g2\csrc/u8x8_string.c ****   All rights reserved.
  11:..\..\u8g2\csrc/u8x8_string.c **** 
  12:..\..\u8g2\csrc/u8x8_string.c ****   Redistribution and use in source and binary forms, with or without modification, 
  13:..\..\u8g2\csrc/u8x8_string.c ****   are permitted provided that the following conditions are met:
  14:..\..\u8g2\csrc/u8x8_string.c **** 
  15:..\..\u8g2\csrc/u8x8_string.c ****   * Redistributions of source code must retain the above copyright notice, this list 
  16:..\..\u8g2\csrc/u8x8_string.c ****     of conditions and the following disclaimer.
  17:..\..\u8g2\csrc/u8x8_string.c ****     
  18:..\..\u8g2\csrc/u8x8_string.c ****   * Redistributions in binary form must reproduce the above copyright notice, this 
  19:..\..\u8g2\csrc/u8x8_string.c ****     list of conditions and the following disclaimer in the documentation and/or other 
  20:..\..\u8g2\csrc/u8x8_string.c ****     materials provided with the distribution.
  21:..\..\u8g2\csrc/u8x8_string.c **** 
  22:..\..\u8g2\csrc/u8x8_string.c ****   THIS SOFTWARE IS PROVIDED BY THE COPYRIGHT HOLDERS AND 
  23:..\..\u8g2\csrc/u8x8_string.c ****   CONTRIBUTORS "AS IS" AND ANY EXPRESS OR IMPLIED WARRANTIES, 
  24:..\..\u8g2\csrc/u8x8_string.c ****   INCLUDING, BUT NOT LIMITED TO, THE IMPLIED WARRANTIES OF 
  25:..\..\u8g2\csrc/u8x8_string.c ****   MERCHANTABILITY AND FITNESS FOR A PARTICULAR PURPOSE ARE 
  26:..\..\u8g2\csrc/u8x8_string.c ****   DISCLAIMED. IN NO EVENT SHALL THE COPYRIGHT HOLDER OR 
  27:..\..\u8g2\csrc/u8x8_string.c ****   CONTRIBUTORS BE LIABLE FOR ANY DIRECT, INDIRECT, INCIDENTAL, 
  28:..\..\u8g2\csrc/u8x8_string.c ****   SPECIAL, EXEMPLARY, OR CONSEQUENTIAL DAMAGES (INCLUDING, BUT 
  29:..\..\u8g2\csrc/u8x8_string.c ****   NOT LIMITED TO, PROCUREMENT OF SUBSTITUTE GOODS OR SERVICES; 
  30:..\..\u8g2\csrc/u8x8_string.c ****   LOSS OF USE, DATA, OR PROFITS; OR BUSINESS INTERRUPTION) HOWEVER 
ARM GAS  C:\Users\Greg\AppData\Local\Temp\cc7ovj0a.s 			page 2


  31:..\..\u8g2\csrc/u8x8_string.c ****   CAUSED AND ON ANY THEORY OF LIABILITY, WHETHER IN CONTRACT, 
  32:..\..\u8g2\csrc/u8x8_string.c ****   STRICT LIABILITY, OR TORT (INCLUDING NEGLIGENCE OR OTHERWISE) 
  33:..\..\u8g2\csrc/u8x8_string.c ****   ARISING IN ANY WAY OUT OF THE USE OF THIS SOFTWARE, EVEN IF 
  34:..\..\u8g2\csrc/u8x8_string.c ****   ADVISED OF THE POSSIBILITY OF SUCH DAMAGE.    
  35:..\..\u8g2\csrc/u8x8_string.c **** 
  36:..\..\u8g2\csrc/u8x8_string.c **** */
  37:..\..\u8g2\csrc/u8x8_string.c **** 
  38:..\..\u8g2\csrc/u8x8_string.c **** #include "u8x8.h"
  39:..\..\u8g2\csrc/u8x8_string.c **** 
  40:..\..\u8g2\csrc/u8x8_string.c **** uint8_t u8x8_GetStringLineCnt(const char *str)
  41:..\..\u8g2\csrc/u8x8_string.c **** {
  28              		.loc 1 41 0
  29              		.cfi_startproc
  30              		@ args = 0, pretend = 0, frame = 0
  31              		@ frame_needed = 0, uses_anonymous_args = 0
  32              		@ link register save eliminated.
  33              	.LVL0:
  42:..\..\u8g2\csrc/u8x8_string.c ****   char e;
  43:..\..\u8g2\csrc/u8x8_string.c ****   uint8_t line_cnt = 1;
  44:..\..\u8g2\csrc/u8x8_string.c ****   if ( str == NULL )
  45:..\..\u8g2\csrc/u8x8_string.c ****     return 0;
  34              		.loc 1 45 0
  35 0000 031E     		subs	r3, r0, #0
  44:..\..\u8g2\csrc/u8x8_string.c ****     return 0;
  36              		.loc 1 44 0
  37 0002 09D0     		beq	.L2
  38 0004 0123     		movs	r3, #1
  39              	.LVL1:
  40              	.L3:
  46:..\..\u8g2\csrc/u8x8_string.c ****   for(;;)
  47:..\..\u8g2\csrc/u8x8_string.c ****   {
  48:..\..\u8g2\csrc/u8x8_string.c ****     e = *str;
  41              		.loc 1 48 0
  42 0006 0278     		ldrb	r2, [r0]
  43              	.LVL2:
  49:..\..\u8g2\csrc/u8x8_string.c ****     if ( e == '\0' )
  44              		.loc 1 49 0
  45 0008 002A     		cmp	r2, #0
  46 000a 05D0     		beq	.L2
  50:..\..\u8g2\csrc/u8x8_string.c ****       break;
  51:..\..\u8g2\csrc/u8x8_string.c ****     str++;
  47              		.loc 1 51 0
  48 000c 0130     		adds	r0, r0, #1
  49              	.LVL3:
  52:..\..\u8g2\csrc/u8x8_string.c ****     if ( e == '\n' )
  50              		.loc 1 52 0
  51 000e 0A2A     		cmp	r2, #10
  52 0010 F9D1     		bne	.L3
  53:..\..\u8g2\csrc/u8x8_string.c ****       line_cnt++;
  53              		.loc 1 53 0
  54 0012 0133     		adds	r3, r3, #1
  55              	.LVL4:
  56 0014 DBB2     		uxtb	r3, r3
  57              	.LVL5:
  58 0016 F6E7     		b	.L3
  59              	.LVL6:
  60              	.L2:
ARM GAS  C:\Users\Greg\AppData\Local\Temp\cc7ovj0a.s 			page 3


  54:..\..\u8g2\csrc/u8x8_string.c ****   }
  55:..\..\u8g2\csrc/u8x8_string.c ****   return line_cnt;
  56:..\..\u8g2\csrc/u8x8_string.c **** }
  61              		.loc 1 56 0
  62 0018 1800     		movs	r0, r3
  63              	.LVL7:
  64              		@ sp needed
  65 001a 7047     		bx	lr
  66              		.cfi_endproc
  67              	.LFE0:
  68              		.size	u8x8_GetStringLineCnt, .-u8x8_GetStringLineCnt
  69              		.section	.text.u8x8_GetStringLineStart,"ax",%progbits
  70              		.align	1
  71              		.global	u8x8_GetStringLineStart
  72              		.code	16
  73              		.thumb_func
  74              		.type	u8x8_GetStringLineStart, %function
  75              	u8x8_GetStringLineStart:
  76              	.LFB1:
  57:..\..\u8g2\csrc/u8x8_string.c **** 
  58:..\..\u8g2\csrc/u8x8_string.c **** 
  59:..\..\u8g2\csrc/u8x8_string.c **** /*
  60:..\..\u8g2\csrc/u8x8_string.c ****     Assumes strings, separated by '\n' in "str".
  61:..\..\u8g2\csrc/u8x8_string.c ****     Returns the string at index "line_idx". First strng has line_idx = 0
  62:..\..\u8g2\csrc/u8x8_string.c ****     Example:
  63:..\..\u8g2\csrc/u8x8_string.c ****       Returns "xyz" for line_idx = 1 with str = "abc\nxyz"
  64:..\..\u8g2\csrc/u8x8_string.c ****     Support both UTF8 and normal strings.
  65:..\..\u8g2\csrc/u8x8_string.c **** */
  66:..\..\u8g2\csrc/u8x8_string.c **** const char *u8x8_GetStringLineStart(uint8_t line_idx, const char *str )
  67:..\..\u8g2\csrc/u8x8_string.c **** {
  77              		.loc 1 67 0
  78              		.cfi_startproc
  79              		@ args = 0, pretend = 0, frame = 0
  80              		@ frame_needed = 0, uses_anonymous_args = 0
  81              	.LVL8:
  82 0000 10B5     		push	{r4, lr}
  83              		.cfi_def_cfa_offset 8
  84              		.cfi_offset 4, -8
  85              		.cfi_offset 14, -4
  86              		.loc 1 67 0
  87 0002 0400     		movs	r4, r0
  68:..\..\u8g2\csrc/u8x8_string.c ****   char e;
  69:..\..\u8g2\csrc/u8x8_string.c ****   uint8_t line_cnt = 1;
  70:..\..\u8g2\csrc/u8x8_string.c ****   
  71:..\..\u8g2\csrc/u8x8_string.c ****   if ( line_idx == 0 )
  72:..\..\u8g2\csrc/u8x8_string.c ****     return str;
  88              		.loc 1 72 0
  89 0004 0800     		movs	r0, r1
  90              	.LVL9:
  71:..\..\u8g2\csrc/u8x8_string.c ****     return str;
  91              		.loc 1 71 0
  92 0006 002C     		cmp	r4, #0
  93 0008 0ED0     		beq	.L9
  94 000a 0122     		movs	r2, #1
  95              	.LVL10:
  96              	.L10:
  97              	.LBB4:
ARM GAS  C:\Users\Greg\AppData\Local\Temp\cc7ovj0a.s 			page 4


  98              	.LBB5:
  73:..\..\u8g2\csrc/u8x8_string.c **** 
  74:..\..\u8g2\csrc/u8x8_string.c ****   for(;;)
  75:..\..\u8g2\csrc/u8x8_string.c ****   {
  76:..\..\u8g2\csrc/u8x8_string.c ****     e = *str;
  99              		.loc 1 76 0
 100 000c 0B78     		ldrb	r3, [r1]
 101              	.LVL11:
  77:..\..\u8g2\csrc/u8x8_string.c ****     if ( e == '\0' )
 102              		.loc 1 77 0
 103 000e 002B     		cmp	r3, #0
 104 0010 07D0     		beq	.L13
  78:..\..\u8g2\csrc/u8x8_string.c ****       break;
  79:..\..\u8g2\csrc/u8x8_string.c ****     str++;
 105              		.loc 1 79 0
 106 0012 0131     		adds	r1, r1, #1
 107              	.LVL12:
  80:..\..\u8g2\csrc/u8x8_string.c ****     if ( e == '\n' )
 108              		.loc 1 80 0
 109 0014 0A2B     		cmp	r3, #10
 110 0016 F9D1     		bne	.L10
  81:..\..\u8g2\csrc/u8x8_string.c ****     {
  82:..\..\u8g2\csrc/u8x8_string.c ****       if ( line_cnt == line_idx )
 111              		.loc 1 82 0
 112 0018 9442     		cmp	r4, r2
 113 001a 04D0     		beq	.L14
  83:..\..\u8g2\csrc/u8x8_string.c **** 	return str;
  84:..\..\u8g2\csrc/u8x8_string.c ****       line_cnt++;
 114              		.loc 1 84 0
 115 001c 0132     		adds	r2, r2, #1
 116              	.LVL13:
 117 001e D2B2     		uxtb	r2, r2
 118              	.LVL14:
 119 0020 F4E7     		b	.L10
 120              	.L13:
  85:..\..\u8g2\csrc/u8x8_string.c ****     }
  86:..\..\u8g2\csrc/u8x8_string.c ****   }
  87:..\..\u8g2\csrc/u8x8_string.c ****   return NULL;	/* line not found */
 121              		.loc 1 87 0
 122 0022 1800     		movs	r0, r3
 123              	.LVL15:
 124 0024 00E0     		b	.L9
 125              	.LVL16:
 126              	.L14:
  79:..\..\u8g2\csrc/u8x8_string.c ****     if ( e == '\n' )
 127              		.loc 1 79 0
 128 0026 0800     		movs	r0, r1
 129              	.LVL17:
 130              	.L9:
 131              	.LBE5:
 132              	.LBE4:
  88:..\..\u8g2\csrc/u8x8_string.c **** }
 133              		.loc 1 88 0
 134              		@ sp needed
 135 0028 10BD     		pop	{r4, pc}
 136              		.cfi_endproc
 137              	.LFE1:
ARM GAS  C:\Users\Greg\AppData\Local\Temp\cc7ovj0a.s 			page 5


 138              		.size	u8x8_GetStringLineStart, .-u8x8_GetStringLineStart
 139              		.section	.text.u8x8_CopyStringLine,"ax",%progbits
 140              		.align	1
 141              		.global	u8x8_CopyStringLine
 142              		.code	16
 143              		.thumb_func
 144              		.type	u8x8_CopyStringLine, %function
 145              	u8x8_CopyStringLine:
 146              	.LFB2:
  89:..\..\u8g2\csrc/u8x8_string.c **** 
  90:..\..\u8g2\csrc/u8x8_string.c **** /* copy until first '\n' or '\0' in str */
  91:..\..\u8g2\csrc/u8x8_string.c **** /* Important: There is no string overflow check, ensure */
  92:..\..\u8g2\csrc/u8x8_string.c **** /* that the destination buffer is large enough */
  93:..\..\u8g2\csrc/u8x8_string.c **** void u8x8_CopyStringLine(char *dest, uint8_t line_idx, const char *str)
  94:..\..\u8g2\csrc/u8x8_string.c **** {
 147              		.loc 1 94 0
 148              		.cfi_startproc
 149              		@ args = 0, pretend = 0, frame = 0
 150              		@ frame_needed = 0, uses_anonymous_args = 0
 151              	.LVL18:
 152 0000 10B5     		push	{r4, lr}
 153              		.cfi_def_cfa_offset 8
 154              		.cfi_offset 4, -8
 155              		.cfi_offset 14, -4
 156              		.loc 1 94 0
 157 0002 0400     		movs	r4, r0
 158 0004 0800     		movs	r0, r1
 159              	.LVL19:
  95:..\..\u8g2\csrc/u8x8_string.c ****   if ( dest == NULL )
 160              		.loc 1 95 0
 161 0006 002C     		cmp	r4, #0
 162 0008 0FD0     		beq	.L16
  96:..\..\u8g2\csrc/u8x8_string.c ****     return;
  97:..\..\u8g2\csrc/u8x8_string.c ****   str = u8x8_GetStringLineStart( line_idx, str );
 163              		.loc 1 97 0
 164 000a 1100     		movs	r1, r2
 165              	.LVL20:
 166 000c FFF7FEFF 		bl	u8x8_GetStringLineStart
 167              	.LVL21:
  98:..\..\u8g2\csrc/u8x8_string.c ****   if ( str != NULL )
 168              		.loc 1 98 0
 169 0010 0028     		cmp	r0, #0
 170 0012 08D0     		beq	.L18
 171              	.L19:
  99:..\..\u8g2\csrc/u8x8_string.c ****   {
 100:..\..\u8g2\csrc/u8x8_string.c ****     for(;;)
 101:..\..\u8g2\csrc/u8x8_string.c ****     {
 102:..\..\u8g2\csrc/u8x8_string.c ****       if ( *str == '\n' || *str == '\0' )
 172              		.loc 1 102 0
 173 0014 0378     		ldrb	r3, [r0]
 174 0016 0A2B     		cmp	r3, #10
 175 0018 05D0     		beq	.L18
 176              		.loc 1 102 0 is_stmt 0 discriminator 1
 177 001a 002B     		cmp	r3, #0
 178 001c 03D0     		beq	.L18
 103:..\..\u8g2\csrc/u8x8_string.c **** 	break;
 104:..\..\u8g2\csrc/u8x8_string.c ****       *dest = *str;
ARM GAS  C:\Users\Greg\AppData\Local\Temp\cc7ovj0a.s 			page 6


 179              		.loc 1 104 0 is_stmt 1
 180 001e 2370     		strb	r3, [r4]
 105:..\..\u8g2\csrc/u8x8_string.c ****       dest++;
 106:..\..\u8g2\csrc/u8x8_string.c ****       str++;
 181              		.loc 1 106 0
 182 0020 0130     		adds	r0, r0, #1
 183              	.LVL22:
 105:..\..\u8g2\csrc/u8x8_string.c ****       dest++;
 184              		.loc 1 105 0
 185 0022 0134     		adds	r4, r4, #1
 186              	.LVL23:
 107:..\..\u8g2\csrc/u8x8_string.c ****     }
 187              		.loc 1 107 0
 188 0024 F6E7     		b	.L19
 189              	.L18:
 108:..\..\u8g2\csrc/u8x8_string.c ****   }
 109:..\..\u8g2\csrc/u8x8_string.c ****   *dest = '\0';
 190              		.loc 1 109 0
 191 0026 0023     		movs	r3, #0
 192 0028 2370     		strb	r3, [r4]
 193              	.LVL24:
 194              	.L16:
 110:..\..\u8g2\csrc/u8x8_string.c **** }
 195              		.loc 1 110 0
 196              		@ sp needed
 197              	.LVL25:
 198 002a 10BD     		pop	{r4, pc}
 199              		.cfi_endproc
 200              	.LFE2:
 201              		.size	u8x8_CopyStringLine, .-u8x8_CopyStringLine
 202              		.section	.text.u8x8_DrawUTF8Line,"ax",%progbits
 203              		.align	1
 204              		.global	u8x8_DrawUTF8Line
 205              		.code	16
 206              		.thumb_func
 207              		.type	u8x8_DrawUTF8Line, %function
 208              	u8x8_DrawUTF8Line:
 209              	.LFB3:
 111:..\..\u8g2\csrc/u8x8_string.c **** 
 112:..\..\u8g2\csrc/u8x8_string.c **** /*
 113:..\..\u8g2\csrc/u8x8_string.c ****   Draw a string
 114:..\..\u8g2\csrc/u8x8_string.c ****   Extend the string to size "w"
 115:..\..\u8g2\csrc/u8x8_string.c ****   Center the string within "w"
 116:..\..\u8g2\csrc/u8x8_string.c ****   return the size of the string
 117:..\..\u8g2\csrc/u8x8_string.c **** 
 118:..\..\u8g2\csrc/u8x8_string.c **** */
 119:..\..\u8g2\csrc/u8x8_string.c **** uint8_t u8x8_DrawUTF8Line(u8x8_t *u8x8, uint8_t x, uint8_t y, uint8_t w, const char *s)
 120:..\..\u8g2\csrc/u8x8_string.c **** {
 210              		.loc 1 120 0
 211              		.cfi_startproc
 212              		@ args = 4, pretend = 0, frame = 8
 213              		@ frame_needed = 0, uses_anonymous_args = 0
 214              	.LVL26:
 215 0000 F7B5     		push	{r0, r1, r2, r4, r5, r6, r7, lr}
 216              		.cfi_def_cfa_offset 32
 217              		.cfi_offset 0, -32
 218              		.cfi_offset 1, -28
ARM GAS  C:\Users\Greg\AppData\Local\Temp\cc7ovj0a.s 			page 7


 219              		.cfi_offset 2, -24
 220              		.cfi_offset 4, -20
 221              		.cfi_offset 5, -16
 222              		.cfi_offset 6, -12
 223              		.cfi_offset 7, -8
 224              		.cfi_offset 14, -4
 225              		.loc 1 120 0
 226 0002 0F00     		movs	r7, r1
 121:..\..\u8g2\csrc/u8x8_string.c ****   uint8_t d, lw;
 122:..\..\u8g2\csrc/u8x8_string.c ****   uint8_t cx, dx;
 123:..\..\u8g2\csrc/u8x8_string.c ****     
 124:..\..\u8g2\csrc/u8x8_string.c ****   d = 0;
 125:..\..\u8g2\csrc/u8x8_string.c ****   
 126:..\..\u8g2\csrc/u8x8_string.c ****   lw = u8x8_GetUTF8Len(u8x8, s);
 227              		.loc 1 126 0
 228 0004 0899     		ldr	r1, [sp, #32]
 229              	.LVL27:
 120:..\..\u8g2\csrc/u8x8_string.c ****   uint8_t d, lw;
 230              		.loc 1 120 0
 231 0006 1D00     		movs	r5, r3
 232 0008 0600     		movs	r6, r0
 233 000a 0092     		str	r2, [sp]
 234              		.loc 1 126 0
 235 000c FFF7FEFF 		bl	u8x8_GetUTF8Len
 236              	.LVL28:
 124:..\..\u8g2\csrc/u8x8_string.c ****   
 237              		.loc 1 124 0
 238 0010 0023     		movs	r3, #0
 127:..\..\u8g2\csrc/u8x8_string.c ****   if ( lw < w )
 239              		.loc 1 127 0
 240 0012 A842     		cmp	r0, r5
 241 0014 02D2     		bcs	.L33
 242              	.LVL29:
 128:..\..\u8g2\csrc/u8x8_string.c ****   {
 129:..\..\u8g2\csrc/u8x8_string.c ****     d = w;
 130:..\..\u8g2\csrc/u8x8_string.c ****     d -=lw;
 243              		.loc 1 130 0
 244 0016 2B1A     		subs	r3, r5, r0
 245 0018 DBB2     		uxtb	r3, r3
 246              	.LVL30:
 131:..\..\u8g2\csrc/u8x8_string.c ****     d /= 2;
 247              		.loc 1 131 0
 248 001a 5B08     		lsrs	r3, r3, #1
 249              	.LVL31:
 250              	.L33:
 132:..\..\u8g2\csrc/u8x8_string.c ****   }
 133:..\..\u8g2\csrc/u8x8_string.c ****     
 134:..\..\u8g2\csrc/u8x8_string.c ****   cx = x;
 251              		.loc 1 134 0
 252 001c 3C00     		movs	r4, r7
 135:..\..\u8g2\csrc/u8x8_string.c ****   dx = cx + d;
 253              		.loc 1 135 0
 254 001e DB19     		adds	r3, r3, r7
 255              	.LVL32:
 256 0020 DBB2     		uxtb	r3, r3
 257 0022 0193     		str	r3, [sp, #4]
 258              	.LVL33:
ARM GAS  C:\Users\Greg\AppData\Local\Temp\cc7ovj0a.s 			page 8


 259              	.L34:
 136:..\..\u8g2\csrc/u8x8_string.c ****   while( cx < dx )
 260              		.loc 1 136 0
 261 0024 019B     		ldr	r3, [sp, #4]
 262 0026 9C42     		cmp	r4, r3
 263 0028 08D2     		bcs	.L39
 137:..\..\u8g2\csrc/u8x8_string.c ****   {
 138:..\..\u8g2\csrc/u8x8_string.c ****     u8x8_DrawUTF8(u8x8, cx, y, " ");
 264              		.loc 1 138 0
 265 002a 2100     		movs	r1, r4
 266 002c 0F4B     		ldr	r3, .L41
 267 002e 009A     		ldr	r2, [sp]
 268 0030 3000     		movs	r0, r6
 139:..\..\u8g2\csrc/u8x8_string.c ****     cx++;
 269              		.loc 1 139 0
 270 0032 0134     		adds	r4, r4, #1
 271              	.LVL34:
 138:..\..\u8g2\csrc/u8x8_string.c ****     cx++;
 272              		.loc 1 138 0
 273 0034 FFF7FEFF 		bl	u8x8_DrawUTF8
 274              	.LVL35:
 275              		.loc 1 139 0
 276 0038 E4B2     		uxtb	r4, r4
 277              	.LVL36:
 278 003a F3E7     		b	.L34
 279              	.L39:
 140:..\..\u8g2\csrc/u8x8_string.c ****   }
 141:..\..\u8g2\csrc/u8x8_string.c ****   cx += u8x8_DrawUTF8(u8x8, cx, y, s);
 280              		.loc 1 141 0
 281 003c 2100     		movs	r1, r4
 282 003e 089B     		ldr	r3, [sp, #32]
 283 0040 009A     		ldr	r2, [sp]
 284 0042 3000     		movs	r0, r6
 285 0044 FFF7FEFF 		bl	u8x8_DrawUTF8
 286              	.LVL37:
 142:..\..\u8g2\csrc/u8x8_string.c ****   dx = x + w;
 287              		.loc 1 142 0
 288 0048 ED19     		adds	r5, r5, r7
 141:..\..\u8g2\csrc/u8x8_string.c ****   dx = x + w;
 289              		.loc 1 141 0
 290 004a 2418     		adds	r4, r4, r0
 291              	.LVL38:
 292 004c E4B2     		uxtb	r4, r4
 293              	.LVL39:
 294              		.loc 1 142 0
 295 004e EDB2     		uxtb	r5, r5
 296              	.LVL40:
 297              	.L36:
 143:..\..\u8g2\csrc/u8x8_string.c ****   while( cx < dx )
 298              		.loc 1 143 0
 299 0050 AC42     		cmp	r4, r5
 300 0052 08D2     		bcs	.L40
 144:..\..\u8g2\csrc/u8x8_string.c ****   {
 145:..\..\u8g2\csrc/u8x8_string.c ****     u8x8_DrawUTF8(u8x8, cx, y, " ");
 301              		.loc 1 145 0
 302 0054 2100     		movs	r1, r4
 303 0056 054B     		ldr	r3, .L41
ARM GAS  C:\Users\Greg\AppData\Local\Temp\cc7ovj0a.s 			page 9


 304 0058 009A     		ldr	r2, [sp]
 305 005a 3000     		movs	r0, r6
 146:..\..\u8g2\csrc/u8x8_string.c ****     cx++;
 306              		.loc 1 146 0
 307 005c 0134     		adds	r4, r4, #1
 308              	.LVL41:
 145:..\..\u8g2\csrc/u8x8_string.c ****     cx++;
 309              		.loc 1 145 0
 310 005e FFF7FEFF 		bl	u8x8_DrawUTF8
 311              	.LVL42:
 312              		.loc 1 146 0
 313 0062 E4B2     		uxtb	r4, r4
 314              	.LVL43:
 315 0064 F4E7     		b	.L36
 316              	.L40:
 317              	.LVL44:
 147:..\..\u8g2\csrc/u8x8_string.c ****   }
 148:..\..\u8g2\csrc/u8x8_string.c ****   cx -= x;
 149:..\..\u8g2\csrc/u8x8_string.c ****   return cx;
 318              		.loc 1 149 0
 319 0066 E41B     		subs	r4, r4, r7
 320              	.LVL45:
 321 0068 E0B2     		uxtb	r0, r4
 150:..\..\u8g2\csrc/u8x8_string.c **** }
 322              		.loc 1 150 0
 323              		@ sp needed
 324              	.LVL46:
 325              	.LVL47:
 326 006a FEBD     		pop	{r1, r2, r3, r4, r5, r6, r7, pc}
 327              	.L42:
 328              		.align	2
 329              	.L41:
 330 006c 00000000 		.word	.LC2
 331              		.cfi_endproc
 332              	.LFE3:
 333              		.size	u8x8_DrawUTF8Line, .-u8x8_DrawUTF8Line
 334              		.section	.text.u8x8_DrawUTF8Lines,"ax",%progbits
 335              		.align	1
 336              		.global	u8x8_DrawUTF8Lines
 337              		.code	16
 338              		.thumb_func
 339              		.type	u8x8_DrawUTF8Lines, %function
 340              	u8x8_DrawUTF8Lines:
 341              	.LFB4:
 151:..\..\u8g2\csrc/u8x8_string.c **** 
 152:..\..\u8g2\csrc/u8x8_string.c **** /*
 153:..\..\u8g2\csrc/u8x8_string.c ****   draw several lines at position x,y.
 154:..\..\u8g2\csrc/u8x8_string.c ****   lines are stored in s and must be separated with '\n'.
 155:..\..\u8g2\csrc/u8x8_string.c ****   lines can be centered with respect to "w" 
 156:..\..\u8g2\csrc/u8x8_string.c ****   if s == NULL nothing is drawn and 0 is returned
 157:..\..\u8g2\csrc/u8x8_string.c ****   returns the number of lines in s
 158:..\..\u8g2\csrc/u8x8_string.c **** */
 159:..\..\u8g2\csrc/u8x8_string.c **** uint8_t u8x8_DrawUTF8Lines(u8x8_t *u8x8, uint8_t x, uint8_t y, uint8_t w, const char *s)
 160:..\..\u8g2\csrc/u8x8_string.c **** {
 342              		.loc 1 160 0
 343              		.cfi_startproc
 344              		@ args = 4, pretend = 0, frame = 16
ARM GAS  C:\Users\Greg\AppData\Local\Temp\cc7ovj0a.s 			page 10


 345              		@ frame_needed = 0, uses_anonymous_args = 0
 346              	.LVL48:
 347 0000 F0B5     		push	{r4, r5, r6, r7, lr}
 348              		.cfi_def_cfa_offset 20
 349              		.cfi_offset 4, -20
 350              		.cfi_offset 5, -16
 351              		.cfi_offset 6, -12
 352              		.cfi_offset 7, -8
 353              		.cfi_offset 14, -4
 354 0002 87B0     		sub	sp, sp, #28
 355              		.cfi_def_cfa_offset 48
 356              		.loc 1 160 0
 357 0004 0390     		str	r0, [sp, #12]
 161:..\..\u8g2\csrc/u8x8_string.c ****   uint8_t i;
 162:..\..\u8g2\csrc/u8x8_string.c ****   uint8_t cnt;
 163:..\..\u8g2\csrc/u8x8_string.c ****   cnt = u8x8_GetStringLineCnt(s);
 358              		.loc 1 163 0
 359 0006 0C98     		ldr	r0, [sp, #48]
 360              	.LVL49:
 160:..\..\u8g2\csrc/u8x8_string.c ****   uint8_t i;
 361              		.loc 1 160 0
 362 0008 0491     		str	r1, [sp, #16]
 363 000a 0592     		str	r2, [sp, #20]
 364 000c 1F00     		movs	r7, r3
 365              		.loc 1 163 0
 366 000e FFF7FEFF 		bl	u8x8_GetStringLineCnt
 367              	.LVL50:
 164:..\..\u8g2\csrc/u8x8_string.c ****   for( i = 0; i < cnt; i++ )
 368              		.loc 1 164 0
 369 0012 0025     		movs	r5, #0
 163:..\..\u8g2\csrc/u8x8_string.c ****   for( i = 0; i < cnt; i++ )
 370              		.loc 1 163 0
 371 0014 0600     		movs	r6, r0
 372              	.LVL51:
 373              	.L44:
 374 0016 059B     		ldr	r3, [sp, #20]
 375 0018 E8B2     		uxtb	r0, r5
 376 001a 1C18     		adds	r4, r3, r0
 377 001c E4B2     		uxtb	r4, r4
 378              	.LVL52:
 379              		.loc 1 164 0 discriminator 1
 380 001e 8642     		cmp	r6, r0
 381 0020 0BD9     		bls	.L46
 165:..\..\u8g2\csrc/u8x8_string.c ****   {
 166:..\..\u8g2\csrc/u8x8_string.c ****     u8x8_DrawUTF8Line(u8x8, x, y, w, u8x8_GetStringLineStart(i, s));
 382              		.loc 1 166 0 discriminator 3
 383 0022 0C99     		ldr	r1, [sp, #48]
 384 0024 FFF7FEFF 		bl	u8x8_GetStringLineStart
 385              	.LVL53:
 386 0028 3B00     		movs	r3, r7
 387 002a 0090     		str	r0, [sp]
 388 002c 2200     		movs	r2, r4
 389 002e 0499     		ldr	r1, [sp, #16]
 390 0030 0398     		ldr	r0, [sp, #12]
 391 0032 FFF7FEFF 		bl	u8x8_DrawUTF8Line
 392              	.LVL54:
 393 0036 0135     		adds	r5, r5, #1
ARM GAS  C:\Users\Greg\AppData\Local\Temp\cc7ovj0a.s 			page 11


 394              	.LVL55:
 395 0038 EDE7     		b	.L44
 396              	.LVL56:
 397              	.L46:
 167:..\..\u8g2\csrc/u8x8_string.c ****     y++;
 168:..\..\u8g2\csrc/u8x8_string.c ****   }
 169:..\..\u8g2\csrc/u8x8_string.c ****   return cnt;
 170:..\..\u8g2\csrc/u8x8_string.c **** }
 398              		.loc 1 170 0
 399 003a 3000     		movs	r0, r6
 400              	.LVL57:
 401 003c 07B0     		add	sp, sp, #28
 402              		@ sp needed
 403              	.LVL58:
 404              	.LVL59:
 405              	.LVL60:
 406 003e F0BD     		pop	{r4, r5, r6, r7, pc}
 407              		.cfi_endproc
 408              	.LFE4:
 409              		.size	u8x8_DrawUTF8Lines, .-u8x8_DrawUTF8Lines
 410              		.section	.rodata.str1.1,"aMS",%progbits,1
 411              	.LC2:
 412 0000 2000     		.ascii	" \000"
 413              		.text
 414              	.Letext0:
 415              		.file 2 "c:\\program files\\cypress\\psoc creator\\4.1\\psoc creator\\import\\gnu\\arm\\5.4.1\\arm
 416              		.file 3 "c:\\program files\\cypress\\psoc creator\\4.1\\psoc creator\\import\\gnu\\arm\\5.4.1\\arm
 417              		.file 4 "..\\..\\u8g2\\csrc\\u8x8.h"