ARM GAS  C:\Users\Greg\AppData\Local\Temp\ccSJSgE8.s 			page 1


   1              		.syntax unified
   2              		.cpu cortex-m0
   3              		.fpu softvfp
   4              		.eabi_attribute 20, 1
   5              		.eabi_attribute 21, 1
   6              		.eabi_attribute 23, 3
   7              		.eabi_attribute 24, 1
   8              		.eabi_attribute 25, 1
   9              		.eabi_attribute 26, 1
  10              		.eabi_attribute 30, 4
  11              		.eabi_attribute 34, 0
  12              		.eabi_attribute 18, 4
  13              		.thumb
  14              		.syntax unified
  15              		.file	"u8x8_d_ssd1607_200x200.c"
  16              		.text
  17              	.Ltext0:
  18              		.cfi_sections	.debug_frame
  19              		.section	.text.u8x8_d_ssd1607_draw_tile,"ax",%progbits
  20              		.align	1
  21              		.code	16
  22              		.thumb_func
  23              		.type	u8x8_d_ssd1607_draw_tile, %function
  24              	u8x8_d_ssd1607_draw_tile:
  25              	.LFB1:
  26              		.file 1 "..\\..\\u8g2\\csrc\\u8x8_d_ssd1607_200x200.c"
   1:..\..\u8g2\csrc/u8x8_d_ssd1607_200x200.c **** /*
   2:..\..\u8g2\csrc/u8x8_d_ssd1607_200x200.c **** 
   3:..\..\u8g2\csrc/u8x8_d_ssd1607_200x200.c ****   u8x8_d_ssd1607_200x200.c
   4:..\..\u8g2\csrc/u8x8_d_ssd1607_200x200.c **** 
   5:..\..\u8g2\csrc/u8x8_d_ssd1607_200x200.c ****   Universal 8bit Graphics Library (https://github.com/olikraus/u8g2/)
   6:..\..\u8g2\csrc/u8x8_d_ssd1607_200x200.c **** 
   7:..\..\u8g2\csrc/u8x8_d_ssd1607_200x200.c ****   Copyright (c) 2016, olikraus@gmail.com
   8:..\..\u8g2\csrc/u8x8_d_ssd1607_200x200.c ****   All rights reserved.
   9:..\..\u8g2\csrc/u8x8_d_ssd1607_200x200.c **** 
  10:..\..\u8g2\csrc/u8x8_d_ssd1607_200x200.c ****   Redistribution and use in source and binary forms, with or without modification, 
  11:..\..\u8g2\csrc/u8x8_d_ssd1607_200x200.c ****   are permitted provided that the following conditions are met:
  12:..\..\u8g2\csrc/u8x8_d_ssd1607_200x200.c **** 
  13:..\..\u8g2\csrc/u8x8_d_ssd1607_200x200.c ****   * Redistributions of source code must retain the above copyright notice, this list 
  14:..\..\u8g2\csrc/u8x8_d_ssd1607_200x200.c ****     of conditions and the following disclaimer.
  15:..\..\u8g2\csrc/u8x8_d_ssd1607_200x200.c ****     
  16:..\..\u8g2\csrc/u8x8_d_ssd1607_200x200.c ****   * Redistributions in binary form must reproduce the above copyright notice, this 
  17:..\..\u8g2\csrc/u8x8_d_ssd1607_200x200.c ****     list of conditions and the following disclaimer in the documentation and/or other 
  18:..\..\u8g2\csrc/u8x8_d_ssd1607_200x200.c ****     materials provided with the distribution.
  19:..\..\u8g2\csrc/u8x8_d_ssd1607_200x200.c **** 
  20:..\..\u8g2\csrc/u8x8_d_ssd1607_200x200.c ****   THIS SOFTWARE IS PROVIDED BY THE COPYRIGHT HOLDERS AND 
  21:..\..\u8g2\csrc/u8x8_d_ssd1607_200x200.c ****   CONTRIBUTORS "AS IS" AND ANY EXPRESS OR IMPLIED WARRANTIES, 
  22:..\..\u8g2\csrc/u8x8_d_ssd1607_200x200.c ****   INCLUDING, BUT NOT LIMITED TO, THE IMPLIED WARRANTIES OF 
  23:..\..\u8g2\csrc/u8x8_d_ssd1607_200x200.c ****   MERCHANTABILITY AND FITNESS FOR A PARTICULAR PURPOSE ARE 
  24:..\..\u8g2\csrc/u8x8_d_ssd1607_200x200.c ****   DISCLAIMED. IN NO EVENT SHALL THE COPYRIGHT HOLDER OR 
  25:..\..\u8g2\csrc/u8x8_d_ssd1607_200x200.c ****   CONTRIBUTORS BE LIABLE FOR ANY DIRECT, INDIRECT, INCIDENTAL, 
  26:..\..\u8g2\csrc/u8x8_d_ssd1607_200x200.c ****   SPECIAL, EXEMPLARY, OR CONSEQUENTIAL DAMAGES (INCLUDING, BUT 
  27:..\..\u8g2\csrc/u8x8_d_ssd1607_200x200.c ****   NOT LIMITED TO, PROCUREMENT OF SUBSTITUTE GOODS OR SERVICES; 
  28:..\..\u8g2\csrc/u8x8_d_ssd1607_200x200.c ****   LOSS OF USE, DATA, OR PROFITS; OR BUSINESS INTERRUPTION) HOWEVER 
  29:..\..\u8g2\csrc/u8x8_d_ssd1607_200x200.c ****   CAUSED AND ON ANY THEORY OF LIABILITY, WHETHER IN CONTRACT, 
  30:..\..\u8g2\csrc/u8x8_d_ssd1607_200x200.c ****   STRICT LIABILITY, OR TORT (INCLUDING NEGLIGENCE OR OTHERWISE) 
  31:..\..\u8g2\csrc/u8x8_d_ssd1607_200x200.c ****   ARISING IN ANY WAY OUT OF THE USE OF THIS SOFTWARE, EVEN IF 
ARM GAS  C:\Users\Greg\AppData\Local\Temp\ccSJSgE8.s 			page 2


  32:..\..\u8g2\csrc/u8x8_d_ssd1607_200x200.c ****   ADVISED OF THE POSSIBILITY OF SUCH DAMAGE.  
  33:..\..\u8g2\csrc/u8x8_d_ssd1607_200x200.c ****   
  34:..\..\u8g2\csrc/u8x8_d_ssd1607_200x200.c ****   SSD1607: 200x300x1
  35:..\..\u8g2\csrc/u8x8_d_ssd1607_200x200.c ****   
  36:..\..\u8g2\csrc/u8x8_d_ssd1607_200x200.c ****   command 
  37:..\..\u8g2\csrc/u8x8_d_ssd1607_200x200.c ****     0x22: assign actions
  38:..\..\u8g2\csrc/u8x8_d_ssd1607_200x200.c ****     0x20: execute actions
  39:..\..\u8g2\csrc/u8x8_d_ssd1607_200x200.c ****   
  40:..\..\u8g2\csrc/u8x8_d_ssd1607_200x200.c ****   action for command 0x022 are (more or less guessed)
  41:..\..\u8g2\csrc/u8x8_d_ssd1607_200x200.c ****     bit 7:	Enable Clock
  42:..\..\u8g2\csrc/u8x8_d_ssd1607_200x200.c ****     bit 6:	Enable Charge Pump
  43:..\..\u8g2\csrc/u8x8_d_ssd1607_200x200.c ****     bit 5:	Load Temparture Value (???)
  44:..\..\u8g2\csrc/u8x8_d_ssd1607_200x200.c ****     bit 4:	Load LUT (???)
  45:..\..\u8g2\csrc/u8x8_d_ssd1607_200x200.c ****     bit 3:	Initial Display (???)
  46:..\..\u8g2\csrc/u8x8_d_ssd1607_200x200.c ****     bit 2:	Pattern Display --> Requires about 945ms with the LUT from below
  47:..\..\u8g2\csrc/u8x8_d_ssd1607_200x200.c ****     bit 1:	Disable Charge Pump
  48:..\..\u8g2\csrc/u8x8_d_ssd1607_200x200.c ****     bit 0:	Disable Clock
  49:..\..\u8g2\csrc/u8x8_d_ssd1607_200x200.c ****     
  50:..\..\u8g2\csrc/u8x8_d_ssd1607_200x200.c ****     Disable Charge Pump and Clock require about 267ms
  51:..\..\u8g2\csrc/u8x8_d_ssd1607_200x200.c ****     Enable Charge Pump and Clock require about 10ms
  52:..\..\u8g2\csrc/u8x8_d_ssd1607_200x200.c **** 
  53:..\..\u8g2\csrc/u8x8_d_ssd1607_200x200.c ****   Notes:
  54:..\..\u8g2\csrc/u8x8_d_ssd1607_200x200.c ****     - Introduced a refresh display message, which copies RAM to display
  55:..\..\u8g2\csrc/u8x8_d_ssd1607_200x200.c ****     - Charge pump and clock are only enabled for the transfer RAM to display
  56:..\..\u8g2\csrc/u8x8_d_ssd1607_200x200.c ****     - U8x8 will not really work because of the two buffers in the SSD1606, however U8g2 should be o
  57:..\..\u8g2\csrc/u8x8_d_ssd1607_200x200.c **** 
  58:..\..\u8g2\csrc/u8x8_d_ssd1607_200x200.c **** */
  59:..\..\u8g2\csrc/u8x8_d_ssd1607_200x200.c **** 
  60:..\..\u8g2\csrc/u8x8_d_ssd1607_200x200.c **** 
  61:..\..\u8g2\csrc/u8x8_d_ssd1607_200x200.c **** #include "u8x8.h"
  62:..\..\u8g2\csrc/u8x8_d_ssd1607_200x200.c **** 
  63:..\..\u8g2\csrc/u8x8_d_ssd1607_200x200.c **** 
  64:..\..\u8g2\csrc/u8x8_d_ssd1607_200x200.c **** #define L(a,b,c,d) (((a)<<6)|((b)<<4)|((c)<<2)|(d))
  65:..\..\u8g2\csrc/u8x8_d_ssd1607_200x200.c **** 
  66:..\..\u8g2\csrc/u8x8_d_ssd1607_200x200.c **** 
  67:..\..\u8g2\csrc/u8x8_d_ssd1607_200x200.c **** /* https://github.com/embeddedadventures/SSD1607/blob/master/SSD1607.cpp */
  68:..\..\u8g2\csrc/u8x8_d_ssd1607_200x200.c **** static const uint8_t u8x8_d_ssd1607_200x200_init_seq[] = {
  69:..\..\u8g2\csrc/u8x8_d_ssd1607_200x200.c ****     
  70:..\..\u8g2\csrc/u8x8_d_ssd1607_200x200.c ****   U8X8_START_TRANSFER(),             	/* enable chip, delay is part of the transfer start */
  71:..\..\u8g2\csrc/u8x8_d_ssd1607_200x200.c ****   
  72:..\..\u8g2\csrc/u8x8_d_ssd1607_200x200.c ****   
  73:..\..\u8g2\csrc/u8x8_d_ssd1607_200x200.c ****   
  74:..\..\u8g2\csrc/u8x8_d_ssd1607_200x200.c **** 
  75:..\..\u8g2\csrc/u8x8_d_ssd1607_200x200.c ****   U8X8_CA(0x10, 0x00),	/* Deep Sleep mode Control: Disable */
  76:..\..\u8g2\csrc/u8x8_d_ssd1607_200x200.c ****   //U8X8_C(0x01),
  77:..\..\u8g2\csrc/u8x8_d_ssd1607_200x200.c ****   //U8X8_A(199),U8X8_A(0),U8X8_A(0),
  78:..\..\u8g2\csrc/u8x8_d_ssd1607_200x200.c ****   
  79:..\..\u8g2\csrc/u8x8_d_ssd1607_200x200.c ****   
  80:..\..\u8g2\csrc/u8x8_d_ssd1607_200x200.c ****   U8X8_CA(0x03, 0x00), 	/* Gate Driving voltage: 15V (lowest value)*/
  81:..\..\u8g2\csrc/u8x8_d_ssd1607_200x200.c ****   U8X8_CA(0x04, 0x0a), 	/* Source Driving voltage: 15V (mid value and POR)*/
  82:..\..\u8g2\csrc/u8x8_d_ssd1607_200x200.c ****   
  83:..\..\u8g2\csrc/u8x8_d_ssd1607_200x200.c ****   U8X8_CA(0x11, 0x01),	/* Define data entry mode, x&y inc, x first */
  84:..\..\u8g2\csrc/u8x8_d_ssd1607_200x200.c ****   U8X8_CAA(0x44, 0, 24),	/* RAM x start & end, each byte has 8 pixel, 25*4=200 */
  85:..\..\u8g2\csrc/u8x8_d_ssd1607_200x200.c ****   U8X8_CAAAA(0x45, 0, 0, 299&255, 299>>8),	/* RAM y start & end, 0..299 */
  86:..\..\u8g2\csrc/u8x8_d_ssd1607_200x200.c ****   
  87:..\..\u8g2\csrc/u8x8_d_ssd1607_200x200.c ****   U8X8_CA(0x4e, 0),	/* set x pos, 0..24 */
  88:..\..\u8g2\csrc/u8x8_d_ssd1607_200x200.c ****   U8X8_CAA(0x4f, 0&255, 0>>8),	/* set y pos, 0...299 */
ARM GAS  C:\Users\Greg\AppData\Local\Temp\ccSJSgE8.s 			page 3


  89:..\..\u8g2\csrc/u8x8_d_ssd1607_200x200.c **** 
  90:..\..\u8g2\csrc/u8x8_d_ssd1607_200x200.c ****   U8X8_CA(0xf0, 0x1f),	/* set booster feedback to internal */
  91:..\..\u8g2\csrc/u8x8_d_ssd1607_200x200.c ****   U8X8_CA(0x22, 0xc0),	/* display update seq. option: enable clk, enable CP, .... todo: this is nev
  92:..\..\u8g2\csrc/u8x8_d_ssd1607_200x200.c ****   
  93:..\..\u8g2\csrc/u8x8_d_ssd1607_200x200.c ****   U8X8_C(0x32),	/* write LUT register*/
  94:..\..\u8g2\csrc/u8x8_d_ssd1607_200x200.c **** 
  95:..\..\u8g2\csrc/u8x8_d_ssd1607_200x200.c ****   
  96:..\..\u8g2\csrc/u8x8_d_ssd1607_200x200.c ****   /* according to the command table, the lut has 240 bits (=30 bytes * 8 bits) */
  97:..\..\u8g2\csrc/u8x8_d_ssd1607_200x200.c ****   
  98:..\..\u8g2\csrc/u8x8_d_ssd1607_200x200.c ****   /* Waveform part of the LUT (20 bytes) */
  99:..\..\u8g2\csrc/u8x8_d_ssd1607_200x200.c ****   /* bit 7/6: 1 - 1 transition */
 100:..\..\u8g2\csrc/u8x8_d_ssd1607_200x200.c ****   /* bit 5/4: 1 - 0 transition */
 101:..\..\u8g2\csrc/u8x8_d_ssd1607_200x200.c ****   /* bit 3/2: 0 - 1 transition */
 102:..\..\u8g2\csrc/u8x8_d_ssd1607_200x200.c ****   /* bit 1/0: 0 - 0 transition */
 103:..\..\u8g2\csrc/u8x8_d_ssd1607_200x200.c ****   /* 	00 – VSS */
 104:..\..\u8g2\csrc/u8x8_d_ssd1607_200x200.c ****   /* 	01 – VSH */
 105:..\..\u8g2\csrc/u8x8_d_ssd1607_200x200.c ****   /* 	10 – VSL */
 106:..\..\u8g2\csrc/u8x8_d_ssd1607_200x200.c ****   /* 	11 – NA */
 107:..\..\u8g2\csrc/u8x8_d_ssd1607_200x200.c ****   
 108:..\..\u8g2\csrc/u8x8_d_ssd1607_200x200.c ****   /* original values */
 109:..\..\u8g2\csrc/u8x8_d_ssd1607_200x200.c ****   /*
 110:..\..\u8g2\csrc/u8x8_d_ssd1607_200x200.c ****   U8X8_A(0x02),
 111:..\..\u8g2\csrc/u8x8_d_ssd1607_200x200.c ****   U8X8_A(0x02),
 112:..\..\u8g2\csrc/u8x8_d_ssd1607_200x200.c ****   U8X8_A(0x01),
 113:..\..\u8g2\csrc/u8x8_d_ssd1607_200x200.c ****   U8X8_A(0x11),
 114:..\..\u8g2\csrc/u8x8_d_ssd1607_200x200.c ****   U8X8_A(0x12),
 115:..\..\u8g2\csrc/u8x8_d_ssd1607_200x200.c ****   U8X8_A(0x12),
 116:..\..\u8g2\csrc/u8x8_d_ssd1607_200x200.c ****   U8X8_A(0x22),
 117:..\..\u8g2\csrc/u8x8_d_ssd1607_200x200.c ****   U8X8_A(0x22),
 118:..\..\u8g2\csrc/u8x8_d_ssd1607_200x200.c ****   U8X8_A(0x66),
 119:..\..\u8g2\csrc/u8x8_d_ssd1607_200x200.c ****   U8X8_A(0x69),
 120:..\..\u8g2\csrc/u8x8_d_ssd1607_200x200.c ****   U8X8_A(0x69),
 121:..\..\u8g2\csrc/u8x8_d_ssd1607_200x200.c ****   U8X8_A(0x59),
 122:..\..\u8g2\csrc/u8x8_d_ssd1607_200x200.c ****   U8X8_A(0x58),
 123:..\..\u8g2\csrc/u8x8_d_ssd1607_200x200.c ****   U8X8_A(0x99),
 124:..\..\u8g2\csrc/u8x8_d_ssd1607_200x200.c ****   U8X8_A(0x99),
 125:..\..\u8g2\csrc/u8x8_d_ssd1607_200x200.c ****   U8X8_A(0x88),
 126:..\..\u8g2\csrc/u8x8_d_ssd1607_200x200.c ****   U8X8_A(0x00),
 127:..\..\u8g2\csrc/u8x8_d_ssd1607_200x200.c ****   U8X8_A(0x00),
 128:..\..\u8g2\csrc/u8x8_d_ssd1607_200x200.c ****   U8X8_A(0x00),
 129:..\..\u8g2\csrc/u8x8_d_ssd1607_200x200.c ****   U8X8_A(0x00),
 130:..\..\u8g2\csrc/u8x8_d_ssd1607_200x200.c ****   */
 131:..\..\u8g2\csrc/u8x8_d_ssd1607_200x200.c ****   
 132:..\..\u8g2\csrc/u8x8_d_ssd1607_200x200.c ****   /* original values, L-macro */
 133:..\..\u8g2\csrc/u8x8_d_ssd1607_200x200.c ****   U8X8_A(L(0,0,0,2)), // 0x02
 134:..\..\u8g2\csrc/u8x8_d_ssd1607_200x200.c ****   U8X8_A(L(0,0,0,2)), // 0x02
 135:..\..\u8g2\csrc/u8x8_d_ssd1607_200x200.c ****   U8X8_A(L(0,0,0,1)), // 0x01
 136:..\..\u8g2\csrc/u8x8_d_ssd1607_200x200.c ****   U8X8_A(L(0,1,0,1)), // 0x11
 137:..\..\u8g2\csrc/u8x8_d_ssd1607_200x200.c ****   U8X8_A(L(0,1,0,2)), // 0x12
 138:..\..\u8g2\csrc/u8x8_d_ssd1607_200x200.c ****   U8X8_A(L(0,1,0,2)), // 0x12
 139:..\..\u8g2\csrc/u8x8_d_ssd1607_200x200.c ****   U8X8_A(L(0,2,0,2)), // 0x22
 140:..\..\u8g2\csrc/u8x8_d_ssd1607_200x200.c ****   U8X8_A(L(0,2,0,2)), // 0x22
 141:..\..\u8g2\csrc/u8x8_d_ssd1607_200x200.c ****   U8X8_A(L(1,2,1,2)), // 0x66
 142:..\..\u8g2\csrc/u8x8_d_ssd1607_200x200.c ****   U8X8_A(L(1,2,2,1)), // 0x69
 143:..\..\u8g2\csrc/u8x8_d_ssd1607_200x200.c ****   U8X8_A(L(1,2,2,1)), // 0x69
 144:..\..\u8g2\csrc/u8x8_d_ssd1607_200x200.c ****   U8X8_A(L(1,1,2,1)), // 0x59
 145:..\..\u8g2\csrc/u8x8_d_ssd1607_200x200.c ****   U8X8_A(L(1,1,2,0)), // 0x58
ARM GAS  C:\Users\Greg\AppData\Local\Temp\ccSJSgE8.s 			page 4


 146:..\..\u8g2\csrc/u8x8_d_ssd1607_200x200.c ****   U8X8_A(L(2,1,2,1)), // 0x99
 147:..\..\u8g2\csrc/u8x8_d_ssd1607_200x200.c ****   U8X8_A(L(2,1,2,1)), // 0x99
 148:..\..\u8g2\csrc/u8x8_d_ssd1607_200x200.c ****   U8X8_A(L(2,0,2,0)), // 0x88
 149:..\..\u8g2\csrc/u8x8_d_ssd1607_200x200.c ****   U8X8_A(L(0,0,0,0)), // 0x00
 150:..\..\u8g2\csrc/u8x8_d_ssd1607_200x200.c ****   U8X8_A(L(0,0,0,0)), // 0x00
 151:..\..\u8g2\csrc/u8x8_d_ssd1607_200x200.c ****   U8X8_A(L(0,0,0,0)), // 0x00
 152:..\..\u8g2\csrc/u8x8_d_ssd1607_200x200.c ****   U8X8_A(L(0,0,0,0)), // 0x00
 153:..\..\u8g2\csrc/u8x8_d_ssd1607_200x200.c **** 
 154:..\..\u8g2\csrc/u8x8_d_ssd1607_200x200.c **** 
 155:..\..\u8g2\csrc/u8x8_d_ssd1607_200x200.c ****   /* orginal values without 0-0 and 1-1 transition */
 156:..\..\u8g2\csrc/u8x8_d_ssd1607_200x200.c ****   /*
 157:..\..\u8g2\csrc/u8x8_d_ssd1607_200x200.c ****   U8X8_A(L(3,0,0,3)), // 0x02
 158:..\..\u8g2\csrc/u8x8_d_ssd1607_200x200.c ****   U8X8_A(L(3,0,0,3)), // 0x02
 159:..\..\u8g2\csrc/u8x8_d_ssd1607_200x200.c ****   U8X8_A(L(3,0,0,3)), // 0x01
 160:..\..\u8g2\csrc/u8x8_d_ssd1607_200x200.c ****   U8X8_A(L(3,1,0,3)), // 0x11
 161:..\..\u8g2\csrc/u8x8_d_ssd1607_200x200.c ****   U8X8_A(L(3,1,0,3)), // 0x12
 162:..\..\u8g2\csrc/u8x8_d_ssd1607_200x200.c ****   U8X8_A(L(3,1,0,3)), // 0x12
 163:..\..\u8g2\csrc/u8x8_d_ssd1607_200x200.c ****   U8X8_A(L(3,2,0,3)), // 0x22
 164:..\..\u8g2\csrc/u8x8_d_ssd1607_200x200.c ****   U8X8_A(L(3,2,0,3)), // 0x22
 165:..\..\u8g2\csrc/u8x8_d_ssd1607_200x200.c ****   U8X8_A(L(3,2,1,3)), // 0x66
 166:..\..\u8g2\csrc/u8x8_d_ssd1607_200x200.c ****   U8X8_A(L(3,2,2,3)), // 0x69
 167:..\..\u8g2\csrc/u8x8_d_ssd1607_200x200.c ****   U8X8_A(L(3,2,2,3)), // 0x69
 168:..\..\u8g2\csrc/u8x8_d_ssd1607_200x200.c ****   U8X8_A(L(3,1,2,3)), // 0x59
 169:..\..\u8g2\csrc/u8x8_d_ssd1607_200x200.c ****   U8X8_A(L(3,1,2,3)), // 0x58
 170:..\..\u8g2\csrc/u8x8_d_ssd1607_200x200.c ****   U8X8_A(L(3,1,2,3)), // 0x99
 171:..\..\u8g2\csrc/u8x8_d_ssd1607_200x200.c ****   U8X8_A(L(3,1,2,3)), // 0x99
 172:..\..\u8g2\csrc/u8x8_d_ssd1607_200x200.c ****   U8X8_A(L(3,0,2,3)), // 0x88
 173:..\..\u8g2\csrc/u8x8_d_ssd1607_200x200.c ****   U8X8_A(L(3,0,0,3)), // 0x00
 174:..\..\u8g2\csrc/u8x8_d_ssd1607_200x200.c ****   U8X8_A(L(3,0,0,3)), // 0x00
 175:..\..\u8g2\csrc/u8x8_d_ssd1607_200x200.c ****   U8X8_A(L(3,0,0,3)), // 0x00
 176:..\..\u8g2\csrc/u8x8_d_ssd1607_200x200.c ****   U8X8_A(L(3,0,0,3)), // 0x00
 177:..\..\u8g2\csrc/u8x8_d_ssd1607_200x200.c ****   */
 178:..\..\u8g2\csrc/u8x8_d_ssd1607_200x200.c ****   
 179:..\..\u8g2\csrc/u8x8_d_ssd1607_200x200.c ****   
 180:..\..\u8g2\csrc/u8x8_d_ssd1607_200x200.c ****   /* Timing part of the LUT, 20 Phases with 4 bit each: 10 bytes */
 181:..\..\u8g2\csrc/u8x8_d_ssd1607_200x200.c ****   U8X8_A(0xF8),
 182:..\..\u8g2\csrc/u8x8_d_ssd1607_200x200.c ****   U8X8_A(0xB4),
 183:..\..\u8g2\csrc/u8x8_d_ssd1607_200x200.c ****   U8X8_A(0x13),
 184:..\..\u8g2\csrc/u8x8_d_ssd1607_200x200.c ****   U8X8_A(0x51),
 185:..\..\u8g2\csrc/u8x8_d_ssd1607_200x200.c ****   U8X8_A(0x35),
 186:..\..\u8g2\csrc/u8x8_d_ssd1607_200x200.c ****   U8X8_A(0x51),
 187:..\..\u8g2\csrc/u8x8_d_ssd1607_200x200.c ****   U8X8_A(0x51),
 188:..\..\u8g2\csrc/u8x8_d_ssd1607_200x200.c ****   U8X8_A(0x19),
 189:..\..\u8g2\csrc/u8x8_d_ssd1607_200x200.c ****   U8X8_A(0x01),
 190:..\..\u8g2\csrc/u8x8_d_ssd1607_200x200.c ****   U8X8_A(0x00),
 191:..\..\u8g2\csrc/u8x8_d_ssd1607_200x200.c ****   
 192:..\..\u8g2\csrc/u8x8_d_ssd1607_200x200.c ****   
 193:..\..\u8g2\csrc/u8x8_d_ssd1607_200x200.c **** 
 194:..\..\u8g2\csrc/u8x8_d_ssd1607_200x200.c ****   U8X8_CA(0x2c, 0xa8),	/* write vcom value*/
 195:..\..\u8g2\csrc/u8x8_d_ssd1607_200x200.c ****   U8X8_CA(0x3a, 0x1a),	/* dummy lines */
 196:..\..\u8g2\csrc/u8x8_d_ssd1607_200x200.c ****   U8X8_CA(0x3b, 0x08),	/* gate time */
 197:..\..\u8g2\csrc/u8x8_d_ssd1607_200x200.c ****   U8X8_CA(0x3c, 0x33),	/* select boarder waveform */
 198:..\..\u8g2\csrc/u8x8_d_ssd1607_200x200.c ****   U8X8_CA(0x22, 0xc4),	/* display update seq. option: clk -> CP -> LUT -> initial display -> patter
 199:..\..\u8g2\csrc/u8x8_d_ssd1607_200x200.c ****   
 200:..\..\u8g2\csrc/u8x8_d_ssd1607_200x200.c ****   U8X8_END_TRANSFER(),             	/* disable chip */
 201:..\..\u8g2\csrc/u8x8_d_ssd1607_200x200.c ****   U8X8_END()             			/* end of sequence */
 202:..\..\u8g2\csrc/u8x8_d_ssd1607_200x200.c **** };
ARM GAS  C:\Users\Greg\AppData\Local\Temp\ccSJSgE8.s 			page 5


 203:..\..\u8g2\csrc/u8x8_d_ssd1607_200x200.c **** 
 204:..\..\u8g2\csrc/u8x8_d_ssd1607_200x200.c **** static const uint8_t u8x8_d_ssd1607_to_display_seq[] = {
 205:..\..\u8g2\csrc/u8x8_d_ssd1607_200x200.c ****   U8X8_START_TRANSFER(),             	/* enable chip, delay is part of the transfer start */
 206:..\..\u8g2\csrc/u8x8_d_ssd1607_200x200.c ****   
 207:..\..\u8g2\csrc/u8x8_d_ssd1607_200x200.c ****   U8X8_CA(0x22, 0xc4),	/* display update seq. option: clk -> CP -> LUT -> initial display -> patter
 208:..\..\u8g2\csrc/u8x8_d_ssd1607_200x200.c ****   U8X8_C(0x20),	/* execute sequence */
 209:..\..\u8g2\csrc/u8x8_d_ssd1607_200x200.c ****   U8X8_DLY(250),	/* the sequence above requires about 1200ms for the 200x200 display*/
 210:..\..\u8g2\csrc/u8x8_d_ssd1607_200x200.c ****   U8X8_DLY(250),
 211:..\..\u8g2\csrc/u8x8_d_ssd1607_200x200.c ****   U8X8_DLY(250),
 212:..\..\u8g2\csrc/u8x8_d_ssd1607_200x200.c ****   U8X8_DLY(250),
 213:..\..\u8g2\csrc/u8x8_d_ssd1607_200x200.c ****   U8X8_DLY(250),
 214:..\..\u8g2\csrc/u8x8_d_ssd1607_200x200.c ****   U8X8_DLY(250),
 215:..\..\u8g2\csrc/u8x8_d_ssd1607_200x200.c ****   U8X8_DLY(250),
 216:..\..\u8g2\csrc/u8x8_d_ssd1607_200x200.c ****   
 217:..\..\u8g2\csrc/u8x8_d_ssd1607_200x200.c ****   U8X8_CA(0x22, 0x03),	/* disable clock and charge pump */
 218:..\..\u8g2\csrc/u8x8_d_ssd1607_200x200.c ****   U8X8_DLY(250),
 219:..\..\u8g2\csrc/u8x8_d_ssd1607_200x200.c ****   U8X8_DLY(250),
 220:..\..\u8g2\csrc/u8x8_d_ssd1607_200x200.c ****   U8X8_DLY(100),  
 221:..\..\u8g2\csrc/u8x8_d_ssd1607_200x200.c ****   
 222:..\..\u8g2\csrc/u8x8_d_ssd1607_200x200.c ****   U8X8_END_TRANSFER(),             	/* disable chip */
 223:..\..\u8g2\csrc/u8x8_d_ssd1607_200x200.c ****   U8X8_END()             			/* end of sequence */
 224:..\..\u8g2\csrc/u8x8_d_ssd1607_200x200.c **** };
 225:..\..\u8g2\csrc/u8x8_d_ssd1607_200x200.c **** 
 226:..\..\u8g2\csrc/u8x8_d_ssd1607_200x200.c **** static const uint8_t u8x8_d_ssd1607_200x200_powersave0_seq[] = {
 227:..\..\u8g2\csrc/u8x8_d_ssd1607_200x200.c ****   U8X8_START_TRANSFER(),             	/* enable chip, delay is part of the transfer start */
 228:..\..\u8g2\csrc/u8x8_d_ssd1607_200x200.c ****   U8X8_END_TRANSFER(),             	/* disable chip */
 229:..\..\u8g2\csrc/u8x8_d_ssd1607_200x200.c ****   U8X8_END()             			/* end of sequence */
 230:..\..\u8g2\csrc/u8x8_d_ssd1607_200x200.c **** };
 231:..\..\u8g2\csrc/u8x8_d_ssd1607_200x200.c **** 
 232:..\..\u8g2\csrc/u8x8_d_ssd1607_200x200.c **** static const uint8_t u8x8_d_ssd1607_200x200_powersave1_seq[] = {
 233:..\..\u8g2\csrc/u8x8_d_ssd1607_200x200.c ****   U8X8_START_TRANSFER(),             	/* enable chip, delay is part of the transfer start */
 234:..\..\u8g2\csrc/u8x8_d_ssd1607_200x200.c ****   U8X8_END_TRANSFER(),             	/* disable chip */
 235:..\..\u8g2\csrc/u8x8_d_ssd1607_200x200.c ****   U8X8_END()             			/* end of sequence */
 236:..\..\u8g2\csrc/u8x8_d_ssd1607_200x200.c **** };
 237:..\..\u8g2\csrc/u8x8_d_ssd1607_200x200.c **** 
 238:..\..\u8g2\csrc/u8x8_d_ssd1607_200x200.c **** static const uint8_t u8x8_d_ssd1607_200x200_flip0_seq[] = {
 239:..\..\u8g2\csrc/u8x8_d_ssd1607_200x200.c ****   U8X8_START_TRANSFER(),             	/* enable chip, delay is part of the transfer start */
 240:..\..\u8g2\csrc/u8x8_d_ssd1607_200x200.c ****   U8X8_END_TRANSFER(),             	/* disable chip */
 241:..\..\u8g2\csrc/u8x8_d_ssd1607_200x200.c ****   U8X8_END()             			/* end of sequence */
 242:..\..\u8g2\csrc/u8x8_d_ssd1607_200x200.c **** };
 243:..\..\u8g2\csrc/u8x8_d_ssd1607_200x200.c **** 
 244:..\..\u8g2\csrc/u8x8_d_ssd1607_200x200.c **** static const uint8_t u8x8_d_ssd1607_200x200_flip1_seq[] = {
 245:..\..\u8g2\csrc/u8x8_d_ssd1607_200x200.c ****   U8X8_START_TRANSFER(),             	/* enable chip, delay is part of the transfer start */
 246:..\..\u8g2\csrc/u8x8_d_ssd1607_200x200.c ****   U8X8_END_TRANSFER(),             	/* disable chip */
 247:..\..\u8g2\csrc/u8x8_d_ssd1607_200x200.c ****   U8X8_END()             			/* end of sequence */
 248:..\..\u8g2\csrc/u8x8_d_ssd1607_200x200.c **** };
 249:..\..\u8g2\csrc/u8x8_d_ssd1607_200x200.c **** 
 250:..\..\u8g2\csrc/u8x8_d_ssd1607_200x200.c **** 
 251:..\..\u8g2\csrc/u8x8_d_ssd1607_200x200.c **** static uint8_t *u8x8_convert_tile_for_ssd1607(uint8_t *t)
 252:..\..\u8g2\csrc/u8x8_d_ssd1607_200x200.c **** {
 253:..\..\u8g2\csrc/u8x8_d_ssd1607_200x200.c ****   uint8_t i;
 254:..\..\u8g2\csrc/u8x8_d_ssd1607_200x200.c ****   static uint8_t buf[8];
 255:..\..\u8g2\csrc/u8x8_d_ssd1607_200x200.c ****   uint8_t *pbuf = buf;
 256:..\..\u8g2\csrc/u8x8_d_ssd1607_200x200.c **** 
 257:..\..\u8g2\csrc/u8x8_d_ssd1607_200x200.c ****   for( i = 0; i < 8; i++ )
 258:..\..\u8g2\csrc/u8x8_d_ssd1607_200x200.c ****   {
 259:..\..\u8g2\csrc/u8x8_d_ssd1607_200x200.c ****     *pbuf++ = ~(*t++);
ARM GAS  C:\Users\Greg\AppData\Local\Temp\ccSJSgE8.s 			page 6


 260:..\..\u8g2\csrc/u8x8_d_ssd1607_200x200.c ****   }
 261:..\..\u8g2\csrc/u8x8_d_ssd1607_200x200.c ****   return buf;
 262:..\..\u8g2\csrc/u8x8_d_ssd1607_200x200.c **** }
 263:..\..\u8g2\csrc/u8x8_d_ssd1607_200x200.c **** 
 264:..\..\u8g2\csrc/u8x8_d_ssd1607_200x200.c **** static void u8x8_d_ssd1607_draw_tile(u8x8_t *u8x8, uint8_t arg_int, void *arg_ptr) U8X8_NOINLINE;
 265:..\..\u8g2\csrc/u8x8_d_ssd1607_200x200.c **** static void u8x8_d_ssd1607_draw_tile(u8x8_t *u8x8, uint8_t arg_int, void *arg_ptr)
 266:..\..\u8g2\csrc/u8x8_d_ssd1607_200x200.c **** {
  27              		.loc 1 266 0
  28              		.cfi_startproc
  29              		@ args = 0, pretend = 0, frame = 8
  30              		@ frame_needed = 0, uses_anonymous_args = 0
  31              	.LVL0:
  32 0000 F7B5     		push	{r0, r1, r2, r4, r5, r6, r7, lr}
  33              		.cfi_def_cfa_offset 32
  34              		.cfi_offset 0, -32
  35              		.cfi_offset 1, -28
  36              		.cfi_offset 2, -24
  37              		.cfi_offset 4, -20
  38              		.cfi_offset 5, -16
  39              		.cfi_offset 6, -12
  40              		.cfi_offset 7, -8
  41              		.cfi_offset 14, -4
  42              		.loc 1 266 0
  43 0002 0400     		movs	r4, r0
  44 0004 1700     		movs	r7, r2
  45 0006 0191     		str	r1, [sp, #4]
 267:..\..\u8g2\csrc/u8x8_d_ssd1607_200x200.c ****   uint16_t x;
 268:..\..\u8g2\csrc/u8x8_d_ssd1607_200x200.c ****   uint8_t c, page;
 269:..\..\u8g2\csrc/u8x8_d_ssd1607_200x200.c ****   uint8_t *ptr;
 270:..\..\u8g2\csrc/u8x8_d_ssd1607_200x200.c ****   u8x8_cad_StartTransfer(u8x8);
  46              		.loc 1 270 0
  47 0008 FFF7FEFF 		bl	u8x8_cad_StartTransfer
  48              	.LVL1:
 271:..\..\u8g2\csrc/u8x8_d_ssd1607_200x200.c **** 
 272:..\..\u8g2\csrc/u8x8_d_ssd1607_200x200.c ****   page = u8x8->display_info->tile_height;
  49              		.loc 1 272 0
  50 000c 2368     		ldr	r3, [r4]
 273:..\..\u8g2\csrc/u8x8_d_ssd1607_200x200.c ****   page --;
 274:..\..\u8g2\csrc/u8x8_d_ssd1607_200x200.c ****   page -= (((u8x8_tile_t *)arg_ptr)->y_pos);
 275:..\..\u8g2\csrc/u8x8_d_ssd1607_200x200.c ****   
 276:..\..\u8g2\csrc/u8x8_d_ssd1607_200x200.c ****   //page = (((u8x8_tile_t *)arg_ptr)->y_pos);
 277:..\..\u8g2\csrc/u8x8_d_ssd1607_200x200.c **** 
 278:..\..\u8g2\csrc/u8x8_d_ssd1607_200x200.c ****   x = ((u8x8_tile_t *)arg_ptr)->x_pos;
  51              		.loc 1 278 0
  52 000e 7E79     		ldrb	r6, [r7, #5]
 272:..\..\u8g2\csrc/u8x8_d_ssd1607_200x200.c ****   page --;
  53              		.loc 1 272 0
  54 0010 5D7C     		ldrb	r5, [r3, #17]
  55              	.LVL2:
 279:..\..\u8g2\csrc/u8x8_d_ssd1607_200x200.c ****   x *= 8;
 280:..\..\u8g2\csrc/u8x8_d_ssd1607_200x200.c ****   x += u8x8->x_offset;
  56              		.loc 1 280 0
  57 0012 A17F     		ldrb	r1, [r4, #30]
 274:..\..\u8g2\csrc/u8x8_d_ssd1607_200x200.c ****   
  58              		.loc 1 274 0
  59 0014 BB79     		ldrb	r3, [r7, #6]
 279:..\..\u8g2\csrc/u8x8_d_ssd1607_200x200.c ****   x *= 8;
ARM GAS  C:\Users\Greg\AppData\Local\Temp\ccSJSgE8.s 			page 7


  60              		.loc 1 279 0
  61 0016 F600     		lsls	r6, r6, #3
  62              		.loc 1 280 0
  63 0018 7618     		adds	r6, r6, r1
 273:..\..\u8g2\csrc/u8x8_d_ssd1607_200x200.c ****   page -= (((u8x8_tile_t *)arg_ptr)->y_pos);
  64              		.loc 1 273 0
  65 001a 013D     		subs	r5, r5, #1
  66              	.LVL3:
 281:..\..\u8g2\csrc/u8x8_d_ssd1607_200x200.c **** 
 282:..\..\u8g2\csrc/u8x8_d_ssd1607_200x200.c ****   u8x8_cad_SendCmd(u8x8, 0x00f );	/* scan start */
  67              		.loc 1 282 0
  68 001c 0F21     		movs	r1, #15
  69 001e 2000     		movs	r0, r4
 274:..\..\u8g2\csrc/u8x8_d_ssd1607_200x200.c ****   
  70              		.loc 1 274 0
  71 0020 ED1A     		subs	r5, r5, r3
  72              	.LVL4:
  73              		.loc 1 282 0
  74 0022 FFF7FEFF 		bl	u8x8_cad_SendCmd
  75              	.LVL5:
 283:..\..\u8g2\csrc/u8x8_d_ssd1607_200x200.c ****   u8x8_cad_SendArg(u8x8, 0);
  76              		.loc 1 283 0
  77 0026 0021     		movs	r1, #0
  78 0028 2000     		movs	r0, r4
  79 002a FFF7FEFF 		bl	u8x8_cad_SendArg
  80              	.LVL6:
 284:..\..\u8g2\csrc/u8x8_d_ssd1607_200x200.c **** 
 285:..\..\u8g2\csrc/u8x8_d_ssd1607_200x200.c ****   u8x8_cad_SendCmd(u8x8, 0x011 );	/* cursor increment mode */
  81              		.loc 1 285 0
  82 002e 1121     		movs	r1, #17
  83 0030 2000     		movs	r0, r4
  84 0032 FFF7FEFF 		bl	u8x8_cad_SendCmd
  85              	.LVL7:
 286:..\..\u8g2\csrc/u8x8_d_ssd1607_200x200.c ****   u8x8_cad_SendArg(u8x8, 3);
  86              		.loc 1 286 0
  87 0036 0321     		movs	r1, #3
  88 0038 2000     		movs	r0, r4
  89 003a FFF7FEFF 		bl	u8x8_cad_SendArg
  90              	.LVL8:
 287:..\..\u8g2\csrc/u8x8_d_ssd1607_200x200.c **** 
 288:..\..\u8g2\csrc/u8x8_d_ssd1607_200x200.c ****   u8x8_cad_SendCmd(u8x8, 0x045 );	/* window start column */
  91              		.loc 1 288 0
  92 003e 4521     		movs	r1, #69
  93 0040 2000     		movs	r0, r4
  94 0042 FFF7FEFF 		bl	u8x8_cad_SendCmd
  95              	.LVL9:
 289:..\..\u8g2\csrc/u8x8_d_ssd1607_200x200.c ****   u8x8_cad_SendArg(u8x8, 0);
  96              		.loc 1 289 0
  97 0046 0021     		movs	r1, #0
  98 0048 2000     		movs	r0, r4
  99 004a FFF7FEFF 		bl	u8x8_cad_SendArg
 100              	.LVL10:
 290:..\..\u8g2\csrc/u8x8_d_ssd1607_200x200.c ****   u8x8_cad_SendArg(u8x8, 0);
 101              		.loc 1 290 0
 102 004e 0021     		movs	r1, #0
 103 0050 2000     		movs	r0, r4
 104 0052 FFF7FEFF 		bl	u8x8_cad_SendArg
ARM GAS  C:\Users\Greg\AppData\Local\Temp\ccSJSgE8.s 			page 8


 105              	.LVL11:
 291:..\..\u8g2\csrc/u8x8_d_ssd1607_200x200.c ****   u8x8_cad_SendArg(u8x8, 199);		/* end of display */
 106              		.loc 1 291 0
 107 0056 C721     		movs	r1, #199
 108 0058 2000     		movs	r0, r4
 109 005a FFF7FEFF 		bl	u8x8_cad_SendArg
 110              	.LVL12:
 292:..\..\u8g2\csrc/u8x8_d_ssd1607_200x200.c ****   u8x8_cad_SendArg(u8x8, 0);
 111              		.loc 1 292 0
 112 005e 0021     		movs	r1, #0
 113 0060 2000     		movs	r0, r4
 274:..\..\u8g2\csrc/u8x8_d_ssd1607_200x200.c ****   
 114              		.loc 1 274 0
 115 0062 EDB2     		uxtb	r5, r5
 116              	.LVL13:
 117              		.loc 1 292 0
 118 0064 FFF7FEFF 		bl	u8x8_cad_SendArg
 119              	.LVL14:
 293:..\..\u8g2\csrc/u8x8_d_ssd1607_200x200.c **** 
 294:..\..\u8g2\csrc/u8x8_d_ssd1607_200x200.c ****   u8x8_cad_SendCmd(u8x8, 0x044 );	/* window end page */
 120              		.loc 1 294 0
 121 0068 4421     		movs	r1, #68
 122 006a 2000     		movs	r0, r4
 123 006c FFF7FEFF 		bl	u8x8_cad_SendCmd
 124              	.LVL15:
 295:..\..\u8g2\csrc/u8x8_d_ssd1607_200x200.c ****   u8x8_cad_SendArg(u8x8, page);
 125              		.loc 1 295 0
 126 0070 2900     		movs	r1, r5
 127 0072 2000     		movs	r0, r4
 128 0074 FFF7FEFF 		bl	u8x8_cad_SendArg
 129              	.LVL16:
 296:..\..\u8g2\csrc/u8x8_d_ssd1607_200x200.c ****   u8x8_cad_SendArg(u8x8, page);
 130              		.loc 1 296 0
 131 0078 2900     		movs	r1, r5
 132 007a 2000     		movs	r0, r4
 133 007c FFF7FEFF 		bl	u8x8_cad_SendArg
 134              	.LVL17:
 297:..\..\u8g2\csrc/u8x8_d_ssd1607_200x200.c ****   //u8x8_cad_SendArg(u8x8, 0);
 298:..\..\u8g2\csrc/u8x8_d_ssd1607_200x200.c ****   //u8x8_cad_SendArg(u8x8, 199/8);
 299:..\..\u8g2\csrc/u8x8_d_ssd1607_200x200.c **** 
 300:..\..\u8g2\csrc/u8x8_d_ssd1607_200x200.c ****   u8x8_cad_SendCmd(u8x8, 0x04f );	/* window column */
 135              		.loc 1 300 0
 136 0080 4F21     		movs	r1, #79
 137 0082 2000     		movs	r0, r4
 138 0084 FFF7FEFF 		bl	u8x8_cad_SendCmd
 139              	.LVL18:
 301:..\..\u8g2\csrc/u8x8_d_ssd1607_200x200.c ****   u8x8_cad_SendArg(u8x8, x&255);
 140              		.loc 1 301 0
 141 0088 F1B2     		uxtb	r1, r6
 142 008a 2000     		movs	r0, r4
 302:..\..\u8g2\csrc/u8x8_d_ssd1607_200x200.c ****   u8x8_cad_SendArg(u8x8, x>>8);
 143              		.loc 1 302 0
 144 008c 360A     		lsrs	r6, r6, #8
 145              	.LVL19:
 301:..\..\u8g2\csrc/u8x8_d_ssd1607_200x200.c ****   u8x8_cad_SendArg(u8x8, x&255);
 146              		.loc 1 301 0
 147 008e FFF7FEFF 		bl	u8x8_cad_SendArg
ARM GAS  C:\Users\Greg\AppData\Local\Temp\ccSJSgE8.s 			page 9


 148              	.LVL20:
 149              		.loc 1 302 0
 150 0092 F1B2     		uxtb	r1, r6
 151 0094 2000     		movs	r0, r4
 152 0096 FFF7FEFF 		bl	u8x8_cad_SendArg
 153              	.LVL21:
 303:..\..\u8g2\csrc/u8x8_d_ssd1607_200x200.c **** 
 304:..\..\u8g2\csrc/u8x8_d_ssd1607_200x200.c ****   u8x8_cad_SendCmd(u8x8, 0x04e );	/* window row */
 154              		.loc 1 304 0
 155 009a 4E21     		movs	r1, #78
 156 009c 2000     		movs	r0, r4
 157 009e FFF7FEFF 		bl	u8x8_cad_SendCmd
 158              	.LVL22:
 305:..\..\u8g2\csrc/u8x8_d_ssd1607_200x200.c ****   u8x8_cad_SendArg(u8x8, page);
 159              		.loc 1 305 0
 160 00a2 2900     		movs	r1, r5
 161 00a4 2000     		movs	r0, r4
 162 00a6 FFF7FEFF 		bl	u8x8_cad_SendArg
 163              	.LVL23:
 306:..\..\u8g2\csrc/u8x8_d_ssd1607_200x200.c **** 
 307:..\..\u8g2\csrc/u8x8_d_ssd1607_200x200.c ****   u8x8_cad_SendCmd(u8x8, 0x024 );
 164              		.loc 1 307 0
 165 00aa 2421     		movs	r1, #36
 166 00ac 2000     		movs	r0, r4
 167 00ae FFF7FEFF 		bl	u8x8_cad_SendCmd
 168              	.LVL24:
 169              	.L4:
 308:..\..\u8g2\csrc/u8x8_d_ssd1607_200x200.c ****   
 309:..\..\u8g2\csrc/u8x8_d_ssd1607_200x200.c ****   do
 310:..\..\u8g2\csrc/u8x8_d_ssd1607_200x200.c ****   {
 311:..\..\u8g2\csrc/u8x8_d_ssd1607_200x200.c ****     c = ((u8x8_tile_t *)arg_ptr)->cnt;
 170              		.loc 1 311 0
 171 00b2 3E79     		ldrb	r6, [r7, #4]
 172              	.LVL25:
 312:..\..\u8g2\csrc/u8x8_d_ssd1607_200x200.c ****     ptr = ((u8x8_tile_t *)arg_ptr)->tile_ptr;
 173              		.loc 1 312 0
 174 00b4 3D68     		ldr	r5, [r7]
 175              	.LVL26:
 176              	.L3:
 266:..\..\u8g2\csrc/u8x8_d_ssd1607_200x200.c ****   uint16_t x;
 177              		.loc 1 266 0 discriminator 1
 178 00b6 0021     		movs	r1, #0
 179              	.LBB4:
 180              	.LBB5:
 259:..\..\u8g2\csrc/u8x8_d_ssd1607_200x200.c ****   }
 181              		.loc 1 259 0 discriminator 1
 182 00b8 0C4A     		ldr	r2, .L9
 183              	.LVL27:
 184              	.L2:
 259:..\..\u8g2\csrc/u8x8_d_ssd1607_200x200.c ****   }
 185              		.loc 1 259 0 is_stmt 0
 186 00ba 6B5C     		ldrb	r3, [r5, r1]
 187 00bc DB43     		mvns	r3, r3
 188 00be 8B54     		strb	r3, [r1, r2]
 189              	.LVL28:
 190 00c0 0131     		adds	r1, r1, #1
 191              	.LVL29:
ARM GAS  C:\Users\Greg\AppData\Local\Temp\ccSJSgE8.s 			page 10


 257:..\..\u8g2\csrc/u8x8_d_ssd1607_200x200.c ****   {
 192              		.loc 1 257 0 is_stmt 1
 193 00c2 0829     		cmp	r1, #8
 194 00c4 F9D1     		bne	.L2
 195              	.LVL30:
 196              	.LBE5:
 197              	.LBE4:
 313:..\..\u8g2\csrc/u8x8_d_ssd1607_200x200.c ****     do
 314:..\..\u8g2\csrc/u8x8_d_ssd1607_200x200.c ****     {
 315:..\..\u8g2\csrc/u8x8_d_ssd1607_200x200.c ****       u8x8_cad_SendData(u8x8, 8, u8x8_convert_tile_for_ssd1607(ptr));
 316:..\..\u8g2\csrc/u8x8_d_ssd1607_200x200.c ****       ptr += 8;
 317:..\..\u8g2\csrc/u8x8_d_ssd1607_200x200.c ****       x += 8;
 318:..\..\u8g2\csrc/u8x8_d_ssd1607_200x200.c ****       c--;
 198              		.loc 1 318 0
 199 00c6 013E     		subs	r6, r6, #1
 200              	.LVL31:
 315:..\..\u8g2\csrc/u8x8_d_ssd1607_200x200.c ****       ptr += 8;
 201              		.loc 1 315 0
 202 00c8 2000     		movs	r0, r4
 203              		.loc 1 318 0
 204 00ca F6B2     		uxtb	r6, r6
 315:..\..\u8g2\csrc/u8x8_d_ssd1607_200x200.c ****       ptr += 8;
 205              		.loc 1 315 0
 206 00cc FFF7FEFF 		bl	u8x8_cad_SendData
 207              	.LVL32:
 316:..\..\u8g2\csrc/u8x8_d_ssd1607_200x200.c ****       x += 8;
 208              		.loc 1 316 0
 209 00d0 0835     		adds	r5, r5, #8
 210              	.LVL33:
 319:..\..\u8g2\csrc/u8x8_d_ssd1607_200x200.c ****     } while( c > 0 );
 211              		.loc 1 319 0
 212 00d2 002E     		cmp	r6, #0
 213 00d4 EFD1     		bne	.L3
 320:..\..\u8g2\csrc/u8x8_d_ssd1607_200x200.c ****     
 321:..\..\u8g2\csrc/u8x8_d_ssd1607_200x200.c ****     arg_int--;
 214              		.loc 1 321 0
 215 00d6 019B     		ldr	r3, [sp, #4]
 216 00d8 013B     		subs	r3, r3, #1
 217 00da DBB2     		uxtb	r3, r3
 218 00dc 0193     		str	r3, [sp, #4]
 219              	.LVL34:
 322:..\..\u8g2\csrc/u8x8_d_ssd1607_200x200.c ****   } while( arg_int > 0 );
 220              		.loc 1 322 0
 221 00de 002B     		cmp	r3, #0
 222 00e0 E7D1     		bne	.L4
 323:..\..\u8g2\csrc/u8x8_d_ssd1607_200x200.c ****   
 324:..\..\u8g2\csrc/u8x8_d_ssd1607_200x200.c ****   u8x8_cad_EndTransfer(u8x8);
 223              		.loc 1 324 0
 224 00e2 2000     		movs	r0, r4
 225 00e4 FFF7FEFF 		bl	u8x8_cad_EndTransfer
 226              	.LVL35:
 325:..\..\u8g2\csrc/u8x8_d_ssd1607_200x200.c **** }
 227              		.loc 1 325 0
 228              		@ sp needed
 229              	.LVL36:
 230              	.LVL37:
 231              	.LVL38:
ARM GAS  C:\Users\Greg\AppData\Local\Temp\ccSJSgE8.s 			page 11


 232              	.LVL39:
 233 00e8 F7BD     		pop	{r0, r1, r2, r4, r5, r6, r7, pc}
 234              	.L10:
 235 00ea C046     		.align	2
 236              	.L9:
 237 00ec 00000000 		.word	.LANCHOR0
 238              		.cfi_endproc
 239              	.LFE1:
 240              		.size	u8x8_d_ssd1607_draw_tile, .-u8x8_d_ssd1607_draw_tile
 241              		.section	.text.u8x8_d_ssd1607_200x200,"ax",%progbits
 242              		.align	1
 243              		.global	u8x8_d_ssd1607_200x200
 244              		.code	16
 245              		.thumb_func
 246              		.type	u8x8_d_ssd1607_200x200, %function
 247              	u8x8_d_ssd1607_200x200:
 248              	.LFB3:
 326:..\..\u8g2\csrc/u8x8_d_ssd1607_200x200.c **** 
 327:..\..\u8g2\csrc/u8x8_d_ssd1607_200x200.c **** 
 328:..\..\u8g2\csrc/u8x8_d_ssd1607_200x200.c **** static uint8_t u8x8_d_ssd1607_200x200_generic(u8x8_t *u8x8, uint8_t msg, uint8_t arg_int, void *arg
 329:..\..\u8g2\csrc/u8x8_d_ssd1607_200x200.c **** {
 330:..\..\u8g2\csrc/u8x8_d_ssd1607_200x200.c ****   switch(msg)
 331:..\..\u8g2\csrc/u8x8_d_ssd1607_200x200.c ****   {
 332:..\..\u8g2\csrc/u8x8_d_ssd1607_200x200.c ****     /* handled by the calling function
 333:..\..\u8g2\csrc/u8x8_d_ssd1607_200x200.c ****     case U8X8_MSG_DISPLAY_SETUP_MEMORY:
 334:..\..\u8g2\csrc/u8x8_d_ssd1607_200x200.c ****       u8x8_d_helper_display_setup_memory(u8x8, &u8x8_ssd1607_200x200_display_info);
 335:..\..\u8g2\csrc/u8x8_d_ssd1607_200x200.c ****       break;
 336:..\..\u8g2\csrc/u8x8_d_ssd1607_200x200.c ****     */
 337:..\..\u8g2\csrc/u8x8_d_ssd1607_200x200.c ****     case U8X8_MSG_DISPLAY_INIT:
 338:..\..\u8g2\csrc/u8x8_d_ssd1607_200x200.c **** 
 339:..\..\u8g2\csrc/u8x8_d_ssd1607_200x200.c ****       u8x8_d_helper_display_init(u8x8);
 340:..\..\u8g2\csrc/u8x8_d_ssd1607_200x200.c ****       u8x8_cad_SendSequence(u8x8, u8x8_d_ssd1607_200x200_init_seq);    
 341:..\..\u8g2\csrc/u8x8_d_ssd1607_200x200.c ****     
 342:..\..\u8g2\csrc/u8x8_d_ssd1607_200x200.c **** #ifdef NOT_USED
 343:..\..\u8g2\csrc/u8x8_d_ssd1607_200x200.c ****       /* STRATEGY FOR SSD1606 */
 344:..\..\u8g2\csrc/u8x8_d_ssd1607_200x200.c ****       /* special code for the SSD1606... */
 345:..\..\u8g2\csrc/u8x8_d_ssd1607_200x200.c ****       /* ensure that the initial buffer is clear and all eInk is set to white */
 346:..\..\u8g2\csrc/u8x8_d_ssd1607_200x200.c ****       /* this is done here, because the LUT will be of that kind, that it uses the previous color *
 347:..\..\u8g2\csrc/u8x8_d_ssd1607_200x200.c ****       /* make everything black */
 348:..\..\u8g2\csrc/u8x8_d_ssd1607_200x200.c ****       u8x8_FillDisplay(u8x8);		
 349:..\..\u8g2\csrc/u8x8_d_ssd1607_200x200.c ****       /* write content to the display */
 350:..\..\u8g2\csrc/u8x8_d_ssd1607_200x200.c ****       u8x8_RefreshDisplay(u8x8);
 351:..\..\u8g2\csrc/u8x8_d_ssd1607_200x200.c ****       /* now make everything clear */
 352:..\..\u8g2\csrc/u8x8_d_ssd1607_200x200.c ****       u8x8_FillDisplay(u8x8);		
 353:..\..\u8g2\csrc/u8x8_d_ssd1607_200x200.c ****       /* write content to the display */
 354:..\..\u8g2\csrc/u8x8_d_ssd1607_200x200.c ****       u8x8_RefreshDisplay(u8x8);
 355:..\..\u8g2\csrc/u8x8_d_ssd1607_200x200.c ****       /* now make everything clear */
 356:..\..\u8g2\csrc/u8x8_d_ssd1607_200x200.c ****       u8x8_ClearDisplay(u8x8);		
 357:..\..\u8g2\csrc/u8x8_d_ssd1607_200x200.c ****       /* write content to the display */
 358:..\..\u8g2\csrc/u8x8_d_ssd1607_200x200.c ****       u8x8_RefreshDisplay(u8x8);
 359:..\..\u8g2\csrc/u8x8_d_ssd1607_200x200.c **** #endif
 360:..\..\u8g2\csrc/u8x8_d_ssd1607_200x200.c **** 
 361:..\..\u8g2\csrc/u8x8_d_ssd1607_200x200.c ****       u8x8_ClearDisplay(u8x8);		
 362:..\..\u8g2\csrc/u8x8_d_ssd1607_200x200.c ****       /* write content to the display */
 363:..\..\u8g2\csrc/u8x8_d_ssd1607_200x200.c ****       u8x8_RefreshDisplay(u8x8);
 364:..\..\u8g2\csrc/u8x8_d_ssd1607_200x200.c ****     
 365:..\..\u8g2\csrc/u8x8_d_ssd1607_200x200.c ****       break;
ARM GAS  C:\Users\Greg\AppData\Local\Temp\ccSJSgE8.s 			page 12


 366:..\..\u8g2\csrc/u8x8_d_ssd1607_200x200.c ****     case U8X8_MSG_DISPLAY_SET_POWER_SAVE:
 367:..\..\u8g2\csrc/u8x8_d_ssd1607_200x200.c **** /*
 368:..\..\u8g2\csrc/u8x8_d_ssd1607_200x200.c ****       if ( arg_int == 0 )
 369:..\..\u8g2\csrc/u8x8_d_ssd1607_200x200.c **** 	u8x8_cad_SendSequence(u8x8, u8x8_d_ssd1607_200x200_powersave0_seq);
 370:..\..\u8g2\csrc/u8x8_d_ssd1607_200x200.c ****       else
 371:..\..\u8g2\csrc/u8x8_d_ssd1607_200x200.c **** 	u8x8_cad_SendSequence(u8x8, u8x8_d_ssd1607_200x200_powersave1_seq);
 372:..\..\u8g2\csrc/u8x8_d_ssd1607_200x200.c **** */
 373:..\..\u8g2\csrc/u8x8_d_ssd1607_200x200.c ****       break;
 374:..\..\u8g2\csrc/u8x8_d_ssd1607_200x200.c ****     case U8X8_MSG_DISPLAY_SET_FLIP_MODE:
 375:..\..\u8g2\csrc/u8x8_d_ssd1607_200x200.c **** /*
 376:..\..\u8g2\csrc/u8x8_d_ssd1607_200x200.c ****       if ( arg_int == 0 )
 377:..\..\u8g2\csrc/u8x8_d_ssd1607_200x200.c ****       {
 378:..\..\u8g2\csrc/u8x8_d_ssd1607_200x200.c **** 	u8x8_cad_SendSequence(u8x8, u8x8_d_ssd1607_200x200_flip0_seq);
 379:..\..\u8g2\csrc/u8x8_d_ssd1607_200x200.c **** 	u8x8->x_offset = u8x8->display_info->default_x_offset;
 380:..\..\u8g2\csrc/u8x8_d_ssd1607_200x200.c ****       }
 381:..\..\u8g2\csrc/u8x8_d_ssd1607_200x200.c ****       else
 382:..\..\u8g2\csrc/u8x8_d_ssd1607_200x200.c ****       {
 383:..\..\u8g2\csrc/u8x8_d_ssd1607_200x200.c **** 	u8x8_cad_SendSequence(u8x8, u8x8_d_ssd1607_200x200_flip1_seq);
 384:..\..\u8g2\csrc/u8x8_d_ssd1607_200x200.c **** 	u8x8->x_offset = u8x8->display_info->flipmode_x_offset;
 385:..\..\u8g2\csrc/u8x8_d_ssd1607_200x200.c ****       }
 386:..\..\u8g2\csrc/u8x8_d_ssd1607_200x200.c **** */
 387:..\..\u8g2\csrc/u8x8_d_ssd1607_200x200.c ****       break;
 388:..\..\u8g2\csrc/u8x8_d_ssd1607_200x200.c **** #ifdef U8X8_WITH_SET_CONTRAST
 389:..\..\u8g2\csrc/u8x8_d_ssd1607_200x200.c **** /*
 390:..\..\u8g2\csrc/u8x8_d_ssd1607_200x200.c ****     case U8X8_MSG_DISPLAY_SET_CONTRAST:
 391:..\..\u8g2\csrc/u8x8_d_ssd1607_200x200.c ****       u8x8_cad_StartTransfer(u8x8);
 392:..\..\u8g2\csrc/u8x8_d_ssd1607_200x200.c ****       u8x8_cad_EndTransfer(u8x8);
 393:..\..\u8g2\csrc/u8x8_d_ssd1607_200x200.c **** */
 394:..\..\u8g2\csrc/u8x8_d_ssd1607_200x200.c ****       break;
 395:..\..\u8g2\csrc/u8x8_d_ssd1607_200x200.c **** #endif
 396:..\..\u8g2\csrc/u8x8_d_ssd1607_200x200.c ****     case U8X8_MSG_DISPLAY_DRAW_TILE:
 397:..\..\u8g2\csrc/u8x8_d_ssd1607_200x200.c ****       u8x8_d_ssd1607_draw_tile(u8x8, arg_int, arg_ptr);
 398:..\..\u8g2\csrc/u8x8_d_ssd1607_200x200.c ****       break;
 399:..\..\u8g2\csrc/u8x8_d_ssd1607_200x200.c ****     case U8X8_MSG_DISPLAY_REFRESH:
 400:..\..\u8g2\csrc/u8x8_d_ssd1607_200x200.c ****       u8x8_cad_SendSequence(u8x8, u8x8_d_ssd1607_to_display_seq);    
 401:..\..\u8g2\csrc/u8x8_d_ssd1607_200x200.c ****       break;
 402:..\..\u8g2\csrc/u8x8_d_ssd1607_200x200.c ****     default:
 403:..\..\u8g2\csrc/u8x8_d_ssd1607_200x200.c ****       return 0;
 404:..\..\u8g2\csrc/u8x8_d_ssd1607_200x200.c ****   }
 405:..\..\u8g2\csrc/u8x8_d_ssd1607_200x200.c ****   return 1;
 406:..\..\u8g2\csrc/u8x8_d_ssd1607_200x200.c **** }
 407:..\..\u8g2\csrc/u8x8_d_ssd1607_200x200.c **** 
 408:..\..\u8g2\csrc/u8x8_d_ssd1607_200x200.c **** 
 409:..\..\u8g2\csrc/u8x8_d_ssd1607_200x200.c **** static const u8x8_display_info_t u8x8_ssd1607_200x200_display_info =
 410:..\..\u8g2\csrc/u8x8_d_ssd1607_200x200.c **** {
 411:..\..\u8g2\csrc/u8x8_d_ssd1607_200x200.c ****   /* chip_enable_level = */ 0,
 412:..\..\u8g2\csrc/u8x8_d_ssd1607_200x200.c ****   /* chip_disable_level = */ 1,
 413:..\..\u8g2\csrc/u8x8_d_ssd1607_200x200.c ****   
 414:..\..\u8g2\csrc/u8x8_d_ssd1607_200x200.c ****   /* values from SSD1606 */
 415:..\..\u8g2\csrc/u8x8_d_ssd1607_200x200.c ****   /* post_chip_enable_wait_ns = */ 120,
 416:..\..\u8g2\csrc/u8x8_d_ssd1607_200x200.c ****   /* pre_chip_disable_wait_ns = */ 60,
 417:..\..\u8g2\csrc/u8x8_d_ssd1607_200x200.c ****   /* reset_pulse_width_ms = */ 100, 	
 418:..\..\u8g2\csrc/u8x8_d_ssd1607_200x200.c ****   /* post_reset_wait_ms = */ 100, 
 419:..\..\u8g2\csrc/u8x8_d_ssd1607_200x200.c ****   /* sda_setup_time_ns = */ 50,		/* SSD1606: */
 420:..\..\u8g2\csrc/u8x8_d_ssd1607_200x200.c ****   /* sck_pulse_width_ns = */ 100,	/* SSD1606: 100ns */
 421:..\..\u8g2\csrc/u8x8_d_ssd1607_200x200.c ****   /* sck_clock_hz = */ 4000000UL,	/* since Arduino 1.6.0, the SPI bus speed in Hz. Should be  10000
 422:..\..\u8g2\csrc/u8x8_d_ssd1607_200x200.c ****   /* spi_mode = */ 2,		/* active high, rising edge */
ARM GAS  C:\Users\Greg\AppData\Local\Temp\ccSJSgE8.s 			page 13


 423:..\..\u8g2\csrc/u8x8_d_ssd1607_200x200.c ****   /* i2c_bus_clock_100kHz = */ 4,
 424:..\..\u8g2\csrc/u8x8_d_ssd1607_200x200.c ****   /* data_setup_time_ns = */ 40,
 425:..\..\u8g2\csrc/u8x8_d_ssd1607_200x200.c ****   /* write_pulse_width_ns = */ 150,	
 426:..\..\u8g2\csrc/u8x8_d_ssd1607_200x200.c ****   /* tile_width = */ 25,		/* 25*8 = 200 */
 427:..\..\u8g2\csrc/u8x8_d_ssd1607_200x200.c ****   /* tile_hight = */ 25,		
 428:..\..\u8g2\csrc/u8x8_d_ssd1607_200x200.c ****   /* default_x_offset = */ 0,
 429:..\..\u8g2\csrc/u8x8_d_ssd1607_200x200.c ****   /* flipmode_x_offset = */ 0,
 430:..\..\u8g2\csrc/u8x8_d_ssd1607_200x200.c ****   /* pixel_width = */ 200,
 431:..\..\u8g2\csrc/u8x8_d_ssd1607_200x200.c ****   /* pixel_height = */ 200		
 432:..\..\u8g2\csrc/u8x8_d_ssd1607_200x200.c **** };
 433:..\..\u8g2\csrc/u8x8_d_ssd1607_200x200.c **** 
 434:..\..\u8g2\csrc/u8x8_d_ssd1607_200x200.c **** uint8_t u8x8_d_ssd1607_200x200(u8x8_t *u8x8, uint8_t msg, uint8_t arg_int, void *arg_ptr)
 435:..\..\u8g2\csrc/u8x8_d_ssd1607_200x200.c **** {
 249              		.loc 1 435 0
 250              		.cfi_startproc
 251              		@ args = 0, pretend = 0, frame = 0
 252              		@ frame_needed = 0, uses_anonymous_args = 0
 253              	.LVL40:
 254 0000 10B5     		push	{r4, lr}
 255              		.cfi_def_cfa_offset 8
 256              		.cfi_offset 4, -8
 257              		.cfi_offset 14, -4
 258              		.loc 1 435 0
 259 0002 0400     		movs	r4, r0
 260 0004 0800     		movs	r0, r1
 261              	.LVL41:
 262 0006 1100     		movs	r1, r2
 263              	.LVL42:
 436:..\..\u8g2\csrc/u8x8_d_ssd1607_200x200.c ****     if ( msg == U8X8_MSG_DISPLAY_SETUP_MEMORY )
 264              		.loc 1 436 0
 265 0008 0928     		cmp	r0, #9
 266 000a 04D1     		bne	.L12
 437:..\..\u8g2\csrc/u8x8_d_ssd1607_200x200.c ****     {
 438:..\..\u8g2\csrc/u8x8_d_ssd1607_200x200.c ****       u8x8_d_helper_display_setup_memory(u8x8, &u8x8_ssd1607_200x200_display_info);
 267              		.loc 1 438 0
 268 000c 1549     		ldr	r1, .L21
 269 000e 2000     		movs	r0, r4
 270 0010 FFF7FEFF 		bl	u8x8_d_helper_display_setup_memory
 271              	.LVL43:
 272 0014 21E0     		b	.L20
 273              	.LVL44:
 274              	.L12:
 275              	.LBB8:
 276              	.LBB9:
 330:..\..\u8g2\csrc/u8x8_d_ssd1607_200x200.c ****   {
 277              		.loc 1 330 0
 278 0016 0A38     		subs	r0, r0, #10
 279              	.LVL45:
 280 0018 0628     		cmp	r0, #6
 281 001a 20D8     		bhi	.L19
 282 001c FFF7FEFF 		bl	__gnu_thumb1_case_uqi
 283              	.L15:
 284 0020 04       		.byte	(.L14-.L15)/2
 285 0021 1D       		.byte	(.L20-.L15)/2
 286 0022 1F       		.byte	(.L19-.L15)/2
 287 0023 1D       		.byte	(.L20-.L15)/2
 288 0024 1F       		.byte	(.L19-.L15)/2
ARM GAS  C:\Users\Greg\AppData\Local\Temp\ccSJSgE8.s 			page 14


 289 0025 13       		.byte	(.L17-.L15)/2
 290 0026 18       		.byte	(.L18-.L15)/2
 291 0027 00       		.p2align 1
 292              	.L14:
 339:..\..\u8g2\csrc/u8x8_d_ssd1607_200x200.c ****       u8x8_cad_SendSequence(u8x8, u8x8_d_ssd1607_200x200_init_seq);    
 293              		.loc 1 339 0
 294 0028 2000     		movs	r0, r4
 295 002a FFF7FEFF 		bl	u8x8_d_helper_display_init
 296              	.LVL46:
 340:..\..\u8g2\csrc/u8x8_d_ssd1607_200x200.c ****     
 297              		.loc 1 340 0
 298 002e 0D49     		ldr	r1, .L21
 299 0030 2000     		movs	r0, r4
 300 0032 1831     		adds	r1, r1, #24
 301 0034 FFF7FEFF 		bl	u8x8_cad_SendSequence
 302              	.LVL47:
 361:..\..\u8g2\csrc/u8x8_d_ssd1607_200x200.c ****       /* write content to the display */
 303              		.loc 1 361 0
 304 0038 2000     		movs	r0, r4
 305 003a FFF7FEFF 		bl	u8x8_ClearDisplay
 306              	.LVL48:
 363:..\..\u8g2\csrc/u8x8_d_ssd1607_200x200.c ****     
 307              		.loc 1 363 0
 308 003e 2000     		movs	r0, r4
 309 0040 FFF7FEFF 		bl	u8x8_RefreshDisplay
 310              	.LVL49:
 311 0044 09E0     		b	.L20
 312              	.LVL50:
 313              	.L17:
 397:..\..\u8g2\csrc/u8x8_d_ssd1607_200x200.c ****       break;
 314              		.loc 1 397 0
 315 0046 1A00     		movs	r2, r3
 316              	.LVL51:
 317 0048 2000     		movs	r0, r4
 318 004a FFF7FEFF 		bl	u8x8_d_ssd1607_draw_tile
 319              	.LVL52:
 320 004e 04E0     		b	.L20
 321              	.LVL53:
 322              	.L18:
 400:..\..\u8g2\csrc/u8x8_d_ssd1607_200x200.c ****       break;
 323              		.loc 1 400 0
 324 0050 0549     		ldr	r1, .L21+4
 325              	.LVL54:
 326 0052 2000     		movs	r0, r4
 327 0054 1F31     		adds	r1, r1, #31
 328 0056 FFF7FEFF 		bl	u8x8_cad_SendSequence
 329              	.LVL55:
 330              	.L20:
 405:..\..\u8g2\csrc/u8x8_d_ssd1607_200x200.c **** }
 331              		.loc 1 405 0
 332 005a 0120     		movs	r0, #1
 333 005c 00E0     		b	.L13
 334              	.LVL56:
 335              	.L19:
 403:..\..\u8g2\csrc/u8x8_d_ssd1607_200x200.c ****   }
 336              		.loc 1 403 0
 337 005e 0020     		movs	r0, #0
ARM GAS  C:\Users\Greg\AppData\Local\Temp\ccSJSgE8.s 			page 15


 338              	.LVL57:
 339              	.L13:
 340              	.LBE9:
 341              	.LBE8:
 439:..\..\u8g2\csrc/u8x8_d_ssd1607_200x200.c ****       return 1;
 440:..\..\u8g2\csrc/u8x8_d_ssd1607_200x200.c ****     }
 441:..\..\u8g2\csrc/u8x8_d_ssd1607_200x200.c ****     return u8x8_d_ssd1607_200x200_generic(u8x8, msg, arg_int, arg_ptr);
 442:..\..\u8g2\csrc/u8x8_d_ssd1607_200x200.c **** }
 342              		.loc 1 442 0
 343              		@ sp needed
 344              	.LVL58:
 345 0060 10BD     		pop	{r4, pc}
 346              	.L22:
 347 0062 C046     		.align	2
 348              	.L21:
 349 0064 00000000 		.word	.LANCHOR1
 350 0068 80000000 		.word	.LANCHOR2
 351              		.cfi_endproc
 352              	.LFE3:
 353              		.size	u8x8_d_ssd1607_200x200, .-u8x8_d_ssd1607_200x200
 354              		.section	.rodata
 355              		.align	2
 356              		.set	.LANCHOR1,. + 0
 357              		.set	.LANCHOR2,. + 128
 358              		.type	u8x8_ssd1607_200x200_display_info, %object
 359              		.size	u8x8_ssd1607_200x200_display_info, 24
 360              	u8x8_ssd1607_200x200_display_info:
 361 0000 00       		.byte	0
 362 0001 01       		.byte	1
 363 0002 78       		.byte	120
 364 0003 3C       		.byte	60
 365 0004 64       		.byte	100
 366 0005 64       		.byte	100
 367 0006 32       		.byte	50
 368 0007 64       		.byte	100
 369 0008 00093D00 		.word	4000000
 370 000c 02       		.byte	2
 371 000d 04       		.byte	4
 372 000e 28       		.byte	40
 373 000f 96       		.byte	-106
 374 0010 19       		.byte	25
 375 0011 19       		.byte	25
 376 0012 00       		.byte	0
 377 0013 00       		.byte	0
 378 0014 C800     		.short	200
 379 0016 C800     		.short	200
 380              		.type	u8x8_d_ssd1607_200x200_init_seq, %object
 381              		.size	u8x8_d_ssd1607_200x200_init_seq, 135
 382              	u8x8_d_ssd1607_200x200_init_seq:
 383 0018 18       		.byte	24
 384 0019 15       		.byte	21
 385 001a 10       		.byte	16
 386 001b 16       		.byte	22
 387 001c 00       		.byte	0
 388 001d 15       		.byte	21
 389 001e 03       		.byte	3
 390 001f 16       		.byte	22
ARM GAS  C:\Users\Greg\AppData\Local\Temp\ccSJSgE8.s 			page 16


 391 0020 00       		.byte	0
 392 0021 15       		.byte	21
 393 0022 04       		.byte	4
 394 0023 16       		.byte	22
 395 0024 0A       		.byte	10
 396 0025 15       		.byte	21
 397 0026 11       		.byte	17
 398 0027 16       		.byte	22
 399 0028 01       		.byte	1
 400 0029 15       		.byte	21
 401 002a 44       		.byte	68
 402 002b 16       		.byte	22
 403 002c 00       		.byte	0
 404 002d 16       		.byte	22
 405 002e 18       		.byte	24
 406 002f 15       		.byte	21
 407 0030 45       		.byte	69
 408 0031 16       		.byte	22
 409 0032 00       		.byte	0
 410 0033 16       		.byte	22
 411 0034 00       		.byte	0
 412 0035 16       		.byte	22
 413 0036 2B       		.byte	43
 414 0037 16       		.byte	22
 415 0038 01       		.byte	1
 416 0039 15       		.byte	21
 417 003a 4E       		.byte	78
 418 003b 16       		.byte	22
 419 003c 00       		.byte	0
 420 003d 15       		.byte	21
 421 003e 4F       		.byte	79
 422 003f 16       		.byte	22
 423 0040 00       		.byte	0
 424 0041 16       		.byte	22
 425 0042 00       		.byte	0
 426 0043 15       		.byte	21
 427 0044 F0       		.byte	-16
 428 0045 16       		.byte	22
 429 0046 1F       		.byte	31
 430 0047 15       		.byte	21
 431 0048 22       		.byte	34
 432 0049 16       		.byte	22
 433 004a C0       		.byte	-64
 434 004b 15       		.byte	21
 435 004c 32       		.byte	50
 436 004d 16       		.byte	22
 437 004e 02       		.byte	2
 438 004f 16       		.byte	22
 439 0050 02       		.byte	2
 440 0051 16       		.byte	22
 441 0052 01       		.byte	1
 442 0053 16       		.byte	22
 443 0054 11       		.byte	17
 444 0055 16       		.byte	22
 445 0056 12       		.byte	18
 446 0057 16       		.byte	22
 447 0058 12       		.byte	18
ARM GAS  C:\Users\Greg\AppData\Local\Temp\ccSJSgE8.s 			page 17


 448 0059 16       		.byte	22
 449 005a 22       		.byte	34
 450 005b 16       		.byte	22
 451 005c 22       		.byte	34
 452 005d 16       		.byte	22
 453 005e 66       		.byte	102
 454 005f 16       		.byte	22
 455 0060 69       		.byte	105
 456 0061 16       		.byte	22
 457 0062 69       		.byte	105
 458 0063 16       		.byte	22
 459 0064 59       		.byte	89
 460 0065 16       		.byte	22
 461 0066 58       		.byte	88
 462 0067 16       		.byte	22
 463 0068 99       		.byte	-103
 464 0069 16       		.byte	22
 465 006a 99       		.byte	-103
 466 006b 16       		.byte	22
 467 006c 88       		.byte	-120
 468 006d 16       		.byte	22
 469 006e 00       		.byte	0
 470 006f 16       		.byte	22
 471 0070 00       		.byte	0
 472 0071 16       		.byte	22
 473 0072 00       		.byte	0
 474 0073 16       		.byte	22
 475 0074 00       		.byte	0
 476 0075 16       		.byte	22
 477 0076 F8       		.byte	-8
 478 0077 16       		.byte	22
 479 0078 B4       		.byte	-76
 480 0079 16       		.byte	22
 481 007a 13       		.byte	19
 482 007b 16       		.byte	22
 483 007c 51       		.byte	81
 484 007d 16       		.byte	22
 485 007e 35       		.byte	53
 486 007f 16       		.byte	22
 487 0080 51       		.byte	81
 488 0081 16       		.byte	22
 489 0082 51       		.byte	81
 490 0083 16       		.byte	22
 491 0084 19       		.byte	25
 492 0085 16       		.byte	22
 493 0086 01       		.byte	1
 494 0087 16       		.byte	22
 495 0088 00       		.byte	0
 496 0089 15       		.byte	21
 497 008a 2C       		.byte	44
 498 008b 16       		.byte	22
 499 008c A8       		.byte	-88
 500 008d 15       		.byte	21
 501 008e 3A       		.byte	58
 502 008f 16       		.byte	22
 503 0090 1A       		.byte	26
 504 0091 15       		.byte	21
ARM GAS  C:\Users\Greg\AppData\Local\Temp\ccSJSgE8.s 			page 18


 505 0092 3B       		.byte	59
 506 0093 16       		.byte	22
 507 0094 08       		.byte	8
 508 0095 15       		.byte	21
 509 0096 3C       		.byte	60
 510 0097 16       		.byte	22
 511 0098 33       		.byte	51
 512 0099 15       		.byte	21
 513 009a 22       		.byte	34
 514 009b 16       		.byte	22
 515 009c C4       		.byte	-60
 516 009d 19       		.byte	25
 517 009e FF       		.byte	-1
 518              		.type	u8x8_d_ssd1607_to_display_seq, %object
 519              		.size	u8x8_d_ssd1607_to_display_seq, 33
 520              	u8x8_d_ssd1607_to_display_seq:
 521 009f 18       		.byte	24
 522 00a0 15       		.byte	21
 523 00a1 22       		.byte	34
 524 00a2 16       		.byte	22
 525 00a3 C4       		.byte	-60
 526 00a4 15       		.byte	21
 527 00a5 20       		.byte	32
 528 00a6 FE       		.byte	-2
 529 00a7 FA       		.byte	-6
 530 00a8 FE       		.byte	-2
 531 00a9 FA       		.byte	-6
 532 00aa FE       		.byte	-2
 533 00ab FA       		.byte	-6
 534 00ac FE       		.byte	-2
 535 00ad FA       		.byte	-6
 536 00ae FE       		.byte	-2
 537 00af FA       		.byte	-6
 538 00b0 FE       		.byte	-2
 539 00b1 FA       		.byte	-6
 540 00b2 FE       		.byte	-2
 541 00b3 FA       		.byte	-6
 542 00b4 15       		.byte	21
 543 00b5 22       		.byte	34
 544 00b6 16       		.byte	22
 545 00b7 03       		.byte	3
 546 00b8 FE       		.byte	-2
 547 00b9 FA       		.byte	-6
 548 00ba FE       		.byte	-2
 549 00bb FA       		.byte	-6
 550 00bc FE       		.byte	-2
 551 00bd 64       		.byte	100
 552 00be 19       		.byte	25
 553 00bf FF       		.byte	-1
 554              		.bss
 555              		.set	.LANCHOR0,. + 0
 556              		.type	buf.4869, %object
 557              		.size	buf.4869, 8
 558              	buf.4869:
 559 0000 00000000 		.space	8
 559      00000000 
 560              		.text
ARM GAS  C:\Users\Greg\AppData\Local\Temp\ccSJSgE8.s 			page 19


 561              	.Letext0:
 562              		.file 2 "c:\\program files\\cypress\\psoc creator\\4.1\\psoc creator\\import\\gnu\\arm\\5.4.1\\arm
 563              		.file 3 "c:\\program files\\cypress\\psoc creator\\4.1\\psoc creator\\import\\gnu\\arm\\5.4.1\\arm
 564              		.file 4 "..\\..\\u8g2\\csrc\\u8x8.h"