ARM GAS  C:\Users\Greg\AppData\Local\Temp\ccYknPR0.s 			page 1


   1              		.syntax unified
   2              		.cpu cortex-m0
   3              		.fpu softvfp
   4              		.eabi_attribute 20, 1
   5              		.eabi_attribute 21, 1
   6              		.eabi_attribute 23, 3
   7              		.eabi_attribute 24, 1
   8              		.eabi_attribute 25, 1
   9              		.eabi_attribute 26, 1
  10              		.eabi_attribute 30, 4
  11              		.eabi_attribute 34, 0
  12              		.eabi_attribute 18, 4
  13              		.thumb
  14              		.syntax unified
  15              		.file	"u8x8_d_pcf8812.c"
  16              		.text
  17              	.Ltext0:
  18              		.cfi_sections	.debug_frame
  19              		.section	.text.u8x8_d_pcf8812_96x65,"ax",%progbits
  20              		.align	1
  21              		.global	u8x8_d_pcf8812_96x65
  22              		.code	16
  23              		.thumb_func
  24              		.type	u8x8_d_pcf8812_96x65, %function
  25              	u8x8_d_pcf8812_96x65:
  26              	.LFB1:
  27              		.file 1 "..\\..\\u8g2\\csrc\\u8x8_d_pcf8812.c"
   1:..\..\u8g2\csrc/u8x8_d_pcf8812.c **** /*
   2:..\..\u8g2\csrc/u8x8_d_pcf8812.c **** 
   3:..\..\u8g2\csrc/u8x8_d_pcf8812.c ****   u8x8_d_pcf8812.c
   4:..\..\u8g2\csrc/u8x8_d_pcf8812.c ****   
   5:..\..\u8g2\csrc/u8x8_d_pcf8812.c ****   pcf8812: 65x102
   6:..\..\u8g2\csrc/u8x8_d_pcf8812.c ****   pcf8814: 65x96
   7:..\..\u8g2\csrc/u8x8_d_pcf8812.c **** 
   8:..\..\u8g2\csrc/u8x8_d_pcf8812.c ****   Universal 8bit Graphics Library (https://github.com/olikraus/u8g2/)
   9:..\..\u8g2\csrc/u8x8_d_pcf8812.c **** 
  10:..\..\u8g2\csrc/u8x8_d_pcf8812.c ****   Copyright (c) 2017, olikraus@gmail.com
  11:..\..\u8g2\csrc/u8x8_d_pcf8812.c ****   All rights reserved.
  12:..\..\u8g2\csrc/u8x8_d_pcf8812.c **** 
  13:..\..\u8g2\csrc/u8x8_d_pcf8812.c ****   Redistribution and use in source and binary forms, with or without modification, 
  14:..\..\u8g2\csrc/u8x8_d_pcf8812.c ****   are permitted provided that the following conditions are met:
  15:..\..\u8g2\csrc/u8x8_d_pcf8812.c **** 
  16:..\..\u8g2\csrc/u8x8_d_pcf8812.c ****   * Redistributions of source code must retain the above copyright notice, this list 
  17:..\..\u8g2\csrc/u8x8_d_pcf8812.c ****     of conditions and the following disclaimer.
  18:..\..\u8g2\csrc/u8x8_d_pcf8812.c ****     
  19:..\..\u8g2\csrc/u8x8_d_pcf8812.c ****   * Redistributions in binary form must reproduce the above copyright notice, this 
  20:..\..\u8g2\csrc/u8x8_d_pcf8812.c ****     list of conditions and the following disclaimer in the documentation and/or other 
  21:..\..\u8g2\csrc/u8x8_d_pcf8812.c ****     materials provided with the distribution.
  22:..\..\u8g2\csrc/u8x8_d_pcf8812.c **** 
  23:..\..\u8g2\csrc/u8x8_d_pcf8812.c ****   THIS SOFTWARE IS PROVIDED BY THE COPYRIGHT HOLDERS AND 
  24:..\..\u8g2\csrc/u8x8_d_pcf8812.c ****   CONTRIBUTORS "AS IS" AND ANY EXPRESS OR IMPLIED WARRANTIES, 
  25:..\..\u8g2\csrc/u8x8_d_pcf8812.c ****   INCLUDING, BUT NOT LIMITED TO, THE IMPLIED WARRANTIES OF 
  26:..\..\u8g2\csrc/u8x8_d_pcf8812.c ****   MERCHANTABILITY AND FITNESS FOR A PARTICULAR PURPOSE ARE 
  27:..\..\u8g2\csrc/u8x8_d_pcf8812.c ****   DISCLAIMED. IN NO EVENT SHALL THE COPYRIGHT HOLDER OR 
  28:..\..\u8g2\csrc/u8x8_d_pcf8812.c ****   CONTRIBUTORS BE LIABLE FOR ANY DIRECT, INDIRECT, INCIDENTAL, 
  29:..\..\u8g2\csrc/u8x8_d_pcf8812.c ****   SPECIAL, EXEMPLARY, OR CONSEQUENTIAL DAMAGES (INCLUDING, BUT 
  30:..\..\u8g2\csrc/u8x8_d_pcf8812.c ****   NOT LIMITED TO, PROCUREMENT OF SUBSTITUTE GOODS OR SERVICES; 
ARM GAS  C:\Users\Greg\AppData\Local\Temp\ccYknPR0.s 			page 2


  31:..\..\u8g2\csrc/u8x8_d_pcf8812.c ****   LOSS OF USE, DATA, OR PROFITS; OR BUSINESS INTERRUPTION) HOWEVER 
  32:..\..\u8g2\csrc/u8x8_d_pcf8812.c ****   CAUSED AND ON ANY THEORY OF LIABILITY, WHETHER IN CONTRACT, 
  33:..\..\u8g2\csrc/u8x8_d_pcf8812.c ****   STRICT LIABILITY, OR TORT (INCLUDING NEGLIGENCE OR OTHERWISE) 
  34:..\..\u8g2\csrc/u8x8_d_pcf8812.c ****   ARISING IN ANY WAY OUT OF THE USE OF THIS SOFTWARE, EVEN IF 
  35:..\..\u8g2\csrc/u8x8_d_pcf8812.c ****   ADVISED OF THE POSSIBILITY OF SUCH DAMAGE.  
  36:..\..\u8g2\csrc/u8x8_d_pcf8812.c ****   
  37:..\..\u8g2\csrc/u8x8_d_pcf8812.c **** */
  38:..\..\u8g2\csrc/u8x8_d_pcf8812.c **** 
  39:..\..\u8g2\csrc/u8x8_d_pcf8812.c **** 
  40:..\..\u8g2\csrc/u8x8_d_pcf8812.c **** #include "u8x8.h"
  41:..\..\u8g2\csrc/u8x8_d_pcf8812.c **** 
  42:..\..\u8g2\csrc/u8x8_d_pcf8812.c **** 
  43:..\..\u8g2\csrc/u8x8_d_pcf8812.c **** 
  44:..\..\u8g2\csrc/u8x8_d_pcf8812.c **** static const uint8_t u8x8_d_pcf8812_96x65_init_seq[] = {
  45:..\..\u8g2\csrc/u8x8_d_pcf8812.c ****     
  46:..\..\u8g2\csrc/u8x8_d_pcf8812.c ****   U8X8_START_TRANSFER(),             	/* enable chip, delay is part of the transfer start */
  47:..\..\u8g2\csrc/u8x8_d_pcf8812.c ****   
  48:..\..\u8g2\csrc/u8x8_d_pcf8812.c ****   U8X8_C(0x020),		                /* activate chip (PD=0), horizontal increment (V=0), enter normal
  49:..\..\u8g2\csrc/u8x8_d_pcf8812.c ****   U8X8_C(0x008),		                /* blank display */
  50:..\..\u8g2\csrc/u8x8_d_pcf8812.c ****   
  51:..\..\u8g2\csrc/u8x8_d_pcf8812.c ****   U8X8_C(0x021),		                /* activate chip (PD=0), horizontal increment (V=0), enter extend
  52:..\..\u8g2\csrc/u8x8_d_pcf8812.c ****   U8X8_C(0x006),		                /* temp. control: b10 = 2 */
  53:..\..\u8g2\csrc/u8x8_d_pcf8812.c ****   U8X8_C(0x013),		                /* bias system, 0x010..0x07 1:48 */
  54:..\..\u8g2\csrc/u8x8_d_pcf8812.c ****   U8X8_C(0x09f),				/* contrast setting, 0..127 */
  55:..\..\u8g2\csrc/u8x8_d_pcf8812.c ****   //U8X8_CA(0x020 | 2, 0x080 | 0),				/* contrast setting, pcf8814 */
  56:..\..\u8g2\csrc/u8x8_d_pcf8812.c **** 
  57:..\..\u8g2\csrc/u8x8_d_pcf8812.c ****   U8X8_C(0x024),		                /* deactivate chip (PD=1), horizontal increment (V=0), enter norm
  58:..\..\u8g2\csrc/u8x8_d_pcf8812.c ****     
  59:..\..\u8g2\csrc/u8x8_d_pcf8812.c ****   U8X8_END_TRANSFER(),             	/* disable chip */
  60:..\..\u8g2\csrc/u8x8_d_pcf8812.c ****   U8X8_END()             			/* end of sequence */
  61:..\..\u8g2\csrc/u8x8_d_pcf8812.c **** };
  62:..\..\u8g2\csrc/u8x8_d_pcf8812.c **** 
  63:..\..\u8g2\csrc/u8x8_d_pcf8812.c **** static const uint8_t u8x8_d_pcf8812_96x65_powersave0_seq[] = {
  64:..\..\u8g2\csrc/u8x8_d_pcf8812.c ****   U8X8_START_TRANSFER(),             	/* enable chip, delay is part of the transfer start */
  65:..\..\u8g2\csrc/u8x8_d_pcf8812.c ****   U8X8_C(0x020),		                /* power on */
  66:..\..\u8g2\csrc/u8x8_d_pcf8812.c ****   U8X8_C(0x00c),		                /* display on */
  67:..\..\u8g2\csrc/u8x8_d_pcf8812.c ****   U8X8_END_TRANSFER(),             	/* disable chip */
  68:..\..\u8g2\csrc/u8x8_d_pcf8812.c ****   U8X8_END()             			/* end of sequence */
  69:..\..\u8g2\csrc/u8x8_d_pcf8812.c **** };
  70:..\..\u8g2\csrc/u8x8_d_pcf8812.c **** 
  71:..\..\u8g2\csrc/u8x8_d_pcf8812.c **** static const uint8_t u8x8_d_pcf8812_96x65_powersave1_seq[] = {
  72:..\..\u8g2\csrc/u8x8_d_pcf8812.c ****   U8X8_START_TRANSFER(),             	/* enable chip, delay is part of the transfer start */
  73:..\..\u8g2\csrc/u8x8_d_pcf8812.c ****   U8X8_C(0x020),		                /* power on */
  74:..\..\u8g2\csrc/u8x8_d_pcf8812.c ****   U8X8_C(0x008),		                /* blank display */
  75:..\..\u8g2\csrc/u8x8_d_pcf8812.c ****   U8X8_C(0x024),		                /* power down */
  76:..\..\u8g2\csrc/u8x8_d_pcf8812.c ****   U8X8_END_TRANSFER(),             	/* disable chip */
  77:..\..\u8g2\csrc/u8x8_d_pcf8812.c ****   U8X8_END()             			/* end of sequence */
  78:..\..\u8g2\csrc/u8x8_d_pcf8812.c **** };
  79:..\..\u8g2\csrc/u8x8_d_pcf8812.c **** 
  80:..\..\u8g2\csrc/u8x8_d_pcf8812.c **** 
  81:..\..\u8g2\csrc/u8x8_d_pcf8812.c **** static uint8_t u8x8_d_pcf8812_96x65_generic(u8x8_t *u8x8, uint8_t msg, uint8_t arg_int, void *arg_p
  82:..\..\u8g2\csrc/u8x8_d_pcf8812.c **** {
  83:..\..\u8g2\csrc/u8x8_d_pcf8812.c ****   uint8_t x, c;
  84:..\..\u8g2\csrc/u8x8_d_pcf8812.c ****   uint8_t *ptr;
  85:..\..\u8g2\csrc/u8x8_d_pcf8812.c ****   switch(msg)
  86:..\..\u8g2\csrc/u8x8_d_pcf8812.c ****   {
  87:..\..\u8g2\csrc/u8x8_d_pcf8812.c ****     /* handled by the calling function
ARM GAS  C:\Users\Greg\AppData\Local\Temp\ccYknPR0.s 			page 3


  88:..\..\u8g2\csrc/u8x8_d_pcf8812.c ****     case U8X8_MSG_DISPLAY_SETUP_MEMORY:
  89:..\..\u8g2\csrc/u8x8_d_pcf8812.c ****       u8x8_d_helper_display_setup_memory(u8x8, &u8x8_pcf8812_96x65_display_info);
  90:..\..\u8g2\csrc/u8x8_d_pcf8812.c ****       break;
  91:..\..\u8g2\csrc/u8x8_d_pcf8812.c ****     */
  92:..\..\u8g2\csrc/u8x8_d_pcf8812.c ****     case U8X8_MSG_DISPLAY_INIT:
  93:..\..\u8g2\csrc/u8x8_d_pcf8812.c ****       u8x8_d_helper_display_init(u8x8);
  94:..\..\u8g2\csrc/u8x8_d_pcf8812.c ****       u8x8_cad_SendSequence(u8x8, u8x8_d_pcf8812_96x65_init_seq);    
  95:..\..\u8g2\csrc/u8x8_d_pcf8812.c ****       break;
  96:..\..\u8g2\csrc/u8x8_d_pcf8812.c ****     case U8X8_MSG_DISPLAY_SET_POWER_SAVE:
  97:..\..\u8g2\csrc/u8x8_d_pcf8812.c ****       if ( arg_int == 0 )
  98:..\..\u8g2\csrc/u8x8_d_pcf8812.c **** 	u8x8_cad_SendSequence(u8x8, u8x8_d_pcf8812_96x65_powersave0_seq);
  99:..\..\u8g2\csrc/u8x8_d_pcf8812.c ****       else
 100:..\..\u8g2\csrc/u8x8_d_pcf8812.c **** 	u8x8_cad_SendSequence(u8x8, u8x8_d_pcf8812_96x65_powersave1_seq);
 101:..\..\u8g2\csrc/u8x8_d_pcf8812.c ****       break;
 102:..\..\u8g2\csrc/u8x8_d_pcf8812.c **** /*
 103:..\..\u8g2\csrc/u8x8_d_pcf8812.c ****     case U8X8_MSG_DISPLAY_SET_FLIP_MODE:
 104:..\..\u8g2\csrc/u8x8_d_pcf8812.c ****       if ( arg_int == 0 )
 105:..\..\u8g2\csrc/u8x8_d_pcf8812.c ****       {
 106:..\..\u8g2\csrc/u8x8_d_pcf8812.c **** 	u8x8_cad_SendSequence(u8x8, u8x8_d_pcf8812_96x65_flip0_seq);
 107:..\..\u8g2\csrc/u8x8_d_pcf8812.c **** 	u8x8->x_offset = u8x8->display_info->default_x_offset;
 108:..\..\u8g2\csrc/u8x8_d_pcf8812.c ****       }
 109:..\..\u8g2\csrc/u8x8_d_pcf8812.c ****       else
 110:..\..\u8g2\csrc/u8x8_d_pcf8812.c ****       {
 111:..\..\u8g2\csrc/u8x8_d_pcf8812.c **** 	u8x8_cad_SendSequence(u8x8, u8x8_d_pcf8812_96x65_flip1_seq);
 112:..\..\u8g2\csrc/u8x8_d_pcf8812.c **** 	u8x8->x_offset = u8x8->display_info->flipmode_x_offset;
 113:..\..\u8g2\csrc/u8x8_d_pcf8812.c ****       }
 114:..\..\u8g2\csrc/u8x8_d_pcf8812.c ****       break;
 115:..\..\u8g2\csrc/u8x8_d_pcf8812.c **** */
 116:..\..\u8g2\csrc/u8x8_d_pcf8812.c **** #ifdef U8X8_WITH_SET_CONTRAST
 117:..\..\u8g2\csrc/u8x8_d_pcf8812.c ****     case U8X8_MSG_DISPLAY_SET_CONTRAST:
 118:..\..\u8g2\csrc/u8x8_d_pcf8812.c ****       u8x8_cad_StartTransfer(u8x8);
 119:..\..\u8g2\csrc/u8x8_d_pcf8812.c ****       u8x8_cad_SendCmd(u8x8, 0x021 );    /* command mode, extended function set */
 120:..\..\u8g2\csrc/u8x8_d_pcf8812.c ****       u8x8_cad_SendArg(u8x8, (arg_int>>1)|0x80 );	/* 0..127 for contrast */
 121:..\..\u8g2\csrc/u8x8_d_pcf8812.c ****       u8x8_cad_EndTransfer(u8x8);
 122:..\..\u8g2\csrc/u8x8_d_pcf8812.c ****       break;
 123:..\..\u8g2\csrc/u8x8_d_pcf8812.c **** #endif
 124:..\..\u8g2\csrc/u8x8_d_pcf8812.c ****     case U8X8_MSG_DISPLAY_DRAW_TILE:
 125:..\..\u8g2\csrc/u8x8_d_pcf8812.c ****       u8x8_cad_StartTransfer(u8x8);
 126:..\..\u8g2\csrc/u8x8_d_pcf8812.c ****       x = ((u8x8_tile_t *)arg_ptr)->x_pos;    
 127:..\..\u8g2\csrc/u8x8_d_pcf8812.c ****       x *= 8;
 128:..\..\u8g2\csrc/u8x8_d_pcf8812.c ****       x += u8x8->x_offset;
 129:..\..\u8g2\csrc/u8x8_d_pcf8812.c ****     
 130:..\..\u8g2\csrc/u8x8_d_pcf8812.c ****       u8x8_cad_SendCmd(u8x8, 0x020 );	/* activate chip (PD=0), horizontal increment (V=0), enter no
 131:..\..\u8g2\csrc/u8x8_d_pcf8812.c ****       u8x8_cad_SendCmd(u8x8, 0x080 | x);
 132:..\..\u8g2\csrc/u8x8_d_pcf8812.c ****       u8x8_cad_SendCmd(u8x8, 0x040 | ((u8x8_tile_t *)arg_ptr)->y_pos);
 133:..\..\u8g2\csrc/u8x8_d_pcf8812.c ****       
 134:..\..\u8g2\csrc/u8x8_d_pcf8812.c ****       do
 135:..\..\u8g2\csrc/u8x8_d_pcf8812.c ****       {
 136:..\..\u8g2\csrc/u8x8_d_pcf8812.c **** 	c = ((u8x8_tile_t *)arg_ptr)->cnt;
 137:..\..\u8g2\csrc/u8x8_d_pcf8812.c **** 	ptr = ((u8x8_tile_t *)arg_ptr)->tile_ptr;
 138:..\..\u8g2\csrc/u8x8_d_pcf8812.c **** 	u8x8_cad_SendData(u8x8, c*8, ptr); 	/* note: SendData can not handle more than 255 bytes */
 139:..\..\u8g2\csrc/u8x8_d_pcf8812.c **** 	/*
 140:..\..\u8g2\csrc/u8x8_d_pcf8812.c **** 	do
 141:..\..\u8g2\csrc/u8x8_d_pcf8812.c **** 	{
 142:..\..\u8g2\csrc/u8x8_d_pcf8812.c **** 	  u8x8_cad_SendData(u8x8, 8, ptr);
 143:..\..\u8g2\csrc/u8x8_d_pcf8812.c **** 	  ptr += 8;
 144:..\..\u8g2\csrc/u8x8_d_pcf8812.c **** 	  c--;
ARM GAS  C:\Users\Greg\AppData\Local\Temp\ccYknPR0.s 			page 4


 145:..\..\u8g2\csrc/u8x8_d_pcf8812.c **** 	} while( c > 0 );
 146:..\..\u8g2\csrc/u8x8_d_pcf8812.c **** 	*/
 147:..\..\u8g2\csrc/u8x8_d_pcf8812.c **** 	arg_int--;
 148:..\..\u8g2\csrc/u8x8_d_pcf8812.c ****       } while( arg_int > 0 );
 149:..\..\u8g2\csrc/u8x8_d_pcf8812.c ****       
 150:..\..\u8g2\csrc/u8x8_d_pcf8812.c ****       u8x8_cad_EndTransfer(u8x8);
 151:..\..\u8g2\csrc/u8x8_d_pcf8812.c ****       break;
 152:..\..\u8g2\csrc/u8x8_d_pcf8812.c ****     default:
 153:..\..\u8g2\csrc/u8x8_d_pcf8812.c ****       return 0;
 154:..\..\u8g2\csrc/u8x8_d_pcf8812.c ****   }
 155:..\..\u8g2\csrc/u8x8_d_pcf8812.c ****   return 1;
 156:..\..\u8g2\csrc/u8x8_d_pcf8812.c **** }
 157:..\..\u8g2\csrc/u8x8_d_pcf8812.c **** 
 158:..\..\u8g2\csrc/u8x8_d_pcf8812.c **** 
 159:..\..\u8g2\csrc/u8x8_d_pcf8812.c **** static const u8x8_display_info_t u8x8_pcf8812_96x65_display_info =
 160:..\..\u8g2\csrc/u8x8_d_pcf8812.c **** {
 161:..\..\u8g2\csrc/u8x8_d_pcf8812.c ****   /* chip_enable_level = */ 0,
 162:..\..\u8g2\csrc/u8x8_d_pcf8812.c ****   /* chip_disable_level = */ 1,
 163:..\..\u8g2\csrc/u8x8_d_pcf8812.c ****   
 164:..\..\u8g2\csrc/u8x8_d_pcf8812.c ****   /* post_chip_enable_wait_ns = */ 100,
 165:..\..\u8g2\csrc/u8x8_d_pcf8812.c ****   /* pre_chip_disable_wait_ns = */ 100,
 166:..\..\u8g2\csrc/u8x8_d_pcf8812.c ****   /* reset_pulse_width_ms = */ 100, 
 167:..\..\u8g2\csrc/u8x8_d_pcf8812.c ****   /* post_reset_wait_ms = */ 100, 
 168:..\..\u8g2\csrc/u8x8_d_pcf8812.c ****   /* sda_setup_time_ns = */ 100,	
 169:..\..\u8g2\csrc/u8x8_d_pcf8812.c ****   /* sck_pulse_width_ns = */ 100,	
 170:..\..\u8g2\csrc/u8x8_d_pcf8812.c ****   /* sck_clock_hz = */ 4000000UL,	/* since Arduino 1.6.0, the SPI bus speed in Hz. Should be  10000
 171:..\..\u8g2\csrc/u8x8_d_pcf8812.c ****   /* spi_mode = */ 0,		/* active high, rising edge */
 172:..\..\u8g2\csrc/u8x8_d_pcf8812.c ****   /* i2c_bus_clock_100kHz = */ 4,
 173:..\..\u8g2\csrc/u8x8_d_pcf8812.c ****   /* data_setup_time_ns = */ 40,
 174:..\..\u8g2\csrc/u8x8_d_pcf8812.c ****   /* write_pulse_width_ns = */ 150,	
 175:..\..\u8g2\csrc/u8x8_d_pcf8812.c ****   /* tile_width = */ 12,
 176:..\..\u8g2\csrc/u8x8_d_pcf8812.c ****   /* tile_hight = */ 9,
 177:..\..\u8g2\csrc/u8x8_d_pcf8812.c ****   /* default_x_offset = */ 0,
 178:..\..\u8g2\csrc/u8x8_d_pcf8812.c ****   /* flipmode_x_offset = */ 0,
 179:..\..\u8g2\csrc/u8x8_d_pcf8812.c ****   /* pixel_width = */ 96,
 180:..\..\u8g2\csrc/u8x8_d_pcf8812.c ****   /* pixel_height = */ 65
 181:..\..\u8g2\csrc/u8x8_d_pcf8812.c **** };
 182:..\..\u8g2\csrc/u8x8_d_pcf8812.c **** 
 183:..\..\u8g2\csrc/u8x8_d_pcf8812.c **** uint8_t u8x8_d_pcf8812_96x65(u8x8_t *u8x8, uint8_t msg, uint8_t arg_int, void *arg_ptr)
 184:..\..\u8g2\csrc/u8x8_d_pcf8812.c **** {
  28              		.loc 1 184 0
  29              		.cfi_startproc
  30              		@ args = 0, pretend = 0, frame = 0
  31              		@ frame_needed = 0, uses_anonymous_args = 0
  32              	.LVL0:
  33 0000 F8B5     		push	{r3, r4, r5, r6, r7, lr}
  34              		.cfi_def_cfa_offset 24
  35              		.cfi_offset 3, -24
  36              		.cfi_offset 4, -20
  37              		.cfi_offset 5, -16
  38              		.cfi_offset 6, -12
  39              		.cfi_offset 7, -8
  40              		.cfi_offset 14, -4
  41              		.loc 1 184 0
  42 0002 0400     		movs	r4, r0
  43 0004 1500     		movs	r5, r2
  44 0006 1E00     		movs	r6, r3
ARM GAS  C:\Users\Greg\AppData\Local\Temp\ccYknPR0.s 			page 5


 185:..\..\u8g2\csrc/u8x8_d_pcf8812.c ****     if ( msg == U8X8_MSG_DISPLAY_SETUP_MEMORY )
  45              		.loc 1 185 0
  46 0008 0929     		cmp	r1, #9
  47 000a 03D1     		bne	.L2
 186:..\..\u8g2\csrc/u8x8_d_pcf8812.c ****     {
 187:..\..\u8g2\csrc/u8x8_d_pcf8812.c ****       u8x8_d_helper_display_setup_memory(u8x8, &u8x8_pcf8812_96x65_display_info);
  48              		.loc 1 187 0
  49 000c 2949     		ldr	r1, .L17
  50              	.LVL1:
  51 000e FFF7FEFF 		bl	u8x8_d_helper_display_setup_memory
  52              	.LVL2:
  53 0012 4BE0     		b	.L14
  54              	.LVL3:
  55              	.L2:
  56              	.LBB4:
  57              	.LBB5:
  85:..\..\u8g2\csrc/u8x8_d_pcf8812.c ****   {
  58              		.loc 1 85 0
  59 0014 0A39     		subs	r1, r1, #10
  60              	.LVL4:
  61 0016 0800     		movs	r0, r1
  62              	.LVL5:
  63 0018 0529     		cmp	r1, #5
  64 001a 49D8     		bhi	.L11
  65 001c FFF7FEFF 		bl	__gnu_thumb1_case_uqi
  66              	.L5:
  67 0020 03       		.byte	(.L4-.L5)/2
  68 0021 09       		.byte	(.L6-.L5)/2
  69 0022 48       		.byte	(.L11-.L5)/2
  70 0023 48       		.byte	(.L11-.L5)/2
  71 0024 13       		.byte	(.L7-.L5)/2
  72 0025 21       		.byte	(.L8-.L5)/2
  73              		.p2align 1
  74              	.L4:
  93:..\..\u8g2\csrc/u8x8_d_pcf8812.c ****       u8x8_cad_SendSequence(u8x8, u8x8_d_pcf8812_96x65_init_seq);    
  75              		.loc 1 93 0
  76 0026 2000     		movs	r0, r4
  77 0028 FFF7FEFF 		bl	u8x8_d_helper_display_init
  78              	.LVL6:
  94:..\..\u8g2\csrc/u8x8_d_pcf8812.c ****       break;
  79              		.loc 1 94 0
  80 002c 2149     		ldr	r1, .L17
  81 002e 1831     		adds	r1, r1, #24
  82 0030 05E0     		b	.L15
  83              	.LVL7:
  84              	.L6:
  85 0032 2049     		ldr	r1, .L17
  97:..\..\u8g2\csrc/u8x8_d_pcf8812.c **** 	u8x8_cad_SendSequence(u8x8, u8x8_d_pcf8812_96x65_powersave0_seq);
  86              		.loc 1 97 0
  87 0034 002A     		cmp	r2, #0
  88 0036 01D1     		bne	.L9
  98:..\..\u8g2\csrc/u8x8_d_pcf8812.c ****       else
  89              		.loc 1 98 0
  90 0038 2931     		adds	r1, r1, #41
  91 003a 00E0     		b	.L15
  92              	.L9:
 100:..\..\u8g2\csrc/u8x8_d_pcf8812.c ****       break;
ARM GAS  C:\Users\Greg\AppData\Local\Temp\ccYknPR0.s 			page 6


  93              		.loc 1 100 0
  94 003c 3031     		adds	r1, r1, #48
  95              	.LVL8:
  96              	.L15:
  97 003e 2000     		movs	r0, r4
  98 0040 FFF7FEFF 		bl	u8x8_cad_SendSequence
  99              	.LVL9:
 100 0044 32E0     		b	.L14
 101              	.LVL10:
 102              	.L7:
 118:..\..\u8g2\csrc/u8x8_d_pcf8812.c ****       u8x8_cad_SendCmd(u8x8, 0x021 );    /* command mode, extended function set */
 103              		.loc 1 118 0
 104 0046 2000     		movs	r0, r4
 105 0048 FFF7FEFF 		bl	u8x8_cad_StartTransfer
 106              	.LVL11:
 119:..\..\u8g2\csrc/u8x8_d_pcf8812.c ****       u8x8_cad_SendArg(u8x8, (arg_int>>1)|0x80 );	/* 0..127 for contrast */
 107              		.loc 1 119 0
 108 004c 2121     		movs	r1, #33
 109 004e 2000     		movs	r0, r4
 110 0050 FFF7FEFF 		bl	u8x8_cad_SendCmd
 111              	.LVL12:
 120:..\..\u8g2\csrc/u8x8_d_pcf8812.c ****       u8x8_cad_EndTransfer(u8x8);
 112              		.loc 1 120 0
 113 0054 8023     		movs	r3, #128
 114 0056 6908     		lsrs	r1, r5, #1
 115 0058 1943     		orrs	r1, r3
 116 005a 2000     		movs	r0, r4
 117 005c FFF7FEFF 		bl	u8x8_cad_SendArg
 118              	.LVL13:
 119 0060 21E0     		b	.L13
 120              	.LVL14:
 121              	.L8:
 125:..\..\u8g2\csrc/u8x8_d_pcf8812.c ****       x = ((u8x8_tile_t *)arg_ptr)->x_pos;    
 122              		.loc 1 125 0
 123 0062 2000     		movs	r0, r4
 124 0064 FFF7FEFF 		bl	u8x8_cad_StartTransfer
 125              	.LVL15:
 126:..\..\u8g2\csrc/u8x8_d_pcf8812.c ****       x *= 8;
 126              		.loc 1 126 0
 127 0068 7779     		ldrb	r7, [r6, #5]
 128              	.LVL16:
 128:..\..\u8g2\csrc/u8x8_d_pcf8812.c ****     
 129              		.loc 1 128 0
 130 006a A37F     		ldrb	r3, [r4, #30]
 130:..\..\u8g2\csrc/u8x8_d_pcf8812.c ****       u8x8_cad_SendCmd(u8x8, 0x080 | x);
 131              		.loc 1 130 0
 132 006c 2021     		movs	r1, #32
 127:..\..\u8g2\csrc/u8x8_d_pcf8812.c ****       x += u8x8->x_offset;
 133              		.loc 1 127 0
 134 006e FF00     		lsls	r7, r7, #3
 135              	.LVL17:
 130:..\..\u8g2\csrc/u8x8_d_pcf8812.c ****       u8x8_cad_SendCmd(u8x8, 0x080 | x);
 136              		.loc 1 130 0
 137 0070 2000     		movs	r0, r4
 128:..\..\u8g2\csrc/u8x8_d_pcf8812.c ****     
 138              		.loc 1 128 0
 139 0072 FF18     		adds	r7, r7, r3
ARM GAS  C:\Users\Greg\AppData\Local\Temp\ccYknPR0.s 			page 7


 140              	.LVL18:
 130:..\..\u8g2\csrc/u8x8_d_pcf8812.c ****       u8x8_cad_SendCmd(u8x8, 0x080 | x);
 141              		.loc 1 130 0
 142 0074 FFF7FEFF 		bl	u8x8_cad_SendCmd
 143              	.LVL19:
 131:..\..\u8g2\csrc/u8x8_d_pcf8812.c ****       u8x8_cad_SendCmd(u8x8, 0x040 | ((u8x8_tile_t *)arg_ptr)->y_pos);
 144              		.loc 1 131 0
 145 0078 8021     		movs	r1, #128
 128:..\..\u8g2\csrc/u8x8_d_pcf8812.c ****     
 146              		.loc 1 128 0
 147 007a FFB2     		uxtb	r7, r7
 148              	.LVL20:
 131:..\..\u8g2\csrc/u8x8_d_pcf8812.c ****       u8x8_cad_SendCmd(u8x8, 0x040 | ((u8x8_tile_t *)arg_ptr)->y_pos);
 149              		.loc 1 131 0
 150 007c 3943     		orrs	r1, r7
 151 007e 2000     		movs	r0, r4
 152 0080 FFF7FEFF 		bl	u8x8_cad_SendCmd
 153              	.LVL21:
 132:..\..\u8g2\csrc/u8x8_d_pcf8812.c ****       
 154              		.loc 1 132 0
 155 0084 4021     		movs	r1, #64
 156 0086 B379     		ldrb	r3, [r6, #6]
 157 0088 2000     		movs	r0, r4
 158 008a 1943     		orrs	r1, r3
 159 008c FFF7FEFF 		bl	u8x8_cad_SendCmd
 160              	.LVL22:
 161              	.L10:
 138:..\..\u8g2\csrc/u8x8_d_pcf8812.c **** 	/*
 162              		.loc 1 138 0
 163 0090 3179     		ldrb	r1, [r6, #4]
 147:..\..\u8g2\csrc/u8x8_d_pcf8812.c ****       } while( arg_int > 0 );
 164              		.loc 1 147 0
 165 0092 013D     		subs	r5, r5, #1
 166              	.LVL23:
 138:..\..\u8g2\csrc/u8x8_d_pcf8812.c **** 	/*
 167              		.loc 1 138 0
 168 0094 C900     		lsls	r1, r1, #3
 169 0096 C9B2     		uxtb	r1, r1
 170 0098 3268     		ldr	r2, [r6]
 171 009a 2000     		movs	r0, r4
 147:..\..\u8g2\csrc/u8x8_d_pcf8812.c ****       } while( arg_int > 0 );
 172              		.loc 1 147 0
 173 009c EDB2     		uxtb	r5, r5
 138:..\..\u8g2\csrc/u8x8_d_pcf8812.c **** 	/*
 174              		.loc 1 138 0
 175 009e FFF7FEFF 		bl	u8x8_cad_SendData
 176              	.LVL24:
 148:..\..\u8g2\csrc/u8x8_d_pcf8812.c ****       
 177              		.loc 1 148 0
 178 00a2 002D     		cmp	r5, #0
 179 00a4 F4D1     		bne	.L10
 180              	.LVL25:
 181              	.L13:
 150:..\..\u8g2\csrc/u8x8_d_pcf8812.c ****       break;
 182              		.loc 1 150 0
 183 00a6 2000     		movs	r0, r4
 184 00a8 FFF7FEFF 		bl	u8x8_cad_EndTransfer
ARM GAS  C:\Users\Greg\AppData\Local\Temp\ccYknPR0.s 			page 8


 185              	.LVL26:
 186              	.L14:
 155:..\..\u8g2\csrc/u8x8_d_pcf8812.c **** }
 187              		.loc 1 155 0
 188 00ac 0120     		movs	r0, #1
 189 00ae 00E0     		b	.L3
 190              	.LVL27:
 191              	.L11:
 153:..\..\u8g2\csrc/u8x8_d_pcf8812.c ****   }
 192              		.loc 1 153 0
 193 00b0 0020     		movs	r0, #0
 194              	.LVL28:
 195              	.L3:
 196              	.LBE5:
 197              	.LBE4:
 188:..\..\u8g2\csrc/u8x8_d_pcf8812.c ****       return 1;
 189:..\..\u8g2\csrc/u8x8_d_pcf8812.c ****     }
 190:..\..\u8g2\csrc/u8x8_d_pcf8812.c ****     return u8x8_d_pcf8812_96x65_generic(u8x8, msg, arg_int, arg_ptr);
 191:..\..\u8g2\csrc/u8x8_d_pcf8812.c **** }
 198              		.loc 1 191 0
 199              		@ sp needed
 200              	.LVL29:
 201              	.LVL30:
 202 00b2 F8BD     		pop	{r3, r4, r5, r6, r7, pc}
 203              	.L18:
 204              		.align	2
 205              	.L17:
 206 00b4 00000000 		.word	.LANCHOR0
 207              		.cfi_endproc
 208              	.LFE1:
 209              		.size	u8x8_d_pcf8812_96x65, .-u8x8_d_pcf8812_96x65
 210              		.section	.rodata
 211              		.align	2
 212              		.set	.LANCHOR0,. + 0
 213              		.type	u8x8_pcf8812_96x65_display_info, %object
 214              		.size	u8x8_pcf8812_96x65_display_info, 24
 215              	u8x8_pcf8812_96x65_display_info:
 216 0000 00       		.byte	0
 217 0001 01       		.byte	1
 218 0002 64       		.byte	100
 219 0003 64       		.byte	100
 220 0004 64       		.byte	100
 221 0005 64       		.byte	100
 222 0006 64       		.byte	100
 223 0007 64       		.byte	100
 224 0008 00093D00 		.word	4000000
 225 000c 00       		.byte	0
 226 000d 04       		.byte	4
 227 000e 28       		.byte	40
 228 000f 96       		.byte	-106
 229 0010 0C       		.byte	12
 230 0011 09       		.byte	9
 231 0012 00       		.byte	0
 232 0013 00       		.byte	0
 233 0014 6000     		.short	96
 234 0016 4100     		.short	65
 235              		.type	u8x8_d_pcf8812_96x65_init_seq, %object
ARM GAS  C:\Users\Greg\AppData\Local\Temp\ccYknPR0.s 			page 9


 236              		.size	u8x8_d_pcf8812_96x65_init_seq, 17
 237              	u8x8_d_pcf8812_96x65_init_seq:
 238 0018 18       		.byte	24
 239 0019 15       		.byte	21
 240 001a 20       		.byte	32
 241 001b 15       		.byte	21
 242 001c 08       		.byte	8
 243 001d 15       		.byte	21
 244 001e 21       		.byte	33
 245 001f 15       		.byte	21
 246 0020 06       		.byte	6
 247 0021 15       		.byte	21
 248 0022 13       		.byte	19
 249 0023 15       		.byte	21
 250 0024 9F       		.byte	-97
 251 0025 15       		.byte	21
 252 0026 24       		.byte	36
 253 0027 19       		.byte	25
 254 0028 FF       		.byte	-1
 255              		.type	u8x8_d_pcf8812_96x65_powersave0_seq, %object
 256              		.size	u8x8_d_pcf8812_96x65_powersave0_seq, 7
 257              	u8x8_d_pcf8812_96x65_powersave0_seq:
 258 0029 18       		.byte	24
 259 002a 15       		.byte	21
 260 002b 20       		.byte	32
 261 002c 15       		.byte	21
 262 002d 0C       		.byte	12
 263 002e 19       		.byte	25
 264 002f FF       		.byte	-1
 265              		.type	u8x8_d_pcf8812_96x65_powersave1_seq, %object
 266              		.size	u8x8_d_pcf8812_96x65_powersave1_seq, 9
 267              	u8x8_d_pcf8812_96x65_powersave1_seq:
 268 0030 18       		.byte	24
 269 0031 15       		.byte	21
 270 0032 20       		.byte	32
 271 0033 15       		.byte	21
 272 0034 08       		.byte	8
 273 0035 15       		.byte	21
 274 0036 24       		.byte	36
 275 0037 19       		.byte	25
 276 0038 FF       		.byte	-1
 277              		.text
 278              	.Letext0:
 279              		.file 2 "c:\\program files\\cypress\\psoc creator\\4.1\\psoc creator\\import\\gnu\\arm\\5.4.1\\arm
 280              		.file 3 "c:\\program files\\cypress\\psoc creator\\4.1\\psoc creator\\import\\gnu\\arm\\5.4.1\\arm
 281              		.file 4 "..\\..\\u8g2\\csrc\\u8x8.h"