ARM GAS  C:\Users\Alan\AppData\Local\Temp\ccjGUbt8.s 			page 1


   1              		.syntax unified
   2              		.cpu cortex-m0
   3              		.fpu softvfp
   4              		.eabi_attribute 20, 1
   5              		.eabi_attribute 21, 1
   6              		.eabi_attribute 23, 3
   7              		.eabi_attribute 24, 1
   8              		.eabi_attribute 25, 1
   9              		.eabi_attribute 26, 1
  10              		.eabi_attribute 30, 4
  11              		.eabi_attribute 34, 0
  12              		.eabi_attribute 18, 4
  13              		.thumb
  14              		.syntax unified
  15              		.file	"u8x8_d_ssd1305.c"
  16              		.text
  17              	.Ltext0:
  18              		.cfi_sections	.debug_frame
  19              		.section	.text.u8x8_d_ssd1305_128x32_noname,"ax",%progbits
  20              		.align	1
  21              		.global	u8x8_d_ssd1305_128x32_noname
  22              		.code	16
  23              		.thumb_func
  24              		.type	u8x8_d_ssd1305_128x32_noname, %function
  25              	u8x8_d_ssd1305_128x32_noname:
  26              	.LFB1:
  27              		.file 1 "..\\..\\u8g2\\csrc\\u8x8_d_ssd1305.c"
   1:..\..\u8g2\csrc/u8x8_d_ssd1305.c **** /*
   2:..\..\u8g2\csrc/u8x8_d_ssd1305.c **** 
   3:..\..\u8g2\csrc/u8x8_d_ssd1305.c ****   u8x8_d_ssd1305.c
   4:..\..\u8g2\csrc/u8x8_d_ssd1305.c **** 
   5:..\..\u8g2\csrc/u8x8_d_ssd1305.c ****   Universal 8bit Graphics Library (https://github.com/olikraus/u8g2/)
   6:..\..\u8g2\csrc/u8x8_d_ssd1305.c **** 
   7:..\..\u8g2\csrc/u8x8_d_ssd1305.c ****   Copyright (c) 2017, olikraus@gmail.com
   8:..\..\u8g2\csrc/u8x8_d_ssd1305.c ****   All rights reserved.
   9:..\..\u8g2\csrc/u8x8_d_ssd1305.c **** 
  10:..\..\u8g2\csrc/u8x8_d_ssd1305.c ****   Redistribution and use in source and binary forms, with or without modification, 
  11:..\..\u8g2\csrc/u8x8_d_ssd1305.c ****   are permitted provided that the following conditions are met:
  12:..\..\u8g2\csrc/u8x8_d_ssd1305.c **** 
  13:..\..\u8g2\csrc/u8x8_d_ssd1305.c ****   * Redistributions of source code must retain the above copyright notice, this list 
  14:..\..\u8g2\csrc/u8x8_d_ssd1305.c ****     of conditions and the following disclaimer.
  15:..\..\u8g2\csrc/u8x8_d_ssd1305.c ****     
  16:..\..\u8g2\csrc/u8x8_d_ssd1305.c ****   * Redistributions in binary form must reproduce the above copyright notice, this 
  17:..\..\u8g2\csrc/u8x8_d_ssd1305.c ****     list of conditions and the following disclaimer in the documentation and/or other 
  18:..\..\u8g2\csrc/u8x8_d_ssd1305.c ****     materials provided with the distribution.
  19:..\..\u8g2\csrc/u8x8_d_ssd1305.c **** 
  20:..\..\u8g2\csrc/u8x8_d_ssd1305.c ****   THIS SOFTWARE IS PROVIDED BY THE COPYRIGHT HOLDERS AND 
  21:..\..\u8g2\csrc/u8x8_d_ssd1305.c ****   CONTRIBUTORS "AS IS" AND ANY EXPRESS OR IMPLIED WARRANTIES, 
  22:..\..\u8g2\csrc/u8x8_d_ssd1305.c ****   INCLUDING, BUT NOT LIMITED TO, THE IMPLIED WARRANTIES OF 
  23:..\..\u8g2\csrc/u8x8_d_ssd1305.c ****   MERCHANTABILITY AND FITNESS FOR A PARTICULAR PURPOSE ARE 
  24:..\..\u8g2\csrc/u8x8_d_ssd1305.c ****   DISCLAIMED. IN NO EVENT SHALL THE COPYRIGHT HOLDER OR 
  25:..\..\u8g2\csrc/u8x8_d_ssd1305.c ****   CONTRIBUTORS BE LIABLE FOR ANY DIRECT, INDIRECT, INCIDENTAL, 
  26:..\..\u8g2\csrc/u8x8_d_ssd1305.c ****   SPECIAL, EXEMPLARY, OR CONSEQUENTIAL DAMAGES (INCLUDING, BUT 
  27:..\..\u8g2\csrc/u8x8_d_ssd1305.c ****   NOT LIMITED TO, PROCUREMENT OF SUBSTITUTE GOODS OR SERVICES; 
  28:..\..\u8g2\csrc/u8x8_d_ssd1305.c ****   LOSS OF USE, DATA, OR PROFITS; OR BUSINESS INTERRUPTION) HOWEVER 
  29:..\..\u8g2\csrc/u8x8_d_ssd1305.c ****   CAUSED AND ON ANY THEORY OF LIABILITY, WHETHER IN CONTRACT, 
  30:..\..\u8g2\csrc/u8x8_d_ssd1305.c ****   STRICT LIABILITY, OR TORT (INCLUDING NEGLIGENCE OR OTHERWISE) 
ARM GAS  C:\Users\Alan\AppData\Local\Temp\ccjGUbt8.s 			page 2


  31:..\..\u8g2\csrc/u8x8_d_ssd1305.c ****   ARISING IN ANY WAY OUT OF THE USE OF THIS SOFTWARE, EVEN IF 
  32:..\..\u8g2\csrc/u8x8_d_ssd1305.c ****   ADVISED OF THE POSSIBILITY OF SUCH DAMAGE.  
  33:..\..\u8g2\csrc/u8x8_d_ssd1305.c ****   
  34:..\..\u8g2\csrc/u8x8_d_ssd1305.c **** */
  35:..\..\u8g2\csrc/u8x8_d_ssd1305.c **** 
  36:..\..\u8g2\csrc/u8x8_d_ssd1305.c **** 
  37:..\..\u8g2\csrc/u8x8_d_ssd1305.c **** #include "u8x8.h"
  38:..\..\u8g2\csrc/u8x8_d_ssd1305.c **** 
  39:..\..\u8g2\csrc/u8x8_d_ssd1305.c **** 
  40:..\..\u8g2\csrc/u8x8_d_ssd1305.c **** 
  41:..\..\u8g2\csrc/u8x8_d_ssd1305.c **** 
  42:..\..\u8g2\csrc/u8x8_d_ssd1305.c **** static const uint8_t u8x8_d_ssd1305_powersave0_seq[] = {
  43:..\..\u8g2\csrc/u8x8_d_ssd1305.c ****   U8X8_START_TRANSFER(),             	/* enable chip, delay is part of the transfer start */
  44:..\..\u8g2\csrc/u8x8_d_ssd1305.c ****   U8X8_C(0x0af),		                /* display on */
  45:..\..\u8g2\csrc/u8x8_d_ssd1305.c ****   U8X8_END_TRANSFER(),             	/* disable chip */
  46:..\..\u8g2\csrc/u8x8_d_ssd1305.c ****   U8X8_END()             			/* end of sequence */
  47:..\..\u8g2\csrc/u8x8_d_ssd1305.c **** };
  48:..\..\u8g2\csrc/u8x8_d_ssd1305.c **** 
  49:..\..\u8g2\csrc/u8x8_d_ssd1305.c **** static const uint8_t u8x8_d_ssd1305_powersave1_seq[] = {
  50:..\..\u8g2\csrc/u8x8_d_ssd1305.c ****   U8X8_START_TRANSFER(),             	/* enable chip, delay is part of the transfer start */
  51:..\..\u8g2\csrc/u8x8_d_ssd1305.c ****   U8X8_C(0x0ae),		                /* display off */
  52:..\..\u8g2\csrc/u8x8_d_ssd1305.c ****   U8X8_END_TRANSFER(),             	/* disable chip */
  53:..\..\u8g2\csrc/u8x8_d_ssd1305.c ****   U8X8_END()             			/* end of sequence */
  54:..\..\u8g2\csrc/u8x8_d_ssd1305.c **** };
  55:..\..\u8g2\csrc/u8x8_d_ssd1305.c **** 
  56:..\..\u8g2\csrc/u8x8_d_ssd1305.c **** static const uint8_t u8x8_d_ssd1305_128x32_flip0_seq[] = {
  57:..\..\u8g2\csrc/u8x8_d_ssd1305.c ****   U8X8_START_TRANSFER(),             	/* enable chip, delay is part of the transfer start */
  58:..\..\u8g2\csrc/u8x8_d_ssd1305.c ****   U8X8_CA(0x0d3, 32),			/* display offset to 32 */
  59:..\..\u8g2\csrc/u8x8_d_ssd1305.c ****   U8X8_C(0x0a1),				/* segment remap a0/a1*/
  60:..\..\u8g2\csrc/u8x8_d_ssd1305.c ****   U8X8_C(0x0c8),				/* c0: scan dir normal, c8: reverse */
  61:..\..\u8g2\csrc/u8x8_d_ssd1305.c ****   U8X8_END_TRANSFER(),             	/* disable chip */
  62:..\..\u8g2\csrc/u8x8_d_ssd1305.c ****   U8X8_END()             			/* end of sequence */
  63:..\..\u8g2\csrc/u8x8_d_ssd1305.c **** };
  64:..\..\u8g2\csrc/u8x8_d_ssd1305.c **** 
  65:..\..\u8g2\csrc/u8x8_d_ssd1305.c **** static const uint8_t u8x8_d_ssd1305_128x32_flip1_seq[] = {
  66:..\..\u8g2\csrc/u8x8_d_ssd1305.c ****   U8X8_START_TRANSFER(),             	/* enable chip, delay is part of the transfer start */
  67:..\..\u8g2\csrc/u8x8_d_ssd1305.c ****   U8X8_CA(0x0d3, 0),			/* display offset to  */
  68:..\..\u8g2\csrc/u8x8_d_ssd1305.c ****   U8X8_C(0x0a0),				/* segment remap a0/a1*/
  69:..\..\u8g2\csrc/u8x8_d_ssd1305.c ****   U8X8_C(0x0c0),				/* c0: scan dir normal, c8: reverse */
  70:..\..\u8g2\csrc/u8x8_d_ssd1305.c ****   U8X8_END_TRANSFER(),             	/* disable chip */
  71:..\..\u8g2\csrc/u8x8_d_ssd1305.c ****   U8X8_END()             			/* end of sequence */
  72:..\..\u8g2\csrc/u8x8_d_ssd1305.c **** };
  73:..\..\u8g2\csrc/u8x8_d_ssd1305.c **** 
  74:..\..\u8g2\csrc/u8x8_d_ssd1305.c **** 
  75:..\..\u8g2\csrc/u8x8_d_ssd1305.c **** 
  76:..\..\u8g2\csrc/u8x8_d_ssd1305.c **** static uint8_t u8x8_d_ssd1305_generic(u8x8_t *u8x8, uint8_t msg, uint8_t arg_int, void *arg_ptr)
  77:..\..\u8g2\csrc/u8x8_d_ssd1305.c **** {
  78:..\..\u8g2\csrc/u8x8_d_ssd1305.c ****   uint8_t x, c;
  79:..\..\u8g2\csrc/u8x8_d_ssd1305.c ****   uint8_t *ptr;
  80:..\..\u8g2\csrc/u8x8_d_ssd1305.c ****   switch(msg)
  81:..\..\u8g2\csrc/u8x8_d_ssd1305.c ****   {
  82:..\..\u8g2\csrc/u8x8_d_ssd1305.c ****     case U8X8_MSG_DISPLAY_DRAW_TILE:
  83:..\..\u8g2\csrc/u8x8_d_ssd1305.c ****       u8x8_cad_StartTransfer(u8x8);
  84:..\..\u8g2\csrc/u8x8_d_ssd1305.c ****       x = ((u8x8_tile_t *)arg_ptr)->x_pos;    
  85:..\..\u8g2\csrc/u8x8_d_ssd1305.c ****       x *= 8;
  86:..\..\u8g2\csrc/u8x8_d_ssd1305.c ****       x += u8x8->x_offset;
  87:..\..\u8g2\csrc/u8x8_d_ssd1305.c ****     
ARM GAS  C:\Users\Alan\AppData\Local\Temp\ccjGUbt8.s 			page 3


  88:..\..\u8g2\csrc/u8x8_d_ssd1305.c ****       u8x8_cad_SendCmd(u8x8, 0x040 );	/* set line offset to 0 */
  89:..\..\u8g2\csrc/u8x8_d_ssd1305.c ****     
  90:..\..\u8g2\csrc/u8x8_d_ssd1305.c ****       u8x8_cad_SendCmd(u8x8, 0x010 | (x>>4) );
  91:..\..\u8g2\csrc/u8x8_d_ssd1305.c ****       u8x8_cad_SendArg(u8x8, 0x000 | ((x&15)));
  92:..\..\u8g2\csrc/u8x8_d_ssd1305.c ****       u8x8_cad_SendArg(u8x8, 0x0b0 | (((u8x8_tile_t *)arg_ptr)->y_pos)   );
  93:..\..\u8g2\csrc/u8x8_d_ssd1305.c **** 
  94:..\..\u8g2\csrc/u8x8_d_ssd1305.c ****     
  95:..\..\u8g2\csrc/u8x8_d_ssd1305.c ****       do
  96:..\..\u8g2\csrc/u8x8_d_ssd1305.c ****       {
  97:..\..\u8g2\csrc/u8x8_d_ssd1305.c **** 	c = ((u8x8_tile_t *)arg_ptr)->cnt;
  98:..\..\u8g2\csrc/u8x8_d_ssd1305.c **** 	ptr = ((u8x8_tile_t *)arg_ptr)->tile_ptr;
  99:..\..\u8g2\csrc/u8x8_d_ssd1305.c **** 	u8x8_cad_SendData(u8x8, c*8, ptr); 	/* note: SendData can not handle more than 255 bytes */
 100:..\..\u8g2\csrc/u8x8_d_ssd1305.c **** 	/*
 101:..\..\u8g2\csrc/u8x8_d_ssd1305.c **** 	do
 102:..\..\u8g2\csrc/u8x8_d_ssd1305.c **** 	{
 103:..\..\u8g2\csrc/u8x8_d_ssd1305.c **** 	  u8x8_cad_SendData(u8x8, 8, ptr);
 104:..\..\u8g2\csrc/u8x8_d_ssd1305.c **** 	  ptr += 8;
 105:..\..\u8g2\csrc/u8x8_d_ssd1305.c **** 	  c--;
 106:..\..\u8g2\csrc/u8x8_d_ssd1305.c **** 	} while( c > 0 );
 107:..\..\u8g2\csrc/u8x8_d_ssd1305.c **** 	*/
 108:..\..\u8g2\csrc/u8x8_d_ssd1305.c **** 	arg_int--;
 109:..\..\u8g2\csrc/u8x8_d_ssd1305.c ****       } while( arg_int > 0 );
 110:..\..\u8g2\csrc/u8x8_d_ssd1305.c ****       
 111:..\..\u8g2\csrc/u8x8_d_ssd1305.c ****       u8x8_cad_EndTransfer(u8x8);
 112:..\..\u8g2\csrc/u8x8_d_ssd1305.c ****       break;
 113:..\..\u8g2\csrc/u8x8_d_ssd1305.c ****     case U8X8_MSG_DISPLAY_SET_POWER_SAVE:
 114:..\..\u8g2\csrc/u8x8_d_ssd1305.c ****       if ( arg_int == 0 )
 115:..\..\u8g2\csrc/u8x8_d_ssd1305.c **** 	u8x8_cad_SendSequence(u8x8, u8x8_d_ssd1305_powersave0_seq);
 116:..\..\u8g2\csrc/u8x8_d_ssd1305.c ****       else
 117:..\..\u8g2\csrc/u8x8_d_ssd1305.c **** 	u8x8_cad_SendSequence(u8x8, u8x8_d_ssd1305_powersave1_seq);
 118:..\..\u8g2\csrc/u8x8_d_ssd1305.c ****       break;
 119:..\..\u8g2\csrc/u8x8_d_ssd1305.c **** #ifdef U8X8_WITH_SET_CONTRAST
 120:..\..\u8g2\csrc/u8x8_d_ssd1305.c ****     case U8X8_MSG_DISPLAY_SET_CONTRAST:
 121:..\..\u8g2\csrc/u8x8_d_ssd1305.c ****       u8x8_cad_StartTransfer(u8x8);
 122:..\..\u8g2\csrc/u8x8_d_ssd1305.c ****       u8x8_cad_SendCmd(u8x8, 0x081 );
 123:..\..\u8g2\csrc/u8x8_d_ssd1305.c ****       u8x8_cad_SendArg(u8x8, arg_int );	/* ssd1305 has range from 0 to 255 */
 124:..\..\u8g2\csrc/u8x8_d_ssd1305.c ****       u8x8_cad_EndTransfer(u8x8);
 125:..\..\u8g2\csrc/u8x8_d_ssd1305.c ****       break;
 126:..\..\u8g2\csrc/u8x8_d_ssd1305.c **** #endif
 127:..\..\u8g2\csrc/u8x8_d_ssd1305.c ****     default:
 128:..\..\u8g2\csrc/u8x8_d_ssd1305.c ****       return 0;
 129:..\..\u8g2\csrc/u8x8_d_ssd1305.c ****   }
 130:..\..\u8g2\csrc/u8x8_d_ssd1305.c ****   return 1;
 131:..\..\u8g2\csrc/u8x8_d_ssd1305.c **** }
 132:..\..\u8g2\csrc/u8x8_d_ssd1305.c **** 
 133:..\..\u8g2\csrc/u8x8_d_ssd1305.c **** /* timing from SSD1306 */
 134:..\..\u8g2\csrc/u8x8_d_ssd1305.c **** static const u8x8_display_info_t u8x8_ssd1305_128x32_noname_display_info =
 135:..\..\u8g2\csrc/u8x8_d_ssd1305.c **** {
 136:..\..\u8g2\csrc/u8x8_d_ssd1305.c ****   /* chip_enable_level = */ 0,
 137:..\..\u8g2\csrc/u8x8_d_ssd1305.c ****   /* chip_disable_level = */ 1,
 138:..\..\u8g2\csrc/u8x8_d_ssd1305.c ****   
 139:..\..\u8g2\csrc/u8x8_d_ssd1305.c ****   /* post_chip_enable_wait_ns = */ 20,
 140:..\..\u8g2\csrc/u8x8_d_ssd1305.c ****   /* pre_chip_disable_wait_ns = */ 10,
 141:..\..\u8g2\csrc/u8x8_d_ssd1305.c ****   /* reset_pulse_width_ms = */ 100, 	/* SSD1306: 3 us */
 142:..\..\u8g2\csrc/u8x8_d_ssd1305.c ****   /* post_reset_wait_ms = */ 100, /* far east OLEDs need much longer setup time */
 143:..\..\u8g2\csrc/u8x8_d_ssd1305.c ****   /* sda_setup_time_ns = */ 50,		/* SSD1306: 15ns, but cycle time is 100ns, so use 100/2 */
 144:..\..\u8g2\csrc/u8x8_d_ssd1305.c ****   /* sck_pulse_width_ns = */ 50,	/* SSD1306: 20ns, but cycle time is 100ns, so use 100/2, AVR: belo
ARM GAS  C:\Users\Alan\AppData\Local\Temp\ccjGUbt8.s 			page 4


 145:..\..\u8g2\csrc/u8x8_d_ssd1305.c ****   /* sck_clock_hz = */ 4000000UL,	/* since Arduino 1.6.0, the SPI bus speed in Hz. Should be  10000
 146:..\..\u8g2\csrc/u8x8_d_ssd1305.c ****   /* spi_mode = */ 0,		/* active high, rising edge */
 147:..\..\u8g2\csrc/u8x8_d_ssd1305.c ****   /* i2c_bus_clock_100kHz = */ 4,
 148:..\..\u8g2\csrc/u8x8_d_ssd1305.c ****   /* data_setup_time_ns = */ 40,
 149:..\..\u8g2\csrc/u8x8_d_ssd1305.c ****   /* write_pulse_width_ns = */ 150,	/* SSD1306: cycle time is 300ns, so use 300/2 = 150 */
 150:..\..\u8g2\csrc/u8x8_d_ssd1305.c ****   /* tile_width = */ 16,
 151:..\..\u8g2\csrc/u8x8_d_ssd1305.c ****   /* tile_hight = */ 4,
 152:..\..\u8g2\csrc/u8x8_d_ssd1305.c ****   /* default_x_offset = */ 2,
 153:..\..\u8g2\csrc/u8x8_d_ssd1305.c ****   /* flipmode_x_offset = */ 2,
 154:..\..\u8g2\csrc/u8x8_d_ssd1305.c ****   /* pixel_width = */ 128,
 155:..\..\u8g2\csrc/u8x8_d_ssd1305.c ****   /* pixel_height = */ 32
 156:..\..\u8g2\csrc/u8x8_d_ssd1305.c **** };
 157:..\..\u8g2\csrc/u8x8_d_ssd1305.c **** 
 158:..\..\u8g2\csrc/u8x8_d_ssd1305.c **** 
 159:..\..\u8g2\csrc/u8x8_d_ssd1305.c **** static const uint8_t u8x8_d_ssd1305_128x32_noname_init_seq[] = {
 160:..\..\u8g2\csrc/u8x8_d_ssd1305.c ****     
 161:..\..\u8g2\csrc/u8x8_d_ssd1305.c ****   U8X8_START_TRANSFER(),             	/* enable chip, delay is part of the transfer start */
 162:..\..\u8g2\csrc/u8x8_d_ssd1305.c ****   
 163:..\..\u8g2\csrc/u8x8_d_ssd1305.c ****   
 164:..\..\u8g2\csrc/u8x8_d_ssd1305.c ****   U8X8_C(0x0ae),		                /* display off */
 165:..\..\u8g2\csrc/u8x8_d_ssd1305.c ****   U8X8_CA(0x0d5, 0x080),		/* clock divide ratio (0x00=1) and oscillator frequency (0x8) */
 166:..\..\u8g2\csrc/u8x8_d_ssd1305.c ****   U8X8_CA(0x0a8, 0x03f),		/* multiplex ratio */
 167:..\..\u8g2\csrc/u8x8_d_ssd1305.c ****   U8X8_CA(0x0d3, 32),			/* display offset to 32 */
 168:..\..\u8g2\csrc/u8x8_d_ssd1305.c ****   U8X8_C(0x040),		        	/* set display start line to 0 */
 169:..\..\u8g2\csrc/u8x8_d_ssd1305.c ****   U8X8_CA(0x020, 0x000),		/* page addressing mode */
 170:..\..\u8g2\csrc/u8x8_d_ssd1305.c ****   
 171:..\..\u8g2\csrc/u8x8_d_ssd1305.c ****   U8X8_C(0x0a1),				/* segment remap a0/a1*/
 172:..\..\u8g2\csrc/u8x8_d_ssd1305.c ****   U8X8_C(0x0c8),				/* c0: scan dir normal, c8: reverse */
 173:..\..\u8g2\csrc/u8x8_d_ssd1305.c ****   // Flipmode
 174:..\..\u8g2\csrc/u8x8_d_ssd1305.c ****   // U8X8_C(0x0a0),				/* segment remap a0/a1*/
 175:..\..\u8g2\csrc/u8x8_d_ssd1305.c ****   // U8X8_C(0x0c0),				/* c0: scan dir normal, c8: reverse */
 176:..\..\u8g2\csrc/u8x8_d_ssd1305.c ****   
 177:..\..\u8g2\csrc/u8x8_d_ssd1305.c ****   U8X8_CA(0x0da, 0x012),		/* com pin HW config, sequential com pin config (bit 4), disable left/rig
 178:..\..\u8g2\csrc/u8x8_d_ssd1305.c **** 
 179:..\..\u8g2\csrc/u8x8_d_ssd1305.c ****   U8X8_CA(0x081, 0x0cf), 		/* [2] set contrast control */
 180:..\..\u8g2\csrc/u8x8_d_ssd1305.c ****   U8X8_CA(0x0d9, 0x0f1), 		/* [2] pre-charge period 0x022/f1*/
 181:..\..\u8g2\csrc/u8x8_d_ssd1305.c ****   U8X8_CA(0x0db, 0x040), 		/* vcomh deselect level */  
 182:..\..\u8g2\csrc/u8x8_d_ssd1305.c ****   // if vcomh is 0, then this will give the biggest range for contrast control issue #98
 183:..\..\u8g2\csrc/u8x8_d_ssd1305.c ****   // restored the old values for the noname constructor, because vcomh=0 will not work for all OLED
 184:..\..\u8g2\csrc/u8x8_d_ssd1305.c ****   
 185:..\..\u8g2\csrc/u8x8_d_ssd1305.c ****   U8X8_C(0x02e),				/* Deactivate scroll */ 
 186:..\..\u8g2\csrc/u8x8_d_ssd1305.c ****   U8X8_C(0x0a4),				/* output ram to display */
 187:..\..\u8g2\csrc/u8x8_d_ssd1305.c ****   U8X8_C(0x0a6),				/* none inverted normal display mode */
 188:..\..\u8g2\csrc/u8x8_d_ssd1305.c ****     
 189:..\..\u8g2\csrc/u8x8_d_ssd1305.c ****   U8X8_END_TRANSFER(),             	/* disable chip */
 190:..\..\u8g2\csrc/u8x8_d_ssd1305.c ****   U8X8_END()             			/* end of sequence */
 191:..\..\u8g2\csrc/u8x8_d_ssd1305.c **** };
 192:..\..\u8g2\csrc/u8x8_d_ssd1305.c **** 
 193:..\..\u8g2\csrc/u8x8_d_ssd1305.c **** 
 194:..\..\u8g2\csrc/u8x8_d_ssd1305.c **** uint8_t u8x8_d_ssd1305_128x32_noname(u8x8_t *u8x8, uint8_t msg, uint8_t arg_int, void *arg_ptr)
 195:..\..\u8g2\csrc/u8x8_d_ssd1305.c **** {
  28              		.loc 1 195 0
  29              		.cfi_startproc
  30              		@ args = 0, pretend = 0, frame = 8
  31              		@ frame_needed = 0, uses_anonymous_args = 0
  32              	.LVL0:
  33 0000 F7B5     		push	{r0, r1, r2, r4, r5, r6, r7, lr}
ARM GAS  C:\Users\Alan\AppData\Local\Temp\ccjGUbt8.s 			page 5


  34              		.cfi_def_cfa_offset 32
  35              		.cfi_offset 0, -32
  36              		.cfi_offset 1, -28
  37              		.cfi_offset 2, -24
  38              		.cfi_offset 4, -20
  39              		.cfi_offset 5, -16
  40              		.cfi_offset 6, -12
  41              		.cfi_offset 7, -8
  42              		.cfi_offset 14, -4
  43              		.loc 1 195 0
  44 0002 0400     		movs	r4, r0
  45 0004 0E00     		movs	r6, r1
  46 0006 1500     		movs	r5, r2
  47 0008 1F00     		movs	r7, r3
  48              	.LVL1:
  49              	.LBB4:
  50              	.LBB5:
  80:..\..\u8g2\csrc/u8x8_d_ssd1305.c ****   {
  51              		.loc 1 80 0
  52 000a 0E29     		cmp	r1, #14
  53 000c 36D0     		beq	.L3
  54 000e 0F29     		cmp	r1, #15
  55 0010 02D0     		beq	.L4
  56 0012 0B29     		cmp	r1, #11
  57 0014 4ED1     		bne	.L16
  58 0016 29E0     		b	.L23
  59              	.L4:
  83:..\..\u8g2\csrc/u8x8_d_ssd1305.c ****       x = ((u8x8_tile_t *)arg_ptr)->x_pos;    
  60              		.loc 1 83 0
  61 0018 FFF7FEFF 		bl	u8x8_cad_StartTransfer
  62              	.LVL2:
  84:..\..\u8g2\csrc/u8x8_d_ssd1305.c ****       x *= 8;
  63              		.loc 1 84 0
  64 001c 7979     		ldrb	r1, [r7, #5]
  65              	.LVL3:
  86:..\..\u8g2\csrc/u8x8_d_ssd1305.c ****     
  66              		.loc 1 86 0
  67 001e A37F     		ldrb	r3, [r4, #30]
  85:..\..\u8g2\csrc/u8x8_d_ssd1305.c ****       x += u8x8->x_offset;
  68              		.loc 1 85 0
  69 0020 C900     		lsls	r1, r1, #3
  70              	.LVL4:
  86:..\..\u8g2\csrc/u8x8_d_ssd1305.c ****     
  71              		.loc 1 86 0
  72 0022 C918     		adds	r1, r1, r3
  73              	.LVL5:
  74 0024 CBB2     		uxtb	r3, r1
  88:..\..\u8g2\csrc/u8x8_d_ssd1305.c ****     
  75              		.loc 1 88 0
  76 0026 2000     		movs	r0, r4
  77 0028 4021     		movs	r1, #64
  86:..\..\u8g2\csrc/u8x8_d_ssd1305.c ****     
  78              		.loc 1 86 0
  79 002a 0193     		str	r3, [sp, #4]
  80              	.LVL6:
  88:..\..\u8g2\csrc/u8x8_d_ssd1305.c ****     
  81              		.loc 1 88 0
ARM GAS  C:\Users\Alan\AppData\Local\Temp\ccjGUbt8.s 			page 6


  82 002c FFF7FEFF 		bl	u8x8_cad_SendCmd
  83              	.LVL7:
  90:..\..\u8g2\csrc/u8x8_d_ssd1305.c ****       u8x8_cad_SendArg(u8x8, 0x000 | ((x&15)));
  84              		.loc 1 90 0
  85 0030 1021     		movs	r1, #16
  86 0032 019B     		ldr	r3, [sp, #4]
  87 0034 2000     		movs	r0, r4
  88 0036 1B09     		lsrs	r3, r3, #4
  89 0038 1943     		orrs	r1, r3
  90 003a FFF7FEFF 		bl	u8x8_cad_SendCmd
  91              	.LVL8:
  91:..\..\u8g2\csrc/u8x8_d_ssd1305.c ****       u8x8_cad_SendArg(u8x8, 0x0b0 | (((u8x8_tile_t *)arg_ptr)->y_pos)   );
  92              		.loc 1 91 0
  93 003e 0199     		ldr	r1, [sp, #4]
  94 0040 2000     		movs	r0, r4
  95 0042 3140     		ands	r1, r6
  96 0044 FFF7FEFF 		bl	u8x8_cad_SendArg
  97              	.LVL9:
  92:..\..\u8g2\csrc/u8x8_d_ssd1305.c **** 
  98              		.loc 1 92 0
  99 0048 B023     		movs	r3, #176
 100 004a B979     		ldrb	r1, [r7, #6]
 101 004c 2000     		movs	r0, r4
 102 004e 1943     		orrs	r1, r3
 103 0050 FFF7FEFF 		bl	u8x8_cad_SendArg
 104              	.LVL10:
 105              	.L6:
  99:..\..\u8g2\csrc/u8x8_d_ssd1305.c **** 	/*
 106              		.loc 1 99 0
 107 0054 3979     		ldrb	r1, [r7, #4]
 108:..\..\u8g2\csrc/u8x8_d_ssd1305.c ****       } while( arg_int > 0 );
 108              		.loc 1 108 0
 109 0056 013D     		subs	r5, r5, #1
 110              	.LVL11:
  99:..\..\u8g2\csrc/u8x8_d_ssd1305.c **** 	/*
 111              		.loc 1 99 0
 112 0058 C900     		lsls	r1, r1, #3
 113 005a C9B2     		uxtb	r1, r1
 114 005c 3A68     		ldr	r2, [r7]
 115 005e 2000     		movs	r0, r4
 108:..\..\u8g2\csrc/u8x8_d_ssd1305.c ****       } while( arg_int > 0 );
 116              		.loc 1 108 0
 117 0060 EDB2     		uxtb	r5, r5
  99:..\..\u8g2\csrc/u8x8_d_ssd1305.c **** 	/*
 118              		.loc 1 99 0
 119 0062 FFF7FEFF 		bl	u8x8_cad_SendData
 120              	.LVL12:
 109:..\..\u8g2\csrc/u8x8_d_ssd1305.c ****       
 121              		.loc 1 109 0
 122 0066 002D     		cmp	r5, #0
 123 0068 F4D1     		bne	.L6
 124 006a 11E0     		b	.L20
 125              	.LVL13:
 126              	.L23:
 127 006c 1E49     		ldr	r1, .L26
 128              	.LVL14:
 114:..\..\u8g2\csrc/u8x8_d_ssd1305.c **** 	u8x8_cad_SendSequence(u8x8, u8x8_d_ssd1305_powersave0_seq);
ARM GAS  C:\Users\Alan\AppData\Local\Temp\ccjGUbt8.s 			page 7


 129              		.loc 1 114 0
 130 006e 002A     		cmp	r2, #0
 131 0070 00D0     		beq	.L19
 117:..\..\u8g2\csrc/u8x8_d_ssd1305.c ****       break;
 132              		.loc 1 117 0
 133 0072 0531     		adds	r1, r1, #5
 134              	.LVL15:
 135              	.L19:
 136 0074 2000     		movs	r0, r4
 137 0076 FFF7FEFF 		bl	u8x8_cad_SendSequence
 138              	.LVL16:
 139 007a 19E0     		b	.L7
 140              	.LVL17:
 141              	.L3:
 121:..\..\u8g2\csrc/u8x8_d_ssd1305.c ****       u8x8_cad_SendCmd(u8x8, 0x081 );
 142              		.loc 1 121 0
 143 007c FFF7FEFF 		bl	u8x8_cad_StartTransfer
 144              	.LVL18:
 122:..\..\u8g2\csrc/u8x8_d_ssd1305.c ****       u8x8_cad_SendArg(u8x8, arg_int );	/* ssd1305 has range from 0 to 255 */
 145              		.loc 1 122 0
 146 0080 8121     		movs	r1, #129
 147 0082 2000     		movs	r0, r4
 148 0084 FFF7FEFF 		bl	u8x8_cad_SendCmd
 149              	.LVL19:
 123:..\..\u8g2\csrc/u8x8_d_ssd1305.c ****       u8x8_cad_EndTransfer(u8x8);
 150              		.loc 1 123 0
 151 0088 2900     		movs	r1, r5
 152 008a 2000     		movs	r0, r4
 153 008c FFF7FEFF 		bl	u8x8_cad_SendArg
 154              	.LVL20:
 155              	.L20:
 124:..\..\u8g2\csrc/u8x8_d_ssd1305.c ****       break;
 156              		.loc 1 124 0
 157 0090 2000     		movs	r0, r4
 158 0092 FFF7FEFF 		bl	u8x8_cad_EndTransfer
 159              	.LVL21:
 160 0096 0BE0     		b	.L7
 161              	.LVL22:
 162              	.L25:
 163              	.LBE5:
 164              	.LBE4:
 196:..\..\u8g2\csrc/u8x8_d_ssd1305.c ****     
 197:..\..\u8g2\csrc/u8x8_d_ssd1305.c ****   if ( u8x8_d_ssd1305_generic(u8x8, msg, arg_int, arg_ptr) != 0 )
 198:..\..\u8g2\csrc/u8x8_d_ssd1305.c ****     return 1;
 199:..\..\u8g2\csrc/u8x8_d_ssd1305.c ****   
 200:..\..\u8g2\csrc/u8x8_d_ssd1305.c ****   switch(msg)
 165              		.loc 1 200 0
 166 0098 0D29     		cmp	r1, #13
 167 009a 1AD1     		bne	.L24
 168 009c 1249     		ldr	r1, .L26
 169              	.LVL23:
 201:..\..\u8g2\csrc/u8x8_d_ssd1305.c ****   {
 202:..\..\u8g2\csrc/u8x8_d_ssd1305.c ****     case U8X8_MSG_DISPLAY_SET_FLIP_MODE:
 203:..\..\u8g2\csrc/u8x8_d_ssd1305.c ****       if ( arg_int == 0 )
 170              		.loc 1 203 0
 171 009e 002D     		cmp	r5, #0
 172 00a0 10D1     		bne	.L10
ARM GAS  C:\Users\Alan\AppData\Local\Temp\ccjGUbt8.s 			page 8


 204:..\..\u8g2\csrc/u8x8_d_ssd1305.c ****       {
 205:..\..\u8g2\csrc/u8x8_d_ssd1305.c **** 	u8x8_cad_SendSequence(u8x8, u8x8_d_ssd1305_128x32_flip0_seq);
 173              		.loc 1 205 0
 174 00a2 0A31     		adds	r1, r1, #10
 175 00a4 2000     		movs	r0, r4
 176              	.LVL24:
 177 00a6 FFF7FEFF 		bl	u8x8_cad_SendSequence
 178              	.LVL25:
 206:..\..\u8g2\csrc/u8x8_d_ssd1305.c **** 	u8x8->x_offset = u8x8->display_info->default_x_offset;
 179              		.loc 1 206 0
 180 00aa 2368     		ldr	r3, [r4]
 181 00ac 9B7C     		ldrb	r3, [r3, #18]
 182              	.L21:
 207:..\..\u8g2\csrc/u8x8_d_ssd1305.c ****       }
 208:..\..\u8g2\csrc/u8x8_d_ssd1305.c ****       else
 209:..\..\u8g2\csrc/u8x8_d_ssd1305.c ****       {
 210:..\..\u8g2\csrc/u8x8_d_ssd1305.c **** 	u8x8_cad_SendSequence(u8x8, u8x8_d_ssd1305_128x32_flip1_seq);
 211:..\..\u8g2\csrc/u8x8_d_ssd1305.c **** 	u8x8->x_offset = u8x8->display_info->flipmode_x_offset;
 183              		.loc 1 211 0
 184 00ae A377     		strb	r3, [r4, #30]
 185              	.L7:
 198:..\..\u8g2\csrc/u8x8_d_ssd1305.c ****   
 186              		.loc 1 198 0
 187 00b0 0120     		movs	r0, #1
 188 00b2 17E0     		b	.L17
 189              	.LVL26:
 190              	.L16:
 200:..\..\u8g2\csrc/u8x8_d_ssd1305.c ****   {
 191              		.loc 1 200 0
 192 00b4 0A29     		cmp	r1, #10
 193 00b6 EFD1     		bne	.L25
 212:..\..\u8g2\csrc/u8x8_d_ssd1305.c ****       }
 213:..\..\u8g2\csrc/u8x8_d_ssd1305.c ****       break;
 214:..\..\u8g2\csrc/u8x8_d_ssd1305.c ****     case U8X8_MSG_DISPLAY_INIT:
 215:..\..\u8g2\csrc/u8x8_d_ssd1305.c ****       u8x8_d_helper_display_init(u8x8);
 194              		.loc 1 215 0
 195 00b8 2000     		movs	r0, r4
 196              	.LVL27:
 197 00ba FFF7FEFF 		bl	u8x8_d_helper_display_init
 198              	.LVL28:
 216:..\..\u8g2\csrc/u8x8_d_ssd1305.c ****       u8x8_cad_SendSequence(u8x8, u8x8_d_ssd1305_128x32_noname_init_seq);    
 199              		.loc 1 216 0
 200 00be 0A49     		ldr	r1, .L26
 201 00c0 2031     		adds	r1, r1, #32
 202 00c2 D7E7     		b	.L19
 203              	.LVL29:
 204              	.L10:
 210:..\..\u8g2\csrc/u8x8_d_ssd1305.c **** 	u8x8->x_offset = u8x8->display_info->flipmode_x_offset;
 205              		.loc 1 210 0
 206 00c4 1531     		adds	r1, r1, #21
 207 00c6 2000     		movs	r0, r4
 208              	.LVL30:
 209 00c8 FFF7FEFF 		bl	u8x8_cad_SendSequence
 210              	.LVL31:
 211:..\..\u8g2\csrc/u8x8_d_ssd1305.c ****       }
 211              		.loc 1 211 0
 212 00cc 2368     		ldr	r3, [r4]
ARM GAS  C:\Users\Alan\AppData\Local\Temp\ccjGUbt8.s 			page 9


 213 00ce DB7C     		ldrb	r3, [r3, #19]
 214 00d0 EDE7     		b	.L21
 215              	.LVL32:
 216              	.L24:
 217:..\..\u8g2\csrc/u8x8_d_ssd1305.c ****       break;
 218:..\..\u8g2\csrc/u8x8_d_ssd1305.c ****     case U8X8_MSG_DISPLAY_SETUP_MEMORY:
 219:..\..\u8g2\csrc/u8x8_d_ssd1305.c ****       u8x8_d_helper_display_setup_memory(u8x8, &u8x8_ssd1305_128x32_noname_display_info);
 220:..\..\u8g2\csrc/u8x8_d_ssd1305.c ****       break;
 221:..\..\u8g2\csrc/u8x8_d_ssd1305.c ****     default:
 222:..\..\u8g2\csrc/u8x8_d_ssd1305.c ****       return 0;
 217              		.loc 1 222 0
 218 00d2 0020     		movs	r0, #0
 219              	.LVL33:
 200:..\..\u8g2\csrc/u8x8_d_ssd1305.c ****   {
 220              		.loc 1 200 0
 221 00d4 0929     		cmp	r1, #9
 222 00d6 05D1     		bne	.L17
 219:..\..\u8g2\csrc/u8x8_d_ssd1305.c ****       break;
 223              		.loc 1 219 0
 224 00d8 0349     		ldr	r1, .L26
 225              	.LVL34:
 226 00da 2000     		movs	r0, r4
 227 00dc 5431     		adds	r1, r1, #84
 228 00de FFF7FEFF 		bl	u8x8_d_helper_display_setup_memory
 229              	.LVL35:
 230 00e2 E5E7     		b	.L7
 231              	.L17:
 223:..\..\u8g2\csrc/u8x8_d_ssd1305.c ****   }
 224:..\..\u8g2\csrc/u8x8_d_ssd1305.c ****   return 1;
 225:..\..\u8g2\csrc/u8x8_d_ssd1305.c **** }
 232              		.loc 1 225 0
 233              		@ sp needed
 234              	.LVL36:
 235              	.LVL37:
 236 00e4 FEBD     		pop	{r1, r2, r3, r4, r5, r6, r7, pc}
 237              	.L27:
 238 00e6 C046     		.align	2
 239              	.L26:
 240 00e8 00000000 		.word	.LANCHOR0
 241              		.cfi_endproc
 242              	.LFE1:
 243              		.size	u8x8_d_ssd1305_128x32_noname, .-u8x8_d_ssd1305_128x32_noname
 244              		.section	.rodata
 245              		.align	2
 246              		.set	.LANCHOR0,. + 0
 247              		.type	u8x8_d_ssd1305_powersave0_seq, %object
 248              		.size	u8x8_d_ssd1305_powersave0_seq, 5
 249              	u8x8_d_ssd1305_powersave0_seq:
 250 0000 18       		.byte	24
 251 0001 15       		.byte	21
 252 0002 AF       		.byte	-81
 253 0003 19       		.byte	25
 254 0004 FF       		.byte	-1
 255              		.type	u8x8_d_ssd1305_powersave1_seq, %object
 256              		.size	u8x8_d_ssd1305_powersave1_seq, 5
 257              	u8x8_d_ssd1305_powersave1_seq:
 258 0005 18       		.byte	24
ARM GAS  C:\Users\Alan\AppData\Local\Temp\ccjGUbt8.s 			page 10


 259 0006 15       		.byte	21
 260 0007 AE       		.byte	-82
 261 0008 19       		.byte	25
 262 0009 FF       		.byte	-1
 263              		.type	u8x8_d_ssd1305_128x32_flip0_seq, %object
 264              		.size	u8x8_d_ssd1305_128x32_flip0_seq, 11
 265              	u8x8_d_ssd1305_128x32_flip0_seq:
 266 000a 18       		.byte	24
 267 000b 15       		.byte	21
 268 000c D3       		.byte	-45
 269 000d 16       		.byte	22
 270 000e 20       		.byte	32
 271 000f 15       		.byte	21
 272 0010 A1       		.byte	-95
 273 0011 15       		.byte	21
 274 0012 C8       		.byte	-56
 275 0013 19       		.byte	25
 276 0014 FF       		.byte	-1
 277              		.type	u8x8_d_ssd1305_128x32_flip1_seq, %object
 278              		.size	u8x8_d_ssd1305_128x32_flip1_seq, 11
 279              	u8x8_d_ssd1305_128x32_flip1_seq:
 280 0015 18       		.byte	24
 281 0016 15       		.byte	21
 282 0017 D3       		.byte	-45
 283 0018 16       		.byte	22
 284 0019 00       		.byte	0
 285 001a 15       		.byte	21
 286 001b A0       		.byte	-96
 287 001c 15       		.byte	21
 288 001d C0       		.byte	-64
 289 001e 19       		.byte	25
 290 001f FF       		.byte	-1
 291              		.type	u8x8_d_ssd1305_128x32_noname_init_seq, %object
 292              		.size	u8x8_d_ssd1305_128x32_noname_init_seq, 49
 293              	u8x8_d_ssd1305_128x32_noname_init_seq:
 294 0020 18       		.byte	24
 295 0021 15       		.byte	21
 296 0022 AE       		.byte	-82
 297 0023 15       		.byte	21
 298 0024 D5       		.byte	-43
 299 0025 16       		.byte	22
 300 0026 80       		.byte	-128
 301 0027 15       		.byte	21
 302 0028 A8       		.byte	-88
 303 0029 16       		.byte	22
 304 002a 3F       		.byte	63
 305 002b 15       		.byte	21
 306 002c D3       		.byte	-45
 307 002d 16       		.byte	22
 308 002e 20       		.byte	32
 309 002f 15       		.byte	21
 310 0030 40       		.byte	64
 311 0031 15       		.byte	21
 312 0032 20       		.byte	32
 313 0033 16       		.byte	22
 314 0034 00       		.byte	0
 315 0035 15       		.byte	21
ARM GAS  C:\Users\Alan\AppData\Local\Temp\ccjGUbt8.s 			page 11


 316 0036 A1       		.byte	-95
 317 0037 15       		.byte	21
 318 0038 C8       		.byte	-56
 319 0039 15       		.byte	21
 320 003a DA       		.byte	-38
 321 003b 16       		.byte	22
 322 003c 12       		.byte	18
 323 003d 15       		.byte	21
 324 003e 81       		.byte	-127
 325 003f 16       		.byte	22
 326 0040 CF       		.byte	-49
 327 0041 15       		.byte	21
 328 0042 D9       		.byte	-39
 329 0043 16       		.byte	22
 330 0044 F1       		.byte	-15
 331 0045 15       		.byte	21
 332 0046 DB       		.byte	-37
 333 0047 16       		.byte	22
 334 0048 40       		.byte	64
 335 0049 15       		.byte	21
 336 004a 2E       		.byte	46
 337 004b 15       		.byte	21
 338 004c A4       		.byte	-92
 339 004d 15       		.byte	21
 340 004e A6       		.byte	-90
 341 004f 19       		.byte	25
 342 0050 FF       		.byte	-1
 343 0051 000000   		.space	3
 344              		.type	u8x8_ssd1305_128x32_noname_display_info, %object
 345              		.size	u8x8_ssd1305_128x32_noname_display_info, 24
 346              	u8x8_ssd1305_128x32_noname_display_info:
 347 0054 00       		.byte	0
 348 0055 01       		.byte	1
 349 0056 14       		.byte	20
 350 0057 0A       		.byte	10
 351 0058 64       		.byte	100
 352 0059 64       		.byte	100
 353 005a 32       		.byte	50
 354 005b 32       		.byte	50
 355 005c 00093D00 		.word	4000000
 356 0060 00       		.byte	0
 357 0061 04       		.byte	4
 358 0062 28       		.byte	40
 359 0063 96       		.byte	-106
 360 0064 10       		.byte	16
 361 0065 04       		.byte	4
 362 0066 02       		.byte	2
 363 0067 02       		.byte	2
 364 0068 8000     		.short	128
 365 006a 2000     		.short	32
 366              		.text
 367              	.Letext0:
 368              		.file 2 "c:\\program files (x86)\\cypress\\psoc creator\\4.1\\psoc creator\\import\\gnu\\arm\\5.4.
 369              		.file 3 "c:\\program files (x86)\\cypress\\psoc creator\\4.1\\psoc creator\\import\\gnu\\arm\\5.4.
 370              		.file 4 "..\\..\\u8g2\\csrc\\u8x8.h"