ARM GAS  C:\Users\Greg\AppData\Local\Temp\cc9sNsIh.s 			page 1


   1              		.syntax unified
   2              		.cpu cortex-m0
   3              		.fpu softvfp
   4              		.eabi_attribute 20, 1
   5              		.eabi_attribute 21, 1
   6              		.eabi_attribute 23, 3
   7              		.eabi_attribute 24, 1
   8              		.eabi_attribute 25, 1
   9              		.eabi_attribute 26, 1
  10              		.eabi_attribute 30, 4
  11              		.eabi_attribute 34, 0
  12              		.eabi_attribute 18, 4
  13              		.thumb
  14              		.syntax unified
  15              		.file	"u8x8_d_st75256.c"
  16              		.text
  17              	.Ltext0:
  18              		.cfi_sections	.debug_frame
  19              		.section	.text.u8x8_d_st75256_jlx256128,"ax",%progbits
  20              		.align	1
  21              		.global	u8x8_d_st75256_jlx256128
  22              		.code	16
  23              		.thumb_func
  24              		.type	u8x8_d_st75256_jlx256128, %function
  25              	u8x8_d_st75256_jlx256128:
  26              	.LFB1:
  27              		.file 1 "..\\..\\u8g2\\csrc\\u8x8_d_st75256.c"
   1:..\..\u8g2\csrc/u8x8_d_st75256.c **** /*
   2:..\..\u8g2\csrc/u8x8_d_st75256.c **** 
   3:..\..\u8g2\csrc/u8x8_d_st75256.c ****   u8x8_d_st75256.c
   4:..\..\u8g2\csrc/u8x8_d_st75256.c **** 
   5:..\..\u8g2\csrc/u8x8_d_st75256.c ****   Universal 8bit Graphics Library (https://github.com/olikraus/u8g2/)
   6:..\..\u8g2\csrc/u8x8_d_st75256.c **** 
   7:..\..\u8g2\csrc/u8x8_d_st75256.c ****   Copyright (c) 2017, olikraus@gmail.com
   8:..\..\u8g2\csrc/u8x8_d_st75256.c ****   All rights reserved.
   9:..\..\u8g2\csrc/u8x8_d_st75256.c **** 
  10:..\..\u8g2\csrc/u8x8_d_st75256.c ****   Redistribution and use in source and binary forms, with or without modification, 
  11:..\..\u8g2\csrc/u8x8_d_st75256.c ****   are permitted provided that the following conditions are met:
  12:..\..\u8g2\csrc/u8x8_d_st75256.c **** 
  13:..\..\u8g2\csrc/u8x8_d_st75256.c ****   * Redistributions of source code must retain the above copyright notice, this list 
  14:..\..\u8g2\csrc/u8x8_d_st75256.c ****     of conditions and the following disclaimer.
  15:..\..\u8g2\csrc/u8x8_d_st75256.c ****     
  16:..\..\u8g2\csrc/u8x8_d_st75256.c ****   * Redistributions in binary form must reproduce the above copyright notice, this 
  17:..\..\u8g2\csrc/u8x8_d_st75256.c ****     list of conditions and the following disclaimer in the documentation and/or other 
  18:..\..\u8g2\csrc/u8x8_d_st75256.c ****     materials provided with the distribution.
  19:..\..\u8g2\csrc/u8x8_d_st75256.c **** 
  20:..\..\u8g2\csrc/u8x8_d_st75256.c ****   THIS SOFTWARE IS PROVIDED BY THE COPYRIGHT HOLDERS AND 
  21:..\..\u8g2\csrc/u8x8_d_st75256.c ****   CONTRIBUTORS "AS IS" AND ANY EXPRESS OR IMPLIED WARRANTIES, 
  22:..\..\u8g2\csrc/u8x8_d_st75256.c ****   INCLUDING, BUT NOT LIMITED TO, THE IMPLIED WARRANTIES OF 
  23:..\..\u8g2\csrc/u8x8_d_st75256.c ****   MERCHANTABILITY AND FITNESS FOR A PARTICULAR PURPOSE ARE 
  24:..\..\u8g2\csrc/u8x8_d_st75256.c ****   DISCLAIMED. IN NO EVENT SHALL THE COPYRIGHT HOLDER OR 
  25:..\..\u8g2\csrc/u8x8_d_st75256.c ****   CONTRIBUTORS BE LIABLE FOR ANY DIRECT, INDIRECT, INCIDENTAL, 
  26:..\..\u8g2\csrc/u8x8_d_st75256.c ****   SPECIAL, EXEMPLARY, OR CONSEQUENTIAL DAMAGES (INCLUDING, BUT 
  27:..\..\u8g2\csrc/u8x8_d_st75256.c ****   NOT LIMITED TO, PROCUREMENT OF SUBSTITUTE GOODS OR SERVICES; 
  28:..\..\u8g2\csrc/u8x8_d_st75256.c ****   LOSS OF USE, DATA, OR PROFITS; OR BUSINESS INTERRUPTION) HOWEVER 
  29:..\..\u8g2\csrc/u8x8_d_st75256.c ****   CAUSED AND ON ANY THEORY OF LIABILITY, WHETHER IN CONTRACT, 
  30:..\..\u8g2\csrc/u8x8_d_st75256.c ****   STRICT LIABILITY, OR TORT (INCLUDING NEGLIGENCE OR OTHERWISE) 
ARM GAS  C:\Users\Greg\AppData\Local\Temp\cc9sNsIh.s 			page 2


  31:..\..\u8g2\csrc/u8x8_d_st75256.c ****   ARISING IN ANY WAY OUT OF THE USE OF THIS SOFTWARE, EVEN IF 
  32:..\..\u8g2\csrc/u8x8_d_st75256.c ****   ADVISED OF THE POSSIBILITY OF SUCH DAMAGE.  
  33:..\..\u8g2\csrc/u8x8_d_st75256.c **** 
  34:..\..\u8g2\csrc/u8x8_d_st75256.c ****   0x030	ext 00
  35:..\..\u8g2\csrc/u8x8_d_st75256.c ****   0x031	ext 01
  36:..\..\u8g2\csrc/u8x8_d_st75256.c ****   0x038	ext 10
  37:..\..\u8g2\csrc/u8x8_d_st75256.c ****   0x039	ext 11
  38:..\..\u8g2\csrc/u8x8_d_st75256.c ****   
  39:..\..\u8g2\csrc/u8x8_d_st75256.c ****   cad 011
  40:..\..\u8g2\csrc/u8x8_d_st75256.c ****   
  41:..\..\u8g2\csrc/u8x8_d_st75256.c **** */
  42:..\..\u8g2\csrc/u8x8_d_st75256.c **** 
  43:..\..\u8g2\csrc/u8x8_d_st75256.c **** 
  44:..\..\u8g2\csrc/u8x8_d_st75256.c **** #include "u8x8.h"
  45:..\..\u8g2\csrc/u8x8_d_st75256.c **** 
  46:..\..\u8g2\csrc/u8x8_d_st75256.c **** 
  47:..\..\u8g2\csrc/u8x8_d_st75256.c **** /* not a real power down for the st75256... just a display off */
  48:..\..\u8g2\csrc/u8x8_d_st75256.c **** static const uint8_t u8x8_d_st75256_256x128_powersave0_seq[] = {
  49:..\..\u8g2\csrc/u8x8_d_st75256.c ****   U8X8_START_TRANSFER(),             	/* enable chip, delay is part of the transfer start */
  50:..\..\u8g2\csrc/u8x8_d_st75256.c ****   U8X8_C( 0x030 ),				/* select 00 commands */  
  51:..\..\u8g2\csrc/u8x8_d_st75256.c ****   U8X8_C( 0x94 ),				/* sleep out */
  52:..\..\u8g2\csrc/u8x8_d_st75256.c ****   U8X8_DLY(10),
  53:..\..\u8g2\csrc/u8x8_d_st75256.c ****   U8X8_C( 0xaf ),				/* display on */
  54:..\..\u8g2\csrc/u8x8_d_st75256.c ****   U8X8_END_TRANSFER(),             	/* disable chip */
  55:..\..\u8g2\csrc/u8x8_d_st75256.c ****   U8X8_END()             			/* end of sequence */
  56:..\..\u8g2\csrc/u8x8_d_st75256.c **** };
  57:..\..\u8g2\csrc/u8x8_d_st75256.c **** 
  58:..\..\u8g2\csrc/u8x8_d_st75256.c **** static const uint8_t u8x8_d_st75256_256x128_powersave1_seq[] = {
  59:..\..\u8g2\csrc/u8x8_d_st75256.c ****   U8X8_START_TRANSFER(),             	/* enable chip, delay is part of the transfer start */
  60:..\..\u8g2\csrc/u8x8_d_st75256.c ****   U8X8_C( 0x030 ),				/* select 00 commands */
  61:..\..\u8g2\csrc/u8x8_d_st75256.c ****   U8X8_C( 0xae ),				/* display off */
  62:..\..\u8g2\csrc/u8x8_d_st75256.c ****   U8X8_C( 0x95 ),				/* sleep in */
  63:..\..\u8g2\csrc/u8x8_d_st75256.c ****   U8X8_END_TRANSFER(),             	/* disable chip */
  64:..\..\u8g2\csrc/u8x8_d_st75256.c ****   U8X8_END()             			/* end of sequence */
  65:..\..\u8g2\csrc/u8x8_d_st75256.c **** };
  66:..\..\u8g2\csrc/u8x8_d_st75256.c **** 
  67:..\..\u8g2\csrc/u8x8_d_st75256.c **** 
  68:..\..\u8g2\csrc/u8x8_d_st75256.c **** 
  69:..\..\u8g2\csrc/u8x8_d_st75256.c **** 
  70:..\..\u8g2\csrc/u8x8_d_st75256.c **** static uint8_t u8x8_d_st75256_256x128_generic(u8x8_t *u8x8, uint8_t msg, uint8_t arg_int, void *arg
  71:..\..\u8g2\csrc/u8x8_d_st75256.c **** {
  72:..\..\u8g2\csrc/u8x8_d_st75256.c ****   uint8_t x, c;
  73:..\..\u8g2\csrc/u8x8_d_st75256.c ****   uint8_t *ptr;
  74:..\..\u8g2\csrc/u8x8_d_st75256.c ****   switch(msg)
  75:..\..\u8g2\csrc/u8x8_d_st75256.c ****   {
  76:..\..\u8g2\csrc/u8x8_d_st75256.c ****     /* handled by the calling function
  77:..\..\u8g2\csrc/u8x8_d_st75256.c ****     case U8X8_MSG_DISPLAY_SETUP_MEMORY:
  78:..\..\u8g2\csrc/u8x8_d_st75256.c ****       u8x8_d_helper_display_setup_memory(u8x8, &u8x8_st75256_256x128_display_info);
  79:..\..\u8g2\csrc/u8x8_d_st75256.c ****       break;
  80:..\..\u8g2\csrc/u8x8_d_st75256.c ****     */
  81:..\..\u8g2\csrc/u8x8_d_st75256.c ****     /* handled by the calling function
  82:..\..\u8g2\csrc/u8x8_d_st75256.c ****     case U8X8_MSG_DISPLAY_INIT:
  83:..\..\u8g2\csrc/u8x8_d_st75256.c ****       u8x8_d_helper_display_init(u8x8);
  84:..\..\u8g2\csrc/u8x8_d_st75256.c ****       u8x8_cad_SendSequence(u8x8, u8x8_d_st75256_256x128_init_seq);    
  85:..\..\u8g2\csrc/u8x8_d_st75256.c ****       break;
  86:..\..\u8g2\csrc/u8x8_d_st75256.c ****     */
  87:..\..\u8g2\csrc/u8x8_d_st75256.c ****     case U8X8_MSG_DISPLAY_SET_POWER_SAVE:
ARM GAS  C:\Users\Greg\AppData\Local\Temp\cc9sNsIh.s 			page 3


  88:..\..\u8g2\csrc/u8x8_d_st75256.c ****       if ( arg_int == 0 )
  89:..\..\u8g2\csrc/u8x8_d_st75256.c **** 	u8x8_cad_SendSequence(u8x8, u8x8_d_st75256_256x128_powersave0_seq);
  90:..\..\u8g2\csrc/u8x8_d_st75256.c ****       else
  91:..\..\u8g2\csrc/u8x8_d_st75256.c **** 	u8x8_cad_SendSequence(u8x8, u8x8_d_st75256_256x128_powersave1_seq);
  92:..\..\u8g2\csrc/u8x8_d_st75256.c **** 
  93:..\..\u8g2\csrc/u8x8_d_st75256.c ****       break;
  94:..\..\u8g2\csrc/u8x8_d_st75256.c **** #ifdef U8X8_WITH_SET_CONTRAST
  95:..\..\u8g2\csrc/u8x8_d_st75256.c ****     case U8X8_MSG_DISPLAY_SET_CONTRAST:
  96:..\..\u8g2\csrc/u8x8_d_st75256.c **** 
  97:..\..\u8g2\csrc/u8x8_d_st75256.c ****       u8x8_cad_StartTransfer(u8x8);
  98:..\..\u8g2\csrc/u8x8_d_st75256.c ****       
  99:..\..\u8g2\csrc/u8x8_d_st75256.c ****       u8x8_cad_SendCmd(u8x8, 0x030 );
 100:..\..\u8g2\csrc/u8x8_d_st75256.c ****       u8x8_cad_SendCmd(u8x8, 0x081 );  /* there are 9 bit for the volume control */
 101:..\..\u8g2\csrc/u8x8_d_st75256.c ****       u8x8_cad_SendArg(u8x8, (arg_int & 0x1f)<<1 );	/* lower 6 bit */
 102:..\..\u8g2\csrc/u8x8_d_st75256.c ****       u8x8_cad_SendArg(u8x8, (arg_int>>5));		/* upper 3 bit */
 103:..\..\u8g2\csrc/u8x8_d_st75256.c ****       
 104:..\..\u8g2\csrc/u8x8_d_st75256.c ****       u8x8_cad_EndTransfer(u8x8);
 105:..\..\u8g2\csrc/u8x8_d_st75256.c ****       break;
 106:..\..\u8g2\csrc/u8x8_d_st75256.c **** #endif
 107:..\..\u8g2\csrc/u8x8_d_st75256.c ****     case U8X8_MSG_DISPLAY_DRAW_TILE:
 108:..\..\u8g2\csrc/u8x8_d_st75256.c ****       
 109:..\..\u8g2\csrc/u8x8_d_st75256.c ****       u8x8_cad_StartTransfer(u8x8);
 110:..\..\u8g2\csrc/u8x8_d_st75256.c ****       x = ((u8x8_tile_t *)arg_ptr)->x_pos;    
 111:..\..\u8g2\csrc/u8x8_d_st75256.c ****       x *= 8;
 112:..\..\u8g2\csrc/u8x8_d_st75256.c ****       
 113:..\..\u8g2\csrc/u8x8_d_st75256.c ****       x += u8x8->x_offset;
 114:..\..\u8g2\csrc/u8x8_d_st75256.c **** 	
 115:..\..\u8g2\csrc/u8x8_d_st75256.c ****       u8x8_cad_SendCmd(u8x8, 0x030 );	/* select command set */
 116:..\..\u8g2\csrc/u8x8_d_st75256.c ****       u8x8_cad_SendCmd(u8x8, 0x075 );	/* row */
 117:..\..\u8g2\csrc/u8x8_d_st75256.c ****       u8x8_cad_SendArg(u8x8, (((u8x8_tile_t *)arg_ptr)->y_pos));
 118:..\..\u8g2\csrc/u8x8_d_st75256.c ****       u8x8_cad_SendArg(u8x8, (((u8x8_tile_t *)arg_ptr)->y_pos));
 119:..\..\u8g2\csrc/u8x8_d_st75256.c ****       u8x8_cad_SendCmd(u8x8, 0x015 );	/* col */
 120:..\..\u8g2\csrc/u8x8_d_st75256.c ****       u8x8_cad_SendArg(u8x8, x);
 121:..\..\u8g2\csrc/u8x8_d_st75256.c ****       u8x8_cad_SendArg(u8x8, 255);
 122:..\..\u8g2\csrc/u8x8_d_st75256.c ****       u8x8_cad_SendCmd(u8x8, 0x05c );	
 123:..\..\u8g2\csrc/u8x8_d_st75256.c ****     
 124:..\..\u8g2\csrc/u8x8_d_st75256.c ****       
 125:..\..\u8g2\csrc/u8x8_d_st75256.c ****       do
 126:..\..\u8g2\csrc/u8x8_d_st75256.c ****       {
 127:..\..\u8g2\csrc/u8x8_d_st75256.c **** 	c = ((u8x8_tile_t *)arg_ptr)->cnt;
 128:..\..\u8g2\csrc/u8x8_d_st75256.c **** 	ptr = ((u8x8_tile_t *)arg_ptr)->tile_ptr;
 129:..\..\u8g2\csrc/u8x8_d_st75256.c **** 	/* SendData can not handle more than 255 bytes, treat c > 31 correctly  */
 130:..\..\u8g2\csrc/u8x8_d_st75256.c **** 	if ( c > 31 )
 131:..\..\u8g2\csrc/u8x8_d_st75256.c **** 	{
 132:..\..\u8g2\csrc/u8x8_d_st75256.c **** 	  u8x8_cad_SendData(u8x8, 248, ptr); 	
 133:..\..\u8g2\csrc/u8x8_d_st75256.c **** 	  ptr+=248;
 134:..\..\u8g2\csrc/u8x8_d_st75256.c **** 	  c -= 31;
 135:..\..\u8g2\csrc/u8x8_d_st75256.c **** 	}
 136:..\..\u8g2\csrc/u8x8_d_st75256.c **** 	u8x8_cad_SendData(u8x8, c*8, ptr); 	
 137:..\..\u8g2\csrc/u8x8_d_st75256.c **** 	arg_int--;
 138:..\..\u8g2\csrc/u8x8_d_st75256.c ****       } while( arg_int > 0 );
 139:..\..\u8g2\csrc/u8x8_d_st75256.c ****       
 140:..\..\u8g2\csrc/u8x8_d_st75256.c ****       u8x8_cad_EndTransfer(u8x8);
 141:..\..\u8g2\csrc/u8x8_d_st75256.c ****       break;
 142:..\..\u8g2\csrc/u8x8_d_st75256.c ****     default:
 143:..\..\u8g2\csrc/u8x8_d_st75256.c ****       return 0;
 144:..\..\u8g2\csrc/u8x8_d_st75256.c ****   }
ARM GAS  C:\Users\Greg\AppData\Local\Temp\cc9sNsIh.s 			page 4


 145:..\..\u8g2\csrc/u8x8_d_st75256.c ****   return 1;
 146:..\..\u8g2\csrc/u8x8_d_st75256.c **** }
 147:..\..\u8g2\csrc/u8x8_d_st75256.c **** 
 148:..\..\u8g2\csrc/u8x8_d_st75256.c **** /*=============================================*/
 149:..\..\u8g2\csrc/u8x8_d_st75256.c **** 
 150:..\..\u8g2\csrc/u8x8_d_st75256.c **** static const u8x8_display_info_t u8x8_st75256_256x128_display_info =
 151:..\..\u8g2\csrc/u8x8_d_st75256.c **** {
 152:..\..\u8g2\csrc/u8x8_d_st75256.c ****   /* chip_enable_level = */ 0,
 153:..\..\u8g2\csrc/u8x8_d_st75256.c ****   /* chip_disable_level = */ 1,
 154:..\..\u8g2\csrc/u8x8_d_st75256.c ****   
 155:..\..\u8g2\csrc/u8x8_d_st75256.c ****   /* post_chip_enable_wait_ns = */ 20,
 156:..\..\u8g2\csrc/u8x8_d_st75256.c ****   /* pre_chip_disable_wait_ns = */ 20,
 157:..\..\u8g2\csrc/u8x8_d_st75256.c ****   /* reset_pulse_width_ms = */ 5, 	
 158:..\..\u8g2\csrc/u8x8_d_st75256.c ****   /* post_reset_wait_ms = */ 5, 		/**/
 159:..\..\u8g2\csrc/u8x8_d_st75256.c ****   /* sda_setup_time_ns = */ 20,		/* */
 160:..\..\u8g2\csrc/u8x8_d_st75256.c ****   /* sck_pulse_width_ns = */ 40,	/*  */
 161:..\..\u8g2\csrc/u8x8_d_st75256.c ****   /* sck_clock_hz = */ 4000000UL,	/* since Arduino 1.6.0, the SPI bus speed in Hz. Should be  10000
 162:..\..\u8g2\csrc/u8x8_d_st75256.c ****   /* spi_mode = */ 0,		/* active high, rising edge */
 163:..\..\u8g2\csrc/u8x8_d_st75256.c ****   /* i2c_bus_clock_100kHz = */ 4,	/* 400KHz */
 164:..\..\u8g2\csrc/u8x8_d_st75256.c ****   /* data_setup_time_ns = */ 15,
 165:..\..\u8g2\csrc/u8x8_d_st75256.c ****   /* write_pulse_width_ns = */ 70,	
 166:..\..\u8g2\csrc/u8x8_d_st75256.c ****   /* tile_width = */ 32,
 167:..\..\u8g2\csrc/u8x8_d_st75256.c ****   /* tile_hight = */ 16,
 168:..\..\u8g2\csrc/u8x8_d_st75256.c ****   /* default_x_offset = */ 0,	/* must be 0, because this is checked also for normal mode */
 169:..\..\u8g2\csrc/u8x8_d_st75256.c ****   /* flipmode_x_offset = */ 0,		
 170:..\..\u8g2\csrc/u8x8_d_st75256.c ****   /* pixel_width = */ 256,
 171:..\..\u8g2\csrc/u8x8_d_st75256.c ****   /* pixel_height = */ 128
 172:..\..\u8g2\csrc/u8x8_d_st75256.c **** };
 173:..\..\u8g2\csrc/u8x8_d_st75256.c **** 
 174:..\..\u8g2\csrc/u8x8_d_st75256.c **** 
 175:..\..\u8g2\csrc/u8x8_d_st75256.c **** static const uint8_t u8x8_d_st75256_256x128_init_seq[] = {
 176:..\..\u8g2\csrc/u8x8_d_st75256.c ****   U8X8_START_TRANSFER(),             	/* enable chip, delay is part of the transfer start */
 177:..\..\u8g2\csrc/u8x8_d_st75256.c ****   
 178:..\..\u8g2\csrc/u8x8_d_st75256.c ****   U8X8_DLY(120),
 179:..\..\u8g2\csrc/u8x8_d_st75256.c **** 
 180:..\..\u8g2\csrc/u8x8_d_st75256.c ****   U8X8_C( 0x030 ),				/* select 00 commands */
 181:..\..\u8g2\csrc/u8x8_d_st75256.c ****   U8X8_C( 0x06e ),				/* enable master */
 182:..\..\u8g2\csrc/u8x8_d_st75256.c **** 
 183:..\..\u8g2\csrc/u8x8_d_st75256.c ****   U8X8_C( 0x031 ),				/* select 01 commands */
 184:..\..\u8g2\csrc/u8x8_d_st75256.c ****   U8X8_CA( 0x0d7, 0x09f ),		/* disable auto read */  
 185:..\..\u8g2\csrc/u8x8_d_st75256.c ****   U8X8_DLY(20),
 186:..\..\u8g2\csrc/u8x8_d_st75256.c ****   
 187:..\..\u8g2\csrc/u8x8_d_st75256.c ****   U8X8_C( 0x031 ),				/* select 01 commands */
 188:..\..\u8g2\csrc/u8x8_d_st75256.c ****   U8X8_CA( 0x0e0, 0x000 ),		/* enable OTP read */
 189:..\..\u8g2\csrc/u8x8_d_st75256.c ****   U8X8_DLY(20),
 190:..\..\u8g2\csrc/u8x8_d_st75256.c ****   
 191:..\..\u8g2\csrc/u8x8_d_st75256.c ****   U8X8_C( 0x031 ),				/* select 01 commands */
 192:..\..\u8g2\csrc/u8x8_d_st75256.c ****   U8X8_C( 0x0e3 ),				/* OTP Upload */
 193:..\..\u8g2\csrc/u8x8_d_st75256.c ****   U8X8_DLY(20),
 194:..\..\u8g2\csrc/u8x8_d_st75256.c ****   
 195:..\..\u8g2\csrc/u8x8_d_st75256.c ****   U8X8_C( 0x031 ),				/* select 01 commands */
 196:..\..\u8g2\csrc/u8x8_d_st75256.c ****   U8X8_C( 0x0e1 ),				/* OTP controll out */
 197:..\..\u8g2\csrc/u8x8_d_st75256.c ****   U8X8_DLY(20),
 198:..\..\u8g2\csrc/u8x8_d_st75256.c ****   
 199:..\..\u8g2\csrc/u8x8_d_st75256.c ****   U8X8_C( 0x030 ),				/* select 00 commands */
 200:..\..\u8g2\csrc/u8x8_d_st75256.c ****   U8X8_C( 0x094 ),				/* sleep out */
 201:..\..\u8g2\csrc/u8x8_d_st75256.c ****   U8X8_DLY(10),
ARM GAS  C:\Users\Greg\AppData\Local\Temp\cc9sNsIh.s 			page 5


 202:..\..\u8g2\csrc/u8x8_d_st75256.c **** 
 203:..\..\u8g2\csrc/u8x8_d_st75256.c ****   U8X8_C( 0x030 ),				/* select 00 commands */
 204:..\..\u8g2\csrc/u8x8_d_st75256.c ****   U8X8_C( 0xae ),				/* display off */
 205:..\..\u8g2\csrc/u8x8_d_st75256.c ****   U8X8_DLY(10),
 206:..\..\u8g2\csrc/u8x8_d_st75256.c ****   
 207:..\..\u8g2\csrc/u8x8_d_st75256.c ****   U8X8_C( 0x030 ),				/* select 00 commands */
 208:..\..\u8g2\csrc/u8x8_d_st75256.c ****   U8X8_CA( 0x020, 0x00b ),		/* Power control: Regulator, follower & booster on */
 209:..\..\u8g2\csrc/u8x8_d_st75256.c ****   U8X8_DLY(10),
 210:..\..\u8g2\csrc/u8x8_d_st75256.c ****  
 211:..\..\u8g2\csrc/u8x8_d_st75256.c ****   U8X8_C( 0x030 ),				/* select 00 commands */
 212:..\..\u8g2\csrc/u8x8_d_st75256.c ****   U8X8_CAA( 0x81, 0x36, 0x05 ),	/* Volume control */
 213:..\..\u8g2\csrc/u8x8_d_st75256.c ****   
 214:..\..\u8g2\csrc/u8x8_d_st75256.c ****   U8X8_C( 0x031 ),				/* select 01 commands */
 215:..\..\u8g2\csrc/u8x8_d_st75256.c ****   U8X8_C( 0x020 ),				/* gray levels */
 216:..\..\u8g2\csrc/u8x8_d_st75256.c ****   U8X8_A( 0x00 ),
 217:..\..\u8g2\csrc/u8x8_d_st75256.c ****   U8X8_A( 0x00 ),
 218:..\..\u8g2\csrc/u8x8_d_st75256.c ****   U8X8_A( 0x00 ),
 219:..\..\u8g2\csrc/u8x8_d_st75256.c ****   U8X8_A( 0x17 ),
 220:..\..\u8g2\csrc/u8x8_d_st75256.c ****   U8X8_A( 0x17),
 221:..\..\u8g2\csrc/u8x8_d_st75256.c ****   U8X8_A( 0x17 ),
 222:..\..\u8g2\csrc/u8x8_d_st75256.c ****   U8X8_A( 0x00 ),
 223:..\..\u8g2\csrc/u8x8_d_st75256.c ****   U8X8_A( 0x00 ),
 224:..\..\u8g2\csrc/u8x8_d_st75256.c ****   U8X8_A( 0x1d ),
 225:..\..\u8g2\csrc/u8x8_d_st75256.c ****   U8X8_A( 0x00 ),
 226:..\..\u8g2\csrc/u8x8_d_st75256.c ****   U8X8_A( 0x00 ),
 227:..\..\u8g2\csrc/u8x8_d_st75256.c ****   U8X8_A( 0x1d ),
 228:..\..\u8g2\csrc/u8x8_d_st75256.c ****   U8X8_A( 0x1d ),
 229:..\..\u8g2\csrc/u8x8_d_st75256.c ****   U8X8_A( 0x1d ),
 230:..\..\u8g2\csrc/u8x8_d_st75256.c ****   U8X8_A( 0x00 ),
 231:..\..\u8g2\csrc/u8x8_d_st75256.c ****   U8X8_A( 0x00 ),
 232:..\..\u8g2\csrc/u8x8_d_st75256.c ****   
 233:..\..\u8g2\csrc/u8x8_d_st75256.c ****   U8X8_C( 0x031 ),				/* select 01 commands */
 234:..\..\u8g2\csrc/u8x8_d_st75256.c ****   U8X8_C( 0x032 ),				/* analog circuit set */
 235:..\..\u8g2\csrc/u8x8_d_st75256.c ****   U8X8_A( 0x000 ),				/* code example: OSC Frequency adjustment */
 236:..\..\u8g2\csrc/u8x8_d_st75256.c ****   U8X8_A( 0x001 ),				/* Frequency on booster capacitors 1 = 6KHz? */
 237:..\..\u8g2\csrc/u8x8_d_st75256.c ****   U8X8_A( 0x000 ),				/* Bias: 1: 1/13, 2: 1/12, 3: 1/11, 4:1/10, 5:1/9 */
 238:..\..\u8g2\csrc/u8x8_d_st75256.c ****   
 239:..\..\u8g2\csrc/u8x8_d_st75256.c ****   U8X8_C( 0x031 ),				/* select 01 commands */
 240:..\..\u8g2\csrc/u8x8_d_st75256.c ****   U8X8_CA( 0x051, 0x0fb ),		/* booster level x10 */
 241:..\..\u8g2\csrc/u8x8_d_st75256.c **** 
 242:..\..\u8g2\csrc/u8x8_d_st75256.c ****   U8X8_C( 0x030 ),				/* select 00 commands */ 
 243:..\..\u8g2\csrc/u8x8_d_st75256.c ****   U8X8_CA( 0x0f0, 0x011 ),		/* monochrome mode  = 0x010*/
 244:..\..\u8g2\csrc/u8x8_d_st75256.c **** 
 245:..\..\u8g2\csrc/u8x8_d_st75256.c ****   U8X8_C( 0x030 ),				/* select 00 commands */ 
 246:..\..\u8g2\csrc/u8x8_d_st75256.c ****   U8X8_C( 0xca ),				/* display control, 3 args follow  */
 247:..\..\u8g2\csrc/u8x8_d_st75256.c ****   U8X8_A( 0x00 ),				/* no clock division */
 248:..\..\u8g2\csrc/u8x8_d_st75256.c ****   U8X8_A( 0x7f ),				/* 1/128 duty value from the DS overview page*/
 249:..\..\u8g2\csrc/u8x8_d_st75256.c ****   //U8X8_A( 0x9f ),				/* 1/160 duty value from the DS example code */
 250:..\..\u8g2\csrc/u8x8_d_st75256.c ****   U8X8_A( 0x00 ),				/* nline off */ 
 251:..\..\u8g2\csrc/u8x8_d_st75256.c **** 
 252:..\..\u8g2\csrc/u8x8_d_st75256.c ****   U8X8_C( 0x030 ),				/* select 00 commands */
 253:..\..\u8g2\csrc/u8x8_d_st75256.c ****   U8X8_CA( 0xbc, 0x00 ),			/* data scan dir */
 254:..\..\u8g2\csrc/u8x8_d_st75256.c **** 
 255:..\..\u8g2\csrc/u8x8_d_st75256.c ****   U8X8_C( 0x031 ),				/* select 01 commands */
 256:..\..\u8g2\csrc/u8x8_d_st75256.c ****   U8X8_C( 0x040 ),				/* internal power */
 257:..\..\u8g2\csrc/u8x8_d_st75256.c **** 
 258:..\..\u8g2\csrc/u8x8_d_st75256.c ****   U8X8_C( 0x030 ),				/* select 00 commands */
ARM GAS  C:\Users\Greg\AppData\Local\Temp\cc9sNsIh.s 			page 6


 259:..\..\u8g2\csrc/u8x8_d_st75256.c ****   U8X8_C( 0xa6 ),				/* normal display  */
 260:..\..\u8g2\csrc/u8x8_d_st75256.c ****   U8X8_C( 0x22 ),				/* all pixel off mode  */
 261:..\..\u8g2\csrc/u8x8_d_st75256.c ****   U8X8_C( 0xaf ),				/* display on  */
 262:..\..\u8g2\csrc/u8x8_d_st75256.c **** 
 263:..\..\u8g2\csrc/u8x8_d_st75256.c ****   U8X8_C( 0x030 ),				/* select 00 commands */
 264:..\..\u8g2\csrc/u8x8_d_st75256.c ****   U8X8_CAA(0x75, 0, 16),		/* row range */
 265:..\..\u8g2\csrc/u8x8_d_st75256.c ****   U8X8_CAA(0x15, 0, 255),		/* col range */
 266:..\..\u8g2\csrc/u8x8_d_st75256.c ****   U8X8_C( 0x030 ),				/* select 00 commands */
 267:..\..\u8g2\csrc/u8x8_d_st75256.c ****   U8X8_C( 0x5c ),				/* write data to RAM  */
 268:..\..\u8g2\csrc/u8x8_d_st75256.c ****   U8X8_A( 0xff ),				/*  */
 269:..\..\u8g2\csrc/u8x8_d_st75256.c ****   U8X8_A( 0xff ),				/*  */
 270:..\..\u8g2\csrc/u8x8_d_st75256.c ****   U8X8_A( 0xff ),				/*  */
 271:..\..\u8g2\csrc/u8x8_d_st75256.c ****   U8X8_A( 0xff ),				/*  */
 272:..\..\u8g2\csrc/u8x8_d_st75256.c ****   U8X8_A( 0xff ),				/*  */
 273:..\..\u8g2\csrc/u8x8_d_st75256.c ****   U8X8_A( 0xff ),				/*  */
 274:..\..\u8g2\csrc/u8x8_d_st75256.c ****   U8X8_A( 0xff ),				/*  */
 275:..\..\u8g2\csrc/u8x8_d_st75256.c ****   U8X8_A( 0xff ),				/*  */
 276:..\..\u8g2\csrc/u8x8_d_st75256.c **** 
 277:..\..\u8g2\csrc/u8x8_d_st75256.c ****   U8X8_A( 0xff ),				/*  */
 278:..\..\u8g2\csrc/u8x8_d_st75256.c ****   U8X8_A( 0xff ),				/*  */
 279:..\..\u8g2\csrc/u8x8_d_st75256.c ****   U8X8_A( 0xff ),				/*  */
 280:..\..\u8g2\csrc/u8x8_d_st75256.c ****   U8X8_A( 0xff ),				/*  */
 281:..\..\u8g2\csrc/u8x8_d_st75256.c ****   U8X8_A( 0xff ),				/*  */
 282:..\..\u8g2\csrc/u8x8_d_st75256.c ****   U8X8_A( 0xff ),				/*  */
 283:..\..\u8g2\csrc/u8x8_d_st75256.c ****   U8X8_A( 0xff ),				/*  */
 284:..\..\u8g2\csrc/u8x8_d_st75256.c ****   U8X8_A( 0xff ),				/*  */
 285:..\..\u8g2\csrc/u8x8_d_st75256.c ****   
 286:..\..\u8g2\csrc/u8x8_d_st75256.c ****   U8X8_A( 0xff ),				/*  */
 287:..\..\u8g2\csrc/u8x8_d_st75256.c ****   U8X8_A( 0xff ),				/*  */
 288:..\..\u8g2\csrc/u8x8_d_st75256.c ****   U8X8_A( 0xff ),				/*  */
 289:..\..\u8g2\csrc/u8x8_d_st75256.c ****   U8X8_A( 0xff ),				/*  */
 290:..\..\u8g2\csrc/u8x8_d_st75256.c ****   U8X8_A( 0xff ),				/*  */
 291:..\..\u8g2\csrc/u8x8_d_st75256.c ****   U8X8_A( 0xff ),				/*  */
 292:..\..\u8g2\csrc/u8x8_d_st75256.c ****   U8X8_A( 0xff ),				/*  */
 293:..\..\u8g2\csrc/u8x8_d_st75256.c ****   U8X8_A( 0xff ),				/*  */
 294:..\..\u8g2\csrc/u8x8_d_st75256.c ****  
 295:..\..\u8g2\csrc/u8x8_d_st75256.c ****   U8X8_A( 0xaa ),				/*  */
 296:..\..\u8g2\csrc/u8x8_d_st75256.c ****   U8X8_A( 0xaa ),				/*  */
 297:..\..\u8g2\csrc/u8x8_d_st75256.c ****   U8X8_A( 0xaa ),				/*  */
 298:..\..\u8g2\csrc/u8x8_d_st75256.c ****   U8X8_A( 0xaa ),				/*  */
 299:..\..\u8g2\csrc/u8x8_d_st75256.c ****   U8X8_A( 0xaa ),				/*  */
 300:..\..\u8g2\csrc/u8x8_d_st75256.c ****   U8X8_A( 0xaa ),				/*  */
 301:..\..\u8g2\csrc/u8x8_d_st75256.c ****   U8X8_A( 0xaa ),				/*  */
 302:..\..\u8g2\csrc/u8x8_d_st75256.c ****   U8X8_A( 0xaa ),				/*  */
 303:..\..\u8g2\csrc/u8x8_d_st75256.c **** 
 304:..\..\u8g2\csrc/u8x8_d_st75256.c ****   U8X8_A( 0x55 ),				/*  */
 305:..\..\u8g2\csrc/u8x8_d_st75256.c ****   U8X8_A( 0x55 ),				/*  */
 306:..\..\u8g2\csrc/u8x8_d_st75256.c ****   U8X8_A( 0x55 ),				/*  */
 307:..\..\u8g2\csrc/u8x8_d_st75256.c ****   U8X8_A( 0x55 ),				/*  */
 308:..\..\u8g2\csrc/u8x8_d_st75256.c ****   U8X8_A( 0x55 ),				/*  */
 309:..\..\u8g2\csrc/u8x8_d_st75256.c ****   U8X8_A( 0x55 ),				/*  */
 310:..\..\u8g2\csrc/u8x8_d_st75256.c ****   U8X8_A( 0x55 ),				/*  */
 311:..\..\u8g2\csrc/u8x8_d_st75256.c ****   U8X8_A( 0x55 ),				/*  */
 312:..\..\u8g2\csrc/u8x8_d_st75256.c **** 
 313:..\..\u8g2\csrc/u8x8_d_st75256.c ****   U8X8_END_TRANSFER(),             	/* disable chip */
 314:..\..\u8g2\csrc/u8x8_d_st75256.c ****   U8X8_END()             			/* end of sequence */
 315:..\..\u8g2\csrc/u8x8_d_st75256.c **** };    
ARM GAS  C:\Users\Greg\AppData\Local\Temp\cc9sNsIh.s 			page 7


 316:..\..\u8g2\csrc/u8x8_d_st75256.c **** 
 317:..\..\u8g2\csrc/u8x8_d_st75256.c **** static const uint8_t u8x8_d_st75256_256x128_init_seq_x[] = {
 318:..\..\u8g2\csrc/u8x8_d_st75256.c ****     
 319:..\..\u8g2\csrc/u8x8_d_st75256.c ****   U8X8_START_TRANSFER(),             	/* enable chip, delay is part of the transfer start */
 320:..\..\u8g2\csrc/u8x8_d_st75256.c **** 
 321:..\..\u8g2\csrc/u8x8_d_st75256.c ****   U8X8_C( 0x030 ),				/* select 00 commands */
 322:..\..\u8g2\csrc/u8x8_d_st75256.c **** 
 323:..\..\u8g2\csrc/u8x8_d_st75256.c ****   U8X8_C( 0x094 ),				/* sleep out */
 324:..\..\u8g2\csrc/u8x8_d_st75256.c ****   U8X8_DLY(10),
 325:..\..\u8g2\csrc/u8x8_d_st75256.c ****   //U8X8_C( 0xae ),				/* display off */
 326:..\..\u8g2\csrc/u8x8_d_st75256.c **** 
 327:..\..\u8g2\csrc/u8x8_d_st75256.c ****   
 328:..\..\u8g2\csrc/u8x8_d_st75256.c ****   U8X8_C( 0x031 ),				/* select 01 commands */
 329:..\..\u8g2\csrc/u8x8_d_st75256.c ****   
 330:..\..\u8g2\csrc/u8x8_d_st75256.c ****   U8X8_C( 0x0d7 ),				/* OTP Auto Read */
 331:..\..\u8g2\csrc/u8x8_d_st75256.c ****   U8X8_A( 0x09f ),				/* ... disable */
 332:..\..\u8g2\csrc/u8x8_d_st75256.c ****   U8X8_C( 0x032 ),				/* analog circuit set */
 333:..\..\u8g2\csrc/u8x8_d_st75256.c ****   U8X8_A( 0x000 ),				/* code example: OSC Frequency adjustment */
 334:..\..\u8g2\csrc/u8x8_d_st75256.c ****   U8X8_A( 0x001 ),				/* Frequency on booster capacitors 1 = 6KHz? */
 335:..\..\u8g2\csrc/u8x8_d_st75256.c ****   U8X8_A( 0x000 ),				/* Bias: 1: 1/13, 2: 1/12, 3: 1/11, 4:1/10, 5:1/9 */
 336:..\..\u8g2\csrc/u8x8_d_st75256.c ****   U8X8_CA( 0x051, 0x0fb ),		/* booster level x10 */
 337:..\..\u8g2\csrc/u8x8_d_st75256.c **** 
 338:..\..\u8g2\csrc/u8x8_d_st75256.c ****   U8X8_C( 0x020 ),				/* gray levels */
 339:..\..\u8g2\csrc/u8x8_d_st75256.c ****   U8X8_A( 0x00 ),
 340:..\..\u8g2\csrc/u8x8_d_st75256.c ****   U8X8_A( 0x00 ),
 341:..\..\u8g2\csrc/u8x8_d_st75256.c ****   U8X8_A( 0x00 ),
 342:..\..\u8g2\csrc/u8x8_d_st75256.c ****   U8X8_A( 0x1f ),
 343:..\..\u8g2\csrc/u8x8_d_st75256.c ****   U8X8_A( 0x1f ),
 344:..\..\u8g2\csrc/u8x8_d_st75256.c ****   U8X8_A( 0x1f ),
 345:..\..\u8g2\csrc/u8x8_d_st75256.c ****   U8X8_A( 0x00 ),
 346:..\..\u8g2\csrc/u8x8_d_st75256.c ****   U8X8_A( 0x00 ),
 347:..\..\u8g2\csrc/u8x8_d_st75256.c ****   U8X8_A( 0x1f ),
 348:..\..\u8g2\csrc/u8x8_d_st75256.c ****   U8X8_A( 0x00 ),
 349:..\..\u8g2\csrc/u8x8_d_st75256.c ****   U8X8_A( 0x00 ),
 350:..\..\u8g2\csrc/u8x8_d_st75256.c ****   U8X8_A( 0x1f ),
 351:..\..\u8g2\csrc/u8x8_d_st75256.c ****   U8X8_A( 0x1f ),
 352:..\..\u8g2\csrc/u8x8_d_st75256.c ****   U8X8_A( 0x1f ),
 353:..\..\u8g2\csrc/u8x8_d_st75256.c ****   U8X8_A( 0x00 ),
 354:..\..\u8g2\csrc/u8x8_d_st75256.c ****   U8X8_A( 0x00 ),
 355:..\..\u8g2\csrc/u8x8_d_st75256.c **** /*
 356:..\..\u8g2\csrc/u8x8_d_st75256.c ****   U8X8_A( 0x01 ),
 357:..\..\u8g2\csrc/u8x8_d_st75256.c ****   U8X8_A( 0x03 ),
 358:..\..\u8g2\csrc/u8x8_d_st75256.c ****   U8X8_A( 0x05 ),
 359:..\..\u8g2\csrc/u8x8_d_st75256.c ****   U8X8_A( 0x07 ),
 360:..\..\u8g2\csrc/u8x8_d_st75256.c ****   U8X8_A( 0x09 ),
 361:..\..\u8g2\csrc/u8x8_d_st75256.c ****   U8X8_A( 0x0b ),
 362:..\..\u8g2\csrc/u8x8_d_st75256.c ****   U8X8_A( 0x0d ),
 363:..\..\u8g2\csrc/u8x8_d_st75256.c ****   U8X8_A( 0x10 ),
 364:..\..\u8g2\csrc/u8x8_d_st75256.c ****   U8X8_A( 0x11 ),
 365:..\..\u8g2\csrc/u8x8_d_st75256.c ****   U8X8_A( 0x13 ),
 366:..\..\u8g2\csrc/u8x8_d_st75256.c ****   U8X8_A( 0x15 ),
 367:..\..\u8g2\csrc/u8x8_d_st75256.c ****   U8X8_A( 0x17 ),
 368:..\..\u8g2\csrc/u8x8_d_st75256.c ****   U8X8_A( 0x19 ),
 369:..\..\u8g2\csrc/u8x8_d_st75256.c ****   U8X8_A( 0x1b ),
 370:..\..\u8g2\csrc/u8x8_d_st75256.c ****   U8X8_A( 0x1d ),
 371:..\..\u8g2\csrc/u8x8_d_st75256.c ****   U8X8_A( 0x1f ),
 372:..\..\u8g2\csrc/u8x8_d_st75256.c **** */
ARM GAS  C:\Users\Greg\AppData\Local\Temp\cc9sNsIh.s 			page 8


 373:..\..\u8g2\csrc/u8x8_d_st75256.c ****   U8X8_C( 0x030 ),				/* select 00 commands */
 374:..\..\u8g2\csrc/u8x8_d_st75256.c ****  
 375:..\..\u8g2\csrc/u8x8_d_st75256.c ****   U8X8_C( 0xca ),				/* display control, 3 args follow  */
 376:..\..\u8g2\csrc/u8x8_d_st75256.c ****   U8X8_A( 0x00 ),				/* no clock division */
 377:..\..\u8g2\csrc/u8x8_d_st75256.c ****   U8X8_A( 0x7f ),				/* 1/128 duty value from the DS overview page*/
 378:..\..\u8g2\csrc/u8x8_d_st75256.c ****   //U8X8_A( 0x9f ),				/* 1/160 duty value from the DS example code */
 379:..\..\u8g2\csrc/u8x8_d_st75256.c ****   U8X8_A( 0x00 ),				/* nline off */  
 380:..\..\u8g2\csrc/u8x8_d_st75256.c ****   U8X8_CA( 0x0f0, 0x011 ),		/* monochrome mode */
 381:..\..\u8g2\csrc/u8x8_d_st75256.c ****   //U8X8_C( 0x76 ),				/* ICON  */
 382:..\..\u8g2\csrc/u8x8_d_st75256.c **** 
 383:..\..\u8g2\csrc/u8x8_d_st75256.c ****   //U8X8_C( 0xd1 ),				/* OSC on  */
 384:..\..\u8g2\csrc/u8x8_d_st75256.c **** 
 385:..\..\u8g2\csrc/u8x8_d_st75256.c ****   U8X8_CAA( 0x81, 0x36, 0x05 ),	/* Volume control */
 386:..\..\u8g2\csrc/u8x8_d_st75256.c ****   U8X8_CA( 0x020, 0x00b ),		/* Power control: Regulator, follower & booster on */
 387:..\..\u8g2\csrc/u8x8_d_st75256.c ****   U8X8_DLY(10),
 388:..\..\u8g2\csrc/u8x8_d_st75256.c ****   U8X8_CA( 0xbc, 0x00 ),			/* data scan dir */
 389:..\..\u8g2\csrc/u8x8_d_st75256.c ****   
 390:..\..\u8g2\csrc/u8x8_d_st75256.c ****   U8X8_C( 0x030 ),				/* select 00 commands */
 391:..\..\u8g2\csrc/u8x8_d_st75256.c ****   U8X8_C( 0xa6 ),				/* normal display  */
 392:..\..\u8g2\csrc/u8x8_d_st75256.c ****   U8X8_C( 0x22 ),				/* all pixel off mode  */
 393:..\..\u8g2\csrc/u8x8_d_st75256.c ****   
 394:..\..\u8g2\csrc/u8x8_d_st75256.c ****   U8X8_C( 0x031 ),				/* select 01 commands */
 395:..\..\u8g2\csrc/u8x8_d_st75256.c ****   U8X8_C( 0x040 ),				/* internal power */
 396:..\..\u8g2\csrc/u8x8_d_st75256.c ****   
 397:..\..\u8g2\csrc/u8x8_d_st75256.c ****   U8X8_C( 0x030 ),				/* select 00 commands */
 398:..\..\u8g2\csrc/u8x8_d_st75256.c ****   U8X8_C( 0xaf ),				/* display on  */
 399:..\..\u8g2\csrc/u8x8_d_st75256.c ****   
 400:..\..\u8g2\csrc/u8x8_d_st75256.c ****   U8X8_C( 0x030 ),				/* select 00 commands */
 401:..\..\u8g2\csrc/u8x8_d_st75256.c ****   U8X8_C( 0x077 ),				/* enable ICON */
 402:..\..\u8g2\csrc/u8x8_d_st75256.c ****   U8X8_CAA( 0x015,0,255 ),		/* col */
 403:..\..\u8g2\csrc/u8x8_d_st75256.c ****   U8X8_C( 0x5c ),				/* write data to RAM  */
 404:..\..\u8g2\csrc/u8x8_d_st75256.c ****   U8X8_A( 0xff ),				/*  */
 405:..\..\u8g2\csrc/u8x8_d_st75256.c ****   U8X8_A( 0xff ),				/*  */
 406:..\..\u8g2\csrc/u8x8_d_st75256.c ****   U8X8_A( 0xff ),				/*  */
 407:..\..\u8g2\csrc/u8x8_d_st75256.c ****   U8X8_A( 0xff ),				/*  */
 408:..\..\u8g2\csrc/u8x8_d_st75256.c ****   U8X8_A( 0xff ),				/*  */
 409:..\..\u8g2\csrc/u8x8_d_st75256.c ****   U8X8_A( 0xff ),				/*  */
 410:..\..\u8g2\csrc/u8x8_d_st75256.c ****   U8X8_A( 0xff ),				/*  */
 411:..\..\u8g2\csrc/u8x8_d_st75256.c ****   U8X8_A( 0xff ),				/*  */
 412:..\..\u8g2\csrc/u8x8_d_st75256.c ****   U8X8_C( 0x076 ),				/* disable ICON */
 413:..\..\u8g2\csrc/u8x8_d_st75256.c ****   
 414:..\..\u8g2\csrc/u8x8_d_st75256.c **** 
 415:..\..\u8g2\csrc/u8x8_d_st75256.c **** 
 416:..\..\u8g2\csrc/u8x8_d_st75256.c ****   U8X8_C( 0x030 ),				/* select 00 commands */
 417:..\..\u8g2\csrc/u8x8_d_st75256.c ****   U8X8_CAA(0x75, 1, 2),		/* row range */
 418:..\..\u8g2\csrc/u8x8_d_st75256.c ****   U8X8_CAA(0x15, 0, 50),		/* col range */
 419:..\..\u8g2\csrc/u8x8_d_st75256.c ****   U8X8_C( 0x030 ),				/* select 00 commands */
 420:..\..\u8g2\csrc/u8x8_d_st75256.c ****   U8X8_C( 0x5c ),				/* write data to RAM  */
 421:..\..\u8g2\csrc/u8x8_d_st75256.c ****   U8X8_A( 0xff ),				/*  */
 422:..\..\u8g2\csrc/u8x8_d_st75256.c ****   U8X8_A( 0xfc ),				/*  */
 423:..\..\u8g2\csrc/u8x8_d_st75256.c ****   U8X8_A( 0xf0 ),				/*  */
 424:..\..\u8g2\csrc/u8x8_d_st75256.c ****   U8X8_A( 0xc0 ),				/*  */
 425:..\..\u8g2\csrc/u8x8_d_st75256.c ****   U8X8_A( 0xf0 ),				/*  */
 426:..\..\u8g2\csrc/u8x8_d_st75256.c ****   U8X8_A( 0xfc ),				/*  */
 427:..\..\u8g2\csrc/u8x8_d_st75256.c ****   U8X8_A( 0xff ),				/*  */
 428:..\..\u8g2\csrc/u8x8_d_st75256.c ****   U8X8_A( 0xfc ),				/*  */
 429:..\..\u8g2\csrc/u8x8_d_st75256.c ****   U8X8_A( 0xf0 ),				/*  */
ARM GAS  C:\Users\Greg\AppData\Local\Temp\cc9sNsIh.s 			page 9


 430:..\..\u8g2\csrc/u8x8_d_st75256.c ****   U8X8_A( 0xc0 ),				/*  */
 431:..\..\u8g2\csrc/u8x8_d_st75256.c ****   U8X8_A( 0xf0 ),				/*  */
 432:..\..\u8g2\csrc/u8x8_d_st75256.c ****   U8X8_A( 0xfc ),				/*  */
 433:..\..\u8g2\csrc/u8x8_d_st75256.c ****   U8X8_A( 0xff ),				/*  */
 434:..\..\u8g2\csrc/u8x8_d_st75256.c ****   U8X8_A( 0xff ),				/*  */
 435:..\..\u8g2\csrc/u8x8_d_st75256.c ****   U8X8_A( 0xff ),				/*  */
 436:..\..\u8g2\csrc/u8x8_d_st75256.c ****   U8X8_A( 0xff ),				/*  */
 437:..\..\u8g2\csrc/u8x8_d_st75256.c ****   U8X8_A( 0xff ),				/*  */
 438:..\..\u8g2\csrc/u8x8_d_st75256.c ****   U8X8_A( 0xff ),				/*  */
 439:..\..\u8g2\csrc/u8x8_d_st75256.c ****   U8X8_A( 0xff ),				/*  */
 440:..\..\u8g2\csrc/u8x8_d_st75256.c ****   U8X8_A( 0xff ),				/*  */
 441:..\..\u8g2\csrc/u8x8_d_st75256.c ****   U8X8_A( 0xff ),				/*  */
 442:..\..\u8g2\csrc/u8x8_d_st75256.c ****   U8X8_A( 0xff ),				/*  */
 443:..\..\u8g2\csrc/u8x8_d_st75256.c ****   U8X8_A( 0xff ),				/*  */
 444:..\..\u8g2\csrc/u8x8_d_st75256.c ****   U8X8_A( 0xff ),				/*  */
 445:..\..\u8g2\csrc/u8x8_d_st75256.c ****   U8X8_A( 0xff ),				/*  */
 446:..\..\u8g2\csrc/u8x8_d_st75256.c ****   U8X8_A( 0xff ),				/*  */
 447:..\..\u8g2\csrc/u8x8_d_st75256.c ****   U8X8_A( 0xff ),				/*  */
 448:..\..\u8g2\csrc/u8x8_d_st75256.c ****   U8X8_A( 0xff ),				/*  */
 449:..\..\u8g2\csrc/u8x8_d_st75256.c ****   U8X8_A( 0xff ),				/*  */
 450:..\..\u8g2\csrc/u8x8_d_st75256.c ****   U8X8_A( 0xff ),				/*  */
 451:..\..\u8g2\csrc/u8x8_d_st75256.c ****   U8X8_A( 0xff ),				/*  */
 452:..\..\u8g2\csrc/u8x8_d_st75256.c ****   U8X8_A( 0xff ),				/*  */
 453:..\..\u8g2\csrc/u8x8_d_st75256.c ****   
 454:..\..\u8g2\csrc/u8x8_d_st75256.c ****     
 455:..\..\u8g2\csrc/u8x8_d_st75256.c ****   U8X8_END_TRANSFER(),             	/* disable chip */
 456:..\..\u8g2\csrc/u8x8_d_st75256.c ****   U8X8_END()             			/* end of sequence */
 457:..\..\u8g2\csrc/u8x8_d_st75256.c **** };
 458:..\..\u8g2\csrc/u8x8_d_st75256.c **** 
 459:..\..\u8g2\csrc/u8x8_d_st75256.c **** 
 460:..\..\u8g2\csrc/u8x8_d_st75256.c **** static const uint8_t u8x8_d_st75256_jlx12864_flip0_seq[] = {
 461:..\..\u8g2\csrc/u8x8_d_st75256.c ****   U8X8_START_TRANSFER(),             	/* enable chip, delay is part of the transfer start */
 462:..\..\u8g2\csrc/u8x8_d_st75256.c ****   U8X8_C( 0x030 ),				/* select 00 commands */
 463:..\..\u8g2\csrc/u8x8_d_st75256.c ****   U8X8_END_TRANSFER(),             	/* disable chip */
 464:..\..\u8g2\csrc/u8x8_d_st75256.c ****   U8X8_END()             			/* end of sequence */
 465:..\..\u8g2\csrc/u8x8_d_st75256.c **** };
 466:..\..\u8g2\csrc/u8x8_d_st75256.c **** 
 467:..\..\u8g2\csrc/u8x8_d_st75256.c **** static const uint8_t u8x8_d_st75256_jlx12864_flip1_seq[] = {
 468:..\..\u8g2\csrc/u8x8_d_st75256.c ****   U8X8_START_TRANSFER(),             	/* enable chip, delay is part of the transfer start */
 469:..\..\u8g2\csrc/u8x8_d_st75256.c ****   U8X8_C( 0x030 ),				/* select 00 commands */
 470:..\..\u8g2\csrc/u8x8_d_st75256.c ****   U8X8_END_TRANSFER(),             	/* disable chip */
 471:..\..\u8g2\csrc/u8x8_d_st75256.c ****   U8X8_END()             			/* end of sequence */
 472:..\..\u8g2\csrc/u8x8_d_st75256.c **** };
 473:..\..\u8g2\csrc/u8x8_d_st75256.c **** 
 474:..\..\u8g2\csrc/u8x8_d_st75256.c **** 
 475:..\..\u8g2\csrc/u8x8_d_st75256.c **** uint8_t u8x8_d_st75256_jlx256128(u8x8_t *u8x8, uint8_t msg, uint8_t arg_int, void *arg_ptr)
 476:..\..\u8g2\csrc/u8x8_d_st75256.c **** {
  28              		.loc 1 476 0
  29              		.cfi_startproc
  30              		@ args = 0, pretend = 0, frame = 8
  31              		@ frame_needed = 0, uses_anonymous_args = 0
  32              	.LVL0:
  33 0000 F7B5     		push	{r0, r1, r2, r4, r5, r6, r7, lr}
  34              		.cfi_def_cfa_offset 32
  35              		.cfi_offset 0, -32
  36              		.cfi_offset 1, -28
  37              		.cfi_offset 2, -24
ARM GAS  C:\Users\Greg\AppData\Local\Temp\cc9sNsIh.s 			page 10


  38              		.cfi_offset 4, -20
  39              		.cfi_offset 5, -16
  40              		.cfi_offset 6, -12
  41              		.cfi_offset 7, -8
  42              		.cfi_offset 14, -4
  43              		.loc 1 476 0
  44 0002 0400     		movs	r4, r0
  45 0004 1500     		movs	r5, r2
  46 0006 1F00     		movs	r7, r3
  47              	.LVL1:
  48              	.LBB4:
  49              	.LBB5:
  74:..\..\u8g2\csrc/u8x8_d_st75256.c ****   {
  50              		.loc 1 74 0
  51 0008 0E29     		cmp	r1, #14
  52 000a 0BD0     		beq	.L3
  53 000c 0F29     		cmp	r1, #15
  54 000e 1ED0     		beq	.L4
  55 0010 0B29     		cmp	r1, #11
  56 0012 60D1     		bne	.L19
  57 0014 4649     		ldr	r1, .L25
  58              	.LVL2:
  88:..\..\u8g2\csrc/u8x8_d_st75256.c **** 	u8x8_cad_SendSequence(u8x8, u8x8_d_st75256_256x128_powersave0_seq);
  59              		.loc 1 88 0
  60 0016 002A     		cmp	r2, #0
  61 0018 00D0     		beq	.L22
  91:..\..\u8g2\csrc/u8x8_d_st75256.c **** 
  62              		.loc 1 91 0
  63 001a 0B31     		adds	r1, r1, #11
  64              	.L22:
  65 001c 2000     		movs	r0, r4
  66              	.LVL3:
  67 001e FFF7FEFF 		bl	u8x8_cad_SendSequence
  68              	.LVL4:
  69 0022 62E0     		b	.L7
  70              	.LVL5:
  71              	.L3:
  97:..\..\u8g2\csrc/u8x8_d_st75256.c ****       
  72              		.loc 1 97 0
  73 0024 FFF7FEFF 		bl	u8x8_cad_StartTransfer
  74              	.LVL6:
  99:..\..\u8g2\csrc/u8x8_d_st75256.c ****       u8x8_cad_SendCmd(u8x8, 0x081 );  /* there are 9 bit for the volume control */
  75              		.loc 1 99 0
  76 0028 3021     		movs	r1, #48
  77 002a 2000     		movs	r0, r4
  78 002c FFF7FEFF 		bl	u8x8_cad_SendCmd
  79              	.LVL7:
 100:..\..\u8g2\csrc/u8x8_d_st75256.c ****       u8x8_cad_SendArg(u8x8, (arg_int & 0x1f)<<1 );	/* lower 6 bit */
  80              		.loc 1 100 0
  81 0030 8121     		movs	r1, #129
  82 0032 2000     		movs	r0, r4
  83 0034 FFF7FEFF 		bl	u8x8_cad_SendCmd
  84              	.LVL8:
 101:..\..\u8g2\csrc/u8x8_d_st75256.c ****       u8x8_cad_SendArg(u8x8, (arg_int>>5));		/* upper 3 bit */
  85              		.loc 1 101 0
  86 0038 3E23     		movs	r3, #62
  87 003a 6900     		lsls	r1, r5, #1
ARM GAS  C:\Users\Greg\AppData\Local\Temp\cc9sNsIh.s 			page 11


  88 003c 1940     		ands	r1, r3
  89 003e 2000     		movs	r0, r4
  90 0040 FFF7FEFF 		bl	u8x8_cad_SendArg
  91              	.LVL9:
 102:..\..\u8g2\csrc/u8x8_d_st75256.c ****       
  92              		.loc 1 102 0
  93 0044 6909     		lsrs	r1, r5, #5
  94 0046 2000     		movs	r0, r4
  95 0048 FFF7FEFF 		bl	u8x8_cad_SendArg
  96              	.LVL10:
  97 004c 3FE0     		b	.L21
  98              	.LVL11:
  99              	.L4:
 109:..\..\u8g2\csrc/u8x8_d_st75256.c ****       x = ((u8x8_tile_t *)arg_ptr)->x_pos;    
 100              		.loc 1 109 0
 101 004e FFF7FEFF 		bl	u8x8_cad_StartTransfer
 102              	.LVL12:
 110:..\..\u8g2\csrc/u8x8_d_st75256.c ****       x *= 8;
 103              		.loc 1 110 0
 104 0052 7E79     		ldrb	r6, [r7, #5]
 105              	.LVL13:
 113:..\..\u8g2\csrc/u8x8_d_st75256.c **** 	
 106              		.loc 1 113 0
 107 0054 A37F     		ldrb	r3, [r4, #30]
 115:..\..\u8g2\csrc/u8x8_d_st75256.c ****       u8x8_cad_SendCmd(u8x8, 0x075 );	/* row */
 108              		.loc 1 115 0
 109 0056 3021     		movs	r1, #48
 111:..\..\u8g2\csrc/u8x8_d_st75256.c ****       
 110              		.loc 1 111 0
 111 0058 F600     		lsls	r6, r6, #3
 112              	.LVL14:
 115:..\..\u8g2\csrc/u8x8_d_st75256.c ****       u8x8_cad_SendCmd(u8x8, 0x075 );	/* row */
 113              		.loc 1 115 0
 114 005a 2000     		movs	r0, r4
 113:..\..\u8g2\csrc/u8x8_d_st75256.c **** 	
 115              		.loc 1 113 0
 116 005c F618     		adds	r6, r6, r3
 117              	.LVL15:
 115:..\..\u8g2\csrc/u8x8_d_st75256.c ****       u8x8_cad_SendCmd(u8x8, 0x075 );	/* row */
 118              		.loc 1 115 0
 119 005e FFF7FEFF 		bl	u8x8_cad_SendCmd
 120              	.LVL16:
 116:..\..\u8g2\csrc/u8x8_d_st75256.c ****       u8x8_cad_SendArg(u8x8, (((u8x8_tile_t *)arg_ptr)->y_pos));
 121              		.loc 1 116 0
 122 0062 7521     		movs	r1, #117
 123 0064 2000     		movs	r0, r4
 124 0066 FFF7FEFF 		bl	u8x8_cad_SendCmd
 125              	.LVL17:
 117:..\..\u8g2\csrc/u8x8_d_st75256.c ****       u8x8_cad_SendArg(u8x8, (((u8x8_tile_t *)arg_ptr)->y_pos));
 126              		.loc 1 117 0
 127 006a B979     		ldrb	r1, [r7, #6]
 128 006c 2000     		movs	r0, r4
 129 006e FFF7FEFF 		bl	u8x8_cad_SendArg
 130              	.LVL18:
 118:..\..\u8g2\csrc/u8x8_d_st75256.c ****       u8x8_cad_SendCmd(u8x8, 0x015 );	/* col */
 131              		.loc 1 118 0
 132 0072 B979     		ldrb	r1, [r7, #6]
ARM GAS  C:\Users\Greg\AppData\Local\Temp\cc9sNsIh.s 			page 12


 133 0074 2000     		movs	r0, r4
 134 0076 FFF7FEFF 		bl	u8x8_cad_SendArg
 135              	.LVL19:
 113:..\..\u8g2\csrc/u8x8_d_st75256.c **** 	
 136              		.loc 1 113 0
 137 007a F6B2     		uxtb	r6, r6
 138              	.LVL20:
 119:..\..\u8g2\csrc/u8x8_d_st75256.c ****       u8x8_cad_SendArg(u8x8, x);
 139              		.loc 1 119 0
 140 007c 1521     		movs	r1, #21
 141 007e 2000     		movs	r0, r4
 142 0080 FFF7FEFF 		bl	u8x8_cad_SendCmd
 143              	.LVL21:
 120:..\..\u8g2\csrc/u8x8_d_st75256.c ****       u8x8_cad_SendArg(u8x8, 255);
 144              		.loc 1 120 0
 145 0084 3100     		movs	r1, r6
 146 0086 2000     		movs	r0, r4
 147 0088 FFF7FEFF 		bl	u8x8_cad_SendArg
 148              	.LVL22:
 121:..\..\u8g2\csrc/u8x8_d_st75256.c ****       u8x8_cad_SendCmd(u8x8, 0x05c );	
 149              		.loc 1 121 0
 150 008c FF21     		movs	r1, #255
 151 008e 2000     		movs	r0, r4
 152 0090 FFF7FEFF 		bl	u8x8_cad_SendArg
 153              	.LVL23:
 122:..\..\u8g2\csrc/u8x8_d_st75256.c ****     
 154              		.loc 1 122 0
 155 0094 5C21     		movs	r1, #92
 156 0096 2000     		movs	r0, r4
 157 0098 FFF7FEFF 		bl	u8x8_cad_SendCmd
 158              	.LVL24:
 159              	.L9:
 127:..\..\u8g2\csrc/u8x8_d_st75256.c **** 	ptr = ((u8x8_tile_t *)arg_ptr)->tile_ptr;
 160              		.loc 1 127 0
 161 009c 3E79     		ldrb	r6, [r7, #4]
 162              	.LVL25:
 128:..\..\u8g2\csrc/u8x8_d_st75256.c **** 	/* SendData can not handle more than 255 bytes, treat c > 31 correctly  */
 163              		.loc 1 128 0
 164 009e 3B68     		ldr	r3, [r7]
 165 00a0 0193     		str	r3, [sp, #4]
 166              	.LVL26:
 130:..\..\u8g2\csrc/u8x8_d_st75256.c **** 	{
 167              		.loc 1 130 0
 168 00a2 1F2E     		cmp	r6, #31
 169 00a4 09D9     		bls	.L8
 132:..\..\u8g2\csrc/u8x8_d_st75256.c **** 	  ptr+=248;
 170              		.loc 1 132 0
 171 00a6 1A00     		movs	r2, r3
 172 00a8 F821     		movs	r1, #248
 173 00aa 2000     		movs	r0, r4
 174 00ac FFF7FEFF 		bl	u8x8_cad_SendData
 175              	.LVL27:
 133:..\..\u8g2\csrc/u8x8_d_st75256.c **** 	  c -= 31;
 176              		.loc 1 133 0
 177 00b0 019B     		ldr	r3, [sp, #4]
 134:..\..\u8g2\csrc/u8x8_d_st75256.c **** 	}
 178              		.loc 1 134 0
ARM GAS  C:\Users\Greg\AppData\Local\Temp\cc9sNsIh.s 			page 13


 179 00b2 1F3E     		subs	r6, r6, #31
 180              	.LVL28:
 133:..\..\u8g2\csrc/u8x8_d_st75256.c **** 	  c -= 31;
 181              		.loc 1 133 0
 182 00b4 F833     		adds	r3, r3, #248
 183 00b6 0193     		str	r3, [sp, #4]
 184              	.LVL29:
 134:..\..\u8g2\csrc/u8x8_d_st75256.c **** 	}
 185              		.loc 1 134 0
 186 00b8 F6B2     		uxtb	r6, r6
 187              	.LVL30:
 188              	.L8:
 136:..\..\u8g2\csrc/u8x8_d_st75256.c **** 	arg_int--;
 189              		.loc 1 136 0
 190 00ba F600     		lsls	r6, r6, #3
 191              	.LVL31:
 137:..\..\u8g2\csrc/u8x8_d_st75256.c ****       } while( arg_int > 0 );
 192              		.loc 1 137 0
 193 00bc 013D     		subs	r5, r5, #1
 194              	.LVL32:
 136:..\..\u8g2\csrc/u8x8_d_st75256.c **** 	arg_int--;
 195              		.loc 1 136 0
 196 00be F1B2     		uxtb	r1, r6
 197 00c0 019A     		ldr	r2, [sp, #4]
 198 00c2 2000     		movs	r0, r4
 137:..\..\u8g2\csrc/u8x8_d_st75256.c ****       } while( arg_int > 0 );
 199              		.loc 1 137 0
 200 00c4 EDB2     		uxtb	r5, r5
 136:..\..\u8g2\csrc/u8x8_d_st75256.c **** 	arg_int--;
 201              		.loc 1 136 0
 202 00c6 FFF7FEFF 		bl	u8x8_cad_SendData
 203              	.LVL33:
 138:..\..\u8g2\csrc/u8x8_d_st75256.c ****       
 204              		.loc 1 138 0
 205 00ca 002D     		cmp	r5, #0
 206 00cc E6D1     		bne	.L9
 207              	.LVL34:
 208              	.L21:
 140:..\..\u8g2\csrc/u8x8_d_st75256.c ****       break;
 209              		.loc 1 140 0
 210 00ce 2000     		movs	r0, r4
 211 00d0 FFF7FEFF 		bl	u8x8_cad_EndTransfer
 212              	.LVL35:
 213 00d4 09E0     		b	.L7
 214              	.LVL36:
 215              	.L19:
 216              	.LBE5:
 217              	.LBE4:
 477:..\..\u8g2\csrc/u8x8_d_st75256.c ****   if ( u8x8_d_st75256_256x128_generic(u8x8, msg, arg_int, arg_ptr) != 0 )
 478:..\..\u8g2\csrc/u8x8_d_st75256.c ****     return 1;
 479:..\..\u8g2\csrc/u8x8_d_st75256.c ****   if ( msg == U8X8_MSG_DISPLAY_SETUP_MEMORY )
 218              		.loc 1 479 0
 219 00d6 0929     		cmp	r1, #9
 220 00d8 09D1     		bne	.L20
 480:..\..\u8g2\csrc/u8x8_d_st75256.c ****   {
 481:..\..\u8g2\csrc/u8x8_d_st75256.c ****     u8x8_SetI2CAddress(u8x8, 0x078);		/* lowest I2C adr of the ST75256 */
 221              		.loc 1 481 0
ARM GAS  C:\Users\Greg\AppData\Local\Temp\cc9sNsIh.s 			page 14


 222 00da 7822     		movs	r2, #120
 223              	.LVL37:
 482:..\..\u8g2\csrc/u8x8_d_st75256.c ****     u8x8_d_helper_display_setup_memory(u8x8, &u8x8_st75256_256x128_display_info);
 224              		.loc 1 482 0
 225 00dc 1449     		ldr	r1, .L25
 226              	.LVL38:
 481:..\..\u8g2\csrc/u8x8_d_st75256.c ****     u8x8_d_helper_display_setup_memory(u8x8, &u8x8_st75256_256x128_display_info);
 227              		.loc 1 481 0
 228 00de 631C     		adds	r3, r4, #1
 229              	.LVL39:
 230 00e0 DA77     		strb	r2, [r3, #31]
 231              		.loc 1 482 0
 232 00e2 1431     		adds	r1, r1, #20
 233 00e4 2000     		movs	r0, r4
 234              	.LVL40:
 235 00e6 FFF7FEFF 		bl	u8x8_d_helper_display_setup_memory
 236              	.LVL41:
 237              	.L7:
 478:..\..\u8g2\csrc/u8x8_d_st75256.c ****   if ( msg == U8X8_MSG_DISPLAY_SETUP_MEMORY )
 238              		.loc 1 478 0
 239 00ea 0120     		movs	r0, #1
 240 00ec 1FE0     		b	.L17
 241              	.LVL42:
 242              	.L20:
 483:..\..\u8g2\csrc/u8x8_d_st75256.c ****     return 1;
 484:..\..\u8g2\csrc/u8x8_d_st75256.c ****   }
 485:..\..\u8g2\csrc/u8x8_d_st75256.c ****   else if ( msg == U8X8_MSG_DISPLAY_INIT )
 243              		.loc 1 485 0
 244 00ee 0A29     		cmp	r1, #10
 245 00f0 08D1     		bne	.L11
 486:..\..\u8g2\csrc/u8x8_d_st75256.c ****   {
 487:..\..\u8g2\csrc/u8x8_d_st75256.c ****     u8x8_d_helper_display_init(u8x8);
 246              		.loc 1 487 0
 247 00f2 2000     		movs	r0, r4
 248              	.LVL43:
 249 00f4 FFF7FEFF 		bl	u8x8_d_helper_display_init
 250              	.LVL44:
 488:..\..\u8g2\csrc/u8x8_d_st75256.c ****     u8x8_cad_SendSequence(u8x8, u8x8_d_st75256_256x128_init_seq);    
 251              		.loc 1 488 0
 252 00f8 0D49     		ldr	r1, .L25
 253 00fa 2000     		movs	r0, r4
 254 00fc 2C31     		adds	r1, r1, #44
 255 00fe FFF7FEFF 		bl	u8x8_cad_SendSequence
 256              	.LVL45:
 257              	.L12:
 258 0102 FEE7     		b	.L12
 259              	.LVL46:
 260              	.L11:
 489:..\..\u8g2\csrc/u8x8_d_st75256.c ****     for(;;)
 490:..\..\u8g2\csrc/u8x8_d_st75256.c ****       ;
 491:..\..\u8g2\csrc/u8x8_d_st75256.c ****     return 1;
 492:..\..\u8g2\csrc/u8x8_d_st75256.c ****   }
 493:..\..\u8g2\csrc/u8x8_d_st75256.c ****   else if  ( msg == U8X8_MSG_DISPLAY_SET_FLIP_MODE )
 494:..\..\u8g2\csrc/u8x8_d_st75256.c ****   {
 495:..\..\u8g2\csrc/u8x8_d_st75256.c ****     if ( arg_int == 0 )
 496:..\..\u8g2\csrc/u8x8_d_st75256.c ****     {
 497:..\..\u8g2\csrc/u8x8_d_st75256.c ****       u8x8_cad_SendSequence(u8x8, u8x8_d_st75256_jlx12864_flip0_seq);
ARM GAS  C:\Users\Greg\AppData\Local\Temp\cc9sNsIh.s 			page 15


 498:..\..\u8g2\csrc/u8x8_d_st75256.c ****       u8x8->x_offset = u8x8->display_info->default_x_offset;
 499:..\..\u8g2\csrc/u8x8_d_st75256.c ****     }
 500:..\..\u8g2\csrc/u8x8_d_st75256.c ****     else
 501:..\..\u8g2\csrc/u8x8_d_st75256.c ****     {
 502:..\..\u8g2\csrc/u8x8_d_st75256.c ****       u8x8_cad_SendSequence(u8x8, u8x8_d_st75256_jlx12864_flip1_seq);
 503:..\..\u8g2\csrc/u8x8_d_st75256.c ****       u8x8->x_offset = u8x8->display_info->flipmode_x_offset;
 504:..\..\u8g2\csrc/u8x8_d_st75256.c ****     }
 505:..\..\u8g2\csrc/u8x8_d_st75256.c ****     return 1;
 506:..\..\u8g2\csrc/u8x8_d_st75256.c ****   }
 507:..\..\u8g2\csrc/u8x8_d_st75256.c ****   return 0;
 261              		.loc 1 507 0
 262 0104 0020     		movs	r0, #0
 263              	.LVL47:
 493:..\..\u8g2\csrc/u8x8_d_st75256.c ****   {
 264              		.loc 1 493 0
 265 0106 0D29     		cmp	r1, #13
 266 0108 11D1     		bne	.L17
 267 010a 0A49     		ldr	r1, .L25+4
 268              	.LVL48:
 495:..\..\u8g2\csrc/u8x8_d_st75256.c ****     {
 269              		.loc 1 495 0
 270 010c 8542     		cmp	r5, r0
 271 010e 06D1     		bne	.L13
 497:..\..\u8g2\csrc/u8x8_d_st75256.c ****       u8x8->x_offset = u8x8->display_info->default_x_offset;
 272              		.loc 1 497 0
 273 0110 2531     		adds	r1, r1, #37
 274 0112 2000     		movs	r0, r4
 275 0114 FFF7FEFF 		bl	u8x8_cad_SendSequence
 276              	.LVL49:
 498:..\..\u8g2\csrc/u8x8_d_st75256.c ****     }
 277              		.loc 1 498 0
 278 0118 2368     		ldr	r3, [r4]
 279 011a 9B7C     		ldrb	r3, [r3, #18]
 280 011c 05E0     		b	.L23
 281              	.LVL50:
 282              	.L13:
 502:..\..\u8g2\csrc/u8x8_d_st75256.c ****       u8x8->x_offset = u8x8->display_info->flipmode_x_offset;
 283              		.loc 1 502 0
 284 011e 2A31     		adds	r1, r1, #42
 285 0120 2000     		movs	r0, r4
 286 0122 FFF7FEFF 		bl	u8x8_cad_SendSequence
 287              	.LVL51:
 503:..\..\u8g2\csrc/u8x8_d_st75256.c ****     }
 288              		.loc 1 503 0
 289 0126 2368     		ldr	r3, [r4]
 290 0128 DB7C     		ldrb	r3, [r3, #19]
 291              	.L23:
 292 012a A377     		strb	r3, [r4, #30]
 293 012c DDE7     		b	.L7
 294              	.L17:
 508:..\..\u8g2\csrc/u8x8_d_st75256.c **** }
 295              		.loc 1 508 0
 296              		@ sp needed
 297              	.LVL52:
 298              	.LVL53:
 299 012e FEBD     		pop	{r1, r2, r3, r4, r5, r6, r7, pc}
 300              	.L26:
ARM GAS  C:\Users\Greg\AppData\Local\Temp\cc9sNsIh.s 			page 16


 301              		.align	2
 302              	.L25:
 303 0130 00000000 		.word	.LANCHOR0
 304 0134 00010000 		.word	.LANCHOR1
 305              		.cfi_endproc
 306              	.LFE1:
 307              		.size	u8x8_d_st75256_jlx256128, .-u8x8_d_st75256_jlx256128
 308              		.section	.rodata
 309              		.align	2
 310              		.set	.LANCHOR0,. + 0
 311              		.set	.LANCHOR1,. + 256
 312              		.type	u8x8_d_st75256_256x128_powersave0_seq, %object
 313              		.size	u8x8_d_st75256_256x128_powersave0_seq, 11
 314              	u8x8_d_st75256_256x128_powersave0_seq:
 315 0000 18       		.byte	24
 316 0001 15       		.byte	21
 317 0002 30       		.byte	48
 318 0003 15       		.byte	21
 319 0004 94       		.byte	-108
 320 0005 FE       		.byte	-2
 321 0006 0A       		.byte	10
 322 0007 15       		.byte	21
 323 0008 AF       		.byte	-81
 324 0009 19       		.byte	25
 325 000a FF       		.byte	-1
 326              		.type	u8x8_d_st75256_256x128_powersave1_seq, %object
 327              		.size	u8x8_d_st75256_256x128_powersave1_seq, 9
 328              	u8x8_d_st75256_256x128_powersave1_seq:
 329 000b 18       		.byte	24
 330 000c 15       		.byte	21
 331 000d 30       		.byte	48
 332 000e 15       		.byte	21
 333 000f AE       		.byte	-82
 334 0010 15       		.byte	21
 335 0011 95       		.byte	-107
 336 0012 19       		.byte	25
 337 0013 FF       		.byte	-1
 338              		.type	u8x8_st75256_256x128_display_info, %object
 339              		.size	u8x8_st75256_256x128_display_info, 24
 340              	u8x8_st75256_256x128_display_info:
 341 0014 00       		.byte	0
 342 0015 01       		.byte	1
 343 0016 14       		.byte	20
 344 0017 14       		.byte	20
 345 0018 05       		.byte	5
 346 0019 05       		.byte	5
 347 001a 14       		.byte	20
 348 001b 28       		.byte	40
 349 001c 00093D00 		.word	4000000
 350 0020 00       		.byte	0
 351 0021 04       		.byte	4
 352 0022 0F       		.byte	15
 353 0023 46       		.byte	70
 354 0024 20       		.byte	32
 355 0025 10       		.byte	16
 356 0026 00       		.byte	0
 357 0027 00       		.byte	0
ARM GAS  C:\Users\Greg\AppData\Local\Temp\cc9sNsIh.s 			page 17


 358 0028 0001     		.short	256
 359 002a 8000     		.short	128
 360              		.type	u8x8_d_st75256_256x128_init_seq, %object
 361              		.size	u8x8_d_st75256_256x128_init_seq, 249
 362              	u8x8_d_st75256_256x128_init_seq:
 363 002c 18       		.byte	24
 364 002d FE       		.byte	-2
 365 002e 78       		.byte	120
 366 002f 15       		.byte	21
 367 0030 30       		.byte	48
 368 0031 15       		.byte	21
 369 0032 6E       		.byte	110
 370 0033 15       		.byte	21
 371 0034 31       		.byte	49
 372 0035 15       		.byte	21
 373 0036 D7       		.byte	-41
 374 0037 16       		.byte	22
 375 0038 9F       		.byte	-97
 376 0039 FE       		.byte	-2
 377 003a 14       		.byte	20
 378 003b 15       		.byte	21
 379 003c 31       		.byte	49
 380 003d 15       		.byte	21
 381 003e E0       		.byte	-32
 382 003f 16       		.byte	22
 383 0040 00       		.byte	0
 384 0041 FE       		.byte	-2
 385 0042 14       		.byte	20
 386 0043 15       		.byte	21
 387 0044 31       		.byte	49
 388 0045 15       		.byte	21
 389 0046 E3       		.byte	-29
 390 0047 FE       		.byte	-2
 391 0048 14       		.byte	20
 392 0049 15       		.byte	21
 393 004a 31       		.byte	49
 394 004b 15       		.byte	21
 395 004c E1       		.byte	-31
 396 004d FE       		.byte	-2
 397 004e 14       		.byte	20
 398 004f 15       		.byte	21
 399 0050 30       		.byte	48
 400 0051 15       		.byte	21
 401 0052 94       		.byte	-108
 402 0053 FE       		.byte	-2
 403 0054 0A       		.byte	10
 404 0055 15       		.byte	21
 405 0056 30       		.byte	48
 406 0057 15       		.byte	21
 407 0058 AE       		.byte	-82
 408 0059 FE       		.byte	-2
 409 005a 0A       		.byte	10
 410 005b 15       		.byte	21
 411 005c 30       		.byte	48
 412 005d 15       		.byte	21
 413 005e 20       		.byte	32
 414 005f 16       		.byte	22
ARM GAS  C:\Users\Greg\AppData\Local\Temp\cc9sNsIh.s 			page 18


 415 0060 0B       		.byte	11
 416 0061 FE       		.byte	-2
 417 0062 0A       		.byte	10
 418 0063 15       		.byte	21
 419 0064 30       		.byte	48
 420 0065 15       		.byte	21
 421 0066 81       		.byte	-127
 422 0067 16       		.byte	22
 423 0068 36       		.byte	54
 424 0069 16       		.byte	22
 425 006a 05       		.byte	5
 426 006b 15       		.byte	21
 427 006c 31       		.byte	49
 428 006d 15       		.byte	21
 429 006e 20       		.byte	32
 430 006f 16       		.byte	22
 431 0070 00       		.byte	0
 432 0071 16       		.byte	22
 433 0072 00       		.byte	0
 434 0073 16       		.byte	22
 435 0074 00       		.byte	0
 436 0075 16       		.byte	22
 437 0076 17       		.byte	23
 438 0077 16       		.byte	22
 439 0078 17       		.byte	23
 440 0079 16       		.byte	22
 441 007a 17       		.byte	23
 442 007b 16       		.byte	22
 443 007c 00       		.byte	0
 444 007d 16       		.byte	22
 445 007e 00       		.byte	0
 446 007f 16       		.byte	22
 447 0080 1D       		.byte	29
 448 0081 16       		.byte	22
 449 0082 00       		.byte	0
 450 0083 16       		.byte	22
 451 0084 00       		.byte	0
 452 0085 16       		.byte	22
 453 0086 1D       		.byte	29
 454 0087 16       		.byte	22
 455 0088 1D       		.byte	29
 456 0089 16       		.byte	22
 457 008a 1D       		.byte	29
 458 008b 16       		.byte	22
 459 008c 00       		.byte	0
 460 008d 16       		.byte	22
 461 008e 00       		.byte	0
 462 008f 15       		.byte	21
 463 0090 31       		.byte	49
 464 0091 15       		.byte	21
 465 0092 32       		.byte	50
 466 0093 16       		.byte	22
 467 0094 00       		.byte	0
 468 0095 16       		.byte	22
 469 0096 01       		.byte	1
 470 0097 16       		.byte	22
 471 0098 00       		.byte	0
ARM GAS  C:\Users\Greg\AppData\Local\Temp\cc9sNsIh.s 			page 19


 472 0099 15       		.byte	21
 473 009a 31       		.byte	49
 474 009b 15       		.byte	21
 475 009c 51       		.byte	81
 476 009d 16       		.byte	22
 477 009e FB       		.byte	-5
 478 009f 15       		.byte	21
 479 00a0 30       		.byte	48
 480 00a1 15       		.byte	21
 481 00a2 F0       		.byte	-16
 482 00a3 16       		.byte	22
 483 00a4 11       		.byte	17
 484 00a5 15       		.byte	21
 485 00a6 30       		.byte	48
 486 00a7 15       		.byte	21
 487 00a8 CA       		.byte	-54
 488 00a9 16       		.byte	22
 489 00aa 00       		.byte	0
 490 00ab 16       		.byte	22
 491 00ac 7F       		.byte	127
 492 00ad 16       		.byte	22
 493 00ae 00       		.byte	0
 494 00af 15       		.byte	21
 495 00b0 30       		.byte	48
 496 00b1 15       		.byte	21
 497 00b2 BC       		.byte	-68
 498 00b3 16       		.byte	22
 499 00b4 00       		.byte	0
 500 00b5 15       		.byte	21
 501 00b6 31       		.byte	49
 502 00b7 15       		.byte	21
 503 00b8 40       		.byte	64
 504 00b9 15       		.byte	21
 505 00ba 30       		.byte	48
 506 00bb 15       		.byte	21
 507 00bc A6       		.byte	-90
 508 00bd 15       		.byte	21
 509 00be 22       		.byte	34
 510 00bf 15       		.byte	21
 511 00c0 AF       		.byte	-81
 512 00c1 15       		.byte	21
 513 00c2 30       		.byte	48
 514 00c3 15       		.byte	21
 515 00c4 75       		.byte	117
 516 00c5 16       		.byte	22
 517 00c6 00       		.byte	0
 518 00c7 16       		.byte	22
 519 00c8 10       		.byte	16
 520 00c9 15       		.byte	21
 521 00ca 15       		.byte	21
 522 00cb 16       		.byte	22
 523 00cc 00       		.byte	0
 524 00cd 16       		.byte	22
 525 00ce FF       		.byte	-1
 526 00cf 15       		.byte	21
 527 00d0 30       		.byte	48
 528 00d1 15       		.byte	21
ARM GAS  C:\Users\Greg\AppData\Local\Temp\cc9sNsIh.s 			page 20


 529 00d2 5C       		.byte	92
 530 00d3 16       		.byte	22
 531 00d4 FF       		.byte	-1
 532 00d5 16       		.byte	22
 533 00d6 FF       		.byte	-1
 534 00d7 16       		.byte	22
 535 00d8 FF       		.byte	-1
 536 00d9 16       		.byte	22
 537 00da FF       		.byte	-1
 538 00db 16       		.byte	22
 539 00dc FF       		.byte	-1
 540 00dd 16       		.byte	22
 541 00de FF       		.byte	-1
 542 00df 16       		.byte	22
 543 00e0 FF       		.byte	-1
 544 00e1 16       		.byte	22
 545 00e2 FF       		.byte	-1
 546 00e3 16       		.byte	22
 547 00e4 FF       		.byte	-1
 548 00e5 16       		.byte	22
 549 00e6 FF       		.byte	-1
 550 00e7 16       		.byte	22
 551 00e8 FF       		.byte	-1
 552 00e9 16       		.byte	22
 553 00ea FF       		.byte	-1
 554 00eb 16       		.byte	22
 555 00ec FF       		.byte	-1
 556 00ed 16       		.byte	22
 557 00ee FF       		.byte	-1
 558 00ef 16       		.byte	22
 559 00f0 FF       		.byte	-1
 560 00f1 16       		.byte	22
 561 00f2 FF       		.byte	-1
 562 00f3 16       		.byte	22
 563 00f4 FF       		.byte	-1
 564 00f5 16       		.byte	22
 565 00f6 FF       		.byte	-1
 566 00f7 16       		.byte	22
 567 00f8 FF       		.byte	-1
 568 00f9 16       		.byte	22
 569 00fa FF       		.byte	-1
 570 00fb 16       		.byte	22
 571 00fc FF       		.byte	-1
 572 00fd 16       		.byte	22
 573 00fe FF       		.byte	-1
 574 00ff 16       		.byte	22
 575 0100 FF       		.byte	-1
 576 0101 16       		.byte	22
 577 0102 FF       		.byte	-1
 578 0103 16       		.byte	22
 579 0104 AA       		.byte	-86
 580 0105 16       		.byte	22
 581 0106 AA       		.byte	-86
 582 0107 16       		.byte	22
 583 0108 AA       		.byte	-86
 584 0109 16       		.byte	22
 585 010a AA       		.byte	-86
ARM GAS  C:\Users\Greg\AppData\Local\Temp\cc9sNsIh.s 			page 21


 586 010b 16       		.byte	22
 587 010c AA       		.byte	-86
 588 010d 16       		.byte	22
 589 010e AA       		.byte	-86
 590 010f 16       		.byte	22
 591 0110 AA       		.byte	-86
 592 0111 16       		.byte	22
 593 0112 AA       		.byte	-86
 594 0113 16       		.byte	22
 595 0114 55       		.byte	85
 596 0115 16       		.byte	22
 597 0116 55       		.byte	85
 598 0117 16       		.byte	22
 599 0118 55       		.byte	85
 600 0119 16       		.byte	22
 601 011a 55       		.byte	85
 602 011b 16       		.byte	22
 603 011c 55       		.byte	85
 604 011d 16       		.byte	22
 605 011e 55       		.byte	85
 606 011f 16       		.byte	22
 607 0120 55       		.byte	85
 608 0121 16       		.byte	22
 609 0122 55       		.byte	85
 610 0123 19       		.byte	25
 611 0124 FF       		.byte	-1
 612              		.type	u8x8_d_st75256_jlx12864_flip0_seq, %object
 613              		.size	u8x8_d_st75256_jlx12864_flip0_seq, 5
 614              	u8x8_d_st75256_jlx12864_flip0_seq:
 615 0125 18       		.byte	24
 616 0126 15       		.byte	21
 617 0127 30       		.byte	48
 618 0128 19       		.byte	25
 619 0129 FF       		.byte	-1
 620              		.type	u8x8_d_st75256_jlx12864_flip1_seq, %object
 621              		.size	u8x8_d_st75256_jlx12864_flip1_seq, 5
 622              	u8x8_d_st75256_jlx12864_flip1_seq:
 623 012a 18       		.byte	24
 624 012b 15       		.byte	21
 625 012c 30       		.byte	48
 626 012d 19       		.byte	25
 627 012e FF       		.byte	-1
 628              		.text
 629              	.Letext0:
 630              		.file 2 "c:\\program files\\cypress\\psoc creator\\4.1\\psoc creator\\import\\gnu\\arm\\5.4.1\\arm
 631              		.file 3 "c:\\program files\\cypress\\psoc creator\\4.1\\psoc creator\\import\\gnu\\arm\\5.4.1\\arm
 632              		.file 4 "..\\..\\u8g2\\csrc\\u8x8.h"