ARM GAS  C:\Users\Greg\AppData\Local\Temp\cceWzRdL.s 			page 1


   1              		.syntax unified
   2              		.cpu cortex-m0
   3              		.fpu softvfp
   4              		.eabi_attribute 20, 1
   5              		.eabi_attribute 21, 1
   6              		.eabi_attribute 23, 3
   7              		.eabi_attribute 24, 1
   8              		.eabi_attribute 25, 1
   9              		.eabi_attribute 26, 1
  10              		.eabi_attribute 30, 4
  11              		.eabi_attribute 34, 0
  12              		.eabi_attribute 18, 4
  13              		.thumb
  14              		.syntax unified
  15              		.file	"u8x8_u16toa.c"
  16              		.text
  17              	.Ltext0:
  18              		.cfi_sections	.debug_frame
  19              		.global	__aeabi_uidiv
  20              		.section	.text.u8x8_u16toap,"ax",%progbits
  21              		.align	1
  22              		.global	u8x8_u16toap
  23              		.code	16
  24              		.thumb_func
  25              		.type	u8x8_u16toap, %function
  26              	u8x8_u16toap:
  27              	.LFB0:
  28              		.file 1 "..\\..\\u8g2\\csrc\\u8x8_u16toa.c"
   1:..\..\u8g2\csrc/u8x8_u16toa.c **** /*
   2:..\..\u8g2\csrc/u8x8_u16toa.c **** 
   3:..\..\u8g2\csrc/u8x8_u16toa.c ****   u8x8_u16toa.c
   4:..\..\u8g2\csrc/u8x8_u16toa.c **** 
   5:..\..\u8g2\csrc/u8x8_u16toa.c ****   Universal 8bit Graphics Library (https://github.com/olikraus/u8g2/)
   6:..\..\u8g2\csrc/u8x8_u16toa.c **** 
   7:..\..\u8g2\csrc/u8x8_u16toa.c ****   Copyright (c) 2016, olikraus@gmail.com
   8:..\..\u8g2\csrc/u8x8_u16toa.c ****   All rights reserved.
   9:..\..\u8g2\csrc/u8x8_u16toa.c **** 
  10:..\..\u8g2\csrc/u8x8_u16toa.c ****   Redistribution and use in source and binary forms, with or without modification, 
  11:..\..\u8g2\csrc/u8x8_u16toa.c ****   are permitted provided that the following conditions are met:
  12:..\..\u8g2\csrc/u8x8_u16toa.c **** 
  13:..\..\u8g2\csrc/u8x8_u16toa.c ****   * Redistributions of source code must retain the above copyright notice, this list 
  14:..\..\u8g2\csrc/u8x8_u16toa.c ****     of conditions and the following disclaimer.
  15:..\..\u8g2\csrc/u8x8_u16toa.c ****     
  16:..\..\u8g2\csrc/u8x8_u16toa.c ****   * Redistributions in binary form must reproduce the above copyright notice, this 
  17:..\..\u8g2\csrc/u8x8_u16toa.c ****     list of conditions and the following disclaimer in the documentation and/or other 
  18:..\..\u8g2\csrc/u8x8_u16toa.c ****     materials provided with the distribution.
  19:..\..\u8g2\csrc/u8x8_u16toa.c **** 
  20:..\..\u8g2\csrc/u8x8_u16toa.c ****   THIS SOFTWARE IS PROVIDED BY THE COPYRIGHT HOLDERS AND 
  21:..\..\u8g2\csrc/u8x8_u16toa.c ****   CONTRIBUTORS "AS IS" AND ANY EXPRESS OR IMPLIED WARRANTIES, 
  22:..\..\u8g2\csrc/u8x8_u16toa.c ****   INCLUDING, BUT NOT LIMITED TO, THE IMPLIED WARRANTIES OF 
  23:..\..\u8g2\csrc/u8x8_u16toa.c ****   MERCHANTABILITY AND FITNESS FOR A PARTICULAR PURPOSE ARE 
  24:..\..\u8g2\csrc/u8x8_u16toa.c ****   DISCLAIMED. IN NO EVENT SHALL THE COPYRIGHT HOLDER OR 
  25:..\..\u8g2\csrc/u8x8_u16toa.c ****   CONTRIBUTORS BE LIABLE FOR ANY DIRECT, INDIRECT, INCIDENTAL, 
  26:..\..\u8g2\csrc/u8x8_u16toa.c ****   SPECIAL, EXEMPLARY, OR CONSEQUENTIAL DAMAGES (INCLUDING, BUT 
  27:..\..\u8g2\csrc/u8x8_u16toa.c ****   NOT LIMITED TO, PROCUREMENT OF SUBSTITUTE GOODS OR SERVICES; 
  28:..\..\u8g2\csrc/u8x8_u16toa.c ****   LOSS OF USE, DATA, OR PROFITS; OR BUSINESS INTERRUPTION) HOWEVER 
  29:..\..\u8g2\csrc/u8x8_u16toa.c ****   CAUSED AND ON ANY THEORY OF LIABILITY, WHETHER IN CONTRACT, 
ARM GAS  C:\Users\Greg\AppData\Local\Temp\cceWzRdL.s 			page 2


  30:..\..\u8g2\csrc/u8x8_u16toa.c ****   STRICT LIABILITY, OR TORT (INCLUDING NEGLIGENCE OR OTHERWISE) 
  31:..\..\u8g2\csrc/u8x8_u16toa.c ****   ARISING IN ANY WAY OUT OF THE USE OF THIS SOFTWARE, EVEN IF 
  32:..\..\u8g2\csrc/u8x8_u16toa.c ****   ADVISED OF THE POSSIBILITY OF SUCH DAMAGE.  
  33:..\..\u8g2\csrc/u8x8_u16toa.c **** 
  34:..\..\u8g2\csrc/u8x8_u16toa.c ****   
  35:..\..\u8g2\csrc/u8x8_u16toa.c **** */
  36:..\..\u8g2\csrc/u8x8_u16toa.c **** 
  37:..\..\u8g2\csrc/u8x8_u16toa.c **** 
  38:..\..\u8g2\csrc/u8x8_u16toa.c **** #include "u8x8.h"
  39:..\..\u8g2\csrc/u8x8_u16toa.c **** 
  40:..\..\u8g2\csrc/u8x8_u16toa.c **** const char *u8x8_u16toap(char * dest, uint16_t v)
  41:..\..\u8g2\csrc/u8x8_u16toa.c **** {
  29              		.loc 1 41 0
  30              		.cfi_startproc
  31              		@ args = 0, pretend = 0, frame = 0
  32              		@ frame_needed = 0, uses_anonymous_args = 0
  33              	.LVL0:
  34 0000 F8B5     		push	{r3, r4, r5, r6, r7, lr}
  35              		.cfi_def_cfa_offset 24
  36              		.cfi_offset 3, -24
  37              		.cfi_offset 4, -20
  38              		.cfi_offset 5, -16
  39              		.cfi_offset 6, -12
  40              		.cfi_offset 7, -8
  41              		.cfi_offset 14, -4
  42              		.loc 1 41 0
  43 0002 0C00     		movs	r4, r1
  44              	.LVL1:
  45 0004 0500     		movs	r5, r0
  46 0006 0600     		movs	r6, r0
  47 0008 471D     		adds	r7, r0, #5
  42:..\..\u8g2\csrc/u8x8_u16toa.c ****   uint8_t pos;
  43:..\..\u8g2\csrc/u8x8_u16toa.c ****   uint8_t d;
  44:..\..\u8g2\csrc/u8x8_u16toa.c ****   uint16_t c;
  45:..\..\u8g2\csrc/u8x8_u16toa.c ****   c = 10000;
  48              		.loc 1 45 0
  49 000a 0A48     		ldr	r0, .L8
  50              	.LVL2:
  51              	.L2:
  41:..\..\u8g2\csrc/u8x8_u16toa.c ****   uint8_t pos;
  52              		.loc 1 41 0
  53 000c 3023     		movs	r3, #48
  54              	.L5:
  55              	.LVL3:
  46:..\..\u8g2\csrc/u8x8_u16toa.c ****   for( pos = 0; pos < 5; pos++ )
  47:..\..\u8g2\csrc/u8x8_u16toa.c ****   {
  48:..\..\u8g2\csrc/u8x8_u16toa.c ****       d = '0';
  49:..\..\u8g2\csrc/u8x8_u16toa.c ****       while( v >= c )
  56              		.loc 1 49 0
  57 000e 8442     		cmp	r4, r0
  58 0010 04D3     		bcc	.L7
  50:..\..\u8g2\csrc/u8x8_u16toa.c ****       {
  51:..\..\u8g2\csrc/u8x8_u16toa.c **** 	v -= c;
  59              		.loc 1 51 0
  60 0012 241A     		subs	r4, r4, r0
  61              	.LVL4:
  52:..\..\u8g2\csrc/u8x8_u16toa.c **** 	d++;
ARM GAS  C:\Users\Greg\AppData\Local\Temp\cceWzRdL.s 			page 3


  62              		.loc 1 52 0
  63 0014 0133     		adds	r3, r3, #1
  64              	.LVL5:
  51:..\..\u8g2\csrc/u8x8_u16toa.c **** 	d++;
  65              		.loc 1 51 0
  66 0016 A4B2     		uxth	r4, r4
  67              	.LVL6:
  68              		.loc 1 52 0
  69 0018 DBB2     		uxtb	r3, r3
  70              	.LVL7:
  71 001a F8E7     		b	.L5
  72              	.L7:
  53:..\..\u8g2\csrc/u8x8_u16toa.c ****       }
  54:..\..\u8g2\csrc/u8x8_u16toa.c ****       dest[pos] = d;
  73              		.loc 1 54 0 discriminator 2
  74 001c 3370     		strb	r3, [r6]
  55:..\..\u8g2\csrc/u8x8_u16toa.c ****       c /= 10;
  75              		.loc 1 55 0 discriminator 2
  76 001e 0A21     		movs	r1, #10
  77 0020 FFF7FEFF 		bl	__aeabi_uidiv
  78              	.LVL8:
  79 0024 0136     		adds	r6, r6, #1
  80              	.LVL9:
  81 0026 80B2     		uxth	r0, r0
  82              	.LVL10:
  46:..\..\u8g2\csrc/u8x8_u16toa.c ****   {
  83              		.loc 1 46 0 discriminator 2
  84 0028 B742     		cmp	r7, r6
  85 002a EFD1     		bne	.L2
  56:..\..\u8g2\csrc/u8x8_u16toa.c ****   }  
  57:..\..\u8g2\csrc/u8x8_u16toa.c ****   dest[5] = '\0';
  86              		.loc 1 57 0
  87 002c 0023     		movs	r3, #0
  58:..\..\u8g2\csrc/u8x8_u16toa.c ****   return dest;
  59:..\..\u8g2\csrc/u8x8_u16toa.c **** }
  88              		.loc 1 59 0
  89 002e 2800     		movs	r0, r5
  90              	.LVL11:
  57:..\..\u8g2\csrc/u8x8_u16toa.c ****   return dest;
  91              		.loc 1 57 0
  92 0030 6B71     		strb	r3, [r5, #5]
  93              		.loc 1 59 0
  94              		@ sp needed
  95              	.LVL12:
  96              	.LVL13:
  97 0032 F8BD     		pop	{r3, r4, r5, r6, r7, pc}
  98              	.L9:
  99              		.align	2
 100              	.L8:
 101 0034 10270000 		.word	10000
 102              		.cfi_endproc
 103              	.LFE0:
 104              		.size	u8x8_u16toap, .-u8x8_u16toap
 105              		.section	.text.u8x8_u16toa,"ax",%progbits
 106              		.align	1
 107              		.global	u8x8_u16toa
 108              		.code	16
ARM GAS  C:\Users\Greg\AppData\Local\Temp\cceWzRdL.s 			page 4


 109              		.thumb_func
 110              		.type	u8x8_u16toa, %function
 111              	u8x8_u16toa:
 112              	.LFB1:
  60:..\..\u8g2\csrc/u8x8_u16toa.c **** 
  61:..\..\u8g2\csrc/u8x8_u16toa.c **** /* v = value, d = number of digits */
  62:..\..\u8g2\csrc/u8x8_u16toa.c **** const char *u8x8_u16toa(uint16_t v, uint8_t d)
  63:..\..\u8g2\csrc/u8x8_u16toa.c **** {
 113              		.loc 1 63 0
 114              		.cfi_startproc
 115              		@ args = 0, pretend = 0, frame = 0
 116              		@ frame_needed = 0, uses_anonymous_args = 0
 117              	.LVL14:
 118 0000 10B5     		push	{r4, lr}
 119              		.cfi_def_cfa_offset 8
 120              		.cfi_offset 4, -8
 121              		.cfi_offset 14, -4
 122              		.loc 1 63 0
 123 0002 0C00     		movs	r4, r1
 124              	.LVL15:
  64:..\..\u8g2\csrc/u8x8_u16toa.c ****   static char buf[6];
  65:..\..\u8g2\csrc/u8x8_u16toa.c ****   d = 5-d;
  66:..\..\u8g2\csrc/u8x8_u16toa.c ****   return u8x8_u16toap(buf, v) + d;
 125              		.loc 1 66 0
 126 0004 0100     		movs	r1, r0
 127 0006 0448     		ldr	r0, .L11
 128              	.LVL16:
 129 0008 FFF7FEFF 		bl	u8x8_u16toap
 130              	.LVL17:
 131 000c 0521     		movs	r1, #5
 132 000e 091B     		subs	r1, r1, r4
 133 0010 C9B2     		uxtb	r1, r1
 134 0012 4018     		adds	r0, r0, r1
  67:..\..\u8g2\csrc/u8x8_u16toa.c **** }
 135              		.loc 1 67 0
 136              		@ sp needed
 137              	.LVL18:
 138 0014 10BD     		pop	{r4, pc}
 139              	.L12:
 140 0016 C046     		.align	2
 141              	.L11:
 142 0018 00000000 		.word	.LANCHOR0
 143              		.cfi_endproc
 144              	.LFE1:
 145              		.size	u8x8_u16toa, .-u8x8_u16toa
 146              		.bss
 147              		.set	.LANCHOR0,. + 0
 148              		.type	buf.4876, %object
 149              		.size	buf.4876, 6
 150              	buf.4876:
 151 0000 00000000 		.space	6
 151      0000
 152              		.text
 153              	.Letext0:
 154              		.file 2 "c:\\program files\\cypress\\psoc creator\\4.1\\psoc creator\\import\\gnu\\arm\\5.4.1\\arm
 155              		.file 3 "c:\\program files\\cypress\\psoc creator\\4.1\\psoc creator\\import\\gnu\\arm\\5.4.1\\arm