ARM GAS  C:\Users\gjl\AppData\Local\Temp\cc0o8GI2.s 			page 1


   1              		.syntax unified
   2              		.cpu cortex-m0
   3              		.fpu softvfp
   4              		.eabi_attribute 20, 1
   5              		.eabi_attribute 21, 1
   6              		.eabi_attribute 23, 3
   7              		.eabi_attribute 24, 1
   8              		.eabi_attribute 25, 1
   9              		.eabi_attribute 26, 1
  10              		.eabi_attribute 30, 4
  11              		.eabi_attribute 34, 0
  12              		.eabi_attribute 18, 4
  13              		.thumb
  14              		.syntax unified
  15              		.file	"u8x8_8x8.c"
  16              		.text
  17              	.Ltext0:
  18              		.cfi_sections	.debug_frame
  19              		.section	.text.u8x8_get_glyph_data,"ax",%progbits
  20              		.align	1
  21              		.code	16
  22              		.thumb_func
  23              		.type	u8x8_get_glyph_data, %function
  24              	u8x8_get_glyph_data:
  25              	.LFB1:
  26              		.file 1 "..\\..\\u8g2\\csrc\\u8x8_8x8.c"
   1:..\..\u8g2\csrc/u8x8_8x8.c **** /*
   2:..\..\u8g2\csrc/u8x8_8x8.c **** 
   3:..\..\u8g2\csrc/u8x8_8x8.c ****   u8x8_8x8.c
   4:..\..\u8g2\csrc/u8x8_8x8.c ****   
   5:..\..\u8g2\csrc/u8x8_8x8.c ****   font procedures, directly interfaces display procedures
   6:..\..\u8g2\csrc/u8x8_8x8.c ****   
   7:..\..\u8g2\csrc/u8x8_8x8.c ****   Universal 8bit Graphics Library (https://github.com/olikraus/u8g2/)
   8:..\..\u8g2\csrc/u8x8_8x8.c **** 
   9:..\..\u8g2\csrc/u8x8_8x8.c ****   Copyright (c) 2016, olikraus@gmail.com
  10:..\..\u8g2\csrc/u8x8_8x8.c ****   All rights reserved.
  11:..\..\u8g2\csrc/u8x8_8x8.c **** 
  12:..\..\u8g2\csrc/u8x8_8x8.c ****   Redistribution and use in source and binary forms, with or without modification, 
  13:..\..\u8g2\csrc/u8x8_8x8.c ****   are permitted provided that the following conditions are met:
  14:..\..\u8g2\csrc/u8x8_8x8.c **** 
  15:..\..\u8g2\csrc/u8x8_8x8.c ****   * Redistributions of source code must retain the above copyright notice, this list 
  16:..\..\u8g2\csrc/u8x8_8x8.c ****     of conditions and the following disclaimer.
  17:..\..\u8g2\csrc/u8x8_8x8.c ****     
  18:..\..\u8g2\csrc/u8x8_8x8.c ****   * Redistributions in binary form must reproduce the above copyright notice, this 
  19:..\..\u8g2\csrc/u8x8_8x8.c ****     list of conditions and the following disclaimer in the documentation and/or other 
  20:..\..\u8g2\csrc/u8x8_8x8.c ****     materials provided with the distribution.
  21:..\..\u8g2\csrc/u8x8_8x8.c **** 
  22:..\..\u8g2\csrc/u8x8_8x8.c ****   THIS SOFTWARE IS PROVIDED BY THE COPYRIGHT HOLDERS AND 
  23:..\..\u8g2\csrc/u8x8_8x8.c ****   CONTRIBUTORS "AS IS" AND ANY EXPRESS OR IMPLIED WARRANTIES, 
  24:..\..\u8g2\csrc/u8x8_8x8.c ****   INCLUDING, BUT NOT LIMITED TO, THE IMPLIED WARRANTIES OF 
  25:..\..\u8g2\csrc/u8x8_8x8.c ****   MERCHANTABILITY AND FITNESS FOR A PARTICULAR PURPOSE ARE 
  26:..\..\u8g2\csrc/u8x8_8x8.c ****   DISCLAIMED. IN NO EVENT SHALL THE COPYRIGHT HOLDER OR 
  27:..\..\u8g2\csrc/u8x8_8x8.c ****   CONTRIBUTORS BE LIABLE FOR ANY DIRECT, INDIRECT, INCIDENTAL, 
  28:..\..\u8g2\csrc/u8x8_8x8.c ****   SPECIAL, EXEMPLARY, OR CONSEQUENTIAL DAMAGES (INCLUDING, BUT 
  29:..\..\u8g2\csrc/u8x8_8x8.c ****   NOT LIMITED TO, PROCUREMENT OF SUBSTITUTE GOODS OR SERVICES; 
  30:..\..\u8g2\csrc/u8x8_8x8.c ****   LOSS OF USE, DATA, OR PROFITS; OR BUSINESS INTERRUPTION) HOWEVER 
  31:..\..\u8g2\csrc/u8x8_8x8.c ****   CAUSED AND ON ANY THEORY OF LIABILITY, WHETHER IN CONTRACT, 
ARM GAS  C:\Users\gjl\AppData\Local\Temp\cc0o8GI2.s 			page 2


  32:..\..\u8g2\csrc/u8x8_8x8.c ****   STRICT LIABILITY, OR TORT (INCLUDING NEGLIGENCE OR OTHERWISE) 
  33:..\..\u8g2\csrc/u8x8_8x8.c ****   ARISING IN ANY WAY OUT OF THE USE OF THIS SOFTWARE, EVEN IF 
  34:..\..\u8g2\csrc/u8x8_8x8.c ****   ADVISED OF THE POSSIBILITY OF SUCH DAMAGE.    
  35:..\..\u8g2\csrc/u8x8_8x8.c **** 
  36:..\..\u8g2\csrc/u8x8_8x8.c **** */
  37:..\..\u8g2\csrc/u8x8_8x8.c **** 
  38:..\..\u8g2\csrc/u8x8_8x8.c **** #include "u8x8.h"
  39:..\..\u8g2\csrc/u8x8_8x8.c **** 
  40:..\..\u8g2\csrc/u8x8_8x8.c **** #if defined(ESP8266)
  41:..\..\u8g2\csrc/u8x8_8x8.c **** uint8_t u8x8_pgm_read_esp(const uint8_t * addr) 
  42:..\..\u8g2\csrc/u8x8_8x8.c **** {
  43:..\..\u8g2\csrc/u8x8_8x8.c ****     uint32_t bytes;
  44:..\..\u8g2\csrc/u8x8_8x8.c ****     bytes = *(uint32_t*)((uint32_t)addr & ~3);
  45:..\..\u8g2\csrc/u8x8_8x8.c ****     return ((uint8_t*)&bytes)[(uint32_t)addr & 3];
  46:..\..\u8g2\csrc/u8x8_8x8.c **** }
  47:..\..\u8g2\csrc/u8x8_8x8.c **** #endif
  48:..\..\u8g2\csrc/u8x8_8x8.c **** 
  49:..\..\u8g2\csrc/u8x8_8x8.c **** 
  50:..\..\u8g2\csrc/u8x8_8x8.c **** void u8x8_SetFont(u8x8_t *u8x8, const uint8_t *font_8x8)
  51:..\..\u8g2\csrc/u8x8_8x8.c **** {
  52:..\..\u8g2\csrc/u8x8_8x8.c ****   u8x8->font = font_8x8;
  53:..\..\u8g2\csrc/u8x8_8x8.c **** }
  54:..\..\u8g2\csrc/u8x8_8x8.c **** 
  55:..\..\u8g2\csrc/u8x8_8x8.c **** /*
  56:..\..\u8g2\csrc/u8x8_8x8.c ****  Args:
  57:..\..\u8g2\csrc/u8x8_8x8.c ****    u8x8: ptr to u8x8 structure
  58:..\..\u8g2\csrc/u8x8_8x8.c ****    encoding: glyph for which the data is requested (must be between 0 and 255)
  59:..\..\u8g2\csrc/u8x8_8x8.c ****    buf: pointer to 8 bytes
  60:..\..\u8g2\csrc/u8x8_8x8.c **** */
  61:..\..\u8g2\csrc/u8x8_8x8.c **** static void u8x8_get_glyph_data(u8x8_t *u8x8, uint8_t encoding, uint8_t *buf) U8X8_NOINLINE;
  62:..\..\u8g2\csrc/u8x8_8x8.c **** static void u8x8_get_glyph_data(u8x8_t *u8x8, uint8_t encoding, uint8_t *buf) 
  63:..\..\u8g2\csrc/u8x8_8x8.c **** {
  27              		.loc 1 63 0
  28              		.cfi_startproc
  29              		@ args = 0, pretend = 0, frame = 0
  30              		@ frame_needed = 0, uses_anonymous_args = 0
  31              	.LVL0:
  32 0000 30B5     		push	{r4, r5, lr}
  33              		.cfi_def_cfa_offset 12
  34              		.cfi_offset 4, -12
  35              		.cfi_offset 5, -8
  36              		.cfi_offset 14, -4
  64:..\..\u8g2\csrc/u8x8_8x8.c ****   uint8_t first, last, i;
  65:..\..\u8g2\csrc/u8x8_8x8.c ****   uint16_t offset;
  66:..\..\u8g2\csrc/u8x8_8x8.c ****   first = u8x8_pgm_read(u8x8->font+0);
  37              		.loc 1 66 0
  38 0002 8469     		ldr	r4, [r0, #24]
  39 0004 2378     		ldrb	r3, [r4]
  40              	.LVL1:
  67:..\..\u8g2\csrc/u8x8_8x8.c ****   last = u8x8_pgm_read(u8x8->font+1);
  68:..\..\u8g2\csrc/u8x8_8x8.c ****   
  69:..\..\u8g2\csrc/u8x8_8x8.c ****   /* get the glyph bitmap from the font */
  70:..\..\u8g2\csrc/u8x8_8x8.c ****   if ( first <= encoding && encoding <= last )
  41              		.loc 1 70 0
  42 0006 8B42     		cmp	r3, r1
  43 0008 19D8     		bhi	.L2
  44              		.loc 1 70 0 is_stmt 0 discriminator 1
ARM GAS  C:\Users\gjl\AppData\Local\Temp\cc0o8GI2.s 			page 3


  45 000a 6478     		ldrb	r4, [r4, #1]
  46              	.LVL2:
  47 000c 8C42     		cmp	r4, r1
  48 000e 16D3     		bcc	.L2
  49              	.LVL3:
  50 0010 1400     		movs	r4, r2
  71:..\..\u8g2\csrc/u8x8_8x8.c ****   {
  72:..\..\u8g2\csrc/u8x8_8x8.c ****     offset = encoding;
  73:..\..\u8g2\csrc/u8x8_8x8.c ****     offset -= first;
  51              		.loc 1 73 0 is_stmt 1
  52 0012 C91A     		subs	r1, r1, r3
  53              	.LVL4:
  54 0014 89B2     		uxth	r1, r1
  55              	.LVL5:
  74:..\..\u8g2\csrc/u8x8_8x8.c ****     offset *= 8;
  56              		.loc 1 74 0
  57 0016 C900     		lsls	r1, r1, #3
  58              	.LVL6:
  59 0018 89B2     		uxth	r1, r1
  60              	.LVL7:
  75:..\..\u8g2\csrc/u8x8_8x8.c ****     offset +=2;
  61              		.loc 1 75 0
  62 001a 8B1C     		adds	r3, r1, #2
  63              	.LVL8:
  64 001c 0A31     		adds	r1, r1, #10
  65              	.LVL9:
  66 001e 9BB2     		uxth	r3, r3
  67              	.LVL10:
  68 0020 89B2     		uxth	r1, r1
  69              	.LVL11:
  70              	.L3:
  76:..\..\u8g2\csrc/u8x8_8x8.c ****     for( i = 0; i < 8; i++ )
  77:..\..\u8g2\csrc/u8x8_8x8.c ****     {
  78:..\..\u8g2\csrc/u8x8_8x8.c ****       buf[i] = u8x8_pgm_read(u8x8->font+offset);
  71              		.loc 1 78 0 discriminator 3
  72 0022 8569     		ldr	r5, [r0, #24]
  73 0024 ED5C     		ldrb	r5, [r5, r3]
  79:..\..\u8g2\csrc/u8x8_8x8.c ****       offset++;
  74              		.loc 1 79 0 discriminator 3
  75 0026 0133     		adds	r3, r3, #1
  76              	.LVL12:
  77 0028 9BB2     		uxth	r3, r3
  78              	.LVL13:
  78:..\..\u8g2\csrc/u8x8_8x8.c ****       offset++;
  79              		.loc 1 78 0 discriminator 3
  80 002a 2570     		strb	r5, [r4]
  81 002c 0134     		adds	r4, r4, #1
  76:..\..\u8g2\csrc/u8x8_8x8.c ****     for( i = 0; i < 8; i++ )
  82              		.loc 1 76 0 discriminator 3
  83 002e 8B42     		cmp	r3, r1
  84 0030 F7D1     		bne	.L3
  85              	.LVL14:
  86              	.L7:
  80:..\..\u8g2\csrc/u8x8_8x8.c ****     }
  81:..\..\u8g2\csrc/u8x8_8x8.c ****   }
  82:..\..\u8g2\csrc/u8x8_8x8.c ****   else
  83:..\..\u8g2\csrc/u8x8_8x8.c ****   {
ARM GAS  C:\Users\gjl\AppData\Local\Temp\cc0o8GI2.s 			page 4


  84:..\..\u8g2\csrc/u8x8_8x8.c ****     for( i = 0; i < 8; i++ )
  85:..\..\u8g2\csrc/u8x8_8x8.c ****     {
  86:..\..\u8g2\csrc/u8x8_8x8.c ****       buf[i] = 0;
  87:..\..\u8g2\csrc/u8x8_8x8.c ****     }
  88:..\..\u8g2\csrc/u8x8_8x8.c ****   }
  89:..\..\u8g2\csrc/u8x8_8x8.c ****   
  90:..\..\u8g2\csrc/u8x8_8x8.c ****   /* invert the bitmap if required */
  91:..\..\u8g2\csrc/u8x8_8x8.c ****   if ( u8x8->is_font_inverse_mode )
  87              		.loc 1 91 0
  88 0032 C37F     		ldrb	r3, [r0, #31]
  89 0034 002B     		cmp	r3, #0
  90 0036 11D0     		beq	.L1
  91 0038 1100     		movs	r1, r2
  92 003a 0831     		adds	r1, r1, #8
  93 003c 08E0     		b	.L8
  94              	.LVL15:
  95              	.L2:
  96 003e 1100     		movs	r1, r2
  97              	.LVL16:
  98 0040 1300     		movs	r3, r2
  99              	.LVL17:
  86:..\..\u8g2\csrc/u8x8_8x8.c ****     }
 100              		.loc 1 86 0 discriminator 3
 101 0042 0024     		movs	r4, #0
 102 0044 0831     		adds	r1, r1, #8
 103              	.LVL18:
 104              	.L6:
 105 0046 1C70     		strb	r4, [r3]
 106              	.LVL19:
 107 0048 0133     		adds	r3, r3, #1
 108              	.LVL20:
  84:..\..\u8g2\csrc/u8x8_8x8.c ****     {
 109              		.loc 1 84 0 discriminator 3
 110 004a 8B42     		cmp	r3, r1
 111 004c FBD1     		bne	.L6
 112 004e F0E7     		b	.L7
 113              	.LVL21:
 114              	.L8:
  92:..\..\u8g2\csrc/u8x8_8x8.c ****   {
  93:..\..\u8g2\csrc/u8x8_8x8.c ****     for( i = 0; i < 8; i++ )
  94:..\..\u8g2\csrc/u8x8_8x8.c ****     {
  95:..\..\u8g2\csrc/u8x8_8x8.c ****       buf[i] ^= 255;
 115              		.loc 1 95 0 discriminator 3
 116 0050 1378     		ldrb	r3, [r2]
 117 0052 DB43     		mvns	r3, r3
 118 0054 1370     		strb	r3, [r2]
 119              	.LVL22:
 120 0056 0132     		adds	r2, r2, #1
 121              	.LVL23:
  93:..\..\u8g2\csrc/u8x8_8x8.c ****     {
 122              		.loc 1 93 0 discriminator 3
 123 0058 8A42     		cmp	r2, r1
 124 005a F9D1     		bne	.L8
 125              	.LVL24:
 126              	.L1:
  96:..\..\u8g2\csrc/u8x8_8x8.c ****     }
  97:..\..\u8g2\csrc/u8x8_8x8.c ****   }
ARM GAS  C:\Users\gjl\AppData\Local\Temp\cc0o8GI2.s 			page 5


  98:..\..\u8g2\csrc/u8x8_8x8.c ****   
  99:..\..\u8g2\csrc/u8x8_8x8.c **** }
 127              		.loc 1 99 0
 128              		@ sp needed
 129 005c 30BD     		pop	{r4, r5, pc}
 130              		.cfi_endproc
 131              	.LFE1:
 132              		.size	u8x8_get_glyph_data, .-u8x8_get_glyph_data
 133              		.section	.text.u8x8_upscale_buf,"ax",%progbits
 134              		.align	1
 135              		.code	16
 136              		.thumb_func
 137              		.type	u8x8_upscale_buf, %function
 138              	u8x8_upscale_buf:
 139              	.LFB4:
 100:..\..\u8g2\csrc/u8x8_8x8.c **** 
 101:..\..\u8g2\csrc/u8x8_8x8.c **** void u8x8_DrawGlyph(u8x8_t *u8x8, uint8_t x, uint8_t y, uint8_t encoding)
 102:..\..\u8g2\csrc/u8x8_8x8.c **** {
 103:..\..\u8g2\csrc/u8x8_8x8.c ****   uint8_t buf[8];
 104:..\..\u8g2\csrc/u8x8_8x8.c ****   u8x8_get_glyph_data(u8x8, encoding, buf);
 105:..\..\u8g2\csrc/u8x8_8x8.c ****   u8x8_DrawTile(u8x8, x, y, 1, buf);
 106:..\..\u8g2\csrc/u8x8_8x8.c **** }
 107:..\..\u8g2\csrc/u8x8_8x8.c **** 
 108:..\..\u8g2\csrc/u8x8_8x8.c **** 
 109:..\..\u8g2\csrc/u8x8_8x8.c **** /*
 110:..\..\u8g2\csrc/u8x8_8x8.c ****   Source: http://graphics.stanford.edu/~seander/bithacks.html
 111:..\..\u8g2\csrc/u8x8_8x8.c **** 	Section: Interleave bits by Binary Magic Numbers 
 112:..\..\u8g2\csrc/u8x8_8x8.c ****    Original codes is here:
 113:..\..\u8g2\csrc/u8x8_8x8.c **** 		static const unsigned int B[] = {0x55555555, 0x33333333, 0x0F0F0F0F, 0x00FF00FF};
 114:..\..\u8g2\csrc/u8x8_8x8.c **** 		static const unsigned int S[] = {1, 2, 4, 8};
 115:..\..\u8g2\csrc/u8x8_8x8.c **** 
 116:..\..\u8g2\csrc/u8x8_8x8.c **** 		unsigned int x; // Interleave lower 16 bits of x and y, so the bits of x
 117:..\..\u8g2\csrc/u8x8_8x8.c **** 		unsigned int y; // are in the even positions and bits from y in the odd;
 118:..\..\u8g2\csrc/u8x8_8x8.c **** 		unsigned int z; // z gets the resulting 32-bit Morton Number.  
 119:..\..\u8g2\csrc/u8x8_8x8.c **** 				// x and y must initially be less than 65536.
 120:..\..\u8g2\csrc/u8x8_8x8.c **** 
 121:..\..\u8g2\csrc/u8x8_8x8.c **** 		x = (x | (x << S[3])) & B[3];
 122:..\..\u8g2\csrc/u8x8_8x8.c **** 		x = (x | (x << S[2])) & B[2];
 123:..\..\u8g2\csrc/u8x8_8x8.c **** 		x = (x | (x << S[1])) & B[1];
 124:..\..\u8g2\csrc/u8x8_8x8.c **** 		x = (x | (x << S[0])) & B[0];
 125:..\..\u8g2\csrc/u8x8_8x8.c **** 
 126:..\..\u8g2\csrc/u8x8_8x8.c **** 		y = (y | (y << S[3])) & B[3];
 127:..\..\u8g2\csrc/u8x8_8x8.c **** 		y = (y | (y << S[2])) & B[2];
 128:..\..\u8g2\csrc/u8x8_8x8.c **** 		y = (y | (y << S[1])) & B[1];
 129:..\..\u8g2\csrc/u8x8_8x8.c **** 		y = (y | (y << S[0])) & B[0];
 130:..\..\u8g2\csrc/u8x8_8x8.c **** 
 131:..\..\u8g2\csrc/u8x8_8x8.c **** 		z = x | (y << 1);
 132:..\..\u8g2\csrc/u8x8_8x8.c **** */
 133:..\..\u8g2\csrc/u8x8_8x8.c **** uint16_t u8x8_upscale_byte(uint8_t x) 
 134:..\..\u8g2\csrc/u8x8_8x8.c **** {
 135:..\..\u8g2\csrc/u8x8_8x8.c **** 	uint16_t y = x;
 136:..\..\u8g2\csrc/u8x8_8x8.c **** 	y |= (y << 4);		// x = (x | (x << S[2])) & B[2];
 137:..\..\u8g2\csrc/u8x8_8x8.c **** 	y &= 0x0f0f;
 138:..\..\u8g2\csrc/u8x8_8x8.c **** 	y |= (y << 2);		// x = (x | (x << S[1])) & B[1];
 139:..\..\u8g2\csrc/u8x8_8x8.c **** 	y &= 0x3333;
 140:..\..\u8g2\csrc/u8x8_8x8.c **** 	y |= (y << 1);		// x = (x | (x << S[0])) & B[0];
 141:..\..\u8g2\csrc/u8x8_8x8.c **** 	y &= 0x5555;
ARM GAS  C:\Users\gjl\AppData\Local\Temp\cc0o8GI2.s 			page 6


 142:..\..\u8g2\csrc/u8x8_8x8.c ****   
 143:..\..\u8g2\csrc/u8x8_8x8.c **** 	y |= (y << 1);		// z = x | (y << 1);
 144:..\..\u8g2\csrc/u8x8_8x8.c **** 	return y;
 145:..\..\u8g2\csrc/u8x8_8x8.c **** }
 146:..\..\u8g2\csrc/u8x8_8x8.c **** 
 147:..\..\u8g2\csrc/u8x8_8x8.c **** static void u8x8_upscale_buf(uint8_t *src, uint8_t *dest) U8X8_NOINLINE;
 148:..\..\u8g2\csrc/u8x8_8x8.c **** static void u8x8_upscale_buf(uint8_t *src, uint8_t *dest)
 149:..\..\u8g2\csrc/u8x8_8x8.c **** {
 140              		.loc 1 149 0
 141              		.cfi_startproc
 142              		@ args = 0, pretend = 0, frame = 0
 143              		@ frame_needed = 0, uses_anonymous_args = 0
 144              		@ link register save eliminated.
 145              	.LVL25:
 146 0000 031D     		adds	r3, r0, #4
 147              	.LVL26:
 148              	.L14:
 150:..\..\u8g2\csrc/u8x8_8x8.c ****   uint8_t i = 4;  
 151:..\..\u8g2\csrc/u8x8_8x8.c ****   do 
 152:..\..\u8g2\csrc/u8x8_8x8.c ****   {
 153:..\..\u8g2\csrc/u8x8_8x8.c ****     *dest++ = *src;
 149              		.loc 1 153 0 discriminator 1
 150 0002 0278     		ldrb	r2, [r0]
 151 0004 0A70     		strb	r2, [r1]
 152              	.LVL27:
 154:..\..\u8g2\csrc/u8x8_8x8.c ****     *dest++ = *src++;
 153              		.loc 1 154 0 discriminator 1
 154 0006 0278     		ldrb	r2, [r0]
 155 0008 0130     		adds	r0, r0, #1
 156              	.LVL28:
 157 000a 4A70     		strb	r2, [r1, #1]
 158 000c 0231     		adds	r1, r1, #2
 159              	.LVL29:
 155:..\..\u8g2\csrc/u8x8_8x8.c ****     i--;
 156:..\..\u8g2\csrc/u8x8_8x8.c ****   } while( i > 0 );
 160              		.loc 1 156 0 discriminator 1
 161 000e 9842     		cmp	r0, r3
 162 0010 F7D1     		bne	.L14
 157:..\..\u8g2\csrc/u8x8_8x8.c **** }
 163              		.loc 1 157 0
 164              		@ sp needed
 165 0012 7047     		bx	lr
 166              		.cfi_endproc
 167              	.LFE4:
 168              		.size	u8x8_upscale_buf, .-u8x8_upscale_buf
 169              		.section	.text.u8x8_ascii_next,"ax",%progbits
 170              		.align	1
 171              		.global	u8x8_ascii_next
 172              		.code	16
 173              		.thumb_func
 174              		.type	u8x8_ascii_next, %function
 175              	u8x8_ascii_next:
 176              	.LFB7:
 158:..\..\u8g2\csrc/u8x8_8x8.c **** 
 159:..\..\u8g2\csrc/u8x8_8x8.c **** void u8x8_Draw2x2Glyph(u8x8_t *u8x8, uint8_t x, uint8_t y, uint8_t encoding)
 160:..\..\u8g2\csrc/u8x8_8x8.c **** {
 161:..\..\u8g2\csrc/u8x8_8x8.c ****   uint8_t i;
ARM GAS  C:\Users\gjl\AppData\Local\Temp\cc0o8GI2.s 			page 7


 162:..\..\u8g2\csrc/u8x8_8x8.c ****   uint16_t t;
 163:..\..\u8g2\csrc/u8x8_8x8.c ****   uint8_t buf[8];
 164:..\..\u8g2\csrc/u8x8_8x8.c ****   uint8_t buf1[8];
 165:..\..\u8g2\csrc/u8x8_8x8.c ****   uint8_t buf2[8];
 166:..\..\u8g2\csrc/u8x8_8x8.c ****   u8x8_get_glyph_data(u8x8, encoding, buf);
 167:..\..\u8g2\csrc/u8x8_8x8.c ****   for( i = 0; i < 8; i ++ )
 168:..\..\u8g2\csrc/u8x8_8x8.c ****   {
 169:..\..\u8g2\csrc/u8x8_8x8.c ****       t = u8x8_upscale_byte(buf[i]);
 170:..\..\u8g2\csrc/u8x8_8x8.c ****       buf1[i] = t >> 8;
 171:..\..\u8g2\csrc/u8x8_8x8.c ****       buf2[i] = t & 255;
 172:..\..\u8g2\csrc/u8x8_8x8.c ****   }
 173:..\..\u8g2\csrc/u8x8_8x8.c ****   u8x8_upscale_buf(buf2, buf);
 174:..\..\u8g2\csrc/u8x8_8x8.c ****   u8x8_DrawTile(u8x8, x, y, 1, buf);
 175:..\..\u8g2\csrc/u8x8_8x8.c ****   
 176:..\..\u8g2\csrc/u8x8_8x8.c ****   u8x8_upscale_buf(buf2+4, buf);
 177:..\..\u8g2\csrc/u8x8_8x8.c ****   u8x8_DrawTile(u8x8, x+1, y, 1, buf);
 178:..\..\u8g2\csrc/u8x8_8x8.c ****   
 179:..\..\u8g2\csrc/u8x8_8x8.c ****   u8x8_upscale_buf(buf1, buf);
 180:..\..\u8g2\csrc/u8x8_8x8.c ****   u8x8_DrawTile(u8x8, x, y+1, 1, buf);
 181:..\..\u8g2\csrc/u8x8_8x8.c ****   
 182:..\..\u8g2\csrc/u8x8_8x8.c ****   u8x8_upscale_buf(buf1+4, buf);
 183:..\..\u8g2\csrc/u8x8_8x8.c ****   u8x8_DrawTile(u8x8, x+1, y+1, 1, buf);  
 184:..\..\u8g2\csrc/u8x8_8x8.c **** }
 185:..\..\u8g2\csrc/u8x8_8x8.c **** 
 186:..\..\u8g2\csrc/u8x8_8x8.c **** 
 187:..\..\u8g2\csrc/u8x8_8x8.c **** /*
 188:..\..\u8g2\csrc/u8x8_8x8.c **** source: https://en.wikipedia.org/wiki/UTF-8
 189:..\..\u8g2\csrc/u8x8_8x8.c **** Bits	from 		to			bytes	Byte 1 		Byte 2 		Byte 3 		Byte 4 		Byte 5 		Byte 6
 190:..\..\u8g2\csrc/u8x8_8x8.c ****   7 	U+0000 		U+007F 		1 		0xxxxxxx
 191:..\..\u8g2\csrc/u8x8_8x8.c **** 11 	U+0080 		U+07FF 		2 		110xxxxx 	10xxxxxx
 192:..\..\u8g2\csrc/u8x8_8x8.c **** 16 	U+0800 		U+FFFF 		3 		1110xxxx 	10xxxxxx 	10xxxxxx
 193:..\..\u8g2\csrc/u8x8_8x8.c **** 21 	U+10000 	U+1FFFFF 	4 		11110xxx 	10xxxxxx 	10xxxxxx 	10xxxxxx
 194:..\..\u8g2\csrc/u8x8_8x8.c **** 26 	U+200000 	U+3FFFFFF 	5 		111110xx 	10xxxxxx 	10xxxxxx 	10xxxxxx 	10xxxxxx
 195:..\..\u8g2\csrc/u8x8_8x8.c **** 31 	U+4000000 	U+7FFFFFFF 	6 		1111110x 	10xxxxxx 	10xxxxxx 	10xxxxxx 	10xxxxxx 	10xxxxxx  
 196:..\..\u8g2\csrc/u8x8_8x8.c **** 
 197:..\..\u8g2\csrc/u8x8_8x8.c **** 
 198:..\..\u8g2\csrc/u8x8_8x8.c **** */
 199:..\..\u8g2\csrc/u8x8_8x8.c **** 
 200:..\..\u8g2\csrc/u8x8_8x8.c **** /* reset the internal state machine */
 201:..\..\u8g2\csrc/u8x8_8x8.c **** void u8x8_utf8_init(u8x8_t *u8x8)
 202:..\..\u8g2\csrc/u8x8_8x8.c **** {
 203:..\..\u8g2\csrc/u8x8_8x8.c ****   u8x8->utf8_state = 0;	/* also reset during u8x8_SetupDefaults() */
 204:..\..\u8g2\csrc/u8x8_8x8.c **** }
 205:..\..\u8g2\csrc/u8x8_8x8.c **** 
 206:..\..\u8g2\csrc/u8x8_8x8.c **** uint16_t u8x8_ascii_next(U8X8_UNUSED u8x8_t *u8x8, uint8_t b)
 207:..\..\u8g2\csrc/u8x8_8x8.c **** {
 177              		.loc 1 207 0
 178              		.cfi_startproc
 179              		@ args = 0, pretend = 0, frame = 0
 180              		@ frame_needed = 0, uses_anonymous_args = 0
 181              		@ link register save eliminated.
 182              	.LVL30:
 208:..\..\u8g2\csrc/u8x8_8x8.c ****   if ( b == 0 || b == '\n' ) /* '\n' terminates the string to support the string list procedures */
 183              		.loc 1 208 0
 184 0000 0029     		cmp	r1, #0
 185 0002 02D0     		beq	.L19
 209:..\..\u8g2\csrc/u8x8_8x8.c ****     return 0x0ffff;	/* end of string detected*/
ARM GAS  C:\Users\gjl\AppData\Local\Temp\cc0o8GI2.s 			page 8


 210:..\..\u8g2\csrc/u8x8_8x8.c ****   return b;
 186              		.loc 1 210 0 discriminator 1
 187 0004 88B2     		uxth	r0, r1
 188              	.LVL31:
 208:..\..\u8g2\csrc/u8x8_8x8.c ****   if ( b == 0 || b == '\n' ) /* '\n' terminates the string to support the string list procedures */
 189              		.loc 1 208 0 discriminator 1
 190 0006 0A29     		cmp	r1, #10
 191 0008 00D1     		bne	.L17
 192              	.L19:
 209:..\..\u8g2\csrc/u8x8_8x8.c ****     return 0x0ffff;	/* end of string detected*/
 193              		.loc 1 209 0
 194 000a 0148     		ldr	r0, .L20
 195              	.L17:
 211:..\..\u8g2\csrc/u8x8_8x8.c **** }
 196              		.loc 1 211 0
 197              		@ sp needed
 198 000c 7047     		bx	lr
 199              	.L21:
 200 000e C046     		.align	2
 201              	.L20:
 202 0010 FFFF0000 		.word	65535
 203              		.cfi_endproc
 204              	.LFE7:
 205              		.size	u8x8_ascii_next, .-u8x8_ascii_next
 206              		.section	.text.u8x8_utf8_next,"ax",%progbits
 207              		.align	1
 208              		.global	u8x8_utf8_next
 209              		.code	16
 210              		.thumb_func
 211              		.type	u8x8_utf8_next, %function
 212              	u8x8_utf8_next:
 213              	.LFB8:
 212:..\..\u8g2\csrc/u8x8_8x8.c **** 
 213:..\..\u8g2\csrc/u8x8_8x8.c **** /*
 214:..\..\u8g2\csrc/u8x8_8x8.c ****   pass a byte from an utf8 encoded string to the utf8 decoder state machine
 215:..\..\u8g2\csrc/u8x8_8x8.c ****   returns 
 216:..\..\u8g2\csrc/u8x8_8x8.c ****     0x0fffe: no glyph, just continue
 217:..\..\u8g2\csrc/u8x8_8x8.c ****     0x0ffff: end of string
 218:..\..\u8g2\csrc/u8x8_8x8.c ****     anything else: The decoded encoding
 219:..\..\u8g2\csrc/u8x8_8x8.c **** */
 220:..\..\u8g2\csrc/u8x8_8x8.c **** uint16_t u8x8_utf8_next(u8x8_t *u8x8, uint8_t b)
 221:..\..\u8g2\csrc/u8x8_8x8.c **** {
 214              		.loc 1 221 0
 215              		.cfi_startproc
 216              		@ args = 0, pretend = 0, frame = 0
 217              		@ frame_needed = 0, uses_anonymous_args = 0
 218              	.LVL32:
 219 0000 10B5     		push	{r4, lr}
 220              		.cfi_def_cfa_offset 8
 221              		.cfi_offset 4, -8
 222              		.cfi_offset 14, -4
 223              		.loc 1 221 0
 224 0002 0200     		movs	r2, r0
 222:..\..\u8g2\csrc/u8x8_8x8.c ****   if ( b == 0 || b == '\n' )	/* '\n' terminates the string to support the string list procedures */
 225              		.loc 1 222 0
 226 0004 0029     		cmp	r1, #0
 227 0006 33D0     		beq	.L32
ARM GAS  C:\Users\gjl\AppData\Local\Temp\cc0o8GI2.s 			page 9


 228              		.loc 1 222 0 is_stmt 0 discriminator 1
 229 0008 0A29     		cmp	r1, #10
 230 000a 31D0     		beq	.L32
 223:..\..\u8g2\csrc/u8x8_8x8.c ****     return 0x0ffff;	/* end of string detected, pending UTF8 is discarded */
 224:..\..\u8g2\csrc/u8x8_8x8.c ****   if ( u8x8->utf8_state == 0 )
 231              		.loc 1 224 0 is_stmt 1
 232 000c 031D     		adds	r3, r0, #4
 233 000e DC7F     		ldrb	r4, [r3, #31]
 234 0010 002C     		cmp	r4, #0
 235 0012 20D1     		bne	.L24
 236              	.LVL33:
 237              	.LBB10:
 238              	.LBB11:
 225:..\..\u8g2\csrc/u8x8_8x8.c ****   {
 226:..\..\u8g2\csrc/u8x8_8x8.c ****     if ( b >= 0xfc )	/* 6 byte sequence */
 239              		.loc 1 226 0
 240 0014 FB29     		cmp	r1, #251
 241 0016 03D9     		bls	.L25
 227:..\..\u8g2\csrc/u8x8_8x8.c ****     {
 228:..\..\u8g2\csrc/u8x8_8x8.c ****       u8x8->utf8_state = 5;
 242              		.loc 1 228 0
 243 0018 0520     		movs	r0, #5
 244              	.LVL34:
 245 001a D877     		strb	r0, [r3, #31]
 229:..\..\u8g2\csrc/u8x8_8x8.c ****       b &= 1;
 246              		.loc 1 229 0
 247 001c 0123     		movs	r3, #1
 248 001e 17E0     		b	.L34
 249              	.LVL35:
 250              	.L25:
 230:..\..\u8g2\csrc/u8x8_8x8.c ****     }
 231:..\..\u8g2\csrc/u8x8_8x8.c ****     else if ( b >= 0xf8 )
 251              		.loc 1 231 0
 252 0020 F729     		cmp	r1, #247
 253 0022 03D9     		bls	.L27
 232:..\..\u8g2\csrc/u8x8_8x8.c ****     {
 233:..\..\u8g2\csrc/u8x8_8x8.c ****       u8x8->utf8_state = 4;
 254              		.loc 1 233 0
 255 0024 0420     		movs	r0, #4
 256              	.LVL36:
 257 0026 D877     		strb	r0, [r3, #31]
 234:..\..\u8g2\csrc/u8x8_8x8.c ****       b &= 3;
 258              		.loc 1 234 0
 259 0028 0323     		movs	r3, #3
 260 002a 11E0     		b	.L34
 261              	.LVL37:
 262              	.L27:
 235:..\..\u8g2\csrc/u8x8_8x8.c ****     }
 236:..\..\u8g2\csrc/u8x8_8x8.c ****     else if ( b >= 0xf0 )
 263              		.loc 1 236 0
 264 002c EF29     		cmp	r1, #239
 265 002e 03D9     		bls	.L28
 237:..\..\u8g2\csrc/u8x8_8x8.c ****     {
 238:..\..\u8g2\csrc/u8x8_8x8.c ****       u8x8->utf8_state = 3;
 266              		.loc 1 238 0
 267 0030 0320     		movs	r0, #3
 268              	.LVL38:
ARM GAS  C:\Users\gjl\AppData\Local\Temp\cc0o8GI2.s 			page 10


 269 0032 D877     		strb	r0, [r3, #31]
 239:..\..\u8g2\csrc/u8x8_8x8.c ****       b &= 7;      
 270              		.loc 1 239 0
 271 0034 0723     		movs	r3, #7
 272 0036 0BE0     		b	.L34
 273              	.LVL39:
 274              	.L28:
 240:..\..\u8g2\csrc/u8x8_8x8.c ****     }
 241:..\..\u8g2\csrc/u8x8_8x8.c ****     else if ( b >= 0xe0 )
 275              		.loc 1 241 0
 276 0038 DF29     		cmp	r1, #223
 277 003a 03D9     		bls	.L29
 242:..\..\u8g2\csrc/u8x8_8x8.c ****     {
 243:..\..\u8g2\csrc/u8x8_8x8.c ****       u8x8->utf8_state = 2;
 278              		.loc 1 243 0
 279 003c 0220     		movs	r0, #2
 280              	.LVL40:
 281 003e D877     		strb	r0, [r3, #31]
 244:..\..\u8g2\csrc/u8x8_8x8.c ****       b &= 15;
 282              		.loc 1 244 0
 283 0040 0F23     		movs	r3, #15
 284 0042 05E0     		b	.L34
 285              	.LVL41:
 286              	.L29:
 245:..\..\u8g2\csrc/u8x8_8x8.c ****     }
 246:..\..\u8g2\csrc/u8x8_8x8.c ****     else if ( b >= 0xc0 )
 247:..\..\u8g2\csrc/u8x8_8x8.c ****     {
 248:..\..\u8g2\csrc/u8x8_8x8.c ****       u8x8->utf8_state = 1;
 249:..\..\u8g2\csrc/u8x8_8x8.c ****       b &= 0x01f;
 250:..\..\u8g2\csrc/u8x8_8x8.c ****     }
 251:..\..\u8g2\csrc/u8x8_8x8.c ****     else
 252:..\..\u8g2\csrc/u8x8_8x8.c ****     {
 253:..\..\u8g2\csrc/u8x8_8x8.c ****       /* do nothing, just use the value as encoding */
 254:..\..\u8g2\csrc/u8x8_8x8.c ****       return b;
 287              		.loc 1 254 0
 288 0044 88B2     		uxth	r0, r1
 289              	.LVL42:
 246:..\..\u8g2\csrc/u8x8_8x8.c ****     {
 290              		.loc 1 246 0
 291 0046 BF29     		cmp	r1, #191
 292 0048 15D9     		bls	.L23
 248:..\..\u8g2\csrc/u8x8_8x8.c ****       b &= 0x01f;
 293              		.loc 1 248 0
 294 004a 0120     		movs	r0, #1
 295 004c D877     		strb	r0, [r3, #31]
 249:..\..\u8g2\csrc/u8x8_8x8.c ****     }
 296              		.loc 1 249 0
 297 004e 1F23     		movs	r3, #31
 298              	.L34:
 299 0050 1940     		ands	r1, r3
 300              	.LVL43:
 255:..\..\u8g2\csrc/u8x8_8x8.c ****     }
 256:..\..\u8g2\csrc/u8x8_8x8.c ****     u8x8->encoding = b;
 301              		.loc 1 256 0
 302 0052 9183     		strh	r1, [r2, #28]
 303 0054 0EE0     		b	.L33
 304              	.LVL44:
ARM GAS  C:\Users\gjl\AppData\Local\Temp\cc0o8GI2.s 			page 11


 305              	.L24:
 306              	.LBE11:
 307              	.LBE10:
 257:..\..\u8g2\csrc/u8x8_8x8.c ****     return 0x0fffe;
 258:..\..\u8g2\csrc/u8x8_8x8.c ****   }
 259:..\..\u8g2\csrc/u8x8_8x8.c ****   else
 260:..\..\u8g2\csrc/u8x8_8x8.c ****   {
 261:..\..\u8g2\csrc/u8x8_8x8.c ****     u8x8->utf8_state--;
 308              		.loc 1 261 0
 309 0056 013C     		subs	r4, r4, #1
 310 0058 E4B2     		uxtb	r4, r4
 311 005a DC77     		strb	r4, [r3, #31]
 312              	.LVL45:
 262:..\..\u8g2\csrc/u8x8_8x8.c ****     /* The case b < 0x080 (an illegal UTF8 encoding) is not checked here. */
 263:..\..\u8g2\csrc/u8x8_8x8.c ****     u8x8->encoding<<=6;
 264:..\..\u8g2\csrc/u8x8_8x8.c ****     b &= 0x03f;
 265:..\..\u8g2\csrc/u8x8_8x8.c ****     u8x8->encoding |= b;
 313              		.loc 1 265 0
 314 005c 838B     		ldrh	r3, [r0, #28]
 315 005e 3F20     		movs	r0, #63
 316              	.LVL46:
 317 0060 9B01     		lsls	r3, r3, #6
 318 0062 0140     		ands	r1, r0
 319              	.LVL47:
 320 0064 1943     		orrs	r1, r3
 321 0066 88B2     		uxth	r0, r1
 322 0068 9083     		strh	r0, [r2, #28]
 266:..\..\u8g2\csrc/u8x8_8x8.c ****     if ( u8x8->utf8_state != 0 )
 323              		.loc 1 266 0
 324 006a 002C     		cmp	r4, #0
 325 006c 02D1     		bne	.L33
 326 006e 02E0     		b	.L23
 327              	.LVL48:
 328              	.L32:
 223:..\..\u8g2\csrc/u8x8_8x8.c ****   if ( u8x8->utf8_state == 0 )
 329              		.loc 1 223 0
 330 0070 0148     		ldr	r0, .L35
 331              	.LVL49:
 332 0072 00E0     		b	.L23
 333              	.LVL50:
 334              	.L33:
 267:..\..\u8g2\csrc/u8x8_8x8.c ****       return 0x0fffe;	/* nothing to do yet */
 335              		.loc 1 267 0
 336 0074 0148     		ldr	r0, .L35+4
 337              	.L23:
 268:..\..\u8g2\csrc/u8x8_8x8.c ****   }
 269:..\..\u8g2\csrc/u8x8_8x8.c ****   return u8x8->encoding;
 270:..\..\u8g2\csrc/u8x8_8x8.c **** }
 338              		.loc 1 270 0
 339              		@ sp needed
 340 0076 10BD     		pop	{r4, pc}
 341              	.L36:
 342              		.align	2
 343              	.L35:
 344 0078 FFFF0000 		.word	65535
 345 007c FEFF0000 		.word	65534
 346              		.cfi_endproc
ARM GAS  C:\Users\gjl\AppData\Local\Temp\cc0o8GI2.s 			page 12


 347              	.LFE8:
 348              		.size	u8x8_utf8_next, .-u8x8_utf8_next
 349              		.section	.text.u8x8_SetFont,"ax",%progbits
 350              		.align	1
 351              		.global	u8x8_SetFont
 352              		.code	16
 353              		.thumb_func
 354              		.type	u8x8_SetFont, %function
 355              	u8x8_SetFont:
 356              	.LFB0:
  51:..\..\u8g2\csrc/u8x8_8x8.c ****   u8x8->font = font_8x8;
 357              		.loc 1 51 0
 358              		.cfi_startproc
 359              		@ args = 0, pretend = 0, frame = 0
 360              		@ frame_needed = 0, uses_anonymous_args = 0
 361              		@ link register save eliminated.
 362              	.LVL51:
  52:..\..\u8g2\csrc/u8x8_8x8.c **** }
 363              		.loc 1 52 0
 364 0000 8161     		str	r1, [r0, #24]
  53:..\..\u8g2\csrc/u8x8_8x8.c **** 
 365              		.loc 1 53 0
 366              		@ sp needed
 367 0002 7047     		bx	lr
 368              		.cfi_endproc
 369              	.LFE0:
 370              		.size	u8x8_SetFont, .-u8x8_SetFont
 371              		.section	.text.u8x8_DrawGlyph,"ax",%progbits
 372              		.align	1
 373              		.global	u8x8_DrawGlyph
 374              		.code	16
 375              		.thumb_func
 376              		.type	u8x8_DrawGlyph, %function
 377              	u8x8_DrawGlyph:
 378              	.LFB2:
 102:..\..\u8g2\csrc/u8x8_8x8.c ****   uint8_t buf[8];
 379              		.loc 1 102 0
 380              		.cfi_startproc
 381              		@ args = 0, pretend = 0, frame = 8
 382              		@ frame_needed = 0, uses_anonymous_args = 0
 383              	.LVL52:
 384 0000 F0B5     		push	{r4, r5, r6, r7, lr}
 385              		.cfi_def_cfa_offset 20
 386              		.cfi_offset 4, -20
 387              		.cfi_offset 5, -16
 388              		.cfi_offset 6, -12
 389              		.cfi_offset 7, -8
 390              		.cfi_offset 14, -4
 391 0002 0400     		movs	r4, r0
 392 0004 0E00     		movs	r6, r1
 393 0006 1700     		movs	r7, r2
 394 0008 85B0     		sub	sp, sp, #20
 395              		.cfi_def_cfa_offset 40
 104:..\..\u8g2\csrc/u8x8_8x8.c ****   u8x8_DrawTile(u8x8, x, y, 1, buf);
 396              		.loc 1 104 0
 397 000a 02AD     		add	r5, sp, #8
 398 000c 2A00     		movs	r2, r5
ARM GAS  C:\Users\gjl\AppData\Local\Temp\cc0o8GI2.s 			page 13


 399              	.LVL53:
 400 000e 1900     		movs	r1, r3
 401              	.LVL54:
 402 0010 FFF7FEFF 		bl	u8x8_get_glyph_data
 403              	.LVL55:
 105:..\..\u8g2\csrc/u8x8_8x8.c **** }
 404              		.loc 1 105 0
 405 0014 0095     		str	r5, [sp]
 406 0016 0123     		movs	r3, #1
 407 0018 3A00     		movs	r2, r7
 408 001a 3100     		movs	r1, r6
 409 001c 2000     		movs	r0, r4
 410 001e FFF7FEFF 		bl	u8x8_DrawTile
 411              	.LVL56:
 106:..\..\u8g2\csrc/u8x8_8x8.c **** 
 412              		.loc 1 106 0
 413 0022 05B0     		add	sp, sp, #20
 414              		@ sp needed
 415              	.LVL57:
 416 0024 F0BD     		pop	{r4, r5, r6, r7, pc}
 417              		.cfi_endproc
 418              	.LFE2:
 419              		.size	u8x8_DrawGlyph, .-u8x8_DrawGlyph
 420              		.section	.text.u8x8_draw_string,"ax",%progbits
 421              		.align	1
 422              		.code	16
 423              		.thumb_func
 424              		.type	u8x8_draw_string, %function
 425              	u8x8_draw_string:
 426              	.LFB9:
 271:..\..\u8g2\csrc/u8x8_8x8.c **** 
 272:..\..\u8g2\csrc/u8x8_8x8.c **** 
 273:..\..\u8g2\csrc/u8x8_8x8.c **** 
 274:..\..\u8g2\csrc/u8x8_8x8.c **** static uint8_t u8x8_draw_string(u8x8_t *u8x8, uint8_t x, uint8_t y, const char *s) U8X8_NOINLINE;
 275:..\..\u8g2\csrc/u8x8_8x8.c **** static uint8_t u8x8_draw_string(u8x8_t *u8x8, uint8_t x, uint8_t y, const char *s)
 276:..\..\u8g2\csrc/u8x8_8x8.c **** {
 427              		.loc 1 276 0
 428              		.cfi_startproc
 429              		@ args = 0, pretend = 0, frame = 8
 430              		@ frame_needed = 0, uses_anonymous_args = 0
 431              	.LVL58:
 432 0000 F7B5     		push	{r0, r1, r2, r4, r5, r6, r7, lr}
 433              		.cfi_def_cfa_offset 32
 434              		.cfi_offset 0, -32
 435              		.cfi_offset 1, -28
 436              		.cfi_offset 2, -24
 437              		.cfi_offset 4, -20
 438              		.cfi_offset 5, -16
 439              		.cfi_offset 6, -12
 440              		.cfi_offset 7, -8
 441              		.cfi_offset 14, -4
 442              	.LBB12:
 443              	.LBB13:
 203:..\..\u8g2\csrc/u8x8_8x8.c **** }
 444              		.loc 1 203 0
 445 0002 0024     		movs	r4, #0
 446              	.LBE13:
ARM GAS  C:\Users\gjl\AppData\Local\Temp\cc0o8GI2.s 			page 14


 447              	.LBE12:
 448              		.loc 1 276 0
 449 0004 0600     		movs	r6, r0
 450 0006 0D00     		movs	r5, r1
 451 0008 1F00     		movs	r7, r3
 452              	.LBB16:
 453              	.LBB14:
 203:..\..\u8g2\csrc/u8x8_8x8.c **** }
 454              		.loc 1 203 0
 455 000a 031D     		adds	r3, r0, #4
 456              	.LVL59:
 457              	.LBE14:
 458              	.LBE16:
 459              		.loc 1 276 0
 460 000c 0192     		str	r2, [sp, #4]
 461              	.LBB17:
 462              	.LBB15:
 203:..\..\u8g2\csrc/u8x8_8x8.c **** }
 463              		.loc 1 203 0
 464 000e DC77     		strb	r4, [r3, #31]
 465              	.LVL60:
 466              	.L40:
 467              	.LBE15:
 468              	.LBE17:
 277:..\..\u8g2\csrc/u8x8_8x8.c ****   uint16_t e;
 278:..\..\u8g2\csrc/u8x8_8x8.c ****   uint8_t cnt = 0;
 279:..\..\u8g2\csrc/u8x8_8x8.c ****   u8x8_utf8_init(u8x8);
 280:..\..\u8g2\csrc/u8x8_8x8.c ****   for(;;)
 281:..\..\u8g2\csrc/u8x8_8x8.c ****   {
 282:..\..\u8g2\csrc/u8x8_8x8.c ****     e = u8x8->next_cb(u8x8, (uint8_t)*s);
 469              		.loc 1 282 0
 470 0010 7368     		ldr	r3, [r6, #4]
 471 0012 3978     		ldrb	r1, [r7]
 472 0014 3000     		movs	r0, r6
 473 0016 9847     		blx	r3
 474              	.LVL61:
 283:..\..\u8g2\csrc/u8x8_8x8.c ****     if ( e == 0x0ffff )
 475              		.loc 1 283 0
 476 0018 094B     		ldr	r3, .L43
 477 001a 9842     		cmp	r0, r3
 478 001c 0ED0     		beq	.L41
 284:..\..\u8g2\csrc/u8x8_8x8.c ****       break;
 285:..\..\u8g2\csrc/u8x8_8x8.c ****     s++;
 286:..\..\u8g2\csrc/u8x8_8x8.c ****     if ( e != 0x0fffe )
 479              		.loc 1 286 0
 480 001e 094B     		ldr	r3, .L43+4
 285:..\..\u8g2\csrc/u8x8_8x8.c ****     if ( e != 0x0fffe )
 481              		.loc 1 285 0
 482 0020 0137     		adds	r7, r7, #1
 483              	.LVL62:
 484              		.loc 1 286 0
 485 0022 9842     		cmp	r0, r3
 486 0024 F4D0     		beq	.L40
 287:..\..\u8g2\csrc/u8x8_8x8.c ****     {
 288:..\..\u8g2\csrc/u8x8_8x8.c ****       u8x8_DrawGlyph(u8x8, x, y, e);
 487              		.loc 1 288 0
 488 0026 C3B2     		uxtb	r3, r0
ARM GAS  C:\Users\gjl\AppData\Local\Temp\cc0o8GI2.s 			page 15


 489 0028 2900     		movs	r1, r5
 490 002a 019A     		ldr	r2, [sp, #4]
 491 002c 3000     		movs	r0, r6
 492              	.LVL63:
 289:..\..\u8g2\csrc/u8x8_8x8.c ****       x++;
 493              		.loc 1 289 0
 494 002e 0135     		adds	r5, r5, #1
 495              	.LVL64:
 290:..\..\u8g2\csrc/u8x8_8x8.c ****       cnt++;
 496              		.loc 1 290 0
 497 0030 0134     		adds	r4, r4, #1
 498              	.LVL65:
 288:..\..\u8g2\csrc/u8x8_8x8.c ****       x++;
 499              		.loc 1 288 0
 500 0032 FFF7FEFF 		bl	u8x8_DrawGlyph
 501              	.LVL66:
 289:..\..\u8g2\csrc/u8x8_8x8.c ****       x++;
 502              		.loc 1 289 0
 503 0036 EDB2     		uxtb	r5, r5
 504              	.LVL67:
 505              		.loc 1 290 0
 506 0038 E4B2     		uxtb	r4, r4
 507              	.LVL68:
 508 003a E9E7     		b	.L40
 509              	.LVL69:
 510              	.L41:
 291:..\..\u8g2\csrc/u8x8_8x8.c ****     }
 292:..\..\u8g2\csrc/u8x8_8x8.c ****   }
 293:..\..\u8g2\csrc/u8x8_8x8.c ****   return cnt;
 294:..\..\u8g2\csrc/u8x8_8x8.c **** }
 511              		.loc 1 294 0
 512 003c 2000     		movs	r0, r4
 513              	.LVL70:
 514              		@ sp needed
 515              	.LVL71:
 516              	.LVL72:
 517              	.LVL73:
 518              	.LVL74:
 519 003e FEBD     		pop	{r1, r2, r3, r4, r5, r6, r7, pc}
 520              	.L44:
 521              		.align	2
 522              	.L43:
 523 0040 FFFF0000 		.word	65535
 524 0044 FEFF0000 		.word	65534
 525              		.cfi_endproc
 526              	.LFE9:
 527              		.size	u8x8_draw_string, .-u8x8_draw_string
 528              		.section	.text.u8x8_upscale_byte,"ax",%progbits
 529              		.align	1
 530              		.global	u8x8_upscale_byte
 531              		.code	16
 532              		.thumb_func
 533              		.type	u8x8_upscale_byte, %function
 534              	u8x8_upscale_byte:
 535              	.LFB3:
 134:..\..\u8g2\csrc/u8x8_8x8.c **** 	uint16_t y = x;
 536              		.loc 1 134 0
ARM GAS  C:\Users\gjl\AppData\Local\Temp\cc0o8GI2.s 			page 16


 537              		.cfi_startproc
 538              		@ args = 0, pretend = 0, frame = 0
 539              		@ frame_needed = 0, uses_anonymous_args = 0
 540              		@ link register save eliminated.
 541              	.LVL75:
 136:..\..\u8g2\csrc/u8x8_8x8.c **** 	y &= 0x0f0f;
 542              		.loc 1 136 0
 543 0000 0301     		lsls	r3, r0, #4
 544 0002 1843     		orrs	r0, r3
 545              	.LVL76:
 137:..\..\u8g2\csrc/u8x8_8x8.c **** 	y |= (y << 2);		// x = (x | (x << S[1])) & B[1];
 546              		.loc 1 137 0
 547 0004 064B     		ldr	r3, .L46
 145:..\..\u8g2\csrc/u8x8_8x8.c **** 
 548              		.loc 1 145 0
 549              		@ sp needed
 137:..\..\u8g2\csrc/u8x8_8x8.c **** 	y |= (y << 2);		// x = (x | (x << S[1])) & B[1];
 550              		.loc 1 137 0
 551 0006 1840     		ands	r0, r3
 552              	.LVL77:
 138:..\..\u8g2\csrc/u8x8_8x8.c **** 	y &= 0x3333;
 553              		.loc 1 138 0
 554 0008 8300     		lsls	r3, r0, #2
 555 000a 1843     		orrs	r0, r3
 556              	.LVL78:
 139:..\..\u8g2\csrc/u8x8_8x8.c **** 	y |= (y << 1);		// x = (x | (x << S[0])) & B[0];
 557              		.loc 1 139 0
 558 000c 054B     		ldr	r3, .L46+4
 559 000e 1840     		ands	r0, r3
 560              	.LVL79:
 140:..\..\u8g2\csrc/u8x8_8x8.c **** 	y &= 0x5555;
 561              		.loc 1 140 0
 562 0010 4300     		lsls	r3, r0, #1
 563 0012 1843     		orrs	r0, r3
 564              	.LVL80:
 141:..\..\u8g2\csrc/u8x8_8x8.c ****   
 565              		.loc 1 141 0
 566 0014 044B     		ldr	r3, .L46+8
 567 0016 1840     		ands	r0, r3
 568              	.LVL81:
 143:..\..\u8g2\csrc/u8x8_8x8.c **** 	return y;
 569              		.loc 1 143 0
 570 0018 4300     		lsls	r3, r0, #1
 571              	.LVL82:
 144:..\..\u8g2\csrc/u8x8_8x8.c **** }
 572              		.loc 1 144 0
 573 001a 1843     		orrs	r0, r3
 574              	.LVL83:
 145:..\..\u8g2\csrc/u8x8_8x8.c **** 
 575              		.loc 1 145 0
 576 001c 7047     		bx	lr
 577              	.L47:
 578 001e C046     		.align	2
 579              	.L46:
 580 0020 0F0F0000 		.word	3855
 581 0024 33330000 		.word	13107
 582 0028 55550000 		.word	21845
ARM GAS  C:\Users\gjl\AppData\Local\Temp\cc0o8GI2.s 			page 17


 583              		.cfi_endproc
 584              	.LFE3:
 585              		.size	u8x8_upscale_byte, .-u8x8_upscale_byte
 586              		.section	.text.u8x8_Draw2x2Glyph,"ax",%progbits
 587              		.align	1
 588              		.global	u8x8_Draw2x2Glyph
 589              		.code	16
 590              		.thumb_func
 591              		.type	u8x8_Draw2x2Glyph, %function
 592              	u8x8_Draw2x2Glyph:
 593              	.LFB5:
 160:..\..\u8g2\csrc/u8x8_8x8.c ****   uint8_t i;
 594              		.loc 1 160 0
 595              		.cfi_startproc
 596              		@ args = 0, pretend = 0, frame = 32
 597              		@ frame_needed = 0, uses_anonymous_args = 0
 598              	.LVL84:
 599 0000 F0B5     		push	{r4, r5, r6, r7, lr}
 600              		.cfi_def_cfa_offset 20
 601              		.cfi_offset 4, -20
 602              		.cfi_offset 5, -16
 603              		.cfi_offset 6, -12
 604              		.cfi_offset 7, -8
 605              		.cfi_offset 14, -4
 606 0002 8BB0     		sub	sp, sp, #44
 607              		.cfi_def_cfa_offset 64
 166:..\..\u8g2\csrc/u8x8_8x8.c ****   for( i = 0; i < 8; i ++ )
 608              		.loc 1 166 0
 609 0004 04AC     		add	r4, sp, #16
 160:..\..\u8g2\csrc/u8x8_8x8.c ****   uint8_t i;
 610              		.loc 1 160 0
 611 0006 0292     		str	r2, [sp, #8]
 612 0008 0F00     		movs	r7, r1
 166:..\..\u8g2\csrc/u8x8_8x8.c ****   for( i = 0; i < 8; i ++ )
 613              		.loc 1 166 0
 614 000a 2200     		movs	r2, r4
 615              	.LVL85:
 616 000c 1900     		movs	r1, r3
 617              	.LVL86:
 160:..\..\u8g2\csrc/u8x8_8x8.c ****   uint8_t i;
 618              		.loc 1 160 0
 619 000e 0600     		movs	r6, r0
 166:..\..\u8g2\csrc/u8x8_8x8.c ****   for( i = 0; i < 8; i ++ )
 620              		.loc 1 166 0
 621 0010 0025     		movs	r5, #0
 622 0012 FFF7FEFF 		bl	u8x8_get_glyph_data
 623              	.LVL87:
 624              	.L49:
 169:..\..\u8g2\csrc/u8x8_8x8.c ****       buf1[i] = t >> 8;
 625              		.loc 1 169 0 discriminator 3
 626 0016 605D     		ldrb	r0, [r4, r5]
 627 0018 FFF7FEFF 		bl	u8x8_upscale_byte
 628              	.LVL88:
 170:..\..\u8g2\csrc/u8x8_8x8.c ****       buf2[i] = t & 255;
 629              		.loc 1 170 0 discriminator 3
 630 001c 1021     		movs	r1, #16
 631 001e 02AA     		add	r2, sp, #8
ARM GAS  C:\Users\gjl\AppData\Local\Temp\cc0o8GI2.s 			page 18


 632 0020 030A     		lsrs	r3, r0, #8
 633 0022 5218     		adds	r2, r2, r1
 634 0024 5355     		strb	r3, [r2, r5]
 171:..\..\u8g2\csrc/u8x8_8x8.c ****   }
 635              		.loc 1 171 0 discriminator 3
 636 0026 08AB     		add	r3, sp, #32
 637 0028 E854     		strb	r0, [r5, r3]
 638              	.LVL89:
 639 002a 0135     		adds	r5, r5, #1
 640              	.LVL90:
 167:..\..\u8g2\csrc/u8x8_8x8.c ****   {
 641              		.loc 1 167 0 discriminator 3
 642 002c 082D     		cmp	r5, #8
 643 002e F2D1     		bne	.L49
 173:..\..\u8g2\csrc/u8x8_8x8.c ****   u8x8_DrawTile(u8x8, x, y, 1, buf);
 644              		.loc 1 173 0
 645 0030 2100     		movs	r1, r4
 646 0032 1800     		movs	r0, r3
 647              	.LVL91:
 648 0034 FFF7FEFF 		bl	u8x8_upscale_buf
 649              	.LVL92:
 174:..\..\u8g2\csrc/u8x8_8x8.c ****   
 650              		.loc 1 174 0
 651 0038 029A     		ldr	r2, [sp, #8]
 652 003a 0123     		movs	r3, #1
 653 003c 3900     		movs	r1, r7
 654 003e 0094     		str	r4, [sp]
 655 0040 3000     		movs	r0, r6
 656 0042 FFF7FEFF 		bl	u8x8_DrawTile
 657              	.LVL93:
 176:..\..\u8g2\csrc/u8x8_8x8.c ****   u8x8_DrawTile(u8x8, x+1, y, 1, buf);
 658              		.loc 1 176 0
 659 0046 2100     		movs	r1, r4
 660 0048 09A8     		add	r0, sp, #36
 661 004a FFF7FEFF 		bl	u8x8_upscale_buf
 662              	.LVL94:
 177:..\..\u8g2\csrc/u8x8_8x8.c ****   
 663              		.loc 1 177 0
 664 004e 7B1C     		adds	r3, r7, #1
 665 0050 DBB2     		uxtb	r3, r3
 666 0052 0393     		str	r3, [sp, #12]
 667 0054 029A     		ldr	r2, [sp, #8]
 668 0056 0123     		movs	r3, #1
 669 0058 0399     		ldr	r1, [sp, #12]
 670 005a 0094     		str	r4, [sp]
 671 005c 3000     		movs	r0, r6
 672 005e FFF7FEFF 		bl	u8x8_DrawTile
 673              	.LVL95:
 179:..\..\u8g2\csrc/u8x8_8x8.c ****   u8x8_DrawTile(u8x8, x, y+1, 1, buf);
 674              		.loc 1 179 0
 675 0062 2100     		movs	r1, r4
 676 0064 06A8     		add	r0, sp, #24
 677 0066 FFF7FEFF 		bl	u8x8_upscale_buf
 678              	.LVL96:
 180:..\..\u8g2\csrc/u8x8_8x8.c ****   
 679              		.loc 1 180 0
 680 006a 029D     		ldr	r5, [sp, #8]
ARM GAS  C:\Users\gjl\AppData\Local\Temp\cc0o8GI2.s 			page 19


 681 006c 0123     		movs	r3, #1
 682 006e 0135     		adds	r5, r5, #1
 683 0070 EDB2     		uxtb	r5, r5
 684 0072 2A00     		movs	r2, r5
 685 0074 3900     		movs	r1, r7
 686 0076 0094     		str	r4, [sp]
 687 0078 3000     		movs	r0, r6
 688 007a FFF7FEFF 		bl	u8x8_DrawTile
 689              	.LVL97:
 182:..\..\u8g2\csrc/u8x8_8x8.c ****   u8x8_DrawTile(u8x8, x+1, y+1, 1, buf);  
 690              		.loc 1 182 0
 691 007e 2100     		movs	r1, r4
 692 0080 07A8     		add	r0, sp, #28
 693 0082 FFF7FEFF 		bl	u8x8_upscale_buf
 694              	.LVL98:
 183:..\..\u8g2\csrc/u8x8_8x8.c **** }
 695              		.loc 1 183 0
 696 0086 0094     		str	r4, [sp]
 697 0088 0123     		movs	r3, #1
 698 008a 2A00     		movs	r2, r5
 699 008c 0399     		ldr	r1, [sp, #12]
 700 008e 3000     		movs	r0, r6
 701 0090 FFF7FEFF 		bl	u8x8_DrawTile
 702              	.LVL99:
 184:..\..\u8g2\csrc/u8x8_8x8.c **** 
 703              		.loc 1 184 0
 704 0094 0BB0     		add	sp, sp, #44
 705              		@ sp needed
 706              	.LVL100:
 707 0096 F0BD     		pop	{r4, r5, r6, r7, pc}
 708              		.cfi_endproc
 709              	.LFE5:
 710              		.size	u8x8_Draw2x2Glyph, .-u8x8_Draw2x2Glyph
 711              		.section	.text.u8x8_draw_2x2_string,"ax",%progbits
 712              		.align	1
 713              		.code	16
 714              		.thumb_func
 715              		.type	u8x8_draw_2x2_string, %function
 716              	u8x8_draw_2x2_string:
 717              	.LFB12:
 295:..\..\u8g2\csrc/u8x8_8x8.c **** 
 296:..\..\u8g2\csrc/u8x8_8x8.c **** 
 297:..\..\u8g2\csrc/u8x8_8x8.c **** uint8_t u8x8_DrawString(u8x8_t *u8x8, uint8_t x, uint8_t y, const char *s)
 298:..\..\u8g2\csrc/u8x8_8x8.c **** {
 299:..\..\u8g2\csrc/u8x8_8x8.c ****   u8x8->next_cb = u8x8_ascii_next;
 300:..\..\u8g2\csrc/u8x8_8x8.c ****   return u8x8_draw_string(u8x8, x, y, s);
 301:..\..\u8g2\csrc/u8x8_8x8.c **** }
 302:..\..\u8g2\csrc/u8x8_8x8.c **** 
 303:..\..\u8g2\csrc/u8x8_8x8.c **** uint8_t u8x8_DrawUTF8(u8x8_t *u8x8, uint8_t x, uint8_t y, const char *s)
 304:..\..\u8g2\csrc/u8x8_8x8.c **** {
 305:..\..\u8g2\csrc/u8x8_8x8.c ****   u8x8->next_cb = u8x8_utf8_next;
 306:..\..\u8g2\csrc/u8x8_8x8.c ****   return u8x8_draw_string(u8x8, x, y, s);
 307:..\..\u8g2\csrc/u8x8_8x8.c **** }
 308:..\..\u8g2\csrc/u8x8_8x8.c **** 
 309:..\..\u8g2\csrc/u8x8_8x8.c **** 
 310:..\..\u8g2\csrc/u8x8_8x8.c **** 
 311:..\..\u8g2\csrc/u8x8_8x8.c **** static uint8_t u8x8_draw_2x2_string(u8x8_t *u8x8, uint8_t x, uint8_t y, const char *s) U8X8_NOINLIN
ARM GAS  C:\Users\gjl\AppData\Local\Temp\cc0o8GI2.s 			page 20


 312:..\..\u8g2\csrc/u8x8_8x8.c **** static uint8_t u8x8_draw_2x2_string(u8x8_t *u8x8, uint8_t x, uint8_t y, const char *s)
 313:..\..\u8g2\csrc/u8x8_8x8.c **** {
 718              		.loc 1 313 0
 719              		.cfi_startproc
 720              		@ args = 0, pretend = 0, frame = 8
 721              		@ frame_needed = 0, uses_anonymous_args = 0
 722              	.LVL101:
 723 0000 F7B5     		push	{r0, r1, r2, r4, r5, r6, r7, lr}
 724              		.cfi_def_cfa_offset 32
 725              		.cfi_offset 0, -32
 726              		.cfi_offset 1, -28
 727              		.cfi_offset 2, -24
 728              		.cfi_offset 4, -20
 729              		.cfi_offset 5, -16
 730              		.cfi_offset 6, -12
 731              		.cfi_offset 7, -8
 732              		.cfi_offset 14, -4
 733              	.LBB18:
 734              	.LBB19:
 203:..\..\u8g2\csrc/u8x8_8x8.c **** }
 735              		.loc 1 203 0
 736 0002 0024     		movs	r4, #0
 737              	.LBE19:
 738              	.LBE18:
 739              		.loc 1 313 0
 740 0004 0600     		movs	r6, r0
 741 0006 0D00     		movs	r5, r1
 742 0008 1F00     		movs	r7, r3
 743              	.LBB22:
 744              	.LBB20:
 203:..\..\u8g2\csrc/u8x8_8x8.c **** }
 745              		.loc 1 203 0
 746 000a 031D     		adds	r3, r0, #4
 747              	.LVL102:
 748              	.LBE20:
 749              	.LBE22:
 750              		.loc 1 313 0
 751 000c 0192     		str	r2, [sp, #4]
 752              	.LBB23:
 753              	.LBB21:
 203:..\..\u8g2\csrc/u8x8_8x8.c **** }
 754              		.loc 1 203 0
 755 000e DC77     		strb	r4, [r3, #31]
 756              	.LVL103:
 757              	.L52:
 758              	.LBE21:
 759              	.LBE23:
 314:..\..\u8g2\csrc/u8x8_8x8.c ****   uint16_t e;
 315:..\..\u8g2\csrc/u8x8_8x8.c ****   uint8_t cnt = 0;
 316:..\..\u8g2\csrc/u8x8_8x8.c ****   u8x8_utf8_init(u8x8);
 317:..\..\u8g2\csrc/u8x8_8x8.c ****   for(;;)
 318:..\..\u8g2\csrc/u8x8_8x8.c ****   {
 319:..\..\u8g2\csrc/u8x8_8x8.c ****     e = u8x8->next_cb(u8x8, (uint8_t)*s);
 760              		.loc 1 319 0
 761 0010 7368     		ldr	r3, [r6, #4]
 762 0012 3978     		ldrb	r1, [r7]
 763 0014 3000     		movs	r0, r6
ARM GAS  C:\Users\gjl\AppData\Local\Temp\cc0o8GI2.s 			page 21


 764 0016 9847     		blx	r3
 765              	.LVL104:
 320:..\..\u8g2\csrc/u8x8_8x8.c ****     if ( e == 0x0ffff )
 766              		.loc 1 320 0
 767 0018 094B     		ldr	r3, .L55
 768 001a 9842     		cmp	r0, r3
 769 001c 0ED0     		beq	.L53
 321:..\..\u8g2\csrc/u8x8_8x8.c ****       break;
 322:..\..\u8g2\csrc/u8x8_8x8.c ****     s++;
 323:..\..\u8g2\csrc/u8x8_8x8.c ****     if ( e != 0x0fffe )
 770              		.loc 1 323 0
 771 001e 094B     		ldr	r3, .L55+4
 322:..\..\u8g2\csrc/u8x8_8x8.c ****     if ( e != 0x0fffe )
 772              		.loc 1 322 0
 773 0020 0137     		adds	r7, r7, #1
 774              	.LVL105:
 775              		.loc 1 323 0
 776 0022 9842     		cmp	r0, r3
 777 0024 F4D0     		beq	.L52
 324:..\..\u8g2\csrc/u8x8_8x8.c ****     {
 325:..\..\u8g2\csrc/u8x8_8x8.c ****       u8x8_Draw2x2Glyph(u8x8, x, y, e);
 778              		.loc 1 325 0
 779 0026 C3B2     		uxtb	r3, r0
 780 0028 2900     		movs	r1, r5
 781 002a 019A     		ldr	r2, [sp, #4]
 782 002c 3000     		movs	r0, r6
 783              	.LVL106:
 326:..\..\u8g2\csrc/u8x8_8x8.c ****       x+=2;
 784              		.loc 1 326 0
 785 002e 0235     		adds	r5, r5, #2
 786              	.LVL107:
 327:..\..\u8g2\csrc/u8x8_8x8.c ****       cnt++;
 787              		.loc 1 327 0
 788 0030 0134     		adds	r4, r4, #1
 789              	.LVL108:
 325:..\..\u8g2\csrc/u8x8_8x8.c ****       x+=2;
 790              		.loc 1 325 0
 791 0032 FFF7FEFF 		bl	u8x8_Draw2x2Glyph
 792              	.LVL109:
 326:..\..\u8g2\csrc/u8x8_8x8.c ****       x+=2;
 793              		.loc 1 326 0
 794 0036 EDB2     		uxtb	r5, r5
 795              	.LVL110:
 796              		.loc 1 327 0
 797 0038 E4B2     		uxtb	r4, r4
 798              	.LVL111:
 799 003a E9E7     		b	.L52
 800              	.LVL112:
 801              	.L53:
 328:..\..\u8g2\csrc/u8x8_8x8.c ****     }
 329:..\..\u8g2\csrc/u8x8_8x8.c ****   }
 330:..\..\u8g2\csrc/u8x8_8x8.c ****   return cnt;
 331:..\..\u8g2\csrc/u8x8_8x8.c **** }
 802              		.loc 1 331 0
 803 003c 2000     		movs	r0, r4
 804              	.LVL113:
 805              		@ sp needed
ARM GAS  C:\Users\gjl\AppData\Local\Temp\cc0o8GI2.s 			page 22


 806              	.LVL114:
 807              	.LVL115:
 808              	.LVL116:
 809              	.LVL117:
 810 003e FEBD     		pop	{r1, r2, r3, r4, r5, r6, r7, pc}
 811              	.L56:
 812              		.align	2
 813              	.L55:
 814 0040 FFFF0000 		.word	65535
 815 0044 FEFF0000 		.word	65534
 816              		.cfi_endproc
 817              	.LFE12:
 818              		.size	u8x8_draw_2x2_string, .-u8x8_draw_2x2_string
 819              		.section	.text.u8x8_utf8_init,"ax",%progbits
 820              		.align	1
 821              		.global	u8x8_utf8_init
 822              		.code	16
 823              		.thumb_func
 824              		.type	u8x8_utf8_init, %function
 825              	u8x8_utf8_init:
 826              	.LFB6:
 202:..\..\u8g2\csrc/u8x8_8x8.c ****   u8x8->utf8_state = 0;	/* also reset during u8x8_SetupDefaults() */
 827              		.loc 1 202 0
 828              		.cfi_startproc
 829              		@ args = 0, pretend = 0, frame = 0
 830              		@ frame_needed = 0, uses_anonymous_args = 0
 831              		@ link register save eliminated.
 832              	.LVL118:
 203:..\..\u8g2\csrc/u8x8_8x8.c **** }
 833              		.loc 1 203 0
 834 0000 0023     		movs	r3, #0
 835 0002 0430     		adds	r0, r0, #4
 836              	.LVL119:
 837 0004 C377     		strb	r3, [r0, #31]
 204:..\..\u8g2\csrc/u8x8_8x8.c **** 
 838              		.loc 1 204 0
 839              		@ sp needed
 840 0006 7047     		bx	lr
 841              		.cfi_endproc
 842              	.LFE6:
 843              		.size	u8x8_utf8_init, .-u8x8_utf8_init
 844              		.section	.text.u8x8_DrawString,"ax",%progbits
 845              		.align	1
 846              		.global	u8x8_DrawString
 847              		.code	16
 848              		.thumb_func
 849              		.type	u8x8_DrawString, %function
 850              	u8x8_DrawString:
 851              	.LFB10:
 298:..\..\u8g2\csrc/u8x8_8x8.c ****   u8x8->next_cb = u8x8_ascii_next;
 852              		.loc 1 298 0
 853              		.cfi_startproc
 854              		@ args = 0, pretend = 0, frame = 0
 855              		@ frame_needed = 0, uses_anonymous_args = 0
 856              	.LVL120:
 857 0000 10B5     		push	{r4, lr}
 858              		.cfi_def_cfa_offset 8
ARM GAS  C:\Users\gjl\AppData\Local\Temp\cc0o8GI2.s 			page 23


 859              		.cfi_offset 4, -8
 860              		.cfi_offset 14, -4
 299:..\..\u8g2\csrc/u8x8_8x8.c ****   return u8x8_draw_string(u8x8, x, y, s);
 861              		.loc 1 299 0
 862 0002 024C     		ldr	r4, .L59
 301:..\..\u8g2\csrc/u8x8_8x8.c **** 
 863              		.loc 1 301 0
 864              		@ sp needed
 299:..\..\u8g2\csrc/u8x8_8x8.c ****   return u8x8_draw_string(u8x8, x, y, s);
 865              		.loc 1 299 0
 866 0004 4460     		str	r4, [r0, #4]
 300:..\..\u8g2\csrc/u8x8_8x8.c **** }
 867              		.loc 1 300 0
 868 0006 FFF7FEFF 		bl	u8x8_draw_string
 869              	.LVL121:
 301:..\..\u8g2\csrc/u8x8_8x8.c **** 
 870              		.loc 1 301 0
 871 000a 10BD     		pop	{r4, pc}
 872              	.L60:
 873              		.align	2
 874              	.L59:
 875 000c 00000000 		.word	u8x8_ascii_next
 876              		.cfi_endproc
 877              	.LFE10:
 878              		.size	u8x8_DrawString, .-u8x8_DrawString
 879              		.section	.text.u8x8_DrawUTF8,"ax",%progbits
 880              		.align	1
 881              		.global	u8x8_DrawUTF8
 882              		.code	16
 883              		.thumb_func
 884              		.type	u8x8_DrawUTF8, %function
 885              	u8x8_DrawUTF8:
 886              	.LFB11:
 304:..\..\u8g2\csrc/u8x8_8x8.c ****   u8x8->next_cb = u8x8_utf8_next;
 887              		.loc 1 304 0
 888              		.cfi_startproc
 889              		@ args = 0, pretend = 0, frame = 0
 890              		@ frame_needed = 0, uses_anonymous_args = 0
 891              	.LVL122:
 892 0000 10B5     		push	{r4, lr}
 893              		.cfi_def_cfa_offset 8
 894              		.cfi_offset 4, -8
 895              		.cfi_offset 14, -4
 305:..\..\u8g2\csrc/u8x8_8x8.c ****   return u8x8_draw_string(u8x8, x, y, s);
 896              		.loc 1 305 0
 897 0002 024C     		ldr	r4, .L62
 307:..\..\u8g2\csrc/u8x8_8x8.c **** 
 898              		.loc 1 307 0
 899              		@ sp needed
 305:..\..\u8g2\csrc/u8x8_8x8.c ****   return u8x8_draw_string(u8x8, x, y, s);
 900              		.loc 1 305 0
 901 0004 4460     		str	r4, [r0, #4]
 306:..\..\u8g2\csrc/u8x8_8x8.c **** }
 902              		.loc 1 306 0
 903 0006 FFF7FEFF 		bl	u8x8_draw_string
 904              	.LVL123:
 307:..\..\u8g2\csrc/u8x8_8x8.c **** 
ARM GAS  C:\Users\gjl\AppData\Local\Temp\cc0o8GI2.s 			page 24


 905              		.loc 1 307 0
 906 000a 10BD     		pop	{r4, pc}
 907              	.L63:
 908              		.align	2
 909              	.L62:
 910 000c 00000000 		.word	u8x8_utf8_next
 911              		.cfi_endproc
 912              	.LFE11:
 913              		.size	u8x8_DrawUTF8, .-u8x8_DrawUTF8
 914              		.section	.text.u8x8_Draw2x2String,"ax",%progbits
 915              		.align	1
 916              		.global	u8x8_Draw2x2String
 917              		.code	16
 918              		.thumb_func
 919              		.type	u8x8_Draw2x2String, %function
 920              	u8x8_Draw2x2String:
 921              	.LFB13:
 332:..\..\u8g2\csrc/u8x8_8x8.c **** 
 333:..\..\u8g2\csrc/u8x8_8x8.c **** 
 334:..\..\u8g2\csrc/u8x8_8x8.c **** uint8_t u8x8_Draw2x2String(u8x8_t *u8x8, uint8_t x, uint8_t y, const char *s)
 335:..\..\u8g2\csrc/u8x8_8x8.c **** {
 922              		.loc 1 335 0
 923              		.cfi_startproc
 924              		@ args = 0, pretend = 0, frame = 0
 925              		@ frame_needed = 0, uses_anonymous_args = 0
 926              	.LVL124:
 927 0000 10B5     		push	{r4, lr}
 928              		.cfi_def_cfa_offset 8
 929              		.cfi_offset 4, -8
 930              		.cfi_offset 14, -4
 336:..\..\u8g2\csrc/u8x8_8x8.c ****   u8x8->next_cb = u8x8_ascii_next;
 931              		.loc 1 336 0
 932 0002 024C     		ldr	r4, .L65
 337:..\..\u8g2\csrc/u8x8_8x8.c ****   return u8x8_draw_2x2_string(u8x8, x, y, s);
 338:..\..\u8g2\csrc/u8x8_8x8.c **** }
 933              		.loc 1 338 0
 934              		@ sp needed
 336:..\..\u8g2\csrc/u8x8_8x8.c ****   u8x8->next_cb = u8x8_ascii_next;
 935              		.loc 1 336 0
 936 0004 4460     		str	r4, [r0, #4]
 337:..\..\u8g2\csrc/u8x8_8x8.c ****   return u8x8_draw_2x2_string(u8x8, x, y, s);
 937              		.loc 1 337 0
 938 0006 FFF7FEFF 		bl	u8x8_draw_2x2_string
 939              	.LVL125:
 940              		.loc 1 338 0
 941 000a 10BD     		pop	{r4, pc}
 942              	.L66:
 943              		.align	2
 944              	.L65:
 945 000c 00000000 		.word	u8x8_ascii_next
 946              		.cfi_endproc
 947              	.LFE13:
 948              		.size	u8x8_Draw2x2String, .-u8x8_Draw2x2String
 949              		.section	.text.u8x8_Draw2x2UTF8,"ax",%progbits
 950              		.align	1
 951              		.global	u8x8_Draw2x2UTF8
 952              		.code	16
ARM GAS  C:\Users\gjl\AppData\Local\Temp\cc0o8GI2.s 			page 25


 953              		.thumb_func
 954              		.type	u8x8_Draw2x2UTF8, %function
 955              	u8x8_Draw2x2UTF8:
 956              	.LFB14:
 339:..\..\u8g2\csrc/u8x8_8x8.c **** 
 340:..\..\u8g2\csrc/u8x8_8x8.c **** uint8_t u8x8_Draw2x2UTF8(u8x8_t *u8x8, uint8_t x, uint8_t y, const char *s)
 341:..\..\u8g2\csrc/u8x8_8x8.c **** {
 957              		.loc 1 341 0
 958              		.cfi_startproc
 959              		@ args = 0, pretend = 0, frame = 0
 960              		@ frame_needed = 0, uses_anonymous_args = 0
 961              	.LVL126:
 962 0000 10B5     		push	{r4, lr}
 963              		.cfi_def_cfa_offset 8
 964              		.cfi_offset 4, -8
 965              		.cfi_offset 14, -4
 342:..\..\u8g2\csrc/u8x8_8x8.c ****   u8x8->next_cb = u8x8_utf8_next;
 966              		.loc 1 342 0
 967 0002 024C     		ldr	r4, .L68
 343:..\..\u8g2\csrc/u8x8_8x8.c ****   return u8x8_draw_2x2_string(u8x8, x, y, s);
 344:..\..\u8g2\csrc/u8x8_8x8.c **** }
 968              		.loc 1 344 0
 969              		@ sp needed
 342:..\..\u8g2\csrc/u8x8_8x8.c ****   u8x8->next_cb = u8x8_utf8_next;
 970              		.loc 1 342 0
 971 0004 4460     		str	r4, [r0, #4]
 343:..\..\u8g2\csrc/u8x8_8x8.c ****   return u8x8_draw_2x2_string(u8x8, x, y, s);
 972              		.loc 1 343 0
 973 0006 FFF7FEFF 		bl	u8x8_draw_2x2_string
 974              	.LVL127:
 975              		.loc 1 344 0
 976 000a 10BD     		pop	{r4, pc}
 977              	.L69:
 978              		.align	2
 979              	.L68:
 980 000c 00000000 		.word	u8x8_utf8_next
 981              		.cfi_endproc
 982              	.LFE14:
 983              		.size	u8x8_Draw2x2UTF8, .-u8x8_Draw2x2UTF8
 984              		.section	.text.u8x8_GetUTF8Len,"ax",%progbits
 985              		.align	1
 986              		.global	u8x8_GetUTF8Len
 987              		.code	16
 988              		.thumb_func
 989              		.type	u8x8_GetUTF8Len, %function
 990              	u8x8_GetUTF8Len:
 991              	.LFB15:
 345:..\..\u8g2\csrc/u8x8_8x8.c **** 
 346:..\..\u8g2\csrc/u8x8_8x8.c **** 
 347:..\..\u8g2\csrc/u8x8_8x8.c **** 
 348:..\..\u8g2\csrc/u8x8_8x8.c **** uint8_t u8x8_GetUTF8Len(u8x8_t *u8x8, const char *s)
 349:..\..\u8g2\csrc/u8x8_8x8.c **** {
 992              		.loc 1 349 0
 993              		.cfi_startproc
 994              		@ args = 0, pretend = 0, frame = 0
 995              		@ frame_needed = 0, uses_anonymous_args = 0
 996              	.LVL128:
ARM GAS  C:\Users\gjl\AppData\Local\Temp\cc0o8GI2.s 			page 26


 997 0000 70B5     		push	{r4, r5, r6, lr}
 998              		.cfi_def_cfa_offset 16
 999              		.cfi_offset 4, -16
 1000              		.cfi_offset 5, -12
 1001              		.cfi_offset 6, -8
 1002              		.cfi_offset 14, -4
 1003              	.LBB24:
 1004              	.LBB25:
 203:..\..\u8g2\csrc/u8x8_8x8.c **** }
 1005              		.loc 1 203 0
 1006 0002 0024     		movs	r4, #0
 1007              	.LBE25:
 1008              	.LBE24:
 1009              		.loc 1 349 0
 1010 0004 0600     		movs	r6, r0
 1011 0006 0D00     		movs	r5, r1
 1012              	.LBB27:
 1013              	.LBB26:
 203:..\..\u8g2\csrc/u8x8_8x8.c **** }
 1014              		.loc 1 203 0
 1015 0008 031D     		adds	r3, r0, #4
 1016 000a DC77     		strb	r4, [r3, #31]
 1017              	.LVL129:
 1018              	.L71:
 1019              	.LBE26:
 1020              	.LBE27:
 350:..\..\u8g2\csrc/u8x8_8x8.c ****   uint16_t e;
 351:..\..\u8g2\csrc/u8x8_8x8.c ****   uint8_t cnt = 0;
 352:..\..\u8g2\csrc/u8x8_8x8.c ****   u8x8_utf8_init(u8x8);
 353:..\..\u8g2\csrc/u8x8_8x8.c ****   for(;;)
 354:..\..\u8g2\csrc/u8x8_8x8.c ****   {
 355:..\..\u8g2\csrc/u8x8_8x8.c ****     e = u8x8_utf8_next(u8x8, *s);
 1021              		.loc 1 355 0
 1022 000c 2978     		ldrb	r1, [r5]
 1023 000e 3000     		movs	r0, r6
 1024 0010 FFF7FEFF 		bl	u8x8_utf8_next
 1025              	.LVL130:
 356:..\..\u8g2\csrc/u8x8_8x8.c ****     if ( e == 0x0ffff )
 1026              		.loc 1 356 0
 1027 0014 054B     		ldr	r3, .L74
 1028 0016 9842     		cmp	r0, r3
 1029 0018 06D0     		beq	.L72
 357:..\..\u8g2\csrc/u8x8_8x8.c ****       break;
 358:..\..\u8g2\csrc/u8x8_8x8.c ****     s++;
 359:..\..\u8g2\csrc/u8x8_8x8.c ****     if ( e != 0x0fffe )
 1030              		.loc 1 359 0
 1031 001a 054B     		ldr	r3, .L74+4
 358:..\..\u8g2\csrc/u8x8_8x8.c ****     if ( e != 0x0fffe )
 1032              		.loc 1 358 0
 1033 001c 0135     		adds	r5, r5, #1
 1034              	.LVL131:
 1035              		.loc 1 359 0
 1036 001e 9842     		cmp	r0, r3
 1037 0020 F4D0     		beq	.L71
 360:..\..\u8g2\csrc/u8x8_8x8.c ****       cnt++;
 1038              		.loc 1 360 0
 1039 0022 0134     		adds	r4, r4, #1
ARM GAS  C:\Users\gjl\AppData\Local\Temp\cc0o8GI2.s 			page 27


 1040              	.LVL132:
 1041 0024 E4B2     		uxtb	r4, r4
 1042              	.LVL133:
 1043 0026 F1E7     		b	.L71
 1044              	.L72:
 361:..\..\u8g2\csrc/u8x8_8x8.c ****   }
 362:..\..\u8g2\csrc/u8x8_8x8.c ****   return cnt;
 363:..\..\u8g2\csrc/u8x8_8x8.c **** }
 1045              		.loc 1 363 0
 1046 0028 2000     		movs	r0, r4
 1047              	.LVL134:
 1048              		@ sp needed
 1049              	.LVL135:
 1050              	.LVL136:
 1051              	.LVL137:
 1052 002a 70BD     		pop	{r4, r5, r6, pc}
 1053              	.L75:
 1054              		.align	2
 1055              	.L74:
 1056 002c FFFF0000 		.word	65535
 1057 0030 FEFF0000 		.word	65534
 1058              		.cfi_endproc
 1059              	.LFE15:
 1060              		.size	u8x8_GetUTF8Len, .-u8x8_GetUTF8Len
 1061              		.text
 1062              	.Letext0:
 1063              		.file 2 "c:\\program files (x86)\\cypress\\psoc creator\\4.1\\psoc creator\\import\\gnu\\arm\\5.4.
 1064              		.file 3 "c:\\program files (x86)\\cypress\\psoc creator\\4.1\\psoc creator\\import\\gnu\\arm\\5.4.
 1065              		.file 4 "..\\..\\u8g2\\csrc\\u8x8.h"