ARM GAS  C:\Users\Greg\AppData\Local\Temp\cc0xnBgg.s 			page 1


   1              		.syntax unified
   2              		.cpu cortex-m0
   3              		.fpu softvfp
   4              		.eabi_attribute 20, 1
   5              		.eabi_attribute 21, 1
   6              		.eabi_attribute 23, 3
   7              		.eabi_attribute 24, 1
   8              		.eabi_attribute 25, 1
   9              		.eabi_attribute 26, 1
  10              		.eabi_attribute 30, 4
  11              		.eabi_attribute 34, 0
  12              		.eabi_attribute 18, 4
  13              		.thumb
  14              		.syntax unified
  15              		.file	"u8x8_d_ssd1606_172x72.c"
  16              		.text
  17              	.Ltext0:
  18              		.cfi_sections	.debug_frame
  19              		.section	.text.u8x8_d_ssd1606_draw_tile,"ax",%progbits
  20              		.align	1
  21              		.code	16
  22              		.thumb_func
  23              		.type	u8x8_d_ssd1606_draw_tile, %function
  24              	u8x8_d_ssd1606_draw_tile:
  25              	.LFB1:
  26              		.file 1 "..\\..\\u8g2\\csrc\\u8x8_d_ssd1606_172x72.c"
   1:..\..\u8g2\csrc/u8x8_d_ssd1606_172x72.c **** /*
   2:..\..\u8g2\csrc/u8x8_d_ssd1606_172x72.c **** 
   3:..\..\u8g2\csrc/u8x8_d_ssd1606_172x72.c ****   u8x8_d_ssd1606_172x72.c
   4:..\..\u8g2\csrc/u8x8_d_ssd1606_172x72.c **** 
   5:..\..\u8g2\csrc/u8x8_d_ssd1606_172x72.c ****   Universal 8bit Graphics Library (https://github.com/olikraus/u8g2/)
   6:..\..\u8g2\csrc/u8x8_d_ssd1606_172x72.c **** 
   7:..\..\u8g2\csrc/u8x8_d_ssd1606_172x72.c ****   Copyright (c) 2016, olikraus@gmail.com
   8:..\..\u8g2\csrc/u8x8_d_ssd1606_172x72.c ****   All rights reserved.
   9:..\..\u8g2\csrc/u8x8_d_ssd1606_172x72.c **** 
  10:..\..\u8g2\csrc/u8x8_d_ssd1606_172x72.c ****   Redistribution and use in source and binary forms, with or without modification, 
  11:..\..\u8g2\csrc/u8x8_d_ssd1606_172x72.c ****   are permitted provided that the following conditions are met:
  12:..\..\u8g2\csrc/u8x8_d_ssd1606_172x72.c **** 
  13:..\..\u8g2\csrc/u8x8_d_ssd1606_172x72.c ****   * Redistributions of source code must retain the above copyright notice, this list 
  14:..\..\u8g2\csrc/u8x8_d_ssd1606_172x72.c ****     of conditions and the following disclaimer.
  15:..\..\u8g2\csrc/u8x8_d_ssd1606_172x72.c ****     
  16:..\..\u8g2\csrc/u8x8_d_ssd1606_172x72.c ****   * Redistributions in binary form must reproduce the above copyright notice, this 
  17:..\..\u8g2\csrc/u8x8_d_ssd1606_172x72.c ****     list of conditions and the following disclaimer in the documentation and/or other 
  18:..\..\u8g2\csrc/u8x8_d_ssd1606_172x72.c ****     materials provided with the distribution.
  19:..\..\u8g2\csrc/u8x8_d_ssd1606_172x72.c **** 
  20:..\..\u8g2\csrc/u8x8_d_ssd1606_172x72.c ****   THIS SOFTWARE IS PROVIDED BY THE COPYRIGHT HOLDERS AND 
  21:..\..\u8g2\csrc/u8x8_d_ssd1606_172x72.c ****   CONTRIBUTORS "AS IS" AND ANY EXPRESS OR IMPLIED WARRANTIES, 
  22:..\..\u8g2\csrc/u8x8_d_ssd1606_172x72.c ****   INCLUDING, BUT NOT LIMITED TO, THE IMPLIED WARRANTIES OF 
  23:..\..\u8g2\csrc/u8x8_d_ssd1606_172x72.c ****   MERCHANTABILITY AND FITNESS FOR A PARTICULAR PURPOSE ARE 
  24:..\..\u8g2\csrc/u8x8_d_ssd1606_172x72.c ****   DISCLAIMED. IN NO EVENT SHALL THE COPYRIGHT HOLDER OR 
  25:..\..\u8g2\csrc/u8x8_d_ssd1606_172x72.c ****   CONTRIBUTORS BE LIABLE FOR ANY DIRECT, INDIRECT, INCIDENTAL, 
  26:..\..\u8g2\csrc/u8x8_d_ssd1606_172x72.c ****   SPECIAL, EXEMPLARY, OR CONSEQUENTIAL DAMAGES (INCLUDING, BUT 
  27:..\..\u8g2\csrc/u8x8_d_ssd1606_172x72.c ****   NOT LIMITED TO, PROCUREMENT OF SUBSTITUTE GOODS OR SERVICES; 
  28:..\..\u8g2\csrc/u8x8_d_ssd1606_172x72.c ****   LOSS OF USE, DATA, OR PROFITS; OR BUSINESS INTERRUPTION) HOWEVER 
  29:..\..\u8g2\csrc/u8x8_d_ssd1606_172x72.c ****   CAUSED AND ON ANY THEORY OF LIABILITY, WHETHER IN CONTRACT, 
  30:..\..\u8g2\csrc/u8x8_d_ssd1606_172x72.c ****   STRICT LIABILITY, OR TORT (INCLUDING NEGLIGENCE OR OTHERWISE) 
  31:..\..\u8g2\csrc/u8x8_d_ssd1606_172x72.c ****   ARISING IN ANY WAY OUT OF THE USE OF THIS SOFTWARE, EVEN IF 
ARM GAS  C:\Users\Greg\AppData\Local\Temp\cc0xnBgg.s 			page 2


  32:..\..\u8g2\csrc/u8x8_d_ssd1606_172x72.c ****   ADVISED OF THE POSSIBILITY OF SUCH DAMAGE.  
  33:..\..\u8g2\csrc/u8x8_d_ssd1606_172x72.c ****   
  34:..\..\u8g2\csrc/u8x8_d_ssd1606_172x72.c ****   SSD1606: 128x180x2 
  35:..\..\u8g2\csrc/u8x8_d_ssd1606_172x72.c ****   two-bit, four graylevels
  36:..\..\u8g2\csrc/u8x8_d_ssd1606_172x72.c ****   command 
  37:..\..\u8g2\csrc/u8x8_d_ssd1606_172x72.c ****     0x22: assign actions
  38:..\..\u8g2\csrc/u8x8_d_ssd1606_172x72.c ****     0x20: execute actions
  39:..\..\u8g2\csrc/u8x8_d_ssd1606_172x72.c ****   
  40:..\..\u8g2\csrc/u8x8_d_ssd1606_172x72.c ****   action for command 0x022 are (more or less guessed)
  41:..\..\u8g2\csrc/u8x8_d_ssd1606_172x72.c ****     bit 7:	Enable Clock
  42:..\..\u8g2\csrc/u8x8_d_ssd1606_172x72.c ****     bit 6:	Enable Charge Pump
  43:..\..\u8g2\csrc/u8x8_d_ssd1606_172x72.c ****     bit 5:	Load Temparture Value (???)
  44:..\..\u8g2\csrc/u8x8_d_ssd1606_172x72.c ****     bit 4:	Load LUT (???)
  45:..\..\u8g2\csrc/u8x8_d_ssd1606_172x72.c ****     bit 3:	Initial Display (???)
  46:..\..\u8g2\csrc/u8x8_d_ssd1606_172x72.c ****     bit 2:	Pattern Display --> Requires about 945ms with the LUT from below
  47:..\..\u8g2\csrc/u8x8_d_ssd1606_172x72.c ****     bit 1:	Disable Charge Pump
  48:..\..\u8g2\csrc/u8x8_d_ssd1606_172x72.c ****     bit 0:	Disable Clock
  49:..\..\u8g2\csrc/u8x8_d_ssd1606_172x72.c ****     
  50:..\..\u8g2\csrc/u8x8_d_ssd1606_172x72.c ****     Disable Charge Pump and Clock require about 267ms
  51:..\..\u8g2\csrc/u8x8_d_ssd1606_172x72.c ****     Enable Charge Pump and Clock require about 10ms
  52:..\..\u8g2\csrc/u8x8_d_ssd1606_172x72.c **** 
  53:..\..\u8g2\csrc/u8x8_d_ssd1606_172x72.c ****   Notes:
  54:..\..\u8g2\csrc/u8x8_d_ssd1606_172x72.c ****     - Introduced a refresh display message, which copies RAM to display
  55:..\..\u8g2\csrc/u8x8_d_ssd1606_172x72.c ****     - Charge pump and clock are only enabled for the transfer RAM to display
  56:..\..\u8g2\csrc/u8x8_d_ssd1606_172x72.c ****     - U8x8 will not really work because of the two buffers in the SSD1606, however U8g2 should be o
  57:..\..\u8g2\csrc/u8x8_d_ssd1606_172x72.c **** 
  58:..\..\u8g2\csrc/u8x8_d_ssd1606_172x72.c **** */
  59:..\..\u8g2\csrc/u8x8_d_ssd1606_172x72.c **** 
  60:..\..\u8g2\csrc/u8x8_d_ssd1606_172x72.c **** 
  61:..\..\u8g2\csrc/u8x8_d_ssd1606_172x72.c **** #include "u8x8.h"
  62:..\..\u8g2\csrc/u8x8_d_ssd1606_172x72.c **** 
  63:..\..\u8g2\csrc/u8x8_d_ssd1606_172x72.c **** 
  64:..\..\u8g2\csrc/u8x8_d_ssd1606_172x72.c **** #define L(a,b,c,d) (((a)<<6)|((b)<<4)|((c)<<2)|(d))
  65:..\..\u8g2\csrc/u8x8_d_ssd1606_172x72.c **** 
  66:..\..\u8g2\csrc/u8x8_d_ssd1606_172x72.c **** 
  67:..\..\u8g2\csrc/u8x8_d_ssd1606_172x72.c **** /* GDE021A1, 2.1" EPD */
  68:..\..\u8g2\csrc/u8x8_d_ssd1606_172x72.c **** static const uint8_t u8x8_d_ssd1606_172x72_gde021a1_init_seq[] = {
  69:..\..\u8g2\csrc/u8x8_d_ssd1606_172x72.c ****     
  70:..\..\u8g2\csrc/u8x8_d_ssd1606_172x72.c ****   U8X8_START_TRANSFER(),             	/* enable chip, delay is part of the transfer start */
  71:..\..\u8g2\csrc/u8x8_d_ssd1606_172x72.c **** 
  72:..\..\u8g2\csrc/u8x8_d_ssd1606_172x72.c ****   U8X8_CA(0x10, 0x00),	/* Deep Sleep mode Control: Disable */
  73:..\..\u8g2\csrc/u8x8_d_ssd1606_172x72.c ****   U8X8_CA(0x11, 0x03),	/* Define data entry mode, x&y inc, x first */
  74:..\..\u8g2\csrc/u8x8_d_ssd1606_172x72.c ****   U8X8_CAA(0x44, 0, 31),	/* RAM x start & end, each byte has 4 pixel, 32*4=128 */
  75:..\..\u8g2\csrc/u8x8_d_ssd1606_172x72.c ****   U8X8_CAA(0x45, 0, 179),	/* RAM y start & end, 179 MAX */
  76:..\..\u8g2\csrc/u8x8_d_ssd1606_172x72.c ****   
  77:..\..\u8g2\csrc/u8x8_d_ssd1606_172x72.c ****   U8X8_CA(0x4e, 0),	/* set x pos, 0..31 */
  78:..\..\u8g2\csrc/u8x8_d_ssd1606_172x72.c ****   U8X8_CA(0x4f, 0),	/* set y pos, 0...179 */
  79:..\..\u8g2\csrc/u8x8_d_ssd1606_172x72.c **** 
  80:..\..\u8g2\csrc/u8x8_d_ssd1606_172x72.c ****   U8X8_CA(0xf0, 0x1f),	/* set booster feedback to internal */
  81:..\..\u8g2\csrc/u8x8_d_ssd1606_172x72.c ****   U8X8_CA(0x22, 0xc0),	/* display update seq. option: enable clk, enable CP, .... todo: this is nev
  82:..\..\u8g2\csrc/u8x8_d_ssd1606_172x72.c ****   
  83:..\..\u8g2\csrc/u8x8_d_ssd1606_172x72.c ****   U8X8_C(0x32),	/* write LUT register*/
  84:..\..\u8g2\csrc/u8x8_d_ssd1606_172x72.c **** 
  85:..\..\u8g2\csrc/u8x8_d_ssd1606_172x72.c **** #ifdef ORIGINAL_LUT
  86:..\..\u8g2\csrc/u8x8_d_ssd1606_172x72.c ****   
  87:..\..\u8g2\csrc/u8x8_d_ssd1606_172x72.c ****   /* wavefrom part of the LUT: absolute LUT... this will always force the destination color */
  88:..\..\u8g2\csrc/u8x8_d_ssd1606_172x72.c ****   U8X8_A4(0x00,0x00,0x00,0x55),  /* step 0 */
ARM GAS  C:\Users\Greg\AppData\Local\Temp\cc0xnBgg.s 			page 3


  89:..\..\u8g2\csrc/u8x8_d_ssd1606_172x72.c ****   U8X8_A4(0x00,0x00,0x55,0x55),	/* step 1 */
  90:..\..\u8g2\csrc/u8x8_d_ssd1606_172x72.c ****   U8X8_A4(0x00,0x55,0x55,0x55),
  91:..\..\u8g2\csrc/u8x8_d_ssd1606_172x72.c ****   U8X8_A4(0xAA,0xAA,0xAA,0xAA),
  92:..\..\u8g2\csrc/u8x8_d_ssd1606_172x72.c ****   U8X8_A4(0x15,0x15,0x15,0x15),
  93:..\..\u8g2\csrc/u8x8_d_ssd1606_172x72.c ****   U8X8_A4(0x05,0x05,0x05,0x05),
  94:..\..\u8g2\csrc/u8x8_d_ssd1606_172x72.c ****   U8X8_A4(0x01,0x01,0x01,0x01),
  95:..\..\u8g2\csrc/u8x8_d_ssd1606_172x72.c ****   U8X8_A4(0x00,0x00,0x00,0x00),
  96:..\..\u8g2\csrc/u8x8_d_ssd1606_172x72.c ****   U8X8_A4(0x00,0x00,0x00,0x00),
  97:..\..\u8g2\csrc/u8x8_d_ssd1606_172x72.c ****   U8X8_A4(0x00,0x00,0x00,0x00),
  98:..\..\u8g2\csrc/u8x8_d_ssd1606_172x72.c ****   U8X8_A4(0x00,0x00,0x00,0x00),
  99:..\..\u8g2\csrc/u8x8_d_ssd1606_172x72.c ****   U8X8_A4(0x00,0x00,0x00,0x00),
 100:..\..\u8g2\csrc/u8x8_d_ssd1606_172x72.c ****   U8X8_A4(0x00,0x00,0x00,0x00),
 101:..\..\u8g2\csrc/u8x8_d_ssd1606_172x72.c ****   U8X8_A4(0x00,0x00,0x00,0x00),
 102:..\..\u8g2\csrc/u8x8_d_ssd1606_172x72.c ****   U8X8_A4(0x00,0x00,0x00,0x00),
 103:..\..\u8g2\csrc/u8x8_d_ssd1606_172x72.c ****   U8X8_A4(0x00,0x00,0x00,0x00),
 104:..\..\u8g2\csrc/u8x8_d_ssd1606_172x72.c ****   U8X8_A4(0x00,0x00,0x00,0x00),
 105:..\..\u8g2\csrc/u8x8_d_ssd1606_172x72.c ****   U8X8_A4(0x00,0x00,0x00,0x00),
 106:..\..\u8g2\csrc/u8x8_d_ssd1606_172x72.c ****   U8X8_A4(0x00,0x00,0x00,0x00),
 107:..\..\u8g2\csrc/u8x8_d_ssd1606_172x72.c ****   U8X8_A4(0x00,0x00,0x00,0x00),	/* step 19 */
 108:..\..\u8g2\csrc/u8x8_d_ssd1606_172x72.c ****   
 109:..\..\u8g2\csrc/u8x8_d_ssd1606_172x72.c ****   /* timing part of the LUT */
 110:..\..\u8g2\csrc/u8x8_d_ssd1606_172x72.c ****   U8X8_A8(0x22,0xFB,0x22,0x1B,0x00,0x00,0x00,0x00),
 111:..\..\u8g2\csrc/u8x8_d_ssd1606_172x72.c ****   U8X8_A(0x00),U8X8_A(0x00),
 112:..\..\u8g2\csrc/u8x8_d_ssd1606_172x72.c **** 
 113:..\..\u8g2\csrc/u8x8_d_ssd1606_172x72.c **** #else
 114:..\..\u8g2\csrc/u8x8_d_ssd1606_172x72.c **** 
 115:..\..\u8g2\csrc/u8x8_d_ssd1606_172x72.c ****   /* the following LUT will not change anything if the old and the new values are the same */
 116:..\..\u8g2\csrc/u8x8_d_ssd1606_172x72.c ****   /* 03 02 01 00	13 12 11 10 	23 22 21 20	33 32 31 30 				original */
 117:..\..\u8g2\csrc/u8x8_d_ssd1606_172x72.c ****   U8X8_A4(L(0, 0, 0, 0), 	L(0, 0, 0, 0), 	L(0, 0, 0, 0), 	L(0, 1, 1, 1)),		// 0x00,0x00,0x00,0x55,	
 118:..\..\u8g2\csrc/u8x8_d_ssd1606_172x72.c ****   U8X8_A4(L(0, 0, 0, 0), 	L(0, 0, 0, 0), 	L(1, 0, 1, 1), 	L(0, 1, 1, 1)),		// 0x00,0x00,0x55,0x55,	
 119:..\..\u8g2\csrc/u8x8_d_ssd1606_172x72.c ****   U8X8_A4(L(0, 0, 0, 0), 	L(1, 1, 0, 1), 	L(1, 0, 1, 1), 	L(0, 1, 1, 1)),		// 0x00,0x55,0x55,0x55,	
 120:..\..\u8g2\csrc/u8x8_d_ssd1606_172x72.c ****   U8X8_A4(L(2, 2, 2, 0), 	L(2, 2, 0, 2), 	L(2, 0, 2, 2), 	L(0, 2, 2, 2)),		// 0xAA,0xAA,0xAA,0xAA,	
 121:..\..\u8g2\csrc/u8x8_d_ssd1606_172x72.c ****   U8X8_A4(L(0, 1, 1, 0), 	L(0, 1, 0, 1), 	L(0, 0, 1, 1), 	L(0, 1, 1, 1)),		// 0x15,0x15,0x15,0x15,	
 122:..\..\u8g2\csrc/u8x8_d_ssd1606_172x72.c ****   U8X8_A4(L(0, 0, 1, 0), 	L(0, 0, 0, 1), 	L(0, 0, 1, 1), 	L(0, 0, 1, 1)),		// 0x05,0x05,0x05,0x05,	
 123:..\..\u8g2\csrc/u8x8_d_ssd1606_172x72.c ****   U8X8_A4(L(0, 0, 0, 0), 	L(0, 0, 0, 1), 	L(0, 0, 0, 1), 	L(0, 0, 0, 1)),		// 0x01,0x01,0x01,0x01,	
 124:..\..\u8g2\csrc/u8x8_d_ssd1606_172x72.c ****   U8X8_A4(0x00,0x00,0x00,0x00),
 125:..\..\u8g2\csrc/u8x8_d_ssd1606_172x72.c ****   U8X8_A4(0x00,0x00,0x00,0x00),
 126:..\..\u8g2\csrc/u8x8_d_ssd1606_172x72.c ****   U8X8_A4(0x00,0x00,0x00,0x00),
 127:..\..\u8g2\csrc/u8x8_d_ssd1606_172x72.c ****   U8X8_A4(0x00,0x00,0x00,0x00),
 128:..\..\u8g2\csrc/u8x8_d_ssd1606_172x72.c ****   U8X8_A4(0x00,0x00,0x00,0x00),
 129:..\..\u8g2\csrc/u8x8_d_ssd1606_172x72.c ****   U8X8_A4(0x00,0x00,0x00,0x00),
 130:..\..\u8g2\csrc/u8x8_d_ssd1606_172x72.c ****   U8X8_A4(0x00,0x00,0x00,0x00),
 131:..\..\u8g2\csrc/u8x8_d_ssd1606_172x72.c ****   U8X8_A4(0x00,0x00,0x00,0x00),
 132:..\..\u8g2\csrc/u8x8_d_ssd1606_172x72.c ****   U8X8_A4(0x00,0x00,0x00,0x00),
 133:..\..\u8g2\csrc/u8x8_d_ssd1606_172x72.c ****   U8X8_A4(0x00,0x00,0x00,0x00),
 134:..\..\u8g2\csrc/u8x8_d_ssd1606_172x72.c ****   U8X8_A4(0x00,0x00,0x00,0x00),
 135:..\..\u8g2\csrc/u8x8_d_ssd1606_172x72.c ****   U8X8_A4(0x00,0x00,0x00,0x00),
 136:..\..\u8g2\csrc/u8x8_d_ssd1606_172x72.c ****   U8X8_A4(0x00,0x00,0x00,0x00),	/* step 19 */
 137:..\..\u8g2\csrc/u8x8_d_ssd1606_172x72.c ****   
 138:..\..\u8g2\csrc/u8x8_d_ssd1606_172x72.c ****   /* timing part of the LUT */
 139:..\..\u8g2\csrc/u8x8_d_ssd1606_172x72.c ****   U8X8_A8(0x22,0xFB,0x22,0x1B,0x00,0x00,0x00,0x00),
 140:..\..\u8g2\csrc/u8x8_d_ssd1606_172x72.c ****   U8X8_A(0x00),U8X8_A(0x00),
 141:..\..\u8g2\csrc/u8x8_d_ssd1606_172x72.c **** 
 142:..\..\u8g2\csrc/u8x8_d_ssd1606_172x72.c **** #endif
 143:..\..\u8g2\csrc/u8x8_d_ssd1606_172x72.c ****   
 144:..\..\u8g2\csrc/u8x8_d_ssd1606_172x72.c ****   U8X8_CA(0x2c, 0xa0),	/* write vcom value*/
 145:..\..\u8g2\csrc/u8x8_d_ssd1606_172x72.c ****   U8X8_CA(0x3c, 0x63),	/* select boarder waveform */
ARM GAS  C:\Users\Greg\AppData\Local\Temp\cc0xnBgg.s 			page 4


 146:..\..\u8g2\csrc/u8x8_d_ssd1606_172x72.c ****   U8X8_CA(0x22, 0xc4),	/* display update seq. option: clk -> CP -> LUT -> initial display -> patter
 147:..\..\u8g2\csrc/u8x8_d_ssd1606_172x72.c ****     /* 0x0c4 is mentioned in chapter 9.2 of the GDE021A1 data sheet */
 148:..\..\u8g2\csrc/u8x8_d_ssd1606_172x72.c ****   
 149:..\..\u8g2\csrc/u8x8_d_ssd1606_172x72.c ****   U8X8_END_TRANSFER(),             	/* disable chip */
 150:..\..\u8g2\csrc/u8x8_d_ssd1606_172x72.c ****   U8X8_END()             			/* end of sequence */
 151:..\..\u8g2\csrc/u8x8_d_ssd1606_172x72.c **** };
 152:..\..\u8g2\csrc/u8x8_d_ssd1606_172x72.c **** 
 153:..\..\u8g2\csrc/u8x8_d_ssd1606_172x72.c **** static const uint8_t u8x8_d_ssd1606_to_display_seq[] = {
 154:..\..\u8g2\csrc/u8x8_d_ssd1606_172x72.c ****   U8X8_START_TRANSFER(),             	/* enable chip, delay is part of the transfer start */
 155:..\..\u8g2\csrc/u8x8_d_ssd1606_172x72.c ****   
 156:..\..\u8g2\csrc/u8x8_d_ssd1606_172x72.c ****   
 157:..\..\u8g2\csrc/u8x8_d_ssd1606_172x72.c ****   //U8X8_CA(0x22, 0xc0),	/* display update seq. option: Enable clock and charge pump */
 158:..\..\u8g2\csrc/u8x8_d_ssd1606_172x72.c ****   //U8X8_C(0x20),	/* execute sequence */
 159:..\..\u8g2\csrc/u8x8_d_ssd1606_172x72.c ****   //U8X8_DLY(10),
 160:..\..\u8g2\csrc/u8x8_d_ssd1606_172x72.c ****   /* strange, splitting 0x0c0 does not work reliable */
 161:..\..\u8g2\csrc/u8x8_d_ssd1606_172x72.c ****   
 162:..\..\u8g2\csrc/u8x8_d_ssd1606_172x72.c ****   U8X8_CA(0x22, 0xc4),	/* display update seq. option: clk -> CP -> LUT -> initial display -> patter
 163:..\..\u8g2\csrc/u8x8_d_ssd1606_172x72.c ****   U8X8_C(0x20),	/* execute sequence */
 164:..\..\u8g2\csrc/u8x8_d_ssd1606_172x72.c ****   U8X8_DLY(250),	/* the sequence above requires about 970ms */
 165:..\..\u8g2\csrc/u8x8_d_ssd1606_172x72.c ****   U8X8_DLY(250),
 166:..\..\u8g2\csrc/u8x8_d_ssd1606_172x72.c ****   U8X8_DLY(250),
 167:..\..\u8g2\csrc/u8x8_d_ssd1606_172x72.c ****   U8X8_DLY(230),
 168:..\..\u8g2\csrc/u8x8_d_ssd1606_172x72.c ****   
 169:..\..\u8g2\csrc/u8x8_d_ssd1606_172x72.c ****   U8X8_CA(0x22, 0x03),	/* disable clock and charge pump */
 170:..\..\u8g2\csrc/u8x8_d_ssd1606_172x72.c ****   U8X8_DLY(200),		/* this requres about 270ms */
 171:..\..\u8g2\csrc/u8x8_d_ssd1606_172x72.c ****   U8X8_DLY(90),  
 172:..\..\u8g2\csrc/u8x8_d_ssd1606_172x72.c ****   
 173:..\..\u8g2\csrc/u8x8_d_ssd1606_172x72.c ****   U8X8_END_TRANSFER(),             	/* disable chip */
 174:..\..\u8g2\csrc/u8x8_d_ssd1606_172x72.c ****   U8X8_END()             			/* end of sequence */
 175:..\..\u8g2\csrc/u8x8_d_ssd1606_172x72.c **** };
 176:..\..\u8g2\csrc/u8x8_d_ssd1606_172x72.c **** 
 177:..\..\u8g2\csrc/u8x8_d_ssd1606_172x72.c **** static const uint8_t u8x8_d_ssd1606_172x72_powersave0_seq[] = {
 178:..\..\u8g2\csrc/u8x8_d_ssd1606_172x72.c ****   U8X8_START_TRANSFER(),             	/* enable chip, delay is part of the transfer start */
 179:..\..\u8g2\csrc/u8x8_d_ssd1606_172x72.c ****   U8X8_END_TRANSFER(),             	/* disable chip */
 180:..\..\u8g2\csrc/u8x8_d_ssd1606_172x72.c ****   U8X8_END()             			/* end of sequence */
 181:..\..\u8g2\csrc/u8x8_d_ssd1606_172x72.c **** };
 182:..\..\u8g2\csrc/u8x8_d_ssd1606_172x72.c **** 
 183:..\..\u8g2\csrc/u8x8_d_ssd1606_172x72.c **** static const uint8_t u8x8_d_ssd1606_172x72_powersave1_seq[] = {
 184:..\..\u8g2\csrc/u8x8_d_ssd1606_172x72.c ****   U8X8_START_TRANSFER(),             	/* enable chip, delay is part of the transfer start */
 185:..\..\u8g2\csrc/u8x8_d_ssd1606_172x72.c ****   U8X8_END_TRANSFER(),             	/* disable chip */
 186:..\..\u8g2\csrc/u8x8_d_ssd1606_172x72.c ****   U8X8_END()             			/* end of sequence */
 187:..\..\u8g2\csrc/u8x8_d_ssd1606_172x72.c **** };
 188:..\..\u8g2\csrc/u8x8_d_ssd1606_172x72.c **** 
 189:..\..\u8g2\csrc/u8x8_d_ssd1606_172x72.c **** static const uint8_t u8x8_d_ssd1606_172x72_flip0_seq[] = {
 190:..\..\u8g2\csrc/u8x8_d_ssd1606_172x72.c ****   U8X8_START_TRANSFER(),             	/* enable chip, delay is part of the transfer start */
 191:..\..\u8g2\csrc/u8x8_d_ssd1606_172x72.c ****   U8X8_END_TRANSFER(),             	/* disable chip */
 192:..\..\u8g2\csrc/u8x8_d_ssd1606_172x72.c ****   U8X8_END()             			/* end of sequence */
 193:..\..\u8g2\csrc/u8x8_d_ssd1606_172x72.c **** };
 194:..\..\u8g2\csrc/u8x8_d_ssd1606_172x72.c **** 
 195:..\..\u8g2\csrc/u8x8_d_ssd1606_172x72.c **** static const uint8_t u8x8_d_ssd1606_172x72_flip1_seq[] = {
 196:..\..\u8g2\csrc/u8x8_d_ssd1606_172x72.c ****   U8X8_START_TRANSFER(),             	/* enable chip, delay is part of the transfer start */
 197:..\..\u8g2\csrc/u8x8_d_ssd1606_172x72.c ****   U8X8_END_TRANSFER(),             	/* disable chip */
 198:..\..\u8g2\csrc/u8x8_d_ssd1606_172x72.c ****   U8X8_END()             			/* end of sequence */
 199:..\..\u8g2\csrc/u8x8_d_ssd1606_172x72.c **** };
 200:..\..\u8g2\csrc/u8x8_d_ssd1606_172x72.c **** 
 201:..\..\u8g2\csrc/u8x8_d_ssd1606_172x72.c **** 
 202:..\..\u8g2\csrc/u8x8_d_ssd1606_172x72.c **** static uint8_t *u8x8_convert_tile_for_ssd1606(uint8_t *t)
ARM GAS  C:\Users\Greg\AppData\Local\Temp\cc0xnBgg.s 			page 5


 203:..\..\u8g2\csrc/u8x8_d_ssd1606_172x72.c **** {
 204:..\..\u8g2\csrc/u8x8_d_ssd1606_172x72.c ****   uint8_t i;
 205:..\..\u8g2\csrc/u8x8_d_ssd1606_172x72.c ****   uint16_t r;
 206:..\..\u8g2\csrc/u8x8_d_ssd1606_172x72.c ****   static uint8_t buf[16];
 207:..\..\u8g2\csrc/u8x8_d_ssd1606_172x72.c ****   uint8_t *pbuf = buf;
 208:..\..\u8g2\csrc/u8x8_d_ssd1606_172x72.c **** 
 209:..\..\u8g2\csrc/u8x8_d_ssd1606_172x72.c ****   for( i = 0; i < 8; i++ )
 210:..\..\u8g2\csrc/u8x8_d_ssd1606_172x72.c ****   {
 211:..\..\u8g2\csrc/u8x8_d_ssd1606_172x72.c ****     r = u8x8_upscale_byte(~(*t++));
 212:..\..\u8g2\csrc/u8x8_d_ssd1606_172x72.c ****     *pbuf++ = (r>>8) & 255;
 213:..\..\u8g2\csrc/u8x8_d_ssd1606_172x72.c ****     *pbuf++ = r & 255;
 214:..\..\u8g2\csrc/u8x8_d_ssd1606_172x72.c ****   }
 215:..\..\u8g2\csrc/u8x8_d_ssd1606_172x72.c ****   return buf;
 216:..\..\u8g2\csrc/u8x8_d_ssd1606_172x72.c **** }
 217:..\..\u8g2\csrc/u8x8_d_ssd1606_172x72.c **** 
 218:..\..\u8g2\csrc/u8x8_d_ssd1606_172x72.c **** static void u8x8_d_ssd1606_draw_tile(u8x8_t *u8x8, uint8_t arg_int, void *arg_ptr) U8X8_NOINLINE;
 219:..\..\u8g2\csrc/u8x8_d_ssd1606_172x72.c **** static void u8x8_d_ssd1606_draw_tile(u8x8_t *u8x8, uint8_t arg_int, void *arg_ptr)
 220:..\..\u8g2\csrc/u8x8_d_ssd1606_172x72.c **** {
  27              		.loc 1 220 0
  28              		.cfi_startproc
  29              		@ args = 0, pretend = 0, frame = 16
  30              		@ frame_needed = 0, uses_anonymous_args = 0
  31              	.LVL0:
  32 0000 F0B5     		push	{r4, r5, r6, r7, lr}
  33              		.cfi_def_cfa_offset 20
  34              		.cfi_offset 4, -20
  35              		.cfi_offset 5, -16
  36              		.cfi_offset 6, -12
  37              		.cfi_offset 7, -8
  38              		.cfi_offset 14, -4
  39 0002 0400     		movs	r4, r0
  40 0004 1700     		movs	r7, r2
  41 0006 85B0     		sub	sp, sp, #20
  42              		.cfi_def_cfa_offset 40
  43              		.loc 1 220 0
  44 0008 0291     		str	r1, [sp, #8]
 221:..\..\u8g2\csrc/u8x8_d_ssd1606_172x72.c ****   uint8_t x, c, page;
 222:..\..\u8g2\csrc/u8x8_d_ssd1606_172x72.c ****   uint8_t *ptr;
 223:..\..\u8g2\csrc/u8x8_d_ssd1606_172x72.c ****   u8x8_cad_StartTransfer(u8x8);
  45              		.loc 1 223 0
  46 000a FFF7FEFF 		bl	u8x8_cad_StartTransfer
  47              	.LVL1:
 224:..\..\u8g2\csrc/u8x8_d_ssd1606_172x72.c **** 
 225:..\..\u8g2\csrc/u8x8_d_ssd1606_172x72.c ****   page = u8x8->display_info->tile_height;
  48              		.loc 1 225 0
  49 000e 2368     		ldr	r3, [r4]
 226:..\..\u8g2\csrc/u8x8_d_ssd1606_172x72.c ****   page --;
 227:..\..\u8g2\csrc/u8x8_d_ssd1606_172x72.c ****   page -= (((u8x8_tile_t *)arg_ptr)->y_pos);
 228:..\..\u8g2\csrc/u8x8_d_ssd1606_172x72.c ****   page *= 2;
 229:..\..\u8g2\csrc/u8x8_d_ssd1606_172x72.c **** 
 230:..\..\u8g2\csrc/u8x8_d_ssd1606_172x72.c **** 
 231:..\..\u8g2\csrc/u8x8_d_ssd1606_172x72.c ****   x = ((u8x8_tile_t *)arg_ptr)->x_pos;
  50              		.loc 1 231 0
  51 0010 7E79     		ldrb	r6, [r7, #5]
 225:..\..\u8g2\csrc/u8x8_d_ssd1606_172x72.c ****   page --;
  52              		.loc 1 225 0
  53 0012 5D7C     		ldrb	r5, [r3, #17]
ARM GAS  C:\Users\Greg\AppData\Local\Temp\cc0xnBgg.s 			page 6


  54              	.LVL2:
 227:..\..\u8g2\csrc/u8x8_d_ssd1606_172x72.c ****   page *= 2;
  55              		.loc 1 227 0
  56 0014 BB79     		ldrb	r3, [r7, #6]
 226:..\..\u8g2\csrc/u8x8_d_ssd1606_172x72.c ****   page --;
  57              		.loc 1 226 0
  58 0016 013D     		subs	r5, r5, #1
  59              	.LVL3:
 227:..\..\u8g2\csrc/u8x8_d_ssd1606_172x72.c ****   page *= 2;
  60              		.loc 1 227 0
  61 0018 ED1A     		subs	r5, r5, r3
  62              	.LVL4:
 232:..\..\u8g2\csrc/u8x8_d_ssd1606_172x72.c ****   x *= 8;
 233:..\..\u8g2\csrc/u8x8_d_ssd1606_172x72.c ****   x += u8x8->x_offset;
  63              		.loc 1 233 0
  64 001a A37F     		ldrb	r3, [r4, #30]
 234:..\..\u8g2\csrc/u8x8_d_ssd1606_172x72.c **** 
 235:..\..\u8g2\csrc/u8x8_d_ssd1606_172x72.c ****   u8x8_cad_SendCmd(u8x8, 0x00f );	/* scan start */
  65              		.loc 1 235 0
  66 001c 0F21     		movs	r1, #15
 232:..\..\u8g2\csrc/u8x8_d_ssd1606_172x72.c ****   x *= 8;
  67              		.loc 1 232 0
  68 001e F600     		lsls	r6, r6, #3
  69              		.loc 1 235 0
  70 0020 2000     		movs	r0, r4
 233:..\..\u8g2\csrc/u8x8_d_ssd1606_172x72.c **** 
  71              		.loc 1 233 0
  72 0022 F618     		adds	r6, r6, r3
  73              		.loc 1 235 0
  74 0024 FFF7FEFF 		bl	u8x8_cad_SendCmd
  75              	.LVL5:
 236:..\..\u8g2\csrc/u8x8_d_ssd1606_172x72.c ****   u8x8_cad_SendArg(u8x8, 0);
  76              		.loc 1 236 0
  77 0028 0021     		movs	r1, #0
  78 002a 2000     		movs	r0, r4
  79 002c FFF7FEFF 		bl	u8x8_cad_SendArg
  80              	.LVL6:
 237:..\..\u8g2\csrc/u8x8_d_ssd1606_172x72.c **** 
 238:..\..\u8g2\csrc/u8x8_d_ssd1606_172x72.c ****   u8x8_cad_SendCmd(u8x8, 0x011 );	/* cursor increment mode */
  81              		.loc 1 238 0
  82 0030 1121     		movs	r1, #17
  83 0032 2000     		movs	r0, r4
  84 0034 FFF7FEFF 		bl	u8x8_cad_SendCmd
  85              	.LVL7:
 239:..\..\u8g2\csrc/u8x8_d_ssd1606_172x72.c ****   u8x8_cad_SendArg(u8x8, 3);
  86              		.loc 1 239 0
  87 0038 0321     		movs	r1, #3
  88 003a 2000     		movs	r0, r4
  89 003c FFF7FEFF 		bl	u8x8_cad_SendArg
  90              	.LVL8:
 240:..\..\u8g2\csrc/u8x8_d_ssd1606_172x72.c **** 
 241:..\..\u8g2\csrc/u8x8_d_ssd1606_172x72.c ****   u8x8_cad_SendCmd(u8x8, 0x045 );	/* window start column */
  91              		.loc 1 241 0
  92 0040 4521     		movs	r1, #69
  93 0042 2000     		movs	r0, r4
  94 0044 FFF7FEFF 		bl	u8x8_cad_SendCmd
  95              	.LVL9:
ARM GAS  C:\Users\Greg\AppData\Local\Temp\cc0xnBgg.s 			page 7


 227:..\..\u8g2\csrc/u8x8_d_ssd1606_172x72.c ****   page *= 2;
  96              		.loc 1 227 0
  97 0048 EDB2     		uxtb	r5, r5
  98              	.LVL10:
 242:..\..\u8g2\csrc/u8x8_d_ssd1606_172x72.c ****   u8x8_cad_SendArg(u8x8, 0);
  99              		.loc 1 242 0
 100 004a 0021     		movs	r1, #0
 101 004c 2000     		movs	r0, r4
 102 004e FFF7FEFF 		bl	u8x8_cad_SendArg
 103              	.LVL11:
 228:..\..\u8g2\csrc/u8x8_d_ssd1606_172x72.c **** 
 104              		.loc 1 228 0
 105 0052 6D00     		lsls	r5, r5, #1
 106              	.LVL12:
 243:..\..\u8g2\csrc/u8x8_d_ssd1606_172x72.c ****   u8x8_cad_SendArg(u8x8, 179);		/* end of display */
 107              		.loc 1 243 0
 108 0054 B321     		movs	r1, #179
 109 0056 2000     		movs	r0, r4
 228:..\..\u8g2\csrc/u8x8_d_ssd1606_172x72.c **** 
 110              		.loc 1 228 0
 111 0058 EDB2     		uxtb	r5, r5
 112              	.LVL13:
 113              		.loc 1 243 0
 114 005a FFF7FEFF 		bl	u8x8_cad_SendArg
 115              	.LVL14:
 244:..\..\u8g2\csrc/u8x8_d_ssd1606_172x72.c **** 
 245:..\..\u8g2\csrc/u8x8_d_ssd1606_172x72.c ****   u8x8_cad_SendCmd(u8x8, 0x044 );	/* window end page */
 116              		.loc 1 245 0
 117 005e 4421     		movs	r1, #68
 118 0060 2000     		movs	r0, r4
 119 0062 FFF7FEFF 		bl	u8x8_cad_SendCmd
 120              	.LVL15:
 246:..\..\u8g2\csrc/u8x8_d_ssd1606_172x72.c ****   u8x8_cad_SendArg(u8x8, page);
 121              		.loc 1 246 0
 122 0066 2900     		movs	r1, r5
 123 0068 2000     		movs	r0, r4
 124 006a FFF7FEFF 		bl	u8x8_cad_SendArg
 125              	.LVL16:
 247:..\..\u8g2\csrc/u8x8_d_ssd1606_172x72.c ****   u8x8_cad_SendArg(u8x8, page+1);
 126              		.loc 1 247 0
 127 006e 691C     		adds	r1, r5, #1
 128 0070 C9B2     		uxtb	r1, r1
 129 0072 2000     		movs	r0, r4
 130 0074 FFF7FEFF 		bl	u8x8_cad_SendArg
 131              	.LVL17:
 233:..\..\u8g2\csrc/u8x8_d_ssd1606_172x72.c **** 
 132              		.loc 1 233 0
 133 0078 F6B2     		uxtb	r6, r6
 134              	.LVL18:
 248:..\..\u8g2\csrc/u8x8_d_ssd1606_172x72.c **** 
 249:..\..\u8g2\csrc/u8x8_d_ssd1606_172x72.c ****   u8x8_cad_SendCmd(u8x8, 0x04f );	/* window column */
 135              		.loc 1 249 0
 136 007a 4F21     		movs	r1, #79
 137 007c 2000     		movs	r0, r4
 138 007e FFF7FEFF 		bl	u8x8_cad_SendCmd
 139              	.LVL19:
 250:..\..\u8g2\csrc/u8x8_d_ssd1606_172x72.c ****   u8x8_cad_SendArg(u8x8, x);
ARM GAS  C:\Users\Greg\AppData\Local\Temp\cc0xnBgg.s 			page 8


 140              		.loc 1 250 0
 141 0082 3100     		movs	r1, r6
 142 0084 2000     		movs	r0, r4
 143 0086 FFF7FEFF 		bl	u8x8_cad_SendArg
 144              	.LVL20:
 251:..\..\u8g2\csrc/u8x8_d_ssd1606_172x72.c **** 
 252:..\..\u8g2\csrc/u8x8_d_ssd1606_172x72.c ****   u8x8_cad_SendCmd(u8x8, 0x04e );	/* window row */
 145              		.loc 1 252 0
 146 008a 4E21     		movs	r1, #78
 147 008c 2000     		movs	r0, r4
 148 008e FFF7FEFF 		bl	u8x8_cad_SendCmd
 149              	.LVL21:
 253:..\..\u8g2\csrc/u8x8_d_ssd1606_172x72.c ****   u8x8_cad_SendArg(u8x8, page);
 150              		.loc 1 253 0
 151 0092 2900     		movs	r1, r5
 152 0094 2000     		movs	r0, r4
 153 0096 FFF7FEFF 		bl	u8x8_cad_SendArg
 154              	.LVL22:
 254:..\..\u8g2\csrc/u8x8_d_ssd1606_172x72.c **** 
 255:..\..\u8g2\csrc/u8x8_d_ssd1606_172x72.c ****   u8x8_cad_SendCmd(u8x8, 0x024 );
 155              		.loc 1 255 0
 156 009a 2421     		movs	r1, #36
 157 009c 2000     		movs	r0, r4
 158 009e FFF7FEFF 		bl	u8x8_cad_SendCmd
 159              	.LVL23:
 160              	.L4:
 256:..\..\u8g2\csrc/u8x8_d_ssd1606_172x72.c ****   
 257:..\..\u8g2\csrc/u8x8_d_ssd1606_172x72.c ****   do
 258:..\..\u8g2\csrc/u8x8_d_ssd1606_172x72.c ****   {
 259:..\..\u8g2\csrc/u8x8_d_ssd1606_172x72.c ****     c = ((u8x8_tile_t *)arg_ptr)->cnt;
 161              		.loc 1 259 0
 162 00a2 3B79     		ldrb	r3, [r7, #4]
 163 00a4 0093     		str	r3, [sp]
 164              	.LVL24:
 260:..\..\u8g2\csrc/u8x8_d_ssd1606_172x72.c ****     ptr = ((u8x8_tile_t *)arg_ptr)->tile_ptr;
 165              		.loc 1 260 0
 166 00a6 3B68     		ldr	r3, [r7]
 167 00a8 0193     		str	r3, [sp, #4]
 168              	.LVL25:
 169              	.L3:
 170 00aa 164B     		ldr	r3, .L9
 171 00ac 019E     		ldr	r6, [sp, #4]
 172 00ae 5D1C     		adds	r5, r3, #1
 173 00b0 1133     		adds	r3, r3, #17
 174 00b2 0393     		str	r3, [sp, #12]
 175              	.LVL26:
 176              	.L2:
 177              	.LBB4:
 178              	.LBB5:
 211:..\..\u8g2\csrc/u8x8_d_ssd1606_172x72.c ****     *pbuf++ = (r>>8) & 255;
 179              		.loc 1 211 0
 180 00b4 3078     		ldrb	r0, [r6]
 181 00b6 0136     		adds	r6, r6, #1
 182              	.LVL27:
 183 00b8 C043     		mvns	r0, r0
 184 00ba C0B2     		uxtb	r0, r0
 185 00bc FFF7FEFF 		bl	u8x8_upscale_byte
ARM GAS  C:\Users\Greg\AppData\Local\Temp\cc0xnBgg.s 			page 9


 186              	.LVL28:
 212:..\..\u8g2\csrc/u8x8_d_ssd1606_172x72.c ****     *pbuf++ = r & 255;
 187              		.loc 1 212 0
 188 00c0 6B1E     		subs	r3, r5, #1
 189              	.LVL29:
 190 00c2 020A     		lsrs	r2, r0, #8
 191 00c4 1A70     		strb	r2, [r3]
 192              	.LVL30:
 209:..\..\u8g2\csrc/u8x8_d_ssd1606_172x72.c ****   {
 193              		.loc 1 209 0
 194 00c6 039B     		ldr	r3, [sp, #12]
 213:..\..\u8g2\csrc/u8x8_d_ssd1606_172x72.c ****   }
 195              		.loc 1 213 0
 196 00c8 2870     		strb	r0, [r5]
 197 00ca 0235     		adds	r5, r5, #2
 198              	.LVL31:
 209:..\..\u8g2\csrc/u8x8_d_ssd1606_172x72.c ****   {
 199              		.loc 1 209 0
 200 00cc 9D42     		cmp	r5, r3
 201 00ce F1D1     		bne	.L2
 202              	.LVL32:
 203              	.LBE5:
 204              	.LBE4:
 261:..\..\u8g2\csrc/u8x8_d_ssd1606_172x72.c ****     do
 262:..\..\u8g2\csrc/u8x8_d_ssd1606_172x72.c ****     {
 263:..\..\u8g2\csrc/u8x8_d_ssd1606_172x72.c ****       u8x8_cad_SendData(u8x8, 16, u8x8_convert_tile_for_ssd1606(ptr));
 205              		.loc 1 263 0
 206 00d0 0C4A     		ldr	r2, .L9
 207 00d2 1021     		movs	r1, #16
 208 00d4 2000     		movs	r0, r4
 209 00d6 FFF7FEFF 		bl	u8x8_cad_SendData
 210              	.LVL33:
 264:..\..\u8g2\csrc/u8x8_d_ssd1606_172x72.c ****       ptr += 8;
 211              		.loc 1 264 0
 212 00da 019B     		ldr	r3, [sp, #4]
 213 00dc 0833     		adds	r3, r3, #8
 214 00de 0193     		str	r3, [sp, #4]
 215              	.LVL34:
 265:..\..\u8g2\csrc/u8x8_d_ssd1606_172x72.c ****       x += 8;
 266:..\..\u8g2\csrc/u8x8_d_ssd1606_172x72.c ****       c--;
 216              		.loc 1 266 0
 217 00e0 009B     		ldr	r3, [sp]
 218              	.LVL35:
 219 00e2 013B     		subs	r3, r3, #1
 220 00e4 DBB2     		uxtb	r3, r3
 221 00e6 0093     		str	r3, [sp]
 222              	.LVL36:
 267:..\..\u8g2\csrc/u8x8_d_ssd1606_172x72.c ****     } while( c > 0 );
 223              		.loc 1 267 0
 224 00e8 002B     		cmp	r3, #0
 225 00ea DED1     		bne	.L3
 268:..\..\u8g2\csrc/u8x8_d_ssd1606_172x72.c ****     
 269:..\..\u8g2\csrc/u8x8_d_ssd1606_172x72.c ****     arg_int--;
 226              		.loc 1 269 0
 227 00ec 029B     		ldr	r3, [sp, #8]
 228 00ee 013B     		subs	r3, r3, #1
 229 00f0 DBB2     		uxtb	r3, r3
ARM GAS  C:\Users\Greg\AppData\Local\Temp\cc0xnBgg.s 			page 10


 230 00f2 0293     		str	r3, [sp, #8]
 231              	.LVL37:
 270:..\..\u8g2\csrc/u8x8_d_ssd1606_172x72.c ****   } while( arg_int > 0 );
 232              		.loc 1 270 0
 233 00f4 002B     		cmp	r3, #0
 234 00f6 D4D1     		bne	.L4
 271:..\..\u8g2\csrc/u8x8_d_ssd1606_172x72.c ****   
 272:..\..\u8g2\csrc/u8x8_d_ssd1606_172x72.c ****   u8x8_cad_EndTransfer(u8x8);
 235              		.loc 1 272 0
 236 00f8 2000     		movs	r0, r4
 237 00fa FFF7FEFF 		bl	u8x8_cad_EndTransfer
 238              	.LVL38:
 273:..\..\u8g2\csrc/u8x8_d_ssd1606_172x72.c **** }
 239              		.loc 1 273 0
 240 00fe 05B0     		add	sp, sp, #20
 241              	.LVL39:
 242              		@ sp needed
 243              	.LVL40:
 244              	.LVL41:
 245 0100 F0BD     		pop	{r4, r5, r6, r7, pc}
 246              	.L10:
 247 0102 C046     		.align	2
 248              	.L9:
 249 0104 00000000 		.word	.LANCHOR0
 250              		.cfi_endproc
 251              	.LFE1:
 252              		.size	u8x8_d_ssd1606_draw_tile, .-u8x8_d_ssd1606_draw_tile
 253              		.section	.text.u8x8_d_ssd1606_172x72,"ax",%progbits
 254              		.align	1
 255              		.global	u8x8_d_ssd1606_172x72
 256              		.code	16
 257              		.thumb_func
 258              		.type	u8x8_d_ssd1606_172x72, %function
 259              	u8x8_d_ssd1606_172x72:
 260              	.LFB3:
 274:..\..\u8g2\csrc/u8x8_d_ssd1606_172x72.c **** 
 275:..\..\u8g2\csrc/u8x8_d_ssd1606_172x72.c **** 
 276:..\..\u8g2\csrc/u8x8_d_ssd1606_172x72.c **** static uint8_t u8x8_d_ssd1606_172x72_generic(u8x8_t *u8x8, uint8_t msg, uint8_t arg_int, void *arg_
 277:..\..\u8g2\csrc/u8x8_d_ssd1606_172x72.c **** {
 278:..\..\u8g2\csrc/u8x8_d_ssd1606_172x72.c ****   switch(msg)
 279:..\..\u8g2\csrc/u8x8_d_ssd1606_172x72.c ****   {
 280:..\..\u8g2\csrc/u8x8_d_ssd1606_172x72.c ****     /* handled by the calling function
 281:..\..\u8g2\csrc/u8x8_d_ssd1606_172x72.c ****     case U8X8_MSG_DISPLAY_SETUP_MEMORY:
 282:..\..\u8g2\csrc/u8x8_d_ssd1606_172x72.c ****       u8x8_d_helper_display_setup_memory(u8x8, &u8x8_ssd1606_172x72_display_info);
 283:..\..\u8g2\csrc/u8x8_d_ssd1606_172x72.c ****       break;
 284:..\..\u8g2\csrc/u8x8_d_ssd1606_172x72.c ****     */
 285:..\..\u8g2\csrc/u8x8_d_ssd1606_172x72.c ****     case U8X8_MSG_DISPLAY_INIT:
 286:..\..\u8g2\csrc/u8x8_d_ssd1606_172x72.c **** 
 287:..\..\u8g2\csrc/u8x8_d_ssd1606_172x72.c ****       u8x8_d_helper_display_init(u8x8);
 288:..\..\u8g2\csrc/u8x8_d_ssd1606_172x72.c ****       u8x8_cad_SendSequence(u8x8, u8x8_d_ssd1606_172x72_gde021a1_init_seq);    
 289:..\..\u8g2\csrc/u8x8_d_ssd1606_172x72.c ****     
 290:..\..\u8g2\csrc/u8x8_d_ssd1606_172x72.c ****       /* special code for the SSD1606... */
 291:..\..\u8g2\csrc/u8x8_d_ssd1606_172x72.c ****       /* ensure that the initial buffer is clear and all eInk is set to white */
 292:..\..\u8g2\csrc/u8x8_d_ssd1606_172x72.c ****       /* this is done here, because the LUT will be of that kind, that it uses the previous color *
 293:..\..\u8g2\csrc/u8x8_d_ssd1606_172x72.c ****       /* make everything black */
 294:..\..\u8g2\csrc/u8x8_d_ssd1606_172x72.c ****       u8x8_FillDisplay(u8x8);		
 295:..\..\u8g2\csrc/u8x8_d_ssd1606_172x72.c ****       /* write content to the display */
ARM GAS  C:\Users\Greg\AppData\Local\Temp\cc0xnBgg.s 			page 11


 296:..\..\u8g2\csrc/u8x8_d_ssd1606_172x72.c ****       u8x8_RefreshDisplay(u8x8);
 297:..\..\u8g2\csrc/u8x8_d_ssd1606_172x72.c ****       /* now make everything clear */
 298:..\..\u8g2\csrc/u8x8_d_ssd1606_172x72.c ****       u8x8_FillDisplay(u8x8);		
 299:..\..\u8g2\csrc/u8x8_d_ssd1606_172x72.c ****       /* write content to the display */
 300:..\..\u8g2\csrc/u8x8_d_ssd1606_172x72.c ****       u8x8_RefreshDisplay(u8x8);
 301:..\..\u8g2\csrc/u8x8_d_ssd1606_172x72.c ****       /* now make everything clear */
 302:..\..\u8g2\csrc/u8x8_d_ssd1606_172x72.c ****       u8x8_ClearDisplay(u8x8);		
 303:..\..\u8g2\csrc/u8x8_d_ssd1606_172x72.c ****       /* write content to the display */
 304:..\..\u8g2\csrc/u8x8_d_ssd1606_172x72.c ****       u8x8_RefreshDisplay(u8x8);
 305:..\..\u8g2\csrc/u8x8_d_ssd1606_172x72.c **** 
 306:..\..\u8g2\csrc/u8x8_d_ssd1606_172x72.c ****       u8x8_ClearDisplay(u8x8);		
 307:..\..\u8g2\csrc/u8x8_d_ssd1606_172x72.c ****       /* write content to the display */
 308:..\..\u8g2\csrc/u8x8_d_ssd1606_172x72.c ****       u8x8_RefreshDisplay(u8x8);
 309:..\..\u8g2\csrc/u8x8_d_ssd1606_172x72.c ****     
 310:..\..\u8g2\csrc/u8x8_d_ssd1606_172x72.c ****       break;
 311:..\..\u8g2\csrc/u8x8_d_ssd1606_172x72.c ****     case U8X8_MSG_DISPLAY_SET_POWER_SAVE:
 312:..\..\u8g2\csrc/u8x8_d_ssd1606_172x72.c **** /*
 313:..\..\u8g2\csrc/u8x8_d_ssd1606_172x72.c ****       if ( arg_int == 0 )
 314:..\..\u8g2\csrc/u8x8_d_ssd1606_172x72.c **** 	u8x8_cad_SendSequence(u8x8, u8x8_d_ssd1606_172x72_powersave0_seq);
 315:..\..\u8g2\csrc/u8x8_d_ssd1606_172x72.c ****       else
 316:..\..\u8g2\csrc/u8x8_d_ssd1606_172x72.c **** 	u8x8_cad_SendSequence(u8x8, u8x8_d_ssd1606_172x72_powersave1_seq);
 317:..\..\u8g2\csrc/u8x8_d_ssd1606_172x72.c **** */
 318:..\..\u8g2\csrc/u8x8_d_ssd1606_172x72.c ****       break;
 319:..\..\u8g2\csrc/u8x8_d_ssd1606_172x72.c ****     case U8X8_MSG_DISPLAY_SET_FLIP_MODE:
 320:..\..\u8g2\csrc/u8x8_d_ssd1606_172x72.c **** /*
 321:..\..\u8g2\csrc/u8x8_d_ssd1606_172x72.c ****       if ( arg_int == 0 )
 322:..\..\u8g2\csrc/u8x8_d_ssd1606_172x72.c ****       {
 323:..\..\u8g2\csrc/u8x8_d_ssd1606_172x72.c **** 	u8x8_cad_SendSequence(u8x8, u8x8_d_ssd1606_172x72_flip0_seq);
 324:..\..\u8g2\csrc/u8x8_d_ssd1606_172x72.c **** 	u8x8->x_offset = u8x8->display_info->default_x_offset;
 325:..\..\u8g2\csrc/u8x8_d_ssd1606_172x72.c ****       }
 326:..\..\u8g2\csrc/u8x8_d_ssd1606_172x72.c ****       else
 327:..\..\u8g2\csrc/u8x8_d_ssd1606_172x72.c ****       {
 328:..\..\u8g2\csrc/u8x8_d_ssd1606_172x72.c **** 	u8x8_cad_SendSequence(u8x8, u8x8_d_ssd1606_172x72_flip1_seq);
 329:..\..\u8g2\csrc/u8x8_d_ssd1606_172x72.c **** 	u8x8->x_offset = u8x8->display_info->flipmode_x_offset;
 330:..\..\u8g2\csrc/u8x8_d_ssd1606_172x72.c ****       }
 331:..\..\u8g2\csrc/u8x8_d_ssd1606_172x72.c **** */
 332:..\..\u8g2\csrc/u8x8_d_ssd1606_172x72.c ****       break;
 333:..\..\u8g2\csrc/u8x8_d_ssd1606_172x72.c **** #ifdef U8X8_WITH_SET_CONTRAST
 334:..\..\u8g2\csrc/u8x8_d_ssd1606_172x72.c ****     case U8X8_MSG_DISPLAY_SET_CONTRAST:
 335:..\..\u8g2\csrc/u8x8_d_ssd1606_172x72.c **** /*
 336:..\..\u8g2\csrc/u8x8_d_ssd1606_172x72.c ****       u8x8_cad_StartTransfer(u8x8);
 337:..\..\u8g2\csrc/u8x8_d_ssd1606_172x72.c ****       u8x8_cad_EndTransfer(u8x8);
 338:..\..\u8g2\csrc/u8x8_d_ssd1606_172x72.c **** */
 339:..\..\u8g2\csrc/u8x8_d_ssd1606_172x72.c ****       break;
 340:..\..\u8g2\csrc/u8x8_d_ssd1606_172x72.c **** #endif
 341:..\..\u8g2\csrc/u8x8_d_ssd1606_172x72.c ****     case U8X8_MSG_DISPLAY_DRAW_TILE:
 342:..\..\u8g2\csrc/u8x8_d_ssd1606_172x72.c ****       u8x8_d_ssd1606_draw_tile(u8x8, arg_int, arg_ptr);
 343:..\..\u8g2\csrc/u8x8_d_ssd1606_172x72.c ****       break;
 344:..\..\u8g2\csrc/u8x8_d_ssd1606_172x72.c ****     case U8X8_MSG_DISPLAY_REFRESH:
 345:..\..\u8g2\csrc/u8x8_d_ssd1606_172x72.c ****       u8x8_cad_SendSequence(u8x8, u8x8_d_ssd1606_to_display_seq);    
 346:..\..\u8g2\csrc/u8x8_d_ssd1606_172x72.c ****       break;
 347:..\..\u8g2\csrc/u8x8_d_ssd1606_172x72.c ****     default:
 348:..\..\u8g2\csrc/u8x8_d_ssd1606_172x72.c ****       return 0;
 349:..\..\u8g2\csrc/u8x8_d_ssd1606_172x72.c ****   }
 350:..\..\u8g2\csrc/u8x8_d_ssd1606_172x72.c ****   return 1;
 351:..\..\u8g2\csrc/u8x8_d_ssd1606_172x72.c **** }
 352:..\..\u8g2\csrc/u8x8_d_ssd1606_172x72.c **** 
ARM GAS  C:\Users\Greg\AppData\Local\Temp\cc0xnBgg.s 			page 12


 353:..\..\u8g2\csrc/u8x8_d_ssd1606_172x72.c **** 
 354:..\..\u8g2\csrc/u8x8_d_ssd1606_172x72.c **** static const u8x8_display_info_t u8x8_ssd1606_172x72_display_info =
 355:..\..\u8g2\csrc/u8x8_d_ssd1606_172x72.c **** {
 356:..\..\u8g2\csrc/u8x8_d_ssd1606_172x72.c ****   /* chip_enable_level = */ 0,
 357:..\..\u8g2\csrc/u8x8_d_ssd1606_172x72.c ****   /* chip_disable_level = */ 1,
 358:..\..\u8g2\csrc/u8x8_d_ssd1606_172x72.c ****   
 359:..\..\u8g2\csrc/u8x8_d_ssd1606_172x72.c ****   /* post_chip_enable_wait_ns = */ 120,
 360:..\..\u8g2\csrc/u8x8_d_ssd1606_172x72.c ****   /* pre_chip_disable_wait_ns = */ 60,
 361:..\..\u8g2\csrc/u8x8_d_ssd1606_172x72.c ****   /* reset_pulse_width_ms = */ 100, 	
 362:..\..\u8g2\csrc/u8x8_d_ssd1606_172x72.c ****   /* post_reset_wait_ms = */ 100, 
 363:..\..\u8g2\csrc/u8x8_d_ssd1606_172x72.c ****   /* sda_setup_time_ns = */ 50,		/* SSD1606: */
 364:..\..\u8g2\csrc/u8x8_d_ssd1606_172x72.c ****   /* sck_pulse_width_ns = */ 100,	/* SSD1606: 100ns */
 365:..\..\u8g2\csrc/u8x8_d_ssd1606_172x72.c ****   /* sck_clock_hz = */ 4000000UL,	/* since Arduino 1.6.0, the SPI bus speed in Hz. Should be  10000
 366:..\..\u8g2\csrc/u8x8_d_ssd1606_172x72.c ****   /* spi_mode = */ 0,		/* active high, rising edge */
 367:..\..\u8g2\csrc/u8x8_d_ssd1606_172x72.c ****   /* i2c_bus_clock_100kHz = */ 4,
 368:..\..\u8g2\csrc/u8x8_d_ssd1606_172x72.c ****   /* data_setup_time_ns = */ 40,
 369:..\..\u8g2\csrc/u8x8_d_ssd1606_172x72.c ****   /* write_pulse_width_ns = */ 150,	
 370:..\..\u8g2\csrc/u8x8_d_ssd1606_172x72.c ****   /* tile_width = */ 22,		/* 22*8 = 176 */
 371:..\..\u8g2\csrc/u8x8_d_ssd1606_172x72.c ****   /* tile_hight = */ 9,		/* 9*8 = 72 */
 372:..\..\u8g2\csrc/u8x8_d_ssd1606_172x72.c ****   /* default_x_offset = */ 0,
 373:..\..\u8g2\csrc/u8x8_d_ssd1606_172x72.c ****   /* flipmode_x_offset = */ 0,
 374:..\..\u8g2\csrc/u8x8_d_ssd1606_172x72.c ****   /* pixel_width = */ 172,
 375:..\..\u8g2\csrc/u8x8_d_ssd1606_172x72.c ****   /* pixel_height = */ 72		
 376:..\..\u8g2\csrc/u8x8_d_ssd1606_172x72.c **** };
 377:..\..\u8g2\csrc/u8x8_d_ssd1606_172x72.c **** 
 378:..\..\u8g2\csrc/u8x8_d_ssd1606_172x72.c **** uint8_t u8x8_d_ssd1606_172x72(u8x8_t *u8x8, uint8_t msg, uint8_t arg_int, void *arg_ptr)
 379:..\..\u8g2\csrc/u8x8_d_ssd1606_172x72.c **** {
 261              		.loc 1 379 0
 262              		.cfi_startproc
 263              		@ args = 0, pretend = 0, frame = 0
 264              		@ frame_needed = 0, uses_anonymous_args = 0
 265              	.LVL42:
 266 0000 10B5     		push	{r4, lr}
 267              		.cfi_def_cfa_offset 8
 268              		.cfi_offset 4, -8
 269              		.cfi_offset 14, -4
 270              		.loc 1 379 0
 271 0002 0400     		movs	r4, r0
 272 0004 0800     		movs	r0, r1
 273              	.LVL43:
 274 0006 1100     		movs	r1, r2
 275              	.LVL44:
 380:..\..\u8g2\csrc/u8x8_d_ssd1606_172x72.c ****     if ( msg == U8X8_MSG_DISPLAY_SETUP_MEMORY )
 276              		.loc 1 380 0
 277 0008 0928     		cmp	r0, #9
 278 000a 04D1     		bne	.L12
 381:..\..\u8g2\csrc/u8x8_d_ssd1606_172x72.c ****     {
 382:..\..\u8g2\csrc/u8x8_d_ssd1606_172x72.c ****       u8x8_d_helper_display_setup_memory(u8x8, &u8x8_ssd1606_172x72_display_info);
 279              		.loc 1 382 0
 280 000c 1E49     		ldr	r1, .L21
 281 000e 2000     		movs	r0, r4
 282 0010 FFF7FEFF 		bl	u8x8_d_helper_display_setup_memory
 283              	.LVL45:
 284 0014 33E0     		b	.L20
 285              	.LVL46:
 286              	.L12:
 287              	.LBB8:
ARM GAS  C:\Users\Greg\AppData\Local\Temp\cc0xnBgg.s 			page 13


 288              	.LBB9:
 278:..\..\u8g2\csrc/u8x8_d_ssd1606_172x72.c ****   {
 289              		.loc 1 278 0
 290 0016 0A38     		subs	r0, r0, #10
 291              	.LVL47:
 292 0018 0628     		cmp	r0, #6
 293 001a 32D8     		bhi	.L19
 294 001c FFF7FEFF 		bl	__gnu_thumb1_case_uqi
 295              	.L15:
 296 0020 04       		.byte	(.L14-.L15)/2
 297 0021 2F       		.byte	(.L20-.L15)/2
 298 0022 31       		.byte	(.L19-.L15)/2
 299 0023 2F       		.byte	(.L20-.L15)/2
 300 0024 2F       		.byte	(.L20-.L15)/2
 301 0025 25       		.byte	(.L17-.L15)/2
 302 0026 2A       		.byte	(.L18-.L15)/2
 303 0027 00       		.p2align 1
 304              	.L14:
 287:..\..\u8g2\csrc/u8x8_d_ssd1606_172x72.c ****       u8x8_cad_SendSequence(u8x8, u8x8_d_ssd1606_172x72_gde021a1_init_seq);    
 305              		.loc 1 287 0
 306 0028 2000     		movs	r0, r4
 307 002a FFF7FEFF 		bl	u8x8_d_helper_display_init
 308              	.LVL48:
 288:..\..\u8g2\csrc/u8x8_d_ssd1606_172x72.c ****     
 309              		.loc 1 288 0
 310 002e 1649     		ldr	r1, .L21
 311 0030 2000     		movs	r0, r4
 312 0032 1831     		adds	r1, r1, #24
 313 0034 FFF7FEFF 		bl	u8x8_cad_SendSequence
 314              	.LVL49:
 294:..\..\u8g2\csrc/u8x8_d_ssd1606_172x72.c ****       /* write content to the display */
 315              		.loc 1 294 0
 316 0038 2000     		movs	r0, r4
 317 003a FFF7FEFF 		bl	u8x8_FillDisplay
 318              	.LVL50:
 296:..\..\u8g2\csrc/u8x8_d_ssd1606_172x72.c ****       /* now make everything clear */
 319              		.loc 1 296 0
 320 003e 2000     		movs	r0, r4
 321 0040 FFF7FEFF 		bl	u8x8_RefreshDisplay
 322              	.LVL51:
 298:..\..\u8g2\csrc/u8x8_d_ssd1606_172x72.c ****       /* write content to the display */
 323              		.loc 1 298 0
 324 0044 2000     		movs	r0, r4
 325 0046 FFF7FEFF 		bl	u8x8_FillDisplay
 326              	.LVL52:
 300:..\..\u8g2\csrc/u8x8_d_ssd1606_172x72.c ****       /* now make everything clear */
 327              		.loc 1 300 0
 328 004a 2000     		movs	r0, r4
 329 004c FFF7FEFF 		bl	u8x8_RefreshDisplay
 330              	.LVL53:
 302:..\..\u8g2\csrc/u8x8_d_ssd1606_172x72.c ****       /* write content to the display */
 331              		.loc 1 302 0
 332 0050 2000     		movs	r0, r4
 333 0052 FFF7FEFF 		bl	u8x8_ClearDisplay
 334              	.LVL54:
 304:..\..\u8g2\csrc/u8x8_d_ssd1606_172x72.c **** 
 335              		.loc 1 304 0
ARM GAS  C:\Users\Greg\AppData\Local\Temp\cc0xnBgg.s 			page 14


 336 0056 2000     		movs	r0, r4
 337 0058 FFF7FEFF 		bl	u8x8_RefreshDisplay
 338              	.LVL55:
 306:..\..\u8g2\csrc/u8x8_d_ssd1606_172x72.c ****       /* write content to the display */
 339              		.loc 1 306 0
 340 005c 2000     		movs	r0, r4
 341 005e FFF7FEFF 		bl	u8x8_ClearDisplay
 342              	.LVL56:
 308:..\..\u8g2\csrc/u8x8_d_ssd1606_172x72.c ****     
 343              		.loc 1 308 0
 344 0062 2000     		movs	r0, r4
 345 0064 FFF7FEFF 		bl	u8x8_RefreshDisplay
 346              	.LVL57:
 347 0068 09E0     		b	.L20
 348              	.LVL58:
 349              	.L17:
 342:..\..\u8g2\csrc/u8x8_d_ssd1606_172x72.c ****       break;
 350              		.loc 1 342 0
 351 006a 1A00     		movs	r2, r3
 352              	.LVL59:
 353 006c 2000     		movs	r0, r4
 354 006e FFF7FEFF 		bl	u8x8_d_ssd1606_draw_tile
 355              	.LVL60:
 356 0072 04E0     		b	.L20
 357              	.LVL61:
 358              	.L18:
 345:..\..\u8g2\csrc/u8x8_d_ssd1606_172x72.c ****       break;
 359              		.loc 1 345 0
 360 0074 0549     		ldr	r1, .L21+4
 361              	.LVL62:
 362 0076 2000     		movs	r0, r4
 363 0078 0131     		adds	r1, r1, #1
 364 007a FFF7FEFF 		bl	u8x8_cad_SendSequence
 365              	.LVL63:
 366              	.L20:
 350:..\..\u8g2\csrc/u8x8_d_ssd1606_172x72.c **** }
 367              		.loc 1 350 0
 368 007e 0120     		movs	r0, #1
 369 0080 00E0     		b	.L13
 370              	.LVL64:
 371              	.L19:
 348:..\..\u8g2\csrc/u8x8_d_ssd1606_172x72.c ****   }
 372              		.loc 1 348 0
 373 0082 0020     		movs	r0, #0
 374              	.LVL65:
 375              	.L13:
 376              	.LBE9:
 377              	.LBE8:
 383:..\..\u8g2\csrc/u8x8_d_ssd1606_172x72.c ****       return 1;
 384:..\..\u8g2\csrc/u8x8_d_ssd1606_172x72.c ****     }
 385:..\..\u8g2\csrc/u8x8_d_ssd1606_172x72.c ****     return u8x8_d_ssd1606_172x72_generic(u8x8, msg, arg_int, arg_ptr);
 386:..\..\u8g2\csrc/u8x8_d_ssd1606_172x72.c **** }
 378              		.loc 1 386 0
 379              		@ sp needed
 380              	.LVL66:
 381 0084 10BD     		pop	{r4, pc}
 382              	.L22:
ARM GAS  C:\Users\Greg\AppData\Local\Temp\cc0xnBgg.s 			page 15


 383 0086 C046     		.align	2
 384              	.L21:
 385 0088 00000000 		.word	.LANCHOR1
 386 008c 00010000 		.word	.LANCHOR2
 387              		.cfi_endproc
 388              	.LFE3:
 389              		.size	u8x8_d_ssd1606_172x72, .-u8x8_d_ssd1606_172x72
 390              		.section	.rodata
 391              		.align	2
 392              		.set	.LANCHOR1,. + 0
 393              		.set	.LANCHOR2,. + 256
 394              		.type	u8x8_ssd1606_172x72_display_info, %object
 395              		.size	u8x8_ssd1606_172x72_display_info, 24
 396              	u8x8_ssd1606_172x72_display_info:
 397 0000 00       		.byte	0
 398 0001 01       		.byte	1
 399 0002 78       		.byte	120
 400 0003 3C       		.byte	60
 401 0004 64       		.byte	100
 402 0005 64       		.byte	100
 403 0006 32       		.byte	50
 404 0007 64       		.byte	100
 405 0008 00093D00 		.word	4000000
 406 000c 00       		.byte	0
 407 000d 04       		.byte	4
 408 000e 28       		.byte	40
 409 000f 96       		.byte	-106
 410 0010 16       		.byte	22
 411 0011 09       		.byte	9
 412 0012 00       		.byte	0
 413 0013 00       		.byte	0
 414 0014 AC00     		.short	172
 415 0016 4800     		.short	72
 416              		.type	u8x8_d_ssd1606_172x72_gde021a1_init_seq, %object
 417              		.size	u8x8_d_ssd1606_172x72_gde021a1_init_seq, 233
 418              	u8x8_d_ssd1606_172x72_gde021a1_init_seq:
 419 0018 18       		.byte	24
 420 0019 15       		.byte	21
 421 001a 10       		.byte	16
 422 001b 16       		.byte	22
 423 001c 00       		.byte	0
 424 001d 15       		.byte	21
 425 001e 11       		.byte	17
 426 001f 16       		.byte	22
 427 0020 03       		.byte	3
 428 0021 15       		.byte	21
 429 0022 44       		.byte	68
 430 0023 16       		.byte	22
 431 0024 00       		.byte	0
 432 0025 16       		.byte	22
 433 0026 1F       		.byte	31
 434 0027 15       		.byte	21
 435 0028 45       		.byte	69
 436 0029 16       		.byte	22
 437 002a 00       		.byte	0
 438 002b 16       		.byte	22
 439 002c B3       		.byte	-77
ARM GAS  C:\Users\Greg\AppData\Local\Temp\cc0xnBgg.s 			page 16


 440 002d 15       		.byte	21
 441 002e 4E       		.byte	78
 442 002f 16       		.byte	22
 443 0030 00       		.byte	0
 444 0031 15       		.byte	21
 445 0032 4F       		.byte	79
 446 0033 16       		.byte	22
 447 0034 00       		.byte	0
 448 0035 15       		.byte	21
 449 0036 F0       		.byte	-16
 450 0037 16       		.byte	22
 451 0038 1F       		.byte	31
 452 0039 15       		.byte	21
 453 003a 22       		.byte	34
 454 003b 16       		.byte	22
 455 003c C0       		.byte	-64
 456 003d 15       		.byte	21
 457 003e 32       		.byte	50
 458 003f 16       		.byte	22
 459 0040 00       		.byte	0
 460 0041 16       		.byte	22
 461 0042 00       		.byte	0
 462 0043 16       		.byte	22
 463 0044 00       		.byte	0
 464 0045 16       		.byte	22
 465 0046 15       		.byte	21
 466 0047 16       		.byte	22
 467 0048 00       		.byte	0
 468 0049 16       		.byte	22
 469 004a 00       		.byte	0
 470 004b 16       		.byte	22
 471 004c 45       		.byte	69
 472 004d 16       		.byte	22
 473 004e 15       		.byte	21
 474 004f 16       		.byte	22
 475 0050 00       		.byte	0
 476 0051 16       		.byte	22
 477 0052 51       		.byte	81
 478 0053 16       		.byte	22
 479 0054 45       		.byte	69
 480 0055 16       		.byte	22
 481 0056 15       		.byte	21
 482 0057 16       		.byte	22
 483 0058 A8       		.byte	-88
 484 0059 16       		.byte	22
 485 005a A2       		.byte	-94
 486 005b 16       		.byte	22
 487 005c 8A       		.byte	-118
 488 005d 16       		.byte	22
 489 005e 2A       		.byte	42
 490 005f 16       		.byte	22
 491 0060 14       		.byte	20
 492 0061 16       		.byte	22
 493 0062 11       		.byte	17
 494 0063 16       		.byte	22
 495 0064 05       		.byte	5
 496 0065 16       		.byte	22
ARM GAS  C:\Users\Greg\AppData\Local\Temp\cc0xnBgg.s 			page 17


 497 0066 15       		.byte	21
 498 0067 16       		.byte	22
 499 0068 04       		.byte	4
 500 0069 16       		.byte	22
 501 006a 01       		.byte	1
 502 006b 16       		.byte	22
 503 006c 05       		.byte	5
 504 006d 16       		.byte	22
 505 006e 05       		.byte	5
 506 006f 16       		.byte	22
 507 0070 00       		.byte	0
 508 0071 16       		.byte	22
 509 0072 01       		.byte	1
 510 0073 16       		.byte	22
 511 0074 01       		.byte	1
 512 0075 16       		.byte	22
 513 0076 01       		.byte	1
 514 0077 16       		.byte	22
 515 0078 00       		.byte	0
 516 0079 16       		.byte	22
 517 007a 00       		.byte	0
 518 007b 16       		.byte	22
 519 007c 00       		.byte	0
 520 007d 16       		.byte	22
 521 007e 00       		.byte	0
 522 007f 16       		.byte	22
 523 0080 00       		.byte	0
 524 0081 16       		.byte	22
 525 0082 00       		.byte	0
 526 0083 16       		.byte	22
 527 0084 00       		.byte	0
 528 0085 16       		.byte	22
 529 0086 00       		.byte	0
 530 0087 16       		.byte	22
 531 0088 00       		.byte	0
 532 0089 16       		.byte	22
 533 008a 00       		.byte	0
 534 008b 16       		.byte	22
 535 008c 00       		.byte	0
 536 008d 16       		.byte	22
 537 008e 00       		.byte	0
 538 008f 16       		.byte	22
 539 0090 00       		.byte	0
 540 0091 16       		.byte	22
 541 0092 00       		.byte	0
 542 0093 16       		.byte	22
 543 0094 00       		.byte	0
 544 0095 16       		.byte	22
 545 0096 00       		.byte	0
 546 0097 16       		.byte	22
 547 0098 00       		.byte	0
 548 0099 16       		.byte	22
 549 009a 00       		.byte	0
 550 009b 16       		.byte	22
 551 009c 00       		.byte	0
 552 009d 16       		.byte	22
 553 009e 00       		.byte	0
ARM GAS  C:\Users\Greg\AppData\Local\Temp\cc0xnBgg.s 			page 18


 554 009f 16       		.byte	22
 555 00a0 00       		.byte	0
 556 00a1 16       		.byte	22
 557 00a2 00       		.byte	0
 558 00a3 16       		.byte	22
 559 00a4 00       		.byte	0
 560 00a5 16       		.byte	22
 561 00a6 00       		.byte	0
 562 00a7 16       		.byte	22
 563 00a8 00       		.byte	0
 564 00a9 16       		.byte	22
 565 00aa 00       		.byte	0
 566 00ab 16       		.byte	22
 567 00ac 00       		.byte	0
 568 00ad 16       		.byte	22
 569 00ae 00       		.byte	0
 570 00af 16       		.byte	22
 571 00b0 00       		.byte	0
 572 00b1 16       		.byte	22
 573 00b2 00       		.byte	0
 574 00b3 16       		.byte	22
 575 00b4 00       		.byte	0
 576 00b5 16       		.byte	22
 577 00b6 00       		.byte	0
 578 00b7 16       		.byte	22
 579 00b8 00       		.byte	0
 580 00b9 16       		.byte	22
 581 00ba 00       		.byte	0
 582 00bb 16       		.byte	22
 583 00bc 00       		.byte	0
 584 00bd 16       		.byte	22
 585 00be 00       		.byte	0
 586 00bf 16       		.byte	22
 587 00c0 00       		.byte	0
 588 00c1 16       		.byte	22
 589 00c2 00       		.byte	0
 590 00c3 16       		.byte	22
 591 00c4 00       		.byte	0
 592 00c5 16       		.byte	22
 593 00c6 00       		.byte	0
 594 00c7 16       		.byte	22
 595 00c8 00       		.byte	0
 596 00c9 16       		.byte	22
 597 00ca 00       		.byte	0
 598 00cb 16       		.byte	22
 599 00cc 00       		.byte	0
 600 00cd 16       		.byte	22
 601 00ce 00       		.byte	0
 602 00cf 16       		.byte	22
 603 00d0 00       		.byte	0
 604 00d1 16       		.byte	22
 605 00d2 00       		.byte	0
 606 00d3 16       		.byte	22
 607 00d4 00       		.byte	0
 608 00d5 16       		.byte	22
 609 00d6 00       		.byte	0
 610 00d7 16       		.byte	22
ARM GAS  C:\Users\Greg\AppData\Local\Temp\cc0xnBgg.s 			page 19


 611 00d8 00       		.byte	0
 612 00d9 16       		.byte	22
 613 00da 00       		.byte	0
 614 00db 16       		.byte	22
 615 00dc 00       		.byte	0
 616 00dd 16       		.byte	22
 617 00de 00       		.byte	0
 618 00df 16       		.byte	22
 619 00e0 22       		.byte	34
 620 00e1 16       		.byte	22
 621 00e2 FB       		.byte	-5
 622 00e3 16       		.byte	22
 623 00e4 22       		.byte	34
 624 00e5 16       		.byte	22
 625 00e6 1B       		.byte	27
 626 00e7 16       		.byte	22
 627 00e8 00       		.byte	0
 628 00e9 16       		.byte	22
 629 00ea 00       		.byte	0
 630 00eb 16       		.byte	22
 631 00ec 00       		.byte	0
 632 00ed 16       		.byte	22
 633 00ee 00       		.byte	0
 634 00ef 16       		.byte	22
 635 00f0 00       		.byte	0
 636 00f1 16       		.byte	22
 637 00f2 00       		.byte	0
 638 00f3 15       		.byte	21
 639 00f4 2C       		.byte	44
 640 00f5 16       		.byte	22
 641 00f6 A0       		.byte	-96
 642 00f7 15       		.byte	21
 643 00f8 3C       		.byte	60
 644 00f9 16       		.byte	22
 645 00fa 63       		.byte	99
 646 00fb 15       		.byte	21
 647 00fc 22       		.byte	34
 648 00fd 16       		.byte	22
 649 00fe C4       		.byte	-60
 650 00ff 19       		.byte	25
 651 0100 FF       		.byte	-1
 652              		.type	u8x8_d_ssd1606_to_display_seq, %object
 653              		.size	u8x8_d_ssd1606_to_display_seq, 25
 654              	u8x8_d_ssd1606_to_display_seq:
 655 0101 18       		.byte	24
 656 0102 15       		.byte	21
 657 0103 22       		.byte	34
 658 0104 16       		.byte	22
 659 0105 C4       		.byte	-60
 660 0106 15       		.byte	21
 661 0107 20       		.byte	32
 662 0108 FE       		.byte	-2
 663 0109 FA       		.byte	-6
 664 010a FE       		.byte	-2
 665 010b FA       		.byte	-6
 666 010c FE       		.byte	-2
 667 010d FA       		.byte	-6
ARM GAS  C:\Users\Greg\AppData\Local\Temp\cc0xnBgg.s 			page 20


 668 010e FE       		.byte	-2
 669 010f E6       		.byte	-26
 670 0110 15       		.byte	21
 671 0111 22       		.byte	34
 672 0112 16       		.byte	22
 673 0113 03       		.byte	3
 674 0114 FE       		.byte	-2
 675 0115 C8       		.byte	-56
 676 0116 FE       		.byte	-2
 677 0117 5A       		.byte	90
 678 0118 19       		.byte	25
 679 0119 FF       		.byte	-1
 680              		.bss
 681              		.set	.LANCHOR0,. + 0
 682              		.type	buf.4870, %object
 683              		.size	buf.4870, 16
 684              	buf.4870:
 685 0000 00000000 		.space	16
 685      00000000 
 685      00000000 
 685      00000000 
 686              		.text
 687              	.Letext0:
 688              		.file 2 "c:\\program files\\cypress\\psoc creator\\4.1\\psoc creator\\import\\gnu\\arm\\5.4.1\\arm
 689              		.file 3 "c:\\program files\\cypress\\psoc creator\\4.1\\psoc creator\\import\\gnu\\arm\\5.4.1\\arm
 690              		.file 4 "..\\..\\u8g2\\csrc\\u8x8.h"