ARM GAS  C:\Users\Greg\AppData\Local\Temp\ccpnxXfP.s 			page 1


   1              		.syntax unified
   2              		.cpu cortex-m0
   3              		.fpu softvfp
   4              		.eabi_attribute 20, 1
   5              		.eabi_attribute 21, 1
   6              		.eabi_attribute 23, 3
   7              		.eabi_attribute 24, 1
   8              		.eabi_attribute 25, 1
   9              		.eabi_attribute 26, 1
  10              		.eabi_attribute 30, 4
  11              		.eabi_attribute 34, 0
  12              		.eabi_attribute 18, 4
  13              		.thumb
  14              		.syntax unified
  15              		.file	"u8x8_d_st7920.c"
  16              		.text
  17              	.Ltext0:
  18              		.cfi_sections	.debug_frame
  19              		.section	.text.u8x8_d_st7920_common,"ax",%progbits
  20              		.align	1
  21              		.global	u8x8_d_st7920_common
  22              		.code	16
  23              		.thumb_func
  24              		.type	u8x8_d_st7920_common, %function
  25              	u8x8_d_st7920_common:
  26              	.LFB0:
  27              		.file 1 "..\\..\\u8g2\\csrc\\u8x8_d_st7920.c"
   1:..\..\u8g2\csrc/u8x8_d_st7920.c **** /*
   2:..\..\u8g2\csrc/u8x8_d_st7920.c **** 
   3:..\..\u8g2\csrc/u8x8_d_st7920.c ****   u8x8_d_st7920.c
   4:..\..\u8g2\csrc/u8x8_d_st7920.c ****   
   5:..\..\u8g2\csrc/u8x8_d_st7920.c ****   Universal 8bit Graphics Library (https://github.com/olikraus/u8g2/)
   6:..\..\u8g2\csrc/u8x8_d_st7920.c **** 
   7:..\..\u8g2\csrc/u8x8_d_st7920.c ****   Copyright (c) 2016, olikraus@gmail.com
   8:..\..\u8g2\csrc/u8x8_d_st7920.c ****   All rights reserved.
   9:..\..\u8g2\csrc/u8x8_d_st7920.c **** 
  10:..\..\u8g2\csrc/u8x8_d_st7920.c ****   Redistribution and use in source and binary forms, with or without modification, 
  11:..\..\u8g2\csrc/u8x8_d_st7920.c ****   are permitted provided that the following conditions are met:
  12:..\..\u8g2\csrc/u8x8_d_st7920.c **** 
  13:..\..\u8g2\csrc/u8x8_d_st7920.c ****   * Redistributions of source code must retain the above copyright notice, this list 
  14:..\..\u8g2\csrc/u8x8_d_st7920.c ****     of conditions and the following disclaimer.
  15:..\..\u8g2\csrc/u8x8_d_st7920.c ****     
  16:..\..\u8g2\csrc/u8x8_d_st7920.c ****   * Redistributions in binary form must reproduce the above copyright notice, this 
  17:..\..\u8g2\csrc/u8x8_d_st7920.c ****     list of conditions and the following disclaimer in the documentation and/or other 
  18:..\..\u8g2\csrc/u8x8_d_st7920.c ****     materials provided with the distribution.
  19:..\..\u8g2\csrc/u8x8_d_st7920.c **** 
  20:..\..\u8g2\csrc/u8x8_d_st7920.c ****   THIS SOFTWARE IS PROVIDED BY THE COPYRIGHT HOLDERS AND 
  21:..\..\u8g2\csrc/u8x8_d_st7920.c ****   CONTRIBUTORS "AS IS" AND ANY EXPRESS OR IMPLIED WARRANTIES, 
  22:..\..\u8g2\csrc/u8x8_d_st7920.c ****   INCLUDING, BUT NOT LIMITED TO, THE IMPLIED WARRANTIES OF 
  23:..\..\u8g2\csrc/u8x8_d_st7920.c ****   MERCHANTABILITY AND FITNESS FOR A PARTICULAR PURPOSE ARE 
  24:..\..\u8g2\csrc/u8x8_d_st7920.c ****   DISCLAIMED. IN NO EVENT SHALL THE COPYRIGHT HOLDER OR 
  25:..\..\u8g2\csrc/u8x8_d_st7920.c ****   CONTRIBUTORS BE LIABLE FOR ANY DIRECT, INDIRECT, INCIDENTAL, 
  26:..\..\u8g2\csrc/u8x8_d_st7920.c ****   SPECIAL, EXEMPLARY, OR CONSEQUENTIAL DAMAGES (INCLUDING, BUT 
  27:..\..\u8g2\csrc/u8x8_d_st7920.c ****   NOT LIMITED TO, PROCUREMENT OF SUBSTITUTE GOODS OR SERVICES; 
  28:..\..\u8g2\csrc/u8x8_d_st7920.c ****   LOSS OF USE, DATA, OR PROFITS; OR BUSINESS INTERRUPTION) HOWEVER 
  29:..\..\u8g2\csrc/u8x8_d_st7920.c ****   CAUSED AND ON ANY THEORY OF LIABILITY, WHETHER IN CONTRACT, 
  30:..\..\u8g2\csrc/u8x8_d_st7920.c ****   STRICT LIABILITY, OR TORT (INCLUDING NEGLIGENCE OR OTHERWISE) 
ARM GAS  C:\Users\Greg\AppData\Local\Temp\ccpnxXfP.s 			page 2


  31:..\..\u8g2\csrc/u8x8_d_st7920.c ****   ARISING IN ANY WAY OUT OF THE USE OF THIS SOFTWARE, EVEN IF 
  32:..\..\u8g2\csrc/u8x8_d_st7920.c ****   ADVISED OF THE POSSIBILITY OF SUCH DAMAGE.  
  33:..\..\u8g2\csrc/u8x8_d_st7920.c **** 
  34:..\..\u8g2\csrc/u8x8_d_st7920.c **** 
  35:..\..\u8g2\csrc/u8x8_d_st7920.c ****   The ST7920 controller does not support hardware graphics flip.
  36:..\..\u8g2\csrc/u8x8_d_st7920.c ****   Contrast adjustment is done by an external resistor --> no support for contrast adjustment
  37:..\..\u8g2\csrc/u8x8_d_st7920.c ****   
  38:..\..\u8g2\csrc/u8x8_d_st7920.c ****   
  39:..\..\u8g2\csrc/u8x8_d_st7920.c **** */
  40:..\..\u8g2\csrc/u8x8_d_st7920.c **** #include "u8x8.h"
  41:..\..\u8g2\csrc/u8x8_d_st7920.c **** 
  42:..\..\u8g2\csrc/u8x8_d_st7920.c **** 
  43:..\..\u8g2\csrc/u8x8_d_st7920.c **** 
  44:..\..\u8g2\csrc/u8x8_d_st7920.c **** static const uint8_t u8x8_d_st7920_init_seq[] = {
  45:..\..\u8g2\csrc/u8x8_d_st7920.c ****     
  46:..\..\u8g2\csrc/u8x8_d_st7920.c ****   U8X8_DLY(100),
  47:..\..\u8g2\csrc/u8x8_d_st7920.c ****   U8X8_START_TRANSFER(),             	/* enable chip, delay is part of the transfer start */
  48:..\..\u8g2\csrc/u8x8_d_st7920.c ****   U8X8_DLY(10),
  49:..\..\u8g2\csrc/u8x8_d_st7920.c ****   
  50:..\..\u8g2\csrc/u8x8_d_st7920.c ****   U8X8_C(0x038),            			/* 8 Bit interface (DL=1), basic instruction set (RE=0) */
  51:..\..\u8g2\csrc/u8x8_d_st7920.c ****   U8X8_C(0x008),		                /* display on, cursor & blink off; 0x08: all off */
  52:..\..\u8g2\csrc/u8x8_d_st7920.c ****   U8X8_C(0x006),		                /* Entry mode: Cursor move to right ,DDRAM address counter (AC) p
  53:..\..\u8g2\csrc/u8x8_d_st7920.c ****   U8X8_C(0x002),		                /* disable scroll, enable CGRAM adress  */
  54:..\..\u8g2\csrc/u8x8_d_st7920.c ****   U8X8_C(0x001),		                /* clear RAM, needs 1.6 ms */
  55:..\..\u8g2\csrc/u8x8_d_st7920.c ****   U8X8_DLY(4),					/* delay 2ms */
  56:..\..\u8g2\csrc/u8x8_d_st7920.c **** 
  57:..\..\u8g2\csrc/u8x8_d_st7920.c ****   
  58:..\..\u8g2\csrc/u8x8_d_st7920.c ****   U8X8_END_TRANSFER(),             	/* disable chip */
  59:..\..\u8g2\csrc/u8x8_d_st7920.c ****   U8X8_END()             			/* end of sequence */
  60:..\..\u8g2\csrc/u8x8_d_st7920.c **** };
  61:..\..\u8g2\csrc/u8x8_d_st7920.c **** 
  62:..\..\u8g2\csrc/u8x8_d_st7920.c **** static const uint8_t u8x8_d_st7920_powersave0_seq[] = {
  63:..\..\u8g2\csrc/u8x8_d_st7920.c ****   U8X8_START_TRANSFER(),             	/* enable chip, delay is part of the transfer start */
  64:..\..\u8g2\csrc/u8x8_d_st7920.c ****   U8X8_C(0x038),            			/* 8 Bit interface (DL=1), basic instruction set (RE=0) */
  65:..\..\u8g2\csrc/u8x8_d_st7920.c ****   U8X8_C(0x00c),		                /* display on, cursor & blink off */
  66:..\..\u8g2\csrc/u8x8_d_st7920.c ****   U8X8_END_TRANSFER(),             	/* disable chip */
  67:..\..\u8g2\csrc/u8x8_d_st7920.c ****   U8X8_END()             			/* end of sequence */
  68:..\..\u8g2\csrc/u8x8_d_st7920.c **** };
  69:..\..\u8g2\csrc/u8x8_d_st7920.c **** 
  70:..\..\u8g2\csrc/u8x8_d_st7920.c **** static const uint8_t u8x8_d_st7920_powersave1_seq[] = {
  71:..\..\u8g2\csrc/u8x8_d_st7920.c ****   U8X8_START_TRANSFER(),             	/* enable chip, delay is part of the transfer start */
  72:..\..\u8g2\csrc/u8x8_d_st7920.c ****   U8X8_C(0x038),            			/* 8 Bit interface (DL=1), basic instruction set (RE=0) */
  73:..\..\u8g2\csrc/u8x8_d_st7920.c ****   U8X8_C(0x008),		                /* display off */
  74:..\..\u8g2\csrc/u8x8_d_st7920.c ****   U8X8_END_TRANSFER(),             	/* disable chip */
  75:..\..\u8g2\csrc/u8x8_d_st7920.c ****   U8X8_END()             			/* end of sequence */
  76:..\..\u8g2\csrc/u8x8_d_st7920.c **** };
  77:..\..\u8g2\csrc/u8x8_d_st7920.c **** 
  78:..\..\u8g2\csrc/u8x8_d_st7920.c **** 
  79:..\..\u8g2\csrc/u8x8_d_st7920.c **** uint8_t u8x8_d_st7920_common(u8x8_t *u8x8, uint8_t msg, uint8_t arg_int, void *arg_ptr)
  80:..\..\u8g2\csrc/u8x8_d_st7920.c **** {
  28              		.loc 1 80 0
  29              		.cfi_startproc
  30              		@ args = 0, pretend = 0, frame = 16
  31              		@ frame_needed = 0, uses_anonymous_args = 0
  32              	.LVL0:
  33 0000 F0B5     		push	{r4, r5, r6, r7, lr}
  34              		.cfi_def_cfa_offset 20
ARM GAS  C:\Users\Greg\AppData\Local\Temp\ccpnxXfP.s 			page 3


  35              		.cfi_offset 4, -20
  36              		.cfi_offset 5, -16
  37              		.cfi_offset 6, -12
  38              		.cfi_offset 7, -8
  39              		.cfi_offset 14, -4
  40 0002 0400     		movs	r4, r0
  41 0004 85B0     		sub	sp, sp, #20
  42              		.cfi_def_cfa_offset 40
  43              		.loc 1 80 0
  44 0006 1F00     		movs	r7, r3
  81:..\..\u8g2\csrc/u8x8_d_st7920.c ****   uint8_t x, y, c, i;
  82:..\..\u8g2\csrc/u8x8_d_st7920.c ****   uint8_t *ptr;
  83:..\..\u8g2\csrc/u8x8_d_st7920.c ****   switch(msg)
  45              		.loc 1 83 0
  46 0008 0B29     		cmp	r1, #11
  47 000a 09D0     		beq	.L3
  48 000c 0F29     		cmp	r1, #15
  49 000e 12D0     		beq	.L4
  84:..\..\u8g2\csrc/u8x8_d_st7920.c ****   {
  85:..\..\u8g2\csrc/u8x8_d_st7920.c ****     /* U8X8_MSG_DISPLAY_SETUP_MEMORY is handled by the calling function */
  86:..\..\u8g2\csrc/u8x8_d_st7920.c ****     /*
  87:..\..\u8g2\csrc/u8x8_d_st7920.c ****     case U8X8_MSG_DISPLAY_SETUP_MEMORY:
  88:..\..\u8g2\csrc/u8x8_d_st7920.c ****       break;
  89:..\..\u8g2\csrc/u8x8_d_st7920.c ****     */
  90:..\..\u8g2\csrc/u8x8_d_st7920.c ****     case U8X8_MSG_DISPLAY_INIT:
  91:..\..\u8g2\csrc/u8x8_d_st7920.c ****       u8x8_d_helper_display_init(u8x8);
  92:..\..\u8g2\csrc/u8x8_d_st7920.c ****       u8x8_cad_SendSequence(u8x8, u8x8_d_st7920_init_seq);
  93:..\..\u8g2\csrc/u8x8_d_st7920.c ****       break;
  94:..\..\u8g2\csrc/u8x8_d_st7920.c ****     case U8X8_MSG_DISPLAY_SET_POWER_SAVE:
  95:..\..\u8g2\csrc/u8x8_d_st7920.c ****       if ( arg_int == 0 )
  96:..\..\u8g2\csrc/u8x8_d_st7920.c **** 	u8x8_cad_SendSequence(u8x8, u8x8_d_st7920_powersave0_seq);
  97:..\..\u8g2\csrc/u8x8_d_st7920.c ****       else
  98:..\..\u8g2\csrc/u8x8_d_st7920.c **** 	u8x8_cad_SendSequence(u8x8, u8x8_d_st7920_powersave1_seq);
  99:..\..\u8g2\csrc/u8x8_d_st7920.c ****       break;
 100:..\..\u8g2\csrc/u8x8_d_st7920.c ****     case U8X8_MSG_DISPLAY_DRAW_TILE:
 101:..\..\u8g2\csrc/u8x8_d_st7920.c ****       y = (((u8x8_tile_t *)arg_ptr)->y_pos);
 102:..\..\u8g2\csrc/u8x8_d_st7920.c ****       y*=8;
 103:..\..\u8g2\csrc/u8x8_d_st7920.c ****       x = ((u8x8_tile_t *)arg_ptr)->x_pos;
 104:..\..\u8g2\csrc/u8x8_d_st7920.c ****       x /= 2;		/* not sure whether this is a clever idea, problem is, the ST7920 can address only e
 105:..\..\u8g2\csrc/u8x8_d_st7920.c ****     
 106:..\..\u8g2\csrc/u8x8_d_st7920.c ****       if ( y >= 32 )	/* this is the adjustment for 128x64 displays */
 107:..\..\u8g2\csrc/u8x8_d_st7920.c ****       {
 108:..\..\u8g2\csrc/u8x8_d_st7920.c **** 	y-=32;
 109:..\..\u8g2\csrc/u8x8_d_st7920.c **** 	x+=8;
 110:..\..\u8g2\csrc/u8x8_d_st7920.c ****       }
 111:..\..\u8g2\csrc/u8x8_d_st7920.c ****     
 112:..\..\u8g2\csrc/u8x8_d_st7920.c ****       u8x8_cad_StartTransfer(u8x8);
 113:..\..\u8g2\csrc/u8x8_d_st7920.c ****         
 114:..\..\u8g2\csrc/u8x8_d_st7920.c **** 
 115:..\..\u8g2\csrc/u8x8_d_st7920.c ****       /* 
 116:..\..\u8g2\csrc/u8x8_d_st7920.c **** 	Tile structure is reused here for the ST7920, however u8x8 is not supported 
 117:..\..\u8g2\csrc/u8x8_d_st7920.c **** 	tile_ptr points to data which has cnt*8 bytes (same as SSD1306 tiles)
 118:..\..\u8g2\csrc/u8x8_d_st7920.c **** 	Buffer is expected to have 8 lines of code fitting to the ST7920 internal memory
 119:..\..\u8g2\csrc/u8x8_d_st7920.c **** 	"cnt" includes the number of horizontal bytes. width is equal to cnt*8
 120:..\..\u8g2\csrc/u8x8_d_st7920.c **** 	Also important: Width must be a multiple of 16 (ST7920 requirement), so cnt must be even.
 121:..\..\u8g2\csrc/u8x8_d_st7920.c **** 	
 122:..\..\u8g2\csrc/u8x8_d_st7920.c **** 	TODO: Consider arg_int, however arg_int is not used by u8g2
ARM GAS  C:\Users\Greg\AppData\Local\Temp\ccpnxXfP.s 			page 4


 123:..\..\u8g2\csrc/u8x8_d_st7920.c ****       */
 124:..\..\u8g2\csrc/u8x8_d_st7920.c ****       c = ((u8x8_tile_t *)arg_ptr)->cnt;	/* number of tiles */
 125:..\..\u8g2\csrc/u8x8_d_st7920.c ****       ptr = ((u8x8_tile_t *)arg_ptr)->tile_ptr;	/* data ptr to the tiles */
 126:..\..\u8g2\csrc/u8x8_d_st7920.c ****       /* The following byte is sent to allow the ST7920 to sync up with the data */
 127:..\..\u8g2\csrc/u8x8_d_st7920.c ****       /* it solves some issues with garbage data */
 128:..\..\u8g2\csrc/u8x8_d_st7920.c ****       u8x8_cad_SendCmd(u8x8, 0x03e );	/* enable extended mode */
 129:..\..\u8g2\csrc/u8x8_d_st7920.c ****       for( i = 0; i < 8; i++ )
 130:..\..\u8g2\csrc/u8x8_d_st7920.c ****       {
 131:..\..\u8g2\csrc/u8x8_d_st7920.c **** 	u8x8_cad_SendCmd(u8x8, 0x03e );	/* enable extended mode */
 132:..\..\u8g2\csrc/u8x8_d_st7920.c **** 	u8x8_cad_SendCmd(u8x8, 0x080 | (y+i) );      /* y pos  */
 133:..\..\u8g2\csrc/u8x8_d_st7920.c **** 	u8x8_cad_SendCmd(u8x8, 0x080 | x );      /* set x pos */
 134:..\..\u8g2\csrc/u8x8_d_st7920.c **** 	c = ((u8x8_tile_t *)arg_ptr)->cnt;	/* number of tiles */
 135:..\..\u8g2\csrc/u8x8_d_st7920.c **** 
 136:..\..\u8g2\csrc/u8x8_d_st7920.c **** 	//u8x8->gpio_and_delay_cb(u8x8, U8X8_MSG_DELAY_NANO, 200, NULL);	/* extra dely required */
 137:..\..\u8g2\csrc/u8x8_d_st7920.c **** 	u8x8_cad_SendData(u8x8, c, ptr);	/* note: SendData can not handle more than 255 bytes, send one li
 138:..\..\u8g2\csrc/u8x8_d_st7920.c **** 	ptr += c;
 139:..\..\u8g2\csrc/u8x8_d_st7920.c **** 	//u8x8->gpio_and_delay_cb(u8x8, U8X8_MSG_DELAY_NANO, 200, NULL);	/* extra dely required */
 140:..\..\u8g2\csrc/u8x8_d_st7920.c ****       }
 141:..\..\u8g2\csrc/u8x8_d_st7920.c **** 
 142:..\..\u8g2\csrc/u8x8_d_st7920.c ****       u8x8_cad_EndTransfer(u8x8);
 143:..\..\u8g2\csrc/u8x8_d_st7920.c **** 
 144:..\..\u8g2\csrc/u8x8_d_st7920.c ****       break;
 145:..\..\u8g2\csrc/u8x8_d_st7920.c ****     default:
 146:..\..\u8g2\csrc/u8x8_d_st7920.c ****       return 0;
  50              		.loc 1 146 0
  51 0010 0020     		movs	r0, #0
  52              	.LVL1:
  83:..\..\u8g2\csrc/u8x8_d_st7920.c ****   {
  53              		.loc 1 83 0
  54 0012 0A29     		cmp	r1, #10
  55 0014 4BD1     		bne	.L2
  91:..\..\u8g2\csrc/u8x8_d_st7920.c ****       u8x8_cad_SendSequence(u8x8, u8x8_d_st7920_init_seq);
  56              		.loc 1 91 0
  57 0016 2000     		movs	r0, r4
  58 0018 FFF7FEFF 		bl	u8x8_d_helper_display_init
  59              	.LVL2:
  92:..\..\u8g2\csrc/u8x8_d_st7920.c ****       break;
  60              		.loc 1 92 0
  61 001c 2549     		ldr	r1, .L15
  62 001e 05E0     		b	.L12
  63              	.LVL3:
  64              	.L3:
  65 0020 2449     		ldr	r1, .L15
  66              	.LVL4:
  95:..\..\u8g2\csrc/u8x8_d_st7920.c **** 	u8x8_cad_SendSequence(u8x8, u8x8_d_st7920_powersave0_seq);
  67              		.loc 1 95 0
  68 0022 002A     		cmp	r2, #0
  69 0024 01D1     		bne	.L6
  96:..\..\u8g2\csrc/u8x8_d_st7920.c ****       else
  70              		.loc 1 96 0
  71 0026 1331     		adds	r1, r1, #19
  72 0028 00E0     		b	.L12
  73              	.L6:
  98:..\..\u8g2\csrc/u8x8_d_st7920.c ****       break;
  74              		.loc 1 98 0
  75 002a 1A31     		adds	r1, r1, #26
  76              	.LVL5:
ARM GAS  C:\Users\Greg\AppData\Local\Temp\ccpnxXfP.s 			page 5


  77              	.L12:
  78 002c 2000     		movs	r0, r4
  79 002e FFF7FEFF 		bl	u8x8_cad_SendSequence
  80              	.LVL6:
  81              	.L13:
 147:..\..\u8g2\csrc/u8x8_d_st7920.c ****   }
 148:..\..\u8g2\csrc/u8x8_d_st7920.c ****   return 1;
  82              		.loc 1 148 0
  83 0032 0120     		movs	r0, #1
  84 0034 3BE0     		b	.L2
  85              	.LVL7:
  86              	.L4:
  87              	.LBB4:
  88              	.LBB5:
 101:..\..\u8g2\csrc/u8x8_d_st7920.c ****       y*=8;
  89              		.loc 1 101 0
  90 0036 9D79     		ldrb	r5, [r3, #6]
  91              	.LVL8:
 103:..\..\u8g2\csrc/u8x8_d_st7920.c ****       x /= 2;		/* not sure whether this is a clever idea, problem is, the ST7920 can address only e
  92              		.loc 1 103 0
  93 0038 5E79     		ldrb	r6, [r3, #5]
 102:..\..\u8g2\csrc/u8x8_d_st7920.c ****       x = ((u8x8_tile_t *)arg_ptr)->x_pos;
  94              		.loc 1 102 0
  95 003a ED00     		lsls	r5, r5, #3
  96              	.LVL9:
  97 003c EDB2     		uxtb	r5, r5
  98              	.LVL10:
 104:..\..\u8g2\csrc/u8x8_d_st7920.c ****     
  99              		.loc 1 104 0
 100 003e 7608     		lsrs	r6, r6, #1
 101              	.LVL11:
 106:..\..\u8g2\csrc/u8x8_d_st7920.c ****       {
 102              		.loc 1 106 0
 103 0040 1F2D     		cmp	r5, #31
 104 0042 02D9     		bls	.L7
 108:..\..\u8g2\csrc/u8x8_d_st7920.c **** 	x+=8;
 105              		.loc 1 108 0
 106 0044 203D     		subs	r5, r5, #32
 107              	.LVL12:
 108 0046 EDB2     		uxtb	r5, r5
 109              	.LVL13:
 109:..\..\u8g2\csrc/u8x8_d_st7920.c ****       }
 110              		.loc 1 109 0
 111 0048 0836     		adds	r6, r6, #8
 112              	.LVL14:
 113              	.L7:
 112:..\..\u8g2\csrc/u8x8_d_st7920.c ****         
 114              		.loc 1 112 0
 115 004a 2000     		movs	r0, r4
 116              	.LVL15:
 117 004c FFF7FEFF 		bl	u8x8_cad_StartTransfer
 118              	.LVL16:
 125:..\..\u8g2\csrc/u8x8_d_st7920.c ****       /* The following byte is sent to allow the ST7920 to sync up with the data */
 119              		.loc 1 125 0
 120 0050 3B68     		ldr	r3, [r7]
 128:..\..\u8g2\csrc/u8x8_d_st7920.c ****       for( i = 0; i < 8; i++ )
 121              		.loc 1 128 0
ARM GAS  C:\Users\Greg\AppData\Local\Temp\ccpnxXfP.s 			page 6


 122 0052 3E21     		movs	r1, #62
 123 0054 2000     		movs	r0, r4
 125:..\..\u8g2\csrc/u8x8_d_st7920.c ****       /* The following byte is sent to allow the ST7920 to sync up with the data */
 124              		.loc 1 125 0
 125 0056 0293     		str	r3, [sp, #8]
 126              	.LVL17:
 128:..\..\u8g2\csrc/u8x8_d_st7920.c ****       for( i = 0; i < 8; i++ )
 127              		.loc 1 128 0
 128 0058 FFF7FEFF 		bl	u8x8_cad_SendCmd
 129              	.LVL18:
 130 005c 0023     		movs	r3, #0
 131 005e 0193     		str	r3, [sp, #4]
 133:..\..\u8g2\csrc/u8x8_d_st7920.c **** 	c = ((u8x8_tile_t *)arg_ptr)->cnt;	/* number of tiles */
 132              		.loc 1 133 0
 133 0060 803B     		subs	r3, r3, #128
 134 0062 1E43     		orrs	r6, r3
 135              	.LVL19:
 136 0064 F3B2     		uxtb	r3, r6
 137 0066 0393     		str	r3, [sp, #12]
 138              	.LVL20:
 139              	.L8:
 131:..\..\u8g2\csrc/u8x8_d_st7920.c **** 	u8x8_cad_SendCmd(u8x8, 0x080 | (y+i) );      /* y pos  */
 140              		.loc 1 131 0
 141 0068 3E21     		movs	r1, #62
 142 006a 2000     		movs	r0, r4
 143 006c FFF7FEFF 		bl	u8x8_cad_SendCmd
 144              	.LVL21:
 132:..\..\u8g2\csrc/u8x8_d_st7920.c **** 	u8x8_cad_SendCmd(u8x8, 0x080 | x );      /* set x pos */
 145              		.loc 1 132 0
 146 0070 019B     		ldr	r3, [sp, #4]
 147 0072 2000     		movs	r0, r4
 148 0074 E918     		adds	r1, r5, r3
 149 0076 8023     		movs	r3, #128
 150 0078 5B42     		rsbs	r3, r3, #0
 151 007a 1943     		orrs	r1, r3
 152 007c C9B2     		uxtb	r1, r1
 153 007e FFF7FEFF 		bl	u8x8_cad_SendCmd
 154              	.LVL22:
 133:..\..\u8g2\csrc/u8x8_d_st7920.c **** 	c = ((u8x8_tile_t *)arg_ptr)->cnt;	/* number of tiles */
 155              		.loc 1 133 0
 156 0082 0399     		ldr	r1, [sp, #12]
 157 0084 2000     		movs	r0, r4
 158 0086 FFF7FEFF 		bl	u8x8_cad_SendCmd
 159              	.LVL23:
 134:..\..\u8g2\csrc/u8x8_d_st7920.c **** 
 160              		.loc 1 134 0
 161 008a 3E79     		ldrb	r6, [r7, #4]
 162              	.LVL24:
 137:..\..\u8g2\csrc/u8x8_d_st7920.c **** 	ptr += c;
 163              		.loc 1 137 0
 164 008c 029A     		ldr	r2, [sp, #8]
 165 008e 3100     		movs	r1, r6
 166 0090 2000     		movs	r0, r4
 167 0092 FFF7FEFF 		bl	u8x8_cad_SendData
 168              	.LVL25:
 138:..\..\u8g2\csrc/u8x8_d_st7920.c **** 	//u8x8->gpio_and_delay_cb(u8x8, U8X8_MSG_DELAY_NANO, 200, NULL);	/* extra dely required */
 169              		.loc 1 138 0
ARM GAS  C:\Users\Greg\AppData\Local\Temp\ccpnxXfP.s 			page 7


 170 0096 029B     		ldr	r3, [sp, #8]
 171 0098 9B19     		adds	r3, r3, r6
 172 009a 0293     		str	r3, [sp, #8]
 173              	.LVL26:
 174 009c 019B     		ldr	r3, [sp, #4]
 175              	.LVL27:
 176 009e 0133     		adds	r3, r3, #1
 177 00a0 0193     		str	r3, [sp, #4]
 178              	.LVL28:
 129:..\..\u8g2\csrc/u8x8_d_st7920.c ****       {
 179              		.loc 1 129 0
 180 00a2 082B     		cmp	r3, #8
 181 00a4 E0D1     		bne	.L8
 142:..\..\u8g2\csrc/u8x8_d_st7920.c **** 
 182              		.loc 1 142 0
 183 00a6 2000     		movs	r0, r4
 184 00a8 FFF7FEFF 		bl	u8x8_cad_EndTransfer
 185              	.LVL29:
 186 00ac C1E7     		b	.L13
 187              	.L2:
 188              	.LBE5:
 189              	.LBE4:
 149:..\..\u8g2\csrc/u8x8_d_st7920.c **** }
 190              		.loc 1 149 0
 191 00ae 05B0     		add	sp, sp, #20
 192              		@ sp needed
 193              	.LVL30:
 194              	.LVL31:
 195 00b0 F0BD     		pop	{r4, r5, r6, r7, pc}
 196              	.L16:
 197 00b2 C046     		.align	2
 198              	.L15:
 199 00b4 00000000 		.word	.LANCHOR0
 200              		.cfi_endproc
 201              	.LFE0:
 202              		.size	u8x8_d_st7920_common, .-u8x8_d_st7920_common
 203              		.section	.text.u8x8_d_st7920_192x32,"ax",%progbits
 204              		.align	1
 205              		.global	u8x8_d_st7920_192x32
 206              		.code	16
 207              		.thumb_func
 208              		.type	u8x8_d_st7920_192x32, %function
 209              	u8x8_d_st7920_192x32:
 210              	.LFB1:
 150:..\..\u8g2\csrc/u8x8_d_st7920.c **** 
 151:..\..\u8g2\csrc/u8x8_d_st7920.c **** static const u8x8_display_info_t u8x8_st7920_192x32_display_info =
 152:..\..\u8g2\csrc/u8x8_d_st7920.c **** {
 153:..\..\u8g2\csrc/u8x8_d_st7920.c ****   /* chip_enable_level = */ 1,
 154:..\..\u8g2\csrc/u8x8_d_st7920.c ****   /* chip_disable_level = */ 0,
 155:..\..\u8g2\csrc/u8x8_d_st7920.c ****   
 156:..\..\u8g2\csrc/u8x8_d_st7920.c ****   /* post_chip_enable_wait_ns = */ 5,
 157:..\..\u8g2\csrc/u8x8_d_st7920.c ****   /* pre_chip_disable_wait_ns = */ 5,
 158:..\..\u8g2\csrc/u8x8_d_st7920.c ****   /* reset_pulse_width_ms = */ 1, 
 159:..\..\u8g2\csrc/u8x8_d_st7920.c ****   /* post_reset_wait_ms = */ 6, 
 160:..\..\u8g2\csrc/u8x8_d_st7920.c ****   /* sda_setup_time_ns = */ 20,		
 161:..\..\u8g2\csrc/u8x8_d_st7920.c ****   /* sck_pulse_width_ns = */  140,	/* datasheet ST7920 */
 162:..\..\u8g2\csrc/u8x8_d_st7920.c ****   /* sck_clock_hz = */ 1000000UL,	/* since Arduino 1.6.0, the SPI bus speed in Hz. Should be  10000
ARM GAS  C:\Users\Greg\AppData\Local\Temp\ccpnxXfP.s 			page 8


 163:..\..\u8g2\csrc/u8x8_d_st7920.c ****   /* spi_mode = */ 3,		/* old: sck_takeover_edge, new: active high (bit 1), rising edge (bit 0), 18
 164:..\..\u8g2\csrc/u8x8_d_st7920.c **** 	/* Arduino mode 3: aktive low clock, but use rising edge */
 165:..\..\u8g2\csrc/u8x8_d_st7920.c ****   /* i2c_bus_clock_100kHz = */ 4,
 166:..\..\u8g2\csrc/u8x8_d_st7920.c ****   /* data_setup_time_ns = */ 30,
 167:..\..\u8g2\csrc/u8x8_d_st7920.c ****   /* write_pulse_width_ns = */ 40,
 168:..\..\u8g2\csrc/u8x8_d_st7920.c ****   /* tile_width = */ 24,
 169:..\..\u8g2\csrc/u8x8_d_st7920.c ****   /* tile_hight = */ 4,
 170:..\..\u8g2\csrc/u8x8_d_st7920.c ****   /* default_x_offset = */ 0,
 171:..\..\u8g2\csrc/u8x8_d_st7920.c ****   /* flipmode_x_offset = */ 0,
 172:..\..\u8g2\csrc/u8x8_d_st7920.c ****   /* pixel_width = */ 192,
 173:..\..\u8g2\csrc/u8x8_d_st7920.c ****   /* pixel_height = */ 32
 174:..\..\u8g2\csrc/u8x8_d_st7920.c **** };
 175:..\..\u8g2\csrc/u8x8_d_st7920.c **** 
 176:..\..\u8g2\csrc/u8x8_d_st7920.c **** static const u8x8_display_info_t u8x8_st7920_128x64_display_info =
 177:..\..\u8g2\csrc/u8x8_d_st7920.c **** {
 178:..\..\u8g2\csrc/u8x8_d_st7920.c ****   /* chip_enable_level = */ 1,
 179:..\..\u8g2\csrc/u8x8_d_st7920.c ****   /* chip_disable_level = */ 0,
 180:..\..\u8g2\csrc/u8x8_d_st7920.c ****   
 181:..\..\u8g2\csrc/u8x8_d_st7920.c ****   /* post_chip_enable_wait_ns = */ 5,
 182:..\..\u8g2\csrc/u8x8_d_st7920.c ****   /* pre_chip_disable_wait_ns = */ 5,
 183:..\..\u8g2\csrc/u8x8_d_st7920.c ****   /* reset_pulse_width_ms = */ 1, 
 184:..\..\u8g2\csrc/u8x8_d_st7920.c ****   /* post_reset_wait_ms = */ 6, 
 185:..\..\u8g2\csrc/u8x8_d_st7920.c ****   /* sda_setup_time_ns = */ 20,		
 186:..\..\u8g2\csrc/u8x8_d_st7920.c ****   /* sck_pulse_width_ns = */  140,	/* datasheet ST7920 */
 187:..\..\u8g2\csrc/u8x8_d_st7920.c ****   /* sck_clock_hz = */ 1000000UL,	/* since Arduino 1.6.0, the SPI bus speed in Hz. Should be  10000
 188:..\..\u8g2\csrc/u8x8_d_st7920.c ****   /* ST7920+Due work with 1MHz but not with 2MHz, ST7920+Uno works with 2MHz */
 189:..\..\u8g2\csrc/u8x8_d_st7920.c ****   /* spi_mode = */ 3,		/* active high, rising edge, 18 Aug 16: changed from 1 to 3 which works for 
 190:..\..\u8g2\csrc/u8x8_d_st7920.c ****   /* in theory mode 3 should be correct  */
 191:..\..\u8g2\csrc/u8x8_d_st7920.c ****   /* i2c_bus_clock_100kHz = */ 4,
 192:..\..\u8g2\csrc/u8x8_d_st7920.c ****   /* data_setup_time_ns = */ 30,
 193:..\..\u8g2\csrc/u8x8_d_st7920.c ****   /* write_pulse_width_ns = */ 40,
 194:..\..\u8g2\csrc/u8x8_d_st7920.c ****   /* tile_width = */ 16,
 195:..\..\u8g2\csrc/u8x8_d_st7920.c ****   /* tile_hight = */ 8,
 196:..\..\u8g2\csrc/u8x8_d_st7920.c ****   /* default_x_offset = */ 0,
 197:..\..\u8g2\csrc/u8x8_d_st7920.c ****   /* flipmode_x_offset = */ 0,
 198:..\..\u8g2\csrc/u8x8_d_st7920.c ****   /* pixel_width = */ 128,
 199:..\..\u8g2\csrc/u8x8_d_st7920.c ****   /* pixel_height = */ 64
 200:..\..\u8g2\csrc/u8x8_d_st7920.c **** };
 201:..\..\u8g2\csrc/u8x8_d_st7920.c **** 
 202:..\..\u8g2\csrc/u8x8_d_st7920.c **** uint8_t u8x8_d_st7920_192x32(u8x8_t *u8x8, uint8_t msg, uint8_t arg_int, void *arg_ptr)
 203:..\..\u8g2\csrc/u8x8_d_st7920.c **** {
 211              		.loc 1 203 0
 212              		.cfi_startproc
 213              		@ args = 0, pretend = 0, frame = 0
 214              		@ frame_needed = 0, uses_anonymous_args = 0
 215              	.LVL32:
 216 0000 10B5     		push	{r4, lr}
 217              		.cfi_def_cfa_offset 8
 218              		.cfi_offset 4, -8
 219              		.cfi_offset 14, -4
 204:..\..\u8g2\csrc/u8x8_d_st7920.c ****   switch(msg)
 220              		.loc 1 204 0
 221 0002 0929     		cmp	r1, #9
 222 0004 05D1     		bne	.L21
 205:..\..\u8g2\csrc/u8x8_d_st7920.c ****   {
 206:..\..\u8g2\csrc/u8x8_d_st7920.c ****     case U8X8_MSG_DISPLAY_SETUP_MEMORY:
 207:..\..\u8g2\csrc/u8x8_d_st7920.c ****       u8x8_d_helper_display_setup_memory(u8x8, &u8x8_st7920_192x32_display_info);
ARM GAS  C:\Users\Greg\AppData\Local\Temp\ccpnxXfP.s 			page 9


 223              		.loc 1 207 0
 224 0006 0449     		ldr	r1, .L22
 225              	.LVL33:
 226 0008 2431     		adds	r1, r1, #36
 227 000a FFF7FEFF 		bl	u8x8_d_helper_display_setup_memory
 228              	.LVL34:
 208:..\..\u8g2\csrc/u8x8_d_st7920.c ****       break;
 209:..\..\u8g2\csrc/u8x8_d_st7920.c ****     default:
 210:..\..\u8g2\csrc/u8x8_d_st7920.c ****       return u8x8_d_st7920_common(u8x8, msg, arg_int, arg_ptr);
 211:..\..\u8g2\csrc/u8x8_d_st7920.c ****   }
 212:..\..\u8g2\csrc/u8x8_d_st7920.c ****   return 1;
 229              		.loc 1 212 0
 230 000e 0120     		movs	r0, #1
 231 0010 01E0     		b	.L20
 232              	.LVL35:
 233              	.L21:
 210:..\..\u8g2\csrc/u8x8_d_st7920.c ****   }
 234              		.loc 1 210 0
 235 0012 FFF7FEFF 		bl	u8x8_d_st7920_common
 236              	.LVL36:
 237              	.L20:
 213:..\..\u8g2\csrc/u8x8_d_st7920.c **** }
 238              		.loc 1 213 0
 239              		@ sp needed
 240 0016 10BD     		pop	{r4, pc}
 241              	.L23:
 242              		.align	2
 243              	.L22:
 244 0018 00000000 		.word	.LANCHOR0
 245              		.cfi_endproc
 246              	.LFE1:
 247              		.size	u8x8_d_st7920_192x32, .-u8x8_d_st7920_192x32
 248              		.section	.text.u8x8_d_st7920_128x64,"ax",%progbits
 249              		.align	1
 250              		.global	u8x8_d_st7920_128x64
 251              		.code	16
 252              		.thumb_func
 253              		.type	u8x8_d_st7920_128x64, %function
 254              	u8x8_d_st7920_128x64:
 255              	.LFB2:
 214:..\..\u8g2\csrc/u8x8_d_st7920.c **** 
 215:..\..\u8g2\csrc/u8x8_d_st7920.c **** uint8_t u8x8_d_st7920_128x64(u8x8_t *u8x8, uint8_t msg, uint8_t arg_int, void *arg_ptr)
 216:..\..\u8g2\csrc/u8x8_d_st7920.c **** {
 256              		.loc 1 216 0
 257              		.cfi_startproc
 258              		@ args = 0, pretend = 0, frame = 0
 259              		@ frame_needed = 0, uses_anonymous_args = 0
 260              	.LVL37:
 261 0000 10B5     		push	{r4, lr}
 262              		.cfi_def_cfa_offset 8
 263              		.cfi_offset 4, -8
 264              		.cfi_offset 14, -4
 217:..\..\u8g2\csrc/u8x8_d_st7920.c ****   switch(msg)
 265              		.loc 1 217 0
 266 0002 0929     		cmp	r1, #9
 267 0004 05D1     		bne	.L28
 218:..\..\u8g2\csrc/u8x8_d_st7920.c ****   {
ARM GAS  C:\Users\Greg\AppData\Local\Temp\ccpnxXfP.s 			page 10


 219:..\..\u8g2\csrc/u8x8_d_st7920.c ****     case U8X8_MSG_DISPLAY_SETUP_MEMORY:
 220:..\..\u8g2\csrc/u8x8_d_st7920.c ****       u8x8_d_helper_display_setup_memory(u8x8, &u8x8_st7920_128x64_display_info);
 268              		.loc 1 220 0
 269 0006 0449     		ldr	r1, .L29
 270              	.LVL38:
 271 0008 3C31     		adds	r1, r1, #60
 272 000a FFF7FEFF 		bl	u8x8_d_helper_display_setup_memory
 273              	.LVL39:
 221:..\..\u8g2\csrc/u8x8_d_st7920.c ****       break;
 222:..\..\u8g2\csrc/u8x8_d_st7920.c ****     default:
 223:..\..\u8g2\csrc/u8x8_d_st7920.c ****       return u8x8_d_st7920_common(u8x8, msg, arg_int, arg_ptr);
 224:..\..\u8g2\csrc/u8x8_d_st7920.c ****   }
 225:..\..\u8g2\csrc/u8x8_d_st7920.c ****   return 1;
 274              		.loc 1 225 0
 275 000e 0120     		movs	r0, #1
 276 0010 01E0     		b	.L27
 277              	.LVL40:
 278              	.L28:
 223:..\..\u8g2\csrc/u8x8_d_st7920.c ****   }
 279              		.loc 1 223 0
 280 0012 FFF7FEFF 		bl	u8x8_d_st7920_common
 281              	.LVL41:
 282              	.L27:
 226:..\..\u8g2\csrc/u8x8_d_st7920.c **** }
 283              		.loc 1 226 0
 284              		@ sp needed
 285 0016 10BD     		pop	{r4, pc}
 286              	.L30:
 287              		.align	2
 288              	.L29:
 289 0018 00000000 		.word	.LANCHOR0
 290              		.cfi_endproc
 291              	.LFE2:
 292              		.size	u8x8_d_st7920_128x64, .-u8x8_d_st7920_128x64
 293              		.section	.rodata
 294              		.align	2
 295              		.set	.LANCHOR0,. + 0
 296              		.type	u8x8_d_st7920_init_seq, %object
 297              		.size	u8x8_d_st7920_init_seq, 19
 298              	u8x8_d_st7920_init_seq:
 299 0000 FE       		.byte	-2
 300 0001 64       		.byte	100
 301 0002 18       		.byte	24
 302 0003 FE       		.byte	-2
 303 0004 0A       		.byte	10
 304 0005 15       		.byte	21
 305 0006 38       		.byte	56
 306 0007 15       		.byte	21
 307 0008 08       		.byte	8
 308 0009 15       		.byte	21
 309 000a 06       		.byte	6
 310 000b 15       		.byte	21
 311 000c 02       		.byte	2
 312 000d 15       		.byte	21
 313 000e 01       		.byte	1
 314 000f FE       		.byte	-2
 315 0010 04       		.byte	4
ARM GAS  C:\Users\Greg\AppData\Local\Temp\ccpnxXfP.s 			page 11


 316 0011 19       		.byte	25
 317 0012 FF       		.byte	-1
 318              		.type	u8x8_d_st7920_powersave0_seq, %object
 319              		.size	u8x8_d_st7920_powersave0_seq, 7
 320              	u8x8_d_st7920_powersave0_seq:
 321 0013 18       		.byte	24
 322 0014 15       		.byte	21
 323 0015 38       		.byte	56
 324 0016 15       		.byte	21
 325 0017 0C       		.byte	12
 326 0018 19       		.byte	25
 327 0019 FF       		.byte	-1
 328              		.type	u8x8_d_st7920_powersave1_seq, %object
 329              		.size	u8x8_d_st7920_powersave1_seq, 7
 330              	u8x8_d_st7920_powersave1_seq:
 331 001a 18       		.byte	24
 332 001b 15       		.byte	21
 333 001c 38       		.byte	56
 334 001d 15       		.byte	21
 335 001e 08       		.byte	8
 336 001f 19       		.byte	25
 337 0020 FF       		.byte	-1
 338 0021 000000   		.space	3
 339              		.type	u8x8_st7920_192x32_display_info, %object
 340              		.size	u8x8_st7920_192x32_display_info, 24
 341              	u8x8_st7920_192x32_display_info:
 342 0024 01       		.byte	1
 343 0025 00       		.byte	0
 344 0026 05       		.byte	5
 345 0027 05       		.byte	5
 346 0028 01       		.byte	1
 347 0029 06       		.byte	6
 348 002a 14       		.byte	20
 349 002b 8C       		.byte	-116
 350 002c 40420F00 		.word	1000000
 351 0030 03       		.byte	3
 352 0031 04       		.byte	4
 353 0032 1E       		.byte	30
 354 0033 28       		.byte	40
 355 0034 18       		.byte	24
 356 0035 04       		.byte	4
 357 0036 00       		.byte	0
 358 0037 00       		.byte	0
 359 0038 C000     		.short	192
 360 003a 2000     		.short	32
 361              		.type	u8x8_st7920_128x64_display_info, %object
 362              		.size	u8x8_st7920_128x64_display_info, 24
 363              	u8x8_st7920_128x64_display_info:
 364 003c 01       		.byte	1
 365 003d 00       		.byte	0
 366 003e 05       		.byte	5
 367 003f 05       		.byte	5
 368 0040 01       		.byte	1
 369 0041 06       		.byte	6
 370 0042 14       		.byte	20
 371 0043 8C       		.byte	-116
 372 0044 40420F00 		.word	1000000
ARM GAS  C:\Users\Greg\AppData\Local\Temp\ccpnxXfP.s 			page 12


 373 0048 03       		.byte	3
 374 0049 04       		.byte	4
 375 004a 1E       		.byte	30
 376 004b 28       		.byte	40
 377 004c 10       		.byte	16
 378 004d 08       		.byte	8
 379 004e 00       		.byte	0
 380 004f 00       		.byte	0
 381 0050 8000     		.short	128
 382 0052 4000     		.short	64
 383              		.text
 384              	.Letext0:
 385              		.file 2 "c:\\program files\\cypress\\psoc creator\\4.1\\psoc creator\\import\\gnu\\arm\\5.4.1\\arm
 386              		.file 3 "c:\\program files\\cypress\\psoc creator\\4.1\\psoc creator\\import\\gnu\\arm\\5.4.1\\arm
 387              		.file 4 "..\\..\\u8g2\\csrc\\u8x8.h"