ARM GAS  C:\Users\Greg\AppData\Local\Temp\ccaYi9hB.s 			page 1


   1              		.syntax unified
   2              		.cpu cortex-m0
   3              		.fpu softvfp
   4              		.eabi_attribute 20, 1
   5              		.eabi_attribute 21, 1
   6              		.eabi_attribute 23, 3
   7              		.eabi_attribute 24, 1
   8              		.eabi_attribute 25, 1
   9              		.eabi_attribute 26, 1
  10              		.eabi_attribute 30, 4
  11              		.eabi_attribute 34, 0
  12              		.eabi_attribute 18, 4
  13              		.thumb
  14              		.syntax unified
  15              		.file	"u8x8_d_t6963.c"
  16              		.text
  17              	.Ltext0:
  18              		.cfi_sections	.debug_frame
  19              		.section	.text.u8x8_d_t6963_common,"ax",%progbits
  20              		.align	1
  21              		.global	u8x8_d_t6963_common
  22              		.code	16
  23              		.thumb_func
  24              		.type	u8x8_d_t6963_common, %function
  25              	u8x8_d_t6963_common:
  26              	.LFB0:
  27              		.file 1 "..\\..\\u8g2\\csrc\\u8x8_d_t6963.c"
   1:..\..\u8g2\csrc/u8x8_d_t6963.c **** /*
   2:..\..\u8g2\csrc/u8x8_d_t6963.c **** 
   3:..\..\u8g2\csrc/u8x8_d_t6963.c ****   u8x8_d_t6963.c
   4:..\..\u8g2\csrc/u8x8_d_t6963.c ****   
   5:..\..\u8g2\csrc/u8x8_d_t6963.c ****   Universal 8bit Graphics Library (https://github.com/olikraus/u8g2/)
   6:..\..\u8g2\csrc/u8x8_d_t6963.c **** 
   7:..\..\u8g2\csrc/u8x8_d_t6963.c ****   Copyright (c) 2016, olikraus@gmail.com
   8:..\..\u8g2\csrc/u8x8_d_t6963.c ****   All rights reserved.
   9:..\..\u8g2\csrc/u8x8_d_t6963.c **** 
  10:..\..\u8g2\csrc/u8x8_d_t6963.c ****   Redistribution and use in source and binary forms, with or without modification, 
  11:..\..\u8g2\csrc/u8x8_d_t6963.c ****   are permitted provided that the following conditions are met:
  12:..\..\u8g2\csrc/u8x8_d_t6963.c **** 
  13:..\..\u8g2\csrc/u8x8_d_t6963.c ****   * Redistributions of source code must retain the above copyright notice, this list 
  14:..\..\u8g2\csrc/u8x8_d_t6963.c ****     of conditions and the following disclaimer.
  15:..\..\u8g2\csrc/u8x8_d_t6963.c ****     
  16:..\..\u8g2\csrc/u8x8_d_t6963.c ****   * Redistributions in binary form must reproduce the above copyright notice, this 
  17:..\..\u8g2\csrc/u8x8_d_t6963.c ****     list of conditions and the following disclaimer in the documentation and/or other 
  18:..\..\u8g2\csrc/u8x8_d_t6963.c ****     materials provided with the distribution.
  19:..\..\u8g2\csrc/u8x8_d_t6963.c **** 
  20:..\..\u8g2\csrc/u8x8_d_t6963.c ****   THIS SOFTWARE IS PROVIDED BY THE COPYRIGHT HOLDERS AND 
  21:..\..\u8g2\csrc/u8x8_d_t6963.c ****   CONTRIBUTORS "AS IS" AND ANY EXPRESS OR IMPLIED WARRANTIES, 
  22:..\..\u8g2\csrc/u8x8_d_t6963.c ****   INCLUDING, BUT NOT LIMITED TO, THE IMPLIED WARRANTIES OF 
  23:..\..\u8g2\csrc/u8x8_d_t6963.c ****   MERCHANTABILITY AND FITNESS FOR A PARTICULAR PURPOSE ARE 
  24:..\..\u8g2\csrc/u8x8_d_t6963.c ****   DISCLAIMED. IN NO EVENT SHALL THE COPYRIGHT HOLDER OR 
  25:..\..\u8g2\csrc/u8x8_d_t6963.c ****   CONTRIBUTORS BE LIABLE FOR ANY DIRECT, INDIRECT, INCIDENTAL, 
  26:..\..\u8g2\csrc/u8x8_d_t6963.c ****   SPECIAL, EXEMPLARY, OR CONSEQUENTIAL DAMAGES (INCLUDING, BUT 
  27:..\..\u8g2\csrc/u8x8_d_t6963.c ****   NOT LIMITED TO, PROCUREMENT OF SUBSTITUTE GOODS OR SERVICES; 
  28:..\..\u8g2\csrc/u8x8_d_t6963.c ****   LOSS OF USE, DATA, OR PROFITS; OR BUSINESS INTERRUPTION) HOWEVER 
  29:..\..\u8g2\csrc/u8x8_d_t6963.c ****   CAUSED AND ON ANY THEORY OF LIABILITY, WHETHER IN CONTRACT, 
  30:..\..\u8g2\csrc/u8x8_d_t6963.c ****   STRICT LIABILITY, OR TORT (INCLUDING NEGLIGENCE OR OTHERWISE) 
ARM GAS  C:\Users\Greg\AppData\Local\Temp\ccaYi9hB.s 			page 2


  31:..\..\u8g2\csrc/u8x8_d_t6963.c ****   ARISING IN ANY WAY OUT OF THE USE OF THIS SOFTWARE, EVEN IF 
  32:..\..\u8g2\csrc/u8x8_d_t6963.c ****   ADVISED OF THE POSSIBILITY OF SUCH DAMAGE.  
  33:..\..\u8g2\csrc/u8x8_d_t6963.c **** 
  34:..\..\u8g2\csrc/u8x8_d_t6963.c **** 
  35:..\..\u8g2\csrc/u8x8_d_t6963.c ****   The t6963 controller does not support hardware graphics flip.
  36:..\..\u8g2\csrc/u8x8_d_t6963.c ****   Contrast adjustment is done by an external resistor --> no support for contrast adjustment
  37:..\..\u8g2\csrc/u8x8_d_t6963.c ****   
  38:..\..\u8g2\csrc/u8x8_d_t6963.c ****   
  39:..\..\u8g2\csrc/u8x8_d_t6963.c **** */
  40:..\..\u8g2\csrc/u8x8_d_t6963.c **** #include "u8x8.h"
  41:..\..\u8g2\csrc/u8x8_d_t6963.c **** 
  42:..\..\u8g2\csrc/u8x8_d_t6963.c **** 
  43:..\..\u8g2\csrc/u8x8_d_t6963.c **** 
  44:..\..\u8g2\csrc/u8x8_d_t6963.c **** static const uint8_t u8x8_d_t6963_powersave0_seq[] = {
  45:..\..\u8g2\csrc/u8x8_d_t6963.c ****   U8X8_START_TRANSFER(),             	/* enable chip, delay is part of the transfer start */
  46:..\..\u8g2\csrc/u8x8_d_t6963.c ****   U8X8_C(0x098),                            /* mode register: Display Mode, Graphics on, Text off, 
  47:..\..\u8g2\csrc/u8x8_d_t6963.c ****   U8X8_END_TRANSFER(),             	/* disable chip */
  48:..\..\u8g2\csrc/u8x8_d_t6963.c ****   U8X8_END()             			/* end of sequence */
  49:..\..\u8g2\csrc/u8x8_d_t6963.c **** };
  50:..\..\u8g2\csrc/u8x8_d_t6963.c **** 
  51:..\..\u8g2\csrc/u8x8_d_t6963.c **** static const uint8_t u8x8_d_t6963_powersave1_seq[] = {
  52:..\..\u8g2\csrc/u8x8_d_t6963.c ****   U8X8_START_TRANSFER(),             	/* enable chip, delay is part of the transfer start */
  53:..\..\u8g2\csrc/u8x8_d_t6963.c ****   U8X8_C(0x090),                             /* All Off */
  54:..\..\u8g2\csrc/u8x8_d_t6963.c ****   U8X8_END_TRANSFER(),             	/* disable chip */
  55:..\..\u8g2\csrc/u8x8_d_t6963.c ****   U8X8_END()             			/* end of sequence */
  56:..\..\u8g2\csrc/u8x8_d_t6963.c **** };
  57:..\..\u8g2\csrc/u8x8_d_t6963.c **** 
  58:..\..\u8g2\csrc/u8x8_d_t6963.c **** 
  59:..\..\u8g2\csrc/u8x8_d_t6963.c **** uint8_t u8x8_d_t6963_common(u8x8_t *u8x8, uint8_t msg, uint8_t arg_int, void *arg_ptr)
  60:..\..\u8g2\csrc/u8x8_d_t6963.c **** {
  28              		.loc 1 60 0
  29              		.cfi_startproc
  30              		@ args = 0, pretend = 0, frame = 8
  31              		@ frame_needed = 0, uses_anonymous_args = 0
  32              	.LVL0:
  33 0000 F7B5     		push	{r0, r1, r2, r4, r5, r6, r7, lr}
  34              		.cfi_def_cfa_offset 32
  35              		.cfi_offset 0, -32
  36              		.cfi_offset 1, -28
  37              		.cfi_offset 2, -24
  38              		.cfi_offset 4, -20
  39              		.cfi_offset 5, -16
  40              		.cfi_offset 6, -12
  41              		.cfi_offset 7, -8
  42              		.cfi_offset 14, -4
  43              		.loc 1 60 0
  44 0002 0400     		movs	r4, r0
  45 0004 1E00     		movs	r6, r3
  61:..\..\u8g2\csrc/u8x8_d_t6963.c ****   uint8_t c, i;
  62:..\..\u8g2\csrc/u8x8_d_t6963.c ****   uint16_t y;
  63:..\..\u8g2\csrc/u8x8_d_t6963.c ****   uint8_t *ptr;
  64:..\..\u8g2\csrc/u8x8_d_t6963.c ****   switch(msg)
  46              		.loc 1 64 0
  47 0006 0B29     		cmp	r1, #11
  48 0008 0ED0     		beq	.L3
  49 000a 0F29     		cmp	r1, #15
  50 000c 3BD1     		bne	.L13
ARM GAS  C:\Users\Greg\AppData\Local\Temp\ccaYi9hB.s 			page 3


  51              	.LVL1:
  52 000e 0368     		ldr	r3, [r0]
  53              	.LVL2:
  54 0010 B579     		ldrb	r5, [r6, #6]
  55 0012 1B7C     		ldrb	r3, [r3, #16]
  56 0014 5D43     		muls	r5, r3
  57              	.LBB4:
  58              	.LBB5:
  65:..\..\u8g2\csrc/u8x8_d_t6963.c ****   {
  66:..\..\u8g2\csrc/u8x8_d_t6963.c ****     /* U8X8_MSG_DISPLAY_SETUP_MEMORY is handled by the calling function */
  67:..\..\u8g2\csrc/u8x8_d_t6963.c ****     /*
  68:..\..\u8g2\csrc/u8x8_d_t6963.c ****     case U8X8_MSG_DISPLAY_SETUP_MEMORY:
  69:..\..\u8g2\csrc/u8x8_d_t6963.c ****       break;
  70:..\..\u8g2\csrc/u8x8_d_t6963.c ****     case U8X8_MSG_DISPLAY_INIT:
  71:..\..\u8g2\csrc/u8x8_d_t6963.c ****       break;
  72:..\..\u8g2\csrc/u8x8_d_t6963.c ****     */
  73:..\..\u8g2\csrc/u8x8_d_t6963.c ****     case U8X8_MSG_DISPLAY_SET_POWER_SAVE:
  74:..\..\u8g2\csrc/u8x8_d_t6963.c ****       if ( arg_int == 0 )
  75:..\..\u8g2\csrc/u8x8_d_t6963.c **** 	u8x8_cad_SendSequence(u8x8, u8x8_d_t6963_powersave0_seq);
  76:..\..\u8g2\csrc/u8x8_d_t6963.c ****       else
  77:..\..\u8g2\csrc/u8x8_d_t6963.c **** 	u8x8_cad_SendSequence(u8x8, u8x8_d_t6963_powersave1_seq);
  78:..\..\u8g2\csrc/u8x8_d_t6963.c ****       break;
  79:..\..\u8g2\csrc/u8x8_d_t6963.c ****     case U8X8_MSG_DISPLAY_DRAW_TILE:
  80:..\..\u8g2\csrc/u8x8_d_t6963.c ****       y = (((u8x8_tile_t *)arg_ptr)->y_pos);
  81:..\..\u8g2\csrc/u8x8_d_t6963.c ****       y*=8;
  82:..\..\u8g2\csrc/u8x8_d_t6963.c ****       y*= u8x8->display_info->tile_width;
  83:..\..\u8g2\csrc/u8x8_d_t6963.c ****       /* x = ((u8x8_tile_t *)arg_ptr)->x_pos; x is ignored... no u8x8 support */
  84:..\..\u8g2\csrc/u8x8_d_t6963.c ****       //u8x8->gpio_and_delay_cb(u8x8, U8X8_MSG_DELAY_NANO, 200, NULL);	/* extra dely required */
  85:..\..\u8g2\csrc/u8x8_d_t6963.c ****       u8x8_cad_StartTransfer(u8x8);
  59              		.loc 1 85 0
  60 0016 FFF7FEFF 		bl	u8x8_cad_StartTransfer
  61              	.LVL3:
  86:..\..\u8g2\csrc/u8x8_d_t6963.c ****       //u8x8->gpio_and_delay_cb(u8x8, U8X8_MSG_DELAY_NANO, 200, NULL);	/* extra dely required */
  87:..\..\u8g2\csrc/u8x8_d_t6963.c ****       /* 
  88:..\..\u8g2\csrc/u8x8_d_t6963.c **** 	Tile structure is reused here for the t6963, however u8x8 is not supported 
  89:..\..\u8g2\csrc/u8x8_d_t6963.c **** 	tile_ptr points to data which has cnt*8 bytes (same as SSD1306 tiles)
  90:..\..\u8g2\csrc/u8x8_d_t6963.c **** 	Buffer is expected to have 8 lines of code fitting to the t6963 internal memory
  91:..\..\u8g2\csrc/u8x8_d_t6963.c **** 	"cnt" includes the number of horizontal bytes. width is equal to cnt*8
  92:..\..\u8g2\csrc/u8x8_d_t6963.c **** 	
  93:..\..\u8g2\csrc/u8x8_d_t6963.c **** 	TODO: Consider arg_int, however arg_int is not used by u8g2
  94:..\..\u8g2\csrc/u8x8_d_t6963.c ****       */
  95:..\..\u8g2\csrc/u8x8_d_t6963.c ****       c = ((u8x8_tile_t *)arg_ptr)->cnt;	/* number of tiles */
  62              		.loc 1 95 0
  63 001a 3379     		ldrb	r3, [r6, #4]
  82:..\..\u8g2\csrc/u8x8_d_t6963.c ****       /* x = ((u8x8_tile_t *)arg_ptr)->x_pos; x is ignored... no u8x8 support */
  64              		.loc 1 82 0
  65 001c ED00     		lsls	r5, r5, #3
  96:..\..\u8g2\csrc/u8x8_d_t6963.c ****       ptr = ((u8x8_tile_t *)arg_ptr)->tile_ptr;	/* data ptr to the tiles */
  66              		.loc 1 96 0
  67 001e 3768     		ldr	r7, [r6]
  82:..\..\u8g2\csrc/u8x8_d_t6963.c ****       /* x = ((u8x8_tile_t *)arg_ptr)->x_pos; x is ignored... no u8x8 support */
  68              		.loc 1 82 0
  69 0020 ADB2     		uxth	r5, r5
  70              	.LVL4:
  95:..\..\u8g2\csrc/u8x8_d_t6963.c ****       ptr = ((u8x8_tile_t *)arg_ptr)->tile_ptr;	/* data ptr to the tiles */
  71              		.loc 1 95 0
  72 0022 0193     		str	r3, [sp, #4]
ARM GAS  C:\Users\Greg\AppData\Local\Temp\ccaYi9hB.s 			page 4


  73              	.LVL5:
  74              		.loc 1 96 0
  75 0024 0826     		movs	r6, #8
  76              	.LVL6:
  77 0026 07E0     		b	.L6
  78              	.LVL7:
  79              	.L3:
  80 0028 1849     		ldr	r1, .L14
  81              	.LVL8:
  82              	.LBE5:
  83              	.LBE4:
  74:..\..\u8g2\csrc/u8x8_d_t6963.c **** 	u8x8_cad_SendSequence(u8x8, u8x8_d_t6963_powersave0_seq);
  84              		.loc 1 74 0
  85 002a 002A     		cmp	r2, #0
  86 002c 00D0     		beq	.L11
  77:..\..\u8g2\csrc/u8x8_d_t6963.c ****       break;
  87              		.loc 1 77 0
  88 002e 0531     		adds	r1, r1, #5
  89              	.L11:
  90 0030 2000     		movs	r0, r4
  91              	.LVL9:
  92 0032 FFF7FEFF 		bl	u8x8_cad_SendSequence
  93              	.LVL10:
  94 0036 24E0     		b	.L10
  95              	.LVL11:
  96              	.L6:
  97              	.LBB7:
  98              	.LBB6:
  97:..\..\u8g2\csrc/u8x8_d_t6963.c ****       for( i = 0; i < 8; i++ )
  98:..\..\u8g2\csrc/u8x8_d_t6963.c ****       {
  99:..\..\u8g2\csrc/u8x8_d_t6963.c **** 	u8x8_cad_SendArg(u8x8, y&255);
  99              		.loc 1 99 0
 100 0038 E9B2     		uxtb	r1, r5
 101 003a 2000     		movs	r0, r4
 102 003c FFF7FEFF 		bl	u8x8_cad_SendArg
 103              	.LVL12:
 100:..\..\u8g2\csrc/u8x8_d_t6963.c **** 	u8x8_cad_SendArg(u8x8, y>>8);
 104              		.loc 1 100 0
 105 0040 290A     		lsrs	r1, r5, #8
 106 0042 2000     		movs	r0, r4
 107 0044 FFF7FEFF 		bl	u8x8_cad_SendArg
 108              	.LVL13:
 101:..\..\u8g2\csrc/u8x8_d_t6963.c **** 	u8x8_cad_SendCmd(u8x8, 0x024 );	/* set adr */
 109              		.loc 1 101 0
 110 0048 2421     		movs	r1, #36
 111 004a 2000     		movs	r0, r4
 112 004c FFF7FEFF 		bl	u8x8_cad_SendCmd
 113              	.LVL14:
 102:..\..\u8g2\csrc/u8x8_d_t6963.c **** 	u8x8_cad_SendCmd(u8x8, 0x0b0 );	/* auto write start */
 114              		.loc 1 102 0
 115 0050 B021     		movs	r1, #176
 116 0052 2000     		movs	r0, r4
 117 0054 FFF7FEFF 		bl	u8x8_cad_SendCmd
 118              	.LVL15:
 103:..\..\u8g2\csrc/u8x8_d_t6963.c **** 	
 104:..\..\u8g2\csrc/u8x8_d_t6963.c **** 	
 105:..\..\u8g2\csrc/u8x8_d_t6963.c **** 	//c = ((u8x8_tile_t *)arg_ptr)->cnt;	/* number of tiles */
ARM GAS  C:\Users\Greg\AppData\Local\Temp\ccaYi9hB.s 			page 5


 106:..\..\u8g2\csrc/u8x8_d_t6963.c **** 	u8x8_cad_SendData(u8x8, c, ptr);	/* note: SendData can not handle more than 255 bytes, send one li
 119              		.loc 1 106 0
 120 0058 3A00     		movs	r2, r7
 121 005a 0199     		ldr	r1, [sp, #4]
 122 005c 2000     		movs	r0, r4
 123 005e FFF7FEFF 		bl	u8x8_cad_SendData
 124              	.LVL16:
 107:..\..\u8g2\csrc/u8x8_d_t6963.c **** 	
 108:..\..\u8g2\csrc/u8x8_d_t6963.c **** 	u8x8_cad_SendCmd(u8x8, 0x0b2 );	/* auto write reset */
 125              		.loc 1 108 0
 126 0062 B221     		movs	r1, #178
 127 0064 2000     		movs	r0, r4
 128 0066 FFF7FEFF 		bl	u8x8_cad_SendCmd
 129              	.LVL17:
 109:..\..\u8g2\csrc/u8x8_d_t6963.c **** 	ptr += u8x8->display_info->tile_width;
 130              		.loc 1 109 0
 131 006a 2368     		ldr	r3, [r4]
 132 006c 013E     		subs	r6, r6, #1
 133              	.LVL18:
 134 006e 1B7C     		ldrb	r3, [r3, #16]
 135 0070 F6B2     		uxtb	r6, r6
 110:..\..\u8g2\csrc/u8x8_d_t6963.c **** 	y += u8x8->display_info->tile_width;
 136              		.loc 1 110 0
 137 0072 ED18     		adds	r5, r5, r3
 138              	.LVL19:
 109:..\..\u8g2\csrc/u8x8_d_t6963.c **** 	ptr += u8x8->display_info->tile_width;
 139              		.loc 1 109 0
 140 0074 FF18     		adds	r7, r7, r3
 141              	.LVL20:
 142              		.loc 1 110 0
 143 0076 ADB2     		uxth	r5, r5
 144              	.LVL21:
  97:..\..\u8g2\csrc/u8x8_d_t6963.c ****       {
 145              		.loc 1 97 0
 146 0078 002E     		cmp	r6, #0
 147 007a DDD1     		bne	.L6
 111:..\..\u8g2\csrc/u8x8_d_t6963.c ****       }
 112:..\..\u8g2\csrc/u8x8_d_t6963.c **** 
 113:..\..\u8g2\csrc/u8x8_d_t6963.c ****       u8x8_cad_EndTransfer(u8x8);
 148              		.loc 1 113 0
 149 007c 2000     		movs	r0, r4
 150 007e FFF7FEFF 		bl	u8x8_cad_EndTransfer
 151              	.LVL22:
 152              	.L10:
 153 0082 0120     		movs	r0, #1
 154 0084 00E0     		b	.L2
 155              	.LVL23:
 156              	.L13:
 157              	.LBE6:
 158              	.LBE7:
 114:..\..\u8g2\csrc/u8x8_d_t6963.c ****       //u8x8->gpio_and_delay_cb(u8x8, U8X8_MSG_DELAY_NANO, 200, NULL);	/* extra dely required */
 115:..\..\u8g2\csrc/u8x8_d_t6963.c **** 
 116:..\..\u8g2\csrc/u8x8_d_t6963.c ****       break;
 117:..\..\u8g2\csrc/u8x8_d_t6963.c ****     default:
 118:..\..\u8g2\csrc/u8x8_d_t6963.c ****       return 0;
 159              		.loc 1 118 0
 160 0086 0020     		movs	r0, #0
ARM GAS  C:\Users\Greg\AppData\Local\Temp\ccaYi9hB.s 			page 6


 161              	.LVL24:
 162              	.L2:
 119:..\..\u8g2\csrc/u8x8_d_t6963.c ****   }
 120:..\..\u8g2\csrc/u8x8_d_t6963.c ****   return 1;
 121:..\..\u8g2\csrc/u8x8_d_t6963.c **** }
 163              		.loc 1 121 0
 164              		@ sp needed
 165              	.LVL25:
 166 0088 FEBD     		pop	{r1, r2, r3, r4, r5, r6, r7, pc}
 167              	.L15:
 168 008a C046     		.align	2
 169              	.L14:
 170 008c 00000000 		.word	.LANCHOR0
 171              		.cfi_endproc
 172              	.LFE0:
 173              		.size	u8x8_d_t6963_common, .-u8x8_d_t6963_common
 174              		.section	.text.u8x8_d_t6963_240x128,"ax",%progbits
 175              		.align	1
 176              		.global	u8x8_d_t6963_240x128
 177              		.code	16
 178              		.thumb_func
 179              		.type	u8x8_d_t6963_240x128, %function
 180              	u8x8_d_t6963_240x128:
 181              	.LFB1:
 122:..\..\u8g2\csrc/u8x8_d_t6963.c **** 
 123:..\..\u8g2\csrc/u8x8_d_t6963.c **** /*=============================================*/
 124:..\..\u8g2\csrc/u8x8_d_t6963.c **** 
 125:..\..\u8g2\csrc/u8x8_d_t6963.c **** 
 126:..\..\u8g2\csrc/u8x8_d_t6963.c **** static const u8x8_display_info_t u8x8_t6963_240x128_display_info =
 127:..\..\u8g2\csrc/u8x8_d_t6963.c **** {
 128:..\..\u8g2\csrc/u8x8_d_t6963.c ****   /* chip_enable_level = */ 0,
 129:..\..\u8g2\csrc/u8x8_d_t6963.c ****   /* chip_disable_level = */ 1,
 130:..\..\u8g2\csrc/u8x8_d_t6963.c ****   
 131:..\..\u8g2\csrc/u8x8_d_t6963.c ****   /* post_chip_enable_wait_ns = */ 110,	/* T6963 Datasheet p30 */
 132:..\..\u8g2\csrc/u8x8_d_t6963.c ****   /* pre_chip_disable_wait_ns = */ 100,	/* T6963 Datasheet p30 */
 133:..\..\u8g2\csrc/u8x8_d_t6963.c ****   /* reset_pulse_width_ms = */ 1, 
 134:..\..\u8g2\csrc/u8x8_d_t6963.c ****   /* post_reset_wait_ms = */ 6, 
 135:..\..\u8g2\csrc/u8x8_d_t6963.c ****   /* sda_setup_time_ns = */ 20,		
 136:..\..\u8g2\csrc/u8x8_d_t6963.c ****   /* sck_pulse_width_ns = */  140,	
 137:..\..\u8g2\csrc/u8x8_d_t6963.c ****   /* sck_clock_hz = */ 1000000UL,	/* since Arduino 1.6.0, the SPI bus speed in Hz. Should be  10000
 138:..\..\u8g2\csrc/u8x8_d_t6963.c ****   /* spi_mode = */ 0,		
 139:..\..\u8g2\csrc/u8x8_d_t6963.c ****   /* i2c_bus_clock_100kHz = */ 4,
 140:..\..\u8g2\csrc/u8x8_d_t6963.c ****   /* data_setup_time_ns = */ 80,
 141:..\..\u8g2\csrc/u8x8_d_t6963.c ****   /* write_pulse_width_ns = */ 80,
 142:..\..\u8g2\csrc/u8x8_d_t6963.c ****   /* tile_width = */ 30,
 143:..\..\u8g2\csrc/u8x8_d_t6963.c ****   /* tile_hight = */ 16,
 144:..\..\u8g2\csrc/u8x8_d_t6963.c ****   /* default_x_offset = */ 0,
 145:..\..\u8g2\csrc/u8x8_d_t6963.c ****   /* flipmode_x_offset = */ 0,
 146:..\..\u8g2\csrc/u8x8_d_t6963.c ****   /* pixel_width = */ 240,
 147:..\..\u8g2\csrc/u8x8_d_t6963.c ****   /* pixel_height = */ 128
 148:..\..\u8g2\csrc/u8x8_d_t6963.c **** };
 149:..\..\u8g2\csrc/u8x8_d_t6963.c **** 
 150:..\..\u8g2\csrc/u8x8_d_t6963.c **** /* 240x128 */
 151:..\..\u8g2\csrc/u8x8_d_t6963.c **** static const uint8_t u8x8_d_t6963_240x128_init_seq[] = {
 152:..\..\u8g2\csrc/u8x8_d_t6963.c ****   U8X8_DLY(100),
 153:..\..\u8g2\csrc/u8x8_d_t6963.c ****   U8X8_START_TRANSFER(),             	/* enable chip, delay is part of the transfer start */
 154:..\..\u8g2\csrc/u8x8_d_t6963.c ****   U8X8_DLY(100),
ARM GAS  C:\Users\Greg\AppData\Local\Temp\ccaYi9hB.s 			page 7


 155:..\..\u8g2\csrc/u8x8_d_t6963.c ****   
 156:..\..\u8g2\csrc/u8x8_d_t6963.c ****   U8X8_AAC(0x00,0x00,0x021),	/* low, high, set cursor pos */
 157:..\..\u8g2\csrc/u8x8_d_t6963.c ****   U8X8_AAC(0x00,0x00,0x022),	/* low, high, set offset */
 158:..\..\u8g2\csrc/u8x8_d_t6963.c ****   U8X8_AAC(0x00,0x00,0x040),	/* low, high, set text home */
 159:..\..\u8g2\csrc/u8x8_d_t6963.c ****   U8X8_AAC(240/8,0x00,0x041),	/* low, high, set text columns */
 160:..\..\u8g2\csrc/u8x8_d_t6963.c ****   U8X8_AAC(0x00,0x00,0x042),	/* low, high, graphics home */  
 161:..\..\u8g2\csrc/u8x8_d_t6963.c ****   U8X8_AAC(240/8,0x00,0x043),	/* low, high, graphics columns */
 162:..\..\u8g2\csrc/u8x8_d_t6963.c ****   U8X8_DLY(2),					/* delay 2ms */
 163:..\..\u8g2\csrc/u8x8_d_t6963.c ****   // mode set
 164:..\..\u8g2\csrc/u8x8_d_t6963.c ****   // 0x080: Internal CG, OR Mode
 165:..\..\u8g2\csrc/u8x8_d_t6963.c ****   // 0x081: Internal CG, EXOR Mode
 166:..\..\u8g2\csrc/u8x8_d_t6963.c ****   // 0x083: Internal CG, AND Mode
 167:..\..\u8g2\csrc/u8x8_d_t6963.c ****   // 0x088: External CG, OR Mode
 168:..\..\u8g2\csrc/u8x8_d_t6963.c ****   // 0x089: External CG, EXOR Mode
 169:..\..\u8g2\csrc/u8x8_d_t6963.c ****   // 0x08B: External CG, AND Mode
 170:..\..\u8g2\csrc/u8x8_d_t6963.c ****   U8X8_C(0x080),            			/* mode register: OR Mode, Internal Character Mode */
 171:..\..\u8g2\csrc/u8x8_d_t6963.c ****   // display mode
 172:..\..\u8g2\csrc/u8x8_d_t6963.c ****   // 0x090: Display off
 173:..\..\u8g2\csrc/u8x8_d_t6963.c ****   // 0x094: Graphic off, text on, cursor off, blink off
 174:..\..\u8g2\csrc/u8x8_d_t6963.c ****   // 0x096: Graphic off, text on, cursor on, blink off
 175:..\..\u8g2\csrc/u8x8_d_t6963.c ****   // 0x097: Graphic off, text on, cursor on, blink on
 176:..\..\u8g2\csrc/u8x8_d_t6963.c ****   // 0x098: Graphic on, text off, cursor off, blink off
 177:..\..\u8g2\csrc/u8x8_d_t6963.c ****   // 0x09a: Graphic on, text off, cursor on, blink off
 178:..\..\u8g2\csrc/u8x8_d_t6963.c ****   // ...
 179:..\..\u8g2\csrc/u8x8_d_t6963.c ****   // 0x09c: Graphic on, text on, cursor off, blink off
 180:..\..\u8g2\csrc/u8x8_d_t6963.c ****   // 0x09f: Graphic on, text on, cursor on, blink on
 181:..\..\u8g2\csrc/u8x8_d_t6963.c ****   U8X8_C(0x090),                             /* All Off */
 182:..\..\u8g2\csrc/u8x8_d_t6963.c ****   U8X8_AAC(0x00,0x00,0x024),	/* low, high, set adr pointer */
 183:..\..\u8g2\csrc/u8x8_d_t6963.c ****   
 184:..\..\u8g2\csrc/u8x8_d_t6963.c ****   U8X8_DLY(100),
 185:..\..\u8g2\csrc/u8x8_d_t6963.c ****   U8X8_END_TRANSFER(),             	/* disable chip */
 186:..\..\u8g2\csrc/u8x8_d_t6963.c ****   U8X8_DLY(100),
 187:..\..\u8g2\csrc/u8x8_d_t6963.c **** };
 188:..\..\u8g2\csrc/u8x8_d_t6963.c **** 
 189:..\..\u8g2\csrc/u8x8_d_t6963.c **** uint8_t u8x8_d_t6963_240x128(u8x8_t *u8x8, uint8_t msg, uint8_t arg_int, void *arg_ptr)
 190:..\..\u8g2\csrc/u8x8_d_t6963.c **** {
 182              		.loc 1 190 0
 183              		.cfi_startproc
 184              		@ args = 0, pretend = 0, frame = 0
 185              		@ frame_needed = 0, uses_anonymous_args = 0
 186              	.LVL26:
 187 0000 10B5     		push	{r4, lr}
 188              		.cfi_def_cfa_offset 8
 189              		.cfi_offset 4, -8
 190              		.cfi_offset 14, -4
 191              		.loc 1 190 0
 192 0002 0400     		movs	r4, r0
 191:..\..\u8g2\csrc/u8x8_d_t6963.c ****   switch(msg)
 193              		.loc 1 191 0
 194 0004 0929     		cmp	r1, #9
 195 0006 09D0     		beq	.L18
 196 0008 0A29     		cmp	r1, #10
 197 000a 0DD1     		bne	.L23
 192:..\..\u8g2\csrc/u8x8_d_t6963.c ****   {
 193:..\..\u8g2\csrc/u8x8_d_t6963.c ****     case U8X8_MSG_DISPLAY_SETUP_MEMORY:
 194:..\..\u8g2\csrc/u8x8_d_t6963.c ****       u8x8_d_helper_display_setup_memory(u8x8, &u8x8_t6963_240x128_display_info);
 195:..\..\u8g2\csrc/u8x8_d_t6963.c ****       break;
ARM GAS  C:\Users\Greg\AppData\Local\Temp\ccaYi9hB.s 			page 8


 196:..\..\u8g2\csrc/u8x8_d_t6963.c ****     case U8X8_MSG_DISPLAY_INIT:
 197:..\..\u8g2\csrc/u8x8_d_t6963.c ****       u8x8_d_helper_display_init(u8x8);
 198              		.loc 1 197 0
 199 000c FFF7FEFF 		bl	u8x8_d_helper_display_init
 200              	.LVL27:
 198:..\..\u8g2\csrc/u8x8_d_t6963.c ****       u8x8_cad_SendSequence(u8x8, u8x8_d_t6963_240x128_init_seq);
 201              		.loc 1 198 0
 202 0010 0749     		ldr	r1, .L24
 203 0012 2000     		movs	r0, r4
 204 0014 2431     		adds	r1, r1, #36
 205 0016 FFF7FEFF 		bl	u8x8_cad_SendSequence
 206              	.LVL28:
 207 001a 03E0     		b	.L22
 208              	.LVL29:
 209              	.L18:
 194:..\..\u8g2\csrc/u8x8_d_t6963.c ****       break;
 210              		.loc 1 194 0
 211 001c 0449     		ldr	r1, .L24
 212              	.LVL30:
 213 001e 0C31     		adds	r1, r1, #12
 214 0020 FFF7FEFF 		bl	u8x8_d_helper_display_setup_memory
 215              	.LVL31:
 216              	.L22:
 199:..\..\u8g2\csrc/u8x8_d_t6963.c ****       break;
 200:..\..\u8g2\csrc/u8x8_d_t6963.c ****     default:
 201:..\..\u8g2\csrc/u8x8_d_t6963.c ****       return u8x8_d_t6963_common(u8x8, msg, arg_int, arg_ptr);
 202:..\..\u8g2\csrc/u8x8_d_t6963.c ****   }
 203:..\..\u8g2\csrc/u8x8_d_t6963.c ****   return 1;
 217              		.loc 1 203 0
 218 0024 0120     		movs	r0, #1
 199:..\..\u8g2\csrc/u8x8_d_t6963.c ****       break;
 219              		.loc 1 199 0
 220 0026 01E0     		b	.L20
 221              	.LVL32:
 222              	.L23:
 201:..\..\u8g2\csrc/u8x8_d_t6963.c ****   }
 223              		.loc 1 201 0
 224 0028 FFF7FEFF 		bl	u8x8_d_t6963_common
 225              	.LVL33:
 226              	.L20:
 204:..\..\u8g2\csrc/u8x8_d_t6963.c **** }
 227              		.loc 1 204 0
 228              		@ sp needed
 229              	.LVL34:
 230 002c 10BD     		pop	{r4, pc}
 231              	.L25:
 232 002e C046     		.align	2
 233              	.L24:
 234 0030 00000000 		.word	.LANCHOR0
 235              		.cfi_endproc
 236              	.LFE1:
 237              		.size	u8x8_d_t6963_240x128, .-u8x8_d_t6963_240x128
 238              		.section	.text.u8x8_d_t6963_240x64,"ax",%progbits
 239              		.align	1
 240              		.global	u8x8_d_t6963_240x64
 241              		.code	16
 242              		.thumb_func
ARM GAS  C:\Users\Greg\AppData\Local\Temp\ccaYi9hB.s 			page 9


 243              		.type	u8x8_d_t6963_240x64, %function
 244              	u8x8_d_t6963_240x64:
 245              	.LFB2:
 205:..\..\u8g2\csrc/u8x8_d_t6963.c **** 
 206:..\..\u8g2\csrc/u8x8_d_t6963.c **** 
 207:..\..\u8g2\csrc/u8x8_d_t6963.c **** 
 208:..\..\u8g2\csrc/u8x8_d_t6963.c **** /*=============================================*/
 209:..\..\u8g2\csrc/u8x8_d_t6963.c **** 
 210:..\..\u8g2\csrc/u8x8_d_t6963.c **** static const u8x8_display_info_t u8x8_t6963_240x64_display_info =
 211:..\..\u8g2\csrc/u8x8_d_t6963.c **** {
 212:..\..\u8g2\csrc/u8x8_d_t6963.c ****   /* chip_enable_level = */ 0,
 213:..\..\u8g2\csrc/u8x8_d_t6963.c ****   /* chip_disable_level = */ 1,
 214:..\..\u8g2\csrc/u8x8_d_t6963.c ****   
 215:..\..\u8g2\csrc/u8x8_d_t6963.c ****   /* post_chip_enable_wait_ns = */ 110,	/* T6963 Datasheet p30 */
 216:..\..\u8g2\csrc/u8x8_d_t6963.c ****   /* pre_chip_disable_wait_ns = */ 100,	/* T6963 Datasheet p30 */
 217:..\..\u8g2\csrc/u8x8_d_t6963.c ****   /* reset_pulse_width_ms = */ 1, 
 218:..\..\u8g2\csrc/u8x8_d_t6963.c ****   /* post_reset_wait_ms = */ 6, 
 219:..\..\u8g2\csrc/u8x8_d_t6963.c ****   /* sda_setup_time_ns = */ 20,		
 220:..\..\u8g2\csrc/u8x8_d_t6963.c ****   /* sck_pulse_width_ns = */  140,	
 221:..\..\u8g2\csrc/u8x8_d_t6963.c ****   /* sck_clock_hz = */ 1000000UL,	/* since Arduino 1.6.0, the SPI bus speed in Hz. Should be  10000
 222:..\..\u8g2\csrc/u8x8_d_t6963.c ****   /* spi_mode = */ 0,		
 223:..\..\u8g2\csrc/u8x8_d_t6963.c ****   /* i2c_bus_clock_100kHz = */ 4,
 224:..\..\u8g2\csrc/u8x8_d_t6963.c ****   /* data_setup_time_ns = */ 80,
 225:..\..\u8g2\csrc/u8x8_d_t6963.c ****   /* write_pulse_width_ns = */ 80,
 226:..\..\u8g2\csrc/u8x8_d_t6963.c ****   /* tile_width = */ 30,
 227:..\..\u8g2\csrc/u8x8_d_t6963.c ****   /* tile_hight = */ 8,
 228:..\..\u8g2\csrc/u8x8_d_t6963.c ****   /* default_x_offset = */ 0,
 229:..\..\u8g2\csrc/u8x8_d_t6963.c ****   /* flipmode_x_offset = */ 0,
 230:..\..\u8g2\csrc/u8x8_d_t6963.c ****   /* pixel_width = */ 240,
 231:..\..\u8g2\csrc/u8x8_d_t6963.c ****   /* pixel_height = */ 64
 232:..\..\u8g2\csrc/u8x8_d_t6963.c **** };
 233:..\..\u8g2\csrc/u8x8_d_t6963.c **** 
 234:..\..\u8g2\csrc/u8x8_d_t6963.c **** 
 235:..\..\u8g2\csrc/u8x8_d_t6963.c **** /* 240x64 */
 236:..\..\u8g2\csrc/u8x8_d_t6963.c **** static const uint8_t u8x8_d_t6963_240x64_init_seq[] = {
 237:..\..\u8g2\csrc/u8x8_d_t6963.c ****   U8X8_DLY(100),
 238:..\..\u8g2\csrc/u8x8_d_t6963.c ****   U8X8_START_TRANSFER(),             	/* enable chip, delay is part of the transfer start */
 239:..\..\u8g2\csrc/u8x8_d_t6963.c ****   U8X8_DLY(100),
 240:..\..\u8g2\csrc/u8x8_d_t6963.c ****   
 241:..\..\u8g2\csrc/u8x8_d_t6963.c ****   U8X8_AAC(0x00,0x00,0x021),	/* low, high, set cursor pos */
 242:..\..\u8g2\csrc/u8x8_d_t6963.c ****   U8X8_AAC(0x00,0x00,0x022),	/* low, high, set offset */
 243:..\..\u8g2\csrc/u8x8_d_t6963.c ****   U8X8_AAC(0x00,0x00,0x040),	/* low, high, set text home */
 244:..\..\u8g2\csrc/u8x8_d_t6963.c ****   U8X8_AAC(240/8,0x00,0x041),	/* low, high, set text columns */
 245:..\..\u8g2\csrc/u8x8_d_t6963.c ****   U8X8_AAC(0x00,0x00,0x042),	/* low, high, graphics home */  
 246:..\..\u8g2\csrc/u8x8_d_t6963.c ****   U8X8_AAC(240/8,0x00,0x043),	/* low, high, graphics columns */
 247:..\..\u8g2\csrc/u8x8_d_t6963.c ****   U8X8_DLY(2),					/* delay 2ms */
 248:..\..\u8g2\csrc/u8x8_d_t6963.c ****   // mode set
 249:..\..\u8g2\csrc/u8x8_d_t6963.c ****   // 0x080: Internal CG, OR Mode
 250:..\..\u8g2\csrc/u8x8_d_t6963.c ****   // 0x081: Internal CG, EXOR Mode
 251:..\..\u8g2\csrc/u8x8_d_t6963.c ****   // 0x083: Internal CG, AND Mode
 252:..\..\u8g2\csrc/u8x8_d_t6963.c ****   // 0x088: External CG, OR Mode
 253:..\..\u8g2\csrc/u8x8_d_t6963.c ****   // 0x089: External CG, EXOR Mode
 254:..\..\u8g2\csrc/u8x8_d_t6963.c ****   // 0x08B: External CG, AND Mode
 255:..\..\u8g2\csrc/u8x8_d_t6963.c ****   U8X8_C(0x080),            			/* mode register: OR Mode, Internal Character Mode */
 256:..\..\u8g2\csrc/u8x8_d_t6963.c ****   // display mode
 257:..\..\u8g2\csrc/u8x8_d_t6963.c ****   // 0x090: Display off
 258:..\..\u8g2\csrc/u8x8_d_t6963.c ****   // 0x094: Graphic off, text on, cursor off, blink off
ARM GAS  C:\Users\Greg\AppData\Local\Temp\ccaYi9hB.s 			page 10


 259:..\..\u8g2\csrc/u8x8_d_t6963.c ****   // 0x096: Graphic off, text on, cursor on, blink off
 260:..\..\u8g2\csrc/u8x8_d_t6963.c ****   // 0x097: Graphic off, text on, cursor on, blink on
 261:..\..\u8g2\csrc/u8x8_d_t6963.c ****   // 0x098: Graphic on, text off, cursor off, blink off
 262:..\..\u8g2\csrc/u8x8_d_t6963.c ****   // 0x09a: Graphic on, text off, cursor on, blink off
 263:..\..\u8g2\csrc/u8x8_d_t6963.c ****   // ...
 264:..\..\u8g2\csrc/u8x8_d_t6963.c ****   // 0x09c: Graphic on, text on, cursor off, blink off
 265:..\..\u8g2\csrc/u8x8_d_t6963.c ****   // 0x09f: Graphic on, text on, cursor on, blink on
 266:..\..\u8g2\csrc/u8x8_d_t6963.c ****   U8X8_C(0x090),                             /* All Off */
 267:..\..\u8g2\csrc/u8x8_d_t6963.c ****   U8X8_AAC(0x00,0x00,0x024),	/* low, high, set adr pointer */
 268:..\..\u8g2\csrc/u8x8_d_t6963.c ****   
 269:..\..\u8g2\csrc/u8x8_d_t6963.c ****   U8X8_DLY(100),
 270:..\..\u8g2\csrc/u8x8_d_t6963.c ****   U8X8_END_TRANSFER(),             	/* disable chip */
 271:..\..\u8g2\csrc/u8x8_d_t6963.c ****   U8X8_DLY(100),
 272:..\..\u8g2\csrc/u8x8_d_t6963.c **** };
 273:..\..\u8g2\csrc/u8x8_d_t6963.c **** 
 274:..\..\u8g2\csrc/u8x8_d_t6963.c **** uint8_t u8x8_d_t6963_240x64(u8x8_t *u8x8, uint8_t msg, uint8_t arg_int, void *arg_ptr)
 275:..\..\u8g2\csrc/u8x8_d_t6963.c **** {
 246              		.loc 1 275 0
 247              		.cfi_startproc
 248              		@ args = 0, pretend = 0, frame = 0
 249              		@ frame_needed = 0, uses_anonymous_args = 0
 250              	.LVL35:
 251 0000 10B5     		push	{r4, lr}
 252              		.cfi_def_cfa_offset 8
 253              		.cfi_offset 4, -8
 254              		.cfi_offset 14, -4
 255              		.loc 1 275 0
 256 0002 0400     		movs	r4, r0
 276:..\..\u8g2\csrc/u8x8_d_t6963.c ****   switch(msg)
 257              		.loc 1 276 0
 258 0004 0929     		cmp	r1, #9
 259 0006 09D0     		beq	.L28
 260 0008 0A29     		cmp	r1, #10
 261 000a 0DD1     		bne	.L33
 277:..\..\u8g2\csrc/u8x8_d_t6963.c ****   {
 278:..\..\u8g2\csrc/u8x8_d_t6963.c ****     case U8X8_MSG_DISPLAY_SETUP_MEMORY:
 279:..\..\u8g2\csrc/u8x8_d_t6963.c ****       u8x8_d_helper_display_setup_memory(u8x8, &u8x8_t6963_240x64_display_info);
 280:..\..\u8g2\csrc/u8x8_d_t6963.c ****       break;
 281:..\..\u8g2\csrc/u8x8_d_t6963.c ****     case U8X8_MSG_DISPLAY_INIT:
 282:..\..\u8g2\csrc/u8x8_d_t6963.c ****       u8x8_d_helper_display_init(u8x8);
 262              		.loc 1 282 0
 263 000c FFF7FEFF 		bl	u8x8_d_helper_display_init
 264              	.LVL36:
 283:..\..\u8g2\csrc/u8x8_d_t6963.c ****       u8x8_cad_SendSequence(u8x8, u8x8_d_t6963_240x64_init_seq);
 265              		.loc 1 283 0
 266 0010 0749     		ldr	r1, .L34
 267 0012 2000     		movs	r0, r4
 268 0014 7831     		adds	r1, r1, #120
 269 0016 FFF7FEFF 		bl	u8x8_cad_SendSequence
 270              	.LVL37:
 271 001a 03E0     		b	.L32
 272              	.LVL38:
 273              	.L28:
 279:..\..\u8g2\csrc/u8x8_d_t6963.c ****       break;
 274              		.loc 1 279 0
 275 001c 0449     		ldr	r1, .L34
 276              	.LVL39:
ARM GAS  C:\Users\Greg\AppData\Local\Temp\ccaYi9hB.s 			page 11


 277 001e 6031     		adds	r1, r1, #96
 278 0020 FFF7FEFF 		bl	u8x8_d_helper_display_setup_memory
 279              	.LVL40:
 280              	.L32:
 284:..\..\u8g2\csrc/u8x8_d_t6963.c ****       break;
 285:..\..\u8g2\csrc/u8x8_d_t6963.c ****     default:
 286:..\..\u8g2\csrc/u8x8_d_t6963.c ****       return u8x8_d_t6963_common(u8x8, msg, arg_int, arg_ptr);
 287:..\..\u8g2\csrc/u8x8_d_t6963.c ****   }
 288:..\..\u8g2\csrc/u8x8_d_t6963.c ****   return 1;
 281              		.loc 1 288 0
 282 0024 0120     		movs	r0, #1
 284:..\..\u8g2\csrc/u8x8_d_t6963.c ****       break;
 283              		.loc 1 284 0
 284 0026 01E0     		b	.L30
 285              	.LVL41:
 286              	.L33:
 286:..\..\u8g2\csrc/u8x8_d_t6963.c ****   }
 287              		.loc 1 286 0
 288 0028 FFF7FEFF 		bl	u8x8_d_t6963_common
 289              	.LVL42:
 290              	.L30:
 289:..\..\u8g2\csrc/u8x8_d_t6963.c **** }
 291              		.loc 1 289 0
 292              		@ sp needed
 293              	.LVL43:
 294 002c 10BD     		pop	{r4, pc}
 295              	.L35:
 296 002e C046     		.align	2
 297              	.L34:
 298 0030 00000000 		.word	.LANCHOR0
 299              		.cfi_endproc
 300              	.LFE2:
 301              		.size	u8x8_d_t6963_240x64, .-u8x8_d_t6963_240x64
 302              		.section	.text.u8x8_d_t6963_256x64,"ax",%progbits
 303              		.align	1
 304              		.global	u8x8_d_t6963_256x64
 305              		.code	16
 306              		.thumb_func
 307              		.type	u8x8_d_t6963_256x64, %function
 308              	u8x8_d_t6963_256x64:
 309              	.LFB3:
 290:..\..\u8g2\csrc/u8x8_d_t6963.c **** 
 291:..\..\u8g2\csrc/u8x8_d_t6963.c **** 
 292:..\..\u8g2\csrc/u8x8_d_t6963.c **** 
 293:..\..\u8g2\csrc/u8x8_d_t6963.c **** /*=============================================*/
 294:..\..\u8g2\csrc/u8x8_d_t6963.c **** 
 295:..\..\u8g2\csrc/u8x8_d_t6963.c **** 
 296:..\..\u8g2\csrc/u8x8_d_t6963.c **** 
 297:..\..\u8g2\csrc/u8x8_d_t6963.c **** static const u8x8_display_info_t u8x8_t6963_256x64_display_info =
 298:..\..\u8g2\csrc/u8x8_d_t6963.c **** {
 299:..\..\u8g2\csrc/u8x8_d_t6963.c ****   /* chip_enable_level = */ 0,
 300:..\..\u8g2\csrc/u8x8_d_t6963.c ****   /* chip_disable_level = */ 1,
 301:..\..\u8g2\csrc/u8x8_d_t6963.c ****   
 302:..\..\u8g2\csrc/u8x8_d_t6963.c ****   /* post_chip_enable_wait_ns = */ 110,	/* T6963 Datasheet p30 */
 303:..\..\u8g2\csrc/u8x8_d_t6963.c ****   /* pre_chip_disable_wait_ns = */ 100,	/* T6963 Datasheet p30 */
 304:..\..\u8g2\csrc/u8x8_d_t6963.c ****   /* reset_pulse_width_ms = */ 1, 
 305:..\..\u8g2\csrc/u8x8_d_t6963.c ****   /* post_reset_wait_ms = */ 6, 
ARM GAS  C:\Users\Greg\AppData\Local\Temp\ccaYi9hB.s 			page 12


 306:..\..\u8g2\csrc/u8x8_d_t6963.c ****   /* sda_setup_time_ns = */ 20,		
 307:..\..\u8g2\csrc/u8x8_d_t6963.c ****   /* sck_pulse_width_ns = */  140,	
 308:..\..\u8g2\csrc/u8x8_d_t6963.c ****   /* sck_clock_hz = */ 1000000UL,	/* since Arduino 1.6.0, the SPI bus speed in Hz. Should be  10000
 309:..\..\u8g2\csrc/u8x8_d_t6963.c ****   /* spi_mode = */ 0,		
 310:..\..\u8g2\csrc/u8x8_d_t6963.c ****   /* i2c_bus_clock_100kHz = */ 4,
 311:..\..\u8g2\csrc/u8x8_d_t6963.c ****   /* data_setup_time_ns = */ 80,
 312:..\..\u8g2\csrc/u8x8_d_t6963.c ****   /* write_pulse_width_ns = */ 80,
 313:..\..\u8g2\csrc/u8x8_d_t6963.c ****   /* tile_width = */ 32,
 314:..\..\u8g2\csrc/u8x8_d_t6963.c ****   /* tile_hight = */ 8,
 315:..\..\u8g2\csrc/u8x8_d_t6963.c ****   /* default_x_offset = */ 0,
 316:..\..\u8g2\csrc/u8x8_d_t6963.c ****   /* flipmode_x_offset = */ 0,
 317:..\..\u8g2\csrc/u8x8_d_t6963.c ****   /* pixel_width = */ 256,
 318:..\..\u8g2\csrc/u8x8_d_t6963.c ****   /* pixel_height = */ 64
 319:..\..\u8g2\csrc/u8x8_d_t6963.c **** };
 320:..\..\u8g2\csrc/u8x8_d_t6963.c **** 
 321:..\..\u8g2\csrc/u8x8_d_t6963.c **** /* 256x64 */
 322:..\..\u8g2\csrc/u8x8_d_t6963.c **** static const uint8_t u8x8_d_t6963_256x64_init_seq[] = {
 323:..\..\u8g2\csrc/u8x8_d_t6963.c ****   U8X8_DLY(100),
 324:..\..\u8g2\csrc/u8x8_d_t6963.c ****   U8X8_START_TRANSFER(),             	/* enable chip, delay is part of the transfer start */
 325:..\..\u8g2\csrc/u8x8_d_t6963.c ****   U8X8_DLY(100),
 326:..\..\u8g2\csrc/u8x8_d_t6963.c ****   
 327:..\..\u8g2\csrc/u8x8_d_t6963.c ****   U8X8_AAC(0x00,0x00,0x021),	/* low, high, set cursor pos */
 328:..\..\u8g2\csrc/u8x8_d_t6963.c ****   U8X8_AAC(0x00,0x00,0x022),	/* low, high, set offset */
 329:..\..\u8g2\csrc/u8x8_d_t6963.c ****   U8X8_AAC(0x00,0x00,0x040),	/* low, high, set text home */
 330:..\..\u8g2\csrc/u8x8_d_t6963.c ****   U8X8_AAC(256/8,0x00,0x041),	/* low, high, set text columns */
 331:..\..\u8g2\csrc/u8x8_d_t6963.c ****   U8X8_AAC(0x00,0x00,0x042),	/* low, high, graphics home */  
 332:..\..\u8g2\csrc/u8x8_d_t6963.c ****   U8X8_AAC(256/8,0x00,0x043),	/* low, high, graphics columns */
 333:..\..\u8g2\csrc/u8x8_d_t6963.c ****   U8X8_DLY(2),					/* delay 2ms */
 334:..\..\u8g2\csrc/u8x8_d_t6963.c ****   // mode set
 335:..\..\u8g2\csrc/u8x8_d_t6963.c ****   // 0x080: Internal CG, OR Mode
 336:..\..\u8g2\csrc/u8x8_d_t6963.c ****   // 0x081: Internal CG, EXOR Mode
 337:..\..\u8g2\csrc/u8x8_d_t6963.c ****   // 0x083: Internal CG, AND Mode
 338:..\..\u8g2\csrc/u8x8_d_t6963.c ****   // 0x088: External CG, OR Mode
 339:..\..\u8g2\csrc/u8x8_d_t6963.c ****   // 0x089: External CG, EXOR Mode
 340:..\..\u8g2\csrc/u8x8_d_t6963.c ****   // 0x08B: External CG, AND Mode
 341:..\..\u8g2\csrc/u8x8_d_t6963.c ****   U8X8_C(0x080),            			/* mode register: OR Mode, Internal Character Mode */
 342:..\..\u8g2\csrc/u8x8_d_t6963.c ****   // display mode
 343:..\..\u8g2\csrc/u8x8_d_t6963.c ****   // 0x090: Display off
 344:..\..\u8g2\csrc/u8x8_d_t6963.c ****   // 0x094: Graphic off, text on, cursor off, blink off
 345:..\..\u8g2\csrc/u8x8_d_t6963.c ****   // 0x096: Graphic off, text on, cursor on, blink off
 346:..\..\u8g2\csrc/u8x8_d_t6963.c ****   // 0x097: Graphic off, text on, cursor on, blink on
 347:..\..\u8g2\csrc/u8x8_d_t6963.c ****   // 0x098: Graphic on, text off, cursor off, blink off
 348:..\..\u8g2\csrc/u8x8_d_t6963.c ****   // 0x09a: Graphic on, text off, cursor on, blink off
 349:..\..\u8g2\csrc/u8x8_d_t6963.c ****   // ...
 350:..\..\u8g2\csrc/u8x8_d_t6963.c ****   // 0x09c: Graphic on, text on, cursor off, blink off
 351:..\..\u8g2\csrc/u8x8_d_t6963.c ****   // 0x09f: Graphic on, text on, cursor on, blink on
 352:..\..\u8g2\csrc/u8x8_d_t6963.c ****   U8X8_C(0x090),                             /* All Off */
 353:..\..\u8g2\csrc/u8x8_d_t6963.c ****   U8X8_AAC(0x00,0x00,0x024),	/* low, high, set adr pointer */
 354:..\..\u8g2\csrc/u8x8_d_t6963.c ****   
 355:..\..\u8g2\csrc/u8x8_d_t6963.c ****   U8X8_DLY(100),
 356:..\..\u8g2\csrc/u8x8_d_t6963.c ****   U8X8_END_TRANSFER(),             	/* disable chip */
 357:..\..\u8g2\csrc/u8x8_d_t6963.c ****   U8X8_DLY(100),
 358:..\..\u8g2\csrc/u8x8_d_t6963.c **** };
 359:..\..\u8g2\csrc/u8x8_d_t6963.c **** 
 360:..\..\u8g2\csrc/u8x8_d_t6963.c **** uint8_t u8x8_d_t6963_256x64(u8x8_t *u8x8, uint8_t msg, uint8_t arg_int, void *arg_ptr)
 361:..\..\u8g2\csrc/u8x8_d_t6963.c **** {
 310              		.loc 1 361 0
ARM GAS  C:\Users\Greg\AppData\Local\Temp\ccaYi9hB.s 			page 13


 311              		.cfi_startproc
 312              		@ args = 0, pretend = 0, frame = 0
 313              		@ frame_needed = 0, uses_anonymous_args = 0
 314              	.LVL44:
 315 0000 10B5     		push	{r4, lr}
 316              		.cfi_def_cfa_offset 8
 317              		.cfi_offset 4, -8
 318              		.cfi_offset 14, -4
 319              		.loc 1 361 0
 320 0002 0400     		movs	r4, r0
 362:..\..\u8g2\csrc/u8x8_d_t6963.c ****   switch(msg)
 321              		.loc 1 362 0
 322 0004 0929     		cmp	r1, #9
 323 0006 09D0     		beq	.L38
 324 0008 0A29     		cmp	r1, #10
 325 000a 0DD1     		bne	.L43
 363:..\..\u8g2\csrc/u8x8_d_t6963.c ****   {
 364:..\..\u8g2\csrc/u8x8_d_t6963.c ****     case U8X8_MSG_DISPLAY_SETUP_MEMORY:
 365:..\..\u8g2\csrc/u8x8_d_t6963.c ****       u8x8_d_helper_display_setup_memory(u8x8, &u8x8_t6963_256x64_display_info);
 366:..\..\u8g2\csrc/u8x8_d_t6963.c ****       break;
 367:..\..\u8g2\csrc/u8x8_d_t6963.c ****     case U8X8_MSG_DISPLAY_INIT:
 368:..\..\u8g2\csrc/u8x8_d_t6963.c ****       u8x8_d_helper_display_init(u8x8);
 326              		.loc 1 368 0
 327 000c FFF7FEFF 		bl	u8x8_d_helper_display_init
 328              	.LVL45:
 369:..\..\u8g2\csrc/u8x8_d_t6963.c ****       u8x8_cad_SendSequence(u8x8, u8x8_d_t6963_256x64_init_seq);
 329              		.loc 1 369 0
 330 0010 0749     		ldr	r1, .L44
 331 0012 2000     		movs	r0, r4
 332 0014 4C31     		adds	r1, r1, #76
 333 0016 FFF7FEFF 		bl	u8x8_cad_SendSequence
 334              	.LVL46:
 335 001a 03E0     		b	.L42
 336              	.LVL47:
 337              	.L38:
 365:..\..\u8g2\csrc/u8x8_d_t6963.c ****       break;
 338              		.loc 1 365 0
 339 001c 0449     		ldr	r1, .L44
 340              	.LVL48:
 341 001e 3431     		adds	r1, r1, #52
 342 0020 FFF7FEFF 		bl	u8x8_d_helper_display_setup_memory
 343              	.LVL49:
 344              	.L42:
 370:..\..\u8g2\csrc/u8x8_d_t6963.c ****       break;
 371:..\..\u8g2\csrc/u8x8_d_t6963.c ****     default:
 372:..\..\u8g2\csrc/u8x8_d_t6963.c ****       return u8x8_d_t6963_common(u8x8, msg, arg_int, arg_ptr);
 373:..\..\u8g2\csrc/u8x8_d_t6963.c ****   }
 374:..\..\u8g2\csrc/u8x8_d_t6963.c ****   return 1;
 345              		.loc 1 374 0
 346 0024 0120     		movs	r0, #1
 370:..\..\u8g2\csrc/u8x8_d_t6963.c ****       break;
 347              		.loc 1 370 0
 348 0026 01E0     		b	.L40
 349              	.LVL50:
 350              	.L43:
 372:..\..\u8g2\csrc/u8x8_d_t6963.c ****   }
 351              		.loc 1 372 0
ARM GAS  C:\Users\Greg\AppData\Local\Temp\ccaYi9hB.s 			page 14


 352 0028 FFF7FEFF 		bl	u8x8_d_t6963_common
 353              	.LVL51:
 354              	.L40:
 375:..\..\u8g2\csrc/u8x8_d_t6963.c **** }
 355              		.loc 1 375 0
 356              		@ sp needed
 357              	.LVL52:
 358 002c 10BD     		pop	{r4, pc}
 359              	.L45:
 360 002e C046     		.align	2
 361              	.L44:
 362 0030 80000000 		.word	.LANCHOR1
 363              		.cfi_endproc
 364              	.LFE3:
 365              		.size	u8x8_d_t6963_256x64, .-u8x8_d_t6963_256x64
 366              		.section	.text.u8x8_d_t6963_128x64,"ax",%progbits
 367              		.align	1
 368              		.global	u8x8_d_t6963_128x64
 369              		.code	16
 370              		.thumb_func
 371              		.type	u8x8_d_t6963_128x64, %function
 372              	u8x8_d_t6963_128x64:
 373              	.LFB4:
 376:..\..\u8g2\csrc/u8x8_d_t6963.c **** 
 377:..\..\u8g2\csrc/u8x8_d_t6963.c **** 
 378:..\..\u8g2\csrc/u8x8_d_t6963.c **** /*=============================================*/
 379:..\..\u8g2\csrc/u8x8_d_t6963.c **** 
 380:..\..\u8g2\csrc/u8x8_d_t6963.c **** static const u8x8_display_info_t u8x8_t6963_128x64_display_info =
 381:..\..\u8g2\csrc/u8x8_d_t6963.c **** {
 382:..\..\u8g2\csrc/u8x8_d_t6963.c ****   /* chip_enable_level = */ 1,
 383:..\..\u8g2\csrc/u8x8_d_t6963.c ****   /* chip_disable_level = */ 0,
 384:..\..\u8g2\csrc/u8x8_d_t6963.c ****   
 385:..\..\u8g2\csrc/u8x8_d_t6963.c ****   /* post_chip_enable_wait_ns = */ 10,	/* T6963 Datasheet p30 */
 386:..\..\u8g2\csrc/u8x8_d_t6963.c ****   /* pre_chip_disable_wait_ns = */ 100,	/* T6963 Datasheet p30 */
 387:..\..\u8g2\csrc/u8x8_d_t6963.c ****   /* reset_pulse_width_ms = */ 1, 
 388:..\..\u8g2\csrc/u8x8_d_t6963.c ****   /* post_reset_wait_ms = */ 6, 
 389:..\..\u8g2\csrc/u8x8_d_t6963.c ****   /* sda_setup_time_ns = */ 20,		
 390:..\..\u8g2\csrc/u8x8_d_t6963.c ****   /* sck_pulse_width_ns = */  140,	
 391:..\..\u8g2\csrc/u8x8_d_t6963.c ****   /* sck_clock_hz = */ 1000000UL,	/* since Arduino 1.6.0, the SPI bus speed in Hz. Should be  10000
 392:..\..\u8g2\csrc/u8x8_d_t6963.c ****   /* spi_mode = */ 0,		
 393:..\..\u8g2\csrc/u8x8_d_t6963.c ****   /* i2c_bus_clock_100kHz = */ 4,
 394:..\..\u8g2\csrc/u8x8_d_t6963.c ****   /* data_setup_time_ns = */ 80,
 395:..\..\u8g2\csrc/u8x8_d_t6963.c ****   /* write_pulse_width_ns = */ 80,
 396:..\..\u8g2\csrc/u8x8_d_t6963.c ****   /* tile_width = */ 16,
 397:..\..\u8g2\csrc/u8x8_d_t6963.c ****   /* tile_hight = */ 8,
 398:..\..\u8g2\csrc/u8x8_d_t6963.c ****   /* default_x_offset = */ 0,
 399:..\..\u8g2\csrc/u8x8_d_t6963.c ****   /* flipmode_x_offset = */ 0,
 400:..\..\u8g2\csrc/u8x8_d_t6963.c ****   /* pixel_width = */ 128,
 401:..\..\u8g2\csrc/u8x8_d_t6963.c ****   /* pixel_height = */ 64
 402:..\..\u8g2\csrc/u8x8_d_t6963.c **** };
 403:..\..\u8g2\csrc/u8x8_d_t6963.c **** 
 404:..\..\u8g2\csrc/u8x8_d_t6963.c **** /* 128x64 */
 405:..\..\u8g2\csrc/u8x8_d_t6963.c **** static const uint8_t u8x8_d_t6963_128x64_init_seq[] = {
 406:..\..\u8g2\csrc/u8x8_d_t6963.c ****   U8X8_DLY(100),
 407:..\..\u8g2\csrc/u8x8_d_t6963.c ****   U8X8_START_TRANSFER(),             	/* enable chip, delay is part of the transfer start */
 408:..\..\u8g2\csrc/u8x8_d_t6963.c ****   U8X8_DLY(100),
 409:..\..\u8g2\csrc/u8x8_d_t6963.c ****   
ARM GAS  C:\Users\Greg\AppData\Local\Temp\ccaYi9hB.s 			page 15


 410:..\..\u8g2\csrc/u8x8_d_t6963.c ****   U8X8_AAC(0x00,0x00,0x021),	/* low, high, set cursor pos */
 411:..\..\u8g2\csrc/u8x8_d_t6963.c ****   U8X8_AAC(0x00,0x00,0x022),	/* low, high, set offset */
 412:..\..\u8g2\csrc/u8x8_d_t6963.c ****   U8X8_AAC(0x00,0x00,0x040),	/* low, high, set text home */
 413:..\..\u8g2\csrc/u8x8_d_t6963.c ****   U8X8_AAC(128/8,0x00,0x041),	/* low, high, set text columns */
 414:..\..\u8g2\csrc/u8x8_d_t6963.c ****   U8X8_AAC(0x00,0x00,0x042),	/* low, high, graphics home */  
 415:..\..\u8g2\csrc/u8x8_d_t6963.c ****   U8X8_AAC(128/8,0x00,0x043),	/* low, high, graphics columns */
 416:..\..\u8g2\csrc/u8x8_d_t6963.c ****   U8X8_DLY(2),					/* delay 2ms */
 417:..\..\u8g2\csrc/u8x8_d_t6963.c ****   // mode set
 418:..\..\u8g2\csrc/u8x8_d_t6963.c ****   // 0x080: Internal CG, OR Mode
 419:..\..\u8g2\csrc/u8x8_d_t6963.c ****   // 0x081: Internal CG, EXOR Mode
 420:..\..\u8g2\csrc/u8x8_d_t6963.c ****   // 0x083: Internal CG, AND Mode
 421:..\..\u8g2\csrc/u8x8_d_t6963.c ****   // 0x088: External CG, OR Mode
 422:..\..\u8g2\csrc/u8x8_d_t6963.c ****   // 0x089: External CG, EXOR Mode
 423:..\..\u8g2\csrc/u8x8_d_t6963.c ****   // 0x08B: External CG, AND Mode
 424:..\..\u8g2\csrc/u8x8_d_t6963.c ****   U8X8_C(0x080),            			/* mode register: OR Mode, Internal Character Mode */
 425:..\..\u8g2\csrc/u8x8_d_t6963.c ****   // display mode
 426:..\..\u8g2\csrc/u8x8_d_t6963.c ****   // 0x090: Display off
 427:..\..\u8g2\csrc/u8x8_d_t6963.c ****   // 0x094: Graphic off, text on, cursor off, blink off
 428:..\..\u8g2\csrc/u8x8_d_t6963.c ****   // 0x096: Graphic off, text on, cursor on, blink off
 429:..\..\u8g2\csrc/u8x8_d_t6963.c ****   // 0x097: Graphic off, text on, cursor on, blink on
 430:..\..\u8g2\csrc/u8x8_d_t6963.c ****   // 0x098: Graphic on, text off, cursor off, blink off
 431:..\..\u8g2\csrc/u8x8_d_t6963.c ****   // 0x09a: Graphic on, text off, cursor on, blink off
 432:..\..\u8g2\csrc/u8x8_d_t6963.c ****   // ...
 433:..\..\u8g2\csrc/u8x8_d_t6963.c ****   // 0x09c: Graphic on, text on, cursor off, blink off
 434:..\..\u8g2\csrc/u8x8_d_t6963.c ****   // 0x09f: Graphic on, text on, cursor on, blink on
 435:..\..\u8g2\csrc/u8x8_d_t6963.c ****   U8X8_C(0x090),                             /* All Off */
 436:..\..\u8g2\csrc/u8x8_d_t6963.c ****   U8X8_AAC(0x00,0x00,0x024),	/* low, high, set adr pointer */
 437:..\..\u8g2\csrc/u8x8_d_t6963.c ****   
 438:..\..\u8g2\csrc/u8x8_d_t6963.c ****   U8X8_DLY(100),
 439:..\..\u8g2\csrc/u8x8_d_t6963.c ****   U8X8_END_TRANSFER(),             	/* disable chip */
 440:..\..\u8g2\csrc/u8x8_d_t6963.c ****   U8X8_DLY(100),
 441:..\..\u8g2\csrc/u8x8_d_t6963.c **** };
 442:..\..\u8g2\csrc/u8x8_d_t6963.c **** 
 443:..\..\u8g2\csrc/u8x8_d_t6963.c **** uint8_t u8x8_d_t6963_128x64(u8x8_t *u8x8, uint8_t msg, uint8_t arg_int, void *arg_ptr)
 444:..\..\u8g2\csrc/u8x8_d_t6963.c **** {
 374              		.loc 1 444 0
 375              		.cfi_startproc
 376              		@ args = 0, pretend = 0, frame = 0
 377              		@ frame_needed = 0, uses_anonymous_args = 0
 378              	.LVL53:
 379 0000 10B5     		push	{r4, lr}
 380              		.cfi_def_cfa_offset 8
 381              		.cfi_offset 4, -8
 382              		.cfi_offset 14, -4
 383              		.loc 1 444 0
 384 0002 0400     		movs	r4, r0
 445:..\..\u8g2\csrc/u8x8_d_t6963.c ****   switch(msg)
 385              		.loc 1 445 0
 386 0004 0929     		cmp	r1, #9
 387 0006 09D0     		beq	.L48
 388 0008 0A29     		cmp	r1, #10
 389 000a 0DD1     		bne	.L53
 446:..\..\u8g2\csrc/u8x8_d_t6963.c ****   {
 447:..\..\u8g2\csrc/u8x8_d_t6963.c ****     case U8X8_MSG_DISPLAY_SETUP_MEMORY:
 448:..\..\u8g2\csrc/u8x8_d_t6963.c ****       u8x8_d_helper_display_setup_memory(u8x8, &u8x8_t6963_128x64_display_info);
 449:..\..\u8g2\csrc/u8x8_d_t6963.c ****       break;
 450:..\..\u8g2\csrc/u8x8_d_t6963.c ****     case U8X8_MSG_DISPLAY_INIT:
ARM GAS  C:\Users\Greg\AppData\Local\Temp\ccaYi9hB.s 			page 16


 451:..\..\u8g2\csrc/u8x8_d_t6963.c ****       u8x8_d_helper_display_init(u8x8);
 390              		.loc 1 451 0
 391 000c FFF7FEFF 		bl	u8x8_d_helper_display_init
 392              	.LVL54:
 452:..\..\u8g2\csrc/u8x8_d_t6963.c ****       u8x8_cad_SendSequence(u8x8, u8x8_d_t6963_128x64_init_seq);
 393              		.loc 1 452 0
 394 0010 0749     		ldr	r1, .L54
 395 0012 2000     		movs	r0, r4
 396 0014 2031     		adds	r1, r1, #32
 397 0016 FFF7FEFF 		bl	u8x8_cad_SendSequence
 398              	.LVL55:
 399 001a 03E0     		b	.L52
 400              	.LVL56:
 401              	.L48:
 448:..\..\u8g2\csrc/u8x8_d_t6963.c ****       break;
 402              		.loc 1 448 0
 403 001c 0449     		ldr	r1, .L54
 404              	.LVL57:
 405 001e 0831     		adds	r1, r1, #8
 406 0020 FFF7FEFF 		bl	u8x8_d_helper_display_setup_memory
 407              	.LVL58:
 408              	.L52:
 453:..\..\u8g2\csrc/u8x8_d_t6963.c ****       break;
 454:..\..\u8g2\csrc/u8x8_d_t6963.c ****     default:
 455:..\..\u8g2\csrc/u8x8_d_t6963.c ****       return u8x8_d_t6963_common(u8x8, msg, arg_int, arg_ptr);
 456:..\..\u8g2\csrc/u8x8_d_t6963.c ****   }
 457:..\..\u8g2\csrc/u8x8_d_t6963.c ****   return 1;
 409              		.loc 1 457 0
 410 0024 0120     		movs	r0, #1
 453:..\..\u8g2\csrc/u8x8_d_t6963.c ****       break;
 411              		.loc 1 453 0
 412 0026 01E0     		b	.L50
 413              	.LVL59:
 414              	.L53:
 455:..\..\u8g2\csrc/u8x8_d_t6963.c ****   }
 415              		.loc 1 455 0
 416 0028 FFF7FEFF 		bl	u8x8_d_t6963_common
 417              	.LVL60:
 418              	.L50:
 458:..\..\u8g2\csrc/u8x8_d_t6963.c **** }
 419              		.loc 1 458 0
 420              		@ sp needed
 421              	.LVL61:
 422 002c 10BD     		pop	{r4, pc}
 423              	.L55:
 424 002e C046     		.align	2
 425              	.L54:
 426 0030 00010000 		.word	.LANCHOR2
 427              		.cfi_endproc
 428              	.LFE4:
 429              		.size	u8x8_d_t6963_128x64, .-u8x8_d_t6963_128x64
 430              		.section	.rodata
 431              		.align	2
 432              		.set	.LANCHOR0,. + 0
 433              		.set	.LANCHOR1,. + 128
 434              		.set	.LANCHOR2,. + 256
 435              		.type	u8x8_d_t6963_powersave0_seq, %object
ARM GAS  C:\Users\Greg\AppData\Local\Temp\ccaYi9hB.s 			page 17


 436              		.size	u8x8_d_t6963_powersave0_seq, 5
 437              	u8x8_d_t6963_powersave0_seq:
 438 0000 18       		.byte	24
 439 0001 15       		.byte	21
 440 0002 98       		.byte	-104
 441 0003 19       		.byte	25
 442 0004 FF       		.byte	-1
 443              		.type	u8x8_d_t6963_powersave1_seq, %object
 444              		.size	u8x8_d_t6963_powersave1_seq, 5
 445              	u8x8_d_t6963_powersave1_seq:
 446 0005 18       		.byte	24
 447 0006 15       		.byte	21
 448 0007 90       		.byte	-112
 449 0008 19       		.byte	25
 450 0009 FF       		.byte	-1
 451 000a 0000     		.space	2
 452              		.type	u8x8_t6963_240x128_display_info, %object
 453              		.size	u8x8_t6963_240x128_display_info, 24
 454              	u8x8_t6963_240x128_display_info:
 455 000c 00       		.byte	0
 456 000d 01       		.byte	1
 457 000e 6E       		.byte	110
 458 000f 64       		.byte	100
 459 0010 01       		.byte	1
 460 0011 06       		.byte	6
 461 0012 14       		.byte	20
 462 0013 8C       		.byte	-116
 463 0014 40420F00 		.word	1000000
 464 0018 00       		.byte	0
 465 0019 04       		.byte	4
 466 001a 50       		.byte	80
 467 001b 50       		.byte	80
 468 001c 1E       		.byte	30
 469 001d 10       		.byte	16
 470 001e 00       		.byte	0
 471 001f 00       		.byte	0
 472 0020 F000     		.short	240
 473 0022 8000     		.short	128
 474              		.type	u8x8_d_t6963_240x128_init_seq, %object
 475              		.size	u8x8_d_t6963_240x128_init_seq, 58
 476              	u8x8_d_t6963_240x128_init_seq:
 477 0024 FE       		.byte	-2
 478 0025 64       		.byte	100
 479 0026 18       		.byte	24
 480 0027 FE       		.byte	-2
 481 0028 64       		.byte	100
 482 0029 16       		.byte	22
 483 002a 00       		.byte	0
 484 002b 16       		.byte	22
 485 002c 00       		.byte	0
 486 002d 15       		.byte	21
 487 002e 21       		.byte	33
 488 002f 16       		.byte	22
 489 0030 00       		.byte	0
 490 0031 16       		.byte	22
 491 0032 00       		.byte	0
 492 0033 15       		.byte	21
ARM GAS  C:\Users\Greg\AppData\Local\Temp\ccaYi9hB.s 			page 18


 493 0034 22       		.byte	34
 494 0035 16       		.byte	22
 495 0036 00       		.byte	0
 496 0037 16       		.byte	22
 497 0038 00       		.byte	0
 498 0039 15       		.byte	21
 499 003a 40       		.byte	64
 500 003b 16       		.byte	22
 501 003c 1E       		.byte	30
 502 003d 16       		.byte	22
 503 003e 00       		.byte	0
 504 003f 15       		.byte	21
 505 0040 41       		.byte	65
 506 0041 16       		.byte	22
 507 0042 00       		.byte	0
 508 0043 16       		.byte	22
 509 0044 00       		.byte	0
 510 0045 15       		.byte	21
 511 0046 42       		.byte	66
 512 0047 16       		.byte	22
 513 0048 1E       		.byte	30
 514 0049 16       		.byte	22
 515 004a 00       		.byte	0
 516 004b 15       		.byte	21
 517 004c 43       		.byte	67
 518 004d FE       		.byte	-2
 519 004e 02       		.byte	2
 520 004f 15       		.byte	21
 521 0050 80       		.byte	-128
 522 0051 15       		.byte	21
 523 0052 90       		.byte	-112
 524 0053 16       		.byte	22
 525 0054 00       		.byte	0
 526 0055 16       		.byte	22
 527 0056 00       		.byte	0
 528 0057 15       		.byte	21
 529 0058 24       		.byte	36
 530 0059 FE       		.byte	-2
 531 005a 64       		.byte	100
 532 005b 19       		.byte	25
 533 005c FE       		.byte	-2
 534 005d 64       		.byte	100
 535 005e 0000     		.space	2
 536              		.type	u8x8_t6963_240x64_display_info, %object
 537              		.size	u8x8_t6963_240x64_display_info, 24
 538              	u8x8_t6963_240x64_display_info:
 539 0060 00       		.byte	0
 540 0061 01       		.byte	1
 541 0062 6E       		.byte	110
 542 0063 64       		.byte	100
 543 0064 01       		.byte	1
 544 0065 06       		.byte	6
 545 0066 14       		.byte	20
 546 0067 8C       		.byte	-116
 547 0068 40420F00 		.word	1000000
 548 006c 00       		.byte	0
 549 006d 04       		.byte	4
ARM GAS  C:\Users\Greg\AppData\Local\Temp\ccaYi9hB.s 			page 19


 550 006e 50       		.byte	80
 551 006f 50       		.byte	80
 552 0070 1E       		.byte	30
 553 0071 08       		.byte	8
 554 0072 00       		.byte	0
 555 0073 00       		.byte	0
 556 0074 F000     		.short	240
 557 0076 4000     		.short	64
 558              		.type	u8x8_d_t6963_240x64_init_seq, %object
 559              		.size	u8x8_d_t6963_240x64_init_seq, 58
 560              	u8x8_d_t6963_240x64_init_seq:
 561 0078 FE       		.byte	-2
 562 0079 64       		.byte	100
 563 007a 18       		.byte	24
 564 007b FE       		.byte	-2
 565 007c 64       		.byte	100
 566 007d 16       		.byte	22
 567 007e 00       		.byte	0
 568 007f 16       		.byte	22
 569 0080 00       		.byte	0
 570 0081 15       		.byte	21
 571 0082 21       		.byte	33
 572 0083 16       		.byte	22
 573 0084 00       		.byte	0
 574 0085 16       		.byte	22
 575 0086 00       		.byte	0
 576 0087 15       		.byte	21
 577 0088 22       		.byte	34
 578 0089 16       		.byte	22
 579 008a 00       		.byte	0
 580 008b 16       		.byte	22
 581 008c 00       		.byte	0
 582 008d 15       		.byte	21
 583 008e 40       		.byte	64
 584 008f 16       		.byte	22
 585 0090 1E       		.byte	30
 586 0091 16       		.byte	22
 587 0092 00       		.byte	0
 588 0093 15       		.byte	21
 589 0094 41       		.byte	65
 590 0095 16       		.byte	22
 591 0096 00       		.byte	0
 592 0097 16       		.byte	22
 593 0098 00       		.byte	0
 594 0099 15       		.byte	21
 595 009a 42       		.byte	66
 596 009b 16       		.byte	22
 597 009c 1E       		.byte	30
 598 009d 16       		.byte	22
 599 009e 00       		.byte	0
 600 009f 15       		.byte	21
 601 00a0 43       		.byte	67
 602 00a1 FE       		.byte	-2
 603 00a2 02       		.byte	2
 604 00a3 15       		.byte	21
 605 00a4 80       		.byte	-128
 606 00a5 15       		.byte	21
ARM GAS  C:\Users\Greg\AppData\Local\Temp\ccaYi9hB.s 			page 20


 607 00a6 90       		.byte	-112
 608 00a7 16       		.byte	22
 609 00a8 00       		.byte	0
 610 00a9 16       		.byte	22
 611 00aa 00       		.byte	0
 612 00ab 15       		.byte	21
 613 00ac 24       		.byte	36
 614 00ad FE       		.byte	-2
 615 00ae 64       		.byte	100
 616 00af 19       		.byte	25
 617 00b0 FE       		.byte	-2
 618 00b1 64       		.byte	100
 619 00b2 0000     		.space	2
 620              		.type	u8x8_t6963_256x64_display_info, %object
 621              		.size	u8x8_t6963_256x64_display_info, 24
 622              	u8x8_t6963_256x64_display_info:
 623 00b4 00       		.byte	0
 624 00b5 01       		.byte	1
 625 00b6 6E       		.byte	110
 626 00b7 64       		.byte	100
 627 00b8 01       		.byte	1
 628 00b9 06       		.byte	6
 629 00ba 14       		.byte	20
 630 00bb 8C       		.byte	-116
 631 00bc 40420F00 		.word	1000000
 632 00c0 00       		.byte	0
 633 00c1 04       		.byte	4
 634 00c2 50       		.byte	80
 635 00c3 50       		.byte	80
 636 00c4 20       		.byte	32
 637 00c5 08       		.byte	8
 638 00c6 00       		.byte	0
 639 00c7 00       		.byte	0
 640 00c8 0001     		.short	256
 641 00ca 4000     		.short	64
 642              		.type	u8x8_d_t6963_256x64_init_seq, %object
 643              		.size	u8x8_d_t6963_256x64_init_seq, 58
 644              	u8x8_d_t6963_256x64_init_seq:
 645 00cc FE       		.byte	-2
 646 00cd 64       		.byte	100
 647 00ce 18       		.byte	24
 648 00cf FE       		.byte	-2
 649 00d0 64       		.byte	100
 650 00d1 16       		.byte	22
 651 00d2 00       		.byte	0
 652 00d3 16       		.byte	22
 653 00d4 00       		.byte	0
 654 00d5 15       		.byte	21
 655 00d6 21       		.byte	33
 656 00d7 16       		.byte	22
 657 00d8 00       		.byte	0
 658 00d9 16       		.byte	22
 659 00da 00       		.byte	0
 660 00db 15       		.byte	21
 661 00dc 22       		.byte	34
 662 00dd 16       		.byte	22
 663 00de 00       		.byte	0
ARM GAS  C:\Users\Greg\AppData\Local\Temp\ccaYi9hB.s 			page 21


 664 00df 16       		.byte	22
 665 00e0 00       		.byte	0
 666 00e1 15       		.byte	21
 667 00e2 40       		.byte	64
 668 00e3 16       		.byte	22
 669 00e4 20       		.byte	32
 670 00e5 16       		.byte	22
 671 00e6 00       		.byte	0
 672 00e7 15       		.byte	21
 673 00e8 41       		.byte	65
 674 00e9 16       		.byte	22
 675 00ea 00       		.byte	0
 676 00eb 16       		.byte	22
 677 00ec 00       		.byte	0
 678 00ed 15       		.byte	21
 679 00ee 42       		.byte	66
 680 00ef 16       		.byte	22
 681 00f0 20       		.byte	32
 682 00f1 16       		.byte	22
 683 00f2 00       		.byte	0
 684 00f3 15       		.byte	21
 685 00f4 43       		.byte	67
 686 00f5 FE       		.byte	-2
 687 00f6 02       		.byte	2
 688 00f7 15       		.byte	21
 689 00f8 80       		.byte	-128
 690 00f9 15       		.byte	21
 691 00fa 90       		.byte	-112
 692 00fb 16       		.byte	22
 693 00fc 00       		.byte	0
 694 00fd 16       		.byte	22
 695 00fe 00       		.byte	0
 696 00ff 15       		.byte	21
 697 0100 24       		.byte	36
 698 0101 FE       		.byte	-2
 699 0102 64       		.byte	100
 700 0103 19       		.byte	25
 701 0104 FE       		.byte	-2
 702 0105 64       		.byte	100
 703 0106 0000     		.space	2
 704              		.type	u8x8_t6963_128x64_display_info, %object
 705              		.size	u8x8_t6963_128x64_display_info, 24
 706              	u8x8_t6963_128x64_display_info:
 707 0108 01       		.byte	1
 708 0109 00       		.byte	0
 709 010a 0A       		.byte	10
 710 010b 64       		.byte	100
 711 010c 01       		.byte	1
 712 010d 06       		.byte	6
 713 010e 14       		.byte	20
 714 010f 8C       		.byte	-116
 715 0110 40420F00 		.word	1000000
 716 0114 00       		.byte	0
 717 0115 04       		.byte	4
 718 0116 50       		.byte	80
 719 0117 50       		.byte	80
 720 0118 10       		.byte	16
ARM GAS  C:\Users\Greg\AppData\Local\Temp\ccaYi9hB.s 			page 22


 721 0119 08       		.byte	8
 722 011a 00       		.byte	0
 723 011b 00       		.byte	0
 724 011c 8000     		.short	128
 725 011e 4000     		.short	64
 726              		.type	u8x8_d_t6963_128x64_init_seq, %object
 727              		.size	u8x8_d_t6963_128x64_init_seq, 58
 728              	u8x8_d_t6963_128x64_init_seq:
 729 0120 FE       		.byte	-2
 730 0121 64       		.byte	100
 731 0122 18       		.byte	24
 732 0123 FE       		.byte	-2
 733 0124 64       		.byte	100
 734 0125 16       		.byte	22
 735 0126 00       		.byte	0
 736 0127 16       		.byte	22
 737 0128 00       		.byte	0
 738 0129 15       		.byte	21
 739 012a 21       		.byte	33
 740 012b 16       		.byte	22
 741 012c 00       		.byte	0
 742 012d 16       		.byte	22
 743 012e 00       		.byte	0
 744 012f 15       		.byte	21
 745 0130 22       		.byte	34
 746 0131 16       		.byte	22
 747 0132 00       		.byte	0
 748 0133 16       		.byte	22
 749 0134 00       		.byte	0
 750 0135 15       		.byte	21
 751 0136 40       		.byte	64
 752 0137 16       		.byte	22
 753 0138 10       		.byte	16
 754 0139 16       		.byte	22
 755 013a 00       		.byte	0
 756 013b 15       		.byte	21
 757 013c 41       		.byte	65
 758 013d 16       		.byte	22
 759 013e 00       		.byte	0
 760 013f 16       		.byte	22
 761 0140 00       		.byte	0
 762 0141 15       		.byte	21
 763 0142 42       		.byte	66
 764 0143 16       		.byte	22
 765 0144 10       		.byte	16
 766 0145 16       		.byte	22
 767 0146 00       		.byte	0
 768 0147 15       		.byte	21
 769 0148 43       		.byte	67
 770 0149 FE       		.byte	-2
 771 014a 02       		.byte	2
 772 014b 15       		.byte	21
 773 014c 80       		.byte	-128
 774 014d 15       		.byte	21
 775 014e 90       		.byte	-112
 776 014f 16       		.byte	22
 777 0150 00       		.byte	0
ARM GAS  C:\Users\Greg\AppData\Local\Temp\ccaYi9hB.s 			page 23


 778 0151 16       		.byte	22
 779 0152 00       		.byte	0
 780 0153 15       		.byte	21
 781 0154 24       		.byte	36
 782 0155 FE       		.byte	-2
 783 0156 64       		.byte	100
 784 0157 19       		.byte	25
 785 0158 FE       		.byte	-2
 786 0159 64       		.byte	100
 787              		.text
 788              	.Letext0:
 789              		.file 2 "c:\\program files\\cypress\\psoc creator\\4.1\\psoc creator\\import\\gnu\\arm\\5.4.1\\arm
 790              		.file 3 "c:\\program files\\cypress\\psoc creator\\4.1\\psoc creator\\import\\gnu\\arm\\5.4.1\\arm
 791              		.file 4 "..\\..\\u8g2\\csrc\\u8x8.h"