ARM GAS  C:\Users\Greg\AppData\Local\Temp\ccxpn3le.s 			page 1


   1              		.syntax unified
   2              		.cpu cortex-m0
   3              		.fpu softvfp
   4              		.eabi_attribute 20, 1
   5              		.eabi_attribute 21, 1
   6              		.eabi_attribute 23, 3
   7              		.eabi_attribute 24, 1
   8              		.eabi_attribute 25, 1
   9              		.eabi_attribute 26, 1
  10              		.eabi_attribute 30, 4
  11              		.eabi_attribute 34, 0
  12              		.eabi_attribute 18, 4
  13              		.thumb
  14              		.syntax unified
  15              		.file	"u8x8_d_ld7032_60x32.c"
  16              		.text
  17              	.Ltext0:
  18              		.cfi_sections	.debug_frame
  19              		.section	.text.u8x8_d_ld7032_60x32,"ax",%progbits
  20              		.align	1
  21              		.global	u8x8_d_ld7032_60x32
  22              		.code	16
  23              		.thumb_func
  24              		.type	u8x8_d_ld7032_60x32, %function
  25              	u8x8_d_ld7032_60x32:
  26              	.LFB1:
  27              		.file 1 "..\\..\\u8g2\\csrc\\u8x8_d_ld7032_60x32.c"
   1:..\..\u8g2\csrc/u8x8_d_ld7032_60x32.c **** /*
   2:..\..\u8g2\csrc/u8x8_d_ld7032_60x32.c **** 
   3:..\..\u8g2\csrc/u8x8_d_ld7032_60x32.c ****   u8x8_d_ld7032_60x32.c
   4:..\..\u8g2\csrc/u8x8_d_ld7032_60x32.c ****   Note: Flip Mode is NOT supported
   5:..\..\u8g2\csrc/u8x8_d_ld7032_60x32.c **** 
   6:..\..\u8g2\csrc/u8x8_d_ld7032_60x32.c ****   Universal 8bit Graphics Library (https://github.com/olikraus/u8g2/)
   7:..\..\u8g2\csrc/u8x8_d_ld7032_60x32.c **** 
   8:..\..\u8g2\csrc/u8x8_d_ld7032_60x32.c ****   Copyright (c) 2016, olikraus@gmail.com
   9:..\..\u8g2\csrc/u8x8_d_ld7032_60x32.c ****   All rights reserved.
  10:..\..\u8g2\csrc/u8x8_d_ld7032_60x32.c **** 
  11:..\..\u8g2\csrc/u8x8_d_ld7032_60x32.c ****   Redistribution and use in source and binary forms, with or without modification, 
  12:..\..\u8g2\csrc/u8x8_d_ld7032_60x32.c ****   are permitted provided that the following conditions are met:
  13:..\..\u8g2\csrc/u8x8_d_ld7032_60x32.c **** 
  14:..\..\u8g2\csrc/u8x8_d_ld7032_60x32.c ****   * Redistributions of source code must retain the above copyright notice, this list 
  15:..\..\u8g2\csrc/u8x8_d_ld7032_60x32.c ****     of conditions and the following disclaimer.
  16:..\..\u8g2\csrc/u8x8_d_ld7032_60x32.c ****     
  17:..\..\u8g2\csrc/u8x8_d_ld7032_60x32.c ****   * Redistributions in binary form must reproduce the above copyright notice, this 
  18:..\..\u8g2\csrc/u8x8_d_ld7032_60x32.c ****     list of conditions and the following disclaimer in the documentation and/or other 
  19:..\..\u8g2\csrc/u8x8_d_ld7032_60x32.c ****     materials provided with the distribution.
  20:..\..\u8g2\csrc/u8x8_d_ld7032_60x32.c **** 
  21:..\..\u8g2\csrc/u8x8_d_ld7032_60x32.c ****   THIS SOFTWARE IS PROVIDED BY THE COPYRIGHT HOLDERS AND 
  22:..\..\u8g2\csrc/u8x8_d_ld7032_60x32.c ****   CONTRIBUTORS "AS IS" AND ANY EXPRESS OR IMPLIED WARRANTIES, 
  23:..\..\u8g2\csrc/u8x8_d_ld7032_60x32.c ****   INCLUDING, BUT NOT LIMITED TO, THE IMPLIED WARRANTIES OF 
  24:..\..\u8g2\csrc/u8x8_d_ld7032_60x32.c ****   MERCHANTABILITY AND FITNESS FOR A PARTICULAR PURPOSE ARE 
  25:..\..\u8g2\csrc/u8x8_d_ld7032_60x32.c ****   DISCLAIMED. IN NO EVENT SHALL THE COPYRIGHT HOLDER OR 
  26:..\..\u8g2\csrc/u8x8_d_ld7032_60x32.c ****   CONTRIBUTORS BE LIABLE FOR ANY DIRECT, INDIRECT, INCIDENTAL, 
  27:..\..\u8g2\csrc/u8x8_d_ld7032_60x32.c ****   SPECIAL, EXEMPLARY, OR CONSEQUENTIAL DAMAGES (INCLUDING, BUT 
  28:..\..\u8g2\csrc/u8x8_d_ld7032_60x32.c ****   NOT LIMITED TO, PROCUREMENT OF SUBSTITUTE GOODS OR SERVICES; 
  29:..\..\u8g2\csrc/u8x8_d_ld7032_60x32.c ****   LOSS OF USE, DATA, OR PROFITS; OR BUSINESS INTERRUPTION) HOWEVER 
  30:..\..\u8g2\csrc/u8x8_d_ld7032_60x32.c ****   CAUSED AND ON ANY THEORY OF LIABILITY, WHETHER IN CONTRACT, 
ARM GAS  C:\Users\Greg\AppData\Local\Temp\ccxpn3le.s 			page 2


  31:..\..\u8g2\csrc/u8x8_d_ld7032_60x32.c ****   STRICT LIABILITY, OR TORT (INCLUDING NEGLIGENCE OR OTHERWISE) 
  32:..\..\u8g2\csrc/u8x8_d_ld7032_60x32.c ****   ARISING IN ANY WAY OUT OF THE USE OF THIS SOFTWARE, EVEN IF 
  33:..\..\u8g2\csrc/u8x8_d_ld7032_60x32.c ****   ADVISED OF THE POSSIBILITY OF SUCH DAMAGE.  
  34:..\..\u8g2\csrc/u8x8_d_ld7032_60x32.c ****   
  35:..\..\u8g2\csrc/u8x8_d_ld7032_60x32.c **** */
  36:..\..\u8g2\csrc/u8x8_d_ld7032_60x32.c **** 
  37:..\..\u8g2\csrc/u8x8_d_ld7032_60x32.c **** 
  38:..\..\u8g2\csrc/u8x8_d_ld7032_60x32.c **** #include "u8x8.h"
  39:..\..\u8g2\csrc/u8x8_d_ld7032_60x32.c **** 
  40:..\..\u8g2\csrc/u8x8_d_ld7032_60x32.c **** 
  41:..\..\u8g2\csrc/u8x8_d_ld7032_60x32.c **** /* testboard U8GLIB_LD7032_60x32 u8g(11, 12, 9, 10, 8);	// SPI Com: SCK = 11, MOSI = 12, CS = 9, A0
  42:..\..\u8g2\csrc/u8x8_d_ld7032_60x32.c **** /* http://www.seeedstudio.com/document/pdf/0.5OLED%20SPEC.pdf */
  43:..\..\u8g2\csrc/u8x8_d_ld7032_60x32.c **** static const uint8_t u8x8_d_ld7032_60x32_init_seq[] = {
  44:..\..\u8g2\csrc/u8x8_d_ld7032_60x32.c ****     
  45:..\..\u8g2\csrc/u8x8_d_ld7032_60x32.c ****   U8X8_START_TRANSFER(),             	/* enable chip, delay is part of the transfer start */
  46:..\..\u8g2\csrc/u8x8_d_ld7032_60x32.c **** 
  47:..\..\u8g2\csrc/u8x8_d_ld7032_60x32.c ****   //U8X8_CA(0x002, 0x001),		/* Dot Matrix Display ON */
  48:..\..\u8g2\csrc/u8x8_d_ld7032_60x32.c ****   U8X8_CA(0x014, 0x000),		/* Stand-by OFF */
  49:..\..\u8g2\csrc/u8x8_d_ld7032_60x32.c ****   U8X8_CA(0x01a, 0x004),		/* Dot Matrix Frame Rate,  special value for this OLED from manual*/
  50:..\..\u8g2\csrc/u8x8_d_ld7032_60x32.c ****   U8X8_CA(0x01d, 0x000),		/* Graphics Memory Writing Direction: reset default (right down, horizont
  51:..\..\u8g2\csrc/u8x8_d_ld7032_60x32.c ****   U8X8_CA(0x009, 0x000),		/* Display Direction:  reset default (x,y: min --> max) */
  52:..\..\u8g2\csrc/u8x8_d_ld7032_60x32.c ****   U8X8_CAA(0x030, 0x000, 0x03b),	/* Display Size X, Column Start - End*/
  53:..\..\u8g2\csrc/u8x8_d_ld7032_60x32.c ****   U8X8_CAA(0x032, 0x000, 0x01f),	/* Display Size Y, Row Start - End*/
  54:..\..\u8g2\csrc/u8x8_d_ld7032_60x32.c ****   U8X8_CA(0x010, 0x000),		/* Peak Pulse Width Set: 0 SCLK */
  55:..\..\u8g2\csrc/u8x8_d_ld7032_60x32.c ****   U8X8_CA(0x016, 0x000),		/* Peak Pulse Delay Set: 0 SCLK */
  56:..\..\u8g2\csrc/u8x8_d_ld7032_60x32.c ****   U8X8_CA(0x012, 0x040),		/* Dot Matrix Current Level Set: 0x050 * 1 uA = 80 uA */
  57:..\..\u8g2\csrc/u8x8_d_ld7032_60x32.c ****   U8X8_CA(0x018, 0x003),		/* Pre-Charge Pulse Width: 3 SCLK */
  58:..\..\u8g2\csrc/u8x8_d_ld7032_60x32.c ****   U8X8_CA(0x044, 0x002),		/* Pre-Charge Mode: Every Time */
  59:..\..\u8g2\csrc/u8x8_d_ld7032_60x32.c ****   U8X8_CA(0x048, 0x003),		/* Row overlap timing: Pre-Charge + Peak Delay + Peak boot Timing */
  60:..\..\u8g2\csrc/u8x8_d_ld7032_60x32.c ****   U8X8_CA(0x03f, 0x011),		/* VCC_R_SEL: ??? */
  61:..\..\u8g2\csrc/u8x8_d_ld7032_60x32.c ****   U8X8_CA(0x03d, 0x000),		/* VSS selection: 2.8V */
  62:..\..\u8g2\csrc/u8x8_d_ld7032_60x32.c ****   //U8X8_CA(0x002, 0x001),		/* Dot Matrix Display ON */
  63:..\..\u8g2\csrc/u8x8_d_ld7032_60x32.c ****   
  64:..\..\u8g2\csrc/u8x8_d_ld7032_60x32.c ****     
  65:..\..\u8g2\csrc/u8x8_d_ld7032_60x32.c ****   U8X8_END_TRANSFER(),             	/* disable chip */
  66:..\..\u8g2\csrc/u8x8_d_ld7032_60x32.c ****   U8X8_END()             			/* end of sequence */
  67:..\..\u8g2\csrc/u8x8_d_ld7032_60x32.c **** };
  68:..\..\u8g2\csrc/u8x8_d_ld7032_60x32.c **** 
  69:..\..\u8g2\csrc/u8x8_d_ld7032_60x32.c **** static const uint8_t u8x8_d_ld7032_60x32_powersave0_seq[] = {
  70:..\..\u8g2\csrc/u8x8_d_ld7032_60x32.c ****   U8X8_START_TRANSFER(),             	/* enable chip, delay is part of the transfer start */
  71:..\..\u8g2\csrc/u8x8_d_ld7032_60x32.c ****   U8X8_CA(0x002, 0x001),		/* Dot Matrix Display ON */
  72:..\..\u8g2\csrc/u8x8_d_ld7032_60x32.c ****   U8X8_END_TRANSFER(),             	/* disable chip */
  73:..\..\u8g2\csrc/u8x8_d_ld7032_60x32.c ****   U8X8_END()             			/* end of sequence */
  74:..\..\u8g2\csrc/u8x8_d_ld7032_60x32.c **** };
  75:..\..\u8g2\csrc/u8x8_d_ld7032_60x32.c **** 
  76:..\..\u8g2\csrc/u8x8_d_ld7032_60x32.c **** static const uint8_t u8x8_d_ld7032_60x32_powersave1_seq[] = {
  77:..\..\u8g2\csrc/u8x8_d_ld7032_60x32.c ****   U8X8_START_TRANSFER(),             	/* enable chip, delay is part of the transfer start */
  78:..\..\u8g2\csrc/u8x8_d_ld7032_60x32.c ****   U8X8_CA(0x002, 0x000),		/* Dot Matrix Display ON */
  79:..\..\u8g2\csrc/u8x8_d_ld7032_60x32.c ****   U8X8_END_TRANSFER(),             	/* disable chip */
  80:..\..\u8g2\csrc/u8x8_d_ld7032_60x32.c ****   U8X8_END()             			/* end of sequence */
  81:..\..\u8g2\csrc/u8x8_d_ld7032_60x32.c **** };
  82:..\..\u8g2\csrc/u8x8_d_ld7032_60x32.c **** 
  83:..\..\u8g2\csrc/u8x8_d_ld7032_60x32.c **** static const uint8_t u8x8_d_ld7032_60x32_flip0_seq[] = {
  84:..\..\u8g2\csrc/u8x8_d_ld7032_60x32.c ****   U8X8_START_TRANSFER(),             	/* enable chip, delay is part of the transfer start */
  85:..\..\u8g2\csrc/u8x8_d_ld7032_60x32.c ****   U8X8_CA(0x009, 0x000),		/* Display Direction:  reset default (x,y: min --> max) */  
  86:..\..\u8g2\csrc/u8x8_d_ld7032_60x32.c ****   U8X8_END_TRANSFER(),             	/* disable chip */
  87:..\..\u8g2\csrc/u8x8_d_ld7032_60x32.c ****   U8X8_END()             			/* end of sequence */
ARM GAS  C:\Users\Greg\AppData\Local\Temp\ccxpn3le.s 			page 3


  88:..\..\u8g2\csrc/u8x8_d_ld7032_60x32.c **** };
  89:..\..\u8g2\csrc/u8x8_d_ld7032_60x32.c **** 
  90:..\..\u8g2\csrc/u8x8_d_ld7032_60x32.c **** static const uint8_t u8x8_d_ld7032_60x32_flip1_seq[] = {
  91:..\..\u8g2\csrc/u8x8_d_ld7032_60x32.c ****   U8X8_START_TRANSFER(),             	/* enable chip, delay is part of the transfer start */
  92:..\..\u8g2\csrc/u8x8_d_ld7032_60x32.c ****   //U8X8_CA(0x009, 0x002),		/* Display Direction:  reset default (x,y: min --> max) */  
  93:..\..\u8g2\csrc/u8x8_d_ld7032_60x32.c ****   U8X8_END_TRANSFER(),             	/* disable chip */
  94:..\..\u8g2\csrc/u8x8_d_ld7032_60x32.c ****   U8X8_END()             			/* end of sequence */
  95:..\..\u8g2\csrc/u8x8_d_ld7032_60x32.c **** };
  96:..\..\u8g2\csrc/u8x8_d_ld7032_60x32.c **** 
  97:..\..\u8g2\csrc/u8x8_d_ld7032_60x32.c **** 
  98:..\..\u8g2\csrc/u8x8_d_ld7032_60x32.c **** static uint8_t u8x8_d_ld7032_generic(u8x8_t *u8x8, uint8_t msg, uint8_t arg_int, void *arg_ptr)
  99:..\..\u8g2\csrc/u8x8_d_ld7032_60x32.c **** {
 100:..\..\u8g2\csrc/u8x8_d_ld7032_60x32.c ****   uint8_t x, c;
 101:..\..\u8g2\csrc/u8x8_d_ld7032_60x32.c ****   uint8_t *ptr;
 102:..\..\u8g2\csrc/u8x8_d_ld7032_60x32.c ****   switch(msg)
 103:..\..\u8g2\csrc/u8x8_d_ld7032_60x32.c ****   {
 104:..\..\u8g2\csrc/u8x8_d_ld7032_60x32.c ****     /* handled by the calling function
 105:..\..\u8g2\csrc/u8x8_d_ld7032_60x32.c ****     case U8X8_MSG_DISPLAY_SETUP_MEMORY:
 106:..\..\u8g2\csrc/u8x8_d_ld7032_60x32.c ****       u8x8_d_helper_display_setup_memory(u8x8, &u8x8_ld7032_60x32_display_info);
 107:..\..\u8g2\csrc/u8x8_d_ld7032_60x32.c ****       break;
 108:..\..\u8g2\csrc/u8x8_d_ld7032_60x32.c ****     */
 109:..\..\u8g2\csrc/u8x8_d_ld7032_60x32.c ****     case U8X8_MSG_DISPLAY_INIT:
 110:..\..\u8g2\csrc/u8x8_d_ld7032_60x32.c ****       u8x8_d_helper_display_init(u8x8);
 111:..\..\u8g2\csrc/u8x8_d_ld7032_60x32.c ****       u8x8_cad_SendSequence(u8x8, u8x8_d_ld7032_60x32_init_seq);    
 112:..\..\u8g2\csrc/u8x8_d_ld7032_60x32.c ****       break;
 113:..\..\u8g2\csrc/u8x8_d_ld7032_60x32.c ****     case U8X8_MSG_DISPLAY_SET_POWER_SAVE:
 114:..\..\u8g2\csrc/u8x8_d_ld7032_60x32.c ****       if ( arg_int == 0 )
 115:..\..\u8g2\csrc/u8x8_d_ld7032_60x32.c **** 	u8x8_cad_SendSequence(u8x8, u8x8_d_ld7032_60x32_powersave0_seq);
 116:..\..\u8g2\csrc/u8x8_d_ld7032_60x32.c ****       else
 117:..\..\u8g2\csrc/u8x8_d_ld7032_60x32.c **** 	u8x8_cad_SendSequence(u8x8, u8x8_d_ld7032_60x32_powersave1_seq);
 118:..\..\u8g2\csrc/u8x8_d_ld7032_60x32.c ****       break;
 119:..\..\u8g2\csrc/u8x8_d_ld7032_60x32.c ****     case U8X8_MSG_DISPLAY_SET_FLIP_MODE:
 120:..\..\u8g2\csrc/u8x8_d_ld7032_60x32.c ****       if ( arg_int == 0 )
 121:..\..\u8g2\csrc/u8x8_d_ld7032_60x32.c ****       {
 122:..\..\u8g2\csrc/u8x8_d_ld7032_60x32.c **** 	u8x8_cad_SendSequence(u8x8, u8x8_d_ld7032_60x32_flip0_seq);
 123:..\..\u8g2\csrc/u8x8_d_ld7032_60x32.c **** 	u8x8->x_offset = u8x8->display_info->default_x_offset;
 124:..\..\u8g2\csrc/u8x8_d_ld7032_60x32.c ****       }
 125:..\..\u8g2\csrc/u8x8_d_ld7032_60x32.c ****       else
 126:..\..\u8g2\csrc/u8x8_d_ld7032_60x32.c ****       {
 127:..\..\u8g2\csrc/u8x8_d_ld7032_60x32.c **** 	u8x8_cad_SendSequence(u8x8, u8x8_d_ld7032_60x32_flip1_seq);
 128:..\..\u8g2\csrc/u8x8_d_ld7032_60x32.c **** 	u8x8->x_offset = u8x8->display_info->flipmode_x_offset;
 129:..\..\u8g2\csrc/u8x8_d_ld7032_60x32.c ****       }
 130:..\..\u8g2\csrc/u8x8_d_ld7032_60x32.c ****       break;
 131:..\..\u8g2\csrc/u8x8_d_ld7032_60x32.c **** #ifdef U8X8_WITH_SET_CONTRAST
 132:..\..\u8g2\csrc/u8x8_d_ld7032_60x32.c ****     case U8X8_MSG_DISPLAY_SET_CONTRAST:
 133:..\..\u8g2\csrc/u8x8_d_ld7032_60x32.c ****       u8x8_cad_StartTransfer(u8x8);
 134:..\..\u8g2\csrc/u8x8_d_ld7032_60x32.c ****       u8x8_cad_SendCmd(u8x8, 0x012 );
 135:..\..\u8g2\csrc/u8x8_d_ld7032_60x32.c ****       if ( arg_int > 0x07f )			/* default is 0x040, limit to 0x07f to be on the safe side (hopefull
 136:..\..\u8g2\csrc/u8x8_d_ld7032_60x32.c **** 	arg_int= 0x07f;
 137:..\..\u8g2\csrc/u8x8_d_ld7032_60x32.c ****       u8x8_cad_SendArg(u8x8, arg_int );	/* values from 0x00 to 0x0ff are allowed, bit will all valu
 138:..\..\u8g2\csrc/u8x8_d_ld7032_60x32.c ****       u8x8_cad_EndTransfer(u8x8);
 139:..\..\u8g2\csrc/u8x8_d_ld7032_60x32.c ****       break;
 140:..\..\u8g2\csrc/u8x8_d_ld7032_60x32.c **** #endif
 141:..\..\u8g2\csrc/u8x8_d_ld7032_60x32.c ****     case U8X8_MSG_DISPLAY_DRAW_TILE:
 142:..\..\u8g2\csrc/u8x8_d_ld7032_60x32.c ****       u8x8_cad_StartTransfer(u8x8);
 143:..\..\u8g2\csrc/u8x8_d_ld7032_60x32.c ****       x = ((u8x8_tile_t *)arg_ptr)->x_pos;    
 144:..\..\u8g2\csrc/u8x8_d_ld7032_60x32.c ****       x += u8x8->x_offset/8;
ARM GAS  C:\Users\Greg\AppData\Local\Temp\ccxpn3le.s 			page 4


 145:..\..\u8g2\csrc/u8x8_d_ld7032_60x32.c ****       u8x8_cad_SendCmd(u8x8, 0x034 );
 146:..\..\u8g2\csrc/u8x8_d_ld7032_60x32.c ****       u8x8_cad_SendArg(u8x8, x );
 147:..\..\u8g2\csrc/u8x8_d_ld7032_60x32.c ****       u8x8_cad_SendCmd(u8x8, 0x035 );
 148:..\..\u8g2\csrc/u8x8_d_ld7032_60x32.c ****       u8x8_cad_SendArg(u8x8, 0x007 );
 149:..\..\u8g2\csrc/u8x8_d_ld7032_60x32.c ****       u8x8_cad_SendCmd(u8x8, 0x036 );
 150:..\..\u8g2\csrc/u8x8_d_ld7032_60x32.c ****       u8x8_cad_SendArg(u8x8, (((u8x8_tile_t *)arg_ptr)->y_pos)*8 );
 151:..\..\u8g2\csrc/u8x8_d_ld7032_60x32.c ****       u8x8_cad_SendCmd(u8x8, 0x037 );
 152:..\..\u8g2\csrc/u8x8_d_ld7032_60x32.c ****       u8x8_cad_SendArg(u8x8, 0x01f );
 153:..\..\u8g2\csrc/u8x8_d_ld7032_60x32.c ****       u8x8_cad_SendCmd(u8x8, 0x008 );
 154:..\..\u8g2\csrc/u8x8_d_ld7032_60x32.c ****     
 155:..\..\u8g2\csrc/u8x8_d_ld7032_60x32.c ****       
 156:..\..\u8g2\csrc/u8x8_d_ld7032_60x32.c ****       do
 157:..\..\u8g2\csrc/u8x8_d_ld7032_60x32.c ****       {
 158:..\..\u8g2\csrc/u8x8_d_ld7032_60x32.c **** 	c = ((u8x8_tile_t *)arg_ptr)->cnt;
 159:..\..\u8g2\csrc/u8x8_d_ld7032_60x32.c **** 	ptr = ((u8x8_tile_t *)arg_ptr)->tile_ptr;
 160:..\..\u8g2\csrc/u8x8_d_ld7032_60x32.c **** 	u8x8_cad_SendData(u8x8, c*8, ptr); 	/* note: SendData can not handle more than 255 bytes */
 161:..\..\u8g2\csrc/u8x8_d_ld7032_60x32.c **** 	arg_int--;
 162:..\..\u8g2\csrc/u8x8_d_ld7032_60x32.c ****       } while( arg_int > 0 );
 163:..\..\u8g2\csrc/u8x8_d_ld7032_60x32.c ****       
 164:..\..\u8g2\csrc/u8x8_d_ld7032_60x32.c ****       u8x8_cad_EndTransfer(u8x8);
 165:..\..\u8g2\csrc/u8x8_d_ld7032_60x32.c ****       break;
 166:..\..\u8g2\csrc/u8x8_d_ld7032_60x32.c ****     default:
 167:..\..\u8g2\csrc/u8x8_d_ld7032_60x32.c ****       return 0;
 168:..\..\u8g2\csrc/u8x8_d_ld7032_60x32.c ****   }
 169:..\..\u8g2\csrc/u8x8_d_ld7032_60x32.c ****   return 1;
 170:..\..\u8g2\csrc/u8x8_d_ld7032_60x32.c **** }
 171:..\..\u8g2\csrc/u8x8_d_ld7032_60x32.c **** 
 172:..\..\u8g2\csrc/u8x8_d_ld7032_60x32.c **** 
 173:..\..\u8g2\csrc/u8x8_d_ld7032_60x32.c **** static const u8x8_display_info_t u8x8_ld7032_60x32_display_info =
 174:..\..\u8g2\csrc/u8x8_d_ld7032_60x32.c **** {
 175:..\..\u8g2\csrc/u8x8_d_ld7032_60x32.c ****   /* chip_enable_level = */ 0,
 176:..\..\u8g2\csrc/u8x8_d_ld7032_60x32.c ****   /* chip_disable_level = */ 1,
 177:..\..\u8g2\csrc/u8x8_d_ld7032_60x32.c ****   
 178:..\..\u8g2\csrc/u8x8_d_ld7032_60x32.c ****   /* post_chip_enable_wait_ns = */ 15,
 179:..\..\u8g2\csrc/u8x8_d_ld7032_60x32.c ****   /* pre_chip_disable_wait_ns = */ 20,
 180:..\..\u8g2\csrc/u8x8_d_ld7032_60x32.c ****   /* reset_pulse_width_ms = */ 100, 	
 181:..\..\u8g2\csrc/u8x8_d_ld7032_60x32.c ****   /* post_reset_wait_ms = */ 100, 
 182:..\..\u8g2\csrc/u8x8_d_ld7032_60x32.c ****   /* sda_setup_time_ns = */ 30,		/* 20ns, but cycle time is 60ns, so use 60/2 */
 183:..\..\u8g2\csrc/u8x8_d_ld7032_60x32.c ****   /* sck_pulse_width_ns = */ 30,	/* 20ns, but cycle time is 60ns, so use 60/2  */
 184:..\..\u8g2\csrc/u8x8_d_ld7032_60x32.c ****   /* sck_clock_hz = */ 4000000UL,	/* since Arduino 1.6.0, the SPI bus speed in Hz. Should be  10000
 185:..\..\u8g2\csrc/u8x8_d_ld7032_60x32.c ****   /* spi_mode = */ 0,		/* active high, rising edge */
 186:..\..\u8g2\csrc/u8x8_d_ld7032_60x32.c ****   /* i2c_bus_clock_100kHz = */ 4,
 187:..\..\u8g2\csrc/u8x8_d_ld7032_60x32.c ****   /* data_setup_time_ns = */ 20,
 188:..\..\u8g2\csrc/u8x8_d_ld7032_60x32.c ****   /* write_pulse_width_ns = */ 40,	
 189:..\..\u8g2\csrc/u8x8_d_ld7032_60x32.c ****   /* tile_width = */ 8,
 190:..\..\u8g2\csrc/u8x8_d_ld7032_60x32.c ****   /* tile_hight = */ 4,
 191:..\..\u8g2\csrc/u8x8_d_ld7032_60x32.c ****   /* default_x_offset = */ 0,
 192:..\..\u8g2\csrc/u8x8_d_ld7032_60x32.c ****   /* flipmode_x_offset = */ 0,
 193:..\..\u8g2\csrc/u8x8_d_ld7032_60x32.c ****   /* pixel_width = */ 60,
 194:..\..\u8g2\csrc/u8x8_d_ld7032_60x32.c ****   /* pixel_height = */ 32
 195:..\..\u8g2\csrc/u8x8_d_ld7032_60x32.c **** };
 196:..\..\u8g2\csrc/u8x8_d_ld7032_60x32.c **** 
 197:..\..\u8g2\csrc/u8x8_d_ld7032_60x32.c **** uint8_t u8x8_d_ld7032_60x32(u8x8_t *u8x8, uint8_t msg, uint8_t arg_int, void *arg_ptr)
 198:..\..\u8g2\csrc/u8x8_d_ld7032_60x32.c **** {
  28              		.loc 1 198 0
  29              		.cfi_startproc
  30              		@ args = 0, pretend = 0, frame = 0
ARM GAS  C:\Users\Greg\AppData\Local\Temp\ccxpn3le.s 			page 5


  31              		@ frame_needed = 0, uses_anonymous_args = 0
  32              	.LVL0:
  33 0000 F8B5     		push	{r3, r4, r5, r6, r7, lr}
  34              		.cfi_def_cfa_offset 24
  35              		.cfi_offset 3, -24
  36              		.cfi_offset 4, -20
  37              		.cfi_offset 5, -16
  38              		.cfi_offset 6, -12
  39              		.cfi_offset 7, -8
  40              		.cfi_offset 14, -4
  41              		.loc 1 198 0
  42 0002 0400     		movs	r4, r0
  43 0004 1500     		movs	r5, r2
  44 0006 1F00     		movs	r7, r3
 199:..\..\u8g2\csrc/u8x8_d_ld7032_60x32.c ****     if ( msg == U8X8_MSG_DISPLAY_SETUP_MEMORY )
  45              		.loc 1 199 0
  46 0008 0929     		cmp	r1, #9
  47 000a 03D1     		bne	.L2
 200:..\..\u8g2\csrc/u8x8_d_ld7032_60x32.c ****     {
 201:..\..\u8g2\csrc/u8x8_d_ld7032_60x32.c ****       u8x8_d_helper_display_setup_memory(u8x8, &u8x8_ld7032_60x32_display_info);
  48              		.loc 1 201 0
  49 000c 3F49     		ldr	r1, .L21
  50              	.LVL1:
  51 000e FFF7FEFF 		bl	u8x8_d_helper_display_setup_memory
  52              	.LVL2:
  53 0012 76E0     		b	.L17
  54              	.LVL3:
  55              	.L2:
  56              	.LBB4:
  57              	.LBB5:
 102:..\..\u8g2\csrc/u8x8_d_ld7032_60x32.c ****   {
  58              		.loc 1 102 0
  59 0014 0A39     		subs	r1, r1, #10
  60              	.LVL4:
  61 0016 0800     		movs	r0, r1
  62              	.LVL5:
  63 0018 0529     		cmp	r1, #5
  64 001a 74D8     		bhi	.L14
  65 001c FFF7FEFF 		bl	__gnu_thumb1_case_uqi
  66              	.L5:
  67 0020 03       		.byte	(.L4-.L5)/2
  68 0021 09       		.byte	(.L6-.L5)/2
  69 0022 73       		.byte	(.L14-.L5)/2
  70 0023 13       		.byte	(.L7-.L5)/2
  71 0024 25       		.byte	(.L8-.L5)/2
  72 0025 35       		.byte	(.L9-.L5)/2
  73              		.p2align 1
  74              	.L4:
 110:..\..\u8g2\csrc/u8x8_d_ld7032_60x32.c ****       u8x8_cad_SendSequence(u8x8, u8x8_d_ld7032_60x32_init_seq);    
  75              		.loc 1 110 0
  76 0026 2000     		movs	r0, r4
  77 0028 FFF7FEFF 		bl	u8x8_d_helper_display_init
  78              	.LVL6:
 111:..\..\u8g2\csrc/u8x8_d_ld7032_60x32.c ****       break;
  79              		.loc 1 111 0
  80 002c 3749     		ldr	r1, .L21
  81 002e 1831     		adds	r1, r1, #24
ARM GAS  C:\Users\Greg\AppData\Local\Temp\ccxpn3le.s 			page 6


  82 0030 05E0     		b	.L18
  83              	.LVL7:
  84              	.L6:
  85 0032 3649     		ldr	r1, .L21
 114:..\..\u8g2\csrc/u8x8_d_ld7032_60x32.c **** 	u8x8_cad_SendSequence(u8x8, u8x8_d_ld7032_60x32_powersave0_seq);
  86              		.loc 1 114 0
  87 0034 002A     		cmp	r2, #0
  88 0036 01D1     		bne	.L10
 115:..\..\u8g2\csrc/u8x8_d_ld7032_60x32.c ****       else
  89              		.loc 1 115 0
  90 0038 5731     		adds	r1, r1, #87
  91 003a 00E0     		b	.L18
  92              	.L10:
 117:..\..\u8g2\csrc/u8x8_d_ld7032_60x32.c ****       break;
  93              		.loc 1 117 0
  94 003c 5E31     		adds	r1, r1, #94
  95              	.LVL8:
  96              	.L18:
  97 003e 2000     		movs	r0, r4
  98 0040 FFF7FEFF 		bl	u8x8_cad_SendSequence
  99              	.LVL9:
 100 0044 5DE0     		b	.L17
 101              	.LVL10:
 102              	.L7:
 103 0046 3149     		ldr	r1, .L21
 120:..\..\u8g2\csrc/u8x8_d_ld7032_60x32.c ****       {
 104              		.loc 1 120 0
 105 0048 002A     		cmp	r2, #0
 106 004a 06D1     		bne	.L11
 122:..\..\u8g2\csrc/u8x8_d_ld7032_60x32.c **** 	u8x8->x_offset = u8x8->display_info->default_x_offset;
 107              		.loc 1 122 0
 108 004c 6531     		adds	r1, r1, #101
 109 004e 2000     		movs	r0, r4
 110 0050 FFF7FEFF 		bl	u8x8_cad_SendSequence
 111              	.LVL11:
 123:..\..\u8g2\csrc/u8x8_d_ld7032_60x32.c ****       }
 112              		.loc 1 123 0
 113 0054 2368     		ldr	r3, [r4]
 114 0056 9B7C     		ldrb	r3, [r3, #18]
 115 0058 05E0     		b	.L19
 116              	.LVL12:
 117              	.L11:
 127:..\..\u8g2\csrc/u8x8_d_ld7032_60x32.c **** 	u8x8->x_offset = u8x8->display_info->flipmode_x_offset;
 118              		.loc 1 127 0
 119 005a 6C31     		adds	r1, r1, #108
 120 005c 2000     		movs	r0, r4
 121 005e FFF7FEFF 		bl	u8x8_cad_SendSequence
 122              	.LVL13:
 128:..\..\u8g2\csrc/u8x8_d_ld7032_60x32.c ****       }
 123              		.loc 1 128 0
 124 0062 2368     		ldr	r3, [r4]
 125 0064 DB7C     		ldrb	r3, [r3, #19]
 126              	.L19:
 127 0066 A377     		strb	r3, [r4, #30]
 128 0068 4BE0     		b	.L17
 129              	.LVL14:
 130              	.L8:
ARM GAS  C:\Users\Greg\AppData\Local\Temp\ccxpn3le.s 			page 7


 133:..\..\u8g2\csrc/u8x8_d_ld7032_60x32.c ****       u8x8_cad_SendCmd(u8x8, 0x012 );
 131              		.loc 1 133 0
 132 006a 2000     		movs	r0, r4
 133 006c FFF7FEFF 		bl	u8x8_cad_StartTransfer
 134              	.LVL15:
 134:..\..\u8g2\csrc/u8x8_d_ld7032_60x32.c ****       if ( arg_int > 0x07f )			/* default is 0x040, limit to 0x07f to be on the safe side (hopefull
 135              		.loc 1 134 0
 136 0070 1221     		movs	r1, #18
 137 0072 2000     		movs	r0, r4
 138 0074 FFF7FEFF 		bl	u8x8_cad_SendCmd
 139              	.LVL16:
 135:..\..\u8g2\csrc/u8x8_d_ld7032_60x32.c **** 	arg_int= 0x07f;
 140              		.loc 1 135 0
 141 0078 6BB2     		sxtb	r3, r5
 142 007a 002B     		cmp	r3, #0
 143 007c 00DA     		bge	.L12
 136:..\..\u8g2\csrc/u8x8_d_ld7032_60x32.c ****       u8x8_cad_SendArg(u8x8, arg_int );	/* values from 0x00 to 0x0ff are allowed, bit will all valu
 144              		.loc 1 136 0
 145 007e 7F25     		movs	r5, #127
 146              	.L12:
 147              	.LVL17:
 137:..\..\u8g2\csrc/u8x8_d_ld7032_60x32.c ****       u8x8_cad_EndTransfer(u8x8);
 148              		.loc 1 137 0
 149 0080 2900     		movs	r1, r5
 150 0082 2000     		movs	r0, r4
 151 0084 FFF7FEFF 		bl	u8x8_cad_SendArg
 152              	.LVL18:
 153 0088 38E0     		b	.L16
 154              	.LVL19:
 155              	.L9:
 142:..\..\u8g2\csrc/u8x8_d_ld7032_60x32.c ****       x = ((u8x8_tile_t *)arg_ptr)->x_pos;    
 156              		.loc 1 142 0
 157 008a 2000     		movs	r0, r4
 158 008c FFF7FEFF 		bl	u8x8_cad_StartTransfer
 159              	.LVL20:
 144:..\..\u8g2\csrc/u8x8_d_ld7032_60x32.c ****       u8x8_cad_SendCmd(u8x8, 0x034 );
 160              		.loc 1 144 0
 161 0090 A67F     		ldrb	r6, [r4, #30]
 143:..\..\u8g2\csrc/u8x8_d_ld7032_60x32.c ****       x += u8x8->x_offset/8;
 162              		.loc 1 143 0
 163 0092 7B79     		ldrb	r3, [r7, #5]
 164              	.LVL21:
 144:..\..\u8g2\csrc/u8x8_d_ld7032_60x32.c ****       u8x8_cad_SendCmd(u8x8, 0x034 );
 165              		.loc 1 144 0
 166 0094 F608     		lsrs	r6, r6, #3
 167 0096 9E19     		adds	r6, r3, r6
 145:..\..\u8g2\csrc/u8x8_d_ld7032_60x32.c ****       u8x8_cad_SendArg(u8x8, x );
 168              		.loc 1 145 0
 169 0098 3421     		movs	r1, #52
 144:..\..\u8g2\csrc/u8x8_d_ld7032_60x32.c ****       u8x8_cad_SendCmd(u8x8, 0x034 );
 170              		.loc 1 144 0
 171 009a F6B2     		uxtb	r6, r6
 172              	.LVL22:
 145:..\..\u8g2\csrc/u8x8_d_ld7032_60x32.c ****       u8x8_cad_SendArg(u8x8, x );
 173              		.loc 1 145 0
 174 009c 2000     		movs	r0, r4
 175 009e FFF7FEFF 		bl	u8x8_cad_SendCmd
ARM GAS  C:\Users\Greg\AppData\Local\Temp\ccxpn3le.s 			page 8


 176              	.LVL23:
 146:..\..\u8g2\csrc/u8x8_d_ld7032_60x32.c ****       u8x8_cad_SendCmd(u8x8, 0x035 );
 177              		.loc 1 146 0
 178 00a2 3100     		movs	r1, r6
 179 00a4 2000     		movs	r0, r4
 180 00a6 FFF7FEFF 		bl	u8x8_cad_SendArg
 181              	.LVL24:
 147:..\..\u8g2\csrc/u8x8_d_ld7032_60x32.c ****       u8x8_cad_SendArg(u8x8, 0x007 );
 182              		.loc 1 147 0
 183 00aa 3521     		movs	r1, #53
 184 00ac 2000     		movs	r0, r4
 185 00ae FFF7FEFF 		bl	u8x8_cad_SendCmd
 186              	.LVL25:
 148:..\..\u8g2\csrc/u8x8_d_ld7032_60x32.c ****       u8x8_cad_SendCmd(u8x8, 0x036 );
 187              		.loc 1 148 0
 188 00b2 0721     		movs	r1, #7
 189 00b4 2000     		movs	r0, r4
 190 00b6 FFF7FEFF 		bl	u8x8_cad_SendArg
 191              	.LVL26:
 149:..\..\u8g2\csrc/u8x8_d_ld7032_60x32.c ****       u8x8_cad_SendArg(u8x8, (((u8x8_tile_t *)arg_ptr)->y_pos)*8 );
 192              		.loc 1 149 0
 193 00ba 3621     		movs	r1, #54
 194 00bc 2000     		movs	r0, r4
 195 00be FFF7FEFF 		bl	u8x8_cad_SendCmd
 196              	.LVL27:
 150:..\..\u8g2\csrc/u8x8_d_ld7032_60x32.c ****       u8x8_cad_SendCmd(u8x8, 0x037 );
 197              		.loc 1 150 0
 198 00c2 B979     		ldrb	r1, [r7, #6]
 199 00c4 2000     		movs	r0, r4
 200 00c6 C900     		lsls	r1, r1, #3
 201 00c8 C9B2     		uxtb	r1, r1
 202 00ca FFF7FEFF 		bl	u8x8_cad_SendArg
 203              	.LVL28:
 151:..\..\u8g2\csrc/u8x8_d_ld7032_60x32.c ****       u8x8_cad_SendArg(u8x8, 0x01f );
 204              		.loc 1 151 0
 205 00ce 3721     		movs	r1, #55
 206 00d0 2000     		movs	r0, r4
 207 00d2 FFF7FEFF 		bl	u8x8_cad_SendCmd
 208              	.LVL29:
 152:..\..\u8g2\csrc/u8x8_d_ld7032_60x32.c ****       u8x8_cad_SendCmd(u8x8, 0x008 );
 209              		.loc 1 152 0
 210 00d6 1F21     		movs	r1, #31
 211 00d8 2000     		movs	r0, r4
 212 00da FFF7FEFF 		bl	u8x8_cad_SendArg
 213              	.LVL30:
 153:..\..\u8g2\csrc/u8x8_d_ld7032_60x32.c ****     
 214              		.loc 1 153 0
 215 00de 0821     		movs	r1, #8
 216 00e0 2000     		movs	r0, r4
 217 00e2 FFF7FEFF 		bl	u8x8_cad_SendCmd
 218              	.LVL31:
 219              	.L13:
 160:..\..\u8g2\csrc/u8x8_d_ld7032_60x32.c **** 	arg_int--;
 220              		.loc 1 160 0
 221 00e6 3979     		ldrb	r1, [r7, #4]
 161:..\..\u8g2\csrc/u8x8_d_ld7032_60x32.c ****       } while( arg_int > 0 );
 222              		.loc 1 161 0
ARM GAS  C:\Users\Greg\AppData\Local\Temp\ccxpn3le.s 			page 9


 223 00e8 013D     		subs	r5, r5, #1
 224              	.LVL32:
 160:..\..\u8g2\csrc/u8x8_d_ld7032_60x32.c **** 	arg_int--;
 225              		.loc 1 160 0
 226 00ea C900     		lsls	r1, r1, #3
 227 00ec C9B2     		uxtb	r1, r1
 228 00ee 3A68     		ldr	r2, [r7]
 229 00f0 2000     		movs	r0, r4
 161:..\..\u8g2\csrc/u8x8_d_ld7032_60x32.c ****       } while( arg_int > 0 );
 230              		.loc 1 161 0
 231 00f2 EDB2     		uxtb	r5, r5
 160:..\..\u8g2\csrc/u8x8_d_ld7032_60x32.c **** 	arg_int--;
 232              		.loc 1 160 0
 233 00f4 FFF7FEFF 		bl	u8x8_cad_SendData
 234              	.LVL33:
 162:..\..\u8g2\csrc/u8x8_d_ld7032_60x32.c ****       
 235              		.loc 1 162 0
 236 00f8 002D     		cmp	r5, #0
 237 00fa F4D1     		bne	.L13
 238              	.LVL34:
 239              	.L16:
 164:..\..\u8g2\csrc/u8x8_d_ld7032_60x32.c ****       break;
 240              		.loc 1 164 0
 241 00fc 2000     		movs	r0, r4
 242 00fe FFF7FEFF 		bl	u8x8_cad_EndTransfer
 243              	.LVL35:
 244              	.L17:
 169:..\..\u8g2\csrc/u8x8_d_ld7032_60x32.c **** }
 245              		.loc 1 169 0
 246 0102 0120     		movs	r0, #1
 247 0104 00E0     		b	.L3
 248              	.LVL36:
 249              	.L14:
 167:..\..\u8g2\csrc/u8x8_d_ld7032_60x32.c ****   }
 250              		.loc 1 167 0
 251 0106 0020     		movs	r0, #0
 252              	.LVL37:
 253              	.L3:
 254              	.LBE5:
 255              	.LBE4:
 202:..\..\u8g2\csrc/u8x8_d_ld7032_60x32.c ****       return 1;
 203:..\..\u8g2\csrc/u8x8_d_ld7032_60x32.c ****     }
 204:..\..\u8g2\csrc/u8x8_d_ld7032_60x32.c ****     return u8x8_d_ld7032_generic(u8x8, msg, arg_int, arg_ptr);
 205:..\..\u8g2\csrc/u8x8_d_ld7032_60x32.c **** }
 256              		.loc 1 205 0
 257              		@ sp needed
 258              	.LVL38:
 259              	.LVL39:
 260 0108 F8BD     		pop	{r3, r4, r5, r6, r7, pc}
 261              	.L22:
 262 010a C046     		.align	2
 263              	.L21:
 264 010c 00000000 		.word	.LANCHOR0
 265              		.cfi_endproc
 266              	.LFE1:
 267              		.size	u8x8_d_ld7032_60x32, .-u8x8_d_ld7032_60x32
 268              		.section	.rodata
ARM GAS  C:\Users\Greg\AppData\Local\Temp\ccxpn3le.s 			page 10


 269              		.align	2
 270              		.set	.LANCHOR0,. + 0
 271              		.type	u8x8_ld7032_60x32_display_info, %object
 272              		.size	u8x8_ld7032_60x32_display_info, 24
 273              	u8x8_ld7032_60x32_display_info:
 274 0000 00       		.byte	0
 275 0001 01       		.byte	1
 276 0002 0F       		.byte	15
 277 0003 14       		.byte	20
 278 0004 64       		.byte	100
 279 0005 64       		.byte	100
 280 0006 1E       		.byte	30
 281 0007 1E       		.byte	30
 282 0008 00093D00 		.word	4000000
 283 000c 00       		.byte	0
 284 000d 04       		.byte	4
 285 000e 14       		.byte	20
 286 000f 28       		.byte	40
 287 0010 08       		.byte	8
 288 0011 04       		.byte	4
 289 0012 00       		.byte	0
 290 0013 00       		.byte	0
 291 0014 3C00     		.short	60
 292 0016 2000     		.short	32
 293              		.type	u8x8_d_ld7032_60x32_init_seq, %object
 294              		.size	u8x8_d_ld7032_60x32_init_seq, 63
 295              	u8x8_d_ld7032_60x32_init_seq:
 296 0018 18       		.byte	24
 297 0019 15       		.byte	21
 298 001a 14       		.byte	20
 299 001b 16       		.byte	22
 300 001c 00       		.byte	0
 301 001d 15       		.byte	21
 302 001e 1A       		.byte	26
 303 001f 16       		.byte	22
 304 0020 04       		.byte	4
 305 0021 15       		.byte	21
 306 0022 1D       		.byte	29
 307 0023 16       		.byte	22
 308 0024 00       		.byte	0
 309 0025 15       		.byte	21
 310 0026 09       		.byte	9
 311 0027 16       		.byte	22
 312 0028 00       		.byte	0
 313 0029 15       		.byte	21
 314 002a 30       		.byte	48
 315 002b 16       		.byte	22
 316 002c 00       		.byte	0
 317 002d 16       		.byte	22
 318 002e 3B       		.byte	59
 319 002f 15       		.byte	21
 320 0030 32       		.byte	50
 321 0031 16       		.byte	22
 322 0032 00       		.byte	0
 323 0033 16       		.byte	22
 324 0034 1F       		.byte	31
 325 0035 15       		.byte	21
ARM GAS  C:\Users\Greg\AppData\Local\Temp\ccxpn3le.s 			page 11


 326 0036 10       		.byte	16
 327 0037 16       		.byte	22
 328 0038 00       		.byte	0
 329 0039 15       		.byte	21
 330 003a 16       		.byte	22
 331 003b 16       		.byte	22
 332 003c 00       		.byte	0
 333 003d 15       		.byte	21
 334 003e 12       		.byte	18
 335 003f 16       		.byte	22
 336 0040 40       		.byte	64
 337 0041 15       		.byte	21
 338 0042 18       		.byte	24
 339 0043 16       		.byte	22
 340 0044 03       		.byte	3
 341 0045 15       		.byte	21
 342 0046 44       		.byte	68
 343 0047 16       		.byte	22
 344 0048 02       		.byte	2
 345 0049 15       		.byte	21
 346 004a 48       		.byte	72
 347 004b 16       		.byte	22
 348 004c 03       		.byte	3
 349 004d 15       		.byte	21
 350 004e 3F       		.byte	63
 351 004f 16       		.byte	22
 352 0050 11       		.byte	17
 353 0051 15       		.byte	21
 354 0052 3D       		.byte	61
 355 0053 16       		.byte	22
 356 0054 00       		.byte	0
 357 0055 19       		.byte	25
 358 0056 FF       		.byte	-1
 359              		.type	u8x8_d_ld7032_60x32_powersave0_seq, %object
 360              		.size	u8x8_d_ld7032_60x32_powersave0_seq, 7
 361              	u8x8_d_ld7032_60x32_powersave0_seq:
 362 0057 18       		.byte	24
 363 0058 15       		.byte	21
 364 0059 02       		.byte	2
 365 005a 16       		.byte	22
 366 005b 01       		.byte	1
 367 005c 19       		.byte	25
 368 005d FF       		.byte	-1
 369              		.type	u8x8_d_ld7032_60x32_powersave1_seq, %object
 370              		.size	u8x8_d_ld7032_60x32_powersave1_seq, 7
 371              	u8x8_d_ld7032_60x32_powersave1_seq:
 372 005e 18       		.byte	24
 373 005f 15       		.byte	21
 374 0060 02       		.byte	2
 375 0061 16       		.byte	22
 376 0062 00       		.byte	0
 377 0063 19       		.byte	25
 378 0064 FF       		.byte	-1
 379              		.type	u8x8_d_ld7032_60x32_flip0_seq, %object
 380              		.size	u8x8_d_ld7032_60x32_flip0_seq, 7
 381              	u8x8_d_ld7032_60x32_flip0_seq:
 382 0065 18       		.byte	24
ARM GAS  C:\Users\Greg\AppData\Local\Temp\ccxpn3le.s 			page 12


 383 0066 15       		.byte	21
 384 0067 09       		.byte	9
 385 0068 16       		.byte	22
 386 0069 00       		.byte	0
 387 006a 19       		.byte	25
 388 006b FF       		.byte	-1
 389              		.type	u8x8_d_ld7032_60x32_flip1_seq, %object
 390              		.size	u8x8_d_ld7032_60x32_flip1_seq, 3
 391              	u8x8_d_ld7032_60x32_flip1_seq:
 392 006c 18       		.byte	24
 393 006d 19       		.byte	25
 394 006e FF       		.byte	-1
 395              		.text
 396              	.Letext0:
 397              		.file 2 "c:\\program files\\cypress\\psoc creator\\4.1\\psoc creator\\import\\gnu\\arm\\5.4.1\\arm
 398              		.file 3 "c:\\program files\\cypress\\psoc creator\\4.1\\psoc creator\\import\\gnu\\arm\\5.4.1\\arm
 399              		.file 4 "..\\..\\u8g2\\csrc\\u8x8.h"