ARM GAS  C:\Users\Greg\AppData\Local\Temp\ccKec0rb.s 			page 1


   1              		.syntax unified
   2              		.cpu cortex-m0
   3              		.fpu softvfp
   4              		.eabi_attribute 20, 1
   5              		.eabi_attribute 21, 1
   6              		.eabi_attribute 23, 3
   7              		.eabi_attribute 24, 1
   8              		.eabi_attribute 25, 1
   9              		.eabi_attribute 26, 1
  10              		.eabi_attribute 30, 4
  11              		.eabi_attribute 34, 0
  12              		.eabi_attribute 18, 4
  13              		.thumb
  14              		.syntax unified
  15              		.file	"u8x8_d_st7567.c"
  16              		.text
  17              	.Ltext0:
  18              		.cfi_sections	.debug_frame
  19              		.section	.text.u8x8_d_st7567_pi_132x64,"ax",%progbits
  20              		.align	1
  21              		.global	u8x8_d_st7567_pi_132x64
  22              		.code	16
  23              		.thumb_func
  24              		.type	u8x8_d_st7567_pi_132x64, %function
  25              	u8x8_d_st7567_pi_132x64:
  26              	.LFB0:
  27              		.file 1 "..\\..\\u8g2\\csrc\\u8x8_d_st7567.c"
   1:..\..\u8g2\csrc/u8x8_d_st7567.c **** /*
   2:..\..\u8g2\csrc/u8x8_d_st7567.c **** 
   3:..\..\u8g2\csrc/u8x8_d_st7567.c ****   u8x8_d_st7567.c
   4:..\..\u8g2\csrc/u8x8_d_st7567.c ****   
   5:..\..\u8g2\csrc/u8x8_d_st7567.c ****   Universal 8bit Graphics Library (https://github.com/olikraus/u8g2/)
   6:..\..\u8g2\csrc/u8x8_d_st7567.c **** 
   7:..\..\u8g2\csrc/u8x8_d_st7567.c ****   Copyright (c) 2016, olikraus@gmail.com
   8:..\..\u8g2\csrc/u8x8_d_st7567.c ****   All rights reserved.
   9:..\..\u8g2\csrc/u8x8_d_st7567.c **** 
  10:..\..\u8g2\csrc/u8x8_d_st7567.c ****   Redistribution and use in source and binary forms, with or without modification, 
  11:..\..\u8g2\csrc/u8x8_d_st7567.c ****   are permitted provided that the following conditions are met:
  12:..\..\u8g2\csrc/u8x8_d_st7567.c **** 
  13:..\..\u8g2\csrc/u8x8_d_st7567.c ****   * Redistributions of source code must retain the above copyright notice, this list 
  14:..\..\u8g2\csrc/u8x8_d_st7567.c ****     of conditions and the following disclaimer.
  15:..\..\u8g2\csrc/u8x8_d_st7567.c ****     
  16:..\..\u8g2\csrc/u8x8_d_st7567.c ****   * Redistributions in binary form must reproduce the above copyright notice, this 
  17:..\..\u8g2\csrc/u8x8_d_st7567.c ****     list of conditions and the following disclaimer in the documentation and/or other 
  18:..\..\u8g2\csrc/u8x8_d_st7567.c ****     materials provided with the distribution.
  19:..\..\u8g2\csrc/u8x8_d_st7567.c **** 
  20:..\..\u8g2\csrc/u8x8_d_st7567.c ****   THIS SOFTWARE IS PROVIDED BY THE COPYRIGHT HOLDERS AND 
  21:..\..\u8g2\csrc/u8x8_d_st7567.c ****   CONTRIBUTORS "AS IS" AND ANY EXPRESS OR IMPLIED WARRANTIES, 
  22:..\..\u8g2\csrc/u8x8_d_st7567.c ****   INCLUDING, BUT NOT LIMITED TO, THE IMPLIED WARRANTIES OF 
  23:..\..\u8g2\csrc/u8x8_d_st7567.c ****   MERCHANTABILITY AND FITNESS FOR A PARTICULAR PURPOSE ARE 
  24:..\..\u8g2\csrc/u8x8_d_st7567.c ****   DISCLAIMED. IN NO EVENT SHALL THE COPYRIGHT HOLDER OR 
  25:..\..\u8g2\csrc/u8x8_d_st7567.c ****   CONTRIBUTORS BE LIABLE FOR ANY DIRECT, INDIRECT, INCIDENTAL, 
  26:..\..\u8g2\csrc/u8x8_d_st7567.c ****   SPECIAL, EXEMPLARY, OR CONSEQUENTIAL DAMAGES (INCLUDING, BUT 
  27:..\..\u8g2\csrc/u8x8_d_st7567.c ****   NOT LIMITED TO, PROCUREMENT OF SUBSTITUTE GOODS OR SERVICES; 
  28:..\..\u8g2\csrc/u8x8_d_st7567.c ****   LOSS OF USE, DATA, OR PROFITS; OR BUSINESS INTERRUPTION) HOWEVER 
  29:..\..\u8g2\csrc/u8x8_d_st7567.c ****   CAUSED AND ON ANY THEORY OF LIABILITY, WHETHER IN CONTRACT, 
  30:..\..\u8g2\csrc/u8x8_d_st7567.c ****   STRICT LIABILITY, OR TORT (INCLUDING NEGLIGENCE OR OTHERWISE) 
ARM GAS  C:\Users\Greg\AppData\Local\Temp\ccKec0rb.s 			page 2


  31:..\..\u8g2\csrc/u8x8_d_st7567.c ****   ARISING IN ANY WAY OUT OF THE USE OF THIS SOFTWARE, EVEN IF 
  32:..\..\u8g2\csrc/u8x8_d_st7567.c ****   ADVISED OF THE POSSIBILITY OF SUCH DAMAGE.  
  33:..\..\u8g2\csrc/u8x8_d_st7567.c **** 
  34:..\..\u8g2\csrc/u8x8_d_st7567.c ****   
  35:..\..\u8g2\csrc/u8x8_d_st7567.c **** */
  36:..\..\u8g2\csrc/u8x8_d_st7567.c **** #include "u8x8.h"
  37:..\..\u8g2\csrc/u8x8_d_st7567.c **** 
  38:..\..\u8g2\csrc/u8x8_d_st7567.c **** 
  39:..\..\u8g2\csrc/u8x8_d_st7567.c **** 
  40:..\..\u8g2\csrc/u8x8_d_st7567.c **** 
  41:..\..\u8g2\csrc/u8x8_d_st7567.c **** static const uint8_t u8x8_d_st7567_132x64_powersave0_seq[] = {
  42:..\..\u8g2\csrc/u8x8_d_st7567.c ****   U8X8_START_TRANSFER(),             	/* enable chip, delay is part of the transfer start */
  43:..\..\u8g2\csrc/u8x8_d_st7567.c ****   U8X8_C(0x0a4),		                /* all pixel off, issue 142 */
  44:..\..\u8g2\csrc/u8x8_d_st7567.c ****   U8X8_C(0x0af),		                /* display on */
  45:..\..\u8g2\csrc/u8x8_d_st7567.c ****   U8X8_END_TRANSFER(),             	/* disable chip */
  46:..\..\u8g2\csrc/u8x8_d_st7567.c ****   U8X8_END()             			/* end of sequence */
  47:..\..\u8g2\csrc/u8x8_d_st7567.c **** };
  48:..\..\u8g2\csrc/u8x8_d_st7567.c **** 
  49:..\..\u8g2\csrc/u8x8_d_st7567.c **** static const uint8_t u8x8_d_st7567_132x64_powersave1_seq[] = {
  50:..\..\u8g2\csrc/u8x8_d_st7567.c ****   U8X8_START_TRANSFER(),             	/* enable chip, delay is part of the transfer start */
  51:..\..\u8g2\csrc/u8x8_d_st7567.c ****   U8X8_C(0x0ae),		                /* display off */
  52:..\..\u8g2\csrc/u8x8_d_st7567.c ****   U8X8_C(0x0a5),		                /* enter powersafe: all pixel on, issue 142 */
  53:..\..\u8g2\csrc/u8x8_d_st7567.c ****   U8X8_END_TRANSFER(),             	/* disable chip */
  54:..\..\u8g2\csrc/u8x8_d_st7567.c ****   U8X8_END()             			/* end of sequence */
  55:..\..\u8g2\csrc/u8x8_d_st7567.c **** };
  56:..\..\u8g2\csrc/u8x8_d_st7567.c **** 
  57:..\..\u8g2\csrc/u8x8_d_st7567.c **** static const uint8_t u8x8_d_st7567_132x64_flip0_seq[] = {
  58:..\..\u8g2\csrc/u8x8_d_st7567.c ****   U8X8_START_TRANSFER(),             	/* enable chip, delay is part of the transfer start */
  59:..\..\u8g2\csrc/u8x8_d_st7567.c ****   U8X8_C(0x0a1),				/* segment remap a0/a1*/
  60:..\..\u8g2\csrc/u8x8_d_st7567.c ****   U8X8_C(0x0c0),				/* c0: scan dir normal, c8: reverse */
  61:..\..\u8g2\csrc/u8x8_d_st7567.c ****   U8X8_END_TRANSFER(),             	/* disable chip */
  62:..\..\u8g2\csrc/u8x8_d_st7567.c ****   U8X8_END()             			/* end of sequence */
  63:..\..\u8g2\csrc/u8x8_d_st7567.c **** };
  64:..\..\u8g2\csrc/u8x8_d_st7567.c **** 
  65:..\..\u8g2\csrc/u8x8_d_st7567.c **** static const uint8_t u8x8_d_st7567_132x64_flip1_seq[] = {
  66:..\..\u8g2\csrc/u8x8_d_st7567.c ****   U8X8_START_TRANSFER(),             	/* enable chip, delay is part of the transfer start */
  67:..\..\u8g2\csrc/u8x8_d_st7567.c ****   U8X8_C(0x0a0),				/* segment remap a0/a1*/
  68:..\..\u8g2\csrc/u8x8_d_st7567.c ****   U8X8_C(0x0c8),				/* c0: scan dir normal, c8: reverse */
  69:..\..\u8g2\csrc/u8x8_d_st7567.c ****   U8X8_END_TRANSFER(),             	/* disable chip */
  70:..\..\u8g2\csrc/u8x8_d_st7567.c ****   U8X8_END()             			/* end of sequence */
  71:..\..\u8g2\csrc/u8x8_d_st7567.c **** };
  72:..\..\u8g2\csrc/u8x8_d_st7567.c **** 
  73:..\..\u8g2\csrc/u8x8_d_st7567.c **** 
  74:..\..\u8g2\csrc/u8x8_d_st7567.c **** static const u8x8_display_info_t u8x8_st7567_132x64_display_info =
  75:..\..\u8g2\csrc/u8x8_d_st7567.c **** {
  76:..\..\u8g2\csrc/u8x8_d_st7567.c ****   /* chip_enable_level = */ 0,
  77:..\..\u8g2\csrc/u8x8_d_st7567.c ****   /* chip_disable_level = */ 1,
  78:..\..\u8g2\csrc/u8x8_d_st7567.c ****   
  79:..\..\u8g2\csrc/u8x8_d_st7567.c ****   /* post_chip_enable_wait_ns = */ 150,	/* */
  80:..\..\u8g2\csrc/u8x8_d_st7567.c ****   /* pre_chip_disable_wait_ns = */ 50,	/* */
  81:..\..\u8g2\csrc/u8x8_d_st7567.c ****   /* reset_pulse_width_ms = */ 1, 
  82:..\..\u8g2\csrc/u8x8_d_st7567.c ****   /* post_reset_wait_ms = */ 1, 
  83:..\..\u8g2\csrc/u8x8_d_st7567.c ****   /* sda_setup_time_ns = */ 50,		/* */
  84:..\..\u8g2\csrc/u8x8_d_st7567.c ****   /* sck_pulse_width_ns = */ 120,	/* */
  85:..\..\u8g2\csrc/u8x8_d_st7567.c ****   /* sck_clock_hz = */ 4000000UL,	/* */
  86:..\..\u8g2\csrc/u8x8_d_st7567.c ****   /* spi_mode = */ 0,		/* active high, rising edge */
  87:..\..\u8g2\csrc/u8x8_d_st7567.c ****   /* i2c_bus_clock_100kHz = */ 4,
ARM GAS  C:\Users\Greg\AppData\Local\Temp\ccKec0rb.s 			page 3


  88:..\..\u8g2\csrc/u8x8_d_st7567.c ****   /* data_setup_time_ns = */ 40,	/* */
  89:..\..\u8g2\csrc/u8x8_d_st7567.c ****   /* write_pulse_width_ns = */ 80,	/* */
  90:..\..\u8g2\csrc/u8x8_d_st7567.c ****   /* tile_width = */ 17,		/* width of 17*8=136 pixel */
  91:..\..\u8g2\csrc/u8x8_d_st7567.c ****   /* tile_hight = */ 8,
  92:..\..\u8g2\csrc/u8x8_d_st7567.c ****   /* default_x_offset = */ 0,
  93:..\..\u8g2\csrc/u8x8_d_st7567.c ****   /* flipmode_x_offset = */ 0,
  94:..\..\u8g2\csrc/u8x8_d_st7567.c ****   /* pixel_width = */ 132,
  95:..\..\u8g2\csrc/u8x8_d_st7567.c ****   /* pixel_height = */ 64
  96:..\..\u8g2\csrc/u8x8_d_st7567.c **** };
  97:..\..\u8g2\csrc/u8x8_d_st7567.c **** 
  98:..\..\u8g2\csrc/u8x8_d_st7567.c **** static const uint8_t u8x8_d_st7567_132x64_init_seq[] = {
  99:..\..\u8g2\csrc/u8x8_d_st7567.c ****     
 100:..\..\u8g2\csrc/u8x8_d_st7567.c ****   U8X8_START_TRANSFER(),             	/* enable chip, delay is part of the transfer start */
 101:..\..\u8g2\csrc/u8x8_d_st7567.c ****   
 102:..\..\u8g2\csrc/u8x8_d_st7567.c ****   U8X8_C(0x0e2),            			/* soft reset */
 103:..\..\u8g2\csrc/u8x8_d_st7567.c ****   U8X8_C(0x0ae),		                /* display off */
 104:..\..\u8g2\csrc/u8x8_d_st7567.c ****   U8X8_C(0x040),		                /* set display start line to 0 */
 105:..\..\u8g2\csrc/u8x8_d_st7567.c ****   
 106:..\..\u8g2\csrc/u8x8_d_st7567.c ****   U8X8_C(0x0a1),		                /* ADC set to reverse */
 107:..\..\u8g2\csrc/u8x8_d_st7567.c ****   U8X8_C(0x0c0),		                /* common output mode */
 108:..\..\u8g2\csrc/u8x8_d_st7567.c ****   // Flipmode
 109:..\..\u8g2\csrc/u8x8_d_st7567.c ****   //U8X8_C(0x0a0),		                /* ADC set to reverse */
 110:..\..\u8g2\csrc/u8x8_d_st7567.c ****   //U8X8_C(0x0c8),		                /* common output mode */
 111:..\..\u8g2\csrc/u8x8_d_st7567.c ****   
 112:..\..\u8g2\csrc/u8x8_d_st7567.c ****   U8X8_C(0x0a6),		                /* display normal, bit val 0: LCD pixel off. */
 113:..\..\u8g2\csrc/u8x8_d_st7567.c ****   U8X8_C(0x0a3),		                /* LCD bias 1/7 */
 114:..\..\u8g2\csrc/u8x8_d_st7567.c ****   /* power on sequence from paxinstruments */
 115:..\..\u8g2\csrc/u8x8_d_st7567.c ****   U8X8_C(0x028|4),		                /* all power  control circuits on */
 116:..\..\u8g2\csrc/u8x8_d_st7567.c ****   U8X8_DLY(50),
 117:..\..\u8g2\csrc/u8x8_d_st7567.c ****   U8X8_C(0x028|6),		                /* all power  control circuits on */
 118:..\..\u8g2\csrc/u8x8_d_st7567.c ****   U8X8_DLY(50),
 119:..\..\u8g2\csrc/u8x8_d_st7567.c ****   U8X8_C(0x028|7),		                /* all power  control circuits on */
 120:..\..\u8g2\csrc/u8x8_d_st7567.c ****   U8X8_DLY(50),
 121:..\..\u8g2\csrc/u8x8_d_st7567.c ****   
 122:..\..\u8g2\csrc/u8x8_d_st7567.c ****   U8X8_C(0x026),		                /* v0 voltage resistor ratio */
 123:..\..\u8g2\csrc/u8x8_d_st7567.c ****   U8X8_CA(0x081, 0x027),		/* set contrast, contrast value*/
 124:..\..\u8g2\csrc/u8x8_d_st7567.c ****   
 125:..\..\u8g2\csrc/u8x8_d_st7567.c ****   U8X8_C(0x0ae),		                /* display off */
 126:..\..\u8g2\csrc/u8x8_d_st7567.c ****   U8X8_C(0x0a5),		                /* enter powersafe: all pixel on, issue 142 */
 127:..\..\u8g2\csrc/u8x8_d_st7567.c ****    
 128:..\..\u8g2\csrc/u8x8_d_st7567.c ****   U8X8_END_TRANSFER(),             	/* disable chip */
 129:..\..\u8g2\csrc/u8x8_d_st7567.c ****   U8X8_END()             			/* end of sequence */
 130:..\..\u8g2\csrc/u8x8_d_st7567.c **** };
 131:..\..\u8g2\csrc/u8x8_d_st7567.c **** 
 132:..\..\u8g2\csrc/u8x8_d_st7567.c **** /* pax instruments 132x64 display */
 133:..\..\u8g2\csrc/u8x8_d_st7567.c **** uint8_t u8x8_d_st7567_pi_132x64(u8x8_t *u8x8, uint8_t msg, uint8_t arg_int, void *arg_ptr)
 134:..\..\u8g2\csrc/u8x8_d_st7567.c **** {
  28              		.loc 1 134 0
  29              		.cfi_startproc
  30              		@ args = 0, pretend = 0, frame = 8
  31              		@ frame_needed = 0, uses_anonymous_args = 0
  32              	.LVL0:
  33 0000 F7B5     		push	{r0, r1, r2, r4, r5, r6, r7, lr}
  34              		.cfi_def_cfa_offset 32
  35              		.cfi_offset 0, -32
  36              		.cfi_offset 1, -28
  37              		.cfi_offset 2, -24
ARM GAS  C:\Users\Greg\AppData\Local\Temp\ccKec0rb.s 			page 4


  38              		.cfi_offset 4, -20
  39              		.cfi_offset 5, -16
  40              		.cfi_offset 6, -12
  41              		.cfi_offset 7, -8
  42              		.cfi_offset 14, -4
 135:..\..\u8g2\csrc/u8x8_d_st7567.c ****   uint8_t x, c;
 136:..\..\u8g2\csrc/u8x8_d_st7567.c ****   uint8_t *ptr;
 137:..\..\u8g2\csrc/u8x8_d_st7567.c ****   switch(msg)
  43              		.loc 1 137 0
  44 0002 0939     		subs	r1, r1, #9
  45              	.LVL1:
 134:..\..\u8g2\csrc/u8x8_d_st7567.c ****   uint8_t x, c;
  46              		.loc 1 134 0
  47 0004 0400     		movs	r4, r0
  48 0006 1500     		movs	r5, r2
  49 0008 1F00     		movs	r7, r3
  50              		.loc 1 137 0
  51 000a 0800     		movs	r0, r1
  52              	.LVL2:
  53 000c 0629     		cmp	r1, #6
  54 000e 6CD8     		bhi	.L14
  55 0010 FFF7FEFF 		bl	__gnu_thumb1_case_uqi
  56              	.L4:
  57 0014 04       		.byte	(.L3-.L4)/2
  58 0015 09       		.byte	(.L5-.L4)/2
  59 0016 0F       		.byte	(.L6-.L4)/2
  60 0017 6B       		.byte	(.L14-.L4)/2
  61 0018 19       		.byte	(.L7-.L4)/2
  62 0019 2B       		.byte	(.L8-.L4)/2
  63 001a 3B       		.byte	(.L9-.L4)/2
  64 001b 00       		.p2align 1
  65              	.L3:
 138:..\..\u8g2\csrc/u8x8_d_st7567.c ****   {
 139:..\..\u8g2\csrc/u8x8_d_st7567.c ****     case U8X8_MSG_DISPLAY_SETUP_MEMORY:
 140:..\..\u8g2\csrc/u8x8_d_st7567.c ****       u8x8_d_helper_display_setup_memory(u8x8, &u8x8_st7567_132x64_display_info);
  66              		.loc 1 140 0
  67 001c 3449     		ldr	r1, .L21
  68 001e 2000     		movs	r0, r4
  69 0020 FFF7FEFF 		bl	u8x8_d_helper_display_setup_memory
  70              	.LVL3:
  71 0024 2FE0     		b	.L16
  72              	.LVL4:
  73              	.L5:
 141:..\..\u8g2\csrc/u8x8_d_st7567.c ****       break;
 142:..\..\u8g2\csrc/u8x8_d_st7567.c ****     case U8X8_MSG_DISPLAY_INIT:
 143:..\..\u8g2\csrc/u8x8_d_st7567.c ****       u8x8_d_helper_display_init(u8x8);
  74              		.loc 1 143 0
  75 0026 2000     		movs	r0, r4
  76 0028 FFF7FEFF 		bl	u8x8_d_helper_display_init
  77              	.LVL5:
 144:..\..\u8g2\csrc/u8x8_d_st7567.c ****       u8x8_cad_SendSequence(u8x8, u8x8_d_st7567_132x64_init_seq);
  78              		.loc 1 144 0
  79 002c 3049     		ldr	r1, .L21
  80 002e 1831     		adds	r1, r1, #24
  81 0030 05E0     		b	.L19
  82              	.LVL6:
  83              	.L6:
ARM GAS  C:\Users\Greg\AppData\Local\Temp\ccKec0rb.s 			page 5


  84 0032 2F49     		ldr	r1, .L21
 145:..\..\u8g2\csrc/u8x8_d_st7567.c ****       break;
 146:..\..\u8g2\csrc/u8x8_d_st7567.c ****     case U8X8_MSG_DISPLAY_SET_POWER_SAVE:
 147:..\..\u8g2\csrc/u8x8_d_st7567.c ****       if ( arg_int == 0 )
  85              		.loc 1 147 0
  86 0034 002A     		cmp	r2, #0
  87 0036 01D1     		bne	.L10
 148:..\..\u8g2\csrc/u8x8_d_st7567.c **** 	u8x8_cad_SendSequence(u8x8, u8x8_d_st7567_132x64_powersave0_seq);
  88              		.loc 1 148 0
  89 0038 3F31     		adds	r1, r1, #63
  90 003a 00E0     		b	.L19
  91              	.L10:
 149:..\..\u8g2\csrc/u8x8_d_st7567.c ****       else
 150:..\..\u8g2\csrc/u8x8_d_st7567.c **** 	u8x8_cad_SendSequence(u8x8, u8x8_d_st7567_132x64_powersave1_seq);
  92              		.loc 1 150 0
  93 003c 4631     		adds	r1, r1, #70
  94              	.LVL7:
  95              	.L19:
  96 003e 2000     		movs	r0, r4
  97 0040 FFF7FEFF 		bl	u8x8_cad_SendSequence
  98              	.LVL8:
  99 0044 1FE0     		b	.L16
 100              	.LVL9:
 101              	.L7:
 102 0046 2A49     		ldr	r1, .L21
 151:..\..\u8g2\csrc/u8x8_d_st7567.c ****       break;
 152:..\..\u8g2\csrc/u8x8_d_st7567.c ****     case U8X8_MSG_DISPLAY_SET_FLIP_MODE:
 153:..\..\u8g2\csrc/u8x8_d_st7567.c ****       if ( arg_int == 0 )
 103              		.loc 1 153 0
 104 0048 002A     		cmp	r2, #0
 105 004a 06D1     		bne	.L11
 154:..\..\u8g2\csrc/u8x8_d_st7567.c ****       {
 155:..\..\u8g2\csrc/u8x8_d_st7567.c **** 	u8x8_cad_SendSequence(u8x8, u8x8_d_st7567_132x64_flip0_seq);
 106              		.loc 1 155 0
 107 004c 4D31     		adds	r1, r1, #77
 108 004e 2000     		movs	r0, r4
 109 0050 FFF7FEFF 		bl	u8x8_cad_SendSequence
 110              	.LVL10:
 156:..\..\u8g2\csrc/u8x8_d_st7567.c **** 	u8x8->x_offset = u8x8->display_info->default_x_offset;
 111              		.loc 1 156 0
 112 0054 2368     		ldr	r3, [r4]
 113 0056 9B7C     		ldrb	r3, [r3, #18]
 114 0058 05E0     		b	.L18
 115              	.LVL11:
 116              	.L11:
 157:..\..\u8g2\csrc/u8x8_d_st7567.c ****       }
 158:..\..\u8g2\csrc/u8x8_d_st7567.c ****       else
 159:..\..\u8g2\csrc/u8x8_d_st7567.c ****       {
 160:..\..\u8g2\csrc/u8x8_d_st7567.c **** 	u8x8_cad_SendSequence(u8x8, u8x8_d_st7567_132x64_flip1_seq);
 117              		.loc 1 160 0
 118 005a 5431     		adds	r1, r1, #84
 119 005c 2000     		movs	r0, r4
 120 005e FFF7FEFF 		bl	u8x8_cad_SendSequence
 121              	.LVL12:
 161:..\..\u8g2\csrc/u8x8_d_st7567.c **** 	u8x8->x_offset = u8x8->display_info->flipmode_x_offset;
 122              		.loc 1 161 0
 123 0062 2368     		ldr	r3, [r4]
ARM GAS  C:\Users\Greg\AppData\Local\Temp\ccKec0rb.s 			page 6


 124 0064 DB7C     		ldrb	r3, [r3, #19]
 125              	.L18:
 126 0066 A377     		strb	r3, [r4, #30]
 127 0068 0DE0     		b	.L16
 128              	.LVL13:
 129              	.L8:
 162:..\..\u8g2\csrc/u8x8_d_st7567.c ****       }	
 163:..\..\u8g2\csrc/u8x8_d_st7567.c ****       break;
 164:..\..\u8g2\csrc/u8x8_d_st7567.c **** #ifdef U8X8_WITH_SET_CONTRAST
 165:..\..\u8g2\csrc/u8x8_d_st7567.c ****     case U8X8_MSG_DISPLAY_SET_CONTRAST:
 166:..\..\u8g2\csrc/u8x8_d_st7567.c ****       u8x8_cad_StartTransfer(u8x8);
 130              		.loc 1 166 0
 131 006a 2000     		movs	r0, r4
 132 006c FFF7FEFF 		bl	u8x8_cad_StartTransfer
 133              	.LVL14:
 167:..\..\u8g2\csrc/u8x8_d_st7567.c ****       u8x8_cad_SendCmd(u8x8, 0x081 );
 134              		.loc 1 167 0
 135 0070 8121     		movs	r1, #129
 136 0072 2000     		movs	r0, r4
 137 0074 FFF7FEFF 		bl	u8x8_cad_SendCmd
 138              	.LVL15:
 168:..\..\u8g2\csrc/u8x8_d_st7567.c ****       u8x8_cad_SendArg(u8x8, arg_int >> 2 );	/* st7567 has range from 0 to 63 */
 139              		.loc 1 168 0
 140 0078 A908     		lsrs	r1, r5, #2
 141 007a 2000     		movs	r0, r4
 142 007c FFF7FEFF 		bl	u8x8_cad_SendArg
 143              	.LVL16:
 144              	.L17:
 169:..\..\u8g2\csrc/u8x8_d_st7567.c ****       u8x8_cad_EndTransfer(u8x8);
 145              		.loc 1 169 0
 146 0080 2000     		movs	r0, r4
 147 0082 FFF7FEFF 		bl	u8x8_cad_EndTransfer
 148              	.LVL17:
 149              	.L16:
 170:..\..\u8g2\csrc/u8x8_d_st7567.c ****       break;
 171:..\..\u8g2\csrc/u8x8_d_st7567.c **** #endif
 172:..\..\u8g2\csrc/u8x8_d_st7567.c ****     case U8X8_MSG_DISPLAY_DRAW_TILE:
 173:..\..\u8g2\csrc/u8x8_d_st7567.c ****       u8x8_cad_StartTransfer(u8x8);
 174:..\..\u8g2\csrc/u8x8_d_st7567.c ****     
 175:..\..\u8g2\csrc/u8x8_d_st7567.c ****       x = ((u8x8_tile_t *)arg_ptr)->x_pos;
 176:..\..\u8g2\csrc/u8x8_d_st7567.c ****       x *= 8;
 177:..\..\u8g2\csrc/u8x8_d_st7567.c ****       x += u8x8->x_offset;
 178:..\..\u8g2\csrc/u8x8_d_st7567.c ****       u8x8_cad_SendCmd(u8x8, 0x010 | (x>>4) );
 179:..\..\u8g2\csrc/u8x8_d_st7567.c ****       u8x8_cad_SendCmd(u8x8, 0x000 | ((x&15)));
 180:..\..\u8g2\csrc/u8x8_d_st7567.c ****       u8x8_cad_SendCmd(u8x8, 0x0b0 | (((u8x8_tile_t *)arg_ptr)->y_pos));
 181:..\..\u8g2\csrc/u8x8_d_st7567.c ****     
 182:..\..\u8g2\csrc/u8x8_d_st7567.c ****       c = ((u8x8_tile_t *)arg_ptr)->cnt;
 183:..\..\u8g2\csrc/u8x8_d_st7567.c ****       c *= 8;
 184:..\..\u8g2\csrc/u8x8_d_st7567.c ****       ptr = ((u8x8_tile_t *)arg_ptr)->tile_ptr;
 185:..\..\u8g2\csrc/u8x8_d_st7567.c ****       /* 
 186:..\..\u8g2\csrc/u8x8_d_st7567.c **** 	The following if condition checks the hardware limits of the st7567 
 187:..\..\u8g2\csrc/u8x8_d_st7567.c **** 	controller: It is not allowed to write beyond the display limits.
 188:..\..\u8g2\csrc/u8x8_d_st7567.c **** 	This is in fact an issue within flip mode.
 189:..\..\u8g2\csrc/u8x8_d_st7567.c ****       */
 190:..\..\u8g2\csrc/u8x8_d_st7567.c ****       if ( c + x > 132u )
 191:..\..\u8g2\csrc/u8x8_d_st7567.c ****       {
 192:..\..\u8g2\csrc/u8x8_d_st7567.c **** 	c = 132u;
ARM GAS  C:\Users\Greg\AppData\Local\Temp\ccKec0rb.s 			page 7


 193:..\..\u8g2\csrc/u8x8_d_st7567.c **** 	c -= x;
 194:..\..\u8g2\csrc/u8x8_d_st7567.c ****       }
 195:..\..\u8g2\csrc/u8x8_d_st7567.c ****       do
 196:..\..\u8g2\csrc/u8x8_d_st7567.c ****       {
 197:..\..\u8g2\csrc/u8x8_d_st7567.c **** 	u8x8_cad_SendData(u8x8, c, ptr);	/* note: SendData can not handle more than 255 bytes */
 198:..\..\u8g2\csrc/u8x8_d_st7567.c **** 	arg_int--;
 199:..\..\u8g2\csrc/u8x8_d_st7567.c ****       } while( arg_int > 0 );
 200:..\..\u8g2\csrc/u8x8_d_st7567.c ****       
 201:..\..\u8g2\csrc/u8x8_d_st7567.c ****       u8x8_cad_EndTransfer(u8x8);
 202:..\..\u8g2\csrc/u8x8_d_st7567.c ****       break;
 203:..\..\u8g2\csrc/u8x8_d_st7567.c ****     default:
 204:..\..\u8g2\csrc/u8x8_d_st7567.c ****       return 0;
 205:..\..\u8g2\csrc/u8x8_d_st7567.c ****   }
 206:..\..\u8g2\csrc/u8x8_d_st7567.c ****   return 1;
 150              		.loc 1 206 0
 151 0086 0120     		movs	r0, #1
 170:..\..\u8g2\csrc/u8x8_d_st7567.c ****       break;
 152              		.loc 1 170 0
 153 0088 30E0     		b	.L2
 154              	.LVL18:
 155              	.L9:
 173:..\..\u8g2\csrc/u8x8_d_st7567.c ****     
 156              		.loc 1 173 0
 157 008a 2000     		movs	r0, r4
 158 008c FFF7FEFF 		bl	u8x8_cad_StartTransfer
 159              	.LVL19:
 178:..\..\u8g2\csrc/u8x8_d_st7567.c ****       u8x8_cad_SendCmd(u8x8, 0x000 | ((x&15)));
 160              		.loc 1 178 0
 161 0090 1021     		movs	r1, #16
 175:..\..\u8g2\csrc/u8x8_d_st7567.c ****       x *= 8;
 162              		.loc 1 175 0
 163 0092 7E79     		ldrb	r6, [r7, #5]
 164              	.LVL20:
 177:..\..\u8g2\csrc/u8x8_d_st7567.c ****       u8x8_cad_SendCmd(u8x8, 0x010 | (x>>4) );
 165              		.loc 1 177 0
 166 0094 A37F     		ldrb	r3, [r4, #30]
 176:..\..\u8g2\csrc/u8x8_d_st7567.c ****       x += u8x8->x_offset;
 167              		.loc 1 176 0
 168 0096 F600     		lsls	r6, r6, #3
 169              	.LVL21:
 177:..\..\u8g2\csrc/u8x8_d_st7567.c ****       u8x8_cad_SendCmd(u8x8, 0x010 | (x>>4) );
 170              		.loc 1 177 0
 171 0098 F618     		adds	r6, r6, r3
 172              	.LVL22:
 173 009a F6B2     		uxtb	r6, r6
 174              	.LVL23:
 178:..\..\u8g2\csrc/u8x8_d_st7567.c ****       u8x8_cad_SendCmd(u8x8, 0x000 | ((x&15)));
 175              		.loc 1 178 0
 176 009c 3309     		lsrs	r3, r6, #4
 177 009e 1943     		orrs	r1, r3
 178 00a0 2000     		movs	r0, r4
 179 00a2 FFF7FEFF 		bl	u8x8_cad_SendCmd
 180              	.LVL24:
 179:..\..\u8g2\csrc/u8x8_d_st7567.c ****       u8x8_cad_SendCmd(u8x8, 0x0b0 | (((u8x8_tile_t *)arg_ptr)->y_pos));
 181              		.loc 1 179 0
 182 00a6 0F21     		movs	r1, #15
 183 00a8 2000     		movs	r0, r4
ARM GAS  C:\Users\Greg\AppData\Local\Temp\ccKec0rb.s 			page 8


 184 00aa 3140     		ands	r1, r6
 185 00ac FFF7FEFF 		bl	u8x8_cad_SendCmd
 186              	.LVL25:
 180:..\..\u8g2\csrc/u8x8_d_st7567.c ****     
 187              		.loc 1 180 0
 188 00b0 B023     		movs	r3, #176
 189 00b2 B979     		ldrb	r1, [r7, #6]
 190 00b4 2000     		movs	r0, r4
 191 00b6 1943     		orrs	r1, r3
 192 00b8 FFF7FEFF 		bl	u8x8_cad_SendCmd
 193              	.LVL26:
 182:..\..\u8g2\csrc/u8x8_d_st7567.c ****       c *= 8;
 194              		.loc 1 182 0
 195 00bc 3B79     		ldrb	r3, [r7, #4]
 196              	.LVL27:
 184:..\..\u8g2\csrc/u8x8_d_st7567.c ****       /* 
 197              		.loc 1 184 0
 198 00be 3F68     		ldr	r7, [r7]
 199              	.LVL28:
 183:..\..\u8g2\csrc/u8x8_d_st7567.c ****       ptr = ((u8x8_tile_t *)arg_ptr)->tile_ptr;
 200              		.loc 1 183 0
 201 00c0 DB00     		lsls	r3, r3, #3
 202              	.LVL29:
 203 00c2 DBB2     		uxtb	r3, r3
 204 00c4 0193     		str	r3, [sp, #4]
 205              	.LVL30:
 190:..\..\u8g2\csrc/u8x8_d_st7567.c ****       {
 206              		.loc 1 190 0
 207 00c6 9B19     		adds	r3, r3, r6
 208 00c8 842B     		cmp	r3, #132
 209 00ca 04DD     		ble	.L13
 210              	.LVL31:
 193:..\..\u8g2\csrc/u8x8_d_st7567.c ****       }
 211              		.loc 1 193 0
 212 00cc 7C23     		movs	r3, #124
 213 00ce 5B42     		rsbs	r3, r3, #0
 214 00d0 9E1B     		subs	r6, r3, r6
 215              	.LVL32:
 216 00d2 F3B2     		uxtb	r3, r6
 217 00d4 0193     		str	r3, [sp, #4]
 218              	.LVL33:
 219              	.L13:
 198:..\..\u8g2\csrc/u8x8_d_st7567.c ****       } while( arg_int > 0 );
 220              		.loc 1 198 0 discriminator 1
 221 00d6 013D     		subs	r5, r5, #1
 222              	.LVL34:
 197:..\..\u8g2\csrc/u8x8_d_st7567.c **** 	arg_int--;
 223              		.loc 1 197 0 discriminator 1
 224 00d8 3A00     		movs	r2, r7
 225 00da 0199     		ldr	r1, [sp, #4]
 226 00dc 2000     		movs	r0, r4
 198:..\..\u8g2\csrc/u8x8_d_st7567.c ****       } while( arg_int > 0 );
 227              		.loc 1 198 0 discriminator 1
 228 00de EDB2     		uxtb	r5, r5
 197:..\..\u8g2\csrc/u8x8_d_st7567.c **** 	arg_int--;
 229              		.loc 1 197 0 discriminator 1
 230 00e0 FFF7FEFF 		bl	u8x8_cad_SendData
ARM GAS  C:\Users\Greg\AppData\Local\Temp\ccKec0rb.s 			page 9


 231              	.LVL35:
 199:..\..\u8g2\csrc/u8x8_d_st7567.c ****       
 232              		.loc 1 199 0 discriminator 1
 233 00e4 002D     		cmp	r5, #0
 234 00e6 F6D1     		bne	.L13
 235 00e8 CAE7     		b	.L17
 236              	.LVL36:
 237              	.L14:
 204:..\..\u8g2\csrc/u8x8_d_st7567.c ****   }
 238              		.loc 1 204 0
 239 00ea 0020     		movs	r0, #0
 240              	.LVL37:
 241              	.L2:
 207:..\..\u8g2\csrc/u8x8_d_st7567.c **** }
 242              		.loc 1 207 0
 243              		@ sp needed
 244              	.LVL38:
 245 00ec FEBD     		pop	{r1, r2, r3, r4, r5, r6, r7, pc}
 246              	.L22:
 247 00ee C046     		.align	2
 248              	.L21:
 249 00f0 00000000 		.word	.LANCHOR0
 250              		.cfi_endproc
 251              	.LFE0:
 252              		.size	u8x8_d_st7567_pi_132x64, .-u8x8_d_st7567_pi_132x64
 253              		.section	.rodata
 254              		.align	2
 255              		.set	.LANCHOR0,. + 0
 256              		.type	u8x8_st7567_132x64_display_info, %object
 257              		.size	u8x8_st7567_132x64_display_info, 24
 258              	u8x8_st7567_132x64_display_info:
 259 0000 00       		.byte	0
 260 0001 01       		.byte	1
 261 0002 96       		.byte	-106
 262 0003 32       		.byte	50
 263 0004 01       		.byte	1
 264 0005 01       		.byte	1
 265 0006 32       		.byte	50
 266 0007 78       		.byte	120
 267 0008 00093D00 		.word	4000000
 268 000c 00       		.byte	0
 269 000d 04       		.byte	4
 270 000e 28       		.byte	40
 271 000f 50       		.byte	80
 272 0010 11       		.byte	17
 273 0011 08       		.byte	8
 274 0012 00       		.byte	0
 275 0013 00       		.byte	0
 276 0014 8400     		.short	132
 277 0016 4000     		.short	64
 278              		.type	u8x8_d_st7567_132x64_init_seq, %object
 279              		.size	u8x8_d_st7567_132x64_init_seq, 39
 280              	u8x8_d_st7567_132x64_init_seq:
 281 0018 18       		.byte	24
 282 0019 15       		.byte	21
 283 001a E2       		.byte	-30
 284 001b 15       		.byte	21
ARM GAS  C:\Users\Greg\AppData\Local\Temp\ccKec0rb.s 			page 10


 285 001c AE       		.byte	-82
 286 001d 15       		.byte	21
 287 001e 40       		.byte	64
 288 001f 15       		.byte	21
 289 0020 A1       		.byte	-95
 290 0021 15       		.byte	21
 291 0022 C0       		.byte	-64
 292 0023 15       		.byte	21
 293 0024 A6       		.byte	-90
 294 0025 15       		.byte	21
 295 0026 A3       		.byte	-93
 296 0027 15       		.byte	21
 297 0028 2C       		.byte	44
 298 0029 FE       		.byte	-2
 299 002a 32       		.byte	50
 300 002b 15       		.byte	21
 301 002c 2E       		.byte	46
 302 002d FE       		.byte	-2
 303 002e 32       		.byte	50
 304 002f 15       		.byte	21
 305 0030 2F       		.byte	47
 306 0031 FE       		.byte	-2
 307 0032 32       		.byte	50
 308 0033 15       		.byte	21
 309 0034 26       		.byte	38
 310 0035 15       		.byte	21
 311 0036 81       		.byte	-127
 312 0037 16       		.byte	22
 313 0038 27       		.byte	39
 314 0039 15       		.byte	21
 315 003a AE       		.byte	-82
 316 003b 15       		.byte	21
 317 003c A5       		.byte	-91
 318 003d 19       		.byte	25
 319 003e FF       		.byte	-1
 320              		.type	u8x8_d_st7567_132x64_powersave0_seq, %object
 321              		.size	u8x8_d_st7567_132x64_powersave0_seq, 7
 322              	u8x8_d_st7567_132x64_powersave0_seq:
 323 003f 18       		.byte	24
 324 0040 15       		.byte	21
 325 0041 A4       		.byte	-92
 326 0042 15       		.byte	21
 327 0043 AF       		.byte	-81
 328 0044 19       		.byte	25
 329 0045 FF       		.byte	-1
 330              		.type	u8x8_d_st7567_132x64_powersave1_seq, %object
 331              		.size	u8x8_d_st7567_132x64_powersave1_seq, 7
 332              	u8x8_d_st7567_132x64_powersave1_seq:
 333 0046 18       		.byte	24
 334 0047 15       		.byte	21
 335 0048 AE       		.byte	-82
 336 0049 15       		.byte	21
 337 004a A5       		.byte	-91
 338 004b 19       		.byte	25
 339 004c FF       		.byte	-1
 340              		.type	u8x8_d_st7567_132x64_flip0_seq, %object
 341              		.size	u8x8_d_st7567_132x64_flip0_seq, 7
ARM GAS  C:\Users\Greg\AppData\Local\Temp\ccKec0rb.s 			page 11


 342              	u8x8_d_st7567_132x64_flip0_seq:
 343 004d 18       		.byte	24
 344 004e 15       		.byte	21
 345 004f A1       		.byte	-95
 346 0050 15       		.byte	21
 347 0051 C0       		.byte	-64
 348 0052 19       		.byte	25
 349 0053 FF       		.byte	-1
 350              		.type	u8x8_d_st7567_132x64_flip1_seq, %object
 351              		.size	u8x8_d_st7567_132x64_flip1_seq, 7
 352              	u8x8_d_st7567_132x64_flip1_seq:
 353 0054 18       		.byte	24
 354 0055 15       		.byte	21
 355 0056 A0       		.byte	-96
 356 0057 15       		.byte	21
 357 0058 C8       		.byte	-56
 358 0059 19       		.byte	25
 359 005a FF       		.byte	-1
 360              		.text
 361              	.Letext0:
 362              		.file 2 "c:\\program files\\cypress\\psoc creator\\4.1\\psoc creator\\import\\gnu\\arm\\5.4.1\\arm
 363              		.file 3 "c:\\program files\\cypress\\psoc creator\\4.1\\psoc creator\\import\\gnu\\arm\\5.4.1\\arm
 364              		.file 4 "..\\..\\u8g2\\csrc\\u8x8.h"