ARM GAS  C:\Users\Greg\AppData\Local\Temp\ccXix9lJ.s 			page 1


   1              		.syntax unified
   2              		.cpu cortex-m0
   3              		.fpu softvfp
   4              		.eabi_attribute 20, 1
   5              		.eabi_attribute 21, 1
   6              		.eabi_attribute 23, 3
   7              		.eabi_attribute 24, 1
   8              		.eabi_attribute 25, 1
   9              		.eabi_attribute 26, 1
  10              		.eabi_attribute 30, 4
  11              		.eabi_attribute 34, 0
  12              		.eabi_attribute 18, 4
  13              		.thumb
  14              		.syntax unified
  15              		.file	"u8x8_d_lc7981.c"
  16              		.text
  17              	.Ltext0:
  18              		.cfi_sections	.debug_frame
  19              		.section	.text.u8x8_d_lc7981_common.isra.0.part.1,"ax",%progbits
  20              		.align	1
  21              		.code	16
  22              		.thumb_func
  23              		.type	u8x8_d_lc7981_common.isra.0.part.1, %function
  24              	u8x8_d_lc7981_common.isra.0.part.1:
  25              	.LFB5:
  26              		.file 1 "..\\..\\u8g2\\csrc\\u8x8_d_lc7981.c"
   1:..\..\u8g2\csrc/u8x8_d_lc7981.c **** /*
   2:..\..\u8g2\csrc/u8x8_d_lc7981.c **** 
   3:..\..\u8g2\csrc/u8x8_d_lc7981.c ****   u8x8_d_lc7981.c
   4:..\..\u8g2\csrc/u8x8_d_lc7981.c ****   
   5:..\..\u8g2\csrc/u8x8_d_lc7981.c ****   Universal 8bit Graphics Library (https://github.com/olikraus/u8g2/)
   6:..\..\u8g2\csrc/u8x8_d_lc7981.c **** 
   7:..\..\u8g2\csrc/u8x8_d_lc7981.c ****   Copyright (c) 2016, olikraus@gmail.com
   8:..\..\u8g2\csrc/u8x8_d_lc7981.c ****   All rights reserved.
   9:..\..\u8g2\csrc/u8x8_d_lc7981.c **** 
  10:..\..\u8g2\csrc/u8x8_d_lc7981.c ****   Redistribution and use in source and binary forms, with or without modification, 
  11:..\..\u8g2\csrc/u8x8_d_lc7981.c ****   are permitted provided that the following conditions are met:
  12:..\..\u8g2\csrc/u8x8_d_lc7981.c **** 
  13:..\..\u8g2\csrc/u8x8_d_lc7981.c ****   * Redistributions of source code must retain the above copyright notice, this list 
  14:..\..\u8g2\csrc/u8x8_d_lc7981.c ****     of conditions and the following disclaimer.
  15:..\..\u8g2\csrc/u8x8_d_lc7981.c ****     
  16:..\..\u8g2\csrc/u8x8_d_lc7981.c ****   * Redistributions in binary form must reproduce the above copyright notice, this 
  17:..\..\u8g2\csrc/u8x8_d_lc7981.c ****     list of conditions and the following disclaimer in the documentation and/or other 
  18:..\..\u8g2\csrc/u8x8_d_lc7981.c ****     materials provided with the distribution.
  19:..\..\u8g2\csrc/u8x8_d_lc7981.c **** 
  20:..\..\u8g2\csrc/u8x8_d_lc7981.c ****   THIS SOFTWARE IS PROVIDED BY THE COPYRIGHT HOLDERS AND 
  21:..\..\u8g2\csrc/u8x8_d_lc7981.c ****   CONTRIBUTORS "AS IS" AND ANY EXPRESS OR IMPLIED WARRANTIES, 
  22:..\..\u8g2\csrc/u8x8_d_lc7981.c ****   INCLUDING, BUT NOT LIMITED TO, THE IMPLIED WARRANTIES OF 
  23:..\..\u8g2\csrc/u8x8_d_lc7981.c ****   MERCHANTABILITY AND FITNESS FOR A PARTICULAR PURPOSE ARE 
  24:..\..\u8g2\csrc/u8x8_d_lc7981.c ****   DISCLAIMED. IN NO EVENT SHALL THE COPYRIGHT HOLDER OR 
  25:..\..\u8g2\csrc/u8x8_d_lc7981.c ****   CONTRIBUTORS BE LIABLE FOR ANY DIRECT, INDIRECT, INCIDENTAL, 
  26:..\..\u8g2\csrc/u8x8_d_lc7981.c ****   SPECIAL, EXEMPLARY, OR CONSEQUENTIAL DAMAGES (INCLUDING, BUT 
  27:..\..\u8g2\csrc/u8x8_d_lc7981.c ****   NOT LIMITED TO, PROCUREMENT OF SUBSTITUTE GOODS OR SERVICES; 
  28:..\..\u8g2\csrc/u8x8_d_lc7981.c ****   LOSS OF USE, DATA, OR PROFITS; OR BUSINESS INTERRUPTION) HOWEVER 
  29:..\..\u8g2\csrc/u8x8_d_lc7981.c ****   CAUSED AND ON ANY THEORY OF LIABILITY, WHETHER IN CONTRACT, 
  30:..\..\u8g2\csrc/u8x8_d_lc7981.c ****   STRICT LIABILITY, OR TORT (INCLUDING NEGLIGENCE OR OTHERWISE) 
  31:..\..\u8g2\csrc/u8x8_d_lc7981.c ****   ARISING IN ANY WAY OUT OF THE USE OF THIS SOFTWARE, EVEN IF 
ARM GAS  C:\Users\Greg\AppData\Local\Temp\ccXix9lJ.s 			page 2


  32:..\..\u8g2\csrc/u8x8_d_lc7981.c ****   ADVISED OF THE POSSIBILITY OF SUCH DAMAGE.  
  33:..\..\u8g2\csrc/u8x8_d_lc7981.c **** 
  34:..\..\u8g2\csrc/u8x8_d_lc7981.c **** 
  35:..\..\u8g2\csrc/u8x8_d_lc7981.c ****   
  36:..\..\u8g2\csrc/u8x8_d_lc7981.c **** */
  37:..\..\u8g2\csrc/u8x8_d_lc7981.c **** #include "u8x8.h"
  38:..\..\u8g2\csrc/u8x8_d_lc7981.c **** 
  39:..\..\u8g2\csrc/u8x8_d_lc7981.c **** 
  40:..\..\u8g2\csrc/u8x8_d_lc7981.c **** 
  41:..\..\u8g2\csrc/u8x8_d_lc7981.c **** 
  42:..\..\u8g2\csrc/u8x8_d_lc7981.c **** /* no powersave mode for the LC7981 */
  43:..\..\u8g2\csrc/u8x8_d_lc7981.c **** static const uint8_t u8x8_d_lc7981_powersave0_seq[] = {
  44:..\..\u8g2\csrc/u8x8_d_lc7981.c ****   U8X8_START_TRANSFER(),             	/* enable chip, delay is part of the transfer start */
  45:..\..\u8g2\csrc/u8x8_d_lc7981.c ****   U8X8_END_TRANSFER(),             	/* disable chip */
  46:..\..\u8g2\csrc/u8x8_d_lc7981.c ****   U8X8_END()             			/* end of sequence */
  47:..\..\u8g2\csrc/u8x8_d_lc7981.c **** };
  48:..\..\u8g2\csrc/u8x8_d_lc7981.c **** 
  49:..\..\u8g2\csrc/u8x8_d_lc7981.c **** static const uint8_t u8x8_d_lc7981_powersave1_seq[] = {
  50:..\..\u8g2\csrc/u8x8_d_lc7981.c ****   U8X8_START_TRANSFER(),             	/* enable chip, delay is part of the transfer start */
  51:..\..\u8g2\csrc/u8x8_d_lc7981.c ****   U8X8_END_TRANSFER(),             	/* disable chip */
  52:..\..\u8g2\csrc/u8x8_d_lc7981.c ****   U8X8_END()             			/* end of sequence */
  53:..\..\u8g2\csrc/u8x8_d_lc7981.c **** };
  54:..\..\u8g2\csrc/u8x8_d_lc7981.c **** 
  55:..\..\u8g2\csrc/u8x8_d_lc7981.c **** /* no hardware flip for the LC7981 */
  56:..\..\u8g2\csrc/u8x8_d_lc7981.c **** static const uint8_t u8x8_d_lc7981_flip0_seq[] = {
  57:..\..\u8g2\csrc/u8x8_d_lc7981.c ****   U8X8_START_TRANSFER(),             	/* enable chip, delay is part of the transfer start */
  58:..\..\u8g2\csrc/u8x8_d_lc7981.c ****   U8X8_END_TRANSFER(),             	/* disable chip */
  59:..\..\u8g2\csrc/u8x8_d_lc7981.c ****   U8X8_END()             			/* end of sequence */
  60:..\..\u8g2\csrc/u8x8_d_lc7981.c **** };
  61:..\..\u8g2\csrc/u8x8_d_lc7981.c **** 
  62:..\..\u8g2\csrc/u8x8_d_lc7981.c **** static const uint8_t u8x8_d_lc7981_flip1_seq[] = {
  63:..\..\u8g2\csrc/u8x8_d_lc7981.c ****   U8X8_START_TRANSFER(),             	/* enable chip, delay is part of the transfer start */
  64:..\..\u8g2\csrc/u8x8_d_lc7981.c ****   U8X8_END_TRANSFER(),             	/* disable chip */
  65:..\..\u8g2\csrc/u8x8_d_lc7981.c ****   U8X8_END()             			/* end of sequence */
  66:..\..\u8g2\csrc/u8x8_d_lc7981.c **** };
  67:..\..\u8g2\csrc/u8x8_d_lc7981.c **** 
  68:..\..\u8g2\csrc/u8x8_d_lc7981.c **** 
  69:..\..\u8g2\csrc/u8x8_d_lc7981.c **** /* http://graphics.stanford.edu/~seander/bithacks.html */
  70:..\..\u8g2\csrc/u8x8_d_lc7981.c **** static uint8_t reverse_byte(uint8_t v)
  71:..\..\u8g2\csrc/u8x8_d_lc7981.c **** {
  72:..\..\u8g2\csrc/u8x8_d_lc7981.c ****   // if ( v != 0 && v != 255 )  does not help much
  73:..\..\u8g2\csrc/u8x8_d_lc7981.c ****   {
  74:..\..\u8g2\csrc/u8x8_d_lc7981.c ****     // swap odd and even bits
  75:..\..\u8g2\csrc/u8x8_d_lc7981.c ****     v = ((v >> 1) & 0x055) | ((v & 0x055) << 1);
  76:..\..\u8g2\csrc/u8x8_d_lc7981.c ****     // swap consecutive pairs
  77:..\..\u8g2\csrc/u8x8_d_lc7981.c ****     v = ((v >> 2) & 0x033) | ((v & 0x033) << 2);
  78:..\..\u8g2\csrc/u8x8_d_lc7981.c ****     // swap nibbles ... 
  79:..\..\u8g2\csrc/u8x8_d_lc7981.c ****     v = ((v >> 4) & 0x00F) | ((v & 0x00F) << 4);
  80:..\..\u8g2\csrc/u8x8_d_lc7981.c ****   }
  81:..\..\u8g2\csrc/u8x8_d_lc7981.c ****   return v;
  82:..\..\u8g2\csrc/u8x8_d_lc7981.c **** }
  83:..\..\u8g2\csrc/u8x8_d_lc7981.c **** 
  84:..\..\u8g2\csrc/u8x8_d_lc7981.c **** static uint8_t u8x8_d_lc7981_common(u8x8_t *u8x8, uint8_t msg, U8X8_UNUSED uint8_t arg_int, void *a
  27              		.loc 1 84 0
  28              		.cfi_startproc
  29              		@ args = 0, pretend = 0, frame = 8
  30              		@ frame_needed = 0, uses_anonymous_args = 0
ARM GAS  C:\Users\Greg\AppData\Local\Temp\ccXix9lJ.s 			page 3


  31              	.LVL0:
  32 0000 F7B5     		push	{r0, r1, r2, r4, r5, r6, r7, lr}
  33              		.cfi_def_cfa_offset 32
  34              		.cfi_offset 0, -32
  35              		.cfi_offset 1, -28
  36              		.cfi_offset 2, -24
  37              		.cfi_offset 4, -20
  38              		.cfi_offset 5, -16
  39              		.cfi_offset 6, -12
  40              		.cfi_offset 7, -8
  41              		.cfi_offset 14, -4
  42              		.loc 1 84 0
  43 0002 0E00     		movs	r6, r1
  44 0004 0368     		ldr	r3, [r0]
  45 0006 8D79     		ldrb	r5, [r1, #6]
  46 0008 1B7C     		ldrb	r3, [r3, #16]
  47 000a 0400     		movs	r4, r0
  48 000c 5D43     		muls	r5, r3
  85:..\..\u8g2\csrc/u8x8_d_lc7981.c **** {
  86:..\..\u8g2\csrc/u8x8_d_lc7981.c ****   uint8_t c, i, j;
  87:..\..\u8g2\csrc/u8x8_d_lc7981.c ****   uint16_t y;
  88:..\..\u8g2\csrc/u8x8_d_lc7981.c ****   uint8_t *ptr;
  89:..\..\u8g2\csrc/u8x8_d_lc7981.c ****   switch(msg)
  90:..\..\u8g2\csrc/u8x8_d_lc7981.c ****   {
  91:..\..\u8g2\csrc/u8x8_d_lc7981.c ****     case U8X8_MSG_DISPLAY_DRAW_TILE:
  92:..\..\u8g2\csrc/u8x8_d_lc7981.c ****       y = (((u8x8_tile_t *)arg_ptr)->y_pos);
  93:..\..\u8g2\csrc/u8x8_d_lc7981.c ****       y*=8;
  94:..\..\u8g2\csrc/u8x8_d_lc7981.c ****       y*= u8x8->display_info->tile_width;
  95:..\..\u8g2\csrc/u8x8_d_lc7981.c ****       /* x = ((u8x8_tile_t *)arg_ptr)->x_pos; x is ignored... no u8x8 support */
  96:..\..\u8g2\csrc/u8x8_d_lc7981.c ****       u8x8_cad_StartTransfer(u8x8);
  49              		.loc 1 96 0
  50 000e FFF7FEFF 		bl	u8x8_cad_StartTransfer
  51              	.LVL1:
  97:..\..\u8g2\csrc/u8x8_d_lc7981.c ****       /* 
  98:..\..\u8g2\csrc/u8x8_d_lc7981.c **** 	Tile structure is reused here for the t6963, however u8x8 is not supported 
  99:..\..\u8g2\csrc/u8x8_d_lc7981.c **** 	tile_ptr points to data which has cnt*8 bytes (same as SSD1306 tiles)
 100:..\..\u8g2\csrc/u8x8_d_lc7981.c **** 	Buffer is expected to have 8 lines of code fitting to the t6963 internal memory
 101:..\..\u8g2\csrc/u8x8_d_lc7981.c **** 	"cnt" includes the number of horizontal bytes. width is equal to cnt*8
 102:..\..\u8g2\csrc/u8x8_d_lc7981.c **** 	
 103:..\..\u8g2\csrc/u8x8_d_lc7981.c **** 	x is assumed to be zero
 104:..\..\u8g2\csrc/u8x8_d_lc7981.c ****     
 105:..\..\u8g2\csrc/u8x8_d_lc7981.c **** 	TODO: Consider arg_int, however arg_int is not used by u8g2
 106:..\..\u8g2\csrc/u8x8_d_lc7981.c ****       */
 107:..\..\u8g2\csrc/u8x8_d_lc7981.c ****       c = ((u8x8_tile_t *)arg_ptr)->cnt;	/* number of tiles */
  52              		.loc 1 107 0
  53 0012 3379     		ldrb	r3, [r6, #4]
  94:..\..\u8g2\csrc/u8x8_d_lc7981.c ****       /* x = ((u8x8_tile_t *)arg_ptr)->x_pos; x is ignored... no u8x8 support */
  54              		.loc 1 94 0
  55 0014 ED00     		lsls	r5, r5, #3
  56              		.loc 1 107 0
  57 0016 0193     		str	r3, [sp, #4]
 108:..\..\u8g2\csrc/u8x8_d_lc7981.c ****       ptr = ((u8x8_tile_t *)arg_ptr)->tile_ptr;	/* data ptr to the tiles */
  58              		.loc 1 108 0
  59 0018 0823     		movs	r3, #8
  60 001a 3668     		ldr	r6, [r6]
  61              	.LVL2:
  94:..\..\u8g2\csrc/u8x8_d_lc7981.c ****       /* x = ((u8x8_tile_t *)arg_ptr)->x_pos; x is ignored... no u8x8 support */
ARM GAS  C:\Users\Greg\AppData\Local\Temp\ccXix9lJ.s 			page 4


  62              		.loc 1 94 0
  63 001c ADB2     		uxth	r5, r5
  64              	.LVL3:
  65              		.loc 1 108 0
  66 001e 0093     		str	r3, [sp]
  67              	.LVL4:
  68              	.L4:
 109:..\..\u8g2\csrc/u8x8_d_lc7981.c ****       for( i = 0; i < 8; i++ )
 110:..\..\u8g2\csrc/u8x8_d_lc7981.c ****       {
 111:..\..\u8g2\csrc/u8x8_d_lc7981.c **** 	u8x8_cad_SendCmd(u8x8, 0x0a );	/* display ram (cursor) address low byte */
  69              		.loc 1 111 0
  70 0020 0A21     		movs	r1, #10
  71 0022 2000     		movs	r0, r4
  72 0024 FFF7FEFF 		bl	u8x8_cad_SendCmd
  73              	.LVL5:
 112:..\..\u8g2\csrc/u8x8_d_lc7981.c **** 	u8x8_cad_SendArg(u8x8, y&255);
  74              		.loc 1 112 0
  75 0028 E9B2     		uxtb	r1, r5
  76 002a 2000     		movs	r0, r4
  77 002c FFF7FEFF 		bl	u8x8_cad_SendArg
  78              	.LVL6:
 113:..\..\u8g2\csrc/u8x8_d_lc7981.c **** 	u8x8_cad_SendCmd(u8x8, 0x0b );	/* display ram (cursor) address high byte */
  79              		.loc 1 113 0
  80 0030 0B21     		movs	r1, #11
  81 0032 2000     		movs	r0, r4
  82 0034 FFF7FEFF 		bl	u8x8_cad_SendCmd
  83              	.LVL7:
 114:..\..\u8g2\csrc/u8x8_d_lc7981.c **** 	u8x8_cad_SendArg(u8x8, y>>8);
  84              		.loc 1 114 0
  85 0038 290A     		lsrs	r1, r5, #8
  86 003a 2000     		movs	r0, r4
  87 003c FFF7FEFF 		bl	u8x8_cad_SendArg
  88              	.LVL8:
 115:..\..\u8g2\csrc/u8x8_d_lc7981.c **** 	
 116:..\..\u8g2\csrc/u8x8_d_lc7981.c **** 	u8x8_cad_SendCmd(u8x8, 0x0c );	/* write start */
  89              		.loc 1 116 0
  90 0040 0C21     		movs	r1, #12
  91 0042 2000     		movs	r0, r4
  92 0044 FFF7FEFF 		bl	u8x8_cad_SendCmd
  93              	.LVL9:
  94 0048 019B     		ldr	r3, [sp, #4]
  95 004a 3700     		movs	r7, r6
  96 004c F618     		adds	r6, r6, r3
  97              	.LVL10:
  98              	.L2:
 117:..\..\u8g2\csrc/u8x8_d_lc7981.c **** 	/*
 118:..\..\u8g2\csrc/u8x8_d_lc7981.c **** 	  The LC7981 has the MSB at the right position, which is exactly the opposite to the T6963.
 119:..\..\u8g2\csrc/u8x8_d_lc7981.c **** 	  Instead of writing a third hvline procedure for this device, we just revert the bytes before 
 120:..\..\u8g2\csrc/u8x8_d_lc7981.c **** 	  transmit. This is slow because:
 121:..\..\u8g2\csrc/u8x8_d_lc7981.c **** 	    - the bit reverse itself
 122:..\..\u8g2\csrc/u8x8_d_lc7981.c **** 	    - the single byte transfer 
 123:..\..\u8g2\csrc/u8x8_d_lc7981.c **** 	   The one byte is transmitted via SendArg, which is ok, because CAD = 100
 124:..\..\u8g2\csrc/u8x8_d_lc7981.c **** 	*/
 125:..\..\u8g2\csrc/u8x8_d_lc7981.c **** 	for( j = 0; j < c; j++ )
  99              		.loc 1 125 0
 100 004e BE42     		cmp	r6, r7
 101 0050 17D0     		beq	.L7
ARM GAS  C:\Users\Greg\AppData\Local\Temp\ccXix9lJ.s 			page 5


 102              	.LVL11:
 103              	.LBB4:
 104              	.LBB5:
  75:..\..\u8g2\csrc/u8x8_d_lc7981.c ****     // swap consecutive pairs
 105              		.loc 1 75 0
 106 0052 5523     		movs	r3, #85
 107              	.LBE5:
 108              	.LBE4:
 126:..\..\u8g2\csrc/u8x8_d_lc7981.c **** 	  u8x8_cad_SendArg(u8x8, reverse_byte(*ptr++));
 109              		.loc 1 126 0
 110 0054 3978     		ldrb	r1, [r7]
 111              	.LVL12:
 112 0056 2000     		movs	r0, r4
 113              	.LBB7:
 114              	.LBB6:
  75:..\..\u8g2\csrc/u8x8_d_lc7981.c ****     // swap consecutive pairs
 115              		.loc 1 75 0
 116 0058 4A08     		lsrs	r2, r1, #1
 117 005a 4900     		lsls	r1, r1, #1
 118              	.LVL13:
 119 005c 9943     		bics	r1, r3
 120 005e 1A40     		ands	r2, r3
 121 0060 0A43     		orrs	r2, r1
  77:..\..\u8g2\csrc/u8x8_d_lc7981.c ****     // swap nibbles ... 
 122              		.loc 1 77 0
 123 0062 3321     		movs	r1, #51
  75:..\..\u8g2\csrc/u8x8_d_lc7981.c ****     // swap consecutive pairs
 124              		.loc 1 75 0
 125 0064 D2B2     		uxtb	r2, r2
 126              	.LVL14:
  77:..\..\u8g2\csrc/u8x8_d_lc7981.c ****     // swap nibbles ... 
 127              		.loc 1 77 0
 128 0066 9308     		lsrs	r3, r2, #2
 129 0068 9200     		lsls	r2, r2, #2
 130              	.LVL15:
 131 006a 8A43     		bics	r2, r1
 132 006c 0B40     		ands	r3, r1
 133 006e 1343     		orrs	r3, r2
 134 0070 DBB2     		uxtb	r3, r3
 135              	.LVL16:
  79:..\..\u8g2\csrc/u8x8_d_lc7981.c ****   }
 136              		.loc 1 79 0
 137 0072 1909     		lsrs	r1, r3, #4
 138 0074 1B01     		lsls	r3, r3, #4
 139 0076 0B43     		orrs	r3, r1
 140              	.LBE6:
 141              	.LBE7:
 142              		.loc 1 126 0
 143 0078 D9B2     		uxtb	r1, r3
 144 007a FFF7FEFF 		bl	u8x8_cad_SendArg
 145              	.LVL17:
 146 007e 0137     		adds	r7, r7, #1
 147              	.LVL18:
 148 0080 E5E7     		b	.L2
 149              	.LVL19:
 150              	.L7:
 127:..\..\u8g2\csrc/u8x8_d_lc7981.c **** 	
ARM GAS  C:\Users\Greg\AppData\Local\Temp\ccXix9lJ.s 			page 6


 128:..\..\u8g2\csrc/u8x8_d_lc7981.c **** 	//u8x8_cad_SendData(u8x8, c, ptr);	/* note: SendData can not handle more than 255 bytes, send one 
 129:..\..\u8g2\csrc/u8x8_d_lc7981.c **** 	//ptr += u8x8->display_info->tile_width;
 130:..\..\u8g2\csrc/u8x8_d_lc7981.c **** 	
 131:..\..\u8g2\csrc/u8x8_d_lc7981.c **** 	y += u8x8->display_info->tile_width;
 151              		.loc 1 131 0
 152 0082 2368     		ldr	r3, [r4]
 153 0084 1B7C     		ldrb	r3, [r3, #16]
 154 0086 ED18     		adds	r5, r5, r3
 155              	.LVL20:
 156 0088 009B     		ldr	r3, [sp]
 157 008a ADB2     		uxth	r5, r5
 158              	.LVL21:
 159 008c 013B     		subs	r3, r3, #1
 160 008e DBB2     		uxtb	r3, r3
 161 0090 0093     		str	r3, [sp]
 162              	.LVL22:
 109:..\..\u8g2\csrc/u8x8_d_lc7981.c ****       {
 163              		.loc 1 109 0
 164 0092 002B     		cmp	r3, #0
 165 0094 C4D1     		bne	.L4
 132:..\..\u8g2\csrc/u8x8_d_lc7981.c ****       }
 133:..\..\u8g2\csrc/u8x8_d_lc7981.c **** 
 134:..\..\u8g2\csrc/u8x8_d_lc7981.c ****       u8x8_cad_EndTransfer(u8x8);
 166              		.loc 1 134 0
 167 0096 2000     		movs	r0, r4
 168 0098 FFF7FEFF 		bl	u8x8_cad_EndTransfer
 169              	.LVL23:
 135:..\..\u8g2\csrc/u8x8_d_lc7981.c ****       break;
 136:..\..\u8g2\csrc/u8x8_d_lc7981.c ****     /*	handled in the calling procedure 
 137:..\..\u8g2\csrc/u8x8_d_lc7981.c ****     case U8X8_MSG_DISPLAY_SETUP_MEMORY:
 138:..\..\u8g2\csrc/u8x8_d_lc7981.c ****       u8x8_d_helper_display_setup_memory(u8x8, &u8x8_lc7981_128x64_display_info);
 139:..\..\u8g2\csrc/u8x8_d_lc7981.c ****       break;
 140:..\..\u8g2\csrc/u8x8_d_lc7981.c ****     case U8X8_MSG_DISPLAY_INIT:
 141:..\..\u8g2\csrc/u8x8_d_lc7981.c ****       u8x8_d_helper_display_init(u8x8);
 142:..\..\u8g2\csrc/u8x8_d_lc7981.c ****       u8x8_cad_SendSequence(u8x8, u8x8_d_uc1701_dogs102_init_seq);
 143:..\..\u8g2\csrc/u8x8_d_lc7981.c ****       break;
 144:..\..\u8g2\csrc/u8x8_d_lc7981.c ****     */
 145:..\..\u8g2\csrc/u8x8_d_lc7981.c ****     /* power save is not there... 
 146:..\..\u8g2\csrc/u8x8_d_lc7981.c ****     case U8X8_MSG_DISPLAY_SET_POWER_SAVE:
 147:..\..\u8g2\csrc/u8x8_d_lc7981.c ****       if ( arg_int == 0 )
 148:..\..\u8g2\csrc/u8x8_d_lc7981.c **** 	u8x8_cad_SendSequence(u8x8, u8x8_d_lc7981_powersave0_seq);
 149:..\..\u8g2\csrc/u8x8_d_lc7981.c ****       else
 150:..\..\u8g2\csrc/u8x8_d_lc7981.c **** 	u8x8_cad_SendSequence(u8x8, u8x8_d_lc7981_powersave1_seq);
 151:..\..\u8g2\csrc/u8x8_d_lc7981.c ****       break;
 152:..\..\u8g2\csrc/u8x8_d_lc7981.c ****     */
 153:..\..\u8g2\csrc/u8x8_d_lc7981.c ****     /* hardware flip not is not available
 154:..\..\u8g2\csrc/u8x8_d_lc7981.c ****     case U8X8_MSG_DISPLAY_SET_FLIP_MODE:
 155:..\..\u8g2\csrc/u8x8_d_lc7981.c ****       if ( arg_int == 0 )
 156:..\..\u8g2\csrc/u8x8_d_lc7981.c ****       {
 157:..\..\u8g2\csrc/u8x8_d_lc7981.c **** 	u8x8_cad_SendSequence(u8x8, u8x8_d_lc7981_flip0_seq);
 158:..\..\u8g2\csrc/u8x8_d_lc7981.c **** 	u8x8->x_offset = u8x8->display_info->default_x_offset;
 159:..\..\u8g2\csrc/u8x8_d_lc7981.c ****       }
 160:..\..\u8g2\csrc/u8x8_d_lc7981.c ****       else
 161:..\..\u8g2\csrc/u8x8_d_lc7981.c ****       {
 162:..\..\u8g2\csrc/u8x8_d_lc7981.c **** 	u8x8_cad_SendSequence(u8x8, u8x8_d_lc7981_flip1_seq);
 163:..\..\u8g2\csrc/u8x8_d_lc7981.c **** 	u8x8->x_offset = u8x8->display_info->flipmode_x_offset;
 164:..\..\u8g2\csrc/u8x8_d_lc7981.c ****       }	
ARM GAS  C:\Users\Greg\AppData\Local\Temp\ccXix9lJ.s 			page 7


 165:..\..\u8g2\csrc/u8x8_d_lc7981.c ****       break;
 166:..\..\u8g2\csrc/u8x8_d_lc7981.c ****     */
 167:..\..\u8g2\csrc/u8x8_d_lc7981.c **** #ifdef U8X8_WITH_SET_CONTRAST
 168:..\..\u8g2\csrc/u8x8_d_lc7981.c ****     /* no contrast setting :-(
 169:..\..\u8g2\csrc/u8x8_d_lc7981.c ****     case U8X8_MSG_DISPLAY_SET_CONTRAST:
 170:..\..\u8g2\csrc/u8x8_d_lc7981.c ****       u8x8_cad_StartTransfer(u8x8);
 171:..\..\u8g2\csrc/u8x8_d_lc7981.c ****       u8x8_cad_SendCmd(u8x8, 0x081 );
 172:..\..\u8g2\csrc/u8x8_d_lc7981.c ****       u8x8_cad_SendArg(u8x8, arg_int  );
 173:..\..\u8g2\csrc/u8x8_d_lc7981.c ****       u8x8_cad_EndTransfer(u8x8);
 174:..\..\u8g2\csrc/u8x8_d_lc7981.c ****       break;
 175:..\..\u8g2\csrc/u8x8_d_lc7981.c ****   */
 176:..\..\u8g2\csrc/u8x8_d_lc7981.c **** #endif
 177:..\..\u8g2\csrc/u8x8_d_lc7981.c ****     default:
 178:..\..\u8g2\csrc/u8x8_d_lc7981.c ****       return 0;
 179:..\..\u8g2\csrc/u8x8_d_lc7981.c ****   }
 180:..\..\u8g2\csrc/u8x8_d_lc7981.c ****   return 1;
 181:..\..\u8g2\csrc/u8x8_d_lc7981.c **** }
 170              		.loc 1 181 0
 171              		@ sp needed
 172 009c 0120     		movs	r0, #1
 173              	.LVL24:
 174              	.LVL25:
 175              	.LVL26:
 176 009e FEBD     		pop	{r1, r2, r3, r4, r5, r6, r7, pc}
 177              		.cfi_endproc
 178              	.LFE5:
 179              		.size	u8x8_d_lc7981_common.isra.0.part.1, .-u8x8_d_lc7981_common.isra.0.part.1
 180              		.section	.text.u8x8_d_lc7981_160x80,"ax",%progbits
 181              		.align	1
 182              		.global	u8x8_d_lc7981_160x80
 183              		.code	16
 184              		.thumb_func
 185              		.type	u8x8_d_lc7981_160x80, %function
 186              	u8x8_d_lc7981_160x80:
 187              	.LFB2:
 182:..\..\u8g2\csrc/u8x8_d_lc7981.c **** 
 183:..\..\u8g2\csrc/u8x8_d_lc7981.c **** /*================================================*/
 184:..\..\u8g2\csrc/u8x8_d_lc7981.c **** /* LC7981 160x80 LCD*/
 185:..\..\u8g2\csrc/u8x8_d_lc7981.c **** 
 186:..\..\u8g2\csrc/u8x8_d_lc7981.c **** /* 
 187:..\..\u8g2\csrc/u8x8_d_lc7981.c **** 
 188:..\..\u8g2\csrc/u8x8_d_lc7981.c **** */
 189:..\..\u8g2\csrc/u8x8_d_lc7981.c **** static const u8x8_display_info_t u8x8_lc7981_160x80_display_info =
 190:..\..\u8g2\csrc/u8x8_d_lc7981.c **** {
 191:..\..\u8g2\csrc/u8x8_d_lc7981.c ****   /* chip_enable_level = */ 0,	/* LC7981 has a low active CS*/
 192:..\..\u8g2\csrc/u8x8_d_lc7981.c ****   /* chip_disable_level = */ 1,
 193:..\..\u8g2\csrc/u8x8_d_lc7981.c ****   
 194:..\..\u8g2\csrc/u8x8_d_lc7981.c ****   /* from here... */
 195:..\..\u8g2\csrc/u8x8_d_lc7981.c ****   /* post_chip_enable_wait_ns = */ 20,	
 196:..\..\u8g2\csrc/u8x8_d_lc7981.c ****   /* pre_chip_disable_wait_ns = */ 20,	
 197:..\..\u8g2\csrc/u8x8_d_lc7981.c ****   /* reset_pulse_width_ms = */ 1, 	
 198:..\..\u8g2\csrc/u8x8_d_lc7981.c ****   /* post_reset_wait_ms = */ 10, 	
 199:..\..\u8g2\csrc/u8x8_d_lc7981.c ****   /* sda_setup_time_ns = */ 30,		
 200:..\..\u8g2\csrc/u8x8_d_lc7981.c ****   /* sck_pulse_width_ns = */ 65,	/* half of cycle time  */
 201:..\..\u8g2\csrc/u8x8_d_lc7981.c ****   /* sck_clock_hz = */ 4000000UL,	/* since Arduino 1.6.0, the SPI bus speed in Hz. Should be  10000
 202:..\..\u8g2\csrc/u8x8_d_lc7981.c ****   /* spi_mode = */ 0,		/* active high, rising edge */
 203:..\..\u8g2\csrc/u8x8_d_lc7981.c ****   /* i2c_bus_clock_100kHz = */ 4,
ARM GAS  C:\Users\Greg\AppData\Local\Temp\ccXix9lJ.s 			page 8


 204:..\..\u8g2\csrc/u8x8_d_lc7981.c ****   /* ... to here, values are ignored, because this is a parallel interface only */
 205:..\..\u8g2\csrc/u8x8_d_lc7981.c ****   
 206:..\..\u8g2\csrc/u8x8_d_lc7981.c ****   /* data_setup_time_ns = */ 220,	
 207:..\..\u8g2\csrc/u8x8_d_lc7981.c ****   /* write_pulse_width_ns = */ 20,	
 208:..\..\u8g2\csrc/u8x8_d_lc7981.c ****   /* tile_width = */ 20,		/* width of 20*8=160 pixel */
 209:..\..\u8g2\csrc/u8x8_d_lc7981.c ****   /* tile_hight = */ 10,
 210:..\..\u8g2\csrc/u8x8_d_lc7981.c ****   /* default_x_offset = */ 0,	
 211:..\..\u8g2\csrc/u8x8_d_lc7981.c ****   /* flipmode_x_offset = */ 0,	
 212:..\..\u8g2\csrc/u8x8_d_lc7981.c ****   /* pixel_width = */ 160,
 213:..\..\u8g2\csrc/u8x8_d_lc7981.c ****   /* pixel_height = */ 80
 214:..\..\u8g2\csrc/u8x8_d_lc7981.c **** };
 215:..\..\u8g2\csrc/u8x8_d_lc7981.c **** 
 216:..\..\u8g2\csrc/u8x8_d_lc7981.c **** static const uint8_t u8x8_d_lc7981_160x80_init_seq[] = {
 217:..\..\u8g2\csrc/u8x8_d_lc7981.c ****     
 218:..\..\u8g2\csrc/u8x8_d_lc7981.c ****   U8X8_START_TRANSFER(),             	/* enable chip, delay is part of the transfer start */
 219:..\..\u8g2\csrc/u8x8_d_lc7981.c ****   
 220:..\..\u8g2\csrc/u8x8_d_lc7981.c ****   U8X8_DLY(50),
 221:..\..\u8g2\csrc/u8x8_d_lc7981.c **** 
 222:..\..\u8g2\csrc/u8x8_d_lc7981.c ****   U8X8_CA(0x00, 0x32),			/* display on (bit 5), master mode on (bit 4), graphics mode on (bit 1) */
 223:..\..\u8g2\csrc/u8x8_d_lc7981.c ****   U8X8_CA(0x01, 0x07),			/* character/bits per pixel pitch */
 224:..\..\u8g2\csrc/u8x8_d_lc7981.c ****   U8X8_CA(0x02, 160/8-1),		/* number of chars/byte width of the screen */
 225:..\..\u8g2\csrc/u8x8_d_lc7981.c ****   U8X8_CA(0x03, 0x50),			/* time division:  50 (1/80 duty cycle) */
 226:..\..\u8g2\csrc/u8x8_d_lc7981.c ****   U8X8_CA(0x08, 0x00),			/* display start low */
 227:..\..\u8g2\csrc/u8x8_d_lc7981.c ****   U8X8_CA(0x09, 0x00),			/* display start high */
 228:..\..\u8g2\csrc/u8x8_d_lc7981.c **** 
 229:..\..\u8g2\csrc/u8x8_d_lc7981.c ****   U8X8_DLY(10),
 230:..\..\u8g2\csrc/u8x8_d_lc7981.c ****   
 231:..\..\u8g2\csrc/u8x8_d_lc7981.c ****   U8X8_END_TRANSFER(),             	/* disable chip */
 232:..\..\u8g2\csrc/u8x8_d_lc7981.c ****   U8X8_END()             			/* end of sequence */
 233:..\..\u8g2\csrc/u8x8_d_lc7981.c **** };
 234:..\..\u8g2\csrc/u8x8_d_lc7981.c **** 
 235:..\..\u8g2\csrc/u8x8_d_lc7981.c **** uint8_t u8x8_d_lc7981_160x80(u8x8_t *u8x8, uint8_t msg, uint8_t arg_int, void *arg_ptr)
 236:..\..\u8g2\csrc/u8x8_d_lc7981.c **** {
 188              		.loc 1 236 0
 189              		.cfi_startproc
 190              		@ args = 0, pretend = 0, frame = 0
 191              		@ frame_needed = 0, uses_anonymous_args = 0
 192              	.LVL27:
 193 0000 10B5     		push	{r4, lr}
 194              		.cfi_def_cfa_offset 8
 195              		.cfi_offset 4, -8
 196              		.cfi_offset 14, -4
 197              		.loc 1 236 0
 198 0002 0400     		movs	r4, r0
 199              	.LBB10:
 200              	.LBB11:
  89:..\..\u8g2\csrc/u8x8_d_lc7981.c ****   {
 201              		.loc 1 89 0
 202 0004 0F29     		cmp	r1, #15
 203 0006 06D1     		bne	.L15
 204 0008 1900     		movs	r1, r3
 205              	.LVL28:
 206 000a FFF7FEFF 		bl	u8x8_d_lc7981_common.isra.0.part.1
 207              	.LVL29:
 208              	.LBE11:
 209              	.LBE10:
 237:..\..\u8g2\csrc/u8x8_d_lc7981.c ****   /* call common procedure first and handle messages there */
ARM GAS  C:\Users\Greg\AppData\Local\Temp\ccXix9lJ.s 			page 9


 238:..\..\u8g2\csrc/u8x8_d_lc7981.c ****   if ( u8x8_d_lc7981_common(u8x8, msg, arg_int, arg_ptr) == 0 )
 239:..\..\u8g2\csrc/u8x8_d_lc7981.c ****   {
 240:..\..\u8g2\csrc/u8x8_d_lc7981.c ****     /* msg not handled, then try here */
 241:..\..\u8g2\csrc/u8x8_d_lc7981.c ****     switch(msg)
 242:..\..\u8g2\csrc/u8x8_d_lc7981.c ****     {
 243:..\..\u8g2\csrc/u8x8_d_lc7981.c ****       case U8X8_MSG_DISPLAY_SETUP_MEMORY:
 244:..\..\u8g2\csrc/u8x8_d_lc7981.c **** 	u8x8_d_helper_display_setup_memory(u8x8, &u8x8_lc7981_160x80_display_info);
 245:..\..\u8g2\csrc/u8x8_d_lc7981.c **** 	break;
 246:..\..\u8g2\csrc/u8x8_d_lc7981.c ****       case U8X8_MSG_DISPLAY_INIT:
 247:..\..\u8g2\csrc/u8x8_d_lc7981.c **** 	u8x8_d_helper_display_init(u8x8);
 248:..\..\u8g2\csrc/u8x8_d_lc7981.c **** 	u8x8_cad_SendSequence(u8x8, u8x8_d_lc7981_160x80_init_seq);
 249:..\..\u8g2\csrc/u8x8_d_lc7981.c **** 	break;
 250:..\..\u8g2\csrc/u8x8_d_lc7981.c ****       default:
 251:..\..\u8g2\csrc/u8x8_d_lc7981.c **** 	return 0;		/* msg unknown */
 210              		.loc 1 251 0
 211 000e 431E     		subs	r3, r0, #1
 212 0010 9841     		sbcs	r0, r0, r3
 213 0012 C0B2     		uxtb	r0, r0
 214 0014 11E0     		b	.L11
 215              	.LVL30:
 216              	.L15:
 241:..\..\u8g2\csrc/u8x8_d_lc7981.c ****     {
 217              		.loc 1 241 0
 218 0016 0929     		cmp	r1, #9
 219 0018 09D0     		beq	.L12
 220 001a 0A29     		cmp	r1, #10
 221 001c 0CD1     		bne	.L18
 247:..\..\u8g2\csrc/u8x8_d_lc7981.c **** 	u8x8_cad_SendSequence(u8x8, u8x8_d_lc7981_160x80_init_seq);
 222              		.loc 1 247 0
 223 001e FFF7FEFF 		bl	u8x8_d_helper_display_init
 224              	.LVL31:
 248:..\..\u8g2\csrc/u8x8_d_lc7981.c **** 	break;
 225              		.loc 1 248 0
 226 0022 0649     		ldr	r1, .L19
 227 0024 2000     		movs	r0, r4
 228 0026 1831     		adds	r1, r1, #24
 229 0028 FFF7FEFF 		bl	u8x8_cad_SendSequence
 230              	.LVL32:
 231 002c 02E0     		b	.L17
 232              	.LVL33:
 233              	.L12:
 244:..\..\u8g2\csrc/u8x8_d_lc7981.c **** 	break;
 234              		.loc 1 244 0
 235 002e 0349     		ldr	r1, .L19
 236              	.LVL34:
 237 0030 FFF7FEFF 		bl	u8x8_d_helper_display_setup_memory
 238              	.LVL35:
 239              	.L17:
 252:..\..\u8g2\csrc/u8x8_d_lc7981.c ****     }
 253:..\..\u8g2\csrc/u8x8_d_lc7981.c ****   }
 254:..\..\u8g2\csrc/u8x8_d_lc7981.c ****   return 1;
 240              		.loc 1 254 0
 241 0034 0120     		movs	r0, #1
 249:..\..\u8g2\csrc/u8x8_d_lc7981.c ****       default:
 242              		.loc 1 249 0
 243 0036 00E0     		b	.L11
 244              	.LVL36:
ARM GAS  C:\Users\Greg\AppData\Local\Temp\ccXix9lJ.s 			page 10


 245              	.L18:
 251:..\..\u8g2\csrc/u8x8_d_lc7981.c ****     }
 246              		.loc 1 251 0
 247 0038 0020     		movs	r0, #0
 248              	.LVL37:
 249              	.L11:
 255:..\..\u8g2\csrc/u8x8_d_lc7981.c **** }
 250              		.loc 1 255 0
 251              		@ sp needed
 252              	.LVL38:
 253 003a 10BD     		pop	{r4, pc}
 254              	.L20:
 255              		.align	2
 256              	.L19:
 257 003c 00000000 		.word	.LANCHOR0
 258              		.cfi_endproc
 259              	.LFE2:
 260              		.size	u8x8_d_lc7981_160x80, .-u8x8_d_lc7981_160x80
 261              		.section	.text.u8x8_d_lc7981_240x128,"ax",%progbits
 262              		.align	1
 263              		.global	u8x8_d_lc7981_240x128
 264              		.code	16
 265              		.thumb_func
 266              		.type	u8x8_d_lc7981_240x128, %function
 267              	u8x8_d_lc7981_240x128:
 268              	.LFB3:
 256:..\..\u8g2\csrc/u8x8_d_lc7981.c **** 
 257:..\..\u8g2\csrc/u8x8_d_lc7981.c **** 
 258:..\..\u8g2\csrc/u8x8_d_lc7981.c **** /*================================================*/
 259:..\..\u8g2\csrc/u8x8_d_lc7981.c **** /* LC7981 240x128 LCD*/
 260:..\..\u8g2\csrc/u8x8_d_lc7981.c **** 
 261:..\..\u8g2\csrc/u8x8_d_lc7981.c **** /* 
 262:..\..\u8g2\csrc/u8x8_d_lc7981.c **** 
 263:..\..\u8g2\csrc/u8x8_d_lc7981.c **** */
 264:..\..\u8g2\csrc/u8x8_d_lc7981.c **** static const u8x8_display_info_t u8x8_lc7981_240x128_display_info =
 265:..\..\u8g2\csrc/u8x8_d_lc7981.c **** {
 266:..\..\u8g2\csrc/u8x8_d_lc7981.c ****   /* chip_enable_level = */ 0,	/* LC7981 has a low active CS*/
 267:..\..\u8g2\csrc/u8x8_d_lc7981.c ****   /* chip_disable_level = */ 1,
 268:..\..\u8g2\csrc/u8x8_d_lc7981.c ****   
 269:..\..\u8g2\csrc/u8x8_d_lc7981.c ****   /* from here... */
 270:..\..\u8g2\csrc/u8x8_d_lc7981.c ****   /* post_chip_enable_wait_ns = */ 20,	
 271:..\..\u8g2\csrc/u8x8_d_lc7981.c ****   /* pre_chip_disable_wait_ns = */ 20,	
 272:..\..\u8g2\csrc/u8x8_d_lc7981.c ****   /* reset_pulse_width_ms = */ 1, 	
 273:..\..\u8g2\csrc/u8x8_d_lc7981.c ****   /* post_reset_wait_ms = */ 10, 	
 274:..\..\u8g2\csrc/u8x8_d_lc7981.c ****   /* sda_setup_time_ns = */ 30,		
 275:..\..\u8g2\csrc/u8x8_d_lc7981.c ****   /* sck_pulse_width_ns = */ 65,	/* half of cycle time  */
 276:..\..\u8g2\csrc/u8x8_d_lc7981.c ****   /* sck_clock_hz = */ 4000000UL,	/* since Arduino 1.6.0, the SPI bus speed in Hz. Should be  10000
 277:..\..\u8g2\csrc/u8x8_d_lc7981.c ****   /* spi_mode = */ 0,		/* active high, rising edge */
 278:..\..\u8g2\csrc/u8x8_d_lc7981.c ****   /* i2c_bus_clock_100kHz = */ 4,
 279:..\..\u8g2\csrc/u8x8_d_lc7981.c ****   /* ... to here, values are ignored, because this is a parallel interface only */
 280:..\..\u8g2\csrc/u8x8_d_lc7981.c ****   
 281:..\..\u8g2\csrc/u8x8_d_lc7981.c ****   /* data_setup_time_ns = */ 220,	
 282:..\..\u8g2\csrc/u8x8_d_lc7981.c ****   /* write_pulse_width_ns = */ 20,	
 283:..\..\u8g2\csrc/u8x8_d_lc7981.c ****   /* tile_width = */ 30,		/* width of 30*8=240 pixel */
 284:..\..\u8g2\csrc/u8x8_d_lc7981.c ****   /* tile_hight = */ 16,
 285:..\..\u8g2\csrc/u8x8_d_lc7981.c ****   /* default_x_offset = */ 0,	
 286:..\..\u8g2\csrc/u8x8_d_lc7981.c ****   /* flipmode_x_offset = */ 0,	
ARM GAS  C:\Users\Greg\AppData\Local\Temp\ccXix9lJ.s 			page 11


 287:..\..\u8g2\csrc/u8x8_d_lc7981.c ****   /* pixel_width = */ 240,
 288:..\..\u8g2\csrc/u8x8_d_lc7981.c ****   /* pixel_height = */ 128
 289:..\..\u8g2\csrc/u8x8_d_lc7981.c **** };
 290:..\..\u8g2\csrc/u8x8_d_lc7981.c **** 
 291:..\..\u8g2\csrc/u8x8_d_lc7981.c **** static const uint8_t u8x8_d_lc7981_240x128_init_seq[] = {
 292:..\..\u8g2\csrc/u8x8_d_lc7981.c ****     
 293:..\..\u8g2\csrc/u8x8_d_lc7981.c ****   U8X8_START_TRANSFER(),             	/* enable chip, delay is part of the transfer start */
 294:..\..\u8g2\csrc/u8x8_d_lc7981.c ****   
 295:..\..\u8g2\csrc/u8x8_d_lc7981.c ****   U8X8_DLY(50),
 296:..\..\u8g2\csrc/u8x8_d_lc7981.c **** 
 297:..\..\u8g2\csrc/u8x8_d_lc7981.c ****   U8X8_CA(0x00, 0x32),			/* display on (bit 5), master mode on (bit 4), graphics mode on (bit 1) */
 298:..\..\u8g2\csrc/u8x8_d_lc7981.c ****   U8X8_CA(0x01, 0x07),			/* character/bits per pixel pitch */
 299:..\..\u8g2\csrc/u8x8_d_lc7981.c ****   U8X8_CA(0x02, 240/8-1),		/* number of chars/byte width of the screen */
 300:..\..\u8g2\csrc/u8x8_d_lc7981.c ****   U8X8_CA(0x03, 0x7f),			/* time division */
 301:..\..\u8g2\csrc/u8x8_d_lc7981.c ****   U8X8_CA(0x08, 0x00),			/* display start low */
 302:..\..\u8g2\csrc/u8x8_d_lc7981.c ****   U8X8_CA(0x09, 0x00),			/* display start high */
 303:..\..\u8g2\csrc/u8x8_d_lc7981.c **** 
 304:..\..\u8g2\csrc/u8x8_d_lc7981.c ****   U8X8_DLY(10),
 305:..\..\u8g2\csrc/u8x8_d_lc7981.c ****   
 306:..\..\u8g2\csrc/u8x8_d_lc7981.c ****   U8X8_END_TRANSFER(),             	/* disable chip */
 307:..\..\u8g2\csrc/u8x8_d_lc7981.c ****   U8X8_END()             			/* end of sequence */
 308:..\..\u8g2\csrc/u8x8_d_lc7981.c **** };
 309:..\..\u8g2\csrc/u8x8_d_lc7981.c **** 
 310:..\..\u8g2\csrc/u8x8_d_lc7981.c **** uint8_t u8x8_d_lc7981_240x128(u8x8_t *u8x8, uint8_t msg, uint8_t arg_int, void *arg_ptr)
 311:..\..\u8g2\csrc/u8x8_d_lc7981.c **** {
 269              		.loc 1 311 0
 270              		.cfi_startproc
 271              		@ args = 0, pretend = 0, frame = 0
 272              		@ frame_needed = 0, uses_anonymous_args = 0
 273              	.LVL39:
 274 0000 10B5     		push	{r4, lr}
 275              		.cfi_def_cfa_offset 8
 276              		.cfi_offset 4, -8
 277              		.cfi_offset 14, -4
 278              		.loc 1 311 0
 279 0002 0400     		movs	r4, r0
 280              	.LBB14:
 281              	.LBB15:
  89:..\..\u8g2\csrc/u8x8_d_lc7981.c ****   {
 282              		.loc 1 89 0
 283 0004 0F29     		cmp	r1, #15
 284 0006 06D1     		bne	.L28
 285 0008 1900     		movs	r1, r3
 286              	.LVL40:
 287 000a FFF7FEFF 		bl	u8x8_d_lc7981_common.isra.0.part.1
 288              	.LVL41:
 289              	.LBE15:
 290              	.LBE14:
 312:..\..\u8g2\csrc/u8x8_d_lc7981.c ****   /* call common procedure first and handle messages there */
 313:..\..\u8g2\csrc/u8x8_d_lc7981.c ****   if ( u8x8_d_lc7981_common(u8x8, msg, arg_int, arg_ptr) == 0 )
 314:..\..\u8g2\csrc/u8x8_d_lc7981.c ****   {
 315:..\..\u8g2\csrc/u8x8_d_lc7981.c ****     /* msg not handled, then try here */
 316:..\..\u8g2\csrc/u8x8_d_lc7981.c ****     switch(msg)
 317:..\..\u8g2\csrc/u8x8_d_lc7981.c ****     {
 318:..\..\u8g2\csrc/u8x8_d_lc7981.c ****       case U8X8_MSG_DISPLAY_SETUP_MEMORY:
 319:..\..\u8g2\csrc/u8x8_d_lc7981.c **** 	u8x8_d_helper_display_setup_memory(u8x8, &u8x8_lc7981_240x128_display_info);
 320:..\..\u8g2\csrc/u8x8_d_lc7981.c **** 	break;
ARM GAS  C:\Users\Greg\AppData\Local\Temp\ccXix9lJ.s 			page 12


 321:..\..\u8g2\csrc/u8x8_d_lc7981.c ****       case U8X8_MSG_DISPLAY_INIT:
 322:..\..\u8g2\csrc/u8x8_d_lc7981.c **** 	u8x8_d_helper_display_init(u8x8);
 323:..\..\u8g2\csrc/u8x8_d_lc7981.c **** 	u8x8_cad_SendSequence(u8x8, u8x8_d_lc7981_240x128_init_seq);
 324:..\..\u8g2\csrc/u8x8_d_lc7981.c **** 	break;
 325:..\..\u8g2\csrc/u8x8_d_lc7981.c ****       default:
 326:..\..\u8g2\csrc/u8x8_d_lc7981.c **** 	return 0;		/* msg unknown */
 291              		.loc 1 326 0
 292 000e 431E     		subs	r3, r0, #1
 293 0010 9841     		sbcs	r0, r0, r3
 294 0012 C0B2     		uxtb	r0, r0
 295 0014 12E0     		b	.L24
 296              	.LVL42:
 297              	.L28:
 316:..\..\u8g2\csrc/u8x8_d_lc7981.c ****     {
 298              		.loc 1 316 0
 299 0016 0929     		cmp	r1, #9
 300 0018 09D0     		beq	.L25
 301 001a 0A29     		cmp	r1, #10
 302 001c 0DD1     		bne	.L31
 322:..\..\u8g2\csrc/u8x8_d_lc7981.c **** 	u8x8_cad_SendSequence(u8x8, u8x8_d_lc7981_240x128_init_seq);
 303              		.loc 1 322 0
 304 001e FFF7FEFF 		bl	u8x8_d_helper_display_init
 305              	.LVL43:
 323:..\..\u8g2\csrc/u8x8_d_lc7981.c **** 	break;
 306              		.loc 1 323 0
 307 0022 0749     		ldr	r1, .L32
 308 0024 2000     		movs	r0, r4
 309 0026 5031     		adds	r1, r1, #80
 310 0028 FFF7FEFF 		bl	u8x8_cad_SendSequence
 311              	.LVL44:
 312 002c 03E0     		b	.L30
 313              	.LVL45:
 314              	.L25:
 319:..\..\u8g2\csrc/u8x8_d_lc7981.c **** 	break;
 315              		.loc 1 319 0
 316 002e 0449     		ldr	r1, .L32
 317              	.LVL46:
 318 0030 3831     		adds	r1, r1, #56
 319 0032 FFF7FEFF 		bl	u8x8_d_helper_display_setup_memory
 320              	.LVL47:
 321              	.L30:
 327:..\..\u8g2\csrc/u8x8_d_lc7981.c ****     }
 328:..\..\u8g2\csrc/u8x8_d_lc7981.c ****   }
 329:..\..\u8g2\csrc/u8x8_d_lc7981.c ****   return 1;
 322              		.loc 1 329 0
 323 0036 0120     		movs	r0, #1
 324:..\..\u8g2\csrc/u8x8_d_lc7981.c ****       default:
 324              		.loc 1 324 0
 325 0038 00E0     		b	.L24
 326              	.LVL48:
 327              	.L31:
 326:..\..\u8g2\csrc/u8x8_d_lc7981.c ****     }
 328              		.loc 1 326 0
 329 003a 0020     		movs	r0, #0
 330              	.LVL49:
 331              	.L24:
 330:..\..\u8g2\csrc/u8x8_d_lc7981.c **** }
ARM GAS  C:\Users\Greg\AppData\Local\Temp\ccXix9lJ.s 			page 13


 332              		.loc 1 330 0
 333              		@ sp needed
 334              	.LVL50:
 335 003c 10BD     		pop	{r4, pc}
 336              	.L33:
 337 003e C046     		.align	2
 338              	.L32:
 339 0040 00000000 		.word	.LANCHOR0
 340              		.cfi_endproc
 341              	.LFE3:
 342              		.size	u8x8_d_lc7981_240x128, .-u8x8_d_lc7981_240x128
 343              		.section	.rodata
 344              		.align	2
 345              		.set	.LANCHOR0,. + 0
 346              		.type	u8x8_lc7981_160x80_display_info, %object
 347              		.size	u8x8_lc7981_160x80_display_info, 24
 348              	u8x8_lc7981_160x80_display_info:
 349 0000 00       		.byte	0
 350 0001 01       		.byte	1
 351 0002 14       		.byte	20
 352 0003 14       		.byte	20
 353 0004 01       		.byte	1
 354 0005 0A       		.byte	10
 355 0006 1E       		.byte	30
 356 0007 41       		.byte	65
 357 0008 00093D00 		.word	4000000
 358 000c 00       		.byte	0
 359 000d 04       		.byte	4
 360 000e DC       		.byte	-36
 361 000f 14       		.byte	20
 362 0010 14       		.byte	20
 363 0011 0A       		.byte	10
 364 0012 00       		.byte	0
 365 0013 00       		.byte	0
 366 0014 A000     		.short	160
 367 0016 5000     		.short	80
 368              		.type	u8x8_d_lc7981_160x80_init_seq, %object
 369              		.size	u8x8_d_lc7981_160x80_init_seq, 31
 370              	u8x8_d_lc7981_160x80_init_seq:
 371 0018 18       		.byte	24
 372 0019 FE       		.byte	-2
 373 001a 32       		.byte	50
 374 001b 15       		.byte	21
 375 001c 00       		.byte	0
 376 001d 16       		.byte	22
 377 001e 32       		.byte	50
 378 001f 15       		.byte	21
 379 0020 01       		.byte	1
 380 0021 16       		.byte	22
 381 0022 07       		.byte	7
 382 0023 15       		.byte	21
 383 0024 02       		.byte	2
 384 0025 16       		.byte	22
 385 0026 13       		.byte	19
 386 0027 15       		.byte	21
 387 0028 03       		.byte	3
 388 0029 16       		.byte	22
ARM GAS  C:\Users\Greg\AppData\Local\Temp\ccXix9lJ.s 			page 14


 389 002a 50       		.byte	80
 390 002b 15       		.byte	21
 391 002c 08       		.byte	8
 392 002d 16       		.byte	22
 393 002e 00       		.byte	0
 394 002f 15       		.byte	21
 395 0030 09       		.byte	9
 396 0031 16       		.byte	22
 397 0032 00       		.byte	0
 398 0033 FE       		.byte	-2
 399 0034 0A       		.byte	10
 400 0035 19       		.byte	25
 401 0036 FF       		.byte	-1
 402 0037 00       		.space	1
 403              		.type	u8x8_lc7981_240x128_display_info, %object
 404              		.size	u8x8_lc7981_240x128_display_info, 24
 405              	u8x8_lc7981_240x128_display_info:
 406 0038 00       		.byte	0
 407 0039 01       		.byte	1
 408 003a 14       		.byte	20
 409 003b 14       		.byte	20
 410 003c 01       		.byte	1
 411 003d 0A       		.byte	10
 412 003e 1E       		.byte	30
 413 003f 41       		.byte	65
 414 0040 00093D00 		.word	4000000
 415 0044 00       		.byte	0
 416 0045 04       		.byte	4
 417 0046 DC       		.byte	-36
 418 0047 14       		.byte	20
 419 0048 1E       		.byte	30
 420 0049 10       		.byte	16
 421 004a 00       		.byte	0
 422 004b 00       		.byte	0
 423 004c F000     		.short	240
 424 004e 8000     		.short	128
 425              		.type	u8x8_d_lc7981_240x128_init_seq, %object
 426              		.size	u8x8_d_lc7981_240x128_init_seq, 31
 427              	u8x8_d_lc7981_240x128_init_seq:
 428 0050 18       		.byte	24
 429 0051 FE       		.byte	-2
 430 0052 32       		.byte	50
 431 0053 15       		.byte	21
 432 0054 00       		.byte	0
 433 0055 16       		.byte	22
 434 0056 32       		.byte	50
 435 0057 15       		.byte	21
 436 0058 01       		.byte	1
 437 0059 16       		.byte	22
 438 005a 07       		.byte	7
 439 005b 15       		.byte	21
 440 005c 02       		.byte	2
 441 005d 16       		.byte	22
 442 005e 1D       		.byte	29
 443 005f 15       		.byte	21
 444 0060 03       		.byte	3
 445 0061 16       		.byte	22
ARM GAS  C:\Users\Greg\AppData\Local\Temp\ccXix9lJ.s 			page 15


 446 0062 7F       		.byte	127
 447 0063 15       		.byte	21
 448 0064 08       		.byte	8
 449 0065 16       		.byte	22
 450 0066 00       		.byte	0
 451 0067 15       		.byte	21
 452 0068 09       		.byte	9
 453 0069 16       		.byte	22
 454 006a 00       		.byte	0
 455 006b FE       		.byte	-2
 456 006c 0A       		.byte	10
 457 006d 19       		.byte	25
 458 006e FF       		.byte	-1
 459              		.text
 460              	.Letext0:
 461              		.file 2 "c:\\program files\\cypress\\psoc creator\\4.1\\psoc creator\\import\\gnu\\arm\\5.4.1\\arm
 462              		.file 3 "c:\\program files\\cypress\\psoc creator\\4.1\\psoc creator\\import\\gnu\\arm\\5.4.1\\arm
 463              		.file 4 "..\\..\\u8g2\\csrc\\u8x8.h"